	.section	__TEXT,__text,regular,pure_instructions
	.macosx_version_min 10, 7
	.p2align	4, 0x90
__ZN100_$LT$alloc..string..String$u20$as$u20$core..ops..index..Index$LT$core..ops..range..RangeFull$GT$$GT$5index17h2e51fc1a4f51c06dE:
	.cfi_startproc
	pushq	%rbp
	.cfi_def_cfa_offset 16
	.cfi_offset %rbp, -16
	movq	%rsp, %rbp
	.cfi_def_cfa_register %rbp
	subq	$48, %rsp
	movq	%rsi, -8(%rbp)
	callq	__ZN68_$LT$alloc..vec..Vec$LT$T$GT$$u20$as$u20$core..ops..deref..Deref$GT$5deref17h733320c3cdb9fd13E
	movq	%rax, -16(%rbp)
	movq	%rdx, -24(%rbp)
	movq	-16(%rbp), %rdi
	movq	-24(%rbp), %rsi
	callq	__ZN4core3str19from_utf8_unchecked17hdb7b67bd830216b5E
	movq	%rax, -32(%rbp)
	movq	%rdx, -40(%rbp)
	movq	-32(%rbp), %rax
	movq	-40(%rbp), %rdx
	addq	$48, %rsp
	popq	%rbp
	retq
	.cfi_endproc

	.p2align	4, 0x90
__ZN100_$LT$core..slice..Iter$LT$T$GT$$u20$as$u20$core..iter..traits..double_ended..DoubleEndedIterator$GT$9next_back17hfb520d7da044b832E:
	.cfi_startproc
	pushq	%rbp
	.cfi_def_cfa_offset 16
	.cfi_offset %rbp, -16
	movq	%rsp, %rbp
	.cfi_def_cfa_register %rbp
	subq	$80, %rsp
	movq	(%rdi), %rax
	movq	%rdi, -40(%rbp)
	movq	%rax, %rdi
	callq	__ZN4core3ptr8non_null16NonNull$LT$T$GT$6as_ptr17h12fd40e16f53a495E
	movq	%rax, -48(%rbp)
	movq	-48(%rbp), %rdi
	callq	__ZN4core3ptr7mut_ptr31_$LT$impl$u20$$BP$mut$u20$T$GT$7is_null17he43ea41de025a050E
	movq	$120, -24(%rbp)
	movq	-24(%rbp), %rax
	movq	%rax, -56(%rbp)
	movq	-56(%rbp), %rax
	cmpq	$0, %rax
	jne	LBB1_6
	jmp	LBB1_9
LBB1_6:
	movq	-40(%rbp), %rax
	movq	8(%rax), %rdi
	callq	__ZN4core3ptr9const_ptr33_$LT$impl$u20$$BP$const$u20$T$GT$7is_null17ha3b70747ee2272baE
	jmp	LBB1_9
LBB1_9:
	movq	-40(%rbp), %rax
	movq	(%rax), %rdi
	callq	__ZN4core3ptr8non_null16NonNull$LT$T$GT$6as_ptr17h12fd40e16f53a495E
	movq	%rax, -64(%rbp)
	movq	-64(%rbp), %rax
	movq	-40(%rbp), %rcx
	cmpq	8(%rcx), %rax
	je	LBB1_15
	movq	$120, -8(%rbp)
	cmpq	$0, -8(%rbp)
	je	LBB1_13
	movq	-40(%rbp), %rax
	movq	8(%rax), %rdi
	movq	$-1, %rsi
	callq	__ZN4core3ptr9const_ptr33_$LT$impl$u20$$BP$const$u20$T$GT$6offset17h26ee30f5f2419d6cE
	movq	-40(%rbp), %rcx
	movq	%rax, 8(%rcx)
	movq	8(%rcx), %rax
	movq	%rax, -16(%rbp)
	jmp	LBB1_14
LBB1_13:
	movq	-40(%rbp), %rax
	movq	8(%rax), %rcx
	movq	%rcx, %rdi
	movq	$-1, %rsi
	callq	__ZN4core3ptr9const_ptr33_$LT$impl$u20$$BP$const$u20$T$GT$15wrapping_offset17hf01d0f705b451ee2E
	movq	-40(%rbp), %rcx
	movq	%rax, 8(%rcx)
	movq	(%rcx), %rdi
	callq	__ZN4core3ptr8non_null16NonNull$LT$T$GT$6as_ptr17h12fd40e16f53a495E
	movq	%rax, -16(%rbp)
LBB1_14:
	movq	-16(%rbp), %rax
	movq	%rax, -72(%rbp)
	jmp	LBB1_16
LBB1_15:
	movq	$0, -32(%rbp)
	jmp	LBB1_17
LBB1_16:
	movq	-72(%rbp), %rax
	movq	%rax, -32(%rbp)
LBB1_17:
	movq	-32(%rbp), %rax
	addq	$80, %rsp
	popq	%rbp
	retq
	.cfi_endproc

	.p2align	4, 0x90
__ZN100_$LT$proc_macro..bridge..client..TokenStream$u20$as$u20$proc_macro..bridge..rpc..Encode$LT$S$GT$$GT$6encode17h49a6a61aedf189b1E:
	.cfi_startproc
	pushq	%rbp
	.cfi_def_cfa_offset 16
	.cfi_offset %rbp, -16
	movq	%rsp, %rbp
	.cfi_def_cfa_register %rbp
	subq	$48, %rsp
	movl	%edi, -12(%rbp)
	movl	-12(%rbp), %eax
	movl	%eax, -16(%rbp)
	movl	-16(%rbp), %edi
	movl	-16(%rbp), %eax
	movl	%eax, -8(%rbp)
	movl	-8(%rbp), %eax
	movl	%edi, -20(%rbp)
	movl	%eax, %edi
	movq	%rsi, -32(%rbp)
	movq	%rdx, -40(%rbp)
	callq	__ZN4core3mem6forget17h175775e12847ee1bE
	movl	-20(%rbp), %edi
	movq	-32(%rbp), %rsi
	movq	-40(%rbp), %rdx
	callq	__ZN82_$LT$core..num..NonZeroU32$u20$as$u20$proc_macro..bridge..rpc..Encode$LT$S$GT$$GT$6encode17hb2dcb416216ee19cE
	addq	$48, %rsp
	popq	%rbp
	retq
	.cfi_endproc

	.p2align	4, 0x90
__ZN100_$LT$syn..punctuated..Iter$LT$T$GT$$u20$as$u20$core..iter..traits..exact_size..ExactSizeIterator$GT$3len17h931cb60c3857b68dE:
	.cfi_startproc
	pushq	%rbp
	.cfi_def_cfa_offset 16
	.cfi_offset %rbp, -16
	movq	%rsp, %rbp
	.cfi_def_cfa_register %rbp
	subq	$16, %rsp
	callq	__ZN96_$LT$alloc..boxed..Box$LT$I$GT$$u20$as$u20$core..iter..traits..exact_size..ExactSizeIterator$GT$3len17h988339626d7aa44bE
	movq	%rax, -8(%rbp)
	movq	-8(%rbp), %rax
	addq	$16, %rsp
	popq	%rbp
	retq
	.cfi_endproc

	.p2align	4, 0x90
__ZN100_$LT$syn..punctuated..PrivateIter$LT$T$C$P$GT$$u20$as$u20$core..iter..traits..iterator..Iterator$GT$4next17hd13b5a9be3efa45fE:
	.cfi_startproc
	pushq	%rbp
	.cfi_def_cfa_offset 16
	.cfi_offset %rbp, -16
	movq	%rsp, %rbp
	.cfi_def_cfa_register %rbp
	subq	$48, %rsp
	movq	%rdi, -24(%rbp)
	movq	-24(%rbp), %rax
	movq	%rax, %rdi
	callq	__ZN85_$LT$core..slice..Iter$LT$T$GT$$u20$as$u20$core..iter..traits..iterator..Iterator$GT$4next17h7e51d85dc2ecb5f9E
	movq	%rax, -32(%rbp)
	movq	-32(%rbp), %rdi
	callq	__ZN4core6option15Option$LT$T$GT$3map17he671b8184a7cb844E
	movq	%rax, -40(%rbp)
	leaq	-24(%rbp), %rax
	movq	%rax, -8(%rbp)
	movq	-8(%rbp), %rsi
	movq	-40(%rbp), %rdi
	callq	__ZN4core6option15Option$LT$T$GT$7or_else17hd75f53378a503248E
	movq	%rax, -48(%rbp)
	movq	-48(%rbp), %rax
	addq	$48, %rsp
	popq	%rbp
	retq
	.cfi_endproc

	.p2align	4, 0x90
__ZN100_$LT$syn..punctuated..PrivateIter$LT$T$C$P$GT$$u20$as$u20$core..iter..traits..iterator..Iterator$GT$4next28_$u7b$$u7b$closure$u7d$$u7d$17h74e54b1ff2d86412E:
	.cfi_startproc
	pushq	%rbp
	.cfi_def_cfa_offset 16
	.cfi_offset %rbp, -16
	movq	%rsp, %rbp
	.cfi_def_cfa_register %rbp
	movq	%rdi, %rax
	popq	%rbp
	retq
	.cfi_endproc

	.p2align	4, 0x90
__ZN100_$LT$syn..punctuated..PrivateIter$LT$T$C$P$GT$$u20$as$u20$core..iter..traits..iterator..Iterator$GT$4next28_$u7b$$u7b$closure$u7d$$u7d$17h7dbef09bbe62efd0E:
	.cfi_startproc
	pushq	%rbp
	.cfi_def_cfa_offset 16
	.cfi_offset %rbp, -16
	movq	%rsp, %rbp
	.cfi_def_cfa_register %rbp
	subq	$16, %rsp
	movq	(%rdi), %rax
	addq	$16, %rax
	movq	%rax, %rdi
	callq	__ZN90_$LT$core..option..IntoIter$LT$A$GT$$u20$as$u20$core..iter..traits..iterator..Iterator$GT$4next17h6aa6c80867491cb4E
	movq	%rax, -8(%rbp)
	movq	-8(%rbp), %rax
	addq	$16, %rsp
	popq	%rbp
	retq
	.cfi_endproc

	.p2align	4, 0x90
__ZN101_$LT$std..panic..AssertUnwindSafe$LT$F$GT$$u20$as$u20$core..ops..function..FnOnce$LT$$LP$$RP$$GT$$GT$9call_once17hf7ebe4ee2c2de8b3E:
	.cfi_startproc
	pushq	%rbp
	.cfi_def_cfa_offset 16
	.cfi_offset %rbp, -16
	movq	%rsp, %rbp
	.cfi_def_cfa_register %rbp
	subq	$96, %rsp
	leaq	-72(%rbp), %rax
	movq	%rax, %rcx
	movq	%rdi, -88(%rbp)
	movq	%rcx, %rdi
	movq	-88(%rbp), %rsi
	movl	$72, %edx
	movq	%rax, -96(%rbp)
	callq	_memcpy
	movq	-96(%rbp), %rdi
	callq	__ZN10proc_macro6bridge6client10run_client28_$u7b$$u7b$closure$u7d$$u7d$17h5ab19086394f5996E
	addq	$96, %rsp
	popq	%rbp
	retq
	.cfi_endproc

	.p2align	4, 0x90
__ZN103_$LT$proc_macro..bridge..client..TokenStream$u20$as$u20$proc_macro..bridge..rpc..DecodeMut$LT$S$GT$$GT$6decode17h64f89c4e8f67abd0E:
	.cfi_startproc
	pushq	%rbp
	.cfi_def_cfa_offset 16
	.cfi_offset %rbp, -16
	movq	%rsp, %rbp
	.cfi_def_cfa_register %rbp
	subq	$16, %rsp
	callq	__ZN85_$LT$core..num..NonZeroU32$u20$as$u20$proc_macro..bridge..rpc..DecodeMut$LT$S$GT$$GT$6decode17h7a8d13f6bbd9b5adE
	movl	%eax, -12(%rbp)
	movl	-12(%rbp), %eax
	movl	%eax, -8(%rbp)
	movl	-8(%rbp), %eax
	addq	$16, %rsp
	popq	%rbp
	retq
	.cfi_endproc

	.p2align	4, 0x90
__ZN105_$LT$core..iter..adapters..ResultShunt$LT$I$C$E$GT$$u20$as$u20$core..iter..traits..iterator..Iterator$GT$4next17h9e37c0aafc9b3596E:
	.cfi_startproc
	pushq	%rbp
	.cfi_def_cfa_offset 16
	.cfi_offset %rbp, -16
	movq	%rsp, %rbp
	.cfi_def_cfa_register %rbp
	subq	$16, %rsp
	movq	%rdi, %rax
	movq	%rax, -16(%rbp)
	callq	__ZN4core4iter6traits8iterator8Iterator4find17h329627eaa077cee4E
	movq	-16(%rbp), %rax
	addq	$16, %rsp
	popq	%rbp
	retq
	.cfi_endproc

	.p2align	4, 0x90
__ZN105_$LT$core..iter..adapters..ResultShunt$LT$I$C$E$GT$$u20$as$u20$core..iter..traits..iterator..Iterator$GT$4next28_$u7b$$u7b$closure$u7d$$u7d$17h9f5b6098e5d5b0f6E:
	.cfi_startproc
	pushq	%rbp
	.cfi_def_cfa_offset 16
	.cfi_offset %rbp, -16
	movq	%rsp, %rbp
	.cfi_def_cfa_register %rbp
	movb	$1, %al
	andb	$1, %al
	movzbl	%al, %eax
	popq	%rbp
	retq
	.cfi_endproc

	.p2align	4, 0x90
__ZN105_$LT$core..iter..adapters..ResultShunt$LT$I$C$E$GT$$u20$as$u20$core..iter..traits..iterator..Iterator$GT$8try_fold17hc5a56431c9eb5bc3E:
Lfunc_begin0:
	.cfi_startproc
	.cfi_personality 155, _rust_eh_personality
	.cfi_lsda 16, Lexception0
	pushq	%rbp
	.cfi_def_cfa_offset 16
	.cfi_offset %rbp, -16
	movq	%rsp, %rbp
	.cfi_def_cfa_register %rbp
	subq	$112, %rsp
	movq	%rdi, %rax
	movq	40(%rsi), %rcx
	movq	%rcx, -80(%rbp)
	leaq	-88(%rbp), %rcx
	movq	%rcx, -32(%rbp)
	leaq	-80(%rbp), %rcx
	movq	%rcx, -24(%rbp)
	movq	-32(%rbp), %rdx
	movq	-24(%rbp), %rcx
Ltmp0:
	leaq	-72(%rbp), %r8
	movq	%rdi, -96(%rbp)
	movq	%r8, %rdi
	movq	%rax, -104(%rbp)
	callq	__ZN97_$LT$core..iter..adapters..Map$LT$I$C$F$GT$$u20$as$u20$core..iter..traits..iterator..Iterator$GT$8try_fold17h444fa0567a5787caE
Ltmp1:
	jmp	LBB11_1
LBB11_1:
Ltmp2:
	leaq	-72(%rbp), %rsi
	movq	-96(%rbp), %rdi
	callq	__ZN4core4iter65LoopState$LT$$LT$R$u20$as$u20$core..ops..try..Try$GT$..Ok$C$R$GT$8into_try17hfe7117ef5e7aa757E
Ltmp3:
	jmp	LBB11_4
LBB11_2:
	movq	-16(%rbp), %rdi
	callq	__Unwind_Resume
	ud2
LBB11_3:
	jmp	LBB11_2
LBB11_4:
	jmp	LBB11_5
LBB11_5:
	movq	-104(%rbp), %rax
	addq	$112, %rsp
	popq	%rbp
	retq
LBB11_6:
Ltmp4:
	movq	%rax, -16(%rbp)
	movl	%edx, -8(%rbp)
	jmp	LBB11_3
Lfunc_end0:
	.cfi_endproc
	.section	__TEXT,__gcc_except_tab
	.p2align	2
GCC_except_table11:
Lexception0:
	.byte	255
	.byte	255
	.byte	1
	.uleb128 Lcst_end0-Lcst_begin0
Lcst_begin0:
	.uleb128 Ltmp0-Lfunc_begin0
	.uleb128 Ltmp3-Ltmp0
	.uleb128 Ltmp4-Lfunc_begin0
	.byte	0
	.uleb128 Ltmp3-Lfunc_begin0
	.uleb128 Lfunc_end0-Ltmp3
	.byte	0
	.byte	0
Lcst_end0:
	.p2align	2

	.section	__TEXT,__text,regular,pure_instructions
	.p2align	4, 0x90
__ZN105_$LT$core..iter..adapters..ResultShunt$LT$I$C$E$GT$$u20$as$u20$core..iter..traits..iterator..Iterator$GT$8try_fold28_$u7b$$u7b$closure$u7d$$u7d$17hbd556caf576e21f7E:
Lfunc_begin1:
	.cfi_startproc
	.cfi_personality 155, _rust_eh_personality
	.cfi_lsda 16, Lexception1
	pushq	%rbp
	.cfi_def_cfa_offset 16
	.cfi_offset %rbp, -16
	movq	%rsp, %rbp
	.cfi_def_cfa_register %rbp
	subq	$384, %rsp
	movq	%rdi, %rax
	movb	$0, -17(%rbp)
	movb	$1, -17(%rbp)
	movq	(%rdx), %rcx
	testq	%rcx, %rcx
	movq	%rdx, -352(%rbp)
	movq	%rsi, -360(%rbp)
	movq	%rdi, -368(%rbp)
	movq	%rax, -376(%rbp)
	je	LBB12_4
	jmp	LBB12_15
LBB12_15:
	jmp	LBB12_2
LBB12_1:
	movq	-16(%rbp), %rdi
	callq	__Unwind_Resume
	ud2
LBB12_2:
	movq	-352(%rbp), %rax
	movq	40(%rax), %rcx
	movq	%rcx, -152(%rbp)
	movq	32(%rax), %rcx
	movq	%rcx, -160(%rbp)
	movq	24(%rax), %rcx
	movq	%rcx, -168(%rbp)
	movq	8(%rax), %rcx
	movq	16(%rax), %rdx
	movq	%rdx, -176(%rbp)
	movq	%rcx, -184(%rbp)
	movq	-152(%rbp), %rcx
	movq	%rcx, -72(%rbp)
	movq	-160(%rbp), %rcx
	movq	%rcx, -80(%rbp)
	movq	-168(%rbp), %rcx
	movq	%rcx, -88(%rbp)
	movq	-184(%rbp), %rcx
	movq	-176(%rbp), %rdx
	movq	%rdx, -96(%rbp)
	movq	%rcx, -104(%rbp)
	movq	-72(%rbp), %rcx
	movq	%rcx, -112(%rbp)
	movq	-80(%rbp), %rcx
	movq	%rcx, -120(%rbp)
	movq	-88(%rbp), %rcx
	movq	%rcx, -128(%rbp)
	movq	-104(%rbp), %rcx
	movq	-96(%rbp), %rdx
	movq	%rdx, -136(%rbp)
	movq	%rcx, -144(%rbp)
	movq	-360(%rbp), %rcx
	movq	8(%rcx), %rdx
	movq	(%rdx), %rdi
Ltmp5:
	callq	__ZN4core3ptr13drop_in_place17h1f73c9dc6ab5090dE
Ltmp6:
	jmp	LBB12_12
	ud2
LBB12_4:
	movq	-352(%rbp), %rax
	movq	40(%rax), %rcx
	movq	%rcx, -312(%rbp)
	movq	32(%rax), %rcx
	movq	%rcx, -320(%rbp)
	movq	24(%rax), %rcx
	movq	%rcx, -328(%rbp)
	movq	8(%rax), %rcx
	movq	16(%rax), %rdx
	movq	%rdx, -336(%rbp)
	movq	%rcx, -344(%rbp)
	movq	-360(%rbp), %rcx
	movq	(%rcx), %rsi
	movb	$0, -17(%rbp)
	movq	-312(%rbp), %rdx
	movq	%rdx, -192(%rbp)
	movq	-320(%rbp), %rdx
	movq	%rdx, -200(%rbp)
	movq	-328(%rbp), %rdx
	movq	%rdx, -208(%rbp)
	movq	-344(%rbp), %rdx
	movq	-336(%rbp), %rdi
	movq	%rdi, -216(%rbp)
	movq	%rdx, -224(%rbp)
	movq	-192(%rbp), %rdx
	movq	%rdx, -232(%rbp)
	movq	-200(%rbp), %rdx
	movq	%rdx, -240(%rbp)
	movq	-208(%rbp), %rdx
	movq	%rdx, -248(%rbp)
	movq	-224(%rbp), %rdx
	movq	-216(%rbp), %rdi
	movq	%rdi, -256(%rbp)
	movq	%rdx, -264(%rbp)
Ltmp10:
	leaq	-304(%rbp), %rdi
	leaq	-264(%rbp), %rdx
	callq	__ZN4core4iter6traits8iterator8Iterator4find5check28_$u7b$$u7b$closure$u7d$$u7d$17h866d109895d16806E
Ltmp11:
	jmp	LBB12_5
LBB12_5:
Ltmp12:
	leaq	-304(%rbp), %rsi
	movq	-368(%rbp), %rdi
	callq	__ZN4core4iter65LoopState$LT$$LT$R$u20$as$u20$core..ops..try..Try$GT$..Ok$C$R$GT$8from_try17h6db57fd278312f62E
Ltmp13:
	jmp	LBB12_6
LBB12_6:
	jmp	LBB12_8
LBB12_7:
	movq	-368(%rbp), %rax
	leaq	-64(%rbp), %rcx
	movq	%rax, %rdi
	movq	%rcx, %rsi
	movl	$40, %edx
	callq	_memcpy
LBB12_8:
	movq	-376(%rbp), %rax
	addq	$384, %rsp
	popq	%rbp
	retq
LBB12_9:
	movb	$0, -17(%rbp)
	jmp	LBB12_1
LBB12_10:
	testb	$1, -17(%rbp)
	jne	LBB12_9
	jmp	LBB12_1
LBB12_11:
	movq	-360(%rbp), %rax
	movq	8(%rax), %rcx
	movq	(%rcx), %rcx
	leaq	-144(%rbp), %rdx
	movq	%rcx, %rdi
	movq	%rdx, %rsi
	movl	$40, %edx
	callq	_memcpy
	jmp	LBB12_10
LBB12_12:
	movq	-360(%rbp), %rax
	movq	8(%rax), %rcx
	movq	(%rcx), %rcx
	movq	-112(%rbp), %rdx
	movq	%rdx, 32(%rcx)
	movq	-120(%rbp), %rdx
	movq	%rdx, 24(%rcx)
	movq	-128(%rbp), %rdx
	movq	%rdx, 16(%rcx)
	movq	-144(%rbp), %rdx
	movq	-136(%rbp), %rsi
	movq	%rsi, 8(%rcx)
	movq	%rdx, (%rcx)
	movb	$0, -17(%rbp)
Ltmp8:
	leaq	-64(%rbp), %rdi
	callq	__ZN74_$LT$core..iter..LoopState$LT$C$C$B$GT$$u20$as$u20$core..ops..try..Try$GT$7from_ok17h55fe0565b9ad4a25E
Ltmp9:
	jmp	LBB12_7
LBB12_13:
Ltmp7:
	movq	%rax, -16(%rbp)
	movl	%edx, -8(%rbp)
	jmp	LBB12_11
LBB12_14:
Ltmp14:
	movq	%rax, -16(%rbp)
	movl	%edx, -8(%rbp)
	jmp	LBB12_10
Lfunc_end1:
	.cfi_endproc
	.section	__TEXT,__gcc_except_tab
	.p2align	2
GCC_except_table12:
Lexception1:
	.byte	255
	.byte	255
	.byte	1
	.uleb128 Lcst_end1-Lcst_begin1
Lcst_begin1:
	.uleb128 Lfunc_begin1-Lfunc_begin1
	.uleb128 Ltmp5-Lfunc_begin1
	.byte	0
	.byte	0
	.uleb128 Ltmp5-Lfunc_begin1
	.uleb128 Ltmp6-Ltmp5
	.uleb128 Ltmp7-Lfunc_begin1
	.byte	0
	.uleb128 Ltmp10-Lfunc_begin1
	.uleb128 Ltmp13-Ltmp10
	.uleb128 Ltmp14-Lfunc_begin1
	.byte	0
	.uleb128 Ltmp13-Lfunc_begin1
	.uleb128 Ltmp8-Ltmp13
	.byte	0
	.byte	0
	.uleb128 Ltmp8-Lfunc_begin1
	.uleb128 Ltmp9-Ltmp8
	.uleb128 Ltmp14-Lfunc_begin1
	.byte	0
Lcst_end1:
	.p2align	2

	.section	__TEXT,__text,regular,pure_instructions
	.p2align	4, 0x90
__ZN105_$LT$core..iter..adapters..ResultShunt$LT$I$C$E$GT$$u20$as$u20$core..iter..traits..iterator..Iterator$GT$9size_hint17h80421ead56395713E:
	.cfi_startproc
	pushq	%rbp
	.cfi_def_cfa_offset 16
	.cfi_offset %rbp, -16
	movq	%rsp, %rbp
	.cfi_def_cfa_register %rbp
	subq	$80, %rsp
	movq	%rdi, %rax
	movq	40(%rsi), %rcx
	movq	%rdi, -48(%rbp)
	movq	%rcx, %rdi
	movq	%rsi, -56(%rbp)
	movq	%rax, -64(%rbp)
	callq	__ZN4core6result19Result$LT$T$C$E$GT$6is_err17hc5e48d512795d253E
	movb	%al, -65(%rbp)
	movb	-65(%rbp), %al
	testb	$1, %al
	jne	LBB13_3
	jmp	LBB13_2
LBB13_2:
	movq	-56(%rbp), %rax
	leaq	-24(%rbp), %rdi
	movq	%rax, %rsi
	callq	__ZN97_$LT$core..iter..adapters..Map$LT$I$C$F$GT$$u20$as$u20$core..iter..traits..iterator..Iterator$GT$9size_hint17h92b1c3ea82ad7772E
	jmp	LBB13_4
LBB13_3:
	movq	$0, -32(%rbp)
	movq	$1, -40(%rbp)
	movq	-48(%rbp), %rax
	movq	$0, (%rax)
	movq	-40(%rbp), %rcx
	movq	-32(%rbp), %rdx
	movq	%rcx, 8(%rax)
	movq	%rdx, 16(%rax)
	jmp	LBB13_5
LBB13_4:
	movq	-16(%rbp), %rax
	movq	-8(%rbp), %rcx
	movq	-48(%rbp), %rdx
	movq	$0, (%rdx)
	movq	%rax, 8(%rdx)
	movq	%rcx, 16(%rdx)
LBB13_5:
	movq	-64(%rbp), %rax
	addq	$80, %rsp
	popq	%rbp
	retq
	.cfi_endproc

	.p2align	4, 0x90
__ZN10proc_macro6bridge11scoped_cell19ScopedCell$LT$T$GT$3set17h67bc2c4a792c9696E:
	.cfi_startproc
	pushq	%rbp
	.cfi_def_cfa_offset 16
	.cfi_offset %rbp, -16
	movq	%rsp, %rbp
	.cfi_def_cfa_register %rbp
	subq	$112, %rsp
	leaq	-80(%rbp), %rax
	movq	%rax, %r8
	movq	%rdi, -88(%rbp)
	movq	%r8, %rdi
	movl	$64, %r8d
	movq	%rdx, -96(%rbp)
	movq	%r8, %rdx
	movq	%rcx, -104(%rbp)
	movq	%rax, -112(%rbp)
	callq	_memcpy
	movq	-96(%rbp), %rax
	movq	%rax, -16(%rbp)
	movq	-104(%rbp), %rcx
	movq	%rcx, -8(%rbp)
	movq	-16(%rbp), %rdx
	movq	-8(%rbp), %rcx
	movq	-88(%rbp), %rdi
	movq	-112(%rbp), %rsi
	callq	__ZN10proc_macro6bridge11scoped_cell19ScopedCell$LT$T$GT$7replace17h55733d5973174659E
	addq	$112, %rsp
	popq	%rbp
	retq
	.cfi_endproc

	.p2align	4, 0x90
__ZN10proc_macro6bridge11scoped_cell19ScopedCell$LT$T$GT$3set28_$u7b$$u7b$closure$u7d$$u7d$17hb0d105422846c737E:
	.cfi_startproc
	pushq	%rbp
	.cfi_def_cfa_offset 16
	.cfi_offset %rbp, -16
	movq	%rsp, %rbp
	.cfi_def_cfa_register %rbp
	subq	$16, %rsp
	movq	%rdx, -8(%rbp)
	callq	__ZN10proc_macro6bridge6client10run_client28_$u7b$$u7b$closure$u7d$$u7d$28_$u7b$$u7b$closure$u7d$$u7d$17hf2650f8c970a00d8E
	addq	$16, %rsp
	popq	%rbp
	retq
	.cfi_endproc

	.p2align	4, 0x90
__ZN10proc_macro6bridge11scoped_cell19ScopedCell$LT$T$GT$7replace17h55733d5973174659E:
Lfunc_begin2:
	.cfi_startproc
	.cfi_personality 155, _rust_eh_personality
	.cfi_lsda 16, Lexception2
	pushq	%rbp
	.cfi_def_cfa_offset 16
	.cfi_offset %rbp, -16
	movq	%rsp, %rbp
	.cfi_def_cfa_register %rbp
	subq	$496, %rsp
	movb	$0, -17(%rbp)
	movb	$0, -19(%rbp)
	movb	$0, -18(%rbp)
	movb	$1, -19(%rbp)
	movb	$1, -18(%rbp)
	movq	%rdi, %rax
Ltmp15:
	leaq	-168(%rbp), %r8
	movq	%rdi, -440(%rbp)
	movq	%r8, %rdi
	movq	%rsi, -448(%rbp)
	movq	%rdx, -456(%rbp)
	movq	%rcx, -464(%rbp)
	movq	%rax, -472(%rbp)
	callq	__ZN4core3mem14transmute_copy17h050024e8e5e1aee9E
Ltmp16:
	jmp	LBB16_2
LBB16_1:
	movq	-16(%rbp), %rdi
	callq	__Unwind_Resume
	ud2
LBB16_2:
	movb	$0, -19(%rbp)
	movq	-448(%rbp), %rax
	movq	56(%rax), %rcx
	movq	%rcx, -48(%rbp)
	movq	48(%rax), %rcx
	movq	%rcx, -56(%rbp)
	movq	40(%rax), %rcx
	movq	%rcx, -64(%rbp)
	movq	32(%rax), %rcx
	movq	%rcx, -72(%rbp)
	movq	24(%rax), %rcx
	movq	%rcx, -80(%rbp)
	movq	16(%rax), %rcx
	movq	%rcx, -88(%rbp)
	movq	(%rax), %rcx
	movq	8(%rax), %rdx
	movq	%rdx, -96(%rbp)
	movq	%rcx, -104(%rbp)
Ltmp17:
	leaq	-104(%rbp), %rdi
	callq	__ZN4core3mem6forget17h09635720192dbea0E
Ltmp18:
	jmp	LBB16_4
LBB16_3:
	testb	$1, -19(%rbp)
	jne	LBB16_12
	jmp	LBB16_1
LBB16_4:
	movq	-112(%rbp), %rax
	movq	%rax, -176(%rbp)
	movq	-120(%rbp), %rax
	movq	%rax, -184(%rbp)
	movq	-128(%rbp), %rax
	movq	%rax, -192(%rbp)
	movq	-136(%rbp), %rax
	movq	%rax, -200(%rbp)
	movq	-144(%rbp), %rax
	movq	%rax, -208(%rbp)
	movq	-152(%rbp), %rax
	movq	%rax, -216(%rbp)
	movq	-168(%rbp), %rax
	movq	-160(%rbp), %rcx
	movq	%rcx, -224(%rbp)
	movq	%rax, -232(%rbp)
Ltmp20:
	leaq	-296(%rbp), %rdi
	leaq	-232(%rbp), %rdx
	movq	-472(%rbp), %rsi
	callq	__ZN4core4cell13Cell$LT$T$GT$7replace17h6be048a52d6db8edE
Ltmp21:
	jmp	LBB16_6
LBB16_5:
	leaq	-168(%rbp), %rdi
	callq	__ZN4core3ptr13drop_in_place17h4527677dd6f15223E
	jmp	LBB16_14
LBB16_6:
	movq	-240(%rbp), %rax
	movq	%rax, -304(%rbp)
	movq	-248(%rbp), %rax
	movq	%rax, -312(%rbp)
	movq	-256(%rbp), %rax
	movq	%rax, -320(%rbp)
	movq	-264(%rbp), %rax
	movq	%rax, -328(%rbp)
	movq	-272(%rbp), %rax
	movq	%rax, -336(%rbp)
	movq	-280(%rbp), %rax
	movq	%rax, -344(%rbp)
	movq	-296(%rbp), %rax
	movq	-288(%rbp), %rcx
	movq	%rcx, -352(%rbp)
	movq	%rax, -360(%rbp)
	movq	-440(%rbp), %rax
	movq	%rax, -432(%rbp)
	leaq	-424(%rbp), %rdi
	movq	-304(%rbp), %rcx
	movq	%rcx, -368(%rbp)
	movq	-312(%rbp), %rcx
	movq	%rcx, -376(%rbp)
	movq	-320(%rbp), %rcx
	movq	%rcx, -384(%rbp)
	movq	-328(%rbp), %rcx
	movq	%rcx, -392(%rbp)
	movq	-336(%rbp), %rcx
	movq	%rcx, -400(%rbp)
	movq	-344(%rbp), %rcx
	movq	%rcx, -408(%rbp)
	movq	-360(%rbp), %rcx
	movq	-352(%rbp), %rdx
	movq	%rdx, -416(%rbp)
	movq	%rcx, -424(%rbp)
	movb	$0, -18(%rbp)
	movb	$1, -17(%rbp)
Ltmp22:
	callq	__ZN4core6option15Option$LT$T$GT$6as_mut17h883381d28846e8a4E
Ltmp23:
	movq	%rax, -480(%rbp)
	jmp	LBB16_7
LBB16_7:
Ltmp24:
	leaq	l___unnamed_1(%rip), %rsi
	movq	-480(%rbp), %rdi
	callq	__ZN4core6option15Option$LT$T$GT$6unwrap17hb691b5cd81760318E
Ltmp25:
	movq	%rax, -488(%rbp)
	jmp	LBB16_9
LBB16_8:
	leaq	-432(%rbp), %rdi
	callq	__ZN4core3ptr13drop_in_place17h491b338479be209aE
	jmp	LBB16_14
LBB16_9:
	movq	-488(%rbp), %rax
	movq	%rax, -32(%rbp)
	movq	-32(%rbp), %rcx
	movq	%rcx, -40(%rbp)
	movb	$0, -17(%rbp)
	movq	-40(%rbp), %rdx
Ltmp26:
	movq	-456(%rbp), %rdi
	movq	-464(%rbp), %rsi
	callq	__ZN10proc_macro6bridge11scoped_cell19ScopedCell$LT$T$GT$3set28_$u7b$$u7b$closure$u7d$$u7d$17hb0d105422846c737E
Ltmp27:
	jmp	LBB16_10
LBB16_10:
	movb	$0, -17(%rbp)
Ltmp29:
	leaq	-432(%rbp), %rdi
	callq	__ZN4core3ptr13drop_in_place17h491b338479be209aE
Ltmp30:
	jmp	LBB16_11
LBB16_11:
	addq	$496, %rsp
	popq	%rbp
	retq
LBB16_12:
	movb	$0, -19(%rbp)
	movq	-448(%rbp), %rdi
	callq	__ZN4core3ptr13drop_in_place17h4527677dd6f15223E
	jmp	LBB16_1
LBB16_13:
	movb	$0, -18(%rbp)
	jmp	LBB16_3
LBB16_14:
	testb	$1, -18(%rbp)
	jne	LBB16_13
	jmp	LBB16_3
LBB16_15:
	movb	$0, -17(%rbp)
	jmp	LBB16_8
LBB16_16:
	testb	$1, -17(%rbp)
	jne	LBB16_15
	jmp	LBB16_8
LBB16_17:
Ltmp31:
	movq	%rax, -16(%rbp)
	movl	%edx, -8(%rbp)
	jmp	LBB16_14
LBB16_18:
Ltmp19:
	movq	%rax, -16(%rbp)
	movl	%edx, -8(%rbp)
	jmp	LBB16_5
LBB16_19:
Ltmp28:
	movq	%rax, -16(%rbp)
	movl	%edx, -8(%rbp)
	jmp	LBB16_16
Lfunc_end2:
	.cfi_endproc
	.section	__TEXT,__gcc_except_tab
	.p2align	2
GCC_except_table16:
Lexception2:
	.byte	255
	.byte	255
	.byte	1
	.uleb128 Lcst_end2-Lcst_begin2
Lcst_begin2:
	.uleb128 Ltmp15-Lfunc_begin2
	.uleb128 Ltmp16-Ltmp15
	.uleb128 Ltmp31-Lfunc_begin2
	.byte	0
	.uleb128 Ltmp16-Lfunc_begin2
	.uleb128 Ltmp17-Ltmp16
	.byte	0
	.byte	0
	.uleb128 Ltmp17-Lfunc_begin2
	.uleb128 Ltmp18-Ltmp17
	.uleb128 Ltmp19-Lfunc_begin2
	.byte	0
	.uleb128 Ltmp20-Lfunc_begin2
	.uleb128 Ltmp21-Ltmp20
	.uleb128 Ltmp31-Lfunc_begin2
	.byte	0
	.uleb128 Ltmp21-Lfunc_begin2
	.uleb128 Ltmp22-Ltmp21
	.byte	0
	.byte	0
	.uleb128 Ltmp22-Lfunc_begin2
	.uleb128 Ltmp25-Ltmp22
	.uleb128 Ltmp28-Lfunc_begin2
	.byte	0
	.uleb128 Ltmp25-Lfunc_begin2
	.uleb128 Ltmp26-Ltmp25
	.byte	0
	.byte	0
	.uleb128 Ltmp26-Lfunc_begin2
	.uleb128 Ltmp27-Ltmp26
	.uleb128 Ltmp28-Lfunc_begin2
	.byte	0
	.uleb128 Ltmp29-Lfunc_begin2
	.uleb128 Ltmp30-Ltmp29
	.uleb128 Ltmp31-Lfunc_begin2
	.byte	0
	.uleb128 Ltmp30-Lfunc_begin2
	.uleb128 Lfunc_end2-Ltmp30
	.byte	0
	.byte	0
Lcst_end2:
	.p2align	2

	.section	__TEXT,__text,regular,pure_instructions
	.p2align	4, 0x90
__ZN10proc_macro6bridge11scoped_cell19ScopedCell$LT$T$GT$7replace17h89f9a4f16ae00db9E:
Lfunc_begin3:
	.cfi_startproc
	.cfi_personality 155, _rust_eh_personality
	.cfi_lsda 16, Lexception3
	pushq	%rbp
	.cfi_def_cfa_offset 16
	.cfi_offset %rbp, -16
	movq	%rsp, %rbp
	.cfi_def_cfa_register %rbp
	subq	$480, %rsp
	movb	$0, -17(%rbp)
	movb	$0, -19(%rbp)
	movb	$0, -18(%rbp)
	movb	$1, -19(%rbp)
	movb	$1, -18(%rbp)
	movq	%rdi, %rax
Ltmp32:
	leaq	-168(%rbp), %rcx
	movq	%rdi, -440(%rbp)
	movq	%rcx, %rdi
	movq	%rsi, -448(%rbp)
	movq	%rax, -456(%rbp)
	callq	__ZN4core3mem14transmute_copy17h050024e8e5e1aee9E
Ltmp33:
	jmp	LBB17_2
LBB17_1:
	movq	-16(%rbp), %rdi
	callq	__Unwind_Resume
	ud2
LBB17_2:
	movb	$0, -19(%rbp)
	movq	-448(%rbp), %rax
	movq	56(%rax), %rcx
	movq	%rcx, -48(%rbp)
	movq	48(%rax), %rcx
	movq	%rcx, -56(%rbp)
	movq	40(%rax), %rcx
	movq	%rcx, -64(%rbp)
	movq	32(%rax), %rcx
	movq	%rcx, -72(%rbp)
	movq	24(%rax), %rcx
	movq	%rcx, -80(%rbp)
	movq	16(%rax), %rcx
	movq	%rcx, -88(%rbp)
	movq	(%rax), %rcx
	movq	8(%rax), %rdx
	movq	%rdx, -96(%rbp)
	movq	%rcx, -104(%rbp)
Ltmp34:
	leaq	-104(%rbp), %rdi
	callq	__ZN4core3mem6forget17h09635720192dbea0E
Ltmp35:
	jmp	LBB17_4
LBB17_3:
	testb	$1, -19(%rbp)
	jne	LBB17_12
	jmp	LBB17_1
LBB17_4:
	movq	-112(%rbp), %rax
	movq	%rax, -176(%rbp)
	movq	-120(%rbp), %rax
	movq	%rax, -184(%rbp)
	movq	-128(%rbp), %rax
	movq	%rax, -192(%rbp)
	movq	-136(%rbp), %rax
	movq	%rax, -200(%rbp)
	movq	-144(%rbp), %rax
	movq	%rax, -208(%rbp)
	movq	-152(%rbp), %rax
	movq	%rax, -216(%rbp)
	movq	-168(%rbp), %rax
	movq	-160(%rbp), %rcx
	movq	%rcx, -224(%rbp)
	movq	%rax, -232(%rbp)
Ltmp37:
	leaq	-296(%rbp), %rdi
	leaq	-232(%rbp), %rdx
	movq	-456(%rbp), %rsi
	callq	__ZN4core4cell13Cell$LT$T$GT$7replace17h6be048a52d6db8edE
Ltmp38:
	jmp	LBB17_6
LBB17_5:
	leaq	-168(%rbp), %rdi
	callq	__ZN4core3ptr13drop_in_place17h4527677dd6f15223E
	jmp	LBB17_14
LBB17_6:
	movq	-240(%rbp), %rax
	movq	%rax, -304(%rbp)
	movq	-248(%rbp), %rax
	movq	%rax, -312(%rbp)
	movq	-256(%rbp), %rax
	movq	%rax, -320(%rbp)
	movq	-264(%rbp), %rax
	movq	%rax, -328(%rbp)
	movq	-272(%rbp), %rax
	movq	%rax, -336(%rbp)
	movq	-280(%rbp), %rax
	movq	%rax, -344(%rbp)
	movq	-296(%rbp), %rax
	movq	-288(%rbp), %rcx
	movq	%rcx, -352(%rbp)
	movq	%rax, -360(%rbp)
	movq	-440(%rbp), %rax
	movq	%rax, -432(%rbp)
	leaq	-424(%rbp), %rdi
	movq	-304(%rbp), %rcx
	movq	%rcx, -368(%rbp)
	movq	-312(%rbp), %rcx
	movq	%rcx, -376(%rbp)
	movq	-320(%rbp), %rcx
	movq	%rcx, -384(%rbp)
	movq	-328(%rbp), %rcx
	movq	%rcx, -392(%rbp)
	movq	-336(%rbp), %rcx
	movq	%rcx, -400(%rbp)
	movq	-344(%rbp), %rcx
	movq	%rcx, -408(%rbp)
	movq	-360(%rbp), %rcx
	movq	-352(%rbp), %rdx
	movq	%rdx, -416(%rbp)
	movq	%rcx, -424(%rbp)
	movb	$0, -18(%rbp)
	movb	$1, -17(%rbp)
Ltmp39:
	callq	__ZN4core6option15Option$LT$T$GT$6as_mut17h883381d28846e8a4E
Ltmp40:
	movq	%rax, -464(%rbp)
	jmp	LBB17_7
LBB17_7:
Ltmp41:
	leaq	l___unnamed_1(%rip), %rsi
	movq	-464(%rbp), %rdi
	callq	__ZN4core6option15Option$LT$T$GT$6unwrap17hb691b5cd81760318E
Ltmp42:
	movq	%rax, -472(%rbp)
	jmp	LBB17_9
LBB17_8:
	leaq	-432(%rbp), %rdi
	callq	__ZN4core3ptr13drop_in_place17h491b338479be209aE
	jmp	LBB17_14
LBB17_9:
	movq	-472(%rbp), %rax
	movq	%rax, -32(%rbp)
	movq	-32(%rbp), %rcx
	movq	%rcx, -40(%rbp)
	movb	$0, -17(%rbp)
	movq	-40(%rbp), %rdi
Ltmp43:
	callq	__ZN10proc_macro6bridge6client11BridgeState4with28_$u7b$$u7b$closure$u7d$$u7d$28_$u7b$$u7b$closure$u7d$$u7d$17h131149d6fe9aa8a2E
Ltmp44:
	movb	%al, -473(%rbp)
	jmp	LBB17_10
LBB17_10:
	movb	$0, -17(%rbp)
Ltmp46:
	leaq	-432(%rbp), %rdi
	callq	__ZN4core3ptr13drop_in_place17h491b338479be209aE
Ltmp47:
	jmp	LBB17_11
LBB17_11:
	movb	-473(%rbp), %al
	andb	$1, %al
	movzbl	%al, %eax
	addq	$480, %rsp
	popq	%rbp
	retq
LBB17_12:
	movb	$0, -19(%rbp)
	movq	-448(%rbp), %rdi
	callq	__ZN4core3ptr13drop_in_place17h4527677dd6f15223E
	jmp	LBB17_1
LBB17_13:
	movb	$0, -18(%rbp)
	jmp	LBB17_3
LBB17_14:
	testb	$1, -18(%rbp)
	jne	LBB17_13
	jmp	LBB17_3
LBB17_15:
	movb	$0, -17(%rbp)
	jmp	LBB17_8
LBB17_16:
	testb	$1, -17(%rbp)
	jne	LBB17_15
	jmp	LBB17_8
LBB17_17:
Ltmp48:
	movq	%rax, -16(%rbp)
	movl	%edx, -8(%rbp)
	jmp	LBB17_14
LBB17_18:
Ltmp36:
	movq	%rax, -16(%rbp)
	movl	%edx, -8(%rbp)
	jmp	LBB17_5
LBB17_19:
Ltmp45:
	movq	%rax, -16(%rbp)
	movl	%edx, -8(%rbp)
	jmp	LBB17_16
Lfunc_end3:
	.cfi_endproc
	.section	__TEXT,__gcc_except_tab
	.p2align	2
GCC_except_table17:
Lexception3:
	.byte	255
	.byte	255
	.byte	1
	.uleb128 Lcst_end3-Lcst_begin3
Lcst_begin3:
	.uleb128 Ltmp32-Lfunc_begin3
	.uleb128 Ltmp33-Ltmp32
	.uleb128 Ltmp48-Lfunc_begin3
	.byte	0
	.uleb128 Ltmp33-Lfunc_begin3
	.uleb128 Ltmp34-Ltmp33
	.byte	0
	.byte	0
	.uleb128 Ltmp34-Lfunc_begin3
	.uleb128 Ltmp35-Ltmp34
	.uleb128 Ltmp36-Lfunc_begin3
	.byte	0
	.uleb128 Ltmp37-Lfunc_begin3
	.uleb128 Ltmp38-Ltmp37
	.uleb128 Ltmp48-Lfunc_begin3
	.byte	0
	.uleb128 Ltmp38-Lfunc_begin3
	.uleb128 Ltmp39-Ltmp38
	.byte	0
	.byte	0
	.uleb128 Ltmp39-Lfunc_begin3
	.uleb128 Ltmp42-Ltmp39
	.uleb128 Ltmp45-Lfunc_begin3
	.byte	0
	.uleb128 Ltmp42-Lfunc_begin3
	.uleb128 Ltmp43-Ltmp42
	.byte	0
	.byte	0
	.uleb128 Ltmp43-Lfunc_begin3
	.uleb128 Ltmp44-Ltmp43
	.uleb128 Ltmp45-Lfunc_begin3
	.byte	0
	.uleb128 Ltmp46-Lfunc_begin3
	.uleb128 Ltmp47-Ltmp46
	.uleb128 Ltmp48-Lfunc_begin3
	.byte	0
	.uleb128 Ltmp47-Lfunc_begin3
	.uleb128 Lfunc_end3-Ltmp47
	.byte	0
	.byte	0
Lcst_end3:
	.p2align	2

	.section	__TEXT,__text,regular,pure_instructions
	.p2align	4, 0x90
__ZN10proc_macro6bridge11scoped_cell19ScopedCell$LT$T$GT$7replace17h8aab3ff090b395aaE:
Lfunc_begin4:
	.cfi_startproc
	.cfi_personality 155, _rust_eh_personality
	.cfi_lsda 16, Lexception4
	pushq	%rbp
	.cfi_def_cfa_offset 16
	.cfi_offset %rbp, -16
	movq	%rsp, %rbp
	.cfi_def_cfa_register %rbp
	subq	$480, %rsp
	movb	$0, -17(%rbp)
	movb	$0, -19(%rbp)
	movb	$0, -18(%rbp)
	movb	$1, -19(%rbp)
	movb	$1, -18(%rbp)
	movq	%rdi, %rax
Ltmp49:
	leaq	-168(%rbp), %rcx
	movq	%rdi, -440(%rbp)
	movq	%rcx, %rdi
	movq	%rsi, -448(%rbp)
	movq	%rdx, -456(%rbp)
	movq	%rax, -464(%rbp)
	callq	__ZN4core3mem14transmute_copy17h050024e8e5e1aee9E
Ltmp50:
	jmp	LBB18_2
LBB18_1:
	movq	-16(%rbp), %rdi
	callq	__Unwind_Resume
	ud2
LBB18_2:
	movb	$0, -19(%rbp)
	movq	-448(%rbp), %rax
	movq	56(%rax), %rcx
	movq	%rcx, -48(%rbp)
	movq	48(%rax), %rcx
	movq	%rcx, -56(%rbp)
	movq	40(%rax), %rcx
	movq	%rcx, -64(%rbp)
	movq	32(%rax), %rcx
	movq	%rcx, -72(%rbp)
	movq	24(%rax), %rcx
	movq	%rcx, -80(%rbp)
	movq	16(%rax), %rcx
	movq	%rcx, -88(%rbp)
	movq	(%rax), %rcx
	movq	8(%rax), %rdx
	movq	%rdx, -96(%rbp)
	movq	%rcx, -104(%rbp)
Ltmp51:
	leaq	-104(%rbp), %rdi
	callq	__ZN4core3mem6forget17h09635720192dbea0E
Ltmp52:
	jmp	LBB18_4
LBB18_3:
	testb	$1, -19(%rbp)
	jne	LBB18_12
	jmp	LBB18_1
LBB18_4:
	movq	-112(%rbp), %rax
	movq	%rax, -176(%rbp)
	movq	-120(%rbp), %rax
	movq	%rax, -184(%rbp)
	movq	-128(%rbp), %rax
	movq	%rax, -192(%rbp)
	movq	-136(%rbp), %rax
	movq	%rax, -200(%rbp)
	movq	-144(%rbp), %rax
	movq	%rax, -208(%rbp)
	movq	-152(%rbp), %rax
	movq	%rax, -216(%rbp)
	movq	-168(%rbp), %rax
	movq	-160(%rbp), %rcx
	movq	%rcx, -224(%rbp)
	movq	%rax, -232(%rbp)
Ltmp54:
	leaq	-296(%rbp), %rdi
	leaq	-232(%rbp), %rdx
	movq	-464(%rbp), %rsi
	callq	__ZN4core4cell13Cell$LT$T$GT$7replace17h6be048a52d6db8edE
Ltmp55:
	jmp	LBB18_6
LBB18_5:
	leaq	-168(%rbp), %rdi
	callq	__ZN4core3ptr13drop_in_place17h4527677dd6f15223E
	jmp	LBB18_14
LBB18_6:
	movq	-240(%rbp), %rax
	movq	%rax, -304(%rbp)
	movq	-248(%rbp), %rax
	movq	%rax, -312(%rbp)
	movq	-256(%rbp), %rax
	movq	%rax, -320(%rbp)
	movq	-264(%rbp), %rax
	movq	%rax, -328(%rbp)
	movq	-272(%rbp), %rax
	movq	%rax, -336(%rbp)
	movq	-280(%rbp), %rax
	movq	%rax, -344(%rbp)
	movq	-296(%rbp), %rax
	movq	-288(%rbp), %rcx
	movq	%rcx, -352(%rbp)
	movq	%rax, -360(%rbp)
	movq	-440(%rbp), %rax
	movq	%rax, -432(%rbp)
	leaq	-424(%rbp), %rdi
	movq	-304(%rbp), %rcx
	movq	%rcx, -368(%rbp)
	movq	-312(%rbp), %rcx
	movq	%rcx, -376(%rbp)
	movq	-320(%rbp), %rcx
	movq	%rcx, -384(%rbp)
	movq	-328(%rbp), %rcx
	movq	%rcx, -392(%rbp)
	movq	-336(%rbp), %rcx
	movq	%rcx, -400(%rbp)
	movq	-344(%rbp), %rcx
	movq	%rcx, -408(%rbp)
	movq	-360(%rbp), %rcx
	movq	-352(%rbp), %rdx
	movq	%rdx, -416(%rbp)
	movq	%rcx, -424(%rbp)
	movb	$0, -18(%rbp)
	movb	$1, -17(%rbp)
Ltmp56:
	callq	__ZN4core6option15Option$LT$T$GT$6as_mut17h883381d28846e8a4E
Ltmp57:
	movq	%rax, -472(%rbp)
	jmp	LBB18_7
LBB18_7:
Ltmp58:
	leaq	l___unnamed_1(%rip), %rsi
	movq	-472(%rbp), %rdi
	callq	__ZN4core6option15Option$LT$T$GT$6unwrap17hb691b5cd81760318E
Ltmp59:
	movq	%rax, -480(%rbp)
	jmp	LBB18_9
LBB18_8:
	leaq	-432(%rbp), %rdi
	callq	__ZN4core3ptr13drop_in_place17h491b338479be209aE
	jmp	LBB18_14
LBB18_9:
	movq	-480(%rbp), %rax
	movq	%rax, -32(%rbp)
	movq	-32(%rbp), %rcx
	movq	%rcx, -40(%rbp)
	movb	$0, -17(%rbp)
	movq	-40(%rbp), %rsi
Ltmp60:
	movq	-456(%rbp), %rdi
	callq	__ZN10proc_macro6bridge6client11BridgeState4with28_$u7b$$u7b$closure$u7d$$u7d$28_$u7b$$u7b$closure$u7d$$u7d$17ha483e947f1ac3530E
Ltmp61:
	jmp	LBB18_10
LBB18_10:
	movb	$0, -17(%rbp)
Ltmp63:
	leaq	-432(%rbp), %rdi
	callq	__ZN4core3ptr13drop_in_place17h491b338479be209aE
Ltmp64:
	jmp	LBB18_11
LBB18_11:
	addq	$480, %rsp
	popq	%rbp
	retq
LBB18_12:
	movb	$0, -19(%rbp)
	movq	-448(%rbp), %rdi
	callq	__ZN4core3ptr13drop_in_place17h4527677dd6f15223E
	jmp	LBB18_1
LBB18_13:
	movb	$0, -18(%rbp)
	jmp	LBB18_3
LBB18_14:
	testb	$1, -18(%rbp)
	jne	LBB18_13
	jmp	LBB18_3
LBB18_15:
	movb	$0, -17(%rbp)
	jmp	LBB18_8
LBB18_16:
	testb	$1, -17(%rbp)
	jne	LBB18_15
	jmp	LBB18_8
LBB18_17:
Ltmp65:
	movq	%rax, -16(%rbp)
	movl	%edx, -8(%rbp)
	jmp	LBB18_14
LBB18_18:
Ltmp53:
	movq	%rax, -16(%rbp)
	movl	%edx, -8(%rbp)
	jmp	LBB18_5
LBB18_19:
Ltmp62:
	movq	%rax, -16(%rbp)
	movl	%edx, -8(%rbp)
	jmp	LBB18_16
Lfunc_end4:
	.cfi_endproc
	.section	__TEXT,__gcc_except_tab
	.p2align	2
GCC_except_table18:
Lexception4:
	.byte	255
	.byte	255
	.byte	1
	.uleb128 Lcst_end4-Lcst_begin4
Lcst_begin4:
	.uleb128 Ltmp49-Lfunc_begin4
	.uleb128 Ltmp50-Ltmp49
	.uleb128 Ltmp65-Lfunc_begin4
	.byte	0
	.uleb128 Ltmp50-Lfunc_begin4
	.uleb128 Ltmp51-Ltmp50
	.byte	0
	.byte	0
	.uleb128 Ltmp51-Lfunc_begin4
	.uleb128 Ltmp52-Ltmp51
	.uleb128 Ltmp53-Lfunc_begin4
	.byte	0
	.uleb128 Ltmp54-Lfunc_begin4
	.uleb128 Ltmp55-Ltmp54
	.uleb128 Ltmp65-Lfunc_begin4
	.byte	0
	.uleb128 Ltmp55-Lfunc_begin4
	.uleb128 Ltmp56-Ltmp55
	.byte	0
	.byte	0
	.uleb128 Ltmp56-Lfunc_begin4
	.uleb128 Ltmp59-Ltmp56
	.uleb128 Ltmp62-Lfunc_begin4
	.byte	0
	.uleb128 Ltmp59-Lfunc_begin4
	.uleb128 Ltmp60-Ltmp59
	.byte	0
	.byte	0
	.uleb128 Ltmp60-Lfunc_begin4
	.uleb128 Ltmp61-Ltmp60
	.uleb128 Ltmp62-Lfunc_begin4
	.byte	0
	.uleb128 Ltmp63-Lfunc_begin4
	.uleb128 Ltmp64-Ltmp63
	.uleb128 Ltmp65-Lfunc_begin4
	.byte	0
	.uleb128 Ltmp64-Lfunc_begin4
	.uleb128 Lfunc_end4-Ltmp64
	.byte	0
	.byte	0
Lcst_end4:
	.p2align	2

	.section	__TEXT,__text,regular,pure_instructions
	.p2align	4, 0x90
__ZN10proc_macro6bridge11scoped_cell19ScopedCell$LT$T$GT$7replace17hfb2b06898e8d24e5E:
Lfunc_begin5:
	.cfi_startproc
	.cfi_personality 155, _rust_eh_personality
	.cfi_lsda 16, Lexception5
	pushq	%rbp
	.cfi_def_cfa_offset 16
	.cfi_offset %rbp, -16
	movq	%rsp, %rbp
	.cfi_def_cfa_register %rbp
	subq	$496, %rsp
	movq	%rdi, %rax
	movb	$0, -17(%rbp)
	movb	$0, -19(%rbp)
	movb	$0, -18(%rbp)
	movb	$1, -19(%rbp)
	movb	$1, -18(%rbp)
	movq	%rsi, %rcx
Ltmp66:
	leaq	-168(%rbp), %r8
	movq	%rdi, -440(%rbp)
	movq	%r8, %rdi
	movq	%rsi, -448(%rbp)
	movq	%rdx, %rsi
	movq	%rdx, -456(%rbp)
	movq	%rax, -464(%rbp)
	movq	%rcx, -472(%rbp)
	callq	__ZN4core3mem14transmute_copy17h050024e8e5e1aee9E
Ltmp67:
	jmp	LBB19_2
LBB19_1:
	movq	-16(%rbp), %rdi
	callq	__Unwind_Resume
	ud2
LBB19_2:
	movb	$0, -19(%rbp)
	movq	-456(%rbp), %rax
	movq	56(%rax), %rcx
	movq	%rcx, -48(%rbp)
	movq	48(%rax), %rcx
	movq	%rcx, -56(%rbp)
	movq	40(%rax), %rcx
	movq	%rcx, -64(%rbp)
	movq	32(%rax), %rcx
	movq	%rcx, -72(%rbp)
	movq	24(%rax), %rcx
	movq	%rcx, -80(%rbp)
	movq	16(%rax), %rcx
	movq	%rcx, -88(%rbp)
	movq	(%rax), %rcx
	movq	8(%rax), %rdx
	movq	%rdx, -96(%rbp)
	movq	%rcx, -104(%rbp)
Ltmp68:
	leaq	-104(%rbp), %rdi
	callq	__ZN4core3mem6forget17h09635720192dbea0E
Ltmp69:
	jmp	LBB19_4
LBB19_3:
	testb	$1, -19(%rbp)
	jne	LBB19_12
	jmp	LBB19_1
LBB19_4:
	movq	-112(%rbp), %rax
	movq	%rax, -176(%rbp)
	movq	-120(%rbp), %rax
	movq	%rax, -184(%rbp)
	movq	-128(%rbp), %rax
	movq	%rax, -192(%rbp)
	movq	-136(%rbp), %rax
	movq	%rax, -200(%rbp)
	movq	-144(%rbp), %rax
	movq	%rax, -208(%rbp)
	movq	-152(%rbp), %rax
	movq	%rax, -216(%rbp)
	movq	-168(%rbp), %rax
	movq	-160(%rbp), %rcx
	movq	%rcx, -224(%rbp)
	movq	%rax, -232(%rbp)
Ltmp71:
	leaq	-296(%rbp), %rdi
	leaq	-232(%rbp), %rdx
	movq	-472(%rbp), %rsi
	callq	__ZN4core4cell13Cell$LT$T$GT$7replace17h6be048a52d6db8edE
Ltmp72:
	jmp	LBB19_6
LBB19_5:
	leaq	-168(%rbp), %rdi
	callq	__ZN4core3ptr13drop_in_place17h4527677dd6f15223E
	jmp	LBB19_14
LBB19_6:
	movq	-240(%rbp), %rax
	movq	%rax, -304(%rbp)
	movq	-248(%rbp), %rax
	movq	%rax, -312(%rbp)
	movq	-256(%rbp), %rax
	movq	%rax, -320(%rbp)
	movq	-264(%rbp), %rax
	movq	%rax, -328(%rbp)
	movq	-272(%rbp), %rax
	movq	%rax, -336(%rbp)
	movq	-280(%rbp), %rax
	movq	%rax, -344(%rbp)
	movq	-296(%rbp), %rax
	movq	-288(%rbp), %rcx
	movq	%rcx, -352(%rbp)
	movq	%rax, -360(%rbp)
	movq	-448(%rbp), %rax
	movq	%rax, -432(%rbp)
	leaq	-424(%rbp), %rdi
	movq	-304(%rbp), %rcx
	movq	%rcx, -368(%rbp)
	movq	-312(%rbp), %rcx
	movq	%rcx, -376(%rbp)
	movq	-320(%rbp), %rcx
	movq	%rcx, -384(%rbp)
	movq	-328(%rbp), %rcx
	movq	%rcx, -392(%rbp)
	movq	-336(%rbp), %rcx
	movq	%rcx, -400(%rbp)
	movq	-344(%rbp), %rcx
	movq	%rcx, -408(%rbp)
	movq	-360(%rbp), %rcx
	movq	-352(%rbp), %rdx
	movq	%rdx, -416(%rbp)
	movq	%rcx, -424(%rbp)
	movb	$0, -18(%rbp)
	movb	$1, -17(%rbp)
Ltmp73:
	callq	__ZN4core6option15Option$LT$T$GT$6as_mut17h883381d28846e8a4E
Ltmp74:
	movq	%rax, -480(%rbp)
	jmp	LBB19_7
LBB19_7:
Ltmp75:
	leaq	l___unnamed_1(%rip), %rsi
	movq	-480(%rbp), %rdi
	callq	__ZN4core6option15Option$LT$T$GT$6unwrap17hb691b5cd81760318E
Ltmp76:
	movq	%rax, -488(%rbp)
	jmp	LBB19_9
LBB19_8:
	leaq	-432(%rbp), %rdi
	callq	__ZN4core3ptr13drop_in_place17h491b338479be209aE
	jmp	LBB19_14
LBB19_9:
	movq	-488(%rbp), %rax
	movq	%rax, -32(%rbp)
	movq	-32(%rbp), %rcx
	movq	%rcx, -40(%rbp)
	movb	$0, -17(%rbp)
	movq	-40(%rbp), %rsi
Ltmp77:
	movq	-440(%rbp), %rdi
	callq	__ZN10proc_macro6bridge6client11BridgeState4with28_$u7b$$u7b$closure$u7d$$u7d$28_$u7b$$u7b$closure$u7d$$u7d$17h4a354582f05a13c5E
Ltmp78:
	jmp	LBB19_10
LBB19_10:
	movb	$0, -17(%rbp)
Ltmp80:
	leaq	-432(%rbp), %rdi
	callq	__ZN4core3ptr13drop_in_place17h491b338479be209aE
Ltmp81:
	jmp	LBB19_11
LBB19_11:
	movq	-464(%rbp), %rax
	addq	$496, %rsp
	popq	%rbp
	retq
LBB19_12:
	movb	$0, -19(%rbp)
	movq	-456(%rbp), %rdi
	callq	__ZN4core3ptr13drop_in_place17h4527677dd6f15223E
	jmp	LBB19_1
LBB19_13:
	movb	$0, -18(%rbp)
	jmp	LBB19_3
LBB19_14:
	testb	$1, -18(%rbp)
	jne	LBB19_13
	jmp	LBB19_3
LBB19_15:
	movb	$0, -17(%rbp)
	jmp	LBB19_8
LBB19_16:
	testb	$1, -17(%rbp)
	jne	LBB19_15
	jmp	LBB19_8
LBB19_17:
Ltmp82:
	movq	%rax, -16(%rbp)
	movl	%edx, -8(%rbp)
	jmp	LBB19_14
LBB19_18:
Ltmp70:
	movq	%rax, -16(%rbp)
	movl	%edx, -8(%rbp)
	jmp	LBB19_5
LBB19_19:
Ltmp79:
	movq	%rax, -16(%rbp)
	movl	%edx, -8(%rbp)
	jmp	LBB19_16
Lfunc_end5:
	.cfi_endproc
	.section	__TEXT,__gcc_except_tab
	.p2align	2
GCC_except_table19:
Lexception5:
	.byte	255
	.byte	255
	.byte	1
	.uleb128 Lcst_end5-Lcst_begin5
Lcst_begin5:
	.uleb128 Ltmp66-Lfunc_begin5
	.uleb128 Ltmp67-Ltmp66
	.uleb128 Ltmp82-Lfunc_begin5
	.byte	0
	.uleb128 Ltmp67-Lfunc_begin5
	.uleb128 Ltmp68-Ltmp67
	.byte	0
	.byte	0
	.uleb128 Ltmp68-Lfunc_begin5
	.uleb128 Ltmp69-Ltmp68
	.uleb128 Ltmp70-Lfunc_begin5
	.byte	0
	.uleb128 Ltmp71-Lfunc_begin5
	.uleb128 Ltmp72-Ltmp71
	.uleb128 Ltmp82-Lfunc_begin5
	.byte	0
	.uleb128 Ltmp72-Lfunc_begin5
	.uleb128 Ltmp73-Ltmp72
	.byte	0
	.byte	0
	.uleb128 Ltmp73-Lfunc_begin5
	.uleb128 Ltmp76-Ltmp73
	.uleb128 Ltmp79-Lfunc_begin5
	.byte	0
	.uleb128 Ltmp76-Lfunc_begin5
	.uleb128 Ltmp77-Ltmp76
	.byte	0
	.byte	0
	.uleb128 Ltmp77-Lfunc_begin5
	.uleb128 Ltmp78-Ltmp77
	.uleb128 Ltmp79-Lfunc_begin5
	.byte	0
	.uleb128 Ltmp80-Lfunc_begin5
	.uleb128 Ltmp81-Ltmp80
	.uleb128 Ltmp82-Lfunc_begin5
	.byte	0
	.uleb128 Ltmp81-Lfunc_begin5
	.uleb128 Lfunc_end5-Ltmp81
	.byte	0
	.byte	0
Lcst_end5:
	.p2align	2

	.section	__TEXT,__text,regular,pure_instructions
	.p2align	4, 0x90
__ZN10proc_macro6bridge6buffer15Buffer$LT$T$GT$4take17hb899191a144426a9E:
	.cfi_startproc
	pushq	%rbp
	.cfi_def_cfa_offset 16
	.cfi_offset %rbp, -16
	movq	%rsp, %rbp
	.cfi_def_cfa_register %rbp
	subq	$16, %rsp
	movq	%rdi, %rax
	movq	%rax, -8(%rbp)
	callq	__ZN4core3mem4take17hd8277ce7a719ab5fE
	movq	-8(%rbp), %rax
	addq	$16, %rsp
	popq	%rbp
	retq
	.cfi_endproc

	.p2align	4, 0x90
__ZN10proc_macro6bridge6buffer15Buffer$LT$T$GT$5clear17hb0659b9dad83a275E:
	.cfi_startproc
	pushq	%rbp
	.cfi_def_cfa_offset 16
	.cfi_offset %rbp, -16
	movq	%rsp, %rbp
	.cfi_def_cfa_register %rbp
	movq	$0, 8(%rdi)
	popq	%rbp
	retq
	.cfi_endproc

	.p2align	4, 0x90
__ZN10proc_macro6bridge6client10run_client17he03d9a62b4b5ac88E:
Lfunc_begin6:
	.cfi_startproc
	.cfi_personality 155, _rust_eh_personality
	.cfi_lsda 16, Lexception6
	pushq	%rbp
	.cfi_def_cfa_offset 16
	.cfi_offset %rbp, -16
	movq	%rsp, %rbp
	.cfi_def_cfa_register %rbp
	subq	$272, %rsp
	movq	%rdi, %rax
	movb	$0, -18(%rbp)
	movb	$0, -17(%rbp)
	movb	$1, -18(%rbp)
	movb	$1, -17(%rbp)
Ltmp83:
	movq	%rdi, -216(%rbp)
	movq	%rsi, -224(%rbp)
	movq	%rdx, -232(%rbp)
	movq	%rax, -240(%rbp)
	callq	__ZN10proc_macro6bridge6buffer15Buffer$LT$T$GT$4take17hb899191a144426a9E
Ltmp84:
	jmp	LBB22_2
LBB22_1:
	movq	-16(%rbp), %rdi
	callq	__Unwind_Resume
	ud2
LBB22_2:
	movb	$0, -18(%rbp)
	movb	$0, -17(%rbp)
	movq	-224(%rbp), %rax
	movq	48(%rax), %rcx
	movq	%rcx, -56(%rbp)
	movq	40(%rax), %rcx
	movq	%rcx, -64(%rbp)
	movq	32(%rax), %rcx
	movq	%rcx, -72(%rbp)
	movq	24(%rax), %rcx
	movq	%rcx, -80(%rbp)
	movq	16(%rax), %rcx
	movq	%rcx, -88(%rbp)
	movq	(%rax), %rcx
	movq	8(%rax), %rdx
	movq	%rdx, -96(%rbp)
	movq	%rcx, -104(%rbp)
	movq	-216(%rbp), %rcx
	movq	%rcx, -48(%rbp)
	movq	-232(%rbp), %rdx
	movq	%rdx, -40(%rbp)
	movl	$9, %ecx
	leaq	-176(%rbp), %rsi
	leaq	-104(%rbp), %rdi
	movq	%rdi, -248(%rbp)
	movq	%rsi, %rdi
	movq	-248(%rbp), %r8
	movq	%rsi, -256(%rbp)
	movq	%r8, %rsi
	rep;movsq (%rsi), %es:(%rdi)
Ltmp86:
	movq	-256(%rbp), %rdi
	callq	__ZN3std5panic12catch_unwind17h1b9e32baaee10740E
Ltmp87:
	movq	%rdx, -264(%rbp)
	movq	%rax, -272(%rbp)
	jmp	LBB22_5
LBB22_3:
	testb	$1, -18(%rbp)
	jne	LBB22_8
	jmp	LBB22_1
LBB22_4:
	movq	-216(%rbp), %rdi
	callq	__ZN4core3ptr13drop_in_place17hd934812a3ad838d2E
	jmp	LBB22_10
LBB22_5:
Ltmp88:
	leaq	-208(%rbp), %rdi
	movq	-272(%rbp), %rsi
	movq	-264(%rbp), %rdx
	callq	__ZN4core6result19Result$LT$T$C$E$GT$7map_err17h332ea69da1929420E
Ltmp89:
	jmp	LBB22_6
LBB22_6:
	movq	-216(%rbp), %rax
	movq	%rax, -32(%rbp)
	movq	-32(%rbp), %rsi
Ltmp90:
	leaq	-208(%rbp), %rdi
	callq	__ZN4core6result19Result$LT$T$C$E$GT$14unwrap_or_else17h22518bab55631e1bE
Ltmp91:
	jmp	LBB22_7
LBB22_7:
	movq	-240(%rbp), %rax
	addq	$272, %rsp
	popq	%rbp
	retq
LBB22_8:
	movb	$0, -18(%rbp)
	movq	-224(%rbp), %rdi
	callq	__ZN4core3ptr13drop_in_place17h293c2b4619202daeE
	jmp	LBB22_1
LBB22_9:
	movb	$0, -17(%rbp)
	jmp	LBB22_3
LBB22_10:
	testb	$1, -17(%rbp)
	jne	LBB22_9
	jmp	LBB22_3
LBB22_11:
Ltmp85:
	movq	%rax, -16(%rbp)
	movl	%edx, -8(%rbp)
	jmp	LBB22_10
LBB22_12:
Ltmp92:
	movq	%rax, -16(%rbp)
	movl	%edx, -8(%rbp)
	jmp	LBB22_4
Lfunc_end6:
	.cfi_endproc
	.section	__TEXT,__gcc_except_tab
	.p2align	2
GCC_except_table22:
Lexception6:
	.byte	255
	.byte	255
	.byte	1
	.uleb128 Lcst_end6-Lcst_begin6
Lcst_begin6:
	.uleb128 Ltmp83-Lfunc_begin6
	.uleb128 Ltmp84-Ltmp83
	.uleb128 Ltmp85-Lfunc_begin6
	.byte	0
	.uleb128 Ltmp84-Lfunc_begin6
	.uleb128 Ltmp86-Ltmp84
	.byte	0
	.byte	0
	.uleb128 Ltmp86-Lfunc_begin6
	.uleb128 Ltmp87-Ltmp86
	.uleb128 Ltmp92-Lfunc_begin6
	.byte	0
	.uleb128 Ltmp87-Lfunc_begin6
	.uleb128 Ltmp88-Ltmp87
	.byte	0
	.byte	0
	.uleb128 Ltmp88-Lfunc_begin6
	.uleb128 Ltmp91-Ltmp88
	.uleb128 Ltmp92-Lfunc_begin6
	.byte	0
	.uleb128 Ltmp91-Lfunc_begin6
	.uleb128 Lfunc_end6-Ltmp91
	.byte	0
	.byte	0
Lcst_end6:
	.p2align	2

	.section	__TEXT,__text,regular,pure_instructions
	.p2align	4, 0x90
__ZN10proc_macro6bridge6client10run_client28_$u7b$$u7b$closure$u7d$$u7d$17h3ff2b61f78f2734cE:
Lfunc_begin7:
	.cfi_startproc
	.cfi_personality 155, _rust_eh_personality
	.cfi_lsda 16, Lexception7
	pushq	%rbp
	.cfi_def_cfa_offset 16
	.cfi_offset %rbp, -16
	movq	%rsp, %rbp
	.cfi_def_cfa_register %rbp
	subq	$112, %rsp
	movb	$0, -17(%rbp)
	movb	$1, -17(%rbp)
Ltmp93:
	movq	%rdi, -96(%rbp)
	movq	%rsi, -104(%rbp)
	callq	__ZN10proc_macro6bridge6buffer15Buffer$LT$T$GT$5clear17hb0659b9dad83a275E
Ltmp94:
	jmp	LBB23_2
LBB23_1:
	movq	-16(%rbp), %rdi
	callq	__Unwind_Resume
	ud2
LBB23_2:
	movb	$0, -17(%rbp)
	movq	-104(%rbp), %rax
	movq	24(%rax), %rcx
	movq	%rcx, -32(%rbp)
	movq	16(%rax), %rcx
	movq	%rcx, -40(%rbp)
	movq	(%rax), %rcx
	movq	8(%rax), %rdx
	movq	%rdx, -48(%rbp)
	movq	%rcx, -56(%rbp)
	movq	-32(%rbp), %rcx
	movq	%rcx, -64(%rbp)
	movq	-40(%rbp), %rcx
	movq	%rcx, -72(%rbp)
	movq	-56(%rbp), %rcx
	movq	-48(%rbp), %rdx
	movq	%rdx, -80(%rbp)
	movq	%rcx, -88(%rbp)
Ltmp95:
	leaq	-88(%rbp), %rdi
	leaq	-24(%rbp), %rdx
	movq	-96(%rbp), %rsi
	callq	__ZN94_$LT$core..result..Result$LT$T$C$E$GT$$u20$as$u20$proc_macro..bridge..rpc..Encode$LT$S$GT$$GT$6encode17hef40a7525ecccebcE
Ltmp96:
	jmp	LBB23_3
LBB23_3:
	addq	$112, %rsp
	popq	%rbp
	retq
LBB23_4:
	movb	$0, -17(%rbp)
	movq	-104(%rbp), %rdi
	callq	__ZN4core3ptr13drop_in_place17ha817ae21dcfb8f9cE
	jmp	LBB23_1
LBB23_5:
	testb	$1, -17(%rbp)
	jne	LBB23_4
	jmp	LBB23_1
LBB23_6:
Ltmp97:
	movq	%rax, -16(%rbp)
	movl	%edx, -8(%rbp)
	jmp	LBB23_5
Lfunc_end7:
	.cfi_endproc
	.section	__TEXT,__gcc_except_tab
	.p2align	2
GCC_except_table23:
Lexception7:
	.byte	255
	.byte	255
	.byte	1
	.uleb128 Lcst_end7-Lcst_begin7
Lcst_begin7:
	.uleb128 Ltmp93-Lfunc_begin7
	.uleb128 Ltmp94-Ltmp93
	.uleb128 Ltmp97-Lfunc_begin7
	.byte	0
	.uleb128 Ltmp94-Lfunc_begin7
	.uleb128 Ltmp95-Ltmp94
	.byte	0
	.byte	0
	.uleb128 Ltmp95-Lfunc_begin7
	.uleb128 Ltmp96-Ltmp95
	.uleb128 Ltmp97-Lfunc_begin7
	.byte	0
	.uleb128 Ltmp96-Lfunc_begin7
	.uleb128 Lfunc_end7-Ltmp96
	.byte	0
	.byte	0
Lcst_end7:
	.p2align	2

	.section	__TEXT,__text,regular,pure_instructions
	.p2align	4, 0x90
__ZN10proc_macro6bridge6client10run_client28_$u7b$$u7b$closure$u7d$$u7d$17h5ab19086394f5996E:
	.cfi_startproc
	pushq	%rbp
	.cfi_def_cfa_offset 16
	.cfi_offset %rbp, -16
	movq	%rsp, %rbp
	.cfi_def_cfa_register %rbp
	subq	$96, %rsp
	movq	%rdi, %rax
	leaq	-72(%rbp), %rcx
	movq	%rcx, %rdx
	movq	%rdi, -80(%rbp)
	movq	%rdx, %rdi
	movq	%rax, %rsi
	movl	$56, %edx
	movq	%rcx, -88(%rbp)
	callq	_memcpy
	movq	-80(%rbp), %rax
	movq	56(%rax), %rcx
	movq	%rcx, -16(%rbp)
	movq	64(%rax), %rcx
	movq	%rcx, -8(%rbp)
	movq	-16(%rbp), %rsi
	movq	-8(%rbp), %rdx
	movq	-88(%rbp), %rdi
	callq	__ZN10proc_macro6bridge6client44_$LT$impl$u20$proc_macro..bridge..Bridge$GT$5enter17h42a60a3812ddc9b7E
	addq	$96, %rsp
	popq	%rbp
	retq
	.cfi_endproc

	.p2align	4, 0x90
__ZN10proc_macro6bridge6client10run_client28_$u7b$$u7b$closure$u7d$$u7d$28_$u7b$$u7b$closure$u7d$$u7d$17hf2650f8c970a00d8E:
Lfunc_begin8:
	.cfi_startproc
	.cfi_personality 155, _rust_eh_personality
	.cfi_lsda 16, Lexception8
	pushq	%rbp
	.cfi_def_cfa_offset 16
	.cfi_offset %rbp, -16
	movq	%rsp, %rbp
	.cfi_def_cfa_register %rbp
	subq	$224, %rsp
	movq	%rdi, -176(%rbp)
	movq	%rsi, -168(%rbp)
	movb	$0, -27(%rbp)
	movb	$0, -26(%rbp)
	movb	$0, -25(%rbp)
	movb	$1, -27(%rbp)
	movq	-176(%rbp), %rdi
Ltmp98:
	callq	__ZN87_$LT$proc_macro..bridge..buffer..Buffer$LT$T$GT$$u20$as$u20$core..ops..deref..Deref$GT$5deref17h1bdf15ecce03792fE
Ltmp99:
	movq	%rdx, -184(%rbp)
	movq	%rax, -192(%rbp)
	jmp	LBB25_1
LBB25_1:
Ltmp100:
	leaq	l___unnamed_2(%rip), %rdx
	movq	-192(%rbp), %rdi
	movq	-184(%rbp), %rsi
	callq	__ZN4core5slice74_$LT$impl$u20$core..ops..index..Index$LT$I$GT$$u20$for$u20$$u5b$T$u5d$$GT$5index17h756d34a66de5bf85E
Ltmp101:
	movq	%rdx, -200(%rbp)
	movq	%rax, -208(%rbp)
	jmp	LBB25_2
LBB25_2:
	movq	-208(%rbp), %rax
	movq	%rax, -160(%rbp)
	movq	-200(%rbp), %rcx
	movq	%rcx, -152(%rbp)
Ltmp102:
	leaq	-160(%rbp), %rdi
	leaq	-136(%rbp), %rsi
	callq	__ZN103_$LT$proc_macro..bridge..client..TokenStream$u20$as$u20$proc_macro..bridge..rpc..DecodeMut$LT$S$GT$$GT$6decode17h64f89c4e8f67abd0E
Ltmp103:
	movl	%eax, -212(%rbp)
	jmp	LBB25_3
LBB25_3:
	movl	-212(%rbp), %eax
	movl	%eax, -8(%rbp)
	movl	-8(%rbp), %ecx
	movl	%ecx, -144(%rbp)
	movb	$1, -26(%rbp)
	movq	-176(%rbp), %rdx
	movq	%rdx, -128(%rbp)
	movq	-128(%rbp), %rdi
Ltmp105:
	callq	__ZN10proc_macro6bridge6client44_$LT$impl$u20$proc_macro..bridge..Bridge$GT$4with17h84d844c5d98f2187E
Ltmp106:
	jmp	LBB25_4
LBB25_4:
	movb	$0, -27(%rbp)
	movq	-168(%rbp), %rdi
	movb	$0, -26(%rbp)
	movl	-144(%rbp), %eax
	movl	%eax, -104(%rbp)
	movl	-104(%rbp), %eax
	movl	%eax, -112(%rbp)
	movl	-112(%rbp), %esi
Ltmp107:
	callq	__ZN10proc_macro6bridge6client85Client$LT$fn$LP$proc_macro..TokenStream$RP$$u20$.$GT$$u20$proc_macro..TokenStream$GT$7expand13run28_$u7b$$u7b$closure$u7d$$u7d$17h10c77a90e22a737eE
Ltmp108:
	movl	%eax, -216(%rbp)
	jmp	LBB25_5
LBB25_5:
	movl	-216(%rbp), %eax
	movl	%eax, -4(%rbp)
	movl	-4(%rbp), %ecx
	movl	%ecx, -120(%rbp)
	movb	$1, -25(%rbp)
Ltmp110:
	leaq	-96(%rbp), %rdi
	callq	__ZN10proc_macro6bridge6client44_$LT$impl$u20$proc_macro..bridge..Bridge$GT$4with17ha948444f57a6ce2cE
Ltmp111:
	jmp	LBB25_6
LBB25_6:
	movq	-176(%rbp), %rdi
Ltmp112:
	callq	__ZN4core3ptr13drop_in_place17hd934812a3ad838d2E
Ltmp113:
	jmp	LBB25_16
LBB25_7:
	testb	$1, -25(%rbp)
	jne	LBB25_17
	jmp	LBB25_14
LBB25_8:
	movb	$0, -25(%rbp)
	movl	-120(%rbp), %eax
	movl	%eax, -40(%rbp)
	movl	-40(%rbp), %eax
	movl	%eax, -48(%rbp)
	movq	-176(%rbp), %rsi
	movl	-48(%rbp), %edi
Ltmp117:
	leaq	-32(%rbp), %rdx
	callq	__ZN94_$LT$core..result..Result$LT$T$C$E$GT$$u20$as$u20$proc_macro..bridge..rpc..Encode$LT$S$GT$$GT$6encode17hfa6402afe9fdf712E
Ltmp118:
	jmp	LBB25_9
LBB25_9:
	movb	$0, -25(%rbp)
	movb	$0, -26(%rbp)
	addq	$224, %rsp
	popq	%rbp
	retq
LBB25_10:
	movq	-24(%rbp), %rdi
	callq	__Unwind_Resume
	ud2
LBB25_11:
	movb	$0, -27(%rbp)
	jmp	LBB25_10
LBB25_12:
	testb	$1, -27(%rbp)
	jne	LBB25_11
	jmp	LBB25_10
LBB25_13:
	movb	$0, -26(%rbp)
	leaq	-144(%rbp), %rdi
	callq	__ZN4core3ptr13drop_in_place17hb44b02ff6cfdbedaE
	jmp	LBB25_12
LBB25_14:
	testb	$1, -26(%rbp)
	jne	LBB25_13
	jmp	LBB25_12
LBB25_15:
	movq	-176(%rbp), %rax
	leaq	-96(%rbp), %rcx
	movq	%rax, %rdi
	movq	%rcx, %rsi
	movl	$40, %edx
	callq	_memcpy
	jmp	LBB25_7
LBB25_16:
	movq	-176(%rbp), %rax
	movq	-64(%rbp), %rcx
	movq	%rcx, 32(%rax)
	movq	-72(%rbp), %rcx
	movq	%rcx, 24(%rax)
	movq	-80(%rbp), %rcx
	movq	%rcx, 16(%rax)
	movq	-96(%rbp), %rcx
	movq	-88(%rbp), %rdx
	movq	%rdx, 8(%rax)
	movq	%rcx, (%rax)
	movq	-176(%rbp), %rdi
Ltmp115:
	callq	__ZN10proc_macro6bridge6buffer15Buffer$LT$T$GT$5clear17hb0659b9dad83a275E
Ltmp116:
	jmp	LBB25_8
LBB25_17:
	movb	$0, -25(%rbp)
	leaq	-120(%rbp), %rdi
	callq	__ZN4core3ptr13drop_in_place17hb44b02ff6cfdbedaE
	jmp	LBB25_14
LBB25_18:
Ltmp104:
	movq	%rax, -24(%rbp)
	movl	%edx, -16(%rbp)
	jmp	LBB25_12
LBB25_19:
Ltmp109:
	movq	%rax, -24(%rbp)
	movl	%edx, -16(%rbp)
	jmp	LBB25_14
LBB25_20:
Ltmp119:
	movq	%rax, -24(%rbp)
	movl	%edx, -16(%rbp)
	jmp	LBB25_7
LBB25_21:
Ltmp114:
	movq	%rax, -24(%rbp)
	movl	%edx, -16(%rbp)
	jmp	LBB25_15
Lfunc_end8:
	.cfi_endproc
	.section	__TEXT,__gcc_except_tab
	.p2align	2
GCC_except_table25:
Lexception8:
	.byte	255
	.byte	255
	.byte	1
	.uleb128 Lcst_end8-Lcst_begin8
Lcst_begin8:
	.uleb128 Ltmp98-Lfunc_begin8
	.uleb128 Ltmp103-Ltmp98
	.uleb128 Ltmp104-Lfunc_begin8
	.byte	0
	.uleb128 Ltmp105-Lfunc_begin8
	.uleb128 Ltmp108-Ltmp105
	.uleb128 Ltmp109-Lfunc_begin8
	.byte	0
	.uleb128 Ltmp110-Lfunc_begin8
	.uleb128 Ltmp111-Ltmp110
	.uleb128 Ltmp119-Lfunc_begin8
	.byte	0
	.uleb128 Ltmp112-Lfunc_begin8
	.uleb128 Ltmp113-Ltmp112
	.uleb128 Ltmp114-Lfunc_begin8
	.byte	0
	.uleb128 Ltmp117-Lfunc_begin8
	.uleb128 Ltmp118-Ltmp117
	.uleb128 Ltmp119-Lfunc_begin8
	.byte	0
	.uleb128 Ltmp118-Lfunc_begin8
	.uleb128 Ltmp115-Ltmp118
	.byte	0
	.byte	0
	.uleb128 Ltmp115-Lfunc_begin8
	.uleb128 Ltmp116-Ltmp115
	.uleb128 Ltmp119-Lfunc_begin8
	.byte	0
	.uleb128 Ltmp116-Lfunc_begin8
	.uleb128 Lfunc_end8-Ltmp116
	.byte	0
	.byte	0
Lcst_end8:
	.p2align	2

	.section	__TEXT,__text,regular,pure_instructions
	.p2align	4, 0x90
__ZN10proc_macro6bridge6client10run_client28_$u7b$$u7b$closure$u7d$$u7d$28_$u7b$$u7b$closure$u7d$$u7d$28_$u7b$$u7b$closure$u7d$$u7d$17h3e52abcb3b8ccffeE:
	.cfi_startproc
	pushq	%rbp
	.cfi_def_cfa_offset 16
	.cfi_offset %rbp, -16
	movq	%rsp, %rbp
	.cfi_def_cfa_register %rbp
	subq	$16, %rsp
	movq	%rdi, %rax
	movq	%rax, -8(%rbp)
	callq	__ZN10proc_macro6bridge6buffer15Buffer$LT$T$GT$4take17hb899191a144426a9E
	movq	-8(%rbp), %rax
	addq	$16, %rsp
	popq	%rbp
	retq
	.cfi_endproc

	.p2align	4, 0x90
__ZN10proc_macro6bridge6client10run_client28_$u7b$$u7b$closure$u7d$$u7d$28_$u7b$$u7b$closure$u7d$$u7d$28_$u7b$$u7b$closure$u7d$$u7d$17h5417bced72c35658E:
Lfunc_begin9:
	.cfi_startproc
	.cfi_personality 155, _rust_eh_personality
	.cfi_lsda 16, Lexception9
	pushq	%rbp
	.cfi_def_cfa_offset 16
	.cfi_offset %rbp, -16
	movq	%rsp, %rbp
	.cfi_def_cfa_register %rbp
	subq	$80, %rsp
	leaq	-56(%rbp), %rax
	movq	%rdi, -64(%rbp)
	movq	%rax, %rdi
	movq	-64(%rbp), %rax
	movq	%rsi, -72(%rbp)
	movq	%rax, %rsi
	callq	__ZN10proc_macro6bridge6buffer15Buffer$LT$T$GT$4take17hb899191a144426a9E
Ltmp120:
	movq	-72(%rbp), %rdi
	callq	__ZN4core3ptr13drop_in_place17hd934812a3ad838d2E
Ltmp121:
	jmp	LBB27_3
LBB27_2:
	movq	-24(%rbp), %rax
	movq	-72(%rbp), %rcx
	movq	%rax, 32(%rcx)
	movq	-32(%rbp), %rax
	movq	%rax, 24(%rcx)
	movq	-40(%rbp), %rax
	movq	%rax, 16(%rcx)
	movq	-56(%rbp), %rax
	movq	-48(%rbp), %rdx
	movq	%rdx, 8(%rcx)
	movq	%rax, (%rcx)
	movq	-16(%rbp), %rdi
	callq	__Unwind_Resume
	ud2
LBB27_3:
	movq	-72(%rbp), %rax
	leaq	-56(%rbp), %rcx
	movq	%rax, %rdi
	movq	%rcx, %rsi
	movl	$40, %edx
	callq	_memcpy
	addq	$80, %rsp
	popq	%rbp
	retq
LBB27_4:
Ltmp122:
	movq	%rax, -16(%rbp)
	movl	%edx, -8(%rbp)
	jmp	LBB27_2
Lfunc_end9:
	.cfi_endproc
	.section	__TEXT,__gcc_except_tab
	.p2align	2
GCC_except_table27:
Lexception9:
	.byte	255
	.byte	255
	.byte	1
	.uleb128 Lcst_end9-Lcst_begin9
Lcst_begin9:
	.uleb128 Lfunc_begin9-Lfunc_begin9
	.uleb128 Ltmp120-Lfunc_begin9
	.byte	0
	.byte	0
	.uleb128 Ltmp120-Lfunc_begin9
	.uleb128 Ltmp121-Ltmp120
	.uleb128 Ltmp122-Lfunc_begin9
	.byte	0
	.uleb128 Ltmp121-Lfunc_begin9
	.uleb128 Lfunc_end9-Ltmp121
	.byte	0
	.byte	0
Lcst_end9:
	.p2align	2

	.section	__TEXT,__text,regular,pure_instructions
	.p2align	4, 0x90
__ZN10proc_macro6bridge6client11BridgeState4with17h2a2d758b843e8e9fE:
	.cfi_startproc
	pushq	%rbp
	.cfi_def_cfa_offset 16
	.cfi_offset %rbp, -16
	movq	%rsp, %rbp
	.cfi_def_cfa_register %rbp
	subq	$16, %rsp
	movq	%rdi, %rax
	movq	l___unnamed_3(%rip), %rsi
	movq	%rax, -16(%rbp)
	callq	__ZN3std6thread5local17LocalKey$LT$T$GT$4with17h47c7c9ba6283b892E
	movq	-16(%rbp), %rax
	addq	$16, %rsp
	popq	%rbp
	retq
	.cfi_endproc

	.p2align	4, 0x90
__ZN10proc_macro6bridge6client11BridgeState4with17hefff2f111d564c96E:
	.cfi_startproc
	pushq	%rbp
	.cfi_def_cfa_offset 16
	.cfi_offset %rbp, -16
	movq	%rsp, %rbp
	.cfi_def_cfa_register %rbp
	subq	$16, %rsp
	movq	l___unnamed_3(%rip), %rax
	movq	%rdi, -8(%rbp)
	movq	-8(%rbp), %rsi
	movq	%rax, %rdi
	callq	__ZN3std6thread5local17LocalKey$LT$T$GT$4with17h6afd903267a7fab1E
	addq	$16, %rsp
	popq	%rbp
	retq
	.cfi_endproc

	.p2align	4, 0x90
__ZN10proc_macro6bridge6client11BridgeState4with17hf26943d7273c46a3E:
	.cfi_startproc
	pushq	%rbp
	.cfi_def_cfa_offset 16
	.cfi_offset %rbp, -16
	movq	%rsp, %rbp
	.cfi_def_cfa_register %rbp
	subq	$16, %rsp
	movq	l___unnamed_3(%rip), %rdi
	callq	__ZN3std6thread5local17LocalKey$LT$T$GT$4with17heaa96266a61b577aE
	movb	%al, -9(%rbp)
	movb	-9(%rbp), %al
	andb	$1, %al
	movzbl	%al, %eax
	addq	$16, %rsp
	popq	%rbp
	retq
	.cfi_endproc

	.p2align	4, 0x90
__ZN10proc_macro6bridge6client11BridgeState4with28_$u7b$$u7b$closure$u7d$$u7d$17h69edda6cfa6aac37E:
	.cfi_startproc
	pushq	%rbp
	.cfi_def_cfa_offset 16
	.cfi_offset %rbp, -16
	movq	%rsp, %rbp
	.cfi_def_cfa_register %rbp
	subq	$80, %rsp
	movq	$2, -72(%rbp)
	leaq	-72(%rbp), %rsi
	callq	__ZN10proc_macro6bridge11scoped_cell19ScopedCell$LT$T$GT$7replace17h89f9a4f16ae00db9E
	movb	%al, -73(%rbp)
	movb	-73(%rbp), %al
	andb	$1, %al
	movzbl	%al, %eax
	addq	$80, %rsp
	popq	%rbp
	retq
	.cfi_endproc

	.p2align	4, 0x90
__ZN10proc_macro6bridge6client11BridgeState4with28_$u7b$$u7b$closure$u7d$$u7d$17hba43cf6d60882cd6E:
	.cfi_startproc
	pushq	%rbp
	.cfi_def_cfa_offset 16
	.cfi_offset %rbp, -16
	movq	%rsp, %rbp
	.cfi_def_cfa_register %rbp
	subq	$80, %rsp
	movq	$2, -72(%rbp)
	movq	%rdi, -8(%rbp)
	movq	-8(%rbp), %rdx
	movq	%rsi, %rdi
	leaq	-72(%rbp), %rsi
	callq	__ZN10proc_macro6bridge11scoped_cell19ScopedCell$LT$T$GT$7replace17h8aab3ff090b395aaE
	addq	$80, %rsp
	popq	%rbp
	retq
	.cfi_endproc

	.p2align	4, 0x90
__ZN10proc_macro6bridge6client11BridgeState4with28_$u7b$$u7b$closure$u7d$$u7d$17hf064c58bfc40c035E:
	.cfi_startproc
	pushq	%rbp
	.cfi_def_cfa_offset 16
	.cfi_offset %rbp, -16
	movq	%rsp, %rbp
	.cfi_def_cfa_register %rbp
	subq	$80, %rsp
	movq	%rdi, %rax
	movq	$2, -72(%rbp)
	leaq	-72(%rbp), %rdx
	movq	%rax, -80(%rbp)
	callq	__ZN10proc_macro6bridge11scoped_cell19ScopedCell$LT$T$GT$7replace17hfb2b06898e8d24e5E
	movq	-80(%rbp), %rax
	addq	$80, %rsp
	popq	%rbp
	retq
	.cfi_endproc

	.p2align	4, 0x90
__ZN10proc_macro6bridge6client11BridgeState4with28_$u7b$$u7b$closure$u7d$$u7d$28_$u7b$$u7b$closure$u7d$$u7d$17h131149d6fe9aa8a2E:
Lfunc_begin10:
	.cfi_startproc
	.cfi_personality 155, _rust_eh_personality
	.cfi_lsda 16, Lexception10
	pushq	%rbp
	.cfi_def_cfa_offset 16
	.cfi_offset %rbp, -16
	movq	%rsp, %rbp
	.cfi_def_cfa_register %rbp
	subq	$64, %rsp
	movq	%rdi, -40(%rbp)
	movb	$0, -17(%rbp)
	movb	$1, -17(%rbp)
Ltmp123:
	leaq	-40(%rbp), %rdi
	callq	__ZN96_$LT$proc_macro..bridge..scoped_cell..RefMutL$LT$T$GT$$u20$as$u20$core..ops..deref..DerefMut$GT$9deref_mut17h2a004d89281f55e6E
Ltmp124:
	movq	%rax, -48(%rbp)
	jmp	LBB34_1
LBB34_1:
	movq	-48(%rbp), %rax
	movq	%rax, -32(%rbp)
	movb	$0, -17(%rbp)
	movq	-32(%rbp), %rdi
Ltmp125:
	callq	__ZN10proc_macro6bridge6client44_$LT$impl$u20$proc_macro..bridge..Bridge$GT$5enter28_$u7b$$u7b$closure$u7d$$u7d$28_$u7b$$u7b$closure$u7d$$u7d$28_$u7b$$u7b$closure$u7d$$u7d$17hfa3ec3ec898cde55E
Ltmp126:
	movb	%al, -49(%rbp)
	jmp	LBB34_3
LBB34_2:
	movq	-16(%rbp), %rdi
	callq	__Unwind_Resume
	ud2
LBB34_3:
	movb	$0, -17(%rbp)
	movb	-49(%rbp), %al
	andb	$1, %al
	movzbl	%al, %eax
	addq	$64, %rsp
	popq	%rbp
	retq
LBB34_4:
	movb	$0, -17(%rbp)
	jmp	LBB34_2
LBB34_5:
	testb	$1, -17(%rbp)
	jne	LBB34_4
	jmp	LBB34_2
LBB34_6:
Ltmp127:
	movq	%rax, -16(%rbp)
	movl	%edx, -8(%rbp)
	jmp	LBB34_5
Lfunc_end10:
	.cfi_endproc
	.section	__TEXT,__gcc_except_tab
	.p2align	2
GCC_except_table34:
Lexception10:
	.byte	255
	.byte	255
	.byte	1
	.uleb128 Lcst_end10-Lcst_begin10
Lcst_begin10:
	.uleb128 Ltmp123-Lfunc_begin10
	.uleb128 Ltmp126-Ltmp123
	.uleb128 Ltmp127-Lfunc_begin10
	.byte	0
	.uleb128 Ltmp126-Lfunc_begin10
	.uleb128 Lfunc_end10-Ltmp126
	.byte	0
	.byte	0
Lcst_end10:
	.p2align	2

	.section	__TEXT,__text,regular,pure_instructions
	.p2align	4, 0x90
__ZN10proc_macro6bridge6client11BridgeState4with28_$u7b$$u7b$closure$u7d$$u7d$28_$u7b$$u7b$closure$u7d$$u7d$17h4a354582f05a13c5E:
Lfunc_begin11:
	.cfi_startproc
	.cfi_personality 155, _rust_eh_personality
	.cfi_lsda 16, Lexception11
	pushq	%rbp
	.cfi_def_cfa_offset 16
	.cfi_offset %rbp, -16
	movq	%rsp, %rbp
	.cfi_def_cfa_register %rbp
	subq	$64, %rsp
	movq	%rdi, %rax
	movq	%rsi, -40(%rbp)
	movb	$0, -17(%rbp)
	movb	$1, -17(%rbp)
Ltmp128:
	leaq	-40(%rbp), %rcx
	movq	%rdi, -48(%rbp)
	movq	%rcx, %rdi
	movq	%rax, -56(%rbp)
	callq	__ZN96_$LT$proc_macro..bridge..scoped_cell..RefMutL$LT$T$GT$$u20$as$u20$core..ops..deref..DerefMut$GT$9deref_mut17h2a004d89281f55e6E
Ltmp129:
	movq	%rax, -64(%rbp)
	jmp	LBB35_1
LBB35_1:
	movq	-64(%rbp), %rax
	movq	%rax, -32(%rbp)
	movb	$0, -17(%rbp)
	movq	-32(%rbp), %rsi
Ltmp130:
	movq	-48(%rbp), %rdi
	callq	__ZN10proc_macro6bridge6client44_$LT$impl$u20$proc_macro..bridge..Bridge$GT$4with28_$u7b$$u7b$closure$u7d$$u7d$17h3d97b2534c29e5ddE
Ltmp131:
	jmp	LBB35_3
LBB35_2:
	movq	-16(%rbp), %rdi
	callq	__Unwind_Resume
	ud2
LBB35_3:
	movb	$0, -17(%rbp)
	movq	-56(%rbp), %rax
	addq	$64, %rsp
	popq	%rbp
	retq
LBB35_4:
	movb	$0, -17(%rbp)
	jmp	LBB35_2
LBB35_5:
	testb	$1, -17(%rbp)
	jne	LBB35_4
	jmp	LBB35_2
LBB35_6:
Ltmp132:
	movq	%rax, -16(%rbp)
	movl	%edx, -8(%rbp)
	jmp	LBB35_5
Lfunc_end11:
	.cfi_endproc
	.section	__TEXT,__gcc_except_tab
	.p2align	2
GCC_except_table35:
Lexception11:
	.byte	255
	.byte	255
	.byte	1
	.uleb128 Lcst_end11-Lcst_begin11
Lcst_begin11:
	.uleb128 Ltmp128-Lfunc_begin11
	.uleb128 Ltmp131-Ltmp128
	.uleb128 Ltmp132-Lfunc_begin11
	.byte	0
	.uleb128 Ltmp131-Lfunc_begin11
	.uleb128 Lfunc_end11-Ltmp131
	.byte	0
	.byte	0
Lcst_end11:
	.p2align	2

	.section	__TEXT,__text,regular,pure_instructions
	.p2align	4, 0x90
__ZN10proc_macro6bridge6client11BridgeState4with28_$u7b$$u7b$closure$u7d$$u7d$28_$u7b$$u7b$closure$u7d$$u7d$17ha483e947f1ac3530E:
Lfunc_begin12:
	.cfi_startproc
	.cfi_personality 155, _rust_eh_personality
	.cfi_lsda 16, Lexception12
	pushq	%rbp
	.cfi_def_cfa_offset 16
	.cfi_offset %rbp, -16
	movq	%rsp, %rbp
	.cfi_def_cfa_register %rbp
	subq	$64, %rsp
	movq	%rsi, -40(%rbp)
	movb	$0, -17(%rbp)
	movb	$1, -17(%rbp)
Ltmp133:
	leaq	-40(%rbp), %rax
	movq	%rdi, -48(%rbp)
	movq	%rax, %rdi
	callq	__ZN96_$LT$proc_macro..bridge..scoped_cell..RefMutL$LT$T$GT$$u20$as$u20$core..ops..deref..DerefMut$GT$9deref_mut17h2a004d89281f55e6E
Ltmp134:
	movq	%rax, -56(%rbp)
	jmp	LBB36_1
LBB36_1:
	movq	-56(%rbp), %rax
	movq	%rax, -32(%rbp)
	movb	$0, -17(%rbp)
	movq	-32(%rbp), %rsi
Ltmp135:
	movq	-48(%rbp), %rdi
	callq	__ZN10proc_macro6bridge6client44_$LT$impl$u20$proc_macro..bridge..Bridge$GT$4with28_$u7b$$u7b$closure$u7d$$u7d$17h0911f7a6ddbe0553E
Ltmp136:
	jmp	LBB36_3
LBB36_2:
	movq	-16(%rbp), %rdi
	callq	__Unwind_Resume
	ud2
LBB36_3:
	movb	$0, -17(%rbp)
	addq	$64, %rsp
	popq	%rbp
	retq
LBB36_4:
	movb	$0, -17(%rbp)
	jmp	LBB36_2
LBB36_5:
	testb	$1, -17(%rbp)
	jne	LBB36_4
	jmp	LBB36_2
LBB36_6:
Ltmp137:
	movq	%rax, -16(%rbp)
	movl	%edx, -8(%rbp)
	jmp	LBB36_5
Lfunc_end12:
	.cfi_endproc
	.section	__TEXT,__gcc_except_tab
	.p2align	2
GCC_except_table36:
Lexception12:
	.byte	255
	.byte	255
	.byte	1
	.uleb128 Lcst_end12-Lcst_begin12
Lcst_begin12:
	.uleb128 Ltmp133-Lfunc_begin12
	.uleb128 Ltmp136-Ltmp133
	.uleb128 Ltmp137-Lfunc_begin12
	.byte	0
	.uleb128 Ltmp136-Lfunc_begin12
	.uleb128 Lfunc_end12-Ltmp136
	.byte	0
	.byte	0
Lcst_end12:
	.p2align	2

	.section	__TEXT,__text,regular,pure_instructions
	.p2align	4, 0x90
__ZN10proc_macro6bridge6client44_$LT$impl$u20$proc_macro..bridge..Bridge$GT$4with17h84d844c5d98f2187E:
	.cfi_startproc
	pushq	%rbp
	.cfi_def_cfa_offset 16
	.cfi_offset %rbp, -16
	movq	%rsp, %rbp
	.cfi_def_cfa_register %rbp
	subq	$16, %rsp
	movq	%rdi, -8(%rbp)
	movq	-8(%rbp), %rdi
	callq	__ZN10proc_macro6bridge6client11BridgeState4with17hefff2f111d564c96E
	addq	$16, %rsp
	popq	%rbp
	retq
	.cfi_endproc

	.p2align	4, 0x90
__ZN10proc_macro6bridge6client44_$LT$impl$u20$proc_macro..bridge..Bridge$GT$4with17ha948444f57a6ce2cE:
	.cfi_startproc
	pushq	%rbp
	.cfi_def_cfa_offset 16
	.cfi_offset %rbp, -16
	movq	%rsp, %rbp
	.cfi_def_cfa_register %rbp
	subq	$16, %rsp
	movq	%rdi, %rax
	movq	%rax, -16(%rbp)
	callq	__ZN10proc_macro6bridge6client11BridgeState4with17h2a2d758b843e8e9fE
	movq	-16(%rbp), %rax
	addq	$16, %rsp
	popq	%rbp
	retq
	.cfi_endproc

	.p2align	4, 0x90
__ZN10proc_macro6bridge6client44_$LT$impl$u20$proc_macro..bridge..Bridge$GT$4with28_$u7b$$u7b$closure$u7d$$u7d$17h0911f7a6ddbe0553E:
Lfunc_begin13:
	.cfi_startproc
	.cfi_personality 155, _rust_eh_personality
	.cfi_lsda 16, Lexception13
	pushq	%rbp
	.cfi_def_cfa_offset 16
	.cfi_offset %rbp, -16
	movq	%rsp, %rbp
	.cfi_def_cfa_register %rbp
	subq	$64, %rsp
	movq	%rdi, -40(%rbp)
	movb	$0, -17(%rbp)
	movb	$1, -17(%rbp)
	movq	(%rsi), %rax
	testq	%rax, %rax
	movq	%rsi, -48(%rbp)
	movq	%rax, -56(%rbp)
	je	LBB39_3
	jmp	LBB39_11
LBB39_11:
	movq	-56(%rbp), %rax
	subq	$1, %rax
	je	LBB39_1
	jmp	LBB39_12
LBB39_12:
	jmp	LBB39_4
LBB39_1:
	movq	-48(%rbp), %rax
	addq	$8, %rax
	movb	$0, -17(%rbp)
	movq	-40(%rbp), %rdi
	movq	%rax, -32(%rbp)
	movq	-32(%rbp), %rsi
Ltmp140:
	callq	__ZN10proc_macro6bridge6client10run_client28_$u7b$$u7b$closure$u7d$$u7d$28_$u7b$$u7b$closure$u7d$$u7d$28_$u7b$$u7b$closure$u7d$$u7d$17h5417bced72c35658E
Ltmp141:
	jmp	LBB39_5
	ud2
LBB39_3:
Ltmp142:
	leaq	l___unnamed_4(%rip), %rdi
	leaq	l___unnamed_5(%rip), %rdx
	movl	$58, %esi
	callq	__ZN3std9panicking11begin_panic17h673c1ec0952ac37bE
Ltmp143:
	jmp	LBB39_9
LBB39_4:
Ltmp138:
	leaq	l___unnamed_6(%rip), %rdi
	leaq	l___unnamed_5(%rip), %rdx
	movl	$54, %esi
	callq	__ZN3std9panicking11begin_panic17h673c1ec0952ac37bE
Ltmp139:
	jmp	LBB39_9
LBB39_5:
	addq	$64, %rsp
	popq	%rbp
	retq
LBB39_6:
	movq	-16(%rbp), %rdi
	callq	__Unwind_Resume
	ud2
LBB39_7:
	movb	$0, -17(%rbp)
	jmp	LBB39_6
LBB39_8:
	testb	$1, -17(%rbp)
	jne	LBB39_7
	jmp	LBB39_6
LBB39_9:
	ud2
LBB39_10:
Ltmp144:
	movq	%rax, -16(%rbp)
	movl	%edx, -8(%rbp)
	jmp	LBB39_8
Lfunc_end13:
	.cfi_endproc
	.section	__TEXT,__gcc_except_tab
	.p2align	2
GCC_except_table39:
Lexception13:
	.byte	255
	.byte	255
	.byte	1
	.uleb128 Lcst_end13-Lcst_begin13
Lcst_begin13:
	.uleb128 Ltmp140-Lfunc_begin13
	.uleb128 Ltmp139-Ltmp140
	.uleb128 Ltmp144-Lfunc_begin13
	.byte	0
	.uleb128 Ltmp139-Lfunc_begin13
	.uleb128 Lfunc_end13-Ltmp139
	.byte	0
	.byte	0
Lcst_end13:
	.p2align	2

	.section	__TEXT,__text,regular,pure_instructions
	.p2align	4, 0x90
__ZN10proc_macro6bridge6client44_$LT$impl$u20$proc_macro..bridge..Bridge$GT$4with28_$u7b$$u7b$closure$u7d$$u7d$17h3d97b2534c29e5ddE:
Lfunc_begin14:
	.cfi_startproc
	.cfi_personality 155, _rust_eh_personality
	.cfi_lsda 16, Lexception14
	pushq	%rbp
	.cfi_def_cfa_offset 16
	.cfi_offset %rbp, -16
	movq	%rsp, %rbp
	.cfi_def_cfa_register %rbp
	subq	$80, %rsp
	movq	%rdi, %rax
	movb	$0, -17(%rbp)
	movb	$1, -17(%rbp)
	movq	(%rsi), %rcx
	testq	%rcx, %rcx
	movq	%rsi, -48(%rbp)
	movq	%rdi, -56(%rbp)
	movq	%rax, -64(%rbp)
	movq	%rcx, -72(%rbp)
	je	LBB40_3
	jmp	LBB40_11
LBB40_11:
	movq	-72(%rbp), %rax
	subq	$1, %rax
	je	LBB40_1
	jmp	LBB40_12
LBB40_12:
	jmp	LBB40_4
LBB40_1:
	movq	-48(%rbp), %rax
	addq	$8, %rax
	movb	$0, -17(%rbp)
	movq	%rax, -32(%rbp)
	movq	-32(%rbp), %rsi
Ltmp147:
	movq	-56(%rbp), %rdi
	callq	__ZN10proc_macro6bridge6client10run_client28_$u7b$$u7b$closure$u7d$$u7d$28_$u7b$$u7b$closure$u7d$$u7d$28_$u7b$$u7b$closure$u7d$$u7d$17h3e52abcb3b8ccffeE
Ltmp148:
	jmp	LBB40_5
	ud2
LBB40_3:
Ltmp149:
	leaq	l___unnamed_4(%rip), %rdi
	leaq	l___unnamed_5(%rip), %rdx
	movl	$58, %esi
	callq	__ZN3std9panicking11begin_panic17h673c1ec0952ac37bE
Ltmp150:
	jmp	LBB40_9
LBB40_4:
Ltmp145:
	leaq	l___unnamed_6(%rip), %rdi
	leaq	l___unnamed_5(%rip), %rdx
	movl	$54, %esi
	callq	__ZN3std9panicking11begin_panic17h673c1ec0952ac37bE
Ltmp146:
	jmp	LBB40_9
LBB40_5:
	movq	-64(%rbp), %rax
	addq	$80, %rsp
	popq	%rbp
	retq
LBB40_6:
	movq	-16(%rbp), %rdi
	callq	__Unwind_Resume
	ud2
LBB40_7:
	movb	$0, -17(%rbp)
	jmp	LBB40_6
LBB40_8:
	testb	$1, -17(%rbp)
	jne	LBB40_7
	jmp	LBB40_6
LBB40_9:
	ud2
LBB40_10:
Ltmp151:
	movq	%rax, -16(%rbp)
	movl	%edx, -8(%rbp)
	jmp	LBB40_8
Lfunc_end14:
	.cfi_endproc
	.section	__TEXT,__gcc_except_tab
	.p2align	2
GCC_except_table40:
Lexception14:
	.byte	255
	.byte	255
	.byte	1
	.uleb128 Lcst_end14-Lcst_begin14
Lcst_begin14:
	.uleb128 Ltmp147-Lfunc_begin14
	.uleb128 Ltmp146-Ltmp147
	.uleb128 Ltmp151-Lfunc_begin14
	.byte	0
	.uleb128 Ltmp146-Lfunc_begin14
	.uleb128 Lfunc_end14-Ltmp146
	.byte	0
	.byte	0
Lcst_end14:
	.p2align	2

	.section	__TEXT,__text,regular,pure_instructions
	.p2align	4, 0x90
__ZN10proc_macro6bridge6client44_$LT$impl$u20$proc_macro..bridge..Bridge$GT$5enter17h42a60a3812ddc9b7E:
Lfunc_begin15:
	.cfi_startproc
	.cfi_personality 155, _rust_eh_personality
	.cfi_lsda 16, Lexception15
	pushq	%rbp
	.cfi_def_cfa_offset 16
	.cfi_offset %rbp, -16
	movq	%rsp, %rbp
	.cfi_def_cfa_register %rbp
	subq	$128, %rsp
	movb	$0, -18(%rbp)
	movb	$0, -17(%rbp)
	movb	$1, -18(%rbp)
	movb	$1, -17(%rbp)
Ltmp152:
	movq	__ZN10proc_macro6bridge6client44_$LT$impl$u20$proc_macro..bridge..Bridge$GT$5enter28HIDE_PANICS_DURING_EXPANSION17h114a25d5c7e03322E@GOTPCREL(%rip), %rax
	movq	%rdi, -112(%rbp)
	movq	%rax, %rdi
	movq	%rsi, -120(%rbp)
	movq	%rdx, -128(%rbp)
	callq	__ZN3std4sync4once4Once9call_once17hbf847ec93e76d3caE
Ltmp153:
	jmp	LBB41_2
LBB41_1:
	movq	-16(%rbp), %rdi
	callq	__Unwind_Resume
	ud2
LBB41_2:
	movq	l___unnamed_3(%rip), %rdi
	movb	$0, -18(%rbp)
	movb	$0, -17(%rbp)
	movq	-112(%rbp), %rax
	movq	48(%rax), %rcx
	movq	%rcx, -48(%rbp)
	movq	40(%rax), %rcx
	movq	%rcx, -56(%rbp)
	movq	32(%rax), %rcx
	movq	%rcx, -64(%rbp)
	movq	24(%rax), %rcx
	movq	%rcx, -72(%rbp)
	movq	16(%rax), %rcx
	movq	%rcx, -80(%rbp)
	movq	(%rax), %rcx
	movq	8(%rax), %rdx
	movq	%rdx, -88(%rbp)
	movq	%rcx, -96(%rbp)
	movq	-120(%rbp), %rcx
	movq	%rcx, -40(%rbp)
	movq	-128(%rbp), %rdx
	movq	%rdx, -32(%rbp)
Ltmp154:
	leaq	-96(%rbp), %rsi
	callq	__ZN3std6thread5local17LocalKey$LT$T$GT$4with17hdc6cd4a7939ae81aE
Ltmp155:
	jmp	LBB41_4
LBB41_3:
	testb	$1, -18(%rbp)
	jne	LBB41_5
	jmp	LBB41_1
LBB41_4:
	addq	$128, %rsp
	popq	%rbp
	retq
LBB41_5:
	movb	$0, -18(%rbp)
	movq	-112(%rbp), %rdi
	callq	__ZN4core3ptr13drop_in_place17h293c2b4619202daeE
	jmp	LBB41_1
LBB41_6:
	movb	$0, -17(%rbp)
	jmp	LBB41_3
LBB41_7:
	testb	$1, -17(%rbp)
	jne	LBB41_6
	jmp	LBB41_3
LBB41_8:
Ltmp156:
	movq	%rax, -16(%rbp)
	movl	%edx, -8(%rbp)
	jmp	LBB41_7
Lfunc_end15:
	.cfi_endproc
	.section	__TEXT,__gcc_except_tab
	.p2align	2
GCC_except_table41:
Lexception15:
	.byte	255
	.byte	255
	.byte	1
	.uleb128 Lcst_end15-Lcst_begin15
Lcst_begin15:
	.uleb128 Ltmp152-Lfunc_begin15
	.uleb128 Ltmp153-Ltmp152
	.uleb128 Ltmp156-Lfunc_begin15
	.byte	0
	.uleb128 Ltmp153-Lfunc_begin15
	.uleb128 Ltmp154-Ltmp153
	.byte	0
	.byte	0
	.uleb128 Ltmp154-Lfunc_begin15
	.uleb128 Ltmp155-Ltmp154
	.uleb128 Ltmp156-Lfunc_begin15
	.byte	0
	.uleb128 Ltmp155-Lfunc_begin15
	.uleb128 Lfunc_end15-Ltmp155
	.byte	0
	.byte	0
Lcst_end15:
	.p2align	2

	.section	__TEXT,__text,regular,pure_instructions
	.p2align	4, 0x90
__ZN10proc_macro6bridge6client44_$LT$impl$u20$proc_macro..bridge..Bridge$GT$5enter28_$u7b$$u7b$closure$u7d$$u7d$17h6e27453454c3133eE:
	.cfi_startproc
	pushq	%rbp
	.cfi_def_cfa_offset 16
	.cfi_offset %rbp, -16
	movq	%rsp, %rbp
	.cfi_def_cfa_register %rbp
	subq	$160, %rsp
	movq	%rdi, %rax
	leaq	-56(%rbp), %rcx
	movq	%rcx, %rdx
	movq	%rdi, -128(%rbp)
	movq	%rdx, %rdi
	movq	%rsi, -136(%rbp)
	movq	%rax, %rsi
	movl	$56, %eax
	movq	%rax, %rdx
	movq	%rcx, -144(%rbp)
	movq	%rax, -152(%rbp)
	callq	_memcpy
	leaq	-120(%rbp), %rax
	movq	%rax, %rcx
	addq	$8, %rcx
	movq	-144(%rbp), %rdx
	movq	%rcx, %rdi
	movq	%rdx, %rsi
	movq	-152(%rbp), %rdx
	movq	%rax, -160(%rbp)
	callq	_memcpy
	movq	$1, -120(%rbp)
	movq	-128(%rbp), %rax
	movq	56(%rax), %rdx
	movq	64(%rax), %rcx
	movq	-136(%rbp), %rdi
	movq	-160(%rbp), %rsi
	callq	__ZN10proc_macro6bridge11scoped_cell19ScopedCell$LT$T$GT$3set17h67bc2c4a792c9696E
	addq	$160, %rsp
	popq	%rbp
	retq
	.cfi_endproc

	.p2align	4, 0x90
__ZN10proc_macro6bridge6client44_$LT$impl$u20$proc_macro..bridge..Bridge$GT$5enter28_$u7b$$u7b$closure$u7d$$u7d$17hdfd6e63348d6de5bE:
	.cfi_startproc
	pushq	%rbp
	.cfi_def_cfa_offset 16
	.cfi_offset %rbp, -16
	movq	%rsp, %rbp
	.cfi_def_cfa_register %rbp
	subq	$64, %rsp
	callq	__ZN3std9panicking9take_hook17h5f80f0f5cf2076fdE
	movq	%rax, -24(%rbp)
	movq	%rdx, -32(%rbp)
	movq	-24(%rbp), %rax
	movq	%rax, -16(%rbp)
	movq	-32(%rbp), %rcx
	movq	%rcx, -8(%rbp)
	movq	-16(%rbp), %rdx
	movq	-8(%rbp), %rsi
	movl	$16, %edi
	movl	$8, %r8d
	movq	%rsi, -40(%rbp)
	movq	%r8, %rsi
	movq	%rdx, -48(%rbp)
	callq	__ZN5alloc5alloc15exchange_malloc17hfd65eae3ebf508cbE
	movq	%rax, %rcx
	movq	-48(%rbp), %rdx
	movq	%rdx, (%rax)
	movq	-40(%rbp), %rdx
	movq	%rdx, 8(%rax)
	movq	%rcx, -56(%rbp)
	leaq	l___unnamed_7(%rip), %rax
	movq	-56(%rbp), %rcx
	movq	%rcx, %rdi
	movq	%rax, %rsi
	callq	__ZN3std9panicking8set_hook17h453bdb048a179ea8E
	addq	$64, %rsp
	popq	%rbp
	retq
	.cfi_endproc

	.p2align	4, 0x90
__ZN10proc_macro6bridge6client44_$LT$impl$u20$proc_macro..bridge..Bridge$GT$5enter28_$u7b$$u7b$closure$u7d$$u7d$28_$u7b$$u7b$closure$u7d$$u7d$17hff5f35fbf6a7cceeE:
	.cfi_startproc
	pushq	%rbp
	.cfi_def_cfa_offset 16
	.cfi_offset %rbp, -16
	movq	%rsp, %rbp
	.cfi_def_cfa_register %rbp
	subq	$48, %rsp
	movq	%rdi, -32(%rbp)
	movq	%rsi, -40(%rbp)
	callq	__ZN10proc_macro6bridge6client11BridgeState4with17hf26943d7273c46a3E
	movb	%al, -41(%rbp)
	movb	-41(%rbp), %al
	xorb	$-1, %al
	testb	$1, %al
	jne	LBB44_3
	jmp	LBB44_5
LBB44_3:
	movq	-32(%rbp), %rax
	movq	-40(%rbp), %rcx
	movq	%rcx, -8(%rbp)
	movq	-8(%rbp), %rdx
	movq	%rax, %rdi
	movq	%rdx, %rsi
	callq	__ZN79_$LT$alloc..boxed..Box$LT$F$GT$$u20$as$u20$core..ops..function..Fn$LT$A$GT$$GT$4call17hbf49f163a6ffb987E
	jmp	LBB44_5
LBB44_5:
	addq	$48, %rsp
	popq	%rbp
	retq
	.cfi_endproc

	.p2align	4, 0x90
__ZN10proc_macro6bridge6client44_$LT$impl$u20$proc_macro..bridge..Bridge$GT$5enter28_$u7b$$u7b$closure$u7d$$u7d$28_$u7b$$u7b$closure$u7d$$u7d$28_$u7b$$u7b$closure$u7d$$u7d$17hfa3ec3ec898cde55E:
	.cfi_startproc
	pushq	%rbp
	.cfi_def_cfa_offset 16
	.cfi_offset %rbp, -16
	movq	%rsp, %rbp
	.cfi_def_cfa_register %rbp
	subq	$1, %rsp
	movq	(%rdi), %rax
	testq	%rax, %rax
	je	LBB45_2
	jmp	LBB45_5
LBB45_5:
	jmp	LBB45_3
	ud2
LBB45_2:
	movb	$0, -1(%rbp)
	jmp	LBB45_4
LBB45_3:
	movb	$1, -1(%rbp)
LBB45_4:
	movb	-1(%rbp), %al
	andb	$1, %al
	movzbl	%al, %eax
	addq	$1, %rsp
	popq	%rbp
	retq
	.cfi_endproc

	.p2align	4, 0x90
__ZN10proc_macro6bridge6client85Client$LT$fn$LP$proc_macro..TokenStream$RP$$u20$.$GT$$u20$proc_macro..TokenStream$GT$7expand13run17h6d47e57dc064e217E:
	.cfi_startproc
	pushq	%rbp
	.cfi_def_cfa_offset 16
	.cfi_offset %rbp, -16
	movq	%rsp, %rbp
	.cfi_def_cfa_register %rbp
	subq	$96, %rsp
	movq	%rdi, %rax
	leaq	16(%rbp), %rcx
	leaq	-64(%rbp), %rdx
	movq	%rdx, %r8
	movq	%rdi, -72(%rbp)
	movq	%r8, %rdi
	movq	%rsi, -80(%rbp)
	movq	%rcx, %rsi
	movl	$56, %ecx
	movq	%rdx, -88(%rbp)
	movq	%rcx, %rdx
	movq	%rax, -96(%rbp)
	callq	_memcpy
	movq	-80(%rbp), %rax
	movq	%rax, -8(%rbp)
	movq	-8(%rbp), %rdx
	movq	-72(%rbp), %rdi
	movq	-88(%rbp), %rsi
	callq	__ZN10proc_macro6bridge6client10run_client17he03d9a62b4b5ac88E
	movq	-96(%rbp), %rax
	addq	$96, %rsp
	popq	%rbp
	retq
	.cfi_endproc

	.p2align	4, 0x90
__ZN10proc_macro6bridge6client85Client$LT$fn$LP$proc_macro..TokenStream$RP$$u20$.$GT$$u20$proc_macro..TokenStream$GT$7expand13run28_$u7b$$u7b$closure$u7d$$u7d$17h10c77a90e22a737eE:
	.cfi_startproc
	pushq	%rbp
	.cfi_def_cfa_offset 16
	.cfi_offset %rbp, -16
	movq	%rsp, %rbp
	.cfi_def_cfa_register %rbp
	subq	$48, %rsp
	movl	%esi, -44(%rbp)
	movl	-44(%rbp), %eax
	movl	%eax, -48(%rbp)
	movl	-48(%rbp), %eax
	movl	%eax, -8(%rbp)
	movl	-8(%rbp), %eax
	movl	%eax, -16(%rbp)
	movl	-16(%rbp), %eax
	movl	%eax, -24(%rbp)
	movl	-24(%rbp), %esi
	callq	__ZN4core3ops8function6FnOnce9call_once17h57c8094f6c65e100E
	movl	%eax, -4(%rbp)
	movl	-4(%rbp), %eax
	movl	%eax, -32(%rbp)
	movl	-32(%rbp), %eax
	movl	%eax, -40(%rbp)
	movl	-40(%rbp), %eax
	addq	$48, %rsp
	popq	%rbp
	retq
	.cfi_endproc

	.p2align	4, 0x90
__ZN111_$LT$syn..punctuated..PrivateIter$LT$T$C$P$GT$$u20$as$u20$core..iter..traits..exact_size..ExactSizeIterator$GT$3len17h93fb1ec7cfd0d71dE:
	.cfi_startproc
	pushq	%rbp
	.cfi_def_cfa_offset 16
	.cfi_offset %rbp, -16
	movq	%rsp, %rbp
	.cfi_def_cfa_register %rbp
	subq	$96, %rsp
	movq	%rdi, %rax
	movq	(%rdi), %rcx
	movq	%rdi, -32(%rbp)
	movq	%rcx, %rdi
	movq	%rax, -40(%rbp)
	movq	%rcx, -48(%rbp)
	callq	__ZN4core3ptr8non_null16NonNull$LT$T$GT$6as_ptr17h12fd40e16f53a495E
	movq	$120, -8(%rbp)
	movq	-8(%rbp), %rcx
	cmpq	$0, %rcx
	movq	%rcx, -56(%rbp)
	je	LBB48_2
	movq	-40(%rbp), %rax
	movq	8(%rax), %rcx
	movq	-48(%rbp), %rdi
	movq	%rcx, -64(%rbp)
	callq	__ZN4core3ptr8non_null16NonNull$LT$T$GT$6as_ptr17h12fd40e16f53a495E
	movq	-64(%rbp), %rcx
	subq	%rax, %rcx
	movq	%rcx, -16(%rbp)
	movq	-16(%rbp), %rax
	xorl	%edx, %edx
	movq	-56(%rbp), %rcx
	divq	%rcx
	movq	%rax, -24(%rbp)
	jmp	LBB48_3
LBB48_2:
	movq	-40(%rbp), %rax
	movq	8(%rax), %rdi
	movq	-48(%rbp), %rcx
	movq	%rdi, -72(%rbp)
	movq	%rcx, %rdi
	callq	__ZN4core3ptr8non_null16NonNull$LT$T$GT$6as_ptr17h12fd40e16f53a495E
	movq	-72(%rbp), %rdi
	movq	%rax, %rsi
	callq	__ZN4core3num23_$LT$impl$u20$usize$GT$12wrapping_sub17h91f7c9b80a397aaeE
	movq	%rax, -24(%rbp)
LBB48_3:
	movq	-24(%rbp), %rax
	movq	%rax, -80(%rbp)
	movq	-32(%rbp), %rax
	addq	$16, %rax
	movq	%rax, %rdi
	callq	__ZN4core4iter6traits10exact_size17ExactSizeIterator3len17had8c558a3424953bE
	movq	%rax, -88(%rbp)
	movq	-80(%rbp), %rax
	movq	-88(%rbp), %rcx
	addq	%rcx, %rax
	setb	%dl
	testb	$1, %dl
	movq	%rax, -96(%rbp)
	jne	LBB48_7
	movq	-96(%rbp), %rax
	addq	$96, %rsp
	popq	%rbp
	retq
LBB48_7:
	leaq	_str.0(%rip), %rdi
	leaq	l___unnamed_8(%rip), %rdx
	movl	$28, %esi
	callq	__ZN4core9panicking5panic17h383a6b80ea7021aaE
	.cfi_endproc

	.p2align	4, 0x90
__ZN113_$LT$alloc..string..String$u20$as$u20$core..ops..index..Index$LT$core..ops..range..RangeFrom$LT$usize$GT$$GT$$GT$5index17h852b0e5d87b4ea4cE:
	.cfi_startproc
	pushq	%rbp
	.cfi_def_cfa_offset 16
	.cfi_offset %rbp, -16
	movq	%rsp, %rbp
	.cfi_def_cfa_register %rbp
	subq	$48, %rsp
	movq	%rsi, -8(%rbp)
	movq	%rdx, %rsi
	movq	%rdx, -16(%rbp)
	callq	__ZN100_$LT$alloc..string..String$u20$as$u20$core..ops..index..Index$LT$core..ops..range..RangeFull$GT$$GT$5index17h2e51fc1a4f51c06dE
	movq	%rax, -24(%rbp)
	movq	%rdx, -32(%rbp)
	movq	-24(%rbp), %rdi
	movq	-32(%rbp), %rsi
	movq	-8(%rbp), %rdx
	movq	-16(%rbp), %rcx
	callq	__ZN4core3str6traits66_$LT$impl$u20$core..ops..index..Index$LT$I$GT$$u20$for$u20$str$GT$5index17h8f53ab0a6456c72eE
	movq	%rax, -40(%rbp)
	movq	%rdx, -48(%rbp)
	movq	-40(%rbp), %rax
	movq	-48(%rbp), %rdx
	addq	$48, %rsp
	popq	%rbp
	retq
	.cfi_endproc

	.p2align	4, 0x90
__ZN115_$LT$proc_macro..bridge..buffer..Buffer$LT$T$GT$$u20$as$u20$core..convert..From$LT$alloc..vec..Vec$LT$T$GT$$GT$$GT$4from17extend_from_slice17h6b6543adca6af63bE:
Lfunc_begin16:
	.cfi_startproc
	.cfi_personality 155, _rust_eh_personality
	.cfi_lsda 16, Lexception16
	pushq	%rbp
	.cfi_def_cfa_offset 16
	.cfi_offset %rbp, -16
	movq	%rsp, %rbp
	.cfi_def_cfa_register %rbp
	subq	$192, %rsp
	movq	%rdi, %rax
	leaq	16(%rbp), %rcx
	movq	%rsi, -128(%rbp)
	movq	%rdx, -120(%rbp)
	movq	-128(%rbp), %rdx
	movq	%rdx, -144(%rbp)
	movq	-120(%rbp), %rdx
	movq	%rdx, -136(%rbp)
	movb	$0, -17(%rbp)
	leaq	-88(%rbp), %rdx
	movq	%rdx, %rsi
	movq	%rdi, -152(%rbp)
	movq	%rsi, %rdi
	movq	%rcx, %rsi
	movl	$40, %ecx
	movq	%rdx, -160(%rbp)
	movq	%rcx, %rdx
	movq	%rax, -168(%rbp)
	callq	_memcpy
	leaq	-112(%rbp), %rdi
	movq	-160(%rbp), %rsi
	callq	__ZN115_$LT$proc_macro..bridge..buffer..Buffer$LT$T$GT$$u20$as$u20$core..convert..From$LT$alloc..vec..Vec$LT$T$GT$$GT$$GT$4from6to_vec17h74e2e187073efb01E
	jmp	LBB50_2
LBB50_1:
	movq	-16(%rbp), %rdi
	callq	__Unwind_Resume
	ud2
LBB50_2:
	movb	$1, -17(%rbp)
Ltmp157:
	leaq	-144(%rbp), %rdi
	callq	__ZN86_$LT$proc_macro..bridge..buffer..Slice$LT$T$GT$$u20$as$u20$core..ops..deref..Deref$GT$5deref17hb069a48a8097dc41E
Ltmp158:
	movq	%rdx, -176(%rbp)
	movq	%rax, -184(%rbp)
	jmp	LBB50_3
LBB50_3:
Ltmp159:
	leaq	-112(%rbp), %rdi
	movq	-184(%rbp), %rsi
	movq	-176(%rbp), %rdx
	callq	__ZN5alloc3vec12Vec$LT$T$GT$17extend_from_slice17hffb412d0ad157371E
Ltmp160:
	jmp	LBB50_4
LBB50_4:
	movb	$0, -17(%rbp)
	movq	-96(%rbp), %rax
	movq	%rax, -32(%rbp)
	movq	-112(%rbp), %rax
	movq	-104(%rbp), %rcx
	movq	%rcx, -40(%rbp)
	movq	%rax, -48(%rbp)
Ltmp161:
	leaq	-48(%rbp), %rsi
	movq	-152(%rbp), %rdi
	callq	__ZN115_$LT$proc_macro..bridge..buffer..Buffer$LT$T$GT$$u20$as$u20$core..convert..From$LT$alloc..vec..Vec$LT$T$GT$$GT$$GT$4from17h4e90abb3341bc894E
Ltmp162:
	jmp	LBB50_5
LBB50_5:
	movb	$0, -17(%rbp)
	movq	-168(%rbp), %rax
	addq	$192, %rsp
	popq	%rbp
	retq
LBB50_6:
	movb	$0, -17(%rbp)
	leaq	-112(%rbp), %rdi
	callq	__ZN4core3ptr13drop_in_place17h883919a024d89158E
	jmp	LBB50_1
LBB50_7:
	testb	$1, -17(%rbp)
	jne	LBB50_6
	jmp	LBB50_1
LBB50_8:
Ltmp163:
	movq	%rax, -16(%rbp)
	movl	%edx, -8(%rbp)
	jmp	LBB50_7
Lfunc_end16:
	.cfi_endproc
	.section	__TEXT,__gcc_except_tab
	.p2align	2
GCC_except_table50:
Lexception16:
	.byte	255
	.byte	255
	.byte	1
	.uleb128 Lcst_end16-Lcst_begin16
Lcst_begin16:
	.uleb128 Lfunc_begin16-Lfunc_begin16
	.uleb128 Ltmp157-Lfunc_begin16
	.byte	0
	.byte	0
	.uleb128 Ltmp157-Lfunc_begin16
	.uleb128 Ltmp162-Ltmp157
	.uleb128 Ltmp163-Lfunc_begin16
	.byte	0
	.uleb128 Ltmp162-Lfunc_begin16
	.uleb128 Lfunc_end16-Ltmp162
	.byte	0
	.byte	0
Lcst_end16:
	.p2align	2

	.section	__TEXT,__text,regular,pure_instructions
	.p2align	4, 0x90
__ZN115_$LT$proc_macro..bridge..buffer..Buffer$LT$T$GT$$u20$as$u20$core..convert..From$LT$alloc..vec..Vec$LT$T$GT$$GT$$GT$4from17h4e90abb3341bc894E:
Lfunc_begin17:
	.cfi_startproc
	.cfi_personality 155, _rust_eh_personality
	.cfi_lsda 16, Lexception17
	pushq	%rbp
	.cfi_def_cfa_offset 16
	.cfi_offset %rbp, -16
	movq	%rsp, %rbp
	.cfi_def_cfa_register %rbp
	subq	$144, %rsp
	movq	%rdi, %rax
	movb	$0, -17(%rbp)
	movb	$1, -17(%rbp)
Ltmp164:
	movq	%rdi, -80(%rbp)
	movq	%rsi, %rdi
	movq	%rsi, -88(%rbp)
	movq	%rax, -96(%rbp)
	callq	__ZN5alloc3vec12Vec$LT$T$GT$10as_mut_ptr17h00fab35d8c097a5cE
Ltmp165:
	movq	%rax, -104(%rbp)
	jmp	LBB51_2
LBB51_1:
	movq	-16(%rbp), %rdi
	callq	__Unwind_Resume
	ud2
LBB51_2:
Ltmp166:
	movq	-88(%rbp), %rdi
	callq	__ZN5alloc3vec12Vec$LT$T$GT$3len17hc72a6a0be488a7c1E
Ltmp167:
	movq	%rax, -112(%rbp)
	jmp	LBB51_3
LBB51_3:
Ltmp168:
	movq	-88(%rbp), %rdi
	callq	__ZN5alloc3vec12Vec$LT$T$GT$8capacity17h4a104ebb9d41551fE
Ltmp169:
	movq	%rax, -120(%rbp)
	jmp	LBB51_4
LBB51_4:
	movq	-104(%rbp), %rax
	movq	%rax, -72(%rbp)
	movq	-112(%rbp), %rcx
	movq	%rcx, -64(%rbp)
	movq	-120(%rbp), %rdx
	movq	%rdx, -56(%rbp)
	movq	-72(%rbp), %rsi
	movq	-64(%rbp), %rdi
	movq	-56(%rbp), %r8
	movb	$0, -17(%rbp)
	movq	-88(%rbp), %r9
	movq	16(%r9), %r10
	movq	%r10, -32(%rbp)
	movq	(%r9), %r10
	movq	8(%r9), %r11
	movq	%r11, -40(%rbp)
	movq	%r10, -48(%rbp)
Ltmp170:
	leaq	-48(%rbp), %r10
	movq	%rdi, -128(%rbp)
	movq	%r10, %rdi
	movq	%rsi, -136(%rbp)
	movq	%r8, -144(%rbp)
	callq	__ZN4core3mem6forget17hd93aaf0a6eba3cf3E
Ltmp171:
	jmp	LBB51_5
LBB51_5:
	movq	-80(%rbp), %rax
	movq	-136(%rbp), %rcx
	movq	%rcx, (%rax)
	movq	-128(%rbp), %rdx
	movq	%rdx, 8(%rax)
	movq	-144(%rbp), %rsi
	movq	%rsi, 16(%rax)
	leaq	__ZN115_$LT$proc_macro..bridge..buffer..Buffer$LT$T$GT$$u20$as$u20$core..convert..From$LT$alloc..vec..Vec$LT$T$GT$$GT$$GT$4from17extend_from_slice17h6b6543adca6af63bE(%rip), %rdi
	movq	%rdi, 24(%rax)
	leaq	__ZN115_$LT$proc_macro..bridge..buffer..Buffer$LT$T$GT$$u20$as$u20$core..convert..From$LT$alloc..vec..Vec$LT$T$GT$$GT$$GT$4from4drop17hd1e4788613ed9ec8E(%rip), %rdi
	movq	%rdi, 32(%rax)
	movq	-96(%rbp), %rax
	addq	$144, %rsp
	popq	%rbp
	retq
LBB51_6:
	movb	$0, -17(%rbp)
	movq	-88(%rbp), %rdi
	callq	__ZN4core3ptr13drop_in_place17h883919a024d89158E
	jmp	LBB51_1
LBB51_7:
	testb	$1, -17(%rbp)
	jne	LBB51_6
	jmp	LBB51_1
LBB51_8:
Ltmp172:
	movq	%rax, -16(%rbp)
	movl	%edx, -8(%rbp)
	jmp	LBB51_7
Lfunc_end17:
	.cfi_endproc
	.section	__TEXT,__gcc_except_tab
	.p2align	2
GCC_except_table51:
Lexception17:
	.byte	255
	.byte	255
	.byte	1
	.uleb128 Lcst_end17-Lcst_begin17
Lcst_begin17:
	.uleb128 Ltmp164-Lfunc_begin17
	.uleb128 Ltmp165-Ltmp164
	.uleb128 Ltmp172-Lfunc_begin17
	.byte	0
	.uleb128 Ltmp165-Lfunc_begin17
	.uleb128 Ltmp166-Ltmp165
	.byte	0
	.byte	0
	.uleb128 Ltmp166-Lfunc_begin17
	.uleb128 Ltmp171-Ltmp166
	.uleb128 Ltmp172-Lfunc_begin17
	.byte	0
	.uleb128 Ltmp171-Lfunc_begin17
	.uleb128 Lfunc_end17-Ltmp171
	.byte	0
	.byte	0
Lcst_end17:
	.p2align	2

	.section	__TEXT,__text,regular,pure_instructions
	.p2align	4, 0x90
__ZN115_$LT$proc_macro..bridge..buffer..Buffer$LT$T$GT$$u20$as$u20$core..convert..From$LT$alloc..vec..Vec$LT$T$GT$$GT$$GT$4from4drop17hd1e4788613ed9ec8E:
	.cfi_startproc
	pushq	%rbp
	.cfi_def_cfa_offset 16
	.cfi_offset %rbp, -16
	movq	%rsp, %rbp
	.cfi_def_cfa_register %rbp
	subq	$80, %rsp
	leaq	16(%rbp), %rax
	leaq	-40(%rbp), %rcx
	movq	%rcx, %rdx
	movq	%rdx, %rdi
	movq	%rax, %rsi
	movl	$40, %edx
	movq	%rcx, -72(%rbp)
	callq	_memcpy
	leaq	-64(%rbp), %rdi
	movq	-72(%rbp), %rsi
	callq	__ZN115_$LT$proc_macro..bridge..buffer..Buffer$LT$T$GT$$u20$as$u20$core..convert..From$LT$alloc..vec..Vec$LT$T$GT$$GT$$GT$4from6to_vec17h74e2e187073efb01E
	leaq	-64(%rbp), %rdi
	callq	__ZN4core3mem4drop17he340e54df4a088d2E
	addq	$80, %rsp
	popq	%rbp
	retq
	.cfi_endproc

	.p2align	4, 0x90
__ZN115_$LT$proc_macro..bridge..buffer..Buffer$LT$T$GT$$u20$as$u20$core..convert..From$LT$alloc..vec..Vec$LT$T$GT$$GT$$GT$4from6to_vec17h74e2e187073efb01E:
	.cfi_startproc
	pushq	%rbp
	.cfi_def_cfa_offset 16
	.cfi_offset %rbp, -16
	movq	%rsp, %rbp
	.cfi_def_cfa_register %rbp
	subq	$96, %rsp
	movq	%rdi, %rax
	movq	(%rsi), %rcx
	movq	8(%rsi), %rdx
	movq	16(%rsi), %r8
	leaq	-40(%rbp), %r9
	movq	%r9, %r10
	movq	%rdi, -48(%rbp)
	movq	%r10, %rdi
	movl	$40, %r10d
	movq	%rdx, -56(%rbp)
	movq	%r10, %rdx
	movq	%rax, -64(%rbp)
	movq	%rcx, -72(%rbp)
	movq	%r8, -80(%rbp)
	movq	%r9, -88(%rbp)
	callq	_memcpy
	movq	-88(%rbp), %rdi
	callq	__ZN4core3mem6forget17hbc0d639fc53d0fedE
	movq	-48(%rbp), %rdi
	movq	-72(%rbp), %rsi
	movq	-56(%rbp), %rdx
	movq	-80(%rbp), %rcx
	callq	__ZN5alloc3vec12Vec$LT$T$GT$14from_raw_parts17h646a76b05f00c66eE
	movq	-64(%rbp), %rax
	addq	$96, %rsp
	popq	%rbp
	retq
	.cfi_endproc

	.p2align	4, 0x90
__ZN115_$LT$syn..punctuated..PrivateIter$LT$T$C$P$GT$$u20$as$u20$core..iter..traits..double_ended..DoubleEndedIterator$GT$9next_back17h3d10afc0d9f9aea6E:
	.cfi_startproc
	pushq	%rbp
	.cfi_def_cfa_offset 16
	.cfi_offset %rbp, -16
	movq	%rsp, %rbp
	.cfi_def_cfa_register %rbp
	subq	$32, %rsp
	movq	%rdi, -16(%rbp)
	movq	-16(%rbp), %rax
	addq	$16, %rax
	movq	%rax, %rdi
	callq	__ZN90_$LT$core..option..IntoIter$LT$A$GT$$u20$as$u20$core..iter..traits..iterator..Iterator$GT$4next17h6aa6c80867491cb4E
	movq	%rax, -24(%rbp)
	leaq	-16(%rbp), %rax
	movq	%rax, -8(%rbp)
	movq	-8(%rbp), %rsi
	movq	-24(%rbp), %rdi
	callq	__ZN4core6option15Option$LT$T$GT$7or_else17he5203e2d52fe1c7dE
	movq	%rax, -32(%rbp)
	movq	-32(%rbp), %rax
	addq	$32, %rsp
	popq	%rbp
	retq
	.cfi_endproc

	.p2align	4, 0x90
__ZN115_$LT$syn..punctuated..PrivateIter$LT$T$C$P$GT$$u20$as$u20$core..iter..traits..double_ended..DoubleEndedIterator$GT$9next_back28_$u7b$$u7b$closure$u7d$$u7d$17h8c34582149ecd12cE:
	.cfi_startproc
	pushq	%rbp
	.cfi_def_cfa_offset 16
	.cfi_offset %rbp, -16
	movq	%rsp, %rbp
	.cfi_def_cfa_register %rbp
	subq	$32, %rsp
	movq	(%rdi), %rax
	movq	%rax, %rdi
	callq	__ZN100_$LT$core..slice..Iter$LT$T$GT$$u20$as$u20$core..iter..traits..double_ended..DoubleEndedIterator$GT$9next_back17hfb520d7da044b832E
	movq	%rax, -16(%rbp)
	movq	-16(%rbp), %rdi
	callq	__ZN4core6option15Option$LT$T$GT$3map17h18365e59033a956aE
	movq	%rax, -24(%rbp)
	movq	-24(%rbp), %rax
	addq	$32, %rsp
	popq	%rbp
	retq
	.cfi_endproc

	.p2align	4, 0x90
__ZN115_$LT$syn..punctuated..PrivateIter$LT$T$C$P$GT$$u20$as$u20$core..iter..traits..double_ended..DoubleEndedIterator$GT$9next_back28_$u7b$$u7b$closure$u7d$$u7d$28_$u7b$$u7b$closure$u7d$$u7d$17h74d79761f64fed95E:
	.cfi_startproc
	pushq	%rbp
	.cfi_def_cfa_offset 16
	.cfi_offset %rbp, -16
	movq	%rsp, %rbp
	.cfi_def_cfa_register %rbp
	movq	%rdi, %rax
	popq	%rbp
	retq
	.cfi_endproc

	.p2align	4, 0x90
__ZN127_$LT$proc_macro..bridge..scoped_cell..ScopedCell$LT$T$GT$..replace..PutBackOnDrop$LT$T$GT$$u20$as$u20$core..ops..drop..Drop$GT$4drop17hf9f26b1947a44f54E:
	.cfi_startproc
	pushq	%rbp
	.cfi_def_cfa_offset 16
	.cfi_offset %rbp, -16
	movq	%rsp, %rbp
	.cfi_def_cfa_register %rbp
	subq	$144, %rsp
	movq	(%rdi), %rax
	addq	$8, %rdi
	leaq	-64(%rbp), %rcx
	movq	%rdi, -136(%rbp)
	movq	%rcx, %rdi
	movq	-136(%rbp), %rsi
	movq	%rax, -144(%rbp)
	callq	__ZN4core6option15Option$LT$T$GT$4take17h84b70a2dc42ed1e4E
	leaq	l___unnamed_9(%rip), %rax
	leaq	-128(%rbp), %rdi
	leaq	-64(%rbp), %rsi
	movq	%rax, %rdx
	callq	__ZN4core6option15Option$LT$T$GT$6unwrap17h4956146f373ac258E
	movq	-144(%rbp), %rdi
	leaq	-128(%rbp), %rsi
	callq	__ZN4core4cell13Cell$LT$T$GT$3set17h1a086a4ccbf16b3dE
	addq	$144, %rsp
	popq	%rbp
	retq
	.cfi_endproc

	.p2align	4, 0x90
__ZN12synstructure11MacroResult11into_stream17h3baf0d038e3c5b29E:
Lfunc_begin18:
	.cfi_startproc
	.cfi_personality 155, _rust_eh_personality
	.cfi_lsda 16, Lexception18
	pushq	%rbp
	.cfi_def_cfa_offset 16
	.cfi_offset %rbp, -16
	movq	%rsp, %rbp
	.cfi_def_cfa_register %rbp
	subq	$288, %rsp
	leaq	-208(%rbp), %rax
	movq	%rax, %rcx
	movq	%rdi, -272(%rbp)
	movq	%rcx, %rdi
	movq	-272(%rbp), %rsi
	movl	$40, %edx
	movq	%rax, -280(%rbp)
	callq	_memcpy
	leaq	-256(%rbp), %rdi
	movq	-280(%rbp), %rsi
	callq	__ZN70_$LT$proc_macro2..TokenStream$u20$as$u20$synstructure..MacroResult$GT$11into_result17ha3fe03e8384cc588E
	movq	-256(%rbp), %rax
	testq	%rax, %rax
	je	LBB58_5
	jmp	LBB58_14
LBB58_14:
	jmp	LBB58_3
LBB58_2:
	movq	-24(%rbp), %rdi
	callq	__Unwind_Resume
	ud2
LBB58_3:
	movq	-232(%rbp), %rax
	movq	%rax, -72(%rbp)
	movq	-248(%rbp), %rax
	movq	-240(%rbp), %rcx
	movq	%rcx, -80(%rbp)
	movq	%rax, -88(%rbp)
Ltmp173:
	leaq	-64(%rbp), %rdi
	leaq	-88(%rbp), %rsi
	callq	__ZN3syn5error5Error16to_compile_error17h68b96738ff3e0063E
Ltmp174:
	jmp	LBB58_7
	ud2
LBB58_5:
	movq	-216(%rbp), %rax
	movq	%rax, -136(%rbp)
	movq	-224(%rbp), %rax
	movq	%rax, -144(%rbp)
	movq	-232(%rbp), %rax
	movq	%rax, -152(%rbp)
	movq	-248(%rbp), %rax
	movq	-240(%rbp), %rcx
	movq	%rcx, -160(%rbp)
	movq	%rax, -168(%rbp)
	movq	-136(%rbp), %rax
	movq	%rax, -96(%rbp)
	movq	-144(%rbp), %rax
	movq	%rax, -104(%rbp)
	movq	-152(%rbp), %rax
	movq	%rax, -112(%rbp)
	movq	-168(%rbp), %rax
	movq	-160(%rbp), %rcx
	movq	%rcx, -120(%rbp)
	movq	%rax, -128(%rbp)
Ltmp180:
	leaq	-128(%rbp), %rdi
	callq	__ZN50_$LT$T$u20$as$u20$core..convert..Into$LT$U$GT$$GT$4into17hb6825c8f18ea3cf1E
Ltmp181:
	movl	%eax, -284(%rbp)
	jmp	LBB58_6
LBB58_6:
	movl	-284(%rbp), %eax
	movl	%eax, -4(%rbp)
	movl	-4(%rbp), %ecx
	movl	%ecx, -264(%rbp)
	jmp	LBB58_11
LBB58_7:
Ltmp175:
	leaq	-64(%rbp), %rdi
	callq	__ZN50_$LT$T$u20$as$u20$core..convert..Into$LT$U$GT$$GT$4into17hb6825c8f18ea3cf1E
Ltmp176:
	movl	%eax, -288(%rbp)
	jmp	LBB58_9
LBB58_8:
	leaq	-88(%rbp), %rdi
	callq	__ZN4core3ptr13drop_in_place17heafb0e666d2f03abE
	jmp	LBB58_2
LBB58_9:
	movl	-288(%rbp), %eax
	movl	%eax, -8(%rbp)
	movl	-8(%rbp), %ecx
	movl	%ecx, -264(%rbp)
Ltmp178:
	leaq	-88(%rbp), %rdi
	callq	__ZN4core3ptr13drop_in_place17heafb0e666d2f03abE
Ltmp179:
	jmp	LBB58_10
LBB58_10:
	jmp	LBB58_11
LBB58_11:
	movl	-264(%rbp), %eax
	addq	$288, %rsp
	popq	%rbp
	retq
LBB58_12:
Ltmp177:
	movq	%rax, -24(%rbp)
	movl	%edx, -16(%rbp)
	jmp	LBB58_8
LBB58_13:
Ltmp182:
	movq	%rax, -24(%rbp)
	movl	%edx, -16(%rbp)
	jmp	LBB58_2
Lfunc_end18:
	.cfi_endproc
	.section	__TEXT,__gcc_except_tab
	.p2align	2
GCC_except_table58:
Lexception18:
	.byte	255
	.byte	255
	.byte	1
	.uleb128 Lcst_end18-Lcst_begin18
Lcst_begin18:
	.uleb128 Lfunc_begin18-Lfunc_begin18
	.uleb128 Ltmp173-Lfunc_begin18
	.byte	0
	.byte	0
	.uleb128 Ltmp173-Lfunc_begin18
	.uleb128 Ltmp174-Ltmp173
	.uleb128 Ltmp177-Lfunc_begin18
	.byte	0
	.uleb128 Ltmp180-Lfunc_begin18
	.uleb128 Ltmp181-Ltmp180
	.uleb128 Ltmp182-Lfunc_begin18
	.byte	0
	.uleb128 Ltmp175-Lfunc_begin18
	.uleb128 Ltmp176-Ltmp175
	.uleb128 Ltmp177-Lfunc_begin18
	.byte	0
	.uleb128 Ltmp176-Lfunc_begin18
	.uleb128 Ltmp178-Ltmp176
	.byte	0
	.byte	0
	.uleb128 Ltmp178-Lfunc_begin18
	.uleb128 Ltmp179-Ltmp178
	.uleb128 Ltmp182-Lfunc_begin18
	.byte	0
Lcst_end18:
	.p2align	2

	.section	__TEXT,__text,regular,pure_instructions
	.p2align	4, 0x90
__ZN12synstructure9Structure12each_variant17ha03e9d8f8b4f7736E:
Lfunc_begin19:
	.cfi_startproc
	.cfi_personality 155, _rust_eh_personality
	.cfi_lsda 16, Lexception19
	pushq	%rbp
	.cfi_def_cfa_offset 16
	.cfi_offset %rbp, -16
	movq	%rsp, %rbp
	.cfi_def_cfa_register %rbp
	subq	$480, %rsp
	movq	%rdi, %rax
Ltmp183:
	movq	%rdi, -424(%rbp)
	movq	%rsi, -432(%rbp)
	movq	%rax, -440(%rbp)
	callq	__ZN11proc_macro211TokenStream3new17hd812f3610469681cE
Ltmp184:
	jmp	LBB59_2
LBB59_1:
	movq	-16(%rbp), %rdi
	callq	__Unwind_Resume
	ud2
LBB59_2:
Ltmp186:
	movq	-432(%rbp), %rdi
	callq	__ZN90_$LT$$RF$alloc..vec..Vec$LT$T$GT$$u20$as$u20$core..iter..traits..collect..IntoIterator$GT$9into_iter17h09dc2803bd3f78f7E
Ltmp187:
	movq	%rdx, -448(%rbp)
	movq	%rax, -456(%rbp)
	jmp	LBB59_4
LBB59_3:
	jmp	LBB59_1
LBB59_4:
	movq	-456(%rbp), %rax
	movq	%rax, -408(%rbp)
	movq	-448(%rbp), %rax
	movq	%rax, -400(%rbp)
	jmp	LBB59_6
LBB59_5:
	movq	-424(%rbp), %rdi
	callq	__ZN4core3ptr13drop_in_place17h32302694d018b805E
	jmp	LBB59_3
LBB59_6:
Ltmp188:
	leaq	-408(%rbp), %rdi
	callq	__ZN85_$LT$core..slice..Iter$LT$T$GT$$u20$as$u20$core..iter..traits..iterator..Iterator$GT$4next17hb1be7f3bbd0d378cE
Ltmp189:
	movq	%rax, -464(%rbp)
	jmp	LBB59_7
LBB59_7:
	movq	-464(%rbp), %rax
	movq	%rax, -392(%rbp)
	movq	-392(%rbp), %rcx
	testq	%rcx, %rcx
	setne	%dl
	movzbl	%dl, %esi
	movl	%esi, %ecx
	je	LBB59_8
	jmp	LBB59_50
LBB59_50:
	jmp	LBB59_10
LBB59_8:
	movq	-432(%rbp), %rax
	testb	$1, 80(%rax)
	jne	LBB59_29
	jmp	LBB59_28
	ud2
LBB59_10:
	movq	-392(%rbp), %rax
Ltmp190:
	leaq	-384(%rbp), %rdi
	movq	%rax, %rsi
	movq	%rax, -472(%rbp)
	callq	__ZN12synstructure11VariantInfo3pat17hb2c3be039523d7b8E
Ltmp191:
	jmp	LBB59_11
LBB59_11:
	movq	-472(%rbp), %rax
	movq	%rax, -304(%rbp)
	movq	-304(%rbp), %rdx
Ltmp192:
	leaq	-344(%rbp), %rdi
	leaq	-416(%rbp), %rsi
	callq	__ZN14failure_derive16fail_derive_impl28_$u7b$$u7b$closure$u7d$$u7d$17h11d0aab46d1f80b5E
Ltmp193:
	jmp	LBB59_12
LBB59_12:
Ltmp194:
	leaq	-256(%rbp), %rdi
	callq	__ZN11proc_macro211TokenStream3new17hd812f3610469681cE
Ltmp195:
	jmp	LBB59_14
LBB59_13:
	leaq	-384(%rbp), %rdi
	callq	__ZN4core3ptr13drop_in_place17h32302694d018b805E
	jmp	LBB59_5
LBB59_14:
Ltmp196:
	leaq	-384(%rbp), %rdi
	leaq	-256(%rbp), %rsi
	callq	__ZN71_$LT$proc_macro2..TokenStream$u20$as$u20$quote..to_tokens..ToTokens$GT$9to_tokens17h069826c10e8c369eE
Ltmp197:
	jmp	LBB59_16
LBB59_15:
	leaq	-344(%rbp), %rdi
	callq	__ZN4core3ptr13drop_in_place17h32302694d018b805E
	jmp	LBB59_13
LBB59_16:
Ltmp198:
	leaq	-256(%rbp), %rdi
	callq	__ZN5quote9__private14push_fat_arrow17h014fd3ad5127fa5eE
Ltmp199:
	jmp	LBB59_18
LBB59_17:
	leaq	-256(%rbp), %rdi
	callq	__ZN4core3ptr13drop_in_place17h32302694d018b805E
	jmp	LBB59_15
LBB59_18:
Ltmp200:
	leaq	-176(%rbp), %rdi
	callq	__ZN11proc_macro211TokenStream3new17hd812f3610469681cE
Ltmp201:
	jmp	LBB59_19
LBB59_19:
Ltmp202:
	leaq	-344(%rbp), %rdi
	leaq	-176(%rbp), %rsi
	callq	__ZN71_$LT$proc_macro2..TokenStream$u20$as$u20$quote..to_tokens..ToTokens$GT$9to_tokens17h069826c10e8c369eE
Ltmp203:
	jmp	LBB59_20
LBB59_20:
	movq	-144(%rbp), %rax
	movq	%rax, -184(%rbp)
	movq	-152(%rbp), %rax
	movq	%rax, -192(%rbp)
	movq	-160(%rbp), %rax
	movq	%rax, -200(%rbp)
	movq	-176(%rbp), %rax
	movq	-168(%rbp), %rcx
	movq	%rcx, -208(%rbp)
	movq	%rax, -216(%rbp)
Ltmp205:
	leaq	-256(%rbp), %rdi
	movl	$1, %esi
	leaq	-216(%rbp), %rdx
	callq	__ZN5quote9__private10push_group17h6f8627566e4da238E
Ltmp206:
	jmp	LBB59_22
LBB59_21:
	leaq	-176(%rbp), %rdi
	callq	__ZN4core3ptr13drop_in_place17h32302694d018b805E
	jmp	LBB59_17
LBB59_22:
	movq	-224(%rbp), %rax
	movq	%rax, -264(%rbp)
	movq	-232(%rbp), %rax
	movq	%rax, -272(%rbp)
	movq	-240(%rbp), %rax
	movq	%rax, -280(%rbp)
	movq	-256(%rbp), %rax
	movq	-248(%rbp), %rcx
	movq	%rcx, -288(%rbp)
	movq	%rax, -296(%rbp)
Ltmp208:
	leaq	-296(%rbp), %rdi
	movq	-424(%rbp), %rsi
	callq	__ZN71_$LT$proc_macro2..TokenStream$u20$as$u20$quote..to_tokens..ToTokens$GT$9to_tokens17h069826c10e8c369eE
Ltmp209:
	jmp	LBB59_23
LBB59_23:
Ltmp211:
	leaq	-296(%rbp), %rdi
	callq	__ZN4core3ptr13drop_in_place17h32302694d018b805E
Ltmp212:
	jmp	LBB59_25
LBB59_24:
	leaq	-296(%rbp), %rdi
	callq	__ZN4core3ptr13drop_in_place17h32302694d018b805E
	jmp	LBB59_15
LBB59_25:
Ltmp214:
	leaq	-344(%rbp), %rdi
	callq	__ZN4core3ptr13drop_in_place17h32302694d018b805E
Ltmp215:
	jmp	LBB59_26
LBB59_26:
Ltmp217:
	leaq	-384(%rbp), %rdi
	callq	__ZN4core3ptr13drop_in_place17h32302694d018b805E
Ltmp218:
	jmp	LBB59_27
LBB59_27:
	jmp	LBB59_6
LBB59_28:
	jmp	LBB59_39
LBB59_29:
Ltmp219:
	leaq	-96(%rbp), %rdi
	callq	__ZN11proc_macro211TokenStream3new17hd812f3610469681cE
Ltmp220:
	jmp	LBB59_30
LBB59_30:
Ltmp221:
	leaq	l___unnamed_10(%rip), %rsi
	leaq	-96(%rbp), %rdi
	movl	$1, %edx
	callq	__ZN5quote9__private5parse17h64957dccf6ccbae4E
Ltmp222:
	jmp	LBB59_31
LBB59_31:
Ltmp223:
	leaq	-96(%rbp), %rdi
	callq	__ZN5quote9__private14push_fat_arrow17h014fd3ad5127fa5eE
Ltmp224:
	jmp	LBB59_33
LBB59_32:
	leaq	-96(%rbp), %rdi
	callq	__ZN4core3ptr13drop_in_place17h32302694d018b805E
	jmp	LBB59_5
LBB59_33:
Ltmp225:
	leaq	-56(%rbp), %rdi
	callq	__ZN11proc_macro211TokenStream3new17hd812f3610469681cE
Ltmp226:
	jmp	LBB59_34
LBB59_34:
Ltmp227:
	leaq	-96(%rbp), %rdi
	movl	$1, %esi
	leaq	-56(%rbp), %rdx
	callq	__ZN5quote9__private10push_group17h6f8627566e4da238E
Ltmp228:
	jmp	LBB59_35
LBB59_35:
	movq	-64(%rbp), %rax
	movq	%rax, -104(%rbp)
	movq	-72(%rbp), %rax
	movq	%rax, -112(%rbp)
	movq	-80(%rbp), %rax
	movq	%rax, -120(%rbp)
	movq	-96(%rbp), %rax
	movq	-88(%rbp), %rcx
	movq	%rcx, -128(%rbp)
	movq	%rax, -136(%rbp)
Ltmp230:
	leaq	-136(%rbp), %rdi
	movq	-424(%rbp), %rsi
	callq	__ZN71_$LT$proc_macro2..TokenStream$u20$as$u20$quote..to_tokens..ToTokens$GT$9to_tokens17h069826c10e8c369eE
Ltmp231:
	jmp	LBB59_36
LBB59_36:
Ltmp233:
	leaq	-136(%rbp), %rdi
	callq	__ZN4core3ptr13drop_in_place17h32302694d018b805E
Ltmp234:
	jmp	LBB59_38
LBB59_37:
	leaq	-136(%rbp), %rdi
	callq	__ZN4core3ptr13drop_in_place17h32302694d018b805E
	jmp	LBB59_5
LBB59_38:
	jmp	LBB59_39
LBB59_39:
	jmp	LBB59_40
LBB59_40:
	movq	-440(%rbp), %rax
	addq	$480, %rsp
	popq	%rbp
	retq
LBB59_41:
Ltmp185:
	movq	%rax, -16(%rbp)
	movl	%edx, -8(%rbp)
	jmp	LBB59_3
LBB59_42:
Ltmp235:
	movq	%rax, -16(%rbp)
	movl	%edx, -8(%rbp)
	jmp	LBB59_5
LBB59_43:
Ltmp216:
	movq	%rax, -16(%rbp)
	movl	%edx, -8(%rbp)
	jmp	LBB59_13
LBB59_44:
Ltmp213:
	movq	%rax, -16(%rbp)
	movl	%edx, -8(%rbp)
	jmp	LBB59_15
LBB59_45:
Ltmp207:
	movq	%rax, -16(%rbp)
	movl	%edx, -8(%rbp)
	jmp	LBB59_17
LBB59_46:
Ltmp204:
	movq	%rax, -16(%rbp)
	movl	%edx, -8(%rbp)
	jmp	LBB59_21
LBB59_47:
Ltmp210:
	movq	%rax, -16(%rbp)
	movl	%edx, -8(%rbp)
	jmp	LBB59_24
LBB59_48:
Ltmp229:
	movq	%rax, -16(%rbp)
	movl	%edx, -8(%rbp)
	jmp	LBB59_32
LBB59_49:
Ltmp232:
	movq	%rax, -16(%rbp)
	movl	%edx, -8(%rbp)
	jmp	LBB59_37
Lfunc_end19:
	.cfi_endproc
	.section	__TEXT,__gcc_except_tab
	.p2align	2
GCC_except_table59:
Lexception19:
	.byte	255
	.byte	255
	.byte	1
	.uleb128 Lcst_end19-Lcst_begin19
Lcst_begin19:
	.uleb128 Ltmp183-Lfunc_begin19
	.uleb128 Ltmp184-Ltmp183
	.uleb128 Ltmp185-Lfunc_begin19
	.byte	0
	.uleb128 Ltmp184-Lfunc_begin19
	.uleb128 Ltmp186-Ltmp184
	.byte	0
	.byte	0
	.uleb128 Ltmp186-Lfunc_begin19
	.uleb128 Ltmp187-Ltmp186
	.uleb128 Ltmp235-Lfunc_begin19
	.byte	0
	.uleb128 Ltmp187-Lfunc_begin19
	.uleb128 Ltmp188-Ltmp187
	.byte	0
	.byte	0
	.uleb128 Ltmp188-Lfunc_begin19
	.uleb128 Ltmp191-Ltmp188
	.uleb128 Ltmp235-Lfunc_begin19
	.byte	0
	.uleb128 Ltmp192-Lfunc_begin19
	.uleb128 Ltmp193-Ltmp192
	.uleb128 Ltmp216-Lfunc_begin19
	.byte	0
	.uleb128 Ltmp194-Lfunc_begin19
	.uleb128 Ltmp195-Ltmp194
	.uleb128 Ltmp213-Lfunc_begin19
	.byte	0
	.uleb128 Ltmp195-Lfunc_begin19
	.uleb128 Ltmp196-Ltmp195
	.byte	0
	.byte	0
	.uleb128 Ltmp196-Lfunc_begin19
	.uleb128 Ltmp197-Ltmp196
	.uleb128 Ltmp207-Lfunc_begin19
	.byte	0
	.uleb128 Ltmp197-Lfunc_begin19
	.uleb128 Ltmp198-Ltmp197
	.byte	0
	.byte	0
	.uleb128 Ltmp198-Lfunc_begin19
	.uleb128 Ltmp199-Ltmp198
	.uleb128 Ltmp207-Lfunc_begin19
	.byte	0
	.uleb128 Ltmp199-Lfunc_begin19
	.uleb128 Ltmp200-Ltmp199
	.byte	0
	.byte	0
	.uleb128 Ltmp200-Lfunc_begin19
	.uleb128 Ltmp201-Ltmp200
	.uleb128 Ltmp207-Lfunc_begin19
	.byte	0
	.uleb128 Ltmp202-Lfunc_begin19
	.uleb128 Ltmp203-Ltmp202
	.uleb128 Ltmp204-Lfunc_begin19
	.byte	0
	.uleb128 Ltmp205-Lfunc_begin19
	.uleb128 Ltmp206-Ltmp205
	.uleb128 Ltmp207-Lfunc_begin19
	.byte	0
	.uleb128 Ltmp206-Lfunc_begin19
	.uleb128 Ltmp208-Ltmp206
	.byte	0
	.byte	0
	.uleb128 Ltmp208-Lfunc_begin19
	.uleb128 Ltmp209-Ltmp208
	.uleb128 Ltmp210-Lfunc_begin19
	.byte	0
	.uleb128 Ltmp211-Lfunc_begin19
	.uleb128 Ltmp212-Ltmp211
	.uleb128 Ltmp213-Lfunc_begin19
	.byte	0
	.uleb128 Ltmp212-Lfunc_begin19
	.uleb128 Ltmp214-Ltmp212
	.byte	0
	.byte	0
	.uleb128 Ltmp214-Lfunc_begin19
	.uleb128 Ltmp215-Ltmp214
	.uleb128 Ltmp216-Lfunc_begin19
	.byte	0
	.uleb128 Ltmp217-Lfunc_begin19
	.uleb128 Ltmp220-Ltmp217
	.uleb128 Ltmp235-Lfunc_begin19
	.byte	0
	.uleb128 Ltmp221-Lfunc_begin19
	.uleb128 Ltmp224-Ltmp221
	.uleb128 Ltmp229-Lfunc_begin19
	.byte	0
	.uleb128 Ltmp224-Lfunc_begin19
	.uleb128 Ltmp225-Ltmp224
	.byte	0
	.byte	0
	.uleb128 Ltmp225-Lfunc_begin19
	.uleb128 Ltmp228-Ltmp225
	.uleb128 Ltmp229-Lfunc_begin19
	.byte	0
	.uleb128 Ltmp230-Lfunc_begin19
	.uleb128 Ltmp231-Ltmp230
	.uleb128 Ltmp232-Lfunc_begin19
	.byte	0
	.uleb128 Ltmp233-Lfunc_begin19
	.uleb128 Ltmp234-Ltmp233
	.uleb128 Ltmp235-Lfunc_begin19
	.byte	0
	.uleb128 Ltmp234-Lfunc_begin19
	.uleb128 Lfunc_end19-Ltmp234
	.byte	0
	.byte	0
Lcst_end19:
	.p2align	2

	.section	__TEXT,__text,regular,pure_instructions
	.p2align	4, 0x90
__ZN12synstructure9Structure12each_variant17hf631b86515f34c9dE:
Lfunc_begin20:
	.cfi_startproc
	.cfi_personality 155, _rust_eh_personality
	.cfi_lsda 16, Lexception20
	pushq	%rbp
	.cfi_def_cfa_offset 16
	.cfi_offset %rbp, -16
	movq	%rsp, %rbp
	.cfi_def_cfa_register %rbp
	subq	$480, %rsp
	movq	%rdi, %rax
Ltmp236:
	movq	%rdi, -424(%rbp)
	movq	%rsi, -432(%rbp)
	movq	%rax, -440(%rbp)
	callq	__ZN11proc_macro211TokenStream3new17hd812f3610469681cE
Ltmp237:
	jmp	LBB60_2
LBB60_1:
	movq	-16(%rbp), %rdi
	callq	__Unwind_Resume
	ud2
LBB60_2:
Ltmp239:
	movq	-432(%rbp), %rdi
	callq	__ZN90_$LT$$RF$alloc..vec..Vec$LT$T$GT$$u20$as$u20$core..iter..traits..collect..IntoIterator$GT$9into_iter17h09dc2803bd3f78f7E
Ltmp240:
	movq	%rdx, -448(%rbp)
	movq	%rax, -456(%rbp)
	jmp	LBB60_4
LBB60_3:
	jmp	LBB60_1
LBB60_4:
	movq	-456(%rbp), %rax
	movq	%rax, -408(%rbp)
	movq	-448(%rbp), %rax
	movq	%rax, -400(%rbp)
	jmp	LBB60_6
LBB60_5:
	movq	-424(%rbp), %rdi
	callq	__ZN4core3ptr13drop_in_place17h32302694d018b805E
	jmp	LBB60_3
LBB60_6:
Ltmp241:
	leaq	-408(%rbp), %rdi
	callq	__ZN85_$LT$core..slice..Iter$LT$T$GT$$u20$as$u20$core..iter..traits..iterator..Iterator$GT$4next17hb1be7f3bbd0d378cE
Ltmp242:
	movq	%rax, -464(%rbp)
	jmp	LBB60_7
LBB60_7:
	movq	-464(%rbp), %rax
	movq	%rax, -392(%rbp)
	movq	-392(%rbp), %rcx
	testq	%rcx, %rcx
	setne	%dl
	movzbl	%dl, %esi
	movl	%esi, %ecx
	je	LBB60_8
	jmp	LBB60_50
LBB60_50:
	jmp	LBB60_10
LBB60_8:
	movq	-432(%rbp), %rax
	testb	$1, 80(%rax)
	jne	LBB60_29
	jmp	LBB60_28
	ud2
LBB60_10:
	movq	-392(%rbp), %rax
Ltmp243:
	leaq	-384(%rbp), %rdi
	movq	%rax, %rsi
	movq	%rax, -472(%rbp)
	callq	__ZN12synstructure11VariantInfo3pat17hb2c3be039523d7b8E
Ltmp244:
	jmp	LBB60_11
LBB60_11:
	movq	-472(%rbp), %rax
	movq	%rax, -304(%rbp)
	movq	-304(%rbp), %rdx
Ltmp245:
	leaq	-344(%rbp), %rdi
	leaq	-416(%rbp), %rsi
	callq	__ZN14failure_derive16fail_derive_impl28_$u7b$$u7b$closure$u7d$$u7d$17hf43455983ca3f4d3E
Ltmp246:
	jmp	LBB60_12
LBB60_12:
Ltmp247:
	leaq	-256(%rbp), %rdi
	callq	__ZN11proc_macro211TokenStream3new17hd812f3610469681cE
Ltmp248:
	jmp	LBB60_14
LBB60_13:
	leaq	-384(%rbp), %rdi
	callq	__ZN4core3ptr13drop_in_place17h32302694d018b805E
	jmp	LBB60_5
LBB60_14:
Ltmp249:
	leaq	-384(%rbp), %rdi
	leaq	-256(%rbp), %rsi
	callq	__ZN71_$LT$proc_macro2..TokenStream$u20$as$u20$quote..to_tokens..ToTokens$GT$9to_tokens17h069826c10e8c369eE
Ltmp250:
	jmp	LBB60_16
LBB60_15:
	leaq	-344(%rbp), %rdi
	callq	__ZN4core3ptr13drop_in_place17h32302694d018b805E
	jmp	LBB60_13
LBB60_16:
Ltmp251:
	leaq	-256(%rbp), %rdi
	callq	__ZN5quote9__private14push_fat_arrow17h014fd3ad5127fa5eE
Ltmp252:
	jmp	LBB60_18
LBB60_17:
	leaq	-256(%rbp), %rdi
	callq	__ZN4core3ptr13drop_in_place17h32302694d018b805E
	jmp	LBB60_15
LBB60_18:
Ltmp253:
	leaq	-176(%rbp), %rdi
	callq	__ZN11proc_macro211TokenStream3new17hd812f3610469681cE
Ltmp254:
	jmp	LBB60_19
LBB60_19:
Ltmp255:
	leaq	-344(%rbp), %rdi
	leaq	-176(%rbp), %rsi
	callq	__ZN71_$LT$proc_macro2..TokenStream$u20$as$u20$quote..to_tokens..ToTokens$GT$9to_tokens17h069826c10e8c369eE
Ltmp256:
	jmp	LBB60_20
LBB60_20:
	movq	-144(%rbp), %rax
	movq	%rax, -184(%rbp)
	movq	-152(%rbp), %rax
	movq	%rax, -192(%rbp)
	movq	-160(%rbp), %rax
	movq	%rax, -200(%rbp)
	movq	-176(%rbp), %rax
	movq	-168(%rbp), %rcx
	movq	%rcx, -208(%rbp)
	movq	%rax, -216(%rbp)
Ltmp258:
	leaq	-256(%rbp), %rdi
	movl	$1, %esi
	leaq	-216(%rbp), %rdx
	callq	__ZN5quote9__private10push_group17h6f8627566e4da238E
Ltmp259:
	jmp	LBB60_22
LBB60_21:
	leaq	-176(%rbp), %rdi
	callq	__ZN4core3ptr13drop_in_place17h32302694d018b805E
	jmp	LBB60_17
LBB60_22:
	movq	-224(%rbp), %rax
	movq	%rax, -264(%rbp)
	movq	-232(%rbp), %rax
	movq	%rax, -272(%rbp)
	movq	-240(%rbp), %rax
	movq	%rax, -280(%rbp)
	movq	-256(%rbp), %rax
	movq	-248(%rbp), %rcx
	movq	%rcx, -288(%rbp)
	movq	%rax, -296(%rbp)
Ltmp261:
	leaq	-296(%rbp), %rdi
	movq	-424(%rbp), %rsi
	callq	__ZN71_$LT$proc_macro2..TokenStream$u20$as$u20$quote..to_tokens..ToTokens$GT$9to_tokens17h069826c10e8c369eE
Ltmp262:
	jmp	LBB60_23
LBB60_23:
Ltmp264:
	leaq	-296(%rbp), %rdi
	callq	__ZN4core3ptr13drop_in_place17h32302694d018b805E
Ltmp265:
	jmp	LBB60_25
LBB60_24:
	leaq	-296(%rbp), %rdi
	callq	__ZN4core3ptr13drop_in_place17h32302694d018b805E
	jmp	LBB60_15
LBB60_25:
Ltmp267:
	leaq	-344(%rbp), %rdi
	callq	__ZN4core3ptr13drop_in_place17h32302694d018b805E
Ltmp268:
	jmp	LBB60_26
LBB60_26:
Ltmp270:
	leaq	-384(%rbp), %rdi
	callq	__ZN4core3ptr13drop_in_place17h32302694d018b805E
Ltmp271:
	jmp	LBB60_27
LBB60_27:
	jmp	LBB60_6
LBB60_28:
	jmp	LBB60_39
LBB60_29:
Ltmp272:
	leaq	-96(%rbp), %rdi
	callq	__ZN11proc_macro211TokenStream3new17hd812f3610469681cE
Ltmp273:
	jmp	LBB60_30
LBB60_30:
Ltmp274:
	leaq	l___unnamed_10(%rip), %rsi
	leaq	-96(%rbp), %rdi
	movl	$1, %edx
	callq	__ZN5quote9__private5parse17h64957dccf6ccbae4E
Ltmp275:
	jmp	LBB60_31
LBB60_31:
Ltmp276:
	leaq	-96(%rbp), %rdi
	callq	__ZN5quote9__private14push_fat_arrow17h014fd3ad5127fa5eE
Ltmp277:
	jmp	LBB60_33
LBB60_32:
	leaq	-96(%rbp), %rdi
	callq	__ZN4core3ptr13drop_in_place17h32302694d018b805E
	jmp	LBB60_5
LBB60_33:
Ltmp278:
	leaq	-56(%rbp), %rdi
	callq	__ZN11proc_macro211TokenStream3new17hd812f3610469681cE
Ltmp279:
	jmp	LBB60_34
LBB60_34:
Ltmp280:
	leaq	-96(%rbp), %rdi
	movl	$1, %esi
	leaq	-56(%rbp), %rdx
	callq	__ZN5quote9__private10push_group17h6f8627566e4da238E
Ltmp281:
	jmp	LBB60_35
LBB60_35:
	movq	-64(%rbp), %rax
	movq	%rax, -104(%rbp)
	movq	-72(%rbp), %rax
	movq	%rax, -112(%rbp)
	movq	-80(%rbp), %rax
	movq	%rax, -120(%rbp)
	movq	-96(%rbp), %rax
	movq	-88(%rbp), %rcx
	movq	%rcx, -128(%rbp)
	movq	%rax, -136(%rbp)
Ltmp283:
	leaq	-136(%rbp), %rdi
	movq	-424(%rbp), %rsi
	callq	__ZN71_$LT$proc_macro2..TokenStream$u20$as$u20$quote..to_tokens..ToTokens$GT$9to_tokens17h069826c10e8c369eE
Ltmp284:
	jmp	LBB60_36
LBB60_36:
Ltmp286:
	leaq	-136(%rbp), %rdi
	callq	__ZN4core3ptr13drop_in_place17h32302694d018b805E
Ltmp287:
	jmp	LBB60_38
LBB60_37:
	leaq	-136(%rbp), %rdi
	callq	__ZN4core3ptr13drop_in_place17h32302694d018b805E
	jmp	LBB60_5
LBB60_38:
	jmp	LBB60_39
LBB60_39:
	jmp	LBB60_40
LBB60_40:
	movq	-440(%rbp), %rax
	addq	$480, %rsp
	popq	%rbp
	retq
LBB60_41:
Ltmp238:
	movq	%rax, -16(%rbp)
	movl	%edx, -8(%rbp)
	jmp	LBB60_3
LBB60_42:
Ltmp288:
	movq	%rax, -16(%rbp)
	movl	%edx, -8(%rbp)
	jmp	LBB60_5
LBB60_43:
Ltmp269:
	movq	%rax, -16(%rbp)
	movl	%edx, -8(%rbp)
	jmp	LBB60_13
LBB60_44:
Ltmp266:
	movq	%rax, -16(%rbp)
	movl	%edx, -8(%rbp)
	jmp	LBB60_15
LBB60_45:
Ltmp260:
	movq	%rax, -16(%rbp)
	movl	%edx, -8(%rbp)
	jmp	LBB60_17
LBB60_46:
Ltmp257:
	movq	%rax, -16(%rbp)
	movl	%edx, -8(%rbp)
	jmp	LBB60_21
LBB60_47:
Ltmp263:
	movq	%rax, -16(%rbp)
	movl	%edx, -8(%rbp)
	jmp	LBB60_24
LBB60_48:
Ltmp282:
	movq	%rax, -16(%rbp)
	movl	%edx, -8(%rbp)
	jmp	LBB60_32
LBB60_49:
Ltmp285:
	movq	%rax, -16(%rbp)
	movl	%edx, -8(%rbp)
	jmp	LBB60_37
Lfunc_end20:
	.cfi_endproc
	.section	__TEXT,__gcc_except_tab
	.p2align	2
GCC_except_table60:
Lexception20:
	.byte	255
	.byte	255
	.byte	1
	.uleb128 Lcst_end20-Lcst_begin20
Lcst_begin20:
	.uleb128 Ltmp236-Lfunc_begin20
	.uleb128 Ltmp237-Ltmp236
	.uleb128 Ltmp238-Lfunc_begin20
	.byte	0
	.uleb128 Ltmp237-Lfunc_begin20
	.uleb128 Ltmp239-Ltmp237
	.byte	0
	.byte	0
	.uleb128 Ltmp239-Lfunc_begin20
	.uleb128 Ltmp240-Ltmp239
	.uleb128 Ltmp288-Lfunc_begin20
	.byte	0
	.uleb128 Ltmp240-Lfunc_begin20
	.uleb128 Ltmp241-Ltmp240
	.byte	0
	.byte	0
	.uleb128 Ltmp241-Lfunc_begin20
	.uleb128 Ltmp244-Ltmp241
	.uleb128 Ltmp288-Lfunc_begin20
	.byte	0
	.uleb128 Ltmp245-Lfunc_begin20
	.uleb128 Ltmp246-Ltmp245
	.uleb128 Ltmp269-Lfunc_begin20
	.byte	0
	.uleb128 Ltmp247-Lfunc_begin20
	.uleb128 Ltmp248-Ltmp247
	.uleb128 Ltmp266-Lfunc_begin20
	.byte	0
	.uleb128 Ltmp248-Lfunc_begin20
	.uleb128 Ltmp249-Ltmp248
	.byte	0
	.byte	0
	.uleb128 Ltmp249-Lfunc_begin20
	.uleb128 Ltmp250-Ltmp249
	.uleb128 Ltmp260-Lfunc_begin20
	.byte	0
	.uleb128 Ltmp250-Lfunc_begin20
	.uleb128 Ltmp251-Ltmp250
	.byte	0
	.byte	0
	.uleb128 Ltmp251-Lfunc_begin20
	.uleb128 Ltmp252-Ltmp251
	.uleb128 Ltmp260-Lfunc_begin20
	.byte	0
	.uleb128 Ltmp252-Lfunc_begin20
	.uleb128 Ltmp253-Ltmp252
	.byte	0
	.byte	0
	.uleb128 Ltmp253-Lfunc_begin20
	.uleb128 Ltmp254-Ltmp253
	.uleb128 Ltmp260-Lfunc_begin20
	.byte	0
	.uleb128 Ltmp255-Lfunc_begin20
	.uleb128 Ltmp256-Ltmp255
	.uleb128 Ltmp257-Lfunc_begin20
	.byte	0
	.uleb128 Ltmp258-Lfunc_begin20
	.uleb128 Ltmp259-Ltmp258
	.uleb128 Ltmp260-Lfunc_begin20
	.byte	0
	.uleb128 Ltmp259-Lfunc_begin20
	.uleb128 Ltmp261-Ltmp259
	.byte	0
	.byte	0
	.uleb128 Ltmp261-Lfunc_begin20
	.uleb128 Ltmp262-Ltmp261
	.uleb128 Ltmp263-Lfunc_begin20
	.byte	0
	.uleb128 Ltmp264-Lfunc_begin20
	.uleb128 Ltmp265-Ltmp264
	.uleb128 Ltmp266-Lfunc_begin20
	.byte	0
	.uleb128 Ltmp265-Lfunc_begin20
	.uleb128 Ltmp267-Ltmp265
	.byte	0
	.byte	0
	.uleb128 Ltmp267-Lfunc_begin20
	.uleb128 Ltmp268-Ltmp267
	.uleb128 Ltmp269-Lfunc_begin20
	.byte	0
	.uleb128 Ltmp270-Lfunc_begin20
	.uleb128 Ltmp273-Ltmp270
	.uleb128 Ltmp288-Lfunc_begin20
	.byte	0
	.uleb128 Ltmp274-Lfunc_begin20
	.uleb128 Ltmp277-Ltmp274
	.uleb128 Ltmp282-Lfunc_begin20
	.byte	0
	.uleb128 Ltmp277-Lfunc_begin20
	.uleb128 Ltmp278-Ltmp277
	.byte	0
	.byte	0
	.uleb128 Ltmp278-Lfunc_begin20
	.uleb128 Ltmp281-Ltmp278
	.uleb128 Ltmp282-Lfunc_begin20
	.byte	0
	.uleb128 Ltmp283-Lfunc_begin20
	.uleb128 Ltmp284-Ltmp283
	.uleb128 Ltmp285-Lfunc_begin20
	.byte	0
	.uleb128 Ltmp286-Lfunc_begin20
	.uleb128 Ltmp287-Ltmp286
	.uleb128 Ltmp288-Lfunc_begin20
	.byte	0
	.uleb128 Ltmp287-Lfunc_begin20
	.uleb128 Lfunc_end20-Ltmp287
	.byte	0
	.byte	0
Lcst_end20:
	.p2align	2

	.section	__TEXT,__text,regular,pure_instructions
	.p2align	4, 0x90
__ZN12synstructure9Structure12unbound_impl17h83c256ab5bb7b724E:
Lfunc_begin21:
	.cfi_startproc
	.cfi_personality 155, _rust_eh_personality
	.cfi_lsda 16, Lexception21
	pushq	%rbp
	.cfi_def_cfa_offset 16
	.cfi_offset %rbp, -16
	movq	%rsp, %rbp
	.cfi_def_cfa_register %rbp
	subq	$256, %rsp
	movq	%rdi, %rax
	movb	$0, -17(%rbp)
	movb	$0, -18(%rbp)
	movb	$0, -19(%rbp)
	movb	$1, -19(%rbp)
	movq	32(%rdx), %r8
	movq	%r8, -152(%rbp)
	movq	24(%rdx), %r8
	movq	%r8, -160(%rbp)
	movq	16(%rdx), %r8
	movq	%r8, -168(%rbp)
	movq	(%rdx), %r8
	movq	8(%rdx), %rdx
	movq	%rdx, -176(%rbp)
	movq	%r8, -184(%rbp)
Ltmp289:
	leaq	-224(%rbp), %rdx
	leaq	-184(%rbp), %r8
	movq	%rdi, -232(%rbp)
	movq	%rdx, %rdi
	movq	%rsi, -240(%rbp)
	movq	%r8, %rsi
	movq	%rcx, -248(%rbp)
	movq	%rax, -256(%rbp)
	callq	__ZN71_$LT$proc_macro2..TokenStream$u20$as$u20$quote..to_tokens..ToTokens$GT$17into_token_stream17h152fd7aeffae9d03E
Ltmp290:
	jmp	LBB61_1
LBB61_1:
	movb	$1, -18(%rbp)
	movb	$0, -19(%rbp)
	movq	-248(%rbp), %rax
	movq	32(%rax), %rcx
	movq	%rcx, -72(%rbp)
	movq	24(%rax), %rcx
	movq	%rcx, -80(%rbp)
	movq	16(%rax), %rcx
	movq	%rcx, -88(%rbp)
	movq	(%rax), %rcx
	movq	8(%rax), %rdx
	movq	%rdx, -96(%rbp)
	movq	%rcx, -104(%rbp)
Ltmp292:
	leaq	-144(%rbp), %rdi
	leaq	-104(%rbp), %rsi
	callq	__ZN71_$LT$proc_macro2..TokenStream$u20$as$u20$quote..to_tokens..ToTokens$GT$17into_token_stream17h152fd7aeffae9d03E
Ltmp293:
	jmp	LBB61_3
LBB61_2:
	movq	-16(%rbp), %rdi
	callq	__Unwind_Resume
	ud2
LBB61_3:
	movb	$1, -17(%rbp)
Ltmp295:
	leaq	-64(%rbp), %rdi
	callq	__ZN11proc_macro211TokenStream3new17hd812f3610469681cE
Ltmp296:
	jmp	LBB61_4
LBB61_4:
	movb	$0, -18(%rbp)
	movb	$0, -17(%rbp)
Ltmp297:
	leaq	-224(%rbp), %rdx
	leaq	-144(%rbp), %rcx
	leaq	-64(%rbp), %r8
	movl	$3, %r9d
	movq	-232(%rbp), %rdi
	movq	-240(%rbp), %rsi
	callq	__ZN12synstructure9Structure13impl_internal17h75ae50d4e89d8dbdE
Ltmp298:
	jmp	LBB61_5
LBB61_5:
	movb	$0, -17(%rbp)
	movb	$0, -18(%rbp)
	movq	-256(%rbp), %rax
	addq	$256, %rsp
	popq	%rbp
	retq
LBB61_6:
	movb	$0, -19(%rbp)
	movq	-248(%rbp), %rdi
	callq	__ZN4core3ptr13drop_in_place17h32302694d018b805E
	jmp	LBB61_2
LBB61_7:
	testb	$1, -19(%rbp)
	jne	LBB61_6
	jmp	LBB61_2
LBB61_8:
	movb	$0, -18(%rbp)
	leaq	-224(%rbp), %rdi
	callq	__ZN4core3ptr13drop_in_place17h32302694d018b805E
	jmp	LBB61_7
LBB61_9:
	testb	$1, -18(%rbp)
	jne	LBB61_8
	jmp	LBB61_7
LBB61_10:
	movb	$0, -17(%rbp)
	leaq	-144(%rbp), %rdi
	callq	__ZN4core3ptr13drop_in_place17h32302694d018b805E
	jmp	LBB61_9
LBB61_11:
	testb	$1, -17(%rbp)
	jne	LBB61_10
	jmp	LBB61_9
LBB61_12:
Ltmp291:
	movq	%rax, -16(%rbp)
	movl	%edx, -8(%rbp)
	jmp	LBB61_7
LBB61_13:
Ltmp294:
	movq	%rax, -16(%rbp)
	movl	%edx, -8(%rbp)
	jmp	LBB61_9
LBB61_14:
Ltmp299:
	movq	%rax, -16(%rbp)
	movl	%edx, -8(%rbp)
	jmp	LBB61_11
Lfunc_end21:
	.cfi_endproc
	.section	__TEXT,__gcc_except_tab
	.p2align	2
GCC_except_table61:
Lexception21:
	.byte	255
	.byte	255
	.byte	1
	.uleb128 Lcst_end21-Lcst_begin21
Lcst_begin21:
	.uleb128 Ltmp289-Lfunc_begin21
	.uleb128 Ltmp290-Ltmp289
	.uleb128 Ltmp291-Lfunc_begin21
	.byte	0
	.uleb128 Ltmp292-Lfunc_begin21
	.uleb128 Ltmp293-Ltmp292
	.uleb128 Ltmp294-Lfunc_begin21
	.byte	0
	.uleb128 Ltmp293-Lfunc_begin21
	.uleb128 Ltmp295-Ltmp293
	.byte	0
	.byte	0
	.uleb128 Ltmp295-Lfunc_begin21
	.uleb128 Ltmp298-Ltmp295
	.uleb128 Ltmp299-Lfunc_begin21
	.byte	0
	.uleb128 Ltmp298-Lfunc_begin21
	.uleb128 Lfunc_end21-Ltmp298
	.byte	0
	.byte	0
Lcst_end21:
	.p2align	2

	.section	__TEXT,__text,regular,pure_instructions
	.p2align	4, 0x90
__ZN136_$LT$core..result..Result$LT$V$C$E$GT$$u20$as$u20$core..iter..traits..collect..FromIterator$LT$core..result..Result$LT$A$C$E$GT$$GT$$GT$9from_iter17he3dc9ac8c6df08c0E:
	.cfi_startproc
	pushq	%rbp
	.cfi_def_cfa_offset 16
	.cfi_offset %rbp, -16
	movq	%rsp, %rbp
	.cfi_def_cfa_register %rbp
	subq	$112, %rsp
	movq	%rdi, %rax
	leaq	-48(%rbp), %rcx
	movq	%rcx, %rdx
	movq	%rdi, -96(%rbp)
	movq	%rdx, %rdi
	movl	$40, %edx
	movq	%rax, -104(%rbp)
	movq	%rcx, -112(%rbp)
	callq	_memcpy
	leaq	-88(%rbp), %rdi
	movq	-112(%rbp), %rsi
	callq	__ZN63_$LT$I$u20$as$u20$core..iter..traits..collect..IntoIterator$GT$9into_iter17h089af6871a012394E
	movq	-96(%rbp), %rdi
	leaq	-88(%rbp), %rsi
	callq	__ZN4core4iter8adapters15process_results17h7c744a28f6c61a11E
	movq	-104(%rbp), %rax
	addq	$112, %rsp
	popq	%rbp
	retq
	.cfi_endproc

	.p2align	4, 0x90
__ZN136_$LT$core..result..Result$LT$V$C$E$GT$$u20$as$u20$core..iter..traits..collect..FromIterator$LT$core..result..Result$LT$A$C$E$GT$$GT$$GT$9from_iter28_$u7b$$u7b$closure$u7d$$u7d$17h5b9043871ab29c9dE:
	.cfi_startproc
	pushq	%rbp
	.cfi_def_cfa_offset 16
	.cfi_offset %rbp, -16
	movq	%rsp, %rbp
	.cfi_def_cfa_register %rbp
	subq	$80, %rsp
	movq	%rdi, %rax
	leaq	-48(%rbp), %rcx
	movq	%rcx, %rsi
	movq	%rdi, -56(%rbp)
	movq	%rsi, %rdi
	movq	%rdx, %rsi
	movl	$48, %edx
	movq	%rax, -64(%rbp)
	movq	%rcx, -72(%rbp)
	callq	_memcpy
	movq	-56(%rbp), %rdi
	movq	-72(%rbp), %rsi
	callq	__ZN4core4iter6traits8iterator8Iterator7collect17h8e8398c380c21847E
	movq	-64(%rbp), %rax
	addq	$80, %rsp
	popq	%rbp
	retq
	.cfi_endproc

	.p2align	4, 0x90
__ZN3std4sync4once4Once12is_completed17h179597872a079926E:
	.cfi_startproc
	pushq	%rbp
	.cfi_def_cfa_offset 16
	.cfi_offset %rbp, -16
	movq	%rsp, %rbp
	.cfi_def_cfa_register %rbp
	subq	$16, %rsp
	movl	$2, %esi
	callq	__ZN4core4sync6atomic11AtomicUsize4load17h0efdd5caf2ae32cdE
	movq	%rax, -8(%rbp)
	movq	-8(%rbp), %rax
	cmpq	$3, %rax
	sete	%cl
	andb	$1, %cl
	movzbl	%cl, %edx
	movl	%edx, %eax
	addq	$16, %rsp
	popq	%rbp
	retq
	.cfi_endproc

	.p2align	4, 0x90
__ZN3std4sync4once4Once9call_once17hbf847ec93e76d3caE:
Lfunc_begin22:
	.cfi_startproc
	.cfi_personality 155, _rust_eh_personality
	.cfi_lsda 16, Lexception22
	pushq	%rbp
	.cfi_def_cfa_offset 16
	.cfi_offset %rbp, -16
	movq	%rsp, %rbp
	.cfi_def_cfa_register %rbp
	subq	$64, %rsp
	movb	$0, -17(%rbp)
	movb	$1, -17(%rbp)
Ltmp300:
	movq	%rdi, -48(%rbp)
	callq	__ZN3std4sync4once4Once12is_completed17h179597872a079926E
Ltmp301:
	movb	%al, -49(%rbp)
	jmp	LBB65_2
LBB65_1:
	movq	-16(%rbp), %rdi
	callq	__Unwind_Resume
	ud2
LBB65_2:
	movb	-49(%rbp), %al
	testb	$1, %al
	jne	LBB65_4
	jmp	LBB65_3
LBB65_3:
	movb	$0, -17(%rbp)
	movb	$1, -33(%rbp)
	leaq	-33(%rbp), %rax
	movq	%rax, -32(%rbp)
Ltmp303:
	leaq	l___unnamed_11(%rip), %rcx
	xorl	%esi, %esi
	leaq	-32(%rbp), %rdx
	movq	-48(%rbp), %rdi
	callq	__ZN3std4sync4once4Once10call_inner17hfcd38045e50af9d3E
Ltmp304:
	jmp	LBB65_6
LBB65_4:
	movb	$0, -17(%rbp)
LBB65_5:
	addq	$64, %rsp
	popq	%rbp
	retq
LBB65_6:
	jmp	LBB65_8
LBB65_7:
	jmp	LBB65_10
LBB65_8:
	jmp	LBB65_5
LBB65_9:
	movb	$0, -17(%rbp)
	jmp	LBB65_1
LBB65_10:
	testb	$1, -17(%rbp)
	jne	LBB65_9
	jmp	LBB65_1
LBB65_11:
Ltmp302:
	movq	%rax, -16(%rbp)
	movl	%edx, -8(%rbp)
	jmp	LBB65_10
LBB65_12:
Ltmp305:
	movq	%rax, -16(%rbp)
	movl	%edx, -8(%rbp)
	jmp	LBB65_7
Lfunc_end22:
	.cfi_endproc
	.section	__TEXT,__gcc_except_tab
	.p2align	2
GCC_except_table65:
Lexception22:
	.byte	255
	.byte	255
	.byte	1
	.uleb128 Lcst_end22-Lcst_begin22
Lcst_begin22:
	.uleb128 Ltmp300-Lfunc_begin22
	.uleb128 Ltmp301-Ltmp300
	.uleb128 Ltmp302-Lfunc_begin22
	.byte	0
	.uleb128 Ltmp301-Lfunc_begin22
	.uleb128 Ltmp303-Ltmp301
	.byte	0
	.byte	0
	.uleb128 Ltmp303-Lfunc_begin22
	.uleb128 Ltmp304-Ltmp303
	.uleb128 Ltmp305-Lfunc_begin22
	.byte	0
Lcst_end22:
	.p2align	2

	.section	__TEXT,__text,regular,pure_instructions
	.p2align	4, 0x90
__ZN3std4sync4once4Once9call_once28_$u7b$$u7b$closure$u7d$$u7d$17h9cf9b32145f5f0b1E:
	.cfi_startproc
	pushq	%rbp
	.cfi_def_cfa_offset 16
	.cfi_offset %rbp, -16
	movq	%rsp, %rbp
	.cfi_def_cfa_register %rbp
	subq	$16, %rsp
	movq	(%rdi), %rdi
	movq	%rsi, -8(%rbp)
	callq	__ZN4core6option15Option$LT$T$GT$4take17h196fc8c7525cad57E
	movb	%al, -9(%rbp)
	movb	-9(%rbp), %al
	movzbl	%al, %ecx
	andl	$1, %ecx
	leaq	l___unnamed_12(%rip), %rsi
	movl	%ecx, %edi
	callq	__ZN4core6option15Option$LT$T$GT$6unwrap17h5fd48f946e81154bE
	callq	__ZN10proc_macro6bridge6client44_$LT$impl$u20$proc_macro..bridge..Bridge$GT$5enter28_$u7b$$u7b$closure$u7d$$u7d$17hdfd6e63348d6de5bE
	addq	$16, %rsp
	popq	%rbp
	retq
	.cfi_endproc

	.p2align	4, 0x90
__ZN3std5panic12catch_unwind17h1b9e32baaee10740E:
	.cfi_startproc
	pushq	%rbp
	.cfi_def_cfa_offset 16
	.cfi_offset %rbp, -16
	movq	%rsp, %rbp
	.cfi_def_cfa_register %rbp
	subq	$112, %rsp
	leaq	-72(%rbp), %rax
	movq	%rax, %rcx
	movq	%rdi, -80(%rbp)
	movq	%rcx, %rdi
	movq	-80(%rbp), %rsi
	movl	$72, %edx
	movq	%rax, -88(%rbp)
	callq	_memcpy
	movq	-88(%rbp), %rdi
	callq	__ZN3std9panicking3try17h51b8643070e7de98E
	movq	%rax, -96(%rbp)
	movq	%rdx, -104(%rbp)
	movq	-96(%rbp), %rax
	movq	-104(%rbp), %rdx
	addq	$112, %rsp
	popq	%rbp
	retq
	.cfi_endproc

	.p2align	4, 0x90
__ZN3std6thread5local17LocalKey$LT$T$GT$4with17h47c7c9ba6283b892E:
	.cfi_startproc
	pushq	%rbp
	.cfi_def_cfa_offset 16
	.cfi_offset %rbp, -16
	movq	%rsp, %rbp
	.cfi_def_cfa_register %rbp
	subq	$64, %rsp
	movq	%rdi, %rax
	leaq	-40(%rbp), %rcx
	movq	%rdi, -48(%rbp)
	movq	%rcx, %rdi
	movq	%rax, -56(%rbp)
	callq	__ZN3std6thread5local17LocalKey$LT$T$GT$8try_with17h560749f47a2be400E
	leaq	l___unnamed_13(%rip), %rax
	leaq	l___unnamed_14(%rip), %rcx
	movq	-48(%rbp), %rdi
	leaq	-40(%rbp), %rsi
	movq	%rax, %rdx
	movl	$70, %eax
	movq	%rcx, -64(%rbp)
	movq	%rax, %rcx
	movq	-64(%rbp), %r8
	callq	__ZN4core6result19Result$LT$T$C$E$GT$6expect17h3f7671d17c6ff44bE
	movq	-56(%rbp), %rax
	addq	$64, %rsp
	popq	%rbp
	retq
	.cfi_endproc

	.p2align	4, 0x90
__ZN3std6thread5local17LocalKey$LT$T$GT$4with17h6afd903267a7fab1E:
	.cfi_startproc
	pushq	%rbp
	.cfi_def_cfa_offset 16
	.cfi_offset %rbp, -16
	movq	%rsp, %rbp
	.cfi_def_cfa_register %rbp
	subq	$32, %rsp
	callq	__ZN3std6thread5local17LocalKey$LT$T$GT$8try_with17haf7d4a9e3a308640E
	movb	%al, -1(%rbp)
	movb	-1(%rbp), %al
	movzbl	%al, %ecx
	andl	$1, %ecx
	leaq	l___unnamed_13(%rip), %rsi
	leaq	l___unnamed_14(%rip), %rdx
	movl	$70, %edi
	movq	%rdi, -16(%rbp)
	movl	%ecx, %edi
	movq	-16(%rbp), %r8
	movq	%rdx, -24(%rbp)
	movq	%r8, %rdx
	movq	-24(%rbp), %rcx
	callq	__ZN4core6result19Result$LT$T$C$E$GT$6expect17ha63c6b0fc352cb1aE
	addq	$32, %rsp
	popq	%rbp
	retq
	.cfi_endproc

	.p2align	4, 0x90
__ZN3std6thread5local17LocalKey$LT$T$GT$4with17hdc6cd4a7939ae81aE:
	.cfi_startproc
	pushq	%rbp
	.cfi_def_cfa_offset 16
	.cfi_offset %rbp, -16
	movq	%rsp, %rbp
	.cfi_def_cfa_register %rbp
	subq	$112, %rsp
	leaq	-72(%rbp), %rax
	movq	%rax, %rcx
	movq	%rdi, -80(%rbp)
	movq	%rcx, %rdi
	movl	$72, %edx
	movq	%rax, -88(%rbp)
	callq	_memcpy
	movq	-80(%rbp), %rdi
	movq	-88(%rbp), %rsi
	callq	__ZN3std6thread5local17LocalKey$LT$T$GT$8try_with17h14f52692189c079eE
	movb	%al, -89(%rbp)
	movb	-89(%rbp), %al
	movzbl	%al, %ecx
	andl	$1, %ecx
	leaq	l___unnamed_13(%rip), %rsi
	leaq	l___unnamed_14(%rip), %rdx
	movl	$70, %edi
	movq	%rdi, -104(%rbp)
	movl	%ecx, %edi
	movq	-104(%rbp), %r8
	movq	%rdx, -112(%rbp)
	movq	%r8, %rdx
	movq	-112(%rbp), %rcx
	callq	__ZN4core6result19Result$LT$T$C$E$GT$6expect17ha63c6b0fc352cb1aE
	addq	$112, %rsp
	popq	%rbp
	retq
	.cfi_endproc

	.p2align	4, 0x90
__ZN3std6thread5local17LocalKey$LT$T$GT$4with17heaa96266a61b577aE:
	.cfi_startproc
	pushq	%rbp
	.cfi_def_cfa_offset 16
	.cfi_offset %rbp, -16
	movq	%rsp, %rbp
	.cfi_def_cfa_register %rbp
	subq	$16, %rsp
	callq	__ZN3std6thread5local17LocalKey$LT$T$GT$8try_with17h4cf38632590c3a49E
	movb	%al, -1(%rbp)
	leaq	l___unnamed_13(%rip), %rax
	leaq	l___unnamed_14(%rip), %rcx
	movb	-1(%rbp), %dl
	movzbl	%dl, %edi
	movq	%rax, %rsi
	movl	$70, %edx
	callq	__ZN4core6result19Result$LT$T$C$E$GT$6expect17h4d84f9ccbb00e7c3E
	movb	%al, -2(%rbp)
	movb	-2(%rbp), %al
	andb	$1, %al
	movzbl	%al, %eax
	addq	$16, %rsp
	popq	%rbp
	retq
	.cfi_endproc

	.p2align	4, 0x90
__ZN3std6thread5local17LocalKey$LT$T$GT$8try_with17h14f52692189c079eE:
Lfunc_begin23:
	.cfi_startproc
	.cfi_personality 155, _rust_eh_personality
	.cfi_lsda 16, Lexception23
	pushq	%rbp
	.cfi_def_cfa_offset 16
	.cfi_offset %rbp, -16
	movq	%rsp, %rbp
	.cfi_def_cfa_register %rbp
	subq	$160, %rsp
	movb	$0, -17(%rbp)
	movb	$1, -17(%rbp)
	movq	(%rdi), %rax
Ltmp306:
	movq	%rsi, -128(%rbp)
	callq	*%rax
Ltmp307:
	movq	%rax, -136(%rbp)
	jmp	LBB72_2
LBB72_1:
	movq	-16(%rbp), %rdi
	callq	__Unwind_Resume
	ud2
LBB72_2:
Ltmp308:
	movq	-136(%rbp), %rdi
	callq	__ZN4core6option15Option$LT$T$GT$5ok_or17h84b2f670f7efc791E
Ltmp309:
	movq	%rax, -144(%rbp)
	jmp	LBB72_3
LBB72_3:
Ltmp310:
	movq	-144(%rbp), %rdi
	callq	__ZN73_$LT$core..result..Result$LT$T$C$E$GT$$u20$as$u20$core..ops..try..Try$GT$11into_result17h7ba3de4db51d2422E
Ltmp311:
	movq	%rax, -152(%rbp)
	jmp	LBB72_4
LBB72_4:
	movq	-152(%rbp), %rax
	movq	%rax, -112(%rbp)
	movq	-112(%rbp), %rcx
	testq	%rcx, %rcx
	sete	%dl
	movzbl	%dl, %esi
	movl	%esi, %ecx
	jne	LBB72_5
	jmp	LBB72_15
LBB72_15:
	jmp	LBB72_7
LBB72_5:
	movq	-112(%rbp), %rax
	movb	$0, -17(%rbp)
	movl	$9, %ecx
	leaq	-104(%rbp), %rdx
	movq	%rdx, %rdi
	movq	-128(%rbp), %rsi
	rep;movsq (%rsi), %es:(%rdi)
	movq	%rax, -32(%rbp)
	movq	-32(%rbp), %rsi
Ltmp316:
	movq	%rdx, %rdi
	callq	__ZN10proc_macro6bridge6client44_$LT$impl$u20$proc_macro..bridge..Bridge$GT$5enter28_$u7b$$u7b$closure$u7d$$u7d$17h6e27453454c3133eE
Ltmp317:
	jmp	LBB72_11
	ud2
LBB72_7:
Ltmp312:
	callq	__ZN50_$LT$T$u20$as$u20$core..convert..From$LT$T$GT$$GT$4from17h14c5362fead44bd2E
Ltmp313:
	jmp	LBB72_9
LBB72_8:
	movb	-113(%rbp), %al
	andb	$1, %al
	movzbl	%al, %eax
	addq	$160, %rsp
	popq	%rbp
	retq
LBB72_9:
Ltmp314:
	callq	__ZN73_$LT$core..result..Result$LT$T$C$E$GT$$u20$as$u20$core..ops..try..Try$GT$10from_error17ha2f868ba8158e32cE
Ltmp315:
	movb	%al, -153(%rbp)
	jmp	LBB72_10
LBB72_10:
	movb	-153(%rbp), %al
	andb	$1, %al
	movb	%al, -113(%rbp)
	movb	$0, -17(%rbp)
	movq	-128(%rbp), %rdi
	callq	__ZN4core3ptr13drop_in_place17h2c1b478d118088beE
	jmp	LBB72_8
LBB72_11:
	movb	$0, -113(%rbp)
	jmp	LBB72_8
LBB72_12:
	movb	$0, -17(%rbp)
	movq	-128(%rbp), %rdi
	callq	__ZN4core3ptr13drop_in_place17h2c1b478d118088beE
	jmp	LBB72_1
LBB72_13:
	testb	$1, -17(%rbp)
	jne	LBB72_12
	jmp	LBB72_1
LBB72_14:
Ltmp318:
	movq	%rax, -16(%rbp)
	movl	%edx, -8(%rbp)
	jmp	LBB72_13
Lfunc_end23:
	.cfi_endproc
	.section	__TEXT,__gcc_except_tab
	.p2align	2
GCC_except_table72:
Lexception23:
	.byte	255
	.byte	255
	.byte	1
	.uleb128 Lcst_end23-Lcst_begin23
Lcst_begin23:
	.uleb128 Ltmp306-Lfunc_begin23
	.uleb128 Ltmp307-Ltmp306
	.uleb128 Ltmp318-Lfunc_begin23
	.byte	0
	.uleb128 Ltmp307-Lfunc_begin23
	.uleb128 Ltmp308-Ltmp307
	.byte	0
	.byte	0
	.uleb128 Ltmp308-Lfunc_begin23
	.uleb128 Ltmp315-Ltmp308
	.uleb128 Ltmp318-Lfunc_begin23
	.byte	0
	.uleb128 Ltmp315-Lfunc_begin23
	.uleb128 Lfunc_end23-Ltmp315
	.byte	0
	.byte	0
Lcst_end23:
	.p2align	2

	.section	__TEXT,__text,regular,pure_instructions
	.p2align	4, 0x90
__ZN3std6thread5local17LocalKey$LT$T$GT$8try_with17h4cf38632590c3a49E:
Lfunc_begin24:
	.cfi_startproc
	.cfi_personality 155, _rust_eh_personality
	.cfi_lsda 16, Lexception24
	pushq	%rbp
	.cfi_def_cfa_offset 16
	.cfi_offset %rbp, -16
	movq	%rsp, %rbp
	.cfi_def_cfa_register %rbp
	subq	$80, %rsp
	movb	$0, -17(%rbp)
	movb	$1, -17(%rbp)
	movq	(%rdi), %rax
Ltmp319:
	callq	*%rax
Ltmp320:
	movq	%rax, -56(%rbp)
	jmp	LBB73_2
LBB73_1:
	movq	-16(%rbp), %rdi
	callq	__Unwind_Resume
	ud2
LBB73_2:
Ltmp321:
	movq	-56(%rbp), %rdi
	callq	__ZN4core6option15Option$LT$T$GT$5ok_or17h84b2f670f7efc791E
Ltmp322:
	movq	%rax, -64(%rbp)
	jmp	LBB73_3
LBB73_3:
Ltmp323:
	movq	-64(%rbp), %rdi
	callq	__ZN73_$LT$core..result..Result$LT$T$C$E$GT$$u20$as$u20$core..ops..try..Try$GT$11into_result17h7ba3de4db51d2422E
Ltmp324:
	movq	%rax, -72(%rbp)
	jmp	LBB73_4
LBB73_4:
	movq	-72(%rbp), %rax
	movq	%rax, -40(%rbp)
	movq	-40(%rbp), %rcx
	testq	%rcx, %rcx
	sete	%dl
	movzbl	%dl, %esi
	movl	%esi, %ecx
	jne	LBB73_5
	jmp	LBB73_15
LBB73_15:
	jmp	LBB73_7
LBB73_5:
	movq	-40(%rbp), %rax
	movb	$0, -17(%rbp)
	movq	%rax, -32(%rbp)
	movq	-32(%rbp), %rdi
Ltmp329:
	callq	__ZN10proc_macro6bridge6client11BridgeState4with28_$u7b$$u7b$closure$u7d$$u7d$17h69edda6cfa6aac37E
Ltmp330:
	movb	%al, -73(%rbp)
	jmp	LBB73_11
	ud2
LBB73_7:
Ltmp325:
	callq	__ZN50_$LT$T$u20$as$u20$core..convert..From$LT$T$GT$$GT$4from17h14c5362fead44bd2E
Ltmp326:
	jmp	LBB73_9
LBB73_8:
	movb	-41(%rbp), %al
	addq	$80, %rsp
	popq	%rbp
	retq
LBB73_9:
Ltmp327:
	callq	__ZN73_$LT$core..result..Result$LT$T$C$E$GT$$u20$as$u20$core..ops..try..Try$GT$10from_error17h3687ee61dd5df1ddE
Ltmp328:
	movb	%al, -74(%rbp)
	jmp	LBB73_10
LBB73_10:
	movb	-74(%rbp), %al
	movb	%al, -41(%rbp)
	movb	$0, -17(%rbp)
	jmp	LBB73_8
LBB73_11:
	movb	-73(%rbp), %al
	andb	$1, %al
	movb	%al, -41(%rbp)
	jmp	LBB73_8
LBB73_12:
	movb	$0, -17(%rbp)
	jmp	LBB73_1
LBB73_13:
	testb	$1, -17(%rbp)
	jne	LBB73_12
	jmp	LBB73_1
LBB73_14:
Ltmp331:
	movq	%rax, -16(%rbp)
	movl	%edx, -8(%rbp)
	jmp	LBB73_13
Lfunc_end24:
	.cfi_endproc
	.section	__TEXT,__gcc_except_tab
	.p2align	2
GCC_except_table73:
Lexception24:
	.byte	255
	.byte	255
	.byte	1
	.uleb128 Lcst_end24-Lcst_begin24
Lcst_begin24:
	.uleb128 Ltmp319-Lfunc_begin24
	.uleb128 Ltmp320-Ltmp319
	.uleb128 Ltmp331-Lfunc_begin24
	.byte	0
	.uleb128 Ltmp320-Lfunc_begin24
	.uleb128 Ltmp321-Ltmp320
	.byte	0
	.byte	0
	.uleb128 Ltmp321-Lfunc_begin24
	.uleb128 Ltmp328-Ltmp321
	.uleb128 Ltmp331-Lfunc_begin24
	.byte	0
Lcst_end24:
	.p2align	2

	.section	__TEXT,__text,regular,pure_instructions
	.p2align	4, 0x90
__ZN3std6thread5local17LocalKey$LT$T$GT$8try_with17h560749f47a2be400E:
Lfunc_begin25:
	.cfi_startproc
	.cfi_personality 155, _rust_eh_personality
	.cfi_lsda 16, Lexception25
	pushq	%rbp
	.cfi_def_cfa_offset 16
	.cfi_offset %rbp, -16
	movq	%rsp, %rbp
	.cfi_def_cfa_register %rbp
	subq	$128, %rsp
	movq	%rdi, %rax
	movb	$0, -17(%rbp)
	movb	$1, -17(%rbp)
	movq	(%rsi), %rcx
Ltmp332:
	movq	%rdi, -88(%rbp)
	movq	%rax, -96(%rbp)
	callq	*%rcx
Ltmp333:
	movq	%rax, -104(%rbp)
	jmp	LBB74_2
LBB74_1:
	movq	-16(%rbp), %rdi
	callq	__Unwind_Resume
	ud2
LBB74_2:
Ltmp334:
	movq	-104(%rbp), %rdi
	callq	__ZN4core6option15Option$LT$T$GT$5ok_or17h84b2f670f7efc791E
Ltmp335:
	movq	%rax, -112(%rbp)
	jmp	LBB74_3
LBB74_3:
Ltmp336:
	movq	-112(%rbp), %rdi
	callq	__ZN73_$LT$core..result..Result$LT$T$C$E$GT$$u20$as$u20$core..ops..try..Try$GT$11into_result17h7ba3de4db51d2422E
Ltmp337:
	movq	%rax, -120(%rbp)
	jmp	LBB74_4
LBB74_4:
	movq	-120(%rbp), %rax
	movq	%rax, -80(%rbp)
	movq	-80(%rbp), %rcx
	testq	%rcx, %rcx
	sete	%dl
	movzbl	%dl, %esi
	movl	%esi, %ecx
	jne	LBB74_5
	jmp	LBB74_15
LBB74_15:
	jmp	LBB74_7
LBB74_5:
	movq	-80(%rbp), %rax
	movb	$0, -17(%rbp)
	movq	%rax, -32(%rbp)
	movq	-32(%rbp), %rsi
Ltmp342:
	leaq	-72(%rbp), %rdi
	callq	__ZN10proc_macro6bridge6client11BridgeState4with28_$u7b$$u7b$closure$u7d$$u7d$17hf064c58bfc40c035E
Ltmp343:
	jmp	LBB74_11
	ud2
LBB74_7:
Ltmp338:
	callq	__ZN50_$LT$T$u20$as$u20$core..convert..From$LT$T$GT$$GT$4from17h14c5362fead44bd2E
Ltmp339:
	jmp	LBB74_9
LBB74_8:
	movq	-96(%rbp), %rax
	addq	$128, %rsp
	popq	%rbp
	retq
LBB74_9:
Ltmp340:
	movq	-88(%rbp), %rdi
	callq	__ZN73_$LT$core..result..Result$LT$T$C$E$GT$$u20$as$u20$core..ops..try..Try$GT$10from_error17h0836d7d1633dde68E
Ltmp341:
	jmp	LBB74_10
LBB74_10:
	movb	$0, -17(%rbp)
	jmp	LBB74_8
LBB74_11:
	movq	-88(%rbp), %rax
	leaq	-72(%rbp), %rcx
	movq	%rax, %rdi
	movq	%rcx, %rsi
	movl	$40, %edx
	callq	_memcpy
	jmp	LBB74_8
LBB74_12:
	movb	$0, -17(%rbp)
	jmp	LBB74_1
LBB74_13:
	testb	$1, -17(%rbp)
	jne	LBB74_12
	jmp	LBB74_1
LBB74_14:
Ltmp344:
	movq	%rax, -16(%rbp)
	movl	%edx, -8(%rbp)
	jmp	LBB74_13
Lfunc_end25:
	.cfi_endproc
	.section	__TEXT,__gcc_except_tab
	.p2align	2
GCC_except_table74:
Lexception25:
	.byte	255
	.byte	255
	.byte	1
	.uleb128 Lcst_end25-Lcst_begin25
Lcst_begin25:
	.uleb128 Ltmp332-Lfunc_begin25
	.uleb128 Ltmp333-Ltmp332
	.uleb128 Ltmp344-Lfunc_begin25
	.byte	0
	.uleb128 Ltmp333-Lfunc_begin25
	.uleb128 Ltmp334-Ltmp333
	.byte	0
	.byte	0
	.uleb128 Ltmp334-Lfunc_begin25
	.uleb128 Ltmp341-Ltmp334
	.uleb128 Ltmp344-Lfunc_begin25
	.byte	0
	.uleb128 Ltmp341-Lfunc_begin25
	.uleb128 Lfunc_end25-Ltmp341
	.byte	0
	.byte	0
Lcst_end25:
	.p2align	2

	.section	__TEXT,__text,regular,pure_instructions
	.p2align	4, 0x90
__ZN3std6thread5local17LocalKey$LT$T$GT$8try_with17haf7d4a9e3a308640E:
Lfunc_begin26:
	.cfi_startproc
	.cfi_personality 155, _rust_eh_personality
	.cfi_lsda 16, Lexception26
	pushq	%rbp
	.cfi_def_cfa_offset 16
	.cfi_offset %rbp, -16
	movq	%rsp, %rbp
	.cfi_def_cfa_register %rbp
	subq	$96, %rsp
	movb	$0, -17(%rbp)
	movb	$1, -17(%rbp)
	movq	(%rdi), %rax
Ltmp345:
	movq	%rsi, -56(%rbp)
	callq	*%rax
Ltmp346:
	movq	%rax, -64(%rbp)
	jmp	LBB75_2
LBB75_1:
	movq	-16(%rbp), %rdi
	callq	__Unwind_Resume
	ud2
LBB75_2:
Ltmp347:
	movq	-64(%rbp), %rdi
	callq	__ZN4core6option15Option$LT$T$GT$5ok_or17h84b2f670f7efc791E
Ltmp348:
	movq	%rax, -72(%rbp)
	jmp	LBB75_3
LBB75_3:
Ltmp349:
	movq	-72(%rbp), %rdi
	callq	__ZN73_$LT$core..result..Result$LT$T$C$E$GT$$u20$as$u20$core..ops..try..Try$GT$11into_result17h7ba3de4db51d2422E
Ltmp350:
	movq	%rax, -80(%rbp)
	jmp	LBB75_4
LBB75_4:
	movq	-80(%rbp), %rax
	movq	%rax, -40(%rbp)
	movq	-40(%rbp), %rcx
	testq	%rcx, %rcx
	sete	%dl
	movzbl	%dl, %esi
	movl	%esi, %ecx
	jne	LBB75_5
	jmp	LBB75_15
LBB75_15:
	jmp	LBB75_7
LBB75_5:
	movq	-40(%rbp), %rax
	movb	$0, -17(%rbp)
	movq	%rax, -32(%rbp)
	movq	-32(%rbp), %rsi
Ltmp355:
	movq	-56(%rbp), %rdi
	callq	__ZN10proc_macro6bridge6client11BridgeState4with28_$u7b$$u7b$closure$u7d$$u7d$17hba43cf6d60882cd6E
Ltmp356:
	jmp	LBB75_11
	ud2
LBB75_7:
Ltmp351:
	callq	__ZN50_$LT$T$u20$as$u20$core..convert..From$LT$T$GT$$GT$4from17h14c5362fead44bd2E
Ltmp352:
	jmp	LBB75_9
LBB75_8:
	movb	-41(%rbp), %al
	andb	$1, %al
	movzbl	%al, %eax
	addq	$96, %rsp
	popq	%rbp
	retq
LBB75_9:
Ltmp353:
	callq	__ZN73_$LT$core..result..Result$LT$T$C$E$GT$$u20$as$u20$core..ops..try..Try$GT$10from_error17ha2f868ba8158e32cE
Ltmp354:
	movb	%al, -81(%rbp)
	jmp	LBB75_10
LBB75_10:
	movb	-81(%rbp), %al
	andb	$1, %al
	movb	%al, -41(%rbp)
	movb	$0, -17(%rbp)
	jmp	LBB75_8
LBB75_11:
	movb	$0, -41(%rbp)
	jmp	LBB75_8
LBB75_12:
	movb	$0, -17(%rbp)
	jmp	LBB75_1
LBB75_13:
	testb	$1, -17(%rbp)
	jne	LBB75_12
	jmp	LBB75_1
LBB75_14:
Ltmp357:
	movq	%rax, -16(%rbp)
	movl	%edx, -8(%rbp)
	jmp	LBB75_13
Lfunc_end26:
	.cfi_endproc
	.section	__TEXT,__gcc_except_tab
	.p2align	2
GCC_except_table75:
Lexception26:
	.byte	255
	.byte	255
	.byte	1
	.uleb128 Lcst_end26-Lcst_begin26
Lcst_begin26:
	.uleb128 Ltmp345-Lfunc_begin26
	.uleb128 Ltmp346-Ltmp345
	.uleb128 Ltmp357-Lfunc_begin26
	.byte	0
	.uleb128 Ltmp346-Lfunc_begin26
	.uleb128 Ltmp347-Ltmp346
	.byte	0
	.byte	0
	.uleb128 Ltmp347-Lfunc_begin26
	.uleb128 Ltmp354-Ltmp347
	.uleb128 Ltmp357-Lfunc_begin26
	.byte	0
Lcst_end26:
	.p2align	2

	.section	__TEXT,__text,regular,pure_instructions
	.p2align	4, 0x90
__ZN3std9panicking3try17h51b8643070e7de98E:
	.cfi_startproc
	pushq	%rbp
	.cfi_def_cfa_offset 16
	.cfi_offset %rbp, -16
	movq	%rsp, %rbp
	.cfi_def_cfa_register %rbp
	subq	$384, %rsp
	leaq	-152(%rbp), %rax
	movq	%rax, %rcx
	movq	%rdi, -320(%rbp)
	movq	%rcx, %rdi
	movq	-320(%rbp), %rsi
	movl	$72, %ecx
	movq	%rcx, %rdx
	movq	%rax, -328(%rbp)
	movq	%rcx, -336(%rbp)
	callq	_memcpy
	leaq	-72(%rbp), %rax
	movq	%rax, %rcx
	movq	-328(%rbp), %rdx
	movq	%rcx, %rdi
	movq	%rdx, %rsi
	movq	-336(%rbp), %rdx
	movq	%rax, -344(%rbp)
	callq	_memcpy
	leaq	-224(%rbp), %rax
	movq	-344(%rbp), %rcx
	movq	%rax, %rdi
	movq	%rcx, %rsi
	movq	-336(%rbp), %rdx
	callq	_memcpy
	leaq	-296(%rbp), %rax
	movq	%rax, %rcx
	leaq	-224(%rbp), %rdx
	movq	%rcx, %rdi
	movq	%rdx, %rsi
	movl	$72, %edx
	movq	%rax, -352(%rbp)
	callq	_memcpy
	movq	-352(%rbp), %rax
	leaq	__ZN3std9panicking3try7do_call17h3e59321d23a46f98E(%rip), %rdi
	movq	%rax, %rsi
	leaq	__ZN3std9panicking3try8do_catch17hc5943cc2e9af4fd6E(%rip), %rdx
	callq	___rust_try
	movl	%eax, -76(%rbp)
	movl	-76(%rbp), %eax
	movl	%eax, -356(%rbp)
	movl	-356(%rbp), %eax
	cmpl	$0, %eax
	je	LBB76_4
	movq	-296(%rbp), %rax
	movq	-288(%rbp), %rcx
	movq	%rax, -368(%rbp)
	movq	%rcx, -376(%rbp)
	jmp	LBB76_6
LBB76_4:
	jmp	LBB76_5
LBB76_5:
	movq	$0, -312(%rbp)
	jmp	LBB76_7
LBB76_6:
	movq	-368(%rbp), %rax
	movq	%rax, -312(%rbp)
	movq	-376(%rbp), %rcx
	movq	%rcx, -304(%rbp)
LBB76_7:
	movq	-312(%rbp), %rax
	movq	-304(%rbp), %rdx
	addq	$384, %rsp
	popq	%rbp
	retq
	.cfi_endproc

	.p2align	4, 0x90
__ZN3std9panicking3try7do_call17h3e59321d23a46f98E:
	.cfi_startproc
	pushq	%rbp
	.cfi_def_cfa_offset 16
	.cfi_offset %rbp, -16
	movq	%rsp, %rbp
	.cfi_def_cfa_register %rbp
	subq	$176, %rsp
	leaq	-152(%rbp), %rax
	movq	%rdi, -160(%rbp)
	movq	%rax, %rdi
	movq	-160(%rbp), %rsi
	callq	__ZN4core3mem13manually_drop21ManuallyDrop$LT$T$GT$4take17h953c4baa263d608cE
	leaq	-80(%rbp), %rax
	movq	%rax, %rcx
	leaq	-152(%rbp), %rdx
	movq	%rcx, %rdi
	movq	%rdx, %rsi
	movl	$72, %edx
	movq	%rax, -168(%rbp)
	callq	_memcpy
	movq	-168(%rbp), %rdi
	callq	__ZN101_$LT$std..panic..AssertUnwindSafe$LT$F$GT$$u20$as$u20$core..ops..function..FnOnce$LT$$LP$$RP$$GT$$GT$9call_once17hf7ebe4ee2c2de8b3E
	addq	$176, %rsp
	popq	%rbp
	retq
	.cfi_endproc

	.p2align	4, 0x90
__ZN3std9panicking3try8do_catch17hc5943cc2e9af4fd6E:
	.cfi_startproc
	pushq	%rbp
	.cfi_def_cfa_offset 16
	.cfi_offset %rbp, -16
	movq	%rsp, %rbp
	.cfi_def_cfa_register %rbp
	subq	$64, %rsp
	movq	%rdi, -24(%rbp)
	movq	%rsi, %rdi
	callq	__ZN3std9panicking3try7cleanup17hd630ddf77975344aE
	movq	%rax, -32(%rbp)
	movq	%rdx, -40(%rbp)
	movq	-32(%rbp), %rax
	movq	%rax, -16(%rbp)
	movq	-40(%rbp), %rcx
	movq	%rcx, -8(%rbp)
	movq	-16(%rbp), %rdx
	movq	-8(%rbp), %rsi
	movq	%rdx, -48(%rbp)
	movq	%rsi, -56(%rbp)
	movq	-24(%rbp), %rax
	movq	-48(%rbp), %rcx
	movq	%rcx, (%rax)
	movq	-56(%rbp), %rdx
	movq	%rdx, 8(%rax)
	addq	$64, %rsp
	popq	%rbp
	retq
	.cfi_endproc

	.p2align	4, 0x90
__ZN3syn10punctuated23Punctuated$LT$T$C$P$GT$3len17hbba062603f9a4a53E:
	.cfi_startproc
	pushq	%rbp
	.cfi_def_cfa_offset 16
	.cfi_offset %rbp, -16
	movq	%rsp, %rbp
	.cfi_def_cfa_register %rbp
	subq	$48, %rsp
	movq	%rdi, %rax
	movq	%rdi, -16(%rbp)
	movq	%rax, %rdi
	callq	__ZN5alloc3vec12Vec$LT$T$GT$3len17h45f6990f5b2a63eaE
	movq	%rax, -24(%rbp)
	movq	-16(%rbp), %rax
	addq	$24, %rax
	movq	%rax, %rdi
	callq	__ZN4core6option15Option$LT$T$GT$7is_some17h145c209b72d58df6E
	movb	%al, -25(%rbp)
	movb	-25(%rbp), %al
	testb	$1, %al
	jne	LBB79_4
	jmp	LBB79_3
LBB79_3:
	movq	$0, -8(%rbp)
	jmp	LBB79_5
LBB79_4:
	movq	$1, -8(%rbp)
LBB79_5:
	movq	-24(%rbp), %rax
	addq	-8(%rbp), %rax
	setb	%cl
	testb	$1, %cl
	movq	%rax, -40(%rbp)
	jne	LBB79_7
	movq	-40(%rbp), %rax
	addq	$48, %rsp
	popq	%rbp
	retq
LBB79_7:
	leaq	_str.0(%rip), %rdi
	leaq	l___unnamed_15(%rip), %rdx
	movl	$28, %esi
	callq	__ZN4core9panicking5panic17h383a6b80ea7021aaE
	.cfi_endproc

	.p2align	4, 0x90
__ZN3syn10punctuated23Punctuated$LT$T$C$P$GT$4iter17hbced021783405614E:
	.cfi_startproc
	pushq	%rbp
	.cfi_def_cfa_offset 16
	.cfi_offset %rbp, -16
	movq	%rsp, %rbp
	.cfi_def_cfa_register %rbp
	subq	$112, %rsp
	movq	%rdi, %rax
	movq	%rdi, -48(%rbp)
	movq	%rax, %rdi
	callq	__ZN68_$LT$alloc..vec..Vec$LT$T$GT$$u20$as$u20$core..ops..deref..Deref$GT$5deref17h269a6a1f82a2c11cE
	movq	%rax, -56(%rbp)
	movq	%rdx, -64(%rbp)
	movq	-56(%rbp), %rdi
	movq	-64(%rbp), %rsi
	callq	__ZN4core5slice29_$LT$impl$u20$$u5b$T$u5d$$GT$4iter17h890bf96def5f1290E
	movq	%rax, -72(%rbp)
	movq	%rdx, -80(%rbp)
	movq	-48(%rbp), %rax
	addq	$24, %rax
	movq	%rax, %rdi
	callq	__ZN4core6option15Option$LT$T$GT$6as_ref17hd6955c1ecc448e74E
	movq	%rax, -88(%rbp)
	movq	-88(%rbp), %rdi
	callq	__ZN4core6option15Option$LT$T$GT$3map17he52fe87d9d1414aaE
	movq	%rax, -96(%rbp)
	movq	-96(%rbp), %rdi
	callq	__ZN91_$LT$core..option..Option$LT$T$GT$$u20$as$u20$core..iter..traits..collect..IntoIterator$GT$9into_iter17h7d7c9c0d3d57fdd6E
	movq	%rax, -104(%rbp)
	movq	-72(%rbp), %rax
	movq	%rax, -24(%rbp)
	movq	-80(%rbp), %rcx
	movq	%rcx, -16(%rbp)
	movq	-104(%rbp), %rdx
	movq	%rdx, -8(%rbp)
	movl	$24, %edi
	movl	$8, %esi
	callq	__ZN5alloc5alloc15exchange_malloc17hfd65eae3ebf508cbE
	movq	%rax, %rcx
	movq	-24(%rbp), %rdx
	movq	%rdx, (%rax)
	movq	-16(%rbp), %rdx
	movq	%rdx, 8(%rax)
	movq	-8(%rbp), %rdx
	movq	%rdx, 16(%rax)
	movq	%rcx, -112(%rbp)
	movq	-112(%rbp), %rax
	movq	%rax, -40(%rbp)
	leaq	l___unnamed_16(%rip), %rcx
	movq	%rcx, -32(%rbp)
	movq	-40(%rbp), %rax
	movq	-32(%rbp), %rdx
	addq	$112, %rsp
	popq	%rbp
	retq
	.cfi_endproc

	.p2align	4, 0x90
__ZN3syn10punctuated23Punctuated$LT$T$C$P$GT$5first17h5aeeab3e4e4d05cbE:
Lfunc_begin27:
	.cfi_startproc
	.cfi_personality 155, _rust_eh_personality
	.cfi_lsda 16, Lexception27
	pushq	%rbp
	.cfi_def_cfa_offset 16
	.cfi_offset %rbp, -16
	movq	%rsp, %rbp
	.cfi_def_cfa_register %rbp
	subq	$48, %rsp
	callq	__ZN3syn10punctuated23Punctuated$LT$T$C$P$GT$4iter17hbced021783405614E
	movq	%rdx, -24(%rbp)
	movq	%rax, -32(%rbp)
	jmp	LBB81_2
LBB81_1:
	movq	-16(%rbp), %rdi
	callq	__Unwind_Resume
	ud2
LBB81_2:
Ltmp358:
	leaq	-32(%rbp), %rdi
	callq	__ZN89_$LT$syn..punctuated..Iter$LT$T$GT$$u20$as$u20$core..iter..traits..iterator..Iterator$GT$4next17h6a5feaf953a3b7a2E
Ltmp359:
	movq	%rax, -40(%rbp)
	jmp	LBB81_3
LBB81_3:
	leaq	-32(%rbp), %rdi
	callq	__ZN4core3ptr13drop_in_place17hc8e9f9d1502d99c0E
	jmp	LBB81_5
LBB81_4:
	leaq	-32(%rbp), %rdi
	callq	__ZN4core3ptr13drop_in_place17hc8e9f9d1502d99c0E
	jmp	LBB81_1
LBB81_5:
	movq	-40(%rbp), %rax
	addq	$48, %rsp
	popq	%rbp
	retq
LBB81_6:
Ltmp360:
	movq	%rax, -16(%rbp)
	movl	%edx, -8(%rbp)
	jmp	LBB81_4
Lfunc_end27:
	.cfi_endproc
	.section	__TEXT,__gcc_except_tab
	.p2align	2
GCC_except_table81:
Lexception27:
	.byte	255
	.byte	255
	.byte	1
	.uleb128 Lcst_end27-Lcst_begin27
Lcst_begin27:
	.uleb128 Lfunc_begin27-Lfunc_begin27
	.uleb128 Ltmp358-Lfunc_begin27
	.byte	0
	.byte	0
	.uleb128 Ltmp358-Lfunc_begin27
	.uleb128 Ltmp359-Ltmp358
	.uleb128 Ltmp360-Lfunc_begin27
	.byte	0
	.uleb128 Ltmp359-Lfunc_begin27
	.uleb128 Lfunc_end27-Ltmp359
	.byte	0
	.byte	0
Lcst_end27:
	.p2align	2

	.section	__TEXT,__text,regular,pure_instructions
	.p2align	4, 0x90
__ZN3syn10punctuated23Punctuated$LT$T$C$P$GT$8is_empty17h91b55dc210f0dd16E:
	.cfi_startproc
	pushq	%rbp
	.cfi_def_cfa_offset 16
	.cfi_offset %rbp, -16
	movq	%rsp, %rbp
	.cfi_def_cfa_register %rbp
	subq	$32, %rsp
	movq	%rdi, %rax
	movq	%rdi, -16(%rbp)
	movq	%rax, %rdi
	callq	__ZN5alloc3vec12Vec$LT$T$GT$3len17h45f6990f5b2a63eaE
	movq	%rax, -24(%rbp)
	jmp	LBB82_5
LBB82_1:
	movb	$1, -1(%rbp)
	jmp	LBB82_4
LBB82_2:
	movb	$0, -1(%rbp)
	jmp	LBB82_4
LBB82_3:
	movq	-16(%rbp), %rax
	addq	$24, %rax
	movq	%rax, %rdi
	callq	__ZN4core6option15Option$LT$T$GT$7is_none17hf2e97031c202c719E
	movb	%al, -25(%rbp)
	jmp	LBB82_6
LBB82_4:
	movb	-1(%rbp), %al
	andb	$1, %al
	movzbl	%al, %eax
	addq	$32, %rsp
	popq	%rbp
	retq
LBB82_5:
	movq	-24(%rbp), %rax
	cmpq	$0, %rax
	je	LBB82_3
	jmp	LBB82_2
LBB82_6:
	movb	-25(%rbp), %al
	testb	$1, %al
	jne	LBB82_1
	jmp	LBB82_2
	.cfi_endproc

	.p2align	4, 0x90
__ZN3syn3lit6LitInt12base10_parse17h928d92383e65c03aE:
	.cfi_startproc
	pushq	%rbp
	.cfi_def_cfa_offset 16
	.cfi_offset %rbp, -16
	movq	%rsp, %rbp
	.cfi_def_cfa_register %rbp
	subq	$64, %rsp
	movq	%rdi, %rax
	movq	%rsi, -32(%rbp)
	movq	-32(%rbp), %rcx
	movq	%rdi, -40(%rbp)
	movq	%rcx, %rdi
	movq	%rax, -48(%rbp)
	callq	__ZN3syn3lit6LitInt13base10_digits17h32970076d64b8af5E
	movq	%rax, -56(%rbp)
	movq	%rdx, -64(%rbp)
	leaq	-24(%rbp), %rdi
	movq	-56(%rbp), %rsi
	movq	-64(%rbp), %rdx
	callq	__ZN4core3str21_$LT$impl$u20$str$GT$5parse17h72cc64aad41fae54E
	leaq	-32(%rbp), %rax
	movq	%rax, -8(%rbp)
	movq	-8(%rbp), %rdx
	movq	-40(%rbp), %rdi
	leaq	-24(%rbp), %rsi
	callq	__ZN4core6result19Result$LT$T$C$E$GT$7map_err17hb333bd8d5fa67accE
	movq	-48(%rbp), %rax
	addq	$64, %rsp
	popq	%rbp
	retq
	.cfi_endproc

	.p2align	4, 0x90
__ZN3syn3lit6LitInt12base10_parse28_$u7b$$u7b$closure$u7d$$u7d$17ha63e05fd05d6ee84E:
Lfunc_begin28:
	.cfi_startproc
	.cfi_personality 155, _rust_eh_personality
	.cfi_lsda 16, Lexception28
	pushq	%rbp
	.cfi_def_cfa_offset 16
	.cfi_offset %rbp, -16
	movq	%rsp, %rbp
	.cfi_def_cfa_register %rbp
	subq	$64, %rsp
	movq	%rdi, %rax
	movb	$0, -25(%rbp)
	movb	$1, -25(%rbp)
	movq	(%rsi), %rcx
Ltmp361:
	movq	%rdi, -40(%rbp)
	movq	%rcx, %rdi
	movb	%dl, -41(%rbp)
	movq	%rax, -56(%rbp)
	callq	__ZN3syn3lit6LitInt4span17h26fa1713fa365249E
Ltmp362:
	movl	%eax, -60(%rbp)
	jmp	LBB84_2
LBB84_1:
	movq	-24(%rbp), %rdi
	callq	__Unwind_Resume
	ud2
LBB84_2:
	movl	-60(%rbp), %eax
	movl	%eax, -4(%rbp)
	movl	-4(%rbp), %ecx
	movl	%ecx, -32(%rbp)
	movb	$0, -25(%rbp)
	movl	-32(%rbp), %esi
Ltmp363:
	movb	-41(%rbp), %dl
	movzbl	%dl, %edx
	movq	-40(%rbp), %rdi
	callq	__ZN3syn5error5Error3new17hd46b319164575fecE
Ltmp364:
	jmp	LBB84_3
LBB84_3:
	movq	-56(%rbp), %rax
	addq	$64, %rsp
	popq	%rbp
	retq
LBB84_4:
	movb	$0, -25(%rbp)
	jmp	LBB84_1
LBB84_5:
	testb	$1, -25(%rbp)
	jne	LBB84_4
	jmp	LBB84_1
LBB84_6:
Ltmp365:
	movq	%rax, -24(%rbp)
	movl	%edx, -16(%rbp)
	jmp	LBB84_5
Lfunc_end28:
	.cfi_endproc
	.section	__TEXT,__gcc_except_tab
	.p2align	2
GCC_except_table84:
Lexception28:
	.byte	255
	.byte	255
	.byte	1
	.uleb128 Lcst_end28-Lcst_begin28
Lcst_begin28:
	.uleb128 Ltmp361-Lfunc_begin28
	.uleb128 Ltmp362-Ltmp361
	.uleb128 Ltmp365-Lfunc_begin28
	.byte	0
	.uleb128 Ltmp362-Lfunc_begin28
	.uleb128 Ltmp363-Ltmp362
	.byte	0
	.byte	0
	.uleb128 Ltmp363-Lfunc_begin28
	.uleb128 Ltmp364-Ltmp363
	.uleb128 Ltmp365-Lfunc_begin28
	.byte	0
Lcst_end28:
	.p2align	2

	.section	__TEXT,__text,regular,pure_instructions
	.p2align	4, 0x90
__ZN3syn4path7parsing33_$LT$impl$u20$syn..path..Path$GT$8is_ident17h514134955d32bad1E:
	.cfi_startproc
	pushq	%rbp
	.cfi_def_cfa_offset 16
	.cfi_offset %rbp, -16
	movq	%rsp, %rbp
	.cfi_def_cfa_register %rbp
	subq	$48, %rsp
	movq	%rsi, -40(%rbp)
	movq	%rdx, -32(%rbp)
	callq	__ZN3syn4path7parsing33_$LT$impl$u20$syn..path..Path$GT$9get_ident17h320a0f3994afee88E
	movq	%rax, -16(%rbp)
	movq	-16(%rbp), %rax
	testq	%rax, %rax
	setne	%cl
	movzbl	%cl, %edx
	movl	%edx, %eax
	je	LBB85_2
	jmp	LBB85_7
LBB85_7:
	jmp	LBB85_4
LBB85_2:
	movb	$0, -17(%rbp)
	jmp	LBB85_6
	ud2
LBB85_4:
	movq	-16(%rbp), %rax
	movq	%rax, -8(%rbp)
	leaq	-8(%rbp), %rdi
	leaq	-40(%rbp), %rsi
	callq	__ZN4core3cmp5impls69_$LT$impl$u20$core..cmp..PartialEq$LT$$RF$B$GT$$u20$for$u20$$RF$A$GT$2eq17h137200db1cb6b733E
	andb	$1, %al
	movb	%al, -17(%rbp)
	jmp	LBB85_6
LBB85_6:
	movb	-17(%rbp), %al
	andb	$1, %al
	movzbl	%al, %eax
	addq	$48, %rsp
	popq	%rbp
	retq
	.cfi_endproc

	.p2align	4, 0x90
__ZN3syn4path7parsing33_$LT$impl$u20$syn..path..Path$GT$8is_ident17hec0d8b848c7ccbb4E:
	.cfi_startproc
	pushq	%rbp
	.cfi_def_cfa_offset 16
	.cfi_offset %rbp, -16
	movq	%rsp, %rbp
	.cfi_def_cfa_register %rbp
	subq	$32, %rsp
	movq	%rsi, -32(%rbp)
	callq	__ZN3syn4path7parsing33_$LT$impl$u20$syn..path..Path$GT$9get_ident17h320a0f3994afee88E
	movq	%rax, -16(%rbp)
	movq	-16(%rbp), %rax
	testq	%rax, %rax
	setne	%cl
	movzbl	%cl, %edx
	movl	%edx, %eax
	je	LBB86_2
	jmp	LBB86_7
LBB86_7:
	jmp	LBB86_4
LBB86_2:
	movb	$0, -17(%rbp)
	jmp	LBB86_6
	ud2
LBB86_4:
	movq	-16(%rbp), %rax
	movq	%rax, -8(%rbp)
	leaq	-8(%rbp), %rdi
	leaq	-32(%rbp), %rsi
	callq	__ZN4core3cmp5impls69_$LT$impl$u20$core..cmp..PartialEq$LT$$RF$B$GT$$u20$for$u20$$RF$A$GT$2eq17h8d61e661adedfaabE
	andb	$1, %al
	movb	%al, -17(%rbp)
	jmp	LBB86_6
LBB86_6:
	movb	-17(%rbp), %al
	andb	$1, %al
	movzbl	%al, %eax
	addq	$32, %rsp
	popq	%rbp
	retq
	.cfi_endproc

	.p2align	4, 0x90
__ZN3syn5parse17h12b14f788425eeb9E:
	.cfi_startproc
	pushq	%rbp
	.cfi_def_cfa_offset 16
	.cfi_offset %rbp, -16
	movq	%rsp, %rbp
	.cfi_def_cfa_register %rbp
	subq	$32, %rsp
	movq	%rdi, %rax
	movl	%esi, -12(%rbp)
	movl	-12(%rbp), %ecx
	movl	%ecx, -16(%rbp)
	movl	-16(%rbp), %ecx
	movl	%ecx, -8(%rbp)
	movl	-8(%rbp), %esi
	movq	%rax, -24(%rbp)
	callq	__ZN3syn5parse6Parser5parse17h2219365393b90915E
	movq	-24(%rbp), %rax
	addq	$32, %rsp
	popq	%rbp
	retq
	.cfi_endproc

	.p2align	4, 0x90
__ZN3syn5parse6Parser5parse17h2219365393b90915E:
Lfunc_begin29:
	.cfi_startproc
	.cfi_personality 155, _rust_eh_personality
	.cfi_lsda 16, Lexception29
	pushq	%rbp
	.cfi_def_cfa_offset 16
	.cfi_offset %rbp, -16
	movq	%rsp, %rbp
	.cfi_def_cfa_register %rbp
	subq	$96, %rsp
	movq	%rdi, %rax
	movl	%esi, -68(%rbp)
	movl	-68(%rbp), %ecx
	movl	%ecx, -72(%rbp)
	movb	$0, -17(%rbp)
	movb	$1, -17(%rbp)
	movl	-72(%rbp), %ecx
	movl	%ecx, -24(%rbp)
	movl	-24(%rbp), %esi
Ltmp366:
	leaq	-64(%rbp), %rdx
	movq	%rdi, -80(%rbp)
	movq	%rdx, %rdi
	movq	%rax, -88(%rbp)
	callq	__ZN95_$LT$proc_macro2..TokenStream$u20$as$u20$core..convert..From$LT$proc_macro..TokenStream$GT$$GT$4from17h4fefc1f5d44f9cb0E
Ltmp367:
	jmp	LBB88_1
LBB88_1:
	movb	$0, -17(%rbp)
Ltmp368:
	leaq	-64(%rbp), %rsi
	movq	-80(%rbp), %rdi
	callq	__ZN40_$LT$F$u20$as$u20$syn..parse..Parser$GT$6parse217h8f0613be57e4ef19E
Ltmp369:
	jmp	LBB88_3
LBB88_2:
	movq	-16(%rbp), %rdi
	callq	__Unwind_Resume
	ud2
LBB88_3:
	movb	$0, -17(%rbp)
	movq	-88(%rbp), %rax
	addq	$96, %rsp
	popq	%rbp
	retq
LBB88_4:
	movb	$0, -17(%rbp)
	jmp	LBB88_2
LBB88_5:
	testb	$1, -17(%rbp)
	jne	LBB88_4
	jmp	LBB88_2
LBB88_6:
Ltmp370:
	movq	%rax, -16(%rbp)
	movl	%edx, -8(%rbp)
	jmp	LBB88_5
Lfunc_end29:
	.cfi_endproc
	.section	__TEXT,__gcc_except_tab
	.p2align	2
GCC_except_table88:
Lexception29:
	.byte	255
	.byte	255
	.byte	1
	.uleb128 Lcst_end29-Lcst_begin29
Lcst_begin29:
	.uleb128 Ltmp366-Lfunc_begin29
	.uleb128 Ltmp369-Ltmp366
	.uleb128 Ltmp370-Lfunc_begin29
	.byte	0
	.uleb128 Ltmp369-Lfunc_begin29
	.uleb128 Lfunc_end29-Ltmp369
	.byte	0
	.byte	0
Lcst_end29:
	.p2align	2

	.section	__TEXT,__text,regular,pure_instructions
	.p2align	4, 0x90
__ZN40_$LT$F$u20$as$u20$syn..parse..Parser$GT$6parse217h8f0613be57e4ef19E:
Lfunc_begin30:
	.cfi_startproc
	.cfi_personality 155, _rust_eh_personality
	.cfi_lsda 16, Lexception30
	pushq	%rbp
	.cfi_def_cfa_offset 16
	.cfi_offset %rbp, -16
	movq	%rsp, %rbp
	.cfi_def_cfa_register %rbp
	subq	$1776, %rsp
	movq	%rdi, %rax
	movb	$0, -25(%rbp)
	movb	$0, -26(%rbp)
	movb	$1, -26(%rbp)
	movq	32(%rsi), %rcx
	movq	%rcx, -1616(%rbp)
	movq	24(%rsi), %rcx
	movq	%rcx, -1624(%rbp)
	movq	16(%rsi), %rcx
	movq	%rcx, -1632(%rbp)
	movq	(%rsi), %rcx
	movq	8(%rsi), %rdx
	movq	%rdx, -1640(%rbp)
	movq	%rcx, -1648(%rbp)
Ltmp371:
	leaq	-1648(%rbp), %rcx
	movq	%rdi, -1672(%rbp)
	movq	%rcx, %rdi
	movq	%rax, -1680(%rbp)
	callq	__ZN3syn6buffer11TokenBuffer4new217h9c9864fad5ab7ba2E
Ltmp372:
	movq	%rdx, -1688(%rbp)
	movq	%rax, -1696(%rbp)
	jmp	LBB89_2
LBB89_1:
	movq	-24(%rbp), %rdi
	callq	__Unwind_Resume
	ud2
LBB89_2:
	movq	-1696(%rbp), %rax
	movq	%rax, -1664(%rbp)
	movq	-1688(%rbp), %rcx
	movq	%rcx, -1656(%rbp)
Ltmp373:
	leaq	-1608(%rbp), %rdi
	leaq	-1664(%rbp), %rsi
	callq	__ZN3syn5parse22tokens_to_parse_buffer17he69c91137a7d7bebE
Ltmp374:
	jmp	LBB89_3
LBB89_3:
	movb	$0, -26(%rbp)
	leaq	-1608(%rbp), %rax
	movq	%rax, -792(%rbp)
	movq	-792(%rbp), %rsi
Ltmp375:
	leaq	-1056(%rbp), %rdi
	callq	__ZN4core3ops8function6FnOnce9call_once17h7230b75c5709f6c1E
Ltmp376:
	jmp	LBB89_5
LBB89_4:
	leaq	-1664(%rbp), %rdi
	callq	__ZN4core3ptr13drop_in_place17h940a5b30f6bc1232E
	jmp	LBB89_38
LBB89_5:
Ltmp377:
	leaq	-1320(%rbp), %rdi
	leaq	-1056(%rbp), %rsi
	callq	__ZN73_$LT$core..result..Result$LT$T$C$E$GT$$u20$as$u20$core..ops..try..Try$GT$11into_result17h1b3015a71b87745bE
Ltmp378:
	jmp	LBB89_7
LBB89_6:
	leaq	-1608(%rbp), %rdi
	callq	__ZN4core3ptr13drop_in_place17ha7fefe3ba66bec1cE
	jmp	LBB89_4
LBB89_7:
	movq	-1320(%rbp), %rax
	testq	%rax, %rax
	je	LBB89_9
	jmp	LBB89_46
LBB89_46:
	jmp	LBB89_11
LBB89_8:
	jmp	LBB89_6
LBB89_9:
	leaq	-1312(%rbp), %rsi
	leaq	-712(%rbp), %rax
	movl	$256, %ecx
	movq	%rax, %rdi
	movq	%rcx, %rdx
	movq	%rax, -1704(%rbp)
	movq	%rcx, -1712(%rbp)
	callq	_memcpy
	movb	$1, -25(%rbp)
	leaq	-1576(%rbp), %rdi
	movq	-1704(%rbp), %rsi
	movq	-1712(%rbp), %rdx
	movq	%rax, -1720(%rbp)
	callq	_memcpy
Ltmp384:
	leaq	-432(%rbp), %rdi
	leaq	-1608(%rbp), %rsi
	movq	%rax, -1728(%rbp)
	callq	__ZN3syn5parse11ParseBuffer16check_unexpected17h87fbcdf817e6b882E
Ltmp385:
	jmp	LBB89_19
	ud2
LBB89_11:
	movq	-1296(%rbp), %rax
	movq	%rax, -768(%rbp)
	movq	-1312(%rbp), %rax
	movq	-1304(%rbp), %rcx
	movq	%rcx, -776(%rbp)
	movq	%rax, -784(%rbp)
	movq	-768(%rbp), %rax
	movq	%rax, -720(%rbp)
	movq	-784(%rbp), %rax
	movq	-776(%rbp), %rcx
	movq	%rcx, -728(%rbp)
	movq	%rax, -736(%rbp)
Ltmp379:
	leaq	-760(%rbp), %rdi
	leaq	-736(%rbp), %rsi
	callq	__ZN50_$LT$T$u20$as$u20$core..convert..From$LT$T$GT$$GT$4from17hed6d4a54d5eec626E
Ltmp380:
	jmp	LBB89_13
LBB89_12:
	movq	-1680(%rbp), %rax
	addq	$1776, %rsp
	popq	%rbp
	retq
LBB89_13:
Ltmp381:
	leaq	-760(%rbp), %rsi
	movq	-1672(%rbp), %rdi
	callq	__ZN73_$LT$core..result..Result$LT$T$C$E$GT$$u20$as$u20$core..ops..try..Try$GT$10from_error17h5fc8b6ba0f7132cbE
Ltmp382:
	jmp	LBB89_14
LBB89_14:
	movb	$0, -25(%rbp)
LBB89_15:
Ltmp395:
	leaq	-1608(%rbp), %rdi
	callq	__ZN4core3ptr13drop_in_place17ha7fefe3ba66bec1cE
Ltmp396:
	jmp	LBB89_16
LBB89_16:
Ltmp397:
	leaq	-1664(%rbp), %rdi
	callq	__ZN4core3ptr13drop_in_place17h940a5b30f6bc1232E
Ltmp398:
	jmp	LBB89_17
LBB89_17:
	jmp	LBB89_12
LBB89_18:
	movb	$0, -25(%rbp)
	leaq	-1576(%rbp), %rdi
	callq	__ZN4core3ptr13drop_in_place17h0be66d48d2f34059E
	jmp	LBB89_6
LBB89_19:
Ltmp386:
	leaq	-456(%rbp), %rdi
	leaq	-432(%rbp), %rsi
	callq	__ZN73_$LT$core..result..Result$LT$T$C$E$GT$$u20$as$u20$core..ops..try..Try$GT$11into_result17h0536305ca2c9908eE
Ltmp387:
	jmp	LBB89_20
LBB89_20:
	movq	-456(%rbp), %rax
	testq	%rax, %rax
	setne	%cl
	movzbl	%cl, %edx
	movl	%edx, %eax
	je	LBB89_22
	jmp	LBB89_47
LBB89_47:
	jmp	LBB89_24
LBB89_21:
	jmp	LBB89_18
LBB89_22:
Ltmp399:
	leaq	-1608(%rbp), %rdi
	callq	__ZN3syn5parse11ParseBuffer6cursor17h7c8e4b135f72e810E
Ltmp400:
	movq	%rdx, -1736(%rbp)
	movq	%rax, -1744(%rbp)
	jmp	LBB89_28
	ud2
LBB89_24:
	movq	-440(%rbp), %rax
	movq	%rax, -392(%rbp)
	movq	-456(%rbp), %rax
	movq	-448(%rbp), %rcx
	movq	%rcx, -400(%rbp)
	movq	%rax, -408(%rbp)
	movq	-392(%rbp), %rax
	movq	%rax, -344(%rbp)
	movq	-408(%rbp), %rax
	movq	-400(%rbp), %rcx
	movq	%rcx, -352(%rbp)
	movq	%rax, -360(%rbp)
Ltmp388:
	leaq	-384(%rbp), %rdi
	leaq	-360(%rbp), %rsi
	callq	__ZN50_$LT$T$u20$as$u20$core..convert..From$LT$T$GT$$GT$4from17hed6d4a54d5eec626E
Ltmp389:
	jmp	LBB89_25
LBB89_25:
Ltmp390:
	leaq	-384(%rbp), %rsi
	movq	-1672(%rbp), %rdi
	callq	__ZN73_$LT$core..result..Result$LT$T$C$E$GT$$u20$as$u20$core..ops..try..Try$GT$10from_error17h5fc8b6ba0f7132cbE
Ltmp391:
	jmp	LBB89_26
LBB89_26:
	movb	$0, -25(%rbp)
Ltmp393:
	leaq	-1576(%rbp), %rdi
	callq	__ZN4core3ptr13drop_in_place17h0be66d48d2f34059E
Ltmp394:
	jmp	LBB89_27
LBB89_27:
	movb	$0, -25(%rbp)
	jmp	LBB89_15
LBB89_28:
Ltmp401:
	movq	-1744(%rbp), %rdi
	movq	-1736(%rbp), %rsi
	callq	__ZN3syn5parse33span_of_unexpected_ignoring_nones17h6c157675942dfe1fE
Ltmp402:
	movq	%rax, -1752(%rbp)
	jmp	LBB89_29
LBB89_29:
	movq	-1752(%rbp), %rax
	movq	%rax, -8(%rbp)
	movq	-8(%rbp), %rcx
	movq	%rcx, -336(%rbp)
	movl	-336(%rbp), %edx
	movl	%edx, %ecx
	cmpq	$1, %rcx
	je	LBB89_31
	movb	$0, -25(%rbp)
	leaq	-288(%rbp), %rax
	movq	%rax, %rcx
	leaq	-1576(%rbp), %rdx
	movq	%rcx, %rdi
	movq	%rdx, %rsi
	movl	$256, %ecx
	movq	%rcx, %rdx
	movq	%rax, -1760(%rbp)
	movq	%rcx, -1768(%rbp)
	callq	_memcpy
	movq	-1672(%rbp), %rax
	addq	$8, %rax
	movq	-1760(%rbp), %rcx
	movq	%rax, %rdi
	movq	%rcx, %rsi
	movq	-1768(%rbp), %rdx
	callq	_memcpy
	movq	-1672(%rbp), %rax
	movq	$0, (%rax)
	jmp	LBB89_33
LBB89_31:
	movl	-332(%rbp), %eax
	movl	%eax, -328(%rbp)
	movl	-328(%rbp), %eax
	movl	%eax, -296(%rbp)
	movl	-296(%rbp), %esi
Ltmp403:
	leaq	L___unnamed_17(%rip), %rdx
	leaq	-320(%rbp), %rdi
	movl	$16, %ecx
	callq	__ZN3syn5error5Error3new17h7e25014417631d0bE
Ltmp404:
	jmp	LBB89_32
LBB89_32:
	movq	-320(%rbp), %rax
	movq	-1672(%rbp), %rcx
	movq	%rax, 8(%rcx)
	movq	-312(%rbp), %rax
	movq	%rax, 16(%rcx)
	movq	-304(%rbp), %rax
	movq	%rax, 24(%rcx)
	movq	$1, (%rcx)
LBB89_33:
	testb	$1, -25(%rbp)
	jne	LBB89_39
LBB89_34:
	movb	$0, -25(%rbp)
Ltmp409:
	leaq	-1608(%rbp), %rdi
	callq	__ZN4core3ptr13drop_in_place17ha7fefe3ba66bec1cE
Ltmp410:
	jmp	LBB89_35
LBB89_35:
Ltmp412:
	leaq	-1664(%rbp), %rdi
	callq	__ZN4core3ptr13drop_in_place17h940a5b30f6bc1232E
Ltmp413:
	jmp	LBB89_36
LBB89_36:
	jmp	LBB89_12
LBB89_37:
	movb	$0, -26(%rbp)
	jmp	LBB89_1
LBB89_38:
	testb	$1, -26(%rbp)
	jne	LBB89_37
	jmp	LBB89_1
LBB89_39:
	movb	$0, -25(%rbp)
Ltmp406:
	leaq	-1576(%rbp), %rdi
	callq	__ZN4core3ptr13drop_in_place17h0be66d48d2f34059E
Ltmp407:
	jmp	LBB89_34
LBB89_40:
Ltmp414:
	movq	%rax, -24(%rbp)
	movl	%edx, -16(%rbp)
	jmp	LBB89_38
LBB89_41:
Ltmp411:
	movq	%rax, -24(%rbp)
	movl	%edx, -16(%rbp)
	jmp	LBB89_4
LBB89_42:
Ltmp408:
	movq	%rax, -24(%rbp)
	movl	%edx, -16(%rbp)
	jmp	LBB89_6
LBB89_43:
Ltmp383:
	movq	%rax, -24(%rbp)
	movl	%edx, -16(%rbp)
	jmp	LBB89_8
LBB89_44:
Ltmp405:
	movq	%rax, -24(%rbp)
	movl	%edx, -16(%rbp)
	jmp	LBB89_18
LBB89_45:
Ltmp392:
	movq	%rax, -24(%rbp)
	movl	%edx, -16(%rbp)
	jmp	LBB89_21
Lfunc_end30:
	.cfi_endproc
	.section	__TEXT,__gcc_except_tab
	.p2align	2
GCC_except_table89:
Lexception30:
	.byte	255
	.byte	255
	.byte	1
	.uleb128 Lcst_end30-Lcst_begin30
Lcst_begin30:
	.uleb128 Ltmp371-Lfunc_begin30
	.uleb128 Ltmp372-Ltmp371
	.uleb128 Ltmp414-Lfunc_begin30
	.byte	0
	.uleb128 Ltmp372-Lfunc_begin30
	.uleb128 Ltmp373-Ltmp372
	.byte	0
	.byte	0
	.uleb128 Ltmp373-Lfunc_begin30
	.uleb128 Ltmp374-Ltmp373
	.uleb128 Ltmp411-Lfunc_begin30
	.byte	0
	.uleb128 Ltmp375-Lfunc_begin30
	.uleb128 Ltmp376-Ltmp375
	.uleb128 Ltmp408-Lfunc_begin30
	.byte	0
	.uleb128 Ltmp376-Lfunc_begin30
	.uleb128 Ltmp377-Ltmp376
	.byte	0
	.byte	0
	.uleb128 Ltmp377-Lfunc_begin30
	.uleb128 Ltmp378-Ltmp377
	.uleb128 Ltmp408-Lfunc_begin30
	.byte	0
	.uleb128 Ltmp378-Lfunc_begin30
	.uleb128 Ltmp384-Ltmp378
	.byte	0
	.byte	0
	.uleb128 Ltmp384-Lfunc_begin30
	.uleb128 Ltmp385-Ltmp384
	.uleb128 Ltmp405-Lfunc_begin30
	.byte	0
	.uleb128 Ltmp379-Lfunc_begin30
	.uleb128 Ltmp382-Ltmp379
	.uleb128 Ltmp383-Lfunc_begin30
	.byte	0
	.uleb128 Ltmp395-Lfunc_begin30
	.uleb128 Ltmp396-Ltmp395
	.uleb128 Ltmp411-Lfunc_begin30
	.byte	0
	.uleb128 Ltmp397-Lfunc_begin30
	.uleb128 Ltmp398-Ltmp397
	.uleb128 Ltmp414-Lfunc_begin30
	.byte	0
	.uleb128 Ltmp398-Lfunc_begin30
	.uleb128 Ltmp386-Ltmp398
	.byte	0
	.byte	0
	.uleb128 Ltmp386-Lfunc_begin30
	.uleb128 Ltmp400-Ltmp386
	.uleb128 Ltmp405-Lfunc_begin30
	.byte	0
	.uleb128 Ltmp388-Lfunc_begin30
	.uleb128 Ltmp391-Ltmp388
	.uleb128 Ltmp392-Lfunc_begin30
	.byte	0
	.uleb128 Ltmp393-Lfunc_begin30
	.uleb128 Ltmp394-Ltmp393
	.uleb128 Ltmp408-Lfunc_begin30
	.byte	0
	.uleb128 Ltmp401-Lfunc_begin30
	.uleb128 Ltmp402-Ltmp401
	.uleb128 Ltmp405-Lfunc_begin30
	.byte	0
	.uleb128 Ltmp402-Lfunc_begin30
	.uleb128 Ltmp403-Ltmp402
	.byte	0
	.byte	0
	.uleb128 Ltmp403-Lfunc_begin30
	.uleb128 Ltmp404-Ltmp403
	.uleb128 Ltmp405-Lfunc_begin30
	.byte	0
	.uleb128 Ltmp409-Lfunc_begin30
	.uleb128 Ltmp410-Ltmp409
	.uleb128 Ltmp411-Lfunc_begin30
	.byte	0
	.uleb128 Ltmp412-Lfunc_begin30
	.uleb128 Ltmp413-Ltmp412
	.uleb128 Ltmp414-Lfunc_begin30
	.byte	0
	.uleb128 Ltmp406-Lfunc_begin30
	.uleb128 Ltmp407-Ltmp406
	.uleb128 Ltmp408-Lfunc_begin30
	.byte	0
Lcst_end30:
	.p2align	2

	.section	__TEXT,__text,regular,pure_instructions
	.p2align	4, 0x90
__ZN43_$LT$T$u20$as$u20$syn..spanned..Spanned$GT$4span17h2d0b2c16ae758feeE:
	.cfi_startproc
	pushq	%rbp
	.cfi_def_cfa_offset 16
	.cfi_offset %rbp, -16
	movq	%rsp, %rbp
	.cfi_def_cfa_register %rbp
	subq	$16, %rsp
	callq	__ZN45_$LT$T$u20$as$u20$quote..spanned..Spanned$GT$6__span17h6405aee19b3ad743E
	movl	%eax, -4(%rbp)
	movl	-4(%rbp), %eax
	movl	%eax, -8(%rbp)
	movl	-8(%rbp), %eax
	addq	$16, %rsp
	popq	%rbp
	retq
	.cfi_endproc

	.p2align	4, 0x90
__ZN43_$LT$T$u20$as$u20$syn..spanned..Spanned$GT$4span17h6d70d7f414e6c442E:
	.cfi_startproc
	pushq	%rbp
	.cfi_def_cfa_offset 16
	.cfi_offset %rbp, -16
	movq	%rsp, %rbp
	.cfi_def_cfa_register %rbp
	subq	$16, %rsp
	callq	__ZN45_$LT$T$u20$as$u20$quote..spanned..Spanned$GT$6__span17h86458509c0604320E
	movl	%eax, -4(%rbp)
	movl	-4(%rbp), %eax
	movl	%eax, -8(%rbp)
	movl	-8(%rbp), %eax
	addq	$16, %rsp
	popq	%rbp
	retq
	.cfi_endproc

	.p2align	4, 0x90
__ZN43_$LT$T$u20$as$u20$syn..spanned..Spanned$GT$4span17h7fa0b69354951bf3E:
	.cfi_startproc
	pushq	%rbp
	.cfi_def_cfa_offset 16
	.cfi_offset %rbp, -16
	movq	%rsp, %rbp
	.cfi_def_cfa_register %rbp
	subq	$16, %rsp
	callq	__ZN45_$LT$T$u20$as$u20$quote..spanned..Spanned$GT$6__span17h98d587bde01b2b0eE
	movl	%eax, -4(%rbp)
	movl	-4(%rbp), %eax
	movl	%eax, -8(%rbp)
	movl	-8(%rbp), %eax
	addq	$16, %rsp
	popq	%rbp
	retq
	.cfi_endproc

	.p2align	4, 0x90
__ZN45_$LT$T$u20$as$u20$quote..spanned..Spanned$GT$6__span17h6405aee19b3ad743E:
	.cfi_startproc
	pushq	%rbp
	.cfi_def_cfa_offset 16
	.cfi_offset %rbp, -16
	movq	%rsp, %rbp
	.cfi_def_cfa_register %rbp
	subq	$64, %rsp
	leaq	-48(%rbp), %rax
	movq	%rdi, -64(%rbp)
	movq	%rax, %rdi
	movq	-64(%rbp), %rsi
	callq	__ZN5quote9to_tokens8ToTokens17into_token_stream17ha48337876983e908E
	leaq	-48(%rbp), %rdi
	callq	__ZN5quote7spanned10join_spans17h53aa160e0b5660f8E
	movl	%eax, -4(%rbp)
	movl	-4(%rbp), %eax
	movl	%eax, -56(%rbp)
	movl	-56(%rbp), %eax
	addq	$64, %rsp
	popq	%rbp
	retq
	.cfi_endproc

	.p2align	4, 0x90
__ZN45_$LT$T$u20$as$u20$quote..spanned..Spanned$GT$6__span17h86458509c0604320E:
	.cfi_startproc
	pushq	%rbp
	.cfi_def_cfa_offset 16
	.cfi_offset %rbp, -16
	movq	%rsp, %rbp
	.cfi_def_cfa_register %rbp
	subq	$64, %rsp
	leaq	-48(%rbp), %rax
	movq	%rdi, -64(%rbp)
	movq	%rax, %rdi
	movq	-64(%rbp), %rsi
	callq	__ZN5quote9to_tokens8ToTokens17into_token_stream17hc2cde194153cbd75E
	leaq	-48(%rbp), %rdi
	callq	__ZN5quote7spanned10join_spans17h53aa160e0b5660f8E
	movl	%eax, -4(%rbp)
	movl	-4(%rbp), %eax
	movl	%eax, -56(%rbp)
	movl	-56(%rbp), %eax
	addq	$64, %rsp
	popq	%rbp
	retq
	.cfi_endproc

	.p2align	4, 0x90
__ZN45_$LT$T$u20$as$u20$quote..spanned..Spanned$GT$6__span17h98d587bde01b2b0eE:
	.cfi_startproc
	pushq	%rbp
	.cfi_def_cfa_offset 16
	.cfi_offset %rbp, -16
	movq	%rsp, %rbp
	.cfi_def_cfa_register %rbp
	subq	$64, %rsp
	leaq	-48(%rbp), %rax
	movq	%rdi, -64(%rbp)
	movq	%rax, %rdi
	movq	-64(%rbp), %rsi
	callq	__ZN5quote9to_tokens8ToTokens17into_token_stream17h119a44e00d542fd6E
	leaq	-48(%rbp), %rdi
	callq	__ZN5quote7spanned10join_spans17h53aa160e0b5660f8E
	movl	%eax, -4(%rbp)
	movl	-4(%rbp), %eax
	movl	%eax, -56(%rbp)
	movl	-56(%rbp), %eax
	addq	$64, %rsp
	popq	%rbp
	retq
	.cfi_endproc

	.p2align	4, 0x90
__ZN47_$LT$str$u20$as$u20$alloc..string..ToString$GT$9to_string17h2713087dc9b2ec44E:
	.cfi_startproc
	pushq	%rbp
	.cfi_def_cfa_offset 16
	.cfi_offset %rbp, -16
	movq	%rsp, %rbp
	.cfi_def_cfa_register %rbp
	subq	$16, %rsp
	movq	%rdi, %rax
	movq	%rax, -8(%rbp)
	callq	__ZN76_$LT$alloc..string..String$u20$as$u20$core..convert..From$LT$$RF$str$GT$$GT$4from17h8b51888fee4786baE
	movq	-8(%rbp), %rax
	addq	$16, %rsp
	popq	%rbp
	retq
	.cfi_endproc

	.p2align	4, 0x90
__ZN4core10intrinsics19copy_nonoverlapping17h2abc710d72d7538eE:
	.cfi_startproc
	pushq	%rbp
	.cfi_def_cfa_offset 16
	.cfi_offset %rbp, -16
	movq	%rsp, %rbp
	.cfi_def_cfa_register %rbp
	subq	$16, %rsp
	imulq	$72, %rdx, %rdx
	movq	%rdi, -8(%rbp)
	movq	%rsi, %rdi
	movq	-8(%rbp), %rsi
	callq	_memcpy
	addq	$16, %rsp
	popq	%rbp
	retq
	.cfi_endproc

	.p2align	4, 0x90
__ZN4core10intrinsics19copy_nonoverlapping17h3fd33759bd599be5E:
	.cfi_startproc
	pushq	%rbp
	.cfi_def_cfa_offset 16
	.cfi_offset %rbp, -16
	movq	%rsp, %rbp
	.cfi_def_cfa_register %rbp
	subq	$16, %rsp
	shlq	$6, %rdx
	movq	%rdi, -8(%rbp)
	movq	%rsi, %rdi
	movq	-8(%rbp), %rsi
	callq	_memcpy
	addq	$16, %rsp
	popq	%rbp
	retq
	.cfi_endproc

	.p2align	4, 0x90
__ZN4core10intrinsics19copy_nonoverlapping17h85741f8f90c99582E:
	.cfi_startproc
	pushq	%rbp
	.cfi_def_cfa_offset 16
	.cfi_offset %rbp, -16
	movq	%rsp, %rbp
	.cfi_def_cfa_register %rbp
	subq	$16, %rsp
	shlq	$6, %rdx
	movq	%rdi, -8(%rbp)
	movq	%rsi, %rdi
	movq	-8(%rbp), %rsi
	callq	_memcpy
	addq	$16, %rsp
	popq	%rbp
	retq
	.cfi_endproc

	.p2align	4, 0x90
__ZN4core10intrinsics19copy_nonoverlapping17h9b424326d812a488E:
	.cfi_startproc
	pushq	%rbp
	.cfi_def_cfa_offset 16
	.cfi_offset %rbp, -16
	movq	%rsp, %rbp
	.cfi_def_cfa_register %rbp
	subq	$16, %rsp
	shlq	$0, %rdx
	movq	%rdi, -8(%rbp)
	movq	%rsi, %rdi
	movq	-8(%rbp), %rsi
	callq	_memcpy
	addq	$16, %rsp
	popq	%rbp
	retq
	.cfi_endproc

	.p2align	4, 0x90
__ZN4core10intrinsics19copy_nonoverlapping17he4c3330fd28c5c97E:
	.cfi_startproc
	pushq	%rbp
	.cfi_def_cfa_offset 16
	.cfi_offset %rbp, -16
	movq	%rsp, %rbp
	.cfi_def_cfa_register %rbp
	subq	$16, %rsp
	imulq	$40, %rdx, %rdx
	movq	%rdi, -8(%rbp)
	movq	%rsi, %rdi
	movq	-8(%rbp), %rsi
	callq	_memcpy
	addq	$16, %rsp
	popq	%rbp
	retq
	.cfi_endproc

	.p2align	4, 0x90
__ZN4core3cmp5impls69_$LT$impl$u20$core..cmp..PartialEq$LT$$RF$B$GT$$u20$for$u20$$RF$A$GT$2eq17h137200db1cb6b733E:
	.cfi_startproc
	pushq	%rbp
	.cfi_def_cfa_offset 16
	.cfi_offset %rbp, -16
	movq	%rsp, %rbp
	.cfi_def_cfa_register %rbp
	subq	$16, %rsp
	movq	(%rdi), %rdi
	movq	(%rsi), %rax
	movq	8(%rsi), %rdx
	movq	%rax, %rsi
	callq	__ZN68_$LT$proc_macro2..Ident$u20$as$u20$core..cmp..PartialEq$LT$T$GT$$GT$2eq17hc29d6b4087d2588eE
	movb	%al, -1(%rbp)
	movb	-1(%rbp), %al
	andb	$1, %al
	movzbl	%al, %eax
	addq	$16, %rsp
	popq	%rbp
	retq
	.cfi_endproc

	.p2align	4, 0x90
__ZN4core3fmt10ArgumentV13new17hdf46c77ee3fd9efaE:
	.cfi_startproc
	pushq	%rbp
	.cfi_def_cfa_offset 16
	.cfi_offset %rbp, -16
	movq	%rsp, %rbp
	.cfi_def_cfa_register %rbp
	subq	$56, %rsp
	movq	%rsi, -16(%rbp)
	movq	-16(%rbp), %rax
	movq	%rdi, -40(%rbp)
	movq	%rax, -48(%rbp)
	movq	-40(%rbp), %rax
	movq	%rax, -8(%rbp)
	movq	-8(%rbp), %rcx
	movq	%rcx, -56(%rbp)
	movq	-56(%rbp), %rax
	movq	%rax, -32(%rbp)
	movq	-48(%rbp), %rcx
	movq	%rcx, -24(%rbp)
	movq	-32(%rbp), %rax
	movq	-24(%rbp), %rdx
	addq	$56, %rsp
	popq	%rbp
	retq
	.cfi_endproc

	.p2align	4, 0x90
__ZN4core3fmt10ArgumentV13new17he15608a27697a381E:
	.cfi_startproc
	pushq	%rbp
	.cfi_def_cfa_offset 16
	.cfi_offset %rbp, -16
	movq	%rsp, %rbp
	.cfi_def_cfa_register %rbp
	subq	$56, %rsp
	movq	%rsi, -16(%rbp)
	movq	-16(%rbp), %rax
	movq	%rdi, -40(%rbp)
	movq	%rax, -48(%rbp)
	movq	-40(%rbp), %rax
	movq	%rax, -8(%rbp)
	movq	-8(%rbp), %rcx
	movq	%rcx, -56(%rbp)
	movq	-56(%rbp), %rax
	movq	%rax, -32(%rbp)
	movq	-48(%rbp), %rcx
	movq	%rcx, -24(%rbp)
	movq	-32(%rbp), %rax
	movq	-24(%rbp), %rdx
	addq	$56, %rsp
	popq	%rbp
	retq
	.cfi_endproc

	.p2align	4, 0x90
__ZN4core3fmt9Arguments6new_v117hd84a3421f18ccb71E:
	.cfi_startproc
	pushq	%rbp
	.cfi_def_cfa_offset 16
	.cfi_offset %rbp, -16
	movq	%rsp, %rbp
	.cfi_def_cfa_register %rbp
	subq	$16, %rsp
	movq	%rdi, %rax
	movq	$0, -16(%rbp)
	movq	%rsi, (%rdi)
	movq	%rdx, 8(%rdi)
	movq	-16(%rbp), %rdx
	movq	-8(%rbp), %rsi
	movq	%rdx, 16(%rdi)
	movq	%rsi, 24(%rdi)
	movq	%rcx, 32(%rdi)
	movq	%r8, 40(%rdi)
	addq	$16, %rsp
	popq	%rbp
	retq
	.cfi_endproc

	.p2align	4, 0x90
__ZN4core3mem13manually_drop21ManuallyDrop$LT$T$GT$4take17h953c4baa263d608cE:
	.cfi_startproc
	pushq	%rbp
	.cfi_def_cfa_offset 16
	.cfi_offset %rbp, -16
	movq	%rsp, %rbp
	.cfi_def_cfa_register %rbp
	subq	$16, %rsp
	movq	%rdi, %rax
	movq	%rax, -8(%rbp)
	callq	__ZN4core3ptr4read17h5778252424f7f4f6E
	movq	-8(%rbp), %rax
	addq	$16, %rsp
	popq	%rbp
	retq
	.cfi_endproc

	.p2align	4, 0x90
__ZN4core3mem14transmute_copy17h050024e8e5e1aee9E:
	.cfi_startproc
	pushq	%rbp
	.cfi_def_cfa_offset 16
	.cfi_offset %rbp, -16
	movq	%rsp, %rbp
	.cfi_def_cfa_register %rbp
	subq	$64, %rsp
	movq	%rdi, %rax
	movq	$8, -16(%rbp)
	movq	-16(%rbp), %rcx
	movq	%rsi, -24(%rbp)
	movq	%rdi, -32(%rbp)
	movq	%rax, -40(%rbp)
	movq	%rcx, -48(%rbp)
	movq	$8, -8(%rbp)
	movq	-8(%rbp), %rax
	movq	%rax, -56(%rbp)
	movq	-48(%rbp), %rax
	movq	-56(%rbp), %rcx
	cmpq	%rcx, %rax
	ja	LBB107_4
	movq	-32(%rbp), %rdi
	movq	-24(%rbp), %rsi
	callq	__ZN4core3ptr4read17h7a9af23bea03a54bE
	jmp	LBB107_6
LBB107_4:
	movq	-32(%rbp), %rdi
	movq	-24(%rbp), %rsi
	callq	__ZN4core3ptr14read_unaligned17h2c7dcb9a3206757cE
	jmp	LBB107_7
LBB107_6:
	jmp	LBB107_7
LBB107_7:
	movq	-40(%rbp), %rax
	addq	$64, %rsp
	popq	%rbp
	retq
	.cfi_endproc

	.p2align	4, 0x90
__ZN4core3mem4drop17h605428f2ab713a4fE:
	.cfi_startproc
	pushq	%rbp
	.cfi_def_cfa_offset 16
	.cfi_offset %rbp, -16
	movq	%rsp, %rbp
	.cfi_def_cfa_register %rbp
	callq	__ZN4core3ptr13drop_in_place17h4527677dd6f15223E
	popq	%rbp
	retq
	.cfi_endproc

	.p2align	4, 0x90
__ZN4core3mem4drop17he340e54df4a088d2E:
	.cfi_startproc
	pushq	%rbp
	.cfi_def_cfa_offset 16
	.cfi_offset %rbp, -16
	movq	%rsp, %rbp
	.cfi_def_cfa_register %rbp
	callq	__ZN4core3ptr13drop_in_place17h883919a024d89158E
	popq	%rbp
	retq
	.cfi_endproc

	.p2align	4, 0x90
__ZN4core3mem4swap17h2c1d1b4ee534938aE:
	.cfi_startproc
	pushq	%rbp
	.cfi_def_cfa_offset 16
	.cfi_offset %rbp, -16
	movq	%rsp, %rbp
	.cfi_def_cfa_register %rbp
	callq	__ZN4core3ptr23swap_nonoverlapping_one17h094959dddf4e3151E
	popq	%rbp
	retq
	.cfi_endproc

	.p2align	4, 0x90
__ZN4core3mem4swap17h650f770a29de146eE:
	.cfi_startproc
	pushq	%rbp
	.cfi_def_cfa_offset 16
	.cfi_offset %rbp, -16
	movq	%rsp, %rbp
	.cfi_def_cfa_register %rbp
	callq	__ZN4core3ptr23swap_nonoverlapping_one17hf79ad6955226e58bE
	popq	%rbp
	retq
	.cfi_endproc

	.p2align	4, 0x90
__ZN4core3mem4swap17hd39fe3a156ae325aE:
	.cfi_startproc
	pushq	%rbp
	.cfi_def_cfa_offset 16
	.cfi_offset %rbp, -16
	movq	%rsp, %rbp
	.cfi_def_cfa_register %rbp
	callq	__ZN4core3ptr23swap_nonoverlapping_one17hefc442880e8d80afE
	popq	%rbp
	retq
	.cfi_endproc

	.p2align	4, 0x90
__ZN4core3mem4swap17hd55991feb6b96284E:
	.cfi_startproc
	pushq	%rbp
	.cfi_def_cfa_offset 16
	.cfi_offset %rbp, -16
	movq	%rsp, %rbp
	.cfi_def_cfa_register %rbp
	callq	__ZN4core3ptr23swap_nonoverlapping_one17h7791c3949f712d8eE
	popq	%rbp
	retq
	.cfi_endproc

	.p2align	4, 0x90
__ZN4core3mem4take17h321898ce3bebc147E:
	.cfi_startproc
	pushq	%rbp
	.cfi_def_cfa_offset 16
	.cfi_offset %rbp, -16
	movq	%rsp, %rbp
	.cfi_def_cfa_register %rbp
	subq	$96, %rsp
	movq	%rdi, %rax
	leaq	-64(%rbp), %rcx
	movq	%rdi, -72(%rbp)
	movq	%rcx, %rdi
	movq	%rsi, -80(%rbp)
	movq	%rax, -88(%rbp)
	callq	__ZN72_$LT$core..option..Option$LT$T$GT$$u20$as$u20$core..default..Default$GT$7default17h4b342c7ef45abb0bE
	movq	-72(%rbp), %rdi
	movq	-80(%rbp), %rsi
	leaq	-64(%rbp), %rdx
	callq	__ZN4core3mem7replace17heeb4db0b957d239cE
	movq	-88(%rbp), %rax
	addq	$96, %rsp
	popq	%rbp
	retq
	.cfi_endproc

	.p2align	4, 0x90
__ZN4core3mem4take17hd814ebbb4f8f67b8E:
	.cfi_startproc
	pushq	%rbp
	.cfi_def_cfa_offset 16
	.cfi_offset %rbp, -16
	movq	%rsp, %rbp
	.cfi_def_cfa_register %rbp
	subq	$16, %rsp
	movq	%rdi, -8(%rbp)
	callq	__ZN72_$LT$core..option..Option$LT$T$GT$$u20$as$u20$core..default..Default$GT$7default17hd567ebca042baa7eE
	movb	%al, -9(%rbp)
	movb	-9(%rbp), %al
	movzbl	%al, %ecx
	andl	$1, %ecx
	movq	-8(%rbp), %rdi
	movl	%ecx, %esi
	callq	__ZN4core3mem7replace17h16c015f80dedd03cE
	movb	%al, -10(%rbp)
	movb	-10(%rbp), %al
	andb	$1, %al
	movzbl	%al, %eax
	addq	$16, %rsp
	popq	%rbp
	retq
	.cfi_endproc

	.p2align	4, 0x90
__ZN4core3mem4take17hd8277ce7a719ab5fE:
	.cfi_startproc
	pushq	%rbp
	.cfi_def_cfa_offset 16
	.cfi_offset %rbp, -16
	movq	%rsp, %rbp
	.cfi_def_cfa_register %rbp
	subq	$64, %rsp
	movq	%rdi, %rax
	leaq	-40(%rbp), %rcx
	movq	%rdi, -48(%rbp)
	movq	%rcx, %rdi
	movq	%rsi, -56(%rbp)
	movq	%rax, -64(%rbp)
	callq	__ZN86_$LT$proc_macro..bridge..buffer..Buffer$LT$T$GT$$u20$as$u20$core..default..Default$GT$7default17h0ce34dcaa5c9d59cE
	movq	-48(%rbp), %rdi
	movq	-56(%rbp), %rsi
	leaq	-40(%rbp), %rdx
	callq	__ZN4core3mem7replace17h853dd4bd6a4f4669E
	movq	-64(%rbp), %rax
	addq	$64, %rsp
	popq	%rbp
	retq
	.cfi_endproc

	.p2align	4, 0x90
__ZN4core3mem6forget17h09635720192dbea0E:
	.cfi_startproc
	pushq	%rbp
	.cfi_def_cfa_offset 16
	.cfi_offset %rbp, -16
	movq	%rsp, %rbp
	.cfi_def_cfa_register %rbp
	subq	$224, %rsp
	leaq	-128(%rbp), %rax
	movq	%rax, %rcx
	movq	%rdi, -200(%rbp)
	movq	%rcx, %rdi
	movq	-200(%rbp), %rsi
	movl	$64, %ecx
	movq	%rcx, %rdx
	movq	%rax, -208(%rbp)
	movq	%rcx, -216(%rbp)
	callq	_memcpy
	leaq	-64(%rbp), %rax
	movq	%rax, %rcx
	movq	-208(%rbp), %rdx
	movq	%rcx, %rdi
	movq	%rdx, %rsi
	movq	-216(%rbp), %rdx
	movq	%rax, -224(%rbp)
	callq	_memcpy
	leaq	-192(%rbp), %rax
	movq	-224(%rbp), %rcx
	movq	%rax, %rdi
	movq	%rcx, %rsi
	movq	-216(%rbp), %rdx
	callq	_memcpy
	addq	$224, %rsp
	popq	%rbp
	retq
	.cfi_endproc

	.p2align	4, 0x90
__ZN4core3mem6forget17h175775e12847ee1bE:
	.cfi_startproc
	pushq	%rbp
	.cfi_def_cfa_offset 16
	.cfi_offset %rbp, -16
	movq	%rsp, %rbp
	.cfi_def_cfa_register %rbp
	subq	$48, %rsp
	movl	%edi, -44(%rbp)
	movl	-44(%rbp), %eax
	movl	%eax, -48(%rbp)
	movl	-48(%rbp), %eax
	movl	%eax, -32(%rbp)
	movl	-32(%rbp), %eax
	movl	%eax, -20(%rbp)
	movl	-20(%rbp), %eax
	movl	%eax, -24(%rbp)
	movl	-24(%rbp), %eax
	movl	%eax, -8(%rbp)
	movl	-8(%rbp), %eax
	movl	%eax, -16(%rbp)
	movl	-16(%rbp), %eax
	movl	%eax, -28(%rbp)
	movl	-28(%rbp), %eax
	movl	%eax, -40(%rbp)
	addq	$48, %rsp
	popq	%rbp
	retq
	.cfi_endproc

	.p2align	4, 0x90
__ZN4core3mem6forget17hbc0d639fc53d0fedE:
	.cfi_startproc
	pushq	%rbp
	.cfi_def_cfa_offset 16
	.cfi_offset %rbp, -16
	movq	%rsp, %rbp
	.cfi_def_cfa_register %rbp
	subq	$160, %rsp
	leaq	-80(%rbp), %rax
	movq	%rax, %rcx
	movq	%rdi, -128(%rbp)
	movq	%rcx, %rdi
	movq	-128(%rbp), %rsi
	movl	$40, %ecx
	movq	%rcx, %rdx
	movq	%rax, -136(%rbp)
	movq	%rcx, -144(%rbp)
	callq	_memcpy
	leaq	-40(%rbp), %rax
	movq	%rax, %rcx
	movq	-136(%rbp), %rdx
	movq	%rcx, %rdi
	movq	%rdx, %rsi
	movq	-144(%rbp), %rdx
	movq	%rax, -152(%rbp)
	callq	_memcpy
	leaq	-120(%rbp), %rax
	movq	-152(%rbp), %rcx
	movq	%rax, %rdi
	movq	%rcx, %rsi
	movq	-144(%rbp), %rdx
	callq	_memcpy
	addq	$160, %rsp
	popq	%rbp
	retq
	.cfi_endproc

	.p2align	4, 0x90
__ZN4core3mem6forget17hd93aaf0a6eba3cf3E:
	.cfi_startproc
	pushq	%rbp
	.cfi_def_cfa_offset 16
	.cfi_offset %rbp, -16
	movq	%rsp, %rbp
	.cfi_def_cfa_register %rbp
	subq	$72, %rsp
	movq	(%rdi), %rax
	movq	%rax, -48(%rbp)
	movq	8(%rdi), %rax
	movq	%rax, -40(%rbp)
	movq	16(%rdi), %rax
	movq	%rax, -32(%rbp)
	movq	-48(%rbp), %rax
	movq	%rax, -24(%rbp)
	movq	-40(%rbp), %rax
	movq	%rax, -16(%rbp)
	movq	-32(%rbp), %rax
	movq	%rax, -8(%rbp)
	movq	-24(%rbp), %rax
	movq	%rax, -72(%rbp)
	movq	-16(%rbp), %rax
	movq	%rax, -64(%rbp)
	movq	-8(%rbp), %rax
	movq	%rax, -56(%rbp)
	addq	$72, %rsp
	popq	%rbp
	retq
	.cfi_endproc

	.p2align	4, 0x90
__ZN4core3mem7replace17h16c015f80dedd03cE:
Lfunc_begin31:
	.cfi_startproc
	.cfi_personality 155, _rust_eh_personality
	.cfi_lsda 16, Lexception31
	pushq	%rbp
	.cfi_def_cfa_offset 16
	.cfi_offset %rbp, -16
	movq	%rsp, %rbp
	.cfi_def_cfa_register %rbp
	subq	$32, %rsp
	andb	$1, %sil
	movb	%sil, -17(%rbp)
Ltmp415:
	leaq	-17(%rbp), %rsi
	callq	__ZN4core3mem4swap17h2c1d1b4ee534938aE
Ltmp416:
	jmp	LBB121_2
LBB121_1:
	movq	-16(%rbp), %rdi
	callq	__Unwind_Resume
	ud2
LBB121_2:
	movb	-17(%rbp), %al
	andb	$1, %al
	movzbl	%al, %eax
	addq	$32, %rsp
	popq	%rbp
	retq
LBB121_3:
	jmp	LBB121_1
LBB121_4:
Ltmp417:
	movq	%rax, -16(%rbp)
	movl	%edx, -8(%rbp)
	jmp	LBB121_3
Lfunc_end31:
	.cfi_endproc
	.section	__TEXT,__gcc_except_tab
	.p2align	2
GCC_except_table121:
Lexception31:
	.byte	255
	.byte	255
	.byte	1
	.uleb128 Lcst_end31-Lcst_begin31
Lcst_begin31:
	.uleb128 Ltmp415-Lfunc_begin31
	.uleb128 Ltmp416-Ltmp415
	.uleb128 Ltmp417-Lfunc_begin31
	.byte	0
	.uleb128 Ltmp416-Lfunc_begin31
	.uleb128 Lfunc_end31-Ltmp416
	.byte	0
	.byte	0
Lcst_end31:
	.p2align	2

	.section	__TEXT,__text,regular,pure_instructions
	.p2align	4, 0x90
__ZN4core3mem7replace17h853dd4bd6a4f4669E:
Lfunc_begin32:
	.cfi_startproc
	.cfi_personality 155, _rust_eh_personality
	.cfi_lsda 16, Lexception32
	pushq	%rbp
	.cfi_def_cfa_offset 16
	.cfi_offset %rbp, -16
	movq	%rsp, %rbp
	.cfi_def_cfa_register %rbp
	subq	$48, %rsp
	movq	%rdi, %rax
Ltmp418:
	movq	%rdi, -24(%rbp)
	movq	%rsi, %rdi
	movq	%rdx, %rsi
	movq	%rdx, -32(%rbp)
	movq	%rax, -40(%rbp)
	callq	__ZN4core3mem4swap17hd55991feb6b96284E
Ltmp419:
	jmp	LBB122_2
LBB122_1:
	movq	-16(%rbp), %rdi
	callq	__Unwind_Resume
	ud2
LBB122_2:
	movq	-24(%rbp), %rax
	movq	-32(%rbp), %rcx
	movq	%rax, %rdi
	movq	%rcx, %rsi
	movl	$40, %edx
	callq	_memcpy
	movq	-40(%rbp), %rax
	addq	$48, %rsp
	popq	%rbp
	retq
LBB122_3:
	movq	-32(%rbp), %rdi
	callq	__ZN4core3ptr13drop_in_place17hd934812a3ad838d2E
	jmp	LBB122_1
LBB122_4:
Ltmp420:
	movq	%rax, -16(%rbp)
	movl	%edx, -8(%rbp)
	jmp	LBB122_3
Lfunc_end32:
	.cfi_endproc
	.section	__TEXT,__gcc_except_tab
	.p2align	2
GCC_except_table122:
Lexception32:
	.byte	255
	.byte	255
	.byte	1
	.uleb128 Lcst_end32-Lcst_begin32
Lcst_begin32:
	.uleb128 Ltmp418-Lfunc_begin32
	.uleb128 Ltmp419-Ltmp418
	.uleb128 Ltmp420-Lfunc_begin32
	.byte	0
	.uleb128 Ltmp419-Lfunc_begin32
	.uleb128 Lfunc_end32-Ltmp419
	.byte	0
	.byte	0
Lcst_end32:
	.p2align	2

	.section	__TEXT,__text,regular,pure_instructions
	.p2align	4, 0x90
__ZN4core3mem7replace17heb1b74a6da200aedE:
Lfunc_begin33:
	.cfi_startproc
	.cfi_personality 155, _rust_eh_personality
	.cfi_lsda 16, Lexception33
	pushq	%rbp
	.cfi_def_cfa_offset 16
	.cfi_offset %rbp, -16
	movq	%rsp, %rbp
	.cfi_def_cfa_register %rbp
	subq	$48, %rsp
	movq	%rdi, %rax
Ltmp421:
	movq	%rdi, -24(%rbp)
	movq	%rsi, %rdi
	movq	%rdx, %rsi
	movq	%rdx, -32(%rbp)
	movq	%rax, -40(%rbp)
	callq	__ZN4core3mem4swap17h650f770a29de146eE
Ltmp422:
	jmp	LBB123_2
LBB123_1:
	movq	-16(%rbp), %rdi
	callq	__Unwind_Resume
	ud2
LBB123_2:
	movq	-24(%rbp), %rax
	movq	-32(%rbp), %rcx
	movq	%rax, %rdi
	movq	%rcx, %rsi
	movl	$64, %edx
	callq	_memcpy
	movq	-40(%rbp), %rax
	addq	$48, %rsp
	popq	%rbp
	retq
LBB123_3:
	movq	-32(%rbp), %rdi
	callq	__ZN4core3ptr13drop_in_place17h4527677dd6f15223E
	jmp	LBB123_1
LBB123_4:
Ltmp423:
	movq	%rax, -16(%rbp)
	movl	%edx, -8(%rbp)
	jmp	LBB123_3
Lfunc_end33:
	.cfi_endproc
	.section	__TEXT,__gcc_except_tab
	.p2align	2
GCC_except_table123:
Lexception33:
	.byte	255
	.byte	255
	.byte	1
	.uleb128 Lcst_end33-Lcst_begin33
Lcst_begin33:
	.uleb128 Ltmp421-Lfunc_begin33
	.uleb128 Ltmp422-Ltmp421
	.uleb128 Ltmp423-Lfunc_begin33
	.byte	0
	.uleb128 Ltmp422-Lfunc_begin33
	.uleb128 Lfunc_end33-Ltmp422
	.byte	0
	.byte	0
Lcst_end33:
	.p2align	2

	.section	__TEXT,__text,regular,pure_instructions
	.p2align	4, 0x90
__ZN4core3mem7replace17heeb4db0b957d239cE:
Lfunc_begin34:
	.cfi_startproc
	.cfi_personality 155, _rust_eh_personality
	.cfi_lsda 16, Lexception34
	pushq	%rbp
	.cfi_def_cfa_offset 16
	.cfi_offset %rbp, -16
	movq	%rsp, %rbp
	.cfi_def_cfa_register %rbp
	subq	$48, %rsp
	movq	%rdi, %rax
Ltmp424:
	movq	%rdi, -24(%rbp)
	movq	%rsi, %rdi
	movq	%rdx, %rsi
	movq	%rdx, -32(%rbp)
	movq	%rax, -40(%rbp)
	callq	__ZN4core3mem4swap17hd39fe3a156ae325aE
Ltmp425:
	jmp	LBB124_2
LBB124_1:
	movq	-16(%rbp), %rdi
	callq	__Unwind_Resume
	ud2
LBB124_2:
	movq	-24(%rbp), %rax
	movq	-32(%rbp), %rcx
	movq	%rax, %rdi
	movq	%rcx, %rsi
	movl	$64, %edx
	callq	_memcpy
	movq	-40(%rbp), %rax
	addq	$48, %rsp
	popq	%rbp
	retq
LBB124_3:
	movq	-32(%rbp), %rdi
	callq	__ZN4core3ptr13drop_in_place17hd0abf8061b9f541fE
	jmp	LBB124_1
LBB124_4:
Ltmp426:
	movq	%rax, -16(%rbp)
	movl	%edx, -8(%rbp)
	jmp	LBB124_3
Lfunc_end34:
	.cfi_endproc
	.section	__TEXT,__gcc_except_tab
	.p2align	2
GCC_except_table124:
Lexception34:
	.byte	255
	.byte	255
	.byte	1
	.uleb128 Lcst_end34-Lcst_begin34
Lcst_begin34:
	.uleb128 Ltmp424-Lfunc_begin34
	.uleb128 Ltmp425-Ltmp424
	.uleb128 Ltmp426-Lfunc_begin34
	.byte	0
	.uleb128 Ltmp425-Lfunc_begin34
	.uleb128 Lfunc_end34-Ltmp425
	.byte	0
	.byte	0
Lcst_end34:
	.p2align	2

	.section	__TEXT,__text,regular,pure_instructions
	.p2align	4, 0x90
__ZN4core3num10NonZeroU323get17h0358421c53384c81E:
	.cfi_startproc
	pushq	%rbp
	.cfi_def_cfa_offset 16
	.cfi_offset %rbp, -16
	movq	%rsp, %rbp
	.cfi_def_cfa_register %rbp
	movl	%edi, %eax
	popq	%rbp
	retq
	.cfi_endproc

	.p2align	4, 0x90
__ZN4core3num10NonZeroU323new17h22ee25fd803e409eE:
	.cfi_startproc
	pushq	%rbp
	.cfi_def_cfa_offset 16
	.cfi_offset %rbp, -16
	movq	%rsp, %rbp
	.cfi_def_cfa_register %rbp
	subq	$12, %rsp
	cmpl	$0, %edi
	movl	%edi, -12(%rbp)
	jne	LBB126_2
	movl	$0, -8(%rbp)
	jmp	LBB126_3
LBB126_2:
	movl	-12(%rbp), %eax
	movl	%eax, -4(%rbp)
	movl	-4(%rbp), %ecx
	movl	%ecx, -8(%rbp)
LBB126_3:
	movl	-8(%rbp), %eax
	addq	$12, %rsp
	popq	%rbp
	retq
	.cfi_endproc

	.p2align	4, 0x90
__ZN4core3num12NonZeroUsize13new_unchecked17h377141da62ddaad1E:
	.cfi_startproc
	pushq	%rbp
	.cfi_def_cfa_offset 16
	.cfi_offset %rbp, -16
	movq	%rsp, %rbp
	.cfi_def_cfa_register %rbp
	pushq	%rax
	movq	%rdi, -8(%rbp)
	movq	-8(%rbp), %rax
	addq	$8, %rsp
	popq	%rbp
	retq
	.cfi_endproc

	.p2align	4, 0x90
__ZN4core3num12NonZeroUsize3get17h3dc71399f014fe11E:
	.cfi_startproc
	pushq	%rbp
	.cfi_def_cfa_offset 16
	.cfi_offset %rbp, -16
	movq	%rsp, %rbp
	.cfi_def_cfa_register %rbp
	movq	%rdi, %rax
	popq	%rbp
	retq
	.cfi_endproc

	.p2align	4, 0x90
__ZN4core3num21_$LT$impl$u20$u32$GT$11to_le_bytes17h75821f85d5413e11E:
	.cfi_startproc
	pushq	%rbp
	.cfi_def_cfa_offset 16
	.cfi_offset %rbp, -16
	movq	%rsp, %rbp
	.cfi_def_cfa_register %rbp
	subq	$16, %rsp
	callq	__ZN4core3num21_$LT$impl$u20$u32$GT$5to_le17h0381e324f0e9b648E
	movl	%eax, -12(%rbp)
	movl	-12(%rbp), %edi
	callq	__ZN4core3num21_$LT$impl$u20$u32$GT$11to_ne_bytes17hfd0ae18b74bc1723E
	movl	%eax, -4(%rbp)
	movl	-4(%rbp), %eax
	movl	%eax, -8(%rbp)
	movl	-8(%rbp), %eax
	addq	$16, %rsp
	popq	%rbp
	retq
	.cfi_endproc

	.p2align	4, 0x90
__ZN4core3num21_$LT$impl$u20$u32$GT$11to_ne_bytes17hfd0ae18b74bc1723E:
	.cfi_startproc
	pushq	%rbp
	.cfi_def_cfa_offset 16
	.cfi_offset %rbp, -16
	movq	%rsp, %rbp
	.cfi_def_cfa_register %rbp
	subq	$16, %rsp
	movl	%edi, -8(%rbp)
	movl	-8(%rbp), %eax
	movl	%eax, -12(%rbp)
	movl	-12(%rbp), %eax
	addq	$16, %rsp
	popq	%rbp
	retq
	.cfi_endproc

	.p2align	4, 0x90
__ZN4core3num21_$LT$impl$u20$u32$GT$13from_le_bytes17h89943b7afc8e5720E:
	.cfi_startproc
	pushq	%rbp
	.cfi_def_cfa_offset 16
	.cfi_offset %rbp, -16
	movq	%rsp, %rbp
	.cfi_def_cfa_register %rbp
	subq	$32, %rsp
	movl	%edi, -8(%rbp)
	movl	-8(%rbp), %eax
	movl	%eax, -12(%rbp)
	movl	-12(%rbp), %eax
	movl	%eax, -4(%rbp)
	movl	-4(%rbp), %edi
	callq	__ZN4core3num21_$LT$impl$u20$u32$GT$13from_ne_bytes17h7bdbd0072ca4f616E
	movl	%eax, -16(%rbp)
	movl	-16(%rbp), %edi
	callq	__ZN4core3num21_$LT$impl$u20$u32$GT$7from_le17hc927403816df0869E
	movl	%eax, -20(%rbp)
	movl	-20(%rbp), %eax
	addq	$32, %rsp
	popq	%rbp
	retq
	.cfi_endproc

	.p2align	4, 0x90
__ZN4core3num21_$LT$impl$u20$u32$GT$13from_ne_bytes17h7bdbd0072ca4f616E:
	.cfi_startproc
	pushq	%rbp
	.cfi_def_cfa_offset 16
	.cfi_offset %rbp, -16
	movq	%rsp, %rbp
	.cfi_def_cfa_register %rbp
	subq	$16, %rsp
	movl	%edi, -12(%rbp)
	movl	-12(%rbp), %eax
	movl	%eax, -16(%rbp)
	movl	-16(%rbp), %eax
	movl	%eax, -4(%rbp)
	movl	-4(%rbp), %eax
	movl	%eax, -8(%rbp)
	movl	-8(%rbp), %eax
	addq	$16, %rsp
	popq	%rbp
	retq
	.cfi_endproc

	.p2align	4, 0x90
__ZN4core3num21_$LT$impl$u20$u32$GT$5to_le17h0381e324f0e9b648E:
	.cfi_startproc
	pushq	%rbp
	.cfi_def_cfa_offset 16
	.cfi_offset %rbp, -16
	movq	%rsp, %rbp
	.cfi_def_cfa_register %rbp
	movl	%edi, %eax
	popq	%rbp
	retq
	.cfi_endproc

	.p2align	4, 0x90
__ZN4core3num21_$LT$impl$u20$u32$GT$7from_le17hc927403816df0869E:
	.cfi_startproc
	pushq	%rbp
	.cfi_def_cfa_offset 16
	.cfi_offset %rbp, -16
	movq	%rsp, %rbp
	.cfi_def_cfa_register %rbp
	movl	%edi, %eax
	popq	%rbp
	retq
	.cfi_endproc

	.p2align	4, 0x90
__ZN4core3num23_$LT$impl$u20$usize$GT$10count_ones17h901faa5e5b3d0520E:
	.cfi_startproc
	pushq	%rbp
	.cfi_def_cfa_offset 16
	.cfi_offset %rbp, -16
	movq	%rsp, %rbp
	.cfi_def_cfa_register %rbp
	subq	$16, %rsp
	movq	%rdi, %rax
	shrq	%rax
	movabsq	$6148914691236517205, %rcx
	andq	%rcx, %rax
	subq	%rax, %rdi
	movabsq	$3689348814741910323, %rax
	movq	%rdi, %rcx
	andq	%rax, %rcx
	shrq	$2, %rdi
	andq	%rax, %rdi
	addq	%rdi, %rcx
	movq	%rcx, %rax
	shrq	$4, %rax
	addq	%rax, %rcx
	movabsq	$1085102592571150095, %rax
	andq	%rax, %rcx
	movabsq	$72340172838076673, %rax
	imulq	%rax, %rcx
	shrq	$56, %rcx
	movq	%rcx, -8(%rbp)
	movq	-8(%rbp), %rax
	movq	%rax, -16(%rbp)
	movq	-16(%rbp), %rax
	movl	%eax, %ecx
	movl	%ecx, %eax
	addq	$16, %rsp
	popq	%rbp
	retq
	.cfi_endproc

	.p2align	4, 0x90
__ZN4core3num23_$LT$impl$u20$usize$GT$11checked_add17hb7a974f5da757990E:
	.cfi_startproc
	pushq	%rbp
	.cfi_def_cfa_offset 16
	.cfi_offset %rbp, -16
	movq	%rsp, %rbp
	.cfi_def_cfa_register %rbp
	subq	$48, %rsp
	callq	__ZN4core3num23_$LT$impl$u20$usize$GT$15overflowing_add17h9987e56f76a426c4E
	movq	%rax, -32(%rbp)
	movb	%dl, -33(%rbp)
	movb	-33(%rbp), %al
	andb	$1, %al
	movb	%al, -1(%rbp)
	movb	-1(%rbp), %al
	movb	%al, -34(%rbp)
	movb	-34(%rbp), %al
	testb	$1, %al
	jne	LBB136_4
	jmp	LBB136_3
LBB136_3:
	movq	-32(%rbp), %rax
	movq	%rax, -16(%rbp)
	movq	$1, -24(%rbp)
	jmp	LBB136_5
LBB136_4:
	movq	$0, -24(%rbp)
LBB136_5:
	movq	-24(%rbp), %rax
	movq	-16(%rbp), %rdx
	addq	$48, %rsp
	popq	%rbp
	retq
	.cfi_endproc

	.p2align	4, 0x90
__ZN4core3num23_$LT$impl$u20$usize$GT$11checked_mul17hd6ede4052d725f5dE:
	.cfi_startproc
	pushq	%rbp
	.cfi_def_cfa_offset 16
	.cfi_offset %rbp, -16
	movq	%rsp, %rbp
	.cfi_def_cfa_register %rbp
	subq	$48, %rsp
	callq	__ZN4core3num23_$LT$impl$u20$usize$GT$15overflowing_mul17hb004b1399a40e374E
	movq	%rax, -32(%rbp)
	movb	%dl, -33(%rbp)
	movb	-33(%rbp), %al
	andb	$1, %al
	movb	%al, -1(%rbp)
	movb	-1(%rbp), %al
	movb	%al, -34(%rbp)
	movb	-34(%rbp), %al
	testb	$1, %al
	jne	LBB137_4
	jmp	LBB137_3
LBB137_3:
	movq	-32(%rbp), %rax
	movq	%rax, -16(%rbp)
	movq	$1, -24(%rbp)
	jmp	LBB137_5
LBB137_4:
	movq	$0, -24(%rbp)
LBB137_5:
	movq	-24(%rbp), %rax
	movq	-16(%rbp), %rdx
	addq	$48, %rsp
	popq	%rbp
	retq
	.cfi_endproc

	.p2align	4, 0x90
__ZN4core3num23_$LT$impl$u20$usize$GT$11to_le_bytes17h57746c524fee3d8bE:
	.cfi_startproc
	pushq	%rbp
	.cfi_def_cfa_offset 16
	.cfi_offset %rbp, -16
	movq	%rsp, %rbp
	.cfi_def_cfa_register %rbp
	subq	$32, %rsp
	callq	__ZN4core3num23_$LT$impl$u20$usize$GT$5to_le17h97df3f36edf68890E
	movq	%rax, -24(%rbp)
	movq	-24(%rbp), %rdi
	callq	__ZN4core3num23_$LT$impl$u20$usize$GT$11to_ne_bytes17h78544f10a8076758E
	movq	%rax, -8(%rbp)
	movq	-8(%rbp), %rax
	movq	%rax, -16(%rbp)
	movq	-16(%rbp), %rax
	addq	$32, %rsp
	popq	%rbp
	retq
	.cfi_endproc

	.p2align	4, 0x90
__ZN4core3num23_$LT$impl$u20$usize$GT$11to_ne_bytes17h78544f10a8076758E:
	.cfi_startproc
	pushq	%rbp
	.cfi_def_cfa_offset 16
	.cfi_offset %rbp, -16
	movq	%rsp, %rbp
	.cfi_def_cfa_register %rbp
	subq	$16, %rsp
	movq	%rdi, -8(%rbp)
	movq	-8(%rbp), %rax
	movq	%rax, -16(%rbp)
	movq	-16(%rbp), %rax
	addq	$16, %rsp
	popq	%rbp
	retq
	.cfi_endproc

	.p2align	4, 0x90
__ZN4core3num23_$LT$impl$u20$usize$GT$12wrapping_add17h86dac1b20cfd0ffaE:
	.cfi_startproc
	pushq	%rbp
	.cfi_def_cfa_offset 16
	.cfi_offset %rbp, -16
	movq	%rsp, %rbp
	.cfi_def_cfa_register %rbp
	subq	$16, %rsp
	addq	%rsi, %rdi
	movq	%rdi, -8(%rbp)
	movq	-8(%rbp), %rax
	movq	%rax, -16(%rbp)
	movq	-16(%rbp), %rax
	addq	$16, %rsp
	popq	%rbp
	retq
	.cfi_endproc

	.p2align	4, 0x90
__ZN4core3num23_$LT$impl$u20$usize$GT$12wrapping_sub17h91f7c9b80a397aaeE:
	.cfi_startproc
	pushq	%rbp
	.cfi_def_cfa_offset 16
	.cfi_offset %rbp, -16
	movq	%rsp, %rbp
	.cfi_def_cfa_register %rbp
	subq	$16, %rsp
	subq	%rsi, %rdi
	movq	%rdi, -8(%rbp)
	movq	-8(%rbp), %rax
	movq	%rax, -16(%rbp)
	movq	-16(%rbp), %rax
	addq	$16, %rsp
	popq	%rbp
	retq
	.cfi_endproc

	.p2align	4, 0x90
__ZN4core3num23_$LT$impl$u20$usize$GT$14saturating_add17h0e695f1113533b32E:
	.cfi_startproc
	pushq	%rbp
	.cfi_def_cfa_offset 16
	.cfi_offset %rbp, -16
	movq	%rsp, %rbp
	.cfi_def_cfa_register %rbp
	subq	$16, %rsp
	addq	%rsi, %rdi
	movq	$-1, %rax
	cmovbq	%rax, %rdi
	movq	%rdi, -8(%rbp)
	movq	-8(%rbp), %rax
	movq	%rax, -16(%rbp)
	movq	-16(%rbp), %rax
	addq	$16, %rsp
	popq	%rbp
	retq
	.cfi_endproc

	.p2align	4, 0x90
__ZN4core3num23_$LT$impl$u20$usize$GT$14saturating_sub17h1ef00ce84ea0e9daE:
	.cfi_startproc
	pushq	%rbp
	.cfi_def_cfa_offset 16
	.cfi_offset %rbp, -16
	movq	%rsp, %rbp
	.cfi_def_cfa_register %rbp
	subq	$16, %rsp
	xorl	%eax, %eax
	subq	%rsi, %rdi
	movl	%eax, %ecx
	cmovbq	%rcx, %rdi
	movq	%rdi, -8(%rbp)
	movq	-8(%rbp), %rax
	movq	%rax, -16(%rbp)
	movq	-16(%rbp), %rax
	addq	$16, %rsp
	popq	%rbp
	retq
	.cfi_endproc

	.p2align	4, 0x90
__ZN4core3num23_$LT$impl$u20$usize$GT$15is_power_of_two17h6a3220b533b0c008E:
	.cfi_startproc
	pushq	%rbp
	.cfi_def_cfa_offset 16
	.cfi_offset %rbp, -16
	movq	%rsp, %rbp
	.cfi_def_cfa_register %rbp
	subq	$16, %rsp
	callq	__ZN4core3num23_$LT$impl$u20$usize$GT$10count_ones17h901faa5e5b3d0520E
	movl	%eax, -4(%rbp)
	movl	-4(%rbp), %eax
	cmpl	$1, %eax
	sete	%cl
	andb	$1, %cl
	movzbl	%cl, %eax
	addq	$16, %rsp
	popq	%rbp
	retq
	.cfi_endproc

	.p2align	4, 0x90
__ZN4core3num23_$LT$impl$u20$usize$GT$15overflowing_add17h9987e56f76a426c4E:
	.cfi_startproc
	pushq	%rbp
	.cfi_def_cfa_offset 16
	.cfi_offset %rbp, -16
	movq	%rsp, %rbp
	.cfi_def_cfa_register %rbp
	subq	$48, %rsp
	addq	%rsi, %rdi
	setb	%al
	andb	$1, %al
	movq	%rdi, -16(%rbp)
	movb	%al, -8(%rbp)
	movq	-16(%rbp), %rcx
	movb	-8(%rbp), %al
	movq	%rcx, -40(%rbp)
	movb	%al, -41(%rbp)
	movq	-40(%rbp), %rax
	movq	%rax, -32(%rbp)
	movb	-41(%rbp), %cl
	andb	$1, %cl
	movb	%cl, -24(%rbp)
	movq	-32(%rbp), %rax
	movb	-24(%rbp), %dl
	addq	$48, %rsp
	popq	%rbp
	retq
	.cfi_endproc

	.p2align	4, 0x90
__ZN4core3num23_$LT$impl$u20$usize$GT$15overflowing_mul17hb004b1399a40e374E:
	.cfi_startproc
	pushq	%rbp
	.cfi_def_cfa_offset 16
	.cfi_offset %rbp, -16
	movq	%rsp, %rbp
	.cfi_def_cfa_register %rbp
	subq	$48, %rsp
	movq	%rdi, %rax
	mulq	%rsi
	seto	%cl
	andb	$1, %cl
	movq	%rax, -16(%rbp)
	movb	%cl, -8(%rbp)
	movq	-16(%rbp), %rax
	movb	-8(%rbp), %cl
	movq	%rax, -40(%rbp)
	movb	%cl, -41(%rbp)
	movq	-40(%rbp), %rax
	movq	%rax, -32(%rbp)
	movb	-41(%rbp), %cl
	andb	$1, %cl
	movb	%cl, -24(%rbp)
	movq	-32(%rbp), %rax
	movb	-24(%rbp), %dl
	addq	$48, %rsp
	popq	%rbp
	retq
	.cfi_endproc

	.p2align	4, 0x90
__ZN4core3num23_$LT$impl$u20$usize$GT$5to_le17h97df3f36edf68890E:
	.cfi_startproc
	pushq	%rbp
	.cfi_def_cfa_offset 16
	.cfi_offset %rbp, -16
	movq	%rsp, %rbp
	.cfi_def_cfa_register %rbp
	movq	%rdi, %rax
	popq	%rbp
	retq
	.cfi_endproc

	.p2align	4, 0x90
__ZN4core3ops8function5FnMut8call_mut17h19cb071054080dfdE:
	.cfi_startproc
	pushq	%rbp
	.cfi_def_cfa_offset 16
	.cfi_offset %rbp, -16
	movq	%rsp, %rbp
	.cfi_def_cfa_register %rbp
	subq	$32, %rsp
	movq	%rsi, -8(%rbp)
	movq	-8(%rbp), %rax
	movq	%rdi, -16(%rbp)
	movq	%rax, %rdi
	callq	__ZN14failure_derive8is_cause17h2b7b57d2ba5f6afdE
	movb	%al, -17(%rbp)
	movb	-17(%rbp), %al
	andb	$1, %al
	movzbl	%al, %eax
	addq	$32, %rsp
	popq	%rbp
	retq
	.cfi_endproc

	.p2align	4, 0x90
__ZN4core3ops8function5FnMut8call_mut17h3c282df57232bea1E:
	.cfi_startproc
	pushq	%rbp
	.cfi_def_cfa_offset 16
	.cfi_offset %rbp, -16
	movq	%rsp, %rbp
	.cfi_def_cfa_register %rbp
	subq	$32, %rsp
	movq	%rsi, -8(%rbp)
	movq	-8(%rbp), %rax
	movq	%rdi, -16(%rbp)
	movq	%rax, %rdi
	callq	__ZN14failure_derive12is_backtrace17h3adb1813996f942fE
	movb	%al, -17(%rbp)
	movb	-17(%rbp), %al
	andb	$1, %al
	movzbl	%al, %eax
	addq	$32, %rsp
	popq	%rbp
	retq
	.cfi_endproc

	.p2align	4, 0x90
__ZN4core3ops8function6FnOnce40call_once$u7b$$u7b$vtable.shim$u7d$$u7d$17h0b5cb4726ff06634E:
	.cfi_startproc
	pushq	%rbp
	.cfi_def_cfa_offset 16
	.cfi_offset %rbp, -16
	movq	%rsp, %rbp
	.cfi_def_cfa_register %rbp
	subq	$16, %rsp
	movq	%rsi, -8(%rbp)
	movq	(%rdi), %rdi
	movq	-8(%rbp), %rax
	movq	%rax, %rsi
	callq	__ZN4core3ops8function6FnOnce9call_once17h4f73bc6bc0625e63E
	addq	$16, %rsp
	popq	%rbp
	retq
	.cfi_endproc

	.p2align	4, 0x90
__ZN4core3ops8function6FnOnce40call_once$u7b$$u7b$vtable.shim$u7d$$u7d$17h832b6a991d0f5815E:
	.cfi_startproc
	pushq	%rbp
	.cfi_def_cfa_offset 16
	.cfi_offset %rbp, -16
	movq	%rsp, %rbp
	.cfi_def_cfa_register %rbp
	subq	$16, %rsp
	movq	%rsi, -8(%rbp)
	movq	(%rdi), %rax
	movq	8(%rdi), %rsi
	movq	-8(%rbp), %rcx
	movq	%rax, %rdi
	movq	%rcx, %rdx
	callq	__ZN4core3ops8function6FnOnce9call_once17h74950ee745efdaa1E
	addq	$16, %rsp
	popq	%rbp
	retq
	.cfi_endproc

	.p2align	4, 0x90
__ZN4core3ops8function6FnOnce9call_once17h4f73bc6bc0625e63E:
Lfunc_begin35:
	.cfi_startproc
	.cfi_personality 155, _rust_eh_personality
	.cfi_lsda 16, Lexception35
	pushq	%rbp
	.cfi_def_cfa_offset 16
	.cfi_offset %rbp, -16
	movq	%rsp, %rbp
	.cfi_def_cfa_register %rbp
	subq	$32, %rsp
	movq	%rdi, -32(%rbp)
	movq	%rsi, -24(%rbp)
	movq	-24(%rbp), %rsi
Ltmp427:
	leaq	-32(%rbp), %rdi
	callq	__ZN3std4sync4once4Once9call_once28_$u7b$$u7b$closure$u7d$$u7d$17h9cf9b32145f5f0b1E
Ltmp428:
	jmp	LBB152_1
LBB152_1:
	jmp	LBB152_2
LBB152_2:
	addq	$32, %rsp
	popq	%rbp
	retq
LBB152_3:
	jmp	LBB152_4
LBB152_4:
	movq	-16(%rbp), %rdi
	callq	__Unwind_Resume
	ud2
LBB152_5:
Ltmp429:
	movq	%rax, -16(%rbp)
	movl	%edx, -8(%rbp)
	jmp	LBB152_3
Lfunc_end35:
	.cfi_endproc
	.section	__TEXT,__gcc_except_tab
	.p2align	2
GCC_except_table152:
Lexception35:
	.byte	255
	.byte	255
	.byte	1
	.uleb128 Lcst_end35-Lcst_begin35
Lcst_begin35:
	.uleb128 Ltmp427-Lfunc_begin35
	.uleb128 Ltmp428-Ltmp427
	.uleb128 Ltmp429-Lfunc_begin35
	.byte	0
	.uleb128 Ltmp428-Lfunc_begin35
	.uleb128 Lfunc_end35-Ltmp428
	.byte	0
	.byte	0
Lcst_end35:
	.p2align	2

	.section	__TEXT,__text,regular,pure_instructions
	.p2align	4, 0x90
__ZN4core3ops8function6FnOnce9call_once17h57c8094f6c65e100E:
	.cfi_startproc
	pushq	%rbp
	.cfi_def_cfa_offset 16
	.cfi_offset %rbp, -16
	movq	%rsp, %rbp
	.cfi_def_cfa_register %rbp
	subq	$32, %rsp
	movl	%esi, -12(%rbp)
	movl	-12(%rbp), %eax
	movl	%eax, -16(%rbp)
	movl	-16(%rbp), %eax
	movq	%rdi, -24(%rbp)
	movl	%eax, %edi
	movq	-24(%rbp), %rcx
	callq	*%rcx
	movl	%eax, -4(%rbp)
	movl	-4(%rbp), %eax
	movl	%eax, -8(%rbp)
	movl	-8(%rbp), %eax
	addq	$32, %rsp
	popq	%rbp
	retq
	.cfi_endproc

	.p2align	4, 0x90
__ZN4core3ops8function6FnOnce9call_once17h7230b75c5709f6c1E:
	.cfi_startproc
	pushq	%rbp
	.cfi_def_cfa_offset 16
	.cfi_offset %rbp, -16
	movq	%rsp, %rbp
	.cfi_def_cfa_register %rbp
	subq	$16, %rsp
	movq	%rdi, %rax
	movq	%rsi, -8(%rbp)
	movq	-8(%rbp), %rsi
	movq	%rax, -16(%rbp)
	callq	__ZN3syn6derive7parsing72_$LT$impl$u20$syn..parse..Parse$u20$for$u20$syn..derive..DeriveInput$GT$5parse17h9d94a713e19698cbE
	movq	-16(%rbp), %rax
	addq	$16, %rsp
	popq	%rbp
	retq
	.cfi_endproc

	.p2align	4, 0x90
__ZN4core3ops8function6FnOnce9call_once17h74950ee745efdaa1E:
Lfunc_begin36:
	.cfi_startproc
	.cfi_personality 155, _rust_eh_personality
	.cfi_lsda 16, Lexception36
	pushq	%rbp
	.cfi_def_cfa_offset 16
	.cfi_offset %rbp, -16
	movq	%rsp, %rbp
	.cfi_def_cfa_register %rbp
	subq	$48, %rsp
	movq	%rdi, -40(%rbp)
	movq	%rsi, -32(%rbp)
	movq	%rdx, -24(%rbp)
	movq	-24(%rbp), %rsi
Ltmp430:
	leaq	-40(%rbp), %rdi
	callq	__ZN10proc_macro6bridge6client44_$LT$impl$u20$proc_macro..bridge..Bridge$GT$5enter28_$u7b$$u7b$closure$u7d$$u7d$28_$u7b$$u7b$closure$u7d$$u7d$17hff5f35fbf6a7cceeE
Ltmp431:
	jmp	LBB155_1
LBB155_1:
	leaq	-40(%rbp), %rdi
	callq	__ZN4core3ptr13drop_in_place17h39d93f6b971c2987E
	addq	$48, %rsp
	popq	%rbp
	retq
LBB155_3:
	leaq	-40(%rbp), %rdi
	callq	__ZN4core3ptr13drop_in_place17h39d93f6b971c2987E
	movq	-16(%rbp), %rdi
	callq	__Unwind_Resume
	ud2
LBB155_5:
Ltmp432:
	movq	%rax, -16(%rbp)
	movl	%edx, -8(%rbp)
	jmp	LBB155_3
Lfunc_end36:
	.cfi_endproc
	.section	__TEXT,__gcc_except_tab
	.p2align	2
GCC_except_table155:
Lexception36:
	.byte	255
	.byte	255
	.byte	1
	.uleb128 Lcst_end36-Lcst_begin36
Lcst_begin36:
	.uleb128 Ltmp430-Lfunc_begin36
	.uleb128 Ltmp431-Ltmp430
	.uleb128 Ltmp432-Lfunc_begin36
	.byte	0
	.uleb128 Ltmp431-Lfunc_begin36
	.uleb128 Lfunc_end36-Ltmp431
	.byte	0
	.byte	0
Lcst_end36:
	.p2align	2

	.section	__TEXT,__text,regular,pure_instructions
	.p2align	4, 0x90
__ZN4core3ops8function6FnOnce9call_once17hc418efd0b97b0364E:
	.cfi_startproc
	pushq	%rbp
	.cfi_def_cfa_offset 16
	.cfi_offset %rbp, -16
	movq	%rsp, %rbp
	.cfi_def_cfa_register %rbp
	subq	$16, %rsp
	movq	%rdi, %rax
	movq	%rsi, -8(%rbp)
	movq	-8(%rbp), %rsi
	movq	%rax, -16(%rbp)
	callq	__ZN45_$LT$T$u20$as$u20$alloc..string..ToString$GT$9to_string17h59e72e35f9f5b1e5E
	movq	-16(%rbp), %rax
	addq	$16, %rsp
	popq	%rbp
	retq
	.cfi_endproc

	.p2align	4, 0x90
__ZN4core3ops8function6FnOnce9call_once17hc95dfa778e11da22E:
	.cfi_startproc
	pushq	%rbp
	.cfi_def_cfa_offset 16
	.cfi_offset %rbp, -16
	movq	%rsp, %rbp
	.cfi_def_cfa_register %rbp
	subq	$32, %rsp
	movq	%rdi, %rax
	movq	%rsi, -16(%rbp)
	movq	%rdx, -8(%rbp)
	movq	-16(%rbp), %rsi
	movq	-8(%rbp), %rdx
	movq	%rax, -24(%rbp)
	callq	__ZN155_$LT$proc_macro..bridge..rpc..PanicMessage$u20$as$u20$core..convert..From$LT$alloc..boxed..Box$LT$dyn$u20$core..any..Any$u2b$core..marker..Send$GT$$GT$$GT$4from17h3f057d2bc7421ddcE
	movq	-24(%rbp), %rax
	addq	$32, %rsp
	popq	%rbp
	retq
	.cfi_endproc

	.p2align	4, 0x90
__ZN4core3ptr13drop_in_place17h0739ce9182afafe8E:
	.cfi_startproc
	pushq	%rbp
	.cfi_def_cfa_offset 16
	.cfi_offset %rbp, -16
	movq	%rsp, %rbp
	.cfi_def_cfa_register %rbp
	subq	$16, %rsp
	callq	__ZN4core3ptr13drop_in_place17h5357f834e0c71411E
	addq	$16, %rsp
	popq	%rbp
	retq
	.cfi_endproc

	.p2align	4, 0x90
__ZN4core3ptr13drop_in_place17h0be66d48d2f34059E:
Lfunc_begin37:
	.cfi_startproc
	.cfi_personality 155, _rust_eh_personality
	.cfi_lsda 16, Lexception37
	pushq	%rbp
	.cfi_def_cfa_offset 16
	.cfi_offset %rbp, -16
	movq	%rsp, %rbp
	.cfi_def_cfa_register %rbp
	subq	$32, %rsp
Ltmp433:
	movq	%rdi, -32(%rbp)
	callq	__ZN4core3ptr13drop_in_place17haab70c6cc78803b8E
Ltmp434:
	jmp	LBB159_10
LBB159_1:
	movq	-16(%rbp), %rdi
	callq	__Unwind_Resume
	ud2
LBB159_2:
	addq	$32, %rsp
	popq	%rbp
	retq
LBB159_3:
	movq	-32(%rbp), %rax
	addq	$184, %rax
	movq	%rax, %rdi
	callq	__ZN4core3ptr13drop_in_place17hc135065811725e33E
	jmp	LBB159_1
LBB159_4:
	movq	-32(%rbp), %rax
	addq	$96, %rax
	movq	%rax, %rdi
	callq	__ZN4core3ptr13drop_in_place17hf9c90c1dab586759E
	jmp	LBB159_3
LBB159_5:
	movq	-32(%rbp), %rax
	addq	$56, %rax
	movq	%rax, %rdi
	callq	__ZN4core3ptr13drop_in_place17h12dea03ec8ac22aeE
	jmp	LBB159_4
LBB159_6:
	movq	-32(%rbp), %rax
	addq	$24, %rax
	movq	%rax, %rdi
	callq	__ZN4core3ptr13drop_in_place17h571638917c499b34E
	jmp	LBB159_5
LBB159_7:
	movq	-32(%rbp), %rax
	addq	$184, %rax
	movq	%rax, %rdi
	callq	__ZN4core3ptr13drop_in_place17hc135065811725e33E
	jmp	LBB159_2
LBB159_8:
	movq	-32(%rbp), %rax
	addq	$96, %rax
Ltmp442:
	movq	%rax, %rdi
	callq	__ZN4core3ptr13drop_in_place17hf9c90c1dab586759E
Ltmp443:
	jmp	LBB159_7
LBB159_9:
	movq	-32(%rbp), %rax
	addq	$56, %rax
Ltmp439:
	movq	%rax, %rdi
	callq	__ZN4core3ptr13drop_in_place17h12dea03ec8ac22aeE
Ltmp440:
	jmp	LBB159_8
LBB159_10:
	movq	-32(%rbp), %rax
	addq	$24, %rax
Ltmp436:
	movq	%rax, %rdi
	callq	__ZN4core3ptr13drop_in_place17h571638917c499b34E
Ltmp437:
	jmp	LBB159_9
LBB159_11:
Ltmp435:
	movq	%rax, -16(%rbp)
	movl	%edx, -8(%rbp)
	jmp	LBB159_6
LBB159_12:
Ltmp438:
	movq	%rax, -16(%rbp)
	movl	%edx, -8(%rbp)
	jmp	LBB159_5
LBB159_13:
Ltmp441:
	movq	%rax, -16(%rbp)
	movl	%edx, -8(%rbp)
	jmp	LBB159_4
LBB159_14:
Ltmp444:
	movq	%rax, -16(%rbp)
	movl	%edx, -8(%rbp)
	jmp	LBB159_3
Lfunc_end37:
	.cfi_endproc
	.section	__TEXT,__gcc_except_tab
	.p2align	2
GCC_except_table159:
Lexception37:
	.byte	255
	.byte	255
	.byte	1
	.uleb128 Lcst_end37-Lcst_begin37
Lcst_begin37:
	.uleb128 Ltmp433-Lfunc_begin37
	.uleb128 Ltmp434-Ltmp433
	.uleb128 Ltmp435-Lfunc_begin37
	.byte	0
	.uleb128 Ltmp434-Lfunc_begin37
	.uleb128 Ltmp442-Ltmp434
	.byte	0
	.byte	0
	.uleb128 Ltmp442-Lfunc_begin37
	.uleb128 Ltmp443-Ltmp442
	.uleb128 Ltmp444-Lfunc_begin37
	.byte	0
	.uleb128 Ltmp439-Lfunc_begin37
	.uleb128 Ltmp440-Ltmp439
	.uleb128 Ltmp441-Lfunc_begin37
	.byte	0
	.uleb128 Ltmp436-Lfunc_begin37
	.uleb128 Ltmp437-Ltmp436
	.uleb128 Ltmp438-Lfunc_begin37
	.byte	0
Lcst_end37:
	.p2align	2

	.section	__TEXT,__text,regular,pure_instructions
	.p2align	4, 0x90
__ZN4core3ptr13drop_in_place17h0cfa17c5b80d8f33E:
	.cfi_startproc
	pushq	%rbp
	.cfi_def_cfa_offset 16
	.cfi_offset %rbp, -16
	movq	%rsp, %rbp
	.cfi_def_cfa_register %rbp
	subq	$16, %rsp
	movb	(%rdi), %al
	andb	$1, %al
	movzbl	%al, %ecx
	movl	%ecx, %edx
	cmpq	$0, %rdx
	movq	%rdi, -16(%rbp)
	jne	LBB160_2
LBB160_1:
	addq	$16, %rsp
	popq	%rbp
	retq
LBB160_2:
	movq	-16(%rbp), %rax
	addq	$8, %rax
	movq	%rax, %rdi
	callq	__ZN4core3ptr13drop_in_place17h13d372d7ee8aaa02E
	jmp	LBB160_1
	.cfi_endproc

	.p2align	4, 0x90
__ZN4core3ptr13drop_in_place17h0f3cca4bf13ffbceE:
	.cfi_startproc
	pushq	%rbp
	.cfi_def_cfa_offset 16
	.cfi_offset %rbp, -16
	movq	%rsp, %rbp
	.cfi_def_cfa_register %rbp
	subq	$16, %rsp
	cmpq	$0, (%rdi)
	movq	%rdi, -16(%rbp)
	je	LBB161_2
	jmp	LBB161_3
LBB161_1:
	addq	$16, %rsp
	popq	%rbp
	retq
LBB161_2:
	movq	-16(%rbp), %rax
	addq	$8, %rax
	movq	%rax, %rdi
	callq	__ZN4core3ptr13drop_in_place17h0c3b43509439977cE
	jmp	LBB161_1
LBB161_3:
	movq	-16(%rbp), %rax
	addq	$8, %rax
	movq	%rax, %rdi
	callq	__ZN4core3ptr13drop_in_place17heafb0e666d2f03abE
	jmp	LBB161_1
	.cfi_endproc

	.p2align	4, 0x90
__ZN4core3ptr13drop_in_place17h13d372d7ee8aaa02E:
	.cfi_startproc
	pushq	%rbp
	.cfi_def_cfa_offset 16
	.cfi_offset %rbp, -16
	movq	%rsp, %rbp
	.cfi_def_cfa_register %rbp
	subq	$16, %rsp
	callq	__ZN4core3ptr13drop_in_place17h32302694d018b805E
	addq	$16, %rsp
	popq	%rbp
	retq
	.cfi_endproc

	.p2align	4, 0x90
__ZN4core3ptr13drop_in_place17h1f73c9dc6ab5090dE:
	.cfi_startproc
	pushq	%rbp
	.cfi_def_cfa_offset 16
	.cfi_offset %rbp, -16
	movq	%rsp, %rbp
	.cfi_def_cfa_register %rbp
	subq	$16, %rsp
	xorl	%eax, %eax
	movl	%eax, %ecx
	movq	(%rdi), %rdx
	subq	$2, %rdx
	cmpq	$0, %rdx
	movl	$1, %edx
	cmovbeq	%rcx, %rdx
	cmpq	$0, %rdx
	movq	%rdi, -16(%rbp)
	jne	LBB163_2
LBB163_1:
	addq	$16, %rsp
	popq	%rbp
	retq
LBB163_2:
	movq	-16(%rbp), %rax
	movq	%rax, %rdi
	callq	__ZN4core3ptr13drop_in_place17h13d372d7ee8aaa02E
	jmp	LBB163_1
	.cfi_endproc

	.p2align	4, 0x90
__ZN4core3ptr13drop_in_place17h29109470afdd4bd8E:
	.cfi_startproc
	pushq	%rbp
	.cfi_def_cfa_offset 16
	.cfi_offset %rbp, -16
	movq	%rsp, %rbp
	.cfi_def_cfa_register %rbp
	subq	$16, %rsp
	callq	__ZN4core3ptr13drop_in_place17hdbf6a8754f697b05E
	addq	$16, %rsp
	popq	%rbp
	retq
	.cfi_endproc

	.p2align	4, 0x90
__ZN4core3ptr13drop_in_place17h293c2b4619202daeE:
	.cfi_startproc
	pushq	%rbp
	.cfi_def_cfa_offset 16
	.cfi_offset %rbp, -16
	movq	%rsp, %rbp
	.cfi_def_cfa_register %rbp
	subq	$16, %rsp
	callq	__ZN4core3ptr13drop_in_place17hd934812a3ad838d2E
	addq	$16, %rsp
	popq	%rbp
	retq
	.cfi_endproc

	.p2align	4, 0x90
__ZN4core3ptr13drop_in_place17h2c1b478d118088beE:
	.cfi_startproc
	pushq	%rbp
	.cfi_def_cfa_offset 16
	.cfi_offset %rbp, -16
	movq	%rsp, %rbp
	.cfi_def_cfa_register %rbp
	subq	$16, %rsp
	callq	__ZN4core3ptr13drop_in_place17h293c2b4619202daeE
	addq	$16, %rsp
	popq	%rbp
	retq
	.cfi_endproc

	.p2align	4, 0x90
__ZN4core3ptr13drop_in_place17h2de95d921618f5bdE:
Lfunc_begin38:
	.cfi_startproc
	.cfi_personality 155, _rust_eh_personality
	.cfi_lsda 16, Lexception38
	pushq	%rbp
	.cfi_def_cfa_offset 16
	.cfi_offset %rbp, -16
	movq	%rsp, %rbp
	.cfi_def_cfa_register %rbp
	subq	$32, %rsp
Ltmp445:
	movq	%rdi, -32(%rbp)
	callq	__ZN4core3ptr13drop_in_place17h94260618c36bad3fE
Ltmp446:
	jmp	LBB167_6
LBB167_1:
	movq	-16(%rbp), %rdi
	callq	__Unwind_Resume
	ud2
LBB167_2:
	addq	$32, %rsp
	popq	%rbp
	retq
LBB167_3:
	movq	-32(%rbp), %rax
	addq	$56, %rax
	movq	%rax, %rdi
	callq	__ZN4core3ptr13drop_in_place17h90be1fc3b9075c09E
	jmp	LBB167_1
LBB167_4:
	movq	-32(%rbp), %rax
	addq	$32, %rax
	movq	%rax, %rdi
	callq	__ZN4core3ptr13drop_in_place17he13100432245dfc3E
	jmp	LBB167_3
LBB167_5:
	movq	-32(%rbp), %rax
	addq	$56, %rax
	movq	%rax, %rdi
	callq	__ZN4core3ptr13drop_in_place17h90be1fc3b9075c09E
	jmp	LBB167_2
LBB167_6:
	movq	-32(%rbp), %rax
	addq	$32, %rax
Ltmp448:
	movq	%rax, %rdi
	callq	__ZN4core3ptr13drop_in_place17he13100432245dfc3E
Ltmp449:
	jmp	LBB167_5
LBB167_7:
Ltmp447:
	movq	%rax, -16(%rbp)
	movl	%edx, -8(%rbp)
	jmp	LBB167_4
LBB167_8:
Ltmp450:
	movq	%rax, -16(%rbp)
	movl	%edx, -8(%rbp)
	jmp	LBB167_3
Lfunc_end38:
	.cfi_endproc
	.section	__TEXT,__gcc_except_tab
	.p2align	2
GCC_except_table167:
Lexception38:
	.byte	255
	.byte	255
	.byte	1
	.uleb128 Lcst_end38-Lcst_begin38
Lcst_begin38:
	.uleb128 Ltmp445-Lfunc_begin38
	.uleb128 Ltmp446-Ltmp445
	.uleb128 Ltmp447-Lfunc_begin38
	.byte	0
	.uleb128 Ltmp446-Lfunc_begin38
	.uleb128 Ltmp448-Ltmp446
	.byte	0
	.byte	0
	.uleb128 Ltmp448-Lfunc_begin38
	.uleb128 Ltmp449-Ltmp448
	.uleb128 Ltmp450-Lfunc_begin38
	.byte	0
Lcst_end38:
	.p2align	2

	.section	__TEXT,__text,regular,pure_instructions
	.p2align	4, 0x90
__ZN4core3ptr13drop_in_place17h39d93f6b971c2987E:
	.cfi_startproc
	pushq	%rbp
	.cfi_def_cfa_offset 16
	.cfi_offset %rbp, -16
	movq	%rsp, %rbp
	.cfi_def_cfa_register %rbp
	subq	$16, %rsp
	callq	__ZN4core3ptr13drop_in_place17h64076cb37229ea5dE
	addq	$16, %rsp
	popq	%rbp
	retq
	.cfi_endproc

	.p2align	4, 0x90
__ZN4core3ptr13drop_in_place17h3a243d25c5d66c2eE:
Lfunc_begin39:
	.cfi_startproc
	.cfi_personality 155, _rust_eh_personality
	.cfi_lsda 16, Lexception39
	pushq	%rbp
	.cfi_def_cfa_offset 16
	.cfi_offset %rbp, -16
	movq	%rsp, %rbp
	.cfi_def_cfa_register %rbp
	subq	$64, %rsp
	xorl	%eax, %eax
	testb	$1, %al
	movq	%rdi, -56(%rbp)
	movq	%rsi, -64(%rbp)
	jne	LBB169_7
	jmp	LBB169_12
LBB169_1:
	addq	$64, %rsp
	popq	%rbp
	retq
LBB169_2:
	movq	-16(%rbp), %rdi
	callq	__Unwind_Resume
	ud2
LBB169_3:
	imulq	$384, -40(%rbp), %rax
	movq	-56(%rbp), %rcx
	addq	%rax, %rcx
	movq	-40(%rbp), %rax
	addq	$1, %rax
	movq	%rax, -40(%rbp)
	movq	%rcx, %rdi
	callq	__ZN4core3ptr13drop_in_place17hc8e4d7a17d7460bcE
LBB169_4:
	movq	-64(%rbp), %rax
	cmpq	%rax, -40(%rbp)
	je	LBB169_2
	jmp	LBB169_3
LBB169_5:
	movq	-40(%rbp), %rax
	leaq	(%rax,%rax,2), %rcx
	shlq	$7, %rcx
	movq	-56(%rbp), %rdx
	addq	%rcx, %rdx
	incq	%rax
	movq	%rax, -40(%rbp)
Ltmp454:
	movq	%rdx, %rdi
	callq	__ZN4core3ptr13drop_in_place17hc8e4d7a17d7460bcE
Ltmp455:
	jmp	LBB169_6
LBB169_6:
	movq	-64(%rbp), %rax
	cmpq	%rax, -40(%rbp)
	je	LBB169_1
	jmp	LBB169_5
LBB169_7:
	movq	$0, -40(%rbp)
	jmp	LBB169_6
LBB169_8:
	movq	-32(%rbp), %rdi
	movq	-32(%rbp), %rax
	addq	$384, %rax
	movq	%rax, -32(%rbp)
	callq	__ZN4core3ptr13drop_in_place17hc8e4d7a17d7460bcE
LBB169_9:
	movq	-32(%rbp), %rax
	cmpq	-24(%rbp), %rax
	je	LBB169_2
	jmp	LBB169_8
LBB169_10:
	movq	-32(%rbp), %rax
	movq	%rax, %rcx
	addq	$384, %rcx
	movq	%rcx, -32(%rbp)
Ltmp451:
	movq	%rax, %rdi
	callq	__ZN4core3ptr13drop_in_place17hc8e4d7a17d7460bcE
Ltmp452:
	jmp	LBB169_11
LBB169_11:
	movq	-32(%rbp), %rax
	cmpq	-24(%rbp), %rax
	je	LBB169_1
	jmp	LBB169_10
LBB169_12:
	movq	-56(%rbp), %rax
	movq	%rax, -32(%rbp)
	movq	-64(%rbp), %rax
	imulq	$384, %rax, %rcx
	addq	-32(%rbp), %rcx
	movq	%rcx, -24(%rbp)
	jmp	LBB169_11
LBB169_13:
Ltmp453:
	movq	%rax, -16(%rbp)
	movl	%edx, -8(%rbp)
	jmp	LBB169_9
LBB169_14:
Ltmp456:
	movq	%rax, -16(%rbp)
	movl	%edx, -8(%rbp)
	jmp	LBB169_4
Lfunc_end39:
	.cfi_endproc
	.section	__TEXT,__gcc_except_tab
	.p2align	2
GCC_except_table169:
Lexception39:
	.byte	255
	.byte	255
	.byte	1
	.uleb128 Lcst_end39-Lcst_begin39
Lcst_begin39:
	.uleb128 Lfunc_begin39-Lfunc_begin39
	.uleb128 Ltmp454-Lfunc_begin39
	.byte	0
	.byte	0
	.uleb128 Ltmp454-Lfunc_begin39
	.uleb128 Ltmp455-Ltmp454
	.uleb128 Ltmp456-Lfunc_begin39
	.byte	0
	.uleb128 Ltmp455-Lfunc_begin39
	.uleb128 Ltmp451-Ltmp455
	.byte	0
	.byte	0
	.uleb128 Ltmp451-Lfunc_begin39
	.uleb128 Ltmp452-Ltmp451
	.uleb128 Ltmp453-Lfunc_begin39
	.byte	0
Lcst_end39:
	.p2align	2

	.section	__TEXT,__text,regular,pure_instructions
	.p2align	4, 0x90
__ZN4core3ptr13drop_in_place17h4527677dd6f15223E:
	.cfi_startproc
	pushq	%rbp
	.cfi_def_cfa_offset 16
	.cfi_offset %rbp, -16
	movq	%rsp, %rbp
	.cfi_def_cfa_register %rbp
	subq	$32, %rsp
	movq	(%rdi), %rax
	testq	%rax, %rax
	movq	%rdi, -16(%rbp)
	movq	%rax, -24(%rbp)
	je	LBB170_1
	jmp	LBB170_3
LBB170_3:
	movq	-24(%rbp), %rax
	subq	$1, %rax
	je	LBB170_2
	jmp	LBB170_1
LBB170_1:
	addq	$32, %rsp
	popq	%rbp
	retq
LBB170_2:
	movq	-16(%rbp), %rax
	addq	$8, %rax
	movq	%rax, %rdi
	callq	__ZN4core3ptr13drop_in_place17h293c2b4619202daeE
	jmp	LBB170_1
	.cfi_endproc

	.p2align	4, 0x90
__ZN4core3ptr13drop_in_place17h489741301a74e9e2E:
	.cfi_startproc
	pushq	%rbp
	.cfi_def_cfa_offset 16
	.cfi_offset %rbp, -16
	movq	%rsp, %rbp
	.cfi_def_cfa_register %rbp
	subq	$16, %rsp
	callq	__ZN4core3ptr13drop_in_place17h18a327919a8f4e5aE
	addq	$16, %rsp
	popq	%rbp
	retq
	.cfi_endproc

	.p2align	4, 0x90
__ZN4core3ptr13drop_in_place17h491b338479be209aE:
Lfunc_begin40:
	.cfi_startproc
	.cfi_personality 155, _rust_eh_personality
	.cfi_lsda 16, Lexception40
	pushq	%rbp
	.cfi_def_cfa_offset 16
	.cfi_offset %rbp, -16
	movq	%rsp, %rbp
	.cfi_def_cfa_register %rbp
	subq	$32, %rsp
Ltmp457:
	movq	%rdi, -32(%rbp)
	callq	__ZN127_$LT$proc_macro..bridge..scoped_cell..ScopedCell$LT$T$GT$..replace..PutBackOnDrop$LT$T$GT$$u20$as$u20$core..ops..drop..Drop$GT$4drop17hf9f26b1947a44f54E
Ltmp458:
	jmp	LBB172_4
LBB172_1:
	movq	-16(%rbp), %rdi
	callq	__Unwind_Resume
	ud2
LBB172_2:
	addq	$32, %rsp
	popq	%rbp
	retq
LBB172_3:
	movq	-32(%rbp), %rax
	addq	$8, %rax
	movq	%rax, %rdi
	callq	__ZN4core3ptr13drop_in_place17hd0abf8061b9f541fE
	jmp	LBB172_1
LBB172_4:
	movq	-32(%rbp), %rax
	addq	$8, %rax
	movq	%rax, %rdi
	callq	__ZN4core3ptr13drop_in_place17hd0abf8061b9f541fE
	jmp	LBB172_2
LBB172_5:
Ltmp459:
	movq	%rax, -16(%rbp)
	movl	%edx, -8(%rbp)
	jmp	LBB172_3
Lfunc_end40:
	.cfi_endproc
	.section	__TEXT,__gcc_except_tab
	.p2align	2
GCC_except_table172:
Lexception40:
	.byte	255
	.byte	255
	.byte	1
	.uleb128 Lcst_end40-Lcst_begin40
Lcst_begin40:
	.uleb128 Ltmp457-Lfunc_begin40
	.uleb128 Ltmp458-Ltmp457
	.uleb128 Ltmp459-Lfunc_begin40
	.byte	0
	.uleb128 Ltmp458-Lfunc_begin40
	.uleb128 Lfunc_end40-Ltmp458
	.byte	0
	.byte	0
Lcst_end40:
	.p2align	2

	.section	__TEXT,__text,regular,pure_instructions
	.p2align	4, 0x90
__ZN4core3ptr13drop_in_place17h4ffbc4fb3ecd7111E:
	.cfi_startproc
	pushq	%rbp
	.cfi_def_cfa_offset 16
	.cfi_offset %rbp, -16
	movq	%rsp, %rbp
	.cfi_def_cfa_register %rbp
	subq	$16, %rsp
	callq	__ZN4core3ptr13drop_in_place17hc8e9f9d1502d99c0E
	addq	$16, %rsp
	popq	%rbp
	retq
	.cfi_endproc

	.p2align	4, 0x90
__ZN4core3ptr13drop_in_place17h5357f834e0c71411E:
Lfunc_begin41:
	.cfi_startproc
	.cfi_personality 155, _rust_eh_personality
	.cfi_lsda 16, Lexception41
	pushq	%rbp
	.cfi_def_cfa_offset 16
	.cfi_offset %rbp, -16
	movq	%rsp, %rbp
	.cfi_def_cfa_register %rbp
	subq	$32, %rsp
Ltmp460:
	movq	%rdi, -32(%rbp)
	callq	__ZN66_$LT$alloc..vec..Vec$LT$T$GT$$u20$as$u20$core..ops..drop..Drop$GT$4drop17hb7628e510e1bb839E
Ltmp461:
	jmp	LBB174_4
LBB174_1:
	movq	-16(%rbp), %rdi
	callq	__Unwind_Resume
	ud2
LBB174_2:
	addq	$32, %rsp
	popq	%rbp
	retq
LBB174_3:
	movq	-32(%rbp), %rax
	movq	%rax, %rdi
	callq	__ZN4core3ptr13drop_in_place17hd2d9d303ac87b4d4E
	jmp	LBB174_1
LBB174_4:
	movq	-32(%rbp), %rax
	movq	%rax, %rdi
	callq	__ZN4core3ptr13drop_in_place17hd2d9d303ac87b4d4E
	jmp	LBB174_2
LBB174_5:
Ltmp462:
	movq	%rax, -16(%rbp)
	movl	%edx, -8(%rbp)
	jmp	LBB174_3
Lfunc_end41:
	.cfi_endproc
	.section	__TEXT,__gcc_except_tab
	.p2align	2
GCC_except_table174:
Lexception41:
	.byte	255
	.byte	255
	.byte	1
	.uleb128 Lcst_end41-Lcst_begin41
Lcst_begin41:
	.uleb128 Ltmp460-Lfunc_begin41
	.uleb128 Ltmp461-Ltmp460
	.uleb128 Ltmp462-Lfunc_begin41
	.byte	0
	.uleb128 Ltmp461-Lfunc_begin41
	.uleb128 Lfunc_end41-Ltmp461
	.byte	0
	.byte	0
Lcst_end41:
	.p2align	2

	.section	__TEXT,__text,regular,pure_instructions
	.p2align	4, 0x90
__ZN4core3ptr13drop_in_place17h580f08da519c7065E:
	.cfi_startproc
	pushq	%rbp
	.cfi_def_cfa_offset 16
	.cfi_offset %rbp, -16
	movq	%rsp, %rbp
	.cfi_def_cfa_register %rbp
	pushq	%rax
	addq	$8, %rsp
	popq	%rbp
	retq
	.cfi_endproc

	.p2align	4, 0x90
__ZN4core3ptr13drop_in_place17h589b003ee523e891E:
	.cfi_startproc
	pushq	%rbp
	.cfi_def_cfa_offset 16
	.cfi_offset %rbp, -16
	movq	%rsp, %rbp
	.cfi_def_cfa_register %rbp
	subq	$16, %rsp
	callq	*(%rsi)
	addq	$16, %rsp
	popq	%rbp
	retq
	.cfi_endproc

	.p2align	4, 0x90
__ZN4core3ptr13drop_in_place17h630d3eda6d929dd6E:
	.cfi_startproc
	pushq	%rbp
	.cfi_def_cfa_offset 16
	.cfi_offset %rbp, -16
	movq	%rsp, %rbp
	.cfi_def_cfa_register %rbp
	subq	$16, %rsp
	callq	__ZN4core3ptr13drop_in_place17ha8746b19e395b5deE
	addq	$16, %rsp
	popq	%rbp
	retq
	.cfi_endproc

	.p2align	4, 0x90
__ZN4core3ptr13drop_in_place17h6848184fa1a68305E:
	.cfi_startproc
	pushq	%rbp
	.cfi_def_cfa_offset 16
	.cfi_offset %rbp, -16
	movq	%rsp, %rbp
	.cfi_def_cfa_register %rbp
	subq	$16, %rsp
	callq	__ZN4core3ptr13drop_in_place17h77d95a36ce3ef34dE
	addq	$16, %rsp
	popq	%rbp
	retq
	.cfi_endproc

	.p2align	4, 0x90
__ZN4core3ptr13drop_in_place17h69296603aad93ee2E:
	.cfi_startproc
	pushq	%rbp
	.cfi_def_cfa_offset 16
	.cfi_offset %rbp, -16
	movq	%rsp, %rbp
	.cfi_def_cfa_register %rbp
	pushq	%rax
	addq	$8, %rsp
	popq	%rbp
	retq
	.cfi_endproc

	.p2align	4, 0x90
__ZN4core3ptr13drop_in_place17h71e7c07b6a491c12E:
Lfunc_begin42:
	.cfi_startproc
	.cfi_personality 155, _rust_eh_personality
	.cfi_lsda 16, Lexception42
	pushq	%rbp
	.cfi_def_cfa_offset 16
	.cfi_offset %rbp, -16
	movq	%rsp, %rbp
	.cfi_def_cfa_register %rbp
	subq	$32, %rsp
	movq	(%rdi), %rax
Ltmp463:
	movq	%rdi, -32(%rbp)
	movq	%rax, %rdi
	callq	__ZN4core3ptr13drop_in_place17h7b9fff5509416df5E
Ltmp464:
	jmp	LBB180_3
LBB180_1:
	addq	$32, %rsp
	popq	%rbp
	retq
LBB180_2:
	movq	-16(%rbp), %rdi
	callq	__Unwind_Resume
	ud2
LBB180_3:
	movq	-32(%rbp), %rax
	movq	(%rax), %rdi
	callq	__ZN5alloc5alloc8box_free17h0813a4600d0ae1afE
	jmp	LBB180_1
LBB180_4:
	movq	-32(%rbp), %rax
	movq	(%rax), %rdi
	callq	__ZN5alloc5alloc8box_free17h0813a4600d0ae1afE
	jmp	LBB180_2
LBB180_5:
Ltmp465:
	movq	%rax, -16(%rbp)
	movl	%edx, -8(%rbp)
	jmp	LBB180_4
Lfunc_end42:
	.cfi_endproc
	.section	__TEXT,__gcc_except_tab
	.p2align	2
GCC_except_table180:
Lexception42:
	.byte	255
	.byte	255
	.byte	1
	.uleb128 Lcst_end42-Lcst_begin42
Lcst_begin42:
	.uleb128 Ltmp463-Lfunc_begin42
	.uleb128 Ltmp464-Ltmp463
	.uleb128 Ltmp465-Lfunc_begin42
	.byte	0
	.uleb128 Ltmp464-Lfunc_begin42
	.uleb128 Lfunc_end42-Ltmp464
	.byte	0
	.byte	0
Lcst_end42:
	.p2align	2

	.section	__TEXT,__text,regular,pure_instructions
	.p2align	4, 0x90
__ZN4core3ptr13drop_in_place17h77d95a36ce3ef34dE:
	.cfi_startproc
	pushq	%rbp
	.cfi_def_cfa_offset 16
	.cfi_offset %rbp, -16
	movq	%rsp, %rbp
	.cfi_def_cfa_register %rbp
	subq	$16, %rsp
	movb	(%rdi), %al
	subb	$1, %al
	movq	%rdi, -16(%rbp)
	ja	LBB181_2
	jmp	LBB181_1
LBB181_1:
	addq	$16, %rsp
	popq	%rbp
	retq
LBB181_2:
	movq	-16(%rbp), %rax
	addq	$8, %rax
	movq	%rax, %rdi
	callq	__ZN4core3ptr13drop_in_place17h71e7c07b6a491c12E
	jmp	LBB181_1
	.cfi_endproc

	.p2align	4, 0x90
__ZN4core3ptr13drop_in_place17h7b9b88aad8518fa5E:
	.cfi_startproc
	pushq	%rbp
	.cfi_def_cfa_offset 16
	.cfi_offset %rbp, -16
	movq	%rsp, %rbp
	.cfi_def_cfa_register %rbp
	subq	$16, %rsp
	xorl	%eax, %eax
	movl	%eax, %ecx
	movq	(%rdi), %rdx
	subq	$2, %rdx
	cmpq	$0, %rdx
	movl	$1, %edx
	cmovbeq	%rcx, %rdx
	cmpq	$0, %rdx
	movq	%rdi, -16(%rbp)
	jne	LBB182_2
LBB182_1:
	addq	$16, %rsp
	popq	%rbp
	retq
LBB182_2:
	movq	-16(%rbp), %rax
	movq	%rax, %rdi
	callq	__ZN4core3ptr13drop_in_place17h32302694d018b805E
	jmp	LBB182_1
	.cfi_endproc

	.p2align	4, 0x90
__ZN4core3ptr13drop_in_place17h7b9fff5509416df5E:
	.cfi_startproc
	pushq	%rbp
	.cfi_def_cfa_offset 16
	.cfi_offset %rbp, -16
	movq	%rsp, %rbp
	.cfi_def_cfa_register %rbp
	subq	$16, %rsp
	callq	__ZN4core3ptr13drop_in_place17hc8b961dcfd0ebf6cE
	addq	$16, %rsp
	popq	%rbp
	retq
	.cfi_endproc

	.p2align	4, 0x90
__ZN4core3ptr13drop_in_place17h90be1fc3b9075c09E:
Lfunc_begin43:
	.cfi_startproc
	.cfi_personality 155, _rust_eh_personality
	.cfi_lsda 16, Lexception43
	pushq	%rbp
	.cfi_def_cfa_offset 16
	.cfi_offset %rbp, -16
	movq	%rsp, %rbp
	.cfi_def_cfa_register %rbp
	subq	$32, %rsp
Ltmp466:
	movq	%rdi, -32(%rbp)
	callq	__ZN66_$LT$alloc..vec..Vec$LT$T$GT$$u20$as$u20$core..ops..drop..Drop$GT$4drop17had7ae6477335b5a6E
Ltmp467:
	jmp	LBB184_4
LBB184_1:
	movq	-16(%rbp), %rdi
	callq	__Unwind_Resume
	ud2
LBB184_2:
	addq	$32, %rsp
	popq	%rbp
	retq
LBB184_3:
	movq	-32(%rbp), %rax
	movq	%rax, %rdi
	callq	__ZN4core3ptr13drop_in_place17hccf3ad9fe1c18d05E
	jmp	LBB184_1
LBB184_4:
	movq	-32(%rbp), %rax
	movq	%rax, %rdi
	callq	__ZN4core3ptr13drop_in_place17hccf3ad9fe1c18d05E
	jmp	LBB184_2
LBB184_5:
Ltmp468:
	movq	%rax, -16(%rbp)
	movl	%edx, -8(%rbp)
	jmp	LBB184_3
Lfunc_end43:
	.cfi_endproc
	.section	__TEXT,__gcc_except_tab
	.p2align	2
GCC_except_table184:
Lexception43:
	.byte	255
	.byte	255
	.byte	1
	.uleb128 Lcst_end43-Lcst_begin43
Lcst_begin43:
	.uleb128 Ltmp466-Lfunc_begin43
	.uleb128 Ltmp467-Ltmp466
	.uleb128 Ltmp468-Lfunc_begin43
	.byte	0
	.uleb128 Ltmp467-Lfunc_begin43
	.uleb128 Lfunc_end43-Ltmp467
	.byte	0
	.byte	0
Lcst_end43:
	.p2align	2

	.section	__TEXT,__text,regular,pure_instructions
	.p2align	4, 0x90
__ZN4core3ptr13drop_in_place17h981a6a7df87e9222E:
Lfunc_begin44:
	.cfi_startproc
	.cfi_personality 155, _rust_eh_personality
	.cfi_lsda 16, Lexception44
	pushq	%rbp
	.cfi_def_cfa_offset 16
	.cfi_offset %rbp, -16
	movq	%rsp, %rbp
	.cfi_def_cfa_register %rbp
	subq	$64, %rsp
	xorl	%eax, %eax
	testb	$1, %al
	movq	%rdi, -56(%rbp)
	movq	%rsi, -64(%rbp)
	jne	LBB185_7
	jmp	LBB185_12
LBB185_1:
	addq	$64, %rsp
	popq	%rbp
	retq
LBB185_2:
	movq	-16(%rbp), %rdi
	callq	__Unwind_Resume
	ud2
LBB185_3:
	imulq	$40, -40(%rbp), %rax
	movq	-56(%rbp), %rcx
	addq	%rax, %rcx
	movq	-40(%rbp), %rax
	addq	$1, %rax
	movq	%rax, -40(%rbp)
	movq	%rcx, %rdi
	callq	__ZN4core3ptr13drop_in_place17h32302694d018b805E
LBB185_4:
	movq	-64(%rbp), %rax
	cmpq	%rax, -40(%rbp)
	je	LBB185_2
	jmp	LBB185_3
LBB185_5:
	movq	-40(%rbp), %rax
	leaq	(%rax,%rax,4), %rcx
	movq	-56(%rbp), %rdx
	leaq	(%rdx,%rcx,8), %rdi
	incq	%rax
	movq	%rax, -40(%rbp)
Ltmp472:
	callq	__ZN4core3ptr13drop_in_place17h32302694d018b805E
Ltmp473:
	jmp	LBB185_6
LBB185_6:
	movq	-64(%rbp), %rax
	cmpq	%rax, -40(%rbp)
	je	LBB185_1
	jmp	LBB185_5
LBB185_7:
	movq	$0, -40(%rbp)
	jmp	LBB185_6
LBB185_8:
	movq	-32(%rbp), %rdi
	movq	-32(%rbp), %rax
	addq	$40, %rax
	movq	%rax, -32(%rbp)
	callq	__ZN4core3ptr13drop_in_place17h32302694d018b805E
LBB185_9:
	movq	-32(%rbp), %rax
	cmpq	-24(%rbp), %rax
	je	LBB185_2
	jmp	LBB185_8
LBB185_10:
	movq	-32(%rbp), %rax
	movq	%rax, %rcx
	addq	$40, %rcx
	movq	%rcx, -32(%rbp)
Ltmp469:
	movq	%rax, %rdi
	callq	__ZN4core3ptr13drop_in_place17h32302694d018b805E
Ltmp470:
	jmp	LBB185_11
LBB185_11:
	movq	-32(%rbp), %rax
	cmpq	-24(%rbp), %rax
	je	LBB185_1
	jmp	LBB185_10
LBB185_12:
	movq	-56(%rbp), %rax
	movq	%rax, -32(%rbp)
	movq	-64(%rbp), %rax
	imulq	$40, %rax, %rcx
	addq	-32(%rbp), %rcx
	movq	%rcx, -24(%rbp)
	jmp	LBB185_11
LBB185_13:
Ltmp471:
	movq	%rax, -16(%rbp)
	movl	%edx, -8(%rbp)
	jmp	LBB185_9
LBB185_14:
Ltmp474:
	movq	%rax, -16(%rbp)
	movl	%edx, -8(%rbp)
	jmp	LBB185_4
Lfunc_end44:
	.cfi_endproc
	.section	__TEXT,__gcc_except_tab
	.p2align	2
GCC_except_table185:
Lexception44:
	.byte	255
	.byte	255
	.byte	1
	.uleb128 Lcst_end44-Lcst_begin44
Lcst_begin44:
	.uleb128 Lfunc_begin44-Lfunc_begin44
	.uleb128 Ltmp472-Lfunc_begin44
	.byte	0
	.byte	0
	.uleb128 Ltmp472-Lfunc_begin44
	.uleb128 Ltmp473-Ltmp472
	.uleb128 Ltmp474-Lfunc_begin44
	.byte	0
	.uleb128 Ltmp473-Lfunc_begin44
	.uleb128 Ltmp469-Ltmp473
	.byte	0
	.byte	0
	.uleb128 Ltmp469-Lfunc_begin44
	.uleb128 Ltmp470-Ltmp469
	.uleb128 Ltmp471-Lfunc_begin44
	.byte	0
Lcst_end44:
	.p2align	2

	.section	__TEXT,__text,regular,pure_instructions
	.p2align	4, 0x90
__ZN4core3ptr13drop_in_place17h9f59455c1b663ce0E:
	.cfi_startproc
	pushq	%rbp
	.cfi_def_cfa_offset 16
	.cfi_offset %rbp, -16
	movq	%rsp, %rbp
	.cfi_def_cfa_register %rbp
	subq	$16, %rsp
	xorl	%eax, %eax
	movl	%eax, %ecx
	movl	32(%rdi), %eax
	subl	$2, %eax
	cmpl	$0, %eax
	movl	$1, %edx
	cmovbeq	%rcx, %rdx
	cmpq	$0, %rdx
	movq	%rdi, -16(%rbp)
	jne	LBB186_2
LBB186_1:
	addq	$16, %rsp
	popq	%rbp
	retq
LBB186_2:
	movq	-16(%rbp), %rax
	movq	%rax, %rdi
	callq	__ZN4core3ptr13drop_in_place17h2ccf62f8acb94514E
	jmp	LBB186_1
	.cfi_endproc

	.p2align	4, 0x90
__ZN4core3ptr13drop_in_place17ha817ae21dcfb8f9cE:
	.cfi_startproc
	pushq	%rbp
	.cfi_def_cfa_offset 16
	.cfi_offset %rbp, -16
	movq	%rsp, %rbp
	.cfi_def_cfa_register %rbp
	subq	$32, %rsp
	movq	(%rdi), %rax
	testq	%rax, %rax
	movq	%rdi, -16(%rbp)
	movq	%rax, -24(%rbp)
	je	LBB187_1
	jmp	LBB187_3
LBB187_3:
	movq	-24(%rbp), %rax
	subq	$1, %rax
	je	LBB187_2
	jmp	LBB187_1
LBB187_1:
	addq	$32, %rsp
	popq	%rbp
	retq
LBB187_2:
	movq	-16(%rbp), %rax
	addq	$8, %rax
	movq	%rax, %rdi
	callq	__ZN4core3ptr13drop_in_place17h06786e25de60db61E
	jmp	LBB187_1
	.cfi_endproc

	.p2align	4, 0x90
__ZN4core3ptr13drop_in_place17ha8746b19e395b5deE:
	.cfi_startproc
	pushq	%rbp
	.cfi_def_cfa_offset 16
	.cfi_offset %rbp, -16
	movq	%rsp, %rbp
	.cfi_def_cfa_register %rbp
	subq	$16, %rsp
	callq	__ZN4core3ptr13drop_in_place17h4ffbc4fb3ecd7111E
	addq	$16, %rsp
	popq	%rbp
	retq
	.cfi_endproc

	.p2align	4, 0x90
__ZN4core3ptr13drop_in_place17hbbb56948482aedb6E:
	.cfi_startproc
	pushq	%rbp
	.cfi_def_cfa_offset 16
	.cfi_offset %rbp, -16
	movq	%rsp, %rbp
	.cfi_def_cfa_register %rbp
	subq	$16, %rsp
	xorl	%eax, %eax
	movl	%eax, %ecx
	cmpq	$0, (%rdi)
	movl	$1, %edx
	cmovbeq	%rcx, %rdx
	cmpq	$0, %rdx
	movq	%rdi, -16(%rbp)
	jne	LBB189_2
LBB189_1:
	addq	$16, %rsp
	popq	%rbp
	retq
LBB189_2:
	movq	-16(%rbp), %rax
	movq	%rax, %rdi
	callq	__ZN4core3ptr13drop_in_place17h06786e25de60db61E
	jmp	LBB189_1
	.cfi_endproc

	.p2align	4, 0x90
__ZN4core3ptr13drop_in_place17hc135065811725e33E:
	.cfi_startproc
	pushq	%rbp
	.cfi_def_cfa_offset 16
	.cfi_offset %rbp, -16
	movq	%rsp, %rbp
	.cfi_def_cfa_register %rbp
	subq	$32, %rsp
	movq	(%rdi), %rax
	testq	%rax, %rax
	movq	%rdi, -16(%rbp)
	movq	%rax, -24(%rbp)
	je	LBB190_2
	jmp	LBB190_5
LBB190_5:
	movq	-24(%rbp), %rax
	subq	$1, %rax
	je	LBB190_3
	jmp	LBB190_4
LBB190_1:
	addq	$32, %rsp
	popq	%rbp
	retq
LBB190_2:
	movq	-16(%rbp), %rax
	addq	$8, %rax
	movq	%rax, %rdi
	callq	__ZN4core3ptr13drop_in_place17h489741301a74e9e2E
	jmp	LBB190_1
LBB190_3:
	movq	-16(%rbp), %rax
	addq	$8, %rax
	movq	%rax, %rdi
	callq	__ZN4core3ptr13drop_in_place17hffae95274b8a29e6E
	jmp	LBB190_1
LBB190_4:
	movq	-16(%rbp), %rax
	addq	$8, %rax
	movq	%rax, %rdi
	callq	__ZN4core3ptr13drop_in_place17h29109470afdd4bd8E
	jmp	LBB190_1
	.cfi_endproc

	.p2align	4, 0x90
__ZN4core3ptr13drop_in_place17hc8b961dcfd0ebf6cE:
Lfunc_begin45:
	.cfi_startproc
	.cfi_personality 155, _rust_eh_personality
	.cfi_lsda 16, Lexception45
	pushq	%rbp
	.cfi_def_cfa_offset 16
	.cfi_offset %rbp, -16
	movq	%rsp, %rbp
	.cfi_def_cfa_register %rbp
	subq	$32, %rsp
	movq	(%rdi), %rax
	movq	8(%rdi), %rcx
	movq	(%rcx), %rcx
Ltmp475:
	movq	%rdi, -32(%rbp)
	movq	%rax, %rdi
	callq	*%rcx
Ltmp476:
	jmp	LBB191_3
LBB191_1:
	addq	$32, %rsp
	popq	%rbp
	retq
LBB191_2:
	movq	-16(%rbp), %rdi
	callq	__Unwind_Resume
	ud2
LBB191_3:
	movq	-32(%rbp), %rax
	movq	(%rax), %rdi
	movq	8(%rax), %rsi
	callq	__ZN5alloc5alloc8box_free17hba499e145a359fe3E
	jmp	LBB191_1
LBB191_4:
	movq	-32(%rbp), %rax
	movq	(%rax), %rdi
	movq	8(%rax), %rsi
	callq	__ZN5alloc5alloc8box_free17hba499e145a359fe3E
	jmp	LBB191_2
LBB191_5:
Ltmp477:
	movq	%rax, -16(%rbp)
	movl	%edx, -8(%rbp)
	jmp	LBB191_4
Lfunc_end45:
	.cfi_endproc
	.section	__TEXT,__gcc_except_tab
	.p2align	2
GCC_except_table191:
Lexception45:
	.byte	255
	.byte	255
	.byte	1
	.uleb128 Lcst_end45-Lcst_begin45
Lcst_begin45:
	.uleb128 Ltmp475-Lfunc_begin45
	.uleb128 Ltmp476-Ltmp475
	.uleb128 Ltmp477-Lfunc_begin45
	.byte	0
	.uleb128 Ltmp476-Lfunc_begin45
	.uleb128 Lfunc_end45-Ltmp476
	.byte	0
	.byte	0
Lcst_end45:
	.p2align	2

	.section	__TEXT,__text,regular,pure_instructions
	.p2align	4, 0x90
__ZN4core3ptr13drop_in_place17hc8e9f9d1502d99c0E:
	.cfi_startproc
	pushq	%rbp
	.cfi_def_cfa_offset 16
	.cfi_offset %rbp, -16
	movq	%rsp, %rbp
	.cfi_def_cfa_register %rbp
	subq	$16, %rsp
	callq	__ZN4core3ptr13drop_in_place17hd54ede7d4898a8d0E
	addq	$16, %rsp
	popq	%rbp
	retq
	.cfi_endproc

	.p2align	4, 0x90
__ZN4core3ptr13drop_in_place17hccf3ad9fe1c18d05E:
	.cfi_startproc
	pushq	%rbp
	.cfi_def_cfa_offset 16
	.cfi_offset %rbp, -16
	movq	%rsp, %rbp
	.cfi_def_cfa_register %rbp
	subq	$16, %rsp
	callq	__ZN77_$LT$alloc..raw_vec..RawVec$LT$T$C$A$GT$$u20$as$u20$core..ops..drop..Drop$GT$4drop17hc2dbe83c4a53c126E
	addq	$16, %rsp
	popq	%rbp
	retq
	.cfi_endproc

	.p2align	4, 0x90
__ZN4core3ptr13drop_in_place17hd0abf8061b9f541fE:
	.cfi_startproc
	pushq	%rbp
	.cfi_def_cfa_offset 16
	.cfi_offset %rbp, -16
	movq	%rsp, %rbp
	.cfi_def_cfa_register %rbp
	subq	$16, %rsp
	xorl	%eax, %eax
	movl	%eax, %ecx
	movq	(%rdi), %rdx
	subq	$3, %rdx
	cmpq	$0, %rdx
	movl	$1, %edx
	cmovbeq	%rcx, %rdx
	cmpq	$0, %rdx
	movq	%rdi, -16(%rbp)
	jne	LBB194_2
LBB194_1:
	addq	$16, %rsp
	popq	%rbp
	retq
LBB194_2:
	movq	-16(%rbp), %rax
	movq	%rax, %rdi
	callq	__ZN4core3ptr13drop_in_place17h4527677dd6f15223E
	jmp	LBB194_1
	.cfi_endproc

	.p2align	4, 0x90
__ZN4core3ptr13drop_in_place17hd2d9d303ac87b4d4E:
	.cfi_startproc
	pushq	%rbp
	.cfi_def_cfa_offset 16
	.cfi_offset %rbp, -16
	movq	%rsp, %rbp
	.cfi_def_cfa_register %rbp
	subq	$16, %rsp
	callq	__ZN77_$LT$alloc..raw_vec..RawVec$LT$T$C$A$GT$$u20$as$u20$core..ops..drop..Drop$GT$4drop17h47a0334daa8be0a9E
	addq	$16, %rsp
	popq	%rbp
	retq
	.cfi_endproc

	.p2align	4, 0x90
__ZN4core3ptr13drop_in_place17hd54ede7d4898a8d0E:
Lfunc_begin46:
	.cfi_startproc
	.cfi_personality 155, _rust_eh_personality
	.cfi_lsda 16, Lexception46
	pushq	%rbp
	.cfi_def_cfa_offset 16
	.cfi_offset %rbp, -16
	movq	%rsp, %rbp
	.cfi_def_cfa_register %rbp
	subq	$32, %rsp
	movq	(%rdi), %rax
	movq	8(%rdi), %rcx
	movq	(%rcx), %rcx
Ltmp478:
	movq	%rdi, -32(%rbp)
	movq	%rax, %rdi
	callq	*%rcx
Ltmp479:
	jmp	LBB196_3
LBB196_1:
	addq	$32, %rsp
	popq	%rbp
	retq
LBB196_2:
	movq	-16(%rbp), %rdi
	callq	__Unwind_Resume
	ud2
LBB196_3:
	movq	-32(%rbp), %rax
	movq	(%rax), %rdi
	movq	8(%rax), %rsi
	callq	__ZN5alloc5alloc8box_free17hbb594675a227589eE
	jmp	LBB196_1
LBB196_4:
	movq	-32(%rbp), %rax
	movq	(%rax), %rdi
	movq	8(%rax), %rsi
	callq	__ZN5alloc5alloc8box_free17hbb594675a227589eE
	jmp	LBB196_2
LBB196_5:
Ltmp480:
	movq	%rax, -16(%rbp)
	movl	%edx, -8(%rbp)
	jmp	LBB196_4
Lfunc_end46:
	.cfi_endproc
	.section	__TEXT,__gcc_except_tab
	.p2align	2
GCC_except_table196:
Lexception46:
	.byte	255
	.byte	255
	.byte	1
	.uleb128 Lcst_end46-Lcst_begin46
Lcst_begin46:
	.uleb128 Ltmp478-Lfunc_begin46
	.uleb128 Ltmp479-Ltmp478
	.uleb128 Ltmp480-Lfunc_begin46
	.byte	0
	.uleb128 Ltmp479-Lfunc_begin46
	.uleb128 Lfunc_end46-Ltmp479
	.byte	0
	.byte	0
Lcst_end46:
	.p2align	2

	.section	__TEXT,__text,regular,pure_instructions
	.p2align	4, 0x90
__ZN4core3ptr13drop_in_place17hd934812a3ad838d2E:
	.cfi_startproc
	pushq	%rbp
	.cfi_def_cfa_offset 16
	.cfi_offset %rbp, -16
	movq	%rsp, %rbp
	.cfi_def_cfa_register %rbp
	subq	$16, %rsp
	callq	__ZN85_$LT$proc_macro..bridge..buffer..Buffer$LT$T$GT$$u20$as$u20$core..ops..drop..Drop$GT$4drop17h06167d9dd0fe3b56E
	addq	$16, %rsp
	popq	%rbp
	retq
	.cfi_endproc

	.p2align	4, 0x90
__ZN4core3ptr13drop_in_place17hd9a6783ebafc10efE:
	.cfi_startproc
	pushq	%rbp
	.cfi_def_cfa_offset 16
	.cfi_offset %rbp, -16
	movq	%rsp, %rbp
	.cfi_def_cfa_register %rbp
	pushq	%rax
	addq	$8, %rsp
	popq	%rbp
	retq
	.cfi_endproc

	.p2align	4, 0x90
__ZN4core3ptr13drop_in_place17hf40b175d300980a8E:
	.cfi_startproc
	pushq	%rbp
	.cfi_def_cfa_offset 16
	.cfi_offset %rbp, -16
	movq	%rsp, %rbp
	.cfi_def_cfa_register %rbp
	subq	$16, %rsp
	callq	*(%rsi)
	addq	$16, %rsp
	popq	%rbp
	retq
	.cfi_endproc

	.p2align	4, 0x90
__ZN4core3ptr13drop_in_place17hffae95274b8a29e6E:
	.cfi_startproc
	pushq	%rbp
	.cfi_def_cfa_offset 16
	.cfi_offset %rbp, -16
	movq	%rsp, %rbp
	.cfi_def_cfa_register %rbp
	subq	$16, %rsp
	callq	__ZN4core3ptr13drop_in_place17h30cfb244c1110322E
	addq	$16, %rsp
	popq	%rbp
	retq
	.cfi_endproc

	.p2align	4, 0x90
__ZN4core3ptr14read_unaligned17h2c7dcb9a3206757cE:
	.cfi_startproc
	pushq	%rbp
	.cfi_def_cfa_offset 16
	.cfi_offset %rbp, -16
	movq	%rsp, %rbp
	.cfi_def_cfa_register %rbp
	subq	$288, %rsp
	movq	%rdi, %rax
	movq	%rsi, -208(%rbp)
	movq	%rdi, -216(%rbp)
	movq	%rax, -224(%rbp)
	movq	-208(%rbp), %rax
	leaq	-200(%rbp), %rcx
	movq	%rax, -232(%rbp)
	movq	%rcx, -240(%rbp)
	movq	-240(%rbp), %rax
	movq	$64, -8(%rbp)
	movq	-8(%rbp), %rdx
	movq	%rax, -248(%rbp)
	movq	%rdx, -256(%rbp)
	movq	-232(%rbp), %rdi
	movq	-248(%rbp), %rsi
	movq	-256(%rbp), %rdx
	callq	__ZN4core10intrinsics19copy_nonoverlapping17h58cf767007f9ade4E
	leaq	-136(%rbp), %rax
	movq	%rax, %rcx
	leaq	-200(%rbp), %rdx
	movq	%rcx, %rdi
	movq	%rdx, %rsi
	movl	$64, %ecx
	movq	%rcx, %rdx
	movq	%rax, -264(%rbp)
	movq	%rcx, -272(%rbp)
	callq	_memcpy
	movq	-264(%rbp), %rax
	leaq	-72(%rbp), %rcx
	movq	%rcx, %rdx
	movq	%rdx, %rdi
	movq	%rax, %rsi
	movq	-272(%rbp), %rdx
	movq	%rcx, -280(%rbp)
	callq	_memcpy
	movq	-280(%rbp), %rax
	movq	-216(%rbp), %rcx
	movq	%rcx, %rdi
	movq	%rax, %rsi
	movq	-272(%rbp), %rdx
	callq	_memcpy
	movq	-224(%rbp), %rax
	addq	$288, %rsp
	popq	%rbp
	retq
	.cfi_endproc

	.p2align	4, 0x90
__ZN4core3ptr19swap_nonoverlapping17h41a03ab4cf09e569E:
	.cfi_startproc
	pushq	%rbp
	.cfi_def_cfa_offset 16
	.cfi_offset %rbp, -16
	movq	%rsp, %rbp
	.cfi_def_cfa_register %rbp
	subq	$48, %rsp
	movq	$1, -8(%rbp)
	movq	-8(%rbp), %rax
	movq	%rdi, -16(%rbp)
	movq	%rsi, -24(%rbp)
	movq	%rdx, -32(%rbp)
	movq	%rax, -40(%rbp)
	movq	-40(%rbp), %rax
	movq	-32(%rbp), %rcx
	imulq	%rcx, %rax
	movq	-16(%rbp), %rdi
	movq	-24(%rbp), %rsi
	movq	%rax, %rdx
	callq	__ZN4core3ptr25swap_nonoverlapping_bytes17h2545844709b2698dE
	addq	$48, %rsp
	popq	%rbp
	retq
	.cfi_endproc

	.p2align	4, 0x90
__ZN4core3ptr19swap_nonoverlapping17h6800bc0369607859E:
	.cfi_startproc
	pushq	%rbp
	.cfi_def_cfa_offset 16
	.cfi_offset %rbp, -16
	movq	%rsp, %rbp
	.cfi_def_cfa_register %rbp
	subq	$48, %rsp
	movq	$40, -8(%rbp)
	movq	-8(%rbp), %rax
	movq	%rdx, -16(%rbp)
	movq	%rdi, -24(%rbp)
	movq	%rsi, -32(%rbp)
	movq	%rax, -40(%rbp)
	movq	-40(%rbp), %rax
	movq	-16(%rbp), %rcx
	imulq	%rcx, %rax
	movq	-24(%rbp), %rdi
	movq	-32(%rbp), %rsi
	movq	%rax, %rdx
	callq	__ZN4core3ptr25swap_nonoverlapping_bytes17h2545844709b2698dE
	addq	$48, %rsp
	popq	%rbp
	retq
	.cfi_endproc

	.p2align	4, 0x90
__ZN4core3ptr19swap_nonoverlapping17he426831a46280b23E:
	.cfi_startproc
	pushq	%rbp
	.cfi_def_cfa_offset 16
	.cfi_offset %rbp, -16
	movq	%rsp, %rbp
	.cfi_def_cfa_register %rbp
	subq	$48, %rsp
	movq	$64, -8(%rbp)
	movq	-8(%rbp), %rax
	movq	%rdx, -16(%rbp)
	movq	%rdi, -24(%rbp)
	movq	%rsi, -32(%rbp)
	movq	%rax, -40(%rbp)
	movq	-40(%rbp), %rax
	movq	-16(%rbp), %rcx
	imulq	%rcx, %rax
	movq	-24(%rbp), %rdi
	movq	-32(%rbp), %rsi
	movq	%rax, %rdx
	callq	__ZN4core3ptr25swap_nonoverlapping_bytes17h2545844709b2698dE
	addq	$48, %rsp
	popq	%rbp
	retq
	.cfi_endproc

	.p2align	4, 0x90
__ZN4core3ptr19swap_nonoverlapping17hecc8f331992b8b85E:
	.cfi_startproc
	pushq	%rbp
	.cfi_def_cfa_offset 16
	.cfi_offset %rbp, -16
	movq	%rsp, %rbp
	.cfi_def_cfa_register %rbp
	subq	$48, %rsp
	movq	$64, -8(%rbp)
	movq	-8(%rbp), %rax
	movq	%rdx, -16(%rbp)
	movq	%rdi, -24(%rbp)
	movq	%rsi, -32(%rbp)
	movq	%rax, -40(%rbp)
	movq	-40(%rbp), %rax
	movq	-16(%rbp), %rcx
	imulq	%rcx, %rax
	movq	-24(%rbp), %rdi
	movq	-32(%rbp), %rsi
	movq	%rax, %rdx
	callq	__ZN4core3ptr25swap_nonoverlapping_bytes17h2545844709b2698dE
	addq	$48, %rsp
	popq	%rbp
	retq
	.cfi_endproc

	.p2align	4, 0x90
__ZN4core3ptr20slice_from_raw_parts17h0effcc2fb4713848E:
	.cfi_startproc
	pushq	%rbp
	.cfi_def_cfa_offset 16
	.cfi_offset %rbp, -16
	movq	%rsp, %rbp
	.cfi_def_cfa_register %rbp
	subq	$32, %rsp
	movq	%rdi, -16(%rbp)
	movq	%rsi, -8(%rbp)
	movq	-16(%rbp), %rax
	movq	-8(%rbp), %rcx
	movq	%rax, -32(%rbp)
	movq	%rcx, -24(%rbp)
	movq	-32(%rbp), %rax
	movq	-24(%rbp), %rdx
	addq	$32, %rsp
	popq	%rbp
	retq
	.cfi_endproc

	.p2align	4, 0x90
__ZN4core3ptr23swap_nonoverlapping_one17h094959dddf4e3151E:
Lfunc_begin47:
	.cfi_startproc
	.cfi_personality 155, _rust_eh_personality
	.cfi_lsda 16, Lexception47
	pushq	%rbp
	.cfi_def_cfa_offset 16
	.cfi_offset %rbp, -16
	movq	%rsp, %rbp
	.cfi_def_cfa_register %rbp
	subq	$64, %rsp
	movb	$0, -25(%rbp)
	movq	$1, -8(%rbp)
	movq	-8(%rbp), %rax
	movq	%rdi, -40(%rbp)
	movq	%rsi, -48(%rbp)
	movq	%rax, -56(%rbp)
	jmp	LBB207_2
LBB207_1:
	movq	-24(%rbp), %rdi
	callq	__Unwind_Resume
	ud2
LBB207_2:
	movq	-56(%rbp), %rax
	cmpq	$32, %rax
	jb	LBB207_4
	movq	-40(%rbp), %rdi
	movq	-48(%rbp), %rsi
	movl	$1, %edx
	callq	__ZN4core3ptr19swap_nonoverlapping17h41a03ab4cf09e569E
	jmp	LBB207_8
LBB207_4:
	movb	$1, -25(%rbp)
	movq	-40(%rbp), %rdi
	callq	__ZN4core3ptr4read17h5baecf2e7b7f884cE
	movb	%al, -57(%rbp)
Ltmp481:
	movl	$1, %edx
	movq	-48(%rbp), %rdi
	movq	-40(%rbp), %rsi
	callq	__ZN4core10intrinsics19copy_nonoverlapping17h9b424326d812a488E
Ltmp482:
	jmp	LBB207_6
LBB207_6:
	movb	$0, -25(%rbp)
Ltmp483:
	movb	-57(%rbp), %al
	movzbl	%al, %ecx
	andl	$1, %ecx
	movq	-48(%rbp), %rdi
	movl	%ecx, %esi
	callq	__ZN4core3ptr5write17h98f3f89109af99f9E
Ltmp484:
	jmp	LBB207_7
LBB207_7:
	movb	$0, -25(%rbp)
	jmp	LBB207_9
LBB207_8:
	jmp	LBB207_9
LBB207_9:
	addq	$64, %rsp
	popq	%rbp
	retq
LBB207_10:
	movb	$0, -25(%rbp)
	jmp	LBB207_1
LBB207_11:
	testb	$1, -25(%rbp)
	jne	LBB207_10
	jmp	LBB207_1
LBB207_12:
Ltmp485:
	movq	%rax, -24(%rbp)
	movl	%edx, -16(%rbp)
	jmp	LBB207_11
Lfunc_end47:
	.cfi_endproc
	.section	__TEXT,__gcc_except_tab
	.p2align	2
GCC_except_table207:
Lexception47:
	.byte	255
	.byte	255
	.byte	1
	.uleb128 Lcst_end47-Lcst_begin47
Lcst_begin47:
	.uleb128 Lfunc_begin47-Lfunc_begin47
	.uleb128 Ltmp481-Lfunc_begin47
	.byte	0
	.byte	0
	.uleb128 Ltmp481-Lfunc_begin47
	.uleb128 Ltmp484-Ltmp481
	.uleb128 Ltmp485-Lfunc_begin47
	.byte	0
Lcst_end47:
	.p2align	2

	.section	__TEXT,__text,regular,pure_instructions
	.p2align	4, 0x90
__ZN4core3ptr23swap_nonoverlapping_one17h7791c3949f712d8eE:
Lfunc_begin48:
	.cfi_startproc
	.cfi_personality 155, _rust_eh_personality
	.cfi_lsda 16, Lexception48
	pushq	%rbp
	.cfi_def_cfa_offset 16
	.cfi_offset %rbp, -16
	movq	%rsp, %rbp
	.cfi_def_cfa_register %rbp
	subq	$144, %rsp
	movb	$0, -25(%rbp)
	movq	$40, -8(%rbp)
	movq	-8(%rbp), %rax
	movq	%rdi, -128(%rbp)
	movq	%rsi, -136(%rbp)
	movq	%rax, -144(%rbp)
	jmp	LBB208_2
LBB208_1:
	movq	-24(%rbp), %rdi
	callq	__Unwind_Resume
	ud2
LBB208_2:
	movq	-144(%rbp), %rax
	cmpq	$32, %rax
	jb	LBB208_4
	movq	-128(%rbp), %rdi
	movq	-136(%rbp), %rsi
	movl	$1, %edx
	callq	__ZN4core3ptr19swap_nonoverlapping17h6800bc0369607859E
	jmp	LBB208_8
LBB208_4:
	movb	$1, -25(%rbp)
	leaq	-112(%rbp), %rdi
	movq	-128(%rbp), %rsi
	callq	__ZN4core3ptr4read17h75ce344a6e843202E
Ltmp486:
	movl	$1, %edx
	movq	-136(%rbp), %rdi
	movq	-128(%rbp), %rsi
	callq	__ZN4core10intrinsics19copy_nonoverlapping17he4c3330fd28c5c97E
Ltmp487:
	jmp	LBB208_6
LBB208_6:
	movb	$0, -25(%rbp)
	movq	-80(%rbp), %rax
	movq	%rax, -40(%rbp)
	movq	-88(%rbp), %rax
	movq	%rax, -48(%rbp)
	movq	-96(%rbp), %rax
	movq	%rax, -56(%rbp)
	movq	-112(%rbp), %rax
	movq	-104(%rbp), %rcx
	movq	%rcx, -64(%rbp)
	movq	%rax, -72(%rbp)
Ltmp488:
	leaq	-72(%rbp), %rsi
	movq	-136(%rbp), %rdi
	callq	__ZN4core3ptr5write17h1ff997067a87e288E
Ltmp489:
	jmp	LBB208_7
LBB208_7:
	movb	$0, -25(%rbp)
	jmp	LBB208_9
LBB208_8:
	jmp	LBB208_9
LBB208_9:
	addq	$144, %rsp
	popq	%rbp
	retq
LBB208_10:
	movb	$0, -25(%rbp)
	leaq	-112(%rbp), %rdi
	callq	__ZN4core3ptr13drop_in_place17hd934812a3ad838d2E
	jmp	LBB208_1
LBB208_11:
	testb	$1, -25(%rbp)
	jne	LBB208_10
	jmp	LBB208_1
LBB208_12:
Ltmp490:
	movq	%rax, -24(%rbp)
	movl	%edx, -16(%rbp)
	jmp	LBB208_11
Lfunc_end48:
	.cfi_endproc
	.section	__TEXT,__gcc_except_tab
	.p2align	2
GCC_except_table208:
Lexception48:
	.byte	255
	.byte	255
	.byte	1
	.uleb128 Lcst_end48-Lcst_begin48
Lcst_begin48:
	.uleb128 Lfunc_begin48-Lfunc_begin48
	.uleb128 Ltmp486-Lfunc_begin48
	.byte	0
	.byte	0
	.uleb128 Ltmp486-Lfunc_begin48
	.uleb128 Ltmp489-Ltmp486
	.uleb128 Ltmp490-Lfunc_begin48
	.byte	0
	.uleb128 Ltmp489-Lfunc_begin48
	.uleb128 Lfunc_end48-Ltmp489
	.byte	0
	.byte	0
Lcst_end48:
	.p2align	2

	.section	__TEXT,__text,regular,pure_instructions
	.p2align	4, 0x90
__ZN4core3ptr23swap_nonoverlapping_one17hefc442880e8d80afE:
Lfunc_begin49:
	.cfi_startproc
	.cfi_personality 155, _rust_eh_personality
	.cfi_lsda 16, Lexception49
	pushq	%rbp
	.cfi_def_cfa_offset 16
	.cfi_offset %rbp, -16
	movq	%rsp, %rbp
	.cfi_def_cfa_register %rbp
	subq	$192, %rsp
	movb	$0, -25(%rbp)
	movq	$64, -8(%rbp)
	movq	-8(%rbp), %rax
	movq	%rdi, -176(%rbp)
	movq	%rsi, -184(%rbp)
	movq	%rax, -192(%rbp)
	jmp	LBB209_2
LBB209_1:
	movq	-24(%rbp), %rdi
	callq	__Unwind_Resume
	ud2
LBB209_2:
	movq	-192(%rbp), %rax
	cmpq	$32, %rax
	jb	LBB209_4
	movq	-176(%rbp), %rdi
	movq	-184(%rbp), %rsi
	movl	$1, %edx
	callq	__ZN4core3ptr19swap_nonoverlapping17hecc8f331992b8b85E
	jmp	LBB209_8
LBB209_4:
	movb	$1, -25(%rbp)
	leaq	-160(%rbp), %rdi
	movq	-176(%rbp), %rsi
	callq	__ZN4core3ptr4read17ha7a2f72229337526E
Ltmp491:
	movl	$1, %edx
	movq	-184(%rbp), %rdi
	movq	-176(%rbp), %rsi
	callq	__ZN4core10intrinsics19copy_nonoverlapping17h3fd33759bd599be5E
Ltmp492:
	jmp	LBB209_6
LBB209_6:
	movb	$0, -25(%rbp)
	movq	-104(%rbp), %rax
	movq	%rax, -40(%rbp)
	movq	-112(%rbp), %rax
	movq	%rax, -48(%rbp)
	movq	-120(%rbp), %rax
	movq	%rax, -56(%rbp)
	movq	-128(%rbp), %rax
	movq	%rax, -64(%rbp)
	movq	-136(%rbp), %rax
	movq	%rax, -72(%rbp)
	movq	-144(%rbp), %rax
	movq	%rax, -80(%rbp)
	movq	-160(%rbp), %rax
	movq	-152(%rbp), %rcx
	movq	%rcx, -88(%rbp)
	movq	%rax, -96(%rbp)
Ltmp493:
	leaq	-96(%rbp), %rsi
	movq	-184(%rbp), %rdi
	callq	__ZN4core3ptr5write17h61e82a2b9f44da89E
Ltmp494:
	jmp	LBB209_7
LBB209_7:
	movb	$0, -25(%rbp)
	jmp	LBB209_9
LBB209_8:
	jmp	LBB209_9
LBB209_9:
	addq	$192, %rsp
	popq	%rbp
	retq
LBB209_10:
	movb	$0, -25(%rbp)
	leaq	-160(%rbp), %rdi
	callq	__ZN4core3ptr13drop_in_place17hd0abf8061b9f541fE
	jmp	LBB209_1
LBB209_11:
	testb	$1, -25(%rbp)
	jne	LBB209_10
	jmp	LBB209_1
LBB209_12:
Ltmp495:
	movq	%rax, -24(%rbp)
	movl	%edx, -16(%rbp)
	jmp	LBB209_11
Lfunc_end49:
	.cfi_endproc
	.section	__TEXT,__gcc_except_tab
	.p2align	2
GCC_except_table209:
Lexception49:
	.byte	255
	.byte	255
	.byte	1
	.uleb128 Lcst_end49-Lcst_begin49
Lcst_begin49:
	.uleb128 Lfunc_begin49-Lfunc_begin49
	.uleb128 Ltmp491-Lfunc_begin49
	.byte	0
	.byte	0
	.uleb128 Ltmp491-Lfunc_begin49
	.uleb128 Ltmp494-Ltmp491
	.uleb128 Ltmp495-Lfunc_begin49
	.byte	0
	.uleb128 Ltmp494-Lfunc_begin49
	.uleb128 Lfunc_end49-Ltmp494
	.byte	0
	.byte	0
Lcst_end49:
	.p2align	2

	.section	__TEXT,__text,regular,pure_instructions
	.p2align	4, 0x90
__ZN4core3ptr23swap_nonoverlapping_one17hf79ad6955226e58bE:
Lfunc_begin50:
	.cfi_startproc
	.cfi_personality 155, _rust_eh_personality
	.cfi_lsda 16, Lexception50
	pushq	%rbp
	.cfi_def_cfa_offset 16
	.cfi_offset %rbp, -16
	movq	%rsp, %rbp
	.cfi_def_cfa_register %rbp
	subq	$192, %rsp
	movb	$0, -25(%rbp)
	movq	$64, -8(%rbp)
	movq	-8(%rbp), %rax
	movq	%rdi, -176(%rbp)
	movq	%rsi, -184(%rbp)
	movq	%rax, -192(%rbp)
	jmp	LBB210_2
LBB210_1:
	movq	-24(%rbp), %rdi
	callq	__Unwind_Resume
	ud2
LBB210_2:
	movq	-192(%rbp), %rax
	cmpq	$32, %rax
	jb	LBB210_4
	movq	-176(%rbp), %rdi
	movq	-184(%rbp), %rsi
	movl	$1, %edx
	callq	__ZN4core3ptr19swap_nonoverlapping17he426831a46280b23E
	jmp	LBB210_8
LBB210_4:
	movb	$1, -25(%rbp)
	leaq	-160(%rbp), %rdi
	movq	-176(%rbp), %rsi
	callq	__ZN4core3ptr4read17h7a9af23bea03a54bE
Ltmp496:
	movl	$1, %edx
	movq	-184(%rbp), %rdi
	movq	-176(%rbp), %rsi
	callq	__ZN4core10intrinsics19copy_nonoverlapping17h85741f8f90c99582E
Ltmp497:
	jmp	LBB210_6
LBB210_6:
	movb	$0, -25(%rbp)
	movq	-104(%rbp), %rax
	movq	%rax, -40(%rbp)
	movq	-112(%rbp), %rax
	movq	%rax, -48(%rbp)
	movq	-120(%rbp), %rax
	movq	%rax, -56(%rbp)
	movq	-128(%rbp), %rax
	movq	%rax, -64(%rbp)
	movq	-136(%rbp), %rax
	movq	%rax, -72(%rbp)
	movq	-144(%rbp), %rax
	movq	%rax, -80(%rbp)
	movq	-160(%rbp), %rax
	movq	-152(%rbp), %rcx
	movq	%rcx, -88(%rbp)
	movq	%rax, -96(%rbp)
Ltmp498:
	leaq	-96(%rbp), %rsi
	movq	-184(%rbp), %rdi
	callq	__ZN4core3ptr5write17h7e1cf417907b8b94E
Ltmp499:
	jmp	LBB210_7
LBB210_7:
	movb	$0, -25(%rbp)
	jmp	LBB210_9
LBB210_8:
	jmp	LBB210_9
LBB210_9:
	addq	$192, %rsp
	popq	%rbp
	retq
LBB210_10:
	movb	$0, -25(%rbp)
	leaq	-160(%rbp), %rdi
	callq	__ZN4core3ptr13drop_in_place17h4527677dd6f15223E
	jmp	LBB210_1
LBB210_11:
	testb	$1, -25(%rbp)
	jne	LBB210_10
	jmp	LBB210_1
LBB210_12:
Ltmp500:
	movq	%rax, -24(%rbp)
	movl	%edx, -16(%rbp)
	jmp	LBB210_11
Lfunc_end50:
	.cfi_endproc
	.section	__TEXT,__gcc_except_tab
	.p2align	2
GCC_except_table210:
Lexception50:
	.byte	255
	.byte	255
	.byte	1
	.uleb128 Lcst_end50-Lcst_begin50
Lcst_begin50:
	.uleb128 Lfunc_begin50-Lfunc_begin50
	.uleb128 Ltmp496-Lfunc_begin50
	.byte	0
	.byte	0
	.uleb128 Ltmp496-Lfunc_begin50
	.uleb128 Ltmp499-Ltmp496
	.uleb128 Ltmp500-Lfunc_begin50
	.byte	0
	.uleb128 Ltmp499-Lfunc_begin50
	.uleb128 Lfunc_end50-Ltmp499
	.byte	0
	.byte	0
Lcst_end50:
	.p2align	2

	.section	__TEXT,__text,regular,pure_instructions
	.p2align	4, 0x90
__ZN4core3ptr24slice_from_raw_parts_mut17h1d25dfb28bacfbc8E:
	.cfi_startproc
	pushq	%rbp
	.cfi_def_cfa_offset 16
	.cfi_offset %rbp, -16
	movq	%rsp, %rbp
	.cfi_def_cfa_register %rbp
	subq	$32, %rsp
	movq	%rdi, -16(%rbp)
	movq	%rsi, -8(%rbp)
	movq	-16(%rbp), %rax
	movq	-8(%rbp), %rcx
	movq	%rax, -32(%rbp)
	movq	%rcx, -24(%rbp)
	movq	-32(%rbp), %rax
	movq	-24(%rbp), %rdx
	addq	$32, %rsp
	popq	%rbp
	retq
	.cfi_endproc

	.p2align	4, 0x90
__ZN4core3ptr24slice_from_raw_parts_mut17h5346a174644914abE:
	.cfi_startproc
	pushq	%rbp
	.cfi_def_cfa_offset 16
	.cfi_offset %rbp, -16
	movq	%rsp, %rbp
	.cfi_def_cfa_register %rbp
	subq	$32, %rsp
	movq	%rdi, -16(%rbp)
	movq	%rsi, -8(%rbp)
	movq	-16(%rbp), %rax
	movq	-8(%rbp), %rcx
	movq	%rax, -32(%rbp)
	movq	%rcx, -24(%rbp)
	movq	-32(%rbp), %rax
	movq	-24(%rbp), %rdx
	addq	$32, %rsp
	popq	%rbp
	retq
	.cfi_endproc

	.p2align	4, 0x90
__ZN4core3ptr25swap_nonoverlapping_bytes17h2545844709b2698dE:
	.cfi_startproc
	pushq	%rbp
	.cfi_def_cfa_offset 16
	.cfi_offset %rbp, -16
	movq	%rsp, %rbp
	.cfi_def_cfa_register %rbp
	andq	$-32, %rsp
	subq	$224, %rsp
	movq	$32, 200(%rsp)
	movq	200(%rsp), %rax
	movq	%rdi, 104(%rsp)
	movq	%rsi, 96(%rsp)
	movq	%rdx, 88(%rsp)
	movq	%rax, 80(%rsp)
	movq	$0, 120(%rsp)
LBB213_2:
	movq	80(%rsp), %rax
	addq	120(%rsp), %rax
	movq	88(%rsp), %rcx
	cmpq	%rcx, %rax
	jbe	LBB213_4
	movq	88(%rsp), %rax
	cmpq	%rax, 120(%rsp)
	jb	LBB213_13
	jmp	LBB213_12
LBB213_4:
	jmp	LBB213_6
LBB213_6:
	leaq	128(%rsp), %rax
	movq	120(%rsp), %rsi
	movq	104(%rsp), %rdi
	movq	%rax, 72(%rsp)
	callq	__ZN4core3ptr7mut_ptr31_$LT$impl$u20$$BP$mut$u20$T$GT$3add17h3dcece799e74d8b4E
	movq	%rax, 64(%rsp)
	movq	120(%rsp), %rsi
	movq	96(%rsp), %rdi
	callq	__ZN4core3ptr7mut_ptr31_$LT$impl$u20$$BP$mut$u20$T$GT$3add17h3dcece799e74d8b4E
	movq	%rax, 56(%rsp)
	movq	64(%rsp), %rdi
	movq	72(%rsp), %rsi
	movq	80(%rsp), %rdx
	callq	__ZN4core10intrinsics19copy_nonoverlapping17h58cf767007f9ade4E
	movq	56(%rsp), %rdi
	movq	64(%rsp), %rsi
	movq	80(%rsp), %rdx
	callq	__ZN4core10intrinsics19copy_nonoverlapping17h58cf767007f9ade4E
	movq	72(%rsp), %rdi
	movq	56(%rsp), %rsi
	movq	80(%rsp), %rdx
	callq	__ZN4core10intrinsics19copy_nonoverlapping17h58cf767007f9ade4E
	movq	80(%rsp), %rax
	addq	120(%rsp), %rax
	movq	%rax, 120(%rsp)
	jmp	LBB213_2
LBB213_12:
	jmp	LBB213_21
LBB213_13:
	movq	88(%rsp), %rax
	subq	120(%rsp), %rax
	leaq	168(%rsp), %rcx
	movq	%rax, 48(%rsp)
	movq	%rcx, 40(%rsp)
	movq	40(%rsp), %rax
	movq	120(%rsp), %rsi
	movq	104(%rsp), %rdi
	movq	%rax, 32(%rsp)
	callq	__ZN4core3ptr7mut_ptr31_$LT$impl$u20$$BP$mut$u20$T$GT$3add17h3dcece799e74d8b4E
	movq	%rax, 24(%rsp)
	movq	120(%rsp), %rsi
	movq	96(%rsp), %rdi
	callq	__ZN4core3ptr7mut_ptr31_$LT$impl$u20$$BP$mut$u20$T$GT$3add17h3dcece799e74d8b4E
	movq	%rax, 16(%rsp)
	movq	24(%rsp), %rdi
	movq	32(%rsp), %rsi
	movq	48(%rsp), %rdx
	callq	__ZN4core10intrinsics19copy_nonoverlapping17h58cf767007f9ade4E
	movq	16(%rsp), %rdi
	movq	24(%rsp), %rsi
	movq	48(%rsp), %rdx
	callq	__ZN4core10intrinsics19copy_nonoverlapping17h58cf767007f9ade4E
	movq	32(%rsp), %rdi
	movq	16(%rsp), %rsi
	movq	48(%rsp), %rdx
	callq	__ZN4core10intrinsics19copy_nonoverlapping17h58cf767007f9ade4E
	jmp	LBB213_21
LBB213_21:
	movq	%rbp, %rsp
	popq	%rbp
	retq
	.cfi_endproc

	.p2align	4, 0x90
__ZN4core3ptr4read17h5778252424f7f4f6E:
	.cfi_startproc
	pushq	%rbp
	.cfi_def_cfa_offset 16
	.cfi_offset %rbp, -16
	movq	%rsp, %rbp
	.cfi_def_cfa_register %rbp
	subq	$272, %rsp
	movq	%rdi, %rax
	movq	%rsi, -224(%rbp)
	movq	%rdi, -232(%rbp)
	movq	%rax, -240(%rbp)
	leaq	-216(%rbp), %rax
	movq	%rax, -248(%rbp)
	movq	-224(%rbp), %rdi
	movq	-248(%rbp), %rsi
	movl	$1, %edx
	callq	__ZN4core10intrinsics19copy_nonoverlapping17h2abc710d72d7538eE
	leaq	-144(%rbp), %rax
	movq	%rax, %rcx
	leaq	-216(%rbp), %rdx
	movq	%rcx, %rdi
	movq	%rdx, %rsi
	movl	$72, %ecx
	movq	%rcx, %rdx
	movq	%rax, -256(%rbp)
	movq	%rcx, -264(%rbp)
	callq	_memcpy
	movq	-256(%rbp), %rax
	leaq	-72(%rbp), %rcx
	movq	%rcx, %rdx
	movq	%rdx, %rdi
	movq	%rax, %rsi
	movq	-264(%rbp), %rdx
	movq	%rcx, -272(%rbp)
	callq	_memcpy
	movq	-272(%rbp), %rax
	movq	-232(%rbp), %rcx
	movq	%rcx, %rdi
	movq	%rax, %rsi
	movq	-264(%rbp), %rdx
	callq	_memcpy
	movq	-240(%rbp), %rax
	addq	$272, %rsp
	popq	%rbp
	retq
	.cfi_endproc

	.p2align	4, 0x90
__ZN4core3ptr4read17h5baecf2e7b7f884cE:
	.cfi_startproc
	pushq	%rbp
	.cfi_def_cfa_offset 16
	.cfi_offset %rbp, -16
	movq	%rsp, %rbp
	.cfi_def_cfa_register %rbp
	subq	$32, %rsp
	movb	-1(%rbp), %al
	movb	%al, -2(%rbp)
	movq	%rdi, -16(%rbp)
	jmp	LBB215_2
LBB215_2:
	movq	-16(%rbp), %rdi
	leaq	-2(%rbp), %rsi
	movl	$1, %edx
	callq	__ZN4core10intrinsics19copy_nonoverlapping17h9b424326d812a488E
	movb	-2(%rbp), %al
	movb	%al, -17(%rbp)
	movb	-17(%rbp), %al
	andb	$1, %al
	movzbl	%al, %eax
	addq	$32, %rsp
	popq	%rbp
	retq
	.cfi_endproc

	.p2align	4, 0x90
__ZN4core3ptr4read17h75ce344a6e843202E:
	.cfi_startproc
	pushq	%rbp
	.cfi_def_cfa_offset 16
	.cfi_offset %rbp, -16
	movq	%rsp, %rbp
	.cfi_def_cfa_register %rbp
	subq	$176, %rsp
	movq	%rdi, %rax
	movq	%rsi, -128(%rbp)
	movq	%rdi, -136(%rbp)
	movq	%rax, -144(%rbp)
	leaq	-120(%rbp), %rax
	movq	%rax, -152(%rbp)
	movq	-128(%rbp), %rdi
	movq	-152(%rbp), %rsi
	movl	$1, %edx
	callq	__ZN4core10intrinsics19copy_nonoverlapping17he4c3330fd28c5c97E
	leaq	-80(%rbp), %rax
	movq	%rax, %rcx
	leaq	-120(%rbp), %rdx
	movq	%rcx, %rdi
	movq	%rdx, %rsi
	movl	$40, %ecx
	movq	%rcx, %rdx
	movq	%rax, -160(%rbp)
	movq	%rcx, -168(%rbp)
	callq	_memcpy
	movq	-160(%rbp), %rax
	leaq	-40(%rbp), %rcx
	movq	%rcx, %rdx
	movq	%rdx, %rdi
	movq	%rax, %rsi
	movq	-168(%rbp), %rdx
	movq	%rcx, -176(%rbp)
	callq	_memcpy
	movq	-176(%rbp), %rax
	movq	-136(%rbp), %rcx
	movq	%rcx, %rdi
	movq	%rax, %rsi
	movq	-168(%rbp), %rdx
	callq	_memcpy
	movq	-144(%rbp), %rax
	addq	$176, %rsp
	popq	%rbp
	retq
	.cfi_endproc

	.p2align	4, 0x90
__ZN4core3ptr4read17h7a9af23bea03a54bE:
	.cfi_startproc
	pushq	%rbp
	.cfi_def_cfa_offset 16
	.cfi_offset %rbp, -16
	movq	%rsp, %rbp
	.cfi_def_cfa_register %rbp
	subq	$256, %rsp
	movq	%rdi, %rax
	movq	%rsi, -200(%rbp)
	movq	%rdi, -208(%rbp)
	movq	%rax, -216(%rbp)
	leaq	-192(%rbp), %rax
	movq	%rax, -224(%rbp)
	movq	-200(%rbp), %rdi
	movq	-224(%rbp), %rsi
	movl	$1, %edx
	callq	__ZN4core10intrinsics19copy_nonoverlapping17h85741f8f90c99582E
	leaq	-128(%rbp), %rax
	movq	%rax, %rcx
	leaq	-192(%rbp), %rdx
	movq	%rcx, %rdi
	movq	%rdx, %rsi
	movl	$64, %ecx
	movq	%rcx, %rdx
	movq	%rax, -232(%rbp)
	movq	%rcx, -240(%rbp)
	callq	_memcpy
	movq	-232(%rbp), %rax
	leaq	-64(%rbp), %rcx
	movq	%rcx, %rdx
	movq	%rdx, %rdi
	movq	%rax, %rsi
	movq	-240(%rbp), %rdx
	movq	%rcx, -248(%rbp)
	callq	_memcpy
	movq	-248(%rbp), %rax
	movq	-208(%rbp), %rcx
	movq	%rcx, %rdi
	movq	%rax, %rsi
	movq	-240(%rbp), %rdx
	callq	_memcpy
	movq	-216(%rbp), %rax
	addq	$256, %rsp
	popq	%rbp
	retq
	.cfi_endproc

	.p2align	4, 0x90
__ZN4core3ptr4read17ha7a2f72229337526E:
	.cfi_startproc
	pushq	%rbp
	.cfi_def_cfa_offset 16
	.cfi_offset %rbp, -16
	movq	%rsp, %rbp
	.cfi_def_cfa_register %rbp
	subq	$256, %rsp
	movq	%rdi, %rax
	movq	%rsi, -200(%rbp)
	movq	%rdi, -208(%rbp)
	movq	%rax, -216(%rbp)
	leaq	-192(%rbp), %rax
	movq	%rax, -224(%rbp)
	movq	-200(%rbp), %rdi
	movq	-224(%rbp), %rsi
	movl	$1, %edx
	callq	__ZN4core10intrinsics19copy_nonoverlapping17h3fd33759bd599be5E
	leaq	-128(%rbp), %rax
	movq	%rax, %rcx
	leaq	-192(%rbp), %rdx
	movq	%rcx, %rdi
	movq	%rdx, %rsi
	movl	$64, %ecx
	movq	%rcx, %rdx
	movq	%rax, -232(%rbp)
	movq	%rcx, -240(%rbp)
	callq	_memcpy
	movq	-232(%rbp), %rax
	leaq	-64(%rbp), %rcx
	movq	%rcx, %rdx
	movq	%rdx, %rdi
	movq	%rax, %rsi
	movq	-240(%rbp), %rdx
	movq	%rcx, -248(%rbp)
	callq	_memcpy
	movq	-248(%rbp), %rax
	movq	-208(%rbp), %rcx
	movq	%rcx, %rdi
	movq	%rax, %rsi
	movq	-240(%rbp), %rdx
	callq	_memcpy
	movq	-216(%rbp), %rax
	addq	$256, %rsp
	popq	%rbp
	retq
	.cfi_endproc

	.p2align	4, 0x90
__ZN4core3ptr5write17h1ff997067a87e288E:
	.cfi_startproc
	pushq	%rbp
	.cfi_def_cfa_offset 16
	.cfi_offset %rbp, -16
	movq	%rsp, %rbp
	.cfi_def_cfa_register %rbp
	subq	$16, %rsp
	movl	$40, %edx
	callq	_memcpy
	addq	$16, %rsp
	popq	%rbp
	retq
	.cfi_endproc

	.p2align	4, 0x90
__ZN4core3ptr5write17h5209fe04cb95a7acE:
	.cfi_startproc
	pushq	%rbp
	.cfi_def_cfa_offset 16
	.cfi_offset %rbp, -16
	movq	%rsp, %rbp
	.cfi_def_cfa_register %rbp
	subq	$16, %rsp
	movl	$40, %edx
	callq	_memcpy
	addq	$16, %rsp
	popq	%rbp
	retq
	.cfi_endproc

	.p2align	4, 0x90
__ZN4core3ptr5write17h61e82a2b9f44da89E:
	.cfi_startproc
	pushq	%rbp
	.cfi_def_cfa_offset 16
	.cfi_offset %rbp, -16
	movq	%rsp, %rbp
	.cfi_def_cfa_register %rbp
	subq	$16, %rsp
	movl	$64, %edx
	callq	_memcpy
	addq	$16, %rsp
	popq	%rbp
	retq
	.cfi_endproc

	.p2align	4, 0x90
__ZN4core3ptr5write17h7e1cf417907b8b94E:
	.cfi_startproc
	pushq	%rbp
	.cfi_def_cfa_offset 16
	.cfi_offset %rbp, -16
	movq	%rsp, %rbp
	.cfi_def_cfa_register %rbp
	subq	$16, %rsp
	movl	$64, %edx
	callq	_memcpy
	addq	$16, %rsp
	popq	%rbp
	retq
	.cfi_endproc

	.p2align	4, 0x90
__ZN4core3ptr5write17h98f3f89109af99f9E:
	.cfi_startproc
	pushq	%rbp
	.cfi_def_cfa_offset 16
	.cfi_offset %rbp, -16
	movq	%rsp, %rbp
	.cfi_def_cfa_register %rbp
	pushq	%rax
	andb	$1, %sil
	movb	%sil, (%rdi)
	addq	$8, %rsp
	popq	%rbp
	retq
	.cfi_endproc

	.p2align	4, 0x90
__ZN4core3ptr6unique15Unique$LT$T$GT$13new_unchecked17hd3574ee0e978adedE:
	.cfi_startproc
	pushq	%rbp
	.cfi_def_cfa_offset 16
	.cfi_offset %rbp, -16
	movq	%rsp, %rbp
	.cfi_def_cfa_register %rbp
	subq	$16, %rsp
	movq	%rdi, -16(%rbp)
	movq	-16(%rbp), %rax
	addq	$16, %rsp
	popq	%rbp
	retq
	.cfi_endproc

	.p2align	4, 0x90
__ZN4core3ptr6unique15Unique$LT$T$GT$4cast17h1e133c71d4ebde66E:
	.cfi_startproc
	pushq	%rbp
	.cfi_def_cfa_offset 16
	.cfi_offset %rbp, -16
	movq	%rsp, %rbp
	.cfi_def_cfa_register %rbp
	subq	$16, %rsp
	callq	__ZN4core3ptr6unique15Unique$LT$T$GT$6as_ptr17ha163b0cf3e2d4e69E
	movq	%rax, -8(%rbp)
	movq	-8(%rbp), %rax
	movq	%rax, %rdi
	callq	__ZN4core3ptr6unique15Unique$LT$T$GT$13new_unchecked17hc5052f663c494821E
	movq	%rax, -16(%rbp)
	movq	-16(%rbp), %rax
	addq	$16, %rsp
	popq	%rbp
	retq
	.cfi_endproc

	.p2align	4, 0x90
__ZN4core3ptr6unique15Unique$LT$T$GT$4cast17h2c81e29c53e82c57E:
	.cfi_startproc
	pushq	%rbp
	.cfi_def_cfa_offset 16
	.cfi_offset %rbp, -16
	movq	%rsp, %rbp
	.cfi_def_cfa_register %rbp
	subq	$16, %rsp
	callq	__ZN4core3ptr6unique15Unique$LT$T$GT$6as_ptr17h325dd8aa3bb5593cE
	movq	%rax, -8(%rbp)
	movq	-8(%rbp), %rax
	movq	%rax, %rdi
	callq	__ZN4core3ptr6unique15Unique$LT$T$GT$13new_unchecked17hc5052f663c494821E
	movq	%rax, -16(%rbp)
	movq	-16(%rbp), %rax
	addq	$16, %rsp
	popq	%rbp
	retq
	.cfi_endproc

	.p2align	4, 0x90
__ZN4core3ptr6unique15Unique$LT$T$GT$4cast17h3547497124d47505E:
	.cfi_startproc
	pushq	%rbp
	.cfi_def_cfa_offset 16
	.cfi_offset %rbp, -16
	movq	%rsp, %rbp
	.cfi_def_cfa_register %rbp
	subq	$16, %rsp
	callq	__ZN4core3ptr6unique15Unique$LT$T$GT$6as_ptr17h62da837689356b8dE
	movq	%rax, -8(%rbp)
	movq	-8(%rbp), %rax
	movq	%rax, %rdi
	callq	__ZN4core3ptr6unique15Unique$LT$T$GT$13new_unchecked17hc5052f663c494821E
	movq	%rax, -16(%rbp)
	movq	-16(%rbp), %rax
	addq	$16, %rsp
	popq	%rbp
	retq
	.cfi_endproc

	.p2align	4, 0x90
__ZN4core3ptr6unique15Unique$LT$T$GT$4cast17h99d62a4e7968c9deE:
	.cfi_startproc
	pushq	%rbp
	.cfi_def_cfa_offset 16
	.cfi_offset %rbp, -16
	movq	%rsp, %rbp
	.cfi_def_cfa_register %rbp
	subq	$16, %rsp
	callq	__ZN4core3ptr6unique15Unique$LT$T$GT$6as_ptr17h192d9e2831b400cdE
	movq	%rax, -8(%rbp)
	movq	-8(%rbp), %rax
	movq	%rax, %rdi
	callq	__ZN4core3ptr6unique15Unique$LT$T$GT$13new_unchecked17hc5052f663c494821E
	movq	%rax, -16(%rbp)
	movq	-16(%rbp), %rax
	addq	$16, %rsp
	popq	%rbp
	retq
	.cfi_endproc

	.p2align	4, 0x90
__ZN4core3ptr6unique15Unique$LT$T$GT$6as_ptr17h192d9e2831b400cdE:
	.cfi_startproc
	pushq	%rbp
	.cfi_def_cfa_offset 16
	.cfi_offset %rbp, -16
	movq	%rsp, %rbp
	.cfi_def_cfa_register %rbp
	movq	%rdi, %rax
	movq	%rsi, %rdx
	popq	%rbp
	retq
	.cfi_endproc

	.p2align	4, 0x90
__ZN4core3ptr6unique15Unique$LT$T$GT$6as_ptr17h325dd8aa3bb5593cE:
	.cfi_startproc
	pushq	%rbp
	.cfi_def_cfa_offset 16
	.cfi_offset %rbp, -16
	movq	%rsp, %rbp
	.cfi_def_cfa_register %rbp
	movq	%rdi, %rax
	popq	%rbp
	retq
	.cfi_endproc

	.p2align	4, 0x90
__ZN4core3ptr6unique15Unique$LT$T$GT$6as_ptr17h62da837689356b8dE:
	.cfi_startproc
	pushq	%rbp
	.cfi_def_cfa_offset 16
	.cfi_offset %rbp, -16
	movq	%rsp, %rbp
	.cfi_def_cfa_register %rbp
	movq	%rdi, %rax
	popq	%rbp
	retq
	.cfi_endproc

	.p2align	4, 0x90
__ZN4core3ptr6unique15Unique$LT$T$GT$6as_ptr17ha163b0cf3e2d4e69E:
	.cfi_startproc
	pushq	%rbp
	.cfi_def_cfa_offset 16
	.cfi_offset %rbp, -16
	movq	%rsp, %rbp
	.cfi_def_cfa_register %rbp
	movq	%rdi, %rax
	movq	%rsi, %rdx
	popq	%rbp
	retq
	.cfi_endproc

	.p2align	4, 0x90
__ZN4core3ptr6unique15Unique$LT$T$GT$6as_ref17h781652b614ff57a4E:
	.cfi_startproc
	pushq	%rbp
	.cfi_def_cfa_offset 16
	.cfi_offset %rbp, -16
	movq	%rsp, %rbp
	.cfi_def_cfa_register %rbp
	subq	$16, %rsp
	movq	(%rdi), %rax
	movq	8(%rdi), %rsi
	movq	%rax, %rdi
	callq	__ZN4core3ptr6unique15Unique$LT$T$GT$6as_ptr17h192d9e2831b400cdE
	movq	%rax, -8(%rbp)
	movq	%rdx, -16(%rbp)
	movq	-8(%rbp), %rax
	movq	-16(%rbp), %rdx
	addq	$16, %rsp
	popq	%rbp
	retq
	.cfi_endproc

	.p2align	4, 0x90
__ZN4core3ptr6unique15Unique$LT$T$GT$6as_ref17hab34103ee1140e1fE:
	.cfi_startproc
	pushq	%rbp
	.cfi_def_cfa_offset 16
	.cfi_offset %rbp, -16
	movq	%rsp, %rbp
	.cfi_def_cfa_register %rbp
	subq	$16, %rsp
	movq	(%rdi), %rdi
	callq	__ZN4core3ptr6unique15Unique$LT$T$GT$6as_ptr17h325dd8aa3bb5593cE
	movq	%rax, -8(%rbp)
	movq	-8(%rbp), %rax
	addq	$16, %rsp
	popq	%rbp
	retq
	.cfi_endproc

	.p2align	4, 0x90
__ZN4core3ptr6unique15Unique$LT$T$GT$6as_ref17hb288d2823108e142E:
	.cfi_startproc
	pushq	%rbp
	.cfi_def_cfa_offset 16
	.cfi_offset %rbp, -16
	movq	%rsp, %rbp
	.cfi_def_cfa_register %rbp
	subq	$16, %rsp
	movq	(%rdi), %rax
	movq	8(%rdi), %rsi
	movq	%rax, %rdi
	callq	__ZN4core3ptr6unique15Unique$LT$T$GT$6as_ptr17ha163b0cf3e2d4e69E
	movq	%rax, -8(%rbp)
	movq	%rdx, -16(%rbp)
	movq	-8(%rbp), %rax
	movq	-16(%rbp), %rdx
	addq	$16, %rsp
	popq	%rbp
	retq
	.cfi_endproc

	.p2align	4, 0x90
__ZN4core3ptr6unique15Unique$LT$T$GT$8dangling17h1408a81456d08f16E:
	.cfi_startproc
	pushq	%rbp
	.cfi_def_cfa_offset 16
	.cfi_offset %rbp, -16
	movq	%rsp, %rbp
	.cfi_def_cfa_register %rbp
	subq	$32, %rsp
	movq	$8, -8(%rbp)
	movq	-8(%rbp), %rdi
	movq	%rdi, -16(%rbp)
	movq	-16(%rbp), %rdi
	callq	__ZN4core3ptr6unique15Unique$LT$T$GT$13new_unchecked17hd3574ee0e978adedE
	movq	%rax, -24(%rbp)
	movq	-24(%rbp), %rax
	addq	$32, %rsp
	popq	%rbp
	retq
	.cfi_endproc

	.p2align	4, 0x90
__ZN4core3ptr7mut_ptr31_$LT$impl$u20$$BP$mut$u20$T$GT$3add17ha563940942083f04E:
	.cfi_startproc
	pushq	%rbp
	.cfi_def_cfa_offset 16
	.cfi_offset %rbp, -16
	movq	%rsp, %rbp
	.cfi_def_cfa_register %rbp
	subq	$16, %rsp
	callq	__ZN4core3ptr7mut_ptr31_$LT$impl$u20$$BP$mut$u20$T$GT$6offset17h0b94207839478136E
	movq	%rax, -8(%rbp)
	movq	-8(%rbp), %rax
	addq	$16, %rsp
	popq	%rbp
	retq
	.cfi_endproc

	.p2align	4, 0x90
__ZN4core3ptr7mut_ptr31_$LT$impl$u20$$BP$mut$u20$T$GT$6offset17h0b94207839478136E:
	.cfi_startproc
	pushq	%rbp
	.cfi_def_cfa_offset 16
	.cfi_offset %rbp, -16
	movq	%rsp, %rbp
	.cfi_def_cfa_register %rbp
	subq	$16, %rsp
	imulq	$40, %rsi, %rax
	addq	%rax, %rdi
	movq	%rdi, -8(%rbp)
