	.section	__TEXT,__text,regular,pure_instructions
	.macosx_version_min 10, 7
	.p2align	4, 0x90
__ZN42_$LT$$RF$T$u20$as$u20$core..fmt..Debug$GT$3fmt17h08678989e7d57da6E:
	.cfi_startproc
	pushq	%rbp
	.cfi_def_cfa_offset 16
	.cfi_offset %rbp, -16
	movq	%rsp, %rbp
	.cfi_def_cfa_register %rbp
	movq	(%rdi), %rdi
	popq	%rbp
	jmp	__ZN43_$LT$bool$u20$as$u20$core..fmt..Display$GT$3fmt17hf36463fa8b480ab4E
	.cfi_endproc

	.p2align	4, 0x90
__ZN42_$LT$$RF$T$u20$as$u20$core..fmt..Debug$GT$3fmt17h0a1400446b1fc396E:
	.cfi_startproc
	pushq	%rbp
	.cfi_def_cfa_offset 16
	.cfi_offset %rbp, -16
	movq	%rsp, %rbp
	.cfi_def_cfa_register %rbp
	pushq	%r15
	pushq	%r14
	pushq	%r13
	pushq	%r12
	pushq	%rbx
	subq	$24, %rsp
	.cfi_offset %rbx, -56
	.cfi_offset %r12, -48
	.cfi_offset %r13, -40
	.cfi_offset %r14, -32
	.cfi_offset %r15, -24
	movq	(%rdi), %rax
	movq	(%rax), %r13
	movq	16(%rax), %rbx
	leaq	-64(%rbp), %rdi
	callq	__ZN4core3fmt9Formatter10debug_list17hd054f0986422feb9E
	testq	%rbx, %rbx
	je	LBB1_3
	imulq	$112, %rbx, %rbx
	leaq	l___unnamed_1(%rip), %r14
	leaq	-64(%rbp), %r15
	leaq	-48(%rbp), %r12
	.p2align	4, 0x90
LBB1_2:
	movq	%r13, -48(%rbp)
	addq	$112, %r13
	movq	%r15, %rdi
	movq	%r12, %rsi
	movq	%r14, %rdx
	callq	__ZN4core3fmt8builders9DebugList5entry17h5c0dec54538196dfE
	addq	$-112, %rbx
	jne	LBB1_2
LBB1_3:
	leaq	-64(%rbp), %rdi
	callq	__ZN4core3fmt8builders9DebugList6finish17h3635bd6af9b1c5a6E
	addq	$24, %rsp
	popq	%rbx
	popq	%r12
	popq	%r13
	popq	%r14
	popq	%r15
	popq	%rbp
	retq
	.cfi_endproc

	.p2align	4, 0x90
__ZN42_$LT$$RF$T$u20$as$u20$core..fmt..Debug$GT$3fmt17h0d666eae6ea99d25E:
	.cfi_startproc
	pushq	%rbp
	.cfi_def_cfa_offset 16
	.cfi_offset %rbp, -16
	movq	%rsp, %rbp
	.cfi_def_cfa_register %rbp
	pushq	%r14
	pushq	%rbx
	subq	$32, %rsp
	.cfi_offset %rbx, -32
	.cfi_offset %r14, -24
	movq	(%rdi), %rbx
	leaq	l___unnamed_2(%rip), %rdx
	leaq	-48(%rbp), %r14
	movl	$5, %ecx
	movq	%r14, %rdi
	callq	__ZN4core3fmt9Formatter11debug_tuple17h15ca25ad759edd1cE
	movq	%rbx, -24(%rbp)
	leaq	l___unnamed_3(%rip), %rdx
	leaq	-24(%rbp), %rsi
	movq	%r14, %rdi
	callq	__ZN4core3fmt8builders10DebugTuple5field17hf36121153a94f236E
	movq	%r14, %rdi
	callq	__ZN4core3fmt8builders10DebugTuple6finish17h68acf09c6f6593f2E
	addq	$32, %rsp
	popq	%rbx
	popq	%r14
	popq	%rbp
	retq
	.cfi_endproc

	.p2align	4, 0x90
__ZN42_$LT$$RF$T$u20$as$u20$core..fmt..Debug$GT$3fmt17h18249c1024f4ea72E:
	.cfi_startproc
	pushq	%rbp
	.cfi_def_cfa_offset 16
	.cfi_offset %rbp, -16
	movq	%rsp, %rbp
	.cfi_def_cfa_register %rbp
	pushq	%r14
	pushq	%rbx
	subq	$32, %rsp
	.cfi_offset %rbx, -32
	.cfi_offset %r14, -24
	movq	(%rdi), %rbx
	leaq	l___unnamed_4(%rip), %rdx
	leaq	-48(%rbp), %r14
	movl	$5, %ecx
	movq	%r14, %rdi
	callq	__ZN4core3fmt9Formatter11debug_tuple17h15ca25ad759edd1cE
	movq	%rbx, -24(%rbp)
	leaq	l___unnamed_3(%rip), %rdx
	leaq	-24(%rbp), %rsi
	movq	%r14, %rdi
	callq	__ZN4core3fmt8builders10DebugTuple5field17hf36121153a94f236E
	movq	%r14, %rdi
	callq	__ZN4core3fmt8builders10DebugTuple6finish17h68acf09c6f6593f2E
	addq	$32, %rsp
	popq	%rbx
	popq	%r14
	popq	%rbp
	retq
	.cfi_endproc

	.p2align	4, 0x90
__ZN42_$LT$$RF$T$u20$as$u20$core..fmt..Debug$GT$3fmt17h2904101efb4c8467E:
	.cfi_startproc
	pushq	%rbp
	.cfi_def_cfa_offset 16
	.cfi_offset %rbp, -16
	movq	%rsp, %rbp
	.cfi_def_cfa_register %rbp
	pushq	%r14
	pushq	%rbx
	subq	$32, %rsp
	.cfi_offset %rbx, -32
	.cfi_offset %r14, -24
	movq	(%rdi), %rbx
	leaq	l___unnamed_5(%rip), %rdx
	leaq	-48(%rbp), %r14
	movl	$6, %ecx
	movq	%r14, %rdi
	callq	__ZN4core3fmt9Formatter11debug_tuple17h15ca25ad759edd1cE
	movq	%rbx, -24(%rbp)
	leaq	l___unnamed_3(%rip), %rdx
	leaq	-24(%rbp), %rsi
	movq	%r14, %rdi
	callq	__ZN4core3fmt8builders10DebugTuple5field17hf36121153a94f236E
	movq	%r14, %rdi
	callq	__ZN4core3fmt8builders10DebugTuple6finish17h68acf09c6f6593f2E
	addq	$32, %rsp
	popq	%rbx
	popq	%r14
	popq	%rbp
	retq
	.cfi_endproc

	.p2align	4, 0x90
__ZN42_$LT$$RF$T$u20$as$u20$core..fmt..Debug$GT$3fmt17h2bc991169c9aa1caE:
	.cfi_startproc
	pushq	%rbp
	.cfi_def_cfa_offset 16
	.cfi_offset %rbp, -16
	movq	%rsp, %rbp
	.cfi_def_cfa_register %rbp
	pushq	%r15
	pushq	%r14
	pushq	%r13
	pushq	%r12
	pushq	%rbx
	subq	$136, %rsp
	.cfi_offset %rbx, -56
	.cfi_offset %r12, -48
	.cfi_offset %r13, -40
	.cfi_offset %r14, -32
	.cfi_offset %r15, -24
	movq	(%rdi), %r14
	leaq	-168(%rbp), %rdi
	callq	__ZN4core3fmt9Formatter9debug_map17h5cea039dab7ad6bbE
	movq	(%r14), %rcx
	testq	%rcx, %rcx
	je	LBB5_1
	movq	8(%r14), %rsi
	movzwl	10(%rcx), %edx
	testq	%rsi, %rsi
	je	LBB5_3
	movb	$1, %bl
	movq	%rcx, %r8
	.p2align	4, 0x90
LBB5_6:
	testb	$1, %bl
	je	LBB5_4
	cmpq	$1, %rsi
	setne	%bl
	movq	1336(%r8), %r8
	movq	1336(%rcx,%rdx,8), %rcx
	movzwl	10(%rcx), %edx
	decq	%rsi
	jne	LBB5_6
	jmp	LBB5_8
LBB5_1:
	xorl	%ecx, %ecx
	xorl	%r8d, %r8d
	xorl	%esi, %esi
	jmp	LBB5_9
LBB5_3:
	movq	%rcx, %r8
LBB5_8:
	movq	16(%r14), %rsi
	vxorps	%xmm0, %xmm0, %xmm0
	vmovaps	%xmm0, -64(%rbp)
	movq	$0, -48(%rbp)
LBB5_9:
	movq	$0, -136(%rbp)
	movq	%r8, -128(%rbp)
	vmovaps	-64(%rbp), %xmm0
	vmovups	%xmm0, -120(%rbp)
	movq	-48(%rbp), %rax
	movq	%rax, -104(%rbp)
	movq	%rcx, -96(%rbp)
	movq	$0, -88(%rbp)
	movq	%rdx, -80(%rbp)
	movq	%rsi, -72(%rbp)
	testq	%rsi, %rsi
	je	LBB5_28
	leaq	l___unnamed_1(%rip), %r15
	leaq	-168(%rbp), %r12
	leaq	-144(%rbp), %r13
	leaq	-152(%rbp), %r14
	.p2align	4, 0x90
LBB5_11:
	decq	%rsi
	movq	%rsi, -72(%rbp)
	testq	%r8, %r8
	leaq	-136(%rbp), %rax
	cmovneq	%rax, %r8
	movq	(%r8), %rbx
	movq	8(%r8), %rcx
	movq	24(%r8), %rdx
	movzwl	10(%rcx), %eax
	cmpq	%rax, %rdx
	jb	LBB5_16
	.p2align	4, 0x90
LBB5_12:
	movq	(%rcx), %rsi
	testq	%rsi, %rsi
	je	LBB5_13
	incq	%rbx
	movzwl	8(%rcx), %edx
	movq	%rsi, %rcx
	cmpw	10(%rsi), %dx
	jae	LBB5_12
	movq	%rsi, %rcx
LBB5_16:
	testq	%rbx, %rbx
	je	LBB5_17
LBB5_18:
	movq	%rbx, %rsi
	movq	1344(%rcx,%rdx,8), %rdi
	decq	%rsi
	je	LBB5_25
	addq	$-2, %rbx
	movq	%rsi, %r9
	andq	$7, %r9
	je	LBB5_23
	xorl	%eax, %eax
	.p2align	4, 0x90
LBB5_21:
	movq	1336(%rdi), %rdi
	incq	%rax
	cmpq	%rax, %r9
	jne	LBB5_21
	subq	%rax, %rsi
LBB5_23:
	cmpq	$7, %rbx
	jb	LBB5_25
	.p2align	4, 0x90
LBB5_24:
	movq	1336(%rdi), %rax
	movq	1336(%rax), %rax
	movq	1336(%rax), %rax
	movq	1336(%rax), %rax
	movq	1336(%rax), %rax
	movq	1336(%rax), %rax
	movq	1336(%rax), %rax
	movq	1336(%rax), %rdi
	addq	$-8, %rsi
	jne	LBB5_24
LBB5_25:
	xorl	%eax, %eax
	jmp	LBB5_26
	.p2align	4, 0x90
LBB5_13:
	xorl	%ecx, %ecx
	testq	%rbx, %rbx
	jne	LBB5_18
LBB5_17:
	leaq	1(%rdx), %rax
	movq	%rcx, %rdi
LBB5_26:
	leaq	(%rcx,%rdx,8), %rsi
	addq	$16, %rsi
	imulq	$112, %rdx, %rdx
	addq	%rdx, %rcx
	addq	$104, %rcx
	movq	$0, (%r8)
	movq	%rdi, 8(%r8)
	movq	%rax, 24(%r8)
	movq	%rsi, -144(%rbp)
	movq	%rcx, -152(%rbp)
	movq	%r12, %rdi
	movq	%r13, %rsi
	leaq	l___unnamed_6(%rip), %rdx
	movq	%r14, %rcx
	movq	%r15, %r8
	callq	__ZN4core3fmt8builders8DebugMap5entry17h653834b3ad194ffcE
	movq	-72(%rbp), %rsi
	testq	%rsi, %rsi
	je	LBB5_28
	movq	-128(%rbp), %r8
	jmp	LBB5_11
LBB5_28:
	leaq	-168(%rbp), %rdi
	callq	__ZN4core3fmt8builders8DebugMap6finish17h655b3836bbc58824E
	addq	$136, %rsp
	popq	%rbx
	popq	%r12
	popq	%r13
	popq	%r14
	popq	%r15
	popq	%rbp
	retq
LBB5_4:
	leaq	__ZN44_$LT$$RF$T$u20$as$u20$core..fmt..Display$GT$3fmt17hfb18b74c4657b0bcE(%rip), %rax
	vmovq	%rax, %xmm0
	leaq	l___unnamed_7(%rip), %rax
	vmovq	%rax, %xmm1
	vpunpcklqdq	%xmm0, %xmm1, %xmm0
	vmovdqa	%xmm0, -64(%rbp)
	leaq	l___unnamed_8(%rip), %rax
	movq	%rax, -136(%rbp)
	movq	$1, -128(%rbp)
	movq	$0, -120(%rbp)
	leaq	-64(%rbp), %rax
	movq	%rax, -104(%rbp)
	movq	$1, -96(%rbp)
	leaq	l___unnamed_9(%rip), %rsi
	leaq	-136(%rbp), %rdi
	callq	__ZN4core9panicking9panic_fmt17hab6ef1464e9720aaE
	.cfi_endproc

	.p2align	4, 0x90
__ZN42_$LT$$RF$T$u20$as$u20$core..fmt..Debug$GT$3fmt17h35f83656dfa2ca2fE:
	.cfi_startproc
	pushq	%rbp
	.cfi_def_cfa_offset 16
	.cfi_offset %rbp, -16
	movq	%rsp, %rbp
	.cfi_def_cfa_register %rbp
	pushq	%r14
	pushq	%rbx
	.cfi_offset %rbx, -32
	.cfi_offset %r14, -24
	movq	%rsi, %rbx
	movq	(%rdi), %r14
	movq	%rsi, %rdi
	callq	__ZN4core3fmt9Formatter15debug_lower_hex17h8530fbaeba13f4d9E
	testb	%al, %al
	je	LBB6_1
	movq	%r14, %rdi
	movq	%rbx, %rsi
	popq	%rbx
	popq	%r14
	popq	%rbp
	jmp	__ZN4core3fmt3num53_$LT$impl$u20$core..fmt..LowerHex$u20$for$u20$u64$GT$3fmt17h45355469eb7ddf8bE
LBB6_1:
	movq	%rbx, %rdi
	callq	__ZN4core3fmt9Formatter15debug_upper_hex17hf8fda15ec43a1e68E
	movq	%r14, %rdi
	movq	%rbx, %rsi
	testb	%al, %al
	je	LBB6_4
	popq	%rbx
	popq	%r14
	popq	%rbp
	jmp	__ZN4core3fmt3num53_$LT$impl$u20$core..fmt..UpperHex$u20$for$u20$u64$GT$3fmt17ha26765e3e26c1816E
LBB6_4:
	popq	%rbx
	popq	%r14
	popq	%rbp
	jmp	__ZN4core3fmt3num3imp52_$LT$impl$u20$core..fmt..Display$u20$for$u20$u64$GT$3fmt17hb00db9d5e1e54df6E
	.cfi_endproc

	.p2align	4, 0x90
__ZN42_$LT$$RF$T$u20$as$u20$core..fmt..Debug$GT$3fmt17h4111f9d47fce25f1E:
	.cfi_startproc
	pushq	%rbp
	.cfi_def_cfa_offset 16
	.cfi_offset %rbp, -16
	movq	%rsp, %rbp
	.cfi_def_cfa_register %rbp
	pushq	%r15
	pushq	%r14
	pushq	%rbx
	subq	$24, %rsp
	.cfi_offset %rbx, -40
	.cfi_offset %r14, -32
	.cfi_offset %r15, -24
	movq	(%rdi), %rbx
	leaq	L___unnamed_10(%rip), %rdx
	leaq	-48(%rbp), %r14
	movl	$8, %ecx
	movq	%r14, %rdi
	callq	__ZN4core3fmt9Formatter12debug_struct17h985c0158d1fc7193E
	movq	%rbx, -32(%rbp)
	leaq	1(%rbx), %r15
	addq	$2, %rbx
	leaq	l___unnamed_11(%rip), %rsi
	leaq	l___unnamed_3(%rip), %r8
	leaq	-32(%rbp), %rcx
	movl	$12, %edx
	movq	%r14, %rdi
	callq	__ZN4core3fmt8builders11DebugStruct5field17h9c15dc155278eed2E
	movq	%r15, -32(%rbp)
	leaq	l___unnamed_12(%rip), %rsi
	leaq	l___unnamed_13(%rip), %r8
	leaq	-32(%rbp), %rcx
	movl	$6, %edx
	movq	%r14, %rdi
	callq	__ZN4core3fmt8builders11DebugStruct5field17h9c15dc155278eed2E
	movq	%rbx, -32(%rbp)
	leaq	l___unnamed_14(%rip), %rsi
	leaq	l___unnamed_15(%rip), %r8
	leaq	-32(%rbp), %rcx
	movl	$7, %edx
	movq	%r14, %rdi
	callq	__ZN4core3fmt8builders11DebugStruct5field17h9c15dc155278eed2E
	movq	%r14, %rdi
	callq	__ZN4core3fmt8builders11DebugStruct6finish17h26808393f3fed630E
	addq	$24, %rsp
	popq	%rbx
	popq	%r14
	popq	%r15
	popq	%rbp
	retq
	.cfi_endproc

	.p2align	4, 0x90
__ZN42_$LT$$RF$T$u20$as$u20$core..fmt..Debug$GT$3fmt17h5482ab92a51f31daE:
	.cfi_startproc
	pushq	%rbp
	.cfi_def_cfa_offset 16
	.cfi_offset %rbp, -16
	movq	%rsp, %rbp
	.cfi_def_cfa_register %rbp
	pushq	%r15
	pushq	%r14
	pushq	%r13
	pushq	%r12
	pushq	%rbx
	subq	$24, %rsp
	.cfi_offset %rbx, -56
	.cfi_offset %r12, -48
	.cfi_offset %r13, -40
	.cfi_offset %r14, -32
	.cfi_offset %r15, -24
	movq	(%rdi), %rax
	cmpq	$1, (%rax)
	jne	LBB8_2
	movq	8(%rax), %rbx
	movq	24(%rax), %r13
	leaq	-64(%rbp), %rdi
	callq	__ZN4core3fmt9Formatter10debug_list17hd054f0986422feb9E
	testq	%r13, %r13
	jne	LBB8_5
	jmp	LBB8_7
LBB8_2:
	movq	88(%rax), %r13
	cmpq	$6, %r13
	jae	LBB8_8
	addq	$8, %rax
	movq	%rax, %rbx
	leaq	-64(%rbp), %rdi
	callq	__ZN4core3fmt9Formatter10debug_list17hd054f0986422feb9E
	testq	%r13, %r13
	je	LBB8_7
LBB8_5:
	shlq	$4, %r13
	leaq	l___unnamed_16(%rip), %r14
	leaq	-64(%rbp), %r15
	leaq	-48(%rbp), %r12
	.p2align	4, 0x90
LBB8_6:
	movq	%rbx, -48(%rbp)
	addq	$16, %rbx
	movq	%r15, %rdi
	movq	%r12, %rsi
	movq	%r14, %rdx
	callq	__ZN4core3fmt8builders9DebugList5entry17h5c0dec54538196dfE
	addq	$-16, %r13
	jne	LBB8_6
LBB8_7:
	leaq	-64(%rbp), %rdi
	callq	__ZN4core3fmt8builders9DebugList6finish17h3635bd6af9b1c5a6E
	addq	$24, %rsp
	popq	%rbx
	popq	%r12
	popq	%r13
	popq	%r14
	popq	%r15
	popq	%rbp
	retq
LBB8_8:
	leaq	l___unnamed_17(%rip), %rdx
	movl	$5, %esi
	movq	%r13, %rdi
	callq	__ZN4core5slice20slice_index_len_fail17h550a313151a85135E
	.cfi_endproc

	.p2align	4, 0x90
__ZN42_$LT$$RF$T$u20$as$u20$core..fmt..Debug$GT$3fmt17h5561bcbef2fce8dbE:
	.cfi_startproc
	pushq	%rbp
	.cfi_def_cfa_offset 16
	.cfi_offset %rbp, -16
	movq	%rsp, %rbp
	.cfi_def_cfa_register %rbp
	pushq	%r14
	pushq	%rbx
	.cfi_offset %rbx, -32
	.cfi_offset %r14, -24
	movq	%rsi, %rbx
	movq	(%rdi), %r14
	movq	%rsi, %rdi
	callq	__ZN4core3fmt9Formatter15debug_lower_hex17h8530fbaeba13f4d9E
	testb	%al, %al
	je	LBB9_1
	movq	%r14, %rdi
	movq	%rbx, %rsi
	popq	%rbx
	popq	%r14
	popq	%rbp
	jmp	__ZN4core3fmt3num53_$LT$impl$u20$core..fmt..LowerHex$u20$for$u20$u32$GT$3fmt17h6f8627d2574097eeE
LBB9_1:
	movq	%rbx, %rdi
	callq	__ZN4core3fmt9Formatter15debug_upper_hex17hf8fda15ec43a1e68E
	movq	%r14, %rdi
	movq	%rbx, %rsi
	testb	%al, %al
	je	LBB9_4
	popq	%rbx
	popq	%r14
	popq	%rbp
	jmp	__ZN4core3fmt3num53_$LT$impl$u20$core..fmt..UpperHex$u20$for$u20$u32$GT$3fmt17hfea5795b8018329eE
LBB9_4:
	popq	%rbx
	popq	%r14
	popq	%rbp
	jmp	__ZN4core3fmt3num3imp52_$LT$impl$u20$core..fmt..Display$u20$for$u20$u32$GT$3fmt17h8cb3163b2d7e102aE
	.cfi_endproc

	.p2align	4, 0x90
__ZN42_$LT$$RF$T$u20$as$u20$core..fmt..Debug$GT$3fmt17h5fda2484e77ddfa9E:
	.cfi_startproc
	pushq	%rbp
	.cfi_def_cfa_offset 16
	.cfi_offset %rbp, -16
	movq	%rsp, %rbp
	.cfi_def_cfa_register %rbp
	pushq	%r14
	pushq	%rbx
	.cfi_offset %rbx, -32
	.cfi_offset %r14, -24
	movq	%rsi, %rbx
	movq	(%rdi), %r14
	movq	%rsi, %rdi
	callq	__ZN4core3fmt9Formatter15debug_lower_hex17h8530fbaeba13f4d9E
	testb	%al, %al
	je	LBB10_1
	movq	%r14, %rdi
	movq	%rbx, %rsi
	popq	%rbx
	popq	%r14
	popq	%rbp
	jmp	__ZN4core3fmt3num53_$LT$impl$u20$core..fmt..LowerHex$u20$for$u20$u16$GT$3fmt17h4a3e59891cc09bc8E
LBB10_1:
	movq	%rbx, %rdi
	callq	__ZN4core3fmt9Formatter15debug_upper_hex17hf8fda15ec43a1e68E
	movq	%r14, %rdi
	movq	%rbx, %rsi
	testb	%al, %al
	je	LBB10_4
	popq	%rbx
	popq	%r14
	popq	%rbp
	jmp	__ZN4core3fmt3num53_$LT$impl$u20$core..fmt..UpperHex$u20$for$u20$u16$GT$3fmt17h80b29e32979d60cdE
LBB10_4:
	popq	%rbx
	popq	%r14
	popq	%rbp
	jmp	__ZN4core3fmt3num3imp52_$LT$impl$u20$core..fmt..Display$u20$for$u20$u16$GT$3fmt17h7d9582ae70d300cbE
	.cfi_endproc

	.p2align	4, 0x90
__ZN42_$LT$$RF$T$u20$as$u20$core..fmt..Debug$GT$3fmt17h62ca7d4652652f4dE:
	.cfi_startproc
	pushq	%rbp
	.cfi_def_cfa_offset 16
	.cfi_offset %rbp, -16
	movq	%rsp, %rbp
	.cfi_def_cfa_register %rbp
	pushq	%r14
	pushq	%rbx
	subq	$32, %rsp
	.cfi_offset %rbx, -32
	.cfi_offset %r14, -24
	movq	(%rdi), %rbx
	cmpq	$1, (%rbx)
	jne	LBB11_2
	addq	$8, %rbx
	leaq	-48(%rbp), %r14
	leaq	L___unnamed_18(%rip), %rdx
	movl	$4, %ecx
	movq	%r14, %rdi
	callq	__ZN4core3fmt9Formatter11debug_tuple17h15ca25ad759edd1cE
	movq	%rbx, -24(%rbp)
	leaq	l___unnamed_6(%rip), %rdx
	leaq	-24(%rbp), %rsi
	movq	%r14, %rdi
	callq	__ZN4core3fmt8builders10DebugTuple5field17hf36121153a94f236E
	jmp	LBB11_3
LBB11_2:
	leaq	-48(%rbp), %r14
	leaq	L___unnamed_19(%rip), %rdx
	movl	$4, %ecx
	movq	%r14, %rdi
	callq	__ZN4core3fmt9Formatter11debug_tuple17h15ca25ad759edd1cE
LBB11_3:
	movq	%r14, %rdi
	callq	__ZN4core3fmt8builders10DebugTuple6finish17h68acf09c6f6593f2E
	addq	$32, %rsp
	popq	%rbx
	popq	%r14
	popq	%rbp
	retq
	.cfi_endproc

	.p2align	4, 0x90
__ZN42_$LT$$RF$T$u20$as$u20$core..fmt..Debug$GT$3fmt17h79434f4703039b28E:
	.cfi_startproc
	pushq	%rbp
	.cfi_def_cfa_offset 16
	.cfi_offset %rbp, -16
	movq	%rsp, %rbp
	.cfi_def_cfa_register %rbp
	pushq	%r14
	pushq	%rbx
	subq	$32, %rsp
	.cfi_offset %rbx, -32
	.cfi_offset %r14, -24
	movq	(%rdi), %rbx
	leaq	l___unnamed_20(%rip), %rdx
	leaq	-48(%rbp), %r14
	movl	$6, %ecx
	movq	%r14, %rdi
	callq	__ZN4core3fmt9Formatter11debug_tuple17h15ca25ad759edd1cE
	movq	%rbx, -24(%rbp)
	leaq	l___unnamed_15(%rip), %rdx
	leaq	-24(%rbp), %rsi
	movq	%r14, %rdi
	callq	__ZN4core3fmt8builders10DebugTuple5field17hf36121153a94f236E
	movq	%r14, %rdi
	callq	__ZN4core3fmt8builders10DebugTuple6finish17h68acf09c6f6593f2E
	addq	$32, %rsp
	popq	%rbx
	popq	%r14
	popq	%rbp
	retq
	.cfi_endproc

	.p2align	4, 0x90
__ZN42_$LT$$RF$T$u20$as$u20$core..fmt..Debug$GT$3fmt17h7b769602d9db1f2aE:
	.cfi_startproc
	pushq	%rbp
	.cfi_def_cfa_offset 16
	.cfi_offset %rbp, -16
	movq	%rsp, %rbp
	.cfi_def_cfa_register %rbp
	pushq	%r14
	pushq	%rbx
	subq	$32, %rsp
	.cfi_offset %rbx, -32
	.cfi_offset %r14, -24
	movq	(%rdi), %rbx
	leaq	l___unnamed_21(%rip), %rdx
	leaq	-48(%rbp), %r14
	movl	$14, %ecx
	movq	%r14, %rdi
	callq	__ZN4core3fmt9Formatter11debug_tuple17h15ca25ad759edd1cE
	movq	%rbx, -24(%rbp)
	leaq	l___unnamed_6(%rip), %rdx
	leaq	-24(%rbp), %rsi
	movq	%r14, %rdi
	callq	__ZN4core3fmt8builders10DebugTuple5field17hf36121153a94f236E
	movq	%r14, %rdi
	callq	__ZN4core3fmt8builders10DebugTuple6finish17h68acf09c6f6593f2E
	addq	$32, %rsp
	popq	%rbx
	popq	%r14
	popq	%rbp
	retq
	.cfi_endproc

	.p2align	4, 0x90
__ZN42_$LT$$RF$T$u20$as$u20$core..fmt..Debug$GT$3fmt17h7dc31ec07927c9cbE:
	.cfi_startproc
	pushq	%rbp
	.cfi_def_cfa_offset 16
	.cfi_offset %rbp, -16
	movq	%rsp, %rbp
	.cfi_def_cfa_register %rbp
	movq	(%rdi), %rdi
	popq	%rbp
	jmp	__ZN4core3fmt5float50_$LT$impl$u20$core..fmt..Debug$u20$for$u20$f32$GT$3fmt17h1aed94fea29f73c8E
	.cfi_endproc

	.p2align	4, 0x90
__ZN42_$LT$$RF$T$u20$as$u20$core..fmt..Debug$GT$3fmt17h838ce2f68179c052E:
	.cfi_startproc
	pushq	%rbp
	.cfi_def_cfa_offset 16
	.cfi_offset %rbp, -16
	movq	%rsp, %rbp
	.cfi_def_cfa_register %rbp
	pushq	%r15
	pushq	%r14
	pushq	%r12
	pushq	%rbx
	subq	$32, %rsp
	.cfi_offset %rbx, -48
	.cfi_offset %r12, -40
	.cfi_offset %r14, -32
	.cfi_offset %r15, -24
	movq	(%rdi), %rbx
	leaq	8(%rbx), %r15
	leaq	10(%rbx), %r12
	leaq	l___unnamed_22(%rip), %rdx
	leaq	-56(%rbp), %r14
	movl	$22, %ecx
	movq	%r14, %rdi
	callq	__ZN4core3fmt9Formatter12debug_struct17h985c0158d1fc7193E
	movq	%r15, -40(%rbp)
	leaq	L___unnamed_23(%rip), %rsi
	leaq	l___unnamed_24(%rip), %r8
	leaq	-40(%rbp), %rcx
	movl	$4, %edx
	movq	%r14, %rdi
	callq	__ZN4core3fmt8builders11DebugStruct5field17h9c15dc155278eed2E
	movq	%r12, -40(%rbp)
	leaq	L___unnamed_25(%rip), %rsi
	leaq	l___unnamed_26(%rip), %r8
	leaq	-40(%rbp), %rcx
	movl	$4, %edx
	movq	%r14, %rdi
	callq	__ZN4core3fmt8builders11DebugStruct5field17h9c15dc155278eed2E
	movq	%rbx, -40(%rbp)
	leaq	l___unnamed_27(%rip), %rsi
	leaq	l___unnamed_28(%rip), %r8
	leaq	-40(%rbp), %rcx
	movl	$20, %edx
	movq	%r14, %rdi
	callq	__ZN4core3fmt8builders11DebugStruct5field17h9c15dc155278eed2E
	movq	%r14, %rdi
	callq	__ZN4core3fmt8builders11DebugStruct6finish17h26808393f3fed630E
	addq	$32, %rsp
	popq	%rbx
	popq	%r12
	popq	%r14
	popq	%r15
	popq	%rbp
	retq
	.cfi_endproc

	.p2align	4, 0x90
__ZN42_$LT$$RF$T$u20$as$u20$core..fmt..Debug$GT$3fmt17h8f8c8cf580d90744E:
	.cfi_startproc
	pushq	%rbp
	.cfi_def_cfa_offset 16
	.cfi_offset %rbp, -16
	movq	%rsp, %rbp
	.cfi_def_cfa_register %rbp
	pushq	%r14
	pushq	%rbx
	.cfi_offset %rbx, -32
	.cfi_offset %r14, -24
	movq	%rsi, %rbx
	movq	(%rdi), %r14
	movq	%rsi, %rdi
	callq	__ZN4core3fmt9Formatter15debug_lower_hex17h8530fbaeba13f4d9E
	testb	%al, %al
	je	LBB16_1
	movq	%r14, %rdi
	movq	%rbx, %rsi
	popq	%rbx
	popq	%r14
	popq	%rbp
	jmp	__ZN4core3fmt3num52_$LT$impl$u20$core..fmt..LowerHex$u20$for$u20$u8$GT$3fmt17h7701faa643a10c55E
LBB16_1:
	movq	%rbx, %rdi
	callq	__ZN4core3fmt9Formatter15debug_upper_hex17hf8fda15ec43a1e68E
	movq	%r14, %rdi
	movq	%rbx, %rsi
	testb	%al, %al
	je	LBB16_4
	popq	%rbx
	popq	%r14
	popq	%rbp
	jmp	__ZN4core3fmt3num52_$LT$impl$u20$core..fmt..UpperHex$u20$for$u20$u8$GT$3fmt17ha797e73a900719d8E
LBB16_4:
	popq	%rbx
	popq	%r14
	popq	%rbp
	jmp	__ZN4core3fmt3num3imp51_$LT$impl$u20$core..fmt..Display$u20$for$u20$u8$GT$3fmt17h0e89df114e53d66dE
	.cfi_endproc

	.p2align	4, 0x90
__ZN42_$LT$$RF$T$u20$as$u20$core..fmt..Debug$GT$3fmt17h9090a4863a9853baE:
	.cfi_startproc
	pushq	%rbp
	.cfi_def_cfa_offset 16
	.cfi_offset %rbp, -16
	movq	%rsp, %rbp
	.cfi_def_cfa_register %rbp
	pushq	%r15
	pushq	%r14
	pushq	%r12
	pushq	%rbx
	subq	$32, %rsp
	.cfi_offset %rbx, -48
	.cfi_offset %r12, -40
	.cfi_offset %r14, -32
	.cfi_offset %r15, -24
	movq	(%rdi), %rbx
	leaq	l___unnamed_29(%rip), %rdx
	leaq	-56(%rbp), %r15
	movl	$20, %ecx
	movq	%r15, %rdi
	callq	__ZN4core3fmt9Formatter12debug_struct17h985c0158d1fc7193E
	movq	%rbx, -40(%rbp)
	leaq	16(%rbx), %r12
	addq	$32, %rbx
	leaq	l___unnamed_30(%rip), %rsi
	leaq	l___unnamed_31(%rip), %r14
	leaq	-40(%rbp), %rcx
	movl	$7, %edx
	movq	%r15, %rdi
	movq	%r14, %r8
	callq	__ZN4core3fmt8builders11DebugStruct5field17h9c15dc155278eed2E
	movq	%r12, -40(%rbp)
	leaq	L___unnamed_32(%rip), %rsi
	leaq	-40(%rbp), %rcx
	movl	$4, %edx
	movq	%r15, %rdi
	movq	%r14, %r8
	callq	__ZN4core3fmt8builders11DebugStruct5field17h9c15dc155278eed2E
	movq	%rbx, -40(%rbp)
	leaq	L___unnamed_33(%rip), %rsi
	leaq	-40(%rbp), %rcx
	movl	$4, %edx
	movq	%r15, %rdi
	movq	%r14, %r8
	callq	__ZN4core3fmt8builders11DebugStruct5field17h9c15dc155278eed2E
	movq	%r15, %rdi
	callq	__ZN4core3fmt8builders11DebugStruct6finish17h26808393f3fed630E
	addq	$32, %rsp
	popq	%rbx
	popq	%r12
	popq	%r14
	popq	%r15
	popq	%rbp
	retq
	.cfi_endproc

	.p2align	4, 0x90
__ZN42_$LT$$RF$T$u20$as$u20$core..fmt..Debug$GT$3fmt17h94bdcffc3472600bE:
	.cfi_startproc
	pushq	%rbp
	.cfi_def_cfa_offset 16
	.cfi_offset %rbp, -16
	movq	%rsp, %rbp
	.cfi_def_cfa_register %rbp
	pushq	%r14
	pushq	%rbx
	.cfi_offset %rbx, -32
	.cfi_offset %r14, -24
	movq	%rsi, %rbx
	movq	(%rdi), %r14
	movq	%rsi, %rdi
	callq	__ZN4core3fmt9Formatter15debug_lower_hex17h8530fbaeba13f4d9E
	testb	%al, %al
	je	LBB18_1
	movq	%r14, %rdi
	movq	%rbx, %rsi
	popq	%rbx
	popq	%r14
	popq	%rbp
	jmp	__ZN4core3fmt3num53_$LT$impl$u20$core..fmt..LowerHex$u20$for$u20$i16$GT$3fmt17h3f851141fadcf5dbE
LBB18_1:
	movq	%rbx, %rdi
	callq	__ZN4core3fmt9Formatter15debug_upper_hex17hf8fda15ec43a1e68E
	movq	%r14, %rdi
	movq	%rbx, %rsi
	testb	%al, %al
	je	LBB18_4
	popq	%rbx
	popq	%r14
	popq	%rbp
	jmp	__ZN4core3fmt3num53_$LT$impl$u20$core..fmt..UpperHex$u20$for$u20$i16$GT$3fmt17h68fce712c402f58aE
LBB18_4:
	popq	%rbx
	popq	%r14
	popq	%rbp
	jmp	__ZN4core3fmt3num3imp52_$LT$impl$u20$core..fmt..Display$u20$for$u20$i16$GT$3fmt17h3a2fa6e453c65d3eE
	.cfi_endproc

	.p2align	4, 0x90
__ZN42_$LT$$RF$T$u20$as$u20$core..fmt..Debug$GT$3fmt17h9e5b19ffd7acd947E:
	.cfi_startproc
	pushq	%rbp
	.cfi_def_cfa_offset 16
	.cfi_offset %rbp, -16
	movq	%rsp, %rbp
	.cfi_def_cfa_register %rbp
	pushq	%r14
	pushq	%rbx
	subq	$48, %rsp
	.cfi_offset %rbx, -32
	.cfi_offset %r14, -24
	movq	(%rdi), %rbx
	leaq	l___unnamed_34(%rip), %rdx
	leaq	-56(%rbp), %r14
	movq	%r14, %rdi
	xorl	%ecx, %ecx
	callq	__ZN4core3fmt9Formatter11debug_tuple17h15ca25ad759edd1cE
	movq	%rbx, -24(%rbp)
	addq	$8, %rbx
	movq	%rbx, -32(%rbp)
	leaq	l___unnamed_35(%rip), %rdx
	leaq	-24(%rbp), %rsi
	movq	%r14, %rdi
	callq	__ZN4core3fmt8builders10DebugTuple5field17hf36121153a94f236E
	leaq	l___unnamed_36(%rip), %rdx
	leaq	-32(%rbp), %rsi
	movq	%r14, %rdi
	callq	__ZN4core3fmt8builders10DebugTuple5field17hf36121153a94f236E
	movq	%r14, %rdi
	callq	__ZN4core3fmt8builders10DebugTuple6finish17h68acf09c6f6593f2E
	addq	$48, %rsp
	popq	%rbx
	popq	%r14
	popq	%rbp
	retq
	.cfi_endproc

	.p2align	4, 0x90
__ZN42_$LT$$RF$T$u20$as$u20$core..fmt..Debug$GT$3fmt17h9eaaaffab2cfbeb0E:
	.cfi_startproc
	pushq	%rbp
	.cfi_def_cfa_offset 16
	.cfi_offset %rbp, -16
	movq	%rsp, %rbp
	.cfi_def_cfa_register %rbp
	pushq	%r14
	pushq	%rbx
	subq	$32, %rsp
	.cfi_offset %rbx, -32
	.cfi_offset %r14, -24
	movq	(%rdi), %rbx
	leaq	L___unnamed_37(%rip), %rdx
	leaq	-48(%rbp), %r14
	movl	$4, %ecx
	movq	%r14, %rdi
	callq	__ZN4core3fmt9Formatter11debug_tuple17h15ca25ad759edd1cE
	movq	%rbx, -24(%rbp)
	leaq	l___unnamed_15(%rip), %rdx
	leaq	-24(%rbp), %rsi
	movq	%r14, %rdi
	callq	__ZN4core3fmt8builders10DebugTuple5field17hf36121153a94f236E
	movq	%r14, %rdi
	callq	__ZN4core3fmt8builders10DebugTuple6finish17h68acf09c6f6593f2E
	addq	$32, %rsp
	popq	%rbx
	popq	%r14
	popq	%rbp
	retq
	.cfi_endproc

	.p2align	4, 0x90
__ZN42_$LT$$RF$T$u20$as$u20$core..fmt..Debug$GT$3fmt17ha6bbd488d67f76efE:
	.cfi_startproc
	pushq	%rbp
	.cfi_def_cfa_offset 16
	.cfi_offset %rbp, -16
	movq	%rsp, %rbp
	.cfi_def_cfa_register %rbp
	pushq	%r14
	pushq	%rbx
	subq	$32, %rsp
	.cfi_offset %rbx, -32
	.cfi_offset %r14, -24
	movq	(%rdi), %rbx
	leaq	l___unnamed_38(%rip), %rdx
	leaq	-48(%rbp), %r14
	movl	$5, %ecx
	movq	%r14, %rdi
	callq	__ZN4core3fmt9Formatter11debug_tuple17h15ca25ad759edd1cE
	movq	%rbx, -24(%rbp)
	leaq	l___unnamed_15(%rip), %rdx
	leaq	-24(%rbp), %rsi
	movq	%r14, %rdi
	callq	__ZN4core3fmt8builders10DebugTuple5field17hf36121153a94f236E
	movq	%r14, %rdi
	callq	__ZN4core3fmt8builders10DebugTuple6finish17h68acf09c6f6593f2E
	addq	$32, %rsp
	popq	%rbx
	popq	%r14
	popq	%rbp
	retq
	.cfi_endproc

	.p2align	4, 0x90
__ZN42_$LT$$RF$T$u20$as$u20$core..fmt..Debug$GT$3fmt17hb9cbc7d28d182a77E:
	.cfi_startproc
	pushq	%rbp
	.cfi_def_cfa_offset 16
	.cfi_offset %rbp, -16
	movq	%rsp, %rbp
	.cfi_def_cfa_register %rbp
	pushq	%r14
	pushq	%rbx
	subq	$32, %rsp
	.cfi_offset %rbx, -32
	.cfi_offset %r14, -24
	movq	(%rdi), %rbx
	leaq	l___unnamed_39(%rip), %rdx
	leaq	-48(%rbp), %r14
	movl	$10, %ecx
	movq	%r14, %rdi
	callq	__ZN4core3fmt9Formatter11debug_tuple17h15ca25ad759edd1cE
	movq	%rbx, -24(%rbp)
	leaq	l___unnamed_3(%rip), %rdx
	leaq	-24(%rbp), %rsi
	movq	%r14, %rdi
	callq	__ZN4core3fmt8builders10DebugTuple5field17hf36121153a94f236E
	movq	%r14, %rdi
	callq	__ZN4core3fmt8builders10DebugTuple6finish17h68acf09c6f6593f2E
	addq	$32, %rsp
	popq	%rbx
	popq	%r14
	popq	%rbp
	retq
	.cfi_endproc

	.p2align	4, 0x90
__ZN42_$LT$$RF$T$u20$as$u20$core..fmt..Debug$GT$3fmt17hc7614e87fc1ee9c9E:
	.cfi_startproc
	pushq	%rbp
	.cfi_def_cfa_offset 16
	.cfi_offset %rbp, -16
	movq	%rsp, %rbp
	.cfi_def_cfa_register %rbp
	pushq	%r14
	pushq	%rbx
	subq	$32, %rsp
	.cfi_offset %rbx, -32
	.cfi_offset %r14, -24
	movq	(%rdi), %rax
	cmpq	$1, (%rax)
	leaq	8(%rax), %r14
	leaq	-48(%rbp), %rbx
	jne	LBB23_2
	leaq	L___unnamed_40(%rip), %rdx
	movl	$8, %ecx
	jmp	LBB23_3
LBB23_2:
	leaq	l___unnamed_41(%rip), %rdx
	movl	$6, %ecx
LBB23_3:
	movq	%rbx, %rdi
	callq	__ZN4core3fmt9Formatter11debug_tuple17h15ca25ad759edd1cE
	leaq	-24(%rbp), %rsi
	movq	%r14, -24(%rbp)
	leaq	l___unnamed_6(%rip), %rdx
	movq	%rbx, %rdi
	callq	__ZN4core3fmt8builders10DebugTuple5field17hf36121153a94f236E
	movq	%rbx, %rdi
	callq	__ZN4core3fmt8builders10DebugTuple6finish17h68acf09c6f6593f2E
	addq	$32, %rsp
	popq	%rbx
	popq	%r14
	popq	%rbp
	retq
	.cfi_endproc

	.p2align	4, 0x90
__ZN42_$LT$$RF$T$u20$as$u20$core..fmt..Debug$GT$3fmt17hcb239234dadabf85E:
	.cfi_startproc
	pushq	%rbp
	.cfi_def_cfa_offset 16
	.cfi_offset %rbp, -16
	movq	%rsp, %rbp
	.cfi_def_cfa_register %rbp
	pushq	%r14
	pushq	%rbx
	.cfi_offset %rbx, -32
	.cfi_offset %r14, -24
	movq	%rsi, %rbx
	movq	(%rdi), %r14
	movq	%rsi, %rdi
	callq	__ZN4core3fmt9Formatter15debug_lower_hex17h8530fbaeba13f4d9E
	testb	%al, %al
	je	LBB24_1
	movq	%r14, %rdi
	movq	%rbx, %rsi
	popq	%rbx
	popq	%r14
	popq	%rbp
	jmp	__ZN4core3fmt3num53_$LT$impl$u20$core..fmt..LowerHex$u20$for$u20$i64$GT$3fmt17ha8bb237a95553570E
LBB24_1:
	movq	%rbx, %rdi
	callq	__ZN4core3fmt9Formatter15debug_upper_hex17hf8fda15ec43a1e68E
	movq	%r14, %rdi
	movq	%rbx, %rsi
	testb	%al, %al
	je	LBB24_4
	popq	%rbx
	popq	%r14
	popq	%rbp
	jmp	__ZN4core3fmt3num53_$LT$impl$u20$core..fmt..UpperHex$u20$for$u20$i64$GT$3fmt17h13194bd83ca37803E
LBB24_4:
	popq	%rbx
	popq	%r14
	popq	%rbp
	jmp	__ZN4core3fmt3num3imp52_$LT$impl$u20$core..fmt..Display$u20$for$u20$i64$GT$3fmt17h6a5170735d6294a5E
	.cfi_endproc

	.p2align	4, 0x90
__ZN42_$LT$$RF$T$u20$as$u20$core..fmt..Debug$GT$3fmt17hccd142c572fa9214E:
	.cfi_startproc
	pushq	%rbp
	.cfi_def_cfa_offset 16
	.cfi_offset %rbp, -16
	movq	%rsp, %rbp
	.cfi_def_cfa_register %rbp
	pushq	%r14
	pushq	%rbx
	.cfi_offset %rbx, -32
	.cfi_offset %r14, -24
	movq	%rsi, %rbx
	movq	(%rdi), %r14
	movq	%rsi, %rdi
	callq	__ZN4core3fmt9Formatter15debug_lower_hex17h8530fbaeba13f4d9E
	testb	%al, %al
	je	LBB25_1
	movq	%r14, %rdi
	movq	%rbx, %rsi
	popq	%rbx
	popq	%r14
	popq	%rbp
	jmp	__ZN4core3fmt3num53_$LT$impl$u20$core..fmt..LowerHex$u20$for$u20$i32$GT$3fmt17h45ae8797392b15d4E
LBB25_1:
	movq	%rbx, %rdi
	callq	__ZN4core3fmt9Formatter15debug_upper_hex17hf8fda15ec43a1e68E
	movq	%r14, %rdi
	movq	%rbx, %rsi
	testb	%al, %al
	je	LBB25_4
	popq	%rbx
	popq	%r14
	popq	%rbp
	jmp	__ZN4core3fmt3num53_$LT$impl$u20$core..fmt..UpperHex$u20$for$u20$i32$GT$3fmt17h7218a38926162563E
LBB25_4:
	popq	%rbx
	popq	%r14
	popq	%rbp
	jmp	__ZN4core3fmt3num3imp52_$LT$impl$u20$core..fmt..Display$u20$for$u20$i32$GT$3fmt17he2ccc2060d52a2ceE
	.cfi_endproc

	.p2align	4, 0x90
__ZN42_$LT$$RF$T$u20$as$u20$core..fmt..Debug$GT$3fmt17hd3845ad5d91caa56E:
	.cfi_startproc
	pushq	%rbp
	.cfi_def_cfa_offset 16
	.cfi_offset %rbp, -16
	movq	%rsp, %rbp
	.cfi_def_cfa_register %rbp
	pushq	%r14
	pushq	%rbx
	subq	$32, %rsp
	.cfi_offset %rbx, -32
	.cfi_offset %r14, -24
	movq	(%rdi), %rbx
	cmpq	$2, (%rbx)
	jne	LBB26_1
	leaq	-48(%rbp), %r14
	leaq	L___unnamed_19(%rip), %rdx
	movl	$4, %ecx
	movq	%r14, %rdi
	callq	__ZN4core3fmt9Formatter11debug_tuple17h15ca25ad759edd1cE
	jmp	LBB26_3
LBB26_1:
	leaq	-48(%rbp), %r14
	leaq	L___unnamed_18(%rip), %rdx
	movl	$4, %ecx
	movq	%r14, %rdi
	callq	__ZN4core3fmt9Formatter11debug_tuple17h15ca25ad759edd1cE
	movq	%rbx, -24(%rbp)
	leaq	l___unnamed_36(%rip), %rdx
	leaq	-24(%rbp), %rsi
	movq	%r14, %rdi
	callq	__ZN4core3fmt8builders10DebugTuple5field17hf36121153a94f236E
LBB26_3:
	movq	%r14, %rdi
	callq	__ZN4core3fmt8builders10DebugTuple6finish17h68acf09c6f6593f2E
	addq	$32, %rsp
	popq	%rbx
	popq	%r14
	popq	%rbp
	retq
	.cfi_endproc

	.p2align	4, 0x90
__ZN42_$LT$$RF$T$u20$as$u20$core..fmt..Debug$GT$3fmt17hd743effd10b386a8E:
	.cfi_startproc
	pushq	%rbp
	.cfi_def_cfa_offset 16
	.cfi_offset %rbp, -16
	movq	%rsp, %rbp
	.cfi_def_cfa_register %rbp
	pushq	%r14
	pushq	%rbx
	subq	$32, %rsp
	.cfi_offset %rbx, -32
	.cfi_offset %r14, -24
	movq	(%rdi), %rbx
	leaq	L___unnamed_42(%rip), %rdx
	leaq	-48(%rbp), %r14
	movl	$4, %ecx
	movq	%r14, %rdi
	callq	__ZN4core3fmt9Formatter11debug_tuple17h15ca25ad759edd1cE
	movq	%rbx, -24(%rbp)
	leaq	l___unnamed_3(%rip), %rdx
	leaq	-24(%rbp), %rsi
	movq	%r14, %rdi
	callq	__ZN4core3fmt8builders10DebugTuple5field17hf36121153a94f236E
	movq	%r14, %rdi
	callq	__ZN4core3fmt8builders10DebugTuple6finish17h68acf09c6f6593f2E
	addq	$32, %rsp
	popq	%rbx
	popq	%r14
	popq	%rbp
	retq
	.cfi_endproc

	.p2align	4, 0x90
__ZN42_$LT$$RF$T$u20$as$u20$core..fmt..Debug$GT$3fmt17he111b01cc2333813E:
	.cfi_startproc
	pushq	%rbp
	.cfi_def_cfa_offset 16
	.cfi_offset %rbp, -16
	movq	%rsp, %rbp
	.cfi_def_cfa_register %rbp
	pushq	%r14
	pushq	%rbx
	subq	$32, %rsp
	.cfi_offset %rbx, -32
	.cfi_offset %r14, -24
	movq	(%rdi), %rbx
	cmpb	$1, (%rbx)
	jne	LBB28_2
	incq	%rbx
	leaq	-48(%rbp), %r14
	leaq	L___unnamed_18(%rip), %rdx
	movl	$4, %ecx
	movq	%r14, %rdi
	callq	__ZN4core3fmt9Formatter11debug_tuple17h15ca25ad759edd1cE
	movq	%rbx, -24(%rbp)
	leaq	l___unnamed_35(%rip), %rdx
	leaq	-24(%rbp), %rsi
	movq	%r14, %rdi
	callq	__ZN4core3fmt8builders10DebugTuple5field17hf36121153a94f236E
	jmp	LBB28_3
LBB28_2:
	leaq	-48(%rbp), %r14
	leaq	L___unnamed_19(%rip), %rdx
	movl	$4, %ecx
	movq	%r14, %rdi
	callq	__ZN4core3fmt9Formatter11debug_tuple17h15ca25ad759edd1cE
LBB28_3:
	movq	%r14, %rdi
	callq	__ZN4core3fmt8builders10DebugTuple6finish17h68acf09c6f6593f2E
	addq	$32, %rsp
	popq	%rbx
	popq	%r14
	popq	%rbp
	retq
	.cfi_endproc

	.p2align	4, 0x90
__ZN42_$LT$$RF$T$u20$as$u20$core..fmt..Debug$GT$3fmt17he2af399c65d7e84dE:
	.cfi_startproc
	pushq	%rbp
	.cfi_def_cfa_offset 16
	.cfi_offset %rbp, -16
	movq	%rsp, %rbp
	.cfi_def_cfa_register %rbp
	pushq	%r14
	pushq	%rbx
	.cfi_offset %rbx, -32
	.cfi_offset %r14, -24
	movq	%rsi, %rbx
	movq	(%rdi), %r14
	movq	%rsi, %rdi
	callq	__ZN4core3fmt9Formatter15debug_lower_hex17h8530fbaeba13f4d9E
	testb	%al, %al
	je	LBB29_1
	movq	%r14, %rdi
	movq	%rbx, %rsi
	popq	%rbx
	popq	%r14
	popq	%rbp
	jmp	__ZN4core3fmt3num52_$LT$impl$u20$core..fmt..LowerHex$u20$for$u20$i8$GT$3fmt17h7f7e9f270a5d54c2E
LBB29_1:
	movq	%rbx, %rdi
	callq	__ZN4core3fmt9Formatter15debug_upper_hex17hf8fda15ec43a1e68E
	movq	%r14, %rdi
	movq	%rbx, %rsi
	testb	%al, %al
	je	LBB29_4
	popq	%rbx
	popq	%r14
	popq	%rbp
	jmp	__ZN4core3fmt3num52_$LT$impl$u20$core..fmt..UpperHex$u20$for$u20$i8$GT$3fmt17hd41115610f011194E
LBB29_4:
	popq	%rbx
	popq	%r14
	popq	%rbp
	jmp	__ZN4core3fmt3num3imp51_$LT$impl$u20$core..fmt..Display$u20$for$u20$i8$GT$3fmt17hc80f24a4257c3563E
	.cfi_endproc

	.p2align	4, 0x90
__ZN42_$LT$$RF$T$u20$as$u20$core..fmt..Debug$GT$3fmt17he82902ea712cf367E:
	.cfi_startproc
	pushq	%rbp
	.cfi_def_cfa_offset 16
	.cfi_offset %rbp, -16
	movq	%rsp, %rbp
	.cfi_def_cfa_register %rbp
	pushq	%r14
	pushq	%rbx
	subq	$32, %rsp
	.cfi_offset %rbx, -32
	.cfi_offset %r14, -24
	movq	(%rdi), %rbx
	cmpq	$2, 8(%rbx)
	jne	LBB30_1
	leaq	-48(%rbp), %r14
	leaq	L___unnamed_19(%rip), %rdx
	movl	$4, %ecx
	movq	%r14, %rdi
	callq	__ZN4core3fmt9Formatter11debug_tuple17h15ca25ad759edd1cE
	jmp	LBB30_3
LBB30_1:
	leaq	-48(%rbp), %r14
	leaq	L___unnamed_18(%rip), %rdx
	movl	$4, %ecx
	movq	%r14, %rdi
	callq	__ZN4core3fmt9Formatter11debug_tuple17h15ca25ad759edd1cE
	movq	%rbx, -24(%rbp)
	leaq	l___unnamed_43(%rip), %rdx
	leaq	-24(%rbp), %rsi
	movq	%r14, %rdi
	callq	__ZN4core3fmt8builders10DebugTuple5field17hf36121153a94f236E
LBB30_3:
	movq	%r14, %rdi
	callq	__ZN4core3fmt8builders10DebugTuple6finish17h68acf09c6f6593f2E
	addq	$32, %rsp
	popq	%rbx
	popq	%r14
	popq	%rbp
	retq
	.cfi_endproc

	.p2align	4, 0x90
__ZN42_$LT$$RF$T$u20$as$u20$core..fmt..Debug$GT$3fmt17hea9d08fb563f546fE:
	.cfi_startproc
	pushq	%rbp
	.cfi_def_cfa_offset 16
	.cfi_offset %rbp, -16
	movq	%rsp, %rbp
	.cfi_def_cfa_register %rbp
	pushq	%rbx
	subq	$24, %rsp
	.cfi_offset %rbx, -24
	movq	(%rdi), %rax
	cmpb	$8, (%rax)
	jne	LBB31_1
	leaq	-32(%rbp), %rbx
	leaq	l___unnamed_44(%rip), %rdx
	jmp	LBB31_3
LBB31_1:
	leaq	-32(%rbp), %rbx
	leaq	l___unnamed_45(%rip), %rdx
LBB31_3:
	movl	$7, %ecx
	movq	%rbx, %rdi
	callq	__ZN4core3fmt9Formatter11debug_tuple17h15ca25ad759edd1cE
	movq	%rbx, %rdi
	callq	__ZN4core3fmt8builders10DebugTuple6finish17h68acf09c6f6593f2E
	addq	$24, %rsp
	popq	%rbx
	popq	%rbp
	retq
	.cfi_endproc

	.p2align	4, 0x90
__ZN42_$LT$$RF$T$u20$as$u20$core..fmt..Debug$GT$3fmt17hec05fbaf3e6eb2a0E:
	.cfi_startproc
	pushq	%rbp
	.cfi_def_cfa_offset 16
	.cfi_offset %rbp, -16
	movq	%rsp, %rbp
	.cfi_def_cfa_register %rbp
	pushq	%r15
	pushq	%r14
	pushq	%r13
	pushq	%r12
	pushq	%rbx
	subq	$24, %rsp
	.cfi_offset %rbx, -56
	.cfi_offset %r12, -48
	.cfi_offset %r13, -40
	.cfi_offset %r14, -32
	.cfi_offset %r15, -24
	movq	(%rdi), %rbx
	leaq	l___unnamed_46(%rip), %rdx
	leaq	-64(%rbp), %r15
	movl	$12, %ecx
	movq	%r15, %rdi
	callq	__ZN4core3fmt9Formatter12debug_struct17h985c0158d1fc7193E
	movq	%rbx, -48(%rbp)
	leaq	104(%rbx), %r12
	leaq	106(%rbx), %r13
	leaq	8(%rbx), %r14
	leaq	L___unnamed_47(%rip), %rsi
	leaq	l___unnamed_6(%rip), %r8
	leaq	-48(%rbp), %rcx
	movl	$4, %edx
	movq	%r15, %rdi
	callq	__ZN4core3fmt8builders11DebugStruct5field17h9c15dc155278eed2E
	movq	%r12, -48(%rbp)
	leaq	l___unnamed_48(%rip), %rsi
	leaq	l___unnamed_49(%rip), %r8
	leaq	-48(%rbp), %rcx
	movl	$3, %edx
	movq	%r15, %rdi
	callq	__ZN4core3fmt8builders11DebugStruct5field17h9c15dc155278eed2E
	movq	%r13, -48(%rbp)
	leaq	l___unnamed_50(%rip), %rsi
	leaq	l___unnamed_51(%rip), %r8
	leaq	-48(%rbp), %rcx
	movl	$12, %edx
	movq	%r15, %rdi
	callq	__ZN4core3fmt8builders11DebugStruct5field17h9c15dc155278eed2E
	movq	%r14, -48(%rbp)
	leaq	l___unnamed_52(%rip), %rsi
	leaq	l___unnamed_53(%rip), %r8
	leaq	-48(%rbp), %rcx
	movl	$10, %edx
	movq	%r15, %rdi
	callq	__ZN4core3fmt8builders11DebugStruct5field17h9c15dc155278eed2E
	movq	%r15, %rdi
	callq	__ZN4core3fmt8builders11DebugStruct6finish17h26808393f3fed630E
	addq	$24, %rsp
	popq	%rbx
	popq	%r12
	popq	%r13
	popq	%r14
	popq	%r15
	popq	%rbp
	retq
	.cfi_endproc

	.p2align	4, 0x90
__ZN42_$LT$$RF$T$u20$as$u20$core..fmt..Debug$GT$3fmt17hed89f3d1a3c8e0edE:
	.cfi_startproc
	pushq	%rbp
	.cfi_def_cfa_offset 16
	.cfi_offset %rbp, -16
	movq	%rsp, %rbp
	.cfi_def_cfa_register %rbp
	movq	(%rdi), %rdi
	popq	%rbp
	jmp	__ZN4core3fmt5float50_$LT$impl$u20$core..fmt..Debug$u20$for$u20$f64$GT$3fmt17h45f97cf93875c48bE
	.cfi_endproc

	.p2align	4, 0x90
__ZN42_$LT$$RF$T$u20$as$u20$core..fmt..Debug$GT$3fmt17hfb845578305f356cE:
	.cfi_startproc
	pushq	%rbp
	.cfi_def_cfa_offset 16
	.cfi_offset %rbp, -16
	movq	%rsp, %rbp
	.cfi_def_cfa_register %rbp
	pushq	%r14
	pushq	%rbx
	subq	$32, %rsp
	.cfi_offset %rbx, -32
	.cfi_offset %r14, -24
	movq	(%rdi), %rbx
	leaq	l___unnamed_54(%rip), %rdx
	leaq	-48(%rbp), %r14
	movl	$6, %ecx
	movq	%r14, %rdi
	callq	__ZN4core3fmt9Formatter11debug_tuple17h15ca25ad759edd1cE
	movq	%rbx, -24(%rbp)
	leaq	l___unnamed_15(%rip), %rdx
	leaq	-24(%rbp), %rsi
	movq	%r14, %rdi
	callq	__ZN4core3fmt8builders10DebugTuple5field17hf36121153a94f236E
	movq	%r14, %rdi
	callq	__ZN4core3fmt8builders10DebugTuple6finish17h68acf09c6f6593f2E
	addq	$32, %rsp
	popq	%rbx
	popq	%r14
	popq	%rbp
	retq
	.cfi_endproc

	.p2align	4, 0x90
__ZN42_$LT$$RF$T$u20$as$u20$core..fmt..Debug$GT$3fmt17hfc30813f73253daaE:
	.cfi_startproc
	pushq	%rbp
	.cfi_def_cfa_offset 16
	.cfi_offset %rbp, -16
	movq	%rsp, %rbp
	.cfi_def_cfa_register %rbp
	pushq	%r14
	pushq	%rbx
	subq	$32, %rsp
	.cfi_offset %rbx, -32
	.cfi_offset %r14, -24
	movq	(%rdi), %rbx
	leaq	l___unnamed_55(%rip), %rdx
	leaq	-48(%rbp), %r14
	movl	$5, %ecx
	movq	%r14, %rdi
	callq	__ZN4core3fmt9Formatter11debug_tuple17h15ca25ad759edd1cE
	movq	%rbx, -24(%rbp)
	leaq	l___unnamed_3(%rip), %rdx
	leaq	-24(%rbp), %rsi
	movq	%r14, %rdi
	callq	__ZN4core3fmt8builders10DebugTuple5field17hf36121153a94f236E
	movq	%r14, %rdi
	callq	__ZN4core3fmt8builders10DebugTuple6finish17h68acf09c6f6593f2E
	addq	$32, %rsp
	popq	%rbx
	popq	%r14
	popq	%rbp
	retq
	.cfi_endproc

	.p2align	4, 0x90
__ZN44_$LT$$RF$T$u20$as$u20$core..fmt..Display$GT$3fmt17hfb18b74c4657b0bcE:
	.cfi_startproc
	pushq	%rbp
	.cfi_def_cfa_offset 16
	.cfi_offset %rbp, -16
	movq	%rsp, %rbp
	.cfi_def_cfa_register %rbp
	movq	%rsi, %rdx
	movq	(%rdi), %rax
	movq	8(%rdi), %rsi
	movq	%rax, %rdi
	popq	%rbp
	jmp	__ZN42_$LT$str$u20$as$u20$core..fmt..Display$GT$3fmt17hd4dee1c1c4ccf892E
	.cfi_endproc

	.p2align	4, 0x90
__ZN4core3ptr13drop_in_place17h060377e9025a9df3E:
	.cfi_startproc
	pushq	%rbp
	.cfi_def_cfa_offset 16
	.cfi_offset %rbp, -16
	movq	%rsp, %rbp
	.cfi_def_cfa_register %rbp
	popq	%rbp
	retq
	.cfi_endproc

	.p2align	4, 0x90
__ZN4core3ptr13drop_in_place17h157d81ce2268cf1fE:
	.cfi_startproc
	pushq	%rbp
	.cfi_def_cfa_offset 16
	.cfi_offset %rbp, -16
	movq	%rsp, %rbp
	.cfi_def_cfa_register %rbp
	cmpq	$0, 8(%rdi)
	je	LBB38_4
	movq	24(%rdi), %rsi
	testq	%rsi, %rsi
	je	LBB38_4
	movq	16(%rdi), %rdi
	testq	%rdi, %rdi
	je	LBB38_4
	shlq	$4, %rsi
	je	LBB38_4
	movl	$8, %edx
	popq	%rbp
	jmp	___rust_dealloc
LBB38_4:
	popq	%rbp
	retq
	.cfi_endproc

	.p2align	4, 0x90
__ZN4core3ptr13drop_in_place17h48813f7099eb3c1eE:
	.cfi_startproc
	pushq	%rbp
	.cfi_def_cfa_offset 16
	.cfi_offset %rbp, -16
	movq	%rsp, %rbp
	.cfi_def_cfa_register %rbp
	cmpq	$0, (%rdi)
	je	LBB39_4
	movq	16(%rdi), %rsi
	testq	%rsi, %rsi
	je	LBB39_4
	movq	8(%rdi), %rdi
	testq	%rdi, %rdi
	je	LBB39_4
	shlq	$4, %rsi
	je	LBB39_4
	movl	$8, %edx
	popq	%rbp
	jmp	___rust_dealloc
LBB39_4:
	popq	%rbp
	retq
	.cfi_endproc

	.p2align	4, 0x90
__ZN4core3ptr13drop_in_place17hb8d13ca126c402d8E:
	.cfi_startproc
	pushq	%rbp
	.cfi_def_cfa_offset 16
	.cfi_offset %rbp, -16
	movq	%rsp, %rbp
	.cfi_def_cfa_register %rbp
	movq	8(%rdi), %rsi
	testq	%rsi, %rsi
	je	LBB40_3
	movq	(%rdi), %rdi
	testq	%rdi, %rdi
	je	LBB40_3
	shlq	$4, %rsi
	je	LBB40_3
	movl	$8, %edx
	popq	%rbp
	jmp	___rust_dealloc
LBB40_3:
	popq	%rbp
	retq
	.cfi_endproc

	.p2align	4, 0x90
__ZN4core3ptr13drop_in_place17hcb660db0ba6c573eE:
	.cfi_startproc
	pushq	%rbp
	.cfi_def_cfa_offset 16
	.cfi_offset %rbp, -16
	movq	%rsp, %rbp
	.cfi_def_cfa_register %rbp
	movq	%rdi, %rax
	movq	(%rdi), %rdi
	testq	%rdi, %rdi
	je	LBB41_2
	movq	8(%rax), %rsi
	testq	%rsi, %rsi
	je	LBB41_2
	movl	$1, %edx
	popq	%rbp
	jmp	___rust_dealloc
LBB41_2:
	popq	%rbp
	retq
	.cfi_endproc

	.p2align	4, 0x90
__ZN5alloc3vec12Vec$LT$T$GT$7reserve17hd8884bf1bf818f84E:
	.cfi_startproc
	pushq	%rbp
	.cfi_def_cfa_offset 16
	.cfi_offset %rbp, -16
	movq	%rsp, %rbp
	.cfi_def_cfa_register %rbp
	pushq	%r14
	pushq	%rbx
	.cfi_offset %rbx, -32
	.cfi_offset %r14, -24
	movq	%rsi, %rcx
	movq	8(%rdi), %rsi
	movq	16(%rdi), %rax
	movq	%rsi, %rdx
	subq	%rax, %rdx
	cmpq	%rcx, %rdx
	jae	LBB42_18
	addq	%rcx, %rax
	jb	LBB42_19
	movq	%rdi, %rbx
	leaq	(%rsi,%rsi), %rcx
	cmpq	%rax, %rcx
	cmovaq	%rcx, %rax
	movl	$16, %edx
	xorl	%ecx, %ecx
	mulq	%rdx
	movq	%rax, %r14
	seto	%dl
	setno	%dil
	movq	%rsi, %rax
	testq	%rsi, %rsi
	je	LBB42_4
	movq	(%rbx), %rax
LBB42_4:
	testb	%dl, %dl
	jne	LBB42_19
	testq	%rax, %rax
	je	LBB42_12
	shlq	$4, %rsi
	cmpq	%r14, %rsi
	je	LBB42_16
	testq	%rsi, %rsi
	je	LBB42_8
	movl	$8, %edx
	movq	%rax, %rdi
	movq	%r14, %rcx
	callq	___rust_realloc
	testq	%rax, %rax
	jne	LBB42_17
	jmp	LBB42_20
LBB42_12:
	movb	%dil, %cl
	shlq	$3, %rcx
	testq	%r14, %r14
	je	LBB42_13
	movq	%r14, %rdi
	movq	%rcx, %rsi
	jmp	LBB42_15
LBB42_13:
	movq	%rcx, %rax
	testq	%rax, %rax
	jne	LBB42_17
	jmp	LBB42_20
LBB42_8:
	testq	%r14, %r14
	je	LBB42_9
	movl	$8, %esi
	movq	%r14, %rdi
LBB42_15:
	callq	___rust_alloc
LBB42_16:
	testq	%rax, %rax
	je	LBB42_20
LBB42_17:
	movq	%rax, (%rbx)
	shrq	$4, %r14
	movq	%r14, 8(%rbx)
LBB42_18:
	popq	%rbx
	popq	%r14
	popq	%rbp
	retq
LBB42_9:
	movl	$8, %eax
	jmp	LBB42_17
LBB42_19:
	callq	__ZN5alloc7raw_vec17capacity_overflow17h023f34f5bc34c61fE
LBB42_20:
	movl	$8, %esi
	movq	%r14, %rdi
	callq	__ZN5alloc5alloc18handle_alloc_error17hbc0ab0ed90816c07E
	.cfi_endproc

	.p2align	4, 0x90
__ZN5alloc7raw_vec19RawVec$LT$T$C$A$GT$11allocate_in28_$u7b$$u7b$closure$u7d$$u7d$17h04a27b9e984168cdE:
	.cfi_startproc
	pushq	%rbp
	.cfi_def_cfa_offset 16
	.cfi_offset %rbp, -16
	movq	%rsp, %rbp
	.cfi_def_cfa_register %rbp
	callq	__ZN5alloc5alloc18handle_alloc_error17hbc0ab0ed90816c07E
	.cfi_endproc

	.globl	__ZN70_$LT$gimli..common..LineEncoding$u20$as$u20$core..default..Default$GT$7default17h279fbe69e8384812E
	.p2align	4, 0x90
__ZN70_$LT$gimli..common..LineEncoding$u20$as$u20$core..default..Default$GT$7default17h279fbe69e8384812E:
	.cfi_startproc
	pushq	%rbp
	.cfi_def_cfa_offset 16
	.cfi_offset %rbp, -16
	movq	%rsp, %rbp
	.cfi_def_cfa_register %rbp
	movabsq	$64340689153, %rax
	popq	%rbp
	retq
	.cfi_endproc

	.globl	__ZN5gimli6common9SectionId4name17hd2bb9e7e7ca5f226E
	.p2align	4, 0x90
__ZN5gimli6common9SectionId4name17hd2bb9e7e7ca5f226E:
	.cfi_startproc
	pushq	%rbp
	.cfi_def_cfa_offset 16
	.cfi_offset %rbp, -16
	movq	%rsp, %rbp
	.cfi_def_cfa_register %rbp
	movl	$12, %edx
	leaq	l___unnamed_56(%rip), %rax
	movzbl	%dil, %ecx
	leaq	LJTI45_0(%rip), %rsi
	movslq	(%rsi,%rcx,4), %rcx
	addq	%rsi, %rcx
	jmpq	*%rcx
LBB45_1:
	movl	$13, %edx
	leaq	l___unnamed_57(%rip), %rax
	popq	%rbp
	retq
LBB45_2:
	movl	$11, %edx
	leaq	l___unnamed_58(%rip), %rax
	popq	%rbp
	retq
LBB45_3:
	movl	$14, %edx
	leaq	l___unnamed_59(%rip), %rax
	popq	%rbp
	retq
LBB45_4:
	leaq	l___unnamed_60(%rip), %rax
	popq	%rbp
	retq
LBB45_5:
	movl	$9, %edx
	leaq	l___unnamed_61(%rip), %rax
	popq	%rbp
	retq
LBB45_6:
	movl	$13, %edx
	leaq	l___unnamed_62(%rip), %rax
	popq	%rbp
	retq
LBB45_7:
	movl	$11, %edx
	leaq	l___unnamed_63(%rip), %rax
	popq	%rbp
	retq
LBB45_8:
	movl	$11, %edx
	leaq	l___unnamed_64(%rip), %rax
	popq	%rbp
	retq
LBB45_9:
	movl	$15, %edx
	leaq	l___unnamed_65(%rip), %rax
	popq	%rbp
	retq
LBB45_10:
	movl	$10, %edx
	leaq	l___unnamed_66(%rip), %rax
	popq	%rbp
	retq
LBB45_11:
	movl	$15, %edx
	leaq	l___unnamed_67(%rip), %rax
	popq	%rbp
	retq
LBB45_12:
	movl	$14, %edx
	leaq	l___unnamed_68(%rip), %rax
	popq	%rbp
	retq
LBB45_13:
	leaq	l___unnamed_69(%rip), %rax
	popq	%rbp
	retq
LBB45_14:
	movl	$15, %edx
	leaq	l___unnamed_70(%rip), %rax
	popq	%rbp
	retq
LBB45_15:
	movl	$15, %edx
	leaq	l___unnamed_71(%rip), %rax
	popq	%rbp
	retq
LBB45_16:
	movl	$13, %edx
	leaq	l___unnamed_72(%rip), %rax
	popq	%rbp
	retq
LBB45_17:
	movl	$15, %edx
	leaq	l___unnamed_73(%rip), %rax
	popq	%rbp
	retq
LBB45_18:
	movl	$10, %edx
	leaq	l___unnamed_74(%rip), %rax
	popq	%rbp
	retq
LBB45_19:
	movl	$18, %edx
	leaq	l___unnamed_75(%rip), %rax
LBB45_20:
	popq	%rbp
	retq
	.cfi_endproc
	.p2align	2, 0x90
	.data_region jt32
.set L45_0_set_1, LBB45_1-LJTI45_0
.set L45_0_set_2, LBB45_2-LJTI45_0
.set L45_0_set_3, LBB45_3-LJTI45_0
.set L45_0_set_4, LBB45_4-LJTI45_0
.set L45_0_set_5, LBB45_5-LJTI45_0
.set L45_0_set_6, LBB45_6-LJTI45_0
.set L45_0_set_7, LBB45_7-LJTI45_0
.set L45_0_set_8, LBB45_8-LJTI45_0
.set L45_0_set_9, LBB45_9-LJTI45_0
.set L45_0_set_10, LBB45_10-LJTI45_0
.set L45_0_set_11, LBB45_11-LJTI45_0
.set L45_0_set_12, LBB45_12-LJTI45_0
.set L45_0_set_13, LBB45_13-LJTI45_0
.set L45_0_set_14, LBB45_14-LJTI45_0
.set L45_0_set_15, LBB45_15-LJTI45_0
.set L45_0_set_16, LBB45_16-LJTI45_0
.set L45_0_set_17, LBB45_17-LJTI45_0
.set L45_0_set_18, LBB45_18-LJTI45_0
.set L45_0_set_19, LBB45_19-LJTI45_0
.set L45_0_set_20, LBB45_20-LJTI45_0
LJTI45_0:
	.long	L45_0_set_1
	.long	L45_0_set_2
	.long	L45_0_set_3
	.long	L45_0_set_4
	.long	L45_0_set_5
	.long	L45_0_set_6
	.long	L45_0_set_7
	.long	L45_0_set_8
	.long	L45_0_set_9
	.long	L45_0_set_10
	.long	L45_0_set_11
	.long	L45_0_set_12
	.long	L45_0_set_13
	.long	L45_0_set_14
	.long	L45_0_set_15
	.long	L45_0_set_16
	.long	L45_0_set_17
	.long	L45_0_set_18
	.long	L45_0_set_19
	.long	L45_0_set_20
	.end_data_region

	.globl	__ZN5gimli6common9SectionId8dwo_name17hdd12883db7e56d08E
	.p2align	4, 0x90
__ZN5gimli6common9SectionId8dwo_name17hdd12883db7e56d08E:
	.cfi_startproc
	xorl	%eax, %eax
	cmpb	$18, %dil
	ja	LBB46_1
	pushq	%rbp
	.cfi_def_cfa_offset 16
	.cfi_offset %rbp, -16
	movq	%rsp, %rbp
	.cfi_def_cfa_register %rbp
	movl	$17, %edx
	leaq	l___unnamed_76(%rip), %rcx
	movzbl	%dil, %esi
	leaq	LJTI46_0(%rip), %rdi
	movslq	(%rdi,%rsi,4), %rsi
	addq	%rdi, %rsi
	popq	%rbp
	jmpq	*%rsi
LBB46_3:
	movl	$15, %edx
	leaq	l___unnamed_77(%rip), %rcx
	jmp	LBB46_9
LBB46_7:
	movl	$14, %edx
	leaq	l___unnamed_78(%rip), %rcx
	jmp	LBB46_9
LBB46_4:
	movl	$15, %edx
	leaq	l___unnamed_79(%rip), %rcx
	jmp	LBB46_9
LBB46_5:
	movl	$19, %edx
	leaq	l___unnamed_80(%rip), %rcx
	jmp	LBB46_9
LBB46_6:
	movl	$16, %edx
	leaq	L___unnamed_81(%rip), %rcx
	jmp	LBB46_9
LBB46_8:
	movl	$22, %edx
	leaq	l___unnamed_82(%rip), %rcx
LBB46_9:
	movq	%rcx, %rax
LBB46_10:
	retq
LBB46_1:
	retq
	.cfi_endproc
	.p2align	2, 0x90
	.data_region jt32
.set L46_0_set_9, LBB46_9-LJTI46_0
.set L46_0_set_10, LBB46_10-LJTI46_0
.set L46_0_set_3, LBB46_3-LJTI46_0
.set L46_0_set_4, LBB46_4-LJTI46_0
.set L46_0_set_5, LBB46_5-LJTI46_0
.set L46_0_set_6, LBB46_6-LJTI46_0
.set L46_0_set_7, LBB46_7-LJTI46_0
.set L46_0_set_8, LBB46_8-LJTI46_0
LJTI46_0:
	.long	L46_0_set_9
	.long	L46_0_set_10
	.long	L46_0_set_10
	.long	L46_0_set_10
	.long	L46_0_set_10
	.long	L46_0_set_10
	.long	L46_0_set_3
	.long	L46_0_set_4
	.long	L46_0_set_10
	.long	L46_0_set_10
	.long	L46_0_set_5
	.long	L46_0_set_10
	.long	L46_0_set_6
	.long	L46_0_set_10
	.long	L46_0_set_10
	.long	L46_0_set_10
	.long	L46_0_set_10
	.long	L46_0_set_7
	.long	L46_0_set_8
	.end_data_region

	.globl	__ZN5gimli9constants6DwLang19default_lower_bound17h29e700b116a5b086E
	.p2align	4, 0x90
__ZN5gimli9constants6DwLang19default_lower_bound17h29e700b116a5b086E:
	.cfi_startproc
	decl	%edi
	cmpw	$36, %di
	ja	LBB47_1
	pushq	%rbp
	.cfi_def_cfa_offset 16
	.cfi_offset %rbp, -16
	movq	%rsp, %rbp
	.cfi_def_cfa_register %rbp
	movswq	%di, %rax
	leaq	l_switch.table._ZN5gimli9constants6DwLang19default_lower_bound17h29e700b116a5b086E(%rip), %rcx
	movq	(%rcx,%rax,8), %rdx
	movl	$1, %eax
	popq	%rbp
	retq
LBB47_1:
	xorl	%eax, %eax
	retq
	.cfi_endproc

	.globl	__ZN5gimli9constants6DwEhPe17is_valid_encoding17h2fa0b66f2c14d871E
	.p2align	4, 0x90
__ZN5gimli9constants6DwEhPe17is_valid_encoding17h2fa0b66f2c14d871E:
	.cfi_startproc
	pushq	%rbp
	.cfi_def_cfa_offset 16
	.cfi_offset %rbp, -16
	movq	%rsp, %rbp
	.cfi_def_cfa_register %rbp
	cmpb	$-1, %dil
	je	LBB48_1
	movl	%edi, %ecx
	andb	$15, %cl
	xorl	%eax, %eax
	cmpb	$12, %cl
	ja	LBB48_5
	movzbl	%cl, %ecx
	movl	$7711, %edx
	btq	%rcx, %rdx
	jae	LBB48_5
	andb	$96, %dil
	cmpb	$96, %dil
	setne	%al
LBB48_5:
	popq	%rbp
	retq
LBB48_1:
	movb	$1, %al
	popq	%rbp
	retq
	.cfi_endproc

	.globl	__ZN5gimli4read6abbrev13Abbreviations5empty17h1ceaa4288505310dE
	.p2align	4, 0x90
__ZN5gimli4read6abbrev13Abbreviations5empty17h1ceaa4288505310dE:
	.cfi_startproc
	pushq	%rbp
	.cfi_def_cfa_offset 16
	.cfi_offset %rbp, -16
	movq	%rsp, %rbp
	.cfi_def_cfa_register %rbp
	movq	%rdi, %rax
	movq	$8, (%rdi)
	movq	$0, 40(%rdi)
	vxorps	%xmm0, %xmm0, %xmm0
	vmovups	%xmm0, 8(%rdi)
	movq	$0, 24(%rdi)
	popq	%rbp
	retq
	.cfi_endproc

	.globl	__ZN5gimli4read6abbrev13Abbreviations6insert17h29f9b949c6c4dba1E
	.p2align	4, 0x90
__ZN5gimli4read6abbrev13Abbreviations6insert17h29f9b949c6c4dba1E:
Lfunc_begin0:
	.cfi_startproc
	.cfi_personality 155, _rust_eh_personality
	.cfi_lsda 16, Lexception0
	pushq	%rbp
	.cfi_def_cfa_offset 16
	.cfi_offset %rbp, -16
	movq	%rsp, %rbp
	.cfi_def_cfa_register %rbp
	pushq	%r15
	pushq	%r14
	pushq	%r13
	pushq	%r12
	pushq	%rbx
	andq	$-32, %rsp
	subq	$1888, %rsp
	.cfi_offset %rbx, -56
	.cfi_offset %r12, -48
	.cfi_offset %r13, -40
	.cfi_offset %r14, -32
	.cfi_offset %r15, -24
	movq	%rsi, %r14
	movq	(%rsi), %r15
	movq	%r15, %rcx
	subq	$1, %rcx
	jb	LBB50_112
	movq	%rdi, %rbx
	cmpq	16(%rdi), %rcx
	jb	LBB50_51
	jne	LBB50_39
	cmpq	$0, 40(%rbx)
	je	LBB50_4
	movq	24(%rbx), %rax
	testq	%rax, %rax
	je	LBB50_4
	movq	32(%rbx), %r9
	movq	$-1, %r8
LBB50_32:
	movzwl	10(%rax), %r10d
	leaq	(,%r10,8), %rdx
	movq	$-1, %rdi
LBB50_33:
	testq	%rdx, %rdx
	je	LBB50_34
	xorl	%esi, %esi
	cmpq	%r15, 24(%rax,%rdi,8)
	setne	%sil
	cmovaq	%r8, %rsi
	incq	%rdi
	cmpq	$-1, %rsi
	je	LBB50_35
	addq	$-8, %rdx
	testq	%rsi, %rsi
	jne	LBB50_33
	jmp	LBB50_51
LBB50_34:
	movq	%r10, %rdi
LBB50_35:
	testq	%r9, %r9
	je	LBB50_4
	decq	%r9
	movq	1336(%rax,%rdi,8), %rax
	jmp	LBB50_32
LBB50_39:
	movq	24(%rbx), %r12
	testq	%r12, %r12
	je	LBB50_41
	movq	32(%rbx), %rax
	jmp	LBB50_43
LBB50_4:
	vmovups	(%r14), %ymm0
	vmovups	32(%r14), %ymm1
	vmovups	64(%r14), %ymm2
	vmovups	80(%r14), %ymm3
	vmovups	%ymm3, 608(%rsp)
	vmovups	%ymm2, 592(%rsp)
	vmovups	%ymm1, 560(%rsp)
	vmovups	%ymm0, 528(%rsp)
	cmpq	8(%rbx), %rcx
	jne	LBB50_5
	movq	%rcx, %rax
	incq	%rax
	je	LBB50_25
	leaq	(%rcx,%rcx), %rdx
	cmpq	%rax, %rdx
	cmovaq	%rdx, %rax
	movl	$112, %edx
	xorl	%esi, %esi
	mulq	%rdx
	movq	%rax, %r14
	seto	%dl
	setno	%al
	movq	%rcx, %rdi
	testq	%rcx, %rcx
	je	LBB50_10
	movq	(%rbx), %rdi
LBB50_10:
	testb	%dl, %dl
	jne	LBB50_25
	testq	%rdi, %rdi
	je	LBB50_17
	imulq	$112, %rcx, %rsi
	cmpq	%r14, %rsi
	je	LBB50_22
	testq	%rsi, %rsi
	je	LBB50_14
	movl	$8, %edx
	movq	%r14, %rcx
	vzeroupper
	callq	___rust_realloc
	jmp	LBB50_21
LBB50_41:
	vxorps	%xmm0, %xmm0, %xmm0
	vmovups	%ymm0, 308(%rsp)
	vmovups	%ymm0, 340(%rsp)
	vmovups	%ymm0, 364(%rsp)
	leaq	528(%rsp), %rdi
	movl	$1232, %esi
	vzeroupper
	callq	___bzero
	movl	$1336, %edi
	movl	$8, %esi
	callq	___rust_alloc
	testq	%rax, %rax
	je	LBB50_113
	movq	%rax, %r12
	movq	$0, (%rax)
	movw	$0, 10(%rax)
	vmovups	304(%rsp), %ymm0
	vmovups	336(%rsp), %ymm1
	vmovups	%ymm0, 12(%rax)
	vmovups	364(%rsp), %ymm0
	vmovups	%ymm1, 44(%rax)
	vmovups	%ymm0, 72(%rax)
	movq	%rax, %rdi
	addq	$104, %rdi
	leaq	528(%rsp), %rsi
	movl	$1232, %edx
	vzeroupper
	callq	_memcpy
	movq	%r12, 24(%rbx)
	movq	$0, 32(%rbx)
	xorl	%eax, %eax
LBB50_43:
	movq	$-1, %r8
LBB50_44:
	movzwl	10(%r12), %edx
	leaq	16(%r12), %rcx
	leaq	(,%rdx,8), %rsi
	movq	$-1, %r13
LBB50_45:
	testq	%rsi, %rsi
	je	LBB50_46
	xorl	%edi, %edi
	cmpq	%r15, 8(%rcx,%r13,8)
	setne	%dil
	cmovaq	%r8, %rdi
	incq	%r13
	cmpq	$-1, %rdi
	je	LBB50_47
	addq	$-8, %rsi
	testq	%rdi, %rdi
	jne	LBB50_45
	jmp	LBB50_51
LBB50_46:
	movq	%rdx, %r13
	.p2align	4, 0x90
LBB50_47:
	testq	%rax, %rax
	je	LBB50_56
	decq	%rax
	movq	1336(%r12,%r13,8), %r12
	jmp	LBB50_44
LBB50_51:
	movb	$1, %bl
	cmpq	$0, 8(%r14)
	je	LBB50_109
	movq	24(%r14), %rsi
	testq	%rsi, %rsi
	je	LBB50_109
	movq	16(%r14), %rdi
	testq	%rdi, %rdi
	je	LBB50_109
	shlq	$4, %rsi
	je	LBB50_109
	movl	$8, %edx
	callq	___rust_dealloc
	jmp	LBB50_109
LBB50_5:
	movq	(%rbx), %rdi
	jmp	LBB50_6
LBB50_17:
	movb	%al, %sil
	shlq	$3, %rsi
	testq	%r14, %r14
	jne	LBB50_20
	movq	%rsi, %rdi
	testq	%rdi, %rdi
	jne	LBB50_23
	jmp	LBB50_27
LBB50_14:
	testq	%r14, %r14
	je	LBB50_15
	movl	$8, %esi
LBB50_20:
	movq	%r14, %rdi
	vzeroupper
	callq	___rust_alloc
LBB50_21:
	movq	%rax, %rdi
LBB50_22:
	testq	%rdi, %rdi
	je	LBB50_27
LBB50_23:
	movq	16(%rbx), %rcx
LBB50_24:
	movq	%rdi, (%rbx)
	shrq	$4, %r14
	movabsq	$2635249153387078803, %rdx
	movq	%r14, %rax
	mulq	%rdx
	movq	%rdx, 8(%rbx)
LBB50_6:
	imulq	$112, %rcx, %rax
	vmovups	528(%rsp), %ymm0
	vmovups	560(%rsp), %ymm1
	vmovups	592(%rsp), %ymm2
	vmovups	608(%rsp), %ymm3
	vmovups	%ymm3, 80(%rdi,%rax)
	vmovups	%ymm2, 64(%rdi,%rax)
	vmovups	%ymm1, 32(%rdi,%rax)
	vmovups	%ymm0, (%rdi,%rax)
	incq	16(%rbx)
LBB50_108:
	xorl	%ebx, %ebx
LBB50_109:
	movl	%ebx, %eax
	leaq	-40(%rbp), %rsp
	popq	%rbx
	popq	%r12
	popq	%r13
	popq	%r14
	popq	%r15
	popq	%rbp
	vzeroupper
	retq
LBB50_56:
	incq	40(%rbx)
	vmovups	(%r14), %ymm0
	vmovups	32(%r14), %ymm1
	vmovups	64(%r14), %ymm2
	vmovups	80(%r14), %ymm3
	vmovups	%ymm3, 160(%rsp)
	vmovups	%ymm2, 144(%rsp)
	vmovups	%ymm1, 112(%rsp)
	vmovups	%ymm0, 80(%rsp)
	movzwl	10(%r12), %r14d
	cmpq	$11, %r14
	jae	LBB50_57
	leaq	(%rcx,%r13,8), %rsi
	leaq	(%rcx,%r13,8), %rdi
	addq	$8, %rdi
	movq	%r14, (%rsp)
	subq	%r13, %r14
	leaq	(,%r14,8), %rdx
	vzeroupper
	callq	_memmove
	movq	%r15, 16(%r12,%r13,8)
	imulq	$112, %r13, %rbx
	leaq	(%r12,%rbx), %rsi
	addq	$104, %rsi
	leaq	(%r12,%rbx), %rdi
	addq	$216, %rdi
	imulq	$112, %r14, %rdx
	callq	_memmove
	vmovups	80(%rsp), %ymm0
	vmovups	112(%rsp), %ymm1
	vmovups	144(%rsp), %ymm2
	vmovups	160(%rsp), %ymm3
	vmovups	%ymm0, 104(%r12,%rbx)
	vmovups	%ymm1, 136(%r12,%rbx)
	vmovups	%ymm2, 168(%r12,%rbx)
	vmovups	%ymm3, 184(%r12,%rbx)
	movq	(%rsp), %rax
	incl	%eax
	movw	%ax, 10(%r12)
	jmp	LBB50_108
LBB50_57:
	movq	%rcx, 16(%rsp)
	movq	%rbx, 288(%rsp)
	vxorps	%xmm0, %xmm0, %xmm0
	vmovups	%ymm0, 196(%rsp)
	vmovups	%ymm0, 228(%rsp)
	vmovups	%ymm0, 252(%rsp)
	leaq	528(%rsp), %rdi
	movl	$1232, %esi
	vzeroupper
	callq	___bzero
	movl	$1336, %edi
	movl	$8, %esi
	callq	___rust_alloc
	testq	%rax, %rax
	je	LBB50_113
	movq	%rax, %rbx
	movq	$0, (%rax)
	movw	$0, 10(%rax)
	vmovups	192(%rsp), %ymm0
	vmovups	224(%rsp), %ymm1
	vmovups	%ymm0, 12(%rax)
	vmovups	252(%rsp), %ymm0
	vmovups	%ymm1, 44(%rax)
	vmovups	%ymm0, 72(%rax)
	leaq	104(%rax), %rdi
	movq	%rdi, (%rsp)
	leaq	528(%rsp), %rsi
	movl	$1232, %edx
	vzeroupper
	callq	_memcpy
	movq	64(%r12), %rax
	movq	%rax, 48(%rsp)
	vmovups	776(%r12), %ymm0
	vmovaps	%ymm0, 480(%rsp)
	vmovups	856(%r12), %ymm0
	vmovups	%ymm0, 576(%rsp)
	vmovups	840(%r12), %ymm0
	vmovups	%ymm0, 560(%rsp)
	vmovups	808(%r12), %ymm0
	vmovups	%ymm0, 528(%rsp)
	movzwl	10(%r12), %r14d
	leaq	72(%r12), %rsi
	leaq	16(%rbx), %rdi
	leaq	-56(,%r14,8), %rdx
	addq	$-7, %r14
	movq	%rdi, 24(%rsp)
	vzeroupper
	callq	_memcpy
	leaq	888(%r12), %rsi
	imulq	$112, %r14, %rdx
	movq	(%rsp), %rdi
	callq	_memcpy
	movw	$6, 10(%r12)
	movw	%r14w, 10(%rbx)
	vmovups	528(%rsp), %ymm0
	vmovups	576(%rsp), %ymm1
	vmovups	%ymm1, 240(%rsp)
	vmovups	560(%rsp), %ymm1
	vmovups	%ymm1, 224(%rsp)
	vmovups	%ymm0, 192(%rsp)
	cmpq	$6, %r13
	movq	%rbx, 32(%rsp)
	ja	LBB50_60
	leaq	10(%r12), %rax
	movq	%rax, 8(%rsp)
	leaq	104(%r12), %rcx
	movq	%rcx, (%rsp)
	movzwl	(%rax), %r14d
	movq	%r14, 24(%rsp)
	movq	16(%rsp), %rbx
	leaq	(%rbx,%r13,8), %rsi
	leaq	(%rbx,%r13,8), %rdi
	addq	$8, %rdi
	subq	%r13, %r14
	leaq	(,%r14,8), %rdx
	vzeroupper
	callq	_memmove
	movq	%r15, (%rbx,%r13,8)
	imulq	$112, %r13, %rbx
	movq	(%rsp), %r15
	leaq	(%r15,%rbx), %rsi
	leaq	(%r15,%rbx), %rdi
	addq	$112, %rdi
	imulq	$112, %r14, %rdx
	movq	24(%rsp), %r14
	callq	_memmove
	movq	8(%rsp), %rax
	vmovups	80(%rsp), %ymm0
	vmovups	112(%rsp), %ymm1
	vmovups	144(%rsp), %ymm2
	vmovups	160(%rsp), %ymm3
	movq	%r15, %rcx
	vmovups	%ymm0, (%r15,%rbx)
	vmovups	%ymm1, 32(%r15,%rbx)
	vmovups	%ymm2, 64(%r15,%rbx)
	vmovups	%ymm3, 80(%r15,%rbx)
	jmp	LBB50_61
LBB50_15:
	movl	$8, %edi
	jmp	LBB50_24
LBB50_60:
	addq	$10, %rbx
	movq	%rbx, 8(%rsp)
	leaq	-7(%r13), %rax
	movq	%rax, 16(%rsp)
	movzwl	%r14w, %edx
	movq	24(%rsp), %rbx
	leaq	(%rbx,%r13,8), %rsi
	addq	$-56, %rsi
	imulq	$112, %r13, %r14
	leaq	(%rbx,%r13,8), %rdi
	addq	$-48, %rdi
	subq	%rax, %rdx
	shlq	$3, %rdx
	vzeroupper
	callq	_memmove
	movq	%r15, -56(%rbx,%r13,8)
	movq	8(%rsp), %r15
	movzwl	(%r15), %eax
	movq	(%rsp), %rbx
	leaq	(%r14,%rbx), %rsi
	addq	$-784, %rsi
	leaq	(%r14,%rbx), %rdi
	addq	$-672, %rdi
	subq	16(%rsp), %rax
	imulq	$112, %rax, %rdx
	callq	_memmove
	movq	%r15, %rax
	vmovups	80(%rsp), %ymm0
	vmovups	144(%rsp), %ymm1
	vmovups	160(%rsp), %ymm2
	vmovups	%ymm2, -704(%r14,%rbx)
	vmovups	%ymm1, -720(%r14,%rbx)
	vmovups	112(%rsp), %ymm1
	vmovups	%ymm1, -752(%r14,%rbx)
	vmovups	%ymm0, -784(%r14,%rbx)
	movzwl	(%r15), %r14d
LBB50_61:
	incl	%r14d
	movw	%r14w, (%rax)
	vmovups	192(%rsp), %ymm0
	vmovups	224(%rsp), %ymm1
	vmovups	240(%rsp), %ymm2
	vmovups	%ymm2, 448(%rsp)
	vmovups	%ymm1, 432(%rsp)
	vmovups	%ymm0, 400(%rsp)
	movq	(%r12), %rax
	movq	%rax, (%rsp)
	testq	%rax, %rax
	je	LBB50_62
	movzwl	8(%r12), %eax
	vmovaps	480(%rsp), %ymm0
	vmovups	%ymm0, 80(%rsp)
	movw	%ax, 24(%rsp)
	movzwl	%ax, %edx
	vmovups	400(%rsp), %ymm0
	vmovups	432(%rsp), %ymm1
	vmovups	448(%rsp), %ymm2
	vmovups	%ymm2, 160(%rsp)
	vmovups	%ymm1, 144(%rsp)
	vmovups	%ymm0, 112(%rsp)
	movq	(%rsp), %rax
	movzwl	10(%rax), %r13d
	cmpw	$11, %r13w
	jae	LBB50_79
	movq	32(%rsp), %r12
	movq	48(%rsp), %rax
	movq	%rax, 56(%rsp)
	movq	(%rsp), %r14
	jmp	LBB50_70
LBB50_62:
	xorl	%r15d, %r15d
	movq	48(%rsp), %r12
	jmp	LBB50_63
LBB50_79:
	movq	(%rsp), %r14
	leaq	10(%r14), %rax
	movq	%rax, 16(%rsp)
	movl	$1, %eax
	leaq	528(%rsp), %rbx
LBB50_80:
	movq	%r14, 296(%rsp)
	movq	%rdx, 8(%rsp)
	movq	%rax, 72(%rsp)
	leaq	196(%rsp), %rax
	vxorps	%xmm0, %xmm0, %xmm0
	vmovups	%ymm0, 56(%rax)
	vmovups	%ymm0, 32(%rax)
	vmovups	%ymm0, (%rax)
	vmovups	192(%rsp), %ymm0
	vmovups	224(%rsp), %ymm1
	vmovups	252(%rsp), %ymm2
	vmovups	%ymm2, 364(%rsp)
	vmovups	%ymm1, 336(%rsp)
	vmovups	%ymm0, 304(%rsp)
	movl	$1328, %esi
	movq	%rbx, %rdi
	vzeroupper
	callq	___bzero
	movl	$1432, %edi
	movl	$8, %esi
	callq	___rust_alloc
	testq	%rax, %rax
	je	LBB50_64
	movq	%rax, %r12
	movq	$0, (%rax)
	movw	$0, 10(%rax)
	vmovups	304(%rsp), %ymm0
	vmovups	336(%rsp), %ymm1
	vmovups	%ymm0, 12(%rax)
	vmovups	364(%rsp), %ymm0
	vmovups	%ymm1, 44(%rax)
	vmovups	%ymm0, 72(%rax)
	leaq	104(%rax), %rdi
	movq	%rdi, 40(%rsp)
	movl	$1328, %edx
	movq	%rbx, %rsi
	vzeroupper
	callq	_memcpy
	movq	(%rsp), %r13
	movq	64(%r13), %rax
	movq	%rax, 56(%rsp)
	vmovups	776(%r13), %ymm0
	vmovaps	%ymm0, 480(%rsp)
	vmovups	808(%r13), %ymm0
	vmovups	840(%r13), %ymm1
	vmovups	856(%r13), %ymm2
	vmovups	%ymm2, 576(%rsp)
	vmovups	%ymm1, 560(%rsp)
	vmovups	%ymm0, 528(%rsp)
	movq	16(%rsp), %rax
	movzwl	(%rax), %r15d
	leaq	-6(%r15), %rbx
	leaq	-7(%r15), %r14
	leaq	72(%r13), %rsi
	leaq	16(%r12), %rdi
	leaq	-56(,%r15,8), %rdx
	movq	%rdi, 64(%rsp)
	vzeroupper
	callq	_memcpy
	leaq	888(%r13), %rsi
	imulq	$112, %r14, %rdx
	movq	40(%rsp), %rdi
	callq	_memcpy
	leaq	1392(%r13), %rsi
	movq	%r12, %r13
	addq	$1336, %r13
	leaq	-48(,%r15,8), %rdx
	movq	%r13, %rdi
	callq	_memcpy
	movq	16(%rsp), %rcx
	movw	$6, (%rcx)
	movw	%r14w, 10(%r12)
	testq	%rbx, %rbx
	movq	8(%rsp), %r8
	je	LBB50_88
	andl	$7, %ebx
	cmpq	$7, %r14
	jae	LBB50_84
	xorl	%eax, %eax
	testq	%rbx, %rbx
	jne	LBB50_87
	jmp	LBB50_88
LBB50_84:
	subq	%rbx, %r15
	addq	$-6, %r15
	xorl	%eax, %eax
	.p2align	4, 0x90
LBB50_85:
	movq	1336(%r12,%rax,8), %rdx
	movq	%r12, (%rdx)
	movl	%eax, %ecx
	movw	%ax, 8(%rdx)
	movq	1344(%r12,%rax,8), %rdx
	movq	%r12, (%rdx)
	leal	1(%rcx), %esi
	movw	%si, 8(%rdx)
	movq	1352(%r12,%rax,8), %rdx
	movq	%r12, (%rdx)
	leal	2(%rcx), %esi
	movw	%si, 8(%rdx)
	movq	1360(%r12,%rax,8), %rdx
	movq	%r12, (%rdx)
	leal	3(%rcx), %esi
	movw	%si, 8(%rdx)
	movq	1368(%r12,%rax,8), %rdx
	movq	%r12, (%rdx)
	leal	4(%rcx), %esi
	movw	%si, 8(%rdx)
	movq	1376(%r12,%rax,8), %rdx
	movq	%r12, (%rdx)
	leal	5(%rcx), %esi
	movw	%si, 8(%rdx)
	movq	1384(%r12,%rax,8), %rdx
	movq	%r12, (%rdx)
	leal	6(%rcx), %esi
	movw	%si, 8(%rdx)
	movq	1392(%r12,%rax,8), %rdx
	addq	$8, %rax
	movq	%r12, (%rdx)
	addl	$7, %ecx
	movw	%cx, 8(%rdx)
	cmpq	%rax, %r15
	jne	LBB50_85
	testq	%rbx, %rbx
	je	LBB50_88
	.p2align	4, 0x90
LBB50_87:
	movq	1336(%r12,%rax,8), %rcx
	movq	%r12, (%rcx)
	movw	%ax, 8(%rcx)
	incq	%rax
	decq	%rbx
	jne	LBB50_87
LBB50_88:
	vmovups	560(%rsp), %ymm0
	vmovups	576(%rsp), %ymm1
	vmovups	%ymm1, 240(%rsp)
	vmovups	%ymm0, 224(%rsp)
	vmovups	528(%rsp), %ymm0
	vmovups	%ymm0, 192(%rsp)
	vmovups	240(%rsp), %ymm1
	vmovups	%ymm1, 576(%rsp)
	vmovups	224(%rsp), %ymm1
	vmovups	%ymm1, 560(%rsp)
	vmovups	%ymm0, 528(%rsp)
	movzwl	24(%rsp), %eax
	cmpw	$6, %ax
	ja	LBB50_96
	movq	(%rsp), %rcx
	leaq	16(%rcx), %r13
	leaq	104(%rcx), %r14
	addq	$1336, %rcx
	movq	%rcx, 40(%rsp)
	movq	16(%rsp), %rcx
	movzwl	(%rcx), %r15d
	movq	%r15, 64(%rsp)
	leaq	(,%r8,8), %rsi
	addq	%r13, %rsi
	leaq	1(%r8), %rbx
	leaq	8(,%r8,8), %rdi
	addq	%r13, %rdi
	subq	%r8, %r15
	leaq	(,%r15,8), %rdx
	movw	%ax, 24(%rsp)
	vzeroupper
	callq	_memmove
	movq	8(%rsp), %rax
	movq	48(%rsp), %rcx
	movq	%rcx, (%r13,%rax,8)
	imulq	$112, 8(%rsp), %r13
	leaq	(%r14,%r13), %rsi
	leaq	(%r14,%r13), %rdi
	addq	$112, %rdi
	imulq	$112, %r15, %rdx
	callq	_memmove
	vmovups	80(%rsp), %ymm0
	vmovups	112(%rsp), %ymm1
	vmovups	144(%rsp), %ymm2
	vmovups	160(%rsp), %ymm3
	vmovups	%ymm0, (%r14,%r13)
	vmovups	%ymm1, 32(%r14,%r13)
	vmovups	%ymm2, 64(%r14,%r13)
	vmovups	%ymm3, 80(%r14,%r13)
	movq	64(%rsp), %rax
	leal	1(%rax), %r13d
	movq	16(%rsp), %rax
	movw	%r13w, (%rax)
	movzwl	%r13w, %r15d
	movq	8(%rsp), %rax
	movq	40(%rsp), %rcx
	leaq	8(%rcx,%rax,8), %rsi
	movq	8(%rsp), %rax
	leaq	(%rcx,%rax,8), %rdi
	addq	$16, %rdi
	movq	%rcx, %r14
	movq	%r15, %rdx
	subq	%rbx, %rdx
	shlq	$3, %rdx
	vzeroupper
	callq	_memmove
	movq	8(%rsp), %rdx
	movq	32(%rsp), %rax
	movq	%rax, 8(%r14,%rdx,8)
	cmpw	%r13w, 24(%rsp)
	movq	296(%rsp), %rsi
	jae	LBB50_101
	movl	%r15d, %r9d
	subl	%edx, %r9d
	movq	%rdx, %r8
	notq	%r8
	addq	%r15, %r8
	andq	$7, %r9
	je	LBB50_94
	movq	(%rsp), %rax
	leaq	(%rax,%rdx,8), %rcx
	addq	$1344, %rcx
	xorl	%edx, %edx
LBB50_92:
	leal	(%rbx,%rdx), %edi
	movq	(%rcx,%rdx,8), %rax
	movq	%rsi, (%rax)
	movw	%di, 8(%rax)
	incq	%rdx
	cmpq	%rdx, %r9
	jne	LBB50_92
	addq	%rdx, %rbx
LBB50_94:
	cmpq	$7, %r8
	jb	LBB50_101
LBB50_95:
	movq	(%rsp), %rdx
	movq	1336(%rdx,%rbx,8), %rax
	movq	%rsi, (%rax)
	movw	%bx, 8(%rax)
	movq	1344(%rdx,%rbx,8), %rax
	movq	%rsi, (%rax)
	leal	1(%rbx), %ecx
	movw	%cx, 8(%rax)
	movq	1352(%rdx,%rbx,8), %rax
	movq	%rsi, (%rax)
	leal	2(%rbx), %ecx
	movw	%cx, 8(%rax)
	movq	1360(%rdx,%rbx,8), %rax
	movq	%rsi, (%rax)
	leal	3(%rbx), %ecx
	movw	%cx, 8(%rax)
	movq	1368(%rdx,%rbx,8), %rax
	movq	%rsi, (%rax)
	leal	4(%rbx), %ecx
	movw	%cx, 8(%rax)
	movq	1376(%rdx,%rbx,8), %rax
	movq	%rsi, (%rax)
	leal	5(%rbx), %ecx
	movw	%cx, 8(%rax)
	movq	1384(%rdx,%rbx,8), %rax
	movq	%rsi, (%rax)
	leal	6(%rbx), %ecx
	movw	%cx, 8(%rax)
	movq	1392(%rdx,%rbx,8), %rax
	movq	%rsi, (%rax)
	leaq	7(%rbx), %rcx
	movw	%cx, 8(%rax)
	addq	$8, %rbx
	cmpq	%r15, %rcx
	jne	LBB50_95
	jmp	LBB50_101
LBB50_96:
	leaq	-7(%r8), %r14
	movzwl	10(%r12), %edx
	movq	64(%rsp), %rax
	leaq	(%rax,%r8,8), %rsi
	addq	$-56, %rsi
	leaq	-6(%r8), %rbx
	imulq	$112, %r8, %r15
	leaq	(%rax,%r8,8), %rdi
	addq	$-48, %rdi
	subq	%r14, %rdx
	shlq	$3, %rdx
	vzeroupper
	callq	_memmove
	movq	8(%rsp), %rax
	movq	48(%rsp), %rcx
	movq	%rcx, -40(%r12,%rax,8)
	movzwl	10(%r12), %eax
	movq	%r13, 16(%rsp)
	movq	40(%rsp), %r13
	leaq	(%r15,%r13), %rsi
	addq	$-784, %rsi
	leaq	(%r15,%r13), %rdi
	addq	$-672, %rdi
	subq	%r14, %rax
	imulq	$112, %rax, %rdx
	callq	_memmove
	vmovups	80(%rsp), %ymm0
	vmovups	112(%rsp), %ymm1
	vmovups	144(%rsp), %ymm2
	vmovups	160(%rsp), %ymm3
	vmovups	%ymm0, -784(%r15,%r13)
	vmovups	%ymm1, -752(%r15,%r13)
	vmovups	%ymm2, -720(%r15,%r13)
	vmovups	%ymm3, -704(%r15,%r13)
	movzwl	10(%r12), %eax
	incl	%eax
	movw	%ax, 10(%r12)
	movzwl	%ax, %r14d
	movq	8(%rsp), %rax
	movq	16(%rsp), %rcx
	leaq	-48(%rcx,%rax,8), %rsi
	movq	8(%rsp), %rax
	leaq	(%rcx,%rax,8), %rdi
	addq	$-40, %rdi
	movq	%r14, %rdx
	subq	%rbx, %rdx
	shlq	$3, %rdx
	vzeroupper
	callq	_memmove
	movq	8(%rsp), %rdx
	movq	32(%rsp), %rax
	movq	%rax, 1288(%r12,%rdx,8)
	cmpq	%rbx, %r14
	jb	LBB50_101
	movl	%edx, %ecx
	notl	%ecx
	addl	%r14d, %ecx
	movq	%r14, %rax
	subq	%rdx, %rax
	addq	$6, %rax
	andq	$7, %rcx
	je	LBB50_99
LBB50_98:
	movq	1336(%r12,%rbx,8), %rdx
	movq	%r12, (%rdx)
	movw	%bx, 8(%rdx)
	incq	%rbx
	decq	%rcx
	jne	LBB50_98
LBB50_99:
	cmpq	$7, %rax
	jb	LBB50_101
LBB50_100:
	movq	1336(%r12,%rbx,8), %rax
	movq	%r12, (%rax)
	movw	%bx, 8(%rax)
	movq	1344(%r12,%rbx,8), %rax
	movq	%r12, (%rax)
	leal	1(%rbx), %ecx
	movw	%cx, 8(%rax)
	movq	1352(%r12,%rbx,8), %rax
	movq	%r12, (%rax)
	leal	2(%rbx), %ecx
	movw	%cx, 8(%rax)
	movq	1360(%r12,%rbx,8), %rax
	movq	%r12, (%rax)
	leal	3(%rbx), %ecx
	movw	%cx, 8(%rax)
	movq	1368(%r12,%rbx,8), %rax
	movq	%r12, (%rax)
	leal	4(%rbx), %ecx
	movw	%cx, 8(%rax)
	movq	1376(%r12,%rbx,8), %rax
	movq	%r12, (%rax)
	leal	5(%rbx), %ecx
	movw	%cx, 8(%rax)
	movq	1384(%r12,%rbx,8), %rax
	movq	%r12, (%rax)
	leal	6(%rbx), %ecx
	movw	%cx, 8(%rax)
	movq	1392(%r12,%rbx,8), %rax
	movq	%r12, (%rax)
	leaq	7(%rbx), %rcx
	movw	%cx, 8(%rax)
	addq	$8, %rbx
	cmpq	%r14, %rcx
	jne	LBB50_100
LBB50_101:
	vmovups	528(%rsp), %ymm0
	vmovups	560(%rsp), %ymm1
	vmovups	576(%rsp), %ymm2
	vmovups	%ymm2, 448(%rsp)
	vmovups	%ymm1, 432(%rsp)
	vmovups	%ymm0, 400(%rsp)
	movq	(%rsp), %rax
	movq	(%rax), %r14
	testq	%r14, %r14
	je	LBB50_102
	movq	(%rsp), %rax
	movzwl	8(%rax), %eax
	movw	%ax, 24(%rsp)
	movzwl	%ax, %edx
	movq	72(%rsp), %rax
	incq	%rax
	vmovaps	480(%rsp), %ymm0
	vmovups	%ymm0, 80(%rsp)
	vmovups	432(%rsp), %ymm0
	vmovups	448(%rsp), %ymm1
	leaq	112(%rsp), %rcx
	vmovups	%ymm1, 48(%rcx)
	vmovups	%ymm0, 32(%rcx)
	vmovups	400(%rsp), %ymm0
	vmovups	%ymm0, (%rcx)
	leaq	10(%r14), %rcx
	movq	%rcx, 16(%rsp)
	movzwl	10(%r14), %r13d
	movq	%r14, (%rsp)
	movq	56(%rsp), %rcx
	movq	%rcx, 48(%rsp)
	movq	%r12, 32(%rsp)
	cmpw	$11, %r13w
	leaq	528(%rsp), %rbx
	jae	LBB50_80
	movq	%r14, (%rsp)
LBB50_70:
	movq	%rdx, 8(%rsp)
	movzwl	%r13w, %eax
	movq	%rax, 16(%rsp)
	leaq	(%r14,%rdx,8), %rsi
	addq	$16, %rsi
	leaq	1(%rdx), %r15
	leaq	(%r14,%rdx,8), %rdi
	addq	$24, %rdi
	subq	%rdx, %rax
	movq	%rax, 40(%rsp)
	leaq	(,%rax,8), %rdx
	vzeroupper
	callq	_memmove
	movq	56(%rsp), %rax
	movq	8(%rsp), %rcx
	movq	%rax, 16(%r14,%rcx,8)
	imulq	$112, 8(%rsp), %rbx
	leaq	(%r14,%rbx), %rsi
	addq	$104, %rsi
	leaq	(%r14,%rbx), %rdi
	addq	$216, %rdi
	imulq	$112, 40(%rsp), %rdx
	callq	_memmove
	vmovups	80(%rsp), %ymm0
	vmovups	112(%rsp), %ymm1
	vmovups	144(%rsp), %ymm2
	vmovups	160(%rsp), %ymm3
	vmovups	%ymm0, 104(%r14,%rbx)
	vmovups	%ymm1, 136(%r14,%rbx)
	vmovups	%ymm2, 168(%r14,%rbx)
	vmovups	%ymm3, 184(%r14,%rbx)
	leal	1(%r13), %eax
	movw	%ax, 10(%r14)
	movzwl	%ax, %r13d
	movq	8(%rsp), %rax
	leaq	1344(%r14,%rax,8), %rsi
	movq	8(%rsp), %rax
	leaq	(%r14,%rax,8), %rdi
	addq	$1352, %rdi
	movq	%r13, %rdx
	subq	%r15, %rdx
	shlq	$3, %rdx
	vzeroupper
	callq	_memmove
	movq	8(%rsp), %rbx
	movq	%r12, 1344(%r14,%rbx,8)
	movq	16(%rsp), %rax
	cmpw	%ax, 24(%rsp)
	ja	LBB50_108
	movq	(%rsp), %rax
	movq	%rax, (%r12)
	movw	%r15w, 8(%r12)
	cmpq	%r13, %r15
	je	LBB50_108
	movq	%r14, %r8
	movl	%ebx, %eax
	notl	%eax
	leal	(%rax,%r13), %ecx
	movq	%r13, %rax
	subq	%rbx, %rax
	addq	$-2, %rax
	andq	$7, %rcx
	je	LBB50_76
	addq	$169, %rbx
	negq	%rcx
	xorl	%edx, %edx
LBB50_74:
	movq	(%r8,%rbx,8), %rsi
	movq	(%rsp), %rdi
	movq	%rdi, (%rsi)
	leal	-167(%rbx), %edi
	movw	%di, 8(%rsi)
	decq	%rdx
	incq	%rbx
	cmpq	%rdx, %rcx
	jne	LBB50_74
	subq	%rdx, %r15
LBB50_76:
	cmpq	$7, %rax
	jb	LBB50_108
	movq	(%rsp), %rdx
LBB50_78:
	movq	1344(%r8,%r15,8), %rax
	movq	%rdx, (%rax)
	leal	1(%r15), %ecx
	movw	%cx, 8(%rax)
	movq	1352(%r8,%r15,8), %rax
	movq	%rdx, (%rax)
	leal	2(%r15), %ecx
	movw	%cx, 8(%rax)
	movq	1360(%r8,%r15,8), %rax
	movq	%rdx, (%rax)
	leal	3(%r15), %ecx
	movw	%cx, 8(%rax)
	movq	1368(%r8,%r15,8), %rax
	movq	%rdx, (%rax)
	leal	4(%r15), %ecx
	movw	%cx, 8(%rax)
	movq	1376(%r8,%r15,8), %rax
	movq	%rdx, (%rax)
	leal	5(%r15), %ecx
	movw	%cx, 8(%rax)
	movq	1384(%r8,%r15,8), %rax
	movq	%rdx, (%rax)
	leal	6(%r15), %ecx
	movw	%cx, 8(%rax)
	movq	1392(%r8,%r15,8), %rax
	movq	%rdx, (%rax)
	leal	7(%r15), %ecx
	movw	%cx, 8(%rax)
	movq	1400(%r8,%r15,8), %rax
	addq	$8, %r15
	movq	%rdx, (%rax)
	movw	%r15w, 8(%rax)
	cmpq	%r15, %r13
	jne	LBB50_78
	jmp	LBB50_108
LBB50_102:
	movq	%r12, 32(%rsp)
	movq	56(%rsp), %r12
	movq	72(%rsp), %r15
LBB50_63:
	vxorps	%xmm0, %xmm0, %xmm0
	leaq	196(%rsp), %rax
	vmovups	%ymm0, 56(%rax)
	vmovups	%ymm0, 32(%rax)
	vmovups	%ymm0, (%rax)
	vmovups	192(%rsp), %ymm0
	vmovups	224(%rsp), %ymm1
	vmovups	252(%rsp), %ymm2
	vmovups	%ymm2, 364(%rsp)
	vmovups	%ymm1, 336(%rsp)
	vmovups	%ymm0, 304(%rsp)
	leaq	528(%rsp), %rdi
	movl	$1328, %esi
	vzeroupper
	callq	___bzero
	movl	$1432, %edi
	movl	$8, %esi
	callq	___rust_alloc
	testq	%rax, %rax
	je	LBB50_64
	movq	%rax, %rbx
	movq	$0, (%rax)
	movw	$0, 10(%rax)
	vmovups	304(%rsp), %ymm0
	vmovups	336(%rsp), %ymm1
	vmovups	%ymm0, 12(%rax)
	vmovups	364(%rsp), %ymm0
	vmovups	%ymm1, 44(%rax)
	vmovups	%ymm0, 72(%rax)
	movq	%rax, %r14
	addq	$104, %r14
	leaq	528(%rsp), %rsi
	movl	$1328, %edx
	movq	%r14, %rdi
	vzeroupper
	callq	_memcpy
	movq	288(%rsp), %rsi
	movq	24(%rsi), %rax
	movq	%rax, 1336(%rbx)
	movq	%rbx, 24(%rsi)
	movq	32(%rsi), %rcx
	leaq	1(%rcx), %rdx
	movq	%rdx, 32(%rsi)
	movq	%rbx, (%rax)
	movw	$0, 8(%rax)
	vmovaps	480(%rsp), %ymm0
	vmovups	%ymm0, 528(%rsp)
	vmovups	400(%rsp), %ymm0
	vmovups	432(%rsp), %ymm1
	vmovups	%ymm0, 560(%rsp)
	vmovups	448(%rsp), %ymm0
	vmovups	%ymm1, 592(%rsp)
	vmovups	%ymm0, 608(%rsp)
	cmpq	%r15, %rcx
	jne	LBB50_104
	movzwl	10(%rbx), %eax
	cmpq	$11, %rax
	jae	LBB50_106
	movq	%r12, 16(%rbx,%rax,8)
	imulq	$112, %rax, %rcx
	vmovups	528(%rsp), %ymm0
	vmovups	592(%rsp), %ymm1
	vmovups	608(%rsp), %ymm2
	vmovups	%ymm2, 80(%r14,%rcx)
	vmovups	%ymm1, 64(%r14,%rcx)
	vmovups	560(%rsp), %ymm1
	vmovups	%ymm1, 32(%r14,%rcx)
	vmovups	%ymm0, (%r14,%rcx)
	leaq	1(%rax), %rcx
	movq	32(%rsp), %rdx
	movq	%rdx, 1344(%rbx,%rax,8)
	leal	1(%rax), %edx
	movw	%dx, 10(%rbx)
	movq	1344(%rbx,%rax,8), %rax
	movq	%rbx, (%rax)
	movw	%cx, 8(%rax)
	jmp	LBB50_108
LBB50_112:
Ltmp8:
	leaq	_str.5(%rip), %rdi
	leaq	l___unnamed_83(%rip), %rdx
	movl	$33, %esi
	callq	__ZN4core9panicking5panic17h736ee47a631475c0E
Ltmp9:
LBB50_26:
	ud2
LBB50_25:
Ltmp5:
	vzeroupper
	callq	__ZN5alloc7raw_vec17capacity_overflow17h023f34f5bc34c61fE
Ltmp6:
	jmp	LBB50_26
LBB50_113:
	movl	$1336, %edi
	movl	$8, %esi
	callq	__ZN5alloc5alloc18handle_alloc_error17hbc0ab0ed90816c07E
LBB50_27:
	movl	$8, %esi
	movq	%r14, %rdi
	vzeroupper
	callq	__ZN5alloc5alloc18handle_alloc_error17hbc0ab0ed90816c07E
LBB50_64:
	movl	$1432, %edi
	movl	$8, %esi
	callq	__ZN5alloc5alloc18handle_alloc_error17hbc0ab0ed90816c07E
LBB50_104:
Ltmp0:
	leaq	l___unnamed_84(%rip), %rdi
	leaq	l___unnamed_85(%rip), %rdx
	movl	$48, %esi
	vzeroupper
	callq	__ZN4core9panicking5panic17h736ee47a631475c0E
Ltmp1:
	jmp	LBB50_26
LBB50_106:
Ltmp2:
	leaq	l___unnamed_86(%rip), %rdi
	leaq	l___unnamed_85(%rip), %rdx
	movl	$39, %esi
	vzeroupper
	callq	__ZN4core9panicking5panic17h736ee47a631475c0E
Ltmp3:
	jmp	LBB50_26
LBB50_114:
Ltmp4:
	jmp	LBB50_29
LBB50_28:
Ltmp7:
LBB50_29:
	movq	%rax, %rbx
	leaq	528(%rsp), %rdi
	callq	__ZN4core3ptr13drop_in_place17h157d81ce2268cf1fE
	movq	%rbx, %rdi
	callq	__Unwind_Resume
	ud2
LBB50_110:
Ltmp10:
	movq	%rax, %rbx
	movq	%r14, %rdi
	callq	__ZN4core3ptr13drop_in_place17h157d81ce2268cf1fE
	movq	%rbx, %rdi
	callq	__Unwind_Resume
	ud2
Lfunc_end0:
	.cfi_endproc
	.section	__TEXT,__gcc_except_tab
	.p2align	2
GCC_except_table50:
Lexception0:
	.byte	255
	.byte	255
	.byte	1
	.uleb128 Lcst_end0-Lcst_begin0
Lcst_begin0:
	.uleb128 Lfunc_begin0-Lfunc_begin0
	.uleb128 Ltmp8-Lfunc_begin0
	.byte	0
	.byte	0
	.uleb128 Ltmp8-Lfunc_begin0
	.uleb128 Ltmp9-Ltmp8
	.uleb128 Ltmp10-Lfunc_begin0
	.byte	0
	.uleb128 Ltmp5-Lfunc_begin0
	.uleb128 Ltmp6-Ltmp5
	.uleb128 Ltmp7-Lfunc_begin0
	.byte	0
	.uleb128 Ltmp0-Lfunc_begin0
	.uleb128 Ltmp3-Ltmp0
	.uleb128 Ltmp4-Lfunc_begin0
	.byte	0
	.uleb128 Ltmp3-Lfunc_begin0
	.uleb128 Lfunc_end0-Ltmp3
	.byte	0
	.byte	0
Lcst_end0:
	.p2align	2

	.section	__TEXT,__text,regular,pure_instructions
	.globl	__ZN5gimli4read6abbrev12Abbreviation3new17h63239a18d1819e64E
	.p2align	4, 0x90
__ZN5gimli4read6abbrev12Abbreviation3new17h63239a18d1819e64E:
Lfunc_begin1:
	.cfi_startproc
	.cfi_personality 155, _rust_eh_personality
	.cfi_lsda 16, Lexception1
	pushq	%rbp
	.cfi_def_cfa_offset 16
	.cfi_offset %rbp, -16
	movq	%rsp, %rbp
	.cfi_def_cfa_register %rbp
	pushq	%r14
	pushq	%rbx
	subq	$112, %rsp
	.cfi_offset %rbx, -32
	.cfi_offset %r14, -24
	movq	%r8, %rbx
	movq	%rsi, -24(%rbp)
	testq	%rsi, %rsi
	je	LBB51_1
	movq	%rdi, %rax
	movq	%rsi, (%rdi)
	movw	%dx, 104(%rdi)
	movb	%cl, 106(%rdi)
	vmovups	(%rbx), %ymm0
	vmovups	32(%rbx), %ymm1
	vmovups	64(%rbx), %ymm2
	vmovups	%ymm0, 8(%rdi)
	vmovups	%ymm1, 40(%rdi)
	vmovups	%ymm2, 72(%rdi)
	addq	$112, %rsp
	popq	%rbx
	popq	%r14
	popq	%rbp
	vzeroupper
	retq
LBB51_1:
	leaq	-24(%rbp), %rax
	movq	%rax, -32(%rbp)
	leaq	L___unnamed_87(%rip), %rax
	movq	%rax, -40(%rbp)
	leaq	-32(%rbp), %rax
	movq	%rax, -72(%rbp)
	leaq	__ZN42_$LT$$RF$T$u20$as$u20$core..fmt..Debug$GT$3fmt17h35f83656dfa2ca2fE(%rip), %rax
	movq	%rax, -64(%rbp)
	leaq	-40(%rbp), %rcx
	movq	%rcx, -56(%rbp)
	movq	%rax, -48(%rbp)
	leaq	l___unnamed_88(%rip), %rax
	movq	%rax, -120(%rbp)
	movq	$3, -112(%rbp)
	movq	$0, -104(%rbp)
	leaq	-72(%rbp), %rax
	movq	%rax, -88(%rbp)
	movq	$2, -80(%rbp)
Ltmp11:
	leaq	l___unnamed_89(%rip), %rsi
	leaq	-120(%rbp), %rdi
	callq	__ZN4core9panicking9panic_fmt17hab6ef1464e9720aaE
Ltmp12:
	ud2
LBB51_2:
Ltmp13:
	movq	%rax, %r14
	movq	%rbx, %rdi
	callq	__ZN4core3ptr13drop_in_place17h48813f7099eb3c1eE
	movq	%r14, %rdi
	callq	__Unwind_Resume
	ud2
Lfunc_end1:
	.cfi_endproc
	.section	__TEXT,__gcc_except_tab
	.p2align	2
GCC_except_table51:
Lexception1:
	.byte	255
	.byte	255
	.byte	1
	.uleb128 Lcst_end1-Lcst_begin1
Lcst_begin1:
	.uleb128 Ltmp11-Lfunc_begin1
	.uleb128 Ltmp12-Ltmp11
	.uleb128 Ltmp13-Lfunc_begin1
	.byte	0
	.uleb128 Ltmp12-Lfunc_begin1
	.uleb128 Lfunc_end1-Ltmp12
	.byte	0
	.byte	0
Lcst_end1:
	.p2align	2

	.section	__TEXT,__text,regular,pure_instructions
	.globl	__ZN5gimli4read6abbrev10Attributes3new17h163536ee5db00585E
	.p2align	4, 0x90
__ZN5gimli4read6abbrev10Attributes3new17h163536ee5db00585E:
	.cfi_startproc
	pushq	%rbp
	.cfi_def_cfa_offset 16
	.cfi_offset %rbp, -16
	movq	%rsp, %rbp
	.cfi_def_cfa_register %rbp
	subq	$80, %rsp
	movq	%rdi, %rax
	movq	$0, -80(%rbp)
	movl	$0, -72(%rbp)
	movq	$0, -64(%rbp)
	movl	$0, -56(%rbp)
	movq	$0, -48(%rbp)
	movl	$0, -40(%rbp)
	movq	$0, -32(%rbp)
	movl	$0, -24(%rbp)
	movq	$0, -16(%rbp)
	movl	$0, -8(%rbp)
	movq	-32(%rbp), %rcx
	movq	%rcx, 56(%rdi)
	movl	-24(%rbp), %ecx
	movl	%ecx, 64(%rdi)
	movl	-20(%rbp), %ecx
	movl	%ecx, 68(%rdi)
	movq	-16(%rbp), %rcx
	movq	%rcx, 72(%rdi)
	movl	-8(%rbp), %ecx
	movl	%ecx, 80(%rdi)
	movl	-4(%rbp), %ecx
	movl	%ecx, 84(%rdi)
	movq	-48(%rbp), %rcx
	movq	%rcx, 40(%rdi)
	movl	-40(%rbp), %ecx
	movl	%ecx, 48(%rdi)
	movl	-36(%rbp), %ecx
	movl	%ecx, 52(%rdi)
	movq	-32(%rbp), %rcx
	movq	%rcx, 56(%rdi)
	movl	-24(%rbp), %ecx
	movl	%ecx, 64(%rdi)
	movl	-20(%rbp), %ecx
	movl	%ecx, 68(%rdi)
	vmovups	-80(%rbp), %ymm0
	vmovups	%ymm0, 8(%rdi)
	movq	$0, 88(%rdi)
	movq	$0, (%rdi)
	addq	$80, %rsp
	popq	%rbp
	vzeroupper
	retq
	.cfi_endproc

	.globl	__ZN5gimli4read6abbrev10Attributes4push17h853b2a6633de3ba4E
	.p2align	4, 0x90
__ZN5gimli4read6abbrev10Attributes4push17h853b2a6633de3ba4E:
Lfunc_begin2:
	.cfi_startproc
	.cfi_personality 155, _rust_eh_personality
	.cfi_lsda 16, Lexception2
	pushq	%rbp
	.cfi_def_cfa_offset 16
	.cfi_offset %rbp, -16
	movq	%rsp, %rbp
	.cfi_def_cfa_register %rbp
	pushq	%r15
	pushq	%r14
	pushq	%rbx
	subq	$120, %rsp
	.cfi_offset %rbx, -40
	.cfi_offset %r14, -32
	.cfi_offset %r15, -24
	movq	%rsi, %r14
	movq	%rdi, %rbx
	cmpq	$1, (%rdi)
	jne	LBB53_1
	vmovups	(%r14), %xmm0
	vmovaps	%xmm0, -112(%rbp)
	movq	24(%rbx), %rax
	cmpq	16(%rbx), %rax
	jne	LBB53_8
	leaq	8(%rbx), %rdi
	movl	$1, %esi
	callq	__ZN5alloc3vec12Vec$LT$T$GT$7reserve17hd8884bf1bf818f84E
	movq	24(%rbx), %rax
LBB53_8:
	movq	8(%rbx), %rcx
	shlq	$4, %rax
	vmovaps	-112(%rbp), %xmm0
	vmovups	%xmm0, (%rcx,%rax)
	incq	24(%rbx)
	jmp	LBB53_5
LBB53_1:
	leaq	8(%rbx), %r15
	movq	88(%rbx), %rdi
	cmpq	$5, %rdi
	jne	LBB53_2
	movl	$80, %edi
	movl	$8, %esi
	callq	___rust_alloc
	testq	%rax, %rax
	je	LBB53_24
	movq	%rax, -112(%rbp)
	movl	$5, %eax
	vmovq	%rax, %xmm0
	vmovdqu	%xmm0, -104(%rbp)
Ltmp14:
	leaq	-112(%rbp), %rdi
	movl	$5, %esi
	callq	__ZN5alloc3vec12Vec$LT$T$GT$7reserve17hd8884bf1bf818f84E
Ltmp15:
	movq	-112(%rbp), %rcx
	movq	-96(%rbp), %rax
	movq	%rax, %rdx
	shlq	$4, %rdx
	vmovups	(%r15), %ymm0
	vmovups	32(%r15), %ymm1
	vmovups	48(%r15), %ymm2
	vmovups	%ymm2, 48(%rcx,%rdx)
	vmovups	%ymm1, 32(%rcx,%rdx)
	vmovups	%ymm0, (%rcx,%rdx)
	addq	$5, %rax
	vmovups	-112(%rbp), %xmm0
	vmovaps	%xmm0, -48(%rbp)
	movq	%rax, -32(%rbp)
	vmovups	(%r14), %xmm0
	vmovaps	%xmm0, -112(%rbp)
	cmpq	-40(%rbp), %rax
	jne	LBB53_14
Ltmp17:
	leaq	-48(%rbp), %rdi
	movl	$1, %esi
	vzeroupper
	callq	__ZN5alloc3vec12Vec$LT$T$GT$7reserve17hd8884bf1bf818f84E
Ltmp18:
	movq	-32(%rbp), %rax
LBB53_14:
	movq	-48(%rbp), %rcx
	movq	%rax, %rdx
	shlq	$4, %rdx
	vmovaps	-112(%rbp), %xmm0
	vmovups	%xmm0, (%rcx,%rdx)
	incq	%rax
	movq	%rax, -32(%rbp)
	movq	%rax, -128(%rbp)
	vmovaps	-48(%rbp), %xmm0
	vmovaps	%xmm0, -144(%rbp)
	cmpq	$0, (%rbx)
	je	LBB53_19
	movq	16(%rbx), %rsi
	testq	%rsi, %rsi
	je	LBB53_19
	movq	8(%rbx), %rdi
	testq	%rdi, %rdi
	je	LBB53_19
	shlq	$4, %rsi
	je	LBB53_19
	movl	$8, %edx
	vzeroupper
	callq	___rust_dealloc
LBB53_19:
	movq	$1, (%rbx)
	movq	-128(%rbp), %rax
	movq	%rax, 16(%r15)
	vmovaps	-144(%rbp), %xmm0
	vmovups	%xmm0, (%r15)
	vmovups	-112(%rbp), %ymm0
	vmovups	-80(%rbp), %ymm1
	vmovups	%ymm1, 64(%rbx)
	vmovups	%ymm0, 32(%rbx)
	jmp	LBB53_5
LBB53_2:
	vmovups	(%r14), %xmm0
	vmovaps	%xmm0, -112(%rbp)
	jae	LBB53_20
	shlq	$4, %rdi
	vmovaps	-112(%rbp), %xmm0
	vmovups	%xmm0, (%r15,%rdi)
	movq	88(%rbx), %rax
	incq	%rax
	je	LBB53_21
	movq	%rax, 88(%rbx)
LBB53_5:
	addq	$120, %rsp
	popq	%rbx
	popq	%r14
	popq	%r15
	popq	%rbp
	vzeroupper
	retq
LBB53_24:
	movl	$80, %edi
	movl	$8, %esi
	callq	__ZN5alloc7raw_vec19RawVec$LT$T$C$A$GT$11allocate_in28_$u7b$$u7b$closure$u7d$$u7d$17h04a27b9e984168cdE
LBB53_20:
	leaq	l___unnamed_90(%rip), %rdx
	movl	$5, %esi
	callq	__ZN4core9panicking18panic_bounds_check17habe69d236c55e3edE
LBB53_21:
	leaq	_str.4(%rip), %rdi
	leaq	l___unnamed_91(%rip), %rdx
	movl	$28, %esi
	callq	__ZN4core9panicking5panic17h736ee47a631475c0E
LBB53_25:
Ltmp19:
	movq	%rax, %rbx
	leaq	-48(%rbp), %rdi
	callq	__ZN4core3ptr13drop_in_place17hb8d13ca126c402d8E
	movq	%rbx, %rdi
	callq	__Unwind_Resume
	ud2
LBB53_22:
Ltmp16:
	movq	%rax, %rbx
	leaq	-112(%rbp), %rdi
	callq	__ZN4core3ptr13drop_in_place17hb8d13ca126c402d8E
	movq	%rbx, %rdi
	callq	__Unwind_Resume
	ud2
Lfunc_end2:
	.cfi_endproc
	.section	__TEXT,__gcc_except_tab
	.p2align	2
GCC_except_table53:
Lexception2:
	.byte	255
	.byte	255
	.byte	1
	.uleb128 Lcst_end2-Lcst_begin2
Lcst_begin2:
	.uleb128 Lfunc_begin2-Lfunc_begin2
	.uleb128 Ltmp14-Lfunc_begin2
	.byte	0
	.byte	0
	.uleb128 Ltmp14-Lfunc_begin2
	.uleb128 Ltmp15-Ltmp14
	.uleb128 Ltmp16-Lfunc_begin2
	.byte	0
	.uleb128 Ltmp17-Lfunc_begin2
	.uleb128 Ltmp18-Ltmp17
	.uleb128 Ltmp19-Lfunc_begin2
	.byte	0
	.uleb128 Ltmp18-Lfunc_begin2
	.uleb128 Lfunc_end2-Ltmp18
	.byte	0
	.byte	0
Lcst_end2:
	.p2align	2

	.section	__TEXT,__text,regular,pure_instructions
	.globl	__ZN68_$LT$gimli..read..abbrev..Attributes$u20$as$u20$core..fmt..Debug$GT$3fmt17hed8294168e0cac98E
	.p2align	4, 0x90
__ZN68_$LT$gimli..read..abbrev..Attributes$u20$as$u20$core..fmt..Debug$GT$3fmt17hed8294168e0cac98E:
	.cfi_startproc
	pushq	%rbp
	.cfi_def_cfa_offset 16
	.cfi_offset %rbp, -16
	movq	%rsp, %rbp
	.cfi_def_cfa_register %rbp
	pushq	%r15
	pushq	%r14
	pushq	%r13
	pushq	%r12
	pushq	%rbx
	subq	$24, %rsp
	.cfi_offset %rbx, -56
	.cfi_offset %r12, -48
	.cfi_offset %r13, -40
	.cfi_offset %r14, -32
	.cfi_offset %r15, -24
	cmpq	$1, (%rdi)
	jne	LBB54_2
	movq	8(%rdi), %rbx
	movq	24(%rdi), %r13
	leaq	-64(%rbp), %rdi
	callq	__ZN4core3fmt9Formatter10debug_list17hd054f0986422feb9E
	testq	%r13, %r13
	jne	LBB54_5
	jmp	LBB54_7
LBB54_2:
	movq	88(%rdi), %r13
	cmpq	$6, %r13
	jae	LBB54_8
	addq	$8, %rdi
	movq	%rdi, %rbx
	leaq	-64(%rbp), %rdi
	callq	__ZN4core3fmt9Formatter10debug_list17hd054f0986422feb9E
	testq	%r13, %r13
	je	LBB54_7
LBB54_5:
	shlq	$4, %r13
	leaq	l___unnamed_16(%rip), %r14
	leaq	-64(%rbp), %r15
	leaq	-48(%rbp), %r12
	.p2align	4, 0x90
LBB54_6:
	movq	%rbx, -48(%rbp)
	addq	$16, %rbx
	movq	%r15, %rdi
	movq	%r12, %rsi
	movq	%r14, %rdx
	callq	__ZN4core3fmt8builders9DebugList5entry17h5c0dec54538196dfE
	addq	$-16, %r13
	jne	LBB54_6
LBB54_7:
	leaq	-64(%rbp), %rdi
	callq	__ZN4core3fmt8builders9DebugList6finish17h3635bd6af9b1c5a6E
	addq	$24, %rsp
	popq	%rbx
	popq	%r12
	popq	%r13
	popq	%r14
	popq	%r15
	popq	%rbp
	retq
LBB54_8:
	leaq	l___unnamed_17(%rip), %rdx
	movl	$5, %esi
	movq	%r13, %rdi
	callq	__ZN4core5slice20slice_index_len_fail17h550a313151a85135E
	.cfi_endproc

	.globl	__ZN72_$LT$gimli..read..abbrev..Attributes$u20$as$u20$core..cmp..PartialEq$GT$2eq17he392af2f29e16625E
	.p2align	4, 0x90
__ZN72_$LT$gimli..read..abbrev..Attributes$u20$as$u20$core..cmp..PartialEq$GT$2eq17he392af2f29e16625E:
	.cfi_startproc
	pushq	%rbp
	.cfi_def_cfa_offset 16
	.cfi_offset %rbp, -16
	movq	%rsp, %rbp
	.cfi_def_cfa_register %rbp
	movq	%rdi, %rax
	cmpq	$1, (%rdi)
	jne	LBB55_2
	movq	8(%rax), %r8
	movq	24(%rax), %rdi
	cmpq	$1, (%rsi)
	jne	LBB55_6
LBB55_5:
	movq	8(%rsi), %rdx
	movq	24(%rsi), %rax
	cmpq	%rax, %rdi
	jne	LBB55_15
LBB55_9:
	movb	$1, %al
	cmpq	%rdx, %r8
	je	LBB55_16
	incq	%rdi
	movl	$10, %esi
	.p2align	4, 0x90
LBB55_11:
	decq	%rdi
	je	LBB55_16
	movzwl	-2(%r8,%rsi), %ecx
	cmpw	-2(%rdx,%rsi), %cx
	jne	LBB55_15
	movzwl	(%r8,%rsi), %ecx
	cmpw	(%rdx,%rsi), %cx
	jne	LBB55_15
	movq	-10(%r8,%rsi), %rcx
	cmpq	-10(%rdx,%rsi), %rcx
	leaq	16(%rsi), %rsi
	je	LBB55_11
	jmp	LBB55_15
LBB55_2:
	movq	88(%rax), %rdi
	cmpq	$6, %rdi
	jae	LBB55_17
	addq	$8, %rax
	movq	%rax, %r8
	cmpq	$1, (%rsi)
	je	LBB55_5
LBB55_6:
	movq	88(%rsi), %rax
	cmpq	$6, %rax
	jae	LBB55_18
	addq	$8, %rsi
	movq	%rsi, %rdx
	cmpq	%rax, %rdi
	je	LBB55_9
LBB55_15:
	xorl	%eax, %eax
LBB55_16:
	popq	%rbp
	retq
LBB55_17:
	leaq	l___unnamed_17(%rip), %rdx
	movl	$5, %esi
	callq	__ZN4core5slice20slice_index_len_fail17h550a313151a85135E
LBB55_18:
	leaq	l___unnamed_17(%rip), %rdx
	movl	$5, %esi
	movq	%rax, %rdi
	callq	__ZN4core5slice20slice_index_len_fail17h550a313151a85135E
	.cfi_endproc

	.globl	__ZN75_$LT$gimli..read..abbrev..Attributes$u20$as$u20$core..ops..deref..Deref$GT$5deref17h87ac59a322ae2e81E
	.p2align	4, 0x90
__ZN75_$LT$gimli..read..abbrev..Attributes$u20$as$u20$core..ops..deref..Deref$GT$5deref17h87ac59a322ae2e81E:
	.cfi_startproc
	pushq	%rbp
	.cfi_def_cfa_offset 16
	.cfi_offset %rbp, -16
	movq	%rsp, %rbp
	.cfi_def_cfa_register %rbp
	cmpq	$1, (%rdi)
	jne	LBB56_2
	movq	8(%rdi), %rax
	movq	24(%rdi), %rdx
	popq	%rbp
	retq
LBB56_2:
	movq	88(%rdi), %rdx
	cmpq	$6, %rdx
	jae	LBB56_5
	addq	$8, %rdi
	movq	%rdi, %rax
	popq	%rbp
	retq
LBB56_5:
	leaq	l___unnamed_17(%rip), %rax
	movl	$5, %esi
	movq	%rdx, %rdi
	movq	%rax, %rdx
	callq	__ZN4core5slice20slice_index_len_fail17h550a313151a85135E
	.cfi_endproc

	.globl	__ZN145_$LT$gimli..read..abbrev..Attributes$u20$as$u20$core..convert..From$LT$alloc..vec..Vec$LT$gimli..read..abbrev..AttributeSpecification$GT$$GT$$GT$4from17hae20d58fac691729E
	.p2align	4, 0x90
__ZN145_$LT$gimli..read..abbrev..Attributes$u20$as$u20$core..convert..From$LT$alloc..vec..Vec$LT$gimli..read..abbrev..AttributeSpecification$GT$$GT$$GT$4from17hae20d58fac691729E:
	.cfi_startproc
	pushq	%rbp
	.cfi_def_cfa_offset 16
	.cfi_offset %rbp, -16
	movq	%rsp, %rbp
	.cfi_def_cfa_register %rbp
	movq	%rdi, %rax
	movq	16(%rsi), %rcx
	movq	%rcx, 24(%rdi)
	vmovups	(%rsi), %xmm0
	vmovups	%xmm0, 8(%rdi)
	movq	$1, (%rdi)
	popq	%rbp
	retq
	.cfi_endproc

	.globl	__ZN5gimli4read4line7LineRow18apply_line_advance17h5b3e05dc2753201bE
	.p2align	4, 0x90
__ZN5gimli4read4line7LineRow18apply_line_advance17h5b3e05dc2753201bE:
	.cfi_startproc
	pushq	%rbp
	.cfi_def_cfa_offset 16
	.cfi_offset %rbp, -16
	movq	%rsp, %rbp
	.cfi_def_cfa_register %rbp
	testq	%rsi, %rsi
	js	LBB58_2
	addq	%rsi, 24(%rdi)
	popq	%rbp
	retq
LBB58_2:
	movabsq	$-9223372036854775808, %rax
	cmpq	%rax, %rsi
	je	LBB58_8
	negq	%rsi
	movq	24(%rdi), %rax
	subq	%rsi, %rax
	jae	LBB58_5
	movq	$0, 24(%rdi)
	popq	%rbp
	retq
LBB58_5:
	jb	LBB58_9
	movq	%rax, 24(%rdi)
	popq	%rbp
	retq
LBB58_8:
	leaq	_str.6(%rip), %rdi
	leaq	l___unnamed_92(%rip), %rdx
	movl	$31, %esi
	callq	__ZN4core9panicking5panic17h736ee47a631475c0E
LBB58_9:
	leaq	_str.5(%rip), %rdi
	leaq	l___unnamed_93(%rip), %rdx
	movl	$33, %esi
	callq	__ZN4core9panicking5panic17h736ee47a631475c0E
	.cfi_endproc

	.globl	__ZN80_$LT$gimli..read..loclists..LocListsHeader$u20$as$u20$core..default..Default$GT$7default17h31b86c0663af68fbE
	.p2align	4, 0x90
__ZN80_$LT$gimli..read..loclists..LocListsHeader$u20$as$u20$core..default..Default$GT$7default17h31b86c0663af68fbE:
	.cfi_startproc
	pushq	%rbp
	.cfi_def_cfa_offset 16
	.cfi_offset %rbp, -16
	movq	%rsp, %rbp
	.cfi_def_cfa_register %rbp
	movabsq	$1411772930064384, %rax
	popq	%rbp
	retq
	.cfi_endproc

	.globl	__ZN5gimli4read4unit20allow_section_offset17h288d6d4f703cea9eE
	.p2align	4, 0x90
__ZN5gimli4read4unit20allow_section_offset17h288d6d4f703cea9eE:
	.cfi_startproc
	xorl	%eax, %eax
	addl	$-2, %edi
	cmpw	$119, %di
	ja	LBB60_4
	pushq	%rbp
	.cfi_def_cfa_offset 16
	.cfi_offset %rbp, -16
	movq	%rsp, %rbp
	.cfi_def_cfa_register %rbp
	movzwl	%di, %ecx
	leaq	LJTI60_0(%rip), %rdx
	movslq	(%rdx,%rcx,4), %rcx
	addq	%rdx, %rcx
	popq	%rbp
	jmpq	*%rcx
LBB60_2:
	movb	$1, %al
	retq
LBB60_3:
	andl	$65534, %esi
	cmpw	$2, %si
	sete	%al
LBB60_4:
	retq
	.cfi_endproc
	.p2align	2, 0x90
	.data_region jt32
.set L60_0_set_2, LBB60_2-LJTI60_0
.set L60_0_set_4, LBB60_4-LJTI60_0
.set L60_0_set_3, LBB60_3-LJTI60_0
LJTI60_0:
	.long	L60_0_set_2
	.long	L60_0_set_4
	.long	L60_0_set_4
	.long	L60_0_set_4
	.long	L60_0_set_4
	.long	L60_0_set_4
	.long	L60_0_set_4
	.long	L60_0_set_4
	.long	L60_0_set_4
	.long	L60_0_set_4
	.long	L60_0_set_4
	.long	L60_0_set_4
	.long	L60_0_set_4
	.long	L60_0_set_4
	.long	L60_0_set_2
	.long	L60_0_set_4
	.long	L60_0_set_4
	.long	L60_0_set_4
	.long	L60_0_set_4
	.long	L60_0_set_4
	.long	L60_0_set_4
	.long	L60_0_set_4
	.long	L60_0_set_4
	.long	L60_0_set_2
	.long	L60_0_set_4
	.long	L60_0_set_4
	.long	L60_0_set_4
	.long	L60_0_set_4
	.long	L60_0_set_4
	.long	L60_0_set_4
	.long	L60_0_set_4
	.long	L60_0_set_4
	.long	L60_0_set_4
	.long	L60_0_set_4
	.long	L60_0_set_4
	.long	L60_0_set_4
	.long	L60_0_set_4
	.long	L60_0_set_4
	.long	L60_0_set_4
	.long	L60_0_set_4
	.long	L60_0_set_2
	.long	L60_0_set_4
	.long	L60_0_set_2
	.long	L60_0_set_4
	.long	L60_0_set_4
	.long	L60_0_set_4
	.long	L60_0_set_4
	.long	L60_0_set_4
	.long	L60_0_set_4
	.long	L60_0_set_4
	.long	L60_0_set_4
	.long	L60_0_set_4
	.long	L60_0_set_4
	.long	L60_0_set_4
	.long	L60_0_set_3
	.long	L60_0_set_4
	.long	L60_0_set_4
	.long	L60_0_set_4
	.long	L60_0_set_4
	.long	L60_0_set_4
	.long	L60_0_set_4
	.long	L60_0_set_4
	.long	L60_0_set_2
	.long	L60_0_set_4
	.long	L60_0_set_4
	.long	L60_0_set_2
	.long	L60_0_set_4
	.long	L60_0_set_4
	.long	L60_0_set_2
	.long	L60_0_set_4
	.long	L60_0_set_2
	.long	L60_0_set_4
	.long	L60_0_set_2
	.long	L60_0_set_4
	.long	L60_0_set_4
	.long	L60_0_set_2
	.long	L60_0_set_4
	.long	L60_0_set_4
	.long	L60_0_set_4
	.long	L60_0_set_4
	.long	L60_0_set_4
	.long	L60_0_set_4
	.long	L60_0_set_4
	.long	L60_0_set_2
	.long	L60_0_set_4
	.long	L60_0_set_4
	.long	L60_0_set_4
	.long	L60_0_set_4
	.long	L60_0_set_4
	.long	L60_0_set_4
	.long	L60_0_set_4
	.long	L60_0_set_4
	.long	L60_0_set_4
	.long	L60_0_set_4
	.long	L60_0_set_4
	.long	L60_0_set_4
	.long	L60_0_set_4
	.long	L60_0_set_4
	.long	L60_0_set_4
	.long	L60_0_set_4
	.long	L60_0_set_4
	.long	L60_0_set_4
	.long	L60_0_set_4
	.long	L60_0_set_4
	.long	L60_0_set_4
	.long	L60_0_set_4
	.long	L60_0_set_4
	.long	L60_0_set_4
	.long	L60_0_set_4
	.long	L60_0_set_4
	.long	L60_0_set_4
	.long	L60_0_set_4
	.long	L60_0_set_4
	.long	L60_0_set_4
	.long	L60_0_set_4
	.long	L60_0_set_4
	.long	L60_0_set_4
	.long	L60_0_set_4
	.long	L60_0_set_4
	.long	L60_0_set_2
	.end_data_region

	.globl	__ZN5gimli4read5value9ValueType8bit_size17h5305b3916141e684E
	.p2align	4, 0x90
__ZN5gimli4read5value9ValueType8bit_size17h5305b3916141e684E:
	.cfi_startproc
	pushq	%rbp
	.cfi_def_cfa_offset 16
	.cfi_offset %rbp, -16
	movq	%rsp, %rbp
	.cfi_def_cfa_register %rbp
	movl	$8, %eax
	movzbl	%dil, %ecx
	leaq	LJTI61_0(%rip), %rdx
	movslq	(%rdx,%rcx,4), %rcx
	addq	%rdx, %rcx
	jmpq	*%rcx
LBB61_4:
	movl	$32, %eax
	popq	%rbp
	retq
LBB61_5:
	movl	$64, %eax
	popq	%rbp
	retq
LBB61_3:
	movl	$16, %eax
	popq	%rbp
	retq
LBB61_1:
	lzcntq	%rsi, %rcx
	movl	$64, %eax
	subl	%ecx, %eax
	jb	LBB61_2
LBB61_6:
	popq	%rbp
	retq
LBB61_2:
	leaq	_str.5(%rip), %rdi
	leaq	l___unnamed_94(%rip), %rdx
	movl	$33, %esi
	callq	__ZN4core9panicking5panic17h736ee47a631475c0E
	.cfi_endproc
	.p2align	2, 0x90
	.data_region jt32
.set L61_0_set_1, LBB61_1-LJTI61_0
.set L61_0_set_6, LBB61_6-LJTI61_0
.set L61_0_set_3, LBB61_3-LJTI61_0
.set L61_0_set_4, LBB61_4-LJTI61_0
.set L61_0_set_5, LBB61_5-LJTI61_0
LJTI61_0:
	.long	L61_0_set_1
	.long	L61_0_set_6
	.long	L61_0_set_6
	.long	L61_0_set_3
	.long	L61_0_set_3
	.long	L61_0_set_4
	.long	L61_0_set_4
	.long	L61_0_set_5
	.long	L61_0_set_5
	.long	L61_0_set_4
	.long	L61_0_set_5
	.end_data_region

	.globl	__ZN5gimli4read5value9ValueType13from_encoding17h4799a9c789901f58E
	.p2align	4, 0x90
__ZN5gimli4read5value9ValueType13from_encoding17h4799a9c789901f58E:
	.cfi_startproc
	pushq	%rbp
	.cfi_def_cfa_offset 16
	.cfi_offset %rbp, -16
	movq	%rsp, %rbp
	.cfi_def_cfa_register %rbp
	movb	$11, %al
	cmpb	$4, %dil
	je	LBB62_10
	cmpb	$7, %dil
	je	LBB62_6
	cmpb	$5, %dil
	jne	LBB62_14
	decq	%rsi
	cmpq	$8, %rsi
	jae	LBB62_14
	movl	$139, %ecx
	btl	%esi, %ecx
	jae	LBB62_14
	shll	$3, %esi
	movabsq	$504685737132753665, %rax
	shrxq	%rsi, %rax, %rax
	popq	%rbp
	retq
LBB62_10:
	cmpq	$4, %rsi
	je	LBB62_11
	cmpq	$8, %rsi
	jne	LBB62_14
	movb	$10, %al
	popq	%rbp
	retq
LBB62_6:
	decq	%rsi
	cmpq	$8, %rsi
	jae	LBB62_14
	movl	$139, %ecx
	btl	%esi, %ecx
	jb	LBB62_8
LBB62_14:
	popq	%rbp
	retq
LBB62_11:
	movb	$9, %al
	popq	%rbp
	retq
LBB62_8:
	shll	$3, %esi
	movabsq	$577025909970830338, %rax
	shrxq	%rsi, %rax, %rax
	popq	%rbp
	retq
	.cfi_endproc

	.globl	__ZN5gimli4read5value5Value10value_type17h2f456dc95d42c47cE
	.p2align	4, 0x90
__ZN5gimli4read5value5Value10value_type17h2f456dc95d42c47cE:
	.cfi_startproc
	pushq	%rbp
	.cfi_def_cfa_offset 16
	.cfi_offset %rbp, -16
	movq	%rsp, %rbp
	.cfi_def_cfa_register %rbp
	movb	(%rdi), %al
	popq	%rbp
	retq
	.cfi_endproc

	.globl	__ZN5gimli4read5value5Value6to_u6417h20a8ac32d5351899E
	.p2align	4, 0x90
__ZN5gimli4read5value5Value6to_u6417h20a8ac32d5351899E:
	.cfi_startproc
	pushq	%rbp
	.cfi_def_cfa_offset 16
	.cfi_offset %rbp, -16
	movq	%rsp, %rbp
	.cfi_def_cfa_register %rbp
	movq	%rdi, %rax
	movzbl	(%rsi), %ecx
	cmpq	$8, %rcx
	ja	LBB64_2
	leaq	LJTI64_0(%rip), %rdi
	movslq	(%rdi,%rcx,4), %rcx
	addq	%rdi, %rcx
	jmpq	*%rcx
LBB64_10:
	movq	8(%rsi), %rdx
	jmp	LBB64_11
LBB64_2:
	movb	$43, 8(%rax)
	movl	$1, %ecx
	movq	%rcx, (%rax)
	popq	%rbp
	retq
LBB64_3:
	andq	8(%rsi), %rdx
	jmp	LBB64_11
LBB64_4:
	movsbq	1(%rsi), %rdx
	jmp	LBB64_11
LBB64_5:
	movzbl	1(%rsi), %edx
	jmp	LBB64_11
LBB64_6:
	movswq	2(%rsi), %rdx
	jmp	LBB64_11
LBB64_7:
	movzwl	2(%rsi), %edx
	jmp	LBB64_11
LBB64_8:
	movslq	4(%rsi), %rdx
	jmp	LBB64_11
LBB64_9:
	movl	4(%rsi), %edx
LBB64_11:
	movq	%rdx, 8(%rax)
	xorl	%ecx, %ecx
	movq	%rcx, (%rax)
	popq	%rbp
	retq
	.cfi_endproc
	.p2align	2, 0x90
	.data_region jt32
.set L64_0_set_3, LBB64_3-LJTI64_0
.set L64_0_set_4, LBB64_4-LJTI64_0
.set L64_0_set_5, LBB64_5-LJTI64_0
.set L64_0_set_6, LBB64_6-LJTI64_0
.set L64_0_set_7, LBB64_7-LJTI64_0
.set L64_0_set_8, LBB64_8-LJTI64_0
.set L64_0_set_9, LBB64_9-LJTI64_0
.set L64_0_set_10, LBB64_10-LJTI64_0
LJTI64_0:
	.long	L64_0_set_3
	.long	L64_0_set_4
	.long	L64_0_set_5
	.long	L64_0_set_6
	.long	L64_0_set_7
	.long	L64_0_set_8
	.long	L64_0_set_9
	.long	L64_0_set_10
	.long	L64_0_set_10
	.end_data_region

	.section	__TEXT,__literal16,16byte_literals
	.p2align	4
LCPI65_0:
	.long	1127219200
	.long	1160773632
	.long	0
	.long	0
LCPI65_1:
	.quad	4841369599423283200
	.quad	4985484787499139072
	.section	__TEXT,__text,regular,pure_instructions
	.globl	__ZN5gimli4read5value5Value8from_u6417h458bcae27daf5d5bE
	.p2align	4, 0x90
__ZN5gimli4read5value5Value8from_u6417h458bcae27daf5d5bE:
	.cfi_startproc
	pushq	%rbp
	.cfi_def_cfa_offset 16
	.cfi_offset %rbp, -16
	movq	%rsp, %rbp
	.cfi_def_cfa_register %rbp
	movq	%rdi, %rax
	movzbl	%sil, %ecx
	leaq	LJTI65_0(%rip), %rdi
	movslq	(%rdi,%rcx,4), %rcx
	addq	%rdi, %rcx
	jmpq	*%rcx
LBB65_2:
	movb	$1, %sil
	jmp	LBB65_12
LBB65_3:
	movb	$2, %sil
	jmp	LBB65_12
LBB65_4:
	movb	$3, %sil
	jmp	LBB65_12
LBB65_5:
	movb	$4, %sil
	jmp	LBB65_12
LBB65_6:
	movb	$5, %sil
	jmp	LBB65_12
LBB65_7:
	movb	$6, %sil
	jmp	LBB65_12
LBB65_8:
	testq	%rdx, %rdx
	js	LBB65_9
	vcvtsi2ss	%rdx, %xmm0, %xmm0
	jmp	LBB65_11
LBB65_1:
	vmovq	%rdx, %xmm0
	vpunpckldq	LCPI65_0(%rip), %xmm0, %xmm0
	vsubpd	LCPI65_1(%rip), %xmm0, %xmm0
	vhaddpd	%xmm0, %xmm0, %xmm0
	vmovq	%xmm0, %rdx
	movb	$10, %sil
	jmp	LBB65_12
LBB65_9:
	movq	%rdx, %rcx
	shrq	%rcx
	andl	$1, %edx
	orq	%rcx, %rdx
	vcvtsi2ss	%rdx, %xmm0, %xmm0
	vaddss	%xmm0, %xmm0, %xmm0
LBB65_11:
	vmovd	%xmm0, %edx
	movb	$9, %sil
LBB65_12:
	movb	%sil, 8(%rax)
	movb	%dl, 9(%rax)
	movw	%dx, 10(%rax)
	movl	%edx, 12(%rax)
	movq	%rdx, 16(%rax)
	movq	$0, (%rax)
	popq	%rbp
	retq
	.cfi_endproc
	.p2align	2, 0x90
	.data_region jt32
.set L65_0_set_12, LBB65_12-LJTI65_0
.set L65_0_set_2, LBB65_2-LJTI65_0
.set L65_0_set_3, LBB65_3-LJTI65_0
.set L65_0_set_4, LBB65_4-LJTI65_0
.set L65_0_set_5, LBB65_5-LJTI65_0
.set L65_0_set_6, LBB65_6-LJTI65_0
.set L65_0_set_7, LBB65_7-LJTI65_0
.set L65_0_set_8, LBB65_8-LJTI65_0
.set L65_0_set_1, LBB65_1-LJTI65_0
LJTI65_0:
	.long	L65_0_set_12
	.long	L65_0_set_2
	.long	L65_0_set_3
	.long	L65_0_set_4
	.long	L65_0_set_5
	.long	L65_0_set_6
	.long	L65_0_set_7
	.long	L65_0_set_12
	.long	L65_0_set_12
	.long	L65_0_set_8
	.long	L65_0_set_1
	.end_data_region

	.section	__TEXT,__literal8,8byte_literals
	.p2align	3
LCPI66_0:
	.quad	4890909195324358656
LCPI66_1:
	.quad	4895412794951729151
LCPI66_2:
	.quad	4890909195324358655
LCPI66_3:
	.quad	-4332462841530417152
LCPI66_4:
	.quad	4751297606873776128
LCPI66_5:
	.quad	4746794007244308480
LCPI66_6:
	.quad	-4476578029606273024
LCPI66_7:
	.quad	4679239875398991872
LCPI66_8:
	.quad	4674736138332667904
LCPI66_9:
	.quad	-4548635623644200960
LCPI66_10:
	.quad	4643176031446892544
LCPI66_11:
	.quad	4638637247447433216
LCPI66_12:
	.quad	-4584664420663164928
	.section	__TEXT,__literal4,4byte_literals
	.p2align	2
LCPI66_13:
	.long	1593835520
LCPI66_14:
	.long	1602224127
LCPI66_15:
	.long	1593835519
LCPI66_16:
	.long	3741319168
LCPI66_17:
	.long	1333788671
LCPI66_18:
	.long	1325400063
LCPI66_19:
	.long	3472883712
LCPI66_20:
	.long	1199570688
LCPI66_21:
	.long	1191181824
LCPI66_22:
	.long	3338665984
LCPI66_23:
	.long	1132396544
LCPI66_24:
	.long	1123942400
LCPI66_25:
	.long	3271557120
	.section	__TEXT,__literal16,16byte_literals
	.p2align	4
LCPI66_26:
	.long	1127219200
	.long	1160773632
	.long	0
	.long	0
LCPI66_27:
	.quad	4841369599423283200
	.quad	4985484787499139072
	.section	__TEXT,__text,regular,pure_instructions
	.globl	__ZN5gimli4read5value5Value7convert17ha9603fe8bc4f193dE
	.p2align	4, 0x90
__ZN5gimli4read5value5Value7convert17ha9603fe8bc4f193dE:
	.cfi_startproc
	pushq	%rbp
	.cfi_def_cfa_offset 16
	.cfi_offset %rbp, -16
	movq	%rsp, %rbp
	.cfi_def_cfa_register %rbp
	movq	%rdi, %rax
	movzbl	(%rsi), %edi
	cmpq	$9, %rdi
	je	LBB66_4
	cmpq	$10, %rdi
	jne	LBB66_7
	vmovsd	8(%rsi), %xmm0
	movzbl	%dl, %ecx
	leaq	LJTI66_0(%rip), %rdx
	movslq	(%rdx,%rcx,4), %rcx
	addq	%rdx, %rcx
	jmpq	*%rcx
LBB66_3:
	vxorpd	%xmm1, %xmm1, %xmm1
	vmaxsd	%xmm1, %xmm0, %xmm1
	vmovsd	LCPI66_0(%rip), %xmm2
	vsubsd	%xmm2, %xmm1, %xmm3
	vcvttsd2si	%xmm3, %rcx
	movabsq	$-9223372036854775808, %rdx
	xorq	%rcx, %rdx
	vcvttsd2si	%xmm1, %rsi
	vucomisd	%xmm2, %xmm1
	cmovaeq	%rdx, %rsi
	vucomisd	LCPI66_1(%rip), %xmm0
	jmp	LBB66_6
LBB66_4:
	vmovd	4(%rsi), %xmm0
	movzbl	%dl, %ecx
	leaq	LJTI66_1(%rip), %rdx
	movslq	(%rdx,%rcx,4), %rcx
	addq	%rdx, %rcx
	jmpq	*%rcx
LBB66_5:
	vxorps	%xmm1, %xmm1, %xmm1
	vmaxss	%xmm1, %xmm0, %xmm1
	vmovss	LCPI66_13(%rip), %xmm2
	vsubss	%xmm2, %xmm1, %xmm3
	vcvttss2si	%xmm3, %rcx
	movabsq	$-9223372036854775808, %rdx
	xorq	%rcx, %rdx
	vcvttss2si	%xmm1, %rsi
	vucomiss	%xmm2, %xmm1
	cmovaeq	%rdx, %rsi
	vucomiss	LCPI66_14(%rip), %xmm0
LBB66_6:
	movq	$-1, %rcx
	cmovbeq	%rsi, %rcx
	xorl	%edx, %edx
	jmp	LBB66_43
LBB66_7:
	cmpq	$8, %rdi
	ja	LBB66_10
	movsbq	1(%rsi), %r8
	movswq	2(%rsi), %r9
	movslq	4(%rsi), %r10
	movq	8(%rsi), %r11
	leaq	LJTI66_2(%rip), %rsi
	movslq	(%rsi,%rdi,4), %rdi
	addq	%rsi, %rdi
	jmpq	*%rdi
LBB66_9:
	movzbl	%dl, %ecx
	leaq	LJTI66_3(%rip), %rsi
	movslq	(%rsi,%rcx,4), %rcx
	addq	%rsi, %rcx
	jmpq	*%rcx
LBB66_10:
	movq	$43, 8(%rax)
	movl	$1, %ecx
	movq	%rcx, (%rax)
	popq	%rbp
	retq
LBB66_11:
	andq	%rcx, %r11
	movzbl	%dl, %ecx
	leaq	LJTI66_3(%rip), %rsi
	movslq	(%rsi,%rcx,4), %rcx
	addq	%rsi, %rcx
	jmpq	*%rcx
LBB66_12:
	movzbl	%dl, %ecx
	leaq	LJTI66_3(%rip), %rsi
	movslq	(%rsi,%rcx,4), %rcx
	addq	%rsi, %rcx
	movq	%r8, %r11
	jmpq	*%rcx
LBB66_13:
	movzbl	%r8b, %r11d
	movzbl	%dl, %ecx
	leaq	LJTI66_3(%rip), %rsi
	movslq	(%rsi,%rcx,4), %rcx
	addq	%rsi, %rcx
	jmpq	*%rcx
LBB66_14:
	movzbl	%dl, %ecx
	leaq	LJTI66_3(%rip), %rsi
	movslq	(%rsi,%rcx,4), %rcx
	addq	%rsi, %rcx
	movq	%r9, %r11
	jmpq	*%rcx
LBB66_15:
	movzwl	%r9w, %r11d
	movzbl	%dl, %ecx
	leaq	LJTI66_3(%rip), %rsi
	movslq	(%rsi,%rcx,4), %rcx
	addq	%rsi, %rcx
	jmpq	*%rcx
LBB66_16:
	movzbl	%dl, %ecx
	leaq	LJTI66_3(%rip), %rsi
	movslq	(%rsi,%rcx,4), %rcx
	addq	%rsi, %rcx
	movq	%r10, %r11
	jmpq	*%rcx
LBB66_17:
	movl	%r10d, %r11d
	movzbl	%dl, %ecx
	leaq	LJTI66_3(%rip), %rsi
	movslq	(%rsi,%rcx,4), %rcx
	addq	%rsi, %rcx
	jmpq	*%rcx
LBB66_18:
	movb	$1, %dl
	jmp	LBB66_60
LBB66_19:
	vucomisd	LCPI66_11(%rip), %xmm0
	vmaxsd	LCPI66_12(%rip), %xmm0, %xmm1
	vcvttsd2si	%xmm1, %ecx
	movl	$127, %edx
	cmovbel	%ecx, %edx
	xorl	%edi, %edi
	vucomisd	%xmm0, %xmm0
	jmp	LBB66_30
LBB66_20:
	vucomisd	LCPI66_10(%rip), %xmm0
	vxorpd	%xmm1, %xmm1, %xmm1
	vmaxsd	%xmm1, %xmm0, %xmm0
	vcvttsd2si	%xmm0, %ecx
	jmp	LBB66_32
LBB66_21:
	vucomisd	LCPI66_8(%rip), %xmm0
	vmaxsd	LCPI66_9(%rip), %xmm0, %xmm1
	vcvttsd2si	%xmm1, %ecx
	movl	$32767, %edx
	cmovbel	%ecx, %edx
	xorl	%esi, %esi
	vucomisd	%xmm0, %xmm0
	cmovnpl	%edx, %esi
	movb	$3, %dl
	jmp	LBB66_41
LBB66_22:
	vucomisd	LCPI66_7(%rip), %xmm0
	vxorpd	%xmm1, %xmm1, %xmm1
	vmaxsd	%xmm1, %xmm0, %xmm0
	vcvttsd2si	%xmm0, %ecx
	jmp	LBB66_35
LBB66_23:
	vucomisd	LCPI66_5(%rip), %xmm0
	vmaxsd	LCPI66_6(%rip), %xmm0, %xmm1
	vcvttsd2si	%xmm1, %ecx
	movl	$2147483647, %edx
	cmovbel	%ecx, %edx
	xorl	%r8d, %r8d
	vucomisd	%xmm0, %xmm0
	jmp	LBB66_37
LBB66_24:
	vucomisd	LCPI66_4(%rip), %xmm0
	vxorpd	%xmm1, %xmm1, %xmm1
	vmaxsd	%xmm1, %xmm0, %xmm0
	vcvttsd2si	%xmm0, %rcx
	jmp	LBB66_39
LBB66_25:
	vucomisd	LCPI66_2(%rip), %xmm0
	vmaxsd	LCPI66_3(%rip), %xmm0, %xmm1
	vcvttsd2si	%xmm1, %rcx
	movabsq	$9223372036854775807, %rdx
	cmovbeq	%rcx, %rdx
	xorl	%ecx, %ecx
	vucomisd	%xmm0, %xmm0
	jmp	LBB66_45
LBB66_26:
	vxorpd	%xmm1, %xmm1, %xmm1
	vmaxsd	%xmm1, %xmm0, %xmm1
	vmovsd	LCPI66_0(%rip), %xmm2
	vsubsd	%xmm2, %xmm1, %xmm3
	vcvttsd2si	%xmm3, %rcx
	movabsq	$-9223372036854775808, %rdx
	xorq	%rcx, %rdx
	vcvttsd2si	%xmm1, %rsi
	vucomisd	%xmm2, %xmm1
	cmovaeq	%rdx, %rsi
	vucomisd	LCPI66_1(%rip), %xmm0
	jmp	LBB66_47
LBB66_27:
	vcvtsd2ss	%xmm0, %xmm0, %xmm0
LBB66_28:
	vmovd	%xmm0, %r8d
	movb	$9, %dl
	jmp	LBB66_40
LBB66_29:
	vucomiss	LCPI66_24(%rip), %xmm0
	vmaxss	LCPI66_25(%rip), %xmm0, %xmm1
	vcvttss2si	%xmm1, %ecx
	movl	$127, %edx
	cmovbel	%ecx, %edx
	xorl	%edi, %edi
	vucomiss	%xmm0, %xmm0
LBB66_30:
	cmovnpl	%edx, %edi
	movb	$1, %dl
	jmp	LBB66_42
LBB66_31:
	vxorps	%xmm1, %xmm1, %xmm1
	vmaxss	%xmm1, %xmm0, %xmm1
	vcvttss2si	%xmm1, %ecx
	vucomiss	LCPI66_23(%rip), %xmm0
LBB66_32:
	movl	$255, %edi
	cmovbel	%ecx, %edi
	movb	$2, %dl
	jmp	LBB66_42
LBB66_33:
	vucomiss	LCPI66_21(%rip), %xmm0
	vmaxss	LCPI66_22(%rip), %xmm0, %xmm1
	vcvttss2si	%xmm1, %ecx
	movl	$32767, %edx
	cmovbel	%ecx, %edx
	xorl	%esi, %esi
	vucomiss	%xmm0, %xmm0
	cmovnpl	%edx, %esi
	movb	$3, %dl
	jmp	LBB66_41
LBB66_34:
	vxorps	%xmm1, %xmm1, %xmm1
	vmaxss	%xmm1, %xmm0, %xmm1
	vcvttss2si	%xmm1, %ecx
	vucomiss	LCPI66_20(%rip), %xmm0
LBB66_35:
	movl	$65535, %esi
	cmovbel	%ecx, %esi
	movb	$4, %dl
	jmp	LBB66_41
LBB66_36:
	vucomiss	LCPI66_18(%rip), %xmm0
	vmaxss	LCPI66_19(%rip), %xmm0, %xmm1
	vcvttss2si	%xmm1, %ecx
	movl	$2147483647, %edx
	cmovbel	%ecx, %edx
	xorl	%r8d, %r8d
	vucomiss	%xmm0, %xmm0
LBB66_37:
	cmovnpl	%edx, %r8d
	movb	$5, %dl
	jmp	LBB66_40
LBB66_38:
	vxorps	%xmm1, %xmm1, %xmm1
	vmaxss	%xmm1, %xmm0, %xmm1
	vcvttss2si	%xmm1, %rcx
	vucomiss	LCPI66_17(%rip), %xmm0
LBB66_39:
	movl	$-1, %r8d
	cmovbel	%ecx, %r8d
	movb	$6, %dl
LBB66_40:
LBB66_41:
LBB66_42:
LBB66_43:
	movb	%dl, 8(%rax)
	movb	%dil, 9(%rax)
	movw	%si, 10(%rax)
	movl	%r8d, 12(%rax)
	movq	%rcx, 16(%rax)
	xorl	%ecx, %ecx
	movq	%rcx, (%rax)
	popq	%rbp
	retq
LBB66_44:
	vucomiss	LCPI66_15(%rip), %xmm0
	vmaxss	LCPI66_16(%rip), %xmm0, %xmm1
	vcvttss2si	%xmm1, %rcx
	movabsq	$9223372036854775807, %rdx
	cmovbeq	%rcx, %rdx
	xorl	%ecx, %ecx
	vucomiss	%xmm0, %xmm0
LBB66_45:
	cmovnpq	%rdx, %rcx
	movb	$7, %dl
	jmp	LBB66_43
LBB66_46:
	vxorps	%xmm1, %xmm1, %xmm1
	vmaxss	%xmm1, %xmm0, %xmm1
	vmovss	LCPI66_13(%rip), %xmm2
	vsubss	%xmm2, %xmm1, %xmm3
	vcvttss2si	%xmm3, %rcx
	movabsq	$-9223372036854775808, %rdx
	xorq	%rcx, %rdx
	vcvttss2si	%xmm1, %rsi
	vucomiss	%xmm2, %xmm1
	cmovaeq	%rdx, %rsi
	vucomiss	LCPI66_14(%rip), %xmm0
LBB66_47:
	movq	$-1, %rcx
	cmovbeq	%rsi, %rcx
	movb	$8, %dl
	jmp	LBB66_43
LBB66_48:
	vcvtss2sd	%xmm0, %xmm0, %xmm0
LBB66_49:
	vmovq	%xmm0, %rcx
	movb	$10, %dl
	jmp	LBB66_43
LBB66_50:
	movb	$2, %dl
	jmp	LBB66_60
LBB66_51:
	movb	$3, %dl
	jmp	LBB66_60
LBB66_52:
	movb	$4, %dl
	jmp	LBB66_60
LBB66_53:
	movb	$5, %dl
	jmp	LBB66_60
LBB66_54:
	movb	$6, %dl
	jmp	LBB66_60
LBB66_55:
	testq	%r11, %r11
	js	LBB66_58
	vcvtsi2ss	%r11, %xmm0, %xmm0
	jmp	LBB66_59
LBB66_57:
	vmovq	%r11, %xmm0
	vpunpckldq	LCPI66_26(%rip), %xmm0, %xmm0
	vsubpd	LCPI66_27(%rip), %xmm0, %xmm0
	vhaddpd	%xmm0, %xmm0, %xmm0
	vmovq	%xmm0, %r11
	movb	$10, %dl
	jmp	LBB66_60
LBB66_58:
	movq	%r11, %rcx
	shrq	%rcx
	andl	$1, %r11d
	orq	%rcx, %r11
	vcvtsi2ss	%r11, %xmm0, %xmm0
	vaddss	%xmm0, %xmm0, %xmm0
LBB66_59:
	vmovd	%xmm0, %r11d
	movb	$9, %dl
LBB66_60:
	movb	%dl, 8(%rax)
	movb	%r11b, 9(%rax)
	movw	%r11w, 10(%rax)
	movl	%r11d, 12(%rax)
	movq	%r11, 16(%rax)
	xorl	%ecx, %ecx
	movq	%rcx, (%rax)
	popq	%rbp
	retq
	.cfi_endproc
	.p2align	2, 0x90
	.data_region jt32
.set L66_0_set_3, LBB66_3-LJTI66_0
.set L66_0_set_19, LBB66_19-LJTI66_0
.set L66_0_set_20, LBB66_20-LJTI66_0
.set L66_0_set_21, LBB66_21-LJTI66_0
.set L66_0_set_22, LBB66_22-LJTI66_0
.set L66_0_set_23, LBB66_23-LJTI66_0
.set L66_0_set_24, LBB66_24-LJTI66_0
.set L66_0_set_25, LBB66_25-LJTI66_0
.set L66_0_set_26, LBB66_26-LJTI66_0
.set L66_0_set_27, LBB66_27-LJTI66_0
.set L66_0_set_49, LBB66_49-LJTI66_0
LJTI66_0:
	.long	L66_0_set_3
	.long	L66_0_set_19
	.long	L66_0_set_20
	.long	L66_0_set_21
	.long	L66_0_set_22
	.long	L66_0_set_23
	.long	L66_0_set_24
	.long	L66_0_set_25
	.long	L66_0_set_26
	.long	L66_0_set_27
	.long	L66_0_set_49
.set L66_1_set_5, LBB66_5-LJTI66_1
.set L66_1_set_29, LBB66_29-LJTI66_1
.set L66_1_set_31, LBB66_31-LJTI66_1
.set L66_1_set_33, LBB66_33-LJTI66_1
.set L66_1_set_34, LBB66_34-LJTI66_1
.set L66_1_set_36, LBB66_36-LJTI66_1
.set L66_1_set_38, LBB66_38-LJTI66_1
.set L66_1_set_44, LBB66_44-LJTI66_1
.set L66_1_set_46, LBB66_46-LJTI66_1
.set L66_1_set_28, LBB66_28-LJTI66_1
.set L66_1_set_48, LBB66_48-LJTI66_1
LJTI66_1:
	.long	L66_1_set_5
	.long	L66_1_set_29
	.long	L66_1_set_31
	.long	L66_1_set_33
	.long	L66_1_set_34
	.long	L66_1_set_36
	.long	L66_1_set_38
	.long	L66_1_set_44
	.long	L66_1_set_46
	.long	L66_1_set_28
	.long	L66_1_set_48
.set L66_2_set_11, LBB66_11-LJTI66_2
.set L66_2_set_12, LBB66_12-LJTI66_2
.set L66_2_set_13, LBB66_13-LJTI66_2
.set L66_2_set_14, LBB66_14-LJTI66_2
.set L66_2_set_15, LBB66_15-LJTI66_2
.set L66_2_set_16, LBB66_16-LJTI66_2
.set L66_2_set_17, LBB66_17-LJTI66_2
.set L66_2_set_9, LBB66_9-LJTI66_2
LJTI66_2:
	.long	L66_2_set_11
	.long	L66_2_set_12
	.long	L66_2_set_13
	.long	L66_2_set_14
	.long	L66_2_set_15
	.long	L66_2_set_16
	.long	L66_2_set_17
	.long	L66_2_set_9
	.long	L66_2_set_9
.set L66_3_set_60, LBB66_60-LJTI66_3
.set L66_3_set_18, LBB66_18-LJTI66_3
.set L66_3_set_50, LBB66_50-LJTI66_3
.set L66_3_set_51, LBB66_51-LJTI66_3
.set L66_3_set_52, LBB66_52-LJTI66_3
.set L66_3_set_53, LBB66_53-LJTI66_3
.set L66_3_set_54, LBB66_54-LJTI66_3
.set L66_3_set_55, LBB66_55-LJTI66_3
.set L66_3_set_57, LBB66_57-LJTI66_3
LJTI66_3:
	.long	L66_3_set_60
	.long	L66_3_set_18
	.long	L66_3_set_50
	.long	L66_3_set_51
	.long	L66_3_set_52
	.long	L66_3_set_53
	.long	L66_3_set_54
	.long	L66_3_set_60
	.long	L66_3_set_60
	.long	L66_3_set_55
	.long	L66_3_set_57
	.end_data_region

	.globl	__ZN5gimli4read5value5Value11reinterpret17h455d0a779a7a2872E
	.p2align	4, 0x90
__ZN5gimli4read5value5Value11reinterpret17h455d0a779a7a2872E:
	.cfi_startproc
	pushq	%rbp
	.cfi_def_cfa_offset 16
	.cfi_offset %rbp, -16
	movq	%rsp, %rbp
	.cfi_def_cfa_register %rbp
	pushq	%rbx
	pushq	%rax
	.cfi_offset %rbx, -24
	movq	%rdi, %rax
	movzbl	(%rsi), %r8d
	movl	$64, %r9d
	leaq	LJTI67_0(%rip), %r10
	movslq	(%r10,%r8,4), %rdi
	addq	%r10, %rdi
	jmpq	*%rdi
LBB67_6:
	movl	$8, %r9d
	movl	$8, %ebx
	movzbl	%dl, %edi
	leaq	LJTI67_1(%rip), %r10
	movslq	(%r10,%rdi,4), %rdi
	addq	%r10, %rdi
	jmpq	*%rdi
LBB67_4:
	movl	$32, %r9d
	movl	$8, %ebx
	movzbl	%dl, %edi
	leaq	LJTI67_1(%rip), %r10
	movslq	(%r10,%rdi,4), %rdi
	addq	%r10, %rdi
	jmpq	*%rdi
LBB67_2:
	movl	$16, %r9d
	movl	$8, %ebx
	movzbl	%dl, %edi
	leaq	LJTI67_1(%rip), %r10
	movslq	(%r10,%rdi,4), %rdi
	addq	%r10, %rdi
	jmpq	*%rdi
LBB67_1:
	movl	$16, %r9d
	movl	$8, %ebx
	movzbl	%dl, %r10d
	leaq	LJTI67_1(%rip), %r11
	movslq	(%r11,%r10,4), %rdi
	addq	%r11, %rdi
	jmpq	*%rdi
LBB67_5:
	movl	$32, %r9d
	movl	$8, %ebx
	movzbl	%dl, %edi
	leaq	LJTI67_1(%rip), %r10
	movslq	(%r10,%rdi,4), %rdi
	addq	%r10, %rdi
	jmpq	*%rdi
LBB67_3:
	movl	$32, %r9d
	movl	$8, %ebx
	movzbl	%dl, %edi
	leaq	LJTI67_1(%rip), %r10
	movslq	(%r10,%rdi,4), %rdi
	addq	%r10, %rdi
	jmpq	*%rdi
LBB67_7:
	lzcntq	%rcx, %rdi
	movl	$64, %r9d
	subl	%edi, %r9d
	jb	LBB67_10
LBB67_8:
	movl	$8, %ebx
	movzbl	%dl, %edi
	leaq	LJTI67_1(%rip), %r10
	movslq	(%r10,%rdi,4), %rdi
	addq	%r10, %rdi
	jmpq	*%rdi
LBB67_12:
	movl	$32, %ebx
	cmpl	%ebx, %r9d
	je	LBB67_15
	jmp	LBB67_16
LBB67_13:
	movl	$64, %ebx
	cmpl	%ebx, %r9d
	je	LBB67_15
	jmp	LBB67_16
LBB67_11:
	movl	$16, %ebx
	cmpl	%ebx, %r9d
	je	LBB67_15
	jmp	LBB67_16
LBB67_9:
	lzcntq	%rcx, %rcx
	movl	$64, %ebx
	subl	%ecx, %ebx
	jb	LBB67_10
LBB67_14:
	cmpl	%ebx, %r9d
	jne	LBB67_16
LBB67_15:
	leaq	LJTI67_2(%rip), %rcx
	movslq	(%rcx,%r8,4), %rdi
	addq	%rcx, %rdi
	jmpq	*%rdi
LBB67_18:
	movq	8(%rsi), %rcx
	movzbl	%dl, %esi
	leaq	LJTI67_3(%rip), %rdi
	movslq	(%rdi,%rsi,4), %rsi
	addq	%rdi, %rsi
	jmpq	*%rsi
LBB67_16:
	movb	$42, 8(%rax)
	movl	$1, %ecx
	jmp	LBB67_36
LBB67_22:
	movzwl	2(%rsi), %ecx
	movzbl	%dl, %esi
	leaq	LJTI67_3(%rip), %rdi
	movslq	(%rdi,%rsi,4), %rsi
	addq	%rdi, %rsi
	jmpq	*%rsi
LBB67_27:
	movl	4(%rsi), %ecx
	movzbl	%dl, %esi
	leaq	LJTI67_3(%rip), %rdi
	movslq	(%rdi,%rsi,4), %rsi
	addq	%rdi, %rsi
	jmpq	*%rsi
LBB67_20:
	movzbl	1(%rsi), %ecx
	movzbl	%dl, %esi
	leaq	LJTI67_3(%rip), %rdi
	movslq	(%rdi,%rsi,4), %rsi
	addq	%rdi, %rsi
	jmpq	*%rsi
LBB67_21:
	movswq	2(%rsi), %rcx
	movzbl	%dl, %esi
	leaq	LJTI67_3(%rip), %rdi
	movslq	(%rdi,%rsi,4), %rsi
	addq	%rdi, %rsi
	jmpq	*%rsi
LBB67_19:
	movsbq	1(%rsi), %rcx
	movzbl	%dl, %esi
	leaq	LJTI67_3(%rip), %rdi
	movslq	(%rdi,%rsi,4), %rsi
	addq	%rdi, %rsi
	jmpq	*%rsi
LBB67_25:
	movq	8(%rsi), %rcx
	movzbl	%dl, %esi
	leaq	LJTI67_3(%rip), %rdi
	movslq	(%rdi,%rsi,4), %rsi
	addq	%rdi, %rsi
	jmpq	*%rsi
LBB67_23:
	movslq	4(%rsi), %rcx
	movzbl	%dl, %esi
	leaq	LJTI67_3(%rip), %rdi
	movslq	(%rdi,%rsi,4), %rsi
	addq	%rdi, %rsi
	jmpq	*%rsi
LBB67_24:
	movl	4(%rsi), %ecx
	movzbl	%dl, %esi
	leaq	LJTI67_3(%rip), %rdi
	movslq	(%rdi,%rsi,4), %rsi
	addq	%rdi, %rsi
	jmpq	*%rsi
LBB67_26:
	movq	8(%rsi), %rcx
	movzbl	%dl, %esi
	leaq	LJTI67_3(%rip), %rdi
	movslq	(%rdi,%rsi,4), %rsi
	addq	%rdi, %rsi
	jmpq	*%rsi
LBB67_17:
	movq	8(%rsi), %rcx
	movzbl	%dl, %esi
	leaq	LJTI67_3(%rip), %rdi
	movslq	(%rdi,%rsi,4), %rsi
	addq	%rdi, %rsi
	jmpq	*%rsi
LBB67_28:
	movb	$1, %dl
	jmp	LBB67_35
LBB67_33:
	movb	$6, %dl
	jmp	LBB67_35
LBB67_31:
	movb	$4, %dl
	jmp	LBB67_35
LBB67_29:
	movb	$2, %dl
	jmp	LBB67_35
LBB67_30:
	movb	$3, %dl
	jmp	LBB67_35
LBB67_32:
	movb	$5, %dl
	jmp	LBB67_35
LBB67_34:
	movb	$9, %dl
LBB67_35:
	movb	%dl, 8(%rax)
	movb	%cl, 9(%rax)
	movw	%cx, 10(%rax)
	movl	%ecx, 12(%rax)
	movq	%rcx, 16(%rax)
	xorl	%ecx, %ecx
LBB67_36:
	movq	%rcx, (%rax)
	addq	$8, %rsp
	popq	%rbx
	popq	%rbp
	retq
LBB67_10:
	leaq	_str.5(%rip), %rdi
	leaq	l___unnamed_94(%rip), %rdx
	movl	$33, %esi
	callq	__ZN4core9panicking5panic17h736ee47a631475c0E
	.cfi_endproc
	.p2align	2, 0x90
	.data_region jt32
.set L67_0_set_7, LBB67_7-LJTI67_0
.set L67_0_set_6, LBB67_6-LJTI67_0
.set L67_0_set_1, LBB67_1-LJTI67_0
.set L67_0_set_2, LBB67_2-LJTI67_0
.set L67_0_set_3, LBB67_3-LJTI67_0
.set L67_0_set_4, LBB67_4-LJTI67_0
.set L67_0_set_8, LBB67_8-LJTI67_0
.set L67_0_set_5, LBB67_5-LJTI67_0
LJTI67_0:
	.long	L67_0_set_7
	.long	L67_0_set_6
	.long	L67_0_set_6
	.long	L67_0_set_1
	.long	L67_0_set_2
	.long	L67_0_set_3
	.long	L67_0_set_4
	.long	L67_0_set_8
	.long	L67_0_set_8
	.long	L67_0_set_5
	.long	L67_0_set_8
.set L67_1_set_9, LBB67_9-LJTI67_1
.set L67_1_set_14, LBB67_14-LJTI67_1
.set L67_1_set_11, LBB67_11-LJTI67_1
.set L67_1_set_12, LBB67_12-LJTI67_1
.set L67_1_set_13, LBB67_13-LJTI67_1
LJTI67_1:
	.long	L67_1_set_9
	.long	L67_1_set_14
	.long	L67_1_set_14
	.long	L67_1_set_11
	.long	L67_1_set_11
	.long	L67_1_set_12
	.long	L67_1_set_12
	.long	L67_1_set_13
	.long	L67_1_set_13
	.long	L67_1_set_12
	.long	L67_1_set_13
.set L67_2_set_18, LBB67_18-LJTI67_2
.set L67_2_set_19, LBB67_19-LJTI67_2
.set L67_2_set_20, LBB67_20-LJTI67_2
.set L67_2_set_21, LBB67_21-LJTI67_2
.set L67_2_set_22, LBB67_22-LJTI67_2
.set L67_2_set_23, LBB67_23-LJTI67_2
.set L67_2_set_24, LBB67_24-LJTI67_2
.set L67_2_set_25, LBB67_25-LJTI67_2
.set L67_2_set_26, LBB67_26-LJTI67_2
.set L67_2_set_27, LBB67_27-LJTI67_2
.set L67_2_set_17, LBB67_17-LJTI67_2
LJTI67_2:
	.long	L67_2_set_18
	.long	L67_2_set_19
	.long	L67_2_set_20
	.long	L67_2_set_21
	.long	L67_2_set_22
	.long	L67_2_set_23
	.long	L67_2_set_24
	.long	L67_2_set_25
	.long	L67_2_set_26
	.long	L67_2_set_27
	.long	L67_2_set_17
.set L67_3_set_35, LBB67_35-LJTI67_3
.set L67_3_set_28, LBB67_28-LJTI67_3
.set L67_3_set_29, LBB67_29-LJTI67_3
.set L67_3_set_30, LBB67_30-LJTI67_3
.set L67_3_set_31, LBB67_31-LJTI67_3
.set L67_3_set_32, LBB67_32-LJTI67_3
.set L67_3_set_33, LBB67_33-LJTI67_3
.set L67_3_set_34, LBB67_34-LJTI67_3
LJTI67_3:
	.long	L67_3_set_35
	.long	L67_3_set_28
	.long	L67_3_set_29
	.long	L67_3_set_30
	.long	L67_3_set_31
	.long	L67_3_set_32
	.long	L67_3_set_33
	.long	L67_3_set_35
	.long	L67_3_set_35
	.long	L67_3_set_34
	.long	L67_3_set_35
	.end_data_region

	.section	__TEXT,__literal16,16byte_literals
	.p2align	4
LCPI68_0:
	.quad	-9223372036854775808
	.quad	-9223372036854775808
	.section	__TEXT,__literal4,4byte_literals
	.p2align	2
LCPI68_1:
	.long	2147483648
	.section	__TEXT,__text,regular,pure_instructions
	.globl	__ZN5gimli4read5value5Value3abs17h04f85c8685c468f6E
	.p2align	4, 0x90
__ZN5gimli4read5value5Value3abs17h04f85c8685c468f6E:
	.cfi_startproc
	pushq	%rbp
	.cfi_def_cfa_offset 16
	.cfi_offset %rbp, -16
	movq	%rsp, %rbp
	.cfi_def_cfa_register %rbp
	movq	%rdi, %rax
	movb	(%rsi), %r10b
	movzbl	%r10b, %edi
	leaq	LJTI68_0(%rip), %rcx
	movslq	(%rcx,%rdi,4), %rdi
	addq	%rcx, %rdi
	jmpq	*%rdi
LBB68_1:
	movb	1(%rsi), %dil
	movzwl	2(%rsi), %r9d
	movl	4(%rsi), %r8d
	movq	8(%rsi), %rdx
LBB68_2:
	movb	%r10b, 8(%rax)
	movb	%dil, 9(%rax)
	movw	%r9w, 10(%rax)
	movl	%r8d, 12(%rax)
	movq	%rdx, 16(%rax)
	movq	$0, (%rax)
	popq	%rbp
	retq
LBB68_3:
	movq	%rdx, %rcx
	shrq	%rcx
	incq	%rcx
	andq	8(%rsi), %rdx
	xorq	%rcx, %rdx
	subq	%rcx, %rdx
	jns	LBB68_4
	movq	%rdx, %rcx
	negq	%rcx
	movabsq	$-9223372036854775808, %rsi
	cmpq	%rsi, %rdx
	cmovneq	%rcx, %rdx
LBB68_4:
	xorl	%r10d, %r10d
	jmp	LBB68_2
LBB68_5:
	movb	1(%rsi), %dil
	movb	$1, %r10b
	testb	%dil, %dil
	js	LBB68_16
	jmp	LBB68_2
LBB68_7:
	movzwl	2(%rsi), %r9d
	movb	$3, %r10b
	testw	%r9w, %r9w
	js	LBB68_17
	jmp	LBB68_2
LBB68_9:
	movl	4(%rsi), %r8d
	movb	$5, %r10b
	testl	%r8d, %r8d
	js	LBB68_18
	jmp	LBB68_2
LBB68_11:
	movq	8(%rsi), %rdx
	movb	$7, %r10b
	testq	%rdx, %rdx
	js	LBB68_19
	jmp	LBB68_2
LBB68_13:
	vmovss	4(%rsi), %xmm0
	vbroadcastss	LCPI68_1(%rip), %xmm1
	vxorps	%xmm1, %xmm0, %xmm1
	vxorps	%xmm2, %xmm2, %xmm2
	vcmpltss	%xmm2, %xmm0, %xmm2
	vblendvps	%xmm2, %xmm1, %xmm0, %xmm0
	vextractps	$0, %xmm0, %r8d
	movb	$9, %r10b
	jmp	LBB68_2
LBB68_14:
	vmovsd	8(%rsi), %xmm0
	vxorpd	LCPI68_0(%rip), %xmm0, %xmm1
	vxorpd	%xmm2, %xmm2, %xmm2
	vcmpltsd	%xmm2, %xmm0, %xmm2
	vblendvpd	%xmm2, %xmm1, %xmm0, %xmm0
	vmovq	%xmm0, %rdx
	movb	$10, %r10b
	jmp	LBB68_2
LBB68_16:
	movl	%edi, %ecx
	negb	%cl
	cmpb	$-128, %dil
	movzbl	%cl, %ecx
	movl	$128, %edi
	cmovnel	%ecx, %edi
	jmp	LBB68_2
LBB68_17:
	movzwl	%r9w, %ecx
	negl	%r9d
	cmpl	$32768, %ecx
	cmovel	%ecx, %r9d
	jmp	LBB68_2
LBB68_18:
	movl	%r8d, %ecx
	negl	%ecx
	cmpl	$-2147483648, %r8d
	cmovnel	%ecx, %r8d
	jmp	LBB68_2
LBB68_19:
	movq	%rdx, %rcx
	negq	%rcx
	movabsq	$-9223372036854775808, %rsi
	cmpq	%rsi, %rdx
	cmovneq	%rcx, %rdx
	jmp	LBB68_2
	.cfi_endproc
	.p2align	2, 0x90
	.data_region jt32
.set L68_0_set_3, LBB68_3-LJTI68_0
.set L68_0_set_5, LBB68_5-LJTI68_0
.set L68_0_set_1, LBB68_1-LJTI68_0
.set L68_0_set_7, LBB68_7-LJTI68_0
.set L68_0_set_9, LBB68_9-LJTI68_0
.set L68_0_set_11, LBB68_11-LJTI68_0
.set L68_0_set_13, LBB68_13-LJTI68_0
.set L68_0_set_14, LBB68_14-LJTI68_0
LJTI68_0:
	.long	L68_0_set_3
	.long	L68_0_set_5
	.long	L68_0_set_1
	.long	L68_0_set_7
	.long	L68_0_set_1
	.long	L68_0_set_9
	.long	L68_0_set_1
	.long	L68_0_set_11
	.long	L68_0_set_1
	.long	L68_0_set_13
	.long	L68_0_set_14
	.end_data_region

	.globl	__ZN5gimli4read5value5Value3neg17h85ffcf5de1a763d4E
	.p2align	4, 0x90
__ZN5gimli4read5value5Value3neg17h85ffcf5de1a763d4E:
	.cfi_startproc
	pushq	%rbp
	.cfi_def_cfa_offset 16
	.cfi_offset %rbp, -16
	movq	%rsp, %rbp
	.cfi_def_cfa_register %rbp
	movq	%rdi, %rax
	movzbl	(%rsi), %ecx
	leaq	LJTI69_0(%rip), %rdi
	movslq	(%rdi,%rcx,4), %rcx
	addq	%rdi, %rcx
	jmpq	*%rcx
LBB69_1:
	movb	$44, 8(%rax)
	movl	$1, %ecx
	movq	%rcx, (%rax)
	popq	%rbp
	retq
LBB69_2:
	movq	%rdx, %rcx
	shrq	%rcx
	incq	%rcx
	andq	8(%rsi), %rdx
	xorq	%rcx, %rdx
	subq	%rcx, %rdx
	movq	%rdx, %rcx
	negq	%rcx
	movabsq	$-9223372036854775808, %rsi
	cmpq	%rsi, %rdx
	cmoveq	%rdx, %rcx
	xorl	%edx, %edx
	jmp	LBB69_9
LBB69_3:
	movb	1(%rsi), %cl
	movl	%ecx, %edx
	negb	%dl
	cmpb	$-128, %cl
	movzbl	%dl, %ecx
	movl	$128, %r8d
	cmovnel	%ecx, %r8d
	movb	$1, %dl
	jmp	LBB69_12
LBB69_4:
	movzwl	2(%rsi), %ecx
	movl	%ecx, %esi
	negl	%esi
	cmpl	$32768, %ecx
	cmovel	%ecx, %esi
	movb	$3, %dl
	jmp	LBB69_11
LBB69_5:
	movl	4(%rsi), %ecx
	movl	%ecx, %edi
	negl	%edi
	cmpl	$-2147483648, %ecx
	cmovel	%ecx, %edi
	movb	$5, %dl
	jmp	LBB69_10
LBB69_6:
	movl	$-2147483648, %edi
	xorl	4(%rsi), %edi
	movb	$9, %dl
	jmp	LBB69_10
LBB69_7:
	movabsq	$-9223372036854775808, %rcx
	xorq	8(%rsi), %rcx
	movb	$10, %dl
	jmp	LBB69_9
LBB69_8:
	movq	8(%rsi), %rdx
	movq	%rdx, %rcx
	negq	%rcx
	movabsq	$-9223372036854775808, %rsi
	cmpq	%rsi, %rdx
	cmoveq	%rdx, %rcx
	movb	$7, %dl
LBB69_9:
LBB69_10:
LBB69_11:
LBB69_12:
	movb	%dl, 8(%rax)
	movb	%r8b, 9(%rax)
	movw	%si, 10(%rax)
	movl	%edi, 12(%rax)
	movq	%rcx, 16(%rax)
	xorl	%ecx, %ecx
	movq	%rcx, (%rax)
	popq	%rbp
	retq
	.cfi_endproc
	.p2align	2, 0x90
	.data_region jt32
.set L69_0_set_2, LBB69_2-LJTI69_0
.set L69_0_set_3, LBB69_3-LJTI69_0
.set L69_0_set_1, LBB69_1-LJTI69_0
.set L69_0_set_4, LBB69_4-LJTI69_0
.set L69_0_set_5, LBB69_5-LJTI69_0
.set L69_0_set_8, LBB69_8-LJTI69_0
.set L69_0_set_6, LBB69_6-LJTI69_0
.set L69_0_set_7, LBB69_7-LJTI69_0
LJTI69_0:
	.long	L69_0_set_2
	.long	L69_0_set_3
	.long	L69_0_set_1
	.long	L69_0_set_4
	.long	L69_0_set_1
	.long	L69_0_set_5
	.long	L69_0_set_1
	.long	L69_0_set_8
	.long	L69_0_set_1
	.long	L69_0_set_6
	.long	L69_0_set_7
	.end_data_region

	.globl	__ZN5gimli4read5value5Value3add17hae35053695b7087cE
	.p2align	4, 0x90
__ZN5gimli4read5value5Value3add17hae35053695b7087cE:
	.cfi_startproc
	pushq	%rbp
	.cfi_def_cfa_offset 16
	.cfi_offset %rbp, -16
	movq	%rsp, %rbp
	.cfi_def_cfa_register %rbp
	pushq	%r15
	pushq	%r14
	pushq	%r12
	pushq	%rbx
	.cfi_offset %rbx, -48
	.cfi_offset %r12, -40
	.cfi_offset %r14, -32
	.cfi_offset %r15, -24
	movq	%rdi, %rax
	movzbl	(%rsi), %edi
	cmpq	$10, %rdi
	ja	LBB70_3
	movb	1(%rsi), %r14b
	movzwl	2(%rsi), %r11d
	movl	4(%rsi), %r15d
	movq	8(%rsi), %rsi
	movb	(%rdx), %bl
	movb	1(%rdx), %r8b
	movzwl	2(%rdx), %r10d
	movl	4(%rdx), %r9d
	movq	8(%rdx), %r12
	leaq	LJTI70_0(%rip), %rdx
	movslq	(%rdx,%rdi,4), %rdi
	addq	%rdx, %rdi
	jmpq	*%rdi
LBB70_2:
	testb	%bl, %bl
	jne	LBB70_3
	addq	%rsi, %r12
	andq	%rcx, %r12
	xorl	%ecx, %ecx
	jmp	LBB70_28
LBB70_5:
	cmpb	$1, %bl
	jne	LBB70_3
	addb	%r14b, %r8b
	movb	$1, %cl
	jmp	LBB70_31
LBB70_8:
	cmpb	$2, %bl
	jne	LBB70_3
	addb	%r14b, %r8b
	movb	$2, %cl
	jmp	LBB70_31
LBB70_10:
	cmpb	$3, %bl
	jne	LBB70_3
	addl	%r11d, %r10d
	movb	$3, %cl
	jmp	LBB70_30
LBB70_13:
	cmpb	$4, %bl
	jne	LBB70_3
	addl	%r11d, %r10d
	movb	$4, %cl
	jmp	LBB70_30
LBB70_15:
	cmpb	$5, %bl
	jne	LBB70_3
	addl	%r15d, %r9d
	movb	$5, %cl
	jmp	LBB70_29
LBB70_18:
	cmpb	$6, %bl
	jne	LBB70_3
	addl	%r15d, %r9d
	movb	$6, %cl
	jmp	LBB70_29
LBB70_20:
	cmpb	$7, %bl
	jne	LBB70_3
	addq	%rsi, %r12
	movb	$7, %cl
	jmp	LBB70_28
LBB70_22:
	cmpb	$8, %bl
	jne	LBB70_3
	addq	%rsi, %r12
	movb	$8, %cl
	jmp	LBB70_28
LBB70_24:
	cmpb	$9, %bl
	jne	LBB70_3
	vmovd	%r15d, %xmm0
	vmovd	%r9d, %xmm1
	vaddss	%xmm1, %xmm0, %xmm0
	vmovd	%xmm0, %r9d
	movb	$9, %cl
	jmp	LBB70_29
LBB70_26:
	cmpb	$10, %bl
	jne	LBB70_3
	vmovq	%rsi, %xmm0
	vmovq	%r12, %xmm1
	vaddsd	%xmm1, %xmm0, %xmm0
	vmovq	%xmm0, %r12
	movb	$10, %cl
LBB70_28:
LBB70_29:
LBB70_30:
LBB70_31:
	movb	%cl, 8(%rax)
	movb	%r8b, 9(%rax)
	movw	%r10w, 10(%rax)
	movl	%r9d, 12(%rax)
	movq	%r12, 16(%rax)
	xorl	%ecx, %ecx
	jmp	LBB70_32
LBB70_3:
	movb	$42, 8(%rax)
	movl	$1, %ecx
LBB70_32:
	movq	%rcx, (%rax)
	popq	%rbx
	popq	%r12
	popq	%r14
	popq	%r15
	popq	%rbp
	retq
	.cfi_endproc
	.p2align	2, 0x90
	.data_region jt32
.set L70_0_set_2, LBB70_2-LJTI70_0
.set L70_0_set_5, LBB70_5-LJTI70_0
.set L70_0_set_8, LBB70_8-LJTI70_0
.set L70_0_set_10, LBB70_10-LJTI70_0
.set L70_0_set_13, LBB70_13-LJTI70_0
.set L70_0_set_15, LBB70_15-LJTI70_0
.set L70_0_set_18, LBB70_18-LJTI70_0
.set L70_0_set_20, LBB70_20-LJTI70_0
.set L70_0_set_22, LBB70_22-LJTI70_0
.set L70_0_set_24, LBB70_24-LJTI70_0
.set L70_0_set_26, LBB70_26-LJTI70_0
LJTI70_0:
	.long	L70_0_set_2
	.long	L70_0_set_5
	.long	L70_0_set_8
	.long	L70_0_set_10
	.long	L70_0_set_13
	.long	L70_0_set_15
	.long	L70_0_set_18
	.long	L70_0_set_20
	.long	L70_0_set_22
	.long	L70_0_set_24
	.long	L70_0_set_26
	.end_data_region

	.globl	__ZN5gimli4read5value5Value3sub17hc4d256ff6387c4f6E
	.p2align	4, 0x90
__ZN5gimli4read5value5Value3sub17hc4d256ff6387c4f6E:
	.cfi_startproc
	pushq	%rbp
	.cfi_def_cfa_offset 16
	.cfi_offset %rbp, -16
	movq	%rsp, %rbp
	.cfi_def_cfa_register %rbp
	pushq	%r15
	pushq	%r14
	pushq	%r12
	pushq	%rbx
	.cfi_offset %rbx, -48
	.cfi_offset %r12, -40
	.cfi_offset %r14, -32
	.cfi_offset %r15, -24
	movq	%rdi, %rax
	movzbl	(%rsi), %edi
	cmpq	$10, %rdi
	ja	LBB71_3
	movb	1(%rsi), %r9b
	movzwl	2(%rsi), %r11d
	movl	4(%rsi), %r8d
	movq	8(%rsi), %r10
	movb	(%rdx), %bl
	movb	1(%rdx), %r14b
	movzwl	2(%rdx), %r15d
	movl	4(%rdx), %esi
	movq	8(%rdx), %r12
	leaq	LJTI71_0(%rip), %rdx
	movslq	(%rdx,%rdi,4), %rdi
	addq	%rdx, %rdi
	jmpq	*%rdi
LBB71_2:
	testb	%bl, %bl
	jne	LBB71_3
	subq	%r12, %r10
	andq	%rcx, %r10
	xorl	%ecx, %ecx
	jmp	LBB71_28
LBB71_5:
	cmpb	$1, %bl
	jne	LBB71_3
	subb	%r14b, %r9b
	movb	$1, %cl
	jmp	LBB71_31
LBB71_8:
	cmpb	$2, %bl
	jne	LBB71_3
	subb	%r14b, %r9b
	movb	$2, %cl
	jmp	LBB71_31
LBB71_10:
	cmpb	$3, %bl
	jne	LBB71_3
	subl	%r15d, %r11d
	movb	$3, %cl
	jmp	LBB71_30
LBB71_13:
	cmpb	$4, %bl
	jne	LBB71_3
	subl	%r15d, %r11d
	movb	$4, %cl
	jmp	LBB71_30
LBB71_15:
	cmpb	$5, %bl
	jne	LBB71_3
	subl	%esi, %r8d
	movb	$5, %cl
	jmp	LBB71_29
LBB71_18:
	cmpb	$6, %bl
	jne	LBB71_3
	subl	%esi, %r8d
	movb	$6, %cl
	jmp	LBB71_29
LBB71_20:
	cmpb	$7, %bl
	jne	LBB71_3
	subq	%r12, %r10
	movb	$7, %cl
	jmp	LBB71_28
LBB71_22:
	cmpb	$8, %bl
	jne	LBB71_3
	subq	%r12, %r10
	movb	$8, %cl
	jmp	LBB71_28
LBB71_24:
	cmpb	$9, %bl
	jne	LBB71_3
	vmovd	%r8d, %xmm0
	vmovd	%esi, %xmm1
	vsubss	%xmm1, %xmm0, %xmm0
	vmovd	%xmm0, %r8d
	movb	$9, %cl
	jmp	LBB71_29
LBB71_26:
	cmpb	$10, %bl
	jne	LBB71_3
	vmovq	%r10, %xmm0
	vmovq	%r12, %xmm1
	vsubsd	%xmm1, %xmm0, %xmm0
	vmovq	%xmm0, %r10
	movb	$10, %cl
LBB71_28:
LBB71_29:
LBB71_30:
LBB71_31:
	movb	%cl, 8(%rax)
	movb	%r9b, 9(%rax)
	movw	%r11w, 10(%rax)
	movl	%r8d, 12(%rax)
	movq	%r10, 16(%rax)
	xorl	%ecx, %ecx
	jmp	LBB71_32
LBB71_3:
	movb	$42, 8(%rax)
	movl	$1, %ecx
LBB71_32:
	movq	%rcx, (%rax)
	popq	%rbx
	popq	%r12
	popq	%r14
	popq	%r15
	popq	%rbp
	retq
	.cfi_endproc
	.p2align	2, 0x90
	.data_region jt32
.set L71_0_set_2, LBB71_2-LJTI71_0
.set L71_0_set_5, LBB71_5-LJTI71_0
.set L71_0_set_8, LBB71_8-LJTI71_0
.set L71_0_set_10, LBB71_10-LJTI71_0
.set L71_0_set_13, LBB71_13-LJTI71_0
.set L71_0_set_15, LBB71_15-LJTI71_0
.set L71_0_set_18, LBB71_18-LJTI71_0
.set L71_0_set_20, LBB71_20-LJTI71_0
.set L71_0_set_22, LBB71_22-LJTI71_0
.set L71_0_set_24, LBB71_24-LJTI71_0
.set L71_0_set_26, LBB71_26-LJTI71_0
LJTI71_0:
	.long	L71_0_set_2
	.long	L71_0_set_5
	.long	L71_0_set_8
	.long	L71_0_set_10
	.long	L71_0_set_13
	.long	L71_0_set_15
	.long	L71_0_set_18
	.long	L71_0_set_20
	.long	L71_0_set_22
	.long	L71_0_set_24
	.long	L71_0_set_26
	.end_data_region

	.globl	__ZN5gimli4read5value5Value3mul17hd2cf78f72cef1f43E
	.p2align	4, 0x90
__ZN5gimli4read5value5Value3mul17hd2cf78f72cef1f43E:
	.cfi_startproc
	pushq	%rbp
	.cfi_def_cfa_offset 16
	.cfi_offset %rbp, -16
	movq	%rsp, %rbp
	.cfi_def_cfa_register %rbp
	pushq	%r15
	pushq	%r14
	pushq	%r12
	pushq	%rbx
	.cfi_offset %rbx, -48
	.cfi_offset %r12, -40
	.cfi_offset %r14, -32
	.cfi_offset %r15, -24
	movq	%rdi, %r15
	movzbl	(%rsi), %edi
	cmpq	$10, %rdi
	ja	LBB72_29
	movb	1(%rsi), %r14b
	movzwl	2(%rsi), %r11d
	movl	4(%rsi), %r10d
	movq	8(%rsi), %rsi
	movb	(%rdx), %bl
	movb	1(%rdx), %al
	movzwl	2(%rdx), %r9d
	movl	4(%rdx), %r8d
	movq	8(%rdx), %r12
	leaq	LJTI72_0(%rip), %rdx
	movslq	(%rdx,%rdi,4), %rdi
	addq	%rdx, %rdi
	jmpq	*%rdi
LBB72_2:
	testb	%bl, %bl
	jne	LBB72_29
	imulq	%rsi, %r12
	andq	%rcx, %r12
	xorl	%ecx, %ecx
	jmp	LBB72_25
LBB72_4:
	cmpb	$1, %bl
	jne	LBB72_29
	movb	$1, %cl
	jmp	LBB72_6
LBB72_7:
	cmpb	$2, %bl
	jne	LBB72_29
	movb	$2, %cl
LBB72_6:
	mulb	%r14b
	jmp	LBB72_28
LBB72_9:
	cmpb	$3, %bl
	jne	LBB72_29
	imull	%r11d, %r9d
	movb	$3, %cl
	jmp	LBB72_27
LBB72_11:
	cmpb	$4, %bl
	jne	LBB72_29
	imull	%r11d, %r9d
	movb	$4, %cl
	jmp	LBB72_27
LBB72_13:
	cmpb	$5, %bl
	jne	LBB72_29
	imull	%r10d, %r8d
	movb	$5, %cl
	jmp	LBB72_26
LBB72_15:
	cmpb	$6, %bl
	jne	LBB72_29
	imull	%r10d, %r8d
	movb	$6, %cl
	jmp	LBB72_26
LBB72_17:
	cmpb	$7, %bl
	jne	LBB72_29
	imulq	%rsi, %r12
	movb	$7, %cl
	jmp	LBB72_25
LBB72_19:
	cmpb	$8, %bl
	jne	LBB72_29
	imulq	%rsi, %r12
	movb	$8, %cl
	jmp	LBB72_25
LBB72_21:
	cmpb	$9, %bl
	jne	LBB72_29
	vmovd	%r10d, %xmm0
	vmovd	%r8d, %xmm1
	vmulss	%xmm1, %xmm0, %xmm0
	vmovd	%xmm0, %r8d
	movb	$9, %cl
	jmp	LBB72_26
LBB72_23:
	cmpb	$10, %bl
	jne	LBB72_29
	vmovq	%rsi, %xmm0
	vmovq	%r12, %xmm1
	vmulsd	%xmm1, %xmm0, %xmm0
	vmovq	%xmm0, %r12
	movb	$10, %cl
LBB72_25:
LBB72_26:
LBB72_27:
LBB72_28:
	movb	%cl, 8(%r15)
	movb	%al, 9(%r15)
	movw	%r9w, 10(%r15)
	movl	%r8d, 12(%r15)
	movq	%r12, 16(%r15)
	xorl	%eax, %eax
	jmp	LBB72_30
LBB72_29:
	movb	$42, 8(%r15)
	movl	$1, %eax
LBB72_30:
	movq	%rax, (%r15)
	movq	%r15, %rax
	popq	%rbx
	popq	%r12
	popq	%r14
	popq	%r15
	popq	%rbp
	retq
	.cfi_endproc
	.p2align	2, 0x90
	.data_region jt32
.set L72_0_set_2, LBB72_2-LJTI72_0
.set L72_0_set_4, LBB72_4-LJTI72_0
.set L72_0_set_7, LBB72_7-LJTI72_0
.set L72_0_set_9, LBB72_9-LJTI72_0
.set L72_0_set_11, LBB72_11-LJTI72_0
.set L72_0_set_13, LBB72_13-LJTI72_0
.set L72_0_set_15, LBB72_15-LJTI72_0
.set L72_0_set_17, LBB72_17-LJTI72_0
.set L72_0_set_19, LBB72_19-LJTI72_0
.set L72_0_set_21, LBB72_21-LJTI72_0
.set L72_0_set_23, LBB72_23-LJTI72_0
LJTI72_0:
	.long	L72_0_set_2
	.long	L72_0_set_4
	.long	L72_0_set_7
	.long	L72_0_set_9
	.long	L72_0_set_11
	.long	L72_0_set_13
	.long	L72_0_set_15
	.long	L72_0_set_17
	.long	L72_0_set_19
	.long	L72_0_set_21
	.long	L72_0_set_23
	.end_data_region

	.globl	__ZN5gimli4read5value5Value3div17h6edb4df265fdcb16E
	.p2align	4, 0x90
__ZN5gimli4read5value5Value3div17h6edb4df265fdcb16E:
	.cfi_startproc
	pushq	%rbp
	.cfi_def_cfa_offset 16
	.cfi_offset %rbp, -16
	movq	%rsp, %rbp
	.cfi_def_cfa_register %rbp
	pushq	%r15
	pushq	%r14
	pushq	%r12
	pushq	%rbx
	.cfi_offset %rbx, -48
	.cfi_offset %r12, -40
	.cfi_offset %r14, -32
	.cfi_offset %r15, -24
	movq	%rdi, %r8
	movzbl	(%rdx), %edi
	cmpq	$8, %rdi
	ja	LBB73_5
	leaq	LJTI73_0(%rip), %rax
	movslq	(%rax,%rdi,4), %rbx
	addq	%rax, %rbx
	jmpq	*%rbx
LBB73_2:
	cmpb	$0, 1(%rdx)
	jne	LBB73_5
LBB73_3:
	movb	$41, 8(%r8)
	movl	$1, %eax
	jmp	LBB73_65
LBB73_4:
	cmpl	$0, 4(%rdx)
	je	LBB73_3
LBB73_5:
	movzbl	(%rsi), %ebx
	cmpq	$10, %rbx
	ja	LBB73_49
	movb	1(%rsi), %r9b
	movzwl	2(%rsi), %r11d
	movl	4(%rsi), %eax
	movq	8(%rsi), %r14
	movb	1(%rdx), %r12b
	movzwl	2(%rdx), %esi
	movl	4(%rdx), %r15d
	movq	8(%rdx), %r10
	leaq	LJTI73_1(%rip), %rdx
	movslq	(%rdx,%rbx,4), %rbx
	addq	%rdx, %rbx
	jmpq	*%rbx
LBB73_7:
	testb	%dil, %dil
	jne	LBB73_49
	movabsq	$-9223372036854775808, %rax
	movq	%rcx, %rdx
	shrq	%rdx
	incq	%rdx
	andq	%rcx, %r14
	xorq	%rdx, %r14
	subq	%rdx, %r14
	andq	%rcx, %r10
	xorq	%rdx, %r10
	subq	%rdx, %r10
	cmpq	%rax, %r14
	jne	LBB73_56
	cmpq	$-1, %r10
	je	LBB73_62
LBB73_56:
	testq	%r10, %r10
	je	LBB73_67
	movq	%r14, %rax
	orq	%r10, %rax
	shrq	$32, %rax
	je	LBB73_61
	movq	%r14, %rax
	cqto
	idivq	%r10
	jmp	LBB73_62
LBB73_11:
	cmpw	$0, 2(%rdx)
	jne	LBB73_5
	jmp	LBB73_3
LBB73_12:
	cmpq	$0, 8(%rdx)
	jne	LBB73_5
	jmp	LBB73_3
LBB73_13:
	testq	%rcx, 8(%rdx)
	jne	LBB73_5
	jmp	LBB73_3
LBB73_14:
	cmpb	$4, %dil
	jne	LBB73_49
	testw	%si, %si
	je	LBB73_66
	movl	%r11d, %eax
	xorl	%edx, %edx
	divw	%si
	movl	%eax, %edi
	movb	$4, %cl
	jmp	LBB73_64
LBB73_17:
	cmpb	$9, %dil
	jne	LBB73_49
	vmovd	%eax, %xmm0
	vmovd	%r15d, %xmm1
	vdivss	%xmm1, %xmm0, %xmm0
	vmovd	%xmm0, %esi
	movb	$9, %cl
	jmp	LBB73_64
LBB73_19:
	cmpb	$2, %dil
	jne	LBB73_49
	testb	%r12b, %r12b
	je	LBB73_66
	movzbl	%r9b, %eax
	divb	%r12b
	movl	%eax, %edx
	movb	$2, %cl
	jmp	LBB73_64
LBB73_22:
	cmpb	$3, %dil
	jne	LBB73_49
	movzwl	%r11w, %eax
	movb	$3, %cl
	cmpl	$32768, %eax
	jne	LBB73_50
	cmpw	$-1, %si
	jne	LBB73_50
	movw	$-32768, %di
	jmp	LBB73_64
LBB73_26:
	cmpb	$7, %dil
	jne	LBB73_49
	movabsq	$-9223372036854775808, %rax
	movb	$7, %cl
	cmpq	%rax, %r14
	jne	LBB73_29
	cmpq	$-1, %r10
	je	LBB73_63
LBB73_29:
	testq	%r10, %r10
	je	LBB73_67
	movq	%r14, %rax
	orq	%r10, %rax
	shrq	$32, %rax
	je	LBB73_60
	movq	%r14, %rax
	cqto
	idivq	%r10
	jmp	LBB73_63
LBB73_32:
	cmpb	$1, %dil
	jne	LBB73_49
	movb	$1, %cl
	cmpb	$-128, %r9b
	jne	LBB73_52
	cmpb	$-1, %r12b
	jne	LBB73_52
	movb	$-128, %dl
	jmp	LBB73_64
LBB73_36:
	cmpb	$5, %dil
	jne	LBB73_49
	movb	$5, %cl
	cmpl	$-2147483648, %eax
	jne	LBB73_54
	cmpl	$-1, %r15d
	jne	LBB73_54
	movl	$-2147483648, %esi
	jmp	LBB73_64
LBB73_40:
	cmpb	$6, %dil
	jne	LBB73_49
	testl	%r15d, %r15d
	je	LBB73_66
	xorl	%edx, %edx
	divl	%r15d
	movl	%eax, %esi
	movb	$6, %cl
	jmp	LBB73_64
LBB73_43:
	cmpb	$10, %dil
	jne	LBB73_49
	vmovq	%r14, %xmm0
	vmovq	%r10, %xmm1
	vdivsd	%xmm1, %xmm0, %xmm0
	vmovq	%xmm0, %rax
	movb	$10, %cl
	jmp	LBB73_63
LBB73_45:
	cmpb	$8, %dil
	jne	LBB73_49
	testq	%r10, %r10
	je	LBB73_66
	movq	%r14, %rax
	orq	%r10, %rax
	shrq	$32, %rax
	je	LBB73_59
	movq	%r14, %rax
	xorl	%edx, %edx
	divq	%r10
	movb	$8, %cl
	jmp	LBB73_63
LBB73_49:
	movb	$42, 8(%r8)
	movl	$1, %eax
	jmp	LBB73_65
LBB73_50:
	testw	%si, %si
	je	LBB73_67
	movl	%r11d, %eax
	cwtd
	idivw	%si
	movl	%eax, %edi
	jmp	LBB73_64
LBB73_52:
	testb	%r12b, %r12b
	je	LBB73_67
	movl	%r9d, %eax
	cbtw
	idivb	%r12b
	movl	%eax, %edx
	jmp	LBB73_64
LBB73_54:
	testl	%r15d, %r15d
	je	LBB73_67
	cltd
	idivl	%r15d
	movl	%eax, %esi
	jmp	LBB73_64
LBB73_59:
	movl	%r14d, %eax
	xorl	%edx, %edx
	divl	%r10d
	movb	$8, %cl
	jmp	LBB73_63
LBB73_60:
	movl	%r14d, %eax
	xorl	%edx, %edx
	divl	%r10d
	jmp	LBB73_63
LBB73_61:
	movl	%r14d, %eax
	xorl	%edx, %edx
	divl	%r10d
LBB73_62:
	xorl	%ecx, %ecx
LBB73_63:
LBB73_64:
	movb	%cl, 8(%r8)
	movb	%dl, 9(%r8)
	movw	%di, 10(%r8)
	movl	%esi, 12(%r8)
	movq	%rax, 16(%r8)
	xorl	%eax, %eax
LBB73_65:
	movq	%rax, (%r8)
	movq	%r8, %rax
	popq	%rbx
	popq	%r12
	popq	%r14
	popq	%r15
	popq	%rbp
	retq
LBB73_66:
	leaq	_str.0(%rip), %rdi
	leaq	l___unnamed_95(%rip), %rdx
	movl	$25, %esi
	callq	__ZN4core9panicking5panic17h736ee47a631475c0E
LBB73_67:
	leaq	_str.0(%rip), %rdi
	leaq	l___unnamed_96(%rip), %rdx
	movl	$25, %esi
	callq	__ZN4core9panicking5panic17h736ee47a631475c0E
	.cfi_endproc
	.p2align	2, 0x90
	.data_region jt32
.set L73_0_set_13, LBB73_13-LJTI73_0
.set L73_0_set_2, LBB73_2-LJTI73_0
.set L73_0_set_11, LBB73_11-LJTI73_0
.set L73_0_set_4, LBB73_4-LJTI73_0
.set L73_0_set_12, LBB73_12-LJTI73_0
LJTI73_0:
	.long	L73_0_set_13
	.long	L73_0_set_2
	.long	L73_0_set_2
	.long	L73_0_set_11
	.long	L73_0_set_11
	.long	L73_0_set_4
	.long	L73_0_set_4
	.long	L73_0_set_12
	.long	L73_0_set_12
.set L73_1_set_7, LBB73_7-LJTI73_1
.set L73_1_set_32, LBB73_32-LJTI73_1
.set L73_1_set_19, LBB73_19-LJTI73_1
.set L73_1_set_22, LBB73_22-LJTI73_1
.set L73_1_set_14, LBB73_14-LJTI73_1
.set L73_1_set_36, LBB73_36-LJTI73_1
.set L73_1_set_40, LBB73_40-LJTI73_1
.set L73_1_set_26, LBB73_26-LJTI73_1
.set L73_1_set_45, LBB73_45-LJTI73_1
.set L73_1_set_17, LBB73_17-LJTI73_1
.set L73_1_set_43, LBB73_43-LJTI73_1
LJTI73_1:
	.long	L73_1_set_7
	.long	L73_1_set_32
	.long	L73_1_set_19
	.long	L73_1_set_22
	.long	L73_1_set_14
	.long	L73_1_set_36
	.long	L73_1_set_40
	.long	L73_1_set_26
	.long	L73_1_set_45
	.long	L73_1_set_17
	.long	L73_1_set_43
	.end_data_region

	.globl	__ZN5gimli4read5value5Value3rem17h7b5509870a463c80E
	.p2align	4, 0x90
__ZN5gimli4read5value5Value3rem17h7b5509870a463c80E:
	.cfi_startproc
	pushq	%rbp
	.cfi_def_cfa_offset 16
	.cfi_offset %rbp, -16
	movq	%rsp, %rbp
	.cfi_def_cfa_register %rbp
	pushq	%r15
	pushq	%r14
	pushq	%r13
	pushq	%r12
	pushq	%rbx
	pushq	%rax
	.cfi_offset %rbx, -56
	.cfi_offset %r12, -48
	.cfi_offset %r13, -40
	.cfi_offset %r14, -32
	.cfi_offset %r15, -24
	movq	%rdi, %r10
	movzbl	(%rdx), %edi
	cmpq	$8, %rdi
	ja	LBB74_5
	leaq	LJTI74_0(%rip), %rax
	movslq	(%rax,%rdi,4), %rbx
	addq	%rax, %rbx
	jmpq	*%rbx
LBB74_2:
	cmpb	$0, 1(%rdx)
	jne	LBB74_5
LBB74_3:
	movb	$41, 8(%r10)
	jmp	LBB74_49
LBB74_4:
	cmpl	$0, 4(%rdx)
	je	LBB74_3
LBB74_5:
	movzbl	(%rsi), %ebx
	cmpq	$10, %rbx
	ja	LBB74_48
	movb	1(%rsi), %r9b
	movzwl	2(%rsi), %r8d
	movl	4(%rsi), %r15d
	movq	8(%rsi), %rax
	movb	1(%rdx), %r13b
	movzwl	2(%rdx), %r12d
	movl	4(%rdx), %esi
	movq	8(%rdx), %r14
	leaq	LJTI74_1(%rip), %rdx
	movslq	(%rdx,%rbx,4), %rbx
	addq	%rdx, %rbx
	jmpq	*%rbx
LBB74_7:
	testb	%dil, %dil
	jne	LBB74_48
	andq	%rcx, %r14
	je	LBB74_66
	andq	%rcx, %rax
	movq	%rax, %rcx
	orq	%r14, %rcx
	shrq	$32, %rcx
	je	LBB74_64
	xorl	%edx, %edx
	divq	%r14
	movq	%rdx, %rax
	jmp	LBB74_11
LBB74_12:
	cmpw	$0, 2(%rdx)
	jne	LBB74_5
	jmp	LBB74_3
LBB74_13:
	cmpq	$0, 8(%rdx)
	jne	LBB74_5
	jmp	LBB74_3
LBB74_14:
	testq	%rcx, 8(%rdx)
	jne	LBB74_5
	jmp	LBB74_3
LBB74_15:
	cmpb	$4, %dil
	jne	LBB74_48
	testw	%r12w, %r12w
	je	LBB74_66
	movl	%r8d, %eax
	xorl	%edx, %edx
	divw	%r12w
	movb	$4, %r11b
	jmp	LBB74_60
LBB74_18:
	cmpb	$9, %dil
	je	LBB74_47
	jmp	LBB74_48
LBB74_19:
	cmpb	$2, %dil
	jne	LBB74_48
	testb	%r13b, %r13b
	je	LBB74_66
	movzbl	%r9b, %eax
	divb	%r13b
	movzbl	%ah, %edi
	movb	$2, %r11b
	jmp	LBB74_60
LBB74_22:
	cmpb	$3, %dil
	jne	LBB74_48
	movzwl	%r8w, %eax
	movb	$3, %r11b
	cmpl	$32768, %eax
	jne	LBB74_50
	cmpw	$-1, %r12w
	jne	LBB74_50
	xorl	%edx, %edx
	jmp	LBB74_60
LBB74_26:
	cmpb	$7, %dil
	jne	LBB74_48
	movabsq	$-9223372036854775808, %rcx
	movb	$7, %r11b
	cmpq	%rcx, %rax
	jne	LBB74_52
	cmpq	$-1, %r14
	jne	LBB74_52
	xorl	%eax, %eax
	jmp	LBB74_61
LBB74_30:
	cmpb	$1, %dil
	jne	LBB74_48
	movb	$1, %r11b
	cmpb	$-128, %r9b
	jne	LBB74_55
	cmpb	$-1, %r13b
	jne	LBB74_55
	xorl	%edi, %edi
	jmp	LBB74_60
LBB74_34:
	cmpb	$5, %dil
	jne	LBB74_48
	movb	$5, %r11b
	cmpl	$-2147483648, %r15d
	jne	LBB74_57
	cmpl	$-1, %esi
	jne	LBB74_57
	xorl	%ecx, %ecx
	jmp	LBB74_59
LBB74_38:
	cmpb	$6, %dil
	jne	LBB74_48
	testl	%esi, %esi
	je	LBB74_66
	movl	%r15d, %eax
	xorl	%edx, %edx
	divl	%esi
	movl	%edx, %ecx
	movb	$6, %r11b
	jmp	LBB74_59
LBB74_41:
	cmpb	$8, %dil
	jne	LBB74_48
	testq	%r14, %r14
	je	LBB74_66
	movq	%rax, %rcx
	orq	%r14, %rcx
	shrq	$32, %rcx
	je	LBB74_63
	xorl	%edx, %edx
	divq	%r14
	movq	%rdx, %rax
	jmp	LBB74_45
LBB74_46:
	cmpb	$10, %dil
	jne	LBB74_48
LBB74_47:
	movb	$43, 8(%r10)
	jmp	LBB74_49
LBB74_48:
	movb	$42, 8(%r10)
LBB74_49:
	movl	$1, %eax
	jmp	LBB74_62
LBB74_50:
	testw	%r12w, %r12w
	je	LBB74_67
	movl	%r8d, %eax
	cwtd
	idivw	%r12w
	jmp	LBB74_60
LBB74_52:
	testq	%r14, %r14
	je	LBB74_67
	movq	%rax, %rcx
	orq	%r14, %rcx
	shrq	$32, %rcx
	je	LBB74_65
	cqto
	idivq	%r14
	movq	%rdx, %rax
	jmp	LBB74_61
LBB74_55:
	testb	%r13b, %r13b
	je	LBB74_67
	movl	%r9d, %eax
	cbtw
	idivb	%r13b
	movsbl	%ah, %edi
	jmp	LBB74_60
LBB74_57:
	testl	%esi, %esi
	je	LBB74_67
	movl	%r15d, %eax
	cltd
	idivl	%esi
	movl	%edx, %ecx
LBB74_59:
LBB74_60:
LBB74_61:
	movb	%r11b, 8(%r10)
	movb	%dil, 9(%r10)
	movw	%dx, 10(%r10)
	movl	%ecx, 12(%r10)
	movq	%rax, 16(%r10)
	xorl	%eax, %eax
LBB74_62:
	movq	%rax, (%r10)
	movq	%r10, %rax
	addq	$8, %rsp
	popq	%rbx
	popq	%r12
	popq	%r13
	popq	%r14
	popq	%r15
	popq	%rbp
	retq
LBB74_63:
	xorl	%edx, %edx
	divl	%r14d
	movl	%edx, %eax
LBB74_45:
	movb	$8, %r11b
	jmp	LBB74_61
LBB74_64:
	xorl	%edx, %edx
	divl	%r14d
	movl	%edx, %eax
LBB74_11:
	xorl	%r11d, %r11d
	jmp	LBB74_61
LBB74_65:
	xorl	%edx, %edx
	divl	%r14d
	movl	%edx, %eax
	jmp	LBB74_61
LBB74_66:
	leaq	_str.2(%rip), %rdi
	leaq	l___unnamed_97(%rip), %rdx
	movl	$57, %esi
	callq	__ZN4core9panicking5panic17h736ee47a631475c0E
LBB74_67:
	leaq	_str.2(%rip), %rdi
	leaq	l___unnamed_98(%rip), %rdx
	movl	$57, %esi
	callq	__ZN4core9panicking5panic17h736ee47a631475c0E
	.cfi_endproc
	.p2align	2, 0x90
	.data_region jt32
.set L74_0_set_14, LBB74_14-LJTI74_0
.set L74_0_set_2, LBB74_2-LJTI74_0
.set L74_0_set_12, LBB74_12-LJTI74_0
.set L74_0_set_4, LBB74_4-LJTI74_0
.set L74_0_set_13, LBB74_13-LJTI74_0
LJTI74_0:
	.long	L74_0_set_14
	.long	L74_0_set_2
	.long	L74_0_set_2
	.long	L74_0_set_12
	.long	L74_0_set_12
	.long	L74_0_set_4
	.long	L74_0_set_4
	.long	L74_0_set_13
	.long	L74_0_set_13
.set L74_1_set_7, LBB74_7-LJTI74_1
.set L74_1_set_30, LBB74_30-LJTI74_1
.set L74_1_set_19, LBB74_19-LJTI74_1
.set L74_1_set_22, LBB74_22-LJTI74_1
.set L74_1_set_15, LBB74_15-LJTI74_1
.set L74_1_set_34, LBB74_34-LJTI74_1
.set L74_1_set_38, LBB74_38-LJTI74_1
.set L74_1_set_26, LBB74_26-LJTI74_1
.set L74_1_set_41, LBB74_41-LJTI74_1
.set L74_1_set_18, LBB74_18-LJTI74_1
.set L74_1_set_46, LBB74_46-LJTI74_1
LJTI74_1:
	.long	L74_1_set_7
	.long	L74_1_set_30
	.long	L74_1_set_19
	.long	L74_1_set_22
	.long	L74_1_set_15
	.long	L74_1_set_34
	.long	L74_1_set_38
	.long	L74_1_set_26
	.long	L74_1_set_41
	.long	L74_1_set_18
	.long	L74_1_set_46
	.end_data_region

	.globl	__ZN5gimli4read5value5Value3not17h4bbe16ad126552fdE
	.p2align	4, 0x90
__ZN5gimli4read5value5Value3not17h4bbe16ad126552fdE:
	.cfi_startproc
	pushq	%rbp
	.cfi_def_cfa_offset 16
	.cfi_offset %rbp, -16
	movq	%rsp, %rbp
	.cfi_def_cfa_register %rbp
	movq	%rdi, %rax
	movzbl	(%rsi), %ecx
	leaq	LJTI75_0(%rip), %rdi
	movslq	(%rdi,%rcx,4), %rcx
	addq	%rdi, %rcx
	jmpq	*%rcx
LBB75_16:
	movq	$43, 8(%rax)
	movl	$1, %ecx
	movq	%rcx, (%rax)
	popq	%rbp
	retq
LBB75_1:
	andq	8(%rsi), %rdx
	notq	%rdx
	xorl	%esi, %esi
	jmp	LBB75_14
LBB75_2:
	movb	1(%rsi), %cl
	notb	%cl
	movb	$1, %sil
	jmp	LBB75_15
LBB75_4:
	movb	1(%rsi), %cl
	notb	%cl
	movb	$2, %sil
	jmp	LBB75_15
LBB75_5:
	movzwl	2(%rsi), %edi
	notl	%edi
	movb	$3, %sil
	jmp	LBB75_15
LBB75_8:
	movzwl	2(%rsi), %edi
	notl	%edi
	movb	$4, %sil
	jmp	LBB75_15
LBB75_9:
	movl	4(%rsi), %r8d
	notl	%r8d
	movb	$5, %sil
	jmp	LBB75_15
LBB75_11:
	movl	4(%rsi), %r8d
	notl	%r8d
	movb	$6, %sil
	jmp	LBB75_15
LBB75_12:
	movq	8(%rsi), %rdx
	notq	%rdx
	movb	$7, %sil
	jmp	LBB75_14
LBB75_13:
	movq	8(%rsi), %rdx
	notq	%rdx
	movb	$8, %sil
LBB75_14:
LBB75_15:
	movb	%sil, 8(%rax)
	movb	%cl, 9(%rax)
	movw	%di, 10(%rax)
	movl	%r8d, 12(%rax)
	movq	%rdx, 16(%rax)
	xorl	%ecx, %ecx
	movq	%rcx, (%rax)
	popq	%rbp
	retq
	.cfi_endproc
	.p2align	2, 0x90
	.data_region jt32
.set L75_0_set_1, LBB75_1-LJTI75_0
.set L75_0_set_2, LBB75_2-LJTI75_0
.set L75_0_set_4, LBB75_4-LJTI75_0
.set L75_0_set_5, LBB75_5-LJTI75_0
.set L75_0_set_8, LBB75_8-LJTI75_0
.set L75_0_set_9, LBB75_9-LJTI75_0
.set L75_0_set_11, LBB75_11-LJTI75_0
.set L75_0_set_12, LBB75_12-LJTI75_0
.set L75_0_set_13, LBB75_13-LJTI75_0
.set L75_0_set_16, LBB75_16-LJTI75_0
LJTI75_0:
	.long	L75_0_set_1
	.long	L75_0_set_2
	.long	L75_0_set_4
	.long	L75_0_set_5
	.long	L75_0_set_8
	.long	L75_0_set_9
	.long	L75_0_set_11
	.long	L75_0_set_12
	.long	L75_0_set_13
	.long	L75_0_set_16
	.long	L75_0_set_16
	.end_data_region

	.section	__TEXT,__literal16,16byte_literals
	.p2align	4
LCPI76_0:
	.long	1127219200
	.long	1160773632
	.long	0
	.long	0
LCPI76_1:
	.quad	4841369599423283200
	.quad	4985484787499139072
	.section	__TEXT,__text,regular,pure_instructions
	.globl	__ZN5gimli4read5value5Value3and17h67c731e4a506ba5eE
	.p2align	4, 0x90
__ZN5gimli4read5value5Value3and17h67c731e4a506ba5eE:
	.cfi_startproc
	pushq	%rbp
	.cfi_def_cfa_offset 16
	.cfi_offset %rbp, -16
	movq	%rsp, %rbp
	.cfi_def_cfa_register %rbp
	pushq	%r15
	pushq	%r14
	pushq	%rbx
	.cfi_offset %rbx, -40
	.cfi_offset %r14, -32
	.cfi_offset %r15, -24
	movq	%rdi, %rax
	movb	(%rsi), %r8b
	movzbl	(%rdx), %edi
	cmpb	%dil, %r8b
	jne	LBB76_9
	movzbl	%r8b, %r9d
	cmpq	$8, %r9
	ja	LBB76_33
	movsbq	1(%rsi), %r11
	movswq	2(%rsi), %r14
	movslq	4(%rsi), %r15
	movq	8(%rsi), %r10
	leaq	LJTI76_0(%rip), %rsi
	movslq	(%rsi,%r9,4), %rbx
	addq	%rsi, %rbx
	jmpq	*%rbx
LBB76_10:
	andq	%rcx, %r10
	cmpq	$8, %rdi
	jbe	LBB76_12
	jmp	LBB76_33
LBB76_9:
	movb	$42, 8(%rax)
LBB76_34:
	movl	$1, %ecx
	jmp	LBB76_35
LBB76_3:
	movq	%r11, %r10
	cmpq	$8, %rdi
	jbe	LBB76_12
	jmp	LBB76_33
LBB76_4:
	movzbl	%r11b, %r10d
	cmpq	$8, %rdi
	jbe	LBB76_12
	jmp	LBB76_33
LBB76_5:
	movq	%r14, %r10
	cmpq	$8, %rdi
	jbe	LBB76_12
	jmp	LBB76_33
LBB76_6:
	movzwl	%r14w, %r10d
	cmpq	$8, %rdi
	jbe	LBB76_12
	jmp	LBB76_33
LBB76_7:
	movq	%r15, %r10
	cmpq	$8, %rdi
	jbe	LBB76_12
	jmp	LBB76_33
LBB76_8:
	movl	%r15d, %r10d
LBB76_11:
	cmpq	$8, %rdi
	ja	LBB76_33
LBB76_12:
	movsbq	1(%rdx), %r11
	movswq	2(%rdx), %r14
	movslq	4(%rdx), %rbx
	movq	8(%rdx), %rdx
	leaq	LJTI76_1(%rip), %rsi
	movslq	(%rsi,%rdi,4), %rdi
	addq	%rsi, %rdi
	jmpq	*%rdi
LBB76_20:
	andq	%r10, %rdx
	leaq	LJTI76_2(%rip), %rcx
	movslq	(%rcx,%r9,4), %rsi
	addq	%rcx, %rsi
	jmpq	*%rsi
LBB76_33:
	movq	$43, 8(%rax)
	jmp	LBB76_34
LBB76_13:
	andq	%rcx, %rdx
	andq	%r10, %rdx
	leaq	LJTI76_2(%rip), %rcx
	movslq	(%rcx,%r9,4), %rsi
	addq	%rcx, %rsi
	jmpq	*%rsi
LBB76_14:
	andq	%r10, %r11
	leaq	LJTI76_2(%rip), %rcx
	movslq	(%rcx,%r9,4), %rsi
	addq	%rcx, %rsi
	movq	%r11, %rdx
	jmpq	*%rsi
LBB76_15:
	movzbl	%r11b, %edx
	andq	%r10, %rdx
	leaq	LJTI76_2(%rip), %rcx
	movslq	(%rcx,%r9,4), %rsi
	addq	%rcx, %rsi
	jmpq	*%rsi
LBB76_16:
	andq	%r10, %r14
	leaq	LJTI76_2(%rip), %rcx
	movslq	(%rcx,%r9,4), %rsi
	addq	%rcx, %rsi
	movq	%r14, %rdx
	jmpq	*%rsi
LBB76_17:
	movzwl	%r14w, %edx
	andq	%r10, %rdx
	leaq	LJTI76_2(%rip), %rcx
	movslq	(%rcx,%r9,4), %rsi
	addq	%rcx, %rsi
	jmpq	*%rsi
LBB76_18:
	andq	%r10, %rbx
	leaq	LJTI76_2(%rip), %rcx
	movslq	(%rcx,%r9,4), %rsi
	addq	%rcx, %rsi
	movq	%rbx, %rdx
	jmpq	*%rsi
LBB76_19:
	movl	%ebx, %edx
	andq	%r10, %rdx
	leaq	LJTI76_2(%rip), %rcx
	movslq	(%rcx,%r9,4), %rsi
	addq	%rcx, %rsi
	jmpq	*%rsi
LBB76_22:
	movb	$1, %r8b
	jmp	LBB76_32
LBB76_23:
	movb	$2, %r8b
	jmp	LBB76_32
LBB76_24:
	movb	$3, %r8b
	jmp	LBB76_32
LBB76_25:
	movb	$4, %r8b
	jmp	LBB76_32
LBB76_26:
	movb	$5, %r8b
	jmp	LBB76_32
LBB76_27:
	movb	$6, %r8b
	jmp	LBB76_32
LBB76_28:
	testq	%rdx, %rdx
	js	LBB76_29
	vcvtsi2ss	%rdx, %xmm0, %xmm0
	jmp	LBB76_31
LBB76_21:
	vmovq	%rdx, %xmm0
	vpunpckldq	LCPI76_0(%rip), %xmm0, %xmm0
	vsubpd	LCPI76_1(%rip), %xmm0, %xmm0
	vhaddpd	%xmm0, %xmm0, %xmm0
	vmovq	%xmm0, %rdx
	movb	$10, %r8b
	jmp	LBB76_32
LBB76_29:
	movq	%rdx, %rcx
	shrq	%rcx
	andl	$1, %edx
	orq	%rcx, %rdx
	vcvtsi2ss	%rdx, %xmm0, %xmm0
	vaddss	%xmm0, %xmm0, %xmm0
LBB76_31:
	vmovd	%xmm0, %edx
	movb	$9, %r8b
LBB76_32:
	movb	%r8b, 8(%rax)
	movb	%dl, 9(%rax)
	movw	%dx, 10(%rax)
	movl	%edx, 12(%rax)
	movq	%rdx, 16(%rax)
	xorl	%ecx, %ecx
LBB76_35:
	movq	%rcx, (%rax)
	popq	%rbx
	popq	%r14
	popq	%r15
	popq	%rbp
	retq
	.cfi_endproc
	.p2align	2, 0x90
	.data_region jt32
.set L76_0_set_10, LBB76_10-LJTI76_0
.set L76_0_set_3, LBB76_3-LJTI76_0
.set L76_0_set_4, LBB76_4-LJTI76_0
.set L76_0_set_5, LBB76_5-LJTI76_0
.set L76_0_set_6, LBB76_6-LJTI76_0
.set L76_0_set_7, LBB76_7-LJTI76_0
.set L76_0_set_8, LBB76_8-LJTI76_0
.set L76_0_set_11, LBB76_11-LJTI76_0
LJTI76_0:
	.long	L76_0_set_10
	.long	L76_0_set_3
	.long	L76_0_set_4
	.long	L76_0_set_5
	.long	L76_0_set_6
	.long	L76_0_set_7
	.long	L76_0_set_8
	.long	L76_0_set_11
	.long	L76_0_set_11
.set L76_1_set_13, LBB76_13-LJTI76_1
.set L76_1_set_14, LBB76_14-LJTI76_1
.set L76_1_set_15, LBB76_15-LJTI76_1
.set L76_1_set_16, LBB76_16-LJTI76_1
.set L76_1_set_17, LBB76_17-LJTI76_1
.set L76_1_set_18, LBB76_18-LJTI76_1
.set L76_1_set_19, LBB76_19-LJTI76_1
.set L76_1_set_20, LBB76_20-LJTI76_1
LJTI76_1:
	.long	L76_1_set_13
	.long	L76_1_set_14
	.long	L76_1_set_15
	.long	L76_1_set_16
	.long	L76_1_set_17
	.long	L76_1_set_18
	.long	L76_1_set_19
	.long	L76_1_set_20
	.long	L76_1_set_20
.set L76_2_set_32, LBB76_32-LJTI76_2
.set L76_2_set_22, LBB76_22-LJTI76_2
.set L76_2_set_23, LBB76_23-LJTI76_2
.set L76_2_set_24, LBB76_24-LJTI76_2
.set L76_2_set_25, LBB76_25-LJTI76_2
.set L76_2_set_26, LBB76_26-LJTI76_2
.set L76_2_set_27, LBB76_27-LJTI76_2
.set L76_2_set_28, LBB76_28-LJTI76_2
.set L76_2_set_21, LBB76_21-LJTI76_2
LJTI76_2:
	.long	L76_2_set_32
	.long	L76_2_set_22
	.long	L76_2_set_23
	.long	L76_2_set_24
	.long	L76_2_set_25
	.long	L76_2_set_26
	.long	L76_2_set_27
	.long	L76_2_set_32
	.long	L76_2_set_32
	.long	L76_2_set_28
	.long	L76_2_set_21
	.end_data_region

	.section	__TEXT,__literal16,16byte_literals
	.p2align	4
LCPI77_0:
	.long	1127219200
	.long	1160773632
	.long	0
	.long	0
LCPI77_1:
	.quad	4841369599423283200
	.quad	4985484787499139072
	.section	__TEXT,__text,regular,pure_instructions
	.globl	__ZN5gimli4read5value5Value2or17h1a1fdd5baf8d0fd9E
	.p2align	4, 0x90
__ZN5gimli4read5value5Value2or17h1a1fdd5baf8d0fd9E:
	.cfi_startproc
	pushq	%rbp
	.cfi_def_cfa_offset 16
	.cfi_offset %rbp, -16
	movq	%rsp, %rbp
	.cfi_def_cfa_register %rbp
	pushq	%r15
	pushq	%r14
	pushq	%rbx
	.cfi_offset %rbx, -40
	.cfi_offset %r14, -32
	.cfi_offset %r15, -24
	movq	%rdi, %rax
	movb	(%rsi), %r8b
	movzbl	(%rdx), %edi
	cmpb	%dil, %r8b
	jne	LBB77_9
	movzbl	%r8b, %r9d
	cmpq	$8, %r9
	ja	LBB77_33
	movsbq	1(%rsi), %r11
	movswq	2(%rsi), %r14
	movslq	4(%rsi), %r15
	movq	8(%rsi), %r10
	leaq	LJTI77_0(%rip), %rsi
	movslq	(%rsi,%r9,4), %rbx
	addq	%rsi, %rbx
	jmpq	*%rbx
LBB77_10:
	andq	%rcx, %r10
	cmpq	$8, %rdi
	jbe	LBB77_12
	jmp	LBB77_33
LBB77_9:
	movb	$42, 8(%rax)
LBB77_34:
	movl	$1, %ecx
	jmp	LBB77_35
LBB77_3:
	movq	%r11, %r10
	cmpq	$8, %rdi
	jbe	LBB77_12
	jmp	LBB77_33
LBB77_4:
	movzbl	%r11b, %r10d
	cmpq	$8, %rdi
	jbe	LBB77_12
	jmp	LBB77_33
LBB77_5:
	movq	%r14, %r10
	cmpq	$8, %rdi
	jbe	LBB77_12
	jmp	LBB77_33
LBB77_6:
	movzwl	%r14w, %r10d
	cmpq	$8, %rdi
	jbe	LBB77_12
	jmp	LBB77_33
LBB77_7:
	movq	%r15, %r10
	cmpq	$8, %rdi
	jbe	LBB77_12
	jmp	LBB77_33
LBB77_8:
	movl	%r15d, %r10d
LBB77_11:
	cmpq	$8, %rdi
	ja	LBB77_33
LBB77_12:
	movsbq	1(%rdx), %r11
	movswq	2(%rdx), %r14
	movslq	4(%rdx), %rbx
	movq	8(%rdx), %rdx
	leaq	LJTI77_1(%rip), %rsi
	movslq	(%rsi,%rdi,4), %rdi
	addq	%rsi, %rdi
	jmpq	*%rdi
LBB77_20:
	orq	%r10, %rdx
	leaq	LJTI77_2(%rip), %rcx
	movslq	(%rcx,%r9,4), %rsi
	addq	%rcx, %rsi
	jmpq	*%rsi
LBB77_33:
	movq	$43, 8(%rax)
	jmp	LBB77_34
LBB77_13:
	andq	%rcx, %rdx
	orq	%r10, %rdx
	leaq	LJTI77_2(%rip), %rcx
	movslq	(%rcx,%r9,4), %rsi
	addq	%rcx, %rsi
	jmpq	*%rsi
LBB77_14:
	orq	%r10, %r11
	leaq	LJTI77_2(%rip), %rcx
	movslq	(%rcx,%r9,4), %rsi
	addq	%rcx, %rsi
	movq	%r11, %rdx
	jmpq	*%rsi
LBB77_15:
	movzbl	%r11b, %edx
	orq	%r10, %rdx
	leaq	LJTI77_2(%rip), %rcx
	movslq	(%rcx,%r9,4), %rsi
	addq	%rcx, %rsi
	jmpq	*%rsi
LBB77_16:
	orq	%r10, %r14
	leaq	LJTI77_2(%rip), %rcx
	movslq	(%rcx,%r9,4), %rsi
	addq	%rcx, %rsi
	movq	%r14, %rdx
	jmpq	*%rsi
LBB77_17:
	movzwl	%r14w, %edx
	orq	%r10, %rdx
	leaq	LJTI77_2(%rip), %rcx
	movslq	(%rcx,%r9,4), %rsi
	addq	%rcx, %rsi
	jmpq	*%rsi
LBB77_18:
	orq	%r10, %rbx
	leaq	LJTI77_2(%rip), %rcx
	movslq	(%rcx,%r9,4), %rsi
	addq	%rcx, %rsi
	movq	%rbx, %rdx
	jmpq	*%rsi
LBB77_19:
	movl	%ebx, %edx
	orq	%r10, %rdx
	leaq	LJTI77_2(%rip), %rcx
	movslq	(%rcx,%r9,4), %rsi
	addq	%rcx, %rsi
	jmpq	*%rsi
LBB77_22:
	movb	$1, %r8b
	jmp	LBB77_32
LBB77_23:
	movb	$2, %r8b
	jmp	LBB77_32
LBB77_24:
	movb	$3, %r8b
	jmp	LBB77_32
LBB77_25:
	movb	$4, %r8b
	jmp	LBB77_32
LBB77_26:
	movb	$5, %r8b
	jmp	LBB77_32
LBB77_27:
	movb	$6, %r8b
	jmp	LBB77_32
LBB77_28:
	testq	%rdx, %rdx
	js	LBB77_29
	vcvtsi2ss	%rdx, %xmm0, %xmm0
	jmp	LBB77_31
LBB77_21:
	vmovq	%rdx, %xmm0
	vpunpckldq	LCPI77_0(%rip), %xmm0, %xmm0
	vsubpd	LCPI77_1(%rip), %xmm0, %xmm0
	vhaddpd	%xmm0, %xmm0, %xmm0
	vmovq	%xmm0, %rdx
	movb	$10, %r8b
	jmp	LBB77_32
LBB77_29:
	movq	%rdx, %rcx
	shrq	%rcx
	andl	$1, %edx
	orq	%rcx, %rdx
	vcvtsi2ss	%rdx, %xmm0, %xmm0
	vaddss	%xmm0, %xmm0, %xmm0
LBB77_31:
	vmovd	%xmm0, %edx
	movb	$9, %r8b
LBB77_32:
	movb	%r8b, 8(%rax)
	movb	%dl, 9(%rax)
	movw	%dx, 10(%rax)
	movl	%edx, 12(%rax)
	movq	%rdx, 16(%rax)
	xorl	%ecx, %ecx
LBB77_35:
	movq	%rcx, (%rax)
	popq	%rbx
	popq	%r14
	popq	%r15
	popq	%rbp
	retq
	.cfi_endproc
	.p2align	2, 0x90
	.data_region jt32
.set L77_0_set_10, LBB77_10-LJTI77_0
.set L77_0_set_3, LBB77_3-LJTI77_0
.set L77_0_set_4, LBB77_4-LJTI77_0
.set L77_0_set_5, LBB77_5-LJTI77_0
.set L77_0_set_6, LBB77_6-LJTI77_0
.set L77_0_set_7, LBB77_7-LJTI77_0
.set L77_0_set_8, LBB77_8-LJTI77_0
.set L77_0_set_11, LBB77_11-LJTI77_0
LJTI77_0:
	.long	L77_0_set_10
	.long	L77_0_set_3
	.long	L77_0_set_4
	.long	L77_0_set_5
	.long	L77_0_set_6
	.long	L77_0_set_7
	.long	L77_0_set_8
	.long	L77_0_set_11
	.long	L77_0_set_11
.set L77_1_set_13, LBB77_13-LJTI77_1
.set L77_1_set_14, LBB77_14-LJTI77_1
.set L77_1_set_15, LBB77_15-LJTI77_1
.set L77_1_set_16, LBB77_16-LJTI77_1
.set L77_1_set_17, LBB77_17-LJTI77_1
.set L77_1_set_18, LBB77_18-LJTI77_1
.set L77_1_set_19, LBB77_19-LJTI77_1
.set L77_1_set_20, LBB77_20-LJTI77_1
LJTI77_1:
	.long	L77_1_set_13
	.long	L77_1_set_14
	.long	L77_1_set_15
	.long	L77_1_set_16
	.long	L77_1_set_17
	.long	L77_1_set_18
	.long	L77_1_set_19
	.long	L77_1_set_20
	.long	L77_1_set_20
.set L77_2_set_32, LBB77_32-LJTI77_2
.set L77_2_set_22, LBB77_22-LJTI77_2
.set L77_2_set_23, LBB77_23-LJTI77_2
.set L77_2_set_24, LBB77_24-LJTI77_2
.set L77_2_set_25, LBB77_25-LJTI77_2
.set L77_2_set_26, LBB77_26-LJTI77_2
.set L77_2_set_27, LBB77_27-LJTI77_2
.set L77_2_set_28, LBB77_28-LJTI77_2
.set L77_2_set_21, LBB77_21-LJTI77_2
LJTI77_2:
	.long	L77_2_set_32
	.long	L77_2_set_22
	.long	L77_2_set_23
	.long	L77_2_set_24
	.long	L77_2_set_25
	.long	L77_2_set_26
	.long	L77_2_set_27
	.long	L77_2_set_32
	.long	L77_2_set_32
	.long	L77_2_set_28
	.long	L77_2_set_21
	.end_data_region

	.section	__TEXT,__literal16,16byte_literals
	.p2align	4
LCPI78_0:
	.long	1127219200
	.long	1160773632
	.long	0
	.long	0
LCPI78_1:
	.quad	4841369599423283200
	.quad	4985484787499139072
	.section	__TEXT,__text,regular,pure_instructions
	.globl	__ZN5gimli4read5value5Value3xor17h6f6bd0b1ee602185E
	.p2align	4, 0x90
__ZN5gimli4read5value5Value3xor17h6f6bd0b1ee602185E:
	.cfi_startproc
	pushq	%rbp
	.cfi_def_cfa_offset 16
	.cfi_offset %rbp, -16
	movq	%rsp, %rbp
	.cfi_def_cfa_register %rbp
	pushq	%r15
	pushq	%r14
	pushq	%rbx
	.cfi_offset %rbx, -40
	.cfi_offset %r14, -32
	.cfi_offset %r15, -24
	movq	%rdi, %rax
	movb	(%rsi), %r8b
	movzbl	(%rdx), %edi
	cmpb	%dil, %r8b
	jne	LBB78_9
	movzbl	%r8b, %r9d
	cmpq	$8, %r9
	ja	LBB78_33
	movsbq	1(%rsi), %r11
	movswq	2(%rsi), %r14
	movslq	4(%rsi), %r15
	movq	8(%rsi), %r10
	leaq	LJTI78_0(%rip), %rsi
	movslq	(%rsi,%r9,4), %rbx
	addq	%rsi, %rbx
	jmpq	*%rbx
LBB78_10:
	andq	%rcx, %r10
	cmpq	$8, %rdi
	jbe	LBB78_12
	jmp	LBB78_33
LBB78_9:
	movb	$42, 8(%rax)
LBB78_34:
	movl	$1, %ecx
	jmp	LBB78_35
LBB78_3:
	movq	%r11, %r10
	cmpq	$8, %rdi
	jbe	LBB78_12
	jmp	LBB78_33
LBB78_4:
	movzbl	%r11b, %r10d
	cmpq	$8, %rdi
	jbe	LBB78_12
	jmp	LBB78_33
LBB78_5:
	movq	%r14, %r10
	cmpq	$8, %rdi
	jbe	LBB78_12
	jmp	LBB78_33
LBB78_6:
	movzwl	%r14w, %r10d
	cmpq	$8, %rdi
	jbe	LBB78_12
	jmp	LBB78_33
LBB78_7:
	movq	%r15, %r10
	cmpq	$8, %rdi
	jbe	LBB78_12
	jmp	LBB78_33
LBB78_8:
	movl	%r15d, %r10d
LBB78_11:
	cmpq	$8, %rdi
	ja	LBB78_33
LBB78_12:
	movsbq	1(%rdx), %r11
	movswq	2(%rdx), %r14
	movslq	4(%rdx), %rbx
	movq	8(%rdx), %rdx
	leaq	LJTI78_1(%rip), %rsi
	movslq	(%rsi,%rdi,4), %rdi
	addq	%rsi, %rdi
	jmpq	*%rdi
LBB78_20:
	xorq	%r10, %rdx
	leaq	LJTI78_2(%rip), %rcx
	movslq	(%rcx,%r9,4), %rsi
	addq	%rcx, %rsi
	jmpq	*%rsi
LBB78_33:
	movq	$43, 8(%rax)
	jmp	LBB78_34
LBB78_13:
	andq	%rcx, %rdx
	xorq	%r10, %rdx
	leaq	LJTI78_2(%rip), %rcx
	movslq	(%rcx,%r9,4), %rsi
	addq	%rcx, %rsi
	jmpq	*%rsi
LBB78_14:
	xorq	%r10, %r11
	leaq	LJTI78_2(%rip), %rcx
	movslq	(%rcx,%r9,4), %rsi
	addq	%rcx, %rsi
	movq	%r11, %rdx
	jmpq	*%rsi
LBB78_15:
	movzbl	%r11b, %edx
	xorq	%r10, %rdx
	leaq	LJTI78_2(%rip), %rcx
	movslq	(%rcx,%r9,4), %rsi
	addq	%rcx, %rsi
	jmpq	*%rsi
LBB78_16:
	xorq	%r10, %r14
	leaq	LJTI78_2(%rip), %rcx
	movslq	(%rcx,%r9,4), %rsi
	addq	%rcx, %rsi
	movq	%r14, %rdx
	jmpq	*%rsi
LBB78_17:
	movzwl	%r14w, %edx
	xorq	%r10, %rdx
	leaq	LJTI78_2(%rip), %rcx
	movslq	(%rcx,%r9,4), %rsi
	addq	%rcx, %rsi
	jmpq	*%rsi
LBB78_18:
	xorq	%r10, %rbx
	leaq	LJTI78_2(%rip), %rcx
	movslq	(%rcx,%r9,4), %rsi
	addq	%rcx, %rsi
	movq	%rbx, %rdx
	jmpq	*%rsi
LBB78_19:
	movl	%ebx, %edx
	xorq	%r10, %rdx
	leaq	LJTI78_2(%rip), %rcx
	movslq	(%rcx,%r9,4), %rsi
	addq	%rcx, %rsi
	jmpq	*%rsi
LBB78_22:
	movb	$1, %r8b
	jmp	LBB78_32
LBB78_23:
	movb	$2, %r8b
	jmp	LBB78_32
LBB78_24:
	movb	$3, %r8b
	jmp	LBB78_32
LBB78_25:
	movb	$4, %r8b
	jmp	LBB78_32
LBB78_26:
	movb	$5, %r8b
	jmp	LBB78_32
LBB78_27:
	movb	$6, %r8b
	jmp	LBB78_32
LBB78_28:
	testq	%rdx, %rdx
	js	LBB78_29
	vcvtsi2ss	%rdx, %xmm0, %xmm0
	jmp	LBB78_31
LBB78_21:
	vmovq	%rdx, %xmm0
	vpunpckldq	LCPI78_0(%rip), %xmm0, %xmm0
	vsubpd	LCPI78_1(%rip), %xmm0, %xmm0
	vhaddpd	%xmm0, %xmm0, %xmm0
	vmovq	%xmm0, %rdx
	movb	$10, %r8b
	jmp	LBB78_32
LBB78_29:
	movq	%rdx, %rcx
	shrq	%rcx
	andl	$1, %edx
	orq	%rcx, %rdx
	vcvtsi2ss	%rdx, %xmm0, %xmm0
	vaddss	%xmm0, %xmm0, %xmm0
LBB78_31:
	vmovd	%xmm0, %edx
	movb	$9, %r8b
LBB78_32:
	movb	%r8b, 8(%rax)
	movb	%dl, 9(%rax)
	movw	%dx, 10(%rax)
	movl	%edx, 12(%rax)
	movq	%rdx, 16(%rax)
	xorl	%ecx, %ecx
LBB78_35:
	movq	%rcx, (%rax)
	popq	%rbx
	popq	%r14
	popq	%r15
	popq	%rbp
	retq
	.cfi_endproc
	.p2align	2, 0x90
	.data_region jt32
.set L78_0_set_10, LBB78_10-LJTI78_0
.set L78_0_set_3, LBB78_3-LJTI78_0
.set L78_0_set_4, LBB78_4-LJTI78_0
.set L78_0_set_5, LBB78_5-LJTI78_0
.set L78_0_set_6, LBB78_6-LJTI78_0
.set L78_0_set_7, LBB78_7-LJTI78_0
.set L78_0_set_8, LBB78_8-LJTI78_0
.set L78_0_set_11, LBB78_11-LJTI78_0
LJTI78_0:
	.long	L78_0_set_10
	.long	L78_0_set_3
	.long	L78_0_set_4
	.long	L78_0_set_5
	.long	L78_0_set_6
	.long	L78_0_set_7
	.long	L78_0_set_8
	.long	L78_0_set_11
	.long	L78_0_set_11
.set L78_1_set_13, LBB78_13-LJTI78_1
.set L78_1_set_14, LBB78_14-LJTI78_1
.set L78_1_set_15, LBB78_15-LJTI78_1
.set L78_1_set_16, LBB78_16-LJTI78_1
.set L78_1_set_17, LBB78_17-LJTI78_1
.set L78_1_set_18, LBB78_18-LJTI78_1
.set L78_1_set_19, LBB78_19-LJTI78_1
.set L78_1_set_20, LBB78_20-LJTI78_1
LJTI78_1:
	.long	L78_1_set_13
	.long	L78_1_set_14
	.long	L78_1_set_15
	.long	L78_1_set_16
	.long	L78_1_set_17
	.long	L78_1_set_18
	.long	L78_1_set_19
	.long	L78_1_set_20
	.long	L78_1_set_20
.set L78_2_set_32, LBB78_32-LJTI78_2
.set L78_2_set_22, LBB78_22-LJTI78_2
.set L78_2_set_23, LBB78_23-LJTI78_2
.set L78_2_set_24, LBB78_24-LJTI78_2
.set L78_2_set_25, LBB78_25-LJTI78_2
.set L78_2_set_26, LBB78_26-LJTI78_2
.set L78_2_set_27, LBB78_27-LJTI78_2
.set L78_2_set_28, LBB78_28-LJTI78_2
.set L78_2_set_21, LBB78_21-LJTI78_2
LJTI78_2:
	.long	L78_2_set_32
	.long	L78_2_set_22
	.long	L78_2_set_23
	.long	L78_2_set_24
	.long	L78_2_set_25
	.long	L78_2_set_26
	.long	L78_2_set_27
	.long	L78_2_set_32
	.long	L78_2_set_32
	.long	L78_2_set_28
	.long	L78_2_set_21
	.end_data_region

	.globl	__ZN5gimli4read5value5Value3shl17hfd70a0becc145617E
	.p2align	4, 0x90
__ZN5gimli4read5value5Value3shl17hfd70a0becc145617E:
	.cfi_startproc
	pushq	%rbp
	.cfi_def_cfa_offset 16
	.cfi_offset %rbp, -16
	movq	%rsp, %rbp
	.cfi_def_cfa_register %rbp
	movq	%rdi, %rax
	movzbl	(%rdx), %edi
	cmpq	$8, %rdi
	ja	LBB79_11
	movq	%rcx, %r8
	movsbq	1(%rdx), %r9
	movswq	2(%rdx), %r10
	movslq	4(%rdx), %r11
	movq	8(%rdx), %rcx
	leaq	LJTI79_0(%rip), %rdx
	movslq	(%rdx,%rdi,4), %rdi
	addq	%rdx, %rdi
	jmpq	*%rdi
LBB79_10:
	movq	%r9, %rcx
	testb	%r9b, %r9b
	jns	LBB79_8
	jmp	LBB79_11
LBB79_3:
	movq	%r10, %rcx
	testw	%r10w, %r10w
	jns	LBB79_8
	jmp	LBB79_11
LBB79_2:
	movzbl	%r9b, %ecx
	movzbl	(%rsi), %edx
	cmpq	$8, %rdx
	jbe	LBB79_9
	jmp	LBB79_12
LBB79_6:
	movl	%r11d, %ecx
	movzbl	(%rsi), %edx
	cmpq	$8, %rdx
	jbe	LBB79_9
	jmp	LBB79_12
LBB79_4:
	movzwl	%r10w, %ecx
	movzbl	(%rsi), %edx
	cmpq	$8, %rdx
	jbe	LBB79_9
	jmp	LBB79_12
LBB79_5:
	movq	%r11, %rcx
	testl	%r11d, %r11d
	js	LBB79_11
LBB79_8:
	movzbl	(%rsi), %edx
	cmpq	$8, %rdx
	ja	LBB79_12
LBB79_9:
	leaq	LJTI79_1(%rip), %rdi
	movslq	(%rdi,%rdx,4), %rdx
	addq	%rdi, %rdx
	jmpq	*%rdx
LBB79_13:
	lzcntq	%r8, %rdi
	movl	$64, %edx
	subl	%edi, %edx
	jb	LBB79_47
	movl	%edx, %edx
	cmpq	%rdx, %rcx
	jae	LBB79_15
	cmpq	$63, %rcx
	ja	LBB79_46
	andq	8(%rsi), %r8
	shlxq	%rcx, %r8, %rcx
	xorl	%r8d, %r8d
	jmp	LBB79_41
LBB79_7:
	testq	%rcx, %rcx
	jns	LBB79_8
LBB79_11:
	movq	$45, 8(%rax)
	movl	$1, %ecx
	movq	%rcx, (%rax)
	popq	%rbp
	retq
LBB79_28:
	movb	$4, %r8b
	cmpq	$15, %rcx
	jbe	LBB79_29
LBB79_26:
	xorl	%edi, %edi
	jmp	LBB79_43
LBB79_22:
	movb	$2, %r8b
	cmpq	$7, %rcx
	jbe	LBB79_23
LBB79_20:
	xorl	%edx, %edx
	jmp	LBB79_44
LBB79_24:
	movb	$3, %r8b
	cmpq	$15, %rcx
	ja	LBB79_26
LBB79_29:
	movzwl	2(%rsi), %edx
	andb	$15, %cl
	shlxl	%ecx, %edx, %edi
	jmp	LBB79_43
LBB79_36:
	movb	$7, %r8b
	cmpq	$63, %rcx
	jbe	LBB79_40
LBB79_38:
	xorl	%ecx, %ecx
	jmp	LBB79_41
LBB79_18:
	movb	$1, %r8b
	cmpq	$7, %rcx
	ja	LBB79_20
LBB79_23:
	movb	1(%rsi), %dl
	andb	$7, %cl
	shlb	%cl, %dl
	jmp	LBB79_44
LBB79_30:
	movb	$5, %r8b
	cmpq	$31, %rcx
	jbe	LBB79_35
LBB79_32:
	xorl	%esi, %esi
	jmp	LBB79_42
LBB79_34:
	movb	$6, %r8b
	cmpq	$31, %rcx
	ja	LBB79_32
LBB79_35:
	shlxl	%ecx, 4(%rsi), %esi
	jmp	LBB79_42
LBB79_39:
	movb	$8, %r8b
	cmpq	$63, %rcx
	ja	LBB79_38
LBB79_40:
	shlxq	%rcx, 8(%rsi), %rcx
LBB79_41:
LBB79_42:
LBB79_43:
LBB79_44:
	movb	%r8b, 8(%rax)
	movb	%dl, 9(%rax)
	movw	%di, 10(%rax)
	movl	%esi, 12(%rax)
	movq	%rcx, 16(%rax)
	xorl	%ecx, %ecx
	movq	%rcx, (%rax)
	popq	%rbp
	retq
LBB79_12:
	movb	$43, 8(%rax)
	movl	$1, %ecx
	movq	%rcx, (%rax)
	popq	%rbp
	retq
LBB79_15:
	xorl	%ecx, %ecx
	xorl	%r8d, %r8d
	jmp	LBB79_44
LBB79_47:
	leaq	_str.5(%rip), %rdi
	leaq	l___unnamed_94(%rip), %rdx
	movl	$33, %esi
	callq	__ZN4core9panicking5panic17h736ee47a631475c0E
LBB79_46:
	leaq	_str.7(%rip), %rdi
	leaq	l___unnamed_99(%rip), %rdx
	movl	$35, %esi
	callq	__ZN4core9panicking5panic17h736ee47a631475c0E
	.cfi_endproc
	.p2align	2, 0x90
	.data_region jt32
.set L79_0_set_8, LBB79_8-LJTI79_0
.set L79_0_set_10, LBB79_10-LJTI79_0
.set L79_0_set_2, LBB79_2-LJTI79_0
.set L79_0_set_3, LBB79_3-LJTI79_0
.set L79_0_set_4, LBB79_4-LJTI79_0
.set L79_0_set_5, LBB79_5-LJTI79_0
.set L79_0_set_6, LBB79_6-LJTI79_0
.set L79_0_set_7, LBB79_7-LJTI79_0
LJTI79_0:
	.long	L79_0_set_8
	.long	L79_0_set_10
	.long	L79_0_set_2
	.long	L79_0_set_3
	.long	L79_0_set_4
	.long	L79_0_set_5
	.long	L79_0_set_6
	.long	L79_0_set_7
	.long	L79_0_set_8
.set L79_1_set_13, LBB79_13-LJTI79_1
.set L79_1_set_18, LBB79_18-LJTI79_1
.set L79_1_set_22, LBB79_22-LJTI79_1
.set L79_1_set_24, LBB79_24-LJTI79_1
.set L79_1_set_28, LBB79_28-LJTI79_1
.set L79_1_set_30, LBB79_30-LJTI79_1
.set L79_1_set_34, LBB79_34-LJTI79_1
.set L79_1_set_36, LBB79_36-LJTI79_1
.set L79_1_set_39, LBB79_39-LJTI79_1
LJTI79_1:
	.long	L79_1_set_13
	.long	L79_1_set_18
	.long	L79_1_set_22
	.long	L79_1_set_24
	.long	L79_1_set_28
	.long	L79_1_set_30
	.long	L79_1_set_34
	.long	L79_1_set_36
	.long	L79_1_set_39
	.end_data_region

	.globl	__ZN5gimli4read5value5Value3shr17h9c8802211b134591E
	.p2align	4, 0x90
__ZN5gimli4read5value5Value3shr17h9c8802211b134591E:
	.cfi_startproc
	pushq	%rbp
	.cfi_def_cfa_offset 16
	.cfi_offset %rbp, -16
	movq	%rsp, %rbp
	.cfi_def_cfa_register %rbp
	movq	%rdi, %rax
	movzbl	(%rdx), %edi
	cmpq	$8, %rdi
	ja	LBB80_11
	movq	%rcx, %r8
	movsbq	1(%rdx), %r9
	movswq	2(%rdx), %r10
	movslq	4(%rdx), %r11
	movq	8(%rdx), %rcx
	leaq	LJTI80_0(%rip), %rdx
	movslq	(%rdx,%rdi,4), %rdi
	addq	%rdx, %rdi
	jmpq	*%rdi
LBB80_10:
	movq	%r9, %rcx
	testb	%r9b, %r9b
	jns	LBB80_8
	jmp	LBB80_11
LBB80_3:
	movq	%r10, %rcx
	testw	%r10w, %r10w
	jns	LBB80_8
	jmp	LBB80_11
LBB80_2:
	movzbl	%r9b, %ecx
	movzbl	(%rsi), %edx
	cmpq	$8, %rdx
	jbe	LBB80_9
	jmp	LBB80_12
LBB80_6:
	movl	%r11d, %ecx
	movzbl	(%rsi), %edx
	cmpq	$8, %rdx
	jbe	LBB80_9
	jmp	LBB80_12
LBB80_4:
	movzwl	%r10w, %ecx
	movzbl	(%rsi), %edx
	cmpq	$8, %rdx
	jbe	LBB80_9
	jmp	LBB80_12
LBB80_5:
	movq	%r11, %rcx
	testl	%r11d, %r11d
	js	LBB80_11
LBB80_8:
	movzbl	(%rsi), %edx
	cmpq	$8, %rdx
	ja	LBB80_12
LBB80_9:
	leaq	LJTI80_1(%rip), %rdi
	movslq	(%rdi,%rdx,4), %rdx
	addq	%rdi, %rdx
	jmpq	*%rdx
LBB80_36:
	movb	$44, 8(%rax)
	movl	$1, %ecx
	movq	%rcx, (%rax)
	popq	%rbp
	retq
LBB80_7:
	testq	%rcx, %rcx
	jns	LBB80_8
LBB80_11:
	movq	$45, 8(%rax)
	movl	$1, %ecx
	movq	%rcx, (%rax)
	popq	%rbp
	retq
LBB80_27:
	movb	$6, %dl
	cmpq	$31, %rcx
	jbe	LBB80_31
	xorl	%ecx, %ecx
	jmp	LBB80_16
LBB80_19:
	movb	$2, %dl
	cmpq	$7, %rcx
	jbe	LBB80_22
	xorl	%esi, %esi
	jmp	LBB80_16
LBB80_23:
	movb	$4, %dl
	cmpq	$15, %rcx
	jbe	LBB80_26
	xorl	%edi, %edi
	jmp	LBB80_16
LBB80_13:
	lzcntq	%r8, %rdi
	movl	$64, %edx
	subl	%edi, %edx
	jb	LBB80_40
	movl	%edx, %edx
	cmpq	%rdx, %rcx
	jae	LBB80_15
	cmpq	$63, %rcx
	ja	LBB80_39
	andq	8(%rsi), %r8
	shrxq	%rcx, %r8, %r8
	xorl	%edx, %edx
	jmp	LBB80_16
LBB80_32:
	movb	$8, %dl
	cmpq	$63, %rcx
	jbe	LBB80_35
	xorl	%r8d, %r8d
	jmp	LBB80_16
LBB80_12:
	movb	$43, 8(%rax)
	movl	$1, %ecx
	movq	%rcx, (%rax)
	popq	%rbp
	retq
LBB80_31:
	shrxl	%ecx, 4(%rsi), %ecx
	jmp	LBB80_16
LBB80_22:
	movb	1(%rsi), %sil
	andb	$7, %cl
	shrb	%cl, %sil
	jmp	LBB80_16
LBB80_26:
	movzwl	2(%rsi), %esi
	andb	$15, %cl
	shrxl	%ecx, %esi, %edi
	jmp	LBB80_16
LBB80_35:
	shrxq	%rcx, 8(%rsi), %r8
	jmp	LBB80_16
LBB80_15:
	xorl	%r8d, %r8d
	xorl	%edx, %edx
LBB80_16:
	movb	%dl, 8(%rax)
	movb	%sil, 9(%rax)
	movw	%di, 10(%rax)
	movl	%ecx, 12(%rax)
	movq	%r8, 16(%rax)
	xorl	%ecx, %ecx
	movq	%rcx, (%rax)
	popq	%rbp
	retq
LBB80_40:
	leaq	_str.5(%rip), %rdi
	leaq	l___unnamed_94(%rip), %rdx
	movl	$33, %esi
	callq	__ZN4core9panicking5panic17h736ee47a631475c0E
LBB80_39:
	leaq	_str.8(%rip), %rdi
	leaq	l___unnamed_100(%rip), %rdx
	movl	$36, %esi
	callq	__ZN4core9panicking5panic17h736ee47a631475c0E
	.cfi_endproc
	.p2align	2, 0x90
	.data_region jt32
.set L80_0_set_8, LBB80_8-LJTI80_0
.set L80_0_set_10, LBB80_10-LJTI80_0
.set L80_0_set_2, LBB80_2-LJTI80_0
.set L80_0_set_3, LBB80_3-LJTI80_0
.set L80_0_set_4, LBB80_4-LJTI80_0
.set L80_0_set_5, LBB80_5-LJTI80_0
.set L80_0_set_6, LBB80_6-LJTI80_0
.set L80_0_set_7, LBB80_7-LJTI80_0
LJTI80_0:
	.long	L80_0_set_8
	.long	L80_0_set_10
	.long	L80_0_set_2
	.long	L80_0_set_3
	.long	L80_0_set_4
	.long	L80_0_set_5
	.long	L80_0_set_6
	.long	L80_0_set_7
	.long	L80_0_set_8
.set L80_1_set_13, LBB80_13-LJTI80_1
.set L80_1_set_36, LBB80_36-LJTI80_1
.set L80_1_set_19, LBB80_19-LJTI80_1
.set L80_1_set_23, LBB80_23-LJTI80_1
.set L80_1_set_27, LBB80_27-LJTI80_1
.set L80_1_set_32, LBB80_32-LJTI80_1
LJTI80_1:
	.long	L80_1_set_13
	.long	L80_1_set_36
	.long	L80_1_set_19
	.long	L80_1_set_36
	.long	L80_1_set_23
	.long	L80_1_set_36
	.long	L80_1_set_27
	.long	L80_1_set_36
	.long	L80_1_set_32
	.end_data_region

	.globl	__ZN5gimli4read5value5Value4shra17hccbe686ef602564cE
	.p2align	4, 0x90
__ZN5gimli4read5value5Value4shra17hccbe686ef602564cE:
	.cfi_startproc
	pushq	%rbp
	.cfi_def_cfa_offset 16
	.cfi_offset %rbp, -16
	movq	%rsp, %rbp
	.cfi_def_cfa_register %rbp
	movq	%rdi, %rax
	movzbl	(%rdx), %edi
	cmpq	$8, %rdi
	ja	LBB81_12
	movsbq	1(%rdx), %r8
	movswq	2(%rdx), %r9
	movslq	4(%rdx), %r10
	movq	8(%rdx), %r11
	leaq	LJTI81_0(%rip), %rdx
	movslq	(%rdx,%rdi,4), %rdi
	addq	%rdx, %rdi
	jmpq	*%rdi
LBB81_2:
	movq	%r8, %r11
	testb	%r8b, %r8b
	jns	LBB81_8
LBB81_12:
	movq	$45, 8(%rax)
	movl	$1, %ecx
	movq	%rcx, (%rax)
	popq	%rbp
	retq
LBB81_3:
	movq	%r9, %r11
	testw	%r9w, %r9w
	js	LBB81_12
LBB81_8:
	movzbl	(%rsi), %edi
	cmpq	$8, %rdi
	ja	LBB81_21
LBB81_9:
	leaq	LJTI81_1(%rip), %rdx
	movslq	(%rdx,%rdi,4), %rdi
	addq	%rdx, %rdi
	jmpq	*%rdi
LBB81_10:
	movb	$44, 8(%rax)
	movl	$1, %ecx
	movq	%rcx, (%rax)
	popq	%rbp
	retq
LBB81_4:
	movzbl	%r8b, %r11d
	movzbl	(%rsi), %edi
	cmpq	$8, %rdi
	jbe	LBB81_9
LBB81_21:
	movb	$43, 8(%rax)
	movl	$1, %ecx
	movq	%rcx, (%rax)
	popq	%rbp
	retq
LBB81_5:
	movl	%r10d, %r11d
	movzbl	(%rsi), %edi
	cmpq	$8, %rdi
	jbe	LBB81_9
	jmp	LBB81_21
LBB81_6:
	movzwl	%r9w, %r11d
	movzbl	(%rsi), %edi
	cmpq	$8, %rdi
	jbe	LBB81_9
	jmp	LBB81_21
LBB81_7:
	movq	%r10, %r11
	testl	%r10d, %r10d
	jns	LBB81_8
	jmp	LBB81_12
LBB81_11:
	testq	%r11, %r11
	jns	LBB81_8
	jmp	LBB81_12
LBB81_13:
	movl	%r11d, %ecx
	andb	$31, %cl
	cmpq	$31, %r11
	movzbl	%cl, %ecx
	movl	$31, %edx
	cmovbel	%ecx, %edx
	sarxl	%edx, 4(%rsi), %r8d
	movb	$5, %dl
	jmp	LBB81_25
LBB81_14:
	lzcntq	%rcx, %rdx
	movl	$64, %edi
	subl	%edx, %edi
	jb	LBB81_28
	movq	%rcx, %rdx
	shrq	%rdx
	incq	%rdx
	andq	8(%rsi), %rcx
	xorq	%rdx, %rcx
	subq	%rdx, %rcx
	movl	%edi, %edx
	cmpq	%rdx, %r11
	jae	LBB81_22
	cmpq	$63, %r11
	ja	LBB81_29
	sarxq	%r11, %rcx, %rcx
	jmp	LBB81_23
LBB81_18:
	movb	1(%rsi), %dil
	movl	%r11d, %ecx
	andb	$7, %cl
	cmpq	$7, %r11
	movzbl	%cl, %edx
	movl	$7, %ecx
	cmovbel	%edx, %ecx
	sarb	%cl, %dil
	movb	$1, %dl
	jmp	LBB81_27
LBB81_19:
	movswl	2(%rsi), %ecx
	movl	%r11d, %edx
	andb	$15, %dl
	cmpq	$15, %r11
	movzbl	%dl, %edx
	movl	$15, %esi
	cmovbel	%edx, %esi
	sarxl	%esi, %ecx, %esi
	movb	$3, %dl
	jmp	LBB81_26
LBB81_20:
	movl	%r11d, %ecx
	andb	$63, %cl
	cmpq	$63, %r11
	movzbl	%cl, %ecx
	movl	$63, %edx
	cmovbel	%ecx, %edx
	sarxq	%rdx, 8(%rsi), %rcx
	movb	$7, %dl
	jmp	LBB81_24
LBB81_22:
	sarq	$63, %rcx
LBB81_23:
	xorl	%edx, %edx
LBB81_24:
LBB81_25:
LBB81_26:
LBB81_27:
	movb	%dl, 8(%rax)
	movb	%dil, 9(%rax)
	movw	%si, 10(%rax)
	movl	%r8d, 12(%rax)
	movq	%rcx, 16(%rax)
	xorl	%ecx, %ecx
	movq	%rcx, (%rax)
	popq	%rbp
	retq
LBB81_28:
	leaq	_str.5(%rip), %rdi
	leaq	l___unnamed_94(%rip), %rdx
	movl	$33, %esi
	callq	__ZN4core9panicking5panic17h736ee47a631475c0E
LBB81_29:
	leaq	_str.8(%rip), %rdi
	leaq	l___unnamed_101(%rip), %rdx
	movl	$36, %esi
	callq	__ZN4core9panicking5panic17h736ee47a631475c0E
	.cfi_endproc
	.p2align	2, 0x90
	.data_region jt32
.set L81_0_set_8, LBB81_8-LJTI81_0
.set L81_0_set_2, LBB81_2-LJTI81_0
.set L81_0_set_4, LBB81_4-LJTI81_0
.set L81_0_set_3, LBB81_3-LJTI81_0
.set L81_0_set_6, LBB81_6-LJTI81_0
.set L81_0_set_7, LBB81_7-LJTI81_0
.set L81_0_set_5, LBB81_5-LJTI81_0
.set L81_0_set_11, LBB81_11-LJTI81_0
LJTI81_0:
	.long	L81_0_set_8
	.long	L81_0_set_2
	.long	L81_0_set_4
	.long	L81_0_set_3
	.long	L81_0_set_6
	.long	L81_0_set_7
	.long	L81_0_set_5
	.long	L81_0_set_11
	.long	L81_0_set_8
.set L81_1_set_14, LBB81_14-LJTI81_1
.set L81_1_set_18, LBB81_18-LJTI81_1
.set L81_1_set_10, LBB81_10-LJTI81_1
.set L81_1_set_19, LBB81_19-LJTI81_1
.set L81_1_set_13, LBB81_13-LJTI81_1
.set L81_1_set_20, LBB81_20-LJTI81_1
LJTI81_1:
	.long	L81_1_set_14
	.long	L81_1_set_18
	.long	L81_1_set_10
	.long	L81_1_set_19
	.long	L81_1_set_10
	.long	L81_1_set_13
	.long	L81_1_set_10
	.long	L81_1_set_20
	.long	L81_1_set_10
	.end_data_region

	.globl	__ZN5gimli4read5value5Value2eq17hc52709181da19db5E
	.p2align	4, 0x90
__ZN5gimli4read5value5Value2eq17hc52709181da19db5E:
	.cfi_startproc
	pushq	%rbp
	.cfi_def_cfa_offset 16
	.cfi_offset %rbp, -16
	movq	%rsp, %rbp
	.cfi_def_cfa_register %rbp
	pushq	%r15
	pushq	%r14
	pushq	%r12
	pushq	%rbx
	.cfi_offset %rbx, -48
	.cfi_offset %r12, -40
	.cfi_offset %r14, -32
	.cfi_offset %r15, -24
	movq	%rdi, %rax
	movzbl	(%rsi), %ebx
	cmpq	$10, %rbx
	ja	LBB82_3
	movb	1(%rsi), %r8b
	movzwl	2(%rsi), %r14d
	movl	4(%rsi), %r10d
	movq	8(%rsi), %r9
	movb	(%rdx), %r11b
	movb	1(%rdx), %r15b
	movzwl	2(%rdx), %edi
	movl	4(%rdx), %esi
	movq	8(%rdx), %r12
	leaq	LJTI82_0(%rip), %rdx
	movslq	(%rdx,%rbx,4), %rbx
	addq	%rdx, %rbx
	jmpq	*%rbx
LBB82_2:
	testb	%r11b, %r11b
	jne	LBB82_3
	xorq	%r9, %r12
	testq	%rcx, %r12
	sete	%cl
	jmp	LBB82_22
LBB82_9:
	cmpb	$1, %r11b
	je	LBB82_10
	jmp	LBB82_3
LBB82_4:
	cmpb	$2, %r11b
	jne	LBB82_3
LBB82_10:
	cmpb	%r15b, %r8b
	sete	%cl
	jmp	LBB82_22
LBB82_11:
	cmpb	$3, %r11b
	je	LBB82_12
	jmp	LBB82_3
LBB82_5:
	cmpb	$4, %r11b
	jne	LBB82_3
LBB82_12:
	cmpw	%di, %r14w
	sete	%cl
	jmp	LBB82_22
LBB82_13:
	cmpb	$5, %r11b
	je	LBB82_14
	jmp	LBB82_3
LBB82_6:
	cmpb	$6, %r11b
	jne	LBB82_3
LBB82_14:
	cmpl	%esi, %r10d
	sete	%cl
	jmp	LBB82_22
LBB82_15:
	cmpb	$7, %r11b
	je	LBB82_16
	jmp	LBB82_3
LBB82_7:
	cmpb	$8, %r11b
	jne	LBB82_3
LBB82_16:
	cmpq	%r12, %r9
	sete	%cl
	jmp	LBB82_22
LBB82_17:
	cmpb	$9, %r11b
	jne	LBB82_3
	vmovd	%r10d, %xmm0
	vmovd	%esi, %xmm1
	vcmpeqss	%xmm1, %xmm0, %xmm0
	vmovd	%xmm0, %ecx
	jmp	LBB82_21
LBB82_19:
	cmpb	$10, %r11b
	jne	LBB82_3
	vmovq	%r9, %xmm0
	vmovq	%r12, %xmm1
	vcmpeqsd	%xmm1, %xmm0, %xmm0
	vmovq	%xmm0, %rcx
LBB82_21:
	andl	$1, %ecx
LBB82_22:
	movzbl	%cl, %ecx
	movb	$0, 8(%rax)
	movq	%rcx, 16(%rax)
	xorl	%ecx, %ecx
	jmp	LBB82_23
LBB82_3:
	movb	$42, 8(%rax)
	movl	$1, %ecx
LBB82_23:
	movq	%rcx, (%rax)
	popq	%rbx
	popq	%r12
	popq	%r14
	popq	%r15
	popq	%rbp
	retq
	.cfi_endproc
	.p2align	2, 0x90
	.data_region jt32
.set L82_0_set_2, LBB82_2-LJTI82_0
.set L82_0_set_9, LBB82_9-LJTI82_0
.set L82_0_set_4, LBB82_4-LJTI82_0
.set L82_0_set_11, LBB82_11-LJTI82_0
.set L82_0_set_5, LBB82_5-LJTI82_0
.set L82_0_set_13, LBB82_13-LJTI82_0
.set L82_0_set_6, LBB82_6-LJTI82_0
.set L82_0_set_15, LBB82_15-LJTI82_0
.set L82_0_set_7, LBB82_7-LJTI82_0
.set L82_0_set_17, LBB82_17-LJTI82_0
.set L82_0_set_19, LBB82_19-LJTI82_0
LJTI82_0:
	.long	L82_0_set_2
	.long	L82_0_set_9
	.long	L82_0_set_4
	.long	L82_0_set_11
	.long	L82_0_set_5
	.long	L82_0_set_13
	.long	L82_0_set_6
	.long	L82_0_set_15
	.long	L82_0_set_7
	.long	L82_0_set_17
	.long	L82_0_set_19
	.end_data_region

	.globl	__ZN5gimli4read5value5Value2ge17h1b09f818f3df16d4E
	.p2align	4, 0x90
__ZN5gimli4read5value5Value2ge17h1b09f818f3df16d4E:
	.cfi_startproc
	pushq	%rbp
	.cfi_def_cfa_offset 16
	.cfi_offset %rbp, -16
	movq	%rsp, %rbp
	.cfi_def_cfa_register %rbp
	pushq	%r15
	pushq	%r14
	pushq	%r12
	pushq	%rbx
	.cfi_offset %rbx, -48
	.cfi_offset %r12, -40
	.cfi_offset %r14, -32
	.cfi_offset %r15, -24
	movq	%rdi, %rax
	movzbl	(%rsi), %ebx
	cmpq	$10, %rbx
	ja	LBB83_3
	movb	1(%rsi), %r8b
	movzwl	2(%rsi), %r14d
	movl	4(%rsi), %r10d
	movq	8(%rsi), %r9
	movb	(%rdx), %r11b
	movb	1(%rdx), %r15b
	movzwl	2(%rdx), %edi
	movl	4(%rdx), %esi
	movq	8(%rdx), %r12
	leaq	LJTI83_0(%rip), %rdx
	movslq	(%rdx,%rbx,4), %rbx
	addq	%rdx, %rbx
	jmpq	*%rbx
LBB83_2:
	testb	%r11b, %r11b
	jne	LBB83_3
	movq	%rcx, %rdx
	shrq	%rdx
	incq	%rdx
	andq	%rcx, %r9
	xorq	%rdx, %r9
	subq	%rdx, %r9
	andq	%rcx, %r12
	xorq	%rdx, %r12
	subq	%rdx, %r12
	jmp	LBB83_18
LBB83_5:
	cmpb	$1, %r11b
	jne	LBB83_3
	cmpb	%r15b, %r8b
	setge	%cl
	jmp	LBB83_26
LBB83_7:
	cmpb	$2, %r11b
	jne	LBB83_3
	cmpb	%r15b, %r8b
	jmp	LBB83_25
LBB83_9:
	cmpb	$3, %r11b
	jne	LBB83_3
	cmpw	%di, %r14w
	setge	%cl
	jmp	LBB83_26
LBB83_11:
	cmpb	$4, %r11b
	jne	LBB83_3
	cmpw	%di, %r14w
	jmp	LBB83_25
LBB83_13:
	cmpb	$5, %r11b
	jne	LBB83_3
	cmpl	%esi, %r10d
	setge	%cl
	jmp	LBB83_26
LBB83_15:
	cmpb	$6, %r11b
	jne	LBB83_3
	cmpl	%esi, %r10d
	jmp	LBB83_25
LBB83_17:
	cmpb	$7, %r11b
	jne	LBB83_3
LBB83_18:
	cmpq	%r12, %r9
	setge	%cl
	jmp	LBB83_26
LBB83_19:
	cmpb	$8, %r11b
	jne	LBB83_3
	cmpq	%r12, %r9
	jmp	LBB83_25
LBB83_21:
	cmpb	$9, %r11b
	jne	LBB83_3
	vmovd	%r10d, %xmm0
	vmovd	%esi, %xmm1
	vucomiss	%xmm1, %xmm0
	jmp	LBB83_25
LBB83_23:
	cmpb	$10, %r11b
	jne	LBB83_3
	vmovq	%r9, %xmm0
	vmovq	%r12, %xmm1
	vucomisd	%xmm1, %xmm0
LBB83_25:
	setae	%cl
LBB83_26:
	movzbl	%cl, %ecx
	movb	$0, 8(%rax)
	movq	%rcx, 16(%rax)
	xorl	%ecx, %ecx
	jmp	LBB83_27
LBB83_3:
	movb	$42, 8(%rax)
	movl	$1, %ecx
LBB83_27:
	movq	%rcx, (%rax)
	popq	%rbx
	popq	%r12
	popq	%r14
	popq	%r15
	popq	%rbp
	retq
	.cfi_endproc
	.p2align	2, 0x90
	.data_region jt32
.set L83_0_set_2, LBB83_2-LJTI83_0
.set L83_0_set_5, LBB83_5-LJTI83_0
.set L83_0_set_7, LBB83_7-LJTI83_0
.set L83_0_set_9, LBB83_9-LJTI83_0
.set L83_0_set_11, LBB83_11-LJTI83_0
.set L83_0_set_13, LBB83_13-LJTI83_0
.set L83_0_set_15, LBB83_15-LJTI83_0
.set L83_0_set_17, LBB83_17-LJTI83_0
.set L83_0_set_19, LBB83_19-LJTI83_0
.set L83_0_set_21, LBB83_21-LJTI83_0
.set L83_0_set_23, LBB83_23-LJTI83_0
LJTI83_0:
	.long	L83_0_set_2
	.long	L83_0_set_5
	.long	L83_0_set_7
	.long	L83_0_set_9
	.long	L83_0_set_11
	.long	L83_0_set_13
	.long	L83_0_set_15
	.long	L83_0_set_17
	.long	L83_0_set_19
	.long	L83_0_set_21
	.long	L83_0_set_23
	.end_data_region

	.globl	__ZN5gimli4read5value5Value2gt17hb3f5c165e8583cc2E
	.p2align	4, 0x90
__ZN5gimli4read5value5Value2gt17hb3f5c165e8583cc2E:
	.cfi_startproc
	pushq	%rbp
	.cfi_def_cfa_offset 16
	.cfi_offset %rbp, -16
	movq	%rsp, %rbp
	.cfi_def_cfa_register %rbp
	pushq	%r15
	pushq	%r14
	pushq	%r12
	pushq	%rbx
	.cfi_offset %rbx, -48
	.cfi_offset %r12, -40
	.cfi_offset %r14, -32
	.cfi_offset %r15, -24
	movq	%rdi, %rax
	movzbl	(%rsi), %ebx
	cmpq	$10, %rbx
	ja	LBB84_3
	movb	1(%rsi), %r8b
	movzwl	2(%rsi), %r14d
	movl	4(%rsi), %r10d
	movq	8(%rsi), %r9
	movb	(%rdx), %r11b
	movb	1(%rdx), %r15b
	movzwl	2(%rdx), %edi
	movl	4(%rdx), %esi
	movq	8(%rdx), %r12
	leaq	LJTI84_0(%rip), %rdx
	movslq	(%rdx,%rbx,4), %rbx
	addq	%rdx, %rbx
	jmpq	*%rbx
LBB84_2:
	testb	%r11b, %r11b
	jne	LBB84_3
	movq	%rcx, %rdx
	shrq	%rdx
	incq	%rdx
	andq	%rcx, %r9
	xorq	%rdx, %r9
	subq	%rdx, %r9
	andq	%rcx, %r12
	xorq	%rdx, %r12
	subq	%rdx, %r12
	jmp	LBB84_18
LBB84_5:
	cmpb	$1, %r11b
	jne	LBB84_3
	cmpb	%r15b, %r8b
	setg	%cl
	jmp	LBB84_26
LBB84_7:
	cmpb	$2, %r11b
	jne	LBB84_3
	cmpb	%r15b, %r8b
	jmp	LBB84_25
LBB84_9:
	cmpb	$3, %r11b
	jne	LBB84_3
	cmpw	%di, %r14w
	setg	%cl
	jmp	LBB84_26
LBB84_11:
	cmpb	$4, %r11b
	jne	LBB84_3
	cmpw	%di, %r14w
	jmp	LBB84_25
LBB84_13:
	cmpb	$5, %r11b
	jne	LBB84_3
	cmpl	%esi, %r10d
	setg	%cl
	jmp	LBB84_26
LBB84_15:
	cmpb	$6, %r11b
	jne	LBB84_3
	cmpl	%esi, %r10d
	jmp	LBB84_25
LBB84_17:
	cmpb	$7, %r11b
	jne	LBB84_3
LBB84_18:
	cmpq	%r12, %r9
	setg	%cl
	jmp	LBB84_26
LBB84_19:
	cmpb	$8, %r11b
	jne	LBB84_3
	cmpq	%r12, %r9
	jmp	LBB84_25
LBB84_21:
	cmpb	$9, %r11b
	jne	LBB84_3
	vmovd	%r10d, %xmm0
	vmovd	%esi, %xmm1
	vucomiss	%xmm1, %xmm0
	jmp	LBB84_25
LBB84_23:
	cmpb	$10, %r11b
	jne	LBB84_3
	vmovq	%r9, %xmm0
	vmovq	%r12, %xmm1
	vucomisd	%xmm1, %xmm0
LBB84_25:
	seta	%cl
LBB84_26:
	movzbl	%cl, %ecx
	movb	$0, 8(%rax)
	movq	%rcx, 16(%rax)
	xorl	%ecx, %ecx
	jmp	LBB84_27
LBB84_3:
	movb	$42, 8(%rax)
	movl	$1, %ecx
LBB84_27:
	movq	%rcx, (%rax)
	popq	%rbx
	popq	%r12
	popq	%r14
	popq	%r15
	popq	%rbp
	retq
	.cfi_endproc
	.p2align	2, 0x90
	.data_region jt32
.set L84_0_set_2, LBB84_2-LJTI84_0
.set L84_0_set_5, LBB84_5-LJTI84_0
.set L84_0_set_7, LBB84_7-LJTI84_0
.set L84_0_set_9, LBB84_9-LJTI84_0
.set L84_0_set_11, LBB84_11-LJTI84_0
.set L84_0_set_13, LBB84_13-LJTI84_0
.set L84_0_set_15, LBB84_15-LJTI84_0
.set L84_0_set_17, LBB84_17-LJTI84_0
.set L84_0_set_19, LBB84_19-LJTI84_0
.set L84_0_set_21, LBB84_21-LJTI84_0
.set L84_0_set_23, LBB84_23-LJTI84_0
LJTI84_0:
	.long	L84_0_set_2
	.long	L84_0_set_5
	.long	L84_0_set_7
	.long	L84_0_set_9
	.long	L84_0_set_11
	.long	L84_0_set_13
	.long	L84_0_set_15
	.long	L84_0_set_17
	.long	L84_0_set_19
	.long	L84_0_set_21
	.long	L84_0_set_23
	.end_data_region

	.globl	__ZN5gimli4read5value5Value2le17h7366045fa8a99182E
	.p2align	4, 0x90
__ZN5gimli4read5value5Value2le17h7366045fa8a99182E:
	.cfi_startproc
	pushq	%rbp
	.cfi_def_cfa_offset 16
	.cfi_offset %rbp, -16
	movq	%rsp, %rbp
	.cfi_def_cfa_register %rbp
	pushq	%r15
	pushq	%r14
	pushq	%r12
	pushq	%rbx
	.cfi_offset %rbx, -48
	.cfi_offset %r12, -40
	.cfi_offset %r14, -32
	.cfi_offset %r15, -24
	movq	%rdi, %rax
	movzbl	(%rsi), %ebx
	cmpq	$10, %rbx
	ja	LBB85_3
	movb	1(%rsi), %r8b
	movzwl	2(%rsi), %r14d
	movl	4(%rsi), %r10d
	movq	8(%rsi), %r9
	movb	(%rdx), %r11b
	movb	1(%rdx), %r15b
	movzwl	2(%rdx), %edi
	movl	4(%rdx), %esi
	movq	8(%rdx), %r12
	leaq	LJTI85_0(%rip), %rdx
	movslq	(%rdx,%rbx,4), %rbx
	addq	%rdx, %rbx
	jmpq	*%rbx
LBB85_2:
	testb	%r11b, %r11b
	jne	LBB85_3
	movq	%rcx, %rdx
	shrq	%rdx
	incq	%rdx
	andq	%rcx, %r9
	xorq	%rdx, %r9
	subq	%rdx, %r9
	andq	%rcx, %r12
	xorq	%rdx, %r12
	subq	%rdx, %r12
	jmp	LBB85_18
LBB85_5:
	cmpb	$1, %r11b
	jne	LBB85_3
	cmpb	%r15b, %r8b
	setle	%cl
	jmp	LBB85_26
LBB85_7:
	cmpb	$2, %r11b
	jne	LBB85_3
	cmpb	%r15b, %r8b
	setbe	%cl
	jmp	LBB85_26
LBB85_9:
	cmpb	$3, %r11b
	jne	LBB85_3
	cmpw	%di, %r14w
	setle	%cl
	jmp	LBB85_26
LBB85_11:
	cmpb	$4, %r11b
	jne	LBB85_3
	cmpw	%di, %r14w
	setbe	%cl
	jmp	LBB85_26
LBB85_13:
	cmpb	$5, %r11b
	jne	LBB85_3
	cmpl	%esi, %r10d
	setle	%cl
	jmp	LBB85_26
LBB85_15:
	cmpb	$6, %r11b
	jne	LBB85_3
	cmpl	%esi, %r10d
	setbe	%cl
	jmp	LBB85_26
LBB85_17:
	cmpb	$7, %r11b
	jne	LBB85_3
LBB85_18:
	cmpq	%r12, %r9
	setle	%cl
	jmp	LBB85_26
LBB85_19:
	cmpb	$8, %r11b
	jne	LBB85_3
	cmpq	%r12, %r9
	setbe	%cl
	jmp	LBB85_26
LBB85_21:
	cmpb	$9, %r11b
	jne	LBB85_3
	vmovd	%r10d, %xmm0
	vmovd	%esi, %xmm1
	vucomiss	%xmm0, %xmm1
	jmp	LBB85_25
LBB85_23:
	cmpb	$10, %r11b
	jne	LBB85_3
	vmovq	%r9, %xmm0
	vmovq	%r12, %xmm1
	vucomisd	%xmm0, %xmm1
LBB85_25:
	setae	%cl
LBB85_26:
	movzbl	%cl, %ecx
	movb	$0, 8(%rax)
	movq	%rcx, 16(%rax)
	xorl	%ecx, %ecx
	jmp	LBB85_27
LBB85_3:
	movb	$42, 8(%rax)
	movl	$1, %ecx
LBB85_27:
	movq	%rcx, (%rax)
	popq	%rbx
	popq	%r12
	popq	%r14
	popq	%r15
	popq	%rbp
	retq
	.cfi_endproc
	.p2align	2, 0x90
	.data_region jt32
.set L85_0_set_2, LBB85_2-LJTI85_0
.set L85_0_set_5, LBB85_5-LJTI85_0
.set L85_0_set_7, LBB85_7-LJTI85_0
.set L85_0_set_9, LBB85_9-LJTI85_0
.set L85_0_set_11, LBB85_11-LJTI85_0
.set L85_0_set_13, LBB85_13-LJTI85_0
.set L85_0_set_15, LBB85_15-LJTI85_0
.set L85_0_set_17, LBB85_17-LJTI85_0
.set L85_0_set_19, LBB85_19-LJTI85_0
.set L85_0_set_21, LBB85_21-LJTI85_0
.set L85_0_set_23, LBB85_23-LJTI85_0
LJTI85_0:
	.long	L85_0_set_2
	.long	L85_0_set_5
	.long	L85_0_set_7
	.long	L85_0_set_9
	.long	L85_0_set_11
	.long	L85_0_set_13
	.long	L85_0_set_15
	.long	L85_0_set_17
	.long	L85_0_set_19
	.long	L85_0_set_21
	.long	L85_0_set_23
	.end_data_region

	.globl	__ZN5gimli4read5value5Value2lt17h43bbb1ba26d5901bE
	.p2align	4, 0x90
__ZN5gimli4read5value5Value2lt17h43bbb1ba26d5901bE:
	.cfi_startproc
	pushq	%rbp
	.cfi_def_cfa_offset 16
	.cfi_offset %rbp, -16
	movq	%rsp, %rbp
	.cfi_def_cfa_register %rbp
	pushq	%r15
	pushq	%r14
	pushq	%r12
	pushq	%rbx
	.cfi_offset %rbx, -48
	.cfi_offset %r12, -40
	.cfi_offset %r14, -32
	.cfi_offset %r15, -24
	movq	%rdi, %rax
	movzbl	(%rsi), %ebx
	cmpq	$10, %rbx
	ja	LBB86_3
	movb	1(%rsi), %r8b
	movzwl	2(%rsi), %r14d
	movl	4(%rsi), %r10d
	movq	8(%rsi), %r9
	movb	(%rdx), %r11b
	movb	1(%rdx), %r15b
	movzwl	2(%rdx), %edi
	movl	4(%rdx), %esi
	movq	8(%rdx), %r12
	leaq	LJTI86_0(%rip), %rdx
	movslq	(%rdx,%rbx,4), %rbx
	addq	%rdx, %rbx
	jmpq	*%rbx
LBB86_2:
	testb	%r11b, %r11b
	jne	LBB86_3
	movq	%rcx, %rdx
	shrq	%rdx
	incq	%rdx
	andq	%rcx, %r9
	xorq	%rdx, %r9
	subq	%rdx, %r9
	andq	%rcx, %r12
	xorq	%rdx, %r12
	subq	%rdx, %r12
	jmp	LBB86_18
LBB86_5:
	cmpb	$1, %r11b
	jne	LBB86_3
	cmpb	%r15b, %r8b
	setl	%cl
	jmp	LBB86_26
LBB86_7:
	cmpb	$2, %r11b
	jne	LBB86_3
	cmpb	%r15b, %r8b
	setb	%cl
	jmp	LBB86_26
LBB86_9:
	cmpb	$3, %r11b
	jne	LBB86_3
	cmpw	%di, %r14w
	setl	%cl
	jmp	LBB86_26
LBB86_11:
	cmpb	$4, %r11b
	jne	LBB86_3
	cmpw	%di, %r14w
	setb	%cl
	jmp	LBB86_26
LBB86_13:
	cmpb	$5, %r11b
	jne	LBB86_3
	cmpl	%esi, %r10d
	setl	%cl
	jmp	LBB86_26
LBB86_15:
	cmpb	$6, %r11b
	jne	LBB86_3
	cmpl	%esi, %r10d
	setb	%cl
	jmp	LBB86_26
LBB86_17:
	cmpb	$7, %r11b
	jne	LBB86_3
LBB86_18:
	cmpq	%r12, %r9
	setl	%cl
	jmp	LBB86_26
LBB86_19:
	cmpb	$8, %r11b
	jne	LBB86_3
	cmpq	%r12, %r9
	setb	%cl
	jmp	LBB86_26
LBB86_21:
	cmpb	$9, %r11b
	jne	LBB86_3
	vmovd	%r10d, %xmm0
	vmovd	%esi, %xmm1
	vucomiss	%xmm0, %xmm1
	jmp	LBB86_25
LBB86_23:
	cmpb	$10, %r11b
	jne	LBB86_3
	vmovq	%r9, %xmm0
	vmovq	%r12, %xmm1
	vucomisd	%xmm0, %xmm1
LBB86_25:
	seta	%cl
LBB86_26:
	movzbl	%cl, %ecx
	movb	$0, 8(%rax)
	movq	%rcx, 16(%rax)
	xorl	%ecx, %ecx
	jmp	LBB86_27
LBB86_3:
	movb	$42, 8(%rax)
	movl	$1, %ecx
LBB86_27:
	movq	%rcx, (%rax)
	popq	%rbx
	popq	%r12
	popq	%r14
	popq	%r15
	popq	%rbp
	retq
	.cfi_endproc
	.p2align	2, 0x90
	.data_region jt32
.set L86_0_set_2, LBB86_2-LJTI86_0
.set L86_0_set_5, LBB86_5-LJTI86_0
.set L86_0_set_7, LBB86_7-LJTI86_0
.set L86_0_set_9, LBB86_9-LJTI86_0
.set L86_0_set_11, LBB86_11-LJTI86_0
.set L86_0_set_13, LBB86_13-LJTI86_0
.set L86_0_set_15, LBB86_15-LJTI86_0
.set L86_0_set_17, LBB86_17-LJTI86_0
.set L86_0_set_19, LBB86_19-LJTI86_0
.set L86_0_set_21, LBB86_21-LJTI86_0
.set L86_0_set_23, LBB86_23-LJTI86_0
LJTI86_0:
	.long	L86_0_set_2
	.long	L86_0_set_5
	.long	L86_0_set_7
	.long	L86_0_set_9
	.long	L86_0_set_11
	.long	L86_0_set_13
	.long	L86_0_set_15
	.long	L86_0_set_17
	.long	L86_0_set_19
	.long	L86_0_set_21
	.long	L86_0_set_23
	.end_data_region

	.globl	__ZN5gimli4read5value5Value2ne17hebe9fe7ca867da2eE
	.p2align	4, 0x90
__ZN5gimli4read5value5Value2ne17hebe9fe7ca867da2eE:
	.cfi_startproc
	pushq	%rbp
	.cfi_def_cfa_offset 16
	.cfi_offset %rbp, -16
	movq	%rsp, %rbp
	.cfi_def_cfa_register %rbp
	pushq	%r15
	pushq	%r14
	pushq	%r12
	pushq	%rbx
	.cfi_offset %rbx, -48
	.cfi_offset %r12, -40
	.cfi_offset %r14, -32
	.cfi_offset %r15, -24
	movq	%rdi, %rax
	movzbl	(%rsi), %ebx
	cmpq	$10, %rbx
	ja	LBB87_3
	movb	1(%rsi), %r8b
	movzwl	2(%rsi), %r14d
	movl	4(%rsi), %r10d
	movq	8(%rsi), %r9
	movb	(%rdx), %r11b
	movb	1(%rdx), %r15b
	movzwl	2(%rdx), %edi
	movl	4(%rdx), %esi
	movq	8(%rdx), %r12
	leaq	LJTI87_0(%rip), %rdx
	movslq	(%rdx,%rbx,4), %rbx
	addq	%rdx, %rbx
	jmpq	*%rbx
LBB87_2:
	testb	%r11b, %r11b
	jne	LBB87_3
	xorq	%r9, %r12
	testq	%rcx, %r12
	setne	%cl
	jmp	LBB87_22
LBB87_9:
	cmpb	$1, %r11b
	je	LBB87_10
	jmp	LBB87_3
LBB87_4:
	cmpb	$2, %r11b
	jne	LBB87_3
LBB87_10:
	cmpb	%r15b, %r8b
	setne	%cl
	jmp	LBB87_22
LBB87_11:
	cmpb	$3, %r11b
	je	LBB87_12
	jmp	LBB87_3
LBB87_5:
	cmpb	$4, %r11b
	jne	LBB87_3
LBB87_12:
	cmpw	%di, %r14w
	setne	%cl
	jmp	LBB87_22
LBB87_13:
	cmpb	$5, %r11b
	je	LBB87_14
	jmp	LBB87_3
LBB87_6:
	cmpb	$6, %r11b
	jne	LBB87_3
LBB87_14:
	cmpl	%esi, %r10d
	setne	%cl
	jmp	LBB87_22
LBB87_15:
	cmpb	$7, %r11b
	je	LBB87_16
	jmp	LBB87_3
LBB87_7:
	cmpb	$8, %r11b
	jne	LBB87_3
LBB87_16:
	cmpq	%r12, %r9
	setne	%cl
	jmp	LBB87_22
LBB87_17:
	cmpb	$9, %r11b
	jne	LBB87_3
	vmovd	%r10d, %xmm0
	vmovd	%esi, %xmm1
	vcmpneqss	%xmm1, %xmm0, %xmm0
	vmovd	%xmm0, %ecx
	jmp	LBB87_21
LBB87_19:
	cmpb	$10, %r11b
	jne	LBB87_3
	vmovq	%r9, %xmm0
	vmovq	%r12, %xmm1
	vcmpneqsd	%xmm1, %xmm0, %xmm0
	vmovq	%xmm0, %rcx
LBB87_21:
	andl	$1, %ecx
LBB87_22:
	movzbl	%cl, %ecx
	movb	$0, 8(%rax)
	movq	%rcx, 16(%rax)
	xorl	%ecx, %ecx
	jmp	LBB87_23
LBB87_3:
	movb	$42, 8(%rax)
	movl	$1, %ecx
LBB87_23:
	movq	%rcx, (%rax)
	popq	%rbx
	popq	%r12
	popq	%r14
	popq	%r15
	popq	%rbp
	retq
	.cfi_endproc
	.p2align	2, 0x90
	.data_region jt32
.set L87_0_set_2, LBB87_2-LJTI87_0
.set L87_0_set_9, LBB87_9-LJTI87_0
.set L87_0_set_4, LBB87_4-LJTI87_0
.set L87_0_set_11, LBB87_11-LJTI87_0
.set L87_0_set_5, LBB87_5-LJTI87_0
.set L87_0_set_13, LBB87_13-LJTI87_0
.set L87_0_set_6, LBB87_6-LJTI87_0
.set L87_0_set_15, LBB87_15-LJTI87_0
.set L87_0_set_7, LBB87_7-LJTI87_0
.set L87_0_set_17, LBB87_17-LJTI87_0
.set L87_0_set_19, LBB87_19-LJTI87_0
LJTI87_0:
	.long	L87_0_set_2
	.long	L87_0_set_9
	.long	L87_0_set_4
	.long	L87_0_set_11
	.long	L87_0_set_5
	.long	L87_0_set_13
	.long	L87_0_set_6
	.long	L87_0_set_15
	.long	L87_0_set_7
	.long	L87_0_set_17
	.long	L87_0_set_19
	.end_data_region

	.globl	__ZN5gimli4read5Error11description17hc12df79b4186f546E
	.p2align	4, 0x90
__ZN5gimli4read5Error11description17hc12df79b4186f546E:
	.cfi_startproc
	pushq	%rbp
	.cfi_def_cfa_offset 16
	.cfi_offset %rbp, -16
	movq	%rsp, %rbp
	.cfi_def_cfa_register %rbp
	movzbl	(%rdi), %ecx
	leaq	l___unnamed_102(%rip), %rax
	movl	$50, %edx
	leaq	LJTI88_0(%rip), %rsi
	movslq	(%rsi,%rcx,4), %rcx
	addq	%rsi, %rcx
	jmpq	*%rcx
LBB88_1:
	leaq	l___unnamed_103(%rip), %rax
	movl	$36, %edx
	popq	%rbp
	retq
LBB88_2:
	leaq	l___unnamed_104(%rip), %rax
	movl	$63, %edx
	popq	%rbp
	retq
LBB88_3:
	leaq	l___unnamed_105(%rip), %rax
	movl	$68, %edx
	popq	%rbp
	retq
LBB88_4:
	leaq	l___unnamed_106(%rip), %rax
	movl	$62, %edx
	popq	%rbp
	retq
LBB88_5:
	leaq	l___unnamed_107(%rip), %rax
	movl	$82, %edx
	popq	%rbp
	retq
LBB88_6:
	leaq	l___unnamed_108(%rip), %rax
	movl	$55, %edx
	popq	%rbp
	retq
LBB88_7:
	leaq	l___unnamed_109(%rip), %rax
	movl	$41, %edx
	popq	%rbp
	retq
LBB88_8:
	leaq	l___unnamed_110(%rip), %rax
	movl	$38, %edx
	popq	%rbp
	retq
LBB88_9:
	leaq	l___unnamed_111(%rip), %rax
	movl	$101, %edx
	popq	%rbp
	retq
LBB88_10:
	leaq	l___unnamed_112(%rip), %rax
	movl	$113, %edx
	popq	%rbp
	retq
LBB88_11:
	leaq	l___unnamed_113(%rip), %rax
	movl	$91, %edx
	popq	%rbp
	retq
LBB88_12:
	leaq	l___unnamed_114(%rip), %rax
	movl	$34, %edx
	popq	%rbp
	retq
LBB88_13:
	leaq	l___unnamed_115(%rip), %rax
	movl	$33, %edx
	popq	%rbp
	retq
LBB88_14:
	leaq	l___unnamed_116(%rip), %rax
	movl	$37, %edx
	popq	%rbp
	retq
LBB88_15:
	leaq	l___unnamed_117(%rip), %rax
	movl	$53, %edx
	popq	%rbp
	retq
LBB88_16:
	leaq	l___unnamed_118(%rip), %rax
	movl	$24, %edx
	popq	%rbp
	retq
LBB88_17:
	leaq	l___unnamed_119(%rip), %rax
	movl	$38, %edx
	popq	%rbp
	retq
LBB88_18:
	leaq	l___unnamed_120(%rip), %rax
	movl	$30, %edx
	popq	%rbp
	retq
LBB88_19:
	leaq	l___unnamed_121(%rip), %rax
	jmp	LBB88_70
LBB88_20:
	leaq	l___unnamed_122(%rip), %rax
	movl	$43, %edx
	popq	%rbp
	retq
LBB88_21:
	leaq	l___unnamed_123(%rip), %rax
	movl	$41, %edx
	popq	%rbp
	retq
LBB88_22:
	leaq	l___unnamed_124(%rip), %rax
	movl	$32, %edx
	popq	%rbp
	retq
LBB88_23:
	leaq	l___unnamed_125(%rip), %rax
	movl	$32, %edx
	popq	%rbp
	retq
LBB88_24:
	leaq	l___unnamed_126(%rip), %rax
	movl	$43, %edx
	popq	%rbp
	retq
LBB88_25:
	leaq	l___unnamed_127(%rip), %rax
	movl	$42, %edx
	popq	%rbp
	retq
LBB88_26:
	leaq	l___unnamed_128(%rip), %rax
	movl	$41, %edx
	popq	%rbp
	retq
LBB88_27:
	leaq	l___unnamed_129(%rip), %rax
	jmp	LBB88_70
LBB88_28:
	leaq	l___unnamed_130(%rip), %rax
	movl	$56, %edx
	popq	%rbp
	retq
LBB88_29:
	leaq	l___unnamed_131(%rip), %rax
	movl	$32, %edx
	popq	%rbp
	retq
LBB88_30:
	leaq	l___unnamed_132(%rip), %rax
	movl	$33, %edx
	popq	%rbp
	retq
LBB88_31:
	leaq	l___unnamed_133(%rip), %rax
	movl	$30, %edx
	popq	%rbp
	retq
LBB88_32:
	leaq	l___unnamed_134(%rip), %rax
	movl	$54, %edx
	popq	%rbp
	retq
LBB88_33:
	leaq	l___unnamed_135(%rip), %rax
	movl	$61, %edx
	popq	%rbp
	retq
LBB88_34:
	leaq	l___unnamed_136(%rip), %rax
	movl	$65, %edx
	popq	%rbp
	retq
LBB88_35:
	leaq	l___unnamed_137(%rip), %rax
	movl	$41, %edx
	popq	%rbp
	retq
LBB88_36:
	leaq	l___unnamed_138(%rip), %rax
	movl	$58, %edx
	popq	%rbp
	retq
LBB88_37:
	leaq	l___unnamed_139(%rip), %rax
	movl	$52, %edx
	popq	%rbp
	retq
LBB88_38:
	leaq	l___unnamed_140(%rip), %rax
	jmp	LBB88_70
LBB88_39:
	leaq	l___unnamed_141(%rip), %rax
	movl	$34, %edx
	popq	%rbp
	retq
LBB88_40:
	leaq	l___unnamed_142(%rip), %rax
	movl	$66, %edx
	popq	%rbp
	retq
LBB88_41:
	leaq	l___unnamed_143(%rip), %rax
	movl	$39, %edx
	popq	%rbp
	retq
LBB88_42:
	leaq	l___unnamed_144(%rip), %rax
	movl	$54, %edx
	popq	%rbp
	retq
LBB88_43:
	leaq	l___unnamed_145(%rip), %rax
	movl	$40, %edx
	popq	%rbp
	retq
LBB88_44:
	leaq	l___unnamed_146(%rip), %rax
	movl	$49, %edx
	popq	%rbp
	retq
LBB88_45:
	leaq	l___unnamed_147(%rip), %rax
	movl	$57, %edx
	popq	%rbp
	retq
LBB88_46:
	leaq	l___unnamed_148(%rip), %rax
	movl	$64, %edx
	popq	%rbp
	retq
LBB88_47:
	leaq	l___unnamed_149(%rip), %rax
	movl	$32, %edx
	popq	%rbp
	retq
LBB88_48:
	leaq	l___unnamed_150(%rip), %rax
	movl	$61, %edx
	popq	%rbp
	retq
LBB88_49:
	leaq	l___unnamed_151(%rip), %rax
	movl	$73, %edx
	popq	%rbp
	retq
LBB88_50:
	leaq	l___unnamed_152(%rip), %rax
	movl	$75, %edx
	popq	%rbp
	retq
LBB88_51:
	leaq	l___unnamed_153(%rip), %rax
	movl	$143, %edx
	popq	%rbp
	retq
LBB88_52:
	leaq	l___unnamed_154(%rip), %rax
	movl	$46, %edx
	popq	%rbp
	retq
LBB88_53:
	leaq	l___unnamed_155(%rip), %rax
	movl	$60, %edx
	popq	%rbp
	retq
LBB88_54:
	leaq	l___unnamed_156(%rip), %rax
	movl	$56, %edx
	popq	%rbp
	retq
LBB88_55:
	leaq	l___unnamed_157(%rip), %rax
	movl	$42, %edx
	popq	%rbp
	retq
LBB88_56:
	leaq	l___unnamed_158(%rip), %rax
	movl	$34, %edx
	popq	%rbp
	retq
LBB88_57:
	leaq	l___unnamed_159(%rip), %rax
	movl	$34, %edx
	popq	%rbp
	retq
LBB88_58:
	leaq	l___unnamed_160(%rip), %rax
	movl	$49, %edx
	popq	%rbp
	retq
LBB88_59:
	leaq	l___unnamed_161(%rip), %rax
	movl	$46, %edx
	popq	%rbp
	retq
LBB88_60:
	leaq	l___unnamed_162(%rip), %rax
	movl	$69, %edx
	popq	%rbp
	retq
LBB88_61:
	leaq	l___unnamed_163(%rip), %rax
	movl	$74, %edx
	popq	%rbp
	retq
LBB88_62:
	leaq	l___unnamed_164(%rip), %rax
	movl	$115, %edx
	popq	%rbp
	retq
LBB88_63:
	leaq	l___unnamed_165(%rip), %rax
	movl	$54, %edx
	popq	%rbp
	retq
LBB88_64:
	leaq	l___unnamed_166(%rip), %rax
	movl	$51, %edx
	popq	%rbp
	retq
LBB88_65:
	leaq	l___unnamed_167(%rip), %rax
	movl	$38, %edx
	popq	%rbp
	retq
LBB88_66:
	leaq	l___unnamed_168(%rip), %rax
	movl	$61, %edx
	popq	%rbp
	retq
LBB88_67:
	leaq	l___unnamed_169(%rip), %rax
	movl	$41, %edx
	popq	%rbp
	retq
LBB88_69:
	leaq	l___unnamed_170(%rip), %rax
LBB88_70:
	movl	$48, %edx
LBB88_71:
	popq	%rbp
	retq
LBB88_68:
	leaq	l___unnamed_171(%rip), %rax
	movl	$42, %edx
	popq	%rbp
	retq
	.cfi_endproc
	.p2align	2, 0x90
	.data_region jt32
.set L88_0_set_1, LBB88_1-LJTI88_0
.set L88_0_set_2, LBB88_2-LJTI88_0
.set L88_0_set_3, LBB88_3-LJTI88_0
.set L88_0_set_4, LBB88_4-LJTI88_0
.set L88_0_set_5, LBB88_5-LJTI88_0
.set L88_0_set_6, LBB88_6-LJTI88_0
.set L88_0_set_7, LBB88_7-LJTI88_0
.set L88_0_set_8, LBB88_8-LJTI88_0
.set L88_0_set_9, LBB88_9-LJTI88_0
.set L88_0_set_10, LBB88_10-LJTI88_0
.set L88_0_set_11, LBB88_11-LJTI88_0
.set L88_0_set_12, LBB88_12-LJTI88_0
.set L88_0_set_13, LBB88_13-LJTI88_0
.set L88_0_set_14, LBB88_14-LJTI88_0
.set L88_0_set_15, LBB88_15-LJTI88_0
.set L88_0_set_16, LBB88_16-LJTI88_0
.set L88_0_set_17, LBB88_17-LJTI88_0
.set L88_0_set_18, LBB88_18-LJTI88_0
.set L88_0_set_19, LBB88_19-LJTI88_0
.set L88_0_set_20, LBB88_20-LJTI88_0
.set L88_0_set_21, LBB88_21-LJTI88_0
.set L88_0_set_22, LBB88_22-LJTI88_0
.set L88_0_set_23, LBB88_23-LJTI88_0
.set L88_0_set_24, LBB88_24-LJTI88_0
.set L88_0_set_25, LBB88_25-LJTI88_0
.set L88_0_set_26, LBB88_26-LJTI88_0
.set L88_0_set_27, LBB88_27-LJTI88_0
.set L88_0_set_28, LBB88_28-LJTI88_0
.set L88_0_set_29, LBB88_29-LJTI88_0
.set L88_0_set_30, LBB88_30-LJTI88_0
.set L88_0_set_31, LBB88_31-LJTI88_0
.set L88_0_set_32, LBB88_32-LJTI88_0
.set L88_0_set_33, LBB88_33-LJTI88_0
.set L88_0_set_34, LBB88_34-LJTI88_0
.set L88_0_set_35, LBB88_35-LJTI88_0
.set L88_0_set_36, LBB88_36-LJTI88_0
.set L88_0_set_37, LBB88_37-LJTI88_0
.set L88_0_set_38, LBB88_38-LJTI88_0
.set L88_0_set_39, LBB88_39-LJTI88_0
.set L88_0_set_40, LBB88_40-LJTI88_0
.set L88_0_set_41, LBB88_41-LJTI88_0
.set L88_0_set_42, LBB88_42-LJTI88_0
.set L88_0_set_43, LBB88_43-LJTI88_0
.set L88_0_set_44, LBB88_44-LJTI88_0
.set L88_0_set_45, LBB88_45-LJTI88_0
.set L88_0_set_46, LBB88_46-LJTI88_0
.set L88_0_set_47, LBB88_47-LJTI88_0
.set L88_0_set_48, LBB88_48-LJTI88_0
.set L88_0_set_49, LBB88_49-LJTI88_0
.set L88_0_set_50, LBB88_50-LJTI88_0
.set L88_0_set_51, LBB88_51-LJTI88_0
.set L88_0_set_52, LBB88_52-LJTI88_0
.set L88_0_set_53, LBB88_53-LJTI88_0
.set L88_0_set_54, LBB88_54-LJTI88_0
.set L88_0_set_55, LBB88_55-LJTI88_0
.set L88_0_set_56, LBB88_56-LJTI88_0
.set L88_0_set_57, LBB88_57-LJTI88_0
.set L88_0_set_58, LBB88_58-LJTI88_0
.set L88_0_set_59, LBB88_59-LJTI88_0
.set L88_0_set_60, LBB88_60-LJTI88_0
.set L88_0_set_61, LBB88_61-LJTI88_0
.set L88_0_set_62, LBB88_62-LJTI88_0
.set L88_0_set_63, LBB88_63-LJTI88_0
.set L88_0_set_64, LBB88_64-LJTI88_0
.set L88_0_set_65, LBB88_65-LJTI88_0
.set L88_0_set_66, LBB88_66-LJTI88_0
.set L88_0_set_67, LBB88_67-LJTI88_0
.set L88_0_set_68, LBB88_68-LJTI88_0
.set L88_0_set_69, LBB88_69-LJTI88_0
.set L88_0_set_71, LBB88_71-LJTI88_0
LJTI88_0:
	.long	L88_0_set_1
	.long	L88_0_set_2
	.long	L88_0_set_3
	.long	L88_0_set_4
	.long	L88_0_set_5
	.long	L88_0_set_6
	.long	L88_0_set_7
	.long	L88_0_set_8
	.long	L88_0_set_9
	.long	L88_0_set_10
	.long	L88_0_set_11
	.long	L88_0_set_12
	.long	L88_0_set_13
	.long	L88_0_set_14
	.long	L88_0_set_15
	.long	L88_0_set_16
	.long	L88_0_set_17
	.long	L88_0_set_18
	.long	L88_0_set_19
	.long	L88_0_set_20
	.long	L88_0_set_21
	.long	L88_0_set_22
	.long	L88_0_set_23
	.long	L88_0_set_24
	.long	L88_0_set_25
	.long	L88_0_set_26
	.long	L88_0_set_27
	.long	L88_0_set_28
	.long	L88_0_set_29
	.long	L88_0_set_30
	.long	L88_0_set_31
	.long	L88_0_set_32
	.long	L88_0_set_33
	.long	L88_0_set_34
	.long	L88_0_set_35
	.long	L88_0_set_36
	.long	L88_0_set_37
	.long	L88_0_set_38
	.long	L88_0_set_39
	.long	L88_0_set_40
	.long	L88_0_set_41
	.long	L88_0_set_42
	.long	L88_0_set_43
	.long	L88_0_set_44
	.long	L88_0_set_45
	.long	L88_0_set_46
	.long	L88_0_set_47
	.long	L88_0_set_48
	.long	L88_0_set_49
	.long	L88_0_set_50
	.long	L88_0_set_51
	.long	L88_0_set_52
	.long	L88_0_set_53
	.long	L88_0_set_54
	.long	L88_0_set_55
	.long	L88_0_set_56
	.long	L88_0_set_57
	.long	L88_0_set_58
	.long	L88_0_set_59
	.long	L88_0_set_60
	.long	L88_0_set_61
	.long	L88_0_set_62
	.long	L88_0_set_63
	.long	L88_0_set_64
	.long	L88_0_set_65
	.long	L88_0_set_66
	.long	L88_0_set_67
	.long	L88_0_set_68
	.long	L88_0_set_69
	.long	L88_0_set_71
	.end_data_region

	.globl	__ZN5gimli4read41_$LT$impl$u20$gimli..common..Register$GT$8from_u6417h035103b4f79cd2d2E
	.p2align	4, 0x90
__ZN5gimli4read41_$LT$impl$u20$gimli..common..Register$GT$8from_u6417h035103b4f79cd2d2E:
	.cfi_startproc
	pushq	%rbp
	.cfi_def_cfa_offset 16
	.cfi_offset %rbp, -16
	movq	%rsp, %rbp
	.cfi_def_cfa_register %rbp
	movq	%rdi, %rax
	cmpq	$65536, %rsi
	jae	LBB89_1
	movw	%si, 2(%rax)
	xorl	%ecx, %ecx
	movw	%cx, (%rax)
	popq	%rbp
	retq
LBB89_1:
	movb	$58, 8(%rax)
	movq	%rsi, 16(%rax)
	movw	$1, %cx
	movw	%cx, (%rax)
	popq	%rbp
	retq
	.cfi_endproc

	.globl	__ZN58_$LT$gimli..common..Format$u20$as$u20$core..fmt..Debug$GT$3fmt17hafe8ab28a3584474E
	.p2align	4, 0x90
__ZN58_$LT$gimli..common..Format$u20$as$u20$core..fmt..Debug$GT$3fmt17hafe8ab28a3584474E:
	.cfi_startproc
	pushq	%rbp
	.cfi_def_cfa_offset 16
	.cfi_offset %rbp, -16
	movq	%rsp, %rbp
	.cfi_def_cfa_register %rbp
	pushq	%rbx
	subq	$24, %rsp
	.cfi_offset %rbx, -24
	cmpb	$8, (%rdi)
	jne	LBB90_1
	leaq	-32(%rbp), %rbx
	leaq	l___unnamed_44(%rip), %rdx
	jmp	LBB90_3
LBB90_1:
	leaq	-32(%rbp), %rbx
	leaq	l___unnamed_45(%rip), %rdx
LBB90_3:
	movl	$7, %ecx
	movq	%rbx, %rdi
	callq	__ZN4core3fmt9Formatter11debug_tuple17h15ca25ad759edd1cE
	movq	%rbx, %rdi
	callq	__ZN4core3fmt8builders10DebugTuple6finish17h68acf09c6f6593f2E
	addq	$24, %rsp
	popq	%rbx
	popq	%rbp
	retq
	.cfi_endproc

	.globl	__ZN60_$LT$gimli..common..Encoding$u20$as$u20$core..fmt..Debug$GT$3fmt17h24ed94907b8c4b1eE
	.p2align	4, 0x90
__ZN60_$LT$gimli..common..Encoding$u20$as$u20$core..fmt..Debug$GT$3fmt17h24ed94907b8c4b1eE:
	.cfi_startproc
	pushq	%rbp
	.cfi_def_cfa_offset 16
	.cfi_offset %rbp, -16
	movq	%rsp, %rbp
	.cfi_def_cfa_register %rbp
	pushq	%r15
	pushq	%r14
	pushq	%rbx
	subq	$24, %rsp
	.cfi_offset %rbx, -40
	.cfi_offset %r14, -32
	.cfi_offset %r15, -24
	movq	%rdi, %rbx
	leaq	L___unnamed_10(%rip), %rdx
	leaq	-48(%rbp), %r14
	movl	$8, %ecx
	movq	%r14, %rdi
	callq	__ZN4core3fmt9Formatter12debug_struct17h985c0158d1fc7193E
	movq	%rbx, -32(%rbp)
	leaq	1(%rbx), %r15
	addq	$2, %rbx
	leaq	l___unnamed_11(%rip), %rsi
	leaq	l___unnamed_3(%rip), %r8
	leaq	-32(%rbp), %rcx
	movl	$12, %edx
	movq	%r14, %rdi
	callq	__ZN4core3fmt8builders11DebugStruct5field17h9c15dc155278eed2E
	movq	%r15, -32(%rbp)
	leaq	l___unnamed_12(%rip), %rsi
	leaq	l___unnamed_13(%rip), %r8
	leaq	-32(%rbp), %rcx
	movl	$6, %edx
	movq	%r14, %rdi
	callq	__ZN4core3fmt8builders11DebugStruct5field17h9c15dc155278eed2E
	movq	%rbx, -32(%rbp)
	leaq	l___unnamed_14(%rip), %rsi
	leaq	l___unnamed_15(%rip), %r8
	leaq	-32(%rbp), %rcx
	movl	$7, %edx
	movq	%r14, %rdi
	callq	__ZN4core3fmt8builders11DebugStruct5field17h9c15dc155278eed2E
	movq	%r14, %rdi
	callq	__ZN4core3fmt8builders11DebugStruct6finish17h26808393f3fed630E
	addq	$24, %rsp
	popq	%rbx
	popq	%r14
	popq	%r15
	popq	%rbp
	retq
	.cfi_endproc

	.globl	__ZN64_$LT$gimli..common..LineEncoding$u20$as$u20$core..fmt..Debug$GT$3fmt17h8eb948236241661aE
	.p2align	4, 0x90
__ZN64_$LT$gimli..common..LineEncoding$u20$as$u20$core..fmt..Debug$GT$3fmt17h8eb948236241661aE:
	.cfi_startproc
	pushq	%rbp
	.cfi_def_cfa_offset 16
	.cfi_offset %rbp, -16
	movq	%rsp, %rbp
	.cfi_def_cfa_register %rbp
	pushq	%r15
	pushq	%r14
	pushq	%r13
	pushq	%r12
	pushq	%rbx
	subq	$40, %rsp
	.cfi_offset %rbx, -56
	.cfi_offset %r12, -48
	.cfi_offset %r13, -40
	.cfi_offset %r14, -32
	.cfi_offset %r15, -24
	movq	%rdi, %rbx
	leaq	l___unnamed_172(%rip), %rdx
	leaq	-72(%rbp), %r15
	movl	$12, %ecx
	movq	%r15, %rdi
	callq	__ZN4core3fmt9Formatter12debug_struct17h985c0158d1fc7193E
	movq	%rbx, -48(%rbp)
	leaq	1(%rbx), %r13
	leaq	2(%rbx), %r14
	leaq	3(%rbx), %r12
	leaq	4(%rbx), %rax
	movq	%rax, -56(%rbp)
	leaq	l___unnamed_173(%rip), %rsi
	leaq	l___unnamed_3(%rip), %rbx
	leaq	-48(%rbp), %rcx
	movl	$26, %edx
	movq	%r15, %rdi
	movq	%rbx, %r8
	callq	__ZN4core3fmt8builders11DebugStruct5field17h9c15dc155278eed2E
	movq	%r13, -48(%rbp)
	leaq	l___unnamed_174(%rip), %rsi
	leaq	-48(%rbp), %rcx
	movl	$34, %edx
	movq	%r15, %rdi
	movq	%rbx, %r8
	callq	__ZN4core3fmt8builders11DebugStruct5field17h9c15dc155278eed2E
	movq	%r14, -48(%rbp)
	leaq	l___unnamed_175(%rip), %rsi
	leaq	l___unnamed_176(%rip), %r8
	leaq	-48(%rbp), %rcx
	movl	$15, %edx
	movq	%r15, %rdi
	callq	__ZN4core3fmt8builders11DebugStruct5field17h9c15dc155278eed2E
	movq	%r12, -48(%rbp)
	leaq	l___unnamed_177(%rip), %rsi
	leaq	l___unnamed_178(%rip), %r8
	leaq	-48(%rbp), %rcx
	movl	$9, %edx
	movq	%r15, %rdi
	callq	__ZN4core3fmt8builders11DebugStruct5field17h9c15dc155278eed2E
	movq	-56(%rbp), %rax
	movq	%rax, -48(%rbp)
	leaq	l___unnamed_179(%rip), %rsi
	leaq	-48(%rbp), %rcx
	movl	$10, %edx
	movq	%r15, %rdi
	movq	%rbx, %r8
	callq	__ZN4core3fmt8builders11DebugStruct5field17h9c15dc155278eed2E
	movq	%r15, %rdi
	callq	__ZN4core3fmt8builders11DebugStruct6finish17h26808393f3fed630E
	addq	$40, %rsp
	popq	%rbx
	popq	%r12
	popq	%r13
	popq	%r14
	popq	%r15
	popq	%rbp
	retq
	.cfi_endproc

	.globl	__ZN60_$LT$gimli..common..Register$u20$as$u20$core..fmt..Debug$GT$3fmt17he2384b44466fb239E
	.p2align	4, 0x90
__ZN60_$LT$gimli..common..Register$u20$as$u20$core..fmt..Debug$GT$3fmt17he2384b44466fb239E:
	.cfi_startproc
	pushq	%rbp
	.cfi_def_cfa_offset 16
	.cfi_offset %rbp, -16
	movq	%rsp, %rbp
	.cfi_def_cfa_register %rbp
	pushq	%r14
	pushq	%rbx
	subq	$32, %rsp
	.cfi_offset %rbx, -32
	.cfi_offset %r14, -24
	movq	%rdi, %rbx
	leaq	L___unnamed_180(%rip), %rdx
	leaq	-48(%rbp), %r14
	movl	$8, %ecx
	movq	%r14, %rdi
	callq	__ZN4core3fmt9Formatter11debug_tuple17h15ca25ad759edd1cE
	movq	%rbx, -24(%rbp)
	leaq	l___unnamed_15(%rip), %rdx
	leaq	-24(%rbp), %rsi
	movq	%r14, %rdi
	callq	__ZN4core3fmt8builders10DebugTuple5field17hf36121153a94f236E
	movq	%r14, %rdi
	callq	__ZN4core3fmt8builders10DebugTuple6finish17h68acf09c6f6593f2E
	addq	$32, %rsp
	popq	%rbx
	popq	%r14
	popq	%rbp
	retq
	.cfi_endproc

	.globl	__ZN70_$LT$gimli..common..DebugTypeSignature$u20$as$u20$core..fmt..Debug$GT$3fmt17h8e39c77af0c977fdE
	.p2align	4, 0x90
__ZN70_$LT$gimli..common..DebugTypeSignature$u20$as$u20$core..fmt..Debug$GT$3fmt17h8e39c77af0c977fdE:
	.cfi_startproc
	pushq	%rbp
	.cfi_def_cfa_offset 16
	.cfi_offset %rbp, -16
	movq	%rsp, %rbp
	.cfi_def_cfa_register %rbp
	pushq	%r14
	pushq	%rbx
	subq	$32, %rsp
	.cfi_offset %rbx, -32
	.cfi_offset %r14, -24
	movq	%rdi, %rbx
	leaq	l___unnamed_181(%rip), %rdx
	leaq	-48(%rbp), %r14
	movl	$18, %ecx
	movq	%r14, %rdi
	callq	__ZN4core3fmt9Formatter11debug_tuple17h15ca25ad759edd1cE
	movq	%rbx, -24(%rbp)
	leaq	l___unnamed_6(%rip), %rdx
	leaq	-24(%rbp), %rsi
	movq	%r14, %rdi
	callq	__ZN4core3fmt8builders10DebugTuple5field17hf36121153a94f236E
	movq	%r14, %rdi
	callq	__ZN4core3fmt8builders10DebugTuple6finish17h68acf09c6f6593f2E
	addq	$32, %rsp
	popq	%rbx
	popq	%r14
	popq	%rbp
	retq
	.cfi_endproc

	.globl	__ZN61_$LT$gimli..common..SectionId$u20$as$u20$core..fmt..Debug$GT$3fmt17hc6656cd177a42f68E
	.p2align	4, 0x90
__ZN61_$LT$gimli..common..SectionId$u20$as$u20$core..fmt..Debug$GT$3fmt17hc6656cd177a42f68E:
	.cfi_startproc
	pushq	%rbp
	.cfi_def_cfa_offset 16
	.cfi_offset %rbp, -16
	movq	%rsp, %rbp
	.cfi_def_cfa_register %rbp
	pushq	%rbx
	subq	$24, %rsp
	.cfi_offset %rbx, -24
	movzbl	(%rdi), %eax
	leaq	LJTI95_0(%rip), %rcx
	movslq	(%rcx,%rax,4), %rax
	addq	%rcx, %rax
	jmpq	*%rax
LBB95_1:
	leaq	-32(%rbp), %rbx
	leaq	l___unnamed_182(%rip), %rdx
	movl	$11, %ecx
	jmp	LBB95_22
LBB95_2:
	leaq	-32(%rbp), %rbx
	leaq	l___unnamed_183(%rip), %rdx
	movl	$9, %ecx
	jmp	LBB95_22
LBB95_3:
	leaq	-32(%rbp), %rbx
	leaq	l___unnamed_184(%rip), %rdx
	movl	$12, %ecx
	jmp	LBB95_22
LBB95_4:
	leaq	-32(%rbp), %rbx
	leaq	l___unnamed_185(%rip), %rdx
	jmp	LBB95_21
LBB95_5:
	leaq	-32(%rbp), %rbx
	leaq	l___unnamed_186(%rip), %rdx
	movl	$7, %ecx
	jmp	LBB95_22
LBB95_6:
	leaq	-32(%rbp), %rbx
	leaq	l___unnamed_187(%rip), %rdx
	jmp	LBB95_21
LBB95_7:
	leaq	-32(%rbp), %rbx
	leaq	l___unnamed_188(%rip), %rdx
	movl	$9, %ecx
	jmp	LBB95_22
LBB95_8:
	leaq	-32(%rbp), %rbx
	leaq	l___unnamed_189(%rip), %rdx
	movl	$9, %ecx
	jmp	LBB95_22
LBB95_9:
	leaq	-32(%rbp), %rbx
	leaq	l___unnamed_190(%rip), %rdx
	movl	$12, %ecx
	jmp	LBB95_22
LBB95_10:
	leaq	-32(%rbp), %rbx
	leaq	L___unnamed_191(%rip), %rdx
	movl	$8, %ecx
	jmp	LBB95_22
LBB95_11:
	leaq	-32(%rbp), %rbx
	leaq	l___unnamed_192(%rip), %rdx
	movl	$13, %ecx
	jmp	LBB95_22
LBB95_12:
	leaq	-32(%rbp), %rbx
	leaq	l___unnamed_193(%rip), %rdx
	movl	$12, %ecx
	jmp	LBB95_22
LBB95_13:
	leaq	-32(%rbp), %rbx
	leaq	l___unnamed_194(%rip), %rdx
	jmp	LBB95_21
LBB95_14:
	leaq	-32(%rbp), %rbx
	leaq	l___unnamed_195(%rip), %rdx
	movl	$13, %ecx
	jmp	LBB95_22
LBB95_15:
	leaq	-32(%rbp), %rbx
	leaq	l___unnamed_196(%rip), %rdx
	movl	$13, %ecx
	jmp	LBB95_22
LBB95_16:
	leaq	-32(%rbp), %rbx
	leaq	l___unnamed_197(%rip), %rdx
	movl	$11, %ecx
	jmp	LBB95_22
LBB95_17:
	leaq	-32(%rbp), %rbx
	leaq	l___unnamed_198(%rip), %rdx
	movl	$13, %ecx
	jmp	LBB95_22
LBB95_18:
	leaq	-32(%rbp), %rbx
	leaq	L___unnamed_199(%rip), %rdx
	movl	$8, %ecx
	jmp	LBB95_22
LBB95_19:
	leaq	-32(%rbp), %rbx
	leaq	l___unnamed_200(%rip), %rdx
	movl	$15, %ecx
	jmp	LBB95_22
LBB95_20:
	leaq	-32(%rbp), %rbx
	leaq	l___unnamed_201(%rip), %rdx
LBB95_21:
	movl	$10, %ecx
LBB95_22:
	movq	%rbx, %rdi
	callq	__ZN4core3fmt9Formatter11debug_tuple17h15ca25ad759edd1cE
	movq	%rbx, %rdi
	callq	__ZN4core3fmt8builders10DebugTuple6finish17h68acf09c6f6593f2E
	addq	$24, %rsp
	popq	%rbx
	popq	%rbp
	retq
	.cfi_endproc
	.p2align	2, 0x90
	.data_region jt32
.set L95_0_set_1, LBB95_1-LJTI95_0
.set L95_0_set_2, LBB95_2-LJTI95_0
.set L95_0_set_3, LBB95_3-LJTI95_0
.set L95_0_set_4, LBB95_4-LJTI95_0
.set L95_0_set_5, LBB95_5-LJTI95_0
.set L95_0_set_6, LBB95_6-LJTI95_0
.set L95_0_set_7, LBB95_7-LJTI95_0
.set L95_0_set_8, LBB95_8-LJTI95_0
.set L95_0_set_9, LBB95_9-LJTI95_0
.set L95_0_set_10, LBB95_10-LJTI95_0
.set L95_0_set_11, LBB95_11-LJTI95_0
.set L95_0_set_12, LBB95_12-LJTI95_0
.set L95_0_set_13, LBB95_13-LJTI95_0
.set L95_0_set_14, LBB95_14-LJTI95_0
.set L95_0_set_15, LBB95_15-LJTI95_0
.set L95_0_set_16, LBB95_16-LJTI95_0
.set L95_0_set_17, LBB95_17-LJTI95_0
.set L95_0_set_18, LBB95_18-LJTI95_0
.set L95_0_set_19, LBB95_19-LJTI95_0
.set L95_0_set_20, LBB95_20-LJTI95_0
LJTI95_0:
	.long	L95_0_set_1
	.long	L95_0_set_2
	.long	L95_0_set_3
	.long	L95_0_set_4
	.long	L95_0_set_5
	.long	L95_0_set_6
	.long	L95_0_set_7
	.long	L95_0_set_8
	.long	L95_0_set_9
	.long	L95_0_set_10
	.long	L95_0_set_11
	.long	L95_0_set_12
	.long	L95_0_set_13
	.long	L95_0_set_14
	.long	L95_0_set_15
	.long	L95_0_set_16
	.long	L95_0_set_17
	.long	L95_0_set_18
	.long	L95_0_set_19
	.long	L95_0_set_20
	.end_data_region

	.globl	__ZN53_$LT$gimli..arch..Arm$u20$as$u20$core..fmt..Debug$GT$3fmt17h17ef3095abcfefbaE
	.p2align	4, 0x90
__ZN53_$LT$gimli..arch..Arm$u20$as$u20$core..fmt..Debug$GT$3fmt17h17ef3095abcfefbaE:
	.cfi_startproc
	pushq	%rbp
	.cfi_def_cfa_offset 16
	.cfi_offset %rbp, -16
	movq	%rsp, %rbp
	.cfi_def_cfa_register %rbp
	pushq	%rbx
	subq	$24, %rsp
	.cfi_offset %rbx, -24
	leaq	l___unnamed_202(%rip), %rdx
	leaq	-32(%rbp), %rbx
	movl	$3, %ecx
	movq	%rbx, %rdi
	callq	__ZN4core3fmt9Formatter11debug_tuple17h15ca25ad759edd1cE
	movq	%rbx, %rdi
	callq	__ZN4core3fmt8builders10DebugTuple6finish17h68acf09c6f6593f2E
	addq	$24, %rsp
	popq	%rbx
	popq	%rbp
	retq
	.cfi_endproc

	.globl	__ZN5gimli4arch3Arm13register_name17h86ed1e54bc58c36bE
	.p2align	4, 0x90
__ZN5gimli4arch3Arm13register_name17h86ed1e54bc58c36bE:
	.cfi_startproc
	cmpw	$15, %di
	ja	LBB97_1
	pushq	%rbp
	.cfi_def_cfa_offset 16
	.cfi_offset %rbp, -16
	movq	%rsp, %rbp
	.cfi_def_cfa_register %rbp
	movswq	%di, %rax
	leaq	l_switch.table._ZN5gimli4arch3Arm13register_name17h86ed1e54bc58c36bE(%rip), %rcx
	movq	(%rcx,%rax,8), %rdx
	leaq	l_switch.table._ZN5gimli4arch3Arm13register_name17h86ed1e54bc58c36bE.95(%rip), %rcx
	movq	(%rcx,%rax,8), %rax
	popq	%rbp
	retq
LBB97_1:
	xorl	%eax, %eax
	retq
	.cfi_endproc

	.globl	__ZN53_$LT$gimli..arch..X86$u20$as$u20$core..fmt..Debug$GT$3fmt17he39b8e3513cf738bE
	.p2align	4, 0x90
__ZN53_$LT$gimli..arch..X86$u20$as$u20$core..fmt..Debug$GT$3fmt17he39b8e3513cf738bE:
	.cfi_startproc
	pushq	%rbp
	.cfi_def_cfa_offset 16
	.cfi_offset %rbp, -16
	movq	%rsp, %rbp
	.cfi_def_cfa_register %rbp
	pushq	%rbx
	subq	$24, %rsp
	.cfi_offset %rbx, -24
	leaq	l___unnamed_203(%rip), %rdx
	leaq	-32(%rbp), %rbx
	movl	$3, %ecx
	movq	%rbx, %rdi
	callq	__ZN4core3fmt9Formatter11debug_tuple17h15ca25ad759edd1cE
	movq	%rbx, %rdi
	callq	__ZN4core3fmt8builders10DebugTuple6finish17h68acf09c6f6593f2E
	addq	$24, %rsp
	popq	%rbx
	popq	%rbp
	retq
	.cfi_endproc

	.globl	__ZN5gimli4arch3X8613register_name17h6368dfe2eebc1e18E
	.p2align	4, 0x90
__ZN5gimli4arch3X8613register_name17h6368dfe2eebc1e18E:
	.cfi_startproc
	cmpw	$94, %di
	ja	LBB99_1
	pushq	%rbp
	.cfi_def_cfa_offset 16
	.cfi_offset %rbp, -16
	movq	%rsp, %rbp
	.cfi_def_cfa_register %rbp
	movswq	%di, %rax
	leaq	l_switch.table._ZN5gimli4arch3X8613register_name17h6368dfe2eebc1e18E(%rip), %rcx
	movq	(%rcx,%rax,8), %rdx
	leaq	l_switch.table._ZN5gimli4arch3X8613register_name17h6368dfe2eebc1e18E.96(%rip), %rcx
	movq	(%rcx,%rax,8), %rax
	popq	%rbp
	retq
LBB99_1:
	xorl	%eax, %eax
	retq
	.cfi_endproc

	.globl	__ZN56_$LT$gimli..arch..X86_64$u20$as$u20$core..fmt..Debug$GT$3fmt17hecc3c819295831aaE
	.p2align	4, 0x90
__ZN56_$LT$gimli..arch..X86_64$u20$as$u20$core..fmt..Debug$GT$3fmt17hecc3c819295831aaE:
	.cfi_startproc
	pushq	%rbp
	.cfi_def_cfa_offset 16
	.cfi_offset %rbp, -16
	movq	%rsp, %rbp
	.cfi_def_cfa_register %rbp
	pushq	%rbx
	subq	$24, %rsp
	.cfi_offset %rbx, -24
	leaq	l___unnamed_204(%rip), %rdx
	leaq	-32(%rbp), %rbx
	movl	$6, %ecx
	movq	%rbx, %rdi
	callq	__ZN4core3fmt9Formatter11debug_tuple17h15ca25ad759edd1cE
	movq	%rbx, %rdi
	callq	__ZN4core3fmt8builders10DebugTuple6finish17h68acf09c6f6593f2E
	addq	$24, %rsp
	popq	%rbx
	popq	%rbp
	retq
	.cfi_endproc

	.globl	__ZN5gimli4arch6X86_6413register_name17hf5077be252ac9e6bE
	.p2align	4, 0x90
__ZN5gimli4arch6X86_6413register_name17hf5077be252ac9e6bE:
	.cfi_startproc
	cmpw	$125, %di
	ja	LBB101_1
	pushq	%rbp
	.cfi_def_cfa_offset 16
	.cfi_offset %rbp, -16
	movq	%rsp, %rbp
	.cfi_def_cfa_register %rbp
	movswq	%di, %rax
	leaq	l_switch.table._ZN5gimli4arch6X86_6413register_name17hf5077be252ac9e6bE(%rip), %rcx
	movq	(%rcx,%rax,8), %rdx
	leaq	l_switch.table._ZN5gimli4arch6X86_6413register_name17hf5077be252ac9e6bE.97(%rip), %rcx
	movq	(%rcx,%rax,8), %rax
	popq	%rbp
	retq
LBB101_1:
	xorl	%eax, %eax
	retq
	.cfi_endproc

	.globl	__ZN5gimli9constants4DwUt13static_string17hd79625d6ce658590E
	.p2align	4, 0x90
__ZN5gimli9constants4DwUt13static_string17hd79625d6ce658590E:
	.cfi_startproc
	pushq	%rbp
	.cfi_def_cfa_offset 16
	.cfi_offset %rbp, -16
	movq	%rsp, %rbp
	.cfi_def_cfa_register %rbp
	movb	(%rdi), %cl
	movl	$13, %edx
	xorl	%eax, %eax
	leal	1(%rcx), %esi
	cmpb	$7, %sil
	ja	LBB102_1
	leaq	l___unnamed_205(%rip), %rcx
	movzbl	%sil, %esi
	leaq	LJTI102_0(%rip), %rdi
	movslq	(%rdi,%rsi,4), %rsi
	addq	%rdi, %rsi
	jmpq	*%rsi
LBB102_9:
	leaq	l___unnamed_206(%rip), %rcx
	jmp	LBB102_10
LBB102_1:
	cmpb	$-128, %cl
	jne	LBB102_11
	leaq	l___unnamed_207(%rip), %rcx
	jmp	LBB102_10
LBB102_4:
	leaq	l___unnamed_208(%rip), %rcx
	movl	$10, %edx
	jmp	LBB102_10
LBB102_5:
	leaq	l___unnamed_209(%rip), %rcx
	jmp	LBB102_10
LBB102_6:
	leaq	l___unnamed_210(%rip), %rcx
	movl	$14, %edx
	jmp	LBB102_10
LBB102_7:
	leaq	l___unnamed_211(%rip), %rcx
	movl	$19, %edx
	jmp	LBB102_10
LBB102_8:
	leaq	L___unnamed_212(%rip), %rcx
	movl	$16, %edx
LBB102_10:
	movq	%rcx, %rax
LBB102_11:
	popq	%rbp
	retq
	.cfi_endproc
	.p2align	2, 0x90
	.data_region jt32
.set L102_0_set_9, LBB102_9-LJTI102_0
.set L102_0_set_11, LBB102_11-LJTI102_0
.set L102_0_set_10, LBB102_10-LJTI102_0
.set L102_0_set_4, LBB102_4-LJTI102_0
.set L102_0_set_5, LBB102_5-LJTI102_0
.set L102_0_set_6, LBB102_6-LJTI102_0
.set L102_0_set_7, LBB102_7-LJTI102_0
.set L102_0_set_8, LBB102_8-LJTI102_0
LJTI102_0:
	.long	L102_0_set_9
	.long	L102_0_set_11
	.long	L102_0_set_10
	.long	L102_0_set_4
	.long	L102_0_set_5
	.long	L102_0_set_6
	.long	L102_0_set_7
	.long	L102_0_set_8
	.end_data_region

	.globl	__ZN61_$LT$gimli..constants..DwUt$u20$as$u20$core..fmt..Display$GT$3fmt17h5279a8c19368cf64E
	.p2align	4, 0x90
__ZN61_$LT$gimli..constants..DwUt$u20$as$u20$core..fmt..Display$GT$3fmt17h5279a8c19368cf64E:
Lfunc_begin3:
	.cfi_startproc
	.cfi_personality 155, _rust_eh_personality
	.cfi_lsda 16, Lexception3
	pushq	%rbp
	.cfi_def_cfa_offset 16
	.cfi_offset %rbp, -16
	movq	%rsp, %rbp
	.cfi_def_cfa_register %rbp
	pushq	%r14
	pushq	%rbx
	subq	$112, %rsp
	.cfi_offset %rbx, -32
	.cfi_offset %r14, -24
	movq	%rsi, %rbx
	movb	(%rdi), %al
	movl	$13, %edx
	leal	1(%rax), %ecx
	cmpb	$7, %cl
	ja	LBB103_1
	leaq	l___unnamed_205(%rip), %rsi
	movzbl	%cl, %eax
	leaq	LJTI103_0(%rip), %rcx
	movslq	(%rcx,%rax,4), %rax
	addq	%rcx, %rax
	jmpq	*%rax
LBB103_9:
	leaq	l___unnamed_206(%rip), %rsi
	jmp	LBB103_10
LBB103_1:
	cmpb	$-128, %al
	jne	LBB103_11
	leaq	l___unnamed_207(%rip), %rsi
	jmp	LBB103_10
LBB103_11:
	leaq	__ZN44_$LT$$RF$T$u20$as$u20$core..fmt..Display$GT$3fmt17hfb18b74c4657b0bcE(%rip), %rax
	vmovq	%rax, %xmm0
	leaq	l___unnamed_213(%rip), %rax
	vmovq	%rax, %xmm1
	vpunpcklqdq	%xmm0, %xmm1, %xmm0
	vmovdqa	%xmm0, -80(%rbp)
	movq	%rdi, -64(%rbp)
	movq	__ZN4core3fmt3num3imp51_$LT$impl$u20$core..fmt..Display$u20$for$u20$u8$GT$3fmt17h0e89df114e53d66dE@GOTPCREL(%rip), %rax
	movq	%rax, -56(%rbp)
	leaq	l___unnamed_214(%rip), %rax
	movq	%rax, -128(%rbp)
	movq	$2, -120(%rbp)
	movq	$0, -112(%rbp)
	leaq	-80(%rbp), %rax
	movq	%rax, -96(%rbp)
	movq	$2, -88(%rbp)
	leaq	-40(%rbp), %rdi
	leaq	-128(%rbp), %rsi
	callq	__ZN5alloc3fmt6format17hef4b691705b449e4E
	movq	-40(%rbp), %r14
	movq	-24(%rbp), %rdx
Ltmp20:
	movq	%rbx, %rdi
	movq	%r14, %rsi
	callq	__ZN4core3fmt9Formatter3pad17he4a76f49c06ce69bE
Ltmp21:
	movl	%eax, %ebx
	movq	-32(%rbp), %rsi
	testq	%rsi, %rsi
	je	LBB103_14
	movl	$1, %edx
	movq	%r14, %rdi
	callq	___rust_dealloc
LBB103_14:
	movl	%ebx, %eax
	addq	$112, %rsp
	popq	%rbx
	popq	%r14
	popq	%rbp
	retq
LBB103_4:
	leaq	l___unnamed_208(%rip), %rsi
	movl	$10, %edx
	jmp	LBB103_10
LBB103_5:
	leaq	l___unnamed_209(%rip), %rsi
	jmp	LBB103_10
LBB103_6:
	leaq	l___unnamed_210(%rip), %rsi
	movl	$14, %edx
	jmp	LBB103_10
LBB103_7:
	leaq	l___unnamed_211(%rip), %rsi
	movl	$19, %edx
	jmp	LBB103_10
LBB103_8:
	leaq	L___unnamed_212(%rip), %rsi
	movl	$16, %edx
LBB103_10:
	movq	%rbx, %rdi
	addq	$112, %rsp
	popq	%rbx
	popq	%r14
	popq	%rbp
	jmp	__ZN4core3fmt9Formatter3pad17he4a76f49c06ce69bE
LBB103_15:
Ltmp22:
	movq	%rax, %rbx
	leaq	-40(%rbp), %rdi
	callq	__ZN4core3ptr13drop_in_place17hcb660db0ba6c573eE
	movq	%rbx, %rdi
	callq	__Unwind_Resume
	ud2
Lfunc_end3:
	.cfi_endproc
	.p2align	2, 0x90
	.data_region jt32
.set L103_0_set_9, LBB103_9-LJTI103_0
.set L103_0_set_11, LBB103_11-LJTI103_0
.set L103_0_set_10, LBB103_10-LJTI103_0
.set L103_0_set_4, LBB103_4-LJTI103_0
.set L103_0_set_5, LBB103_5-LJTI103_0
.set L103_0_set_6, LBB103_6-LJTI103_0
.set L103_0_set_7, LBB103_7-LJTI103_0
.set L103_0_set_8, LBB103_8-LJTI103_0
LJTI103_0:
	.long	L103_0_set_9
	.long	L103_0_set_11
	.long	L103_0_set_10
	.long	L103_0_set_4
	.long	L103_0_set_5
	.long	L103_0_set_6
	.long	L103_0_set_7
	.long	L103_0_set_8
	.end_data_region
	.section	__TEXT,__gcc_except_tab
	.p2align	2
GCC_except_table103:
Lexception3:
	.byte	255
	.byte	255
	.byte	1
	.uleb128 Lcst_end3-Lcst_begin3
Lcst_begin3:
	.uleb128 Lfunc_begin3-Lfunc_begin3
	.uleb128 Ltmp20-Lfunc_begin3
	.byte	0
	.byte	0
	.uleb128 Ltmp20-Lfunc_begin3
	.uleb128 Ltmp21-Ltmp20
	.uleb128 Ltmp22-Lfunc_begin3
	.byte	0
	.uleb128 Ltmp21-Lfunc_begin3
	.uleb128 Lfunc_end3-Ltmp21
	.byte	0
	.byte	0
Lcst_end3:
	.p2align	2

	.section	__TEXT,__text,regular,pure_instructions
	.globl	__ZN59_$LT$gimli..constants..DwUt$u20$as$u20$core..fmt..Debug$GT$3fmt17h03ea7ce6002e084fE
	.p2align	4, 0x90
__ZN59_$LT$gimli..constants..DwUt$u20$as$u20$core..fmt..Debug$GT$3fmt17h03ea7ce6002e084fE:
	.cfi_startproc
	pushq	%rbp
	.cfi_def_cfa_offset 16
	.cfi_offset %rbp, -16
	movq	%rsp, %rbp
	.cfi_def_cfa_register %rbp
	pushq	%r14
	pushq	%rbx
	subq	$32, %rsp
	.cfi_offset %rbx, -32
	.cfi_offset %r14, -24
	movq	%rdi, %rbx
	leaq	L___unnamed_215(%rip), %rdx
	leaq	-48(%rbp), %r14
	movl	$4, %ecx
	movq	%r14, %rdi
	callq	__ZN4core3fmt9Formatter11debug_tuple17h15ca25ad759edd1cE
	movq	%rbx, -24(%rbp)
	leaq	l___unnamed_3(%rip), %rdx
	leaq	-24(%rbp), %rsi
	movq	%r14, %rdi
	callq	__ZN4core3fmt8builders10DebugTuple5field17hf36121153a94f236E
	movq	%r14, %rdi
	callq	__ZN4core3fmt8builders10DebugTuple6finish17h68acf09c6f6593f2E
	addq	$32, %rsp
	popq	%rbx
	popq	%r14
	popq	%rbp
	retq
	.cfi_endproc

	.globl	__ZN5gimli9constants5DwCfa13static_string17h81e897ef46bb1dacE
	.p2align	4, 0x90
__ZN5gimli9constants5DwCfa13static_string17h81e897ef46bb1dacE:
	.cfi_startproc
	pushq	%rbp
	.cfi_def_cfa_offset 16
	.cfi_offset %rbp, -16
	movq	%rsp, %rbp
	.cfi_def_cfa_register %rbp
	movb	(%rdi), %cl
	xorl	%eax, %eax
	addb	$-128, %cl
	cmpb	$-64, %cl
	ja	LBB105_1
	leaq	l___unnamed_216(%rip), %rsi
	movl	$18, %edx
	movzbl	%cl, %ecx
	leaq	LJTI105_0(%rip), %rdi
	movslq	(%rdi,%rcx,4), %rcx
	addq	%rdi, %rcx
	jmpq	*%rcx
LBB105_3:
	leaq	l___unnamed_217(%rip), %rsi
	movl	$13, %edx
	jmp	LBB105_34
LBB105_4:
	leaq	l___unnamed_218(%rip), %rsi
	movl	$14, %edx
	jmp	LBB105_34
LBB105_7:
	leaq	l___unnamed_219(%rip), %rsi
	movl	$19, %edx
	jmp	LBB105_34
LBB105_8:
	leaq	l___unnamed_220(%rip), %rsi
	movl	$19, %edx
	jmp	LBB105_34
LBB105_9:
	leaq	l___unnamed_221(%rip), %rsi
	movl	$19, %edx
	jmp	LBB105_34
LBB105_12:
	leaq	L___unnamed_222(%rip), %rsi
	movl	$16, %edx
	jmp	LBB105_34
LBB105_13:
	leaq	l___unnamed_223(%rip), %rsi
	movl	$17, %edx
	jmp	LBB105_34
LBB105_14:
	leaq	l___unnamed_224(%rip), %rsi
	movl	$15, %edx
	jmp	LBB105_34
LBB105_15:
	leaq	l___unnamed_225(%rip), %rsi
	movl	$21, %edx
	jmp	LBB105_34
LBB105_16:
	leaq	l___unnamed_226(%rip), %rsi
	movl	$20, %edx
	jmp	LBB105_34
LBB105_17:
	leaq	l___unnamed_227(%rip), %rsi
	movl	$14, %edx
	jmp	LBB105_34
LBB105_20:
	leaq	l___unnamed_228(%rip), %rsi
	movl	$25, %edx
	jmp	LBB105_34
LBB105_21:
	leaq	l___unnamed_229(%rip), %rsi
	movl	$17, %edx
	jmp	LBB105_34
LBB105_23:
	leaq	l___unnamed_230(%rip), %rsi
	movl	$17, %edx
	jmp	LBB105_34
LBB105_24:
	leaq	l___unnamed_231(%rip), %rsi
	movl	$24, %edx
	jmp	LBB105_34
LBB105_25:
	leaq	l___unnamed_232(%rip), %rsi
	movl	$17, %edx
	jmp	LBB105_34
LBB105_26:
	leaq	l___unnamed_233(%rip), %rsi
	movl	$20, %edx
	jmp	LBB105_34
LBB105_27:
	leaq	l___unnamed_234(%rip), %rsi
	movl	$21, %edx
	jmp	LBB105_34
LBB105_31:
	leaq	l___unnamed_235(%rip), %rsi
	movl	$22, %edx
	jmp	LBB105_34
LBB105_32:
	leaq	l___unnamed_236(%rip), %rsi
	movl	$20, %edx
	jmp	LBB105_34
LBB105_29:
	leaq	l___unnamed_237(%rip), %rsi
	movl	$14, %edx
	jmp	LBB105_34
LBB105_5:
	leaq	l___unnamed_238(%rip), %rsi
	movl	$10, %edx
	jmp	LBB105_34
LBB105_6:
	leaq	l___unnamed_239(%rip), %rsi
	movl	$14, %edx
	jmp	LBB105_34
LBB105_10:
	leaq	l___unnamed_240(%rip), %rsi
	movl	$22, %edx
	jmp	LBB105_34
LBB105_11:
	leaq	l___unnamed_241(%rip), %rsi
	movl	$23, %edx
	jmp	LBB105_34
LBB105_18:
	leaq	l___unnamed_242(%rip), %rsi
	movl	$23, %edx
	jmp	LBB105_34
LBB105_19:
	leaq	l___unnamed_243(%rip), %rsi
	movl	$21, %edx
	jmp	LBB105_34
LBB105_22:
	leaq	l___unnamed_244(%rip), %rsi
	movl	$25, %edx
	jmp	LBB105_34
LBB105_28:
	leaq	l___unnamed_245(%rip), %rsi
	movl	$14, %edx
	jmp	LBB105_34
LBB105_30:
	leaq	l___unnamed_246(%rip), %rsi
	movl	$24, %edx
	jmp	LBB105_34
LBB105_33:
	leaq	l___unnamed_247(%rip), %rsi
	movl	$35, %edx
LBB105_34:
	movq	%rsi, %rax
LBB105_35:
	popq	%rbp
	retq
LBB105_1:
	popq	%rbp
	retq
	.cfi_endproc
	.p2align	2, 0x90
	.data_region jt32
.set L105_0_set_3, LBB105_3-LJTI105_0
.set L105_0_set_35, LBB105_35-LJTI105_0
.set L105_0_set_4, LBB105_4-LJTI105_0
.set L105_0_set_5, LBB105_5-LJTI105_0
.set L105_0_set_6, LBB105_6-LJTI105_0
.set L105_0_set_7, LBB105_7-LJTI105_0
.set L105_0_set_8, LBB105_8-LJTI105_0
.set L105_0_set_9, LBB105_9-LJTI105_0
.set L105_0_set_10, LBB105_10-LJTI105_0
.set L105_0_set_11, LBB105_11-LJTI105_0
.set L105_0_set_12, LBB105_12-LJTI105_0
.set L105_0_set_13, LBB105_13-LJTI105_0
.set L105_0_set_14, LBB105_14-LJTI105_0
.set L105_0_set_15, LBB105_15-LJTI105_0
.set L105_0_set_16, LBB105_16-LJTI105_0
.set L105_0_set_17, LBB105_17-LJTI105_0
.set L105_0_set_18, LBB105_18-LJTI105_0
.set L105_0_set_19, LBB105_19-LJTI105_0
.set L105_0_set_20, LBB105_20-LJTI105_0
.set L105_0_set_21, LBB105_21-LJTI105_0
.set L105_0_set_22, LBB105_22-LJTI105_0
.set L105_0_set_23, LBB105_23-LJTI105_0
.set L105_0_set_24, LBB105_24-LJTI105_0
.set L105_0_set_25, LBB105_25-LJTI105_0
.set L105_0_set_26, LBB105_26-LJTI105_0
.set L105_0_set_27, LBB105_27-LJTI105_0
.set L105_0_set_28, LBB105_28-LJTI105_0
.set L105_0_set_30, LBB105_30-LJTI105_0
.set L105_0_set_31, LBB105_31-LJTI105_0
.set L105_0_set_32, LBB105_32-LJTI105_0
.set L105_0_set_33, LBB105_33-LJTI105_0
.set L105_0_set_29, LBB105_29-LJTI105_0
.set L105_0_set_34, LBB105_34-LJTI105_0
LJTI105_0:
	.long	L105_0_set_3
	.long	L105_0_set_35
	.long	L105_0_set_35
	.long	L105_0_set_35
	.long	L105_0_set_35
	.long	L105_0_set_35
	.long	L105_0_set_35
	.long	L105_0_set_35
	.long	L105_0_set_35
	.long	L105_0_set_35
	.long	L105_0_set_35
	.long	L105_0_set_35
	.long	L105_0_set_35
	.long	L105_0_set_35
	.long	L105_0_set_35
	.long	L105_0_set_35
	.long	L105_0_set_35
	.long	L105_0_set_35
	.long	L105_0_set_35
	.long	L105_0_set_35
	.long	L105_0_set_35
	.long	L105_0_set_35
	.long	L105_0_set_35
	.long	L105_0_set_35
	.long	L105_0_set_35
	.long	L105_0_set_35
	.long	L105_0_set_35
	.long	L105_0_set_35
	.long	L105_0_set_35
	.long	L105_0_set_35
	.long	L105_0_set_35
	.long	L105_0_set_35
	.long	L105_0_set_35
	.long	L105_0_set_35
	.long	L105_0_set_35
	.long	L105_0_set_35
	.long	L105_0_set_35
	.long	L105_0_set_35
	.long	L105_0_set_35
	.long	L105_0_set_35
	.long	L105_0_set_35
	.long	L105_0_set_35
	.long	L105_0_set_35
	.long	L105_0_set_35
	.long	L105_0_set_35
	.long	L105_0_set_35
	.long	L105_0_set_35
	.long	L105_0_set_35
	.long	L105_0_set_35
	.long	L105_0_set_35
	.long	L105_0_set_35
	.long	L105_0_set_35
	.long	L105_0_set_35
	.long	L105_0_set_35
	.long	L105_0_set_35
	.long	L105_0_set_35
	.long	L105_0_set_35
	.long	L105_0_set_35
	.long	L105_0_set_35
	.long	L105_0_set_35
	.long	L105_0_set_35
	.long	L105_0_set_35
	.long	L105_0_set_35
	.long	L105_0_set_35
	.long	L105_0_set_4
	.long	L105_0_set_35
	.long	L105_0_set_35
	.long	L105_0_set_35
	.long	L105_0_set_35
	.long	L105_0_set_35
	.long	L105_0_set_35
	.long	L105_0_set_35
	.long	L105_0_set_35
	.long	L105_0_set_35
	.long	L105_0_set_35
	.long	L105_0_set_35
	.long	L105_0_set_35
	.long	L105_0_set_35
	.long	L105_0_set_35
	.long	L105_0_set_35
	.long	L105_0_set_35
	.long	L105_0_set_35
	.long	L105_0_set_35
	.long	L105_0_set_35
	.long	L105_0_set_35
	.long	L105_0_set_35
	.long	L105_0_set_35
	.long	L105_0_set_35
	.long	L105_0_set_35
	.long	L105_0_set_35
	.long	L105_0_set_35
	.long	L105_0_set_35
	.long	L105_0_set_35
	.long	L105_0_set_35
	.long	L105_0_set_35
	.long	L105_0_set_35
	.long	L105_0_set_35
	.long	L105_0_set_35
	.long	L105_0_set_35
	.long	L105_0_set_35
	.long	L105_0_set_35
	.long	L105_0_set_35
	.long	L105_0_set_35
	.long	L105_0_set_35
	.long	L105_0_set_35
	.long	L105_0_set_35
	.long	L105_0_set_35
	.long	L105_0_set_35
	.long	L105_0_set_35
	.long	L105_0_set_35
	.long	L105_0_set_35
	.long	L105_0_set_35
	.long	L105_0_set_35
	.long	L105_0_set_35
	.long	L105_0_set_35
	.long	L105_0_set_35
	.long	L105_0_set_35
	.long	L105_0_set_35
	.long	L105_0_set_35
	.long	L105_0_set_35
	.long	L105_0_set_35
	.long	L105_0_set_35
	.long	L105_0_set_35
	.long	L105_0_set_35
	.long	L105_0_set_35
	.long	L105_0_set_35
	.long	L105_0_set_35
	.long	L105_0_set_35
	.long	L105_0_set_5
	.long	L105_0_set_6
	.long	L105_0_set_7
	.long	L105_0_set_8
	.long	L105_0_set_9
	.long	L105_0_set_10
	.long	L105_0_set_11
	.long	L105_0_set_12
	.long	L105_0_set_13
	.long	L105_0_set_14
	.long	L105_0_set_15
	.long	L105_0_set_16
	.long	L105_0_set_17
	.long	L105_0_set_18
	.long	L105_0_set_19
	.long	L105_0_set_20
	.long	L105_0_set_21
	.long	L105_0_set_22
	.long	L105_0_set_23
	.long	L105_0_set_24
	.long	L105_0_set_25
	.long	L105_0_set_26
	.long	L105_0_set_27
	.long	L105_0_set_35
	.long	L105_0_set_35
	.long	L105_0_set_35
	.long	L105_0_set_35
	.long	L105_0_set_35
	.long	L105_0_set_28
	.long	L105_0_set_30
	.long	L105_0_set_35
	.long	L105_0_set_35
	.long	L105_0_set_35
	.long	L105_0_set_35
	.long	L105_0_set_35
	.long	L105_0_set_35
	.long	L105_0_set_35
	.long	L105_0_set_35
	.long	L105_0_set_35
	.long	L105_0_set_35
	.long	L105_0_set_35
	.long	L105_0_set_35
	.long	L105_0_set_35
	.long	L105_0_set_35
	.long	L105_0_set_35
	.long	L105_0_set_31
	.long	L105_0_set_32
	.long	L105_0_set_33
	.long	L105_0_set_35
	.long	L105_0_set_35
	.long	L105_0_set_35
	.long	L105_0_set_35
	.long	L105_0_set_35
	.long	L105_0_set_35
	.long	L105_0_set_35
	.long	L105_0_set_35
	.long	L105_0_set_35
	.long	L105_0_set_35
	.long	L105_0_set_35
	.long	L105_0_set_35
	.long	L105_0_set_35
	.long	L105_0_set_35
	.long	L105_0_set_35
	.long	L105_0_set_29
	.long	L105_0_set_34
	.end_data_region

	.globl	__ZN62_$LT$gimli..constants..DwCfa$u20$as$u20$core..fmt..Display$GT$3fmt17h98c06eaf793c3672E
	.p2align	4, 0x90
__ZN62_$LT$gimli..constants..DwCfa$u20$as$u20$core..fmt..Display$GT$3fmt17h98c06eaf793c3672E:
Lfunc_begin4:
	.cfi_startproc
	.cfi_personality 155, _rust_eh_personality
	.cfi_lsda 16, Lexception4
	pushq	%rbp
	.cfi_def_cfa_offset 16
	.cfi_offset %rbp, -16
	movq	%rsp, %rbp
	.cfi_def_cfa_register %rbp
	pushq	%r15
	pushq	%r14
	pushq	%rbx
	subq	$104, %rsp
	.cfi_offset %rbx, -40
	.cfi_offset %r14, -32
	.cfi_offset %r15, -24
	movq	%rsi, %r15
	movq	%rdi, %rbx
	callq	__ZN5gimli9constants5DwCfa13static_string17h81e897ef46bb1dacE
	testq	%rax, %rax
	je	LBB106_1
	movq	%r15, %rdi
	movq	%rax, %rsi
	addq	$104, %rsp
	popq	%rbx
	popq	%r14
	popq	%r15
	popq	%rbp
	jmp	__ZN4core3fmt9Formatter3pad17he4a76f49c06ce69bE
LBB106_1:
	leaq	__ZN44_$LT$$RF$T$u20$as$u20$core..fmt..Display$GT$3fmt17hfb18b74c4657b0bcE(%rip), %rax
	vmovq	%rax, %xmm0
	leaq	l___unnamed_248(%rip), %rax
	vmovq	%rax, %xmm1
	vpunpcklqdq	%xmm0, %xmm1, %xmm0
	vmovdqa	%xmm0, -80(%rbp)
	movq	%rbx, -64(%rbp)
	movq	__ZN4core3fmt3num3imp51_$LT$impl$u20$core..fmt..Display$u20$for$u20$u8$GT$3fmt17h0e89df114e53d66dE@GOTPCREL(%rip), %rax
	movq	%rax, -56(%rbp)
	leaq	l___unnamed_214(%rip), %rax
	movq	%rax, -128(%rbp)
	movq	$2, -120(%rbp)
	movq	$0, -112(%rbp)
	leaq	-80(%rbp), %rax
	movq	%rax, -96(%rbp)
	movq	$2, -88(%rbp)
	leaq	-48(%rbp), %rdi
	leaq	-128(%rbp), %rsi
	callq	__ZN5alloc3fmt6format17hef4b691705b449e4E
	movq	-48(%rbp), %r14
	movq	-32(%rbp), %rdx
Ltmp23:
	movq	%r15, %rdi
	movq	%r14, %rsi
	callq	__ZN4core3fmt9Formatter3pad17he4a76f49c06ce69bE
Ltmp24:
	movl	%eax, %ebx
	movq	-40(%rbp), %rsi
	testq	%rsi, %rsi
	je	LBB106_4
	movl	$1, %edx
	movq	%r14, %rdi
	callq	___rust_dealloc
LBB106_4:
	movl	%ebx, %eax
	addq	$104, %rsp
	popq	%rbx
	popq	%r14
	popq	%r15
	popq	%rbp
	retq
LBB106_5:
Ltmp25:
	movq	%rax, %rbx
	leaq	-48(%rbp), %rdi
	callq	__ZN4core3ptr13drop_in_place17hcb660db0ba6c573eE
	movq	%rbx, %rdi
	callq	__Unwind_Resume
	ud2
Lfunc_end4:
	.cfi_endproc
	.section	__TEXT,__gcc_except_tab
	.p2align	2
GCC_except_table106:
Lexception4:
	.byte	255
	.byte	255
	.byte	1
	.uleb128 Lcst_end4-Lcst_begin4
Lcst_begin4:
	.uleb128 Lfunc_begin4-Lfunc_begin4
	.uleb128 Ltmp23-Lfunc_begin4
	.byte	0
	.byte	0
	.uleb128 Ltmp23-Lfunc_begin4
	.uleb128 Ltmp24-Ltmp23
	.uleb128 Ltmp25-Lfunc_begin4
	.byte	0
	.uleb128 Ltmp24-Lfunc_begin4
	.uleb128 Lfunc_end4-Ltmp24
	.byte	0
	.byte	0
Lcst_end4:
	.p2align	2

	.section	__TEXT,__text,regular,pure_instructions
	.globl	__ZN60_$LT$gimli..constants..DwCfa$u20$as$u20$core..fmt..Debug$GT$3fmt17h61efc40f03d5a544E
	.p2align	4, 0x90
__ZN60_$LT$gimli..constants..DwCfa$u20$as$u20$core..fmt..Debug$GT$3fmt17h61efc40f03d5a544E:
	.cfi_startproc
	pushq	%rbp
	.cfi_def_cfa_offset 16
	.cfi_offset %rbp, -16
	movq	%rsp, %rbp
	.cfi_def_cfa_register %rbp
	pushq	%r14
	pushq	%rbx
	subq	$32, %rsp
	.cfi_offset %rbx, -32
	.cfi_offset %r14, -24
	movq	%rdi, %rbx
	leaq	l___unnamed_55(%rip), %rdx
	leaq	-48(%rbp), %r14
	movl	$5, %ecx
	movq	%r14, %rdi
	callq	__ZN4core3fmt9Formatter11debug_tuple17h15ca25ad759edd1cE
	movq	%rbx, -24(%rbp)
	leaq	l___unnamed_3(%rip), %rdx
	leaq	-24(%rbp), %rsi
	movq	%r14, %rdi
	callq	__ZN4core3fmt8builders10DebugTuple5field17hf36121153a94f236E
	movq	%r14, %rdi
	callq	__ZN4core3fmt8builders10DebugTuple6finish17h68acf09c6f6593f2E
	addq	$32, %rsp
	popq	%rbx
	popq	%r14
	popq	%rbp
	retq
	.cfi_endproc

	.globl	__ZN5gimli9constants10DwChildren13static_string17h6042ea544f090dd9E
	.p2align	4, 0x90
__ZN5gimli9constants10DwChildren13static_string17h6042ea544f090dd9E:
	.cfi_startproc
	pushq	%rbp
	.cfi_def_cfa_offset 16
	.cfi_offset %rbp, -16
	movq	%rsp, %rbp
	.cfi_def_cfa_register %rbp
	movb	(%rdi), %al
	testb	%al, %al
	je	LBB108_1
	cmpb	$1, %al
	jne	LBB108_3
	leaq	l___unnamed_249(%rip), %rax
	movl	$15, %edx
	popq	%rbp
	retq
LBB108_1:
	leaq	l___unnamed_250(%rip), %rax
	movl	$14, %edx
	popq	%rbp
	retq
LBB108_3:
	xorl	%eax, %eax
	popq	%rbp
	retq
	.cfi_endproc

	.globl	__ZN67_$LT$gimli..constants..DwChildren$u20$as$u20$core..fmt..Display$GT$3fmt17ha91acd06fa46905eE
	.p2align	4, 0x90
__ZN67_$LT$gimli..constants..DwChildren$u20$as$u20$core..fmt..Display$GT$3fmt17ha91acd06fa46905eE:
Lfunc_begin5:
	.cfi_startproc
	.cfi_personality 155, _rust_eh_personality
	.cfi_lsda 16, Lexception5
	pushq	%rbp
	.cfi_def_cfa_offset 16
	.cfi_offset %rbp, -16
	movq	%rsp, %rbp
	.cfi_def_cfa_register %rbp
	pushq	%r14
	pushq	%rbx
	subq	$112, %rsp
	.cfi_offset %rbx, -32
	.cfi_offset %r14, -24
	movq	%rsi, %rbx
	movb	(%rdi), %al
	testb	%al, %al
	je	LBB109_1
	cmpb	$1, %al
	jne	LBB109_5
	leaq	l___unnamed_249(%rip), %rsi
	movl	$15, %edx
	jmp	LBB109_4
LBB109_1:
	leaq	l___unnamed_250(%rip), %rsi
	movl	$14, %edx
LBB109_4:
	movq	%rbx, %rdi
	addq	$112, %rsp
	popq	%rbx
	popq	%r14
	popq	%rbp
	jmp	__ZN4core3fmt9Formatter3pad17he4a76f49c06ce69bE
LBB109_5:
	leaq	__ZN44_$LT$$RF$T$u20$as$u20$core..fmt..Display$GT$3fmt17hfb18b74c4657b0bcE(%rip), %rax
	vmovq	%rax, %xmm0
	leaq	l___unnamed_251(%rip), %rax
	vmovq	%rax, %xmm1
	vpunpcklqdq	%xmm0, %xmm1, %xmm0
	vmovdqa	%xmm0, -80(%rbp)
	movq	%rdi, -64(%rbp)
	movq	__ZN4core3fmt3num3imp51_$LT$impl$u20$core..fmt..Display$u20$for$u20$u8$GT$3fmt17h0e89df114e53d66dE@GOTPCREL(%rip), %rax
	movq	%rax, -56(%rbp)
	leaq	l___unnamed_214(%rip), %rax
	movq	%rax, -128(%rbp)
	movq	$2, -120(%rbp)
	movq	$0, -112(%rbp)
	leaq	-80(%rbp), %rax
	movq	%rax, -96(%rbp)
	movq	$2, -88(%rbp)
	leaq	-40(%rbp), %rdi
	leaq	-128(%rbp), %rsi
	callq	__ZN5alloc3fmt6format17hef4b691705b449e4E
	movq	-40(%rbp), %r14
	movq	-24(%rbp), %rdx
Ltmp26:
	movq	%rbx, %rdi
	movq	%r14, %rsi
	callq	__ZN4core3fmt9Formatter3pad17he4a76f49c06ce69bE
Ltmp27:
	movl	%eax, %ebx
	movq	-32(%rbp), %rsi
	testq	%rsi, %rsi
	je	LBB109_8
	movl	$1, %edx
	movq	%r14, %rdi
	callq	___rust_dealloc
LBB109_8:
	movl	%ebx, %eax
	addq	$112, %rsp
	popq	%rbx
	popq	%r14
	popq	%rbp
	retq
LBB109_9:
Ltmp28:
	movq	%rax, %rbx
	leaq	-40(%rbp), %rdi
	callq	__ZN4core3ptr13drop_in_place17hcb660db0ba6c573eE
	movq	%rbx, %rdi
	callq	__Unwind_Resume
	ud2
Lfunc_end5:
	.cfi_endproc
	.section	__TEXT,__gcc_except_tab
	.p2align	2
GCC_except_table109:
Lexception5:
	.byte	255
	.byte	255
	.byte	1
	.uleb128 Lcst_end5-Lcst_begin5
Lcst_begin5:
	.uleb128 Lfunc_begin5-Lfunc_begin5
	.uleb128 Ltmp26-Lfunc_begin5
	.byte	0
	.byte	0
	.uleb128 Ltmp26-Lfunc_begin5
	.uleb128 Ltmp27-Ltmp26
	.uleb128 Ltmp28-Lfunc_begin5
	.byte	0
	.uleb128 Ltmp27-Lfunc_begin5
	.uleb128 Lfunc_end5-Ltmp27
	.byte	0
	.byte	0
Lcst_end5:
	.p2align	2

	.section	__TEXT,__text,regular,pure_instructions
	.globl	__ZN65_$LT$gimli..constants..DwChildren$u20$as$u20$core..fmt..Debug$GT$3fmt17hbc13af4d18ea4790E
	.p2align	4, 0x90
__ZN65_$LT$gimli..constants..DwChildren$u20$as$u20$core..fmt..Debug$GT$3fmt17hbc13af4d18ea4790E:
	.cfi_startproc
	pushq	%rbp
	.cfi_def_cfa_offset 16
	.cfi_offset %rbp, -16
	movq	%rsp, %rbp
	.cfi_def_cfa_register %rbp
	pushq	%r14
	pushq	%rbx
	subq	$32, %rsp
	.cfi_offset %rbx, -32
	.cfi_offset %r14, -24
	movq	%rdi, %rbx
	leaq	l___unnamed_39(%rip), %rdx
	leaq	-48(%rbp), %r14
	movl	$10, %ecx
	movq	%r14, %rdi
	callq	__ZN4core3fmt9Formatter11debug_tuple17h15ca25ad759edd1cE
	movq	%rbx, -24(%rbp)
	leaq	l___unnamed_3(%rip), %rdx
	leaq	-24(%rbp), %rsi
	movq	%r14, %rdi
	callq	__ZN4core3fmt8builders10DebugTuple5field17hf36121153a94f236E
	movq	%r14, %rdi
	callq	__ZN4core3fmt8builders10DebugTuple6finish17h68acf09c6f6593f2E
	addq	$32, %rsp
	popq	%rbx
	popq	%r14
	popq	%rbp
	retq
	.cfi_endproc

	.globl	__ZN5gimli9constants5DwTag13static_string17h9128ff77e34f7828E
	.p2align	4, 0x90
__ZN5gimli9constants5DwTag13static_string17h9128ff77e34f7828E:
	.cfi_startproc
	pushq	%rbp
	.cfi_def_cfa_offset 16
	.cfi_offset %rbp, -16
	movq	%rsp, %rbp
	.cfi_def_cfa_register %rbp
	movswl	(%rdi), %ecx
	xorl	%eax, %eax
	cmpl	$16511, %ecx
	jg	LBB111_5
	cmpw	$-2, %cx
	jle	LBB111_11
	leal	1(%rcx), %esi
	cmpw	$76, %si
	ja	LBB111_135
	leaq	l___unnamed_252(%rip), %rcx
	movl	$11, %edx
	movzwl	%si, %esi
	leaq	LJTI111_1(%rip), %rdi
	movslq	(%rdi,%rsi,4), %rsi
	addq	%rdi, %rsi
	jmpq	*%rsi
LBB111_4:
	leaq	l___unnamed_253(%rip), %rcx
	movl	$14, %edx
	jmp	LBB111_132
LBB111_5:
	leal	-16512(%rcx), %edx
	movzwl	%dx, %esi
	cmpl	$138, %esi
	jbe	LBB111_9
	leal	-16896(%rcx), %edx
	cmpw	$13, %dx
	ja	LBB111_19
	movzwl	%dx, %eax
	leaq	LJTI111_3(%rip), %rcx
	movslq	(%rcx,%rax,4), %rax
	addq	%rcx, %rax
	jmpq	*%rax
LBB111_8:
	leaq	l___unnamed_254(%rip), %rcx
	jmp	LBB111_131
LBB111_9:
	movzwl	%dx, %ecx
	leaq	LJTI111_2(%rip), %rdx
	movslq	(%rdx,%rcx,4), %rcx
	addq	%rdx, %rcx
	jmpq	*%rcx
LBB111_10:
	leaq	l___unnamed_255(%rip), %rcx
	movl	$14, %edx
	jmp	LBB111_132
LBB111_11:
	movswl	%cx, %edx
	cmpl	$-24577, %edx
	jg	LBB111_16
	movzwl	%cx, %ecx
	cmpl	$34661, %ecx
	je	LBB111_22
	cmpl	$34662, %ecx
	je	LBB111_23
	cmpl	$34663, %ecx
	jne	LBB111_133
	leaq	l___unnamed_256(%rip), %rcx
	movl	$23, %edx
	jmp	LBB111_132
LBB111_16:
	leal	20480(%rcx), %edx
	cmpw	$4, %dx
	ja	LBB111_24
	movzwl	%dx, %eax
	leaq	LJTI111_0(%rip), %rcx
	movslq	(%rcx,%rax,4), %rax
	addq	%rcx, %rax
	jmpq	*%rax
LBB111_18:
	leaq	l___unnamed_257(%rip), %rcx
	movl	$23, %edx
	jmp	LBB111_132
LBB111_19:
	addl	$-20737, %ecx
	cmpw	$16, %cx
	ja	LBB111_135
	movzwl	%cx, %ecx
	leaq	LJTI111_4(%rip), %rdx
	movslq	(%rdx,%rcx,4), %rcx
	addq	%rdx, %rcx
	jmpq	*%rcx
LBB111_21:
	leaq	l___unnamed_258(%rip), %rcx
	movl	$23, %edx
	jmp	LBB111_132
LBB111_22:
	leaq	l___unnamed_259(%rip), %rcx
	movl	$22, %edx
	jmp	LBB111_132
LBB111_23:
	leaq	l___unnamed_260(%rip), %rcx
	movl	$22, %edx
	jmp	LBB111_132
LBB111_24:
	movzwl	%cx, %ecx
	cmpl	$40960, %ecx
	je	LBB111_130
	cmpl	$40992, %ecx
	jne	LBB111_133
	leaq	l___unnamed_261(%rip), %rcx
	movl	$26, %edx
	jmp	LBB111_132
LBB111_27:
	leaq	l___unnamed_262(%rip), %rcx
	movl	$27, %edx
	jmp	LBB111_132
LBB111_28:
	leaq	l___unnamed_263(%rip), %rcx
	movl	$28, %edx
	jmp	LBB111_132
LBB111_29:
	leaq	l___unnamed_264(%rip), %rcx
	movl	$17, %edx
	jmp	LBB111_132
LBB111_30:
	leaq	l___unnamed_265(%rip), %rcx
	movl	$17, %edx
	jmp	LBB111_132
LBB111_31:
	leaq	l___unnamed_266(%rip), %rcx
	movl	$17, %edx
	jmp	LBB111_132
LBB111_32:
	leaq	l___unnamed_267(%rip), %rcx
	movl	$18, %edx
	jmp	LBB111_132
LBB111_33:
	leaq	l___unnamed_268(%rip), %rcx
	movl	$23, %edx
	jmp	LBB111_132
LBB111_34:
	leaq	l___unnamed_269(%rip), %rcx
	movl	$23, %edx
	jmp	LBB111_132
LBB111_35:
	leaq	l___unnamed_270(%rip), %rcx
	movl	$27, %edx
	jmp	LBB111_132
LBB111_36:
	leaq	l___unnamed_271(%rip), %rcx
	movl	$12, %edx
	jmp	LBB111_132
LBB111_37:
	leaq	l___unnamed_272(%rip), %rcx
	movl	$20, %edx
	jmp	LBB111_132
LBB111_38:
	leaq	l___unnamed_273(%rip), %rcx
	movl	$13, %edx
	jmp	LBB111_132
LBB111_39:
	leaq	l___unnamed_274(%rip), %rcx
	movl	$19, %edx
	jmp	LBB111_132
LBB111_40:
	leaq	l___unnamed_275(%rip), %rcx
	jmp	LBB111_131
LBB111_41:
	leaq	l___unnamed_276(%rip), %rcx
	movl	$19, %edx
	jmp	LBB111_132
LBB111_42:
	leaq	l___unnamed_277(%rip), %rcx
	movl	$18, %edx
	jmp	LBB111_132
LBB111_43:
	leaq	l___unnamed_278(%rip), %rcx
	jmp	LBB111_131
LBB111_44:
	leaq	l___unnamed_279(%rip), %rcx
	movl	$22, %edx
	jmp	LBB111_132
LBB111_45:
	leaq	l___unnamed_280(%rip), %rcx
	movl	$14, %edx
	jmp	LBB111_132
LBB111_46:
	leaq	l___unnamed_281(%rip), %rcx
	movl	$17, %edx
	jmp	LBB111_132
LBB111_47:
	leaq	l___unnamed_282(%rip), %rcx
	jmp	LBB111_129
LBB111_48:
	leaq	l___unnamed_283(%rip), %rcx
	movl	$14, %edx
	jmp	LBB111_132
LBB111_49:
	leaq	l___unnamed_284(%rip), %rcx
	movl	$19, %edx
	jmp	LBB111_132
LBB111_50:
	leaq	l___unnamed_285(%rip), %rcx
	movl	$23, %edx
	jmp	LBB111_132
LBB111_51:
	leaq	l___unnamed_286(%rip), %rcx
	movl	$18, %edx
	jmp	LBB111_132
LBB111_52:
	leaq	l___unnamed_287(%rip), %rcx
	movl	$25, %edx
	jmp	LBB111_132
LBB111_53:
	leaq	l___unnamed_288(%rip), %rcx
	movl	$13, %edx
	jmp	LBB111_132
LBB111_54:
	leaq	l___unnamed_289(%rip), %rcx
	movl	$25, %edx
	jmp	LBB111_132
LBB111_55:
	leaq	l___unnamed_290(%rip), %rcx
	movl	$15, %edx
	jmp	LBB111_132
LBB111_56:
	leaq	l___unnamed_291(%rip), %rcx
	movl	$20, %edx
	jmp	LBB111_132
LBB111_57:
	leaq	L___unnamed_292(%rip), %rcx
	movl	$16, %edx
	jmp	LBB111_132
LBB111_58:
	leaq	l___unnamed_293(%rip), %rcx
	movl	$25, %edx
	jmp	LBB111_132
LBB111_59:
	leaq	L___unnamed_294(%rip), %rcx
	movl	$16, %edx
	jmp	LBB111_132
LBB111_60:
	leaq	l___unnamed_295(%rip), %rcx
	movl	$18, %edx
	jmp	LBB111_132
LBB111_61:
	leaq	l___unnamed_296(%rip), %rcx
	movl	$17, %edx
	jmp	LBB111_132
LBB111_62:
	leaq	l___unnamed_297(%rip), %rcx
	movl	$15, %edx
	jmp	LBB111_132
LBB111_63:
	leaq	l___unnamed_298(%rip), %rcx
	movl	$17, %edx
	jmp	LBB111_132
LBB111_64:
	leaq	L___unnamed_299(%rip), %rcx
	movl	$16, %edx
	jmp	LBB111_132
LBB111_65:
	leaq	l___unnamed_300(%rip), %rcx
	movl	$13, %edx
	jmp	LBB111_132
LBB111_66:
	leaq	l___unnamed_301(%rip), %rcx
	movl	$15, %edx
	jmp	LBB111_132
LBB111_67:
	leaq	l___unnamed_302(%rip), %rcx
	movl	$20, %edx
	jmp	LBB111_132
LBB111_68:
	leaq	l___unnamed_303(%rip), %rcx
	movl	$18, %edx
	jmp	LBB111_132
LBB111_69:
	leaq	l___unnamed_304(%rip), %rcx
	movl	$17, %edx
	jmp	LBB111_132
LBB111_70:
	leaq	l___unnamed_305(%rip), %rcx
	movl	$30, %edx
	jmp	LBB111_132
LBB111_71:
	leaq	l___unnamed_306(%rip), %rcx
	movl	$31, %edx
	jmp	LBB111_132
LBB111_72:
	leaq	l___unnamed_307(%rip), %rcx
	movl	$18, %edx
	jmp	LBB111_132
LBB111_73:
	leaq	L___unnamed_308(%rip), %rcx
	movl	$16, %edx
	jmp	LBB111_132
LBB111_74:
	leaq	l___unnamed_309(%rip), %rcx
	movl	$19, %edx
	jmp	LBB111_132
LBB111_75:
	leaq	l___unnamed_310(%rip), %rcx
	movl	$15, %edx
	jmp	LBB111_132
LBB111_76:
	leaq	l___unnamed_311(%rip), %rcx
	movl	$20, %edx
	jmp	LBB111_132
LBB111_77:
	leaq	l___unnamed_312(%rip), %rcx
	movl	$22, %edx
	jmp	LBB111_132
LBB111_78:
	leaq	l___unnamed_313(%rip), %rcx
	movl	$20, %edx
	jmp	LBB111_132
LBB111_79:
	leaq	l___unnamed_314(%rip), %rcx
	jmp	LBB111_131
LBB111_80:
	leaq	L___unnamed_315(%rip), %rcx
	movl	$16, %edx
	jmp	LBB111_132
LBB111_81:
	leaq	l___unnamed_316(%rip), %rcx
	movl	$22, %edx
	jmp	LBB111_132
LBB111_82:
	leaq	l___unnamed_317(%rip), %rcx
	movl	$23, %edx
	jmp	LBB111_132
LBB111_83:
	leaq	l___unnamed_318(%rip), %rcx
	movl	$19, %edx
	jmp	LBB111_132
LBB111_84:
	leaq	l___unnamed_319(%rip), %rcx
	movl	$20, %edx
	jmp	LBB111_132
LBB111_85:
	leaq	L___unnamed_320(%rip), %rcx
	movl	$16, %edx
	jmp	LBB111_132
LBB111_86:
	leaq	l___unnamed_321(%rip), %rcx
	movl	$18, %edx
	jmp	LBB111_132
LBB111_87:
	leaq	L___unnamed_322(%rip), %rcx
	movl	$16, %edx
	jmp	LBB111_132
LBB111_88:
	leaq	l___unnamed_323(%rip), %rcx
	movl	$28, %edx
	jmp	LBB111_132
LBB111_89:
	leaq	l___unnamed_324(%rip), %rcx
	jmp	LBB111_131
LBB111_90:
	leaq	l___unnamed_325(%rip), %rcx
	movl	$19, %edx
	jmp	LBB111_132
LBB111_91:
	leaq	l___unnamed_326(%rip), %rcx
	movl	$23, %edx
	jmp	LBB111_132
LBB111_92:
	leaq	l___unnamed_327(%rip), %rcx
	movl	$19, %edx
	jmp	LBB111_132
LBB111_93:
	leaq	l___unnamed_328(%rip), %rcx
	movl	$18, %edx
	jmp	LBB111_132
LBB111_94:
	leaq	L___unnamed_329(%rip), %rcx
	movl	$16, %edx
	jmp	LBB111_132
LBB111_95:
	leaq	l___unnamed_330(%rip), %rcx
	movl	$26, %edx
	jmp	LBB111_132
LBB111_96:
	leaq	l___unnamed_331(%rip), %rcx
	movl	$20, %edx
	jmp	LBB111_132
LBB111_97:
	leaq	l___unnamed_332(%rip), %rcx
	jmp	LBB111_131
LBB111_98:
	leaq	L___unnamed_333(%rip), %rcx
	movl	$16, %edx
	jmp	LBB111_132
LBB111_99:
	leaq	l___unnamed_334(%rip), %rcx
	movl	$26, %edx
	jmp	LBB111_132
LBB111_100:
	leaq	l___unnamed_335(%rip), %rcx
	jmp	LBB111_131
LBB111_101:
	leaq	l___unnamed_336(%rip), %rcx
	movl	$25, %edx
	jmp	LBB111_132
LBB111_102:
	leaq	l___unnamed_337(%rip), %rcx
	movl	$19, %edx
	jmp	LBB111_132
LBB111_103:
	leaq	l___unnamed_338(%rip), %rcx
	movl	$24, %edx
	jmp	LBB111_132
LBB111_104:
	leaq	l___unnamed_339(%rip), %rcx
	jmp	LBB111_131
LBB111_105:
	leaq	L___unnamed_340(%rip), %rcx
	movl	$16, %edx
	jmp	LBB111_132
LBB111_106:
	leaq	L___unnamed_341(%rip), %rcx
	movl	$16, %edx
	jmp	LBB111_132
LBB111_107:
	leaq	l___unnamed_342(%rip), %rcx
	movl	$34, %edx
	jmp	LBB111_132
LBB111_108:
	leaq	l___unnamed_343(%rip), %rcx
	movl	$34, %edx
	jmp	LBB111_132
LBB111_109:
	leaq	l___unnamed_344(%rip), %rcx
	movl	$32, %edx
	jmp	LBB111_132
LBB111_110:
	leaq	l___unnamed_345(%rip), %rcx
	movl	$20, %edx
	jmp	LBB111_132
LBB111_111:
	leaq	l___unnamed_346(%rip), %rcx
	movl	$30, %edx
	jmp	LBB111_132
LBB111_112:
	leaq	l___unnamed_347(%rip), %rcx
	movl	$28, %edx
	jmp	LBB111_132
LBB111_113:
	leaq	l___unnamed_348(%rip), %rcx
	movl	$25, %edx
	jmp	LBB111_132
LBB111_114:
	leaq	l___unnamed_349(%rip), %rcx
	movl	$26, %edx
	jmp	LBB111_132
LBB111_115:
	leaq	l___unnamed_350(%rip), %rcx
	movl	$25, %edx
	jmp	LBB111_132
LBB111_116:
	leaq	l___unnamed_351(%rip), %rcx
	movl	$31, %edx
	jmp	LBB111_132
LBB111_117:
	leaq	l___unnamed_352(%rip), %rcx
	movl	$20, %edx
	jmp	LBB111_132
LBB111_118:
	leaq	l___unnamed_353(%rip), %rcx
	jmp	LBB111_131
LBB111_119:
	leaq	l___unnamed_354(%rip), %rcx
	movl	$25, %edx
	jmp	LBB111_132
LBB111_120:
	leaq	l___unnamed_355(%rip), %rcx
	movl	$26, %edx
	jmp	LBB111_132
LBB111_121:
	leaq	l___unnamed_356(%rip), %rcx
	movl	$20, %edx
	jmp	LBB111_132
LBB111_122:
	leaq	l___unnamed_357(%rip), %rcx
	movl	$15, %edx
	jmp	LBB111_132
LBB111_123:
	leaq	l___unnamed_358(%rip), %rcx
	movl	$24, %edx
	jmp	LBB111_132
LBB111_124:
	leaq	l___unnamed_359(%rip), %rcx
	movl	$32, %edx
	jmp	LBB111_132
LBB111_125:
	leaq	l___unnamed_360(%rip), %rcx
	movl	$28, %edx
	jmp	LBB111_132
LBB111_126:
	leaq	l___unnamed_361(%rip), %rcx
	movl	$35, %edx
	jmp	LBB111_132
LBB111_127:
	leaq	l___unnamed_362(%rip), %rcx
	movl	$25, %edx
	jmp	LBB111_132
LBB111_128:
	leaq	l___unnamed_363(%rip), %rcx
LBB111_129:
	movl	$29, %edx
	jmp	LBB111_132
LBB111_130:
	leaq	l___unnamed_364(%rip), %rcx
LBB111_131:
	movl	$21, %edx
LBB111_132:
	movq	%rcx, %rax
LBB111_133:
	popq	%rbp
	retq
LBB111_135:
	popq	%rbp
	retq
	.cfi_endproc
	.p2align	2, 0x90
	.data_region jt32
.set L111_0_set_18, LBB111_18-LJTI111_0
.set L111_0_set_125, LBB111_125-LJTI111_0
.set L111_0_set_126, LBB111_126-LJTI111_0
.set L111_0_set_127, LBB111_127-LJTI111_0
.set L111_0_set_128, LBB111_128-LJTI111_0
LJTI111_0:
	.long	L111_0_set_18
	.long	L111_0_set_125
	.long	L111_0_set_126
	.long	L111_0_set_127
	.long	L111_0_set_128
.set L111_1_set_4, LBB111_4-LJTI111_1
.set L111_1_set_132, LBB111_132-LJTI111_1
.set L111_1_set_30, LBB111_30-LJTI111_1
.set L111_1_set_31, LBB111_31-LJTI111_1
.set L111_1_set_32, LBB111_32-LJTI111_1
.set L111_1_set_33, LBB111_33-LJTI111_1
.set L111_1_set_34, LBB111_34-LJTI111_1
.set L111_1_set_133, LBB111_133-LJTI111_1
.set L111_1_set_35, LBB111_35-LJTI111_1
.set L111_1_set_36, LBB111_36-LJTI111_1
.set L111_1_set_37, LBB111_37-LJTI111_1
.set L111_1_set_38, LBB111_38-LJTI111_1
.set L111_1_set_39, LBB111_39-LJTI111_1
.set L111_1_set_40, LBB111_40-LJTI111_1
.set L111_1_set_41, LBB111_41-LJTI111_1
.set L111_1_set_42, LBB111_42-LJTI111_1
.set L111_1_set_43, LBB111_43-LJTI111_1
.set L111_1_set_44, LBB111_44-LJTI111_1
.set L111_1_set_45, LBB111_45-LJTI111_1
.set L111_1_set_46, LBB111_46-LJTI111_1
.set L111_1_set_47, LBB111_47-LJTI111_1
.set L111_1_set_48, LBB111_48-LJTI111_1
.set L111_1_set_49, LBB111_49-LJTI111_1
.set L111_1_set_50, LBB111_50-LJTI111_1
.set L111_1_set_51, LBB111_51-LJTI111_1
.set L111_1_set_52, LBB111_52-LJTI111_1
.set L111_1_set_53, LBB111_53-LJTI111_1
.set L111_1_set_54, LBB111_54-LJTI111_1
.set L111_1_set_55, LBB111_55-LJTI111_1
.set L111_1_set_56, LBB111_56-LJTI111_1
.set L111_1_set_57, LBB111_57-LJTI111_1
.set L111_1_set_58, LBB111_58-LJTI111_1
.set L111_1_set_59, LBB111_59-LJTI111_1
.set L111_1_set_60, LBB111_60-LJTI111_1
.set L111_1_set_61, LBB111_61-LJTI111_1
.set L111_1_set_62, LBB111_62-LJTI111_1
.set L111_1_set_63, LBB111_63-LJTI111_1
.set L111_1_set_64, LBB111_64-LJTI111_1
.set L111_1_set_65, LBB111_65-LJTI111_1
.set L111_1_set_66, LBB111_66-LJTI111_1
.set L111_1_set_67, LBB111_67-LJTI111_1
.set L111_1_set_68, LBB111_68-LJTI111_1
.set L111_1_set_69, LBB111_69-LJTI111_1
.set L111_1_set_70, LBB111_70-LJTI111_1
.set L111_1_set_71, LBB111_71-LJTI111_1
.set L111_1_set_72, LBB111_72-LJTI111_1
.set L111_1_set_73, LBB111_73-LJTI111_1
.set L111_1_set_74, LBB111_74-LJTI111_1
.set L111_1_set_75, LBB111_75-LJTI111_1
.set L111_1_set_76, LBB111_76-LJTI111_1
.set L111_1_set_77, LBB111_77-LJTI111_1
.set L111_1_set_78, LBB111_78-LJTI111_1
.set L111_1_set_79, LBB111_79-LJTI111_1
.set L111_1_set_80, LBB111_80-LJTI111_1
.set L111_1_set_81, LBB111_81-LJTI111_1
.set L111_1_set_82, LBB111_82-LJTI111_1
.set L111_1_set_83, LBB111_83-LJTI111_1
.set L111_1_set_84, LBB111_84-LJTI111_1
.set L111_1_set_85, LBB111_85-LJTI111_1
.set L111_1_set_86, LBB111_86-LJTI111_1
.set L111_1_set_87, LBB111_87-LJTI111_1
.set L111_1_set_88, LBB111_88-LJTI111_1
.set L111_1_set_89, LBB111_89-LJTI111_1
.set L111_1_set_90, LBB111_90-LJTI111_1
.set L111_1_set_91, LBB111_91-LJTI111_1
.set L111_1_set_92, LBB111_92-LJTI111_1
.set L111_1_set_93, LBB111_93-LJTI111_1
.set L111_1_set_94, LBB111_94-LJTI111_1
.set L111_1_set_95, LBB111_95-LJTI111_1
.set L111_1_set_96, LBB111_96-LJTI111_1
.set L111_1_set_97, LBB111_97-LJTI111_1
LJTI111_1:
	.long	L111_1_set_4
	.long	L111_1_set_132
	.long	L111_1_set_30
	.long	L111_1_set_31
	.long	L111_1_set_32
	.long	L111_1_set_33
	.long	L111_1_set_34
	.long	L111_1_set_133
	.long	L111_1_set_133
	.long	L111_1_set_35
	.long	L111_1_set_133
	.long	L111_1_set_36
	.long	L111_1_set_37
	.long	L111_1_set_133
	.long	L111_1_set_38
	.long	L111_1_set_133
	.long	L111_1_set_39
	.long	L111_1_set_40
	.long	L111_1_set_41
	.long	L111_1_set_42
	.long	L111_1_set_43
	.long	L111_1_set_133
	.long	L111_1_set_44
	.long	L111_1_set_45
	.long	L111_1_set_46
	.long	L111_1_set_47
	.long	L111_1_set_48
	.long	L111_1_set_49
	.long	L111_1_set_50
	.long	L111_1_set_51
	.long	L111_1_set_52
	.long	L111_1_set_53
	.long	L111_1_set_54
	.long	L111_1_set_55
	.long	L111_1_set_56
	.long	L111_1_set_57
	.long	L111_1_set_58
	.long	L111_1_set_59
	.long	L111_1_set_60
	.long	L111_1_set_61
	.long	L111_1_set_62
	.long	L111_1_set_63
	.long	L111_1_set_64
	.long	L111_1_set_65
	.long	L111_1_set_66
	.long	L111_1_set_67
	.long	L111_1_set_68
	.long	L111_1_set_69
	.long	L111_1_set_70
	.long	L111_1_set_71
	.long	L111_1_set_72
	.long	L111_1_set_73
	.long	L111_1_set_74
	.long	L111_1_set_75
	.long	L111_1_set_76
	.long	L111_1_set_77
	.long	L111_1_set_78
	.long	L111_1_set_79
	.long	L111_1_set_80
	.long	L111_1_set_81
	.long	L111_1_set_82
	.long	L111_1_set_83
	.long	L111_1_set_84
	.long	L111_1_set_133
	.long	L111_1_set_85
	.long	L111_1_set_86
	.long	L111_1_set_87
	.long	L111_1_set_88
	.long	L111_1_set_89
	.long	L111_1_set_90
	.long	L111_1_set_91
	.long	L111_1_set_92
	.long	L111_1_set_93
	.long	L111_1_set_94
	.long	L111_1_set_95
	.long	L111_1_set_96
	.long	L111_1_set_97
.set L111_2_set_10, LBB111_10-LJTI111_2
.set L111_2_set_98, LBB111_98-LJTI111_2
.set L111_2_set_133, LBB111_133-LJTI111_2
.set L111_2_set_99, LBB111_99-LJTI111_2
.set L111_2_set_100, LBB111_100-LJTI111_2
.set L111_2_set_101, LBB111_101-LJTI111_2
.set L111_2_set_102, LBB111_102-LJTI111_2
.set L111_2_set_103, LBB111_103-LJTI111_2
.set L111_2_set_104, LBB111_104-LJTI111_2
.set L111_2_set_105, LBB111_105-LJTI111_2
.set L111_2_set_106, LBB111_106-LJTI111_2
.set L111_2_set_107, LBB111_107-LJTI111_2
.set L111_2_set_108, LBB111_108-LJTI111_2
.set L111_2_set_109, LBB111_109-LJTI111_2
.set L111_2_set_110, LBB111_110-LJTI111_2
.set L111_2_set_111, LBB111_111-LJTI111_2
LJTI111_2:
	.long	L111_2_set_10
	.long	L111_2_set_98
	.long	L111_2_set_133
	.long	L111_2_set_133
	.long	L111_2_set_133
	.long	L111_2_set_133
	.long	L111_2_set_133
	.long	L111_2_set_133
	.long	L111_2_set_133
	.long	L111_2_set_133
	.long	L111_2_set_133
	.long	L111_2_set_133
	.long	L111_2_set_133
	.long	L111_2_set_133
	.long	L111_2_set_133
	.long	L111_2_set_133
	.long	L111_2_set_99
	.long	L111_2_set_100
	.long	L111_2_set_101
	.long	L111_2_set_133
	.long	L111_2_set_133
	.long	L111_2_set_133
	.long	L111_2_set_133
	.long	L111_2_set_133
	.long	L111_2_set_133
	.long	L111_2_set_133
	.long	L111_2_set_133
	.long	L111_2_set_133
	.long	L111_2_set_133
	.long	L111_2_set_133
	.long	L111_2_set_133
	.long	L111_2_set_133
	.long	L111_2_set_133
	.long	L111_2_set_133
	.long	L111_2_set_133
	.long	L111_2_set_133
	.long	L111_2_set_133
	.long	L111_2_set_133
	.long	L111_2_set_133
	.long	L111_2_set_133
	.long	L111_2_set_133
	.long	L111_2_set_133
	.long	L111_2_set_133
	.long	L111_2_set_133
	.long	L111_2_set_133
	.long	L111_2_set_133
	.long	L111_2_set_133
	.long	L111_2_set_133
	.long	L111_2_set_133
	.long	L111_2_set_133
	.long	L111_2_set_133
	.long	L111_2_set_133
	.long	L111_2_set_133
	.long	L111_2_set_133
	.long	L111_2_set_133
	.long	L111_2_set_133
	.long	L111_2_set_133
	.long	L111_2_set_133
	.long	L111_2_set_133
	.long	L111_2_set_133
	.long	L111_2_set_133
	.long	L111_2_set_133
	.long	L111_2_set_133
	.long	L111_2_set_133
	.long	L111_2_set_133
	.long	L111_2_set_133
	.long	L111_2_set_133
	.long	L111_2_set_133
	.long	L111_2_set_133
	.long	L111_2_set_133
	.long	L111_2_set_133
	.long	L111_2_set_133
	.long	L111_2_set_133
	.long	L111_2_set_133
	.long	L111_2_set_133
	.long	L111_2_set_133
	.long	L111_2_set_133
	.long	L111_2_set_133
	.long	L111_2_set_133
	.long	L111_2_set_133
	.long	L111_2_set_133
	.long	L111_2_set_133
	.long	L111_2_set_133
	.long	L111_2_set_133
	.long	L111_2_set_133
	.long	L111_2_set_133
	.long	L111_2_set_133
	.long	L111_2_set_133
	.long	L111_2_set_133
	.long	L111_2_set_133
	.long	L111_2_set_133
	.long	L111_2_set_133
	.long	L111_2_set_133
	.long	L111_2_set_133
	.long	L111_2_set_133
	.long	L111_2_set_133
	.long	L111_2_set_133
	.long	L111_2_set_133
	.long	L111_2_set_133
	.long	L111_2_set_133
	.long	L111_2_set_133
	.long	L111_2_set_133
	.long	L111_2_set_133
	.long	L111_2_set_133
	.long	L111_2_set_133
	.long	L111_2_set_133
	.long	L111_2_set_133
	.long	L111_2_set_133
	.long	L111_2_set_133
	.long	L111_2_set_133
	.long	L111_2_set_133
	.long	L111_2_set_133
	.long	L111_2_set_133
	.long	L111_2_set_133
	.long	L111_2_set_133
	.long	L111_2_set_133
	.long	L111_2_set_133
	.long	L111_2_set_133
	.long	L111_2_set_133
	.long	L111_2_set_133
	.long	L111_2_set_133
	.long	L111_2_set_133
	.long	L111_2_set_133
	.long	L111_2_set_133
	.long	L111_2_set_133
	.long	L111_2_set_133
	.long	L111_2_set_133
	.long	L111_2_set_133
	.long	L111_2_set_133
	.long	L111_2_set_102
	.long	L111_2_set_103
	.long	L111_2_set_104
	.long	L111_2_set_105
	.long	L111_2_set_106
	.long	L111_2_set_107
	.long	L111_2_set_108
	.long	L111_2_set_109
	.long	L111_2_set_110
	.long	L111_2_set_111
.set L111_3_set_8, LBB111_8-LJTI111_3
.set L111_3_set_112, LBB111_112-LJTI111_3
.set L111_3_set_113, LBB111_113-LJTI111_3
.set L111_3_set_114, LBB111_114-LJTI111_3
.set L111_3_set_115, LBB111_115-LJTI111_3
.set L111_3_set_116, LBB111_116-LJTI111_3
.set L111_3_set_117, LBB111_117-LJTI111_3
.set L111_3_set_118, LBB111_118-LJTI111_3
.set L111_3_set_119, LBB111_119-LJTI111_3
.set L111_3_set_120, LBB111_120-LJTI111_3
.set L111_3_set_121, LBB111_121-LJTI111_3
.set L111_3_set_122, LBB111_122-LJTI111_3
.set L111_3_set_123, LBB111_123-LJTI111_3
.set L111_3_set_124, LBB111_124-LJTI111_3
LJTI111_3:
	.long	L111_3_set_8
	.long	L111_3_set_112
	.long	L111_3_set_113
	.long	L111_3_set_114
	.long	L111_3_set_115
	.long	L111_3_set_116
	.long	L111_3_set_117
	.long	L111_3_set_118
	.long	L111_3_set_119
	.long	L111_3_set_120
	.long	L111_3_set_121
	.long	L111_3_set_122
	.long	L111_3_set_123
	.long	L111_3_set_124
.set L111_4_set_21, LBB111_21-LJTI111_4
.set L111_4_set_27, LBB111_27-LJTI111_4
.set L111_4_set_28, LBB111_28-LJTI111_4
.set L111_4_set_133, LBB111_133-LJTI111_4
.set L111_4_set_29, LBB111_29-LJTI111_4
LJTI111_4:
	.long	L111_4_set_21
	.long	L111_4_set_27
	.long	L111_4_set_28
	.long	L111_4_set_133
	.long	L111_4_set_133
	.long	L111_4_set_133
	.long	L111_4_set_133
	.long	L111_4_set_133
	.long	L111_4_set_133
	.long	L111_4_set_133
	.long	L111_4_set_133
	.long	L111_4_set_133
	.long	L111_4_set_133
	.long	L111_4_set_133
	.long	L111_4_set_133
	.long	L111_4_set_133
	.long	L111_4_set_29
	.end_data_region

	.globl	__ZN62_$LT$gimli..constants..DwTag$u20$as$u20$core..fmt..Display$GT$3fmt17h5a54d2c28ce3ce81E
	.p2align	4, 0x90
__ZN62_$LT$gimli..constants..DwTag$u20$as$u20$core..fmt..Display$GT$3fmt17h5a54d2c28ce3ce81E:
Lfunc_begin6:
	.cfi_startproc
	.cfi_personality 155, _rust_eh_personality
	.cfi_lsda 16, Lexception6
	pushq	%rbp
	.cfi_def_cfa_offset 16
	.cfi_offset %rbp, -16
	movq	%rsp, %rbp
	.cfi_def_cfa_register %rbp
	pushq	%r15
	pushq	%r14
	pushq	%rbx
	subq	$104, %rsp
	.cfi_offset %rbx, -40
	.cfi_offset %r14, -32
	.cfi_offset %r15, -24
	movq	%rsi, %r15
	movq	%rdi, %rbx
	callq	__ZN5gimli9constants5DwTag13static_string17h9128ff77e34f7828E
	testq	%rax, %rax
	je	LBB112_1
	movq	%r15, %rdi
	movq	%rax, %rsi
	addq	$104, %rsp
	popq	%rbx
	popq	%r14
	popq	%r15
	popq	%rbp
	jmp	__ZN4core3fmt9Formatter3pad17he4a76f49c06ce69bE
LBB112_1:
	leaq	__ZN44_$LT$$RF$T$u20$as$u20$core..fmt..Display$GT$3fmt17hfb18b74c4657b0bcE(%rip), %rax
	vmovq	%rax, %xmm0
	leaq	l___unnamed_365(%rip), %rax
	vmovq	%rax, %xmm1
	vpunpcklqdq	%xmm0, %xmm1, %xmm0
	vmovdqa	%xmm0, -80(%rbp)
	movq	%rbx, -64(%rbp)
	movq	__ZN4core3fmt3num3imp52_$LT$impl$u20$core..fmt..Display$u20$for$u20$u16$GT$3fmt17h7d9582ae70d300cbE@GOTPCREL(%rip), %rax
	movq	%rax, -56(%rbp)
	leaq	l___unnamed_214(%rip), %rax
	movq	%rax, -128(%rbp)
	movq	$2, -120(%rbp)
	movq	$0, -112(%rbp)
	leaq	-80(%rbp), %rax
	movq	%rax, -96(%rbp)
	movq	$2, -88(%rbp)
	leaq	-48(%rbp), %rdi
	leaq	-128(%rbp), %rsi
	callq	__ZN5alloc3fmt6format17hef4b691705b449e4E
	movq	-48(%rbp), %r14
	movq	-32(%rbp), %rdx
Ltmp29:
	movq	%r15, %rdi
	movq	%r14, %rsi
	callq	__ZN4core3fmt9Formatter3pad17he4a76f49c06ce69bE
Ltmp30:
	movl	%eax, %ebx
	movq	-40(%rbp), %rsi
	testq	%rsi, %rsi
	je	LBB112_4
	movl	$1, %edx
	movq	%r14, %rdi
	callq	___rust_dealloc
LBB112_4:
	movl	%ebx, %eax
	addq	$104, %rsp
	popq	%rbx
	popq	%r14
	popq	%r15
	popq	%rbp
	retq
LBB112_5:
Ltmp31:
	movq	%rax, %rbx
	leaq	-48(%rbp), %rdi
	callq	__ZN4core3ptr13drop_in_place17hcb660db0ba6c573eE
	movq	%rbx, %rdi
	callq	__Unwind_Resume
	ud2
Lfunc_end6:
	.cfi_endproc
	.section	__TEXT,__gcc_except_tab
	.p2align	2
GCC_except_table112:
Lexception6:
	.byte	255
	.byte	255
	.byte	1
	.uleb128 Lcst_end6-Lcst_begin6
Lcst_begin6:
	.uleb128 Lfunc_begin6-Lfunc_begin6
	.uleb128 Ltmp29-Lfunc_begin6
	.byte	0
	.byte	0
	.uleb128 Ltmp29-Lfunc_begin6
	.uleb128 Ltmp30-Ltmp29
	.uleb128 Ltmp31-Lfunc_begin6
	.byte	0
	.uleb128 Ltmp30-Lfunc_begin6
	.uleb128 Lfunc_end6-Ltmp30
	.byte	0
	.byte	0
Lcst_end6:
	.p2align	2

	.section	__TEXT,__text,regular,pure_instructions
	.globl	__ZN60_$LT$gimli..constants..DwTag$u20$as$u20$core..fmt..Debug$GT$3fmt17hf7dff2f6bf1a3d71E
	.p2align	4, 0x90
__ZN60_$LT$gimli..constants..DwTag$u20$as$u20$core..fmt..Debug$GT$3fmt17hf7dff2f6bf1a3d71E:
	.cfi_startproc
	pushq	%rbp
	.cfi_def_cfa_offset 16
	.cfi_offset %rbp, -16
	movq	%rsp, %rbp
	.cfi_def_cfa_register %rbp
	pushq	%r14
	pushq	%rbx
	subq	$32, %rsp
	.cfi_offset %rbx, -32
	.cfi_offset %r14, -24
	movq	%rdi, %rbx
	leaq	l___unnamed_38(%rip), %rdx
	leaq	-48(%rbp), %r14
	movl	$5, %ecx
	movq	%r14, %rdi
	callq	__ZN4core3fmt9Formatter11debug_tuple17h15ca25ad759edd1cE
	movq	%rbx, -24(%rbp)
	leaq	l___unnamed_15(%rip), %rdx
	leaq	-24(%rbp), %rsi
	movq	%r14, %rdi
	callq	__ZN4core3fmt8builders10DebugTuple5field17hf36121153a94f236E
	movq	%r14, %rdi
	callq	__ZN4core3fmt8builders10DebugTuple6finish17h68acf09c6f6593f2E
	addq	$32, %rsp
	popq	%rbx
	popq	%r14
	popq	%rbp
	retq
	.cfi_endproc

	.globl	__ZN5gimli9constants4DwAt13static_string17h0785524fffad1de5E
	.p2align	4, 0x90
__ZN5gimli9constants4DwAt13static_string17h0785524fffad1de5E:
	.cfi_startproc
	pushq	%rbp
	.cfi_def_cfa_offset 16
	.cfi_offset %rbp, -16
	movq	%rsp, %rbp
	.cfi_def_cfa_register %rbp
	movswl	(%rdi), %ecx
	xorl	%eax, %eax
	cmpl	$8191, %ecx
	jle	LBB114_5
	movswl	%cx, %edx
	cmpl	$14848, %edx
	jg	LBB114_8
	leal	-8192(%rcx), %edx
	movzwl	%dx, %esi
	cmpl	$773, %esi
	ja	LBB114_23
	movzwl	%dx, %ecx
	leaq	LJTI114_1(%rip), %rdx
	movslq	(%rdx,%rcx,4), %rcx
	addq	%rdx, %rcx
	jmpq	*%rcx
LBB114_4:
	leaq	l___unnamed_366(%rip), %rcx
	movl	$13, %edx
	jmp	LBB114_278
LBB114_5:
	movzwl	%cx, %esi
	cmpl	$140, %esi
	ja	LBB114_287
	leaq	l___unnamed_367(%rip), %rcx
	movl	$10, %edx
	leaq	LJTI114_0(%rip), %rdi
	movslq	(%rdi,%rsi,4), %rsi
	addq	%rdi, %rsi
	jmpq	*%rsi
LBB114_7:
	leaq	l___unnamed_368(%rip), %rcx
	movl	$13, %edx
	jmp	LBB114_278
LBB114_8:
	cmpl	$15871, %edx
	jg	LBB114_12
	leal	-15121(%rcx), %edx
	cmpw	$32, %dx
	ja	LBB114_20
	movzwl	%dx, %ecx
