	.section	__TEXT,__text,regular,pure_instructions
	.macosx_version_min 10, 7
	.p2align	4, 0x90
__ZN42_$LT$$RF$T$u20$as$u20$core..fmt..Debug$GT$3fmt17h00694a2562316aadE:
	.cfi_startproc
	pushq	%rbp
	.cfi_def_cfa_offset 16
	.cfi_offset %rbp, -16
	movq	%rsp, %rbp
	.cfi_def_cfa_register %rbp
	pushq	%r15
	pushq	%r14
	pushq	%r13
	pushq	%r12
	pushq	%rbx
	subq	$136, %rsp
	.cfi_offset %rbx, -56
	.cfi_offset %r12, -48
	.cfi_offset %r13, -40
	.cfi_offset %r14, -32
	.cfi_offset %r15, -24
	movq	(%rdi), %r14
	leaq	-168(%rbp), %rdi
	callq	__ZN4core3fmt9Formatter9debug_map17h61faa4280f099e87E
	movq	(%r14), %rcx
	testq	%rcx, %rcx
	je	LBB0_1
	movq	8(%r14), %rsi
	movzwl	10(%rcx), %edx
	testq	%rsi, %rsi
	je	LBB0_3
	movb	$1, %bl
	movq	%rcx, %r8
	.p2align	4, 0x90
LBB0_6:
	testb	$1, %bl
	je	LBB0_4
	cmpq	$1, %rsi
	setne	%bl
	movq	1336(%r8), %r8
	movq	1336(%rcx,%rdx,8), %rcx
	movzwl	10(%rcx), %edx
	decq	%rsi
	jne	LBB0_6
	jmp	LBB0_8
LBB0_1:
	xorl	%ecx, %ecx
	xorl	%r8d, %r8d
	xorl	%esi, %esi
	jmp	LBB0_9
LBB0_3:
	movq	%rcx, %r8
LBB0_8:
	movq	16(%r14), %rsi
	xorps	%xmm0, %xmm0
	movaps	%xmm0, -64(%rbp)
	movq	$0, -48(%rbp)
LBB0_9:
	movq	$0, -136(%rbp)
	movq	%r8, -128(%rbp)
	movq	-64(%rbp), %rax
	movq	-56(%rbp), %rdi
	movq	%rax, -120(%rbp)
	movq	%rdi, -112(%rbp)
	movq	-48(%rbp), %rax
	movq	%rax, -104(%rbp)
	movq	%rcx, -96(%rbp)
	movq	$0, -88(%rbp)
	movq	%rdx, -80(%rbp)
	movq	%rsi, -72(%rbp)
	testq	%rsi, %rsi
	je	LBB0_28
	leaq	l___unnamed_1(%rip), %r15
	leaq	-168(%rbp), %r12
	leaq	-144(%rbp), %r13
	leaq	-152(%rbp), %r14
	.p2align	4, 0x90
LBB0_11:
	decq	%rsi
	movq	%rsi, -72(%rbp)
	testq	%r8, %r8
	leaq	-136(%rbp), %rax
	cmovneq	%rax, %r8
	movq	(%r8), %rbx
	movq	8(%r8), %rcx
	movq	24(%r8), %rdx
	movzwl	10(%rcx), %eax
	cmpq	%rax, %rdx
	jb	LBB0_16
	.p2align	4, 0x90
LBB0_12:
	movq	(%rcx), %rsi
	testq	%rsi, %rsi
	je	LBB0_13
	incq	%rbx
	movzwl	8(%rcx), %edx
	movq	%rsi, %rcx
	cmpw	10(%rsi), %dx
	jae	LBB0_12
	movq	%rsi, %rcx
LBB0_16:
	testq	%rbx, %rbx
	je	LBB0_17
LBB0_18:
	movq	%rbx, %rsi
	movq	1344(%rcx,%rdx,8), %rdi
	decq	%rsi
	je	LBB0_25
	addq	$-2, %rbx
	movq	%rsi, %r9
	andq	$7, %r9
	je	LBB0_23
	xorl	%eax, %eax
	.p2align	4, 0x90
LBB0_21:
	movq	1336(%rdi), %rdi
	incq	%rax
	cmpq	%rax, %r9
	jne	LBB0_21
	subq	%rax, %rsi
LBB0_23:
	cmpq	$7, %rbx
	jb	LBB0_25
	.p2align	4, 0x90
LBB0_24:
	movq	1336(%rdi), %rax
	movq	1336(%rax), %rax
	movq	1336(%rax), %rax
	movq	1336(%rax), %rax
	movq	1336(%rax), %rax
	movq	1336(%rax), %rax
	movq	1336(%rax), %rax
	movq	1336(%rax), %rdi
	addq	$-8, %rsi
	jne	LBB0_24
LBB0_25:
	xorl	%eax, %eax
	jmp	LBB0_26
	.p2align	4, 0x90
LBB0_13:
	xorl	%ecx, %ecx
	testq	%rbx, %rbx
	jne	LBB0_18
LBB0_17:
	leaq	1(%rdx), %rax
	movq	%rcx, %rdi
LBB0_26:
	leaq	16(%rcx,%rdx,8), %rsi
	imulq	$112, %rdx, %rdx
	leaq	104(%rcx,%rdx), %rcx
	movq	$0, (%r8)
	movq	%rdi, 8(%r8)
	movq	%rax, 24(%r8)
	movq	%rsi, -144(%rbp)
	movq	%rcx, -152(%rbp)
	movq	%r12, %rdi
	movq	%r13, %rsi
	leaq	l___unnamed_2(%rip), %rdx
	movq	%r14, %rcx
	movq	%r15, %r8
	callq	__ZN4core3fmt8builders8DebugMap5entry17h178ce595077c16c4E
	movq	-72(%rbp), %rsi
	testq	%rsi, %rsi
	je	LBB0_28
	movq	-128(%rbp), %r8
	jmp	LBB0_11
LBB0_28:
	leaq	-168(%rbp), %rdi
	callq	__ZN4core3fmt8builders8DebugMap6finish17h0bc0c46ca49f31deE
	addq	$136, %rsp
	popq	%rbx
	popq	%r12
	popq	%r13
	popq	%r14
	popq	%r15
	popq	%rbp
	retq
LBB0_4:
	leaq	l___unnamed_3(%rip), %rax
	movq	%rax, -64(%rbp)
	leaq	__ZN44_$LT$$RF$T$u20$as$u20$core..fmt..Display$GT$3fmt17h75bd668156b0de05E(%rip), %rax
	movq	%rax, -56(%rbp)
	leaq	l___unnamed_4(%rip), %rax
	movq	%rax, -136(%rbp)
	movq	$1, -128(%rbp)
	movq	$0, -120(%rbp)
	leaq	-64(%rbp), %rax
	movq	%rax, -104(%rbp)
	movq	$1, -96(%rbp)
	leaq	l___unnamed_5(%rip), %rsi
	leaq	-136(%rbp), %rdi
	callq	__ZN4core9panicking9panic_fmt17hfce5b7173905fc53E
	.cfi_endproc

	.p2align	4, 0x90
__ZN42_$LT$$RF$T$u20$as$u20$core..fmt..Debug$GT$3fmt17h02b5b93c9f3a6b05E:
	.cfi_startproc
	pushq	%rbp
	.cfi_def_cfa_offset 16
	.cfi_offset %rbp, -16
	movq	%rsp, %rbp
	.cfi_def_cfa_register %rbp
	pushq	%r14
	pushq	%rbx
	.cfi_offset %rbx, -32
	.cfi_offset %r14, -24
	movq	%rsi, %rbx
	movq	(%rdi), %r14
	movq	%rsi, %rdi
	callq	__ZN4core3fmt9Formatter15debug_lower_hex17hd07f6fde8d0365dfE
	testb	%al, %al
	je	LBB1_1
	movq	%r14, %rdi
	movq	%rbx, %rsi
	popq	%rbx
	popq	%r14
	popq	%rbp
	jmp	__ZN4core3fmt3num53_$LT$impl$u20$core..fmt..LowerHex$u20$for$u20$i32$GT$3fmt17hb7ffbd061f7948a2E
LBB1_1:
	movq	%rbx, %rdi
	callq	__ZN4core3fmt9Formatter15debug_upper_hex17hf480c256a9c81c1eE
	movq	%r14, %rdi
	movq	%rbx, %rsi
	testb	%al, %al
	je	LBB1_4
	popq	%rbx
	popq	%r14
	popq	%rbp
	jmp	__ZN4core3fmt3num53_$LT$impl$u20$core..fmt..UpperHex$u20$for$u20$i32$GT$3fmt17hbb8d8cd7e36208d7E
LBB1_4:
	popq	%rbx
	popq	%r14
	popq	%rbp
	jmp	__ZN4core3fmt3num3imp52_$LT$impl$u20$core..fmt..Display$u20$for$u20$i32$GT$3fmt17h00ed7ff77f9da654E
	.cfi_endproc

	.p2align	4, 0x90
__ZN42_$LT$$RF$T$u20$as$u20$core..fmt..Debug$GT$3fmt17h15cf8aaedbce3b81E:
	.cfi_startproc
	pushq	%rbp
	.cfi_def_cfa_offset 16
	.cfi_offset %rbp, -16
	movq	%rsp, %rbp
	.cfi_def_cfa_register %rbp
	pushq	%r14
	pushq	%rbx
	subq	$32, %rsp
	.cfi_offset %rbx, -32
	.cfi_offset %r14, -24
	movq	(%rdi), %rbx
	leaq	l___unnamed_6(%rip), %rdx
	leaq	-48(%rbp), %r14
	movl	$6, %ecx
	movq	%r14, %rdi
	callq	__ZN4core3fmt9Formatter11debug_tuple17h6c448643801d07e8E
	movq	%rbx, -24(%rbp)
	leaq	l___unnamed_7(%rip), %rdx
	leaq	-24(%rbp), %rsi
	movq	%r14, %rdi
	callq	__ZN4core3fmt8builders10DebugTuple5field17hc7b676d0e36b51d9E
	movq	%r14, %rdi
	callq	__ZN4core3fmt8builders10DebugTuple6finish17h9f206806f7096c33E
	addq	$32, %rsp
	popq	%rbx
	popq	%r14
	popq	%rbp
	retq
	.cfi_endproc

	.p2align	4, 0x90
__ZN42_$LT$$RF$T$u20$as$u20$core..fmt..Debug$GT$3fmt17h1c8738c2d2c5e0ccE:
	.cfi_startproc
	pushq	%rbp
	.cfi_def_cfa_offset 16
	.cfi_offset %rbp, -16
	movq	%rsp, %rbp
	.cfi_def_cfa_register %rbp
	pushq	%r14
	pushq	%rbx
	.cfi_offset %rbx, -32
	.cfi_offset %r14, -24
	movq	%rsi, %rbx
	movq	(%rdi), %r14
	movq	%rsi, %rdi
	callq	__ZN4core3fmt9Formatter15debug_lower_hex17hd07f6fde8d0365dfE
	testb	%al, %al
	je	LBB3_1
	movq	%r14, %rdi
	movq	%rbx, %rsi
	popq	%rbx
	popq	%r14
	popq	%rbp
	jmp	__ZN4core3fmt3num53_$LT$impl$u20$core..fmt..LowerHex$u20$for$u20$u64$GT$3fmt17hb1b2554e6a6ce90cE
LBB3_1:
	movq	%rbx, %rdi
	callq	__ZN4core3fmt9Formatter15debug_upper_hex17hf480c256a9c81c1eE
	movq	%r14, %rdi
	movq	%rbx, %rsi
	testb	%al, %al
	je	LBB3_4
	popq	%rbx
	popq	%r14
	popq	%rbp
	jmp	__ZN4core3fmt3num53_$LT$impl$u20$core..fmt..UpperHex$u20$for$u20$u64$GT$3fmt17h67a4ddf8c7fd5f2bE
LBB3_4:
	popq	%rbx
	popq	%r14
	popq	%rbp
	jmp	__ZN4core3fmt3num3imp52_$LT$impl$u20$core..fmt..Display$u20$for$u20$u64$GT$3fmt17h3230c9bc78e30ed1E
	.cfi_endproc

	.p2align	4, 0x90
__ZN42_$LT$$RF$T$u20$as$u20$core..fmt..Debug$GT$3fmt17h319afa48e82755ccE:
	.cfi_startproc
	pushq	%rbp
	.cfi_def_cfa_offset 16
	.cfi_offset %rbp, -16
	movq	%rsp, %rbp
	.cfi_def_cfa_register %rbp
	pushq	%r15
	pushq	%r14
	pushq	%r13
	pushq	%r12
	pushq	%rbx
	subq	$24, %rsp
	.cfi_offset %rbx, -56
	.cfi_offset %r12, -48
	.cfi_offset %r13, -40
	.cfi_offset %r14, -32
	.cfi_offset %r15, -24
	movq	(%rdi), %rbx
	leaq	l___unnamed_8(%rip), %rdx
	leaq	-64(%rbp), %r15
	movl	$12, %ecx
	movq	%r15, %rdi
	callq	__ZN4core3fmt9Formatter12debug_struct17ha1a64e91d2a98458E
	movq	%rbx, -48(%rbp)
	leaq	104(%rbx), %r12
	leaq	106(%rbx), %r13
	leaq	8(%rbx), %r14
	leaq	L___unnamed_9(%rip), %rsi
	leaq	l___unnamed_2(%rip), %r8
	leaq	-48(%rbp), %rcx
	movl	$4, %edx
	movq	%r15, %rdi
	callq	__ZN4core3fmt8builders11DebugStruct5field17h6c54d35ac41bb1e6E
	movq	%r12, -48(%rbp)
	leaq	l___unnamed_10(%rip), %rsi
	leaq	l___unnamed_11(%rip), %r8
	leaq	-48(%rbp), %rcx
	movl	$3, %edx
	movq	%r15, %rdi
	callq	__ZN4core3fmt8builders11DebugStruct5field17h6c54d35ac41bb1e6E
	movq	%r13, -48(%rbp)
	leaq	l___unnamed_12(%rip), %rsi
	leaq	l___unnamed_13(%rip), %r8
	leaq	-48(%rbp), %rcx
	movl	$12, %edx
	movq	%r15, %rdi
	callq	__ZN4core3fmt8builders11DebugStruct5field17h6c54d35ac41bb1e6E
	movq	%r14, -48(%rbp)
	leaq	l___unnamed_14(%rip), %rsi
	leaq	l___unnamed_15(%rip), %r8
	leaq	-48(%rbp), %rcx
	movl	$10, %edx
	movq	%r15, %rdi
	callq	__ZN4core3fmt8builders11DebugStruct5field17h6c54d35ac41bb1e6E
	movq	%r15, %rdi
	callq	__ZN4core3fmt8builders11DebugStruct6finish17h67ed49fd5e81bb24E
	addq	$24, %rsp
	popq	%rbx
	popq	%r12
	popq	%r13
	popq	%r14
	popq	%r15
	popq	%rbp
	retq
	.cfi_endproc

	.p2align	4, 0x90
__ZN42_$LT$$RF$T$u20$as$u20$core..fmt..Debug$GT$3fmt17h36bddf3799418828E:
	.cfi_startproc
	pushq	%rbp
	.cfi_def_cfa_offset 16
	.cfi_offset %rbp, -16
	movq	%rsp, %rbp
	.cfi_def_cfa_register %rbp
	movq	(%rdi), %rdi
	popq	%rbp
	jmp	__ZN4core3fmt5float50_$LT$impl$u20$core..fmt..Debug$u20$for$u20$f32$GT$3fmt17ha9420faa99d1b790E
	.cfi_endproc

	.p2align	4, 0x90
__ZN42_$LT$$RF$T$u20$as$u20$core..fmt..Debug$GT$3fmt17h37d6dcd8eb3bb18dE:
	.cfi_startproc
	pushq	%rbp
	.cfi_def_cfa_offset 16
	.cfi_offset %rbp, -16
	movq	%rsp, %rbp
	.cfi_def_cfa_register %rbp
	pushq	%r14
	pushq	%rbx
	.cfi_offset %rbx, -32
	.cfi_offset %r14, -24
	movq	%rsi, %rbx
	movq	(%rdi), %r14
	movq	%rsi, %rdi
	callq	__ZN4core3fmt9Formatter15debug_lower_hex17hd07f6fde8d0365dfE
	testb	%al, %al
	je	LBB6_1
	movq	%r14, %rdi
	movq	%rbx, %rsi
	popq	%rbx
	popq	%r14
	popq	%rbp
	jmp	__ZN4core3fmt3num52_$LT$impl$u20$core..fmt..LowerHex$u20$for$u20$i8$GT$3fmt17h5ba2f2472d1b08b3E
LBB6_1:
	movq	%rbx, %rdi
	callq	__ZN4core3fmt9Formatter15debug_upper_hex17hf480c256a9c81c1eE
	movq	%r14, %rdi
	movq	%rbx, %rsi
	testb	%al, %al
	je	LBB6_4
	popq	%rbx
	popq	%r14
	popq	%rbp
	jmp	__ZN4core3fmt3num52_$LT$impl$u20$core..fmt..UpperHex$u20$for$u20$i8$GT$3fmt17h36a1c2413d99c98eE
LBB6_4:
	popq	%rbx
	popq	%r14
	popq	%rbp
	jmp	__ZN4core3fmt3num3imp51_$LT$impl$u20$core..fmt..Display$u20$for$u20$i8$GT$3fmt17hc9fc67837369c997E
	.cfi_endproc

	.p2align	4, 0x90
__ZN42_$LT$$RF$T$u20$as$u20$core..fmt..Debug$GT$3fmt17h38cb1a92a0e12a02E:
	.cfi_startproc
	pushq	%rbp
	.cfi_def_cfa_offset 16
	.cfi_offset %rbp, -16
	movq	%rsp, %rbp
	.cfi_def_cfa_register %rbp
	pushq	%r15
	pushq	%r14
	pushq	%r12
	pushq	%rbx
	subq	$32, %rsp
	.cfi_offset %rbx, -48
	.cfi_offset %r12, -40
	.cfi_offset %r14, -32
	.cfi_offset %r15, -24
	movq	(%rdi), %rbx
	leaq	8(%rbx), %r15
	leaq	10(%rbx), %r12
	leaq	l___unnamed_16(%rip), %rdx
	leaq	-56(%rbp), %r14
	movl	$22, %ecx
	movq	%r14, %rdi
	callq	__ZN4core3fmt9Formatter12debug_struct17ha1a64e91d2a98458E
	movq	%r15, -40(%rbp)
	leaq	L___unnamed_17(%rip), %rsi
	leaq	l___unnamed_18(%rip), %r8
	leaq	-40(%rbp), %rcx
	movl	$4, %edx
	movq	%r14, %rdi
	callq	__ZN4core3fmt8builders11DebugStruct5field17h6c54d35ac41bb1e6E
	movq	%r12, -40(%rbp)
	leaq	L___unnamed_19(%rip), %rsi
	leaq	l___unnamed_20(%rip), %r8
	leaq	-40(%rbp), %rcx
	movl	$4, %edx
	movq	%r14, %rdi
	callq	__ZN4core3fmt8builders11DebugStruct5field17h6c54d35ac41bb1e6E
	movq	%rbx, -40(%rbp)
	leaq	l___unnamed_21(%rip), %rsi
	leaq	l___unnamed_22(%rip), %r8
	leaq	-40(%rbp), %rcx
	movl	$20, %edx
	movq	%r14, %rdi
	callq	__ZN4core3fmt8builders11DebugStruct5field17h6c54d35ac41bb1e6E
	movq	%r14, %rdi
	callq	__ZN4core3fmt8builders11DebugStruct6finish17h67ed49fd5e81bb24E
	addq	$32, %rsp
	popq	%rbx
	popq	%r12
	popq	%r14
	popq	%r15
	popq	%rbp
	retq
	.cfi_endproc

	.p2align	4, 0x90
__ZN42_$LT$$RF$T$u20$as$u20$core..fmt..Debug$GT$3fmt17h52dbd300b9bf0434E:
	.cfi_startproc
	pushq	%rbp
	.cfi_def_cfa_offset 16
	.cfi_offset %rbp, -16
	movq	%rsp, %rbp
	.cfi_def_cfa_register %rbp
	pushq	%r14
	pushq	%rbx
	subq	$32, %rsp
	.cfi_offset %rbx, -32
	.cfi_offset %r14, -24
	movq	(%rdi), %rbx
	leaq	l___unnamed_23(%rip), %rdx
	leaq	-48(%rbp), %r14
	movl	$5, %ecx
	movq	%r14, %rdi
	callq	__ZN4core3fmt9Formatter11debug_tuple17h6c448643801d07e8E
	movq	%rbx, -24(%rbp)
	leaq	l___unnamed_24(%rip), %rdx
	leaq	-24(%rbp), %rsi
	movq	%r14, %rdi
	callq	__ZN4core3fmt8builders10DebugTuple5field17hc7b676d0e36b51d9E
	movq	%r14, %rdi
	callq	__ZN4core3fmt8builders10DebugTuple6finish17h9f206806f7096c33E
	addq	$32, %rsp
	popq	%rbx
	popq	%r14
	popq	%rbp
	retq
	.cfi_endproc

	.p2align	4, 0x90
__ZN42_$LT$$RF$T$u20$as$u20$core..fmt..Debug$GT$3fmt17h5537db47e612ad25E:
	.cfi_startproc
	pushq	%rbp
	.cfi_def_cfa_offset 16
	.cfi_offset %rbp, -16
	movq	%rsp, %rbp
	.cfi_def_cfa_register %rbp
	pushq	%r14
	pushq	%rbx
	subq	$32, %rsp
	.cfi_offset %rbx, -32
	.cfi_offset %r14, -24
	movq	(%rdi), %rbx
	leaq	l___unnamed_25(%rip), %rdx
	leaq	-48(%rbp), %r14
	movl	$5, %ecx
	movq	%r14, %rdi
	callq	__ZN4core3fmt9Formatter11debug_tuple17h6c448643801d07e8E
	movq	%rbx, -24(%rbp)
	leaq	l___unnamed_7(%rip), %rdx
	leaq	-24(%rbp), %rsi
	movq	%r14, %rdi
	callq	__ZN4core3fmt8builders10DebugTuple5field17hc7b676d0e36b51d9E
	movq	%r14, %rdi
	callq	__ZN4core3fmt8builders10DebugTuple6finish17h9f206806f7096c33E
	addq	$32, %rsp
	popq	%rbx
	popq	%r14
	popq	%rbp
	retq
	.cfi_endproc

	.p2align	4, 0x90
__ZN42_$LT$$RF$T$u20$as$u20$core..fmt..Debug$GT$3fmt17h5a053f39f251fb52E:
	.cfi_startproc
	pushq	%rbp
	.cfi_def_cfa_offset 16
	.cfi_offset %rbp, -16
	movq	%rsp, %rbp
	.cfi_def_cfa_register %rbp
	pushq	%r15
	pushq	%r14
	pushq	%r13
	pushq	%r12
	pushq	%rbx
	subq	$24, %rsp
	.cfi_offset %rbx, -56
	.cfi_offset %r12, -48
	.cfi_offset %r13, -40
	.cfi_offset %r14, -32
	.cfi_offset %r15, -24
	movq	(%rdi), %rax
	movq	(%rax), %r13
	movq	16(%rax), %rbx
	leaq	-64(%rbp), %rdi
	callq	__ZN4core3fmt9Formatter10debug_list17h113a4e31f24f00d7E
	testq	%rbx, %rbx
	je	LBB10_3
	imulq	$112, %rbx, %rbx
	leaq	l___unnamed_1(%rip), %r14
	leaq	-64(%rbp), %r15
	leaq	-48(%rbp), %r12
	.p2align	4, 0x90
LBB10_2:
	movq	%r13, -48(%rbp)
	addq	$112, %r13
	movq	%r15, %rdi
	movq	%r12, %rsi
	movq	%r14, %rdx
	callq	__ZN4core3fmt8builders9DebugList5entry17h2dea26f6c644471aE
	addq	$-112, %rbx
	jne	LBB10_2
LBB10_3:
	leaq	-64(%rbp), %rdi
	callq	__ZN4core3fmt8builders9DebugList6finish17h1537bc92ee1acb1cE
	addq	$24, %rsp
	popq	%rbx
	popq	%r12
	popq	%r13
	popq	%r14
	popq	%r15
	popq	%rbp
	retq
	.cfi_endproc

	.p2align	4, 0x90
__ZN42_$LT$$RF$T$u20$as$u20$core..fmt..Debug$GT$3fmt17h5cf712fe9c233793E:
	.cfi_startproc
	pushq	%rbp
	.cfi_def_cfa_offset 16
	.cfi_offset %rbp, -16
	movq	%rsp, %rbp
	.cfi_def_cfa_register %rbp
	pushq	%rbx
	subq	$24, %rsp
	.cfi_offset %rbx, -24
	movq	(%rdi), %rax
	cmpb	$8, (%rax)
	jne	LBB11_1
	leaq	l___unnamed_26(%rip), %rdx
	jmp	LBB11_3
LBB11_1:
	leaq	l___unnamed_27(%rip), %rdx
LBB11_3:
	leaq	-32(%rbp), %rbx
	movl	$7, %ecx
	movq	%rbx, %rdi
	callq	__ZN4core3fmt9Formatter11debug_tuple17h6c448643801d07e8E
	movq	%rbx, %rdi
	callq	__ZN4core3fmt8builders10DebugTuple6finish17h9f206806f7096c33E
	addq	$24, %rsp
	popq	%rbx
	popq	%rbp
	retq
	.cfi_endproc

	.p2align	4, 0x90
__ZN42_$LT$$RF$T$u20$as$u20$core..fmt..Debug$GT$3fmt17h605867d9e6e68677E:
	.cfi_startproc
	pushq	%rbp
	.cfi_def_cfa_offset 16
	.cfi_offset %rbp, -16
	movq	%rsp, %rbp
	.cfi_def_cfa_register %rbp
	pushq	%r15
	pushq	%r14
	pushq	%rbx
	subq	$24, %rsp
	.cfi_offset %rbx, -40
	.cfi_offset %r14, -32
	.cfi_offset %r15, -24
	movq	(%rdi), %rbx
	leaq	L___unnamed_28(%rip), %rdx
	leaq	-48(%rbp), %r14
	movl	$8, %ecx
	movq	%r14, %rdi
	callq	__ZN4core3fmt9Formatter12debug_struct17ha1a64e91d2a98458E
	movq	%rbx, -32(%rbp)
	leaq	1(%rbx), %r15
	addq	$2, %rbx
	leaq	l___unnamed_29(%rip), %rsi
	leaq	l___unnamed_24(%rip), %r8
	leaq	-32(%rbp), %rcx
	movl	$12, %edx
	movq	%r14, %rdi
	callq	__ZN4core3fmt8builders11DebugStruct5field17h6c54d35ac41bb1e6E
	movq	%r15, -32(%rbp)
	leaq	l___unnamed_30(%rip), %rsi
	leaq	l___unnamed_31(%rip), %r8
	leaq	-32(%rbp), %rcx
	movl	$6, %edx
	movq	%r14, %rdi
	callq	__ZN4core3fmt8builders11DebugStruct5field17h6c54d35ac41bb1e6E
	movq	%rbx, -32(%rbp)
	leaq	l___unnamed_32(%rip), %rsi
	leaq	l___unnamed_7(%rip), %r8
	leaq	-32(%rbp), %rcx
	movl	$7, %edx
	movq	%r14, %rdi
	callq	__ZN4core3fmt8builders11DebugStruct5field17h6c54d35ac41bb1e6E
	movq	%r14, %rdi
	callq	__ZN4core3fmt8builders11DebugStruct6finish17h67ed49fd5e81bb24E
	addq	$24, %rsp
	popq	%rbx
	popq	%r14
	popq	%r15
	popq	%rbp
	retq
	.cfi_endproc

	.p2align	4, 0x90
__ZN42_$LT$$RF$T$u20$as$u20$core..fmt..Debug$GT$3fmt17h736974d16d8fe58fE:
	.cfi_startproc
	pushq	%rbp
	.cfi_def_cfa_offset 16
	.cfi_offset %rbp, -16
	movq	%rsp, %rbp
	.cfi_def_cfa_register %rbp
	pushq	%r14
	pushq	%rbx
	subq	$32, %rsp
	.cfi_offset %rbx, -32
	.cfi_offset %r14, -24
	movq	(%rdi), %rbx
	leaq	L___unnamed_33(%rip), %rdx
	leaq	-48(%rbp), %r14
	movl	$4, %ecx
	movq	%r14, %rdi
	callq	__ZN4core3fmt9Formatter11debug_tuple17h6c448643801d07e8E
	movq	%rbx, -24(%rbp)
	leaq	l___unnamed_7(%rip), %rdx
	leaq	-24(%rbp), %rsi
	movq	%r14, %rdi
	callq	__ZN4core3fmt8builders10DebugTuple5field17hc7b676d0e36b51d9E
	movq	%r14, %rdi
	callq	__ZN4core3fmt8builders10DebugTuple6finish17h9f206806f7096c33E
	addq	$32, %rsp
	popq	%rbx
	popq	%r14
	popq	%rbp
	retq
	.cfi_endproc

	.p2align	4, 0x90
__ZN42_$LT$$RF$T$u20$as$u20$core..fmt..Debug$GT$3fmt17h78eeed049775cfe4E:
	.cfi_startproc
	pushq	%rbp
	.cfi_def_cfa_offset 16
	.cfi_offset %rbp, -16
	movq	%rsp, %rbp
	.cfi_def_cfa_register %rbp
	pushq	%r14
	pushq	%rbx
	subq	$32, %rsp
	.cfi_offset %rbx, -32
	.cfi_offset %r14, -24
	movq	(%rdi), %rax
	cmpl	$1, (%rax)
	leaq	8(%rax), %rbx
	jne	LBB14_2
	leaq	L___unnamed_34(%rip), %rdx
	leaq	-48(%rbp), %r14
	movl	$8, %ecx
	jmp	LBB14_3
LBB14_2:
	leaq	l___unnamed_35(%rip), %rdx
	leaq	-48(%rbp), %r14
	movl	$6, %ecx
LBB14_3:
	movq	%r14, %rdi
	callq	__ZN4core3fmt9Formatter11debug_tuple17h6c448643801d07e8E
	movq	%rbx, -24(%rbp)
	leaq	l___unnamed_2(%rip), %rdx
	leaq	-24(%rbp), %rsi
	movq	%r14, %rdi
	callq	__ZN4core3fmt8builders10DebugTuple5field17hc7b676d0e36b51d9E
	movq	%r14, %rdi
	callq	__ZN4core3fmt8builders10DebugTuple6finish17h9f206806f7096c33E
	addq	$32, %rsp
	popq	%rbx
	popq	%r14
	popq	%rbp
	retq
	.cfi_endproc

	.p2align	4, 0x90
__ZN42_$LT$$RF$T$u20$as$u20$core..fmt..Debug$GT$3fmt17h875904d806899e5dE:
	.cfi_startproc
	pushq	%rbp
	.cfi_def_cfa_offset 16
	.cfi_offset %rbp, -16
	movq	%rsp, %rbp
	.cfi_def_cfa_register %rbp
	pushq	%r14
	pushq	%rbx
	subq	$32, %rsp
	.cfi_offset %rbx, -32
	.cfi_offset %r14, -24
	movq	(%rdi), %rbx
	leaq	l___unnamed_36(%rip), %rdx
	leaq	-48(%rbp), %r14
	movl	$14, %ecx
	movq	%r14, %rdi
	callq	__ZN4core3fmt9Formatter11debug_tuple17h6c448643801d07e8E
	movq	%rbx, -24(%rbp)
	leaq	l___unnamed_2(%rip), %rdx
	leaq	-24(%rbp), %rsi
	movq	%r14, %rdi
	callq	__ZN4core3fmt8builders10DebugTuple5field17hc7b676d0e36b51d9E
	movq	%r14, %rdi
	callq	__ZN4core3fmt8builders10DebugTuple6finish17h9f206806f7096c33E
	addq	$32, %rsp
	popq	%rbx
	popq	%r14
	popq	%rbp
	retq
	.cfi_endproc

	.p2align	4, 0x90
__ZN42_$LT$$RF$T$u20$as$u20$core..fmt..Debug$GT$3fmt17h888cdbff5b1019f1E:
	.cfi_startproc
	pushq	%rbp
	.cfi_def_cfa_offset 16
	.cfi_offset %rbp, -16
	movq	%rsp, %rbp
	.cfi_def_cfa_register %rbp
	pushq	%r14
	pushq	%rbx
	.cfi_offset %rbx, -32
	.cfi_offset %r14, -24
	movq	%rsi, %rbx
	movq	(%rdi), %r14
	movq	%rsi, %rdi
	callq	__ZN4core3fmt9Formatter15debug_lower_hex17hd07f6fde8d0365dfE
	testb	%al, %al
	je	LBB16_1
	movq	%r14, %rdi
	movq	%rbx, %rsi
	popq	%rbx
	popq	%r14
	popq	%rbp
	jmp	__ZN4core3fmt3num53_$LT$impl$u20$core..fmt..LowerHex$u20$for$u20$i64$GT$3fmt17h4ef40751c6de7de0E
LBB16_1:
	movq	%rbx, %rdi
	callq	__ZN4core3fmt9Formatter15debug_upper_hex17hf480c256a9c81c1eE
	movq	%r14, %rdi
	movq	%rbx, %rsi
	testb	%al, %al
	je	LBB16_4
	popq	%rbx
	popq	%r14
	popq	%rbp
	jmp	__ZN4core3fmt3num53_$LT$impl$u20$core..fmt..UpperHex$u20$for$u20$i64$GT$3fmt17h98e190490afbae54E
LBB16_4:
	popq	%rbx
	popq	%r14
	popq	%rbp
	jmp	__ZN4core3fmt3num3imp52_$LT$impl$u20$core..fmt..Display$u20$for$u20$i64$GT$3fmt17h310ed6661e8c983fE
	.cfi_endproc

	.p2align	4, 0x90
__ZN42_$LT$$RF$T$u20$as$u20$core..fmt..Debug$GT$3fmt17h90f8108e23f7ba24E:
	.cfi_startproc
	pushq	%rbp
	.cfi_def_cfa_offset 16
	.cfi_offset %rbp, -16
	movq	%rsp, %rbp
	.cfi_def_cfa_register %rbp
	pushq	%r14
	pushq	%rbx
	subq	$48, %rsp
	.cfi_offset %rbx, -32
	.cfi_offset %r14, -24
	movq	(%rdi), %rbx
	leaq	l___unnamed_37(%rip), %rdx
	leaq	-56(%rbp), %r14
	movq	%r14, %rdi
	xorl	%ecx, %ecx
	callq	__ZN4core3fmt9Formatter11debug_tuple17h6c448643801d07e8E
	movq	%rbx, -24(%rbp)
	addq	$8, %rbx
	movq	%rbx, -32(%rbp)
	leaq	l___unnamed_38(%rip), %rdx
	leaq	-24(%rbp), %rsi
	movq	%r14, %rdi
	callq	__ZN4core3fmt8builders10DebugTuple5field17hc7b676d0e36b51d9E
	leaq	l___unnamed_39(%rip), %rdx
	leaq	-32(%rbp), %rsi
	movq	%r14, %rdi
	callq	__ZN4core3fmt8builders10DebugTuple5field17hc7b676d0e36b51d9E
	movq	%r14, %rdi
	callq	__ZN4core3fmt8builders10DebugTuple6finish17h9f206806f7096c33E
	addq	$48, %rsp
	popq	%rbx
	popq	%r14
	popq	%rbp
	retq
	.cfi_endproc

	.p2align	4, 0x90
__ZN42_$LT$$RF$T$u20$as$u20$core..fmt..Debug$GT$3fmt17h92726db329943b71E:
	.cfi_startproc
	pushq	%rbp
	.cfi_def_cfa_offset 16
	.cfi_offset %rbp, -16
	movq	%rsp, %rbp
	.cfi_def_cfa_register %rbp
	pushq	%r14
	pushq	%rbx
	.cfi_offset %rbx, -32
	.cfi_offset %r14, -24
	movq	%rsi, %rbx
	movq	(%rdi), %r14
	movq	%rsi, %rdi
	callq	__ZN4core3fmt9Formatter15debug_lower_hex17hd07f6fde8d0365dfE
	testb	%al, %al
	je	LBB18_1
	movq	%r14, %rdi
	movq	%rbx, %rsi
	popq	%rbx
	popq	%r14
	popq	%rbp
	jmp	__ZN4core3fmt3num53_$LT$impl$u20$core..fmt..LowerHex$u20$for$u20$i16$GT$3fmt17h7236122704e16c86E
LBB18_1:
	movq	%rbx, %rdi
	callq	__ZN4core3fmt9Formatter15debug_upper_hex17hf480c256a9c81c1eE
	movq	%r14, %rdi
	movq	%rbx, %rsi
	testb	%al, %al
	je	LBB18_4
	popq	%rbx
	popq	%r14
	popq	%rbp
	jmp	__ZN4core3fmt3num53_$LT$impl$u20$core..fmt..UpperHex$u20$for$u20$i16$GT$3fmt17hf50bc938a2a1e02bE
LBB18_4:
	popq	%rbx
	popq	%r14
	popq	%rbp
	jmp	__ZN4core3fmt3num3imp52_$LT$impl$u20$core..fmt..Display$u20$for$u20$i16$GT$3fmt17h7c7135e52a8bf68aE
	.cfi_endproc

	.p2align	4, 0x90
__ZN42_$LT$$RF$T$u20$as$u20$core..fmt..Debug$GT$3fmt17h98853d58c0aad0c5E:
	.cfi_startproc
	pushq	%rbp
	.cfi_def_cfa_offset 16
	.cfi_offset %rbp, -16
	movq	%rsp, %rbp
	.cfi_def_cfa_register %rbp
	pushq	%r14
	pushq	%rbx
	subq	$32, %rsp
	.cfi_offset %rbx, -32
	.cfi_offset %r14, -24
	movq	(%rdi), %rbx
	leaq	l___unnamed_40(%rip), %rdx
	leaq	-48(%rbp), %r14
	movl	$5, %ecx
	movq	%r14, %rdi
	callq	__ZN4core3fmt9Formatter11debug_tuple17h6c448643801d07e8E
	movq	%rbx, -24(%rbp)
	leaq	l___unnamed_24(%rip), %rdx
	leaq	-24(%rbp), %rsi
	movq	%r14, %rdi
	callq	__ZN4core3fmt8builders10DebugTuple5field17hc7b676d0e36b51d9E
	movq	%r14, %rdi
	callq	__ZN4core3fmt8builders10DebugTuple6finish17h9f206806f7096c33E
	addq	$32, %rsp
	popq	%rbx
	popq	%r14
	popq	%rbp
	retq
	.cfi_endproc

	.p2align	4, 0x90
__ZN42_$LT$$RF$T$u20$as$u20$core..fmt..Debug$GT$3fmt17ha31f56ffbbb75181E:
	.cfi_startproc
	pushq	%rbp
	.cfi_def_cfa_offset 16
	.cfi_offset %rbp, -16
	movq	%rsp, %rbp
	.cfi_def_cfa_register %rbp
	pushq	%r14
	pushq	%rbx
	subq	$32, %rsp
	.cfi_offset %rbx, -32
	.cfi_offset %r14, -24
	movq	(%rdi), %rbx
	cmpl	$1, (%rbx)
	jne	LBB20_2
	addq	$8, %rbx
	leaq	L___unnamed_41(%rip), %rdx
	leaq	-48(%rbp), %r14
	movl	$4, %ecx
	movq	%r14, %rdi
	callq	__ZN4core3fmt9Formatter11debug_tuple17h6c448643801d07e8E
	movq	%rbx, -24(%rbp)
	leaq	l___unnamed_2(%rip), %rdx
	leaq	-24(%rbp), %rsi
	movq	%r14, %rdi
	callq	__ZN4core3fmt8builders10DebugTuple5field17hc7b676d0e36b51d9E
	movq	%r14, %rdi
	jmp	LBB20_3
LBB20_2:
	leaq	L___unnamed_42(%rip), %rdx
	leaq	-48(%rbp), %rbx
	movl	$4, %ecx
	movq	%rbx, %rdi
	callq	__ZN4core3fmt9Formatter11debug_tuple17h6c448643801d07e8E
	movq	%rbx, %rdi
LBB20_3:
	callq	__ZN4core3fmt8builders10DebugTuple6finish17h9f206806f7096c33E
	addq	$32, %rsp
	popq	%rbx
	popq	%r14
	popq	%rbp
	retq
	.cfi_endproc

	.p2align	4, 0x90
__ZN42_$LT$$RF$T$u20$as$u20$core..fmt..Debug$GT$3fmt17ha721f176eb4d98b1E:
	.cfi_startproc
	pushq	%rbp
	.cfi_def_cfa_offset 16
	.cfi_offset %rbp, -16
	movq	%rsp, %rbp
	.cfi_def_cfa_register %rbp
	pushq	%r14
	pushq	%rbx
	subq	$32, %rsp
	.cfi_offset %rbx, -32
	.cfi_offset %r14, -24
	movq	(%rdi), %rbx
	cmpl	$2, (%rbx)
	jne	LBB21_1
	leaq	L___unnamed_42(%rip), %rdx
	leaq	-48(%rbp), %rbx
	movl	$4, %ecx
	movq	%rbx, %rdi
	callq	__ZN4core3fmt9Formatter11debug_tuple17h6c448643801d07e8E
	movq	%rbx, %rdi
	jmp	LBB21_3
LBB21_1:
	leaq	L___unnamed_41(%rip), %rdx
	leaq	-48(%rbp), %r14
	movl	$4, %ecx
	movq	%r14, %rdi
	callq	__ZN4core3fmt9Formatter11debug_tuple17h6c448643801d07e8E
	movq	%rbx, -24(%rbp)
	leaq	l___unnamed_39(%rip), %rdx
	leaq	-24(%rbp), %rsi
	movq	%r14, %rdi
	callq	__ZN4core3fmt8builders10DebugTuple5field17hc7b676d0e36b51d9E
	movq	%r14, %rdi
LBB21_3:
	callq	__ZN4core3fmt8builders10DebugTuple6finish17h9f206806f7096c33E
	addq	$32, %rsp
	popq	%rbx
	popq	%r14
	popq	%rbp
	retq
	.cfi_endproc

	.p2align	4, 0x90
__ZN42_$LT$$RF$T$u20$as$u20$core..fmt..Debug$GT$3fmt17ha86e06ec9493f730E:
	.cfi_startproc
	pushq	%rbp
	.cfi_def_cfa_offset 16
	.cfi_offset %rbp, -16
	movq	%rsp, %rbp
	.cfi_def_cfa_register %rbp
	pushq	%r14
	pushq	%rbx
	subq	$32, %rsp
	.cfi_offset %rbx, -32
	.cfi_offset %r14, -24
	movq	(%rdi), %rbx
	leaq	l___unnamed_43(%rip), %rdx
	leaq	-48(%rbp), %r14
	movl	$5, %ecx
	movq	%r14, %rdi
	callq	__ZN4core3fmt9Formatter11debug_tuple17h6c448643801d07e8E
	movq	%rbx, -24(%rbp)
	leaq	l___unnamed_24(%rip), %rdx
	leaq	-24(%rbp), %rsi
	movq	%r14, %rdi
	callq	__ZN4core3fmt8builders10DebugTuple5field17hc7b676d0e36b51d9E
	movq	%r14, %rdi
	callq	__ZN4core3fmt8builders10DebugTuple6finish17h9f206806f7096c33E
	addq	$32, %rsp
	popq	%rbx
	popq	%r14
	popq	%rbp
	retq
	.cfi_endproc

	.p2align	4, 0x90
__ZN42_$LT$$RF$T$u20$as$u20$core..fmt..Debug$GT$3fmt17haf4fe9d36517080eE:
	.cfi_startproc
	pushq	%rbp
	.cfi_def_cfa_offset 16
	.cfi_offset %rbp, -16
	movq	%rsp, %rbp
	.cfi_def_cfa_register %rbp
	pushq	%r14
	pushq	%rbx
	.cfi_offset %rbx, -32
	.cfi_offset %r14, -24
	movq	%rsi, %rbx
	movq	(%rdi), %r14
	movq	%rsi, %rdi
	callq	__ZN4core3fmt9Formatter15debug_lower_hex17hd07f6fde8d0365dfE
	testb	%al, %al
	je	LBB23_1
	movq	%r14, %rdi
	movq	%rbx, %rsi
	popq	%rbx
	popq	%r14
	popq	%rbp
	jmp	__ZN4core3fmt3num52_$LT$impl$u20$core..fmt..LowerHex$u20$for$u20$u8$GT$3fmt17h35609b3cfed2e613E
LBB23_1:
	movq	%rbx, %rdi
	callq	__ZN4core3fmt9Formatter15debug_upper_hex17hf480c256a9c81c1eE
	movq	%r14, %rdi
	movq	%rbx, %rsi
	testb	%al, %al
	je	LBB23_4
	popq	%rbx
	popq	%r14
	popq	%rbp
	jmp	__ZN4core3fmt3num52_$LT$impl$u20$core..fmt..UpperHex$u20$for$u20$u8$GT$3fmt17hdec4e64a988d6129E
LBB23_4:
	popq	%rbx
	popq	%r14
	popq	%rbp
	jmp	__ZN4core3fmt3num3imp51_$LT$impl$u20$core..fmt..Display$u20$for$u20$u8$GT$3fmt17hac49effbf87f075dE
	.cfi_endproc

	.p2align	4, 0x90
__ZN42_$LT$$RF$T$u20$as$u20$core..fmt..Debug$GT$3fmt17hb0406e9fdd13104fE:
	.cfi_startproc
	pushq	%rbp
	.cfi_def_cfa_offset 16
	.cfi_offset %rbp, -16
	movq	%rsp, %rbp
	.cfi_def_cfa_register %rbp
	pushq	%r14
	pushq	%rbx
	subq	$32, %rsp
	.cfi_offset %rbx, -32
	.cfi_offset %r14, -24
	movq	(%rdi), %rbx
	cmpl	$2, 8(%rbx)
	jne	LBB24_1
	leaq	L___unnamed_42(%rip), %rdx
	leaq	-48(%rbp), %rbx
	movl	$4, %ecx
	movq	%rbx, %rdi
	callq	__ZN4core3fmt9Formatter11debug_tuple17h6c448643801d07e8E
	movq	%rbx, %rdi
	jmp	LBB24_3
LBB24_1:
	leaq	L___unnamed_41(%rip), %rdx
	leaq	-48(%rbp), %r14
	movl	$4, %ecx
	movq	%r14, %rdi
	callq	__ZN4core3fmt9Formatter11debug_tuple17h6c448643801d07e8E
	movq	%rbx, -24(%rbp)
	leaq	l___unnamed_44(%rip), %rdx
	leaq	-24(%rbp), %rsi
	movq	%r14, %rdi
	callq	__ZN4core3fmt8builders10DebugTuple5field17hc7b676d0e36b51d9E
	movq	%r14, %rdi
LBB24_3:
	callq	__ZN4core3fmt8builders10DebugTuple6finish17h9f206806f7096c33E
	addq	$32, %rsp
	popq	%rbx
	popq	%r14
	popq	%rbp
	retq
	.cfi_endproc

	.p2align	4, 0x90
__ZN42_$LT$$RF$T$u20$as$u20$core..fmt..Debug$GT$3fmt17hb3d22073e40cd046E:
	.cfi_startproc
	pushq	%rbp
	.cfi_def_cfa_offset 16
	.cfi_offset %rbp, -16
	movq	%rsp, %rbp
	.cfi_def_cfa_register %rbp
	pushq	%r14
	pushq	%rbx
	subq	$32, %rsp
	.cfi_offset %rbx, -32
	.cfi_offset %r14, -24
	movq	(%rdi), %rbx
	leaq	l___unnamed_45(%rip), %rdx
	leaq	-48(%rbp), %r14
	movl	$10, %ecx
	movq	%r14, %rdi
	callq	__ZN4core3fmt9Formatter11debug_tuple17h6c448643801d07e8E
	movq	%rbx, -24(%rbp)
	leaq	l___unnamed_24(%rip), %rdx
	leaq	-24(%rbp), %rsi
	movq	%r14, %rdi
	callq	__ZN4core3fmt8builders10DebugTuple5field17hc7b676d0e36b51d9E
	movq	%r14, %rdi
	callq	__ZN4core3fmt8builders10DebugTuple6finish17h9f206806f7096c33E
	addq	$32, %rsp
	popq	%rbx
	popq	%r14
	popq	%rbp
	retq
	.cfi_endproc

	.p2align	4, 0x90
__ZN42_$LT$$RF$T$u20$as$u20$core..fmt..Debug$GT$3fmt17hb75680401fd0d23dE:
	.cfi_startproc
	pushq	%rbp
	.cfi_def_cfa_offset 16
	.cfi_offset %rbp, -16
	movq	%rsp, %rbp
	.cfi_def_cfa_register %rbp
	pushq	%r14
	pushq	%rbx
	subq	$32, %rsp
	.cfi_offset %rbx, -32
	.cfi_offset %r14, -24
	movq	(%rdi), %rbx
	leaq	L___unnamed_46(%rip), %rdx
	leaq	-48(%rbp), %r14
	movl	$4, %ecx
	movq	%r14, %rdi
	callq	__ZN4core3fmt9Formatter11debug_tuple17h6c448643801d07e8E
	movq	%rbx, -24(%rbp)
	leaq	l___unnamed_24(%rip), %rdx
	leaq	-24(%rbp), %rsi
	movq	%r14, %rdi
	callq	__ZN4core3fmt8builders10DebugTuple5field17hc7b676d0e36b51d9E
	movq	%r14, %rdi
	callq	__ZN4core3fmt8builders10DebugTuple6finish17h9f206806f7096c33E
	addq	$32, %rsp
	popq	%rbx
	popq	%r14
	popq	%rbp
	retq
	.cfi_endproc

	.p2align	4, 0x90
__ZN42_$LT$$RF$T$u20$as$u20$core..fmt..Debug$GT$3fmt17hb94d5a43e053a79aE:
	.cfi_startproc
	pushq	%rbp
	.cfi_def_cfa_offset 16
	.cfi_offset %rbp, -16
	movq	%rsp, %rbp
	.cfi_def_cfa_register %rbp
	pushq	%r15
	pushq	%r14
	pushq	%r13
	pushq	%r12
	pushq	%rbx
	subq	$24, %rsp
	.cfi_offset %rbx, -56
	.cfi_offset %r12, -48
	.cfi_offset %r13, -40
	.cfi_offset %r14, -32
	.cfi_offset %r15, -24
	movq	(%rdi), %rax
	cmpl	$1, (%rax)
	jne	LBB27_2
	movq	8(%rax), %rbx
	movq	24(%rax), %r13
	leaq	-64(%rbp), %rdi
	callq	__ZN4core3fmt9Formatter10debug_list17h113a4e31f24f00d7E
	testq	%r13, %r13
	jne	LBB27_5
	jmp	LBB27_7
LBB27_2:
	movq	88(%rax), %r13
	cmpq	$6, %r13
	jae	LBB27_8
	addq	$8, %rax
	movq	%rax, %rbx
	leaq	-64(%rbp), %rdi
	callq	__ZN4core3fmt9Formatter10debug_list17h113a4e31f24f00d7E
	testq	%r13, %r13
	je	LBB27_7
LBB27_5:
	shlq	$4, %r13
	leaq	l___unnamed_47(%rip), %r14
	leaq	-64(%rbp), %r15
	leaq	-48(%rbp), %r12
	.p2align	4, 0x90
LBB27_6:
	movq	%rbx, -48(%rbp)
	addq	$16, %rbx
	movq	%r15, %rdi
	movq	%r12, %rsi
	movq	%r14, %rdx
	callq	__ZN4core3fmt8builders9DebugList5entry17h2dea26f6c644471aE
	addq	$-16, %r13
	jne	LBB27_6
LBB27_7:
	leaq	-64(%rbp), %rdi
	callq	__ZN4core3fmt8builders9DebugList6finish17h1537bc92ee1acb1cE
	addq	$24, %rsp
	popq	%rbx
	popq	%r12
	popq	%r13
	popq	%r14
	popq	%r15
	popq	%rbp
	retq
LBB27_8:
	leaq	l___unnamed_48(%rip), %rdx
	movl	$5, %esi
	movq	%r13, %rdi
	callq	__ZN4core5slice24slice_end_index_len_fail17hea9e3399ed430f80E
	.cfi_endproc

	.p2align	4, 0x90
__ZN42_$LT$$RF$T$u20$as$u20$core..fmt..Debug$GT$3fmt17hbe5b9abac7310aefE:
	.cfi_startproc
	pushq	%rbp
	.cfi_def_cfa_offset 16
	.cfi_offset %rbp, -16
	movq	%rsp, %rbp
	.cfi_def_cfa_register %rbp
	pushq	%r15
	pushq	%r14
	pushq	%r12
	pushq	%rbx
	subq	$32, %rsp
	.cfi_offset %rbx, -48
	.cfi_offset %r12, -40
	.cfi_offset %r14, -32
	.cfi_offset %r15, -24
	movq	(%rdi), %rbx
	leaq	l___unnamed_49(%rip), %rdx
	leaq	-56(%rbp), %r15
	movl	$20, %ecx
	movq	%r15, %rdi
	callq	__ZN4core3fmt9Formatter12debug_struct17ha1a64e91d2a98458E
	movq	%rbx, -40(%rbp)
	leaq	16(%rbx), %r12
	addq	$32, %rbx
	leaq	l___unnamed_50(%rip), %rsi
	leaq	l___unnamed_51(%rip), %r14
	leaq	-40(%rbp), %rcx
	movl	$7, %edx
	movq	%r15, %rdi
	movq	%r14, %r8
	callq	__ZN4core3fmt8builders11DebugStruct5field17h6c54d35ac41bb1e6E
	movq	%r12, -40(%rbp)
	leaq	L___unnamed_52(%rip), %rsi
	leaq	-40(%rbp), %rcx
	movl	$4, %edx
	movq	%r15, %rdi
	movq	%r14, %r8
	callq	__ZN4core3fmt8builders11DebugStruct5field17h6c54d35ac41bb1e6E
	movq	%rbx, -40(%rbp)
	leaq	L___unnamed_53(%rip), %rsi
	leaq	-40(%rbp), %rcx
	movl	$4, %edx
	movq	%r15, %rdi
	movq	%r14, %r8
	callq	__ZN4core3fmt8builders11DebugStruct5field17h6c54d35ac41bb1e6E
	movq	%r15, %rdi
	callq	__ZN4core3fmt8builders11DebugStruct6finish17h67ed49fd5e81bb24E
	addq	$32, %rsp
	popq	%rbx
	popq	%r12
	popq	%r14
	popq	%r15
	popq	%rbp
	retq
	.cfi_endproc

	.p2align	4, 0x90
__ZN42_$LT$$RF$T$u20$as$u20$core..fmt..Debug$GT$3fmt17hc414b076e7beb119E:
	.cfi_startproc
	pushq	%rbp
	.cfi_def_cfa_offset 16
	.cfi_offset %rbp, -16
	movq	%rsp, %rbp
	.cfi_def_cfa_register %rbp
	movq	(%rdi), %rdi
	popq	%rbp
	jmp	__ZN43_$LT$bool$u20$as$u20$core..fmt..Display$GT$3fmt17hd78396651a24cfbbE
	.cfi_endproc

	.p2align	4, 0x90
__ZN42_$LT$$RF$T$u20$as$u20$core..fmt..Debug$GT$3fmt17hcb5e53fd3af83d49E:
	.cfi_startproc
	pushq	%rbp
	.cfi_def_cfa_offset 16
	.cfi_offset %rbp, -16
	movq	%rsp, %rbp
	.cfi_def_cfa_register %rbp
	pushq	%r14
	pushq	%rbx
	.cfi_offset %rbx, -32
	.cfi_offset %r14, -24
	movq	%rsi, %rbx
	movq	(%rdi), %r14
	movq	%rsi, %rdi
	callq	__ZN4core3fmt9Formatter15debug_lower_hex17hd07f6fde8d0365dfE
	testb	%al, %al
	je	LBB30_1
	movq	%r14, %rdi
	movq	%rbx, %rsi
	popq	%rbx
	popq	%r14
	popq	%rbp
	jmp	__ZN4core3fmt3num53_$LT$impl$u20$core..fmt..LowerHex$u20$for$u20$u16$GT$3fmt17h7067c16dc119bdc6E
LBB30_1:
	movq	%rbx, %rdi
	callq	__ZN4core3fmt9Formatter15debug_upper_hex17hf480c256a9c81c1eE
	movq	%r14, %rdi
	movq	%rbx, %rsi
	testb	%al, %al
	je	LBB30_4
	popq	%rbx
	popq	%r14
	popq	%rbp
	jmp	__ZN4core3fmt3num53_$LT$impl$u20$core..fmt..UpperHex$u20$for$u20$u16$GT$3fmt17hb4f6c786d08c2f96E
LBB30_4:
	popq	%rbx
	popq	%r14
	popq	%rbp
	jmp	__ZN4core3fmt3num3imp52_$LT$impl$u20$core..fmt..Display$u20$for$u20$u16$GT$3fmt17h5ce1a50c193bc52eE
	.cfi_endproc

	.p2align	4, 0x90
__ZN42_$LT$$RF$T$u20$as$u20$core..fmt..Debug$GT$3fmt17hcf710987b761e884E:
	.cfi_startproc
	pushq	%rbp
	.cfi_def_cfa_offset 16
	.cfi_offset %rbp, -16
	movq	%rsp, %rbp
	.cfi_def_cfa_register %rbp
	pushq	%r14
	pushq	%rbx
	subq	$32, %rsp
	.cfi_offset %rbx, -32
	.cfi_offset %r14, -24
	movq	(%rdi), %rbx
	leaq	l___unnamed_54(%rip), %rdx
	leaq	-48(%rbp), %r14
	movl	$6, %ecx
	movq	%r14, %rdi
	callq	__ZN4core3fmt9Formatter11debug_tuple17h6c448643801d07e8E
	movq	%rbx, -24(%rbp)
	leaq	l___unnamed_24(%rip), %rdx
	leaq	-24(%rbp), %rsi
	movq	%r14, %rdi
	callq	__ZN4core3fmt8builders10DebugTuple5field17hc7b676d0e36b51d9E
	movq	%r14, %rdi
	callq	__ZN4core3fmt8builders10DebugTuple6finish17h9f206806f7096c33E
	addq	$32, %rsp
	popq	%rbx
	popq	%r14
	popq	%rbp
	retq
	.cfi_endproc

	.p2align	4, 0x90
__ZN42_$LT$$RF$T$u20$as$u20$core..fmt..Debug$GT$3fmt17hd4ded4f28e605994E:
	.cfi_startproc
	pushq	%rbp
	.cfi_def_cfa_offset 16
	.cfi_offset %rbp, -16
	movq	%rsp, %rbp
	.cfi_def_cfa_register %rbp
	pushq	%r14
	pushq	%rbx
	.cfi_offset %rbx, -32
	.cfi_offset %r14, -24
	movq	%rsi, %rbx
	movq	(%rdi), %r14
	movq	%rsi, %rdi
	callq	__ZN4core3fmt9Formatter15debug_lower_hex17hd07f6fde8d0365dfE
	testb	%al, %al
	je	LBB32_1
	movq	%r14, %rdi
	movq	%rbx, %rsi
	popq	%rbx
	popq	%r14
	popq	%rbp
	jmp	__ZN4core3fmt3num53_$LT$impl$u20$core..fmt..LowerHex$u20$for$u20$u32$GT$3fmt17h019ba2b9dd60d385E
LBB32_1:
	movq	%rbx, %rdi
	callq	__ZN4core3fmt9Formatter15debug_upper_hex17hf480c256a9c81c1eE
	movq	%r14, %rdi
	movq	%rbx, %rsi
	testb	%al, %al
	je	LBB32_4
	popq	%rbx
	popq	%r14
	popq	%rbp
	jmp	__ZN4core3fmt3num53_$LT$impl$u20$core..fmt..UpperHex$u20$for$u20$u32$GT$3fmt17h7bd10b5f3c9584f1E
LBB32_4:
	popq	%rbx
	popq	%r14
	popq	%rbp
	jmp	__ZN4core3fmt3num3imp52_$LT$impl$u20$core..fmt..Display$u20$for$u20$u32$GT$3fmt17hb70882cf65fd1a66E
	.cfi_endproc

	.p2align	4, 0x90
__ZN42_$LT$$RF$T$u20$as$u20$core..fmt..Debug$GT$3fmt17hdd2d9952c156f45bE:
	.cfi_startproc
	pushq	%rbp
	.cfi_def_cfa_offset 16
	.cfi_offset %rbp, -16
	movq	%rsp, %rbp
	.cfi_def_cfa_register %rbp
	pushq	%r14
	pushq	%rbx
	subq	$32, %rsp
	.cfi_offset %rbx, -32
	.cfi_offset %r14, -24
	movq	(%rdi), %rbx
	leaq	l___unnamed_55(%rip), %rdx
	leaq	-48(%rbp), %r14
	movl	$6, %ecx
	movq	%r14, %rdi
	callq	__ZN4core3fmt9Formatter11debug_tuple17h6c448643801d07e8E
	movq	%rbx, -24(%rbp)
	leaq	l___unnamed_7(%rip), %rdx
	leaq	-24(%rbp), %rsi
	movq	%r14, %rdi
	callq	__ZN4core3fmt8builders10DebugTuple5field17hc7b676d0e36b51d9E
	movq	%r14, %rdi
	callq	__ZN4core3fmt8builders10DebugTuple6finish17h9f206806f7096c33E
	addq	$32, %rsp
	popq	%rbx
	popq	%r14
	popq	%rbp
	retq
	.cfi_endproc

	.p2align	4, 0x90
__ZN42_$LT$$RF$T$u20$as$u20$core..fmt..Debug$GT$3fmt17he900eae14cce63a8E:
	.cfi_startproc
	pushq	%rbp
	.cfi_def_cfa_offset 16
	.cfi_offset %rbp, -16
	movq	%rsp, %rbp
	.cfi_def_cfa_register %rbp
	movq	(%rdi), %rdi
	popq	%rbp
	jmp	__ZN4core3fmt5float50_$LT$impl$u20$core..fmt..Debug$u20$for$u20$f64$GT$3fmt17h77c57a6e82ae635cE
	.cfi_endproc

	.p2align	4, 0x90
__ZN42_$LT$$RF$T$u20$as$u20$core..fmt..Debug$GT$3fmt17hec518001bb191158E:
	.cfi_startproc
	pushq	%rbp
	.cfi_def_cfa_offset 16
	.cfi_offset %rbp, -16
	movq	%rsp, %rbp
	.cfi_def_cfa_register %rbp
	pushq	%r14
	pushq	%rbx
	subq	$32, %rsp
	.cfi_offset %rbx, -32
	.cfi_offset %r14, -24
	movq	(%rdi), %rbx
	cmpb	$1, (%rbx)
	jne	LBB35_2
	incq	%rbx
	leaq	L___unnamed_41(%rip), %rdx
	leaq	-48(%rbp), %r14
	movl	$4, %ecx
	movq	%r14, %rdi
	callq	__ZN4core3fmt9Formatter11debug_tuple17h6c448643801d07e8E
	movq	%rbx, -24(%rbp)
	leaq	l___unnamed_38(%rip), %rdx
	leaq	-24(%rbp), %rsi
	movq	%r14, %rdi
	callq	__ZN4core3fmt8builders10DebugTuple5field17hc7b676d0e36b51d9E
	movq	%r14, %rdi
	jmp	LBB35_3
LBB35_2:
	leaq	L___unnamed_42(%rip), %rdx
	leaq	-48(%rbp), %rbx
	movl	$4, %ecx
	movq	%rbx, %rdi
	callq	__ZN4core3fmt9Formatter11debug_tuple17h6c448643801d07e8E
	movq	%rbx, %rdi
LBB35_3:
	callq	__ZN4core3fmt8builders10DebugTuple6finish17h9f206806f7096c33E
	addq	$32, %rsp
	popq	%rbx
	popq	%r14
	popq	%rbp
	retq
	.cfi_endproc

	.p2align	4, 0x90
__ZN44_$LT$$RF$T$u20$as$u20$core..fmt..Display$GT$3fmt17h75bd668156b0de05E:
	.cfi_startproc
	pushq	%rbp
	.cfi_def_cfa_offset 16
	.cfi_offset %rbp, -16
	movq	%rsp, %rbp
	.cfi_def_cfa_register %rbp
	movq	%rsi, %rdx
	movq	(%rdi), %rax
	movq	8(%rdi), %rsi
	movq	%rax, %rdi
	popq	%rbp
	jmp	__ZN42_$LT$str$u20$as$u20$core..fmt..Display$GT$3fmt17h6768afae62e94f93E
	.cfi_endproc

	.p2align	4, 0x90
__ZN4core3ptr13drop_in_place17h03e4fad6c822bc61E:
	.cfi_startproc
	pushq	%rbp
	.cfi_def_cfa_offset 16
	.cfi_offset %rbp, -16
	movq	%rsp, %rbp
	.cfi_def_cfa_register %rbp
	popq	%rbp
	retq
	.cfi_endproc

	.p2align	4, 0x90
__ZN4core3ptr13drop_in_place17h6134a1061cdf2e00E:
	.cfi_startproc
	pushq	%rbp
	.cfi_def_cfa_offset 16
	.cfi_offset %rbp, -16
	movq	%rsp, %rbp
	.cfi_def_cfa_register %rbp
	cmpq	$0, 8(%rdi)
	je	LBB38_4
	movq	24(%rdi), %rsi
	testq	%rsi, %rsi
	je	LBB38_4
	movq	16(%rdi), %rdi
	testq	%rdi, %rdi
	je	LBB38_4
	shlq	$4, %rsi
	je	LBB38_4
	movl	$8, %edx
	popq	%rbp
	jmp	___rust_dealloc
LBB38_4:
	popq	%rbp
	retq
	.cfi_endproc

	.p2align	4, 0x90
__ZN4core3ptr13drop_in_place17h6ed595dafba40ca7E:
	.cfi_startproc
	pushq	%rbp
	.cfi_def_cfa_offset 16
	.cfi_offset %rbp, -16
	movq	%rsp, %rbp
	.cfi_def_cfa_register %rbp
	movq	%rdi, %rax
	movq	(%rdi), %rdi
	testq	%rdi, %rdi
	je	LBB39_2
	movq	8(%rax), %rsi
	testq	%rsi, %rsi
	je	LBB39_2
	movl	$1, %edx
	popq	%rbp
	jmp	___rust_dealloc
LBB39_2:
	popq	%rbp
	retq
	.cfi_endproc

	.p2align	4, 0x90
__ZN4core3ptr13drop_in_place17h82b06a9bbbbd1965E:
	.cfi_startproc
	pushq	%rbp
	.cfi_def_cfa_offset 16
	.cfi_offset %rbp, -16
	movq	%rsp, %rbp
	.cfi_def_cfa_register %rbp
	movq	8(%rdi), %rsi
	testq	%rsi, %rsi
	je	LBB40_3
	movq	(%rdi), %rdi
	testq	%rdi, %rdi
	je	LBB40_3
	shlq	$4, %rsi
	je	LBB40_3
	movl	$8, %edx
	popq	%rbp
	jmp	___rust_dealloc
LBB40_3:
	popq	%rbp
	retq
	.cfi_endproc

	.p2align	4, 0x90
__ZN4core3ptr13drop_in_place17h9d7cd222335e873eE:
	.cfi_startproc
	pushq	%rbp
	.cfi_def_cfa_offset 16
	.cfi_offset %rbp, -16
	movq	%rsp, %rbp
	.cfi_def_cfa_register %rbp
	cmpq	$0, (%rdi)
	je	LBB41_4
	movq	16(%rdi), %rsi
	testq	%rsi, %rsi
	je	LBB41_4
	movq	8(%rdi), %rdi
	testq	%rdi, %rdi
	je	LBB41_4
	shlq	$4, %rsi
	je	LBB41_4
	movl	$8, %edx
	popq	%rbp
	jmp	___rust_dealloc
LBB41_4:
	popq	%rbp
	retq
	.cfi_endproc

	.p2align	4, 0x90
__ZN5alloc3vec12Vec$LT$T$GT$7reserve17h312d19f4c5e00cbeE:
	.cfi_startproc
	pushq	%rbp
	.cfi_def_cfa_offset 16
	.cfi_offset %rbp, -16
	movq	%rsp, %rbp
	.cfi_def_cfa_register %rbp
	pushq	%r14
	pushq	%rbx
	.cfi_offset %rbx, -32
	.cfi_offset %r14, -24
	movq	%rsi, %rax
	movq	8(%rdi), %rsi
	movq	16(%rdi), %rcx
	movq	%rsi, %rdx
	subq	%rcx, %rdx
	cmpq	%rax, %rdx
	jae	LBB42_17
	addq	%rax, %rcx
	jb	LBB42_18
	movq	%rdi, %rbx
	leaq	(%rsi,%rsi), %rax
	cmpq	%rcx, %rax
	cmovaq	%rax, %rcx
	cmpq	$4, %rcx
	movl	$4, %eax
	cmovaq	%rcx, %rax
	movl	$16, %edx
	xorl	%ecx, %ecx
	mulq	%rdx
	movq	%rax, %r14
	seto	%dl
	setno	%dil
	movq	%rsi, %rax
	testq	%rsi, %rsi
	je	LBB42_4
	movq	(%rbx), %rax
LBB42_4:
	testb	%dl, %dl
	jne	LBB42_18
	testq	%rax, %rax
	je	LBB42_6
	shlq	$4, %rsi
	cmpq	%r14, %rsi
	je	LBB42_15
	testq	%rsi, %rsi
	je	LBB42_11
	movl	$8, %edx
	movq	%rax, %rdi
	movq	%r14, %rcx
	callq	___rust_realloc
	testq	%rax, %rax
	jne	LBB42_16
	jmp	LBB42_19
LBB42_6:
	movb	%dil, %cl
	shlq	$3, %rcx
	testq	%r14, %r14
	je	LBB42_7
	movq	%r14, %rdi
	movq	%rcx, %rsi
	callq	___rust_alloc
	testq	%rax, %rax
	jne	LBB42_16
	jmp	LBB42_19
LBB42_7:
	movq	%rcx, %rax
LBB42_15:
	testq	%rax, %rax
	je	LBB42_19
LBB42_16:
	movq	%rax, (%rbx)
	shrq	$4, %r14
	movq	%r14, 8(%rbx)
LBB42_17:
	popq	%rbx
	popq	%r14
	popq	%rbp
	retq
LBB42_11:
	testq	%r14, %r14
	je	LBB42_12
	movl	$8, %esi
	movq	%r14, %rdi
	callq	___rust_alloc
	testq	%rax, %rax
	jne	LBB42_16
LBB42_19:
	movl	$8, %esi
	movq	%r14, %rdi
	callq	__ZN5alloc5alloc18handle_alloc_error17h28974197717b8939E
LBB42_12:
	movl	$8, %eax
	jmp	LBB42_16
LBB42_18:
	callq	__ZN5alloc7raw_vec17capacity_overflow17h7526b10e27579d59E
	.cfi_endproc

	.globl	__ZN70_$LT$gimli..common..LineEncoding$u20$as$u20$core..default..Default$GT$7default17h0838b2919fb0fd37E
	.p2align	4, 0x90
__ZN70_$LT$gimli..common..LineEncoding$u20$as$u20$core..default..Default$GT$7default17h0838b2919fb0fd37E:
	.cfi_startproc
	pushq	%rbp
	.cfi_def_cfa_offset 16
	.cfi_offset %rbp, -16
	movq	%rsp, %rbp
	.cfi_def_cfa_register %rbp
	movabsq	$64340689153, %rax
	popq	%rbp
	retq
	.cfi_endproc

	.globl	__ZN5gimli6common9SectionId4name17h71634ad4c574d175E
	.p2align	4, 0x90
__ZN5gimli6common9SectionId4name17h71634ad4c574d175E:
	.cfi_startproc
	pushq	%rbp
	.cfi_def_cfa_offset 16
	.cfi_offset %rbp, -16
	movq	%rsp, %rbp
	.cfi_def_cfa_register %rbp
	movl	$12, %edx
	leaq	l___unnamed_56(%rip), %rax
	movzbl	%dil, %ecx
	leaq	LJTI44_0(%rip), %rsi
	movslq	(%rsi,%rcx,4), %rcx
	addq	%rsi, %rcx
	jmpq	*%rcx
LBB44_1:
	movl	$13, %edx
	leaq	l___unnamed_57(%rip), %rax
	popq	%rbp
	retq
LBB44_2:
	movl	$11, %edx
	leaq	l___unnamed_58(%rip), %rax
	popq	%rbp
	retq
LBB44_3:
	movl	$14, %edx
	leaq	l___unnamed_59(%rip), %rax
	popq	%rbp
	retq
LBB44_4:
	leaq	l___unnamed_60(%rip), %rax
	popq	%rbp
	retq
LBB44_5:
	movl	$9, %edx
	leaq	l___unnamed_61(%rip), %rax
	popq	%rbp
	retq
LBB44_6:
	movl	$13, %edx
	leaq	l___unnamed_62(%rip), %rax
	popq	%rbp
	retq
LBB44_7:
	movl	$11, %edx
	leaq	l___unnamed_63(%rip), %rax
	popq	%rbp
	retq
LBB44_8:
	movl	$11, %edx
	leaq	l___unnamed_64(%rip), %rax
	popq	%rbp
	retq
LBB44_9:
	movl	$15, %edx
	leaq	l___unnamed_65(%rip), %rax
	popq	%rbp
	retq
LBB44_10:
	movl	$10, %edx
	leaq	l___unnamed_66(%rip), %rax
	popq	%rbp
	retq
LBB44_11:
	movl	$15, %edx
	leaq	l___unnamed_67(%rip), %rax
	popq	%rbp
	retq
LBB44_12:
	movl	$14, %edx
	leaq	l___unnamed_68(%rip), %rax
	popq	%rbp
	retq
LBB44_13:
	leaq	l___unnamed_69(%rip), %rax
	popq	%rbp
	retq
LBB44_14:
	movl	$15, %edx
	leaq	l___unnamed_70(%rip), %rax
	popq	%rbp
	retq
LBB44_15:
	movl	$15, %edx
	leaq	l___unnamed_71(%rip), %rax
	popq	%rbp
	retq
LBB44_16:
	movl	$13, %edx
	leaq	l___unnamed_72(%rip), %rax
	popq	%rbp
	retq
LBB44_17:
	movl	$15, %edx
	leaq	l___unnamed_73(%rip), %rax
	popq	%rbp
	retq
LBB44_18:
	movl	$10, %edx
	leaq	l___unnamed_74(%rip), %rax
	popq	%rbp
	retq
LBB44_19:
	movl	$18, %edx
	leaq	l___unnamed_75(%rip), %rax
LBB44_20:
	popq	%rbp
	retq
	.cfi_endproc
	.p2align	2, 0x90
	.data_region jt32
.set L44_0_set_1, LBB44_1-LJTI44_0
.set L44_0_set_2, LBB44_2-LJTI44_0
.set L44_0_set_3, LBB44_3-LJTI44_0
.set L44_0_set_4, LBB44_4-LJTI44_0
.set L44_0_set_5, LBB44_5-LJTI44_0
.set L44_0_set_6, LBB44_6-LJTI44_0
.set L44_0_set_7, LBB44_7-LJTI44_0
.set L44_0_set_8, LBB44_8-LJTI44_0
.set L44_0_set_9, LBB44_9-LJTI44_0
.set L44_0_set_10, LBB44_10-LJTI44_0
.set L44_0_set_11, LBB44_11-LJTI44_0
.set L44_0_set_12, LBB44_12-LJTI44_0
.set L44_0_set_13, LBB44_13-LJTI44_0
.set L44_0_set_14, LBB44_14-LJTI44_0
.set L44_0_set_15, LBB44_15-LJTI44_0
.set L44_0_set_16, LBB44_16-LJTI44_0
.set L44_0_set_17, LBB44_17-LJTI44_0
.set L44_0_set_18, LBB44_18-LJTI44_0
.set L44_0_set_19, LBB44_19-LJTI44_0
.set L44_0_set_20, LBB44_20-LJTI44_0
LJTI44_0:
	.long	L44_0_set_1
	.long	L44_0_set_2
	.long	L44_0_set_3
	.long	L44_0_set_4
	.long	L44_0_set_5
	.long	L44_0_set_6
	.long	L44_0_set_7
	.long	L44_0_set_8
	.long	L44_0_set_9
	.long	L44_0_set_10
	.long	L44_0_set_11
	.long	L44_0_set_12
	.long	L44_0_set_13
	.long	L44_0_set_14
	.long	L44_0_set_15
	.long	L44_0_set_16
	.long	L44_0_set_17
	.long	L44_0_set_18
	.long	L44_0_set_19
	.long	L44_0_set_20
	.end_data_region

	.globl	__ZN5gimli6common9SectionId8dwo_name17h011e0b53b6804160E
	.p2align	4, 0x90
__ZN5gimli6common9SectionId8dwo_name17h011e0b53b6804160E:
	.cfi_startproc
	xorl	%eax, %eax
	cmpb	$18, %dil
	ja	LBB45_1
	pushq	%rbp
	.cfi_def_cfa_offset 16
	.cfi_offset %rbp, -16
	movq	%rsp, %rbp
	.cfi_def_cfa_register %rbp
	movl	$17, %edx
	leaq	l___unnamed_76(%rip), %rcx
	movzbl	%dil, %esi
	leaq	LJTI45_0(%rip), %rdi
	movslq	(%rdi,%rsi,4), %rsi
	addq	%rdi, %rsi
	popq	%rbp
	jmpq	*%rsi
LBB45_8:
	movl	$15, %edx
	leaq	l___unnamed_77(%rip), %rcx
	jmp	LBB45_9
LBB45_6:
	movl	$14, %edx
	leaq	l___unnamed_78(%rip), %rcx
	jmp	LBB45_9
LBB45_3:
	movl	$15, %edx
	leaq	l___unnamed_79(%rip), %rcx
	jmp	LBB45_9
LBB45_4:
	movl	$19, %edx
	leaq	l___unnamed_80(%rip), %rcx
	jmp	LBB45_9
LBB45_5:
	movl	$16, %edx
	leaq	L___unnamed_81(%rip), %rcx
	jmp	LBB45_9
LBB45_7:
	movl	$22, %edx
	leaq	l___unnamed_82(%rip), %rcx
LBB45_9:
	movq	%rcx, %rax
LBB45_10:
	retq
LBB45_1:
	retq
	.cfi_endproc
	.p2align	2, 0x90
	.data_region jt32
.set L45_0_set_9, LBB45_9-LJTI45_0
.set L45_0_set_10, LBB45_10-LJTI45_0
.set L45_0_set_8, LBB45_8-LJTI45_0
.set L45_0_set_3, LBB45_3-LJTI45_0
.set L45_0_set_4, LBB45_4-LJTI45_0
.set L45_0_set_5, LBB45_5-LJTI45_0
.set L45_0_set_6, LBB45_6-LJTI45_0
.set L45_0_set_7, LBB45_7-LJTI45_0
LJTI45_0:
	.long	L45_0_set_9
	.long	L45_0_set_10
	.long	L45_0_set_10
	.long	L45_0_set_10
	.long	L45_0_set_10
	.long	L45_0_set_10
	.long	L45_0_set_8
	.long	L45_0_set_3
	.long	L45_0_set_10
	.long	L45_0_set_10
	.long	L45_0_set_4
	.long	L45_0_set_10
	.long	L45_0_set_5
	.long	L45_0_set_10
	.long	L45_0_set_10
	.long	L45_0_set_10
	.long	L45_0_set_10
	.long	L45_0_set_6
	.long	L45_0_set_7
	.end_data_region

	.globl	__ZN5gimli9constants6DwLang19default_lower_bound17h1e057d37ed170c79E
	.p2align	4, 0x90
__ZN5gimli9constants6DwLang19default_lower_bound17h1e057d37ed170c79E:
	.cfi_startproc
	decl	%edi
	cmpw	$36, %di
	ja	LBB46_1
	pushq	%rbp
	.cfi_def_cfa_offset 16
	.cfi_offset %rbp, -16
	movq	%rsp, %rbp
	.cfi_def_cfa_register %rbp
	movswq	%di, %rax
	leaq	l_switch.table._ZN5gimli9constants6DwLang19default_lower_bound17h1e057d37ed170c79E(%rip), %rcx
	movq	(%rcx,%rax,8), %rdx
	movl	$1, %eax
	popq	%rbp
	retq
LBB46_1:
	xorl	%eax, %eax
	retq
	.cfi_endproc

	.globl	__ZN5gimli9constants6DwEhPe17is_valid_encoding17ha7631877d8aacb4fE
	.p2align	4, 0x90
__ZN5gimli9constants6DwEhPe17is_valid_encoding17ha7631877d8aacb4fE:
	.cfi_startproc
	pushq	%rbp
	.cfi_def_cfa_offset 16
	.cfi_offset %rbp, -16
	movq	%rsp, %rbp
	.cfi_def_cfa_register %rbp
	cmpb	$-1, %dil
	je	LBB47_1
	movl	%edi, %ecx
	andb	$15, %cl
	xorl	%eax, %eax
	cmpb	$12, %cl
	ja	LBB47_5
	movzbl	%cl, %ecx
	movl	$7711, %edx
	btq	%rcx, %rdx
	jae	LBB47_5
	andb	$96, %dil
	cmpb	$96, %dil
	setne	%al
LBB47_5:
	popq	%rbp
	retq
LBB47_1:
	movb	$1, %al
	popq	%rbp
	retq
	.cfi_endproc

	.globl	__ZN5gimli4read6abbrev13Abbreviations5empty17ha51269868f14a210E
	.p2align	4, 0x90
__ZN5gimli4read6abbrev13Abbreviations5empty17ha51269868f14a210E:
	.cfi_startproc
	pushq	%rbp
	.cfi_def_cfa_offset 16
	.cfi_offset %rbp, -16
	movq	%rsp, %rbp
	.cfi_def_cfa_register %rbp
	movq	%rdi, %rax
	movq	$8, (%rdi)
	movq	$0, 40(%rdi)
	movq	$0, 8(%rdi)
	movq	$0, 16(%rdi)
	movq	$0, 24(%rdi)
	popq	%rbp
	retq
	.cfi_endproc

	.globl	__ZN5gimli4read6abbrev13Abbreviations6insert17hf6478f66fcd867b9E
	.p2align	4, 0x90
__ZN5gimli4read6abbrev13Abbreviations6insert17hf6478f66fcd867b9E:
Lfunc_begin0:
	.cfi_startproc
	.cfi_personality 155, _rust_eh_personality
	.cfi_lsda 16, Lexception0
	pushq	%rbp
	.cfi_def_cfa_offset 16
	.cfi_offset %rbp, -16
	movq	%rsp, %rbp
	.cfi_def_cfa_register %rbp
	pushq	%r15
	pushq	%r14
	pushq	%r13
	pushq	%r12
	pushq	%rbx
	subq	$3080, %rsp
	.cfi_offset %rbx, -56
	.cfi_offset %r12, -48
	.cfi_offset %r13, -40
	.cfi_offset %r14, -32
	.cfi_offset %r15, -24
	movq	%rsi, %r15
	movq	(%rsi), %r12
	movq	%r12, %rbx
	subq	$1, %rbx
	jb	LBB49_111
	movq	%rdi, %r10
	cmpq	16(%rdi), %rbx
	jae	LBB49_2
LBB49_39:
	movb	$1, %bl
	cmpq	$0, 8(%r15)
	je	LBB49_108
	movq	24(%r15), %rsi
	testq	%rsi, %rsi
	je	LBB49_108
	movq	16(%r15), %rdi
	testq	%rdi, %rdi
	je	LBB49_108
	shlq	$4, %rsi
	je	LBB49_108
	movl	$8, %edx
	callq	___rust_dealloc
	jmp	LBB49_108
LBB49_2:
	jne	LBB49_44
	cmpq	$0, 40(%r10)
	je	LBB49_4
	movq	24(%r10), %rax
	testq	%rax, %rax
	je	LBB49_4
	movq	32(%r10), %r9
	movq	$-1, %r8
LBB49_32:
	movzwl	10(%rax), %edi
	leaq	(,%rdi,8), %rdx
	movq	$-1, %rsi
LBB49_33:
	testq	%rdx, %rdx
	je	LBB49_34
	xorl	%ecx, %ecx
	cmpq	%r12, 24(%rax,%rsi,8)
	setne	%cl
	cmovaq	%r8, %rcx
	incq	%rsi
	cmpq	$-1, %rcx
	je	LBB49_35
	addq	$-8, %rdx
	testq	%rcx, %rcx
	jne	LBB49_33
	jmp	LBB49_39
LBB49_34:
	movq	%rdi, %rsi
LBB49_35:
	testq	%r9, %r9
	je	LBB49_4
	decq	%r9
	movq	1336(%rax,%rsi,8), %rax
	jmp	LBB49_32
LBB49_44:
	movq	24(%r10), %r14
	testq	%r14, %r14
	je	LBB49_46
	movq	32(%r10), %rax
	jmp	LBB49_48
LBB49_4:
	leaq	-1792(%rbp), %rdi
	movl	$14, %ecx
	movq	%r15, %rsi
	rep;movsq (%rsi), %es:(%rdi)
	cmpq	8(%r10), %rbx
	jne	LBB49_5
	movq	%rbx, %rcx
	incq	%rcx
	je	LBB49_27
	leaq	(%rbx,%rbx), %rax
	cmpq	%rcx, %rax
	cmovaq	%rax, %rcx
	cmpq	$4, %rcx
	movl	$4, %eax
	cmovaq	%rcx, %rax
	movl	$112, %ecx
	xorl	%esi, %esi
	mulq	%rcx
	movq	%rax, %r14
	seto	%dl
	setno	%al
	movq	%rbx, %rcx
	testq	%rbx, %rbx
	je	LBB49_12
	movq	(%r10), %rcx
LBB49_12:
	testb	%dl, %dl
	jne	LBB49_27
	testq	%rcx, %rcx
	je	LBB49_14
	imulq	$112, %rbx, %rsi
	cmpq	%r14, %rsi
	je	LBB49_24
	movq	%r10, %r15
	testq	%rsi, %rsi
	je	LBB49_19
	movl	$8, %edx
	movq	%rcx, %rdi
	movq	%r14, %rcx
	callq	___rust_realloc
	jmp	LBB49_23
LBB49_46:
	movq	%r10, %rbx
	leaq	-3116(%rbp), %rdi
	movl	$1320, %esi
	callq	___bzero
	movl	$1336, %edi
	movl	$8, %esi
	callq	___rust_alloc
	testq	%rax, %rax
	je	LBB49_112
	movq	%rax, %r14
	movq	$0, (%rax)
	movw	$0, 10(%rax)
	movq	%rax, %rdi
	addq	$12, %rdi
	leaq	-3120(%rbp), %rsi
	movl	$1324, %edx
	callq	_memcpy
	movq	%rbx, %r10
	movq	%r14, 24(%rbx)
	movq	$0, 32(%rbx)
	xorl	%eax, %eax
LBB49_48:
	movq	$-1, %rcx
LBB49_49:
	movzwl	10(%r14), %edx
	leaq	16(%r14), %r13
	leaq	(,%rdx,8), %rsi
	movq	$-1, %rbx
LBB49_50:
	testq	%rsi, %rsi
	je	LBB49_51
	xorl	%edi, %edi
	cmpq	%r12, 8(%r13,%rbx,8)
	setne	%dil
	cmovaq	%rcx, %rdi
	incq	%rbx
	cmpq	$-1, %rdi
	je	LBB49_52
	addq	$-8, %rsi
	testq	%rdi, %rdi
	jne	LBB49_50
	jmp	LBB49_39
LBB49_51:
	movq	%rdx, %rbx
	.p2align	4, 0x90
LBB49_52:
	testq	%rax, %rax
	je	LBB49_56
	decq	%rax
	movq	1336(%r14,%rbx,8), %r14
	jmp	LBB49_49
LBB49_5:
	movq	(%r10), %rcx
	jmp	LBB49_6
LBB49_14:
	movb	%al, %sil
	shlq	$3, %rsi
	testq	%r14, %r14
	je	LBB49_15
	movq	%r14, %rdi
	movq	%r10, %rbx
	callq	___rust_alloc
	movq	%rbx, %r10
	movq	%rax, %rcx
	jmp	LBB49_24
LBB49_15:
	movq	%rsi, %rcx
	jmp	LBB49_24
LBB49_19:
	testq	%r14, %r14
	je	LBB49_20
	movl	$8, %esi
	movq	%r14, %rdi
	callq	___rust_alloc
LBB49_23:
	movq	%rax, %rcx
	movq	%r15, %r10
LBB49_24:
	testq	%rcx, %rcx
	je	LBB49_29
	movq	16(%r10), %rbx
LBB49_26:
	movq	%rcx, (%r10)
	shrq	$4, %r14
	movabsq	$2635249153387078803, %rdx
	movq	%r14, %rax
	mulq	%rdx
	movq	%rdx, 8(%r10)
LBB49_6:
	imulq	$112, %rbx, %rdi
	addq	%rcx, %rdi
	leaq	-1792(%rbp), %rsi
	movl	$14, %ecx
	rep;movsq (%rsi), %es:(%rdi)
	incq	16(%r10)
LBB49_107:
	xorl	%ebx, %ebx
LBB49_108:
	movl	%ebx, %eax
	addq	$3080, %rsp
	popq	%rbx
	popq	%r12
	popq	%r13
	popq	%r14
	popq	%r15
	popq	%rbp
	retq
LBB49_56:
	incq	40(%r10)
	leaq	-352(%rbp), %rdi
	movl	$14, %ecx
	movq	%r15, %rsi
	rep;movsq (%rsi), %es:(%rdi)
	movzwl	10(%r14), %r15d
	cmpq	$11, %r15
	jae	LBB49_57
	leaq	(%r13,%rbx,8), %rsi
	leaq	8(%r13,%rbx,8), %rdi
	movq	%r15, %r13
	subq	%rbx, %r13
	leaq	(,%r13,8), %rdx
	callq	_memmove
	movq	%r12, 16(%r14,%rbx,8)
	imulq	$112, %rbx, %rax
	leaq	104(%r14,%rax), %rbx
	leaq	216(%r14,%rax), %rdi
	imulq	$112, %r13, %rdx
	movq	%rbx, %rsi
	callq	_memmove
	leaq	-352(%rbp), %rsi
	movl	$14, %ecx
	movq	%rbx, %rdi
	rep;movsq (%rsi), %es:(%rdi)
	leal	1(%r15), %eax
	movw	%ax, 10(%r14)
	jmp	LBB49_107
LBB49_57:
	movq	%r10, -136(%rbp)
	leaq	-1788(%rbp), %rdi
	movl	$1320, %esi
	callq	___bzero
	movl	$1336, %edi
	movl	$8, %esi
	callq	___rust_alloc
	testq	%rax, %rax
	je	LBB49_112
	movq	%rax, %r15
	movq	$0, (%rax)
	movw	$0, 10(%rax)
	leaq	12(%rax), %rdi
	leaq	-1792(%rbp), %rsi
	movl	$1324, %edx
	callq	_memcpy
	movq	64(%r14), %rax
	movq	%rax, -96(%rbp)
	leaq	776(%r14), %rsi
	leaq	-1792(%rbp), %rdi
	movl	$14, %ecx
	rep;movsq (%rsi), %es:(%rdi)
	movq	%r15, %rax
	movq	%r15, -88(%rbp)
	movzwl	10(%r14), %r15d
	leaq	72(%r14), %rsi
	leaq	16(%rax), %rdi
	leaq	-56(,%r15,8), %rdx
	addq	$-7, %r15
	movq	%rdi, -48(%rbp)
	callq	_memcpy
	leaq	888(%r14), %rsi
	movq	-88(%rbp), %rax
	leaq	104(%rax), %rdi
	imulq	$112, %r15, %rdx
	movq	%rdi, -64(%rbp)
	callq	_memcpy
	movq	-88(%rbp), %rax
	movw	$6, 10(%r14)
	movw	%r15w, 10(%rax)
	leaq	-3120(%rbp), %rdi
	movl	$14, %ecx
	leaq	-1792(%rbp), %rsi
	rep;movsq (%rsi), %es:(%rdi)
	cmpq	$6, %rbx
	ja	LBB49_60
	leaq	10(%r14), %rax
	movq	%rax, -48(%rbp)
	leaq	104(%r14), %rcx
	movq	%rcx, -64(%rbp)
	movzwl	(%rax), %r15d
	movq	%r15, -72(%rbp)
	leaq	(%r13,%rbx,8), %rsi
	leaq	8(%r13,%rbx,8), %rdi
	subq	%rbx, %r15
	leaq	(,%r15,8), %rdx
	callq	_memmove
	movq	%r12, (%r13,%rbx,8)
	imulq	$112, %rbx, %rax
	movq	-64(%rbp), %rcx
	leaq	(%rcx,%rax), %r12
	leaq	112(%rcx,%rax), %rdi
	imulq	$112, %r15, %rdx
	movq	-72(%rbp), %rbx
	movq	%r12, %rsi
	callq	_memmove
	movq	-48(%rbp), %r13
	leaq	-352(%rbp), %rsi
	movl	$14, %ecx
	movq	%r12, %rdi
	rep;movsq (%rsi), %es:(%rdi)
	jmp	LBB49_61
LBB49_20:
	movl	$8, %ecx
	movq	%r15, %r10
	jmp	LBB49_26
LBB49_60:
	movq	%rax, %r13
	addq	$10, %r13
	leaq	-7(%rbx), %rax
	movq	%rax, -80(%rbp)
	movzwl	%r15w, %edx
	movq	-48(%rbp), %r15
	leaq	-56(%r15,%rbx,8), %rsi
	imulq	$112, %rbx, %rcx
	movq	%rcx, -72(%rbp)
	leaq	-48(%r15,%rbx,8), %rdi
	subq	%rax, %rdx
	shlq	$3, %rdx
	callq	_memmove
	movq	%r12, -56(%r15,%rbx,8)
	movzwl	(%r13), %eax
	movq	-64(%rbp), %rcx
	movq	-72(%rbp), %rdx
	leaq	-784(%rdx,%rcx), %rbx
	leaq	-672(%rdx,%rcx), %rdi
	subq	-80(%rbp), %rax
	imulq	$112, %rax, %rdx
	movq	%rbx, %rsi
	callq	_memmove
	leaq	-352(%rbp), %rsi
	movl	$14, %ecx
	movq	%rbx, %rdi
	rep;movsq (%rsi), %es:(%rdi)
	movzwl	(%r13), %ebx
LBB49_61:
	incl	%ebx
	movw	%bx, (%r13)
	leaq	-464(%rbp), %rdi
	leaq	-3120(%rbp), %rsi
	movl	$14, %ecx
	rep;movsq (%rsi), %es:(%rdi)
	movq	(%r14), %r15
	testq	%r15, %r15
	je	LBB49_62
	movzwl	8(%r14), %eax
	movw	%ax, -50(%rbp)
	movzwl	%ax, %edx
	leaq	-352(%rbp), %rdi
	leaq	-464(%rbp), %rsi
	movl	$14, %ecx
	rep;movsq (%rsi), %es:(%rdi)
	movzwl	10(%r15), %r12d
	cmpw	$11, %r12w
	jae	LBB49_77
	movq	-88(%rbp), %r14
	movq	-96(%rbp), %rax
	movq	%rax, -104(%rbp)
	movq	%r15, -72(%rbp)
	movq	%r15, %r8
	jmp	LBB49_69
LBB49_62:
	leaq	-240(%rbp), %r12
	xorl	%r15d, %r15d
	movq	-88(%rbp), %r14
	jmp	LBB49_63
LBB49_77:
	leaq	10(%r15), %rax
	movq	%rax, -64(%rbp)
	movl	$1, %eax
	leaq	-3120(%rbp), %rbx
	leaq	-240(%rbp), %r13
	movq	%r15, %r8
LBB49_78:
	movq	%rdx, -48(%rbp)
	movq	%r8, -144(%rbp)
	movq	%rax, -128(%rbp)
	movl	$1320, %esi
	leaq	-1788(%rbp), %rdi
	callq	___bzero
	movl	$1324, %edx
	movq	%rbx, %rdi
	leaq	-1792(%rbp), %rsi
	callq	_memcpy
	xorps	%xmm0, %xmm0
	movaps	%xmm0, -240(%rbp)
	movaps	%xmm0, -224(%rbp)
	movaps	%xmm0, -208(%rbp)
	movaps	%xmm0, -192(%rbp)
	movaps	%xmm0, -176(%rbp)
	movaps	%xmm0, -160(%rbp)
	movl	$1432, %edi
	movl	$8, %esi
	callq	___rust_alloc
	testq	%rax, %rax
	je	LBB49_64
	movq	%rax, %r14
	movq	$0, (%rax)
	movw	$0, 10(%rax)
	leaq	12(%rax), %rdi
	movl	$1324, %edx
	movq	%rbx, %rsi
	callq	_memcpy
	leaq	1336(%r14), %rdi
	movq	%rdi, -80(%rbp)
	movl	$12, %ecx
	movq	%r13, %rsi
	rep;movsq (%rsi), %es:(%rdi)
	movq	64(%r15), %rax
	movq	%rax, -104(%rbp)
	leaq	776(%r15), %rsi
	movl	$14, %ecx
	leaq	-1792(%rbp), %rdi
	rep;movsq (%rsi), %es:(%rdi)
	movq	-64(%rbp), %rax
	movzwl	(%rax), %r13d
	leaq	-6(%r13), %rbx
	leaq	-7(%r13), %r12
	leaq	72(%r15), %rsi
	leaq	16(%r14), %rdi
	leaq	-56(,%r13,8), %rdx
	movq	%rdi, -112(%rbp)
	callq	_memcpy
	leaq	888(%r15), %rsi
	movq	%r14, %rdi
	addq	$104, %rdi
	imulq	$112, %r12, %rdx
	movq	%rdi, -120(%rbp)
	callq	_memcpy
	movq	%r15, -72(%rbp)
	leaq	1392(%r15), %rsi
	leaq	-48(,%r13,8), %rdx
	movq	-80(%rbp), %rdi
	callq	_memcpy
	movq	-64(%rbp), %rcx
	movw	$6, (%rcx)
	movw	%r12w, 10(%r14)
	testq	%rbx, %rbx
	movq	-48(%rbp), %r8
	je	LBB49_86
	andl	$3, %ebx
	cmpq	$3, %r12
	jae	LBB49_82
	xorl	%eax, %eax
	jmp	LBB49_84
LBB49_82:
	subq	%rbx, %r13
	addq	$-6, %r13
	xorl	%eax, %eax
	.p2align	4, 0x90
LBB49_83:
	movq	1336(%r14,%rax,8), %rcx
	movq	%r14, (%rcx)
	movl	%eax, %edx
	movw	%ax, 8(%rcx)
	movq	1344(%r14,%rax,8), %rcx
	movq	%r14, (%rcx)
	leal	1(%rdx), %esi
	movw	%si, 8(%rcx)
	movq	1352(%r14,%rax,8), %rcx
	movq	%r14, (%rcx)
	leal	2(%rdx), %esi
	movw	%si, 8(%rcx)
	movq	1360(%r14,%rax,8), %rcx
	addq	$4, %rax
	movq	%r14, (%rcx)
	addl	$3, %edx
	movw	%dx, 8(%rcx)
	cmpq	%rax, %r13
	jne	LBB49_83
LBB49_84:
	testq	%rbx, %rbx
	je	LBB49_86
	.p2align	4, 0x90
LBB49_85:
	movq	1336(%r14,%rax,8), %rcx
	movq	%r14, (%rcx)
	movw	%ax, 8(%rcx)
	incq	%rax
	decq	%rbx
	jne	LBB49_85
LBB49_86:
	movl	$14, %ecx
	leaq	-3120(%rbp), %rax
	movq	%rax, %rdi
	leaq	-1792(%rbp), %rdx
	movq	%rdx, %rsi
	rep;movsq (%rsi), %es:(%rdi)
	movl	$14, %ecx
	movq	%rdx, %rdi
	movq	%rax, %rsi
	rep;movsq (%rsi), %es:(%rdi)
	movzwl	-50(%rbp), %r12d
	cmpw	$6, %r12w
	ja	LBB49_94
	movq	-72(%rbp), %rax
	leaq	16(%rax), %r13
	leaq	104(%rax), %rcx
	movq	%rcx, -112(%rbp)
	addq	$1336, %rax
	movq	%rax, -80(%rbp)
	movq	-64(%rbp), %rax
	movzwl	(%rax), %r15d
	movq	%r15, -120(%rbp)
	leaq	(%r13,%r8,8), %rsi
	leaq	1(%r8), %rbx
	leaq	8(%r13,%r8,8), %rdi
	subq	%r8, %r15
	leaq	(,%r15,8), %rdx
	callq	_memmove
	movq	-48(%rbp), %rax
	movq	-96(%rbp), %rcx
	movq	%rcx, (%r13,%rax,8)
	imulq	$112, -48(%rbp), %rax
	movq	-112(%rbp), %rcx
	leaq	(%rcx,%rax), %r13
	leaq	112(%rcx,%rax), %rdi
	imulq	$112, %r15, %rdx
	movq	%r13, %rsi
	callq	_memmove
	movl	$14, %ecx
	movq	%r13, %rdi
	leaq	-352(%rbp), %rsi
	rep;movsq (%rsi), %es:(%rdi)
	movq	-120(%rbp), %rax
	leal	1(%rax), %r15d
	movq	-64(%rbp), %rax
	movw	%r15w, (%rax)
	movzwl	%r15w, %r13d
	movq	-48(%rbp), %rax
	movq	-80(%rbp), %rcx
	leaq	8(%rcx,%rax,8), %rsi
	movq	-48(%rbp), %rax
	leaq	16(%rcx,%rax,8), %rdi
	movq	%r13, %rdx
	subq	%rbx, %rdx
	shlq	$3, %rdx
	callq	_memmove
	movq	-48(%rbp), %rcx
	movq	-88(%rbp), %rax
	movq	-80(%rbp), %rdx
	movq	%rax, 8(%rdx,%rcx,8)
	cmpw	%r15w, %r12w
	movq	-72(%rbp), %r9
	movq	-144(%rbp), %rsi
	leaq	-464(%rbp), %r11
	jae	LBB49_99
	movl	%r13d, %r10d
	subl	%ecx, %r10d
	movq	%rcx, %r8
	notq	%r8
	addq	%r13, %r8
	andq	$3, %r10
	je	LBB49_92
	leaq	1344(%r9,%rcx,8), %rcx
	xorl	%edx, %edx
LBB49_90:
	leal	(%rbx,%rdx), %edi
	movq	(%rcx,%rdx,8), %rax
	movq	%rsi, (%rax)
	movw	%di, 8(%rax)
	incq	%rdx
	cmpq	%rdx, %r10
	jne	LBB49_90
	addq	%rdx, %rbx
LBB49_92:
	cmpq	$3, %r8
	jb	LBB49_99
LBB49_93:
	movq	1336(%r9,%rbx,8), %rax
	movq	%rsi, (%rax)
	movw	%bx, 8(%rax)
	movq	1344(%r9,%rbx,8), %rax
	movq	%rsi, (%rax)
	leal	1(%rbx), %ecx
	movw	%cx, 8(%rax)
	movq	1352(%r9,%rbx,8), %rax
	movq	%rsi, (%rax)
	leal	2(%rbx), %ecx
	movw	%cx, 8(%rax)
	movq	1360(%r9,%rbx,8), %rax
	movq	%rsi, (%rax)
	leaq	3(%rbx), %rcx
	movw	%cx, 8(%rax)
	addq	$4, %rbx
	cmpq	%r13, %rcx
	jne	LBB49_93
	jmp	LBB49_99
LBB49_94:
	leaq	-7(%r8), %r15
	movzwl	10(%r14), %edx
	movq	-112(%rbp), %rax
	leaq	-56(%rax,%r8,8), %rsi
	leaq	-6(%r8), %rbx
	imulq	$112, %r8, %r13
	leaq	-48(%rax,%r8,8), %rdi
	subq	%r15, %rdx
	shlq	$3, %rdx
	callq	_memmove
	movq	-48(%rbp), %rax
	movq	-96(%rbp), %rcx
	movq	%rcx, -40(%r14,%rax,8)
	movzwl	10(%r14), %eax
	movq	-120(%rbp), %rcx
	leaq	-784(%r13,%rcx), %r12
	leaq	-672(%r13,%rcx), %rdi
	subq	%r15, %rax
	imulq	$112, %rax, %rdx
	movq	%r12, %rsi
	callq	_memmove
	movl	$14, %ecx
	movq	%r12, %rdi
	leaq	-352(%rbp), %rsi
	rep;movsq (%rsi), %es:(%rdi)
	movzwl	10(%r14), %eax
	incl	%eax
	movw	%ax, 10(%r14)
	movzwl	%ax, %r12d
	movq	-48(%rbp), %rax
	movq	-80(%rbp), %rcx
	leaq	-48(%rcx,%rax,8), %rsi
	movq	-48(%rbp), %rax
	leaq	-40(%rcx,%rax,8), %rdi
	movq	%r12, %rdx
	subq	%rbx, %rdx
	shlq	$3, %rdx
	callq	_memmove
	movq	-48(%rbp), %rdx
	movq	-88(%rbp), %rax
	movq	%rax, 1288(%r14,%rdx,8)
	cmpq	%rbx, %r12
	movq	-72(%rbp), %r9
	leaq	-464(%rbp), %r11
	jb	LBB49_99
	movl	%edx, %ecx
	notl	%ecx
	addl	%r12d, %ecx
	movq	%r12, %rax
	subq	%rdx, %rax
	addq	$6, %rax
	andq	$3, %rcx
	je	LBB49_97
LBB49_96:
	movq	1336(%r14,%rbx,8), %rdx
	movq	%r14, (%rdx)
	movw	%bx, 8(%rdx)
	incq	%rbx
	decq	%rcx
	jne	LBB49_96
LBB49_97:
	cmpq	$3, %rax
	jb	LBB49_99
LBB49_98:
	movq	1336(%r14,%rbx,8), %rax
	movq	%r14, (%rax)
	movw	%bx, 8(%rax)
	movq	1344(%r14,%rbx,8), %rax
	movq	%r14, (%rax)
	leal	1(%rbx), %ecx
	movw	%cx, 8(%rax)
	movq	1352(%r14,%rbx,8), %rax
	movq	%r14, (%rax)
	leal	2(%rbx), %ecx
	movw	%cx, 8(%rax)
	movq	1360(%r14,%rbx,8), %rax
	movq	%r14, (%rax)
	leaq	3(%rbx), %rcx
	movw	%cx, 8(%rax)
	addq	$4, %rbx
	cmpq	%r12, %rcx
	jne	LBB49_98
LBB49_99:
	movl	$14, %ecx
	movq	%r11, %rdi
	leaq	-1792(%rbp), %rsi
	rep;movsq (%rsi), %es:(%rdi)
	movq	(%r9), %r8
	testq	%r8, %r8
	je	LBB49_100
	movzwl	8(%r9), %eax
	movw	%ax, -50(%rbp)
	movzwl	%ax, %edx
	movq	-128(%rbp), %rax
	incq	%rax
	movl	$14, %ecx
	leaq	-352(%rbp), %rdi
	movq	%r11, %rsi
	rep;movsq (%rsi), %es:(%rdi)
	leaq	10(%r8), %rcx
	movq	%rcx, -64(%rbp)
	movzwl	10(%r8), %r12d
	movq	%r8, %r15
	movq	-104(%rbp), %rcx
	movq	%rcx, -96(%rbp)
	movq	%r14, -88(%rbp)
	cmpw	$11, %r12w
	leaq	-240(%rbp), %r13
	leaq	-3120(%rbp), %rbx
	jae	LBB49_78
	movq	%r8, -72(%rbp)
LBB49_69:
	movq	%rdx, -48(%rbp)
	movzwl	%r12w, %r15d
	movq	%r15, -64(%rbp)
	leaq	16(%r8,%rdx,8), %rsi
	leaq	1(%rdx), %r13
	leaq	24(%r8,%rdx,8), %rdi
	subq	%rdx, %r15
	leaq	(,%r15,8), %rdx
	movq	%r8, %rbx
	callq	_memmove
	movq	-48(%rbp), %rax
	movq	-104(%rbp), %rcx
	movq	%rcx, 16(%rbx,%rax,8)
	imulq	$112, -48(%rbp), %rax
	leaq	104(%rbx,%rax), %rsi
	leaq	216(%rbx,%rax), %rdi
	imulq	$112, %r15, %rdx
	movq	%rsi, %r15
	callq	_memmove
	leaq	-352(%rbp), %rsi
	movl	$14, %ecx
	movq	%r15, %rdi
	rep;movsq (%rsi), %es:(%rdi)
	leal	1(%r12), %eax
	movw	%ax, 10(%rbx)
	movzwl	%ax, %r15d
	movq	-48(%rbp), %rax
	leaq	1344(%rbx,%rax,8), %rsi
	movq	-48(%rbp), %rax
	leaq	1352(%rbx,%rax,8), %rdi
	movq	%r15, %rdx
	subq	%r13, %rdx
	shlq	$3, %rdx
	callq	_memmove
	movq	-48(%rbp), %rcx
	movq	%rbx, %r8
	movq	%r14, 1344(%rbx,%rcx,8)
	movq	-64(%rbp), %rax
	cmpw	%ax, -50(%rbp)
	movq	-72(%rbp), %rbx
	ja	LBB49_107
	movq	%rbx, (%r14)
	movw	%r13w, 8(%r14)
	cmpq	%r15, %r13
	je	LBB49_107
	movl	%ecx, %eax
	notl	%eax
	addl	%r15d, %eax
	movq	%r15, %r9
	subq	%rcx, %r9
	addq	$-2, %r9
	andq	$3, %rax
	je	LBB49_75
	addq	$169, %rcx
	negq	%rax
	xorl	%edx, %edx
LBB49_73:
	movq	(%r8,%rcx,8), %rsi
	movq	%rbx, (%rsi)
	leal	-167(%rcx), %edi
	movw	%di, 8(%rsi)
	decq	%rdx
	incq	%rcx
	cmpq	%rdx, %rax
	jne	LBB49_73
	subq	%rdx, %r13
LBB49_75:
	cmpq	$3, %r9
	jb	LBB49_107
LBB49_76:
	movq	1344(%r8,%r13,8), %rax
	movq	%rbx, (%rax)
	leal	1(%r13), %ecx
	movw	%cx, 8(%rax)
	movq	1352(%r8,%r13,8), %rax
	movq	%rbx, (%rax)
	leal	2(%r13), %ecx
	movw	%cx, 8(%rax)
	movq	1360(%r8,%r13,8), %rax
	movq	%rbx, (%rax)
	leal	3(%r13), %ecx
	movw	%cx, 8(%rax)
	movq	1368(%r8,%r13,8), %rax
	addq	$4, %r13
	movq	%rbx, (%rax)
	movw	%r13w, 8(%rax)
	cmpq	%r13, %r15
	jne	LBB49_76
	jmp	LBB49_107
LBB49_100:
	movq	-104(%rbp), %rax
	movq	%rax, -96(%rbp)
	movq	-128(%rbp), %r15
	leaq	-240(%rbp), %r12
LBB49_63:
	movl	$1320, %esi
	leaq	-1788(%rbp), %rdi
	callq	___bzero
	leaq	-3120(%rbp), %rdi
	leaq	-1792(%rbp), %rsi
	movl	$1324, %edx
	callq	_memcpy
	movq	$0, (%r12)
	movq	$0, 8(%r12)
	movq	$0, 16(%r12)
	movq	$0, 24(%r12)
	movq	$0, 32(%r12)
	movq	$0, 40(%r12)
	movq	$0, 48(%r12)
	movq	$0, 56(%r12)
	movq	$0, 64(%r12)
	movq	$0, 72(%r12)
	movq	$0, 80(%r12)
	movq	$0, 88(%r12)
	movl	$1432, %edi
	movl	$8, %esi
	callq	___rust_alloc
	testq	%rax, %rax
	je	LBB49_64
	movq	%rax, %rbx
	movq	$0, (%rax)
	movw	$0, 10(%rax)
	leaq	12(%rax), %rdi
	leaq	-3120(%rbp), %rsi
	movl	$1324, %edx
	callq	_memcpy
	leaq	1336(%rbx), %rdi
	movl	$12, %ecx
	movq	%r12, %rsi
	rep;movsq (%rsi), %es:(%rdi)
	movq	-136(%rbp), %rsi
	movq	24(%rsi), %rax
	movq	%rax, 1336(%rbx)
	movq	%rbx, 24(%rsi)
	movq	32(%rsi), %rdx
	leaq	1(%rdx), %rcx
	movq	%rcx, 32(%rsi)
	movq	%rbx, (%rax)
	movw	$0, 8(%rax)
	leaq	-1792(%rbp), %rdi
	leaq	-464(%rbp), %rsi
	movl	$14, %ecx
	rep;movsq (%rsi), %es:(%rdi)
	cmpq	%r15, %rdx
	jne	LBB49_102
	movzwl	10(%rbx), %eax
	cmpq	$11, %rax
	jae	LBB49_105
	movq	-96(%rbp), %rcx
	movq	%rcx, 16(%rbx,%rax,8)
	imulq	$112, %rax, %rcx
	leaq	104(%rbx,%rcx), %rdi
	leaq	-1792(%rbp), %rsi
	movl	$14, %ecx
	rep;movsq (%rsi), %es:(%rdi)
	leaq	1(%rax), %rcx
	movq	%r14, 1344(%rbx,%rax,8)
	leal	1(%rax), %edx
	movw	%dx, 10(%rbx)
	movq	1344(%rbx,%rax,8), %rax
	movq	%rbx, (%rax)
	movw	%cx, 8(%rax)
	jmp	LBB49_107
LBB49_111:
Ltmp8:
	leaq	_str.5(%rip), %rdi
	leaq	l___unnamed_83(%rip), %rdx
	movl	$33, %esi
	callq	__ZN4core9panicking5panic17h383a6b80ea7021aaE
Ltmp9:
LBB49_28:
	ud2
LBB49_27:
Ltmp5:
	callq	__ZN5alloc7raw_vec17capacity_overflow17h7526b10e27579d59E
Ltmp6:
	jmp	LBB49_28
LBB49_112:
	movl	$1336, %edi
	movl	$8, %esi
	callq	__ZN5alloc5alloc18handle_alloc_error17h28974197717b8939E
LBB49_29:
	movl	$8, %esi
	movq	%r14, %rdi
	callq	__ZN5alloc5alloc18handle_alloc_error17h28974197717b8939E
LBB49_64:
	movl	$1432, %edi
	movl	$8, %esi
	callq	__ZN5alloc5alloc18handle_alloc_error17h28974197717b8939E
LBB49_102:
Ltmp0:
	leaq	l___unnamed_84(%rip), %rdi
	leaq	l___unnamed_85(%rip), %rdx
	movl	$48, %esi
	callq	__ZN4core9panicking5panic17h383a6b80ea7021aaE
Ltmp1:
	jmp	LBB49_28
LBB49_105:
Ltmp2:
	leaq	l___unnamed_86(%rip), %rdi
	leaq	l___unnamed_85(%rip), %rdx
	movl	$39, %esi
	callq	__ZN4core9panicking5panic17h383a6b80ea7021aaE
Ltmp3:
	jmp	LBB49_28
LBB49_103:
Ltmp4:
	jmp	LBB49_8
LBB49_7:
Ltmp7:
LBB49_8:
	movq	%rax, %rbx
	leaq	-1792(%rbp), %rdi
	jmp	LBB49_110
LBB49_109:
Ltmp10:
	movq	%rax, %rbx
	movq	%r15, %rdi
LBB49_110:
	callq	__ZN4core3ptr13drop_in_place17h6134a1061cdf2e00E
	movq	%rbx, %rdi
	callq	__Unwind_Resume
	ud2
Lfunc_end0:
	.cfi_endproc
	.section	__TEXT,__gcc_except_tab
	.p2align	2
GCC_except_table49:
Lexception0:
	.byte	255
	.byte	255
	.byte	1
	.uleb128 Lcst_end0-Lcst_begin0
Lcst_begin0:
	.uleb128 Lfunc_begin0-Lfunc_begin0
	.uleb128 Ltmp8-Lfunc_begin0
	.byte	0
	.byte	0
	.uleb128 Ltmp8-Lfunc_begin0
	.uleb128 Ltmp9-Ltmp8
	.uleb128 Ltmp10-Lfunc_begin0
	.byte	0
	.uleb128 Ltmp5-Lfunc_begin0
	.uleb128 Ltmp6-Ltmp5
	.uleb128 Ltmp7-Lfunc_begin0
	.byte	0
	.uleb128 Ltmp0-Lfunc_begin0
	.uleb128 Ltmp3-Ltmp0
	.uleb128 Ltmp4-Lfunc_begin0
	.byte	0
	.uleb128 Ltmp3-Lfunc_begin0
	.uleb128 Lfunc_end0-Ltmp3
	.byte	0
	.byte	0
Lcst_end0:
	.p2align	2

	.section	__TEXT,__text,regular,pure_instructions
	.globl	__ZN5gimli4read6abbrev12Abbreviation3new17h08a86d9d45ee6e0aE
	.p2align	4, 0x90
__ZN5gimli4read6abbrev12Abbreviation3new17h08a86d9d45ee6e0aE:
Lfunc_begin1:
	.cfi_startproc
	.cfi_personality 155, _rust_eh_personality
	.cfi_lsda 16, Lexception1
	pushq	%rbp
	.cfi_def_cfa_offset 16
	.cfi_offset %rbp, -16
	movq	%rsp, %rbp
	.cfi_def_cfa_register %rbp
	pushq	%r14
	pushq	%rbx
	subq	$112, %rsp
	.cfi_offset %rbx, -32
	.cfi_offset %r14, -24
	movq	%r8, %rbx
	movq	%rsi, -24(%rbp)
	testq	%rsi, %rsi
	je	LBB50_1
	movq	%rdi, %rax
	movq	%rsi, (%rdi)
	movw	%dx, 104(%rdi)
	movb	%cl, 106(%rdi)
	addq	$8, %rdi
	movl	$12, %ecx
	movq	%rbx, %rsi
	rep;movsq (%rsi), %es:(%rdi)
	addq	$112, %rsp
	popq	%rbx
	popq	%r14
	popq	%rbp
	retq
LBB50_1:
	leaq	-24(%rbp), %rax
	movq	%rax, -32(%rbp)
	leaq	L___unnamed_87(%rip), %rax
	movq	%rax, -40(%rbp)
	leaq	-32(%rbp), %rax
	movq	%rax, -72(%rbp)
	leaq	__ZN42_$LT$$RF$T$u20$as$u20$core..fmt..Debug$GT$3fmt17h1c8738c2d2c5e0ccE(%rip), %rax
	movq	%rax, -64(%rbp)
	leaq	-40(%rbp), %rcx
	movq	%rcx, -56(%rbp)
	movq	%rax, -48(%rbp)
	leaq	l___unnamed_88(%rip), %rax
	movq	%rax, -120(%rbp)
	movq	$3, -112(%rbp)
	movq	$0, -104(%rbp)
	leaq	-72(%rbp), %rax
	movq	%rax, -88(%rbp)
	movq	$2, -80(%rbp)
Ltmp11:
	leaq	l___unnamed_89(%rip), %rsi
	leaq	-120(%rbp), %rdi
	callq	__ZN4core9panicking9panic_fmt17hfce5b7173905fc53E
Ltmp12:
	ud2
LBB50_2:
Ltmp13:
	movq	%rax, %r14
	movq	%rbx, %rdi
	callq	__ZN4core3ptr13drop_in_place17h9d7cd222335e873eE
	movq	%r14, %rdi
	callq	__Unwind_Resume
	ud2
Lfunc_end1:
	.cfi_endproc
	.section	__TEXT,__gcc_except_tab
	.p2align	2
GCC_except_table50:
Lexception1:
	.byte	255
	.byte	255
	.byte	1
	.uleb128 Lcst_end1-Lcst_begin1
Lcst_begin1:
	.uleb128 Ltmp11-Lfunc_begin1
	.uleb128 Ltmp12-Ltmp11
	.uleb128 Ltmp13-Lfunc_begin1
	.byte	0
	.uleb128 Ltmp12-Lfunc_begin1
	.uleb128 Lfunc_end1-Ltmp12
	.byte	0
	.byte	0
Lcst_end1:
	.p2align	2

	.section	__TEXT,__text,regular,pure_instructions
	.globl	__ZN5gimli4read6abbrev10Attributes3new17hfac83a92d06a6126E
	.p2align	4, 0x90
__ZN5gimli4read6abbrev10Attributes3new17hfac83a92d06a6126E:
	.cfi_startproc
	pushq	%rbp
	.cfi_def_cfa_offset 16
	.cfi_offset %rbp, -16
	movq	%rsp, %rbp
	.cfi_def_cfa_register %rbp
	subq	$80, %rsp
	movq	%rdi, %rax
	movq	$0, -80(%rbp)
	movl	$0, -72(%rbp)
	movq	$0, -64(%rbp)
	movl	$0, -56(%rbp)
	movq	$0, -48(%rbp)
	movl	$0, -40(%rbp)
	movq	$0, -32(%rbp)
	movl	$0, -24(%rbp)
	movq	$0, -16(%rbp)
	movl	$0, -8(%rbp)
	leaq	8(%rdi), %rdi
	leaq	-80(%rbp), %rsi
	movl	$10, %ecx
	rep;movsq (%rsi), %es:(%rdi)
	movq	$0, 88(%rax)
	movq	$0, (%rax)
	addq	$80, %rsp
	popq	%rbp
	retq
	.cfi_endproc

	.globl	__ZN5gimli4read6abbrev10Attributes4push17hd62f5b565a3f571bE
	.p2align	4, 0x90
__ZN5gimli4read6abbrev10Attributes4push17hd62f5b565a3f571bE:
Lfunc_begin2:
	.cfi_startproc
	.cfi_personality 155, _rust_eh_personality
	.cfi_lsda 16, Lexception2
	pushq	%rbp
	.cfi_def_cfa_offset 16
	.cfi_offset %rbp, -16
	movq	%rsp, %rbp
	.cfi_def_cfa_register %rbp
	pushq	%r15
	pushq	%r14
	pushq	%rbx
	subq	$120, %rsp
	.cfi_offset %rbx, -40
	.cfi_offset %r14, -32
	.cfi_offset %r15, -24
	movq	%rsi, %r15
	movq	%rdi, %rbx
	cmpl	$1, (%rdi)
	jne	LBB52_1
	movq	(%r15), %rax
	movq	8(%r15), %rcx
	movq	%rcx, -104(%rbp)
	movq	%rax, -112(%rbp)
	movq	24(%rbx), %rax
	cmpq	16(%rbx), %rax
	jne	LBB52_9
	leaq	8(%rbx), %rdi
	movl	$1, %esi
	callq	__ZN5alloc3vec12Vec$LT$T$GT$7reserve17h312d19f4c5e00cbeE
	movq	24(%rbx), %rax
LBB52_9:
	movq	8(%rbx), %rcx
	shlq	$4, %rax
	movq	-112(%rbp), %rdx
	movq	-104(%rbp), %rsi
	movq	%rsi, 8(%rcx,%rax)
	movq	%rdx, (%rcx,%rax)
	incq	24(%rbx)
	jmp	LBB52_10
LBB52_1:
	leaq	8(%rbx), %r14
	movq	88(%rbx), %rdi
	cmpq	$5, %rdi
	jne	LBB52_2
	movl	$80, %edi
	movl	$8, %esi
	callq	___rust_alloc
	testq	%rax, %rax
	je	LBB52_24
	movq	%rax, -48(%rbp)
	movl	$5, %eax
	movq	%rax, %xmm0
	movdqu	%xmm0, -40(%rbp)
Ltmp14:
	leaq	-48(%rbp), %rdi
	movl	$5, %esi
	callq	__ZN5alloc3vec12Vec$LT$T$GT$7reserve17h312d19f4c5e00cbeE
Ltmp15:
	movq	-48(%rbp), %rdx
	movq	-32(%rbp), %rax
	movq	%rax, %rdi
	shlq	$4, %rdi
	addq	%rdx, %rdi
	movl	$10, %ecx
	movq	%r14, %rsi
	rep;movsq (%rsi), %es:(%rdi)
	addq	$5, %rax
	movq	%rax, -32(%rbp)
	movq	(%r15), %rcx
	movq	8(%r15), %rsi
	movq	%rsi, -104(%rbp)
	movq	%rcx, -112(%rbp)
	cmpq	-40(%rbp), %rax
	jne	LBB52_16
Ltmp17:
	leaq	-48(%rbp), %rdi
	movl	$1, %esi
	callq	__ZN5alloc3vec12Vec$LT$T$GT$7reserve17h312d19f4c5e00cbeE
Ltmp18:
	movq	-48(%rbp), %rdx
	movq	-32(%rbp), %rax
LBB52_16:
	movq	%rax, %rcx
	shlq	$4, %rcx
	movq	-112(%rbp), %rsi
	movq	-104(%rbp), %rdi
	movq	%rdi, 8(%rdx,%rcx)
	movq	%rsi, (%rdx,%rcx)
	incq	%rax
	movq	%rax, -32(%rbp)
	movq	%rax, -120(%rbp)
	movq	-48(%rbp), %rax
	movq	-40(%rbp), %rcx
	movq	%rcx, -128(%rbp)
	movq	%rax, -136(%rbp)
	cmpq	$0, (%rbx)
	je	LBB52_21
	movq	16(%rbx), %rsi
	testq	%rsi, %rsi
	je	LBB52_21
	movq	8(%rbx), %rdi
	testq	%rdi, %rdi
	je	LBB52_21
	shlq	$4, %rsi
	je	LBB52_21
	movl	$8, %edx
	callq	___rust_dealloc
LBB52_21:
	movq	$1, (%rbx)
	movq	-120(%rbp), %rax
	movq	%rax, 16(%r14)
	movq	-136(%rbp), %rax
	movq	-128(%rbp), %rcx
	movq	%rcx, 8(%r14)
	movq	%rax, (%r14)
	movq	-56(%rbp), %rax
	movq	%rax, 88(%rbx)
	movq	-64(%rbp), %rax
	movq	%rax, 80(%rbx)
	movq	-72(%rbp), %rax
	movq	%rax, 72(%rbx)
	movq	-80(%rbp), %rax
	movq	%rax, 64(%rbx)
	movq	-88(%rbp), %rax
	movq	%rax, 56(%rbx)
	movq	-96(%rbp), %rax
	movq	%rax, 48(%rbx)
	movq	-112(%rbp), %rax
	movq	-104(%rbp), %rcx
	movq	%rcx, 40(%rbx)
	movq	%rax, 32(%rbx)
	jmp	LBB52_10
LBB52_2:
	movq	(%r15), %rax
	movq	8(%r15), %rcx
	movq	%rcx, -104(%rbp)
	movq	%rax, -112(%rbp)
	cmpq	$5, %rdi
	jae	LBB52_22
	shlq	$4, %rdi
	movq	-112(%rbp), %rax
	movq	-104(%rbp), %rcx
	movq	%rcx, 8(%r14,%rdi)
	movq	%rax, (%r14,%rdi)
	movq	88(%rbx), %rax
	incq	%rax
	je	LBB52_23
	movq	%rax, 88(%rbx)
LBB52_10:
	addq	$120, %rsp
	popq	%rbx
	popq	%r14
	popq	%r15
	popq	%rbp
	retq
LBB52_24:
	movl	$80, %edi
	movl	$8, %esi
	callq	__ZN5alloc5alloc18handle_alloc_error17h28974197717b8939E
LBB52_22:
	leaq	l___unnamed_90(%rip), %rdx
	movl	$5, %esi
	callq	__ZN4core9panicking18panic_bounds_check17he87128426d100e93E
LBB52_23:
	leaq	_str.4(%rip), %rdi
	leaq	l___unnamed_91(%rip), %rdx
	movl	$28, %esi
	callq	__ZN4core9panicking5panic17h383a6b80ea7021aaE
LBB52_5:
Ltmp19:
	jmp	LBB52_6
LBB52_25:
Ltmp16:
LBB52_6:
	movq	%rax, %rbx
	leaq	-48(%rbp), %rdi
	callq	__ZN4core3ptr13drop_in_place17h82b06a9bbbbd1965E
	movq	%rbx, %rdi
	callq	__Unwind_Resume
	ud2
Lfunc_end2:
	.cfi_endproc
	.section	__TEXT,__gcc_except_tab
	.p2align	2
GCC_except_table52:
Lexception2:
	.byte	255
	.byte	255
	.byte	1
	.uleb128 Lcst_end2-Lcst_begin2
Lcst_begin2:
	.uleb128 Lfunc_begin2-Lfunc_begin2
	.uleb128 Ltmp14-Lfunc_begin2
	.byte	0
	.byte	0
	.uleb128 Ltmp14-Lfunc_begin2
	.uleb128 Ltmp15-Ltmp14
	.uleb128 Ltmp16-Lfunc_begin2
	.byte	0
	.uleb128 Ltmp17-Lfunc_begin2
	.uleb128 Ltmp18-Ltmp17
	.uleb128 Ltmp19-Lfunc_begin2
	.byte	0
	.uleb128 Ltmp18-Lfunc_begin2
	.uleb128 Lfunc_end2-Ltmp18
	.byte	0
	.byte	0
Lcst_end2:
	.p2align	2

	.section	__TEXT,__text,regular,pure_instructions
	.globl	__ZN68_$LT$gimli..read..abbrev..Attributes$u20$as$u20$core..fmt..Debug$GT$3fmt17h4ce70a39f1106ffbE
	.p2align	4, 0x90
__ZN68_$LT$gimli..read..abbrev..Attributes$u20$as$u20$core..fmt..Debug$GT$3fmt17h4ce70a39f1106ffbE:
	.cfi_startproc
	pushq	%rbp
	.cfi_def_cfa_offset 16
	.cfi_offset %rbp, -16
	movq	%rsp, %rbp
	.cfi_def_cfa_register %rbp
	pushq	%r15
	pushq	%r14
	pushq	%r13
	pushq	%r12
	pushq	%rbx
	subq	$24, %rsp
	.cfi_offset %rbx, -56
	.cfi_offset %r12, -48
	.cfi_offset %r13, -40
	.cfi_offset %r14, -32
	.cfi_offset %r15, -24
	cmpl	$1, (%rdi)
	jne	LBB53_2
	movq	8(%rdi), %rbx
	movq	24(%rdi), %r13
	leaq	-64(%rbp), %rdi
	callq	__ZN4core3fmt9Formatter10debug_list17h113a4e31f24f00d7E
	testq	%r13, %r13
	jne	LBB53_5
	jmp	LBB53_7
LBB53_2:
	movq	88(%rdi), %r13
	cmpq	$6, %r13
	jae	LBB53_8
	addq	$8, %rdi
	movq	%rdi, %rbx
	leaq	-64(%rbp), %rdi
	callq	__ZN4core3fmt9Formatter10debug_list17h113a4e31f24f00d7E
	testq	%r13, %r13
	je	LBB53_7
LBB53_5:
	shlq	$4, %r13
	leaq	l___unnamed_47(%rip), %r14
	leaq	-64(%rbp), %r15
	leaq	-48(%rbp), %r12
	.p2align	4, 0x90
LBB53_6:
	movq	%rbx, -48(%rbp)
	addq	$16, %rbx
	movq	%r15, %rdi
	movq	%r12, %rsi
	movq	%r14, %rdx
	callq	__ZN4core3fmt8builders9DebugList5entry17h2dea26f6c644471aE
	addq	$-16, %r13
	jne	LBB53_6
LBB53_7:
	leaq	-64(%rbp), %rdi
	callq	__ZN4core3fmt8builders9DebugList6finish17h1537bc92ee1acb1cE
	addq	$24, %rsp
	popq	%rbx
	popq	%r12
	popq	%r13
	popq	%r14
	popq	%r15
	popq	%rbp
	retq
LBB53_8:
	leaq	l___unnamed_48(%rip), %rdx
	movl	$5, %esi
	movq	%r13, %rdi
	callq	__ZN4core5slice24slice_end_index_len_fail17hea9e3399ed430f80E
	.cfi_endproc

	.globl	__ZN72_$LT$gimli..read..abbrev..Attributes$u20$as$u20$core..cmp..PartialEq$GT$2eq17h386252b393b402afE
	.p2align	4, 0x90
__ZN72_$LT$gimli..read..abbrev..Attributes$u20$as$u20$core..cmp..PartialEq$GT$2eq17h386252b393b402afE:
	.cfi_startproc
	pushq	%rbp
	.cfi_def_cfa_offset 16
	.cfi_offset %rbp, -16
	movq	%rsp, %rbp
	.cfi_def_cfa_register %rbp
	movq	%rdi, %rax
	cmpl	$1, (%rdi)
	jne	LBB54_2
	movq	8(%rax), %r8
	movq	24(%rax), %rdi
	cmpl	$1, (%rsi)
	jne	LBB54_6
LBB54_5:
	movq	8(%rsi), %rdx
	movq	24(%rsi), %rax
	cmpq	%rax, %rdi
	je	LBB54_9
	jmp	LBB54_15
LBB54_2:
	movq	88(%rax), %rdi
	cmpq	$6, %rdi
	jae	LBB54_17
	addq	$8, %rax
	movq	%rax, %r8
	cmpl	$1, (%rsi)
	je	LBB54_5
LBB54_6:
	movq	88(%rsi), %rax
	cmpq	$6, %rax
	jae	LBB54_18
	addq	$8, %rsi
	movq	%rsi, %rdx
	cmpq	%rax, %rdi
	jne	LBB54_15
LBB54_9:
	movb	$1, %al
	cmpq	%rdx, %r8
	je	LBB54_16
	incq	%rdi
	movl	$10, %esi
	.p2align	4, 0x90
LBB54_11:
	decq	%rdi
	je	LBB54_16
	movzwl	-2(%r8,%rsi), %ecx
	cmpw	-2(%rdx,%rsi), %cx
	jne	LBB54_15
	movzwl	(%r8,%rsi), %ecx
	cmpw	(%rdx,%rsi), %cx
	jne	LBB54_15
	movq	-10(%r8,%rsi), %rcx
	cmpq	-10(%rdx,%rsi), %rcx
	leaq	16(%rsi), %rsi
	je	LBB54_11
LBB54_15:
	xorl	%eax, %eax
LBB54_16:
	popq	%rbp
	retq
LBB54_17:
	leaq	l___unnamed_48(%rip), %rdx
	movl	$5, %esi
	callq	__ZN4core5slice24slice_end_index_len_fail17hea9e3399ed430f80E
LBB54_18:
	leaq	l___unnamed_48(%rip), %rdx
	movl	$5, %esi
	movq	%rax, %rdi
	callq	__ZN4core5slice24slice_end_index_len_fail17hea9e3399ed430f80E
	.cfi_endproc

	.globl	__ZN75_$LT$gimli..read..abbrev..Attributes$u20$as$u20$core..ops..deref..Deref$GT$5deref17h410261f22a94126fE
	.p2align	4, 0x90
__ZN75_$LT$gimli..read..abbrev..Attributes$u20$as$u20$core..ops..deref..Deref$GT$5deref17h410261f22a94126fE:
	.cfi_startproc
	pushq	%rbp
	.cfi_def_cfa_offset 16
	.cfi_offset %rbp, -16
	movq	%rsp, %rbp
	.cfi_def_cfa_register %rbp
	cmpl	$1, (%rdi)
	jne	LBB55_2
	movq	8(%rdi), %rax
	movq	24(%rdi), %rdx
	popq	%rbp
	retq
LBB55_2:
	movq	88(%rdi), %rdx
	cmpq	$6, %rdx
	jae	LBB55_5
	addq	$8, %rdi
	movq	%rdi, %rax
	popq	%rbp
	retq
LBB55_5:
	leaq	l___unnamed_48(%rip), %rax
	movl	$5, %esi
	movq	%rdx, %rdi
	movq	%rax, %rdx
	callq	__ZN4core5slice24slice_end_index_len_fail17hea9e3399ed430f80E
	.cfi_endproc

	.globl	__ZN145_$LT$gimli..read..abbrev..Attributes$u20$as$u20$core..convert..From$LT$alloc..vec..Vec$LT$gimli..read..abbrev..AttributeSpecification$GT$$GT$$GT$4from17hc524f5a10a62dc31E
	.p2align	4, 0x90
__ZN145_$LT$gimli..read..abbrev..Attributes$u20$as$u20$core..convert..From$LT$alloc..vec..Vec$LT$gimli..read..abbrev..AttributeSpecification$GT$$GT$$GT$4from17hc524f5a10a62dc31E:
	.cfi_startproc
	pushq	%rbp
	.cfi_def_cfa_offset 16
	.cfi_offset %rbp, -16
	movq	%rsp, %rbp
	.cfi_def_cfa_register %rbp
	movq	%rdi, %rax
	movq	16(%rsi), %rcx
	movq	%rcx, 24(%rdi)
	movq	(%rsi), %rcx
	movq	8(%rsi), %rdx
	movq	%rdx, 16(%rdi)
	movq	%rcx, 8(%rdi)
	movq	$1, (%rdi)
	popq	%rbp
	retq
	.cfi_endproc

	.globl	__ZN5gimli4read4line7LineRow18apply_line_advance17h107d92a9ddc4e08aE
	.p2align	4, 0x90
__ZN5gimli4read4line7LineRow18apply_line_advance17h107d92a9ddc4e08aE:
	.cfi_startproc
	pushq	%rbp
	.cfi_def_cfa_offset 16
	.cfi_offset %rbp, -16
	movq	%rsp, %rbp
	.cfi_def_cfa_register %rbp
	testq	%rsi, %rsi
	js	LBB57_2
	addq	%rsi, 24(%rdi)
	popq	%rbp
	retq
LBB57_2:
	movabsq	$-9223372036854775808, %rax
	cmpq	%rax, %rsi
	je	LBB57_8
	negq	%rsi
	movq	24(%rdi), %rax
	subq	%rsi, %rax
	jae	LBB57_5
	movq	$0, 24(%rdi)
	popq	%rbp
	retq
LBB57_5:
	jb	LBB57_9
	movq	%rax, 24(%rdi)
	popq	%rbp
	retq
LBB57_8:
	leaq	_str.6(%rip), %rdi
	leaq	l___unnamed_92(%rip), %rdx
	movl	$31, %esi
	callq	__ZN4core9panicking5panic17h383a6b80ea7021aaE
LBB57_9:
	leaq	_str.5(%rip), %rdi
	leaq	l___unnamed_93(%rip), %rdx
	movl	$33, %esi
	callq	__ZN4core9panicking5panic17h383a6b80ea7021aaE
	.cfi_endproc

	.globl	__ZN80_$LT$gimli..read..loclists..LocListsHeader$u20$as$u20$core..default..Default$GT$7default17hf1b81ff7446c54bfE
	.p2align	4, 0x90
__ZN80_$LT$gimli..read..loclists..LocListsHeader$u20$as$u20$core..default..Default$GT$7default17hf1b81ff7446c54bfE:
	.cfi_startproc
	pushq	%rbp
	.cfi_def_cfa_offset 16
	.cfi_offset %rbp, -16
	movq	%rsp, %rbp
	.cfi_def_cfa_register %rbp
	movabsq	$1411772930064384, %rax
	popq	%rbp
	retq
	.cfi_endproc

	.globl	__ZN5gimli4read4unit20allow_section_offset17hafd89911d81dbd22E
	.p2align	4, 0x90
__ZN5gimli4read4unit20allow_section_offset17hafd89911d81dbd22E:
	.cfi_startproc
	xorl	%eax, %eax
	addl	$-2, %edi
	cmpw	$119, %di
	ja	LBB59_4
	pushq	%rbp
	.cfi_def_cfa_offset 16
	.cfi_offset %rbp, -16
	movq	%rsp, %rbp
	.cfi_def_cfa_register %rbp
	movzwl	%di, %ecx
	leaq	LJTI59_0(%rip), %rdx
	movslq	(%rdx,%rcx,4), %rcx
	addq	%rdx, %rcx
	popq	%rbp
	jmpq	*%rcx
LBB59_2:
	movb	$1, %al
	retq
LBB59_3:
	andl	$65534, %esi
	cmpw	$2, %si
	sete	%al
LBB59_4:
	retq
	.cfi_endproc
	.p2align	2, 0x90
	.data_region jt32
.set L59_0_set_2, LBB59_2-LJTI59_0
.set L59_0_set_4, LBB59_4-LJTI59_0
.set L59_0_set_3, LBB59_3-LJTI59_0
LJTI59_0:
	.long	L59_0_set_2
	.long	L59_0_set_4
	.long	L59_0_set_4
	.long	L59_0_set_4
	.long	L59_0_set_4
	.long	L59_0_set_4
	.long	L59_0_set_4
	.long	L59_0_set_4
	.long	L59_0_set_4
	.long	L59_0_set_4
	.long	L59_0_set_4
	.long	L59_0_set_4
	.long	L59_0_set_4
	.long	L59_0_set_4
	.long	L59_0_set_2
	.long	L59_0_set_4
	.long	L59_0_set_4
	.long	L59_0_set_4
	.long	L59_0_set_4
	.long	L59_0_set_4
	.long	L59_0_set_4
	.long	L59_0_set_4
	.long	L59_0_set_4
	.long	L59_0_set_2
	.long	L59_0_set_4
	.long	L59_0_set_4
	.long	L59_0_set_4
	.long	L59_0_set_4
	.long	L59_0_set_4
	.long	L59_0_set_4
	.long	L59_0_set_4
	.long	L59_0_set_4
	.long	L59_0_set_4
	.long	L59_0_set_4
	.long	L59_0_set_4
	.long	L59_0_set_4
	.long	L59_0_set_4
	.long	L59_0_set_4
	.long	L59_0_set_4
	.long	L59_0_set_4
	.long	L59_0_set_2
	.long	L59_0_set_4
	.long	L59_0_set_2
	.long	L59_0_set_4
	.long	L59_0_set_4
	.long	L59_0_set_4
	.long	L59_0_set_4
	.long	L59_0_set_4
	.long	L59_0_set_4
	.long	L59_0_set_4
	.long	L59_0_set_4
	.long	L59_0_set_4
	.long	L59_0_set_4
	.long	L59_0_set_4
	.long	L59_0_set_3
	.long	L59_0_set_4
	.long	L59_0_set_4
	.long	L59_0_set_4
	.long	L59_0_set_4
	.long	L59_0_set_4
	.long	L59_0_set_4
	.long	L59_0_set_4
	.long	L59_0_set_2
	.long	L59_0_set_4
	.long	L59_0_set_4
	.long	L59_0_set_2
	.long	L59_0_set_4
	.long	L59_0_set_4
	.long	L59_0_set_2
	.long	L59_0_set_4
	.long	L59_0_set_2
	.long	L59_0_set_4
	.long	L59_0_set_2
	.long	L59_0_set_4
	.long	L59_0_set_4
	.long	L59_0_set_2
	.long	L59_0_set_4
	.long	L59_0_set_4
	.long	L59_0_set_4
	.long	L59_0_set_4
	.long	L59_0_set_4
	.long	L59_0_set_4
	.long	L59_0_set_4
	.long	L59_0_set_2
	.long	L59_0_set_4
	.long	L59_0_set_4
	.long	L59_0_set_4
	.long	L59_0_set_4
	.long	L59_0_set_4
	.long	L59_0_set_4
	.long	L59_0_set_4
	.long	L59_0_set_4
	.long	L59_0_set_4
	.long	L59_0_set_4
	.long	L59_0_set_4
	.long	L59_0_set_4
	.long	L59_0_set_4
	.long	L59_0_set_4
	.long	L59_0_set_4
	.long	L59_0_set_4
	.long	L59_0_set_4
	.long	L59_0_set_4
	.long	L59_0_set_4
	.long	L59_0_set_4
	.long	L59_0_set_4
	.long	L59_0_set_4
	.long	L59_0_set_4
	.long	L59_0_set_4
	.long	L59_0_set_4
	.long	L59_0_set_4
	.long	L59_0_set_4
	.long	L59_0_set_4
	.long	L59_0_set_4
	.long	L59_0_set_4
	.long	L59_0_set_4
	.long	L59_0_set_4
	.long	L59_0_set_4
	.long	L59_0_set_4
	.long	L59_0_set_4
	.long	L59_0_set_2
	.end_data_region

	.globl	__ZN5gimli4read5value9ValueType8bit_size17hf7c27256802874f1E
	.p2align	4, 0x90
__ZN5gimli4read5value9ValueType8bit_size17hf7c27256802874f1E:
	.cfi_startproc
	pushq	%rbp
	.cfi_def_cfa_offset 16
	.cfi_offset %rbp, -16
	movq	%rsp, %rbp
	.cfi_def_cfa_register %rbp
	movl	$8, %eax
	movzbl	%dil, %ecx
	leaq	LJTI60_0(%rip), %rdx
	movslq	(%rdx,%rcx,4), %rcx
	addq	%rdx, %rcx
	jmpq	*%rcx
LBB60_7:
	movl	$32, %eax
	popq	%rbp
	retq
LBB60_8:
	movl	$64, %eax
	jmp	LBB60_9
LBB60_6:
	movl	$16, %eax
	popq	%rbp
	retq
LBB60_1:
	testq	%rsi, %rsi
	je	LBB60_2
	bsrq	%rsi, %rcx
	xorq	$63, %rcx
	movl	$64, %eax
	subl	%ecx, %eax
	jb	LBB60_5
LBB60_9:
	popq	%rbp
	retq
LBB60_2:
	movl	$64, %ecx
	movl	$64, %eax
	subl	%ecx, %eax
	jae	LBB60_9
LBB60_5:
	leaq	_str.5(%rip), %rdi
	leaq	l___unnamed_94(%rip), %rdx
	movl	$33, %esi
	callq	__ZN4core9panicking5panic17h383a6b80ea7021aaE
	.cfi_endproc
	.p2align	2, 0x90
	.data_region jt32
.set L60_0_set_1, LBB60_1-LJTI60_0
.set L60_0_set_9, LBB60_9-LJTI60_0
.set L60_0_set_6, LBB60_6-LJTI60_0
.set L60_0_set_7, LBB60_7-LJTI60_0
.set L60_0_set_8, LBB60_8-LJTI60_0
LJTI60_0:
	.long	L60_0_set_1
	.long	L60_0_set_9
	.long	L60_0_set_9
	.long	L60_0_set_6
	.long	L60_0_set_6
	.long	L60_0_set_7
	.long	L60_0_set_7
	.long	L60_0_set_8
	.long	L60_0_set_8
	.long	L60_0_set_7
	.long	L60_0_set_8
	.end_data_region

	.globl	__ZN5gimli4read5value9ValueType13from_encoding17hfd1216c36337928eE
	.p2align	4, 0x90
__ZN5gimli4read5value9ValueType13from_encoding17hfd1216c36337928eE:
	.cfi_startproc
	pushq	%rbp
	.cfi_def_cfa_offset 16
	.cfi_offset %rbp, -16
	movq	%rsp, %rbp
	.cfi_def_cfa_register %rbp
	movb	$11, %al
	cmpb	$4, %dil
	je	LBB61_7
	cmpb	$7, %dil
	je	LBB61_10
	cmpb	$5, %dil
	jne	LBB61_12
	decq	%rsi
	cmpq	$8, %rsi
	jae	LBB61_12
	movl	$139, %ecx
	btl	%esi, %ecx
	jae	LBB61_12
	shll	$3, %esi
	movabsq	$504685737132753665, %rax
	movl	%esi, %ecx
	shrq	%cl, %rax
	popq	%rbp
	retq
LBB61_7:
	cmpq	$4, %rsi
	je	LBB61_13
	cmpq	$8, %rsi
	jne	LBB61_12
	movb	$10, %al
	jmp	LBB61_12
LBB61_10:
	decq	%rsi
	cmpq	$8, %rsi
	jae	LBB61_12
	movl	$139, %ecx
	btl	%esi, %ecx
	jb	LBB61_14
LBB61_12:
	popq	%rbp
	retq
LBB61_13:
	movb	$9, %al
	popq	%rbp
	retq
LBB61_14:
	shll	$3, %esi
	movabsq	$577025909970830338, %rax
	movl	%esi, %ecx
	shrq	%cl, %rax
	popq	%rbp
	retq
	.cfi_endproc

	.globl	__ZN5gimli4read5value5Value10value_type17h82931708340ef7deE
	.p2align	4, 0x90
__ZN5gimli4read5value5Value10value_type17h82931708340ef7deE:
	.cfi_startproc
	pushq	%rbp
	.cfi_def_cfa_offset 16
	.cfi_offset %rbp, -16
	movq	%rsp, %rbp
	.cfi_def_cfa_register %rbp
	movb	(%rdi), %al
	popq	%rbp
	retq
	.cfi_endproc

	.globl	__ZN5gimli4read5value5Value6to_u6417h1777bfade04f29a6E
	.p2align	4, 0x90
__ZN5gimli4read5value5Value6to_u6417h1777bfade04f29a6E:
	.cfi_startproc
	pushq	%rbp
	.cfi_def_cfa_offset 16
	.cfi_offset %rbp, -16
	movq	%rsp, %rbp
	.cfi_def_cfa_register %rbp
	movq	%rdi, %rax
	movzbl	(%rsi), %ecx
	cmpq	$8, %rcx
	ja	LBB63_9
	leaq	LJTI63_0(%rip), %rdi
	movslq	(%rdi,%rcx,4), %rcx
	addq	%rdi, %rcx
	jmpq	*%rcx
LBB63_8:
	movq	8(%rsi), %rdx
	jmp	LBB63_12
LBB63_9:
	movb	$43, 8(%rax)
	movl	$1, %ecx
	movq	%rcx, (%rax)
	popq	%rbp
	retq
LBB63_11:
	andq	8(%rsi), %rdx
	jmp	LBB63_12
LBB63_2:
	movsbq	1(%rsi), %rdx
	jmp	LBB63_12
LBB63_3:
	movzbl	1(%rsi), %edx
	jmp	LBB63_12
LBB63_4:
	movswq	2(%rsi), %rdx
	jmp	LBB63_12
LBB63_5:
	movzwl	2(%rsi), %edx
	jmp	LBB63_12
LBB63_6:
	movslq	4(%rsi), %rdx
	jmp	LBB63_12
LBB63_7:
	movl	4(%rsi), %edx
LBB63_12:
	movq	%rdx, 8(%rax)
	xorl	%ecx, %ecx
	movq	%rcx, (%rax)
	popq	%rbp
	retq
	.cfi_endproc
	.p2align	2, 0x90
	.data_region jt32
.set L63_0_set_11, LBB63_11-LJTI63_0
.set L63_0_set_2, LBB63_2-LJTI63_0
.set L63_0_set_3, LBB63_3-LJTI63_0
.set L63_0_set_4, LBB63_4-LJTI63_0
.set L63_0_set_5, LBB63_5-LJTI63_0
.set L63_0_set_6, LBB63_6-LJTI63_0
.set L63_0_set_7, LBB63_7-LJTI63_0
.set L63_0_set_8, LBB63_8-LJTI63_0
LJTI63_0:
	.long	L63_0_set_11
	.long	L63_0_set_2
	.long	L63_0_set_3
	.long	L63_0_set_4
	.long	L63_0_set_5
	.long	L63_0_set_6
	.long	L63_0_set_7
	.long	L63_0_set_8
	.long	L63_0_set_8
	.end_data_region

	.section	__TEXT,__literal16,16byte_literals
	.p2align	4
LCPI64_0:
	.long	1127219200
	.long	1160773632
	.long	0
	.long	0
LCPI64_1:
	.quad	4841369599423283200
	.quad	4985484787499139072
	.section	__TEXT,__text,regular,pure_instructions
	.globl	__ZN5gimli4read5value5Value8from_u6417h2891c622cc4e260aE
	.p2align	4, 0x90
__ZN5gimli4read5value5Value8from_u6417h2891c622cc4e260aE:
	.cfi_startproc
	pushq	%rbp
	.cfi_def_cfa_offset 16
	.cfi_offset %rbp, -16
	movq	%rsp, %rbp
	.cfi_def_cfa_register %rbp
	movq	%rdi, %rax
	movzbl	%sil, %ecx
	leaq	LJTI64_0(%rip), %rdi
	movslq	(%rdi,%rcx,4), %rcx
	addq	%rdi, %rcx
	jmpq	*%rcx
LBB64_2:
	movb	$1, %sil
	jmp	LBB64_12
LBB64_3:
	movb	$2, %sil
	jmp	LBB64_12
LBB64_4:
	movb	$3, %sil
	jmp	LBB64_12
LBB64_5:
	movb	$4, %sil
	jmp	LBB64_12
LBB64_6:
	movb	$5, %sil
	jmp	LBB64_12
LBB64_7:
	movb	$6, %sil
	jmp	LBB64_12
LBB64_8:
	testq	%rdx, %rdx
	js	LBB64_9
	cvtsi2ss	%rdx, %xmm0
	jmp	LBB64_11
LBB64_1:
	movq	%rdx, %xmm0
	punpckldq	LCPI64_0(%rip), %xmm0
	subpd	LCPI64_1(%rip), %xmm0
	movapd	%xmm0, %xmm1
	unpckhpd	%xmm0, %xmm1
	addsd	%xmm0, %xmm1
	movq	%xmm1, %rdx
	movb	$10, %sil
	jmp	LBB64_12
LBB64_9:
	movq	%rdx, %rcx
	shrq	%rcx
	andl	$1, %edx
	orq	%rcx, %rdx
	cvtsi2ss	%rdx, %xmm0
	addss	%xmm0, %xmm0
LBB64_11:
	movd	%xmm0, %edx
	movb	$9, %sil
LBB64_12:
	movb	%sil, 8(%rax)
	movb	%dl, 9(%rax)
	movw	%dx, 10(%rax)
	movl	%edx, 12(%rax)
	movq	%rdx, 16(%rax)
	movq	$0, (%rax)
	popq	%rbp
	retq
	.cfi_endproc
	.p2align	2, 0x90
	.data_region jt32
.set L64_0_set_12, LBB64_12-LJTI64_0
.set L64_0_set_2, LBB64_2-LJTI64_0
.set L64_0_set_3, LBB64_3-LJTI64_0
.set L64_0_set_4, LBB64_4-LJTI64_0
.set L64_0_set_5, LBB64_5-LJTI64_0
.set L64_0_set_6, LBB64_6-LJTI64_0
.set L64_0_set_7, LBB64_7-LJTI64_0
.set L64_0_set_8, LBB64_8-LJTI64_0
.set L64_0_set_1, LBB64_1-LJTI64_0
LJTI64_0:
	.long	L64_0_set_12
	.long	L64_0_set_2
	.long	L64_0_set_3
	.long	L64_0_set_4
	.long	L64_0_set_5
	.long	L64_0_set_6
	.long	L64_0_set_7
	.long	L64_0_set_12
	.long	L64_0_set_12
	.long	L64_0_set_8
	.long	L64_0_set_1
	.end_data_region

	.section	__TEXT,__literal8,8byte_literals
	.p2align	3
LCPI65_0:
	.quad	4890909195324358656
LCPI65_1:
	.quad	4895412794951729151
LCPI65_2:
	.quad	4890909195324358655
LCPI65_3:
	.quad	-4332462841530417152
LCPI65_4:
	.quad	4751297606873776128
LCPI65_5:
	.quad	4746794007244308480
LCPI65_6:
	.quad	-4476578029606273024
LCPI65_7:
	.quad	4679239875398991872
LCPI65_8:
	.quad	4674736138332667904
LCPI65_9:
	.quad	-4548635623644200960
LCPI65_10:
	.quad	4643176031446892544
LCPI65_11:
	.quad	4638637247447433216
LCPI65_12:
	.quad	-4584664420663164928
	.section	__TEXT,__literal4,4byte_literals
	.p2align	2
LCPI65_13:
	.long	1593835520
LCPI65_14:
	.long	1602224127
LCPI65_15:
	.long	1593835519
LCPI65_16:
	.long	3741319168
LCPI65_17:
	.long	1333788671
LCPI65_18:
	.long	1325400063
LCPI65_19:
	.long	3472883712
LCPI65_20:
	.long	1199570688
LCPI65_21:
	.long	1191181824
LCPI65_22:
	.long	3338665984
LCPI65_23:
	.long	1132396544
LCPI65_24:
	.long	1123942400
LCPI65_25:
	.long	3271557120
	.section	__TEXT,__literal16,16byte_literals
	.p2align	4
LCPI65_26:
	.long	1127219200
	.long	1160773632
	.long	0
	.long	0
LCPI65_27:
	.quad	4841369599423283200
	.quad	4985484787499139072
	.section	__TEXT,__text,regular,pure_instructions
	.globl	__ZN5gimli4read5value5Value7convert17h1f6c138254f5a9d9E
	.p2align	4, 0x90
__ZN5gimli4read5value5Value7convert17h1f6c138254f5a9d9E:
	.cfi_startproc
	pushq	%rbp
	.cfi_def_cfa_offset 16
	.cfi_offset %rbp, -16
	movq	%rsp, %rbp
	.cfi_def_cfa_register %rbp
	movq	%rdi, %rax
	movzbl	(%rsi), %edi
	cmpq	$9, %rdi
	je	LBB65_4
	cmpl	$10, %edi
	jne	LBB65_7
	movsd	8(%rsi), %xmm0
	movzbl	%dl, %ecx
	leaq	LJTI65_0(%rip), %rdx
	movslq	(%rdx,%rcx,4), %rcx
	addq	%rdx, %rcx
	jmpq	*%rcx
LBB65_3:
	xorpd	%xmm1, %xmm1
	movapd	%xmm0, %xmm2
	maxsd	%xmm1, %xmm2
	movsd	LCPI65_0(%rip), %xmm1
	movapd	%xmm2, %xmm3
	subsd	%xmm1, %xmm3
	cvttsd2si	%xmm3, %rcx
	movabsq	$-9223372036854775808, %rdx
	xorq	%rcx, %rdx
	cvttsd2si	%xmm2, %rsi
	ucomisd	%xmm1, %xmm2
	cmovaeq	%rdx, %rsi
	ucomisd	LCPI65_1(%rip), %xmm0
	jmp	LBB65_6
LBB65_4:
	movd	4(%rsi), %xmm0
	movzbl	%dl, %ecx
	leaq	LJTI65_1(%rip), %rdx
	movslq	(%rdx,%rcx,4), %rcx
	addq	%rdx, %rcx
	jmpq	*%rcx
LBB65_5:
	xorps	%xmm1, %xmm1
	movaps	%xmm0, %xmm2
	maxss	%xmm1, %xmm2
	movss	LCPI65_13(%rip), %xmm1
	movaps	%xmm2, %xmm3
	subss	%xmm1, %xmm3
	cvttss2si	%xmm3, %rcx
	movabsq	$-9223372036854775808, %rdx
	xorq	%rcx, %rdx
	cvttss2si	%xmm2, %rsi
	ucomiss	%xmm1, %xmm2
	cmovaeq	%rdx, %rsi
	ucomiss	LCPI65_14(%rip), %xmm0
LBB65_6:
	movq	$-1, %rcx
	cmovbeq	%rsi, %rcx
	xorl	%edx, %edx
	jmp	LBB65_43
LBB65_7:
	cmpq	$8, %rdi
	ja	LBB65_10
	movsbq	1(%rsi), %r8
	movswq	2(%rsi), %r9
	movslq	4(%rsi), %r10
	movq	8(%rsi), %r11
	leaq	LJTI65_2(%rip), %rsi
	movslq	(%rsi,%rdi,4), %rdi
	addq	%rsi, %rdi
	jmpq	*%rdi
LBB65_9:
	movzbl	%dl, %ecx
	leaq	LJTI65_3(%rip), %rsi
	movslq	(%rsi,%rcx,4), %rcx
	addq	%rsi, %rcx
	jmpq	*%rcx
LBB65_10:
	movq	$43, 8(%rax)
	movl	$1, %ecx
	movq	%rcx, (%rax)
	popq	%rbp
	retq
LBB65_11:
	andq	%rcx, %r11
	movzbl	%dl, %ecx
	leaq	LJTI65_3(%rip), %rsi
	movslq	(%rsi,%rcx,4), %rcx
	addq	%rsi, %rcx
	jmpq	*%rcx
LBB65_12:
	movzbl	%dl, %ecx
	leaq	LJTI65_3(%rip), %rsi
	movslq	(%rsi,%rcx,4), %rcx
	addq	%rsi, %rcx
	movq	%r8, %r11
	jmpq	*%rcx
LBB65_13:
	movzbl	%r8b, %r11d
	movzbl	%dl, %ecx
	leaq	LJTI65_3(%rip), %rsi
	movslq	(%rsi,%rcx,4), %rcx
	addq	%rsi, %rcx
	jmpq	*%rcx
LBB65_14:
	movzbl	%dl, %ecx
	leaq	LJTI65_3(%rip), %rsi
	movslq	(%rsi,%rcx,4), %rcx
	addq	%rsi, %rcx
	movq	%r9, %r11
	jmpq	*%rcx
LBB65_15:
	movzwl	%r9w, %r11d
	movzbl	%dl, %ecx
	leaq	LJTI65_3(%rip), %rsi
	movslq	(%rsi,%rcx,4), %rcx
	addq	%rsi, %rcx
	jmpq	*%rcx
LBB65_16:
	movzbl	%dl, %ecx
	leaq	LJTI65_3(%rip), %rsi
	movslq	(%rsi,%rcx,4), %rcx
	addq	%rsi, %rcx
	movq	%r10, %r11
	jmpq	*%rcx
LBB65_17:
	movl	%r10d, %r11d
	movzbl	%dl, %ecx
	leaq	LJTI65_3(%rip), %rsi
	movslq	(%rsi,%rcx,4), %rcx
	addq	%rsi, %rcx
	jmpq	*%rcx
LBB65_18:
	movb	$1, %dl
	jmp	LBB65_60
LBB65_19:
	ucomisd	LCPI65_11(%rip), %xmm0
	movapd	%xmm0, %xmm1
	maxsd	LCPI65_12(%rip), %xmm1
	cvttsd2si	%xmm1, %ecx
	movl	$127, %edx
	cmovbel	%ecx, %edx
	xorl	%edi, %edi
	ucomisd	%xmm0, %xmm0
	jmp	LBB65_30
LBB65_20:
	ucomisd	LCPI65_10(%rip), %xmm0
	xorpd	%xmm1, %xmm1
	maxsd	%xmm1, %xmm0
	cvttsd2si	%xmm0, %ecx
	jmp	LBB65_32
LBB65_21:
	ucomisd	LCPI65_8(%rip), %xmm0
	movapd	%xmm0, %xmm1
	maxsd	LCPI65_9(%rip), %xmm1
	cvttsd2si	%xmm1, %ecx
	movl	$32767, %edx
	cmovbel	%ecx, %edx
	xorl	%esi, %esi
	ucomisd	%xmm0, %xmm0
	cmovnpl	%edx, %esi
	movb	$3, %dl
	jmp	LBB65_41
LBB65_22:
	ucomisd	LCPI65_7(%rip), %xmm0
	xorpd	%xmm1, %xmm1
	maxsd	%xmm1, %xmm0
	cvttsd2si	%xmm0, %ecx
	jmp	LBB65_35
LBB65_23:
	ucomisd	LCPI65_5(%rip), %xmm0
	movapd	%xmm0, %xmm1
	maxsd	LCPI65_6(%rip), %xmm1
	cvttsd2si	%xmm1, %ecx
	movl	$2147483647, %edx
	cmovbel	%ecx, %edx
	xorl	%r8d, %r8d
	ucomisd	%xmm0, %xmm0
	jmp	LBB65_37
LBB65_24:
	ucomisd	LCPI65_4(%rip), %xmm0
	xorpd	%xmm1, %xmm1
	maxsd	%xmm1, %xmm0
	cvttsd2si	%xmm0, %rcx
	jmp	LBB65_39
LBB65_25:
	ucomisd	LCPI65_2(%rip), %xmm0
	movapd	%xmm0, %xmm1
	maxsd	LCPI65_3(%rip), %xmm1
	cvttsd2si	%xmm1, %rcx
	movabsq	$9223372036854775807, %rdx
	cmovbeq	%rcx, %rdx
	xorl	%ecx, %ecx
	ucomisd	%xmm0, %xmm0
	jmp	LBB65_45
LBB65_26:
	xorpd	%xmm1, %xmm1
	movapd	%xmm0, %xmm2
	maxsd	%xmm1, %xmm2
	movsd	LCPI65_0(%rip), %xmm1
	movapd	%xmm2, %xmm3
	subsd	%xmm1, %xmm3
	cvttsd2si	%xmm3, %rcx
	movabsq	$-9223372036854775808, %rdx
	xorq	%rcx, %rdx
	cvttsd2si	%xmm2, %rsi
	ucomisd	%xmm1, %xmm2
	cmovaeq	%rdx, %rsi
	ucomisd	LCPI65_1(%rip), %xmm0
	jmp	LBB65_47
LBB65_27:
	cvtsd2ss	%xmm0, %xmm0
LBB65_28:
	movd	%xmm0, %r8d
	movb	$9, %dl
	jmp	LBB65_40
LBB65_29:
	ucomiss	LCPI65_24(%rip), %xmm0
	movaps	%xmm0, %xmm1
	maxss	LCPI65_25(%rip), %xmm1
	cvttss2si	%xmm1, %ecx
	movl	$127, %edx
	cmovbel	%ecx, %edx
	xorl	%edi, %edi
	ucomiss	%xmm0, %xmm0
LBB65_30:
	cmovnpl	%edx, %edi
	movb	$1, %dl
	jmp	LBB65_42
LBB65_31:
	ucomiss	LCPI65_23(%rip), %xmm0
	xorps	%xmm1, %xmm1
	maxss	%xmm1, %xmm0
	cvttss2si	%xmm0, %ecx
LBB65_32:
	movl	$255, %edi
	cmovbel	%ecx, %edi
	movb	$2, %dl
	jmp	LBB65_42
LBB65_33:
	ucomiss	LCPI65_21(%rip), %xmm0
	movaps	%xmm0, %xmm1
	maxss	LCPI65_22(%rip), %xmm1
	cvttss2si	%xmm1, %ecx
	movl	$32767, %edx
	cmovbel	%ecx, %edx
	xorl	%esi, %esi
	ucomiss	%xmm0, %xmm0
	cmovnpl	%edx, %esi
	movb	$3, %dl
	jmp	LBB65_41
LBB65_34:
	ucomiss	LCPI65_20(%rip), %xmm0
	xorps	%xmm1, %xmm1
	maxss	%xmm1, %xmm0
	cvttss2si	%xmm0, %ecx
LBB65_35:
	movl	$65535, %esi
	cmovbel	%ecx, %esi
	movb	$4, %dl
	jmp	LBB65_41
LBB65_36:
	ucomiss	LCPI65_18(%rip), %xmm0
	movaps	%xmm0, %xmm1
	maxss	LCPI65_19(%rip), %xmm1
	cvttss2si	%xmm1, %ecx
	movl	$2147483647, %edx
	cmovbel	%ecx, %edx
	xorl	%r8d, %r8d
	ucomiss	%xmm0, %xmm0
LBB65_37:
	cmovnpl	%edx, %r8d
	movb	$5, %dl
	jmp	LBB65_40
LBB65_38:
	ucomiss	LCPI65_17(%rip), %xmm0
	xorps	%xmm1, %xmm1
	maxss	%xmm1, %xmm0
	cvttss2si	%xmm0, %rcx
LBB65_39:
	movl	$-1, %r8d
	cmovbel	%ecx, %r8d
	movb	$6, %dl
LBB65_40:
LBB65_41:
LBB65_42:
LBB65_43:
	movb	%dl, 8(%rax)
	movb	%dil, 9(%rax)
	movw	%si, 10(%rax)
	movl	%r8d, 12(%rax)
	movq	%rcx, 16(%rax)
	xorl	%ecx, %ecx
	movq	%rcx, (%rax)
	popq	%rbp
	retq
LBB65_44:
	ucomiss	LCPI65_15(%rip), %xmm0
	movaps	%xmm0, %xmm1
	maxss	LCPI65_16(%rip), %xmm1
	cvttss2si	%xmm1, %rcx
	movabsq	$9223372036854775807, %rdx
	cmovbeq	%rcx, %rdx
	xorl	%ecx, %ecx
	ucomiss	%xmm0, %xmm0
LBB65_45:
	cmovnpq	%rdx, %rcx
	movb	$7, %dl
	jmp	LBB65_43
LBB65_46:
	xorps	%xmm1, %xmm1
	movdqa	%xmm0, %xmm2
	maxss	%xmm1, %xmm2
	movss	LCPI65_13(%rip), %xmm1
	movaps	%xmm2, %xmm3
	subss	%xmm1, %xmm3
	cvttss2si	%xmm3, %rcx
	movabsq	$-9223372036854775808, %rdx
	xorq	%rcx, %rdx
	cvttss2si	%xmm2, %rsi
	ucomiss	%xmm1, %xmm2
	cmovaeq	%rdx, %rsi
	ucomiss	LCPI65_14(%rip), %xmm0
LBB65_47:
	movq	$-1, %rcx
	cmovbeq	%rsi, %rcx
	movb	$8, %dl
	jmp	LBB65_43
LBB65_48:
	cvtss2sd	%xmm0, %xmm0
LBB65_49:
	movq	%xmm0, %rcx
	movb	$10, %dl
	jmp	LBB65_43
LBB65_50:
	movb	$2, %dl
	jmp	LBB65_60
LBB65_51:
	movb	$3, %dl
	jmp	LBB65_60
LBB65_52:
	movb	$4, %dl
	jmp	LBB65_60
LBB65_53:
	movb	$5, %dl
	jmp	LBB65_60
LBB65_54:
	movb	$6, %dl
	jmp	LBB65_60
LBB65_55:
	testq	%r11, %r11
	js	LBB65_58
	cvtsi2ss	%r11, %xmm0
	jmp	LBB65_59
LBB65_57:
	movq	%r11, %xmm0
	punpckldq	LCPI65_26(%rip), %xmm0
	subpd	LCPI65_27(%rip), %xmm0
	movapd	%xmm0, %xmm1
	unpckhpd	%xmm0, %xmm1
	addsd	%xmm0, %xmm1
	movq	%xmm1, %r11
	movb	$10, %dl
	jmp	LBB65_60
LBB65_58:
	movq	%r11, %rcx
	shrq	%rcx
	andl	$1, %r11d
	orq	%rcx, %r11
	cvtsi2ss	%r11, %xmm0
	addss	%xmm0, %xmm0
LBB65_59:
	movd	%xmm0, %r11d
	movb	$9, %dl
LBB65_60:
	movb	%dl, 8(%rax)
	movb	%r11b, 9(%rax)
	movw	%r11w, 10(%rax)
	movl	%r11d, 12(%rax)
	movq	%r11, 16(%rax)
	xorl	%ecx, %ecx
	movq	%rcx, (%rax)
	popq	%rbp
	retq
	.cfi_endproc
	.p2align	2, 0x90
	.data_region jt32
.set L65_0_set_3, LBB65_3-LJTI65_0
.set L65_0_set_19, LBB65_19-LJTI65_0
.set L65_0_set_20, LBB65_20-LJTI65_0
.set L65_0_set_21, LBB65_21-LJTI65_0
.set L65_0_set_22, LBB65_22-LJTI65_0
.set L65_0_set_23, LBB65_23-LJTI65_0
.set L65_0_set_24, LBB65_24-LJTI65_0
.set L65_0_set_25, LBB65_25-LJTI65_0
.set L65_0_set_26, LBB65_26-LJTI65_0
.set L65_0_set_27, LBB65_27-LJTI65_0
.set L65_0_set_49, LBB65_49-LJTI65_0
LJTI65_0:
	.long	L65_0_set_3
	.long	L65_0_set_19
	.long	L65_0_set_20
	.long	L65_0_set_21
	.long	L65_0_set_22
	.long	L65_0_set_23
	.long	L65_0_set_24
	.long	L65_0_set_25
	.long	L65_0_set_26
	.long	L65_0_set_27
	.long	L65_0_set_49
.set L65_1_set_5, LBB65_5-LJTI65_1
.set L65_1_set_29, LBB65_29-LJTI65_1
.set L65_1_set_31, LBB65_31-LJTI65_1
.set L65_1_set_33, LBB65_33-LJTI65_1
.set L65_1_set_34, LBB65_34-LJTI65_1
.set L65_1_set_36, LBB65_36-LJTI65_1
.set L65_1_set_38, LBB65_38-LJTI65_1
.set L65_1_set_44, LBB65_44-LJTI65_1
.set L65_1_set_46, LBB65_46-LJTI65_1
.set L65_1_set_28, LBB65_28-LJTI65_1
.set L65_1_set_48, LBB65_48-LJTI65_1
LJTI65_1:
	.long	L65_1_set_5
	.long	L65_1_set_29
	.long	L65_1_set_31
	.long	L65_1_set_33
	.long	L65_1_set_34
	.long	L65_1_set_36
	.long	L65_1_set_38
	.long	L65_1_set_44
	.long	L65_1_set_46
	.long	L65_1_set_28
	.long	L65_1_set_48
.set L65_2_set_11, LBB65_11-LJTI65_2
.set L65_2_set_12, LBB65_12-LJTI65_2
.set L65_2_set_13, LBB65_13-LJTI65_2
.set L65_2_set_14, LBB65_14-LJTI65_2
.set L65_2_set_15, LBB65_15-LJTI65_2
.set L65_2_set_16, LBB65_16-LJTI65_2
.set L65_2_set_17, LBB65_17-LJTI65_2
.set L65_2_set_9, LBB65_9-LJTI65_2
LJTI65_2:
	.long	L65_2_set_11
	.long	L65_2_set_12
	.long	L65_2_set_13
	.long	L65_2_set_14
	.long	L65_2_set_15
	.long	L65_2_set_16
	.long	L65_2_set_17
	.long	L65_2_set_9
	.long	L65_2_set_9
.set L65_3_set_60, LBB65_60-LJTI65_3
.set L65_3_set_18, LBB65_18-LJTI65_3
.set L65_3_set_50, LBB65_50-LJTI65_3
.set L65_3_set_51, LBB65_51-LJTI65_3
.set L65_3_set_52, LBB65_52-LJTI65_3
.set L65_3_set_53, LBB65_53-LJTI65_3
.set L65_3_set_54, LBB65_54-LJTI65_3
.set L65_3_set_55, LBB65_55-LJTI65_3
.set L65_3_set_57, LBB65_57-LJTI65_3
LJTI65_3:
	.long	L65_3_set_60
	.long	L65_3_set_18
	.long	L65_3_set_50
	.long	L65_3_set_51
	.long	L65_3_set_52
	.long	L65_3_set_53
	.long	L65_3_set_54
	.long	L65_3_set_60
	.long	L65_3_set_60
	.long	L65_3_set_55
	.long	L65_3_set_57
	.end_data_region

	.globl	__ZN5gimli4read5value5Value11reinterpret17h60c4cb4e7b02d373E
	.p2align	4, 0x90
__ZN5gimli4read5value5Value11reinterpret17h60c4cb4e7b02d373E:
	.cfi_startproc
	pushq	%rbp
	.cfi_def_cfa_offset 16
	.cfi_offset %rbp, -16
	movq	%rsp, %rbp
	.cfi_def_cfa_register %rbp
	pushq	%rbx
	pushq	%rax
	.cfi_offset %rbx, -24
	movq	%rdi, %rax
	movzbl	(%rsi), %r8d
	movl	$64, %r9d
	leaq	LJTI66_0(%rip), %r10
	movslq	(%r10,%r8,4), %rdi
	addq	%r10, %rdi
	jmpq	*%rdi
LBB66_6:
	movl	$8, %r9d
	movl	$8, %ebx
	movzbl	%dl, %edi
	leaq	LJTI66_1(%rip), %r10
	movslq	(%r10,%rdi,4), %rdi
	addq	%r10, %rdi
	jmpq	*%rdi
LBB66_4:
	movl	$32, %r9d
	movl	$8, %ebx
	movzbl	%dl, %edi
	leaq	LJTI66_1(%rip), %r10
	movslq	(%r10,%rdi,4), %rdi
	addq	%r10, %rdi
	jmpq	*%rdi
LBB66_2:
	movl	$16, %r9d
	movl	$8, %ebx
	movzbl	%dl, %edi
	leaq	LJTI66_1(%rip), %r10
	movslq	(%r10,%rdi,4), %rdi
	addq	%r10, %rdi
	jmpq	*%rdi
LBB66_1:
	movl	$16, %r9d
	movl	$8, %ebx
	movzbl	%dl, %r10d
	leaq	LJTI66_1(%rip), %r11
	movslq	(%r11,%r10,4), %rdi
	addq	%r11, %rdi
	jmpq	*%rdi
LBB66_5:
	movl	$32, %r9d
	movl	$8, %ebx
	movzbl	%dl, %edi
	leaq	LJTI66_1(%rip), %r10
	movslq	(%r10,%rdi,4), %rdi
	addq	%r10, %rdi
	jmpq	*%rdi
LBB66_3:
	movl	$32, %r9d
	movl	$8, %ebx
	movzbl	%dl, %edi
	leaq	LJTI66_1(%rip), %r10
	movslq	(%r10,%rdi,4), %rdi
	addq	%r10, %rdi
	jmpq	*%rdi
LBB66_7:
	testq	%rcx, %rcx
	je	LBB66_8
	bsrq	%rcx, %rdi
	xorq	$63, %rdi
	movl	$64, %r9d
	subl	%edi, %r9d
	jae	LBB66_11
	jmp	LBB66_16
LBB66_8:
	movl	$64, %edi
	movl	$64, %r9d
	subl	%edi, %r9d
	jb	LBB66_16
LBB66_11:
	movl	$8, %ebx
	movzbl	%dl, %edi
	leaq	LJTI66_1(%rip), %r10
	movslq	(%r10,%rdi,4), %rdi
	addq	%r10, %rdi
	jmpq	*%rdi
LBB66_18:
	movl	$32, %ebx
	jmp	LBB66_20
LBB66_19:
	movl	$64, %ebx
	jmp	LBB66_20
LBB66_17:
	movl	$16, %ebx
	jmp	LBB66_20
LBB66_12:
	testq	%rcx, %rcx
	je	LBB66_13
	bsrq	%rcx, %rcx
	xorq	$63, %rcx
	movl	$64, %ebx
	subl	%ecx, %ebx
	jb	LBB66_16
LBB66_20:
	cmpl	%ebx, %r9d
	jne	LBB66_22
	leaq	LJTI66_2(%rip), %rcx
	movslq	(%rcx,%r8,4), %rdi
	addq	%rcx, %rdi
	jmpq	*%rdi
LBB66_25:
	movq	8(%rsi), %rcx
	movzbl	%dl, %esi
	leaq	LJTI66_3(%rip), %rdi
	movslq	(%rdi,%rsi,4), %rsi
	addq	%rdi, %rsi
	jmpq	*%rsi
LBB66_22:
	movb	$42, 8(%rax)
	movl	$1, %ecx
	jmp	LBB66_23
LBB66_29:
	movzwl	2(%rsi), %ecx
	movzbl	%dl, %esi
	leaq	LJTI66_3(%rip), %rdi
	movslq	(%rdi,%rsi,4), %rsi
	addq	%rdi, %rsi
	jmpq	*%rsi
LBB66_34:
	movl	4(%rsi), %ecx
	movzbl	%dl, %esi
	leaq	LJTI66_3(%rip), %rdi
	movslq	(%rdi,%rsi,4), %rsi
	addq	%rdi, %rsi
	jmpq	*%rsi
LBB66_27:
	movzbl	1(%rsi), %ecx
	movzbl	%dl, %esi
	leaq	LJTI66_3(%rip), %rdi
	movslq	(%rdi,%rsi,4), %rsi
	addq	%rdi, %rsi
	jmpq	*%rsi
LBB66_28:
	movswq	2(%rsi), %rcx
	movzbl	%dl, %esi
	leaq	LJTI66_3(%rip), %rdi
	movslq	(%rdi,%rsi,4), %rsi
	addq	%rdi, %rsi
	jmpq	*%rsi
LBB66_26:
	movsbq	1(%rsi), %rcx
	movzbl	%dl, %esi
	leaq	LJTI66_3(%rip), %rdi
	movslq	(%rdi,%rsi,4), %rsi
	addq	%rdi, %rsi
	jmpq	*%rsi
LBB66_32:
	movq	8(%rsi), %rcx
	movzbl	%dl, %esi
	leaq	LJTI66_3(%rip), %rdi
	movslq	(%rdi,%rsi,4), %rsi
	addq	%rdi, %rsi
	jmpq	*%rsi
LBB66_30:
	movslq	4(%rsi), %rcx
	movzbl	%dl, %esi
	leaq	LJTI66_3(%rip), %rdi
	movslq	(%rdi,%rsi,4), %rsi
	addq	%rdi, %rsi
	jmpq	*%rsi
LBB66_31:
	movl	4(%rsi), %ecx
	movzbl	%dl, %esi
	leaq	LJTI66_3(%rip), %rdi
	movslq	(%rdi,%rsi,4), %rsi
	addq	%rdi, %rsi
	jmpq	*%rsi
LBB66_33:
	movq	8(%rsi), %rcx
	movzbl	%dl, %esi
	leaq	LJTI66_3(%rip), %rdi
	movslq	(%rdi,%rsi,4), %rsi
	addq	%rdi, %rsi
	jmpq	*%rsi
LBB66_24:
	movq	8(%rsi), %rcx
	movzbl	%dl, %esi
	leaq	LJTI66_3(%rip), %rdi
	movslq	(%rdi,%rsi,4), %rsi
	addq	%rdi, %rsi
	jmpq	*%rsi
LBB66_35:
	movb	$1, %dl
	jmp	LBB66_42
LBB66_40:
	movb	$6, %dl
	jmp	LBB66_42
LBB66_38:
	movb	$4, %dl
	jmp	LBB66_42
LBB66_36:
	movb	$2, %dl
	jmp	LBB66_42
LBB66_37:
	movb	$3, %dl
	jmp	LBB66_42
LBB66_39:
	movb	$5, %dl
	jmp	LBB66_42
LBB66_41:
	movb	$9, %dl
LBB66_42:
	movb	%dl, 8(%rax)
	movb	%cl, 9(%rax)
	movw	%cx, 10(%rax)
	movl	%ecx, 12(%rax)
	movq	%rcx, 16(%rax)
	xorl	%ecx, %ecx
LBB66_23:
	movq	%rcx, (%rax)
	addq	$8, %rsp
	popq	%rbx
	popq	%rbp
	retq
LBB66_13:
	movl	$64, %ecx
	movl	$64, %ebx
	subl	%ecx, %ebx
	jae	LBB66_20
LBB66_16:
	leaq	_str.5(%rip), %rdi
	leaq	l___unnamed_94(%rip), %rdx
	movl	$33, %esi
	callq	__ZN4core9panicking5panic17h383a6b80ea7021aaE
	.cfi_endproc
	.p2align	2, 0x90
	.data_region jt32
.set L66_0_set_7, LBB66_7-LJTI66_0
.set L66_0_set_6, LBB66_6-LJTI66_0
.set L66_0_set_1, LBB66_1-LJTI66_0
.set L66_0_set_2, LBB66_2-LJTI66_0
.set L66_0_set_3, LBB66_3-LJTI66_0
.set L66_0_set_4, LBB66_4-LJTI66_0
.set L66_0_set_11, LBB66_11-LJTI66_0
.set L66_0_set_5, LBB66_5-LJTI66_0
LJTI66_0:
	.long	L66_0_set_7
	.long	L66_0_set_6
	.long	L66_0_set_6
	.long	L66_0_set_1
	.long	L66_0_set_2
	.long	L66_0_set_3
	.long	L66_0_set_4
	.long	L66_0_set_11
	.long	L66_0_set_11
	.long	L66_0_set_5
	.long	L66_0_set_11
.set L66_1_set_12, LBB66_12-LJTI66_1
.set L66_1_set_20, LBB66_20-LJTI66_1
.set L66_1_set_17, LBB66_17-LJTI66_1
.set L66_1_set_18, LBB66_18-LJTI66_1
.set L66_1_set_19, LBB66_19-LJTI66_1
LJTI66_1:
	.long	L66_1_set_12
	.long	L66_1_set_20
	.long	L66_1_set_20
	.long	L66_1_set_17
	.long	L66_1_set_17
	.long	L66_1_set_18
	.long	L66_1_set_18
	.long	L66_1_set_19
	.long	L66_1_set_19
	.long	L66_1_set_18
	.long	L66_1_set_19
.set L66_2_set_25, LBB66_25-LJTI66_2
.set L66_2_set_26, LBB66_26-LJTI66_2
.set L66_2_set_27, LBB66_27-LJTI66_2
.set L66_2_set_28, LBB66_28-LJTI66_2
.set L66_2_set_29, LBB66_29-LJTI66_2
.set L66_2_set_30, LBB66_30-LJTI66_2
.set L66_2_set_31, LBB66_31-LJTI66_2
.set L66_2_set_32, LBB66_32-LJTI66_2
.set L66_2_set_33, LBB66_33-LJTI66_2
.set L66_2_set_34, LBB66_34-LJTI66_2
.set L66_2_set_24, LBB66_24-LJTI66_2
LJTI66_2:
	.long	L66_2_set_25
	.long	L66_2_set_26
	.long	L66_2_set_27
	.long	L66_2_set_28
	.long	L66_2_set_29
	.long	L66_2_set_30
	.long	L66_2_set_31
	.long	L66_2_set_32
	.long	L66_2_set_33
	.long	L66_2_set_34
	.long	L66_2_set_24
.set L66_3_set_42, LBB66_42-LJTI66_3
.set L66_3_set_35, LBB66_35-LJTI66_3
.set L66_3_set_36, LBB66_36-LJTI66_3
.set L66_3_set_37, LBB66_37-LJTI66_3
.set L66_3_set_38, LBB66_38-LJTI66_3
.set L66_3_set_39, LBB66_39-LJTI66_3
.set L66_3_set_40, LBB66_40-LJTI66_3
.set L66_3_set_41, LBB66_41-LJTI66_3
LJTI66_3:
	.long	L66_3_set_42
	.long	L66_3_set_35
	.long	L66_3_set_36
	.long	L66_3_set_37
	.long	L66_3_set_38
	.long	L66_3_set_39
	.long	L66_3_set_40
	.long	L66_3_set_42
	.long	L66_3_set_42
	.long	L66_3_set_41
	.long	L66_3_set_42
	.end_data_region

	.section	__TEXT,__literal16,16byte_literals
	.p2align	4
LCPI67_0:
	.quad	-9223372036854775808
	.quad	-9223372036854775808
LCPI67_1:
	.long	2147483648
	.long	2147483648
	.long	2147483648
	.long	2147483648
	.section	__TEXT,__text,regular,pure_instructions
	.globl	__ZN5gimli4read5value5Value3abs17h71b63266bffc946eE
	.p2align	4, 0x90
__ZN5gimli4read5value5Value3abs17h71b63266bffc946eE:
	.cfi_startproc
	pushq	%rbp
	.cfi_def_cfa_offset 16
	.cfi_offset %rbp, -16
	movq	%rsp, %rbp
	.cfi_def_cfa_register %rbp
	movq	%rdi, %rax
	movb	(%rsi), %r9b
	movzbl	%r9b, %edi
	leaq	LJTI67_0(%rip), %rcx
	movslq	(%rcx,%rdi,4), %rdi
	addq	%rcx, %rdi
	jmpq	*%rdi
LBB67_1:
	movb	1(%rsi), %dl
	movzwl	2(%rsi), %edi
	movl	4(%rsi), %r8d
	movq	8(%rsi), %rsi
	jmp	LBB67_12
LBB67_2:
	movq	%rdx, %rcx
	shrq	%rcx
	incq	%rcx
	andq	8(%rsi), %rdx
	xorq	%rcx, %rdx
	subq	%rcx, %rdx
	movq	%rdx, %rsi
	negq	%rsi
	cmovlq	%rdx, %rsi
	xorl	%r9d, %r9d
	jmp	LBB67_9
LBB67_3:
	movb	1(%rsi), %dl
	movl	%edx, %ecx
	sarb	$7, %cl
	addb	%cl, %dl
	xorb	%cl, %dl
	movb	$1, %r9b
	jmp	LBB67_12
LBB67_4:
	movzwl	2(%rsi), %ecx
	movl	%ecx, %edi
	negw	%di
	cmovlw	%cx, %di
	movb	$3, %r9b
	jmp	LBB67_11
LBB67_5:
	movl	4(%rsi), %ecx
	movl	%ecx, %r8d
	negl	%r8d
	cmovll	%ecx, %r8d
	movb	$5, %r9b
	jmp	LBB67_10
LBB67_6:
	movss	4(%rsi), %xmm0
	movaps	LCPI67_1(%rip), %xmm1
	xorps	%xmm0, %xmm1
	xorps	%xmm2, %xmm2
	movaps	%xmm0, %xmm3
	cmpltss	%xmm2, %xmm3
	andps	%xmm3, %xmm1
	andnps	%xmm0, %xmm3
	orps	%xmm1, %xmm3
	movd	%xmm3, %r8d
	movb	$9, %r9b
	jmp	LBB67_10
LBB67_7:
	movsd	8(%rsi), %xmm0
	movapd	LCPI67_0(%rip), %xmm1
	xorpd	%xmm0, %xmm1
	xorpd	%xmm2, %xmm2
	movapd	%xmm0, %xmm3
	cmpltsd	%xmm2, %xmm3
	andpd	%xmm3, %xmm1
	andnpd	%xmm0, %xmm3
	orpd	%xmm1, %xmm3
	movq	%xmm3, %rsi
	movb	$10, %r9b
	jmp	LBB67_9
LBB67_8:
	movq	8(%rsi), %rcx
	movq	%rcx, %rsi
	negq	%rsi
	cmovlq	%rcx, %rsi
	movb	$7, %r9b
LBB67_9:
LBB67_10:
LBB67_11:
LBB67_12:
	movb	%r9b, 8(%rax)
	movb	%dl, 9(%rax)
	movw	%di, 10(%rax)
	movl	%r8d, 12(%rax)
	movq	%rsi, 16(%rax)
	movq	$0, (%rax)
	popq	%rbp
	retq
	.cfi_endproc
	.p2align	2, 0x90
	.data_region jt32
.set L67_0_set_2, LBB67_2-LJTI67_0
.set L67_0_set_3, LBB67_3-LJTI67_0
.set L67_0_set_1, LBB67_1-LJTI67_0
.set L67_0_set_4, LBB67_4-LJTI67_0
.set L67_0_set_5, LBB67_5-LJTI67_0
.set L67_0_set_8, LBB67_8-LJTI67_0
.set L67_0_set_6, LBB67_6-LJTI67_0
.set L67_0_set_7, LBB67_7-LJTI67_0
LJTI67_0:
	.long	L67_0_set_2
	.long	L67_0_set_3
	.long	L67_0_set_1
	.long	L67_0_set_4
	.long	L67_0_set_1
	.long	L67_0_set_5
	.long	L67_0_set_1
	.long	L67_0_set_8
	.long	L67_0_set_1
	.long	L67_0_set_6
	.long	L67_0_set_7
	.end_data_region

	.globl	__ZN5gimli4read5value5Value3neg17h0fc17cbdf7fee267E
	.p2align	4, 0x90
__ZN5gimli4read5value5Value3neg17h0fc17cbdf7fee267E:
	.cfi_startproc
	pushq	%rbp
	.cfi_def_cfa_offset 16
	.cfi_offset %rbp, -16
	movq	%rsp, %rbp
	.cfi_def_cfa_register %rbp
	movq	%rdi, %rax
	movzbl	(%rsi), %ecx
	leaq	LJTI68_0(%rip), %rdi
	movslq	(%rdi,%rcx,4), %rcx
	addq	%rdi, %rcx
	jmpq	*%rcx
LBB68_1:
	movb	$44, 8(%rax)
	movl	$1, %ecx
	movq	%rcx, (%rax)
	popq	%rbp
	retq
LBB68_2:
	movq	%rdx, %rcx
	shrq	%rcx
	andq	8(%rsi), %rdx
	incq	%rcx
	xorq	%rcx, %rdx
	subq	%rdx, %rcx
	xorl	%edx, %edx
	jmp	LBB68_9
LBB68_3:
	xorl	%r9d, %r9d
	subb	1(%rsi), %r9b
	movb	$1, %dl
	jmp	LBB68_12
LBB68_4:
	xorl	%r8d, %r8d
	subw	2(%rsi), %r8w
	movb	$3, %dl
	jmp	LBB68_11
LBB68_5:
	xorl	%edi, %edi
	subl	4(%rsi), %edi
	movb	$5, %dl
	jmp	LBB68_10
LBB68_6:
	movl	$-2147483648, %edi
	xorl	4(%rsi), %edi
	movb	$9, %dl
	jmp	LBB68_10
LBB68_7:
	movabsq	$-9223372036854775808, %rcx
	xorq	8(%rsi), %rcx
	movb	$10, %dl
	jmp	LBB68_9
LBB68_8:
	xorl	%ecx, %ecx
	subq	8(%rsi), %rcx
	movb	$7, %dl
LBB68_9:
LBB68_10:
LBB68_11:
LBB68_12:
	movb	%dl, 8(%rax)
	movb	%r9b, 9(%rax)
	movw	%r8w, 10(%rax)
	movl	%edi, 12(%rax)
	movq	%rcx, 16(%rax)
	xorl	%ecx, %ecx
	movq	%rcx, (%rax)
	popq	%rbp
	retq
	.cfi_endproc
	.p2align	2, 0x90
	.data_region jt32
.set L68_0_set_2, LBB68_2-LJTI68_0
.set L68_0_set_3, LBB68_3-LJTI68_0
.set L68_0_set_1, LBB68_1-LJTI68_0
.set L68_0_set_4, LBB68_4-LJTI68_0
.set L68_0_set_5, LBB68_5-LJTI68_0
.set L68_0_set_8, LBB68_8-LJTI68_0
.set L68_0_set_6, LBB68_6-LJTI68_0
.set L68_0_set_7, LBB68_7-LJTI68_0
LJTI68_0:
	.long	L68_0_set_2
	.long	L68_0_set_3
	.long	L68_0_set_1
	.long	L68_0_set_4
	.long	L68_0_set_1
	.long	L68_0_set_5
	.long	L68_0_set_1
	.long	L68_0_set_8
	.long	L68_0_set_1
	.long	L68_0_set_6
	.long	L68_0_set_7
	.end_data_region

	.globl	__ZN5gimli4read5value5Value3add17h92b260d4ea975747E
	.p2align	4, 0x90
__ZN5gimli4read5value5Value3add17h92b260d4ea975747E:
	.cfi_startproc
	pushq	%rbp
	.cfi_def_cfa_offset 16
	.cfi_offset %rbp, -16
	movq	%rsp, %rbp
	.cfi_def_cfa_register %rbp
	pushq	%r15
	pushq	%r14
	pushq	%r12
	pushq	%rbx
	.cfi_offset %rbx, -48
	.cfi_offset %r12, -40
	.cfi_offset %r14, -32
	.cfi_offset %r15, -24
	movq	%rdi, %rax
	movzbl	(%rsi), %edi
	cmpq	$10, %rdi
	ja	LBB69_29
	movb	1(%rsi), %r14b
	movzwl	2(%rsi), %r11d
	movl	4(%rsi), %r15d
	movq	8(%rsi), %rsi
	movb	(%rdx), %bl
	movb	1(%rdx), %r8b
	movzwl	2(%rdx), %r10d
	movl	4(%rdx), %r9d
	movq	8(%rdx), %r12
	leaq	LJTI69_0(%rip), %rdx
	movslq	(%rdx,%rdi,4), %rdi
	addq	%rdx, %rdi
	jmpq	*%rdi
LBB69_2:
	testb	%bl, %bl
	jne	LBB69_29
	addq	%rsi, %r12
	andq	%rcx, %r12
	xorl	%ecx, %ecx
	jmp	LBB69_25
LBB69_4:
	cmpb	$1, %bl
	jne	LBB69_29
	addb	%r14b, %r8b
	movb	$1, %cl
	jmp	LBB69_8
LBB69_6:
	cmpb	$2, %bl
	jne	LBB69_29
	addb	%r14b, %r8b
	movb	$2, %cl
LBB69_8:
	jmp	LBB69_28
LBB69_9:
	cmpb	$3, %bl
	jne	LBB69_29
	addl	%r11d, %r10d
	movb	$3, %cl
	jmp	LBB69_27
LBB69_11:
	cmpb	$4, %bl
	jne	LBB69_29
	addl	%r11d, %r10d
	movb	$4, %cl
	jmp	LBB69_27
LBB69_13:
	cmpb	$5, %bl
	jne	LBB69_29
	addl	%r15d, %r9d
	movb	$5, %cl
	jmp	LBB69_26
LBB69_15:
	cmpb	$6, %bl
	jne	LBB69_29
	addl	%r15d, %r9d
	movb	$6, %cl
	jmp	LBB69_26
LBB69_17:
	cmpb	$7, %bl
	jne	LBB69_29
	addq	%rsi, %r12
	movb	$7, %cl
	jmp	LBB69_25
LBB69_19:
	cmpb	$8, %bl
	jne	LBB69_29
	addq	%rsi, %r12
	movb	$8, %cl
	jmp	LBB69_25
LBB69_21:
	cmpb	$9, %bl
	jne	LBB69_29
	movd	%r15d, %xmm0
	movd	%r9d, %xmm1
	addss	%xmm0, %xmm1
	movd	%xmm1, %r9d
	movb	$9, %cl
	jmp	LBB69_26
LBB69_23:
	cmpb	$10, %bl
	jne	LBB69_29
	movq	%rsi, %xmm0
	movq	%r12, %xmm1
	addsd	%xmm0, %xmm1
	movq	%xmm1, %r12
	movb	$10, %cl
LBB69_25:
LBB69_26:
LBB69_27:
LBB69_28:
	movb	%cl, 8(%rax)
	movb	%r8b, 9(%rax)
	movw	%r10w, 10(%rax)
	movl	%r9d, 12(%rax)
	movq	%r12, 16(%rax)
	xorl	%ecx, %ecx
	jmp	LBB69_30
LBB69_29:
	movb	$42, 8(%rax)
	movl	$1, %ecx
LBB69_30:
	movq	%rcx, (%rax)
	popq	%rbx
	popq	%r12
	popq	%r14
	popq	%r15
	popq	%rbp
	retq
	.cfi_endproc
	.p2align	2, 0x90
	.data_region jt32
.set L69_0_set_2, LBB69_2-LJTI69_0
.set L69_0_set_4, LBB69_4-LJTI69_0
.set L69_0_set_6, LBB69_6-LJTI69_0
.set L69_0_set_9, LBB69_9-LJTI69_0
.set L69_0_set_11, LBB69_11-LJTI69_0
.set L69_0_set_13, LBB69_13-LJTI69_0
.set L69_0_set_15, LBB69_15-LJTI69_0
.set L69_0_set_17, LBB69_17-LJTI69_0
.set L69_0_set_19, LBB69_19-LJTI69_0
.set L69_0_set_21, LBB69_21-LJTI69_0
.set L69_0_set_23, LBB69_23-LJTI69_0
LJTI69_0:
	.long	L69_0_set_2
	.long	L69_0_set_4
	.long	L69_0_set_6
	.long	L69_0_set_9
	.long	L69_0_set_11
	.long	L69_0_set_13
	.long	L69_0_set_15
	.long	L69_0_set_17
	.long	L69_0_set_19
	.long	L69_0_set_21
	.long	L69_0_set_23
	.end_data_region

	.globl	__ZN5gimli4read5value5Value3sub17hc0fbf58ee2c67f84E
	.p2align	4, 0x90
__ZN5gimli4read5value5Value3sub17hc0fbf58ee2c67f84E:
	.cfi_startproc
	pushq	%rbp
	.cfi_def_cfa_offset 16
	.cfi_offset %rbp, -16
	movq	%rsp, %rbp
	.cfi_def_cfa_register %rbp
	pushq	%r15
	pushq	%r14
	pushq	%r12
	pushq	%rbx
	.cfi_offset %rbx, -48
	.cfi_offset %r12, -40
	.cfi_offset %r14, -32
	.cfi_offset %r15, -24
	movq	%rdi, %rax
	movzbl	(%rsi), %edi
	cmpq	$10, %rdi
	ja	LBB70_29
	movb	1(%rsi), %r9b
	movzwl	2(%rsi), %r11d
	movl	4(%rsi), %r8d
	movq	8(%rsi), %r10
	movb	(%rdx), %bl
	movb	1(%rdx), %r14b
	movzwl	2(%rdx), %r15d
	movl	4(%rdx), %esi
	movq	8(%rdx), %r12
	leaq	LJTI70_0(%rip), %rdx
	movslq	(%rdx,%rdi,4), %rdi
	addq	%rdx, %rdi
	jmpq	*%rdi
LBB70_2:
	testb	%bl, %bl
	jne	LBB70_29
	subq	%r12, %r10
	andq	%rcx, %r10
	xorl	%ecx, %ecx
	jmp	LBB70_25
LBB70_4:
	cmpb	$1, %bl
	jne	LBB70_29
	subb	%r14b, %r9b
	movb	$1, %cl
	jmp	LBB70_8
LBB70_6:
	cmpb	$2, %bl
	jne	LBB70_29
	subb	%r14b, %r9b
	movb	$2, %cl
LBB70_8:
	jmp	LBB70_28
LBB70_9:
	cmpb	$3, %bl
	jne	LBB70_29
	subl	%r15d, %r11d
	movb	$3, %cl
	jmp	LBB70_27
LBB70_11:
	cmpb	$4, %bl
	jne	LBB70_29
	subl	%r15d, %r11d
	movb	$4, %cl
	jmp	LBB70_27
LBB70_13:
	cmpb	$5, %bl
	jne	LBB70_29
	subl	%esi, %r8d
	movb	$5, %cl
	jmp	LBB70_26
LBB70_15:
	cmpb	$6, %bl
	jne	LBB70_29
	subl	%esi, %r8d
	movb	$6, %cl
	jmp	LBB70_26
LBB70_17:
	cmpb	$7, %bl
	jne	LBB70_29
	subq	%r12, %r10
	movb	$7, %cl
	jmp	LBB70_25
LBB70_19:
	cmpb	$8, %bl
	jne	LBB70_29
	subq	%r12, %r10
	movb	$8, %cl
	jmp	LBB70_25
LBB70_21:
	cmpb	$9, %bl
	jne	LBB70_29
	movd	%r8d, %xmm0
	movd	%esi, %xmm1
	subss	%xmm1, %xmm0
	movd	%xmm0, %r8d
	movb	$9, %cl
	jmp	LBB70_26
LBB70_23:
	cmpb	$10, %bl
	jne	LBB70_29
	movq	%r10, %xmm0
	movq	%r12, %xmm1
	subsd	%xmm1, %xmm0
	movq	%xmm0, %r10
	movb	$10, %cl
LBB70_25:
LBB70_26:
LBB70_27:
LBB70_28:
	movb	%cl, 8(%rax)
	movb	%r9b, 9(%rax)
	movw	%r11w, 10(%rax)
	movl	%r8d, 12(%rax)
	movq	%r10, 16(%rax)
	xorl	%ecx, %ecx
	jmp	LBB70_30
LBB70_29:
	movb	$42, 8(%rax)
	movl	$1, %ecx
LBB70_30:
	movq	%rcx, (%rax)
	popq	%rbx
	popq	%r12
	popq	%r14
	popq	%r15
	popq	%rbp
	retq
	.cfi_endproc
	.p2align	2, 0x90
	.data_region jt32
.set L70_0_set_2, LBB70_2-LJTI70_0
.set L70_0_set_4, LBB70_4-LJTI70_0
.set L70_0_set_6, LBB70_6-LJTI70_0
.set L70_0_set_9, LBB70_9-LJTI70_0
.set L70_0_set_11, LBB70_11-LJTI70_0
.set L70_0_set_13, LBB70_13-LJTI70_0
.set L70_0_set_15, LBB70_15-LJTI70_0
.set L70_0_set_17, LBB70_17-LJTI70_0
.set L70_0_set_19, LBB70_19-LJTI70_0
.set L70_0_set_21, LBB70_21-LJTI70_0
.set L70_0_set_23, LBB70_23-LJTI70_0
LJTI70_0:
	.long	L70_0_set_2
	.long	L70_0_set_4
	.long	L70_0_set_6
	.long	L70_0_set_9
	.long	L70_0_set_11
	.long	L70_0_set_13
	.long	L70_0_set_15
	.long	L70_0_set_17
	.long	L70_0_set_19
	.long	L70_0_set_21
	.long	L70_0_set_23
	.end_data_region

	.globl	__ZN5gimli4read5value5Value3mul17ha2d83369332b8f93E
	.p2align	4, 0x90
__ZN5gimli4read5value5Value3mul17ha2d83369332b8f93E:
	.cfi_startproc
	pushq	%rbp
	.cfi_def_cfa_offset 16
	.cfi_offset %rbp, -16
	movq	%rsp, %rbp
	.cfi_def_cfa_register %rbp
	pushq	%r15
	pushq	%r14
	pushq	%r12
	pushq	%rbx
	.cfi_offset %rbx, -48
	.cfi_offset %r12, -40
	.cfi_offset %r14, -32
	.cfi_offset %r15, -24
	movq	%rdi, %r15
	movzbl	(%rsi), %edi
	cmpq	$10, %rdi
	ja	LBB71_29
	movb	1(%rsi), %r14b
	movzwl	2(%rsi), %r11d
	movl	4(%rsi), %r10d
	movq	8(%rsi), %rsi
	movb	(%rdx), %bl
	movb	1(%rdx), %al
	movzwl	2(%rdx), %r9d
	movl	4(%rdx), %r8d
	movq	8(%rdx), %r12
	leaq	LJTI71_0(%rip), %rdx
	movslq	(%rdx,%rdi,4), %rdi
	addq	%rdx, %rdi
	jmpq	*%rdi
LBB71_2:
	testb	%bl, %bl
	jne	LBB71_29
	imulq	%rsi, %r12
	andq	%rcx, %r12
	xorl	%ecx, %ecx
	jmp	LBB71_25
LBB71_4:
	cmpb	$1, %bl
	jne	LBB71_29
	movb	$1, %cl
	jmp	LBB71_8
LBB71_6:
	cmpb	$2, %bl
	jne	LBB71_29
	movb	$2, %cl
LBB71_8:
	mulb	%r14b
	jmp	LBB71_28
LBB71_9:
	cmpb	$3, %bl
	jne	LBB71_29
	imull	%r11d, %r9d
	movb	$3, %cl
	jmp	LBB71_27
LBB71_11:
	cmpb	$4, %bl
	jne	LBB71_29
	imull	%r11d, %r9d
	movb	$4, %cl
	jmp	LBB71_27
LBB71_13:
	cmpb	$5, %bl
	jne	LBB71_29
	imull	%r10d, %r8d
	movb	$5, %cl
	jmp	LBB71_26
LBB71_15:
	cmpb	$6, %bl
	jne	LBB71_29
	imull	%r10d, %r8d
	movb	$6, %cl
	jmp	LBB71_26
LBB71_17:
	cmpb	$7, %bl
	jne	LBB71_29
	imulq	%rsi, %r12
	movb	$7, %cl
	jmp	LBB71_25
LBB71_19:
	cmpb	$8, %bl
	jne	LBB71_29
	imulq	%rsi, %r12
	movb	$8, %cl
	jmp	LBB71_25
LBB71_21:
	cmpb	$9, %bl
	jne	LBB71_29
	movd	%r10d, %xmm0
	movd	%r8d, %xmm1
	mulss	%xmm0, %xmm1
	movd	%xmm1, %r8d
	movb	$9, %cl
	jmp	LBB71_26
LBB71_23:
	cmpb	$10, %bl
	jne	LBB71_29
	movq	%rsi, %xmm0
	movq	%r12, %xmm1
	mulsd	%xmm0, %xmm1
	movq	%xmm1, %r12
	movb	$10, %cl
LBB71_25:
LBB71_26:
LBB71_27:
LBB71_28:
	movb	%cl, 8(%r15)
	movb	%al, 9(%r15)
	movw	%r9w, 10(%r15)
	movl	%r8d, 12(%r15)
	movq	%r12, 16(%r15)
	xorl	%eax, %eax
	jmp	LBB71_30
LBB71_29:
	movb	$42, 8(%r15)
	movl	$1, %eax
LBB71_30:
	movq	%rax, (%r15)
	movq	%r15, %rax
	popq	%rbx
	popq	%r12
	popq	%r14
	popq	%r15
	popq	%rbp
	retq
	.cfi_endproc
	.p2align	2, 0x90
	.data_region jt32
.set L71_0_set_2, LBB71_2-LJTI71_0
.set L71_0_set_4, LBB71_4-LJTI71_0
.set L71_0_set_6, LBB71_6-LJTI71_0
.set L71_0_set_9, LBB71_9-LJTI71_0
.set L71_0_set_11, LBB71_11-LJTI71_0
.set L71_0_set_13, LBB71_13-LJTI71_0
.set L71_0_set_15, LBB71_15-LJTI71_0
.set L71_0_set_17, LBB71_17-LJTI71_0
.set L71_0_set_19, LBB71_19-LJTI71_0
.set L71_0_set_21, LBB71_21-LJTI71_0
.set L71_0_set_23, LBB71_23-LJTI71_0
LJTI71_0:
	.long	L71_0_set_2
	.long	L71_0_set_4
	.long	L71_0_set_6
	.long	L71_0_set_9
	.long	L71_0_set_11
	.long	L71_0_set_13
	.long	L71_0_set_15
	.long	L71_0_set_17
	.long	L71_0_set_19
	.long	L71_0_set_21
	.long	L71_0_set_23
	.end_data_region

	.globl	__ZN5gimli4read5value5Value3div17hf11fd7cc1059299fE
	.p2align	4, 0x90
__ZN5gimli4read5value5Value3div17hf11fd7cc1059299fE:
	.cfi_startproc
	pushq	%rbp
	.cfi_def_cfa_offset 16
	.cfi_offset %rbp, -16
	movq	%rsp, %rbp
	.cfi_def_cfa_register %rbp
	pushq	%r15
	pushq	%r14
	pushq	%r12
	pushq	%rbx
	.cfi_offset %rbx, -48
	.cfi_offset %r12, -40
	.cfi_offset %r14, -32
	.cfi_offset %r15, -24
	movq	%rdi, %r10
	movzbl	(%rdx), %edi
	cmpq	$8, %rdi
	ja	LBB72_3
	leaq	LJTI72_0(%rip), %rax
	movslq	(%rax,%rdi,4), %rbx
	addq	%rax, %rbx
	jmpq	*%rbx
LBB72_11:
	cmpb	$0, 1(%rdx)
	jne	LBB72_3
LBB72_8:
	movb	$41, 8(%r10)
	jmp	LBB72_9
LBB72_5:
	cmpl	$0, 4(%rdx)
	je	LBB72_8
LBB72_3:
	movzbl	(%rsi), %ebx
	cmpq	$10, %rbx
	ja	LBB72_13
	movb	1(%rsi), %r14b
	movzwl	2(%rsi), %r8d
	movl	4(%rsi), %eax
	movq	8(%rsi), %r9
	movb	1(%rdx), %r12b
	movzwl	2(%rdx), %esi
	movl	4(%rdx), %r15d
	movq	8(%rdx), %r11
	leaq	LJTI72_1(%rip), %rdx
	movslq	(%rdx,%rbx,4), %rbx
	addq	%rdx, %rbx
	jmpq	*%rbx
LBB72_12:
	testb	%dil, %dil
	jne	LBB72_13
	movabsq	$-9223372036854775808, %rax
	movq	%rcx, %rdx
	shrq	%rdx
	incq	%rdx
	andq	%rcx, %r9
	xorq	%rdx, %r9
	subq	%rdx, %r9
	andq	%rcx, %r11
	xorq	%rdx, %r11
	subq	%rdx, %r11
	cmpq	%rax, %r9
	jne	LBB72_17
	cmpq	$-1, %r11
	je	LBB72_16
LBB72_17:
	testq	%r11, %r11
	je	LBB72_55
	movq	%r9, %rax
	cqto
	idivq	%r11
	xorl	%ecx, %ecx
	jmp	LBB72_63
LBB72_2:
	cmpw	$0, 2(%rdx)
	jne	LBB72_3
	jmp	LBB72_8
LBB72_6:
	cmpq	$0, 8(%rdx)
	jne	LBB72_3
	jmp	LBB72_8
LBB72_7:
	testq	%rcx, 8(%rdx)
	jne	LBB72_3
	jmp	LBB72_8
LBB72_37:
	cmpb	$4, %dil
	jne	LBB72_13
	testw	%si, %si
	je	LBB72_65
	movl	%r8d, %eax
	xorl	%edx, %edx
	divw	%si
	movl	%eax, %r8d
	movb	$4, %cl
	jmp	LBB72_64
LBB72_59:
	cmpb	$9, %dil
	jne	LBB72_13
	movd	%eax, %xmm0
	movd	%r15d, %xmm1
	divss	%xmm1, %xmm0
	movd	%xmm0, %esi
	movb	$9, %cl
	jmp	LBB72_64
LBB72_27:
	cmpb	$2, %dil
	jne	LBB72_13
	testb	%r12b, %r12b
	je	LBB72_65
	movzbl	%r14b, %eax
	divb	%r12b
	movl	%eax, %edx
	movb	$2, %cl
	jmp	LBB72_64
LBB72_30:
	cmpb	$3, %dil
	jne	LBB72_13
	movzwl	%r8w, %eax
	movb	$3, %cl
	cmpl	$32768, %eax
	jne	LBB72_35
	cmpw	$-1, %si
	je	LBB72_33
LBB72_35:
	testw	%si, %si
	je	LBB72_55
	movl	%r8d, %eax
	cwtd
	idivw	%si
	movl	%eax, %r8d
	jmp	LBB72_64
LBB72_50:
	cmpb	$7, %dil
	jne	LBB72_13
	movabsq	$-9223372036854775808, %rax
	movb	$7, %cl
	cmpq	%rax, %r9
	jne	LBB72_53
	cmpq	$-1, %r11
	je	LBB72_63
LBB72_53:
	testq	%r11, %r11
	je	LBB72_55
	movq	%r9, %rax
	cqto
	idivq	%r11
	jmp	LBB72_63
LBB72_19:
	cmpb	$1, %dil
	jne	LBB72_13
	movb	$1, %cl
	cmpb	$-128, %r14b
	jne	LBB72_25
	cmpb	$-1, %r12b
	je	LBB72_22
LBB72_25:
	testb	%r12b, %r12b
	je	LBB72_55
	movsbl	%r14b, %eax
	idivb	%r12b
	movl	%eax, %edx
	jmp	LBB72_64
LBB72_40:
	cmpb	$5, %dil
	jne	LBB72_13
	movb	$5, %cl
	cmpl	$-2147483648, %eax
	jne	LBB72_45
	cmpl	$-1, %r15d
	je	LBB72_43
LBB72_45:
	testl	%r15d, %r15d
	je	LBB72_55
	cltd
	idivl	%r15d
	movl	%eax, %esi
	jmp	LBB72_64
LBB72_47:
	cmpb	$6, %dil
	jne	LBB72_13
	testl	%r15d, %r15d
	je	LBB72_65
	xorl	%edx, %edx
	divl	%r15d
	movl	%eax, %esi
	movb	$6, %cl
	jmp	LBB72_64
LBB72_56:
	cmpb	$8, %dil
	jne	LBB72_13
	testq	%r11, %r11
	je	LBB72_65
	movq	%r9, %rax
	xorl	%edx, %edx
	divq	%r11
	movb	$8, %cl
	jmp	LBB72_63
LBB72_61:
	cmpb	$10, %dil
	jne	LBB72_13
	movq	%r9, %xmm0
	movq	%r11, %xmm1
	divsd	%xmm1, %xmm0
	movq	%xmm0, %rax
	movb	$10, %cl
LBB72_63:
LBB72_64:
	movb	%cl, 8(%r10)
	movb	%dl, 9(%r10)
	movw	%r8w, 10(%r10)
	movl	%esi, 12(%r10)
	movq	%rax, 16(%r10)
	xorl	%eax, %eax
	jmp	LBB72_10
LBB72_13:
	movb	$42, 8(%r10)
LBB72_9:
	movl	$1, %eax
LBB72_10:
	movq	%rax, (%r10)
	movq	%r10, %rax
	popq	%rbx
	popq	%r12
	popq	%r14
	popq	%r15
	popq	%rbp
	retq
LBB72_33:
	movw	$-32768, %r8w
	jmp	LBB72_64
LBB72_22:
	movb	$-128, %dl
	jmp	LBB72_64
LBB72_43:
	movl	$-2147483648, %esi
	jmp	LBB72_64
LBB72_16:
	xorl	%ecx, %ecx
	jmp	LBB72_63
LBB72_55:
	leaq	_str.0(%rip), %rdi
	leaq	l___unnamed_95(%rip), %rdx
	movl	$25, %esi
	callq	__ZN4core9panicking5panic17h383a6b80ea7021aaE
LBB72_65:
	leaq	_str.0(%rip), %rdi
	leaq	l___unnamed_96(%rip), %rdx
	movl	$25, %esi
	callq	__ZN4core9panicking5panic17h383a6b80ea7021aaE
	.cfi_endproc
	.p2align	2, 0x90
	.data_region jt32
.set L72_0_set_7, LBB72_7-LJTI72_0
.set L72_0_set_11, LBB72_11-LJTI72_0
.set L72_0_set_2, LBB72_2-LJTI72_0
.set L72_0_set_5, LBB72_5-LJTI72_0
.set L72_0_set_6, LBB72_6-LJTI72_0
LJTI72_0:
	.long	L72_0_set_7
	.long	L72_0_set_11
	.long	L72_0_set_11
	.long	L72_0_set_2
	.long	L72_0_set_2
	.long	L72_0_set_5
	.long	L72_0_set_5
	.long	L72_0_set_6
	.long	L72_0_set_6
.set L72_1_set_12, LBB72_12-LJTI72_1
.set L72_1_set_19, LBB72_19-LJTI72_1
.set L72_1_set_27, LBB72_27-LJTI72_1
.set L72_1_set_30, LBB72_30-LJTI72_1
.set L72_1_set_37, LBB72_37-LJTI72_1
.set L72_1_set_40, LBB72_40-LJTI72_1
.set L72_1_set_47, LBB72_47-LJTI72_1
.set L72_1_set_50, LBB72_50-LJTI72_1
.set L72_1_set_56, LBB72_56-LJTI72_1
.set L72_1_set_59, LBB72_59-LJTI72_1
.set L72_1_set_61, LBB72_61-LJTI72_1
LJTI72_1:
	.long	L72_1_set_12
	.long	L72_1_set_19
	.long	L72_1_set_27
	.long	L72_1_set_30
	.long	L72_1_set_37
	.long	L72_1_set_40
	.long	L72_1_set_47
	.long	L72_1_set_50
	.long	L72_1_set_56
	.long	L72_1_set_59
	.long	L72_1_set_61
	.end_data_region

	.globl	__ZN5gimli4read5value5Value3rem17h1567defbb093ba9dE
	.p2align	4, 0x90
__ZN5gimli4read5value5Value3rem17h1567defbb093ba9dE:
	.cfi_startproc
	pushq	%rbp
	.cfi_def_cfa_offset 16
	.cfi_offset %rbp, -16
	movq	%rsp, %rbp
	.cfi_def_cfa_register %rbp
	pushq	%r15
	pushq	%r14
	pushq	%r13
	pushq	%r12
	pushq	%rbx
	pushq	%rax
	.cfi_offset %rbx, -56
	.cfi_offset %r12, -48
	.cfi_offset %r13, -40
	.cfi_offset %r14, -32
	.cfi_offset %r15, -24
	movq	%rdi, %r13
	movzbl	(%rdx), %ebx
	cmpq	$8, %rbx
	ja	LBB73_3
	leaq	LJTI73_0(%rip), %rax
	movslq	(%rax,%rbx,4), %rdi
	addq	%rax, %rdi
	jmpq	*%rdi
LBB73_11:
	cmpb	$0, 1(%rdx)
	jne	LBB73_3
LBB73_8:
	movb	$41, 8(%r13)
	jmp	LBB73_9
LBB73_5:
	cmpl	$0, 4(%rdx)
	je	LBB73_8
LBB73_3:
	movzbl	(%rsi), %edi
	cmpq	$10, %rdi
	ja	LBB73_13
	movb	1(%rsi), %r14b
	movzwl	2(%rsi), %r8d
	movl	4(%rsi), %r9d
	movq	8(%rsi), %rax
	movb	1(%rdx), %r15b
	movzwl	2(%rdx), %r12d
	movl	4(%rdx), %esi
	movq	8(%rdx), %r11
	leaq	LJTI73_1(%rip), %rdx
	movslq	(%rdx,%rdi,4), %rdi
	addq	%rdx, %rdi
	jmpq	*%rdi
LBB73_12:
	testb	%bl, %bl
	jne	LBB73_13
	andq	%rcx, %r11
	je	LBB73_63
	andq	%rcx, %rax
	xorl	%edx, %edx
	divq	%r11
	movq	%rdx, %rax
	xorl	%r10d, %r10d
	jmp	LBB73_44
LBB73_2:
	cmpw	$0, 2(%rdx)
	jne	LBB73_3
	jmp	LBB73_8
LBB73_6:
	cmpq	$0, 8(%rdx)
	jne	LBB73_3
	jmp	LBB73_8
LBB73_7:
	testq	%rcx, 8(%rdx)
	jne	LBB73_3
	jmp	LBB73_8
LBB73_35:
	cmpb	$4, %bl
	jne	LBB73_13
	testw	%r12w, %r12w
	je	LBB73_63
	movl	%r8d, %eax
	xorl	%edx, %edx
	divw	%r12w
	movb	$4, %r10b
	jmp	LBB73_43
LBB73_61:
	cmpb	$9, %bl
	je	LBB73_62
	jmp	LBB73_13
LBB73_25:
	cmpb	$2, %bl
	jne	LBB73_13
	testb	%r15b, %r15b
	je	LBB73_63
	movzbl	%r14b, %eax
	divb	%r15b
	movzbl	%ah, %ebx
	movb	$2, %r10b
	jmp	LBB73_43
LBB73_28:
	cmpb	$3, %bl
	jne	LBB73_13
	movzwl	%r8w, %eax
	movb	$3, %r10b
	cmpl	$32768, %eax
	jne	LBB73_33
	cmpw	$-1, %r12w
	je	LBB73_31
LBB73_33:
	testw	%r12w, %r12w
	je	LBB73_57
	movl	%r8d, %eax
	cwtd
	idivw	%r12w
	jmp	LBB73_43
LBB73_50:
	cmpb	$7, %bl
	jne	LBB73_13
	movabsq	$-9223372036854775808, %rcx
	movb	$7, %r10b
	cmpq	%rcx, %rax
	jne	LBB73_55
	cmpq	$-1, %r11
	je	LBB73_53
LBB73_55:
	testq	%r11, %r11
	je	LBB73_57
	cqto
	idivq	%r11
	movq	%rdx, %rax
	jmp	LBB73_44
LBB73_17:
	cmpb	$1, %bl
	jne	LBB73_13
	movb	$1, %r10b
	cmpb	$-128, %r14b
	jne	LBB73_23
	cmpb	$-1, %r15b
	je	LBB73_20
LBB73_23:
	testb	%r15b, %r15b
	je	LBB73_57
	movsbl	%r14b, %eax
	idivb	%r15b
	movsbl	%ah, %ebx
	jmp	LBB73_43
LBB73_38:
	cmpb	$5, %bl
	jne	LBB73_13
	movb	$5, %r10b
	cmpl	$-2147483648, %r9d
	jne	LBB73_45
	cmpl	$-1, %esi
	je	LBB73_41
LBB73_45:
	testl	%esi, %esi
	je	LBB73_57
	movl	%r9d, %eax
	cltd
	idivl	%esi
	movl	%edx, %ecx
	jmp	LBB73_42
LBB73_47:
	cmpb	$6, %bl
	jne	LBB73_13
	testl	%esi, %esi
	je	LBB73_63
	movl	%r9d, %eax
	xorl	%edx, %edx
	divl	%esi
	movl	%edx, %ecx
	movb	$6, %r10b
LBB73_42:
LBB73_43:
LBB73_44:
	movb	%r10b, 8(%r13)
	movb	%bl, 9(%r13)
	movw	%dx, 10(%r13)
	movl	%ecx, 12(%r13)
	movq	%rax, 16(%r13)
	xorl	%eax, %eax
	jmp	LBB73_10
LBB73_14:
	cmpb	$10, %bl
	jne	LBB73_13
LBB73_62:
	movb	$43, 8(%r13)
	jmp	LBB73_9
LBB73_58:
	cmpb	$8, %bl
	jne	LBB73_13
	testq	%r11, %r11
	je	LBB73_63
	xorl	%edx, %edx
	divq	%r11
	movq	%rdx, %rax
	movb	$8, %r10b
	jmp	LBB73_44
LBB73_13:
	movb	$42, 8(%r13)
LBB73_9:
	movl	$1, %eax
LBB73_10:
	movq	%rax, (%r13)
	movq	%r13, %rax
	addq	$8, %rsp
	popq	%rbx
	popq	%r12
	popq	%r13
	popq	%r14
	popq	%r15
	popq	%rbp
	retq
LBB73_31:
	xorl	%edx, %edx
	jmp	LBB73_43
LBB73_53:
	xorl	%eax, %eax
	jmp	LBB73_44
LBB73_20:
	xorl	%ebx, %ebx
	jmp	LBB73_43
LBB73_41:
	xorl	%ecx, %ecx
	jmp	LBB73_42
LBB73_63:
	leaq	_str.2(%rip), %rdi
	leaq	l___unnamed_97(%rip), %rdx
	movl	$57, %esi
	callq	__ZN4core9panicking5panic17h383a6b80ea7021aaE
LBB73_57:
	leaq	_str.2(%rip), %rdi
	leaq	l___unnamed_98(%rip), %rdx
	movl	$57, %esi
	callq	__ZN4core9panicking5panic17h383a6b80ea7021aaE
	.cfi_endproc
	.p2align	2, 0x90
	.data_region jt32
.set L73_0_set_7, LBB73_7-LJTI73_0
.set L73_0_set_11, LBB73_11-LJTI73_0
.set L73_0_set_2, LBB73_2-LJTI73_0
.set L73_0_set_5, LBB73_5-LJTI73_0
.set L73_0_set_6, LBB73_6-LJTI73_0
LJTI73_0:
	.long	L73_0_set_7
	.long	L73_0_set_11
	.long	L73_0_set_11
	.long	L73_0_set_2
	.long	L73_0_set_2
	.long	L73_0_set_5
	.long	L73_0_set_5
	.long	L73_0_set_6
	.long	L73_0_set_6
.set L73_1_set_12, LBB73_12-LJTI73_1
.set L73_1_set_17, LBB73_17-LJTI73_1
.set L73_1_set_25, LBB73_25-LJTI73_1
.set L73_1_set_28, LBB73_28-LJTI73_1
.set L73_1_set_35, LBB73_35-LJTI73_1
.set L73_1_set_38, LBB73_38-LJTI73_1
.set L73_1_set_47, LBB73_47-LJTI73_1
.set L73_1_set_50, LBB73_50-LJTI73_1
.set L73_1_set_58, LBB73_58-LJTI73_1
.set L73_1_set_61, LBB73_61-LJTI73_1
.set L73_1_set_14, LBB73_14-LJTI73_1
LJTI73_1:
	.long	L73_1_set_12
	.long	L73_1_set_17
	.long	L73_1_set_25
	.long	L73_1_set_28
	.long	L73_1_set_35
	.long	L73_1_set_38
	.long	L73_1_set_47
	.long	L73_1_set_50
	.long	L73_1_set_58
	.long	L73_1_set_61
	.long	L73_1_set_14
	.end_data_region

	.globl	__ZN5gimli4read5value5Value3not17ha1fc10d49e20e063E
	.p2align	4, 0x90
__ZN5gimli4read5value5Value3not17ha1fc10d49e20e063E:
	.cfi_startproc
	pushq	%rbp
	.cfi_def_cfa_offset 16
	.cfi_offset %rbp, -16
	movq	%rsp, %rbp
	.cfi_def_cfa_register %rbp
	movq	%rdi, %rax
	movzbl	(%rsi), %ecx
	leaq	LJTI74_0(%rip), %rdi
	movslq	(%rdi,%rcx,4), %rcx
	addq	%rdi, %rcx
	jmpq	*%rcx
LBB74_16:
	movq	$43, 8(%rax)
	movl	$1, %ecx
	movq	%rcx, (%rax)
	popq	%rbp
	retq
LBB74_1:
	andq	8(%rsi), %rdx
	notq	%rdx
	xorl	%esi, %esi
	jmp	LBB74_14
LBB74_2:
	movb	1(%rsi), %cl
	notb	%cl
	movb	$1, %sil
	jmp	LBB74_15
LBB74_4:
	movb	1(%rsi), %cl
	notb	%cl
	movb	$2, %sil
	jmp	LBB74_15
LBB74_5:
	movzwl	2(%rsi), %edi
	notl	%edi
	movb	$3, %sil
	jmp	LBB74_15
LBB74_8:
	movzwl	2(%rsi), %edi
	notl	%edi
	movb	$4, %sil
	jmp	LBB74_15
LBB74_9:
	movl	4(%rsi), %r8d
	notl	%r8d
	movb	$5, %sil
	jmp	LBB74_15
LBB74_11:
	movl	4(%rsi), %r8d
	notl	%r8d
	movb	$6, %sil
	jmp	LBB74_15
LBB74_12:
	movq	8(%rsi), %rdx
	notq	%rdx
	movb	$7, %sil
	jmp	LBB74_14
LBB74_13:
	movq	8(%rsi), %rdx
	notq	%rdx
	movb	$8, %sil
LBB74_14:
LBB74_15:
	movb	%sil, 8(%rax)
	movb	%cl, 9(%rax)
	movw	%di, 10(%rax)
	movl	%r8d, 12(%rax)
	movq	%rdx, 16(%rax)
	xorl	%ecx, %ecx
	movq	%rcx, (%rax)
	popq	%rbp
	retq
	.cfi_endproc
	.p2align	2, 0x90
	.data_region jt32
.set L74_0_set_1, LBB74_1-LJTI74_0
.set L74_0_set_2, LBB74_2-LJTI74_0
.set L74_0_set_4, LBB74_4-LJTI74_0
.set L74_0_set_5, LBB74_5-LJTI74_0
.set L74_0_set_8, LBB74_8-LJTI74_0
.set L74_0_set_9, LBB74_9-LJTI74_0
.set L74_0_set_11, LBB74_11-LJTI74_0
.set L74_0_set_12, LBB74_12-LJTI74_0
.set L74_0_set_13, LBB74_13-LJTI74_0
.set L74_0_set_16, LBB74_16-LJTI74_0
LJTI74_0:
	.long	L74_0_set_1
	.long	L74_0_set_2
	.long	L74_0_set_4
	.long	L74_0_set_5
	.long	L74_0_set_8
	.long	L74_0_set_9
	.long	L74_0_set_11
	.long	L74_0_set_12
	.long	L74_0_set_13
	.long	L74_0_set_16
	.long	L74_0_set_16
	.end_data_region

	.section	__TEXT,__literal16,16byte_literals
	.p2align	4
LCPI75_0:
	.long	1127219200
	.long	1160773632
	.long	0
	.long	0
LCPI75_1:
	.quad	4841369599423283200
	.quad	4985484787499139072
	.section	__TEXT,__text,regular,pure_instructions
	.globl	__ZN5gimli4read5value5Value3and17hea2a6f6f870c8c92E
	.p2align	4, 0x90
__ZN5gimli4read5value5Value3and17hea2a6f6f870c8c92E:
	.cfi_startproc
	pushq	%rbp
	.cfi_def_cfa_offset 16
	.cfi_offset %rbp, -16
	movq	%rsp, %rbp
	.cfi_def_cfa_register %rbp
	pushq	%r15
	pushq	%r14
	pushq	%rbx
	.cfi_offset %rbx, -40
	.cfi_offset %r14, -32
	.cfi_offset %r15, -24
	movq	%rdi, %rax
	movb	(%rsi), %r8b
	movzbl	(%rdx), %edi
	cmpb	%dil, %r8b
	jne	LBB75_9
	movzbl	%r8b, %r9d
	cmpq	$8, %r9
	ja	LBB75_35
	movsbq	1(%rsi), %r11
	movswq	2(%rsi), %r14
	movslq	4(%rsi), %r15
	movq	8(%rsi), %r10
	leaq	LJTI75_0(%rip), %rsi
	movslq	(%rsi,%r9,4), %rbx
	addq	%rsi, %rbx
	jmpq	*%rbx
LBB75_12:
	andq	%rcx, %r10
	jmp	LBB75_13
LBB75_9:
	movb	$42, 8(%rax)
LBB75_10:
	movl	$1, %ecx
	jmp	LBB75_11
LBB75_3:
	movq	%r11, %r10
	jmp	LBB75_13
LBB75_4:
	movzbl	%r11b, %r10d
	jmp	LBB75_13
LBB75_5:
	movq	%r14, %r10
	jmp	LBB75_13
LBB75_6:
	movzwl	%r14w, %r10d
	jmp	LBB75_13
LBB75_7:
	movq	%r15, %r10
	jmp	LBB75_13
LBB75_8:
	movl	%r15d, %r10d
LBB75_13:
	cmpq	$8, %rdi
	ja	LBB75_35
	movsbq	1(%rdx), %r11
	movswq	2(%rdx), %r14
	movslq	4(%rdx), %rbx
	movq	8(%rdx), %rdx
	leaq	LJTI75_1(%rip), %rsi
	movslq	(%rsi,%rdi,4), %rdi
	addq	%rsi, %rdi
	jmpq	*%rdi
LBB75_22:
	andq	%r10, %rdx
	leaq	LJTI75_2(%rip), %rcx
	movslq	(%rcx,%r9,4), %rsi
	addq	%rcx, %rsi
	jmpq	*%rsi
LBB75_35:
	movq	$43, 8(%rax)
	jmp	LBB75_10
LBB75_15:
	andq	%rcx, %rdx
	andq	%r10, %rdx
	leaq	LJTI75_2(%rip), %rcx
	movslq	(%rcx,%r9,4), %rsi
	addq	%rcx, %rsi
	jmpq	*%rsi
LBB75_16:
	andq	%r10, %r11
	leaq	LJTI75_2(%rip), %rcx
	movslq	(%rcx,%r9,4), %rsi
	addq	%rcx, %rsi
	movq	%r11, %rdx
	jmpq	*%rsi
LBB75_17:
	movzbl	%r11b, %edx
	andq	%r10, %rdx
	leaq	LJTI75_2(%rip), %rcx
	movslq	(%rcx,%r9,4), %rsi
	addq	%rcx, %rsi
	jmpq	*%rsi
LBB75_18:
	andq	%r10, %r14
	leaq	LJTI75_2(%rip), %rcx
	movslq	(%rcx,%r9,4), %rsi
	addq	%rcx, %rsi
	movq	%r14, %rdx
	jmpq	*%rsi
LBB75_19:
	movzwl	%r14w, %edx
	andq	%r10, %rdx
	leaq	LJTI75_2(%rip), %rcx
	movslq	(%rcx,%r9,4), %rsi
	addq	%rcx, %rsi
	jmpq	*%rsi
LBB75_20:
	andq	%r10, %rbx
	leaq	LJTI75_2(%rip), %rcx
	movslq	(%rcx,%r9,4), %rsi
	addq	%rcx, %rsi
	movq	%rbx, %rdx
	jmpq	*%rsi
LBB75_21:
	movl	%ebx, %edx
	andq	%r10, %rdx
	leaq	LJTI75_2(%rip), %rcx
	movslq	(%rcx,%r9,4), %rsi
	addq	%rcx, %rsi
	jmpq	*%rsi
LBB75_24:
	movb	$1, %r8b
	jmp	LBB75_34
LBB75_25:
	movb	$2, %r8b
	jmp	LBB75_34
LBB75_26:
	movb	$3, %r8b
	jmp	LBB75_34
LBB75_27:
	movb	$4, %r8b
	jmp	LBB75_34
LBB75_28:
	movb	$5, %r8b
	jmp	LBB75_34
LBB75_29:
	movb	$6, %r8b
	jmp	LBB75_34
LBB75_30:
	testq	%rdx, %rdx
	js	LBB75_31
	cvtsi2ss	%rdx, %xmm0
	jmp	LBB75_33
LBB75_23:
	movq	%rdx, %xmm0
	punpckldq	LCPI75_0(%rip), %xmm0
	subpd	LCPI75_1(%rip), %xmm0
	movapd	%xmm0, %xmm1
	unpckhpd	%xmm0, %xmm1
	addsd	%xmm0, %xmm1
	movq	%xmm1, %rdx
	movb	$10, %r8b
	jmp	LBB75_34
LBB75_31:
	movq	%rdx, %rcx
	shrq	%rcx
	andl	$1, %edx
	orq	%rcx, %rdx
	cvtsi2ss	%rdx, %xmm0
	addss	%xmm0, %xmm0
LBB75_33:
	movd	%xmm0, %edx
	movb	$9, %r8b
LBB75_34:
	movb	%r8b, 8(%rax)
	movb	%dl, 9(%rax)
	movw	%dx, 10(%rax)
	movl	%edx, 12(%rax)
	movq	%rdx, 16(%rax)
	xorl	%ecx, %ecx
LBB75_11:
	movq	%rcx, (%rax)
	popq	%rbx
	popq	%r14
	popq	%r15
	popq	%rbp
	retq
	.cfi_endproc
	.p2align	2, 0x90
	.data_region jt32
.set L75_0_set_12, LBB75_12-LJTI75_0
.set L75_0_set_3, LBB75_3-LJTI75_0
.set L75_0_set_4, LBB75_4-LJTI75_0
.set L75_0_set_5, LBB75_5-LJTI75_0
.set L75_0_set_6, LBB75_6-LJTI75_0
.set L75_0_set_7, LBB75_7-LJTI75_0
.set L75_0_set_8, LBB75_8-LJTI75_0
.set L75_0_set_13, LBB75_13-LJTI75_0
LJTI75_0:
	.long	L75_0_set_12
	.long	L75_0_set_3
	.long	L75_0_set_4
	.long	L75_0_set_5
	.long	L75_0_set_6
	.long	L75_0_set_7
	.long	L75_0_set_8
	.long	L75_0_set_13
	.long	L75_0_set_13
.set L75_1_set_15, LBB75_15-LJTI75_1
.set L75_1_set_16, LBB75_16-LJTI75_1
.set L75_1_set_17, LBB75_17-LJTI75_1
.set L75_1_set_18, LBB75_18-LJTI75_1
.set L75_1_set_19, LBB75_19-LJTI75_1
.set L75_1_set_20, LBB75_20-LJTI75_1
.set L75_1_set_21, LBB75_21-LJTI75_1
.set L75_1_set_22, LBB75_22-LJTI75_1
LJTI75_1:
	.long	L75_1_set_15
	.long	L75_1_set_16
	.long	L75_1_set_17
	.long	L75_1_set_18
	.long	L75_1_set_19
	.long	L75_1_set_20
	.long	L75_1_set_21
	.long	L75_1_set_22
	.long	L75_1_set_22
.set L75_2_set_34, LBB75_34-LJTI75_2
.set L75_2_set_24, LBB75_24-LJTI75_2
.set L75_2_set_25, LBB75_25-LJTI75_2
.set L75_2_set_26, LBB75_26-LJTI75_2
.set L75_2_set_27, LBB75_27-LJTI75_2
.set L75_2_set_28, LBB75_28-LJTI75_2
.set L75_2_set_29, LBB75_29-LJTI75_2
.set L75_2_set_30, LBB75_30-LJTI75_2
.set L75_2_set_23, LBB75_23-LJTI75_2
LJTI75_2:
	.long	L75_2_set_34
	.long	L75_2_set_24
	.long	L75_2_set_25
	.long	L75_2_set_26
	.long	L75_2_set_27
	.long	L75_2_set_28
	.long	L75_2_set_29
	.long	L75_2_set_34
	.long	L75_2_set_34
	.long	L75_2_set_30
	.long	L75_2_set_23
	.end_data_region

	.section	__TEXT,__literal16,16byte_literals
	.p2align	4
LCPI76_0:
	.long	1127219200
	.long	1160773632
	.long	0
	.long	0
LCPI76_1:
	.quad	4841369599423283200
	.quad	4985484787499139072
	.section	__TEXT,__text,regular,pure_instructions
	.globl	__ZN5gimli4read5value5Value2or17h0daf4098457ad54dE
	.p2align	4, 0x90
__ZN5gimli4read5value5Value2or17h0daf4098457ad54dE:
	.cfi_startproc
	pushq	%rbp
	.cfi_def_cfa_offset 16
	.cfi_offset %rbp, -16
	movq	%rsp, %rbp
	.cfi_def_cfa_register %rbp
	pushq	%r15
	pushq	%r14
	pushq	%rbx
	.cfi_offset %rbx, -40
	.cfi_offset %r14, -32
	.cfi_offset %r15, -24
	movq	%rdi, %rax
	movb	(%rsi), %r8b
	movzbl	(%rdx), %edi
	cmpb	%dil, %r8b
	jne	LBB76_9
	movzbl	%r8b, %r9d
	cmpq	$8, %r9
	ja	LBB76_35
	movsbq	1(%rsi), %r11
	movswq	2(%rsi), %r14
	movslq	4(%rsi), %r15
	movq	8(%rsi), %r10
	leaq	LJTI76_0(%rip), %rsi
	movslq	(%rsi,%r9,4), %rbx
	addq	%rsi, %rbx
	jmpq	*%rbx
LBB76_12:
	andq	%rcx, %r10
	jmp	LBB76_13
LBB76_9:
	movb	$42, 8(%rax)
LBB76_10:
	movl	$1, %ecx
	jmp	LBB76_11
LBB76_3:
	movq	%r11, %r10
	jmp	LBB76_13
LBB76_4:
	movzbl	%r11b, %r10d
	jmp	LBB76_13
LBB76_5:
	movq	%r14, %r10
	jmp	LBB76_13
LBB76_6:
	movzwl	%r14w, %r10d
	jmp	LBB76_13
LBB76_7:
	movq	%r15, %r10
	jmp	LBB76_13
LBB76_8:
	movl	%r15d, %r10d
LBB76_13:
	cmpq	$8, %rdi
	ja	LBB76_35
	movsbq	1(%rdx), %r11
	movswq	2(%rdx), %r14
	movslq	4(%rdx), %rbx
	movq	8(%rdx), %rdx
	leaq	LJTI76_1(%rip), %rsi
	movslq	(%rsi,%rdi,4), %rdi
	addq	%rsi, %rdi
	jmpq	*%rdi
LBB76_22:
	orq	%r10, %rdx
	leaq	LJTI76_2(%rip), %rcx
	movslq	(%rcx,%r9,4), %rsi
	addq	%rcx, %rsi
	jmpq	*%rsi
LBB76_35:
	movq	$43, 8(%rax)
	jmp	LBB76_10
LBB76_15:
	andq	%rcx, %rdx
	orq	%r10, %rdx
	leaq	LJTI76_2(%rip), %rcx
	movslq	(%rcx,%r9,4), %rsi
	addq	%rcx, %rsi
	jmpq	*%rsi
LBB76_16:
	orq	%r10, %r11
	leaq	LJTI76_2(%rip), %rcx
	movslq	(%rcx,%r9,4), %rsi
	addq	%rcx, %rsi
	movq	%r11, %rdx
	jmpq	*%rsi
LBB76_17:
	movzbl	%r11b, %edx
	orq	%r10, %rdx
	leaq	LJTI76_2(%rip), %rcx
	movslq	(%rcx,%r9,4), %rsi
	addq	%rcx, %rsi
	jmpq	*%rsi
LBB76_18:
	orq	%r10, %r14
	leaq	LJTI76_2(%rip), %rcx
	movslq	(%rcx,%r9,4), %rsi
	addq	%rcx, %rsi
	movq	%r14, %rdx
	jmpq	*%rsi
LBB76_19:
	movzwl	%r14w, %edx
	orq	%r10, %rdx
	leaq	LJTI76_2(%rip), %rcx
	movslq	(%rcx,%r9,4), %rsi
	addq	%rcx, %rsi
	jmpq	*%rsi
LBB76_20:
	orq	%r10, %rbx
	leaq	LJTI76_2(%rip), %rcx
	movslq	(%rcx,%r9,4), %rsi
	addq	%rcx, %rsi
	movq	%rbx, %rdx
	jmpq	*%rsi
LBB76_21:
	movl	%ebx, %edx
	orq	%r10, %rdx
	leaq	LJTI76_2(%rip), %rcx
	movslq	(%rcx,%r9,4), %rsi
	addq	%rcx, %rsi
	jmpq	*%rsi
LBB76_24:
	movb	$1, %r8b
	jmp	LBB76_34
LBB76_25:
	movb	$2, %r8b
	jmp	LBB76_34
LBB76_26:
	movb	$3, %r8b
	jmp	LBB76_34
LBB76_27:
	movb	$4, %r8b
	jmp	LBB76_34
LBB76_28:
	movb	$5, %r8b
	jmp	LBB76_34
LBB76_29:
	movb	$6, %r8b
	jmp	LBB76_34
LBB76_30:
	testq	%rdx, %rdx
	js	LBB76_31
	cvtsi2ss	%rdx, %xmm0
	jmp	LBB76_33
LBB76_23:
	movq	%rdx, %xmm0
	punpckldq	LCPI76_0(%rip), %xmm0
	subpd	LCPI76_1(%rip), %xmm0
	movapd	%xmm0, %xmm1
	unpckhpd	%xmm0, %xmm1
	addsd	%xmm0, %xmm1
	movq	%xmm1, %rdx
	movb	$10, %r8b
	jmp	LBB76_34
LBB76_31:
	movq	%rdx, %rcx
	shrq	%rcx
	andl	$1, %edx
	orq	%rcx, %rdx
	cvtsi2ss	%rdx, %xmm0
	addss	%xmm0, %xmm0
LBB76_33:
	movd	%xmm0, %edx
	movb	$9, %r8b
LBB76_34:
	movb	%r8b, 8(%rax)
	movb	%dl, 9(%rax)
	movw	%dx, 10(%rax)
	movl	%edx, 12(%rax)
	movq	%rdx, 16(%rax)
	xorl	%ecx, %ecx
LBB76_11:
	movq	%rcx, (%rax)
	popq	%rbx
	popq	%r14
	popq	%r15
	popq	%rbp
	retq
	.cfi_endproc
	.p2align	2, 0x90
	.data_region jt32
.set L76_0_set_12, LBB76_12-LJTI76_0
.set L76_0_set_3, LBB76_3-LJTI76_0
.set L76_0_set_4, LBB76_4-LJTI76_0
.set L76_0_set_5, LBB76_5-LJTI76_0
.set L76_0_set_6, LBB76_6-LJTI76_0
.set L76_0_set_7, LBB76_7-LJTI76_0
.set L76_0_set_8, LBB76_8-LJTI76_0
.set L76_0_set_13, LBB76_13-LJTI76_0
LJTI76_0:
	.long	L76_0_set_12
	.long	L76_0_set_3
	.long	L76_0_set_4
	.long	L76_0_set_5
	.long	L76_0_set_6
	.long	L76_0_set_7
	.long	L76_0_set_8
	.long	L76_0_set_13
	.long	L76_0_set_13
.set L76_1_set_15, LBB76_15-LJTI76_1
.set L76_1_set_16, LBB76_16-LJTI76_1
.set L76_1_set_17, LBB76_17-LJTI76_1
.set L76_1_set_18, LBB76_18-LJTI76_1
.set L76_1_set_19, LBB76_19-LJTI76_1
.set L76_1_set_20, LBB76_20-LJTI76_1
.set L76_1_set_21, LBB76_21-LJTI76_1
.set L76_1_set_22, LBB76_22-LJTI76_1
LJTI76_1:
	.long	L76_1_set_15
	.long	L76_1_set_16
	.long	L76_1_set_17
	.long	L76_1_set_18
	.long	L76_1_set_19
	.long	L76_1_set_20
	.long	L76_1_set_21
	.long	L76_1_set_22
	.long	L76_1_set_22
.set L76_2_set_34, LBB76_34-LJTI76_2
.set L76_2_set_24, LBB76_24-LJTI76_2
.set L76_2_set_25, LBB76_25-LJTI76_2
.set L76_2_set_26, LBB76_26-LJTI76_2
.set L76_2_set_27, LBB76_27-LJTI76_2
.set L76_2_set_28, LBB76_28-LJTI76_2
.set L76_2_set_29, LBB76_29-LJTI76_2
.set L76_2_set_30, LBB76_30-LJTI76_2
.set L76_2_set_23, LBB76_23-LJTI76_2
LJTI76_2:
	.long	L76_2_set_34
	.long	L76_2_set_24
	.long	L76_2_set_25
	.long	L76_2_set_26
	.long	L76_2_set_27
	.long	L76_2_set_28
	.long	L76_2_set_29
	.long	L76_2_set_34
	.long	L76_2_set_34
	.long	L76_2_set_30
	.long	L76_2_set_23
	.end_data_region

	.section	__TEXT,__literal16,16byte_literals
	.p2align	4
LCPI77_0:
	.long	1127219200
	.long	1160773632
	.long	0
	.long	0
LCPI77_1:
	.quad	4841369599423283200
	.quad	4985484787499139072
	.section	__TEXT,__text,regular,pure_instructions
	.globl	__ZN5gimli4read5value5Value3xor17ha3f7cd1ba306f2deE
	.p2align	4, 0x90
__ZN5gimli4read5value5Value3xor17ha3f7cd1ba306f2deE:
	.cfi_startproc
	pushq	%rbp
	.cfi_def_cfa_offset 16
	.cfi_offset %rbp, -16
	movq	%rsp, %rbp
	.cfi_def_cfa_register %rbp
	pushq	%r15
	pushq	%r14
	pushq	%rbx
	.cfi_offset %rbx, -40
	.cfi_offset %r14, -32
	.cfi_offset %r15, -24
	movq	%rdi, %rax
	movb	(%rsi), %r8b
	movzbl	(%rdx), %edi
	cmpb	%dil, %r8b
	jne	LBB77_9
	movzbl	%r8b, %r9d
	cmpq	$8, %r9
	ja	LBB77_35
	movsbq	1(%rsi), %r11
	movswq	2(%rsi), %r14
	movslq	4(%rsi), %r15
	movq	8(%rsi), %r10
	leaq	LJTI77_0(%rip), %rsi
	movslq	(%rsi,%r9,4), %rbx
	addq	%rsi, %rbx
	jmpq	*%rbx
LBB77_12:
	andq	%rcx, %r10
	jmp	LBB77_13
LBB77_9:
	movb	$42, 8(%rax)
LBB77_10:
	movl	$1, %ecx
	jmp	LBB77_11
LBB77_3:
	movq	%r11, %r10
	jmp	LBB77_13
LBB77_4:
	movzbl	%r11b, %r10d
	jmp	LBB77_13
LBB77_5:
	movq	%r14, %r10
	jmp	LBB77_13
LBB77_6:
	movzwl	%r14w, %r10d
	jmp	LBB77_13
LBB77_7:
	movq	%r15, %r10
	jmp	LBB77_13
LBB77_8:
	movl	%r15d, %r10d
LBB77_13:
	cmpq	$8, %rdi
	ja	LBB77_35
	movsbq	1(%rdx), %r11
	movswq	2(%rdx), %r14
	movslq	4(%rdx), %rbx
	movq	8(%rdx), %rdx
	leaq	LJTI77_1(%rip), %rsi
	movslq	(%rsi,%rdi,4), %rdi
	addq	%rsi, %rdi
	jmpq	*%rdi
LBB77_22:
	xorq	%r10, %rdx
	leaq	LJTI77_2(%rip), %rcx
	movslq	(%rcx,%r9,4), %rsi
	addq	%rcx, %rsi
	jmpq	*%rsi
LBB77_35:
	movq	$43, 8(%rax)
	jmp	LBB77_10
LBB77_15:
	andq	%rcx, %rdx
	xorq	%r10, %rdx
	leaq	LJTI77_2(%rip), %rcx
	movslq	(%rcx,%r9,4), %rsi
	addq	%rcx, %rsi
	jmpq	*%rsi
LBB77_16:
	xorq	%r10, %r11
	leaq	LJTI77_2(%rip), %rcx
	movslq	(%rcx,%r9,4), %rsi
	addq	%rcx, %rsi
	movq	%r11, %rdx
	jmpq	*%rsi
LBB77_17:
	movzbl	%r11b, %edx
	xorq	%r10, %rdx
	leaq	LJTI77_2(%rip), %rcx
	movslq	(%rcx,%r9,4), %rsi
	addq	%rcx, %rsi
	jmpq	*%rsi
LBB77_18:
	xorq	%r10, %r14
	leaq	LJTI77_2(%rip), %rcx
	movslq	(%rcx,%r9,4), %rsi
	addq	%rcx, %rsi
	movq	%r14, %rdx
	jmpq	*%rsi
LBB77_19:
	movzwl	%r14w, %edx
	xorq	%r10, %rdx
	leaq	LJTI77_2(%rip), %rcx
	movslq	(%rcx,%r9,4), %rsi
	addq	%rcx, %rsi
	jmpq	*%rsi
LBB77_20:
	xorq	%r10, %rbx
	leaq	LJTI77_2(%rip), %rcx
	movslq	(%rcx,%r9,4), %rsi
	addq	%rcx, %rsi
	movq	%rbx, %rdx
	jmpq	*%rsi
LBB77_21:
	movl	%ebx, %edx
	xorq	%r10, %rdx
	leaq	LJTI77_2(%rip), %rcx
	movslq	(%rcx,%r9,4), %rsi
	addq	%rcx, %rsi
	jmpq	*%rsi
LBB77_24:
	movb	$1, %r8b
	jmp	LBB77_34
LBB77_25:
	movb	$2, %r8b
	jmp	LBB77_34
LBB77_26:
	movb	$3, %r8b
	jmp	LBB77_34
LBB77_27:
	movb	$4, %r8b
	jmp	LBB77_34
LBB77_28:
	movb	$5, %r8b
	jmp	LBB77_34
LBB77_29:
	movb	$6, %r8b
	jmp	LBB77_34
LBB77_30:
	testq	%rdx, %rdx
	js	LBB77_31
	cvtsi2ss	%rdx, %xmm0
	jmp	LBB77_33
LBB77_23:
	movq	%rdx, %xmm0
	punpckldq	LCPI77_0(%rip), %xmm0
	subpd	LCPI77_1(%rip), %xmm0
	movapd	%xmm0, %xmm1
	unpckhpd	%xmm0, %xmm1
	addsd	%xmm0, %xmm1
	movq	%xmm1, %rdx
	movb	$10, %r8b
	jmp	LBB77_34
LBB77_31:
	movq	%rdx, %rcx
	shrq	%rcx
	andl	$1, %edx
	orq	%rcx, %rdx
	cvtsi2ss	%rdx, %xmm0
	addss	%xmm0, %xmm0
LBB77_33:
	movd	%xmm0, %edx
	movb	$9, %r8b
LBB77_34:
	movb	%r8b, 8(%rax)
	movb	%dl, 9(%rax)
	movw	%dx, 10(%rax)
	movl	%edx, 12(%rax)
	movq	%rdx, 16(%rax)
	xorl	%ecx, %ecx
LBB77_11:
	movq	%rcx, (%rax)
	popq	%rbx
	popq	%r14
	popq	%r15
	popq	%rbp
	retq
	.cfi_endproc
	.p2align	2, 0x90
	.data_region jt32
.set L77_0_set_12, LBB77_12-LJTI77_0
.set L77_0_set_3, LBB77_3-LJTI77_0
.set L77_0_set_4, LBB77_4-LJTI77_0
.set L77_0_set_5, LBB77_5-LJTI77_0
.set L77_0_set_6, LBB77_6-LJTI77_0
.set L77_0_set_7, LBB77_7-LJTI77_0
.set L77_0_set_8, LBB77_8-LJTI77_0
.set L77_0_set_13, LBB77_13-LJTI77_0
LJTI77_0:
	.long	L77_0_set_12
	.long	L77_0_set_3
	.long	L77_0_set_4
	.long	L77_0_set_5
	.long	L77_0_set_6
	.long	L77_0_set_7
	.long	L77_0_set_8
	.long	L77_0_set_13
	.long	L77_0_set_13
.set L77_1_set_15, LBB77_15-LJTI77_1
.set L77_1_set_16, LBB77_16-LJTI77_1
.set L77_1_set_17, LBB77_17-LJTI77_1
.set L77_1_set_18, LBB77_18-LJTI77_1
.set L77_1_set_19, LBB77_19-LJTI77_1
.set L77_1_set_20, LBB77_20-LJTI77_1
.set L77_1_set_21, LBB77_21-LJTI77_1
.set L77_1_set_22, LBB77_22-LJTI77_1
LJTI77_1:
	.long	L77_1_set_15
	.long	L77_1_set_16
	.long	L77_1_set_17
	.long	L77_1_set_18
	.long	L77_1_set_19
	.long	L77_1_set_20
	.long	L77_1_set_21
	.long	L77_1_set_22
	.long	L77_1_set_22
.set L77_2_set_34, LBB77_34-LJTI77_2
.set L77_2_set_24, LBB77_24-LJTI77_2
.set L77_2_set_25, LBB77_25-LJTI77_2
.set L77_2_set_26, LBB77_26-LJTI77_2
.set L77_2_set_27, LBB77_27-LJTI77_2
.set L77_2_set_28, LBB77_28-LJTI77_2
.set L77_2_set_29, LBB77_29-LJTI77_2
.set L77_2_set_30, LBB77_30-LJTI77_2
.set L77_2_set_23, LBB77_23-LJTI77_2
LJTI77_2:
	.long	L77_2_set_34
	.long	L77_2_set_24
	.long	L77_2_set_25
	.long	L77_2_set_26
	.long	L77_2_set_27
	.long	L77_2_set_28
	.long	L77_2_set_29
	.long	L77_2_set_34
	.long	L77_2_set_34
	.long	L77_2_set_30
	.long	L77_2_set_23
	.end_data_region

	.globl	__ZN5gimli4read5value5Value3shl17hc54a2e0220e113ecE
	.p2align	4, 0x90
__ZN5gimli4read5value5Value3shl17hc54a2e0220e113ecE:
	.cfi_startproc
	pushq	%rbp
	.cfi_def_cfa_offset 16
	.cfi_offset %rbp, -16
	movq	%rsp, %rbp
	.cfi_def_cfa_register %rbp
	movq	%rdi, %rax
	movzbl	(%rdx), %edi
	cmpq	$8, %rdi
	ja	LBB78_11
	movzbl	1(%rdx), %r8d
	movzwl	2(%rdx), %r9d
	movl	4(%rdx), %r10d
	movq	8(%rdx), %r11
	leaq	LJTI78_0(%rip), %rdx
	movslq	(%rdx,%rdi,4), %rdi
	addq	%rdx, %rdi
	jmpq	*%rdi
LBB78_10:
	movq	%r8, %r11
	testb	%r8b, %r8b
	jns	LBB78_8
	jmp	LBB78_11
LBB78_3:
	movq	%r9, %r11
	testw	%r9w, %r9w
	jns	LBB78_8
	jmp	LBB78_11
LBB78_2:
	movq	%r8, %r11
	jmp	LBB78_8
LBB78_6:
	movq	%r10, %r11
	jmp	LBB78_8
LBB78_4:
	movq	%r9, %r11
	jmp	LBB78_8
LBB78_5:
	movq	%r10, %r11
	testl	%r10d, %r10d
	js	LBB78_11
LBB78_8:
	movzbl	(%rsi), %edi
	cmpq	$8, %rdi
	ja	LBB78_14
	leaq	LJTI78_1(%rip), %rdx
	movslq	(%rdx,%rdi,4), %rdi
	addq	%rdx, %rdi
	jmpq	*%rdi
LBB78_15:
	movq	8(%rsi), %r8
	testq	%rcx, %rcx
	je	LBB78_16
	bsrq	%rcx, %rsi
	xorq	$63, %rsi
	jmp	LBB78_18
LBB78_7:
	testq	%r11, %r11
	jns	LBB78_8
LBB78_11:
	movq	$45, 8(%rax)
	movl	$1, %ecx
	movq	%rcx, (%rax)
	popq	%rbp
	retq
LBB78_30:
	movb	$4, %r9b
	cmpq	$15, %r11
	jbe	LBB78_31
LBB78_28:
	xorl	%edi, %edi
	jmp	LBB78_45
LBB78_25:
	movb	1(%rsi), %dl
	movl	%r11d, %ecx
	andb	$7, %cl
	shlb	%cl, %dl
	xorl	%esi, %esi
	cmpq	$7, %r11
	movzbl	%dl, %ecx
	cmoval	%esi, %ecx
	movb	$2, %r9b
	jmp	LBB78_46
LBB78_26:
	movb	$3, %r9b
	cmpq	$15, %r11
	ja	LBB78_28
LBB78_31:
	movzwl	2(%rsi), %edi
	movl	%r11d, %ecx
	shll	%cl, %edi
	jmp	LBB78_45
LBB78_38:
	movb	$7, %r9b
	cmpq	$63, %r11
	jbe	LBB78_42
LBB78_40:
	xorl	%r8d, %r8d
	jmp	LBB78_43
LBB78_23:
	movb	1(%rsi), %dl
	movl	%r11d, %ecx
	andb	$7, %cl
	shlb	%cl, %dl
	xorl	%esi, %esi
	cmpq	$7, %r11
	movzbl	%dl, %ecx
	cmoval	%esi, %ecx
	movb	$1, %r9b
	jmp	LBB78_46
LBB78_32:
	movb	$5, %r9b
	cmpq	$31, %r11
	jbe	LBB78_37
LBB78_34:
	xorl	%esi, %esi
	jmp	LBB78_44
LBB78_36:
	movb	$6, %r9b
	cmpq	$31, %r11
	ja	LBB78_34
LBB78_37:
	movl	4(%rsi), %esi
	movl	%r11d, %ecx
	shll	%cl, %esi
	jmp	LBB78_44
LBB78_41:
	movb	$8, %r9b
	cmpq	$63, %r11
	ja	LBB78_40
LBB78_42:
	movq	8(%rsi), %r8
	movl	%r11d, %ecx
	shlq	%cl, %r8
	jmp	LBB78_43
LBB78_14:
	movb	$43, 8(%rax)
	movl	$1, %ecx
	movq	%rcx, (%rax)
	popq	%rbp
	retq
LBB78_16:
	movl	$64, %esi
LBB78_18:
	movl	$64, %edi
	subl	%esi, %edi
	jb	LBB78_48
	movl	%edi, %edx
	cmpq	%rdx, %r11
	jae	LBB78_20
	cmpq	$63, %r11
	ja	LBB78_47
	andq	%rcx, %r8
	movl	%r11d, %ecx
	shlq	%cl, %r8
	xorl	%r9d, %r9d
LBB78_43:
LBB78_44:
LBB78_45:
LBB78_46:
	movb	%r9b, 8(%rax)
	movb	%cl, 9(%rax)
	movw	%di, 10(%rax)
	movl	%esi, 12(%rax)
	movq	%r8, 16(%rax)
	xorl	%ecx, %ecx
	movq	%rcx, (%rax)
	popq	%rbp
	retq
LBB78_20:
	xorl	%r8d, %r8d
	xorl	%r9d, %r9d
	jmp	LBB78_46
LBB78_48:
	leaq	_str.5(%rip), %rdi
	leaq	l___unnamed_94(%rip), %rdx
	movl	$33, %esi
	callq	__ZN4core9panicking5panic17h383a6b80ea7021aaE
LBB78_47:
	leaq	_str.7(%rip), %rdi
	leaq	l___unnamed_99(%rip), %rdx
	movl	$35, %esi
	callq	__ZN4core9panicking5panic17h383a6b80ea7021aaE
	.cfi_endproc
	.p2align	2, 0x90
	.data_region jt32
.set L78_0_set_8, LBB78_8-LJTI78_0
.set L78_0_set_10, LBB78_10-LJTI78_0
.set L78_0_set_2, LBB78_2-LJTI78_0
.set L78_0_set_3, LBB78_3-LJTI78_0
.set L78_0_set_4, LBB78_4-LJTI78_0
.set L78_0_set_5, LBB78_5-LJTI78_0
.set L78_0_set_6, LBB78_6-LJTI78_0
.set L78_0_set_7, LBB78_7-LJTI78_0
LJTI78_0:
	.long	L78_0_set_8
	.long	L78_0_set_10
	.long	L78_0_set_2
	.long	L78_0_set_3
	.long	L78_0_set_4
	.long	L78_0_set_5
	.long	L78_0_set_6
	.long	L78_0_set_7
	.long	L78_0_set_8
.set L78_1_set_15, LBB78_15-LJTI78_1
.set L78_1_set_23, LBB78_23-LJTI78_1
.set L78_1_set_25, LBB78_25-LJTI78_1
.set L78_1_set_26, LBB78_26-LJTI78_1
.set L78_1_set_30, LBB78_30-LJTI78_1
.set L78_1_set_32, LBB78_32-LJTI78_1
.set L78_1_set_36, LBB78_36-LJTI78_1
.set L78_1_set_38, LBB78_38-LJTI78_1
.set L78_1_set_41, LBB78_41-LJTI78_1
LJTI78_1:
	.long	L78_1_set_15
	.long	L78_1_set_23
	.long	L78_1_set_25
	.long	L78_1_set_26
	.long	L78_1_set_30
	.long	L78_1_set_32
	.long	L78_1_set_36
	.long	L78_1_set_38
	.long	L78_1_set_41
	.end_data_region

	.globl	__ZN5gimli4read5value5Value3shr17h3c1273048c6f0575E
	.p2align	4, 0x90
__ZN5gimli4read5value5Value3shr17h3c1273048c6f0575E:
	.cfi_startproc
	pushq	%rbp
	.cfi_def_cfa_offset 16
	.cfi_offset %rbp, -16
	movq	%rsp, %rbp
	.cfi_def_cfa_register %rbp
	movq	%rdi, %rax
	movzbl	(%rdx), %edi
	cmpq	$8, %rdi
	ja	LBB79_11
	movzbl	1(%rdx), %r8d
	movzwl	2(%rdx), %r9d
	movl	4(%rdx), %r10d
	movq	8(%rdx), %r11
	leaq	LJTI79_0(%rip), %rdx
	movslq	(%rdx,%rdi,4), %rdi
	addq	%rdx, %rdi
	jmpq	*%rdi
LBB79_10:
	movq	%r8, %r11
	testb	%r8b, %r8b
	jns	LBB79_8
	jmp	LBB79_11
LBB79_3:
	movq	%r9, %r11
	testw	%r9w, %r9w
	jns	LBB79_8
	jmp	LBB79_11
LBB79_2:
	movq	%r8, %r11
	jmp	LBB79_8
LBB79_6:
	movq	%r10, %r11
	jmp	LBB79_8
LBB79_4:
	movq	%r9, %r11
	jmp	LBB79_8
LBB79_5:
	movq	%r10, %r11
	testl	%r10d, %r10d
	js	LBB79_11
LBB79_8:
	movzbl	(%rsi), %edi
	cmpq	$8, %rdi
	ja	LBB79_14
	leaq	LJTI79_1(%rip), %rdx
	movslq	(%rdx,%rdi,4), %rdi
	addq	%rdx, %rdi
	jmpq	*%rdi
LBB79_36:
	movb	$44, 8(%rax)
	movl	$1, %ecx
	movq	%rcx, (%rax)
	popq	%rbp
	retq
LBB79_7:
	testq	%r11, %r11
	jns	LBB79_8
LBB79_11:
	movq	$45, 8(%rax)
	movl	$1, %ecx
	movq	%rcx, (%rax)
	popq	%rbp
	retq
LBB79_27:
	movb	$6, %dil
	cmpq	$31, %r11
	jbe	LBB79_31
	xorl	%r9d, %r9d
	jmp	LBB79_38
LBB79_37:
	movb	1(%rsi), %dl
	movl	%r11d, %ecx
	andb	$7, %cl
	shrb	%cl, %dl
	xorl	%esi, %esi
	cmpq	$7, %r11
	movzbl	%dl, %ecx
	cmoval	%esi, %ecx
	movb	$2, %dil
	jmp	LBB79_38
LBB79_23:
	movb	$4, %dil
	cmpq	$15, %r11
	jbe	LBB79_26
	xorl	%esi, %esi
	jmp	LBB79_38
LBB79_15:
	movq	8(%rsi), %r8
	testq	%rcx, %rcx
	je	LBB79_16
	bsrq	%rcx, %rsi
	xorq	$63, %rsi
	jmp	LBB79_18
LBB79_32:
	movb	$8, %dil
	cmpq	$63, %r11
	jbe	LBB79_35
	xorl	%r8d, %r8d
	jmp	LBB79_38
LBB79_14:
	movb	$43, 8(%rax)
	movl	$1, %ecx
	movq	%rcx, (%rax)
	popq	%rbp
	retq
LBB79_31:
	movl	4(%rsi), %r9d
	movl	%r11d, %ecx
	shrl	%cl, %r9d
	jmp	LBB79_38
LBB79_26:
	movzwl	2(%rsi), %esi
	movl	%r11d, %ecx
	shrl	%cl, %esi
	jmp	LBB79_38
LBB79_35:
	movq	8(%rsi), %r8
	movl	%r11d, %ecx
	shrq	%cl, %r8
	jmp	LBB79_38
LBB79_16:
	movl	$64, %esi
LBB79_18:
	movl	$64, %edi
	subl	%esi, %edi
	jb	LBB79_40
	movl	%edi, %edx
	cmpq	%rdx, %r11
	jae	LBB79_20
	cmpq	$63, %r11
	ja	LBB79_39
	andq	%rcx, %r8
	movl	%r11d, %ecx
	shrq	%cl, %r8
	xorl	%edi, %edi
	jmp	LBB79_38
LBB79_20:
	xorl	%r8d, %r8d
	xorl	%edi, %edi
LBB79_38:
	movb	%dil, 8(%rax)
	movb	%cl, 9(%rax)
	movw	%si, 10(%rax)
	movl	%r9d, 12(%rax)
	movq	%r8, 16(%rax)
	xorl	%ecx, %ecx
	movq	%rcx, (%rax)
	popq	%rbp
	retq
LBB79_40:
	leaq	_str.5(%rip), %rdi
	leaq	l___unnamed_94(%rip), %rdx
	movl	$33, %esi
	callq	__ZN4core9panicking5panic17h383a6b80ea7021aaE
LBB79_39:
	leaq	_str.8(%rip), %rdi
	leaq	l___unnamed_100(%rip), %rdx
	movl	$36, %esi
	callq	__ZN4core9panicking5panic17h383a6b80ea7021aaE
	.cfi_endproc
	.p2align	2, 0x90
	.data_region jt32
.set L79_0_set_8, LBB79_8-LJTI79_0
.set L79_0_set_10, LBB79_10-LJTI79_0
.set L79_0_set_2, LBB79_2-LJTI79_0
.set L79_0_set_3, LBB79_3-LJTI79_0
.set L79_0_set_4, LBB79_4-LJTI79_0
.set L79_0_set_5, LBB79_5-LJTI79_0
.set L79_0_set_6, LBB79_6-LJTI79_0
.set L79_0_set_7, LBB79_7-LJTI79_0
LJTI79_0:
	.long	L79_0_set_8
	.long	L79_0_set_10
	.long	L79_0_set_2
	.long	L79_0_set_3
	.long	L79_0_set_4
	.long	L79_0_set_5
	.long	L79_0_set_6
	.long	L79_0_set_7
	.long	L79_0_set_8
.set L79_1_set_15, LBB79_15-LJTI79_1
.set L79_1_set_36, LBB79_36-LJTI79_1
.set L79_1_set_37, LBB79_37-LJTI79_1
.set L79_1_set_23, LBB79_23-LJTI79_1
.set L79_1_set_27, LBB79_27-LJTI79_1
.set L79_1_set_32, LBB79_32-LJTI79_1
LJTI79_1:
	.long	L79_1_set_15
	.long	L79_1_set_36
	.long	L79_1_set_37
	.long	L79_1_set_36
	.long	L79_1_set_23
	.long	L79_1_set_36
	.long	L79_1_set_27
	.long	L79_1_set_36
	.long	L79_1_set_32
	.end_data_region

	.globl	__ZN5gimli4read5value5Value4shra17h408a0271abb38de1E
	.p2align	4, 0x90
__ZN5gimli4read5value5Value4shra17h408a0271abb38de1E:
	.cfi_startproc
	pushq	%rbp
	.cfi_def_cfa_offset 16
	.cfi_offset %rbp, -16
	movq	%rsp, %rbp
	.cfi_def_cfa_register %rbp
	movq	%rdi, %rax
	movzbl	(%rdx), %edi
	cmpq	$8, %rdi
	ja	LBB80_12
	movq	%rcx, %r8
	movzbl	1(%rdx), %r9d
	movzwl	2(%rdx), %r10d
	movl	4(%rdx), %r11d
	movq	8(%rdx), %rcx
	leaq	LJTI80_0(%rip), %rdx
	movslq	(%rdx,%rdi,4), %rdi
	addq	%rdx, %rdi
	jmpq	*%rdi
LBB80_2:
	movq	%r9, %rcx
	testb	%r9b, %r9b
	jns	LBB80_8
	jmp	LBB80_12
LBB80_3:
	movq	%r10, %rcx
	testw	%r10w, %r10w
	jns	LBB80_8
	jmp	LBB80_12
LBB80_4:
	movq	%r9, %rcx
	jmp	LBB80_8
LBB80_5:
	movq	%r11, %rcx
	jmp	LBB80_8
LBB80_6:
	movq	%r10, %rcx
	jmp	LBB80_8
LBB80_7:
	movq	%r11, %rcx
	testl	%r11d, %r11d
	js	LBB80_12
LBB80_8:
	movzbl	(%rsi), %edx
	cmpq	$8, %rdx
	ja	LBB80_19
	leaq	LJTI80_1(%rip), %rdi
	movslq	(%rdi,%rdx,4), %rdx
	addq	%rdi, %rdx
	jmpq	*%rdx
LBB80_10:
	movb	$44, 8(%rax)
	movl	$1, %ecx
	movq	%rcx, (%rax)
	popq	%rbp
	retq
LBB80_11:
	testq	%rcx, %rcx
	jns	LBB80_8
LBB80_12:
	movq	$45, 8(%rax)
	movl	$1, %ecx
	movq	%rcx, (%rax)
	popq	%rbp
	retq
LBB80_13:
	movl	4(%rsi), %r9d
	movl	%ecx, %edx
	andb	$31, %dl
	cmpq	$31, %rcx
	movzbl	%dl, %edx
	movl	$31, %ecx
	cmovbel	%edx, %ecx
	sarl	%cl, %r9d
	movb	$5, %cl
	jmp	LBB80_28
LBB80_14:
	movq	8(%rsi), %rdi
	andq	%r8, %rdi
	testq	%r8, %r8
	je	LBB80_20
	bsrq	%r8, %rdx
	xorq	$63, %rdx
	jmp	LBB80_21
LBB80_16:
	movb	1(%rsi), %r8b
	movl	%ecx, %edx
	andb	$7, %dl
	cmpq	$7, %rcx
	movzbl	%dl, %edx
	movl	$7, %ecx
	cmovbel	%edx, %ecx
	sarb	%cl, %r8b
	movb	$1, %cl
	jmp	LBB80_30
LBB80_17:
	movswl	2(%rsi), %esi
	movl	%ecx, %edx
	andb	$15, %dl
	cmpq	$15, %rcx
	movzbl	%dl, %edx
	movl	$15, %ecx
	cmovbel	%edx, %ecx
	sarl	%cl, %esi
	movb	$3, %cl
	jmp	LBB80_29
LBB80_18:
	movq	8(%rsi), %rdi
	movl	%ecx, %edx
	andb	$63, %dl
	cmpq	$63, %rcx
	movzbl	%dl, %edx
	movl	$63, %ecx
	cmovbel	%edx, %ecx
	sarq	%cl, %rdi
	movb	$7, %cl
	jmp	LBB80_27
LBB80_19:
	movb	$43, 8(%rax)
	movl	$1, %ecx
	movq	%rcx, (%rax)
	popq	%rbp
	retq
LBB80_20:
	movl	$64, %edx
LBB80_21:
	movl	$64, %esi
	subl	%edx, %esi
	jb	LBB80_31
	shrq	%r8
	incq	%r8
	xorq	%r8, %rdi
	subq	%r8, %rdi
	movl	%esi, %esi
	cmpq	%rsi, %rcx
	jae	LBB80_25
	cmpq	$63, %rcx
	ja	LBB80_32
	sarq	%cl, %rdi
	jmp	LBB80_26
LBB80_25:
	sarq	$63, %rdi
LBB80_26:
	xorl	%ecx, %ecx
LBB80_27:
LBB80_28:
LBB80_29:
LBB80_30:
	movb	%cl, 8(%rax)
	movb	%r8b, 9(%rax)
	movw	%si, 10(%rax)
	movl	%r9d, 12(%rax)
	movq	%rdi, 16(%rax)
	xorl	%ecx, %ecx
	movq	%rcx, (%rax)
	popq	%rbp
	retq
LBB80_31:
	leaq	_str.5(%rip), %rdi
	leaq	l___unnamed_94(%rip), %rdx
	movl	$33, %esi
	callq	__ZN4core9panicking5panic17h383a6b80ea7021aaE
LBB80_32:
	leaq	_str.8(%rip), %rdi
	leaq	l___unnamed_101(%rip), %rdx
	movl	$36, %esi
	callq	__ZN4core9panicking5panic17h383a6b80ea7021aaE
	.cfi_endproc
	.p2align	2, 0x90
	.data_region jt32
.set L80_0_set_8, LBB80_8-LJTI80_0
.set L80_0_set_2, LBB80_2-LJTI80_0
.set L80_0_set_4, LBB80_4-LJTI80_0
.set L80_0_set_3, LBB80_3-LJTI80_0
.set L80_0_set_6, LBB80_6-LJTI80_0
.set L80_0_set_7, LBB80_7-LJTI80_0
.set L80_0_set_5, LBB80_5-LJTI80_0
.set L80_0_set_11, LBB80_11-LJTI80_0
LJTI80_0:
	.long	L80_0_set_8
	.long	L80_0_set_2
	.long	L80_0_set_4
	.long	L80_0_set_3
	.long	L80_0_set_6
	.long	L80_0_set_7
	.long	L80_0_set_5
	.long	L80_0_set_11
	.long	L80_0_set_8
.set L80_1_set_14, LBB80_14-LJTI80_1
.set L80_1_set_16, LBB80_16-LJTI80_1
.set L80_1_set_10, LBB80_10-LJTI80_1
.set L80_1_set_17, LBB80_17-LJTI80_1
.set L80_1_set_13, LBB80_13-LJTI80_1
.set L80_1_set_18, LBB80_18-LJTI80_1
LJTI80_1:
	.long	L80_1_set_14
	.long	L80_1_set_16
	.long	L80_1_set_10
	.long	L80_1_set_17
	.long	L80_1_set_10
	.long	L80_1_set_13
	.long	L80_1_set_10
	.long	L80_1_set_18
	.long	L80_1_set_10
	.end_data_region

	.globl	__ZN5gimli4read5value5Value2eq17he605103b74228cc7E
	.p2align	4, 0x90
__ZN5gimli4read5value5Value2eq17he605103b74228cc7E:
	.cfi_startproc
	pushq	%rbp
	.cfi_def_cfa_offset 16
	.cfi_offset %rbp, -16
	movq	%rsp, %rbp
	.cfi_def_cfa_register %rbp
	pushq	%r15
	pushq	%r14
	pushq	%r12
	pushq	%rbx
	.cfi_offset %rbx, -48
	.cfi_offset %r12, -40
	.cfi_offset %r14, -32
	.cfi_offset %r15, -24
	movq	%rdi, %rax
	movzbl	(%rsi), %ebx
	cmpq	$10, %rbx
	ja	LBB81_3
	movb	1(%rsi), %r8b
	movzwl	2(%rsi), %r14d
	movl	4(%rsi), %r10d
	movq	8(%rsi), %r9
	movb	(%rdx), %r11b
	movb	1(%rdx), %r15b
	movzwl	2(%rdx), %edi
	movl	4(%rdx), %esi
	movq	8(%rdx), %r12
	leaq	LJTI81_0(%rip), %rdx
	movslq	(%rdx,%rbx,4), %rbx
	addq	%rdx, %rbx
	jmpq	*%rbx
LBB81_2:
	testb	%r11b, %r11b
	jne	LBB81_3
	xorq	%r9, %r12
	testq	%rcx, %r12
	jmp	LBB81_21
LBB81_8:
	cmpb	$1, %r11b
	je	LBB81_9
	jmp	LBB81_3
LBB81_4:
	cmpb	$2, %r11b
	jne	LBB81_3
LBB81_9:
	cmpb	%r15b, %r8b
	jmp	LBB81_21
LBB81_10:
	cmpb	$3, %r11b
	je	LBB81_11
	jmp	LBB81_3
LBB81_5:
	cmpb	$4, %r11b
	jne	LBB81_3
LBB81_11:
	cmpw	%di, %r14w
	jmp	LBB81_21
LBB81_12:
	cmpb	$5, %r11b
	je	LBB81_13
	jmp	LBB81_3
LBB81_6:
	cmpb	$6, %r11b
	jne	LBB81_3
LBB81_13:
	cmpl	%esi, %r10d
	jmp	LBB81_21
LBB81_14:
	cmpb	$7, %r11b
	je	LBB81_15
	jmp	LBB81_3
LBB81_7:
	cmpb	$8, %r11b
	jne	LBB81_3
LBB81_15:
	cmpq	%r12, %r9
LBB81_21:
	sete	%cl
LBB81_22:
	movzbl	%cl, %ecx
	movb	$0, 8(%rax)
	movq	%rcx, 16(%rax)
	xorl	%ecx, %ecx
	jmp	LBB81_23
LBB81_16:
	cmpb	$9, %r11b
	jne	LBB81_3
	movd	%r10d, %xmm0
	movd	%esi, %xmm1
	cmpeqss	%xmm0, %xmm1
	movd	%xmm1, %ecx
	andl	$1, %ecx
	jmp	LBB81_22
LBB81_18:
	cmpb	$10, %r11b
	jne	LBB81_3
	movq	%r9, %xmm0
	movq	%r12, %xmm1
	cmpeqsd	%xmm0, %xmm1
	movq	%xmm1, %rcx
	andl	$1, %ecx
	jmp	LBB81_22
LBB81_3:
	movb	$42, 8(%rax)
	movl	$1, %ecx
LBB81_23:
	movq	%rcx, (%rax)
	popq	%rbx
	popq	%r12
	popq	%r14
	popq	%r15
	popq	%rbp
	retq
	.cfi_endproc
	.p2align	2, 0x90
	.data_region jt32
.set L81_0_set_2, LBB81_2-LJTI81_0
.set L81_0_set_8, LBB81_8-LJTI81_0
.set L81_0_set_4, LBB81_4-LJTI81_0
.set L81_0_set_10, LBB81_10-LJTI81_0
.set L81_0_set_5, LBB81_5-LJTI81_0
.set L81_0_set_12, LBB81_12-LJTI81_0
.set L81_0_set_6, LBB81_6-LJTI81_0
.set L81_0_set_14, LBB81_14-LJTI81_0
.set L81_0_set_7, LBB81_7-LJTI81_0
.set L81_0_set_16, LBB81_16-LJTI81_0
.set L81_0_set_18, LBB81_18-LJTI81_0
LJTI81_0:
	.long	L81_0_set_2
	.long	L81_0_set_8
	.long	L81_0_set_4
	.long	L81_0_set_10
	.long	L81_0_set_5
	.long	L81_0_set_12
	.long	L81_0_set_6
	.long	L81_0_set_14
	.long	L81_0_set_7
	.long	L81_0_set_16
	.long	L81_0_set_18
	.end_data_region

	.globl	__ZN5gimli4read5value5Value2ge17hc9a3e9d66eeb121cE
	.p2align	4, 0x90
__ZN5gimli4read5value5Value2ge17hc9a3e9d66eeb121cE:
	.cfi_startproc
	pushq	%rbp
	.cfi_def_cfa_offset 16
	.cfi_offset %rbp, -16
	movq	%rsp, %rbp
	.cfi_def_cfa_register %rbp
	pushq	%r15
	pushq	%r14
	pushq	%r12
	pushq	%rbx
	.cfi_offset %rbx, -48
	.cfi_offset %r12, -40
	.cfi_offset %r14, -32
	.cfi_offset %r15, -24
	movq	%rdi, %rax
	movzbl	(%rsi), %ebx
	cmpq	$10, %rbx
	ja	LBB82_3
	movb	1(%rsi), %r8b
	movzwl	2(%rsi), %r14d
	movl	4(%rsi), %r10d
	movq	8(%rsi), %r9
	movb	(%rdx), %r11b
	movb	1(%rdx), %r15b
	movzwl	2(%rdx), %edi
	movl	4(%rdx), %esi
	movq	8(%rdx), %r12
	leaq	LJTI82_0(%rip), %rdx
	movslq	(%rdx,%rbx,4), %rbx
	addq	%rdx, %rbx
	jmpq	*%rbx
LBB82_2:
	testb	%r11b, %r11b
	jne	LBB82_3
	movq	%rcx, %rdx
	shrq	%rdx
	incq	%rdx
	andq	%rcx, %r9
	xorq	%rdx, %r9
	subq	%rdx, %r9
	andq	%rcx, %r12
	xorq	%rdx, %r12
	subq	%rdx, %r12
	jmp	LBB82_18
LBB82_5:
	cmpb	$1, %r11b
	jne	LBB82_3
	cmpb	%r15b, %r8b
	setge	%cl
	jmp	LBB82_26
LBB82_7:
	cmpb	$2, %r11b
	jne	LBB82_3
	cmpb	%r15b, %r8b
	jmp	LBB82_25
LBB82_9:
	cmpb	$3, %r11b
	jne	LBB82_3
	cmpw	%di, %r14w
	setge	%cl
	jmp	LBB82_26
LBB82_11:
	cmpb	$4, %r11b
	jne	LBB82_3
	cmpw	%di, %r14w
	jmp	LBB82_25
LBB82_13:
	cmpb	$5, %r11b
	jne	LBB82_3
	cmpl	%esi, %r10d
	setge	%cl
	jmp	LBB82_26
LBB82_15:
	cmpb	$6, %r11b
	jne	LBB82_3
	cmpl	%esi, %r10d
	jmp	LBB82_25
LBB82_17:
	cmpb	$7, %r11b
	jne	LBB82_3
LBB82_18:
	cmpq	%r12, %r9
	setge	%cl
	jmp	LBB82_26
LBB82_19:
	cmpb	$8, %r11b
	jne	LBB82_3
	cmpq	%r12, %r9
	jmp	LBB82_25
LBB82_21:
	cmpb	$9, %r11b
	jne	LBB82_3
	movd	%r10d, %xmm0
	movd	%esi, %xmm1
	ucomiss	%xmm1, %xmm0
	jmp	LBB82_25
LBB82_23:
	cmpb	$10, %r11b
	jne	LBB82_3
	movq	%r9, %xmm0
	movq	%r12, %xmm1
	ucomisd	%xmm1, %xmm0
LBB82_25:
	setae	%cl
LBB82_26:
	movzbl	%cl, %ecx
	movb	$0, 8(%rax)
	movq	%rcx, 16(%rax)
	xorl	%ecx, %ecx
	jmp	LBB82_27
LBB82_3:
	movb	$42, 8(%rax)
	movl	$1, %ecx
LBB82_27:
	movq	%rcx, (%rax)
	popq	%rbx
	popq	%r12
	popq	%r14
	popq	%r15
	popq	%rbp
	retq
	.cfi_endproc
	.p2align	2, 0x90
	.data_region jt32
.set L82_0_set_2, LBB82_2-LJTI82_0
.set L82_0_set_5, LBB82_5-LJTI82_0
.set L82_0_set_7, LBB82_7-LJTI82_0
.set L82_0_set_9, LBB82_9-LJTI82_0
.set L82_0_set_11, LBB82_11-LJTI82_0
.set L82_0_set_13, LBB82_13-LJTI82_0
.set L82_0_set_15, LBB82_15-LJTI82_0
.set L82_0_set_17, LBB82_17-LJTI82_0
.set L82_0_set_19, LBB82_19-LJTI82_0
.set L82_0_set_21, LBB82_21-LJTI82_0
.set L82_0_set_23, LBB82_23-LJTI82_0
LJTI82_0:
	.long	L82_0_set_2
	.long	L82_0_set_5
	.long	L82_0_set_7
	.long	L82_0_set_9
	.long	L82_0_set_11
	.long	L82_0_set_13
	.long	L82_0_set_15
	.long	L82_0_set_17
	.long	L82_0_set_19
	.long	L82_0_set_21
	.long	L82_0_set_23
	.end_data_region

	.globl	__ZN5gimli4read5value5Value2gt17h7a789e269655a069E
	.p2align	4, 0x90
__ZN5gimli4read5value5Value2gt17h7a789e269655a069E:
	.cfi_startproc
	pushq	%rbp
	.cfi_def_cfa_offset 16
	.cfi_offset %rbp, -16
	movq	%rsp, %rbp
	.cfi_def_cfa_register %rbp
	pushq	%r15
	pushq	%r14
	pushq	%r12
	pushq	%rbx
	.cfi_offset %rbx, -48
	.cfi_offset %r12, -40
	.cfi_offset %r14, -32
	.cfi_offset %r15, -24
	movq	%rdi, %rax
	movzbl	(%rsi), %ebx
	cmpq	$10, %rbx
	ja	LBB83_3
	movb	1(%rsi), %r8b
	movzwl	2(%rsi), %r14d
	movl	4(%rsi), %r10d
	movq	8(%rsi), %r9
	movb	(%rdx), %r11b
	movb	1(%rdx), %r15b
	movzwl	2(%rdx), %edi
	movl	4(%rdx), %esi
	movq	8(%rdx), %r12
	leaq	LJTI83_0(%rip), %rdx
	movslq	(%rdx,%rbx,4), %rbx
	addq	%rdx, %rbx
	jmpq	*%rbx
LBB83_2:
	testb	%r11b, %r11b
	jne	LBB83_3
	movq	%rcx, %rdx
	shrq	%rdx
	incq	%rdx
	andq	%rcx, %r9
	xorq	%rdx, %r9
	subq	%rdx, %r9
	andq	%rcx, %r12
	xorq	%rdx, %r12
	subq	%rdx, %r12
	jmp	LBB83_18
LBB83_5:
	cmpb	$1, %r11b
	jne	LBB83_3
	cmpb	%r15b, %r8b
	setg	%cl
	jmp	LBB83_26
LBB83_7:
	cmpb	$2, %r11b
	jne	LBB83_3
	cmpb	%r15b, %r8b
	jmp	LBB83_25
LBB83_9:
	cmpb	$3, %r11b
	jne	LBB83_3
	cmpw	%di, %r14w
	setg	%cl
	jmp	LBB83_26
LBB83_11:
	cmpb	$4, %r11b
	jne	LBB83_3
	cmpw	%di, %r14w
	jmp	LBB83_25
LBB83_13:
	cmpb	$5, %r11b
	jne	LBB83_3
	cmpl	%esi, %r10d
	setg	%cl
	jmp	LBB83_26
LBB83_15:
	cmpb	$6, %r11b
	jne	LBB83_3
	cmpl	%esi, %r10d
	jmp	LBB83_25
LBB83_17:
	cmpb	$7, %r11b
	jne	LBB83_3
LBB83_18:
	cmpq	%r12, %r9
	setg	%cl
	jmp	LBB83_26
LBB83_19:
	cmpb	$8, %r11b
	jne	LBB83_3
	cmpq	%r12, %r9
	jmp	LBB83_25
LBB83_21:
	cmpb	$9, %r11b
	jne	LBB83_3
	movd	%r10d, %xmm0
	movd	%esi, %xmm1
	ucomiss	%xmm1, %xmm0
	jmp	LBB83_25
LBB83_23:
	cmpb	$10, %r11b
	jne	LBB83_3
	movq	%r9, %xmm0
	movq	%r12, %xmm1
	ucomisd	%xmm1, %xmm0
LBB83_25:
	seta	%cl
LBB83_26:
	movzbl	%cl, %ecx
	movb	$0, 8(%rax)
	movq	%rcx, 16(%rax)
	xorl	%ecx, %ecx
	jmp	LBB83_27
LBB83_3:
	movb	$42, 8(%rax)
	movl	$1, %ecx
LBB83_27:
	movq	%rcx, (%rax)
	popq	%rbx
	popq	%r12
	popq	%r14
	popq	%r15
	popq	%rbp
	retq
	.cfi_endproc
	.p2align	2, 0x90
	.data_region jt32
.set L83_0_set_2, LBB83_2-LJTI83_0
.set L83_0_set_5, LBB83_5-LJTI83_0
.set L83_0_set_7, LBB83_7-LJTI83_0
.set L83_0_set_9, LBB83_9-LJTI83_0
.set L83_0_set_11, LBB83_11-LJTI83_0
.set L83_0_set_13, LBB83_13-LJTI83_0
.set L83_0_set_15, LBB83_15-LJTI83_0
.set L83_0_set_17, LBB83_17-LJTI83_0
.set L83_0_set_19, LBB83_19-LJTI83_0
.set L83_0_set_21, LBB83_21-LJTI83_0
.set L83_0_set_23, LBB83_23-LJTI83_0
LJTI83_0:
	.long	L83_0_set_2
	.long	L83_0_set_5
	.long	L83_0_set_7
	.long	L83_0_set_9
	.long	L83_0_set_11
	.long	L83_0_set_13
	.long	L83_0_set_15
	.long	L83_0_set_17
	.long	L83_0_set_19
	.long	L83_0_set_21
	.long	L83_0_set_23
	.end_data_region

	.globl	__ZN5gimli4read5value5Value2le17h425413c64ad53412E
	.p2align	4, 0x90
__ZN5gimli4read5value5Value2le17h425413c64ad53412E:
	.cfi_startproc
	pushq	%rbp
	.cfi_def_cfa_offset 16
	.cfi_offset %rbp, -16
	movq	%rsp, %rbp
	.cfi_def_cfa_register %rbp
	pushq	%r15
	pushq	%r14
	pushq	%r12
	pushq	%rbx
	.cfi_offset %rbx, -48
	.cfi_offset %r12, -40
	.cfi_offset %r14, -32
	.cfi_offset %r15, -24
	movq	%rdi, %rax
	movzbl	(%rsi), %ebx
	cmpq	$10, %rbx
	ja	LBB84_3
	movb	1(%rsi), %r8b
	movzwl	2(%rsi), %r14d
	movl	4(%rsi), %r10d
	movq	8(%rsi), %r9
	movb	(%rdx), %r11b
	movb	1(%rdx), %r15b
	movzwl	2(%rdx), %edi
	movl	4(%rdx), %esi
	movq	8(%rdx), %r12
	leaq	LJTI84_0(%rip), %rdx
	movslq	(%rdx,%rbx,4), %rbx
	addq	%rdx, %rbx
	jmpq	*%rbx
LBB84_2:
	testb	%r11b, %r11b
	jne	LBB84_3
	movq	%rcx, %rdx
	shrq	%rdx
	incq	%rdx
	andq	%rcx, %r9
	xorq	%rdx, %r9
	subq	%rdx, %r9
	andq	%rcx, %r12
	xorq	%rdx, %r12
	subq	%rdx, %r12
	jmp	LBB84_18
LBB84_5:
	cmpb	$1, %r11b
	jne	LBB84_3
	cmpb	%r15b, %r8b
	setle	%cl
	jmp	LBB84_26
LBB84_7:
	cmpb	$2, %r11b
	jne	LBB84_3
	cmpb	%r15b, %r8b
	setbe	%cl
	jmp	LBB84_26
LBB84_9:
	cmpb	$3, %r11b
	jne	LBB84_3
	cmpw	%di, %r14w
	setle	%cl
	jmp	LBB84_26
LBB84_11:
	cmpb	$4, %r11b
	jne	LBB84_3
	cmpw	%di, %r14w
	setbe	%cl
	jmp	LBB84_26
LBB84_13:
	cmpb	$5, %r11b
	jne	LBB84_3
	cmpl	%esi, %r10d
	setle	%cl
	jmp	LBB84_26
LBB84_15:
	cmpb	$6, %r11b
	jne	LBB84_3
	cmpl	%esi, %r10d
	setbe	%cl
	jmp	LBB84_26
LBB84_17:
	cmpb	$7, %r11b
	jne	LBB84_3
LBB84_18:
	cmpq	%r12, %r9
	setle	%cl
	jmp	LBB84_26
LBB84_19:
	cmpb	$8, %r11b
	jne	LBB84_3
	cmpq	%r12, %r9
	setbe	%cl
	jmp	LBB84_26
LBB84_21:
	cmpb	$9, %r11b
	jne	LBB84_3
	movd	%r10d, %xmm0
	movd	%esi, %xmm1
	ucomiss	%xmm0, %xmm1
	jmp	LBB84_25
LBB84_23:
	cmpb	$10, %r11b
	jne	LBB84_3
	movq	%r9, %xmm0
	movq	%r12, %xmm1
	ucomisd	%xmm0, %xmm1
LBB84_25:
	setae	%cl
LBB84_26:
	movzbl	%cl, %ecx
	movb	$0, 8(%rax)
	movq	%rcx, 16(%rax)
	xorl	%ecx, %ecx
	jmp	LBB84_27
LBB84_3:
	movb	$42, 8(%rax)
	movl	$1, %ecx
LBB84_27:
	movq	%rcx, (%rax)
	popq	%rbx
	popq	%r12
	popq	%r14
	popq	%r15
	popq	%rbp
	retq
	.cfi_endproc
	.p2align	2, 0x90
	.data_region jt32
.set L84_0_set_2, LBB84_2-LJTI84_0
.set L84_0_set_5, LBB84_5-LJTI84_0
.set L84_0_set_7, LBB84_7-LJTI84_0
.set L84_0_set_9, LBB84_9-LJTI84_0
.set L84_0_set_11, LBB84_11-LJTI84_0
.set L84_0_set_13, LBB84_13-LJTI84_0
.set L84_0_set_15, LBB84_15-LJTI84_0
.set L84_0_set_17, LBB84_17-LJTI84_0
.set L84_0_set_19, LBB84_19-LJTI84_0
.set L84_0_set_21, LBB84_21-LJTI84_0
.set L84_0_set_23, LBB84_23-LJTI84_0
LJTI84_0:
	.long	L84_0_set_2
	.long	L84_0_set_5
	.long	L84_0_set_7
	.long	L84_0_set_9
	.long	L84_0_set_11
	.long	L84_0_set_13
	.long	L84_0_set_15
	.long	L84_0_set_17
	.long	L84_0_set_19
	.long	L84_0_set_21
	.long	L84_0_set_23
	.end_data_region

	.globl	__ZN5gimli4read5value5Value2lt17h52f8a429f3b65313E
	.p2align	4, 0x90
__ZN5gimli4read5value5Value2lt17h52f8a429f3b65313E:
	.cfi_startproc
	pushq	%rbp
	.cfi_def_cfa_offset 16
	.cfi_offset %rbp, -16
	movq	%rsp, %rbp
	.cfi_def_cfa_register %rbp
	pushq	%r15
	pushq	%r14
	pushq	%r12
	pushq	%rbx
	.cfi_offset %rbx, -48
	.cfi_offset %r12, -40
	.cfi_offset %r14, -32
	.cfi_offset %r15, -24
	movq	%rdi, %rax
	movzbl	(%rsi), %ebx
	cmpq	$10, %rbx
	ja	LBB85_3
	movb	1(%rsi), %r8b
	movzwl	2(%rsi), %r14d
	movl	4(%rsi), %r10d
	movq	8(%rsi), %r9
	movb	(%rdx), %r11b
	movb	1(%rdx), %r15b
	movzwl	2(%rdx), %edi
	movl	4(%rdx), %esi
	movq	8(%rdx), %r12
	leaq	LJTI85_0(%rip), %rdx
	movslq	(%rdx,%rbx,4), %rbx
	addq	%rdx, %rbx
	jmpq	*%rbx
LBB85_2:
	testb	%r11b, %r11b
	jne	LBB85_3
	movq	%rcx, %rdx
	shrq	%rdx
	incq	%rdx
	andq	%rcx, %r9
	xorq	%rdx, %r9
	subq	%rdx, %r9
	andq	%rcx, %r12
	xorq	%rdx, %r12
	subq	%rdx, %r12
	jmp	LBB85_18
LBB85_5:
	cmpb	$1, %r11b
	jne	LBB85_3
	cmpb	%r15b, %r8b
	setl	%cl
	jmp	LBB85_26
LBB85_7:
	cmpb	$2, %r11b
	jne	LBB85_3
	cmpb	%r15b, %r8b
	setb	%cl
	jmp	LBB85_26
LBB85_9:
	cmpb	$3, %r11b
	jne	LBB85_3
	cmpw	%di, %r14w
	setl	%cl
	jmp	LBB85_26
LBB85_11:
	cmpb	$4, %r11b
	jne	LBB85_3
	cmpw	%di, %r14w
	setb	%cl
	jmp	LBB85_26
LBB85_13:
	cmpb	$5, %r11b
	jne	LBB85_3
	cmpl	%esi, %r10d
	setl	%cl
	jmp	LBB85_26
LBB85_15:
	cmpb	$6, %r11b
	jne	LBB85_3
	cmpl	%esi, %r10d
	setb	%cl
	jmp	LBB85_26
LBB85_17:
	cmpb	$7, %r11b
	jne	LBB85_3
LBB85_18:
	cmpq	%r12, %r9
	setl	%cl
	jmp	LBB85_26
LBB85_19:
	cmpb	$8, %r11b
	jne	LBB85_3
	cmpq	%r12, %r9
	setb	%cl
	jmp	LBB85_26
LBB85_21:
	cmpb	$9, %r11b
	jne	LBB85_3
	movd	%r10d, %xmm0
	movd	%esi, %xmm1
	ucomiss	%xmm0, %xmm1
	jmp	LBB85_25
LBB85_23:
	cmpb	$10, %r11b
	jne	LBB85_3
	movq	%r9, %xmm0
	movq	%r12, %xmm1
	ucomisd	%xmm0, %xmm1
LBB85_25:
	seta	%cl
LBB85_26:
	movzbl	%cl, %ecx
	movb	$0, 8(%rax)
	movq	%rcx, 16(%rax)
	xorl	%ecx, %ecx
	jmp	LBB85_27
LBB85_3:
	movb	$42, 8(%rax)
	movl	$1, %ecx
LBB85_27:
	movq	%rcx, (%rax)
	popq	%rbx
	popq	%r12
	popq	%r14
	popq	%r15
	popq	%rbp
	retq
	.cfi_endproc
	.p2align	2, 0x90
	.data_region jt32
.set L85_0_set_2, LBB85_2-LJTI85_0
.set L85_0_set_5, LBB85_5-LJTI85_0
.set L85_0_set_7, LBB85_7-LJTI85_0
.set L85_0_set_9, LBB85_9-LJTI85_0
.set L85_0_set_11, LBB85_11-LJTI85_0
.set L85_0_set_13, LBB85_13-LJTI85_0
.set L85_0_set_15, LBB85_15-LJTI85_0
.set L85_0_set_17, LBB85_17-LJTI85_0
.set L85_0_set_19, LBB85_19-LJTI85_0
.set L85_0_set_21, LBB85_21-LJTI85_0
.set L85_0_set_23, LBB85_23-LJTI85_0
LJTI85_0:
	.long	L85_0_set_2
	.long	L85_0_set_5
	.long	L85_0_set_7
	.long	L85_0_set_9
	.long	L85_0_set_11
	.long	L85_0_set_13
	.long	L85_0_set_15
	.long	L85_0_set_17
	.long	L85_0_set_19
	.long	L85_0_set_21
	.long	L85_0_set_23
	.end_data_region

	.globl	__ZN5gimli4read5value5Value2ne17h015dab60f5b3015bE
	.p2align	4, 0x90
__ZN5gimli4read5value5Value2ne17h015dab60f5b3015bE:
	.cfi_startproc
	pushq	%rbp
	.cfi_def_cfa_offset 16
	.cfi_offset %rbp, -16
	movq	%rsp, %rbp
	.cfi_def_cfa_register %rbp
	pushq	%r15
	pushq	%r14
	pushq	%r12
	pushq	%rbx
	.cfi_offset %rbx, -48
	.cfi_offset %r12, -40
	.cfi_offset %r14, -32
	.cfi_offset %r15, -24
	movq	%rdi, %rax
	movzbl	(%rsi), %ebx
	cmpq	$10, %rbx
	ja	LBB86_3
	movb	1(%rsi), %r8b
	movzwl	2(%rsi), %r14d
	movl	4(%rsi), %r10d
	movq	8(%rsi), %r9
	movb	(%rdx), %r11b
	movb	1(%rdx), %r15b
	movzwl	2(%rdx), %edi
	movl	4(%rdx), %esi
	movq	8(%rdx), %r12
	leaq	LJTI86_0(%rip), %rdx
	movslq	(%rdx,%rbx,4), %rbx
	addq	%rdx, %rbx
	jmpq	*%rbx
LBB86_2:
	testb	%r11b, %r11b
	jne	LBB86_3
	xorq	%r9, %r12
	testq	%rcx, %r12
	jmp	LBB86_21
LBB86_8:
	cmpb	$1, %r11b
	je	LBB86_9
	jmp	LBB86_3
LBB86_4:
	cmpb	$2, %r11b
	jne	LBB86_3
LBB86_9:
	cmpb	%r15b, %r8b
	jmp	LBB86_21
LBB86_10:
	cmpb	$3, %r11b
	je	LBB86_11
	jmp	LBB86_3
LBB86_5:
	cmpb	$4, %r11b
	jne	LBB86_3
LBB86_11:
	cmpw	%di, %r14w
	jmp	LBB86_21
LBB86_12:
	cmpb	$5, %r11b
	je	LBB86_13
	jmp	LBB86_3
LBB86_6:
	cmpb	$6, %r11b
	jne	LBB86_3
LBB86_13:
	cmpl	%esi, %r10d
	jmp	LBB86_21
LBB86_14:
	cmpb	$7, %r11b
	je	LBB86_15
	jmp	LBB86_3
LBB86_7:
	cmpb	$8, %r11b
	jne	LBB86_3
LBB86_15:
	cmpq	%r12, %r9
LBB86_21:
	setne	%cl
LBB86_22:
	movzbl	%cl, %ecx
	movb	$0, 8(%rax)
	movq	%rcx, 16(%rax)
	xorl	%ecx, %ecx
	jmp	LBB86_23
LBB86_16:
	cmpb	$9, %r11b
	jne	LBB86_3
	movd	%r10d, %xmm0
	movd	%esi, %xmm1
	cmpneqss	%xmm0, %xmm1
	movd	%xmm1, %ecx
	andl	$1, %ecx
	jmp	LBB86_22
LBB86_18:
	cmpb	$10, %r11b
	jne	LBB86_3
	movq	%r9, %xmm0
	movq	%r12, %xmm1
	cmpneqsd	%xmm0, %xmm1
	movq	%xmm1, %rcx
	andl	$1, %ecx
	jmp	LBB86_22
LBB86_3:
	movb	$42, 8(%rax)
	movl	$1, %ecx
LBB86_23:
	movq	%rcx, (%rax)
	popq	%rbx
	popq	%r12
	popq	%r14
	popq	%r15
	popq	%rbp
	retq
	.cfi_endproc
	.p2align	2, 0x90
	.data_region jt32
.set L86_0_set_2, LBB86_2-LJTI86_0
.set L86_0_set_8, LBB86_8-LJTI86_0
.set L86_0_set_4, LBB86_4-LJTI86_0
.set L86_0_set_10, LBB86_10-LJTI86_0
.set L86_0_set_5, LBB86_5-LJTI86_0
.set L86_0_set_12, LBB86_12-LJTI86_0
.set L86_0_set_6, LBB86_6-LJTI86_0
.set L86_0_set_14, LBB86_14-LJTI86_0
.set L86_0_set_7, LBB86_7-LJTI86_0
.set L86_0_set_16, LBB86_16-LJTI86_0
.set L86_0_set_18, LBB86_18-LJTI86_0
LJTI86_0:
	.long	L86_0_set_2
	.long	L86_0_set_8
	.long	L86_0_set_4
	.long	L86_0_set_10
	.long	L86_0_set_5
	.long	L86_0_set_12
	.long	L86_0_set_6
	.long	L86_0_set_14
	.long	L86_0_set_7
	.long	L86_0_set_16
	.long	L86_0_set_18
	.end_data_region

	.globl	__ZN5gimli4read5Error11description17hb73ff1ef3a1763d5E
	.p2align	4, 0x90
__ZN5gimli4read5Error11description17hb73ff1ef3a1763d5E:
	.cfi_startproc
	pushq	%rbp
	.cfi_def_cfa_offset 16
	.cfi_offset %rbp, -16
	movq	%rsp, %rbp
	.cfi_def_cfa_register %rbp
	movzbl	(%rdi), %ecx
	leaq	l___unnamed_102(%rip), %rax
	movl	$50, %edx
	leaq	LJTI87_0(%rip), %rsi
	movslq	(%rsi,%rcx,4), %rcx
	addq	%rsi, %rcx
	jmpq	*%rcx
LBB87_1:
	leaq	l___unnamed_103(%rip), %rax
	movl	$36, %edx
	popq	%rbp
	retq
LBB87_2:
	leaq	l___unnamed_104(%rip), %rax
	movl	$63, %edx
	popq	%rbp
	retq
LBB87_3:
	leaq	l___unnamed_105(%rip), %rax
	movl	$68, %edx
	popq	%rbp
	retq
LBB87_4:
	leaq	l___unnamed_106(%rip), %rax
	movl	$62, %edx
	popq	%rbp
	retq
LBB87_5:
	leaq	l___unnamed_107(%rip), %rax
	movl	$82, %edx
	popq	%rbp
	retq
LBB87_6:
	leaq	l___unnamed_108(%rip), %rax
	movl	$55, %edx
	popq	%rbp
	retq
LBB87_7:
	leaq	l___unnamed_109(%rip), %rax
	movl	$41, %edx
	popq	%rbp
	retq
LBB87_8:
	leaq	l___unnamed_110(%rip), %rax
	movl	$38, %edx
	popq	%rbp
	retq
LBB87_9:
	leaq	l___unnamed_111(%rip), %rax
	movl	$101, %edx
	popq	%rbp
	retq
LBB87_10:
	leaq	l___unnamed_112(%rip), %rax
	movl	$113, %edx
	popq	%rbp
	retq
LBB87_11:
	leaq	l___unnamed_113(%rip), %rax
	movl	$91, %edx
	popq	%rbp
	retq
LBB87_12:
	leaq	l___unnamed_114(%rip), %rax
	movl	$34, %edx
	popq	%rbp
	retq
LBB87_13:
	leaq	l___unnamed_115(%rip), %rax
	movl	$33, %edx
	popq	%rbp
	retq
LBB87_14:
	leaq	l___unnamed_116(%rip), %rax
	movl	$37, %edx
	popq	%rbp
	retq
LBB87_15:
	leaq	l___unnamed_117(%rip), %rax
	movl	$53, %edx
	popq	%rbp
	retq
LBB87_16:
	leaq	l___unnamed_118(%rip), %rax
	movl	$24, %edx
	popq	%rbp
	retq
LBB87_17:
	leaq	l___unnamed_119(%rip), %rax
	movl	$38, %edx
	popq	%rbp
	retq
LBB87_18:
	leaq	l___unnamed_120(%rip), %rax
	movl	$30, %edx
	popq	%rbp
	retq
LBB87_19:
	leaq	l___unnamed_121(%rip), %rax
	jmp	LBB87_70
LBB87_20:
	leaq	l___unnamed_122(%rip), %rax
	movl	$43, %edx
	popq	%rbp
	retq
LBB87_21:
	leaq	l___unnamed_123(%rip), %rax
	movl	$41, %edx
	popq	%rbp
	retq
LBB87_22:
	leaq	l___unnamed_124(%rip), %rax
	movl	$32, %edx
	popq	%rbp
	retq
LBB87_23:
	leaq	l___unnamed_125(%rip), %rax
	movl	$32, %edx
	popq	%rbp
	retq
LBB87_24:
	leaq	l___unnamed_126(%rip), %rax
	movl	$43, %edx
	popq	%rbp
	retq
LBB87_25:
	leaq	l___unnamed_127(%rip), %rax
	movl	$42, %edx
	popq	%rbp
	retq
LBB87_26:
	leaq	l___unnamed_128(%rip), %rax
	movl	$41, %edx
	popq	%rbp
	retq
LBB87_27:
	leaq	l___unnamed_129(%rip), %rax
	jmp	LBB87_70
LBB87_28:
	leaq	l___unnamed_130(%rip), %rax
	movl	$56, %edx
	popq	%rbp
	retq
LBB87_29:
	leaq	l___unnamed_131(%rip), %rax
	movl	$32, %edx
	popq	%rbp
	retq
LBB87_30:
	leaq	l___unnamed_132(%rip), %rax
	movl	$33, %edx
	popq	%rbp
	retq
LBB87_31:
	leaq	l___unnamed_133(%rip), %rax
	movl	$30, %edx
	popq	%rbp
	retq
LBB87_32:
	leaq	l___unnamed_134(%rip), %rax
	movl	$54, %edx
	popq	%rbp
	retq
LBB87_33:
	leaq	l___unnamed_135(%rip), %rax
	movl	$61, %edx
	popq	%rbp
	retq
LBB87_34:
	leaq	l___unnamed_136(%rip), %rax
	movl	$65, %edx
	popq	%rbp
	retq
LBB87_35:
	leaq	l___unnamed_137(%rip), %rax
	movl	$41, %edx
	popq	%rbp
	retq
LBB87_36:
	leaq	l___unnamed_138(%rip), %rax
	movl	$58, %edx
	popq	%rbp
	retq
LBB87_37:
	leaq	l___unnamed_139(%rip), %rax
	movl	$52, %edx
	popq	%rbp
	retq
LBB87_38:
	leaq	l___unnamed_140(%rip), %rax
	jmp	LBB87_70
LBB87_39:
	leaq	l___unnamed_141(%rip), %rax
	movl	$34, %edx
	popq	%rbp
	retq
LBB87_40:
	leaq	l___unnamed_142(%rip), %rax
	movl	$66, %edx
	popq	%rbp
	retq
LBB87_41:
	leaq	l___unnamed_143(%rip), %rax
	movl	$39, %edx
	popq	%rbp
	retq
LBB87_42:
	leaq	l___unnamed_144(%rip), %rax
	movl	$54, %edx
	popq	%rbp
	retq
LBB87_43:
	leaq	l___unnamed_145(%rip), %rax
	movl	$40, %edx
	popq	%rbp
	retq
LBB87_44:
	leaq	l___unnamed_146(%rip), %rax
	movl	$49, %edx
	popq	%rbp
	retq
LBB87_45:
	leaq	l___unnamed_147(%rip), %rax
	movl	$57, %edx
	popq	%rbp
	retq
LBB87_46:
	leaq	l___unnamed_148(%rip), %rax
	movl	$64, %edx
	popq	%rbp
	retq
LBB87_47:
	leaq	l___unnamed_149(%rip), %rax
	movl	$32, %edx
	popq	%rbp
	retq
LBB87_48:
	leaq	l___unnamed_150(%rip), %rax
	movl	$61, %edx
	popq	%rbp
	retq
LBB87_49:
	leaq	l___unnamed_151(%rip), %rax
	movl	$73, %edx
	popq	%rbp
	retq
LBB87_50:
	leaq	l___unnamed_152(%rip), %rax
	movl	$75, %edx
	popq	%rbp
	retq
LBB87_51:
	leaq	l___unnamed_153(%rip), %rax
	movl	$143, %edx
	popq	%rbp
	retq
LBB87_52:
	leaq	l___unnamed_154(%rip), %rax
	movl	$46, %edx
	popq	%rbp
	retq
LBB87_53:
	leaq	l___unnamed_155(%rip), %rax
	movl	$60, %edx
	popq	%rbp
	retq
LBB87_54:
	leaq	l___unnamed_156(%rip), %rax
	movl	$56, %edx
	popq	%rbp
	retq
LBB87_55:
	leaq	l___unnamed_157(%rip), %rax
	movl	$42, %edx
	popq	%rbp
	retq
LBB87_56:
	leaq	l___unnamed_158(%rip), %rax
	movl	$34, %edx
	popq	%rbp
	retq
LBB87_57:
	leaq	l___unnamed_159(%rip), %rax
	movl	$34, %edx
	popq	%rbp
	retq
LBB87_58:
	leaq	l___unnamed_160(%rip), %rax
	movl	$49, %edx
	popq	%rbp
	retq
LBB87_59:
	leaq	l___unnamed_161(%rip), %rax
	movl	$46, %edx
	popq	%rbp
	retq
LBB87_60:
	leaq	l___unnamed_162(%rip), %rax
	movl	$69, %edx
	popq	%rbp
	retq
LBB87_61:
	leaq	l___unnamed_163(%rip), %rax
	movl	$74, %edx
	popq	%rbp
	retq
LBB87_62:
	leaq	l___unnamed_164(%rip), %rax
	movl	$115, %edx
	popq	%rbp
	retq
LBB87_63:
	leaq	l___unnamed_165(%rip), %rax
	movl	$54, %edx
	popq	%rbp
	retq
LBB87_64:
	leaq	l___unnamed_166(%rip), %rax
	movl	$51, %edx
	popq	%rbp
	retq
LBB87_65:
	leaq	l___unnamed_167(%rip), %rax
	movl	$38, %edx
	popq	%rbp
	retq
LBB87_66:
	leaq	l___unnamed_168(%rip), %rax
	movl	$61, %edx
	popq	%rbp
	retq
LBB87_67:
	leaq	l___unnamed_169(%rip), %rax
	movl	$41, %edx
	popq	%rbp
	retq
LBB87_69:
	leaq	l___unnamed_170(%rip), %rax
LBB87_70:
	movl	$48, %edx
LBB87_71:
	popq	%rbp
	retq
LBB87_68:
	leaq	l___unnamed_171(%rip), %rax
	movl	$42, %edx
	popq	%rbp
	retq
	.cfi_endproc
	.p2align	2, 0x90
	.data_region jt32
.set L87_0_set_1, LBB87_1-LJTI87_0
.set L87_0_set_2, LBB87_2-LJTI87_0
.set L87_0_set_3, LBB87_3-LJTI87_0
.set L87_0_set_4, LBB87_4-LJTI87_0
.set L87_0_set_5, LBB87_5-LJTI87_0
.set L87_0_set_6, LBB87_6-LJTI87_0
.set L87_0_set_7, LBB87_7-LJTI87_0
.set L87_0_set_8, LBB87_8-LJTI87_0
.set L87_0_set_9, LBB87_9-LJTI87_0
.set L87_0_set_10, LBB87_10-LJTI87_0
.set L87_0_set_11, LBB87_11-LJTI87_0
.set L87_0_set_12, LBB87_12-LJTI87_0
.set L87_0_set_13, LBB87_13-LJTI87_0
.set L87_0_set_14, LBB87_14-LJTI87_0
.set L87_0_set_15, LBB87_15-LJTI87_0
.set L87_0_set_16, LBB87_16-LJTI87_0
.set L87_0_set_17, LBB87_17-LJTI87_0
.set L87_0_set_18, LBB87_18-LJTI87_0
.set L87_0_set_19, LBB87_19-LJTI87_0
.set L87_0_set_20, LBB87_20-LJTI87_0
.set L87_0_set_21, LBB87_21-LJTI87_0
.set L87_0_set_22, LBB87_22-LJTI87_0
.set L87_0_set_23, LBB87_23-LJTI87_0
.set L87_0_set_24, LBB87_24-LJTI87_0
.set L87_0_set_25, LBB87_25-LJTI87_0
.set L87_0_set_26, LBB87_26-LJTI87_0
.set L87_0_set_27, LBB87_27-LJTI87_0
.set L87_0_set_28, LBB87_28-LJTI87_0
.set L87_0_set_29, LBB87_29-LJTI87_0
.set L87_0_set_30, LBB87_30-LJTI87_0
.set L87_0_set_31, LBB87_31-LJTI87_0
.set L87_0_set_32, LBB87_32-LJTI87_0
.set L87_0_set_33, LBB87_33-LJTI87_0
.set L87_0_set_34, LBB87_34-LJTI87_0
.set L87_0_set_35, LBB87_35-LJTI87_0
.set L87_0_set_36, LBB87_36-LJTI87_0
.set L87_0_set_37, LBB87_37-LJTI87_0
.set L87_0_set_38, LBB87_38-LJTI87_0
.set L87_0_set_39, LBB87_39-LJTI87_0
.set L87_0_set_40, LBB87_40-LJTI87_0
.set L87_0_set_41, LBB87_41-LJTI87_0
.set L87_0_set_42, LBB87_42-LJTI87_0
.set L87_0_set_43, LBB87_43-LJTI87_0
.set L87_0_set_44, LBB87_44-LJTI87_0
.set L87_0_set_45, LBB87_45-LJTI87_0
.set L87_0_set_46, LBB87_46-LJTI87_0
.set L87_0_set_47, LBB87_47-LJTI87_0
.set L87_0_set_48, LBB87_48-LJTI87_0
.set L87_0_set_49, LBB87_49-LJTI87_0
.set L87_0_set_50, LBB87_50-LJTI87_0
.set L87_0_set_51, LBB87_51-LJTI87_0
.set L87_0_set_52, LBB87_52-LJTI87_0
.set L87_0_set_53, LBB87_53-LJTI87_0
.set L87_0_set_54, LBB87_54-LJTI87_0
.set L87_0_set_55, LBB87_55-LJTI87_0
.set L87_0_set_56, LBB87_56-LJTI87_0
.set L87_0_set_57, LBB87_57-LJTI87_0
.set L87_0_set_58, LBB87_58-LJTI87_0
.set L87_0_set_59, LBB87_59-LJTI87_0
.set L87_0_set_60, LBB87_60-LJTI87_0
.set L87_0_set_61, LBB87_61-LJTI87_0
.set L87_0_set_62, LBB87_62-LJTI87_0
.set L87_0_set_63, LBB87_63-LJTI87_0
.set L87_0_set_64, LBB87_64-LJTI87_0
.set L87_0_set_65, LBB87_65-LJTI87_0
.set L87_0_set_66, LBB87_66-LJTI87_0
.set L87_0_set_67, LBB87_67-LJTI87_0
.set L87_0_set_68, LBB87_68-LJTI87_0
.set L87_0_set_69, LBB87_69-LJTI87_0
.set L87_0_set_71, LBB87_71-LJTI87_0
LJTI87_0:
	.long	L87_0_set_1
	.long	L87_0_set_2
	.long	L87_0_set_3
	.long	L87_0_set_4
	.long	L87_0_set_5
	.long	L87_0_set_6
	.long	L87_0_set_7
	.long	L87_0_set_8
	.long	L87_0_set_9
	.long	L87_0_set_10
	.long	L87_0_set_11
	.long	L87_0_set_12
	.long	L87_0_set_13
	.long	L87_0_set_14
	.long	L87_0_set_15
	.long	L87_0_set_16
	.long	L87_0_set_17
	.long	L87_0_set_18
	.long	L87_0_set_19
	.long	L87_0_set_20
	.long	L87_0_set_21
	.long	L87_0_set_22
	.long	L87_0_set_23
	.long	L87_0_set_24
	.long	L87_0_set_25
	.long	L87_0_set_26
	.long	L87_0_set_27
	.long	L87_0_set_28
	.long	L87_0_set_29
	.long	L87_0_set_30
	.long	L87_0_set_31
	.long	L87_0_set_32
	.long	L87_0_set_33
	.long	L87_0_set_34
	.long	L87_0_set_35
	.long	L87_0_set_36
	.long	L87_0_set_37
	.long	L87_0_set_38
	.long	L87_0_set_39
	.long	L87_0_set_40
	.long	L87_0_set_41
	.long	L87_0_set_42
	.long	L87_0_set_43
	.long	L87_0_set_44
	.long	L87_0_set_45
	.long	L87_0_set_46
	.long	L87_0_set_47
	.long	L87_0_set_48
	.long	L87_0_set_49
	.long	L87_0_set_50
	.long	L87_0_set_51
	.long	L87_0_set_52
	.long	L87_0_set_53
	.long	L87_0_set_54
	.long	L87_0_set_55
	.long	L87_0_set_56
	.long	L87_0_set_57
	.long	L87_0_set_58
	.long	L87_0_set_59
	.long	L87_0_set_60
	.long	L87_0_set_61
	.long	L87_0_set_62
	.long	L87_0_set_63
	.long	L87_0_set_64
	.long	L87_0_set_65
	.long	L87_0_set_66
	.long	L87_0_set_67
	.long	L87_0_set_68
	.long	L87_0_set_69
	.long	L87_0_set_71
	.end_data_region

	.globl	__ZN5gimli4read41_$LT$impl$u20$gimli..common..Register$GT$8from_u6417h92ca7c4d26369cadE
	.p2align	4, 0x90
__ZN5gimli4read41_$LT$impl$u20$gimli..common..Register$GT$8from_u6417h92ca7c4d26369cadE:
	.cfi_startproc
	pushq	%rbp
	.cfi_def_cfa_offset 16
	.cfi_offset %rbp, -16
	movq	%rsp, %rbp
	.cfi_def_cfa_register %rbp
	movq	%rdi, %rax
	cmpq	$65536, %rsi
	jae	LBB88_1
	movw	%si, 2(%rax)
	xorl	%ecx, %ecx
	movw	%cx, (%rax)
	popq	%rbp
	retq
LBB88_1:
	movb	$58, 8(%rax)
	movq	%rsi, 16(%rax)
	movw	$1, %cx
	movw	%cx, (%rax)
	popq	%rbp
	retq
	.cfi_endproc

	.globl	__ZN58_$LT$gimli..common..Format$u20$as$u20$core..fmt..Debug$GT$3fmt17h3100157de7e4b729E
	.p2align	4, 0x90
__ZN58_$LT$gimli..common..Format$u20$as$u20$core..fmt..Debug$GT$3fmt17h3100157de7e4b729E:
	.cfi_startproc
	pushq	%rbp
	.cfi_def_cfa_offset 16
	.cfi_offset %rbp, -16
	movq	%rsp, %rbp
	.cfi_def_cfa_register %rbp
	pushq	%rbx
	subq	$24, %rsp
	.cfi_offset %rbx, -24
	cmpb	$8, (%rdi)
	jne	LBB89_1
	leaq	l___unnamed_26(%rip), %rdx
	jmp	LBB89_3
LBB89_1:
	leaq	l___unnamed_27(%rip), %rdx
LBB89_3:
	leaq	-32(%rbp), %rbx
	movl	$7, %ecx
	movq	%rbx, %rdi
	callq	__ZN4core3fmt9Formatter11debug_tuple17h6c448643801d07e8E
	movq	%rbx, %rdi
	callq	__ZN4core3fmt8builders10DebugTuple6finish17h9f206806f7096c33E
	addq	$24, %rsp
	popq	%rbx
	popq	%rbp
	retq
	.cfi_endproc

	.globl	__ZN60_$LT$gimli..common..Encoding$u20$as$u20$core..fmt..Debug$GT$3fmt17hf534072c5015afeaE
	.p2align	4, 0x90
__ZN60_$LT$gimli..common..Encoding$u20$as$u20$core..fmt..Debug$GT$3fmt17hf534072c5015afeaE:
	.cfi_startproc
	pushq	%rbp
	.cfi_def_cfa_offset 16
	.cfi_offset %rbp, -16
	movq	%rsp, %rbp
	.cfi_def_cfa_register %rbp
	pushq	%r15
	pushq	%r14
	pushq	%rbx
	subq	$24, %rsp
	.cfi_offset %rbx, -40
	.cfi_offset %r14, -32
	.cfi_offset %r15, -24
	movq	%rdi, %rbx
	leaq	L___unnamed_28(%rip), %rdx
	leaq	-48(%rbp), %r14
	movl	$8, %ecx
	movq	%r14, %rdi
	callq	__ZN4core3fmt9Formatter12debug_struct17ha1a64e91d2a98458E
	movq	%rbx, -32(%rbp)
	leaq	1(%rbx), %r15
	addq	$2, %rbx
	leaq	l___unnamed_29(%rip), %rsi
	leaq	l___unnamed_24(%rip), %r8
	leaq	-32(%rbp), %rcx
	movl	$12, %edx
	movq	%r14, %rdi
	callq	__ZN4core3fmt8builders11DebugStruct5field17h6c54d35ac41bb1e6E
	movq	%r15, -32(%rbp)
	leaq	l___unnamed_30(%rip), %rsi
	leaq	l___unnamed_31(%rip), %r8
	leaq	-32(%rbp), %rcx
	movl	$6, %edx
	movq	%r14, %rdi
	callq	__ZN4core3fmt8builders11DebugStruct5field17h6c54d35ac41bb1e6E
	movq	%rbx, -32(%rbp)
	leaq	l___unnamed_32(%rip), %rsi
	leaq	l___unnamed_7(%rip), %r8
	leaq	-32(%rbp), %rcx
	movl	$7, %edx
	movq	%r14, %rdi
	callq	__ZN4core3fmt8builders11DebugStruct5field17h6c54d35ac41bb1e6E
	movq	%r14, %rdi
	callq	__ZN4core3fmt8builders11DebugStruct6finish17h67ed49fd5e81bb24E
	addq	$24, %rsp
	popq	%rbx
	popq	%r14
	popq	%r15
	popq	%rbp
	retq
	.cfi_endproc

	.globl	__ZN64_$LT$gimli..common..LineEncoding$u20$as$u20$core..fmt..Debug$GT$3fmt17h34639c0cb448a308E
	.p2align	4, 0x90
__ZN64_$LT$gimli..common..LineEncoding$u20$as$u20$core..fmt..Debug$GT$3fmt17h34639c0cb448a308E:
	.cfi_startproc
	pushq	%rbp
	.cfi_def_cfa_offset 16
	.cfi_offset %rbp, -16
	movq	%rsp, %rbp
	.cfi_def_cfa_register %rbp
	pushq	%r15
	pushq	%r14
	pushq	%r13
	pushq	%r12
	pushq	%rbx
	subq	$40, %rsp
	.cfi_offset %rbx, -56
	.cfi_offset %r12, -48
	.cfi_offset %r13, -40
	.cfi_offset %r14, -32
	.cfi_offset %r15, -24
	movq	%rdi, %rbx
	leaq	l___unnamed_172(%rip), %rdx
	leaq	-72(%rbp), %r15
	movl	$12, %ecx
	movq	%r15, %rdi
	callq	__ZN4core3fmt9Formatter12debug_struct17ha1a64e91d2a98458E
	movq	%rbx, -48(%rbp)
	leaq	1(%rbx), %r13
	leaq	2(%rbx), %r14
	leaq	3(%rbx), %r12
	leaq	4(%rbx), %rax
	movq	%rax, -56(%rbp)
	leaq	l___unnamed_173(%rip), %rsi
	leaq	l___unnamed_24(%rip), %rbx
	leaq	-48(%rbp), %rcx
	movl	$26, %edx
	movq	%r15, %rdi
	movq	%rbx, %r8
	callq	__ZN4core3fmt8builders11DebugStruct5field17h6c54d35ac41bb1e6E
	movq	%r13, -48(%rbp)
	leaq	l___unnamed_174(%rip), %rsi
	leaq	-48(%rbp), %rcx
	movl	$34, %edx
	movq	%r15, %rdi
	movq	%rbx, %r8
	callq	__ZN4core3fmt8builders11DebugStruct5field17h6c54d35ac41bb1e6E
	movq	%r14, -48(%rbp)
	leaq	l___unnamed_175(%rip), %rsi
	leaq	l___unnamed_176(%rip), %r8
	leaq	-48(%rbp), %rcx
	movl	$15, %edx
	movq	%r15, %rdi
	callq	__ZN4core3fmt8builders11DebugStruct5field17h6c54d35ac41bb1e6E
	movq	%r12, -48(%rbp)
	leaq	l___unnamed_177(%rip), %rsi
	leaq	l___unnamed_178(%rip), %r8
	leaq	-48(%rbp), %rcx
	movl	$9, %edx
	movq	%r15, %rdi
	callq	__ZN4core3fmt8builders11DebugStruct5field17h6c54d35ac41bb1e6E
	movq	-56(%rbp), %rax
	movq	%rax, -48(%rbp)
	leaq	l___unnamed_179(%rip), %rsi
	leaq	-48(%rbp), %rcx
	movl	$10, %edx
	movq	%r15, %rdi
	movq	%rbx, %r8
	callq	__ZN4core3fmt8builders11DebugStruct5field17h6c54d35ac41bb1e6E
	movq	%r15, %rdi
	callq	__ZN4core3fmt8builders11DebugStruct6finish17h67ed49fd5e81bb24E
	addq	$40, %rsp
	popq	%rbx
	popq	%r12
	popq	%r13
	popq	%r14
	popq	%r15
	popq	%rbp
	retq
	.cfi_endproc

	.globl	__ZN60_$LT$gimli..common..Register$u20$as$u20$core..fmt..Debug$GT$3fmt17h5c884374336a66b5E
	.p2align	4, 0x90
__ZN60_$LT$gimli..common..Register$u20$as$u20$core..fmt..Debug$GT$3fmt17h5c884374336a66b5E:
	.cfi_startproc
	pushq	%rbp
	.cfi_def_cfa_offset 16
	.cfi_offset %rbp, -16
	movq	%rsp, %rbp
	.cfi_def_cfa_register %rbp
	pushq	%r14
	pushq	%rbx
	subq	$32, %rsp
	.cfi_offset %rbx, -32
	.cfi_offset %r14, -24
	movq	%rdi, %rbx
	leaq	L___unnamed_180(%rip), %rdx
	leaq	-48(%rbp), %r14
	movl	$8, %ecx
	movq	%r14, %rdi
	callq	__ZN4core3fmt9Formatter11debug_tuple17h6c448643801d07e8E
	movq	%rbx, -24(%rbp)
	leaq	l___unnamed_7(%rip), %rdx
	leaq	-24(%rbp), %rsi
	movq	%r14, %rdi
	callq	__ZN4core3fmt8builders10DebugTuple5field17hc7b676d0e36b51d9E
	movq	%r14, %rdi
	callq	__ZN4core3fmt8builders10DebugTuple6finish17h9f206806f7096c33E
	addq	$32, %rsp
	popq	%rbx
	popq	%r14
	popq	%rbp
	retq
	.cfi_endproc

	.globl	__ZN70_$LT$gimli..common..DebugTypeSignature$u20$as$u20$core..fmt..Debug$GT$3fmt17h6ea994f386ea4348E
	.p2align	4, 0x90
__ZN70_$LT$gimli..common..DebugTypeSignature$u20$as$u20$core..fmt..Debug$GT$3fmt17h6ea994f386ea4348E:
	.cfi_startproc
	pushq	%rbp
	.cfi_def_cfa_offset 16
	.cfi_offset %rbp, -16
	movq	%rsp, %rbp
	.cfi_def_cfa_register %rbp
	pushq	%r14
	pushq	%rbx
	subq	$32, %rsp
	.cfi_offset %rbx, -32
	.cfi_offset %r14, -24
	movq	%rdi, %rbx
	leaq	l___unnamed_181(%rip), %rdx
	leaq	-48(%rbp), %r14
	movl	$18, %ecx
	movq	%r14, %rdi
	callq	__ZN4core3fmt9Formatter11debug_tuple17h6c448643801d07e8E
	movq	%rbx, -24(%rbp)
	leaq	l___unnamed_2(%rip), %rdx
	leaq	-24(%rbp), %rsi
	movq	%r14, %rdi
	callq	__ZN4core3fmt8builders10DebugTuple5field17hc7b676d0e36b51d9E
	movq	%r14, %rdi
	callq	__ZN4core3fmt8builders10DebugTuple6finish17h9f206806f7096c33E
	addq	$32, %rsp
	popq	%rbx
	popq	%r14
	popq	%rbp
	retq
	.cfi_endproc

	.globl	__ZN61_$LT$gimli..common..SectionId$u20$as$u20$core..fmt..Debug$GT$3fmt17hf3517f917a20d014E
	.p2align	4, 0x90
__ZN61_$LT$gimli..common..SectionId$u20$as$u20$core..fmt..Debug$GT$3fmt17hf3517f917a20d014E:
	.cfi_startproc
	pushq	%rbp
	.cfi_def_cfa_offset 16
	.cfi_offset %rbp, -16
	movq	%rsp, %rbp
	.cfi_def_cfa_register %rbp
	pushq	%rbx
	subq	$24, %rsp
	.cfi_offset %rbx, -24
	movzbl	(%rdi), %eax
	leaq	LJTI94_0(%rip), %rcx
	movslq	(%rcx,%rax,4), %rax
	addq	%rcx, %rax
	jmpq	*%rax
LBB94_3:
	leaq	l___unnamed_182(%rip), %rdx
	jmp	LBB94_4
LBB94_5:
	leaq	l___unnamed_183(%rip), %rdx
	jmp	LBB94_6
LBB94_7:
	leaq	l___unnamed_184(%rip), %rdx
	jmp	LBB94_8
LBB94_9:
	leaq	l___unnamed_185(%rip), %rdx
	jmp	LBB94_2
LBB94_10:
	leaq	l___unnamed_186(%rip), %rdx
	leaq	-32(%rbp), %rbx
	movl	$7, %ecx
	jmp	LBB94_27
LBB94_11:
	leaq	l___unnamed_187(%rip), %rdx
	jmp	LBB94_2
LBB94_12:
	leaq	l___unnamed_188(%rip), %rdx
	jmp	LBB94_6
LBB94_13:
	leaq	l___unnamed_189(%rip), %rdx
LBB94_6:
	leaq	-32(%rbp), %rbx
	movl	$9, %ecx
	jmp	LBB94_27
LBB94_14:
	leaq	l___unnamed_190(%rip), %rdx
	jmp	LBB94_8
LBB94_15:
	leaq	L___unnamed_191(%rip), %rdx
	jmp	LBB94_16
LBB94_17:
	leaq	l___unnamed_192(%rip), %rdx
	jmp	LBB94_18
LBB94_19:
	leaq	l___unnamed_193(%rip), %rdx
LBB94_8:
	leaq	-32(%rbp), %rbx
	movl	$12, %ecx
	jmp	LBB94_27
LBB94_20:
	leaq	l___unnamed_194(%rip), %rdx
	jmp	LBB94_2
LBB94_21:
	leaq	l___unnamed_195(%rip), %rdx
	jmp	LBB94_18
LBB94_22:
	leaq	l___unnamed_196(%rip), %rdx
	jmp	LBB94_18
LBB94_23:
	leaq	l___unnamed_197(%rip), %rdx
LBB94_4:
	leaq	-32(%rbp), %rbx
	movl	$11, %ecx
	jmp	LBB94_27
LBB94_24:
	leaq	l___unnamed_198(%rip), %rdx
LBB94_18:
	leaq	-32(%rbp), %rbx
	movl	$13, %ecx
	jmp	LBB94_27
LBB94_25:
	leaq	L___unnamed_199(%rip), %rdx
LBB94_16:
	leaq	-32(%rbp), %rbx
	movl	$8, %ecx
	jmp	LBB94_27
LBB94_26:
	leaq	l___unnamed_200(%rip), %rdx
	leaq	-32(%rbp), %rbx
	movl	$15, %ecx
	jmp	LBB94_27
LBB94_1:
	leaq	l___unnamed_201(%rip), %rdx
LBB94_2:
	leaq	-32(%rbp), %rbx
	movl	$10, %ecx
LBB94_27:
	movq	%rbx, %rdi
	callq	__ZN4core3fmt9Formatter11debug_tuple17h6c448643801d07e8E
	movq	%rbx, %rdi
	callq	__ZN4core3fmt8builders10DebugTuple6finish17h9f206806f7096c33E
	addq	$24, %rsp
	popq	%rbx
	popq	%rbp
	retq
	.cfi_endproc
	.p2align	2, 0x90
	.data_region jt32
.set L94_0_set_3, LBB94_3-LJTI94_0
.set L94_0_set_5, LBB94_5-LJTI94_0
.set L94_0_set_7, LBB94_7-LJTI94_0
.set L94_0_set_9, LBB94_9-LJTI94_0
.set L94_0_set_10, LBB94_10-LJTI94_0
.set L94_0_set_11, LBB94_11-LJTI94_0
.set L94_0_set_12, LBB94_12-LJTI94_0
.set L94_0_set_13, LBB94_13-LJTI94_0
.set L94_0_set_14, LBB94_14-LJTI94_0
.set L94_0_set_15, LBB94_15-LJTI94_0
.set L94_0_set_17, LBB94_17-LJTI94_0
.set L94_0_set_19, LBB94_19-LJTI94_0
.set L94_0_set_20, LBB94_20-LJTI94_0
.set L94_0_set_21, LBB94_21-LJTI94_0
.set L94_0_set_22, LBB94_22-LJTI94_0
.set L94_0_set_23, LBB94_23-LJTI94_0
.set L94_0_set_24, LBB94_24-LJTI94_0
.set L94_0_set_25, LBB94_25-LJTI94_0
.set L94_0_set_26, LBB94_26-LJTI94_0
.set L94_0_set_1, LBB94_1-LJTI94_0
LJTI94_0:
	.long	L94_0_set_3
	.long	L94_0_set_5
	.long	L94_0_set_7
	.long	L94_0_set_9
	.long	L94_0_set_10
	.long	L94_0_set_11
	.long	L94_0_set_12
	.long	L94_0_set_13
	.long	L94_0_set_14
	.long	L94_0_set_15
	.long	L94_0_set_17
	.long	L94_0_set_19
	.long	L94_0_set_20
	.long	L94_0_set_21
	.long	L94_0_set_22
	.long	L94_0_set_23
	.long	L94_0_set_24
	.long	L94_0_set_25
	.long	L94_0_set_26
	.long	L94_0_set_1
	.end_data_region

	.globl	__ZN53_$LT$gimli..arch..Arm$u20$as$u20$core..fmt..Debug$GT$3fmt17h1e25c14a5086c764E
	.p2align	4, 0x90
__ZN53_$LT$gimli..arch..Arm$u20$as$u20$core..fmt..Debug$GT$3fmt17h1e25c14a5086c764E:
	.cfi_startproc
	pushq	%rbp
	.cfi_def_cfa_offset 16
	.cfi_offset %rbp, -16
	movq	%rsp, %rbp
	.cfi_def_cfa_register %rbp
	pushq	%rbx
	subq	$24, %rsp
	.cfi_offset %rbx, -24
	leaq	l___unnamed_202(%rip), %rdx
	leaq	-32(%rbp), %rbx
	movl	$3, %ecx
	movq	%rbx, %rdi
	callq	__ZN4core3fmt9Formatter11debug_tuple17h6c448643801d07e8E
	movq	%rbx, %rdi
	callq	__ZN4core3fmt8builders10DebugTuple6finish17h9f206806f7096c33E
	addq	$24, %rsp
	popq	%rbx
	popq	%rbp
	retq
	.cfi_endproc

	.globl	__ZN5gimli4arch3Arm13register_name17hea9911b4974860b3E
	.p2align	4, 0x90
__ZN5gimli4arch3Arm13register_name17hea9911b4974860b3E:
	.cfi_startproc
	cmpw	$15, %di
	ja	LBB96_1
	pushq	%rbp
	.cfi_def_cfa_offset 16
	.cfi_offset %rbp, -16
	movq	%rsp, %rbp
	.cfi_def_cfa_register %rbp
	movswq	%di, %rax
	leaq	l_switch.table._ZN5gimli4arch3Arm13register_name17hea9911b4974860b3E(%rip), %rcx
	movq	(%rcx,%rax,8), %rdx
	leaq	l_switch.table._ZN5gimli4arch3Arm13register_name17hea9911b4974860b3E.93(%rip), %rcx
	movq	(%rcx,%rax,8), %rax
	popq	%rbp
	retq
LBB96_1:
	xorl	%eax, %eax
	retq
	.cfi_endproc

	.globl	__ZN53_$LT$gimli..arch..X86$u20$as$u20$core..fmt..Debug$GT$3fmt17h157645b03cad5758E
	.p2align	4, 0x90
__ZN53_$LT$gimli..arch..X86$u20$as$u20$core..fmt..Debug$GT$3fmt17h157645b03cad5758E:
	.cfi_startproc
	pushq	%rbp
	.cfi_def_cfa_offset 16
	.cfi_offset %rbp, -16
	movq	%rsp, %rbp
	.cfi_def_cfa_register %rbp
	pushq	%rbx
	subq	$24, %rsp
	.cfi_offset %rbx, -24
	leaq	l___unnamed_203(%rip), %rdx
	leaq	-32(%rbp), %rbx
	movl	$3, %ecx
	movq	%rbx, %rdi
	callq	__ZN4core3fmt9Formatter11debug_tuple17h6c448643801d07e8E
	movq	%rbx, %rdi
	callq	__ZN4core3fmt8builders10DebugTuple6finish17h9f206806f7096c33E
	addq	$24, %rsp
	popq	%rbx
	popq	%rbp
	retq
	.cfi_endproc

	.globl	__ZN5gimli4arch3X8613register_name17hc2a4cb4f8cd7c81aE
	.p2align	4, 0x90
__ZN5gimli4arch3X8613register_name17hc2a4cb4f8cd7c81aE:
	.cfi_startproc
	cmpw	$94, %di
	ja	LBB98_1
	pushq	%rbp
	.cfi_def_cfa_offset 16
	.cfi_offset %rbp, -16
	movq	%rsp, %rbp
	.cfi_def_cfa_register %rbp
	movswq	%di, %rax
	leaq	l_switch.table._ZN5gimli4arch3X8613register_name17hc2a4cb4f8cd7c81aE(%rip), %rcx
	movq	(%rcx,%rax,8), %rdx
	leaq	l_switch.table._ZN5gimli4arch3X8613register_name17hc2a4cb4f8cd7c81aE.94(%rip), %rcx
	movq	(%rcx,%rax,8), %rax
	popq	%rbp
	retq
LBB98_1:
	xorl	%eax, %eax
	retq
	.cfi_endproc

	.globl	__ZN56_$LT$gimli..arch..X86_64$u20$as$u20$core..fmt..Debug$GT$3fmt17h68d5cfce52940240E
	.p2align	4, 0x90
__ZN56_$LT$gimli..arch..X86_64$u20$as$u20$core..fmt..Debug$GT$3fmt17h68d5cfce52940240E:
	.cfi_startproc
	pushq	%rbp
	.cfi_def_cfa_offset 16
	.cfi_offset %rbp, -16
	movq	%rsp, %rbp
	.cfi_def_cfa_register %rbp
	pushq	%rbx
	subq	$24, %rsp
	.cfi_offset %rbx, -24
	leaq	l___unnamed_204(%rip), %rdx
	leaq	-32(%rbp), %rbx
	movl	$6, %ecx
	movq	%rbx, %rdi
	callq	__ZN4core3fmt9Formatter11debug_tuple17h6c448643801d07e8E
	movq	%rbx, %rdi
	callq	__ZN4core3fmt8builders10DebugTuple6finish17h9f206806f7096c33E
	addq	$24, %rsp
	popq	%rbx
	popq	%rbp
	retq
	.cfi_endproc

	.globl	__ZN5gimli4arch6X86_6413register_name17hc28b608908107995E
	.p2align	4, 0x90
__ZN5gimli4arch6X86_6413register_name17hc28b608908107995E:
	.cfi_startproc
	cmpw	$125, %di
	ja	LBB100_1
	pushq	%rbp
	.cfi_def_cfa_offset 16
	.cfi_offset %rbp, -16
	movq	%rsp, %rbp
	.cfi_def_cfa_register %rbp
	movswq	%di, %rax
	leaq	l_switch.table._ZN5gimli4arch6X86_6413register_name17hc28b608908107995E(%rip), %rcx
	movq	(%rcx,%rax,8), %rdx
	leaq	l_switch.table._ZN5gimli4arch6X86_6413register_name17hc28b608908107995E.95(%rip), %rcx
	movq	(%rcx,%rax,8), %rax
	popq	%rbp
	retq
LBB100_1:
	xorl	%eax, %eax
	retq
	.cfi_endproc

	.globl	__ZN5gimli9constants4DwUt13static_string17h74c822f463377a3aE
	.p2align	4, 0x90
__ZN5gimli9constants4DwUt13static_string17h74c822f463377a3aE:
	.cfi_startproc
	pushq	%rbp
	.cfi_def_cfa_offset 16
	.cfi_offset %rbp, -16
	movq	%rsp, %rbp
	.cfi_def_cfa_register %rbp
	movb	(%rdi), %cl
	movl	$13, %edx
	xorl	%eax, %eax
	leal	1(%rcx), %esi
	cmpb	$7, %sil
	ja	LBB101_1
	leaq	l___unnamed_205(%rip), %rcx
	movzbl	%sil, %esi
	leaq	LJTI101_0(%rip), %rdi
	movslq	(%rdi,%rsi,4), %rsi
	addq	%rdi, %rsi
	jmpq	*%rsi
LBB101_8:
	leaq	l___unnamed_206(%rip), %rcx
	jmp	LBB101_10
LBB101_1:
	cmpb	$-128, %cl
	jne	LBB101_11
	leaq	l___unnamed_207(%rip), %rcx
	jmp	LBB101_10
LBB101_9:
	leaq	l___unnamed_208(%rip), %rcx
	movl	$10, %edx
	jmp	LBB101_10
LBB101_4:
	leaq	l___unnamed_209(%rip), %rcx
	jmp	LBB101_10
LBB101_5:
	leaq	l___unnamed_210(%rip), %rcx
	movl	$14, %edx
	jmp	LBB101_10
LBB101_6:
	leaq	l___unnamed_211(%rip), %rcx
	movl	$19, %edx
	jmp	LBB101_10
LBB101_7:
	leaq	L___unnamed_212(%rip), %rcx
	movl	$16, %edx
LBB101_10:
	movq	%rcx, %rax
LBB101_11:
	popq	%rbp
	retq
	.cfi_endproc
	.p2align	2, 0x90
	.data_region jt32
.set L101_0_set_8, LBB101_8-LJTI101_0
.set L101_0_set_11, LBB101_11-LJTI101_0
.set L101_0_set_10, LBB101_10-LJTI101_0
.set L101_0_set_9, LBB101_9-LJTI101_0
.set L101_0_set_4, LBB101_4-LJTI101_0
.set L101_0_set_5, LBB101_5-LJTI101_0
.set L101_0_set_6, LBB101_6-LJTI101_0
.set L101_0_set_7, LBB101_7-LJTI101_0
LJTI101_0:
	.long	L101_0_set_8
	.long	L101_0_set_11
	.long	L101_0_set_10
	.long	L101_0_set_9
	.long	L101_0_set_4
	.long	L101_0_set_5
	.long	L101_0_set_6
	.long	L101_0_set_7
	.end_data_region

	.globl	__ZN61_$LT$gimli..constants..DwUt$u20$as$u20$core..fmt..Display$GT$3fmt17he631b04ad338c5a9E
	.p2align	4, 0x90
__ZN61_$LT$gimli..constants..DwUt$u20$as$u20$core..fmt..Display$GT$3fmt17he631b04ad338c5a9E:
Lfunc_begin3:
	.cfi_startproc
	.cfi_personality 155, _rust_eh_personality
	.cfi_lsda 16, Lexception3
	pushq	%rbp
	.cfi_def_cfa_offset 16
	.cfi_offset %rbp, -16
	movq	%rsp, %rbp
	.cfi_def_cfa_register %rbp
	pushq	%r14
	pushq	%rbx
	subq	$112, %rsp
	.cfi_offset %rbx, -32
	.cfi_offset %r14, -24
	movq	%rsi, %rbx
	movb	(%rdi), %al
	movl	$13, %edx
	leal	1(%rax), %ecx
	cmpb	$7, %cl
	ja	LBB102_1
	leaq	l___unnamed_205(%rip), %rsi
	movzbl	%cl, %eax
	leaq	LJTI102_0(%rip), %rcx
	movslq	(%rcx,%rax,4), %rax
	addq	%rcx, %rax
	jmpq	*%rax
LBB102_9:
	leaq	l___unnamed_206(%rip), %rsi
	jmp	LBB102_10
LBB102_1:
	cmpb	$-128, %al
	jne	LBB102_11
	leaq	l___unnamed_207(%rip), %rsi
	jmp	LBB102_10
LBB102_11:
	leaq	l___unnamed_213(%rip), %rax
	movq	%rax, -72(%rbp)
	leaq	__ZN44_$LT$$RF$T$u20$as$u20$core..fmt..Display$GT$3fmt17h75bd668156b0de05E(%rip), %rax
	movq	%rax, -64(%rbp)
	movq	%rdi, -56(%rbp)
	movq	__ZN4core3fmt3num3imp51_$LT$impl$u20$core..fmt..Display$u20$for$u20$u8$GT$3fmt17hac49effbf87f075dE@GOTPCREL(%rip), %rax
	movq	%rax, -48(%rbp)
	leaq	l___unnamed_214(%rip), %rax
	movq	%rax, -120(%rbp)
	movq	$2, -112(%rbp)
	movq	$0, -104(%rbp)
	leaq	-72(%rbp), %rax
	movq	%rax, -88(%rbp)
	movq	$2, -80(%rbp)
	leaq	-40(%rbp), %rdi
	leaq	-120(%rbp), %rsi
	callq	__ZN5alloc3fmt6format17h3d416f5cefdba372E
	movq	-40(%rbp), %r14
	movq	-24(%rbp), %rdx
Ltmp20:
	movq	%rbx, %rdi
	movq	%r14, %rsi
	callq	__ZN4core3fmt9Formatter3pad17h426409b23b74b394E
Ltmp21:
	movl	%eax, %ebx
	movq	-32(%rbp), %rsi
	testq	%rsi, %rsi
	je	LBB102_14
	movl	$1, %edx
	movq	%r14, %rdi
	callq	___rust_dealloc
LBB102_14:
	movl	%ebx, %eax
	addq	$112, %rsp
	popq	%rbx
	popq	%r14
	popq	%rbp
	retq
LBB102_4:
	leaq	l___unnamed_208(%rip), %rsi
	movl	$10, %edx
	jmp	LBB102_10
LBB102_5:
	leaq	l___unnamed_209(%rip), %rsi
	jmp	LBB102_10
LBB102_6:
	leaq	l___unnamed_210(%rip), %rsi
	movl	$14, %edx
	jmp	LBB102_10
LBB102_7:
	leaq	l___unnamed_211(%rip), %rsi
	movl	$19, %edx
	jmp	LBB102_10
LBB102_8:
	leaq	L___unnamed_212(%rip), %rsi
	movl	$16, %edx
LBB102_10:
	movq	%rbx, %rdi
	addq	$112, %rsp
	popq	%rbx
	popq	%r14
	popq	%rbp
	jmp	__ZN4core3fmt9Formatter3pad17h426409b23b74b394E
LBB102_15:
Ltmp22:
	movq	%rax, %rbx
	leaq	-40(%rbp), %rdi
	callq	__ZN4core3ptr13drop_in_place17h6ed595dafba40ca7E
	movq	%rbx, %rdi
	callq	__Unwind_Resume
	ud2
Lfunc_end3:
	.cfi_endproc
	.p2align	2, 0x90
	.data_region jt32
.set L102_0_set_9, LBB102_9-LJTI102_0
.set L102_0_set_11, LBB102_11-LJTI102_0
.set L102_0_set_10, LBB102_10-LJTI102_0
.set L102_0_set_4, LBB102_4-LJTI102_0
.set L102_0_set_5, LBB102_5-LJTI102_0
.set L102_0_set_6, LBB102_6-LJTI102_0
.set L102_0_set_7, LBB102_7-LJTI102_0
.set L102_0_set_8, LBB102_8-LJTI102_0
LJTI102_0:
	.long	L102_0_set_9
	.long	L102_0_set_11
	.long	L102_0_set_10
	.long	L102_0_set_4
	.long	L102_0_set_5
	.long	L102_0_set_6
	.long	L102_0_set_7
	.long	L102_0_set_8
	.end_data_region
	.section	__TEXT,__gcc_except_tab
	.p2align	2
GCC_except_table102:
Lexception3:
	.byte	255
	.byte	255
	.byte	1
	.uleb128 Lcst_end3-Lcst_begin3
Lcst_begin3:
	.uleb128 Lfunc_begin3-Lfunc_begin3
	.uleb128 Ltmp20-Lfunc_begin3
	.byte	0
	.byte	0
	.uleb128 Ltmp20-Lfunc_begin3
	.uleb128 Ltmp21-Ltmp20
	.uleb128 Ltmp22-Lfunc_begin3
	.byte	0
	.uleb128 Ltmp21-Lfunc_begin3
	.uleb128 Lfunc_end3-Ltmp21
	.byte	0
	.byte	0
Lcst_end3:
	.p2align	2

	.section	__TEXT,__text,regular,pure_instructions
	.globl	__ZN59_$LT$gimli..constants..DwUt$u20$as$u20$core..fmt..Debug$GT$3fmt17h7a5d7a6eaecd50f7E
	.p2align	4, 0x90
__ZN59_$LT$gimli..constants..DwUt$u20$as$u20$core..fmt..Debug$GT$3fmt17h7a5d7a6eaecd50f7E:
	.cfi_startproc
	pushq	%rbp
	.cfi_def_cfa_offset 16
	.cfi_offset %rbp, -16
	movq	%rsp, %rbp
	.cfi_def_cfa_register %rbp
	pushq	%r14
	pushq	%rbx
	subq	$32, %rsp
	.cfi_offset %rbx, -32
	.cfi_offset %r14, -24
	movq	%rdi, %rbx
	leaq	L___unnamed_215(%rip), %rdx
	leaq	-48(%rbp), %r14
	movl	$4, %ecx
	movq	%r14, %rdi
	callq	__ZN4core3fmt9Formatter11debug_tuple17h6c448643801d07e8E
	movq	%rbx, -24(%rbp)
	leaq	l___unnamed_24(%rip), %rdx
	leaq	-24(%rbp), %rsi
	movq	%r14, %rdi
	callq	__ZN4core3fmt8builders10DebugTuple5field17hc7b676d0e36b51d9E
	movq	%r14, %rdi
	callq	__ZN4core3fmt8builders10DebugTuple6finish17h9f206806f7096c33E
	addq	$32, %rsp
	popq	%rbx
	popq	%r14
	popq	%rbp
	retq
	.cfi_endproc

	.globl	__ZN5gimli9constants5DwCfa13static_string17h71e71da3ea4749c0E
	.p2align	4, 0x90
__ZN5gimli9constants5DwCfa13static_string17h71e71da3ea4749c0E:
	.cfi_startproc
	pushq	%rbp
	.cfi_def_cfa_offset 16
	.cfi_offset %rbp, -16
	movq	%rsp, %rbp
	.cfi_def_cfa_register %rbp
	movb	(%rdi), %cl
	xorl	%eax, %eax
	addb	$-128, %cl
	cmpb	$-64, %cl
	ja	LBB104_1
	leaq	l___unnamed_216(%rip), %rsi
	movl	$18, %edx
	movzbl	%cl, %ecx
	leaq	LJTI104_0(%rip), %rdi
	movslq	(%rdi,%rcx,4), %rcx
	addq	%rdi, %rcx
	jmpq	*%rcx
LBB104_33:
	leaq	l___unnamed_217(%rip), %rsi
	movl	$13, %edx
	jmp	LBB104_34
LBB104_3:
	leaq	l___unnamed_218(%rip), %rsi
	movl	$14, %edx
	jmp	LBB104_34
LBB104_6:
	leaq	l___unnamed_219(%rip), %rsi
	movl	$19, %edx
	jmp	LBB104_34
LBB104_7:
	leaq	l___unnamed_220(%rip), %rsi
	movl	$19, %edx
	jmp	LBB104_34
LBB104_8:
	leaq	l___unnamed_221(%rip), %rsi
	movl	$19, %edx
	jmp	LBB104_34
LBB104_11:
	leaq	L___unnamed_222(%rip), %rsi
	movl	$16, %edx
	jmp	LBB104_34
LBB104_12:
	leaq	l___unnamed_223(%rip), %rsi
	movl	$17, %edx
	jmp	LBB104_34
LBB104_13:
	leaq	l___unnamed_224(%rip), %rsi
	movl	$15, %edx
	jmp	LBB104_34
LBB104_14:
	leaq	l___unnamed_225(%rip), %rsi
	movl	$21, %edx
	jmp	LBB104_34
LBB104_15:
	leaq	l___unnamed_226(%rip), %rsi
	movl	$20, %edx
	jmp	LBB104_34
LBB104_16:
	leaq	l___unnamed_227(%rip), %rsi
	movl	$14, %edx
	jmp	LBB104_34
LBB104_19:
	leaq	l___unnamed_228(%rip), %rsi
	movl	$25, %edx
	jmp	LBB104_34
LBB104_20:
	leaq	l___unnamed_229(%rip), %rsi
	movl	$17, %edx
	jmp	LBB104_34
LBB104_22:
	leaq	l___unnamed_230(%rip), %rsi
	movl	$17, %edx
	jmp	LBB104_34
LBB104_23:
	leaq	l___unnamed_231(%rip), %rsi
	movl	$24, %edx
	jmp	LBB104_34
LBB104_24:
	leaq	l___unnamed_232(%rip), %rsi
	movl	$17, %edx
	jmp	LBB104_34
LBB104_25:
	leaq	l___unnamed_233(%rip), %rsi
	movl	$20, %edx
	jmp	LBB104_34
LBB104_26:
	leaq	l___unnamed_234(%rip), %rsi
	movl	$21, %edx
	jmp	LBB104_34
LBB104_30:
	leaq	l___unnamed_235(%rip), %rsi
	movl	$22, %edx
	jmp	LBB104_34
LBB104_31:
	leaq	l___unnamed_236(%rip), %rsi
	movl	$20, %edx
	jmp	LBB104_34
LBB104_28:
	leaq	l___unnamed_237(%rip), %rsi
	movl	$14, %edx
	jmp	LBB104_34
LBB104_4:
	leaq	l___unnamed_238(%rip), %rsi
	movl	$10, %edx
	jmp	LBB104_34
LBB104_5:
	leaq	l___unnamed_239(%rip), %rsi
	movl	$14, %edx
	jmp	LBB104_34
LBB104_9:
	leaq	l___unnamed_240(%rip), %rsi
	movl	$22, %edx
	jmp	LBB104_34
LBB104_10:
	leaq	l___unnamed_241(%rip), %rsi
	movl	$23, %edx
	jmp	LBB104_34
LBB104_17:
	leaq	l___unnamed_242(%rip), %rsi
	movl	$23, %edx
	jmp	LBB104_34
LBB104_18:
	leaq	l___unnamed_243(%rip), %rsi
	movl	$21, %edx
	jmp	LBB104_34
LBB104_21:
	leaq	l___unnamed_244(%rip), %rsi
	movl	$25, %edx
	jmp	LBB104_34
LBB104_27:
	leaq	l___unnamed_245(%rip), %rsi
	movl	$14, %edx
	jmp	LBB104_34
LBB104_29:
	leaq	l___unnamed_246(%rip), %rsi
	movl	$24, %edx
	jmp	LBB104_34
LBB104_32:
	leaq	l___unnamed_247(%rip), %rsi
	movl	$35, %edx
LBB104_34:
	movq	%rsi, %rax
LBB104_35:
	popq	%rbp
	retq
LBB104_1:
	popq	%rbp
	retq
	.cfi_endproc
	.p2align	2, 0x90
	.data_region jt32
.set L104_0_set_33, LBB104_33-LJTI104_0
.set L104_0_set_35, LBB104_35-LJTI104_0
.set L104_0_set_3, LBB104_3-LJTI104_0
.set L104_0_set_4, LBB104_4-LJTI104_0
.set L104_0_set_5, LBB104_5-LJTI104_0
.set L104_0_set_6, LBB104_6-LJTI104_0
.set L104_0_set_7, LBB104_7-LJTI104_0
.set L104_0_set_8, LBB104_8-LJTI104_0
.set L104_0_set_9, LBB104_9-LJTI104_0
.set L104_0_set_10, LBB104_10-LJTI104_0
.set L104_0_set_11, LBB104_11-LJTI104_0
.set L104_0_set_12, LBB104_12-LJTI104_0
.set L104_0_set_13, LBB104_13-LJTI104_0
.set L104_0_set_14, LBB104_14-LJTI104_0
.set L104_0_set_15, LBB104_15-LJTI104_0
.set L104_0_set_16, LBB104_16-LJTI104_0
.set L104_0_set_17, LBB104_17-LJTI104_0
.set L104_0_set_18, LBB104_18-LJTI104_0
.set L104_0_set_19, LBB104_19-LJTI104_0
.set L104_0_set_20, LBB104_20-LJTI104_0
.set L104_0_set_21, LBB104_21-LJTI104_0
.set L104_0_set_22, LBB104_22-LJTI104_0
.set L104_0_set_23, LBB104_23-LJTI104_0
.set L104_0_set_24, LBB104_24-LJTI104_0
.set L104_0_set_25, LBB104_25-LJTI104_0
.set L104_0_set_26, LBB104_26-LJTI104_0
.set L104_0_set_27, LBB104_27-LJTI104_0
.set L104_0_set_29, LBB104_29-LJTI104_0
.set L104_0_set_30, LBB104_30-LJTI104_0
.set L104_0_set_31, LBB104_31-LJTI104_0
.set L104_0_set_32, LBB104_32-LJTI104_0
.set L104_0_set_28, LBB104_28-LJTI104_0
.set L104_0_set_34, LBB104_34-LJTI104_0
LJTI104_0:
	.long	L104_0_set_33
	.long	L104_0_set_35
	.long	L104_0_set_35
	.long	L104_0_set_35
	.long	L104_0_set_35
	.long	L104_0_set_35
	.long	L104_0_set_35
	.long	L104_0_set_35
	.long	L104_0_set_35
	.long	L104_0_set_35
	.long	L104_0_set_35
	.long	L104_0_set_35
	.long	L104_0_set_35
	.long	L104_0_set_35
	.long	L104_0_set_35
	.long	L104_0_set_35
	.long	L104_0_set_35
	.long	L104_0_set_35
	.long	L104_0_set_35
	.long	L104_0_set_35
	.long	L104_0_set_35
	.long	L104_0_set_35
	.long	L104_0_set_35
	.long	L104_0_set_35
	.long	L104_0_set_35
	.long	L104_0_set_35
	.long	L104_0_set_35
	.long	L104_0_set_35
	.long	L104_0_set_35
	.long	L104_0_set_35
	.long	L104_0_set_35
	.long	L104_0_set_35
	.long	L104_0_set_35
	.long	L104_0_set_35
	.long	L104_0_set_35
	.long	L104_0_set_35
	.long	L104_0_set_35
	.long	L104_0_set_35
	.long	L104_0_set_35
	.long	L104_0_set_35
	.long	L104_0_set_35
	.long	L104_0_set_35
	.long	L104_0_set_35
	.long	L104_0_set_35
	.long	L104_0_set_35
	.long	L104_0_set_35
	.long	L104_0_set_35
	.long	L104_0_set_35
	.long	L104_0_set_35
	.long	L104_0_set_35
	.long	L104_0_set_35
	.long	L104_0_set_35
	.long	L104_0_set_35
	.long	L104_0_set_35
	.long	L104_0_set_35
	.long	L104_0_set_35
	.long	L104_0_set_35
	.long	L104_0_set_35
	.long	L104_0_set_35
	.long	L104_0_set_35
	.long	L104_0_set_35
	.long	L104_0_set_35
	.long	L104_0_set_35
	.long	L104_0_set_35
	.long	L104_0_set_3
	.long	L104_0_set_35
	.long	L104_0_set_35
	.long	L104_0_set_35
	.long	L104_0_set_35
	.long	L104_0_set_35
	.long	L104_0_set_35
	.long	L104_0_set_35
	.long	L104_0_set_35
	.long	L104_0_set_35
	.long	L104_0_set_35
	.long	L104_0_set_35
	.long	L104_0_set_35
	.long	L104_0_set_35
	.long	L104_0_set_35
	.long	L104_0_set_35
	.long	L104_0_set_35
	.long	L104_0_set_35
	.long	L104_0_set_35
	.long	L104_0_set_35
	.long	L104_0_set_35
	.long	L104_0_set_35
	.long	L104_0_set_35
	.long	L104_0_set_35
	.long	L104_0_set_35
	.long	L104_0_set_35
	.long	L104_0_set_35
	.long	L104_0_set_35
	.long	L104_0_set_35
	.long	L104_0_set_35
	.long	L104_0_set_35
	.long	L104_0_set_35
	.long	L104_0_set_35
	.long	L104_0_set_35
	.long	L104_0_set_35
	.long	L104_0_set_35
	.long	L104_0_set_35
	.long	L104_0_set_35
	.long	L104_0_set_35
	.long	L104_0_set_35
	.long	L104_0_set_35
	.long	L104_0_set_35
	.long	L104_0_set_35
	.long	L104_0_set_35
	.long	L104_0_set_35
	.long	L104_0_set_35
	.long	L104_0_set_35
	.long	L104_0_set_35
	.long	L104_0_set_35
	.long	L104_0_set_35
	.long	L104_0_set_35
	.long	L104_0_set_35
	.long	L104_0_set_35
	.long	L104_0_set_35
	.long	L104_0_set_35
	.long	L104_0_set_35
	.long	L104_0_set_35
	.long	L104_0_set_35
	.long	L104_0_set_35
	.long	L104_0_set_35
	.long	L104_0_set_35
	.long	L104_0_set_35
	.long	L104_0_set_35
	.long	L104_0_set_35
	.long	L104_0_set_4
	.long	L104_0_set_5
	.long	L104_0_set_6
	.long	L104_0_set_7
	.long	L104_0_set_8
	.long	L104_0_set_9
	.long	L104_0_set_10
	.long	L104_0_set_11
	.long	L104_0_set_12
	.long	L104_0_set_13
	.long	L104_0_set_14
	.long	L104_0_set_15
	.long	L104_0_set_16
	.long	L104_0_set_17
	.long	L104_0_set_18
	.long	L104_0_set_19
	.long	L104_0_set_20
	.long	L104_0_set_21
	.long	L104_0_set_22
	.long	L104_0_set_23
	.long	L104_0_set_24
	.long	L104_0_set_25
	.long	L104_0_set_26
	.long	L104_0_set_35
	.long	L104_0_set_35
	.long	L104_0_set_35
	.long	L104_0_set_35
	.long	L104_0_set_35
	.long	L104_0_set_27
	.long	L104_0_set_29
	.long	L104_0_set_35
	.long	L104_0_set_35
	.long	L104_0_set_35
	.long	L104_0_set_35
	.long	L104_0_set_35
	.long	L104_0_set_35
	.long	L104_0_set_35
	.long	L104_0_set_35
	.long	L104_0_set_35
	.long	L104_0_set_35
	.long	L104_0_set_35
	.long	L104_0_set_35
	.long	L104_0_set_35
	.long	L104_0_set_35
	.long	L104_0_set_35
	.long	L104_0_set_30
	.long	L104_0_set_31
	.long	L104_0_set_32
	.long	L104_0_set_35
	.long	L104_0_set_35
	.long	L104_0_set_35
	.long	L104_0_set_35
	.long	L104_0_set_35
	.long	L104_0_set_35
	.long	L104_0_set_35
	.long	L104_0_set_35
	.long	L104_0_set_35
	.long	L104_0_set_35
	.long	L104_0_set_35
	.long	L104_0_set_35
	.long	L104_0_set_35
	.long	L104_0_set_35
	.long	L104_0_set_35
	.long	L104_0_set_28
	.long	L104_0_set_34
	.end_data_region

	.globl	__ZN62_$LT$gimli..constants..DwCfa$u20$as$u20$core..fmt..Display$GT$3fmt17h92a999563b6377d5E
	.p2align	4, 0x90
__ZN62_$LT$gimli..constants..DwCfa$u20$as$u20$core..fmt..Display$GT$3fmt17h92a999563b6377d5E:
Lfunc_begin4:
	.cfi_startproc
	.cfi_personality 155, _rust_eh_personality
	.cfi_lsda 16, Lexception4
	pushq	%rbp
	.cfi_def_cfa_offset 16
	.cfi_offset %rbp, -16
	movq	%rsp, %rbp
	.cfi_def_cfa_register %rbp
	pushq	%r15
	pushq	%r14
	pushq	%rbx
	subq	$104, %rsp
	.cfi_offset %rbx, -40
	.cfi_offset %r14, -32
	.cfi_offset %r15, -24
	movq	%rsi, %r15
	movq	%rdi, %rbx
	callq	__ZN5gimli9constants5DwCfa13static_string17h71e71da3ea4749c0E
	testq	%rax, %rax
	je	LBB105_1
	movq	%r15, %rdi
	movq	%rax, %rsi
	addq	$104, %rsp
	popq	%rbx
	popq	%r14
	popq	%r15
	popq	%rbp
	jmp	__ZN4core3fmt9Formatter3pad17h426409b23b74b394E
LBB105_1:
	leaq	l___unnamed_248(%rip), %rax
	movq	%rax, -80(%rbp)
	leaq	__ZN44_$LT$$RF$T$u20$as$u20$core..fmt..Display$GT$3fmt17h75bd668156b0de05E(%rip), %rax
	movq	%rax, -72(%rbp)
	movq	%rbx, -64(%rbp)
	movq	__ZN4core3fmt3num3imp51_$LT$impl$u20$core..fmt..Display$u20$for$u20$u8$GT$3fmt17hac49effbf87f075dE@GOTPCREL(%rip), %rax
	movq	%rax, -56(%rbp)
	leaq	l___unnamed_214(%rip), %rax
	movq	%rax, -128(%rbp)
	movq	$2, -120(%rbp)
	movq	$0, -112(%rbp)
	leaq	-80(%rbp), %rax
	movq	%rax, -96(%rbp)
	movq	$2, -88(%rbp)
	leaq	-48(%rbp), %rdi
	leaq	-128(%rbp), %rsi
	callq	__ZN5alloc3fmt6format17h3d416f5cefdba372E
	movq	-48(%rbp), %r14
	movq	-32(%rbp), %rdx
Ltmp23:
	movq	%r15, %rdi
	movq	%r14, %rsi
	callq	__ZN4core3fmt9Formatter3pad17h426409b23b74b394E
Ltmp24:
	movl	%eax, %ebx
	movq	-40(%rbp), %rsi
	testq	%rsi, %rsi
	je	LBB105_4
	movl	$1, %edx
	movq	%r14, %rdi
	callq	___rust_dealloc
LBB105_4:
	movl	%ebx, %eax
	addq	$104, %rsp
	popq	%rbx
	popq	%r14
	popq	%r15
	popq	%rbp
	retq
LBB105_5:
Ltmp25:
	movq	%rax, %rbx
	leaq	-48(%rbp), %rdi
	callq	__ZN4core3ptr13drop_in_place17h6ed595dafba40ca7E
	movq	%rbx, %rdi
	callq	__Unwind_Resume
	ud2
Lfunc_end4:
	.cfi_endproc
	.section	__TEXT,__gcc_except_tab
	.p2align	2
GCC_except_table105:
Lexception4:
	.byte	255
	.byte	255
	.byte	1
	.uleb128 Lcst_end4-Lcst_begin4
Lcst_begin4:
	.uleb128 Lfunc_begin4-Lfunc_begin4
	.uleb128 Ltmp23-Lfunc_begin4
	.byte	0
	.byte	0
	.uleb128 Ltmp23-Lfunc_begin4
	.uleb128 Ltmp24-Ltmp23
	.uleb128 Ltmp25-Lfunc_begin4
	.byte	0
	.uleb128 Ltmp24-Lfunc_begin4
	.uleb128 Lfunc_end4-Ltmp24
	.byte	0
	.byte	0
Lcst_end4:
	.p2align	2

	.section	__TEXT,__text,regular,pure_instructions
	.globl	__ZN60_$LT$gimli..constants..DwCfa$u20$as$u20$core..fmt..Debug$GT$3fmt17h937135fc4d686f62E
	.p2align	4, 0x90
__ZN60_$LT$gimli..constants..DwCfa$u20$as$u20$core..fmt..Debug$GT$3fmt17h937135fc4d686f62E:
	.cfi_startproc
	pushq	%rbp
	.cfi_def_cfa_offset 16
	.cfi_offset %rbp, -16
	movq	%rsp, %rbp
	.cfi_def_cfa_register %rbp
	pushq	%r14
	pushq	%rbx
	subq	$32, %rsp
	.cfi_offset %rbx, -32
	.cfi_offset %r14, -24
	movq	%rdi, %rbx
	leaq	l___unnamed_40(%rip), %rdx
	leaq	-48(%rbp), %r14
	movl	$5, %ecx
	movq	%r14, %rdi
	callq	__ZN4core3fmt9Formatter11debug_tuple17h6c448643801d07e8E
	movq	%rbx, -24(%rbp)
	leaq	l___unnamed_24(%rip), %rdx
	leaq	-24(%rbp), %rsi
	movq	%r14, %rdi
	callq	__ZN4core3fmt8builders10DebugTuple5field17hc7b676d0e36b51d9E
	movq	%r14, %rdi
	callq	__ZN4core3fmt8builders10DebugTuple6finish17h9f206806f7096c33E
	addq	$32, %rsp
	popq	%rbx
	popq	%r14
	popq	%rbp
	retq
	.cfi_endproc

	.globl	__ZN5gimli9constants10DwChildren13static_string17h0c6c5a8bb633f605E
	.p2align	4, 0x90
__ZN5gimli9constants10DwChildren13static_string17h0c6c5a8bb633f605E:
	.cfi_startproc
	pushq	%rbp
	.cfi_def_cfa_offset 16
	.cfi_offset %rbp, -16
	movq	%rsp, %rbp
	.cfi_def_cfa_register %rbp
	movb	(%rdi), %al
	testb	%al, %al
	je	LBB107_1
	cmpb	$1, %al
	jne	LBB107_3
	leaq	l___unnamed_249(%rip), %rax
	movl	$15, %edx
	popq	%rbp
	retq
LBB107_1:
	leaq	l___unnamed_250(%rip), %rax
	movl	$14, %edx
	popq	%rbp
	retq
LBB107_3:
	xorl	%eax, %eax
	popq	%rbp
	retq
	.cfi_endproc

	.globl	__ZN67_$LT$gimli..constants..DwChildren$u20$as$u20$core..fmt..Display$GT$3fmt17h0890cf3abf466e39E
	.p2align	4, 0x90
__ZN67_$LT$gimli..constants..DwChildren$u20$as$u20$core..fmt..Display$GT$3fmt17h0890cf3abf466e39E:
Lfunc_begin5:
	.cfi_startproc
	.cfi_personality 155, _rust_eh_personality
	.cfi_lsda 16, Lexception5
	pushq	%rbp
	.cfi_def_cfa_offset 16
	.cfi_offset %rbp, -16
	movq	%rsp, %rbp
	.cfi_def_cfa_register %rbp
	pushq	%r14
	pushq	%rbx
	subq	$112, %rsp
	.cfi_offset %rbx, -32
	.cfi_offset %r14, -24
	movq	%rsi, %rbx
	movb	(%rdi), %al
	testb	%al, %al
	je	LBB108_1
	cmpb	$1, %al
	jne	LBB108_5
	leaq	l___unnamed_249(%rip), %rsi
	movl	$15, %edx
	jmp	LBB108_4
LBB108_1:
	leaq	l___unnamed_250(%rip), %rsi
	movl	$14, %edx
LBB108_4:
	movq	%rbx, %rdi
	addq	$112, %rsp
	popq	%rbx
	popq	%r14
	popq	%rbp
	jmp	__ZN4core3fmt9Formatter3pad17h426409b23b74b394E
LBB108_5:
	leaq	l___unnamed_251(%rip), %rax
	movq	%rax, -72(%rbp)
	leaq	__ZN44_$LT$$RF$T$u20$as$u20$core..fmt..Display$GT$3fmt17h75bd668156b0de05E(%rip), %rax
	movq	%rax, -64(%rbp)
	movq	%rdi, -56(%rbp)
	movq	__ZN4core3fmt3num3imp51_$LT$impl$u20$core..fmt..Display$u20$for$u20$u8$GT$3fmt17hac49effbf87f075dE@GOTPCREL(%rip), %rax
	movq	%rax, -48(%rbp)
	leaq	l___unnamed_214(%rip), %rax
	movq	%rax, -120(%rbp)
	movq	$2, -112(%rbp)
	movq	$0, -104(%rbp)
	leaq	-72(%rbp), %rax
	movq	%rax, -88(%rbp)
	movq	$2, -80(%rbp)
	leaq	-40(%rbp), %rdi
	leaq	-120(%rbp), %rsi
	callq	__ZN5alloc3fmt6format17h3d416f5cefdba372E
	movq	-40(%rbp), %r14
	movq	-24(%rbp), %rdx
Ltmp26:
	movq	%rbx, %rdi
	movq	%r14, %rsi
	callq	__ZN4core3fmt9Formatter3pad17h426409b23b74b394E
Ltmp27:
	movl	%eax, %ebx
	movq	-32(%rbp), %rsi
	testq	%rsi, %rsi
	je	LBB108_8
	movl	$1, %edx
	movq	%r14, %rdi
	callq	___rust_dealloc
LBB108_8:
	movl	%ebx, %eax
	addq	$112, %rsp
	popq	%rbx
	popq	%r14
	popq	%rbp
	retq
LBB108_9:
Ltmp28:
	movq	%rax, %rbx
	leaq	-40(%rbp), %rdi
	callq	__ZN4core3ptr13drop_in_place17h6ed595dafba40ca7E
	movq	%rbx, %rdi
	callq	__Unwind_Resume
	ud2
Lfunc_end5:
	.cfi_endproc
	.section	__TEXT,__gcc_except_tab
	.p2align	2
GCC_except_table108:
Lexception5:
	.byte	255
	.byte	255
	.byte	1
	.uleb128 Lcst_end5-Lcst_begin5
Lcst_begin5:
	.uleb128 Lfunc_begin5-Lfunc_begin5
	.uleb128 Ltmp26-Lfunc_begin5
	.byte	0
	.byte	0
	.uleb128 Ltmp26-Lfunc_begin5
	.uleb128 Ltmp27-Ltmp26
	.uleb128 Ltmp28-Lfunc_begin5
	.byte	0
	.uleb128 Ltmp27-Lfunc_begin5
	.uleb128 Lfunc_end5-Ltmp27
	.byte	0
	.byte	0
Lcst_end5:
	.p2align	2

	.section	__TEXT,__text,regular,pure_instructions
	.globl	__ZN65_$LT$gimli..constants..DwChildren$u20$as$u20$core..fmt..Debug$GT$3fmt17he3a4cc13fa89e9a6E
	.p2align	4, 0x90
__ZN65_$LT$gimli..constants..DwChildren$u20$as$u20$core..fmt..Debug$GT$3fmt17he3a4cc13fa89e9a6E:
	.cfi_startproc
	pushq	%rbp
	.cfi_def_cfa_offset 16
	.cfi_offset %rbp, -16
	movq	%rsp, %rbp
	.cfi_def_cfa_register %rbp
	pushq	%r14
	pushq	%rbx
	subq	$32, %rsp
	.cfi_offset %rbx, -32
	.cfi_offset %r14, -24
	movq	%rdi, %rbx
	leaq	l___unnamed_45(%rip), %rdx
	leaq	-48(%rbp), %r14
	movl	$10, %ecx
	movq	%r14, %rdi
	callq	__ZN4core3fmt9Formatter11debug_tuple17h6c448643801d07e8E
	movq	%rbx, -24(%rbp)
	leaq	l___unnamed_24(%rip), %rdx
	leaq	-24(%rbp), %rsi
	movq	%r14, %rdi
	callq	__ZN4core3fmt8builders10DebugTuple5field17hc7b676d0e36b51d9E
	movq	%r14, %rdi
	callq	__ZN4core3fmt8builders10DebugTuple6finish17h9f206806f7096c33E
	addq	$32, %rsp
	popq	%rbx
	popq	%r14
	popq	%rbp
	retq
	.cfi_endproc

	.globl	__ZN5gimli9constants5DwTag13static_string17h1fb77102a250e7eaE
	.p2align	4, 0x90
__ZN5gimli9constants5DwTag13static_string17h1fb77102a250e7eaE:
	.cfi_startproc
	pushq	%rbp
	.cfi_def_cfa_offset 16
	.cfi_offset %rbp, -16
	movq	%rsp, %rbp
	.cfi_def_cfa_register %rbp
	movswl	(%rdi), %ecx
	xorl	%eax, %eax
	cmpl	$16511, %ecx
	jg	LBB110_5
	cmpw	$-2, %cx
	jle	LBB110_11
	leal	1(%rcx), %esi
	cmpw	$76, %si
	ja	LBB110_134
	leaq	l___unnamed_252(%rip), %rcx
	movl	$11, %edx
	movzwl	%si, %esi
	leaq	LJTI110_1(%rip), %rdi
	movslq	(%rdi,%rsi,4), %rsi
	addq	%rdi, %rsi
	jmpq	*%rsi
LBB110_4:
	leaq	l___unnamed_253(%rip), %rcx
	movl	$14, %edx
	jmp	LBB110_71
LBB110_5:
	leal	-16512(%rcx), %edx
	movzwl	%dx, %esi
	cmpl	$138, %esi
	jbe	LBB110_9
	leal	-16896(%rcx), %edx
	cmpw	$13, %dx
	ja	LBB110_19
	movzwl	%dx, %eax
	leaq	LJTI110_3(%rip), %rcx
	movslq	(%rcx,%rax,4), %rax
	addq	%rcx, %rax
	jmpq	*%rax
LBB110_8:
	leaq	l___unnamed_254(%rip), %rcx
	movl	$21, %edx
	jmp	LBB110_71
LBB110_9:
	movzwl	%dx, %ecx
	leaq	LJTI110_2(%rip), %rdx
	movslq	(%rdx,%rcx,4), %rcx
	addq	%rdx, %rcx
	jmpq	*%rcx
LBB110_10:
	leaq	l___unnamed_255(%rip), %rcx
	movl	$14, %edx
	jmp	LBB110_71
LBB110_11:
	movswl	%cx, %edx
	cmpl	$-24577, %edx
	jg	LBB110_16
	movzwl	%cx, %ecx
	cmpl	$34661, %ecx
	je	LBB110_22
	cmpl	$34662, %ecx
	je	LBB110_23
	cmpl	$34663, %ecx
	jne	LBB110_72
	leaq	l___unnamed_256(%rip), %rcx
	movl	$23, %edx
	jmp	LBB110_71
LBB110_16:
	leal	20480(%rcx), %edx
	cmpw	$4, %dx
	ja	LBB110_24
	movzwl	%dx, %eax
	leaq	LJTI110_0(%rip), %rcx
	movslq	(%rcx,%rax,4), %rax
	addq	%rcx, %rax
	jmpq	*%rax
LBB110_18:
	leaq	l___unnamed_257(%rip), %rcx
	movl	$23, %edx
	jmp	LBB110_71
LBB110_19:
	addl	$-20737, %ecx
	cmpw	$16, %cx
	ja	LBB110_134
	movzwl	%cx, %ecx
	leaq	LJTI110_4(%rip), %rdx
	movslq	(%rdx,%rcx,4), %rcx
	addq	%rdx, %rcx
	jmpq	*%rcx
LBB110_21:
	leaq	l___unnamed_258(%rip), %rcx
	movl	$23, %edx
	jmp	LBB110_71
LBB110_22:
	leaq	l___unnamed_259(%rip), %rcx
	movl	$22, %edx
	jmp	LBB110_71
LBB110_23:
	leaq	l___unnamed_260(%rip), %rcx
	movl	$22, %edx
	jmp	LBB110_71
LBB110_24:
	movzwl	%cx, %ecx
	cmpl	$40960, %ecx
	je	LBB110_132
	cmpl	$40992, %ecx
	jne	LBB110_72
	leaq	l___unnamed_261(%rip), %rcx
	movl	$26, %edx
	jmp	LBB110_71
LBB110_27:
	leaq	l___unnamed_262(%rip), %rcx
	movl	$27, %edx
	jmp	LBB110_71
LBB110_28:
	leaq	l___unnamed_263(%rip), %rcx
	movl	$28, %edx
	jmp	LBB110_71
LBB110_29:
	leaq	l___unnamed_264(%rip), %rcx
	jmp	LBB110_70
LBB110_30:
	leaq	l___unnamed_265(%rip), %rcx
	jmp	LBB110_70
LBB110_31:
	leaq	l___unnamed_266(%rip), %rcx
	jmp	LBB110_70
LBB110_32:
	leaq	l___unnamed_267(%rip), %rcx
	movl	$18, %edx
	jmp	LBB110_71
LBB110_33:
	leaq	l___unnamed_268(%rip), %rcx
	movl	$23, %edx
	jmp	LBB110_71
LBB110_34:
	leaq	l___unnamed_269(%rip), %rcx
	movl	$23, %edx
	jmp	LBB110_71
LBB110_35:
	leaq	l___unnamed_270(%rip), %rcx
	movl	$27, %edx
	jmp	LBB110_71
LBB110_36:
	leaq	l___unnamed_271(%rip), %rcx
	movl	$12, %edx
	jmp	LBB110_71
LBB110_37:
	leaq	l___unnamed_272(%rip), %rcx
	movl	$20, %edx
	jmp	LBB110_71
LBB110_38:
	leaq	l___unnamed_273(%rip), %rcx
	movl	$13, %edx
	jmp	LBB110_71
LBB110_39:
	leaq	l___unnamed_274(%rip), %rcx
	movl	$19, %edx
	jmp	LBB110_71
LBB110_40:
	leaq	l___unnamed_275(%rip), %rcx
	movl	$21, %edx
	jmp	LBB110_71
LBB110_41:
	leaq	l___unnamed_276(%rip), %rcx
	movl	$19, %edx
	jmp	LBB110_71
LBB110_42:
	leaq	l___unnamed_277(%rip), %rcx
	movl	$18, %edx
	jmp	LBB110_71
LBB110_43:
	leaq	l___unnamed_278(%rip), %rcx
	movl	$21, %edx
	jmp	LBB110_71
LBB110_44:
	leaq	l___unnamed_279(%rip), %rcx
	movl	$22, %edx
	jmp	LBB110_71
LBB110_45:
	leaq	l___unnamed_280(%rip), %rcx
	movl	$14, %edx
	jmp	LBB110_71
LBB110_46:
	leaq	l___unnamed_281(%rip), %rcx
	jmp	LBB110_70
LBB110_47:
	leaq	l___unnamed_282(%rip), %rcx
	movl	$29, %edx
	jmp	LBB110_71
LBB110_48:
	leaq	l___unnamed_283(%rip), %rcx
	movl	$14, %edx
	jmp	LBB110_71
LBB110_49:
	leaq	l___unnamed_284(%rip), %rcx
	movl	$19, %edx
	jmp	LBB110_71
LBB110_50:
	leaq	l___unnamed_285(%rip), %rcx
	movl	$23, %edx
	jmp	LBB110_71
LBB110_51:
	leaq	l___unnamed_286(%rip), %rcx
	movl	$18, %edx
	jmp	LBB110_71
LBB110_52:
	leaq	l___unnamed_287(%rip), %rcx
	movl	$25, %edx
	jmp	LBB110_71
LBB110_53:
	leaq	l___unnamed_288(%rip), %rcx
	movl	$13, %edx
	jmp	LBB110_71
LBB110_54:
	leaq	l___unnamed_289(%rip), %rcx
	movl	$25, %edx
	jmp	LBB110_71
LBB110_55:
	leaq	l___unnamed_290(%rip), %rcx
	movl	$15, %edx
	jmp	LBB110_71
LBB110_56:
	leaq	l___unnamed_291(%rip), %rcx
	movl	$20, %edx
	jmp	LBB110_71
LBB110_57:
	leaq	L___unnamed_292(%rip), %rcx
	movl	$16, %edx
	jmp	LBB110_71
LBB110_58:
	leaq	l___unnamed_293(%rip), %rcx
	movl	$25, %edx
	jmp	LBB110_71
LBB110_59:
	leaq	L___unnamed_294(%rip), %rcx
	movl	$16, %edx
	jmp	LBB110_71
LBB110_60:
	leaq	l___unnamed_295(%rip), %rcx
	movl	$18, %edx
	jmp	LBB110_71
LBB110_61:
	leaq	l___unnamed_296(%rip), %rcx
	jmp	LBB110_70
LBB110_62:
	leaq	l___unnamed_297(%rip), %rcx
	movl	$15, %edx
	jmp	LBB110_71
LBB110_63:
	leaq	l___unnamed_298(%rip), %rcx
	jmp	LBB110_70
LBB110_64:
	leaq	L___unnamed_299(%rip), %rcx
	movl	$16, %edx
	jmp	LBB110_71
LBB110_65:
	leaq	l___unnamed_300(%rip), %rcx
	movl	$13, %edx
	jmp	LBB110_71
LBB110_66:
	leaq	l___unnamed_301(%rip), %rcx
	movl	$15, %edx
	jmp	LBB110_71
LBB110_67:
	leaq	l___unnamed_302(%rip), %rcx
	movl	$20, %edx
	jmp	LBB110_71
LBB110_68:
	leaq	l___unnamed_303(%rip), %rcx
	movl	$18, %edx
	jmp	LBB110_71
LBB110_69:
	leaq	l___unnamed_304(%rip), %rcx
LBB110_70:
	movl	$17, %edx
LBB110_71:
	movq	%rcx, %rax
LBB110_72:
	popq	%rbp
	retq
LBB110_73:
	leaq	l___unnamed_305(%rip), %rcx
	movl	$30, %edx
	jmp	LBB110_71
LBB110_74:
	leaq	l___unnamed_306(%rip), %rcx
	movl	$31, %edx
	jmp	LBB110_71
LBB110_75:
	leaq	l___unnamed_307(%rip), %rcx
	movl	$18, %edx
	jmp	LBB110_71
LBB110_76:
	leaq	L___unnamed_308(%rip), %rcx
	movl	$16, %edx
	jmp	LBB110_71
LBB110_77:
	leaq	l___unnamed_309(%rip), %rcx
	movl	$19, %edx
	jmp	LBB110_71
LBB110_78:
	leaq	l___unnamed_310(%rip), %rcx
	movl	$15, %edx
	jmp	LBB110_71
LBB110_79:
	leaq	l___unnamed_311(%rip), %rcx
	movl	$20, %edx
	jmp	LBB110_71
LBB110_80:
	leaq	l___unnamed_312(%rip), %rcx
	movl	$22, %edx
	jmp	LBB110_71
LBB110_81:
	leaq	l___unnamed_313(%rip), %rcx
	movl	$20, %edx
	jmp	LBB110_71
LBB110_82:
	leaq	l___unnamed_314(%rip), %rcx
	movl	$21, %edx
	jmp	LBB110_71
LBB110_83:
	leaq	L___unnamed_315(%rip), %rcx
	movl	$16, %edx
	jmp	LBB110_71
LBB110_84:
	leaq	l___unnamed_316(%rip), %rcx
	movl	$22, %edx
	jmp	LBB110_71
LBB110_85:
	leaq	l___unnamed_317(%rip), %rcx
	movl	$23, %edx
	jmp	LBB110_71
LBB110_86:
	leaq	l___unnamed_318(%rip), %rcx
	movl	$19, %edx
	jmp	LBB110_71
LBB110_87:
	leaq	l___unnamed_319(%rip), %rcx
	movl	$20, %edx
	jmp	LBB110_71
LBB110_88:
	leaq	L___unnamed_320(%rip), %rcx
	movl	$16, %edx
	jmp	LBB110_71
LBB110_89:
	leaq	l___unnamed_321(%rip), %rcx
	movl	$18, %edx
	jmp	LBB110_71
LBB110_90:
	leaq	L___unnamed_322(%rip), %rcx
	movl	$16, %edx
	jmp	LBB110_71
LBB110_91:
	leaq	l___unnamed_323(%rip), %rcx
	movl	$28, %edx
	jmp	LBB110_71
LBB110_92:
	leaq	l___unnamed_324(%rip), %rcx
	movl	$21, %edx
	jmp	LBB110_71
LBB110_93:
	leaq	l___unnamed_325(%rip), %rcx
	movl	$19, %edx
	jmp	LBB110_71
LBB110_94:
	leaq	l___unnamed_326(%rip), %rcx
	movl	$23, %edx
	jmp	LBB110_71
LBB110_95:
	leaq	l___unnamed_327(%rip), %rcx
	movl	$19, %edx
	jmp	LBB110_71
LBB110_96:
	leaq	l___unnamed_328(%rip), %rcx
	movl	$18, %edx
	jmp	LBB110_71
LBB110_97:
	leaq	L___unnamed_329(%rip), %rcx
	movl	$16, %edx
	jmp	LBB110_71
LBB110_98:
	leaq	l___unnamed_330(%rip), %rcx
	movl	$26, %edx
	jmp	LBB110_71
LBB110_99:
	leaq	l___unnamed_331(%rip), %rcx
	movl	$20, %edx
	jmp	LBB110_71
LBB110_100:
	leaq	l___unnamed_332(%rip), %rcx
	movl	$21, %edx
	jmp	LBB110_71
LBB110_101:
	leaq	L___unnamed_333(%rip), %rcx
	movl	$16, %edx
	jmp	LBB110_71
LBB110_102:
	leaq	l___unnamed_334(%rip), %rcx
	movl	$26, %edx
	jmp	LBB110_71
LBB110_103:
	leaq	l___unnamed_335(%rip), %rcx
	movl	$21, %edx
	jmp	LBB110_71
LBB110_104:
	leaq	l___unnamed_336(%rip), %rcx
	movl	$25, %edx
	jmp	LBB110_71
LBB110_105:
	leaq	l___unnamed_337(%rip), %rcx
	movl	$19, %edx
	jmp	LBB110_71
LBB110_106:
	leaq	l___unnamed_338(%rip), %rcx
	movl	$24, %edx
	jmp	LBB110_71
LBB110_107:
	leaq	l___unnamed_339(%rip), %rcx
	movl	$21, %edx
	jmp	LBB110_71
LBB110_108:
	leaq	L___unnamed_340(%rip), %rcx
	movl	$16, %edx
	jmp	LBB110_71
LBB110_109:
	leaq	L___unnamed_341(%rip), %rcx
	movl	$16, %edx
	jmp	LBB110_71
LBB110_110:
	leaq	l___unnamed_342(%rip), %rcx
	movl	$34, %edx
	jmp	LBB110_71
LBB110_111:
	leaq	l___unnamed_343(%rip), %rcx
	movl	$34, %edx
	jmp	LBB110_71
LBB110_112:
	leaq	l___unnamed_344(%rip), %rcx
	movl	$32, %edx
	jmp	LBB110_71
LBB110_113:
	leaq	l___unnamed_345(%rip), %rcx
	movl	$20, %edx
	jmp	LBB110_71
LBB110_114:
	leaq	l___unnamed_346(%rip), %rcx
	movl	$30, %edx
	jmp	LBB110_71
LBB110_115:
	leaq	l___unnamed_347(%rip), %rcx
	movl	$28, %edx
	jmp	LBB110_71
LBB110_116:
	leaq	l___unnamed_348(%rip), %rcx
	movl	$25, %edx
	jmp	LBB110_71
LBB110_117:
	leaq	l___unnamed_349(%rip), %rcx
	movl	$26, %edx
	jmp	LBB110_71
LBB110_118:
	leaq	l___unnamed_350(%rip), %rcx
	movl	$25, %edx
	jmp	LBB110_71
LBB110_119:
	leaq	l___unnamed_351(%rip), %rcx
	movl	$31, %edx
	jmp	LBB110_71
LBB110_120:
	leaq	l___unnamed_352(%rip), %rcx
	movl	$20, %edx
	jmp	LBB110_71
LBB110_121:
	leaq	l___unnamed_353(%rip), %rcx
	movl	$21, %edx
	jmp	LBB110_71
LBB110_122:
	leaq	l___unnamed_354(%rip), %rcx
	movl	$25, %edx
	jmp	LBB110_71
LBB110_123:
	leaq	l___unnamed_355(%rip), %rcx
	movl	$26, %edx
	jmp	LBB110_71
LBB110_124:
	leaq	l___unnamed_356(%rip), %rcx
	movl	$20, %edx
	jmp	LBB110_71
LBB110_125:
	leaq	l___unnamed_357(%rip), %rcx
	movl	$15, %edx
	jmp	LBB110_71
LBB110_126:
	leaq	l___unnamed_358(%rip), %rcx
	movl	$24, %edx
	jmp	LBB110_71
LBB110_127:
	leaq	l___unnamed_359(%rip), %rcx
	movl	$32, %edx
	jmp	LBB110_71
LBB110_128:
	leaq	l___unnamed_360(%rip), %rcx
	movl	$28, %edx
	jmp	LBB110_71
LBB110_129:
	leaq	l___unnamed_361(%rip), %rcx
	movl	$35, %edx
	jmp	LBB110_71
LBB110_130:
	leaq	l___unnamed_362(%rip), %rcx
	movl	$25, %edx
	jmp	LBB110_71
LBB110_131:
	leaq	l___unnamed_363(%rip), %rcx
	movl	$29, %edx
	jmp	LBB110_71
LBB110_132:
	leaq	l___unnamed_364(%rip), %rcx
	movl	$21, %edx
	jmp	LBB110_71
LBB110_134:
	popq	%rbp
	retq
	.cfi_endproc
	.p2align	2, 0x90
	.data_region jt32
.set L110_0_set_18, LBB110_18-LJTI110_0
.set L110_0_set_128, LBB110_128-LJTI110_0
.set L110_0_set_129, LBB110_129-LJTI110_0
.set L110_0_set_130, LBB110_130-LJTI110_0
.set L110_0_set_131, LBB110_131-LJTI110_0
LJTI110_0:
	.long	L110_0_set_18
	.long	L110_0_set_128
	.long	L110_0_set_129
	.long	L110_0_set_130
	.long	L110_0_set_131
.set L110_1_set_4, LBB110_4-LJTI110_1
.set L110_1_set_71, LBB110_71-LJTI110_1
.set L110_1_set_30, LBB110_30-LJTI110_1
.set L110_1_set_31, LBB110_31-LJTI110_1
.set L110_1_set_32, LBB110_32-LJTI110_1
.set L110_1_set_33, LBB110_33-LJTI110_1
.set L110_1_set_34, LBB110_34-LJTI110_1
.set L110_1_set_72, LBB110_72-LJTI110_1
.set L110_1_set_35, LBB110_35-LJTI110_1
.set L110_1_set_36, LBB110_36-LJTI110_1
.set L110_1_set_37, LBB110_37-LJTI110_1
.set L110_1_set_38, LBB110_38-LJTI110_1
.set L110_1_set_39, LBB110_39-LJTI110_1
.set L110_1_set_40, LBB110_40-LJTI110_1
.set L110_1_set_41, LBB110_41-LJTI110_1
.set L110_1_set_42, LBB110_42-LJTI110_1
.set L110_1_set_43, LBB110_43-LJTI110_1
.set L110_1_set_44, LBB110_44-LJTI110_1
.set L110_1_set_45, LBB110_45-LJTI110_1
.set L110_1_set_46, LBB110_46-LJTI110_1
.set L110_1_set_47, LBB110_47-LJTI110_1
.set L110_1_set_48, LBB110_48-LJTI110_1
.set L110_1_set_49, LBB110_49-LJTI110_1
.set L110_1_set_50, LBB110_50-LJTI110_1
.set L110_1_set_51, LBB110_51-LJTI110_1
.set L110_1_set_52, LBB110_52-LJTI110_1
.set L110_1_set_53, LBB110_53-LJTI110_1
.set L110_1_set_54, LBB110_54-LJTI110_1
.set L110_1_set_55, LBB110_55-LJTI110_1
.set L110_1_set_56, LBB110_56-LJTI110_1
.set L110_1_set_57, LBB110_57-LJTI110_1
.set L110_1_set_58, LBB110_58-LJTI110_1
.set L110_1_set_59, LBB110_59-LJTI110_1
.set L110_1_set_60, LBB110_60-LJTI110_1
.set L110_1_set_61, LBB110_61-LJTI110_1
.set L110_1_set_62, LBB110_62-LJTI110_1
.set L110_1_set_63, LBB110_63-LJTI110_1
.set L110_1_set_64, LBB110_64-LJTI110_1
.set L110_1_set_65, LBB110_65-LJTI110_1
.set L110_1_set_66, LBB110_66-LJTI110_1
.set L110_1_set_67, LBB110_67-LJTI110_1
.set L110_1_set_68, LBB110_68-LJTI110_1
.set L110_1_set_69, LBB110_69-LJTI110_1
.set L110_1_set_73, LBB110_73-LJTI110_1
.set L110_1_set_74, LBB110_74-LJTI110_1
.set L110_1_set_75, LBB110_75-LJTI110_1
.set L110_1_set_76, LBB110_76-LJTI110_1
.set L110_1_set_77, LBB110_77-LJTI110_1
.set L110_1_set_78, LBB110_78-LJTI110_1
.set L110_1_set_79, LBB110_79-LJTI110_1
.set L110_1_set_80, LBB110_80-LJTI110_1
.set L110_1_set_81, LBB110_81-LJTI110_1
.set L110_1_set_82, LBB110_82-LJTI110_1
.set L110_1_set_83, LBB110_83-LJTI110_1
.set L110_1_set_84, LBB110_84-LJTI110_1
.set L110_1_set_85, LBB110_85-LJTI110_1
.set L110_1_set_86, LBB110_86-LJTI110_1
.set L110_1_set_87, LBB110_87-LJTI110_1
.set L110_1_set_88, LBB110_88-LJTI110_1
.set L110_1_set_89, LBB110_89-LJTI110_1
.set L110_1_set_90, LBB110_90-LJTI110_1
.set L110_1_set_91, LBB110_91-LJTI110_1
.set L110_1_set_92, LBB110_92-LJTI110_1
.set L110_1_set_93, LBB110_93-LJTI110_1
.set L110_1_set_94, LBB110_94-LJTI110_1
.set L110_1_set_95, LBB110_95-LJTI110_1
.set L110_1_set_96, LBB110_96-LJTI110_1
.set L110_1_set_97, LBB110_97-LJTI110_1
.set L110_1_set_98, LBB110_98-LJTI110_1
.set L110_1_set_99, LBB110_99-LJTI110_1
.set L110_1_set_100, LBB110_100-LJTI110_1
LJTI110_1:
	.long	L110_1_set_4
	.long	L110_1_set_71
	.long	L110_1_set_30
	.long	L110_1_set_31
	.long	L110_1_set_32
	.long	L110_1_set_33
	.long	L110_1_set_34
	.long	L110_1_set_72
	.long	L110_1_set_72
	.long	L110_1_set_35
	.long	L110_1_set_72
	.long	L110_1_set_36
	.long	L110_1_set_37
	.long	L110_1_set_72
	.long	L110_1_set_38
	.long	L110_1_set_72
	.long	L110_1_set_39
	.long	L110_1_set_40
	.long	L110_1_set_41
	.long	L110_1_set_42
	.long	L110_1_set_43
	.long	L110_1_set_72
	.long	L110_1_set_44
	.long	L110_1_set_45
	.long	L110_1_set_46
	.long	L110_1_set_47
	.long	L110_1_set_48
	.long	L110_1_set_49
	.long	L110_1_set_50
	.long	L110_1_set_51
	.long	L110_1_set_52
	.long	L110_1_set_53
	.long	L110_1_set_54
	.long	L110_1_set_55
	.long	L110_1_set_56
	.long	L110_1_set_57
	.long	L110_1_set_58
	.long	L110_1_set_59
	.long	L110_1_set_60
	.long	L110_1_set_61
	.long	L110_1_set_62
	.long	L110_1_set_63
	.long	L110_1_set_64
	.long	L110_1_set_65
	.long	L110_1_set_66
	.long	L110_1_set_67
	.long	L110_1_set_68
	.long	L110_1_set_69
	.long	L110_1_set_73
	.long	L110_1_set_74
	.long	L110_1_set_75
	.long	L110_1_set_76
	.long	L110_1_set_77
	.long	L110_1_set_78
	.long	L110_1_set_79
	.long	L110_1_set_80
	.long	L110_1_set_81
	.long	L110_1_set_82
	.long	L110_1_set_83
	.long	L110_1_set_84
	.long	L110_1_set_85
	.long	L110_1_set_86
	.long	L110_1_set_87
	.long	L110_1_set_72
	.long	L110_1_set_88
	.long	L110_1_set_89
	.long	L110_1_set_90
	.long	L110_1_set_91
	.long	L110_1_set_92
	.long	L110_1_set_93
	.long	L110_1_set_94
	.long	L110_1_set_95
	.long	L110_1_set_96
	.long	L110_1_set_97
	.long	L110_1_set_98
	.long	L110_1_set_99
	.long	L110_1_set_100
.set L110_2_set_10, LBB110_10-LJTI110_2
.set L110_2_set_101, LBB110_101-LJTI110_2
.set L110_2_set_72, LBB110_72-LJTI110_2
.set L110_2_set_102, LBB110_102-LJTI110_2
.set L110_2_set_103, LBB110_103-LJTI110_2
.set L110_2_set_104, LBB110_104-LJTI110_2
.set L110_2_set_105, LBB110_105-LJTI110_2
.set L110_2_set_106, LBB110_106-LJTI110_2
.set L110_2_set_107, LBB110_107-LJTI110_2
.set L110_2_set_108, LBB110_108-LJTI110_2
.set L110_2_set_109, LBB110_109-LJTI110_2
.set L110_2_set_110, LBB110_110-LJTI110_2
.set L110_2_set_111, LBB110_111-LJTI110_2
.set L110_2_set_112, LBB110_112-LJTI110_2
.set L110_2_set_113, LBB110_113-LJTI110_2
.set L110_2_set_114, LBB110_114-LJTI110_2
LJTI110_2:
	.long	L110_2_set_10
	.long	L110_2_set_101
	.long	L110_2_set_72
	.long	L110_2_set_72
	.long	L110_2_set_72
	.long	L110_2_set_72
	.long	L110_2_set_72
	.long	L110_2_set_72
	.long	L110_2_set_72
	.long	L110_2_set_72
	.long	L110_2_set_72
	.long	L110_2_set_72
	.long	L110_2_set_72
	.long	L110_2_set_72
	.long	L110_2_set_72
	.long	L110_2_set_72
	.long	L110_2_set_102
	.long	L110_2_set_103
	.long	L110_2_set_104
	.long	L110_2_set_72
	.long	L110_2_set_72
	.long	L110_2_set_72
	.long	L110_2_set_72
	.long	L110_2_set_72
	.long	L110_2_set_72
	.long	L110_2_set_72
	.long	L110_2_set_72
	.long	L110_2_set_72
	.long	L110_2_set_72
	.long	L110_2_set_72
	.long	L110_2_set_72
	.long	L110_2_set_72
	.long	L110_2_set_72
	.long	L110_2_set_72
	.long	L110_2_set_72
	.long	L110_2_set_72
	.long	L110_2_set_72
	.long	L110_2_set_72
	.long	L110_2_set_72
	.long	L110_2_set_72
	.long	L110_2_set_72
	.long	L110_2_set_72
	.long	L110_2_set_72
	.long	L110_2_set_72
	.long	L110_2_set_72
	.long	L110_2_set_72
	.long	L110_2_set_72
	.long	L110_2_set_72
	.long	L110_2_set_72
	.long	L110_2_set_72
	.long	L110_2_set_72
	.long	L110_2_set_72
	.long	L110_2_set_72
	.long	L110_2_set_72
	.long	L110_2_set_72
	.long	L110_2_set_72
	.long	L110_2_set_72
	.long	L110_2_set_72
	.long	L110_2_set_72
	.long	L110_2_set_72
	.long	L110_2_set_72
	.long	L110_2_set_72
	.long	L110_2_set_72
	.long	L110_2_set_72
	.long	L110_2_set_72
	.long	L110_2_set_72
	.long	L110_2_set_72
	.long	L110_2_set_72
	.long	L110_2_set_72
	.long	L110_2_set_72
	.long	L110_2_set_72
	.long	L110_2_set_72
	.long	L110_2_set_72
	.long	L110_2_set_72
	.long	L110_2_set_72
	.long	L110_2_set_72
	.long	L110_2_set_72
	.long	L110_2_set_72
	.long	L110_2_set_72
	.long	L110_2_set_72
	.long	L110_2_set_72
	.long	L110_2_set_72
	.long	L110_2_set_72
	.long	L110_2_set_72
	.long	L110_2_set_72
	.long	L110_2_set_72
	.long	L110_2_set_72
	.long	L110_2_set_72
	.long	L110_2_set_72
	.long	L110_2_set_72
	.long	L110_2_set_72
	.long	L110_2_set_72
	.long	L110_2_set_72
	.long	L110_2_set_72
	.long	L110_2_set_72
	.long	L110_2_set_72
	.long	L110_2_set_72
	.long	L110_2_set_72
	.long	L110_2_set_72
	.long	L110_2_set_72
	.long	L110_2_set_72
	.long	L110_2_set_72
	.long	L110_2_set_72
	.long	L110_2_set_72
	.long	L110_2_set_72
	.long	L110_2_set_72
	.long	L110_2_set_72
	.long	L110_2_set_72
	.long	L110_2_set_72
	.long	L110_2_set_72
	.long	L110_2_set_72
	.long	L110_2_set_72
	.long	L110_2_set_72
	.long	L110_2_set_72
	.long	L110_2_set_72
	.long	L110_2_set_72
	.long	L110_2_set_72
	.long	L110_2_set_72
	.long	L110_2_set_72
	.long	L110_2_set_72
	.long	L110_2_set_72
	.long	L110_2_set_72
	.long	L110_2_set_72
	.long	L110_2_set_72
	.long	L110_2_set_72
	.long	L110_2_set_72
	.long	L110_2_set_72
	.long	L110_2_set_72
	.long	L110_2_set_72
	.long	L110_2_set_105
	.long	L110_2_set_106
	.long	L110_2_set_107
	.long	L110_2_set_108
	.long	L110_2_set_109
	.long	L110_2_set_110
	.long	L110_2_set_111
	.long	L110_2_set_112
	.long	L110_2_set_113
	.long	L110_2_set_114
.set L110_3_set_8, LBB110_8-LJTI110_3
.set L110_3_set_115, LBB110_115-LJTI110_3
.set L110_3_set_116, LBB110_116-LJTI110_3
.set L110_3_set_117, LBB110_117-LJTI110_3
.set L110_3_set_118, LBB110_118-LJTI110_3
.set L110_3_set_119, LBB110_119-LJTI110_3
.set L110_3_set_120, LBB110_120-LJTI110_3
.set L110_3_set_121, LBB110_121-LJTI110_3
.set L110_3_set_122, LBB110_122-LJTI110_3
.set L110_3_set_123, LBB110_123-LJTI110_3
.set L110_3_set_124, LBB110_124-LJTI110_3
.set L110_3_set_125, LBB110_125-LJTI110_3
.set L110_3_set_126, LBB110_126-LJTI110_3
.set L110_3_set_127, LBB110_127-LJTI110_3
LJTI110_3:
	.long	L110_3_set_8
	.long	L110_3_set_115
	.long	L110_3_set_116
	.long	L110_3_set_117
	.long	L110_3_set_118
	.long	L110_3_set_119
	.long	L110_3_set_120
	.long	L110_3_set_121
	.long	L110_3_set_122
	.long	L110_3_set_123
	.long	L110_3_set_124
	.long	L110_3_set_125
	.long	L110_3_set_126
	.long	L110_3_set_127
.set L110_4_set_21, LBB110_21-LJTI110_4
.set L110_4_set_27, LBB110_27-LJTI110_4
.set L110_4_set_28, LBB110_28-LJTI110_4
.set L110_4_set_72, LBB110_72-LJTI110_4
.set L110_4_set_29, LBB110_29-LJTI110_4
LJTI110_4:
	.long	L110_4_set_21
	.long	L110_4_set_27
	.long	L110_4_set_28
	.long	L110_4_set_72
	.long	L110_4_set_72
	.long	L110_4_set_72
	.long	L110_4_set_72
	.long	L110_4_set_72
	.long	L110_4_set_72
	.long	L110_4_set_72
	.long	L110_4_set_72
	.long	L110_4_set_72
	.long	L110_4_set_72
	.long	L110_4_set_72
	.long	L110_4_set_72
	.long	L110_4_set_72
	.long	L110_4_set_29
	.end_data_region

	.globl	__ZN62_$LT$gimli..constants..DwTag$u20$as$u20$core..fmt..Display$GT$3fmt17h1c1649e4105b7dd1E
	.p2align	4, 0x90
__ZN62_$LT$gimli..constants..DwTag$u20$as$u20$core..fmt..Display$GT$3fmt17h1c1649e4105b7dd1E:
Lfunc_begin6:
	.cfi_startproc
	.cfi_personality 155, _rust_eh_personality
	.cfi_lsda 16, Lexception6
	pushq	%rbp
	.cfi_def_cfa_offset 16
	.cfi_offset %rbp, -16
	movq	%rsp, %rbp
	.cfi_def_cfa_register %rbp
	pushq	%r15
	pushq	%r14
	pushq	%rbx
	subq	$104, %rsp
	.cfi_offset %rbx, -40
	.cfi_offset %r14, -32
	.cfi_offset %r15, -24
	movq	%rsi, %r15
	movq	%rdi, %rbx
	callq	__ZN5gimli9constants5DwTag13static_string17h1fb77102a250e7eaE
	testq	%rax, %rax
	je	LBB111_1
	movq	%r15, %rdi
	movq	%rax, %rsi
	addq	$104, %rsp
	popq	%rbx
	popq	%r14
	popq	%r15
	popq	%rbp
	jmp	__ZN4core3fmt9Formatter3pad17h426409b23b74b394E
LBB111_1:
	leaq	l___unnamed_365(%rip), %rax
	movq	%rax, -80(%rbp)
	leaq	__ZN44_$LT$$RF$T$u20$as$u20$core..fmt..Display$GT$3fmt17h75bd668156b0de05E(%rip), %rax
	movq	%rax, -72(%rbp)
	movq	%rbx, -64(%rbp)
	movq	__ZN4core3fmt3num3imp52_$LT$impl$u20$core..fmt..Display$u20$for$u20$u16$GT$3fmt17h5ce1a50c193bc52eE@GOTPCREL(%rip), %rax
	movq	%rax, -56(%rbp)
	leaq	l___unnamed_214(%rip), %rax
	movq	%rax, -128(%rbp)
	movq	$2, -120(%rbp)
	movq	$0, -112(%rbp)
	leaq	-80(%rbp), %rax
	movq	%rax, -96(%rbp)
	movq	$2, -88(%rbp)
	leaq	-48(%rbp), %rdi
	leaq	-128(%rbp), %rsi
	callq	__ZN5alloc3fmt6format17h3d416f5cefdba372E
	movq	-48(%rbp), %r14
	movq	-32(%rbp), %rdx
Ltmp29:
	movq	%r15, %rdi
	movq	%r14, %rsi
	callq	__ZN4core3fmt9Formatter3pad17h426409b23b74b394E
Ltmp30:
	movl	%eax, %ebx
	movq	-40(%rbp), %rsi
	testq	%rsi, %rsi
	je	LBB111_4
	movl	$1, %edx
	movq	%r14, %rdi
	callq	___rust_dealloc
LBB111_4:
	movl	%ebx, %eax
	addq	$104, %rsp
	popq	%rbx
	popq	%r14
	popq	%r15
	popq	%rbp
	retq
LBB111_5:
Ltmp31:
	movq	%rax, %rbx
	leaq	-48(%rbp), %rdi
	callq	__ZN4core3ptr13drop_in_place17h6ed595dafba40ca7E
	movq	%rbx, %rdi
	callq	__Unwind_Resume
	ud2
Lfunc_end6:
	.cfi_endproc
	.section	__TEXT,__gcc_except_tab
	.p2align	2
GCC_except_table111:
Lexception6:
	.byte	255
	.byte	255
	.byte	1
	.uleb128 Lcst_end6-Lcst_begin6
Lcst_begin6:
	.uleb128 Lfunc_begin6-Lfunc_begin6
	.uleb128 Ltmp29-Lfunc_begin6
	.byte	0
	.byte	0
	.uleb128 Ltmp29-Lfunc_begin6
	.uleb128 Ltmp30-Ltmp29
	.uleb128 Ltmp31-Lfunc_begin6
	.byte	0
	.uleb128 Ltmp30-Lfunc_begin6
	.uleb128 Lfunc_end6-Ltmp30
	.byte	0
	.byte	0
Lcst_end6:
	.p2align	2

	.section	__TEXT,__text,regular,pure_instructions
	.globl	__ZN60_$LT$gimli..constants..DwTag$u20$as$u20$core..fmt..Debug$GT$3fmt17h31845236a233394eE
	.p2align	4, 0x90
__ZN60_$LT$gimli..constants..DwTag$u20$as$u20$core..fmt..Debug$GT$3fmt17h31845236a233394eE:
	.cfi_startproc
	pushq	%rbp
	.cfi_def_cfa_offset 16
	.cfi_offset %rbp, -16
	movq	%rsp, %rbp
	.cfi_def_cfa_register %rbp
	pushq	%r14
	pushq	%rbx
	subq	$32, %rsp
	.cfi_offset %rbx, -32
	.cfi_offset %r14, -24
	movq	%rdi, %rbx
	leaq	l___unnamed_25(%rip), %rdx
	leaq	-48(%rbp), %r14
	movl	$5, %ecx
	movq	%r14, %rdi
	callq	__ZN4core3fmt9Formatter11debug_tuple17h6c448643801d07e8E
	movq	%rbx, -24(%rbp)
	leaq	l___unnamed_7(%rip), %rdx
	leaq	-24(%rbp), %rsi
	movq	%r14, %rdi
	callq	__ZN4core3fmt8builders10DebugTuple5field17hc7b676d0e36b51d9E
	movq	%r14, %rdi
	callq	__ZN4core3fmt8builders10DebugTuple6finish17h9f206806f7096c33E
	addq	$32, %rsp
	popq	%rbx
	popq	%r14
	popq	%rbp
	retq
	.cfi_endproc

	.globl	__ZN5gimli9constants4DwAt13static_string17ha9210b08cf57bcb0E
	.p2align	4, 0x90
__ZN5gimli9constants4DwAt13static_string17ha9210b08cf57bcb0E:
	.cfi_startproc
	pushq	%rbp
	.cfi_def_cfa_offset 16
	.cfi_offset %rbp, -16
	movq	%rsp, %rbp
	.cfi_def_cfa_register %rbp
	movswl	(%rdi), %ecx
	xorl	%eax, %eax
	cmpl	$8191, %ecx
	jle	LBB113_5
	movswl	%cx, %edx
	cmpl	$14848, %edx
	jg	LBB113_8
	leal	-8192(%rcx), %edx
	movzwl	%dx, %esi
	cmpl	$773, %esi
	ja	LBB113_23
	movzwl	%dx, %ecx
	leaq	LJTI113_1(%rip), %rdx
	movslq	(%rdx,%rcx,4), %rcx
	addq	%rdx, %rcx
	jmpq	*%rcx
LBB113_4:
	leaq	l___unnamed_366(%rip), %rcx
	movl	$13, %edx
	jmp	LBB113_168
LBB113_5:
	movzwl	%cx, %esi
	cmpl	$140, %esi
	ja	LBB113_287
	leaq	l___unnamed_367(%rip), %rcx
	movl	$10, %edx
	leaq	LJTI113_0(%rip), %rdi
	movslq	(%rdi,%rsi,4), %rsi
	addq	%rdi, %rsi
	jmpq	*%rsi
LBB113_7:
	leaq	l___unnamed_368(%rip), %rcx
	jmp	LBB113_167
LBB113_8:
	cmpl	$15871, %edx
	jg	LBB113_12
	leal	-15121(%rcx), %edx
	cmpw	$32, %dx
	ja	LBB113_20
	movzwl	%dx, %ecx
	leaq	LJTI113_2(%rip), %rdx
	movslq	(%rdx,%rcx,4), %rcx
	addq	%rdx, %rcx
	jmpq	*%rcx
LBB113_11:
	leaq	l___unnamed_369(%rip), %rcx
	movl	$27, %edx
	jmp	LBB113_168
LBB113_12:
	cmpl	$16352, %edx
	jle	LBB113_16
	addl	$-16353, %ecx
	cmpw	$30, %cx
	ja	LBB113_287
	movzwl	%cx, %ecx
	leaq	LJTI113_3(%rip), %rdx
	movslq	(%rdx,%rcx,4), %rcx
	addq	%rdx, %rcx
	jmpq	*%rcx
LBB113_15:
	leaq	l___unnamed_370(%rip), %rcx
	movl	$21, %edx
	jmp	LBB113_168
LBB113_16:
	movzwl	%cx, %ecx
	cmpl	$15872, %ecx
	je	LBB113_55
	cmpl	$15873, %ecx
	je	LBB113_56
	cmpl	$15874, %ecx
	jne	LBB113_169
	leaq	l___unnamed_371(%rip), %rcx
	movl	$19, %edx
	jmp	LBB113_168
LBB113_20:
	movzwl	%cx, %ecx
	cmpl	$14849, %ecx
	je	LBB113_57
	cmpl	$14850, %ecx
	jne	LBB113_169
	leaq	l___unnamed_372(%rip), %rcx
	movl	$17, %edx
	jmp	LBB113_168
LBB113_23:
	movzwl	%cx, %ecx
	cmpl	$12816, %ecx
	je	LBB113_285
	cmpl	$14848, %ecx
	jne	LBB113_169
	leaq	l___unnamed_373(%rip), %rcx
	movl	$15, %edx
	jmp	LBB113_168
LBB113_26:
	leaq	l___unnamed_374(%rip), %rcx
	movl	$28, %edx
	jmp	LBB113_168
LBB113_27:
	leaq	l___unnamed_375(%rip), %rcx
	movl	$33, %edx
	jmp	LBB113_168
LBB113_28:
	leaq	l___unnamed_376(%rip), %rcx
	movl	$28, %edx
	jmp	LBB113_168
LBB113_29:
	leaq	l___unnamed_377(%rip), %rcx
	movl	$30, %edx
	jmp	LBB113_168
LBB113_30:
	leaq	l___unnamed_378(%rip), %rcx
	movl	$25, %edx
	jmp	LBB113_168
LBB113_31:
	leaq	l___unnamed_379(%rip), %rcx
	movl	$26, %edx
	jmp	LBB113_168
LBB113_32:
	leaq	l___unnamed_380(%rip), %rcx
	movl	$27, %edx
	jmp	LBB113_168
LBB113_33:
	leaq	l___unnamed_381(%rip), %rcx
	movl	$30, %edx
	jmp	LBB113_168
LBB113_34:
	leaq	l___unnamed_382(%rip), %rcx
	movl	$32, %edx
	jmp	LBB113_168
LBB113_35:
	leaq	l___unnamed_383(%rip), %rcx
	movl	$31, %edx
	jmp	LBB113_168
LBB113_36:
	leaq	l___unnamed_384(%rip), %rcx
	movl	$37, %edx
	jmp	LBB113_168
LBB113_37:
	leaq	l___unnamed_385(%rip), %rcx
	movl	$30, %edx
	jmp	LBB113_168
LBB113_38:
	leaq	l___unnamed_386(%rip), %rcx
	movl	$24, %edx
	jmp	LBB113_168
LBB113_39:
	leaq	l___unnamed_387(%rip), %rcx
	movl	$27, %edx
	jmp	LBB113_168
LBB113_40:
	leaq	l___unnamed_388(%rip), %rcx
	movl	$29, %edx
	jmp	LBB113_168
LBB113_41:
	leaq	l___unnamed_389(%rip), %rcx
	movl	$21, %edx
	jmp	LBB113_168
LBB113_42:
	leaq	l___unnamed_390(%rip), %rcx
	movl	$17, %edx
	jmp	LBB113_168
LBB113_43:
	leaq	l___unnamed_391(%rip), %rcx
	movl	$15, %edx
	jmp	LBB113_168
LBB113_44:
	leaq	l___unnamed_392(%rip), %rcx
	movl	$17, %edx
	jmp	LBB113_168
LBB113_45:
	leaq	l___unnamed_393(%rip), %rcx
	movl	$30, %edx
	jmp	LBB113_168
LBB113_46:
	leaq	l___unnamed_394(%rip), %rcx
	movl	$25, %edx
	jmp	LBB113_168
LBB113_47:
	leaq	l___unnamed_395(%rip), %rcx
	movl	$26, %edx
	jmp	LBB113_168
LBB113_48:
	leaq	l___unnamed_396(%rip), %rcx
	movl	$25, %edx
	jmp	LBB113_168
LBB113_49:
	leaq	l___unnamed_397(%rip), %rcx
	movl	$27, %edx
	jmp	LBB113_168
LBB113_50:
	leaq	l___unnamed_398(%rip), %rcx
	movl	$27, %edx
	jmp	LBB113_168
LBB113_51:
	leaq	l___unnamed_399(%rip), %rcx
	movl	$30, %edx
	jmp	LBB113_168
LBB113_52:
	leaq	l___unnamed_400(%rip), %rcx
	movl	$30, %edx
	jmp	LBB113_168
LBB113_53:
	leaq	l___unnamed_401(%rip), %rcx
	movl	$20, %edx
	jmp	LBB113_168
LBB113_54:
	leaq	l___unnamed_402(%rip), %rcx
	movl	$13, %edx
	jmp	LBB113_168
LBB113_55:
	leaq	l___unnamed_403(%rip), %rcx
	movl	$23, %edx
	jmp	LBB113_168
LBB113_56:
	leaq	l___unnamed_404(%rip), %rcx
	movl	$24, %edx
	jmp	LBB113_168
LBB113_57:
	leaq	l___unnamed_405(%rip), %rcx
	movl	$17, %edx
	jmp	LBB113_168
LBB113_58:
	leaq	l___unnamed_406(%rip), %rcx
	movl	$14, %edx
	jmp	LBB113_168
LBB113_59:
	leaq	l___unnamed_407(%rip), %rcx
	jmp	LBB113_168
LBB113_60:
	leaq	l___unnamed_408(%rip), %rcx
	movl	$14, %edx
	jmp	LBB113_168
LBB113_61:
	leaq	l___unnamed_409(%rip), %rcx
	movl	$15, %edx
	jmp	LBB113_168
LBB113_62:
	leaq	L___unnamed_410(%rip), %rcx
	movl	$16, %edx
	jmp	LBB113_168
LBB113_63:
	leaq	l___unnamed_411(%rip), %rcx
	movl	$14, %edx
	jmp	LBB113_168
LBB113_64:
	leaq	l___unnamed_412(%rip), %rcx
	movl	$15, %edx
	jmp	LBB113_168
LBB113_65:
	leaq	l___unnamed_413(%rip), %rcx
	movl	$12, %edx
	jmp	LBB113_168
LBB113_66:
	leaq	l___unnamed_414(%rip), %rcx
	jmp	LBB113_167
LBB113_67:
	leaq	l___unnamed_415(%rip), %rcx
	movl	$14, %edx
	jmp	LBB113_168
LBB113_68:
	leaq	l___unnamed_416(%rip), %rcx
	movl	$11, %edx
	jmp	LBB113_168
LBB113_69:
	leaq	l___unnamed_417(%rip), %rcx
	movl	$17, %edx
	jmp	LBB113_168
LBB113_70:
	leaq	L___unnamed_418(%rip), %rcx
	movl	$16, %edx
	jmp	LBB113_168
LBB113_71:
	leaq	l___unnamed_419(%rip), %rcx
	movl	$12, %edx
	jmp	LBB113_168
LBB113_72:
	leaq	l___unnamed_420(%rip), %rcx
	movl	$19, %edx
	jmp	LBB113_168
LBB113_73:
	leaq	l___unnamed_421(%rip), %rcx
	movl	$22, %edx
	jmp	LBB113_168
LBB113_74:
	leaq	l___unnamed_422(%rip), %rcx
	movl	$14, %edx
	jmp	LBB113_168
LBB113_75:
	leaq	l___unnamed_423(%rip), %rcx
	movl	$17, %edx
	jmp	LBB113_168
LBB113_76:
	leaq	l___unnamed_424(%rip), %rcx
	movl	$21, %edx
	jmp	LBB113_168
LBB113_77:
	leaq	l___unnamed_425(%rip), %rcx
	movl	$19, %edx
	jmp	LBB113_168
LBB113_78:
	leaq	l___unnamed_426(%rip), %rcx
	movl	$12, %edx
	jmp	LBB113_168
LBB113_79:
	leaq	l___unnamed_427(%rip), %rcx
	movl	$17, %edx
	jmp	LBB113_168
LBB113_80:
	leaq	l___unnamed_428(%rip), %rcx
	movl	$17, %edx
	jmp	LBB113_168
LBB113_81:
	leaq	l___unnamed_429(%rip), %rcx
	movl	$14, %edx
	jmp	LBB113_168
LBB113_82:
	leaq	L___unnamed_430(%rip), %rcx
	movl	$16, %edx
	jmp	LBB113_168
LBB113_83:
	leaq	l___unnamed_431(%rip), %rcx
	movl	$17, %edx
	jmp	LBB113_168
LBB113_84:
	leaq	l___unnamed_432(%rip), %rcx
	movl	$17, %edx
	jmp	LBB113_168
LBB113_85:
	leaq	L___unnamed_433(%rip), %rcx
	movl	$16, %edx
	jmp	LBB113_168
LBB113_86:
	leaq	l___unnamed_434(%rip), %rcx
	movl	$17, %edx
	jmp	LBB113_168
LBB113_87:
	leaq	l___unnamed_435(%rip), %rcx
	movl	$21, %edx
	jmp	LBB113_168
LBB113_88:
	leaq	l___unnamed_436(%rip), %rcx
	movl	$19, %edx
	jmp	LBB113_168
LBB113_89:
	leaq	l___unnamed_437(%rip), %rcx
	movl	$19, %edx
	jmp	LBB113_168
LBB113_90:
	leaq	L___unnamed_438(%rip), %rcx
	movl	$16, %edx
	jmp	LBB113_168
LBB113_91:
	leaq	L___unnamed_439(%rip), %rcx
	movl	$16, %edx
	jmp	LBB113_168
LBB113_92:
	leaq	l___unnamed_440(%rip), %rcx
	movl	$24, %edx
	jmp	LBB113_168
LBB113_93:
	leaq	l___unnamed_441(%rip), %rcx
	movl	$11, %edx
	jmp	LBB113_168
LBB113_94:
	leaq	l___unnamed_442(%rip), %rcx
	movl	$26, %edx
	jmp	LBB113_168
LBB113_95:
	leaq	l___unnamed_443(%rip), %rcx
	movl	$17, %edx
	jmp	LBB113_168
LBB113_96:
	leaq	l___unnamed_444(%rip), %rcx
	movl	$15, %edx
	jmp	LBB113_168
LBB113_97:
	leaq	l___unnamed_445(%rip), %rcx
	movl	$15, %edx
	jmp	LBB113_168
LBB113_98:
	leaq	l___unnamed_446(%rip), %rcx
	movl	$17, %edx
	jmp	LBB113_168
LBB113_99:
	leaq	L___unnamed_447(%rip), %rcx
	movl	$16, %edx
	jmp	LBB113_168
LBB113_100:
	leaq	l___unnamed_448(%rip), %rcx
	movl	$14, %edx
	jmp	LBB113_168
LBB113_101:
	leaq	l___unnamed_449(%rip), %rcx
	movl	$14, %edx
	jmp	LBB113_168
LBB113_102:
	leaq	L___unnamed_450(%rip), %rcx
	movl	$16, %edx
	jmp	LBB113_168
LBB113_103:
	leaq	l___unnamed_451(%rip), %rcx
	movl	$12, %edx
	jmp	LBB113_168
LBB113_104:
	leaq	l___unnamed_452(%rip), %rcx
	movl	$21, %edx
	jmp	LBB113_168
LBB113_105:
	leaq	L___unnamed_453(%rip), %rcx
	movl	$16, %edx
	jmp	LBB113_168
LBB113_106:
	leaq	l___unnamed_454(%rip), %rcx
	movl	$19, %edx
	jmp	LBB113_168
LBB113_107:
	leaq	l___unnamed_455(%rip), %rcx
	movl	$14, %edx
	jmp	LBB113_168
LBB113_108:
	leaq	l___unnamed_456(%rip), %rcx
	jmp	LBB113_167
LBB113_109:
	leaq	l___unnamed_457(%rip), %rcx
	movl	$19, %edx
	jmp	LBB113_168
LBB113_110:
	leaq	l___unnamed_458(%rip), %rcx
	movl	$17, %edx
	jmp	LBB113_168
LBB113_111:
	leaq	l___unnamed_459(%rip), %rcx
	jmp	LBB113_168
LBB113_112:
	leaq	l___unnamed_460(%rip), %rcx
	movl	$18, %edx
	jmp	LBB113_168
LBB113_113:
	leaq	l___unnamed_461(%rip), %rcx
	movl	$24, %edx
	jmp	LBB113_168
LBB113_114:
	leaq	L___unnamed_462(%rip), %rcx
	movl	$16, %edx
	jmp	LBB113_168
LBB113_115:
	leaq	l___unnamed_463(%rip), %rcx
	movl	$26, %edx
	jmp	LBB113_168
LBB113_116:
