	.section	__TEXT,__text,regular,pure_instructions
	.macosx_version_min 10, 7
	.globl	__ZN54_$LT$libc..unix..DIR$u20$as$u20$core..clone..Clone$GT$5clone17ha7ba172b3306b51dE
	.p2align	4, 0x90
__ZN54_$LT$libc..unix..DIR$u20$as$u20$core..clone..Clone$GT$5clone17ha7ba172b3306b51dE:
	.cfi_startproc
	pushq	%rbp
	.cfi_def_cfa_offset 16
	.cfi_offset %rbp, -16
	movq	%rsp, %rbp
	.cfi_def_cfa_register %rbp
	ud2
	.cfi_endproc

	.globl	__ZN58_$LT$libc..unix..timeval$u20$as$u20$core..clone..Clone$GT$5clone17h0ce105539af03601E
	.p2align	4, 0x90
__ZN58_$LT$libc..unix..timeval$u20$as$u20$core..clone..Clone$GT$5clone17h0ce105539af03601E:
	.cfi_startproc
	pushq	%rbp
	.cfi_def_cfa_offset 16
	.cfi_offset %rbp, -16
	movq	%rsp, %rbp
	.cfi_def_cfa_register %rbp
	movq	(%rdi), %rax
	movl	8(%rdi), %edx
	popq	%rbp
	retq
	.cfi_endproc

	.globl	__ZN57_$LT$libc..unix..rusage$u20$as$u20$core..clone..Clone$GT$5clone17h9d726070d2377446E
	.p2align	4, 0x90
__ZN57_$LT$libc..unix..rusage$u20$as$u20$core..clone..Clone$GT$5clone17h9d726070d2377446E:
	.cfi_startproc
	pushq	%rbp
	.cfi_def_cfa_offset 16
	.cfi_offset %rbp, -16
	movq	%rsp, %rbp
	.cfi_def_cfa_register %rbp
	movq	%rdi, %rax
	vmovups	112(%rsi), %ymm0
	vmovups	%ymm0, 112(%rdi)
	vmovups	(%rsi), %ymm0
	vmovups	32(%rsi), %ymm1
	vmovups	64(%rsi), %ymm2
	vmovups	96(%rsi), %ymm3
	vmovups	%ymm3, 96(%rdi)
	vmovups	%ymm2, 64(%rdi)
	vmovups	%ymm1, 32(%rdi)
	vmovups	%ymm0, (%rdi)
	popq	%rbp
	vzeroupper
	retq
	.cfi_endproc

	.globl	__ZN60_$LT$libc..unix..ipv6_mreq$u20$as$u20$core..clone..Clone$GT$5clone17h939de96848eabc35E
	.p2align	4, 0x90
__ZN60_$LT$libc..unix..ipv6_mreq$u20$as$u20$core..clone..Clone$GT$5clone17h939de96848eabc35E:
	.cfi_startproc
	pushq	%rbp
	.cfi_def_cfa_offset 16
	.cfi_offset %rbp, -16
	movq	%rsp, %rbp
	.cfi_def_cfa_register %rbp
	movq	%rdi, %rax
	movl	16(%rsi), %ecx
	movl	%ecx, 16(%rdi)
	vmovups	(%rsi), %xmm0
	vmovups	%xmm0, (%rdi)
	popq	%rbp
	retq
	.cfi_endproc

	.globl	__ZN56_$LT$libc..unix..iovec$u20$as$u20$core..clone..Clone$GT$5clone17h211d32117219e7c5E
	.p2align	4, 0x90
__ZN56_$LT$libc..unix..iovec$u20$as$u20$core..clone..Clone$GT$5clone17h211d32117219e7c5E:
	.cfi_startproc
	pushq	%rbp
	.cfi_def_cfa_offset 16
	.cfi_offset %rbp, -16
	movq	%rsp, %rbp
	.cfi_def_cfa_register %rbp
	movq	(%rdi), %rax
	movq	8(%rdi), %rdx
	popq	%rbp
	retq
	.cfi_endproc

	.globl	__ZN57_$LT$libc..unix..pollfd$u20$as$u20$core..clone..Clone$GT$5clone17h5b32eb1b11918542E
	.p2align	4, 0x90
__ZN57_$LT$libc..unix..pollfd$u20$as$u20$core..clone..Clone$GT$5clone17h5b32eb1b11918542E:
	.cfi_startproc
	pushq	%rbp
	.cfi_def_cfa_offset 16
	.cfi_offset %rbp, -16
	movq	%rsp, %rbp
	.cfi_def_cfa_register %rbp
	movq	(%rdi), %rax
	popq	%rbp
	retq
	.cfi_endproc

	.globl	__ZN58_$LT$libc..unix..winsize$u20$as$u20$core..clone..Clone$GT$5clone17h071e891a27aefff3E
	.p2align	4, 0x90
__ZN58_$LT$libc..unix..winsize$u20$as$u20$core..clone..Clone$GT$5clone17h071e891a27aefff3E:
	.cfi_startproc
	pushq	%rbp
	.cfi_def_cfa_offset 16
	.cfi_offset %rbp, -16
	movq	%rsp, %rbp
	.cfi_def_cfa_register %rbp
	movq	(%rdi), %rax
	popq	%rbp
	retq
	.cfi_endproc

	.globl	__ZN57_$LT$libc..unix..linger$u20$as$u20$core..clone..Clone$GT$5clone17hd1506750178cdf57E
	.p2align	4, 0x90
__ZN57_$LT$libc..unix..linger$u20$as$u20$core..clone..Clone$GT$5clone17hd1506750178cdf57E:
	.cfi_startproc
	pushq	%rbp
	.cfi_def_cfa_offset 16
	.cfi_offset %rbp, -16
	movq	%rsp, %rbp
	.cfi_def_cfa_register %rbp
	movl	(%rdi), %eax
	movl	4(%rdi), %edx
	popq	%rbp
	retq
	.cfi_endproc

	.globl	__ZN57_$LT$libc..unix..sigval$u20$as$u20$core..clone..Clone$GT$5clone17h446eb838927ccaa7E
	.p2align	4, 0x90
__ZN57_$LT$libc..unix..sigval$u20$as$u20$core..clone..Clone$GT$5clone17h446eb838927ccaa7E:
	.cfi_startproc
	pushq	%rbp
	.cfi_def_cfa_offset 16
	.cfi_offset %rbp, -16
	movq	%rsp, %rbp
	.cfi_def_cfa_register %rbp
	movq	(%rdi), %rax
	popq	%rbp
	retq
	.cfi_endproc

	.globl	__ZN54_$LT$libc..unix..tms$u20$as$u20$core..clone..Clone$GT$5clone17hacd6eb7cc2aa0c6fE
	.p2align	4, 0x90
__ZN54_$LT$libc..unix..tms$u20$as$u20$core..clone..Clone$GT$5clone17hacd6eb7cc2aa0c6fE:
	.cfi_startproc
	pushq	%rbp
	.cfi_def_cfa_offset 16
	.cfi_offset %rbp, -16
	movq	%rsp, %rbp
	.cfi_def_cfa_register %rbp
	movq	%rdi, %rax
	vmovups	(%rsi), %ymm0
	vmovups	%ymm0, (%rdi)
	popq	%rbp
	vzeroupper
	retq
	.cfi_endproc

	.globl	__ZN59_$LT$libc..unix..protoent$u20$as$u20$core..clone..Clone$GT$5clone17h469306794ed1f9dcE
	.p2align	4, 0x90
__ZN59_$LT$libc..unix..protoent$u20$as$u20$core..clone..Clone$GT$5clone17h469306794ed1f9dcE:
	.cfi_startproc
	pushq	%rbp
	.cfi_def_cfa_offset 16
	.cfi_offset %rbp, -16
	movq	%rsp, %rbp
	.cfi_def_cfa_register %rbp
	movq	%rdi, %rax
	movq	16(%rsi), %rcx
	movq	%rcx, 16(%rdi)
	vmovups	(%rsi), %xmm0
	vmovups	%xmm0, (%rdi)
	popq	%rbp
	retq
	.cfi_endproc

	.globl	__ZN64_$LT$libc..unix..bsd..sockaddr$u20$as$u20$core..clone..Clone$GT$5clone17h7077082112ef7223E
	.p2align	4, 0x90
__ZN64_$LT$libc..unix..bsd..sockaddr$u20$as$u20$core..clone..Clone$GT$5clone17h7077082112ef7223E:
	.cfi_startproc
	pushq	%rbp
	.cfi_def_cfa_offset 16
	.cfi_offset %rbp, -16
	movq	%rsp, %rbp
	.cfi_def_cfa_register %rbp
	movq	%rdi, %rax
	vmovups	(%rsi), %xmm0
	vmovups	%xmm0, (%rdi)
	popq	%rbp
	retq
	.cfi_endproc

	.globl	__ZN68_$LT$libc..unix..bsd..sockaddr_in6$u20$as$u20$core..clone..Clone$GT$5clone17hd9202aee5f2b8fa1E
	.p2align	4, 0x90
__ZN68_$LT$libc..unix..bsd..sockaddr_in6$u20$as$u20$core..clone..Clone$GT$5clone17hd9202aee5f2b8fa1E:
	.cfi_startproc
	pushq	%rbp
	.cfi_def_cfa_offset 16
	.cfi_offset %rbp, -16
	movq	%rsp, %rbp
	.cfi_def_cfa_register %rbp
	movq	%rdi, %rax
	vmovups	(%rsi), %xmm0
	vmovups	12(%rsi), %xmm1
	vmovups	%xmm1, 12(%rdi)
	vmovups	%xmm0, (%rdi)
	popq	%rbp
	retq
	.cfi_endproc

	.globl	__ZN62_$LT$libc..unix..bsd..passwd$u20$as$u20$core..clone..Clone$GT$5clone17h3b8f373260f2a297E
	.p2align	4, 0x90
__ZN62_$LT$libc..unix..bsd..passwd$u20$as$u20$core..clone..Clone$GT$5clone17h3b8f373260f2a297E:
	.cfi_startproc
	pushq	%rbp
	.cfi_def_cfa_offset 16
	.cfi_offset %rbp, -16
	movq	%rsp, %rbp
	.cfi_def_cfa_register %rbp
	movq	%rdi, %rax
	movq	64(%rsi), %rcx
	movq	%rcx, 64(%rdi)
	vmovups	(%rsi), %ymm0
	vmovups	32(%rsi), %ymm1
	vmovups	%ymm1, 32(%rdi)
	vmovups	%ymm0, (%rdi)
	popq	%rbp
	vzeroupper
	retq
	.cfi_endproc

	.globl	__ZN62_$LT$libc..unix..bsd..fd_set$u20$as$u20$core..clone..Clone$GT$5clone17h6c03aa92124b8dfbE
	.p2align	4, 0x90
__ZN62_$LT$libc..unix..bsd..fd_set$u20$as$u20$core..clone..Clone$GT$5clone17h6c03aa92124b8dfbE:
	.cfi_startproc
	pushq	%rbp
	.cfi_def_cfa_offset 16
	.cfi_offset %rbp, -16
	movq	%rsp, %rbp
	.cfi_def_cfa_register %rbp
	movq	%rdi, %rax
	vmovups	(%rsi), %ymm0
	vmovups	32(%rsi), %ymm1
	vmovups	64(%rsi), %ymm2
	vmovups	96(%rsi), %ymm3
	vmovups	%ymm3, 96(%rdi)
	vmovups	%ymm2, 64(%rdi)
	vmovups	%ymm1, 32(%rdi)
	vmovups	%ymm0, (%rdi)
	popq	%rbp
	vzeroupper
	retq
	.cfi_endproc

	.globl	__ZN58_$LT$libc..unix..bsd..tm$u20$as$u20$core..clone..Clone$GT$5clone17h03e005086eefa201E
	.p2align	4, 0x90
__ZN58_$LT$libc..unix..bsd..tm$u20$as$u20$core..clone..Clone$GT$5clone17h03e005086eefa201E:
	.cfi_startproc
	pushq	%rbp
	.cfi_def_cfa_offset 16
	.cfi_offset %rbp, -16
	movq	%rsp, %rbp
	.cfi_def_cfa_register %rbp
	movq	%rdi, %rax
	vmovups	(%rsi), %ymm0
	vmovups	24(%rsi), %ymm1
	vmovups	%ymm1, 24(%rdi)
	vmovups	%ymm0, (%rdi)
	popq	%rbp
	vzeroupper
	retq
	.cfi_endproc

	.globl	__ZN62_$LT$libc..unix..bsd..msghdr$u20$as$u20$core..clone..Clone$GT$5clone17h527eb4e0f6876a4fE
	.p2align	4, 0x90
__ZN62_$LT$libc..unix..bsd..msghdr$u20$as$u20$core..clone..Clone$GT$5clone17h527eb4e0f6876a4fE:
	.cfi_startproc
	pushq	%rbp
	.cfi_def_cfa_offset 16
	.cfi_offset %rbp, -16
	movq	%rsp, %rbp
	.cfi_def_cfa_register %rbp
	movq	%rdi, %rax
	vmovups	(%rsi), %ymm0
	vmovups	16(%rsi), %ymm1
	vmovups	%ymm1, 16(%rdi)
	vmovups	%ymm0, (%rdi)
	popq	%rbp
	vzeroupper
	retq
	.cfi_endproc

	.globl	__ZN63_$LT$libc..unix..bsd..cmsghdr$u20$as$u20$core..clone..Clone$GT$5clone17h93a79c66b2031310E
	.p2align	4, 0x90
__ZN63_$LT$libc..unix..bsd..cmsghdr$u20$as$u20$core..clone..Clone$GT$5clone17h93a79c66b2031310E:
	.cfi_startproc
	pushq	%rbp
	.cfi_def_cfa_offset 16
	.cfi_offset %rbp, -16
	movq	%rsp, %rbp
	.cfi_def_cfa_register %rbp
	movq	%rdi, %rax
	movl	8(%rsi), %ecx
	movl	%ecx, 8(%rdi)
	movq	(%rsi), %rcx
	movq	%rcx, (%rdi)
	popq	%rbp
	retq
	.cfi_endproc

	.globl	__ZN68_$LT$libc..unix..bsd..if_nameindex$u20$as$u20$core..clone..Clone$GT$5clone17hf383cafce93142aaE
	.p2align	4, 0x90
__ZN68_$LT$libc..unix..bsd..if_nameindex$u20$as$u20$core..clone..Clone$GT$5clone17hf383cafce93142aaE:
	.cfi_startproc
	pushq	%rbp
	.cfi_def_cfa_offset 16
	.cfi_offset %rbp, -16
	movq	%rsp, %rbp
	.cfi_def_cfa_register %rbp
	movl	(%rdi), %eax
	movq	8(%rdi), %rdx
	popq	%rbp
	retq
	.cfi_endproc

	.globl	__ZN67_$LT$libc..unix..bsd..sockaddr_un$u20$as$u20$core..clone..Clone$GT$5clone17h0fe88f032baa9272E
	.p2align	4, 0x90
__ZN67_$LT$libc..unix..bsd..sockaddr_un$u20$as$u20$core..clone..Clone$GT$5clone17h0fe88f032baa9272E:
	.cfi_startproc
	pushq	%rbp
	.cfi_def_cfa_offset 16
	.cfi_offset %rbp, -16
	movq	%rsp, %rbp
	.cfi_def_cfa_register %rbp
	movq	%rdi, %rax
	vmovups	(%rsi), %ymm0
	vmovups	32(%rsi), %ymm1
	vmovups	64(%rsi), %ymm2
	vmovups	74(%rsi), %ymm3
	vmovups	%ymm3, 74(%rdi)
	vmovups	%ymm2, 64(%rdi)
	vmovups	%ymm1, 32(%rdi)
	vmovups	%ymm0, (%rdi)
	popq	%rbp
	vzeroupper
	retq
	.cfi_endproc

	.globl	__ZN63_$LT$libc..unix..bsd..utsname$u20$as$u20$core..clone..Clone$GT$5clone17h18fc8067512406ccE
	.p2align	4, 0x90
__ZN63_$LT$libc..unix..bsd..utsname$u20$as$u20$core..clone..Clone$GT$5clone17h18fc8067512406ccE:
	.cfi_startproc
	pushq	%rbp
	.cfi_def_cfa_offset 16
	.cfi_offset %rbp, -16
	movq	%rsp, %rbp
	.cfi_def_cfa_register %rbp
	pushq	%rbx
	pushq	%rax
	.cfi_offset %rbx, -24
	movq	%rdi, %rbx
	movl	$1280, %edx
	callq	_memcpy
	movq	%rbx, %rax
	addq	$8, %rsp
	popq	%rbx
	popq	%rbp
	retq
	.cfi_endproc

	.globl	__ZN4libc4unix3bsd5apple9siginfo_t7si_addr17h4d9f5656668d3a1cE
	.p2align	4, 0x90
__ZN4libc4unix3bsd5apple9siginfo_t7si_addr17h4d9f5656668d3a1cE:
	.cfi_startproc
	pushq	%rbp
	.cfi_def_cfa_offset 16
	.cfi_offset %rbp, -16
	movq	%rsp, %rbp
	.cfi_def_cfa_register %rbp
	movq	24(%rdi), %rax
	popq	%rbp
	retq
	.cfi_endproc

	.globl	__ZN4libc4unix3bsd5apple9siginfo_t8si_value17h28652bfe90f3563aE
	.p2align	4, 0x90
__ZN4libc4unix3bsd5apple9siginfo_t8si_value17h28652bfe90f3563aE:
	.cfi_startproc
	pushq	%rbp
	.cfi_def_cfa_offset 16
	.cfi_offset %rbp, -16
	movq	%rsp, %rbp
	.cfi_def_cfa_register %rbp
	movq	32(%rdi), %rax
	popq	%rbp
	retq
	.cfi_endproc

	.globl	__ZN68_$LT$libc..unix..bsd..apple..aiocb$u20$as$u20$core..clone..Clone$GT$5clone17h34c1fe7ab3bc882cE
	.p2align	4, 0x90
__ZN68_$LT$libc..unix..bsd..apple..aiocb$u20$as$u20$core..clone..Clone$GT$5clone17h34c1fe7ab3bc882cE:
	.cfi_startproc
	pushq	%rbp
	.cfi_def_cfa_offset 16
	.cfi_offset %rbp, -16
	movq	%rsp, %rbp
	.cfi_def_cfa_register %rbp
	movq	%rdi, %rax
	vmovups	(%rsi), %ymm0
	vmovups	32(%rsi), %ymm1
	vmovups	48(%rsi), %ymm2
	vmovups	%ymm2, 48(%rdi)
	vmovups	%ymm1, 32(%rdi)
	vmovups	%ymm0, (%rdi)
	popq	%rbp
	vzeroupper
	retq
	.cfi_endproc

	.globl	__ZN69_$LT$libc..unix..bsd..apple..glob_t$u20$as$u20$core..clone..Clone$GT$5clone17h7d714f2c4dfa8be7E
	.p2align	4, 0x90
__ZN69_$LT$libc..unix..bsd..apple..glob_t$u20$as$u20$core..clone..Clone$GT$5clone17h7d714f2c4dfa8be7E:
	.cfi_startproc
	pushq	%rbp
	.cfi_def_cfa_offset 16
	.cfi_offset %rbp, -16
	movq	%rsp, %rbp
	.cfi_def_cfa_register %rbp
	movq	%rdi, %rax
	vmovups	(%rsi), %ymm0
	vmovups	32(%rsi), %ymm1
	vmovups	56(%rsi), %ymm2
	vmovups	%ymm2, 56(%rdi)
	vmovups	%ymm1, 32(%rdi)
	vmovups	%ymm0, (%rdi)
	popq	%rbp
	vzeroupper
	retq
	.cfi_endproc

	.globl	__ZN72_$LT$libc..unix..bsd..apple..siginfo_t$u20$as$u20$core..clone..Clone$GT$5clone17h0679493933b128b3E
	.p2align	4, 0x90
__ZN72_$LT$libc..unix..bsd..apple..siginfo_t$u20$as$u20$core..clone..Clone$GT$5clone17h0679493933b128b3E:
	.cfi_startproc
	pushq	%rbp
	.cfi_def_cfa_offset 16
	.cfi_offset %rbp, -16
	movq	%rsp, %rbp
	.cfi_def_cfa_register %rbp
	movq	%rdi, %rax
	movq	96(%rsi), %rcx
	movq	%rcx, 96(%rdi)
	vmovups	(%rsi), %ymm0
	vmovups	32(%rsi), %ymm1
	vmovups	64(%rsi), %ymm2
	vmovups	%ymm2, 64(%rdi)
	vmovups	%ymm1, 32(%rdi)
	vmovups	%ymm0, (%rdi)
	popq	%rbp
	vzeroupper
	retq
	.cfi_endproc

	.globl	__ZN72_$LT$libc..unix..bsd..apple..sigaction$u20$as$u20$core..clone..Clone$GT$5clone17h41b46c9fdea2b234E
	.p2align	4, 0x90
__ZN72_$LT$libc..unix..bsd..apple..sigaction$u20$as$u20$core..clone..Clone$GT$5clone17h41b46c9fdea2b234E:
	.cfi_startproc
	pushq	%rbp
	.cfi_def_cfa_offset 16
	.cfi_offset %rbp, -16
	movq	%rsp, %rbp
	.cfi_def_cfa_register %rbp
	movq	%rdi, %rax
	vmovups	(%rsi), %xmm0
	vmovups	%xmm0, (%rdi)
	popq	%rbp
	retq
	.cfi_endproc

	.globl	__ZN68_$LT$libc..unix..bsd..apple..dqblk$u20$as$u20$core..clone..Clone$GT$5clone17h6f20560a331f60a9E
	.p2align	4, 0x90
__ZN68_$LT$libc..unix..bsd..apple..dqblk$u20$as$u20$core..clone..Clone$GT$5clone17h6f20560a331f60a9E:
	.cfi_startproc
	pushq	%rbp
	.cfi_def_cfa_offset 16
	.cfi_offset %rbp, -16
	movq	%rsp, %rbp
	.cfi_def_cfa_register %rbp
	movq	%rdi, %rax
	vmovups	(%rsi), %ymm0
	vmovups	32(%rsi), %ymm1
	vmovups	%ymm1, 32(%rdi)
	vmovups	%ymm0, (%rdi)
	popq	%rbp
	vzeroupper
	retq
	.cfi_endproc

	.globl	__ZN72_$LT$libc..unix..bsd..apple..if_msghdr$u20$as$u20$core..clone..Clone$GT$5clone17h4844cb3d6d995e10E
	.p2align	4, 0x90
__ZN72_$LT$libc..unix..bsd..apple..if_msghdr$u20$as$u20$core..clone..Clone$GT$5clone17h4844cb3d6d995e10E:
	.cfi_startproc
	pushq	%rbp
	.cfi_def_cfa_offset 16
	.cfi_offset %rbp, -16
	movq	%rsp, %rbp
	.cfi_def_cfa_register %rbp
	movq	%rdi, %rax
	vmovups	(%rsi), %ymm0
	vmovups	32(%rsi), %ymm1
	vmovups	64(%rsi), %ymm2
	vmovups	80(%rsi), %ymm3
	vmovups	%ymm3, 80(%rdi)
	vmovups	%ymm2, 64(%rdi)
	vmovups	%ymm1, 32(%rdi)
	vmovups	%ymm0, (%rdi)
	popq	%rbp
	vzeroupper
	retq
	.cfi_endproc

	.globl	__ZN68_$LT$libc..unix..bsd..apple..lconv$u20$as$u20$core..clone..Clone$GT$5clone17h5a16677d2d0f0483E
	.p2align	4, 0x90
__ZN68_$LT$libc..unix..bsd..apple..lconv$u20$as$u20$core..clone..Clone$GT$5clone17h5a16677d2d0f0483E:
	.cfi_startproc
	pushq	%rbp
	.cfi_def_cfa_offset 16
	.cfi_offset %rbp, -16
	movq	%rsp, %rbp
	.cfi_def_cfa_register %rbp
	movq	%rdi, %rax
	vmovups	(%rsi), %ymm0
	vmovups	32(%rsi), %ymm1
	vmovups	64(%rsi), %ymm2
	vmovups	%ymm2, 64(%rdi)
	vmovups	%ymm1, 32(%rdi)
	vmovups	%ymm0, (%rdi)
	popq	%rbp
	vzeroupper
	retq
	.cfi_endproc

	.globl	__ZN79_$LT$libc..unix..bsd..apple..proc_taskallinfo$u20$as$u20$core..clone..Clone$GT$5clone17hf37775141382aeb9E
	.p2align	4, 0x90
__ZN79_$LT$libc..unix..bsd..apple..proc_taskallinfo$u20$as$u20$core..clone..Clone$GT$5clone17hf37775141382aeb9E:
	.cfi_startproc
	pushq	%rbp
	.cfi_def_cfa_offset 16
	.cfi_offset %rbp, -16
	movq	%rsp, %rbp
	.cfi_def_cfa_register %rbp
	movq	%rdi, %rax
	movq	224(%rsi), %rcx
	movq	%rcx, 224(%rdi)
	vmovups	192(%rsi), %ymm0
	vmovups	%ymm0, 192(%rdi)
	vmovups	160(%rsi), %ymm0
	vmovups	%ymm0, 160(%rdi)
	vmovups	128(%rsi), %ymm0
	vmovups	%ymm0, 128(%rdi)
	vmovups	(%rsi), %ymm0
	vmovups	32(%rsi), %ymm1
	vmovups	64(%rsi), %ymm2
	vmovups	96(%rsi), %ymm3
	vmovups	%ymm3, 96(%rdi)
	vmovups	%ymm2, 64(%rdi)
	vmovups	%ymm1, 32(%rdi)
	vmovups	%ymm0, (%rdi)
	popq	%rbp
	vzeroupper
	retq
	.cfi_endproc

	.globl	__ZN69_$LT$libc..unix..bsd..apple..xucred$u20$as$u20$core..clone..Clone$GT$5clone17ha93c86c51600a3a1E
	.p2align	4, 0x90
__ZN69_$LT$libc..unix..bsd..apple..xucred$u20$as$u20$core..clone..Clone$GT$5clone17ha93c86c51600a3a1E:
	.cfi_startproc
	pushq	%rbp
	.cfi_def_cfa_offset 16
	.cfi_offset %rbp, -16
	movq	%rsp, %rbp
	.cfi_def_cfa_register %rbp
	movq	%rdi, %rax
	vmovups	(%rsi), %ymm0
	vmovups	32(%rsi), %ymm1
	vmovups	44(%rsi), %ymm2
	vmovups	%ymm2, 44(%rdi)
	vmovups	%ymm1, 32(%rdi)
	vmovups	%ymm0, (%rdi)
	popq	%rbp
	vzeroupper
	retq
	.cfi_endproc

	.globl	__ZN74_$LT$libc..unix..bsd..apple..mach_header$u20$as$u20$core..clone..Clone$GT$5clone17hbc861c337720d8afE
	.p2align	4, 0x90
__ZN74_$LT$libc..unix..bsd..apple..mach_header$u20$as$u20$core..clone..Clone$GT$5clone17hbc861c337720d8afE:
	.cfi_startproc
	pushq	%rbp
	.cfi_def_cfa_offset 16
	.cfi_offset %rbp, -16
	movq	%rsp, %rbp
	.cfi_def_cfa_register %rbp
	movq	%rdi, %rax
	vmovups	(%rsi), %xmm0
	vmovups	12(%rsi), %xmm1
	vmovups	%xmm1, 12(%rdi)
	vmovups	%xmm0, (%rdi)
	popq	%rbp
	retq
	.cfi_endproc

	.globl	__ZN78_$LT$libc..unix..bsd..apple..segment_command$u20$as$u20$core..clone..Clone$GT$5clone17ha2ef151148d9dcaeE
	.p2align	4, 0x90
__ZN78_$LT$libc..unix..bsd..apple..segment_command$u20$as$u20$core..clone..Clone$GT$5clone17ha2ef151148d9dcaeE:
	.cfi_startproc
	pushq	%rbp
	.cfi_def_cfa_offset 16
	.cfi_offset %rbp, -16
	movq	%rsp, %rbp
	.cfi_def_cfa_register %rbp
	movq	%rdi, %rax
	vmovups	(%rsi), %ymm0
	vmovups	24(%rsi), %ymm1
	vmovups	%ymm1, 24(%rdi)
	vmovups	%ymm0, (%rdi)
	popq	%rbp
	vzeroupper
	retq
	.cfi_endproc

	.globl	__ZN74_$LT$libc..unix..bsd..apple..sockaddr_dl$u20$as$u20$core..clone..Clone$GT$5clone17hd04e10830803bdcaE
	.p2align	4, 0x90
__ZN74_$LT$libc..unix..bsd..apple..sockaddr_dl$u20$as$u20$core..clone..Clone$GT$5clone17hd04e10830803bdcaE:
	.cfi_startproc
	pushq	%rbp
	.cfi_def_cfa_offset 16
	.cfi_offset %rbp, -16
	movq	%rsp, %rbp
	.cfi_def_cfa_register %rbp
	movq	%rdi, %rax
	movl	16(%rsi), %ecx
	movl	%ecx, 16(%rdi)
	vmovups	(%rsi), %xmm0
	vmovups	%xmm0, (%rdi)
	popq	%rbp
	retq
	.cfi_endproc

	.globl	__ZN75_$LT$libc..unix..bsd..apple..sockaddr_ctl$u20$as$u20$core..clone..Clone$GT$5clone17hf3fa0107b11342a9E
	.p2align	4, 0x90
__ZN75_$LT$libc..unix..bsd..apple..sockaddr_ctl$u20$as$u20$core..clone..Clone$GT$5clone17hf3fa0107b11342a9E:
	.cfi_startproc
	pushq	%rbp
	.cfi_def_cfa_offset 16
	.cfi_offset %rbp, -16
	movq	%rsp, %rbp
	.cfi_def_cfa_register %rbp
	movq	%rdi, %rax
	vmovups	(%rsi), %ymm0
	vmovups	%ymm0, (%rdi)
	popq	%rbp
	vzeroupper
	retq
	.cfi_endproc

	.globl	__ZN71_$LT$libc..unix..bsd..apple..ipc_perm$u20$as$u20$core..clone..Clone$GT$5clone17h85548db96033c1efE
	.p2align	4, 0x90
__ZN71_$LT$libc..unix..bsd..apple..ipc_perm$u20$as$u20$core..clone..Clone$GT$5clone17h85548db96033c1efE:
	.cfi_startproc
	pushq	%rbp
	.cfi_def_cfa_offset 16
	.cfi_offset %rbp, -16
	movq	%rsp, %rbp
	.cfi_def_cfa_register %rbp
	movq	%rdi, %rax
	movq	16(%rsi), %rcx
	movq	%rcx, 16(%rdi)
	vmovups	(%rsi), %xmm0
	vmovups	%xmm0, (%rdi)
	popq	%rbp
	retq
	.cfi_endproc

	.globl	__ZN69_$LT$libc..unix..bsd..apple..sembuf$u20$as$u20$core..clone..Clone$GT$5clone17he5eaf6577a07962fE
	.p2align	4, 0x90
__ZN69_$LT$libc..unix..bsd..apple..sembuf$u20$as$u20$core..clone..Clone$GT$5clone17he5eaf6577a07962fE:
	.cfi_startproc
	pushq	%rbp
	.cfi_def_cfa_offset 16
	.cfi_offset %rbp, -16
	movq	%rsp, %rbp
	.cfi_def_cfa_register %rbp
	movl	(%rdi), %ecx
	movzwl	4(%rdi), %eax
	shlq	$32, %rax
	orq	%rcx, %rax
	popq	%rbp
	retq
	.cfi_endproc

	.globl	__ZN70_$LT$libc..unix..bsd..apple..in_addr$u20$as$u20$core..clone..Clone$GT$5clone17h436f612df79fcfe4E
	.p2align	4, 0x90
__ZN70_$LT$libc..unix..bsd..apple..in_addr$u20$as$u20$core..clone..Clone$GT$5clone17h436f612df79fcfe4E:
	.cfi_startproc
	pushq	%rbp
	.cfi_def_cfa_offset 16
	.cfi_offset %rbp, -16
	movq	%rsp, %rbp
	.cfi_def_cfa_register %rbp
	movl	(%rdi), %eax
	popq	%rbp
	retq
	.cfi_endproc

	.globl	__ZN77_$LT$libc..unix..bsd..apple..sa_endpoints_t$u20$as$u20$core..clone..Clone$GT$5clone17h24ad1ed125ad55bfE
	.p2align	4, 0x90
__ZN77_$LT$libc..unix..bsd..apple..sa_endpoints_t$u20$as$u20$core..clone..Clone$GT$5clone17h24ad1ed125ad55bfE:
	.cfi_startproc
	pushq	%rbp
	.cfi_def_cfa_offset 16
	.cfi_offset %rbp, -16
	movq	%rsp, %rbp
	.cfi_def_cfa_register %rbp
	movq	%rdi, %rax
	movq	32(%rsi), %rcx
	movq	%rcx, 32(%rdi)
	vmovups	(%rsi), %ymm0
	vmovups	%ymm0, (%rdi)
	popq	%rbp
	vzeroupper
	retq
	.cfi_endproc

	.globl	__ZN68_$LT$libc..unix..bsd..apple..timex$u20$as$u20$core..clone..Clone$GT$5clone17h9e27d6cdf9d56907E
	.p2align	4, 0x90
__ZN68_$LT$libc..unix..bsd..apple..timex$u20$as$u20$core..clone..Clone$GT$5clone17h9e27d6cdf9d56907E:
	.cfi_startproc
	pushq	%rbp
	.cfi_def_cfa_offset 16
	.cfi_offset %rbp, -16
	movq	%rsp, %rbp
	.cfi_def_cfa_register %rbp
	movq	%rdi, %rax
	movq	128(%rsi), %rcx
	movq	%rcx, 128(%rdi)
	vmovups	(%rsi), %ymm0
	vmovups	32(%rsi), %ymm1
	vmovups	64(%rsi), %ymm2
	vmovups	96(%rsi), %ymm3
	vmovups	%ymm3, 96(%rdi)
	vmovups	%ymm2, 64(%rdi)
	vmovups	%ymm1, 32(%rdi)
	vmovups	%ymm0, (%rdi)
	popq	%rbp
	vzeroupper
	retq
	.cfi_endproc

	.globl	__ZN69_$LT$libc..unix..bsd..apple..kevent$u20$as$u20$core..clone..Clone$GT$5clone17h6855de1b3d4c6a18E
	.p2align	4, 0x90
__ZN69_$LT$libc..unix..bsd..apple..kevent$u20$as$u20$core..clone..Clone$GT$5clone17h6855de1b3d4c6a18E:
	.cfi_startproc
	pushq	%rbp
	.cfi_def_cfa_offset 16
	.cfi_offset %rbp, -16
	movq	%rsp, %rbp
	.cfi_def_cfa_register %rbp
	movq	%rdi, %rax
	vmovups	(%rsi), %ymm0
	vmovups	%ymm0, (%rdi)
	popq	%rbp
	vzeroupper
	retq
	.cfi_endproc

	.globl	__ZN71_$LT$libc..unix..bsd..apple..semid_ds$u20$as$u20$core..clone..Clone$GT$5clone17hab7ce04e273a35e0E
	.p2align	4, 0x90
__ZN71_$LT$libc..unix..bsd..apple..semid_ds$u20$as$u20$core..clone..Clone$GT$5clone17hab7ce04e273a35e0E:
	.cfi_startproc
	pushq	%rbp
	.cfi_def_cfa_offset 16
	.cfi_offset %rbp, -16
	movq	%rsp, %rbp
	.cfi_def_cfa_register %rbp
	movq	%rdi, %rax
	movq	64(%rsi), %rcx
	movq	%rcx, 64(%rdi)
	vmovups	(%rsi), %ymm0
	vmovups	32(%rsi), %ymm1
	vmovups	%ymm1, 32(%rdi)
	vmovups	%ymm0, (%rdi)
	popq	%rbp
	vzeroupper
	retq
	.cfi_endproc

	.globl	__ZN78_$LT$libc..unix..bsd..apple..proc_threadinfo$u20$as$u20$core..clone..Clone$GT$5clone17h932672aaf24aad0cE
	.p2align	4, 0x90
__ZN78_$LT$libc..unix..bsd..apple..proc_threadinfo$u20$as$u20$core..clone..Clone$GT$5clone17h932672aaf24aad0cE:
	.cfi_startproc
	pushq	%rbp
	.cfi_def_cfa_offset 16
	.cfi_offset %rbp, -16
	movq	%rsp, %rbp
	.cfi_def_cfa_register %rbp
	movq	%rdi, %rax
	vmovups	(%rsi), %ymm0
	vmovups	32(%rsi), %ymm1
	vmovups	64(%rsi), %ymm2
	vmovups	80(%rsi), %ymm3
	vmovups	%ymm3, 80(%rdi)
	vmovups	%ymm2, 64(%rdi)
	vmovups	%ymm1, 32(%rdi)
	vmovups	%ymm0, (%rdi)
	popq	%rbp
	vzeroupper
	retq
	.cfi_endproc

	.globl	__ZN69_$LT$libc..unix..bsd..apple..statfs$u20$as$u20$core..clone..Clone$GT$5clone17hb8a47b4d40c5172aE
	.p2align	4, 0x90
__ZN69_$LT$libc..unix..bsd..apple..statfs$u20$as$u20$core..clone..Clone$GT$5clone17hb8a47b4d40c5172aE:
	.cfi_startproc
	pushq	%rbp
	.cfi_def_cfa_offset 16
	.cfi_offset %rbp, -16
	movq	%rsp, %rbp
	.cfi_def_cfa_register %rbp
	pushq	%rbx
	pushq	%rax
	.cfi_offset %rbx, -24
	movq	%rdi, %rbx
	movl	$2168, %edx
	callq	_memcpy
	movq	%rbx, %rax
	addq	$8, %rsp
	popq	%rbx
	popq	%rbp
	retq
	.cfi_endproc

	.globl	__ZN69_$LT$libc..unix..bsd..apple..dirent$u20$as$u20$core..clone..Clone$GT$5clone17h2ed72129d7a39e59E
	.p2align	4, 0x90
__ZN69_$LT$libc..unix..bsd..apple..dirent$u20$as$u20$core..clone..Clone$GT$5clone17h2ed72129d7a39e59E:
	.cfi_startproc
	pushq	%rbp
	.cfi_def_cfa_offset 16
	.cfi_offset %rbp, -16
	movq	%rsp, %rbp
	.cfi_def_cfa_register %rbp
	pushq	%rbx
	pushq	%rax
	.cfi_offset %rbx, -24
	movq	%rdi, %rbx
	movl	$1048, %edx
	callq	_memcpy
	movq	%rbx, %rax
	addq	$8, %rsp
	popq	%rbx
	popq	%rbp
	retq
	.cfi_endproc

	.globl	__ZN79_$LT$libc..unix..bsd..apple..pthread_rwlock_t$u20$as$u20$core..clone..Clone$GT$5clone17h22b2ac4d30d8a9f0E
	.p2align	4, 0x90
__ZN79_$LT$libc..unix..bsd..apple..pthread_rwlock_t$u20$as$u20$core..clone..Clone$GT$5clone17h22b2ac4d30d8a9f0E:
	.cfi_startproc
	pushq	%rbp
	.cfi_def_cfa_offset 16
	.cfi_offset %rbp, -16
	movq	%rsp, %rbp
	.cfi_def_cfa_register %rbp
	movq	%rdi, %rax
	movq	192(%rsi), %rcx
	movq	%rcx, 192(%rdi)
	vmovups	160(%rsi), %ymm0
	vmovups	%ymm0, 160(%rdi)
	vmovups	128(%rsi), %ymm0
	vmovups	%ymm0, 128(%rdi)
	vmovups	(%rsi), %ymm0
	vmovups	32(%rsi), %ymm1
	vmovups	64(%rsi), %ymm2
	vmovups	96(%rsi), %ymm3
	vmovups	%ymm3, 96(%rdi)
	vmovups	%ymm2, 64(%rdi)
	vmovups	%ymm1, 32(%rdi)
	vmovups	%ymm0, (%rdi)
	popq	%rbp
	vzeroupper
	retq
	.cfi_endproc

	.globl	__ZN79_$LT$libc..unix..bsd..apple..sockaddr_storage$u20$as$u20$core..clone..Clone$GT$5clone17h8f20f76509d90940E
	.p2align	4, 0x90
__ZN79_$LT$libc..unix..bsd..apple..sockaddr_storage$u20$as$u20$core..clone..Clone$GT$5clone17h8f20f76509d90940E:
	.cfi_startproc
	pushq	%rbp
	.cfi_def_cfa_offset 16
	.cfi_offset %rbp, -16
	movq	%rsp, %rbp
	.cfi_def_cfa_register %rbp
	movq	%rdi, %rax
	vmovups	(%rsi), %ymm0
	vmovups	32(%rsi), %ymm1
	vmovups	64(%rsi), %ymm2
	vmovups	96(%rsi), %ymm3
	vmovups	%ymm3, 96(%rdi)
	vmovups	%ymm2, 64(%rdi)
	vmovups	%ymm1, 32(%rdi)
	vmovups	%ymm0, (%rdi)
	popq	%rbp
	vzeroupper
	retq
	.cfi_endproc

	.globl	__ZN68_$LT$libc..unix..bsd..apple..utmpx$u20$as$u20$core..clone..Clone$GT$5clone17h5cfd3d51497ce96bE
	.p2align	4, 0x90
__ZN68_$LT$libc..unix..bsd..apple..utmpx$u20$as$u20$core..clone..Clone$GT$5clone17h5cfd3d51497ce96bE:
	.cfi_startproc
	pushq	%rbp
	.cfi_def_cfa_offset 16
	.cfi_offset %rbp, -16
	movq	%rsp, %rbp
	.cfi_def_cfa_register %rbp
	pushq	%rbx
	pushq	%rax
	.cfi_offset %rbx, -24
	movq	%rdi, %rbx
	movl	$640, %edx
	callq	_memcpy
	movq	%rbx, %rax
	addq	$8, %rsp
	popq	%rbx
	popq	%rbp
	retq
	.cfi_endproc

	.globl	__ZN4libc4unix3bsd5apple16__DARWIN_ALIGN3217h49233a09cda6f889E
	.p2align	4, 0x90
__ZN4libc4unix3bsd5apple16__DARWIN_ALIGN3217h49233a09cda6f889E:
	.cfi_startproc
	movq	%rdi, %rax
	addq	$3, %rax
	jb	LBB49_2
	andq	$-4, %rax
	retq
LBB49_2:
	pushq	%rbp
	.cfi_def_cfa_offset 16
	.cfi_offset %rbp, -16
	movq	%rsp, %rbp
	.cfi_def_cfa_register %rbp
	leaq	_str.0(%rip), %rdi
	leaq	l___unnamed_1(%rip), %rdx
	movl	$28, %esi
	callq	__ZN4core9panicking5panic17h736ee47a631475c0E
	.cfi_endproc

	.globl	__ZN75_$LT$libc..unix..bsd..apple..b64..if_data$u20$as$u20$core..clone..Clone$GT$5clone17h5999c46ea7c17ec5E
	.p2align	4, 0x90
__ZN75_$LT$libc..unix..bsd..apple..b64..if_data$u20$as$u20$core..clone..Clone$GT$5clone17h5999c46ea7c17ec5E:
	.cfi_startproc
	pushq	%rbp
	.cfi_def_cfa_offset 16
	.cfi_offset %rbp, -16
	movq	%rsp, %rbp
	.cfi_def_cfa_register %rbp
	movq	%rdi, %rax
	vmovups	(%rsi), %ymm0
	vmovups	32(%rsi), %ymm1
	vmovups	64(%rsi), %ymm2
	vmovups	%ymm2, 64(%rdi)
	vmovups	%ymm1, 32(%rdi)
	vmovups	%ymm0, (%rdi)
	popq	%rbp
	vzeroupper
	retq
	.cfi_endproc

	.globl	__ZN87_$LT$libc..unix..bsd..apple..b64..__darwin_mcontext64$u20$as$u20$core..clone..Clone$GT$5clone17h64a2aa4377fdd5e4E
	.p2align	4, 0x90
__ZN87_$LT$libc..unix..bsd..apple..b64..__darwin_mcontext64$u20$as$u20$core..clone..Clone$GT$5clone17h64a2aa4377fdd5e4E:
	.cfi_startproc
	pushq	%rbp
	.cfi_def_cfa_offset 16
	.cfi_offset %rbp, -16
	movq	%rsp, %rbp
	.cfi_def_cfa_register %rbp
	pushq	%rbx
	pushq	%rax
	.cfi_offset %rbx, -24
	movq	%rdi, %rbx
	movl	$712, %edx
	callq	_memcpy
	movq	%rbx, %rax
	addq	$8, %rsp
	popq	%rbx
	popq	%rbp
	retq
	.cfi_endproc

	.globl	__ZN95_$LT$libc..unix..bsd..apple..b64..__darwin_x86_thread_state64$u20$as$u20$core..clone..Clone$GT$5clone17h01e018b4c7552fcbE
	.p2align	4, 0x90
__ZN95_$LT$libc..unix..bsd..apple..b64..__darwin_x86_thread_state64$u20$as$u20$core..clone..Clone$GT$5clone17h01e018b4c7552fcbE:
	.cfi_startproc
	pushq	%rbp
	.cfi_def_cfa_offset 16
	.cfi_offset %rbp, -16
	movq	%rsp, %rbp
	.cfi_def_cfa_register %rbp
	movq	%rdi, %rax
	movq	160(%rsi), %rcx
	movq	%rcx, 160(%rdi)
	vmovups	128(%rsi), %ymm0
	vmovups	%ymm0, 128(%rdi)
	vmovups	(%rsi), %ymm0
	vmovups	32(%rsi), %ymm1
	vmovups	64(%rsi), %ymm2
	vmovups	96(%rsi), %ymm3
	vmovups	%ymm3, 96(%rdi)
	vmovups	%ymm2, 64(%rdi)
	vmovups	%ymm1, 32(%rdi)
	vmovups	%ymm0, (%rdi)
	popq	%rbp
	vzeroupper
	retq
	.cfi_endproc

	.globl	__ZN94_$LT$libc..unix..bsd..apple..b64..__darwin_x86_float_state64$u20$as$u20$core..clone..Clone$GT$5clone17h4b69d7df4399fd97E
	.p2align	4, 0x90
__ZN94_$LT$libc..unix..bsd..apple..b64..__darwin_x86_float_state64$u20$as$u20$core..clone..Clone$GT$5clone17h4b69d7df4399fd97E:
	.cfi_startproc
	pushq	%rbp
	.cfi_def_cfa_offset 16
	.cfi_offset %rbp, -16
	movq	%rsp, %rbp
	.cfi_def_cfa_register %rbp
	pushq	%rbx
	pushq	%rax
	.cfi_offset %rbx, -24
	movq	%rdi, %rbx
	movl	$524, %edx
	callq	_memcpy
	movq	%rbx, %rax
	addq	$8, %rsp
	popq	%rbx
	popq	%rbp
	retq
	.cfi_endproc

	.globl	__ZN86_$LT$libc..unix..bsd..apple..b64..align..max_align_t$u20$as$u20$core..clone..Clone$GT$5clone17h14ca53810b93b320E
	.p2align	4, 0x90
__ZN86_$LT$libc..unix..bsd..apple..b64..align..max_align_t$u20$as$u20$core..clone..Clone$GT$5clone17h14ca53810b93b320E:
	.cfi_startproc
	pushq	%rbp
	.cfi_def_cfa_offset 16
	.cfi_offset %rbp, -16
	movq	%rsp, %rbp
	.cfi_def_cfa_register %rbp
	movq	%rdi, %rax
	vmovaps	(%rsi), %xmm0
	vmovaps	%xmm0, (%rdi)
	popq	%rbp
	retq
	.cfi_endproc

	.globl	__ZN66_$LT$libc..unix..align..in6_addr$u20$as$u20$core..clone..Clone$GT$5clone17h5c109edb1897ba1fE
	.p2align	4, 0x90
__ZN66_$LT$libc..unix..align..in6_addr$u20$as$u20$core..clone..Clone$GT$5clone17h5c109edb1897ba1fE:
	.cfi_startproc
	pushq	%rbp
	.cfi_def_cfa_offset 16
	.cfi_offset %rbp, -16
	movq	%rsp, %rbp
	.cfi_def_cfa_register %rbp
	movq	%rdi, %rax
	vmovups	(%rsi), %xmm0
	vmovups	%xmm0, (%rdi)
	popq	%rbp
	retq
	.cfi_endproc

	.section	__TEXT,__const
l___unnamed_2:
	.ascii	"/Users/yingyuhang/.cargo/registry/src/github.com-1ecc6299db9ec823/libc-0.2.71/src/unix/bsd/apple/mod.rs"

	.section	__DATA,__const
	.p2align	3
l___unnamed_1:
	.quad	l___unnamed_2
	.asciz	"g\000\000\000\000\000\000\000v\f\000\000\r\000\000"

	.section	__TEXT,__const
	.p2align	4
_str.0:
	.ascii	"attempt to add with overflow"


	.globl	__ZN77_$LT$libc..unix..bsd..apple..sockaddr_inarp$u20$as$u20$core..clone..Clone$GT$5clone17hd0bc3337b7724d24E
.set __ZN77_$LT$libc..unix..bsd..apple..sockaddr_inarp$u20$as$u20$core..clone..Clone$GT$5clone17hd0bc3337b7724d24E, __ZN66_$LT$libc..unix..align..in6_addr$u20$as$u20$core..clone..Clone$GT$5clone17h5c109edb1897ba1fE
	.globl	__ZN85_$LT$libc..unix..bsd..apple..b64..__darwin_mmst_reg$u20$as$u20$core..clone..Clone$GT$5clone17h30d09a8e3d406eb8E
.set __ZN85_$LT$libc..unix..bsd..apple..b64..__darwin_mmst_reg$u20$as$u20$core..clone..Clone$GT$5clone17h30d09a8e3d406eb8E, __ZN64_$LT$libc..unix..bsd..sockaddr$u20$as$u20$core..clone..Clone$GT$5clone17h7077082112ef7223E
	.globl	__ZN84_$LT$libc..unix..bsd..apple..b64..__darwin_xmm_reg$u20$as$u20$core..clone..Clone$GT$5clone17h9f36987eb49e2e36E
.set __ZN84_$LT$libc..unix..bsd..apple..b64..__darwin_xmm_reg$u20$as$u20$core..clone..Clone$GT$5clone17h9f36987eb49e2e36E, __ZN64_$LT$libc..unix..bsd..sockaddr$u20$as$u20$core..clone..Clone$GT$5clone17h7077082112ef7223E
	.globl	__ZN74_$LT$libc..unix..bsd..apple..sockaddr_in$u20$as$u20$core..clone..Clone$GT$5clone17h6d11739a1424d1e2E
.set __ZN74_$LT$libc..unix..bsd..apple..sockaddr_in$u20$as$u20$core..clone..Clone$GT$5clone17h6d11739a1424d1e2E, __ZN66_$LT$libc..unix..align..in6_addr$u20$as$u20$core..clone..Clone$GT$5clone17h5c109edb1897ba1fE
	.globl	__ZN62_$LT$libc..unix..bsd..fsid_t$u20$as$u20$core..clone..Clone$GT$5clone17h643a964414700ca3E
.set __ZN62_$LT$libc..unix..bsd..fsid_t$u20$as$u20$core..clone..Clone$GT$5clone17h643a964414700ca3E, __ZN57_$LT$libc..unix..pollfd$u20$as$u20$core..clone..Clone$GT$5clone17h5b32eb1b11918542E
	.globl	__ZN70_$LT$libc..unix..bsd..apple..ip_mreq$u20$as$u20$core..clone..Clone$GT$5clone17h7b729ea29831b1acE
.set __ZN70_$LT$libc..unix..bsd..apple..ip_mreq$u20$as$u20$core..clone..Clone$GT$5clone17h7b729ea29831b1acE, __ZN57_$LT$libc..unix..pollfd$u20$as$u20$core..clone..Clone$GT$5clone17h5b32eb1b11918542E
	.globl	__ZN69_$LT$libc..unix..bsd..apple..arphdr$u20$as$u20$core..clone..Clone$GT$5clone17h7863209721ae73ebE
.set __ZN69_$LT$libc..unix..bsd..apple..arphdr$u20$as$u20$core..clone..Clone$GT$5clone17h7863209721ae73ebE, __ZN58_$LT$libc..unix..winsize$u20$as$u20$core..clone..Clone$GT$5clone17h071e891a27aefff3E
	.globl	__ZN68_$LT$libc..unix..bsd..apple..semun$u20$as$u20$core..clone..Clone$GT$5clone17hcb8737167127621cE
.set __ZN68_$LT$libc..unix..bsd..apple..semun$u20$as$u20$core..clone..Clone$GT$5clone17hcb8737167127621cE, __ZN57_$LT$libc..unix..sigval$u20$as$u20$core..clone..Clone$GT$5clone17h446eb838927ccaa7E
	.globl	__ZN58_$LT$libc..unix..hostent$u20$as$u20$core..clone..Clone$GT$5clone17hb90c20bba00ef210E
.set __ZN58_$LT$libc..unix..hostent$u20$as$u20$core..clone..Clone$GT$5clone17hb90c20bba00ef210E, __ZN54_$LT$libc..unix..tms$u20$as$u20$core..clone..Clone$GT$5clone17hacd6eb7cc2aa0c6fE
	.globl	__ZN60_$LT$libc..unix..itimerval$u20$as$u20$core..clone..Clone$GT$5clone17h63284055099f7a4cE
.set __ZN60_$LT$libc..unix..itimerval$u20$as$u20$core..clone..Clone$GT$5clone17h63284055099f7a4cE, __ZN54_$LT$libc..unix..tms$u20$as$u20$core..clone..Clone$GT$5clone17hacd6eb7cc2aa0c6fE
	.globl	__ZN56_$LT$libc..unix..group$u20$as$u20$core..clone..Clone$GT$5clone17h224aa7211089a549E
.set __ZN56_$LT$libc..unix..group$u20$as$u20$core..clone..Clone$GT$5clone17h224aa7211089a549E, __ZN54_$LT$libc..unix..tms$u20$as$u20$core..clone..Clone$GT$5clone17hacd6eb7cc2aa0c6fE
	.globl	__ZN58_$LT$libc..unix..servent$u20$as$u20$core..clone..Clone$GT$5clone17h646873b17d28c30eE
.set __ZN58_$LT$libc..unix..servent$u20$as$u20$core..clone..Clone$GT$5clone17h646873b17d28c30eE, __ZN54_$LT$libc..unix..tms$u20$as$u20$core..clone..Clone$GT$5clone17hacd6eb7cc2aa0c6fE
	.globl	__ZN63_$LT$libc..unix..bsd..ifaddrs$u20$as$u20$core..clone..Clone$GT$5clone17hd91f2046f051c979E
.set __ZN63_$LT$libc..unix..bsd..ifaddrs$u20$as$u20$core..clone..Clone$GT$5clone17hd91f2046f051c979E, __ZN58_$LT$libc..unix..bsd..tm$u20$as$u20$core..clone..Clone$GT$5clone17h03e005086eefa201E
	.globl	__ZN63_$LT$libc..unix..bsd..regex_t$u20$as$u20$core..clone..Clone$GT$5clone17h3f4cf5d976c58b6aE
.set __ZN63_$LT$libc..unix..bsd..regex_t$u20$as$u20$core..clone..Clone$GT$5clone17h3f4cf5d976c58b6aE, __ZN54_$LT$libc..unix..tms$u20$as$u20$core..clone..Clone$GT$5clone17hacd6eb7cc2aa0c6fE
	.globl	__ZN71_$LT$libc..unix..bsd..apple..addrinfo$u20$as$u20$core..clone..Clone$GT$5clone17ha6019b16ed6694a0E
.set __ZN71_$LT$libc..unix..bsd..apple..addrinfo$u20$as$u20$core..clone..Clone$GT$5clone17ha6019b16ed6694a0E, __ZN62_$LT$libc..unix..bsd..msghdr$u20$as$u20$core..clone..Clone$GT$5clone17h527eb4e0f6876a4fE
	.globl	__ZN67_$LT$libc..unix..bsd..apple..stat$u20$as$u20$core..clone..Clone$GT$5clone17he7d77fd6a0bacdfeE
.set __ZN67_$LT$libc..unix..bsd..apple..stat$u20$as$u20$core..clone..Clone$GT$5clone17he7d77fd6a0bacdfeE, __ZN57_$LT$libc..unix..rusage$u20$as$u20$core..clone..Clone$GT$5clone17h9d726070d2377446E
	.globl	__ZN82_$LT$libc..unix..bsd..apple..pthread_mutexattr_t$u20$as$u20$core..clone..Clone$GT$5clone17h2ebc46dd789c30ddE
.set __ZN82_$LT$libc..unix..bsd..apple..pthread_mutexattr_t$u20$as$u20$core..clone..Clone$GT$5clone17h2ebc46dd789c30ddE, __ZN72_$LT$libc..unix..bsd..apple..sigaction$u20$as$u20$core..clone..Clone$GT$5clone17h41b46c9fdea2b234E
	.globl	__ZN83_$LT$libc..unix..bsd..apple..pthread_rwlockattr_t$u20$as$u20$core..clone..Clone$GT$5clone17h99716af83515219cE
.set __ZN83_$LT$libc..unix..bsd..apple..pthread_rwlockattr_t$u20$as$u20$core..clone..Clone$GT$5clone17h99716af83515219cE, __ZN59_$LT$libc..unix..protoent$u20$as$u20$core..clone..Clone$GT$5clone17h469306794ed1f9dcE
	.globl	__ZN81_$LT$libc..unix..bsd..apple..pthread_condattr_t$u20$as$u20$core..clone..Clone$GT$5clone17hcddf482387e8cbe9E
.set __ZN81_$LT$libc..unix..bsd..apple..pthread_condattr_t$u20$as$u20$core..clone..Clone$GT$5clone17hcddf482387e8cbe9E, __ZN72_$LT$libc..unix..bsd..apple..sigaction$u20$as$u20$core..clone..Clone$GT$5clone17h41b46c9fdea2b234E
	.globl	__ZN70_$LT$libc..unix..bsd..apple..stack_t$u20$as$u20$core..clone..Clone$GT$5clone17hd479bd4ad8a64ce0E
.set __ZN70_$LT$libc..unix..bsd..apple..stack_t$u20$as$u20$core..clone..Clone$GT$5clone17hd479bd4ad8a64ce0E, __ZN59_$LT$libc..unix..protoent$u20$as$u20$core..clone..Clone$GT$5clone17h469306794ed1f9dcE
	.globl	__ZN71_$LT$libc..unix..bsd..apple..fstore_t$u20$as$u20$core..clone..Clone$GT$5clone17h1796b53f9432c7cdE
.set __ZN71_$LT$libc..unix..bsd..apple..fstore_t$u20$as$u20$core..clone..Clone$GT$5clone17h1796b53f9432c7cdE, __ZN54_$LT$libc..unix..tms$u20$as$u20$core..clone..Clone$GT$5clone17hacd6eb7cc2aa0c6fE
	.globl	__ZN70_$LT$libc..unix..bsd..apple..Dl_info$u20$as$u20$core..clone..Clone$GT$5clone17h0db2aa1ac5c25bc2E
.set __ZN70_$LT$libc..unix..bsd..apple..Dl_info$u20$as$u20$core..clone..Clone$GT$5clone17h0db2aa1ac5c25bc2E, __ZN54_$LT$libc..unix..tms$u20$as$u20$core..clone..Clone$GT$5clone17hacd6eb7cc2aa0c6fE
	.globl	__ZN73_$LT$libc..unix..bsd..apple..kevent64_s$u20$as$u20$core..clone..Clone$GT$5clone17h9db0bfe3fb3d07f0E
.set __ZN73_$LT$libc..unix..bsd..apple..kevent64_s$u20$as$u20$core..clone..Clone$GT$5clone17h9db0bfe3fb3d07f0E, __ZN62_$LT$libc..unix..bsd..msghdr$u20$as$u20$core..clone..Clone$GT$5clone17h527eb4e0f6876a4fE
	.globl	__ZN70_$LT$libc..unix..bsd..apple..statvfs$u20$as$u20$core..clone..Clone$GT$5clone17hfabe43f19dfbd636E
.set __ZN70_$LT$libc..unix..bsd..apple..statvfs$u20$as$u20$core..clone..Clone$GT$5clone17hfabe43f19dfbd636E, __ZN68_$LT$libc..unix..bsd..apple..dqblk$u20$as$u20$core..clone..Clone$GT$5clone17h6f20560a331f60a9E
	.globl	__ZN70_$LT$libc..unix..bsd..apple..termios$u20$as$u20$core..clone..Clone$GT$5clone17h813d0ce3a1cfe8ebE
.set __ZN70_$LT$libc..unix..bsd..apple..termios$u20$as$u20$core..clone..Clone$GT$5clone17h813d0ce3a1cfe8ebE, __ZN62_$LT$libc..unix..bsd..passwd$u20$as$u20$core..clone..Clone$GT$5clone17h3b8f373260f2a297E
	.globl	__ZN68_$LT$libc..unix..bsd..apple..flock$u20$as$u20$core..clone..Clone$GT$5clone17hab1cc29bc1091716E
.set __ZN68_$LT$libc..unix..bsd..apple..flock$u20$as$u20$core..clone..Clone$GT$5clone17hab1cc29bc1091716E, __ZN59_$LT$libc..unix..protoent$u20$as$u20$core..clone..Clone$GT$5clone17h469306794ed1f9dcE
	.globl	__ZN70_$LT$libc..unix..bsd..apple..sf_hdtr$u20$as$u20$core..clone..Clone$GT$5clone17h3bc05f8386221d4cE
.set __ZN70_$LT$libc..unix..bsd..apple..sf_hdtr$u20$as$u20$core..clone..Clone$GT$5clone17h3bc05f8386221d4cE, __ZN54_$LT$libc..unix..tms$u20$as$u20$core..clone..Clone$GT$5clone17hacd6eb7cc2aa0c6fE
	.globl	__ZN76_$LT$libc..unix..bsd..apple..proc_taskinfo$u20$as$u20$core..clone..Clone$GT$5clone17h645aa1b2a0e67712E
.set __ZN76_$LT$libc..unix..bsd..apple..proc_taskinfo$u20$as$u20$core..clone..Clone$GT$5clone17h645aa1b2a0e67712E, __ZN68_$LT$libc..unix..bsd..apple..lconv$u20$as$u20$core..clone..Clone$GT$5clone17h5a16677d2d0f0483E
	.globl	__ZN72_$LT$libc..unix..bsd..apple..xsw_usage$u20$as$u20$core..clone..Clone$GT$5clone17h91f4301ca8e59ef7E
.set __ZN72_$LT$libc..unix..bsd..apple..xsw_usage$u20$as$u20$core..clone..Clone$GT$5clone17h91f4301ca8e59ef7E, __ZN54_$LT$libc..unix..tms$u20$as$u20$core..clone..Clone$GT$5clone17hacd6eb7cc2aa0c6fE
	.globl	__ZN81_$LT$libc..unix..bsd..apple..segment_command_64$u20$as$u20$core..clone..Clone$GT$5clone17hc8d08d0c41ac44b3E
.set __ZN81_$LT$libc..unix..bsd..apple..segment_command_64$u20$as$u20$core..clone..Clone$GT$5clone17hc8d08d0c41ac44b3E, __ZN62_$LT$libc..unix..bsd..passwd$u20$as$u20$core..clone..Clone$GT$5clone17h3b8f373260f2a297E
	.globl	__ZN73_$LT$libc..unix..bsd..apple..in_pktinfo$u20$as$u20$core..clone..Clone$GT$5clone17he4853c52f68dcb4bE
.set __ZN73_$LT$libc..unix..bsd..apple..in_pktinfo$u20$as$u20$core..clone..Clone$GT$5clone17he4853c52f68dcb4bE, __ZN63_$LT$libc..unix..bsd..cmsghdr$u20$as$u20$core..clone..Clone$GT$5clone17h93a79c66b2031310E
	.globl	__ZN74_$LT$libc..unix..bsd..apple..in6_pktinfo$u20$as$u20$core..clone..Clone$GT$5clone17h9e138bf4133bf014E
.set __ZN74_$LT$libc..unix..bsd..apple..in6_pktinfo$u20$as$u20$core..clone..Clone$GT$5clone17h9e138bf4133bf014E, __ZN60_$LT$libc..unix..ipv6_mreq$u20$as$u20$core..clone..Clone$GT$5clone17h939de96848eabc35E
	.globl	__ZN75_$LT$libc..unix..bsd..apple..proc_bsdinfo$u20$as$u20$core..clone..Clone$GT$5clone17h2c668918c03507f2E
.set __ZN75_$LT$libc..unix..bsd..apple..proc_bsdinfo$u20$as$u20$core..clone..Clone$GT$5clone17h2c668918c03507f2E, __ZN68_$LT$libc..unix..bsd..apple..timex$u20$as$u20$core..clone..Clone$GT$5clone17h9e27d6cdf9d56907E
	.globl	__ZN73_$LT$libc..unix..bsd..apple..ntptimeval$u20$as$u20$core..clone..Clone$GT$5clone17h93b5161f1d022184E
.set __ZN73_$LT$libc..unix..bsd..apple..ntptimeval$u20$as$u20$core..clone..Clone$GT$5clone17h93b5161f1d022184E, __ZN62_$LT$libc..unix..bsd..msghdr$u20$as$u20$core..clone..Clone$GT$5clone17h527eb4e0f6876a4fE
	.globl	__ZN77_$LT$libc..unix..bsd..apple..mach_header_64$u20$as$u20$core..clone..Clone$GT$5clone17hbc37ac137dd412f6E
.set __ZN77_$LT$libc..unix..bsd..apple..mach_header_64$u20$as$u20$core..clone..Clone$GT$5clone17hbc37ac137dd412f6E, __ZN69_$LT$libc..unix..bsd..apple..kevent$u20$as$u20$core..clone..Clone$GT$5clone17h6855de1b3d4c6a18E
	.globl	__ZN71_$LT$libc..unix..bsd..apple..shmid_ds$u20$as$u20$core..clone..Clone$GT$5clone17h9a765e7ae9c41a0cE
.set __ZN71_$LT$libc..unix..bsd..apple..shmid_ds$u20$as$u20$core..clone..Clone$GT$5clone17h9a765e7ae9c41a0cE, __ZN69_$LT$libc..unix..bsd..apple..xucred$u20$as$u20$core..clone..Clone$GT$5clone17ha93c86c51600a3a1E
	.globl	__ZN78_$LT$libc..unix..bsd..apple..pthread_mutex_t$u20$as$u20$core..clone..Clone$GT$5clone17hf2aae17c89277952E
.set __ZN78_$LT$libc..unix..bsd..apple..pthread_mutex_t$u20$as$u20$core..clone..Clone$GT$5clone17hf2aae17c89277952E, __ZN68_$LT$libc..unix..bsd..apple..dqblk$u20$as$u20$core..clone..Clone$GT$5clone17h6f20560a331f60a9E
	.globl	__ZN77_$LT$libc..unix..bsd..apple..pthread_cond_t$u20$as$u20$core..clone..Clone$GT$5clone17h3d864c0781af0e42E
.set __ZN77_$LT$libc..unix..bsd..apple..pthread_cond_t$u20$as$u20$core..clone..Clone$GT$5clone17h3d864c0781af0e42E, __ZN62_$LT$libc..unix..bsd..msghdr$u20$as$u20$core..clone..Clone$GT$5clone17h527eb4e0f6876a4fE
	.globl	__ZN71_$LT$libc..unix..bsd..apple..sigevent$u20$as$u20$core..clone..Clone$GT$5clone17h3aa33d8415050705E
.set __ZN71_$LT$libc..unix..bsd..apple..sigevent$u20$as$u20$core..clone..Clone$GT$5clone17h3aa33d8415050705E, __ZN54_$LT$libc..unix..tms$u20$as$u20$core..clone..Clone$GT$5clone17hacd6eb7cc2aa0c6fE
	.globl	__ZN75_$LT$libc..unix..bsd..apple..b64..bpf_hdr$u20$as$u20$core..clone..Clone$GT$5clone17h8064f248a5eb6825E
.set __ZN75_$LT$libc..unix..bsd..apple..b64..bpf_hdr$u20$as$u20$core..clone..Clone$GT$5clone17h8064f248a5eb6825E, __ZN60_$LT$libc..unix..ipv6_mreq$u20$as$u20$core..clone..Clone$GT$5clone17h939de96848eabc35E
	.globl	__ZN78_$LT$libc..unix..bsd..apple..b64..ucontext_t$u20$as$u20$core..clone..Clone$GT$5clone17h4f437fb363acbae2E
.set __ZN78_$LT$libc..unix..bsd..apple..b64..ucontext_t$u20$as$u20$core..clone..Clone$GT$5clone17h4f437fb363acbae2E, __ZN58_$LT$libc..unix..bsd..tm$u20$as$u20$core..clone..Clone$GT$5clone17h03e005086eefa201E
	.globl	__ZN98_$LT$libc..unix..bsd..apple..b64..__darwin_x86_exception_state64$u20$as$u20$core..clone..Clone$GT$5clone17h307d775d5b5b2c88E
.set __ZN98_$LT$libc..unix..bsd..apple..b64..__darwin_x86_exception_state64$u20$as$u20$core..clone..Clone$GT$5clone17h307d775d5b5b2c88E, __ZN72_$LT$libc..unix..bsd..apple..sigaction$u20$as$u20$core..clone..Clone$GT$5clone17h41b46c9fdea2b234E
	.globl	__ZN82_$LT$libc..unix..bsd..apple..b64..pthread_attr_t$u20$as$u20$core..clone..Clone$GT$5clone17h140911a2736218a3E
.set __ZN82_$LT$libc..unix..bsd..apple..b64..pthread_attr_t$u20$as$u20$core..clone..Clone$GT$5clone17h140911a2736218a3E, __ZN68_$LT$libc..unix..bsd..apple..dqblk$u20$as$u20$core..clone..Clone$GT$5clone17h6f20560a331f60a9E
	.globl	__ZN55_$LT$libc..unix..FILE$u20$as$u20$core..clone..Clone$GT$5clone17h1f93ebf3904f9711E
.set __ZN55_$LT$libc..unix..FILE$u20$as$u20$core..clone..Clone$GT$5clone17h1f93ebf3904f9711E, __ZN54_$LT$libc..unix..DIR$u20$as$u20$core..clone..Clone$GT$5clone17ha7ba172b3306b51dE
	.globl	__ZN57_$LT$libc..unix..fpos_t$u20$as$u20$core..clone..Clone$GT$5clone17h7f9440dde78c8d46E
.set __ZN57_$LT$libc..unix..fpos_t$u20$as$u20$core..clone..Clone$GT$5clone17h7f9440dde78c8d46E, __ZN54_$LT$libc..unix..DIR$u20$as$u20$core..clone..Clone$GT$5clone17ha7ba172b3306b51dE
	.globl	__ZN71_$LT$libc..unix..bsd..apple..timezone$u20$as$u20$core..clone..Clone$GT$5clone17he7a795c013a4e9aeE
.set __ZN71_$LT$libc..unix..bsd..apple..timezone$u20$as$u20$core..clone..Clone$GT$5clone17he7a795c013a4e9aeE, __ZN54_$LT$libc..unix..DIR$u20$as$u20$core..clone..Clone$GT$5clone17ha7ba172b3306b51dE
	.globl	__ZN59_$LT$libc..unix..timespec$u20$as$u20$core..clone..Clone$GT$5clone17hbb90fbde28a37b39E
.set __ZN59_$LT$libc..unix..timespec$u20$as$u20$core..clone..Clone$GT$5clone17hbb90fbde28a37b39E, __ZN56_$LT$libc..unix..iovec$u20$as$u20$core..clone..Clone$GT$5clone17h211d32117219e7c5E
	.globl	__ZN58_$LT$libc..unix..utimbuf$u20$as$u20$core..clone..Clone$GT$5clone17h24ddaebb670d7cbdE
.set __ZN58_$LT$libc..unix..utimbuf$u20$as$u20$core..clone..Clone$GT$5clone17h24ddaebb670d7cbdE, __ZN56_$LT$libc..unix..iovec$u20$as$u20$core..clone..Clone$GT$5clone17h211d32117219e7c5E
	.globl	__ZN57_$LT$libc..unix..rlimit$u20$as$u20$core..clone..Clone$GT$5clone17h328df12909ab39dbE
.set __ZN57_$LT$libc..unix..rlimit$u20$as$u20$core..clone..Clone$GT$5clone17h328df12909ab39dbE, __ZN56_$LT$libc..unix..iovec$u20$as$u20$core..clone..Clone$GT$5clone17h211d32117219e7c5E
	.globl	__ZN66_$LT$libc..unix..bsd..regmatch_t$u20$as$u20$core..clone..Clone$GT$5clone17h2cac58b609b92fb8E
.set __ZN66_$LT$libc..unix..bsd..regmatch_t$u20$as$u20$core..clone..Clone$GT$5clone17h2cac58b609b92fb8E, __ZN56_$LT$libc..unix..iovec$u20$as$u20$core..clone..Clone$GT$5clone17h211d32117219e7c5E
	.globl	__ZN81_$LT$libc..unix..bsd..apple..mach_timebase_info$u20$as$u20$core..clone..Clone$GT$5clone17ha4d024388b18fcd4E
.set __ZN81_$LT$libc..unix..bsd..apple..mach_timebase_info$u20$as$u20$core..clone..Clone$GT$5clone17ha4d024388b18fcd4E, __ZN57_$LT$libc..unix..linger$u20$as$u20$core..clone..Clone$GT$5clone17hd1506750178cdf57E
	.globl	__ZN72_$LT$libc..unix..bsd..apple..radvisory$u20$as$u20$core..clone..Clone$GT$5clone17h62be4f62b64ae9a2E
.set __ZN72_$LT$libc..unix..bsd..apple..radvisory$u20$as$u20$core..clone..Clone$GT$5clone17h62be4f62b64ae9a2E, __ZN58_$LT$libc..unix..timeval$u20$as$u20$core..clone..Clone$GT$5clone17h0ce105539af03601E
	.globl	__ZN75_$LT$libc..unix..bsd..apple..load_command$u20$as$u20$core..clone..Clone$GT$5clone17h7fe97daa2a020800E
.set __ZN75_$LT$libc..unix..bsd..apple..load_command$u20$as$u20$core..clone..Clone$GT$5clone17h7fe97daa2a020800E, __ZN57_$LT$libc..unix..linger$u20$as$u20$core..clone..Clone$GT$5clone17hd1506750178cdf57E
	.globl	__ZN77_$LT$libc..unix..bsd..apple..b64..timeval32$u20$as$u20$core..clone..Clone$GT$5clone17hb1a3270b1e643e2eE
.set __ZN77_$LT$libc..unix..bsd..apple..b64..timeval32$u20$as$u20$core..clone..Clone$GT$5clone17hb1a3270b1e643e2eE, __ZN57_$LT$libc..unix..linger$u20$as$u20$core..clone..Clone$GT$5clone17hd1506750178cdf57E
.subsections_via_symbols
