	.section	__TEXT,__text,regular,pure_instructions
	.macosx_version_min 10, 7
	.globl	__ZN54_$LT$libc..unix..DIR$u20$as$u20$core..clone..Clone$GT$5clone17hcbe7046851722c8eE
	.p2align	4, 0x90
__ZN54_$LT$libc..unix..DIR$u20$as$u20$core..clone..Clone$GT$5clone17hcbe7046851722c8eE:
	.cfi_startproc
	pushq	%rbp
	.cfi_def_cfa_offset 16
	.cfi_offset %rbp, -16
	movq	%rsp, %rbp
	.cfi_def_cfa_register %rbp
	ud2
	.cfi_endproc

	.globl	__ZN58_$LT$libc..unix..timeval$u20$as$u20$core..clone..Clone$GT$5clone17h42341af37b7c7367E
	.p2align	4, 0x90
__ZN58_$LT$libc..unix..timeval$u20$as$u20$core..clone..Clone$GT$5clone17h42341af37b7c7367E:
	.cfi_startproc
	pushq	%rbp
	.cfi_def_cfa_offset 16
	.cfi_offset %rbp, -16
	movq	%rsp, %rbp
	.cfi_def_cfa_register %rbp
	movq	(%rdi), %rax
	movl	8(%rdi), %edx
	popq	%rbp
	retq
	.cfi_endproc

	.globl	__ZN57_$LT$libc..unix..rusage$u20$as$u20$core..clone..Clone$GT$5clone17hd5505df312510f3cE
	.p2align	4, 0x90
__ZN57_$LT$libc..unix..rusage$u20$as$u20$core..clone..Clone$GT$5clone17hd5505df312510f3cE:
	.cfi_startproc
	pushq	%rbp
	.cfi_def_cfa_offset 16
	.cfi_offset %rbp, -16
	movq	%rsp, %rbp
	.cfi_def_cfa_register %rbp
	pushq	%rbx
	pushq	%rax
	.cfi_offset %rbx, -24
	movq	%rdi, %rbx
	movl	$144, %edx
	callq	_memcpy
	movq	%rbx, %rax
	addq	$8, %rsp
	popq	%rbx
	popq	%rbp
	retq
	.cfi_endproc

	.globl	__ZN60_$LT$libc..unix..ipv6_mreq$u20$as$u20$core..clone..Clone$GT$5clone17hf758ed72b77481c3E
	.p2align	4, 0x90
__ZN60_$LT$libc..unix..ipv6_mreq$u20$as$u20$core..clone..Clone$GT$5clone17hf758ed72b77481c3E:
	.cfi_startproc
	pushq	%rbp
	.cfi_def_cfa_offset 16
	.cfi_offset %rbp, -16
	movq	%rsp, %rbp
	.cfi_def_cfa_register %rbp
	movq	%rdi, %rax
	movl	16(%rsi), %ecx
	movl	%ecx, 16(%rdi)
	movq	(%rsi), %rcx
	movq	8(%rsi), %rdx
	movq	%rdx, 8(%rdi)
	movq	%rcx, (%rdi)
	popq	%rbp
	retq
	.cfi_endproc

	.globl	__ZN56_$LT$libc..unix..iovec$u20$as$u20$core..clone..Clone$GT$5clone17hb3c76e25644e5193E
	.p2align	4, 0x90
__ZN56_$LT$libc..unix..iovec$u20$as$u20$core..clone..Clone$GT$5clone17hb3c76e25644e5193E:
	.cfi_startproc
	pushq	%rbp
	.cfi_def_cfa_offset 16
	.cfi_offset %rbp, -16
	movq	%rsp, %rbp
	.cfi_def_cfa_register %rbp
	movq	(%rdi), %rax
	movq	8(%rdi), %rdx
	popq	%rbp
	retq
	.cfi_endproc

	.globl	__ZN57_$LT$libc..unix..pollfd$u20$as$u20$core..clone..Clone$GT$5clone17h419d4d46faad2bacE
	.p2align	4, 0x90
__ZN57_$LT$libc..unix..pollfd$u20$as$u20$core..clone..Clone$GT$5clone17h419d4d46faad2bacE:
	.cfi_startproc
	pushq	%rbp
	.cfi_def_cfa_offset 16
	.cfi_offset %rbp, -16
	movq	%rsp, %rbp
	.cfi_def_cfa_register %rbp
	movq	(%rdi), %rax
	popq	%rbp
	retq
	.cfi_endproc

	.globl	__ZN58_$LT$libc..unix..winsize$u20$as$u20$core..clone..Clone$GT$5clone17hdac7a8d9f093c33cE
	.p2align	4, 0x90
__ZN58_$LT$libc..unix..winsize$u20$as$u20$core..clone..Clone$GT$5clone17hdac7a8d9f093c33cE:
	.cfi_startproc
	pushq	%rbp
	.cfi_def_cfa_offset 16
	.cfi_offset %rbp, -16
	movq	%rsp, %rbp
	.cfi_def_cfa_register %rbp
	movq	(%rdi), %rax
	popq	%rbp
	retq
	.cfi_endproc

	.globl	__ZN57_$LT$libc..unix..linger$u20$as$u20$core..clone..Clone$GT$5clone17h7bc2032c9460050fE
	.p2align	4, 0x90
__ZN57_$LT$libc..unix..linger$u20$as$u20$core..clone..Clone$GT$5clone17h7bc2032c9460050fE:
	.cfi_startproc
	pushq	%rbp
	.cfi_def_cfa_offset 16
	.cfi_offset %rbp, -16
	movq	%rsp, %rbp
	.cfi_def_cfa_register %rbp
	movl	(%rdi), %eax
	movl	4(%rdi), %edx
	popq	%rbp
	retq
	.cfi_endproc

	.globl	__ZN57_$LT$libc..unix..sigval$u20$as$u20$core..clone..Clone$GT$5clone17hf68c74623d023860E
	.p2align	4, 0x90
__ZN57_$LT$libc..unix..sigval$u20$as$u20$core..clone..Clone$GT$5clone17hf68c74623d023860E:
	.cfi_startproc
	pushq	%rbp
	.cfi_def_cfa_offset 16
	.cfi_offset %rbp, -16
	movq	%rsp, %rbp
	.cfi_def_cfa_register %rbp
	movq	(%rdi), %rax
	popq	%rbp
	retq
	.cfi_endproc

	.globl	__ZN54_$LT$libc..unix..tms$u20$as$u20$core..clone..Clone$GT$5clone17h1bbda6145b173674E
	.p2align	4, 0x90
__ZN54_$LT$libc..unix..tms$u20$as$u20$core..clone..Clone$GT$5clone17h1bbda6145b173674E:
	.cfi_startproc
	pushq	%rbp
	.cfi_def_cfa_offset 16
	.cfi_offset %rbp, -16
	movq	%rsp, %rbp
	.cfi_def_cfa_register %rbp
	movq	%rdi, %rax
	movq	24(%rsi), %rcx
	movq	%rcx, 24(%rdi)
	movq	16(%rsi), %rcx
	movq	%rcx, 16(%rdi)
	movq	(%rsi), %rcx
	movq	8(%rsi), %rdx
	movq	%rdx, 8(%rdi)
	movq	%rcx, (%rdi)
	popq	%rbp
	retq
	.cfi_endproc

	.globl	__ZN59_$LT$libc..unix..protoent$u20$as$u20$core..clone..Clone$GT$5clone17hb0375c4da3eb7d70E
	.p2align	4, 0x90
__ZN59_$LT$libc..unix..protoent$u20$as$u20$core..clone..Clone$GT$5clone17hb0375c4da3eb7d70E:
	.cfi_startproc
	pushq	%rbp
	.cfi_def_cfa_offset 16
	.cfi_offset %rbp, -16
	movq	%rsp, %rbp
	.cfi_def_cfa_register %rbp
	movq	%rdi, %rax
	movq	16(%rsi), %rcx
	movq	%rcx, 16(%rdi)
	movq	(%rsi), %rcx
	movq	8(%rsi), %rdx
	movq	%rdx, 8(%rdi)
	movq	%rcx, (%rdi)
	popq	%rbp
	retq
	.cfi_endproc

	.globl	__ZN64_$LT$libc..unix..bsd..sockaddr$u20$as$u20$core..clone..Clone$GT$5clone17hc53b575e820677dbE
	.p2align	4, 0x90
__ZN64_$LT$libc..unix..bsd..sockaddr$u20$as$u20$core..clone..Clone$GT$5clone17hc53b575e820677dbE:
	.cfi_startproc
	pushq	%rbp
	.cfi_def_cfa_offset 16
	.cfi_offset %rbp, -16
	movq	%rsp, %rbp
	.cfi_def_cfa_register %rbp
	movq	%rdi, %rax
	movq	(%rsi), %rcx
	movq	8(%rsi), %rdx
	movq	%rdx, 8(%rdi)
	movq	%rcx, (%rdi)
	popq	%rbp
	retq
	.cfi_endproc

	.globl	__ZN68_$LT$libc..unix..bsd..sockaddr_in6$u20$as$u20$core..clone..Clone$GT$5clone17h3e0f501a8b518cdfE
	.p2align	4, 0x90
__ZN68_$LT$libc..unix..bsd..sockaddr_in6$u20$as$u20$core..clone..Clone$GT$5clone17h3e0f501a8b518cdfE:
	.cfi_startproc
	pushq	%rbp
	.cfi_def_cfa_offset 16
	.cfi_offset %rbp, -16
	movq	%rsp, %rbp
	.cfi_def_cfa_register %rbp
	movq	%rdi, %rax
	movl	24(%rsi), %ecx
	movl	%ecx, 24(%rdi)
	movq	16(%rsi), %rcx
	movq	%rcx, 16(%rdi)
	movq	(%rsi), %rcx
	movq	8(%rsi), %rdx
	movq	%rdx, 8(%rdi)
	movq	%rcx, (%rdi)
	popq	%rbp
	retq
	.cfi_endproc

	.globl	__ZN62_$LT$libc..unix..bsd..passwd$u20$as$u20$core..clone..Clone$GT$5clone17h3c394fdb411078ecE
	.p2align	4, 0x90
__ZN62_$LT$libc..unix..bsd..passwd$u20$as$u20$core..clone..Clone$GT$5clone17h3c394fdb411078ecE:
	.cfi_startproc
	pushq	%rbp
	.cfi_def_cfa_offset 16
	.cfi_offset %rbp, -16
	movq	%rsp, %rbp
	.cfi_def_cfa_register %rbp
	movq	%rdi, %rax
	movl	$9, %ecx
	rep;movsq (%rsi), %es:(%rdi)
	popq	%rbp
	retq
	.cfi_endproc

	.globl	__ZN62_$LT$libc..unix..bsd..fd_set$u20$as$u20$core..clone..Clone$GT$5clone17ha7e55562f0c06e95E
	.p2align	4, 0x90
__ZN62_$LT$libc..unix..bsd..fd_set$u20$as$u20$core..clone..Clone$GT$5clone17ha7e55562f0c06e95E:
	.cfi_startproc
	pushq	%rbp
	.cfi_def_cfa_offset 16
	.cfi_offset %rbp, -16
	movq	%rsp, %rbp
	.cfi_def_cfa_register %rbp
	movq	%rdi, %rax
	movl	$32, %ecx
	rep;movsl (%rsi), %es:(%rdi)
	popq	%rbp
	retq
	.cfi_endproc

	.globl	__ZN58_$LT$libc..unix..bsd..tm$u20$as$u20$core..clone..Clone$GT$5clone17hd18a760e202f0e64E
	.p2align	4, 0x90
__ZN58_$LT$libc..unix..bsd..tm$u20$as$u20$core..clone..Clone$GT$5clone17hd18a760e202f0e64E:
	.cfi_startproc
	pushq	%rbp
	.cfi_def_cfa_offset 16
	.cfi_offset %rbp, -16
	movq	%rsp, %rbp
	.cfi_def_cfa_register %rbp
	movq	%rdi, %rax
	movq	48(%rsi), %rcx
	movq	%rcx, 48(%rdi)
	movq	40(%rsi), %rcx
	movq	%rcx, 40(%rdi)
	movq	32(%rsi), %rcx
	movq	%rcx, 32(%rdi)
	movq	24(%rsi), %rcx
	movq	%rcx, 24(%rdi)
	movq	16(%rsi), %rcx
	movq	%rcx, 16(%rdi)
	movq	(%rsi), %rcx
	movq	8(%rsi), %rdx
	movq	%rdx, 8(%rdi)
	movq	%rcx, (%rdi)
	popq	%rbp
	retq
	.cfi_endproc

	.globl	__ZN62_$LT$libc..unix..bsd..msghdr$u20$as$u20$core..clone..Clone$GT$5clone17h7ce4ae6d2579a53eE
	.p2align	4, 0x90
__ZN62_$LT$libc..unix..bsd..msghdr$u20$as$u20$core..clone..Clone$GT$5clone17h7ce4ae6d2579a53eE:
	.cfi_startproc
	pushq	%rbp
	.cfi_def_cfa_offset 16
	.cfi_offset %rbp, -16
	movq	%rsp, %rbp
	.cfi_def_cfa_register %rbp
	movq	%rdi, %rax
	movq	40(%rsi), %rcx
	movq	%rcx, 40(%rdi)
	movq	32(%rsi), %rcx
	movq	%rcx, 32(%rdi)
	movq	24(%rsi), %rcx
	movq	%rcx, 24(%rdi)
	movq	16(%rsi), %rcx
	movq	%rcx, 16(%rdi)
	movq	(%rsi), %rcx
	movq	8(%rsi), %rdx
	movq	%rdx, 8(%rdi)
	movq	%rcx, (%rdi)
	popq	%rbp
	retq
	.cfi_endproc

	.globl	__ZN63_$LT$libc..unix..bsd..cmsghdr$u20$as$u20$core..clone..Clone$GT$5clone17h98ebbf04e7e389d2E
	.p2align	4, 0x90
__ZN63_$LT$libc..unix..bsd..cmsghdr$u20$as$u20$core..clone..Clone$GT$5clone17h98ebbf04e7e389d2E:
	.cfi_startproc
	pushq	%rbp
	.cfi_def_cfa_offset 16
	.cfi_offset %rbp, -16
	movq	%rsp, %rbp
	.cfi_def_cfa_register %rbp
	movq	%rdi, %rax
	movl	8(%rsi), %ecx
	movl	%ecx, 8(%rdi)
	movq	(%rsi), %rcx
	movq	%rcx, (%rdi)
	popq	%rbp
	retq
	.cfi_endproc

	.globl	__ZN68_$LT$libc..unix..bsd..if_nameindex$u20$as$u20$core..clone..Clone$GT$5clone17hb700eecf9723532aE
	.p2align	4, 0x90
__ZN68_$LT$libc..unix..bsd..if_nameindex$u20$as$u20$core..clone..Clone$GT$5clone17hb700eecf9723532aE:
	.cfi_startproc
	pushq	%rbp
	.cfi_def_cfa_offset 16
	.cfi_offset %rbp, -16
	movq	%rsp, %rbp
	.cfi_def_cfa_register %rbp
	movl	(%rdi), %eax
	movq	8(%rdi), %rdx
	popq	%rbp
	retq
	.cfi_endproc

	.globl	__ZN67_$LT$libc..unix..bsd..sockaddr_un$u20$as$u20$core..clone..Clone$GT$5clone17h63b81bca2467d68fE
	.p2align	4, 0x90
__ZN67_$LT$libc..unix..bsd..sockaddr_un$u20$as$u20$core..clone..Clone$GT$5clone17h63b81bca2467d68fE:
	.cfi_startproc
	pushq	%rbp
	.cfi_def_cfa_offset 16
	.cfi_offset %rbp, -16
	movq	%rsp, %rbp
	.cfi_def_cfa_register %rbp
	pushq	%rbx
	pushq	%rax
	.cfi_offset %rbx, -24
	movq	%rdi, %rbx
	movl	$106, %edx
	callq	_memcpy
	movq	%rbx, %rax
	addq	$8, %rsp
	popq	%rbx
	popq	%rbp
	retq
	.cfi_endproc

	.globl	__ZN63_$LT$libc..unix..bsd..utsname$u20$as$u20$core..clone..Clone$GT$5clone17h63b564ef7fa5fc1cE
	.p2align	4, 0x90
__ZN63_$LT$libc..unix..bsd..utsname$u20$as$u20$core..clone..Clone$GT$5clone17h63b564ef7fa5fc1cE:
	.cfi_startproc
	pushq	%rbp
	.cfi_def_cfa_offset 16
	.cfi_offset %rbp, -16
	movq	%rsp, %rbp
	.cfi_def_cfa_register %rbp
	pushq	%rbx
	pushq	%rax
	.cfi_offset %rbx, -24
	movq	%rdi, %rbx
	movl	$1280, %edx
	callq	_memcpy
	movq	%rbx, %rax
	addq	$8, %rsp
	popq	%rbx
	popq	%rbp
	retq
	.cfi_endproc

	.globl	__ZN4libc4unix3bsd5apple9siginfo_t7si_addr17h5fe268faa5a5e04fE
	.p2align	4, 0x90
__ZN4libc4unix3bsd5apple9siginfo_t7si_addr17h5fe268faa5a5e04fE:
	.cfi_startproc
	pushq	%rbp
	.cfi_def_cfa_offset 16
	.cfi_offset %rbp, -16
	movq	%rsp, %rbp
	.cfi_def_cfa_register %rbp
	movq	24(%rdi), %rax
	popq	%rbp
	retq
	.cfi_endproc

	.globl	__ZN4libc4unix3bsd5apple9siginfo_t8si_value17h2d6a45d6efefc824E
	.p2align	4, 0x90
__ZN4libc4unix3bsd5apple9siginfo_t8si_value17h2d6a45d6efefc824E:
	.cfi_startproc
	pushq	%rbp
	.cfi_def_cfa_offset 16
	.cfi_offset %rbp, -16
	movq	%rsp, %rbp
	.cfi_def_cfa_register %rbp
	movq	32(%rdi), %rax
	popq	%rbp
	retq
	.cfi_endproc

	.globl	__ZN68_$LT$libc..unix..bsd..apple..aiocb$u20$as$u20$core..clone..Clone$GT$5clone17h6ed21cfa50d0e4d6E
	.p2align	4, 0x90
__ZN68_$LT$libc..unix..bsd..apple..aiocb$u20$as$u20$core..clone..Clone$GT$5clone17h6ed21cfa50d0e4d6E:
	.cfi_startproc
	pushq	%rbp
	.cfi_def_cfa_offset 16
	.cfi_offset %rbp, -16
	movq	%rsp, %rbp
	.cfi_def_cfa_register %rbp
	movq	%rdi, %rax
	movl	$10, %ecx
	rep;movsq (%rsi), %es:(%rdi)
	popq	%rbp
	retq
	.cfi_endproc

	.globl	__ZN69_$LT$libc..unix..bsd..apple..glob_t$u20$as$u20$core..clone..Clone$GT$5clone17hf1ae1ae6f0a89ce4E
	.p2align	4, 0x90
__ZN69_$LT$libc..unix..bsd..apple..glob_t$u20$as$u20$core..clone..Clone$GT$5clone17hf1ae1ae6f0a89ce4E:
	.cfi_startproc
	pushq	%rbp
	.cfi_def_cfa_offset 16
	.cfi_offset %rbp, -16
	movq	%rsp, %rbp
	.cfi_def_cfa_register %rbp
	movq	%rdi, %rax
	movl	$11, %ecx
	rep;movsq (%rsi), %es:(%rdi)
	popq	%rbp
	retq
	.cfi_endproc

	.globl	__ZN72_$LT$libc..unix..bsd..apple..siginfo_t$u20$as$u20$core..clone..Clone$GT$5clone17hdfff0854d149d7efE
	.p2align	4, 0x90
__ZN72_$LT$libc..unix..bsd..apple..siginfo_t$u20$as$u20$core..clone..Clone$GT$5clone17hdfff0854d149d7efE:
	.cfi_startproc
	pushq	%rbp
	.cfi_def_cfa_offset 16
	.cfi_offset %rbp, -16
	movq	%rsp, %rbp
	.cfi_def_cfa_register %rbp
	movq	%rdi, %rax
	movl	$13, %ecx
	rep;movsq (%rsi), %es:(%rdi)
	popq	%rbp
	retq
	.cfi_endproc

	.globl	__ZN72_$LT$libc..unix..bsd..apple..sigaction$u20$as$u20$core..clone..Clone$GT$5clone17h12e84f1a7219cf04E
	.p2align	4, 0x90
__ZN72_$LT$libc..unix..bsd..apple..sigaction$u20$as$u20$core..clone..Clone$GT$5clone17h12e84f1a7219cf04E:
	.cfi_startproc
	pushq	%rbp
	.cfi_def_cfa_offset 16
	.cfi_offset %rbp, -16
	movq	%rsp, %rbp
	.cfi_def_cfa_register %rbp
	movq	%rdi, %rax
	movq	(%rsi), %rcx
	movq	8(%rsi), %rdx
	movq	%rdx, 8(%rdi)
	movq	%rcx, (%rdi)
	popq	%rbp
	retq
	.cfi_endproc

	.globl	__ZN68_$LT$libc..unix..bsd..apple..dqblk$u20$as$u20$core..clone..Clone$GT$5clone17he85b3ee414004488E
	.p2align	4, 0x90
__ZN68_$LT$libc..unix..bsd..apple..dqblk$u20$as$u20$core..clone..Clone$GT$5clone17he85b3ee414004488E:
	.cfi_startproc
	pushq	%rbp
	.cfi_def_cfa_offset 16
	.cfi_offset %rbp, -16
	movq	%rsp, %rbp
	.cfi_def_cfa_register %rbp
	movq	%rdi, %rax
	movq	56(%rsi), %rcx
	movq	%rcx, 56(%rdi)
	movq	48(%rsi), %rcx
	movq	%rcx, 48(%rdi)
	movq	40(%rsi), %rcx
	movq	%rcx, 40(%rdi)
	movq	32(%rsi), %rcx
	movq	%rcx, 32(%rdi)
	movq	24(%rsi), %rcx
	movq	%rcx, 24(%rdi)
	movq	16(%rsi), %rcx
	movq	%rcx, 16(%rdi)
	movq	(%rsi), %rcx
	movq	8(%rsi), %rdx
	movq	%rdx, 8(%rdi)
	movq	%rcx, (%rdi)
	popq	%rbp
	retq
	.cfi_endproc

	.globl	__ZN72_$LT$libc..unix..bsd..apple..if_msghdr$u20$as$u20$core..clone..Clone$GT$5clone17h66a2bfb161d9d320E
	.p2align	4, 0x90
__ZN72_$LT$libc..unix..bsd..apple..if_msghdr$u20$as$u20$core..clone..Clone$GT$5clone17h66a2bfb161d9d320E:
	.cfi_startproc
	pushq	%rbp
	.cfi_def_cfa_offset 16
	.cfi_offset %rbp, -16
	movq	%rsp, %rbp
	.cfi_def_cfa_register %rbp
	movq	%rdi, %rax
	movl	$28, %ecx
	rep;movsl (%rsi), %es:(%rdi)
	popq	%rbp
	retq
	.cfi_endproc

	.globl	__ZN68_$LT$libc..unix..bsd..apple..lconv$u20$as$u20$core..clone..Clone$GT$5clone17h878089e9a79b5361E
	.p2align	4, 0x90
__ZN68_$LT$libc..unix..bsd..apple..lconv$u20$as$u20$core..clone..Clone$GT$5clone17h878089e9a79b5361E:
	.cfi_startproc
	pushq	%rbp
	.cfi_def_cfa_offset 16
	.cfi_offset %rbp, -16
	movq	%rsp, %rbp
	.cfi_def_cfa_register %rbp
	movq	%rdi, %rax
	movl	$12, %ecx
	rep;movsq (%rsi), %es:(%rdi)
	popq	%rbp
	retq
	.cfi_endproc

	.globl	__ZN79_$LT$libc..unix..bsd..apple..proc_taskallinfo$u20$as$u20$core..clone..Clone$GT$5clone17h2a953e6d40b6ceb0E
	.p2align	4, 0x90
__ZN79_$LT$libc..unix..bsd..apple..proc_taskallinfo$u20$as$u20$core..clone..Clone$GT$5clone17h2a953e6d40b6ceb0E:
	.cfi_startproc
	pushq	%rbp
	.cfi_def_cfa_offset 16
	.cfi_offset %rbp, -16
	movq	%rsp, %rbp
	.cfi_def_cfa_register %rbp
	pushq	%rbx
	pushq	%rax
	.cfi_offset %rbx, -24
	movq	%rdi, %rbx
	movl	$232, %edx
	callq	_memcpy
	movq	%rbx, %rax
	addq	$8, %rsp
	popq	%rbx
	popq	%rbp
	retq
	.cfi_endproc

	.globl	__ZN69_$LT$libc..unix..bsd..apple..xucred$u20$as$u20$core..clone..Clone$GT$5clone17hfc5dae3521aa917dE
	.p2align	4, 0x90
__ZN69_$LT$libc..unix..bsd..apple..xucred$u20$as$u20$core..clone..Clone$GT$5clone17hfc5dae3521aa917dE:
	.cfi_startproc
	pushq	%rbp
	.cfi_def_cfa_offset 16
	.cfi_offset %rbp, -16
	movq	%rsp, %rbp
	.cfi_def_cfa_register %rbp
	movq	%rdi, %rax
	movl	$19, %ecx
	rep;movsl (%rsi), %es:(%rdi)
	popq	%rbp
	retq
	.cfi_endproc

	.globl	__ZN74_$LT$libc..unix..bsd..apple..mach_header$u20$as$u20$core..clone..Clone$GT$5clone17h1af0e4d76f1f89f4E
	.p2align	4, 0x90
__ZN74_$LT$libc..unix..bsd..apple..mach_header$u20$as$u20$core..clone..Clone$GT$5clone17h1af0e4d76f1f89f4E:
	.cfi_startproc
	pushq	%rbp
	.cfi_def_cfa_offset 16
	.cfi_offset %rbp, -16
	movq	%rsp, %rbp
	.cfi_def_cfa_register %rbp
	movq	%rdi, %rax
	movl	24(%rsi), %ecx
	movl	%ecx, 24(%rdi)
	movq	16(%rsi), %rcx
	movq	%rcx, 16(%rdi)
	movq	(%rsi), %rcx
	movq	8(%rsi), %rdx
	movq	%rdx, 8(%rdi)
	movq	%rcx, (%rdi)
	popq	%rbp
	retq
	.cfi_endproc

	.globl	__ZN78_$LT$libc..unix..bsd..apple..segment_command$u20$as$u20$core..clone..Clone$GT$5clone17h1e88b278f1735b5bE
	.p2align	4, 0x90
__ZN78_$LT$libc..unix..bsd..apple..segment_command$u20$as$u20$core..clone..Clone$GT$5clone17h1e88b278f1735b5bE:
	.cfi_startproc
	pushq	%rbp
	.cfi_def_cfa_offset 16
	.cfi_offset %rbp, -16
	movq	%rsp, %rbp
	.cfi_def_cfa_register %rbp
	movq	%rdi, %rax
	movq	48(%rsi), %rcx
	movq	%rcx, 48(%rdi)
	movq	40(%rsi), %rcx
	movq	%rcx, 40(%rdi)
	movq	32(%rsi), %rcx
	movq	%rcx, 32(%rdi)
	movq	24(%rsi), %rcx
	movq	%rcx, 24(%rdi)
	movq	16(%rsi), %rcx
	movq	%rcx, 16(%rdi)
	movq	(%rsi), %rcx
	movq	8(%rsi), %rdx
	movq	%rdx, 8(%rdi)
	movq	%rcx, (%rdi)
	popq	%rbp
	retq
	.cfi_endproc

	.globl	__ZN74_$LT$libc..unix..bsd..apple..sockaddr_dl$u20$as$u20$core..clone..Clone$GT$5clone17hff834419bcd7061bE
	.p2align	4, 0x90
__ZN74_$LT$libc..unix..bsd..apple..sockaddr_dl$u20$as$u20$core..clone..Clone$GT$5clone17hff834419bcd7061bE:
	.cfi_startproc
	pushq	%rbp
	.cfi_def_cfa_offset 16
	.cfi_offset %rbp, -16
	movq	%rsp, %rbp
	.cfi_def_cfa_register %rbp
	movq	%rdi, %rax
	movl	16(%rsi), %ecx
	movl	%ecx, 16(%rdi)
	movq	(%rsi), %rcx
	movq	8(%rsi), %rdx
	movq	%rdx, 8(%rdi)
	movq	%rcx, (%rdi)
	popq	%rbp
	retq
	.cfi_endproc

	.globl	__ZN75_$LT$libc..unix..bsd..apple..sockaddr_ctl$u20$as$u20$core..clone..Clone$GT$5clone17h7e512b351ba841dcE
	.p2align	4, 0x90
__ZN75_$LT$libc..unix..bsd..apple..sockaddr_ctl$u20$as$u20$core..clone..Clone$GT$5clone17h7e512b351ba841dcE:
	.cfi_startproc
	pushq	%rbp
	.cfi_def_cfa_offset 16
	.cfi_offset %rbp, -16
	movq	%rsp, %rbp
	.cfi_def_cfa_register %rbp
	movq	%rdi, %rax
	movq	24(%rsi), %rcx
	movq	%rcx, 24(%rdi)
	movq	16(%rsi), %rcx
	movq	%rcx, 16(%rdi)
	movq	(%rsi), %rcx
	movq	8(%rsi), %rdx
	movq	%rdx, 8(%rdi)
	movq	%rcx, (%rdi)
	popq	%rbp
	retq
	.cfi_endproc

	.globl	__ZN71_$LT$libc..unix..bsd..apple..ipc_perm$u20$as$u20$core..clone..Clone$GT$5clone17h526f29b6c4d7c682E
	.p2align	4, 0x90
__ZN71_$LT$libc..unix..bsd..apple..ipc_perm$u20$as$u20$core..clone..Clone$GT$5clone17h526f29b6c4d7c682E:
	.cfi_startproc
	pushq	%rbp
	.cfi_def_cfa_offset 16
	.cfi_offset %rbp, -16
	movq	%rsp, %rbp
	.cfi_def_cfa_register %rbp
	movq	%rdi, %rax
	movq	16(%rsi), %rcx
	movq	%rcx, 16(%rdi)
	movq	(%rsi), %rcx
	movq	8(%rsi), %rdx
	movq	%rdx, 8(%rdi)
	movq	%rcx, (%rdi)
	popq	%rbp
	retq
	.cfi_endproc

	.globl	__ZN69_$LT$libc..unix..bsd..apple..sembuf$u20$as$u20$core..clone..Clone$GT$5clone17hcc866fa976752cddE
	.p2align	4, 0x90
__ZN69_$LT$libc..unix..bsd..apple..sembuf$u20$as$u20$core..clone..Clone$GT$5clone17hcc866fa976752cddE:
	.cfi_startproc
	pushq	%rbp
	.cfi_def_cfa_offset 16
	.cfi_offset %rbp, -16
	movq	%rsp, %rbp
	.cfi_def_cfa_register %rbp
	movl	(%rdi), %ecx
	movzwl	4(%rdi), %eax
	shlq	$32, %rax
	orq	%rcx, %rax
	popq	%rbp
	retq
	.cfi_endproc

	.globl	__ZN70_$LT$libc..unix..bsd..apple..in_addr$u20$as$u20$core..clone..Clone$GT$5clone17h14f824d7dcbde99bE
	.p2align	4, 0x90
__ZN70_$LT$libc..unix..bsd..apple..in_addr$u20$as$u20$core..clone..Clone$GT$5clone17h14f824d7dcbde99bE:
	.cfi_startproc
	pushq	%rbp
	.cfi_def_cfa_offset 16
	.cfi_offset %rbp, -16
	movq	%rsp, %rbp
	.cfi_def_cfa_register %rbp
	movl	(%rdi), %eax
	popq	%rbp
	retq
	.cfi_endproc

	.globl	__ZN77_$LT$libc..unix..bsd..apple..sa_endpoints_t$u20$as$u20$core..clone..Clone$GT$5clone17hb862a7c0ec362544E
	.p2align	4, 0x90
__ZN77_$LT$libc..unix..bsd..apple..sa_endpoints_t$u20$as$u20$core..clone..Clone$GT$5clone17hb862a7c0ec362544E:
	.cfi_startproc
	pushq	%rbp
	.cfi_def_cfa_offset 16
	.cfi_offset %rbp, -16
	movq	%rsp, %rbp
	.cfi_def_cfa_register %rbp
	movq	%rdi, %rax
	movq	32(%rsi), %rcx
	movq	%rcx, 32(%rdi)
	movq	24(%rsi), %rcx
	movq	%rcx, 24(%rdi)
	movq	16(%rsi), %rcx
	movq	%rcx, 16(%rdi)
	movq	(%rsi), %rcx
	movq	8(%rsi), %rdx
	movq	%rdx, 8(%rdi)
	movq	%rcx, (%rdi)
	popq	%rbp
	retq
	.cfi_endproc

	.globl	__ZN68_$LT$libc..unix..bsd..apple..timex$u20$as$u20$core..clone..Clone$GT$5clone17h07c806d1d19805c9E
	.p2align	4, 0x90
__ZN68_$LT$libc..unix..bsd..apple..timex$u20$as$u20$core..clone..Clone$GT$5clone17h07c806d1d19805c9E:
	.cfi_startproc
	pushq	%rbp
	.cfi_def_cfa_offset 16
	.cfi_offset %rbp, -16
	movq	%rsp, %rbp
	.cfi_def_cfa_register %rbp
	pushq	%rbx
	pushq	%rax
	.cfi_offset %rbx, -24
	movq	%rdi, %rbx
	movl	$136, %edx
	callq	_memcpy
	movq	%rbx, %rax
	addq	$8, %rsp
	popq	%rbx
	popq	%rbp
	retq
	.cfi_endproc

	.globl	__ZN69_$LT$libc..unix..bsd..apple..kevent$u20$as$u20$core..clone..Clone$GT$5clone17h48cb02fa0d7e45ebE
	.p2align	4, 0x90
__ZN69_$LT$libc..unix..bsd..apple..kevent$u20$as$u20$core..clone..Clone$GT$5clone17h48cb02fa0d7e45ebE:
	.cfi_startproc
	pushq	%rbp
	.cfi_def_cfa_offset 16
	.cfi_offset %rbp, -16
	movq	%rsp, %rbp
	.cfi_def_cfa_register %rbp
	movq	%rdi, %rax
	movq	24(%rsi), %rcx
	movq	%rcx, 24(%rdi)
	movq	16(%rsi), %rcx
	movq	%rcx, 16(%rdi)
	movq	(%rsi), %rcx
	movq	8(%rsi), %rdx
	movq	%rdx, 8(%rdi)
	movq	%rcx, (%rdi)
	popq	%rbp
	retq
	.cfi_endproc

	.globl	__ZN71_$LT$libc..unix..bsd..apple..semid_ds$u20$as$u20$core..clone..Clone$GT$5clone17h184a68df3f0b49bdE
	.p2align	4, 0x90
__ZN71_$LT$libc..unix..bsd..apple..semid_ds$u20$as$u20$core..clone..Clone$GT$5clone17h184a68df3f0b49bdE:
	.cfi_startproc
	pushq	%rbp
	.cfi_def_cfa_offset 16
	.cfi_offset %rbp, -16
	movq	%rsp, %rbp
	.cfi_def_cfa_register %rbp
	movq	%rdi, %rax
	movl	$18, %ecx
	rep;movsl (%rsi), %es:(%rdi)
	popq	%rbp
	retq
	.cfi_endproc

	.globl	__ZN78_$LT$libc..unix..bsd..apple..proc_threadinfo$u20$as$u20$core..clone..Clone$GT$5clone17h683861156faf53e7E
	.p2align	4, 0x90
__ZN78_$LT$libc..unix..bsd..apple..proc_threadinfo$u20$as$u20$core..clone..Clone$GT$5clone17h683861156faf53e7E:
	.cfi_startproc
	pushq	%rbp
	.cfi_def_cfa_offset 16
	.cfi_offset %rbp, -16
	movq	%rsp, %rbp
	.cfi_def_cfa_register %rbp
	movq	%rdi, %rax
	movl	$14, %ecx
	rep;movsq (%rsi), %es:(%rdi)
	popq	%rbp
	retq
	.cfi_endproc

	.globl	__ZN69_$LT$libc..unix..bsd..apple..statfs$u20$as$u20$core..clone..Clone$GT$5clone17h3c49b477ea791a05E
	.p2align	4, 0x90
__ZN69_$LT$libc..unix..bsd..apple..statfs$u20$as$u20$core..clone..Clone$GT$5clone17h3c49b477ea791a05E:
	.cfi_startproc
	pushq	%rbp
	.cfi_def_cfa_offset 16
	.cfi_offset %rbp, -16
	movq	%rsp, %rbp
	.cfi_def_cfa_register %rbp
	pushq	%rbx
	pushq	%rax
	.cfi_offset %rbx, -24
	movq	%rdi, %rbx
	movl	$2168, %edx
	callq	_memcpy
	movq	%rbx, %rax
	addq	$8, %rsp
	popq	%rbx
	popq	%rbp
	retq
	.cfi_endproc

	.globl	__ZN69_$LT$libc..unix..bsd..apple..dirent$u20$as$u20$core..clone..Clone$GT$5clone17h9d73c21e1fa35bc7E
	.p2align	4, 0x90
__ZN69_$LT$libc..unix..bsd..apple..dirent$u20$as$u20$core..clone..Clone$GT$5clone17h9d73c21e1fa35bc7E:
	.cfi_startproc
	pushq	%rbp
	.cfi_def_cfa_offset 16
	.cfi_offset %rbp, -16
	movq	%rsp, %rbp
	.cfi_def_cfa_register %rbp
	pushq	%rbx
	pushq	%rax
	.cfi_offset %rbx, -24
	movq	%rdi, %rbx
	movl	$1048, %edx
	callq	_memcpy
	movq	%rbx, %rax
	addq	$8, %rsp
	popq	%rbx
	popq	%rbp
	retq
	.cfi_endproc

	.globl	__ZN79_$LT$libc..unix..bsd..apple..pthread_rwlock_t$u20$as$u20$core..clone..Clone$GT$5clone17h4ec7a0b45d726bcdE
	.p2align	4, 0x90
__ZN79_$LT$libc..unix..bsd..apple..pthread_rwlock_t$u20$as$u20$core..clone..Clone$GT$5clone17h4ec7a0b45d726bcdE:
	.cfi_startproc
	pushq	%rbp
	.cfi_def_cfa_offset 16
	.cfi_offset %rbp, -16
	movq	%rsp, %rbp
	.cfi_def_cfa_register %rbp
	pushq	%rbx
	pushq	%rax
	.cfi_offset %rbx, -24
	movq	%rdi, %rbx
	movl	$200, %edx
	callq	_memcpy
	movq	%rbx, %rax
	addq	$8, %rsp
	popq	%rbx
	popq	%rbp
	retq
	.cfi_endproc

	.globl	__ZN79_$LT$libc..unix..bsd..apple..sockaddr_storage$u20$as$u20$core..clone..Clone$GT$5clone17h84c346daeed90a5aE
	.p2align	4, 0x90
__ZN79_$LT$libc..unix..bsd..apple..sockaddr_storage$u20$as$u20$core..clone..Clone$GT$5clone17h84c346daeed90a5aE:
	.cfi_startproc
	pushq	%rbp
	.cfi_def_cfa_offset 16
	.cfi_offset %rbp, -16
	movq	%rsp, %rbp
	.cfi_def_cfa_register %rbp
	movq	%rdi, %rax
	movl	$16, %ecx
	rep;movsq (%rsi), %es:(%rdi)
	popq	%rbp
	retq
	.cfi_endproc

	.globl	__ZN68_$LT$libc..unix..bsd..apple..utmpx$u20$as$u20$core..clone..Clone$GT$5clone17h1513babebc320b85E
	.p2align	4, 0x90
__ZN68_$LT$libc..unix..bsd..apple..utmpx$u20$as$u20$core..clone..Clone$GT$5clone17h1513babebc320b85E:
	.cfi_startproc
	pushq	%rbp
	.cfi_def_cfa_offset 16
	.cfi_offset %rbp, -16
	movq	%rsp, %rbp
	.cfi_def_cfa_register %rbp
	pushq	%rbx
	pushq	%rax
	.cfi_offset %rbx, -24
	movq	%rdi, %rbx
	movl	$640, %edx
	callq	_memcpy
	movq	%rbx, %rax
	addq	$8, %rsp
	popq	%rbx
	popq	%rbp
	retq
	.cfi_endproc

	.globl	__ZN4libc4unix3bsd5apple16__DARWIN_ALIGN3217h59fe8513e2972152E
	.p2align	4, 0x90
__ZN4libc4unix3bsd5apple16__DARWIN_ALIGN3217h59fe8513e2972152E:
	.cfi_startproc
	movq	%rdi, %rax
	addq	$3, %rax
	jb	LBB49_2
	andq	$-4, %rax
	retq
LBB49_2:
	pushq	%rbp
	.cfi_def_cfa_offset 16
	.cfi_offset %rbp, -16
	movq	%rsp, %rbp
	.cfi_def_cfa_register %rbp
	leaq	_str.0(%rip), %rdi
	leaq	l___unnamed_1(%rip), %rdx
	movl	$28, %esi
	callq	__ZN4core9panicking5panic17h383a6b80ea7021aaE
	.cfi_endproc

	.globl	__ZN75_$LT$libc..unix..bsd..apple..b64..if_data$u20$as$u20$core..clone..Clone$GT$5clone17h42a9f62ef0955921E
	.p2align	4, 0x90
__ZN75_$LT$libc..unix..bsd..apple..b64..if_data$u20$as$u20$core..clone..Clone$GT$5clone17h42a9f62ef0955921E:
	.cfi_startproc
	pushq	%rbp
	.cfi_def_cfa_offset 16
	.cfi_offset %rbp, -16
	movq	%rsp, %rbp
	.cfi_def_cfa_register %rbp
	movq	%rdi, %rax
	movl	$24, %ecx
	rep;movsl (%rsi), %es:(%rdi)
	popq	%rbp
	retq
	.cfi_endproc

	.globl	__ZN87_$LT$libc..unix..bsd..apple..b64..__darwin_mcontext64$u20$as$u20$core..clone..Clone$GT$5clone17hedc5af689295c1e0E
	.p2align	4, 0x90
__ZN87_$LT$libc..unix..bsd..apple..b64..__darwin_mcontext64$u20$as$u20$core..clone..Clone$GT$5clone17hedc5af689295c1e0E:
	.cfi_startproc
	pushq	%rbp
	.cfi_def_cfa_offset 16
	.cfi_offset %rbp, -16
	movq	%rsp, %rbp
	.cfi_def_cfa_register %rbp
	pushq	%rbx
	pushq	%rax
	.cfi_offset %rbx, -24
	movq	%rdi, %rbx
	movl	$712, %edx
	callq	_memcpy
	movq	%rbx, %rax
	addq	$8, %rsp
	popq	%rbx
	popq	%rbp
	retq
	.cfi_endproc

	.globl	__ZN95_$LT$libc..unix..bsd..apple..b64..__darwin_x86_thread_state64$u20$as$u20$core..clone..Clone$GT$5clone17h17f4d8bd440074a7E
	.p2align	4, 0x90
__ZN95_$LT$libc..unix..bsd..apple..b64..__darwin_x86_thread_state64$u20$as$u20$core..clone..Clone$GT$5clone17h17f4d8bd440074a7E:
	.cfi_startproc
	pushq	%rbp
	.cfi_def_cfa_offset 16
	.cfi_offset %rbp, -16
	movq	%rsp, %rbp
	.cfi_def_cfa_register %rbp
	pushq	%rbx
	pushq	%rax
	.cfi_offset %rbx, -24
	movq	%rdi, %rbx
	movl	$168, %edx
	callq	_memcpy
	movq	%rbx, %rax
	addq	$8, %rsp
	popq	%rbx
	popq	%rbp
	retq
	.cfi_endproc

	.globl	__ZN94_$LT$libc..unix..bsd..apple..b64..__darwin_x86_float_state64$u20$as$u20$core..clone..Clone$GT$5clone17he4b5b4a179b52186E
	.p2align	4, 0x90
__ZN94_$LT$libc..unix..bsd..apple..b64..__darwin_x86_float_state64$u20$as$u20$core..clone..Clone$GT$5clone17he4b5b4a179b52186E:
	.cfi_startproc
	pushq	%rbp
	.cfi_def_cfa_offset 16
	.cfi_offset %rbp, -16
	movq	%rsp, %rbp
	.cfi_def_cfa_register %rbp
	pushq	%rbx
	pushq	%rax
	.cfi_offset %rbx, -24
	movq	%rdi, %rbx
	movl	$524, %edx
	callq	_memcpy
	movq	%rbx, %rax
	addq	$8, %rsp
	popq	%rbx
	popq	%rbp
	retq
	.cfi_endproc

	.globl	__ZN86_$LT$libc..unix..bsd..apple..b64..align..max_align_t$u20$as$u20$core..clone..Clone$GT$5clone17h3b5f09f5dcc93980E
	.p2align	4, 0x90
__ZN86_$LT$libc..unix..bsd..apple..b64..align..max_align_t$u20$as$u20$core..clone..Clone$GT$5clone17h3b5f09f5dcc93980E:
	.cfi_startproc
	pushq	%rbp
	.cfi_def_cfa_offset 16
	.cfi_offset %rbp, -16
	movq	%rsp, %rbp
	.cfi_def_cfa_register %rbp
	movq	%rdi, %rax
	movaps	(%rsi), %xmm0
	movaps	%xmm0, (%rdi)
	popq	%rbp
	retq
	.cfi_endproc

	.globl	__ZN66_$LT$libc..unix..align..in6_addr$u20$as$u20$core..clone..Clone$GT$5clone17h5b7cac318480e3bcE
	.p2align	4, 0x90
__ZN66_$LT$libc..unix..align..in6_addr$u20$as$u20$core..clone..Clone$GT$5clone17h5b7cac318480e3bcE:
	.cfi_startproc
	pushq	%rbp
	.cfi_def_cfa_offset 16
	.cfi_offset %rbp, -16
	movq	%rsp, %rbp
	.cfi_def_cfa_register %rbp
	movq	%rdi, %rax
	movq	(%rsi), %rcx
	movq	8(%rsi), %rdx
	movq	%rdx, 8(%rdi)
	movq	%rcx, (%rdi)
	popq	%rbp
	retq
	.cfi_endproc

	.section	__TEXT,__const
l___unnamed_2:
	.ascii	"/Users/yingyuhang/.cargo/registry/src/github.com-1ecc6299db9ec823/libc-0.2.71/src/unix/bsd/apple/mod.rs"

	.section	__DATA,__const
	.p2align	3
l___unnamed_1:
	.quad	l___unnamed_2
	.asciz	"g\000\000\000\000\000\000\000v\f\000\000\r\000\000"

	.section	__TEXT,__const
	.p2align	4
_str.0:
	.ascii	"attempt to add with overflow"

	.globl	__ZN77_$LT$libc..unix..bsd..apple..sockaddr_inarp$u20$as$u20$core..clone..Clone$GT$5clone17h5e762ff5c9e4030bE
.set __ZN77_$LT$libc..unix..bsd..apple..sockaddr_inarp$u20$as$u20$core..clone..Clone$GT$5clone17h5e762ff5c9e4030bE, __ZN66_$LT$libc..unix..align..in6_addr$u20$as$u20$core..clone..Clone$GT$5clone17h5b7cac318480e3bcE
	.globl	__ZN85_$LT$libc..unix..bsd..apple..b64..__darwin_mmst_reg$u20$as$u20$core..clone..Clone$GT$5clone17h41312545f339042bE
.set __ZN85_$LT$libc..unix..bsd..apple..b64..__darwin_mmst_reg$u20$as$u20$core..clone..Clone$GT$5clone17h41312545f339042bE, __ZN64_$LT$libc..unix..bsd..sockaddr$u20$as$u20$core..clone..Clone$GT$5clone17hc53b575e820677dbE
	.globl	__ZN84_$LT$libc..unix..bsd..apple..b64..__darwin_xmm_reg$u20$as$u20$core..clone..Clone$GT$5clone17hfc68b5573c1bbc33E
.set __ZN84_$LT$libc..unix..bsd..apple..b64..__darwin_xmm_reg$u20$as$u20$core..clone..Clone$GT$5clone17hfc68b5573c1bbc33E, __ZN64_$LT$libc..unix..bsd..sockaddr$u20$as$u20$core..clone..Clone$GT$5clone17hc53b575e820677dbE
	.globl	__ZN74_$LT$libc..unix..bsd..apple..sockaddr_in$u20$as$u20$core..clone..Clone$GT$5clone17h3ae572e5292b203aE
.set __ZN74_$LT$libc..unix..bsd..apple..sockaddr_in$u20$as$u20$core..clone..Clone$GT$5clone17h3ae572e5292b203aE, __ZN66_$LT$libc..unix..align..in6_addr$u20$as$u20$core..clone..Clone$GT$5clone17h5b7cac318480e3bcE
	.globl	__ZN62_$LT$libc..unix..bsd..fsid_t$u20$as$u20$core..clone..Clone$GT$5clone17hc14e7e1d4b70834eE
.set __ZN62_$LT$libc..unix..bsd..fsid_t$u20$as$u20$core..clone..Clone$GT$5clone17hc14e7e1d4b70834eE, __ZN57_$LT$libc..unix..pollfd$u20$as$u20$core..clone..Clone$GT$5clone17h419d4d46faad2bacE
	.globl	__ZN70_$LT$libc..unix..bsd..apple..ip_mreq$u20$as$u20$core..clone..Clone$GT$5clone17hff4e73bd4f3e6489E
.set __ZN70_$LT$libc..unix..bsd..apple..ip_mreq$u20$as$u20$core..clone..Clone$GT$5clone17hff4e73bd4f3e6489E, __ZN57_$LT$libc..unix..pollfd$u20$as$u20$core..clone..Clone$GT$5clone17h419d4d46faad2bacE
	.globl	__ZN69_$LT$libc..unix..bsd..apple..arphdr$u20$as$u20$core..clone..Clone$GT$5clone17hfee52adcbe756e71E
.set __ZN69_$LT$libc..unix..bsd..apple..arphdr$u20$as$u20$core..clone..Clone$GT$5clone17hfee52adcbe756e71E, __ZN58_$LT$libc..unix..winsize$u20$as$u20$core..clone..Clone$GT$5clone17hdac7a8d9f093c33cE
	.globl	__ZN68_$LT$libc..unix..bsd..apple..semun$u20$as$u20$core..clone..Clone$GT$5clone17h2755bb01c18a8970E
.set __ZN68_$LT$libc..unix..bsd..apple..semun$u20$as$u20$core..clone..Clone$GT$5clone17h2755bb01c18a8970E, __ZN57_$LT$libc..unix..sigval$u20$as$u20$core..clone..Clone$GT$5clone17hf68c74623d023860E
	.globl	__ZN58_$LT$libc..unix..hostent$u20$as$u20$core..clone..Clone$GT$5clone17hda438f4e62dbdab0E
.set __ZN58_$LT$libc..unix..hostent$u20$as$u20$core..clone..Clone$GT$5clone17hda438f4e62dbdab0E, __ZN54_$LT$libc..unix..tms$u20$as$u20$core..clone..Clone$GT$5clone17h1bbda6145b173674E
	.globl	__ZN60_$LT$libc..unix..itimerval$u20$as$u20$core..clone..Clone$GT$5clone17hc94760f7decd10b4E
.set __ZN60_$LT$libc..unix..itimerval$u20$as$u20$core..clone..Clone$GT$5clone17hc94760f7decd10b4E, __ZN54_$LT$libc..unix..tms$u20$as$u20$core..clone..Clone$GT$5clone17h1bbda6145b173674E
	.globl	__ZN56_$LT$libc..unix..group$u20$as$u20$core..clone..Clone$GT$5clone17h9019fa8bfe70e6d9E
.set __ZN56_$LT$libc..unix..group$u20$as$u20$core..clone..Clone$GT$5clone17h9019fa8bfe70e6d9E, __ZN54_$LT$libc..unix..tms$u20$as$u20$core..clone..Clone$GT$5clone17h1bbda6145b173674E
	.globl	__ZN58_$LT$libc..unix..servent$u20$as$u20$core..clone..Clone$GT$5clone17h28f185323f905cf1E
.set __ZN58_$LT$libc..unix..servent$u20$as$u20$core..clone..Clone$GT$5clone17h28f185323f905cf1E, __ZN54_$LT$libc..unix..tms$u20$as$u20$core..clone..Clone$GT$5clone17h1bbda6145b173674E
	.globl	__ZN63_$LT$libc..unix..bsd..ifaddrs$u20$as$u20$core..clone..Clone$GT$5clone17he3073e618bd75b43E
.set __ZN63_$LT$libc..unix..bsd..ifaddrs$u20$as$u20$core..clone..Clone$GT$5clone17he3073e618bd75b43E, __ZN58_$LT$libc..unix..bsd..tm$u20$as$u20$core..clone..Clone$GT$5clone17hd18a760e202f0e64E
	.globl	__ZN63_$LT$libc..unix..bsd..regex_t$u20$as$u20$core..clone..Clone$GT$5clone17h3c2405f6ab0e62fcE
.set __ZN63_$LT$libc..unix..bsd..regex_t$u20$as$u20$core..clone..Clone$GT$5clone17h3c2405f6ab0e62fcE, __ZN54_$LT$libc..unix..tms$u20$as$u20$core..clone..Clone$GT$5clone17h1bbda6145b173674E
	.globl	__ZN71_$LT$libc..unix..bsd..apple..addrinfo$u20$as$u20$core..clone..Clone$GT$5clone17h7efaaa36fc61e119E
.set __ZN71_$LT$libc..unix..bsd..apple..addrinfo$u20$as$u20$core..clone..Clone$GT$5clone17h7efaaa36fc61e119E, __ZN62_$LT$libc..unix..bsd..msghdr$u20$as$u20$core..clone..Clone$GT$5clone17h7ce4ae6d2579a53eE
	.globl	__ZN67_$LT$libc..unix..bsd..apple..stat$u20$as$u20$core..clone..Clone$GT$5clone17h33a014daa5e36fa4E
.set __ZN67_$LT$libc..unix..bsd..apple..stat$u20$as$u20$core..clone..Clone$GT$5clone17h33a014daa5e36fa4E, __ZN57_$LT$libc..unix..rusage$u20$as$u20$core..clone..Clone$GT$5clone17hd5505df312510f3cE
	.globl	__ZN82_$LT$libc..unix..bsd..apple..pthread_mutexattr_t$u20$as$u20$core..clone..Clone$GT$5clone17h18368a487a96d56aE
.set __ZN82_$LT$libc..unix..bsd..apple..pthread_mutexattr_t$u20$as$u20$core..clone..Clone$GT$5clone17h18368a487a96d56aE, __ZN72_$LT$libc..unix..bsd..apple..sigaction$u20$as$u20$core..clone..Clone$GT$5clone17h12e84f1a7219cf04E
	.globl	__ZN83_$LT$libc..unix..bsd..apple..pthread_rwlockattr_t$u20$as$u20$core..clone..Clone$GT$5clone17he8e1b4cb4828aaa2E
.set __ZN83_$LT$libc..unix..bsd..apple..pthread_rwlockattr_t$u20$as$u20$core..clone..Clone$GT$5clone17he8e1b4cb4828aaa2E, __ZN59_$LT$libc..unix..protoent$u20$as$u20$core..clone..Clone$GT$5clone17hb0375c4da3eb7d70E
	.globl	__ZN81_$LT$libc..unix..bsd..apple..pthread_condattr_t$u20$as$u20$core..clone..Clone$GT$5clone17h3a04badcb4ee2dcbE
.set __ZN81_$LT$libc..unix..bsd..apple..pthread_condattr_t$u20$as$u20$core..clone..Clone$GT$5clone17h3a04badcb4ee2dcbE, __ZN72_$LT$libc..unix..bsd..apple..sigaction$u20$as$u20$core..clone..Clone$GT$5clone17h12e84f1a7219cf04E
	.globl	__ZN70_$LT$libc..unix..bsd..apple..stack_t$u20$as$u20$core..clone..Clone$GT$5clone17he3bd2debb2c86be2E
.set __ZN70_$LT$libc..unix..bsd..apple..stack_t$u20$as$u20$core..clone..Clone$GT$5clone17he3bd2debb2c86be2E, __ZN59_$LT$libc..unix..protoent$u20$as$u20$core..clone..Clone$GT$5clone17hb0375c4da3eb7d70E
	.globl	__ZN71_$LT$libc..unix..bsd..apple..fstore_t$u20$as$u20$core..clone..Clone$GT$5clone17h1e80f6c3292f0ea6E
.set __ZN71_$LT$libc..unix..bsd..apple..fstore_t$u20$as$u20$core..clone..Clone$GT$5clone17h1e80f6c3292f0ea6E, __ZN54_$LT$libc..unix..tms$u20$as$u20$core..clone..Clone$GT$5clone17h1bbda6145b173674E
	.globl	__ZN70_$LT$libc..unix..bsd..apple..Dl_info$u20$as$u20$core..clone..Clone$GT$5clone17h6aa1cfac3f8f1540E
.set __ZN70_$LT$libc..unix..bsd..apple..Dl_info$u20$as$u20$core..clone..Clone$GT$5clone17h6aa1cfac3f8f1540E, __ZN54_$LT$libc..unix..tms$u20$as$u20$core..clone..Clone$GT$5clone17h1bbda6145b173674E
	.globl	__ZN73_$LT$libc..unix..bsd..apple..kevent64_s$u20$as$u20$core..clone..Clone$GT$5clone17hcfb31e64ea9e2a73E
.set __ZN73_$LT$libc..unix..bsd..apple..kevent64_s$u20$as$u20$core..clone..Clone$GT$5clone17hcfb31e64ea9e2a73E, __ZN62_$LT$libc..unix..bsd..msghdr$u20$as$u20$core..clone..Clone$GT$5clone17h7ce4ae6d2579a53eE
	.globl	__ZN70_$LT$libc..unix..bsd..apple..statvfs$u20$as$u20$core..clone..Clone$GT$5clone17h1d27233bc2d85fbbE
.set __ZN70_$LT$libc..unix..bsd..apple..statvfs$u20$as$u20$core..clone..Clone$GT$5clone17h1d27233bc2d85fbbE, __ZN68_$LT$libc..unix..bsd..apple..dqblk$u20$as$u20$core..clone..Clone$GT$5clone17he85b3ee414004488E
	.globl	__ZN70_$LT$libc..unix..bsd..apple..termios$u20$as$u20$core..clone..Clone$GT$5clone17h39dcaa60abbd5ba9E
.set __ZN70_$LT$libc..unix..bsd..apple..termios$u20$as$u20$core..clone..Clone$GT$5clone17h39dcaa60abbd5ba9E, __ZN62_$LT$libc..unix..bsd..passwd$u20$as$u20$core..clone..Clone$GT$5clone17h3c394fdb411078ecE
	.globl	__ZN68_$LT$libc..unix..bsd..apple..flock$u20$as$u20$core..clone..Clone$GT$5clone17h4a7883294c8b7807E
.set __ZN68_$LT$libc..unix..bsd..apple..flock$u20$as$u20$core..clone..Clone$GT$5clone17h4a7883294c8b7807E, __ZN59_$LT$libc..unix..protoent$u20$as$u20$core..clone..Clone$GT$5clone17hb0375c4da3eb7d70E
	.globl	__ZN70_$LT$libc..unix..bsd..apple..sf_hdtr$u20$as$u20$core..clone..Clone$GT$5clone17h55c8fbac3e1d1595E
.set __ZN70_$LT$libc..unix..bsd..apple..sf_hdtr$u20$as$u20$core..clone..Clone$GT$5clone17h55c8fbac3e1d1595E, __ZN54_$LT$libc..unix..tms$u20$as$u20$core..clone..Clone$GT$5clone17h1bbda6145b173674E
	.globl	__ZN76_$LT$libc..unix..bsd..apple..proc_taskinfo$u20$as$u20$core..clone..Clone$GT$5clone17hf0a3f37cfc5f43d9E
.set __ZN76_$LT$libc..unix..bsd..apple..proc_taskinfo$u20$as$u20$core..clone..Clone$GT$5clone17hf0a3f37cfc5f43d9E, __ZN68_$LT$libc..unix..bsd..apple..lconv$u20$as$u20$core..clone..Clone$GT$5clone17h878089e9a79b5361E
	.globl	__ZN72_$LT$libc..unix..bsd..apple..xsw_usage$u20$as$u20$core..clone..Clone$GT$5clone17hd7fac9b86c7eb523E
.set __ZN72_$LT$libc..unix..bsd..apple..xsw_usage$u20$as$u20$core..clone..Clone$GT$5clone17hd7fac9b86c7eb523E, __ZN54_$LT$libc..unix..tms$u20$as$u20$core..clone..Clone$GT$5clone17h1bbda6145b173674E
	.globl	__ZN81_$LT$libc..unix..bsd..apple..segment_command_64$u20$as$u20$core..clone..Clone$GT$5clone17h71c949cf049d2f4dE
.set __ZN81_$LT$libc..unix..bsd..apple..segment_command_64$u20$as$u20$core..clone..Clone$GT$5clone17h71c949cf049d2f4dE, __ZN62_$LT$libc..unix..bsd..passwd$u20$as$u20$core..clone..Clone$GT$5clone17h3c394fdb411078ecE
	.globl	__ZN73_$LT$libc..unix..bsd..apple..in_pktinfo$u20$as$u20$core..clone..Clone$GT$5clone17hc874b3432b571107E
.set __ZN73_$LT$libc..unix..bsd..apple..in_pktinfo$u20$as$u20$core..clone..Clone$GT$5clone17hc874b3432b571107E, __ZN63_$LT$libc..unix..bsd..cmsghdr$u20$as$u20$core..clone..Clone$GT$5clone17h98ebbf04e7e389d2E
	.globl	__ZN74_$LT$libc..unix..bsd..apple..in6_pktinfo$u20$as$u20$core..clone..Clone$GT$5clone17h011e98fd33e4af9bE
.set __ZN74_$LT$libc..unix..bsd..apple..in6_pktinfo$u20$as$u20$core..clone..Clone$GT$5clone17h011e98fd33e4af9bE, __ZN60_$LT$libc..unix..ipv6_mreq$u20$as$u20$core..clone..Clone$GT$5clone17hf758ed72b77481c3E
	.globl	__ZN75_$LT$libc..unix..bsd..apple..proc_bsdinfo$u20$as$u20$core..clone..Clone$GT$5clone17h7f2d0ccc8433b83fE
.set __ZN75_$LT$libc..unix..bsd..apple..proc_bsdinfo$u20$as$u20$core..clone..Clone$GT$5clone17h7f2d0ccc8433b83fE, __ZN68_$LT$libc..unix..bsd..apple..timex$u20$as$u20$core..clone..Clone$GT$5clone17h07c806d1d19805c9E
	.globl	__ZN73_$LT$libc..unix..bsd..apple..ntptimeval$u20$as$u20$core..clone..Clone$GT$5clone17ha5782c4984b3afb7E
.set __ZN73_$LT$libc..unix..bsd..apple..ntptimeval$u20$as$u20$core..clone..Clone$GT$5clone17ha5782c4984b3afb7E, __ZN62_$LT$libc..unix..bsd..msghdr$u20$as$u20$core..clone..Clone$GT$5clone17h7ce4ae6d2579a53eE
	.globl	__ZN77_$LT$libc..unix..bsd..apple..mach_header_64$u20$as$u20$core..clone..Clone$GT$5clone17h92023f2837cea7d5E
.set __ZN77_$LT$libc..unix..bsd..apple..mach_header_64$u20$as$u20$core..clone..Clone$GT$5clone17h92023f2837cea7d5E, __ZN69_$LT$libc..unix..bsd..apple..kevent$u20$as$u20$core..clone..Clone$GT$5clone17h48cb02fa0d7e45ebE
	.globl	__ZN71_$LT$libc..unix..bsd..apple..shmid_ds$u20$as$u20$core..clone..Clone$GT$5clone17hc4249e7e7a83ab80E
.set __ZN71_$LT$libc..unix..bsd..apple..shmid_ds$u20$as$u20$core..clone..Clone$GT$5clone17hc4249e7e7a83ab80E, __ZN69_$LT$libc..unix..bsd..apple..xucred$u20$as$u20$core..clone..Clone$GT$5clone17hfc5dae3521aa917dE
	.globl	__ZN78_$LT$libc..unix..bsd..apple..pthread_mutex_t$u20$as$u20$core..clone..Clone$GT$5clone17h004a78202a93436fE
.set __ZN78_$LT$libc..unix..bsd..apple..pthread_mutex_t$u20$as$u20$core..clone..Clone$GT$5clone17h004a78202a93436fE, __ZN68_$LT$libc..unix..bsd..apple..dqblk$u20$as$u20$core..clone..Clone$GT$5clone17he85b3ee414004488E
	.globl	__ZN77_$LT$libc..unix..bsd..apple..pthread_cond_t$u20$as$u20$core..clone..Clone$GT$5clone17hf948475dd70cb09dE
.set __ZN77_$LT$libc..unix..bsd..apple..pthread_cond_t$u20$as$u20$core..clone..Clone$GT$5clone17hf948475dd70cb09dE, __ZN62_$LT$libc..unix..bsd..msghdr$u20$as$u20$core..clone..Clone$GT$5clone17h7ce4ae6d2579a53eE
	.globl	__ZN71_$LT$libc..unix..bsd..apple..sigevent$u20$as$u20$core..clone..Clone$GT$5clone17hb27b2b07a3583cb1E
.set __ZN71_$LT$libc..unix..bsd..apple..sigevent$u20$as$u20$core..clone..Clone$GT$5clone17hb27b2b07a3583cb1E, __ZN54_$LT$libc..unix..tms$u20$as$u20$core..clone..Clone$GT$5clone17h1bbda6145b173674E
	.globl	__ZN75_$LT$libc..unix..bsd..apple..b64..bpf_hdr$u20$as$u20$core..clone..Clone$GT$5clone17h03e88481d68a132bE
.set __ZN75_$LT$libc..unix..bsd..apple..b64..bpf_hdr$u20$as$u20$core..clone..Clone$GT$5clone17h03e88481d68a132bE, __ZN60_$LT$libc..unix..ipv6_mreq$u20$as$u20$core..clone..Clone$GT$5clone17hf758ed72b77481c3E
	.globl	__ZN78_$LT$libc..unix..bsd..apple..b64..ucontext_t$u20$as$u20$core..clone..Clone$GT$5clone17hab845a5ba7b3e9bcE
.set __ZN78_$LT$libc..unix..bsd..apple..b64..ucontext_t$u20$as$u20$core..clone..Clone$GT$5clone17hab845a5ba7b3e9bcE, __ZN58_$LT$libc..unix..bsd..tm$u20$as$u20$core..clone..Clone$GT$5clone17hd18a760e202f0e64E
	.globl	__ZN98_$LT$libc..unix..bsd..apple..b64..__darwin_x86_exception_state64$u20$as$u20$core..clone..Clone$GT$5clone17h801070d49df69c5eE
.set __ZN98_$LT$libc..unix..bsd..apple..b64..__darwin_x86_exception_state64$u20$as$u20$core..clone..Clone$GT$5clone17h801070d49df69c5eE, __ZN72_$LT$libc..unix..bsd..apple..sigaction$u20$as$u20$core..clone..Clone$GT$5clone17h12e84f1a7219cf04E
	.globl	__ZN82_$LT$libc..unix..bsd..apple..b64..pthread_attr_t$u20$as$u20$core..clone..Clone$GT$5clone17h3373c6f65a00b89dE
.set __ZN82_$LT$libc..unix..bsd..apple..b64..pthread_attr_t$u20$as$u20$core..clone..Clone$GT$5clone17h3373c6f65a00b89dE, __ZN68_$LT$libc..unix..bsd..apple..dqblk$u20$as$u20$core..clone..Clone$GT$5clone17he85b3ee414004488E
	.globl	__ZN55_$LT$libc..unix..FILE$u20$as$u20$core..clone..Clone$GT$5clone17h596223203610f1c3E
.set __ZN55_$LT$libc..unix..FILE$u20$as$u20$core..clone..Clone$GT$5clone17h596223203610f1c3E, __ZN54_$LT$libc..unix..DIR$u20$as$u20$core..clone..Clone$GT$5clone17hcbe7046851722c8eE
	.globl	__ZN57_$LT$libc..unix..fpos_t$u20$as$u20$core..clone..Clone$GT$5clone17h3f266c5cfaf1de21E
.set __ZN57_$LT$libc..unix..fpos_t$u20$as$u20$core..clone..Clone$GT$5clone17h3f266c5cfaf1de21E, __ZN54_$LT$libc..unix..DIR$u20$as$u20$core..clone..Clone$GT$5clone17hcbe7046851722c8eE
	.globl	__ZN71_$LT$libc..unix..bsd..apple..timezone$u20$as$u20$core..clone..Clone$GT$5clone17h411b6ce93a3ffdafE
.set __ZN71_$LT$libc..unix..bsd..apple..timezone$u20$as$u20$core..clone..Clone$GT$5clone17h411b6ce93a3ffdafE, __ZN54_$LT$libc..unix..DIR$u20$as$u20$core..clone..Clone$GT$5clone17hcbe7046851722c8eE
	.globl	__ZN59_$LT$libc..unix..timespec$u20$as$u20$core..clone..Clone$GT$5clone17h76e0903226980b35E
.set __ZN59_$LT$libc..unix..timespec$u20$as$u20$core..clone..Clone$GT$5clone17h76e0903226980b35E, __ZN56_$LT$libc..unix..iovec$u20$as$u20$core..clone..Clone$GT$5clone17hb3c76e25644e5193E
	.globl	__ZN58_$LT$libc..unix..utimbuf$u20$as$u20$core..clone..Clone$GT$5clone17h6ace2853b74b544cE
.set __ZN58_$LT$libc..unix..utimbuf$u20$as$u20$core..clone..Clone$GT$5clone17h6ace2853b74b544cE, __ZN56_$LT$libc..unix..iovec$u20$as$u20$core..clone..Clone$GT$5clone17hb3c76e25644e5193E
	.globl	__ZN57_$LT$libc..unix..rlimit$u20$as$u20$core..clone..Clone$GT$5clone17h122315ff8fc0b2d2E
.set __ZN57_$LT$libc..unix..rlimit$u20$as$u20$core..clone..Clone$GT$5clone17h122315ff8fc0b2d2E, __ZN56_$LT$libc..unix..iovec$u20$as$u20$core..clone..Clone$GT$5clone17hb3c76e25644e5193E
	.globl	__ZN66_$LT$libc..unix..bsd..regmatch_t$u20$as$u20$core..clone..Clone$GT$5clone17h5fbdbc869e33bc75E
.set __ZN66_$LT$libc..unix..bsd..regmatch_t$u20$as$u20$core..clone..Clone$GT$5clone17h5fbdbc869e33bc75E, __ZN56_$LT$libc..unix..iovec$u20$as$u20$core..clone..Clone$GT$5clone17hb3c76e25644e5193E
	.globl	__ZN81_$LT$libc..unix..bsd..apple..mach_timebase_info$u20$as$u20$core..clone..Clone$GT$5clone17hd8cc1db44e7f233fE
.set __ZN81_$LT$libc..unix..bsd..apple..mach_timebase_info$u20$as$u20$core..clone..Clone$GT$5clone17hd8cc1db44e7f233fE, __ZN57_$LT$libc..unix..linger$u20$as$u20$core..clone..Clone$GT$5clone17h7bc2032c9460050fE
	.globl	__ZN72_$LT$libc..unix..bsd..apple..radvisory$u20$as$u20$core..clone..Clone$GT$5clone17heef7ffa82a13f1beE
.set __ZN72_$LT$libc..unix..bsd..apple..radvisory$u20$as$u20$core..clone..Clone$GT$5clone17heef7ffa82a13f1beE, __ZN58_$LT$libc..unix..timeval$u20$as$u20$core..clone..Clone$GT$5clone17h42341af37b7c7367E
	.globl	__ZN75_$LT$libc..unix..bsd..apple..load_command$u20$as$u20$core..clone..Clone$GT$5clone17hcdb43a0e2bb5e1f9E
.set __ZN75_$LT$libc..unix..bsd..apple..load_command$u20$as$u20$core..clone..Clone$GT$5clone17hcdb43a0e2bb5e1f9E, __ZN57_$LT$libc..unix..linger$u20$as$u20$core..clone..Clone$GT$5clone17h7bc2032c9460050fE
	.globl	__ZN77_$LT$libc..unix..bsd..apple..b64..timeval32$u20$as$u20$core..clone..Clone$GT$5clone17ha5c6fdcf73ca3478E
.set __ZN77_$LT$libc..unix..bsd..apple..b64..timeval32$u20$as$u20$core..clone..Clone$GT$5clone17ha5c6fdcf73ca3478E, __ZN57_$LT$libc..unix..linger$u20$as$u20$core..clone..Clone$GT$5clone17h7bc2032c9460050fE
.subsections_via_symbols
