	.section	__TEXT,__text,regular,pure_instructions
	.macosx_version_min 10, 7
	.p2align	4, 0x90
__ZN10rayon_core4join12join_context28_$u7b$$u7b$closure$u7d$$u7d$17h041385a07b035670E:
Lfunc_begin0:
	.cfi_startproc
	.cfi_personality 155, _rust_eh_personality
	.cfi_lsda 16, Lexception0
	pushq	%rbp
	.cfi_def_cfa_offset 16
	.cfi_offset %rbp, -16
	movq	%rsp, %rbp
	.cfi_def_cfa_register %rbp
	pushq	%r15
	pushq	%r14
	pushq	%r13
	pushq	%r12
	pushq	%rbx
	subq	$184, %rsp
	.cfi_offset %rbx, -56
	.cfi_offset %r12, -48
	.cfi_offset %r13, -40
	.cfi_offset %r14, -32
	.cfi_offset %r15, -24
	movq	%rsi, %rbx
	movq	%rdi, %r15
	vmovups	(%rdi), %ymm0
	vmovups	16(%rdi), %ymm1
	vmovups	%ymm1, -112(%rbp)
	vmovups	%ymm0, -128(%rbp)
	movb	$0, -56(%rbp)
	movq	$0, -80(%rbp)
	movq	256(%rsi), %rax
	movq	264(%rax), %r14
	movq	256(%rax), %rax
	movq	272(%rsi), %rsi
	movq	%r14, %rcx
	subq	%rax, %rcx
	cmpq	%rsi, %rcx
	movl	%edx, -44(%rbp)
	jl	LBB0_4
	addq	%rsi, %rsi
	jb	LBB0_7
	leaq	256(%rbx), %rdi
Ltmp0:
	vzeroupper
	callq	__ZN15crossbeam_deque15Worker$LT$T$GT$6resize17h34dc55adb45f7cc1E
Ltmp1:
	movq	272(%rbx), %rsi
LBB0_4:
	subq	$1, %rsi
	jb	LBB0_5
	movq	264(%rbx), %rax
	andq	%r14, %rsi
	shlq	$4, %rsi
	leaq	-128(%rbp), %r12
	movq	%r12, (%rax,%rsi)
	leaq	__ZN83_$LT$rayon_core..job..StackJob$LT$L$C$F$C$R$GT$$u20$as$u20$rayon_core..job..Job$GT$7execute17h3b384fef557a344aE(%rip), %r13
	movq	%r13, 8(%rax,%rsi)
	##MEMBARRIER
	movq	256(%rbx), %rax
	incq	%r14
	movq	%r14, 264(%rax)
	movl	$408, %edi
	addq	304(%rbx), %rdi
	movq	288(%rbx), %rsi
Ltmp4:
	vzeroupper
	callq	__ZN10rayon_core5sleep5Sleep6tickle17h00d06f732555dc32E
Ltmp5:
	movq	48(%r15), %rax
	movq	56(%r15), %rcx
	movq	64(%r15), %r8
	movq	72(%r15), %r9
	movq	80(%r15), %rsi
	movq	(%rax), %rdi
	movq	(%rcx), %rdx
	movq	8(%rcx), %rcx
Ltmp6:
	movq	%rsi, (%rsp)
	movzbl	-44(%rbp), %r14d
	movl	%r14d, %esi
	callq	__ZN5rayon4iter8plumbing24bridge_producer_consumer6helper17hed49352b02a73d05E
Ltmp7:
LBB0_12:
	leaq	-56(%rbp), %r15
	movb	-56(%rbp), %al
	testb	%al, %al
	je	LBB0_14
	jmp	LBB0_18
	.p2align	4, 0x90
LBB0_23:
Ltmp16:
	movq	%rbx, %rdi
	movq	%rax, %rsi
	callq	__ZN10rayon_core8registry12WorkerThread7execute17h2d3f3a8dd2af2716E
Ltmp17:
	movzbl	-56(%rbp), %eax
	testb	%al, %al
	jne	LBB0_18
LBB0_14:
Ltmp14:
	movq	%rbx, %rdi
	callq	__ZN10rayon_core8registry12WorkerThread14take_local_job17h123bfb54be8597fdE
Ltmp15:
	testq	%rdx, %rdx
	je	LBB0_16
	cmpq	%r12, %rax
	jne	LBB0_23
	cmpq	%r13, %rdx
	jne	LBB0_23
	vmovups	-128(%rbp), %ymm0
	vmovups	-96(%rbp), %ymm1
	vmovups	-80(%rbp), %ymm2
	vmovups	%ymm0, -208(%rbp)
	vmovups	%ymm1, -176(%rbp)
	vmovups	%ymm2, -160(%rbp)
	movq	-208(%rbp), %rax
	testq	%rax, %rax
	je	LBB0_25
	movq	-200(%rbp), %rcx
	movq	(%rax), %rdi
	subq	(%rcx), %rdi
	jb	LBB0_27
	movq	-192(%rbp), %rax
	movq	-184(%rbp), %r8
	movq	-176(%rbp), %r9
	movq	-168(%rbp), %rsi
	movq	(%rax), %rdx
	movq	8(%rax), %rcx
Ltmp19:
	movq	%rsi, (%rsp)
	movl	%r14d, %esi
	vzeroupper
	callq	__ZN5rayon4iter8plumbing24bridge_producer_consumer6helper17hed49352b02a73d05E
Ltmp20:
	cmpq	$2, -160(%rbp)
	jb	LBB0_33
	movq	-152(%rbp), %r15
	movq	-144(%rbp), %rbx
Ltmp21:
	movq	%r15, %rdi
	callq	*(%rbx)
Ltmp22:
	movq	8(%rbx), %rsi
	testq	%rsi, %rsi
	je	LBB0_33
	movq	16(%rbx), %rdx
	movq	%r15, %rdi
	callq	___rust_dealloc
	jmp	LBB0_33
LBB0_16:
	movb	-56(%rbp), %al
	testb	%al, %al
	jne	LBB0_18
Ltmp32:
	movq	%rbx, %rdi
	movq	%r15, %rsi
	callq	__ZN10rayon_core8registry12WorkerThread15wait_until_cold17hf0fae827bbf09742E
Ltmp33:
LBB0_18:
	movq	-80(%rbp), %rax
	cmpq	$1, %rax
	jne	LBB0_19
LBB0_33:
	addq	$184, %rsp
	popq	%rbx
	popq	%r12
	popq	%r13
	popq	%r14
	popq	%r15
	popq	%rbp
	retq
LBB0_19:
	testq	%rax, %rax
	je	LBB0_35
	movq	-72(%rbp), %rdi
	movq	-64(%rbp), %rsi
Ltmp35:
	callq	__ZN10rayon_core6unwind16resume_unwinding17h47c2e39f90248736E
Ltmp36:
	jmp	LBB0_6
LBB0_5:
Ltmp40:
	leaq	_str.1(%rip), %rdi
	leaq	l___unnamed_1(%rip), %rdx
	movl	$33, %esi
	vzeroupper
	callq	__ZN4core9panicking5panic17h736ee47a631475c0E
Ltmp41:
	jmp	LBB0_6
LBB0_35:
Ltmp37:
	leaq	l___unnamed_2(%rip), %rdi
	leaq	l___unnamed_3(%rip), %rdx
	movl	$40, %esi
	callq	__ZN3std9panicking11begin_panic17h853288e601a61dd9E
Ltmp38:
	jmp	LBB0_6
LBB0_7:
Ltmp2:
	leaq	_str.3(%rip), %rdi
	leaq	l___unnamed_4(%rip), %rdx
	movl	$33, %esi
	vzeroupper
	callq	__ZN4core9panicking5panic17h736ee47a631475c0E
Ltmp3:
	jmp	LBB0_6
LBB0_25:
Ltmp26:
	leaq	l___unnamed_5(%rip), %rdi
	leaq	l___unnamed_6(%rip), %rdx
	movl	$43, %esi
	vzeroupper
	callq	__ZN4core9panicking5panic17h736ee47a631475c0E
Ltmp27:
	jmp	LBB0_6
LBB0_27:
Ltmp24:
	leaq	_str.1(%rip), %rdi
	leaq	l___unnamed_7(%rip), %rdx
	movl	$33, %esi
	vzeroupper
	callq	__ZN4core9panicking5panic17h736ee47a631475c0E
Ltmp25:
LBB0_6:
	ud2
LBB0_46:
Ltmp39:
	jmp	LBB0_40
LBB0_38:
Ltmp34:
	jmp	LBB0_45
LBB0_36:
Ltmp23:
	movq	%rax, %r14
	movq	%r15, %rdi
	movq	%rbx, %rsi
	callq	__ZN5alloc5alloc8box_free17h601baa71c821b98cE
	movq	%r14, %rdi
	callq	__Unwind_Resume
	ud2
LBB0_34:
Ltmp28:
	movq	%rax, %r14
	leaq	-160(%rbp), %rdi
Ltmp29:
	callq	__ZN4core3ptr13drop_in_place17hf1c6e0d6c6000ae2E
Ltmp30:
	jmp	LBB0_41
LBB0_39:
Ltmp31:
LBB0_40:
	movq	%rax, %r14
	movq	%r14, %rdi
	callq	__Unwind_Resume
	ud2
LBB0_10:
Ltmp8:
Ltmp9:
	movq	%rax, %rdi
	callq	__ZN3std9panicking3try7cleanup17hd895f7beef0a7dadE
Ltmp10:
	testq	%rax, %rax
	je	LBB0_12
	movq	%rdx, %rcx
	leaq	-56(%rbp), %rsi
Ltmp11:
	movq	%rbx, %rdi
	movq	%rax, %rdx
	callq	__ZN10rayon_core4join23join_recover_from_panic17h65e0dcb6d5862f08E
Ltmp12:
	jmp	LBB0_6
LBB0_44:
Ltmp13:
	jmp	LBB0_45
LBB0_42:
Ltmp42:
	jmp	LBB0_45
LBB0_37:
Ltmp18:
LBB0_45:
	movq	%rax, %r14
	leaq	-128(%rbp), %rdi
	callq	__ZN4core3ptr13drop_in_place17h15e4c257c89b0e89E
LBB0_41:
	movq	%r14, %rdi
	callq	__Unwind_Resume
	ud2
Lfunc_end0:
	.cfi_endproc
	.section	__TEXT,__gcc_except_tab
	.p2align	2
GCC_except_table0:
Lexception0:
	.byte	255
	.byte	155
	.uleb128 Lttbase0-Lttbaseref0
Lttbaseref0:
	.byte	1
	.uleb128 Lcst_end0-Lcst_begin0
Lcst_begin0:
	.uleb128 Ltmp0-Lfunc_begin0
	.uleb128 Ltmp5-Ltmp0
	.uleb128 Ltmp42-Lfunc_begin0
	.byte	0
	.uleb128 Ltmp6-Lfunc_begin0
	.uleb128 Ltmp7-Ltmp6
	.uleb128 Ltmp8-Lfunc_begin0
	.byte	3
	.uleb128 Ltmp16-Lfunc_begin0
	.uleb128 Ltmp15-Ltmp16
	.uleb128 Ltmp18-Lfunc_begin0
	.byte	0
	.uleb128 Ltmp19-Lfunc_begin0
	.uleb128 Ltmp20-Ltmp19
	.uleb128 Ltmp28-Lfunc_begin0
	.byte	0
	.uleb128 Ltmp21-Lfunc_begin0
	.uleb128 Ltmp22-Ltmp21
	.uleb128 Ltmp23-Lfunc_begin0
	.byte	0
	.uleb128 Ltmp32-Lfunc_begin0
	.uleb128 Ltmp33-Ltmp32
	.uleb128 Ltmp34-Lfunc_begin0
	.byte	0
	.uleb128 Ltmp35-Lfunc_begin0
	.uleb128 Ltmp36-Ltmp35
	.uleb128 Ltmp39-Lfunc_begin0
	.byte	0
	.uleb128 Ltmp40-Lfunc_begin0
	.uleb128 Ltmp41-Ltmp40
	.uleb128 Ltmp42-Lfunc_begin0
	.byte	0
	.uleb128 Ltmp37-Lfunc_begin0
	.uleb128 Ltmp38-Ltmp37
	.uleb128 Ltmp39-Lfunc_begin0
	.byte	0
	.uleb128 Ltmp2-Lfunc_begin0
	.uleb128 Ltmp3-Ltmp2
	.uleb128 Ltmp42-Lfunc_begin0
	.byte	0
	.uleb128 Ltmp26-Lfunc_begin0
	.uleb128 Ltmp25-Ltmp26
	.uleb128 Ltmp28-Lfunc_begin0
	.byte	0
	.uleb128 Ltmp25-Lfunc_begin0
	.uleb128 Ltmp29-Ltmp25
	.byte	0
	.byte	0
	.uleb128 Ltmp29-Lfunc_begin0
	.uleb128 Ltmp30-Ltmp29
	.uleb128 Ltmp31-Lfunc_begin0
	.byte	0
	.uleb128 Ltmp30-Lfunc_begin0
	.uleb128 Ltmp9-Ltmp30
	.byte	0
	.byte	0
	.uleb128 Ltmp9-Lfunc_begin0
	.uleb128 Ltmp10-Ltmp9
	.uleb128 Ltmp42-Lfunc_begin0
	.byte	0
	.uleb128 Ltmp11-Lfunc_begin0
	.uleb128 Ltmp12-Ltmp11
	.uleb128 Ltmp13-Lfunc_begin0
	.byte	0
	.uleb128 Ltmp12-Lfunc_begin0
	.uleb128 Lfunc_end0-Ltmp12
	.byte	0
	.byte	0
Lcst_end0:
	.byte	0
	.byte	0
	.byte	1
	.byte	125
	.p2align	2
	.long	0
Lttbase0:
	.p2align	2

	.section	__TEXT,__text,regular,pure_instructions
	.p2align	4, 0x90
__ZN10rayon_core4join12join_context28_$u7b$$u7b$closure$u7d$$u7d$17h0e4d76409498170dE:
Lfunc_begin1:
	.cfi_startproc
	.cfi_personality 155, _rust_eh_personality
	.cfi_lsda 16, Lexception1
	pushq	%rbp
	.cfi_def_cfa_offset 16
	.cfi_offset %rbp, -16
	movq	%rsp, %rbp
	.cfi_def_cfa_register %rbp
	pushq	%r15
	pushq	%r14
	pushq	%r13
	pushq	%r12
	pushq	%rbx
	subq	$184, %rsp
	.cfi_offset %rbx, -56
	.cfi_offset %r12, -48
	.cfi_offset %r13, -40
	.cfi_offset %r14, -32
	.cfi_offset %r15, -24
	movq	%rsi, %rbx
	movq	%rdi, %r15
	vmovups	(%rdi), %ymm0
	vmovups	16(%rdi), %ymm1
	vmovups	%ymm1, -112(%rbp)
	vmovups	%ymm0, -128(%rbp)
	movb	$0, -56(%rbp)
	movq	$0, -80(%rbp)
	movq	256(%rsi), %rax
	movq	264(%rax), %r14
	movq	256(%rax), %rax
	movq	272(%rsi), %rsi
	movq	%r14, %rcx
	subq	%rax, %rcx
	cmpq	%rsi, %rcx
	movl	%edx, -44(%rbp)
	jl	LBB1_4
	addq	%rsi, %rsi
	jb	LBB1_7
	leaq	256(%rbx), %rdi
Ltmp43:
	vzeroupper
	callq	__ZN15crossbeam_deque15Worker$LT$T$GT$6resize17h34dc55adb45f7cc1E
Ltmp44:
	movq	272(%rbx), %rsi
LBB1_4:
	subq	$1, %rsi
	jb	LBB1_5
	movq	264(%rbx), %rax
	andq	%r14, %rsi
	shlq	$4, %rsi
	leaq	-128(%rbp), %r12
	movq	%r12, (%rax,%rsi)
	leaq	__ZN83_$LT$rayon_core..job..StackJob$LT$L$C$F$C$R$GT$$u20$as$u20$rayon_core..job..Job$GT$7execute17had42af0063276cb6E(%rip), %r13
	movq	%r13, 8(%rax,%rsi)
	##MEMBARRIER
	movq	256(%rbx), %rax
	incq	%r14
	movq	%r14, 264(%rax)
	movl	$408, %edi
	addq	304(%rbx), %rdi
	movq	288(%rbx), %rsi
Ltmp47:
	vzeroupper
	callq	__ZN10rayon_core5sleep5Sleep6tickle17h00d06f732555dc32E
Ltmp48:
	movq	48(%r15), %rax
	movq	56(%r15), %rcx
	movq	64(%r15), %r8
	movq	72(%r15), %r9
	movq	80(%r15), %rsi
	movq	(%rax), %rdi
	movq	(%rcx), %rdx
	movq	8(%rcx), %rcx
Ltmp49:
	movq	%rsi, (%rsp)
	movzbl	-44(%rbp), %r14d
	movl	%r14d, %esi
	callq	__ZN5rayon4iter8plumbing24bridge_producer_consumer6helper17hd00cebf084920e92E
Ltmp50:
LBB1_12:
	leaq	-56(%rbp), %r15
	movb	-56(%rbp), %al
	testb	%al, %al
	je	LBB1_14
	jmp	LBB1_18
	.p2align	4, 0x90
LBB1_23:
Ltmp59:
	movq	%rbx, %rdi
	movq	%rax, %rsi
	callq	__ZN10rayon_core8registry12WorkerThread7execute17h2d3f3a8dd2af2716E
Ltmp60:
	movzbl	-56(%rbp), %eax
	testb	%al, %al
	jne	LBB1_18
LBB1_14:
Ltmp57:
	movq	%rbx, %rdi
	callq	__ZN10rayon_core8registry12WorkerThread14take_local_job17h123bfb54be8597fdE
Ltmp58:
	testq	%rdx, %rdx
	je	LBB1_16
	cmpq	%r12, %rax
	jne	LBB1_23
	cmpq	%r13, %rdx
	jne	LBB1_23
	vmovups	-128(%rbp), %ymm0
	vmovups	-96(%rbp), %ymm1
	vmovups	-80(%rbp), %ymm2
	vmovups	%ymm0, -208(%rbp)
	vmovups	%ymm1, -176(%rbp)
	vmovups	%ymm2, -160(%rbp)
	movq	-208(%rbp), %rax
	testq	%rax, %rax
	je	LBB1_25
	movq	-200(%rbp), %rcx
	movq	(%rax), %rdi
	subq	(%rcx), %rdi
	jb	LBB1_27
	movq	-192(%rbp), %rax
	movq	-184(%rbp), %r8
	movq	-176(%rbp), %r9
	movq	-168(%rbp), %rsi
	movq	(%rax), %rdx
	movq	8(%rax), %rcx
Ltmp62:
	movq	%rsi, (%rsp)
	movl	%r14d, %esi
	vzeroupper
	callq	__ZN5rayon4iter8plumbing24bridge_producer_consumer6helper17hd00cebf084920e92E
Ltmp63:
	cmpq	$2, -160(%rbp)
	jb	LBB1_33
	movq	-152(%rbp), %r15
	movq	-144(%rbp), %rbx
Ltmp64:
	movq	%r15, %rdi
	callq	*(%rbx)
Ltmp65:
	movq	8(%rbx), %rsi
	testq	%rsi, %rsi
	je	LBB1_33
	movq	16(%rbx), %rdx
	movq	%r15, %rdi
	callq	___rust_dealloc
	jmp	LBB1_33
LBB1_16:
	movb	-56(%rbp), %al
	testb	%al, %al
	jne	LBB1_18
Ltmp75:
	movq	%rbx, %rdi
	movq	%r15, %rsi
	callq	__ZN10rayon_core8registry12WorkerThread15wait_until_cold17hf0fae827bbf09742E
Ltmp76:
LBB1_18:
	movq	-80(%rbp), %rax
	cmpq	$1, %rax
	jne	LBB1_19
LBB1_33:
	addq	$184, %rsp
	popq	%rbx
	popq	%r12
	popq	%r13
	popq	%r14
	popq	%r15
	popq	%rbp
	retq
LBB1_19:
	testq	%rax, %rax
	je	LBB1_35
	movq	-72(%rbp), %rdi
	movq	-64(%rbp), %rsi
Ltmp78:
	callq	__ZN10rayon_core6unwind16resume_unwinding17h47c2e39f90248736E
Ltmp79:
	jmp	LBB1_6
LBB1_5:
Ltmp83:
	leaq	_str.1(%rip), %rdi
	leaq	l___unnamed_1(%rip), %rdx
	movl	$33, %esi
	vzeroupper
	callq	__ZN4core9panicking5panic17h736ee47a631475c0E
Ltmp84:
	jmp	LBB1_6
LBB1_35:
Ltmp80:
	leaq	l___unnamed_2(%rip), %rdi
	leaq	l___unnamed_3(%rip), %rdx
	movl	$40, %esi
	callq	__ZN3std9panicking11begin_panic17h853288e601a61dd9E
Ltmp81:
	jmp	LBB1_6
LBB1_7:
Ltmp45:
	leaq	_str.3(%rip), %rdi
	leaq	l___unnamed_4(%rip), %rdx
	movl	$33, %esi
	vzeroupper
	callq	__ZN4core9panicking5panic17h736ee47a631475c0E
Ltmp46:
	jmp	LBB1_6
LBB1_25:
Ltmp69:
	leaq	l___unnamed_5(%rip), %rdi
	leaq	l___unnamed_6(%rip), %rdx
	movl	$43, %esi
	vzeroupper
	callq	__ZN4core9panicking5panic17h736ee47a631475c0E
Ltmp70:
	jmp	LBB1_6
LBB1_27:
Ltmp67:
	leaq	_str.1(%rip), %rdi
	leaq	l___unnamed_7(%rip), %rdx
	movl	$33, %esi
	vzeroupper
	callq	__ZN4core9panicking5panic17h736ee47a631475c0E
Ltmp68:
LBB1_6:
	ud2
LBB1_46:
Ltmp82:
	jmp	LBB1_40
LBB1_38:
Ltmp77:
	jmp	LBB1_45
LBB1_36:
Ltmp66:
	movq	%rax, %r14
	movq	%r15, %rdi
	movq	%rbx, %rsi
	callq	__ZN5alloc5alloc8box_free17h601baa71c821b98cE
	movq	%r14, %rdi
	callq	__Unwind_Resume
	ud2
LBB1_34:
Ltmp71:
	movq	%rax, %r14
	leaq	-160(%rbp), %rdi
Ltmp72:
	callq	__ZN4core3ptr13drop_in_place17hf1c6e0d6c6000ae2E
Ltmp73:
	jmp	LBB1_41
LBB1_39:
Ltmp74:
LBB1_40:
	movq	%rax, %r14
	movq	%r14, %rdi
	callq	__Unwind_Resume
	ud2
LBB1_10:
Ltmp51:
Ltmp52:
	movq	%rax, %rdi
	callq	__ZN3std9panicking3try7cleanup17hd895f7beef0a7dadE
Ltmp53:
	testq	%rax, %rax
	je	LBB1_12
	movq	%rdx, %rcx
	leaq	-56(%rbp), %rsi
Ltmp54:
	movq	%rbx, %rdi
	movq	%rax, %rdx
	callq	__ZN10rayon_core4join23join_recover_from_panic17h65e0dcb6d5862f08E
Ltmp55:
	jmp	LBB1_6
LBB1_44:
Ltmp56:
	jmp	LBB1_45
LBB1_42:
Ltmp85:
	jmp	LBB1_45
LBB1_37:
Ltmp61:
LBB1_45:
	movq	%rax, %r14
	leaq	-128(%rbp), %rdi
	callq	__ZN4core3ptr13drop_in_place17h15e4c257c89b0e89E
LBB1_41:
	movq	%r14, %rdi
	callq	__Unwind_Resume
	ud2
Lfunc_end1:
	.cfi_endproc
	.section	__TEXT,__gcc_except_tab
	.p2align	2
GCC_except_table1:
Lexception1:
	.byte	255
	.byte	155
	.uleb128 Lttbase1-Lttbaseref1
Lttbaseref1:
	.byte	1
	.uleb128 Lcst_end1-Lcst_begin1
Lcst_begin1:
	.uleb128 Ltmp43-Lfunc_begin1
	.uleb128 Ltmp48-Ltmp43
	.uleb128 Ltmp85-Lfunc_begin1
	.byte	0
	.uleb128 Ltmp49-Lfunc_begin1
	.uleb128 Ltmp50-Ltmp49
	.uleb128 Ltmp51-Lfunc_begin1
	.byte	3
	.uleb128 Ltmp59-Lfunc_begin1
	.uleb128 Ltmp58-Ltmp59
	.uleb128 Ltmp61-Lfunc_begin1
	.byte	0
	.uleb128 Ltmp62-Lfunc_begin1
	.uleb128 Ltmp63-Ltmp62
	.uleb128 Ltmp71-Lfunc_begin1
	.byte	0
	.uleb128 Ltmp64-Lfunc_begin1
	.uleb128 Ltmp65-Ltmp64
	.uleb128 Ltmp66-Lfunc_begin1
	.byte	0
	.uleb128 Ltmp75-Lfunc_begin1
	.uleb128 Ltmp76-Ltmp75
	.uleb128 Ltmp77-Lfunc_begin1
	.byte	0
	.uleb128 Ltmp78-Lfunc_begin1
	.uleb128 Ltmp79-Ltmp78
	.uleb128 Ltmp82-Lfunc_begin1
	.byte	0
	.uleb128 Ltmp83-Lfunc_begin1
	.uleb128 Ltmp84-Ltmp83
	.uleb128 Ltmp85-Lfunc_begin1
	.byte	0
	.uleb128 Ltmp80-Lfunc_begin1
	.uleb128 Ltmp81-Ltmp80
	.uleb128 Ltmp82-Lfunc_begin1
	.byte	0
	.uleb128 Ltmp45-Lfunc_begin1
	.uleb128 Ltmp46-Ltmp45
	.uleb128 Ltmp85-Lfunc_begin1
	.byte	0
	.uleb128 Ltmp69-Lfunc_begin1
	.uleb128 Ltmp68-Ltmp69
	.uleb128 Ltmp71-Lfunc_begin1
	.byte	0
	.uleb128 Ltmp68-Lfunc_begin1
	.uleb128 Ltmp72-Ltmp68
	.byte	0
	.byte	0
	.uleb128 Ltmp72-Lfunc_begin1
	.uleb128 Ltmp73-Ltmp72
	.uleb128 Ltmp74-Lfunc_begin1
	.byte	0
	.uleb128 Ltmp73-Lfunc_begin1
	.uleb128 Ltmp52-Ltmp73
	.byte	0
	.byte	0
	.uleb128 Ltmp52-Lfunc_begin1
	.uleb128 Ltmp53-Ltmp52
	.uleb128 Ltmp85-Lfunc_begin1
	.byte	0
	.uleb128 Ltmp54-Lfunc_begin1
	.uleb128 Ltmp55-Ltmp54
	.uleb128 Ltmp56-Lfunc_begin1
	.byte	0
	.uleb128 Ltmp55-Lfunc_begin1
	.uleb128 Lfunc_end1-Ltmp55
	.byte	0
	.byte	0
Lcst_end1:
	.byte	0
	.byte	0
	.byte	1
	.byte	125
	.p2align	2
	.long	0
Lttbase1:
	.p2align	2

	.section	__TEXT,__text,regular,pure_instructions
	.p2align	4, 0x90
__ZN10rayon_core4join12join_context28_$u7b$$u7b$closure$u7d$$u7d$17h1585a60d47833e4bE:
Lfunc_begin2:
	.cfi_startproc
	.cfi_personality 155, _rust_eh_personality
	.cfi_lsda 16, Lexception2
	pushq	%rbp
	.cfi_def_cfa_offset 16
	.cfi_offset %rbp, -16
	movq	%rsp, %rbp
	.cfi_def_cfa_register %rbp
	pushq	%r15
	pushq	%r14
	pushq	%r13
	pushq	%r12
	pushq	%rbx
	andq	$-64, %rsp
	subq	$896, %rsp
	.cfi_offset %rbx, -56
	.cfi_offset %r12, -48
	.cfi_offset %r13, -40
	.cfi_offset %r14, -32
	.cfi_offset %r15, -24
	movl	%ecx, 28(%rsp)
	movq	%rdx, %rbx
	movq	%rsi, %r12
	movq	%rdi, 56(%rsp)
	movb	$0, 384(%rsp)
	vmovups	(%rsi), %ymm0
	vmovups	32(%rsi), %ymm1
	vmovaps	%ymm0, 320(%rsp)
	vmovaps	%ymm1, 352(%rsp)
	movq	$0, 192(%rsp)
	movq	256(%rdx), %rax
	movq	264(%rax), %r15
	movq	256(%rax), %rax
	movq	272(%rdx), %rsi
	movq	%r15, %rcx
	subq	%rax, %rcx
	cmpq	%rsi, %rcx
	jl	LBB2_4
	addq	%rsi, %rsi
	jb	LBB2_7
	leaq	256(%rbx), %rdi
Ltmp86:
	vzeroupper
	callq	__ZN15crossbeam_deque15Worker$LT$T$GT$6resize17h34dc55adb45f7cc1E
Ltmp87:
	movq	272(%rbx), %rsi
LBB2_4:
	subq	$1, %rsi
	jb	LBB2_5
	movq	264(%rbx), %rax
	andq	%r15, %rsi
	shlq	$4, %rsi
	leaq	192(%rsp), %r13
	movq	%r13, (%rax,%rsi)
	leaq	__ZN83_$LT$rayon_core..job..StackJob$LT$L$C$F$C$R$GT$$u20$as$u20$rayon_core..job..Job$GT$7execute17h5699ec4aa7ef6fbfE(%rip), %r14
	movq	%r14, 8(%rax,%rsi)
	##MEMBARRIER
	movq	256(%rbx), %rax
	incq	%r15
	movq	%r15, 264(%rax)
	movl	$408, %edi
	addq	304(%rbx), %rdi
	movq	288(%rbx), %rsi
Ltmp90:
	vzeroupper
	callq	__ZN10rayon_core5sleep5Sleep6tickle17h00d06f732555dc32E
Ltmp91:
	vmovups	64(%r12), %ymm0
	vmovups	88(%r12), %ymm1
	vmovaps	%ymm0, 64(%rsp)
	vmovups	%ymm1, 88(%rsp)
	movl	28(%rsp), %r15d
	movb	%r15b, 120(%rsp)
	vmovdqa	64(%rsp), %xmm0
	vpextrq	$1, %xmm0, %rax
	vmovq	%xmm0, %rcx
	vmovsd	96(%rsp), %xmm0
	vmovdqa	112(%rsp), %xmm1
	vpextrb	$8, %xmm1, %esi
	vmovaps	80(%rsp), %xmm1
	vpermpd	$233, 96(%rsp), %ymm2
	xorl	%edx, %edx
	testb	%sil, %sil
	setne	%dl
	movq	(%rcx), %rsi
	movq	(%rax), %rcx
	movq	8(%rax), %r8
	vmovsd	%xmm0, 48(%rsp)
	vmovups	%xmm1, 32(%rsp)
Ltmp92:
	vmovups	%xmm2, (%rsp)
	leaq	448(%rsp), %rdi
	leaq	32(%rsp), %r9
	vzeroupper
	callq	__ZN5rayon4iter8plumbing24bridge_producer_consumer6helper17hc0f93965f531a381E
Ltmp93:
	vmovaps	448(%rsp), %ymm0
	vmovaps	%ymm0, 800(%rsp)
	vmovaps	480(%rsp), %ymm0
	vmovaps	%ymm0, 768(%rsp)
	leaq	384(%rsp), %r12
	movb	384(%rsp), %al
	testb	%al, %al
	je	LBB2_12
	jmp	LBB2_16
	.p2align	4, 0x90
LBB2_23:
Ltmp102:
	movq	%rbx, %rdi
	movq	%rax, %rsi
	callq	__ZN10rayon_core8registry12WorkerThread7execute17h2d3f3a8dd2af2716E
Ltmp103:
	movzbl	384(%rsp), %eax
	testb	%al, %al
	jne	LBB2_16
LBB2_12:
Ltmp100:
	movq	%rbx, %rdi
	vzeroupper
	callq	__ZN10rayon_core8registry12WorkerThread14take_local_job17h123bfb54be8597fdE
Ltmp101:
	testq	%rdx, %rdx
	je	LBB2_14
	cmpq	%r13, %rax
	jne	LBB2_23
	cmpq	%r14, %rdx
	jne	LBB2_23
	vmovaps	416(%rsp), %ymm0
	vmovaps	%ymm0, 672(%rsp)
	vmovaps	384(%rsp), %ymm0
	vmovaps	%ymm0, 640(%rsp)
	vmovaps	352(%rsp), %ymm0
	vmovaps	%ymm0, 608(%rsp)
	vmovaps	320(%rsp), %ymm0
	vmovaps	%ymm0, 576(%rsp)
	vmovaps	224(%rsp), %ymm0
	vmovaps	256(%rsp), %ymm1
	vmovaps	288(%rsp), %ymm2
	vmovaps	%ymm2, 544(%rsp)
	vmovaps	%ymm1, 512(%rsp)
	vmovaps	%ymm0, 480(%rsp)
	vmovaps	192(%rsp), %ymm0
	vmovaps	%ymm0, 448(%rsp)
	movq	576(%rsp), %rsi
	movq	584(%rsp), %rcx
	movq	592(%rsp), %rax
	vmovups	600(%rsp), %xmm0
	vmovaps	%xmm0, 64(%rsp)
	movq	616(%rsp), %rdx
	movq	%rdx, 80(%rsp)
	testq	%rsi, %rsi
	je	LBB2_25
	movq	624(%rsp), %rdx
	movq	632(%rsp), %rdi
	movq	80(%rsp), %rbx
	movq	%rbx, 752(%rsp)
	vmovaps	64(%rsp), %xmm0
	vmovaps	%xmm0, 736(%rsp)
	movq	%rbx, 176(%rsp)
	vmovaps	%xmm0, 160(%rsp)
	movq	(%rsi), %rsi
	subq	(%rcx), %rsi
	jb	LBB2_33
	movq	(%rax), %rcx
	movq	8(%rax), %r8
	movq	176(%rsp), %rax
	movq	%rax, 48(%rsp)
	vmovaps	160(%rsp), %xmm0
	vmovaps	%xmm0, 32(%rsp)
Ltmp105:
	movq	%rdi, 8(%rsp)
	movq	%rdx, (%rsp)
	movzbl	%r15b, %edx
	leaq	64(%rsp), %rdi
	leaq	32(%rsp), %r9
	vzeroupper
	callq	__ZN5rayon4iter8plumbing24bridge_producer_consumer6helper17hc0f93965f531a381E
Ltmp106:
	cmpq	$2, 448(%rsp)
	jb	LBB2_32
	movq	456(%rsp), %r12
	movq	464(%rsp), %rbx
Ltmp107:
	movq	%r12, %rdi
	callq	*(%rbx)
Ltmp108:
	movq	8(%rbx), %rsi
	testq	%rsi, %rsi
	je	LBB2_32
	movq	16(%rbx), %rdx
	movq	%r12, %rdi
	callq	___rust_dealloc
LBB2_32:
	vmovaps	64(%rsp), %ymm0
	vmovaps	96(%rsp), %ymm1
	jmp	LBB2_37
LBB2_14:
	movb	384(%rsp), %al
	testb	%al, %al
	jne	LBB2_16
Ltmp118:
	movq	%rbx, %rdi
	movq	%r12, %rsi
	callq	__ZN10rayon_core8registry12WorkerThread15wait_until_cold17hf0fae827bbf09742E
Ltmp119:
LBB2_16:
	movq	192(%rsp), %rax
	cmpq	$1, %rax
	jne	LBB2_17
	vmovaps	256(%rsp), %ymm0
	vmovaps	288(%rsp), %ymm1
LBB2_37:
	movq	56(%rsp), %rax
	vmovaps	800(%rsp), %ymm2
	vmovaps	%ymm2, (%rax)
	vmovaps	768(%rsp), %ymm2
	vmovaps	%ymm2, 32(%rax)
	vmovaps	%ymm0, 64(%rax)
	vmovaps	%ymm1, 96(%rax)
	leaq	-40(%rbp), %rsp
	popq	%rbx
	popq	%r12
	popq	%r13
	popq	%r14
	popq	%r15
	popq	%rbp
	vzeroupper
	retq
LBB2_17:
	testq	%rax, %rax
	je	LBB2_35
	movq	200(%rsp), %rdi
	movq	208(%rsp), %rsi
Ltmp121:
	vzeroupper
	callq	__ZN10rayon_core6unwind16resume_unwinding17h47c2e39f90248736E
Ltmp122:
	jmp	LBB2_6
LBB2_5:
Ltmp126:
	leaq	_str.1(%rip), %rdi
	leaq	l___unnamed_1(%rip), %rdx
	movl	$33, %esi
	vzeroupper
	callq	__ZN4core9panicking5panic17h736ee47a631475c0E
Ltmp127:
	jmp	LBB2_6
LBB2_35:
Ltmp123:
	leaq	l___unnamed_2(%rip), %rdi
	leaq	l___unnamed_3(%rip), %rdx
	movl	$40, %esi
	vzeroupper
	callq	__ZN3std9panicking11begin_panic17h853288e601a61dd9E
Ltmp124:
	jmp	LBB2_6
LBB2_7:
Ltmp88:
	leaq	_str.3(%rip), %rdi
	leaq	l___unnamed_4(%rip), %rdx
	movl	$33, %esi
	vzeroupper
	callq	__ZN4core9panicking5panic17h736ee47a631475c0E
Ltmp89:
	jmp	LBB2_6
LBB2_25:
Ltmp112:
	leaq	l___unnamed_5(%rip), %rdi
	leaq	l___unnamed_6(%rip), %rdx
	movl	$43, %esi
	vzeroupper
	callq	__ZN4core9panicking5panic17h736ee47a631475c0E
Ltmp113:
	jmp	LBB2_6
LBB2_33:
Ltmp110:
	leaq	_str.1(%rip), %rdi
	leaq	l___unnamed_7(%rip), %rdx
	movl	$33, %esi
	vzeroupper
	callq	__ZN4core9panicking5panic17h736ee47a631475c0E
Ltmp111:
	jmp	LBB2_6
LBB2_47:
Ltmp125:
	jmp	LBB2_42
LBB2_40:
Ltmp120:
	jmp	LBB2_46
LBB2_38:
Ltmp109:
	movq	%rax, %r14
	movq	%r12, %rdi
	movq	%rbx, %rsi
	callq	__ZN5alloc5alloc8box_free17h601baa71c821b98cE
	movq	%r14, %rdi
	callq	__Unwind_Resume
	ud2
LBB2_34:
Ltmp114:
	movq	%rax, %r14
Ltmp115:
	leaq	448(%rsp), %rdi
	callq	__ZN4core3ptr13drop_in_place17h04000df5dc98c10bE
Ltmp116:
	jmp	LBB2_43
LBB2_41:
Ltmp117:
LBB2_42:
	movq	%rax, %r14
	movq	%r14, %rdi
	callq	__Unwind_Resume
	ud2
LBB2_19:
Ltmp94:
Ltmp95:
	movq	%rax, %rdi
	callq	__ZN3std9panicking3try7cleanup17hd895f7beef0a7dadE
Ltmp96:
	movq	%rdx, %rcx
	leaq	384(%rsp), %rsi
Ltmp97:
	movq	%rbx, %rdi
	movq	%rax, %rdx
	callq	__ZN10rayon_core4join23join_recover_from_panic17h65e0dcb6d5862f08E
Ltmp98:
LBB2_6:
	ud2
LBB2_45:
Ltmp99:
	jmp	LBB2_46
LBB2_44:
Ltmp128:
	jmp	LBB2_46
LBB2_39:
Ltmp104:
LBB2_46:
	movq	%rax, %r14
	leaq	192(%rsp), %rdi
	callq	__ZN4core3ptr13drop_in_place17h04000df5dc98c10bE
LBB2_43:
	movq	%r14, %rdi
	callq	__Unwind_Resume
	ud2
Lfunc_end2:
	.cfi_endproc
	.section	__TEXT,__gcc_except_tab
	.p2align	2
GCC_except_table2:
Lexception2:
	.byte	255
	.byte	155
	.uleb128 Lttbase2-Lttbaseref2
Lttbaseref2:
	.byte	1
	.uleb128 Lcst_end2-Lcst_begin2
Lcst_begin2:
	.uleb128 Ltmp86-Lfunc_begin2
	.uleb128 Ltmp91-Ltmp86
	.uleb128 Ltmp128-Lfunc_begin2
	.byte	0
	.uleb128 Ltmp92-Lfunc_begin2
	.uleb128 Ltmp93-Ltmp92
	.uleb128 Ltmp94-Lfunc_begin2
	.byte	3
	.uleb128 Ltmp102-Lfunc_begin2
	.uleb128 Ltmp101-Ltmp102
	.uleb128 Ltmp104-Lfunc_begin2
	.byte	0
	.uleb128 Ltmp105-Lfunc_begin2
	.uleb128 Ltmp106-Ltmp105
	.uleb128 Ltmp114-Lfunc_begin2
	.byte	0
	.uleb128 Ltmp107-Lfunc_begin2
	.uleb128 Ltmp108-Ltmp107
	.uleb128 Ltmp109-Lfunc_begin2
	.byte	0
	.uleb128 Ltmp118-Lfunc_begin2
	.uleb128 Ltmp119-Ltmp118
	.uleb128 Ltmp120-Lfunc_begin2
	.byte	0
	.uleb128 Ltmp121-Lfunc_begin2
	.uleb128 Ltmp122-Ltmp121
	.uleb128 Ltmp125-Lfunc_begin2
	.byte	0
	.uleb128 Ltmp126-Lfunc_begin2
	.uleb128 Ltmp127-Ltmp126
	.uleb128 Ltmp128-Lfunc_begin2
	.byte	0
	.uleb128 Ltmp123-Lfunc_begin2
	.uleb128 Ltmp124-Ltmp123
	.uleb128 Ltmp125-Lfunc_begin2
	.byte	0
	.uleb128 Ltmp88-Lfunc_begin2
	.uleb128 Ltmp89-Ltmp88
	.uleb128 Ltmp128-Lfunc_begin2
	.byte	0
	.uleb128 Ltmp112-Lfunc_begin2
	.uleb128 Ltmp111-Ltmp112
	.uleb128 Ltmp114-Lfunc_begin2
	.byte	0
	.uleb128 Ltmp111-Lfunc_begin2
	.uleb128 Ltmp115-Ltmp111
	.byte	0
	.byte	0
	.uleb128 Ltmp115-Lfunc_begin2
	.uleb128 Ltmp116-Ltmp115
	.uleb128 Ltmp117-Lfunc_begin2
	.byte	0
	.uleb128 Ltmp116-Lfunc_begin2
	.uleb128 Ltmp95-Ltmp116
	.byte	0
	.byte	0
	.uleb128 Ltmp95-Lfunc_begin2
	.uleb128 Ltmp96-Ltmp95
	.uleb128 Ltmp128-Lfunc_begin2
	.byte	0
	.uleb128 Ltmp97-Lfunc_begin2
	.uleb128 Ltmp98-Ltmp97
	.uleb128 Ltmp99-Lfunc_begin2
	.byte	0
	.uleb128 Ltmp98-Lfunc_begin2
	.uleb128 Lfunc_end2-Ltmp98
	.byte	0
	.byte	0
Lcst_end2:
	.byte	0
	.byte	0
	.byte	1
	.byte	125
	.p2align	2
	.long	0
Lttbase2:
	.p2align	2

	.section	__TEXT,__text,regular,pure_instructions
	.p2align	4, 0x90
__ZN10rayon_core4join12join_context28_$u7b$$u7b$closure$u7d$$u7d$17h1ea365bec2d0444aE:
Lfunc_begin3:
	.cfi_startproc
	.cfi_personality 155, _rust_eh_personality
	.cfi_lsda 16, Lexception3
	pushq	%rbp
	.cfi_def_cfa_offset 16
	.cfi_offset %rbp, -16
	movq	%rsp, %rbp
	.cfi_def_cfa_register %rbp
	pushq	%r15
	pushq	%r14
	pushq	%r13
	pushq	%r12
	pushq	%rbx
	subq	$184, %rsp
	.cfi_offset %rbx, -56
	.cfi_offset %r12, -48
	.cfi_offset %r13, -40
	.cfi_offset %r14, -32
	.cfi_offset %r15, -24
	movq	%rsi, %rbx
	movq	%rdi, %r15
	vmovups	(%rdi), %ymm0
	vmovups	16(%rdi), %ymm1
	vmovups	%ymm1, -112(%rbp)
	vmovups	%ymm0, -128(%rbp)
	movb	$0, -56(%rbp)
	movq	$0, -80(%rbp)
	movq	256(%rsi), %rax
	movq	264(%rax), %r14
	movq	256(%rax), %rax
	movq	272(%rsi), %rsi
	movq	%r14, %rcx
	subq	%rax, %rcx
	cmpq	%rsi, %rcx
	movl	%edx, -44(%rbp)
	jl	LBB3_4
	addq	%rsi, %rsi
	jb	LBB3_7
	leaq	256(%rbx), %rdi
Ltmp129:
	vzeroupper
	callq	__ZN15crossbeam_deque15Worker$LT$T$GT$6resize17h34dc55adb45f7cc1E
Ltmp130:
	movq	272(%rbx), %rsi
LBB3_4:
	subq	$1, %rsi
	jb	LBB3_5
	movq	264(%rbx), %rax
	andq	%r14, %rsi
	shlq	$4, %rsi
	leaq	-128(%rbp), %r12
	movq	%r12, (%rax,%rsi)
	leaq	__ZN83_$LT$rayon_core..job..StackJob$LT$L$C$F$C$R$GT$$u20$as$u20$rayon_core..job..Job$GT$7execute17h5695b4ea74fc43f6E(%rip), %r13
	movq	%r13, 8(%rax,%rsi)
	##MEMBARRIER
	movq	256(%rbx), %rax
	incq	%r14
	movq	%r14, 264(%rax)
	movl	$408, %edi
	addq	304(%rbx), %rdi
	movq	288(%rbx), %rsi
Ltmp133:
	vzeroupper
	callq	__ZN10rayon_core5sleep5Sleep6tickle17h00d06f732555dc32E
Ltmp134:
	movq	48(%r15), %rax
	movq	56(%r15), %rcx
	movq	64(%r15), %r8
	movq	72(%r15), %r9
	movq	80(%r15), %rsi
	movq	(%rax), %rdi
	movq	(%rcx), %rdx
	movq	8(%rcx), %rcx
Ltmp135:
	movq	%rsi, (%rsp)
	movzbl	-44(%rbp), %r14d
	movl	%r14d, %esi
	callq	__ZN5rayon4iter8plumbing24bridge_producer_consumer6helper17h3da02ce22d6600afE
Ltmp136:
LBB3_12:
	leaq	-56(%rbp), %r15
	movb	-56(%rbp), %al
	testb	%al, %al
	je	LBB3_14
	jmp	LBB3_18
	.p2align	4, 0x90
LBB3_23:
Ltmp145:
	movq	%rbx, %rdi
	movq	%rax, %rsi
	callq	__ZN10rayon_core8registry12WorkerThread7execute17h2d3f3a8dd2af2716E
Ltmp146:
	movzbl	-56(%rbp), %eax
	testb	%al, %al
	jne	LBB3_18
LBB3_14:
Ltmp143:
	movq	%rbx, %rdi
	callq	__ZN10rayon_core8registry12WorkerThread14take_local_job17h123bfb54be8597fdE
Ltmp144:
	testq	%rdx, %rdx
	je	LBB3_16
	cmpq	%r12, %rax
	jne	LBB3_23
	cmpq	%r13, %rdx
	jne	LBB3_23
	vmovups	-128(%rbp), %ymm0
	vmovups	-96(%rbp), %ymm1
	vmovups	-80(%rbp), %ymm2
	vmovups	%ymm0, -208(%rbp)
	vmovups	%ymm1, -176(%rbp)
	vmovups	%ymm2, -160(%rbp)
	movq	-208(%rbp), %rax
	testq	%rax, %rax
	je	LBB3_25
	movq	-200(%rbp), %rcx
	movq	(%rax), %rdi
	subq	(%rcx), %rdi
	jb	LBB3_27
	movq	-192(%rbp), %rax
	movq	-184(%rbp), %r8
	movq	-176(%rbp), %r9
	movq	-168(%rbp), %rsi
	movq	(%rax), %rdx
	movq	8(%rax), %rcx
Ltmp148:
	movq	%rsi, (%rsp)
	movl	%r14d, %esi
	vzeroupper
	callq	__ZN5rayon4iter8plumbing24bridge_producer_consumer6helper17h3da02ce22d6600afE
Ltmp149:
	cmpq	$2, -160(%rbp)
	jb	LBB3_33
	movq	-152(%rbp), %r15
	movq	-144(%rbp), %rbx
Ltmp150:
	movq	%r15, %rdi
	callq	*(%rbx)
Ltmp151:
	movq	8(%rbx), %rsi
	testq	%rsi, %rsi
	je	LBB3_33
	movq	16(%rbx), %rdx
	movq	%r15, %rdi
	callq	___rust_dealloc
	jmp	LBB3_33
LBB3_16:
	movb	-56(%rbp), %al
	testb	%al, %al
	jne	LBB3_18
Ltmp161:
	movq	%rbx, %rdi
	movq	%r15, %rsi
	callq	__ZN10rayon_core8registry12WorkerThread15wait_until_cold17hf0fae827bbf09742E
Ltmp162:
LBB3_18:
	movq	-80(%rbp), %rax
	cmpq	$1, %rax
	jne	LBB3_19
LBB3_33:
	addq	$184, %rsp
	popq	%rbx
	popq	%r12
	popq	%r13
	popq	%r14
	popq	%r15
	popq	%rbp
	retq
LBB3_19:
	testq	%rax, %rax
	je	LBB3_35
	movq	-72(%rbp), %rdi
	movq	-64(%rbp), %rsi
Ltmp164:
	callq	__ZN10rayon_core6unwind16resume_unwinding17h47c2e39f90248736E
Ltmp165:
	jmp	LBB3_6
LBB3_5:
Ltmp169:
	leaq	_str.1(%rip), %rdi
	leaq	l___unnamed_1(%rip), %rdx
	movl	$33, %esi
	vzeroupper
	callq	__ZN4core9panicking5panic17h736ee47a631475c0E
Ltmp170:
	jmp	LBB3_6
LBB3_35:
Ltmp166:
	leaq	l___unnamed_2(%rip), %rdi
	leaq	l___unnamed_3(%rip), %rdx
	movl	$40, %esi
	callq	__ZN3std9panicking11begin_panic17h853288e601a61dd9E
Ltmp167:
	jmp	LBB3_6
LBB3_7:
Ltmp131:
	leaq	_str.3(%rip), %rdi
	leaq	l___unnamed_4(%rip), %rdx
	movl	$33, %esi
	vzeroupper
	callq	__ZN4core9panicking5panic17h736ee47a631475c0E
Ltmp132:
	jmp	LBB3_6
LBB3_25:
Ltmp155:
	leaq	l___unnamed_5(%rip), %rdi
	leaq	l___unnamed_6(%rip), %rdx
	movl	$43, %esi
	vzeroupper
	callq	__ZN4core9panicking5panic17h736ee47a631475c0E
Ltmp156:
	jmp	LBB3_6
LBB3_27:
Ltmp153:
	leaq	_str.1(%rip), %rdi
	leaq	l___unnamed_7(%rip), %rdx
	movl	$33, %esi
	vzeroupper
	callq	__ZN4core9panicking5panic17h736ee47a631475c0E
Ltmp154:
LBB3_6:
	ud2
LBB3_46:
Ltmp168:
	jmp	LBB3_40
LBB3_38:
Ltmp163:
	jmp	LBB3_45
LBB3_36:
Ltmp152:
	movq	%rax, %r14
	movq	%r15, %rdi
	movq	%rbx, %rsi
	callq	__ZN5alloc5alloc8box_free17h601baa71c821b98cE
	movq	%r14, %rdi
	callq	__Unwind_Resume
	ud2
LBB3_34:
Ltmp157:
	movq	%rax, %r14
	leaq	-160(%rbp), %rdi
Ltmp158:
	callq	__ZN4core3ptr13drop_in_place17hf1c6e0d6c6000ae2E
Ltmp159:
	jmp	LBB3_41
LBB3_39:
Ltmp160:
LBB3_40:
	movq	%rax, %r14
	movq	%r14, %rdi
	callq	__Unwind_Resume
	ud2
LBB3_10:
Ltmp137:
Ltmp138:
	movq	%rax, %rdi
	callq	__ZN3std9panicking3try7cleanup17hd895f7beef0a7dadE
Ltmp139:
	testq	%rax, %rax
	je	LBB3_12
	movq	%rdx, %rcx
	leaq	-56(%rbp), %rsi
Ltmp140:
	movq	%rbx, %rdi
	movq	%rax, %rdx
	callq	__ZN10rayon_core4join23join_recover_from_panic17h65e0dcb6d5862f08E
Ltmp141:
	jmp	LBB3_6
LBB3_44:
Ltmp142:
	jmp	LBB3_45
LBB3_42:
Ltmp171:
	jmp	LBB3_45
LBB3_37:
Ltmp147:
LBB3_45:
	movq	%rax, %r14
	leaq	-128(%rbp), %rdi
	callq	__ZN4core3ptr13drop_in_place17h15e4c257c89b0e89E
LBB3_41:
	movq	%r14, %rdi
	callq	__Unwind_Resume
	ud2
Lfunc_end3:
	.cfi_endproc
	.section	__TEXT,__gcc_except_tab
	.p2align	2
GCC_except_table3:
Lexception3:
	.byte	255
	.byte	155
	.uleb128 Lttbase3-Lttbaseref3
Lttbaseref3:
	.byte	1
	.uleb128 Lcst_end3-Lcst_begin3
Lcst_begin3:
	.uleb128 Ltmp129-Lfunc_begin3
	.uleb128 Ltmp134-Ltmp129
	.uleb128 Ltmp171-Lfunc_begin3
	.byte	0
	.uleb128 Ltmp135-Lfunc_begin3
	.uleb128 Ltmp136-Ltmp135
	.uleb128 Ltmp137-Lfunc_begin3
	.byte	3
	.uleb128 Ltmp145-Lfunc_begin3
	.uleb128 Ltmp144-Ltmp145
	.uleb128 Ltmp147-Lfunc_begin3
	.byte	0
	.uleb128 Ltmp148-Lfunc_begin3
	.uleb128 Ltmp149-Ltmp148
	.uleb128 Ltmp157-Lfunc_begin3
	.byte	0
	.uleb128 Ltmp150-Lfunc_begin3
	.uleb128 Ltmp151-Ltmp150
	.uleb128 Ltmp152-Lfunc_begin3
	.byte	0
	.uleb128 Ltmp161-Lfunc_begin3
	.uleb128 Ltmp162-Ltmp161
	.uleb128 Ltmp163-Lfunc_begin3
	.byte	0
	.uleb128 Ltmp164-Lfunc_begin3
	.uleb128 Ltmp165-Ltmp164
	.uleb128 Ltmp168-Lfunc_begin3
	.byte	0
	.uleb128 Ltmp169-Lfunc_begin3
	.uleb128 Ltmp170-Ltmp169
	.uleb128 Ltmp171-Lfunc_begin3
	.byte	0
	.uleb128 Ltmp166-Lfunc_begin3
	.uleb128 Ltmp167-Ltmp166
	.uleb128 Ltmp168-Lfunc_begin3
	.byte	0
	.uleb128 Ltmp131-Lfunc_begin3
	.uleb128 Ltmp132-Ltmp131
	.uleb128 Ltmp171-Lfunc_begin3
	.byte	0
	.uleb128 Ltmp155-Lfunc_begin3
	.uleb128 Ltmp154-Ltmp155
	.uleb128 Ltmp157-Lfunc_begin3
	.byte	0
	.uleb128 Ltmp154-Lfunc_begin3
	.uleb128 Ltmp158-Ltmp154
	.byte	0
	.byte	0
	.uleb128 Ltmp158-Lfunc_begin3
	.uleb128 Ltmp159-Ltmp158
	.uleb128 Ltmp160-Lfunc_begin3
	.byte	0
	.uleb128 Ltmp159-Lfunc_begin3
	.uleb128 Ltmp138-Ltmp159
	.byte	0
	.byte	0
	.uleb128 Ltmp138-Lfunc_begin3
	.uleb128 Ltmp139-Ltmp138
	.uleb128 Ltmp171-Lfunc_begin3
	.byte	0
	.uleb128 Ltmp140-Lfunc_begin3
	.uleb128 Ltmp141-Ltmp140
	.uleb128 Ltmp142-Lfunc_begin3
	.byte	0
	.uleb128 Ltmp141-Lfunc_begin3
	.uleb128 Lfunc_end3-Ltmp141
	.byte	0
	.byte	0
Lcst_end3:
	.byte	0
	.byte	0
	.byte	1
	.byte	125
	.p2align	2
	.long	0
Lttbase3:
	.p2align	2

	.section	__TEXT,__text,regular,pure_instructions
	.p2align	4, 0x90
__ZN10rayon_core4join12join_context28_$u7b$$u7b$closure$u7d$$u7d$17h216555e91046cbb2E:
Lfunc_begin4:
	.cfi_startproc
	.cfi_personality 155, _rust_eh_personality
	.cfi_lsda 16, Lexception4
	pushq	%rbp
	.cfi_def_cfa_offset 16
	.cfi_offset %rbp, -16
	movq	%rsp, %rbp
	.cfi_def_cfa_register %rbp
	pushq	%r15
	pushq	%r14
	pushq	%r13
	pushq	%r12
	pushq	%rbx
	andq	$-64, %rsp
	subq	$704, %rsp
	.cfi_offset %rbx, -56
	.cfi_offset %r12, -48
	.cfi_offset %r13, -40
	.cfi_offset %r14, -32
	.cfi_offset %r15, -24
	movq	%rdx, %rbx
	movq	%rsi, %r12
	movq	%rdi, 56(%rsp)
	movb	$0, 376(%rsp)
	vmovups	(%rsi), %ymm0
	vmovups	24(%rsi), %ymm1
	vmovaps	%ymm0, 320(%rsp)
	vmovups	%ymm1, 344(%rsp)
	movq	$0, 192(%rsp)
	movq	256(%rdx), %rax
	movq	264(%rax), %r15
	movq	256(%rax), %rax
	movq	272(%rdx), %rsi
	movq	%r15, %rdx
	subq	%rax, %rdx
	cmpq	%rsi, %rdx
	movl	%ecx, 160(%rsp)
	jl	LBB4_4
	addq	%rsi, %rsi
	jb	LBB4_7
	leaq	256(%rbx), %rdi
Ltmp172:
	vzeroupper
	callq	__ZN15crossbeam_deque15Worker$LT$T$GT$6resize17h34dc55adb45f7cc1E
Ltmp173:
	movq	272(%rbx), %rsi
LBB4_4:
	subq	$1, %rsi
	jb	LBB4_5
	movq	264(%rbx), %rax
	andq	%r15, %rsi
	shlq	$4, %rsi
	leaq	192(%rsp), %r13
	movq	%r13, (%rax,%rsi)
	leaq	__ZN83_$LT$rayon_core..job..StackJob$LT$L$C$F$C$R$GT$$u20$as$u20$rayon_core..job..Job$GT$7execute17h8b09c0858c976678E(%rip), %r14
	movq	%r14, 8(%rax,%rsi)
	##MEMBARRIER
	movq	256(%rbx), %rax
	incq	%r15
	movq	%r15, 264(%rax)
	movl	$408, %edi
	addq	304(%rbx), %rdi
	movq	288(%rbx), %rsi
Ltmp176:
	vzeroupper
	callq	__ZN10rayon_core5sleep5Sleep6tickle17h00d06f732555dc32E
Ltmp177:
	vmovups	56(%r12), %ymm0
	vmovups	72(%r12), %ymm1
	vmovaps	%ymm0, 64(%rsp)
	vmovups	%ymm1, 80(%rsp)
	movl	160(%rsp), %edi
	movb	%dil, 112(%rsp)
	movq	64(%rsp), %rax
	movq	72(%rsp), %rdx
	movq	96(%rsp), %r10
	movq	104(%rsp), %r9
	movq	(%rax), %rsi
	movq	(%rdx), %rcx
	movq	8(%rdx), %r8
	movq	%r10, 48(%rsp)
	vmovaps	80(%rsp), %xmm0
	vmovaps	%xmm0, 32(%rsp)
Ltmp178:
	movq	%r9, (%rsp)
	movzbl	%dil, %r15d
	leaq	384(%rsp), %rdi
	leaq	32(%rsp), %r9
	movl	%r15d, %edx
	vzeroupper
	callq	__ZN5rayon4iter8plumbing24bridge_producer_consumer6helper17h8bebf2fbcff93f77E
Ltmp179:
	vmovaps	384(%rsp), %ymm0
	vmovaps	%ymm0, 160(%rsp)
	vmovaps	416(%rsp), %ymm0
	vmovaps	%ymm0, 608(%rsp)
	leaq	376(%rsp), %r12
	movb	376(%rsp), %al
	testb	%al, %al
	je	LBB4_12
	jmp	LBB4_16
	.p2align	4, 0x90
LBB4_23:
Ltmp188:
	movq	%rbx, %rdi
	movq	%rax, %rsi
	callq	__ZN10rayon_core8registry12WorkerThread7execute17h2d3f3a8dd2af2716E
Ltmp189:
	movzbl	376(%rsp), %eax
	testb	%al, %al
	jne	LBB4_16
LBB4_12:
Ltmp186:
	movq	%rbx, %rdi
	vzeroupper
	callq	__ZN10rayon_core8registry12WorkerThread14take_local_job17h123bfb54be8597fdE
Ltmp187:
	testq	%rdx, %rdx
	je	LBB4_14
	cmpq	%r13, %rax
	jne	LBB4_23
	cmpq	%r14, %rdx
	jne	LBB4_23
	vmovaps	352(%rsp), %ymm0
	vmovaps	%ymm0, 544(%rsp)
	vmovaps	320(%rsp), %ymm0
	vmovaps	%ymm0, 512(%rsp)
	vmovaps	224(%rsp), %ymm0
	vmovaps	256(%rsp), %ymm1
	vmovaps	288(%rsp), %ymm2
	vmovaps	%ymm2, 480(%rsp)
	vmovaps	%ymm1, 448(%rsp)
	vmovaps	%ymm0, 416(%rsp)
	vmovaps	192(%rsp), %ymm0
	vmovaps	%ymm0, 384(%rsp)
	movq	512(%rsp), %rsi
	movq	520(%rsp), %rcx
	movq	528(%rsp), %rax
	vmovups	536(%rsp), %xmm0
	vmovaps	%xmm0, 64(%rsp)
	movq	552(%rsp), %rdx
	movq	%rdx, 80(%rsp)
	testq	%rsi, %rsi
	je	LBB4_25
	movq	560(%rsp), %rdx
	movq	80(%rsp), %rdi
	movq	%rdi, 592(%rsp)
	vmovaps	64(%rsp), %xmm0
	vmovaps	%xmm0, 576(%rsp)
	movq	%rdi, 144(%rsp)
	vmovaps	%xmm0, 128(%rsp)
	movq	(%rsi), %rsi
	subq	(%rcx), %rsi
	jb	LBB4_27
	movq	(%rax), %rcx
	movq	8(%rax), %r8
	movq	144(%rsp), %rax
	movq	%rax, 48(%rsp)
	vmovaps	128(%rsp), %xmm0
	vmovaps	%xmm0, 32(%rsp)
Ltmp191:
	movq	%rdx, (%rsp)
	leaq	64(%rsp), %rdi
	leaq	32(%rsp), %r9
	movl	%r15d, %edx
	vzeroupper
	callq	__ZN5rayon4iter8plumbing24bridge_producer_consumer6helper17h8bebf2fbcff93f77E
Ltmp192:
	cmpq	$2, 384(%rsp)
	jb	LBB4_33
	movq	392(%rsp), %r15
	movq	400(%rsp), %rbx
Ltmp193:
	movq	%r15, %rdi
	callq	*(%rbx)
Ltmp194:
	movq	8(%rbx), %rsi
	testq	%rsi, %rsi
	je	LBB4_33
	movq	16(%rbx), %rdx
	movq	%r15, %rdi
	callq	___rust_dealloc
LBB4_33:
	vmovaps	64(%rsp), %ymm0
	vmovaps	96(%rsp), %ymm1
	jmp	LBB4_37
LBB4_14:
	movb	376(%rsp), %al
	testb	%al, %al
	jne	LBB4_16
Ltmp204:
	movq	%rbx, %rdi
	movq	%r12, %rsi
	callq	__ZN10rayon_core8registry12WorkerThread15wait_until_cold17hf0fae827bbf09742E
Ltmp205:
LBB4_16:
	movq	192(%rsp), %rax
	cmpq	$1, %rax
	jne	LBB4_17
	vmovaps	256(%rsp), %ymm0
	vmovaps	288(%rsp), %ymm1
LBB4_37:
	movq	56(%rsp), %rax
	vmovaps	160(%rsp), %ymm2
	vmovaps	%ymm2, (%rax)
	vmovaps	608(%rsp), %ymm2
	vmovaps	%ymm2, 32(%rax)
	vmovaps	%ymm0, 64(%rax)
	vmovaps	%ymm1, 96(%rax)
	leaq	-40(%rbp), %rsp
	popq	%rbx
	popq	%r12
	popq	%r13
	popq	%r14
	popq	%r15
	popq	%rbp
	vzeroupper
	retq
LBB4_17:
	testq	%rax, %rax
	je	LBB4_35
	movq	200(%rsp), %rdi
	movq	208(%rsp), %rsi
Ltmp207:
	vzeroupper
	callq	__ZN10rayon_core6unwind16resume_unwinding17h47c2e39f90248736E
Ltmp208:
	jmp	LBB4_6
LBB4_5:
Ltmp212:
	leaq	_str.1(%rip), %rdi
	leaq	l___unnamed_1(%rip), %rdx
	movl	$33, %esi
	vzeroupper
	callq	__ZN4core9panicking5panic17h736ee47a631475c0E
Ltmp213:
	jmp	LBB4_6
LBB4_35:
Ltmp209:
	leaq	l___unnamed_2(%rip), %rdi
	leaq	l___unnamed_3(%rip), %rdx
	movl	$40, %esi
	vzeroupper
	callq	__ZN3std9panicking11begin_panic17h853288e601a61dd9E
Ltmp210:
	jmp	LBB4_6
LBB4_7:
Ltmp174:
	leaq	_str.3(%rip), %rdi
	leaq	l___unnamed_4(%rip), %rdx
	movl	$33, %esi
	vzeroupper
	callq	__ZN4core9panicking5panic17h736ee47a631475c0E
Ltmp175:
	jmp	LBB4_6
LBB4_25:
Ltmp198:
	leaq	l___unnamed_5(%rip), %rdi
	leaq	l___unnamed_6(%rip), %rdx
	movl	$43, %esi
	vzeroupper
	callq	__ZN4core9panicking5panic17h736ee47a631475c0E
Ltmp199:
	jmp	LBB4_6
LBB4_27:
Ltmp196:
	leaq	_str.1(%rip), %rdi
	leaq	l___unnamed_7(%rip), %rdx
	movl	$33, %esi
	vzeroupper
	callq	__ZN4core9panicking5panic17h736ee47a631475c0E
Ltmp197:
	jmp	LBB4_6
LBB4_47:
Ltmp211:
	jmp	LBB4_42
LBB4_40:
Ltmp206:
	jmp	LBB4_46
LBB4_38:
Ltmp195:
	movq	%rax, %r14
	movq	%r15, %rdi
	movq	%rbx, %rsi
	callq	__ZN5alloc5alloc8box_free17h601baa71c821b98cE
	movq	%r14, %rdi
	callq	__Unwind_Resume
	ud2
LBB4_34:
Ltmp200:
	movq	%rax, %r14
Ltmp201:
	leaq	384(%rsp), %rdi
	callq	__ZN4core3ptr13drop_in_place17h04000df5dc98c10bE
Ltmp202:
	jmp	LBB4_43
LBB4_41:
Ltmp203:
LBB4_42:
	movq	%rax, %r14
	movq	%r14, %rdi
	callq	__Unwind_Resume
	ud2
LBB4_19:
Ltmp180:
Ltmp181:
	movq	%rax, %rdi
	callq	__ZN3std9panicking3try7cleanup17hd895f7beef0a7dadE
Ltmp182:
	movq	%rdx, %rcx
	leaq	376(%rsp), %rsi
Ltmp183:
	movq	%rbx, %rdi
	movq	%rax, %rdx
	callq	__ZN10rayon_core4join23join_recover_from_panic17h65e0dcb6d5862f08E
Ltmp184:
LBB4_6:
	ud2
LBB4_45:
Ltmp185:
	jmp	LBB4_46
LBB4_44:
Ltmp214:
	jmp	LBB4_46
LBB4_39:
Ltmp190:
LBB4_46:
	movq	%rax, %r14
	leaq	192(%rsp), %rdi
	callq	__ZN4core3ptr13drop_in_place17h04000df5dc98c10bE
LBB4_43:
	movq	%r14, %rdi
	callq	__Unwind_Resume
	ud2
Lfunc_end4:
	.cfi_endproc
	.section	__TEXT,__gcc_except_tab
	.p2align	2
GCC_except_table4:
Lexception4:
	.byte	255
	.byte	155
	.uleb128 Lttbase4-Lttbaseref4
Lttbaseref4:
	.byte	1
	.uleb128 Lcst_end4-Lcst_begin4
Lcst_begin4:
	.uleb128 Ltmp172-Lfunc_begin4
	.uleb128 Ltmp177-Ltmp172
	.uleb128 Ltmp214-Lfunc_begin4
	.byte	0
	.uleb128 Ltmp178-Lfunc_begin4
	.uleb128 Ltmp179-Ltmp178
	.uleb128 Ltmp180-Lfunc_begin4
	.byte	3
	.uleb128 Ltmp188-Lfunc_begin4
	.uleb128 Ltmp187-Ltmp188
	.uleb128 Ltmp190-Lfunc_begin4
	.byte	0
	.uleb128 Ltmp191-Lfunc_begin4
	.uleb128 Ltmp192-Ltmp191
	.uleb128 Ltmp200-Lfunc_begin4
	.byte	0
	.uleb128 Ltmp193-Lfunc_begin4
	.uleb128 Ltmp194-Ltmp193
	.uleb128 Ltmp195-Lfunc_begin4
	.byte	0
	.uleb128 Ltmp204-Lfunc_begin4
	.uleb128 Ltmp205-Ltmp204
	.uleb128 Ltmp206-Lfunc_begin4
	.byte	0
	.uleb128 Ltmp207-Lfunc_begin4
	.uleb128 Ltmp208-Ltmp207
	.uleb128 Ltmp211-Lfunc_begin4
	.byte	0
	.uleb128 Ltmp212-Lfunc_begin4
	.uleb128 Ltmp213-Ltmp212
	.uleb128 Ltmp214-Lfunc_begin4
	.byte	0
	.uleb128 Ltmp209-Lfunc_begin4
	.uleb128 Ltmp210-Ltmp209
	.uleb128 Ltmp211-Lfunc_begin4
	.byte	0
	.uleb128 Ltmp174-Lfunc_begin4
	.uleb128 Ltmp175-Ltmp174
	.uleb128 Ltmp214-Lfunc_begin4
	.byte	0
	.uleb128 Ltmp198-Lfunc_begin4
	.uleb128 Ltmp197-Ltmp198
	.uleb128 Ltmp200-Lfunc_begin4
	.byte	0
	.uleb128 Ltmp197-Lfunc_begin4
	.uleb128 Ltmp201-Ltmp197
	.byte	0
	.byte	0
	.uleb128 Ltmp201-Lfunc_begin4
	.uleb128 Ltmp202-Ltmp201
	.uleb128 Ltmp203-Lfunc_begin4
	.byte	0
	.uleb128 Ltmp202-Lfunc_begin4
	.uleb128 Ltmp181-Ltmp202
	.byte	0
	.byte	0
	.uleb128 Ltmp181-Lfunc_begin4
	.uleb128 Ltmp182-Ltmp181
	.uleb128 Ltmp214-Lfunc_begin4
	.byte	0
	.uleb128 Ltmp183-Lfunc_begin4
	.uleb128 Ltmp184-Ltmp183
	.uleb128 Ltmp185-Lfunc_begin4
	.byte	0
	.uleb128 Ltmp184-Lfunc_begin4
	.uleb128 Lfunc_end4-Ltmp184
	.byte	0
	.byte	0
Lcst_end4:
	.byte	0
	.byte	0
	.byte	1
	.byte	125
	.p2align	2
	.long	0
Lttbase4:
	.p2align	2

	.section	__TEXT,__text,regular,pure_instructions
	.p2align	4, 0x90
__ZN10rayon_core4join12join_context28_$u7b$$u7b$closure$u7d$$u7d$17h2dcc77ab8eef10feE:
Lfunc_begin5:
	.cfi_startproc
	.cfi_personality 155, _rust_eh_personality
	.cfi_lsda 16, Lexception5
	pushq	%rbp
	.cfi_def_cfa_offset 16
	.cfi_offset %rbp, -16
	movq	%rsp, %rbp
	.cfi_def_cfa_register %rbp
	pushq	%r15
	pushq	%r14
	pushq	%r13
	pushq	%r12
	pushq	%rbx
	andq	$-64, %rsp
	subq	$1024, %rsp
	.cfi_offset %rbx, -56
	.cfi_offset %r12, -48
	.cfi_offset %r13, -40
	.cfi_offset %r14, -32
	.cfi_offset %r15, -24
	movq	%rdx, %rbx
	movq	%rsi, %r12
	movq	%rdi, 56(%rsp)
	movb	$0, 416(%rsp)
	vmovups	(%rsi), %ymm0
	vmovups	32(%rsi), %ymm1
	vmovaps	%ymm0, 320(%rsp)
	vmovups	64(%rsi), %ymm0
	vmovaps	%ymm1, 352(%rsp)
	vmovaps	%ymm0, 384(%rsp)
	movq	$0, 192(%rsp)
	movq	256(%rdx), %rax
	movq	264(%rax), %r15
	movq	256(%rax), %rax
	movq	272(%rdx), %rsi
	movq	%r15, %rdx
	subq	%rax, %rdx
	cmpq	%rsi, %rdx
	movl	%ecx, 160(%rsp)
	jl	LBB5_4
	addq	%rsi, %rsi
	jb	LBB5_7
	leaq	256(%rbx), %rdi
Ltmp215:
	vzeroupper
	callq	__ZN15crossbeam_deque15Worker$LT$T$GT$6resize17h34dc55adb45f7cc1E
Ltmp216:
	movq	272(%rbx), %rsi
LBB5_4:
	subq	$1, %rsi
	jb	LBB5_5
	movq	264(%rbx), %rax
	andq	%r15, %rsi
	shlq	$4, %rsi
	leaq	192(%rsp), %r13
	movq	%r13, (%rax,%rsi)
	leaq	__ZN83_$LT$rayon_core..job..StackJob$LT$L$C$F$C$R$GT$$u20$as$u20$rayon_core..job..Job$GT$7execute17h82a774eddec8b54fE(%rip), %r14
	movq	%r14, 8(%rax,%rsi)
	##MEMBARRIER
	movq	256(%rbx), %rax
	incq	%r15
	movq	%r15, 264(%rax)
	movl	$408, %edi
	addq	304(%rbx), %rdi
	movq	288(%rbx), %rsi
Ltmp219:
	vzeroupper
	callq	__ZN10rayon_core5sleep5Sleep6tickle17h00d06f732555dc32E
Ltmp220:
	vmovups	96(%r12), %ymm0
	movq	176(%r12), %rax
	vmovdqu	96(%r12), %xmm1
	vmovups	144(%r12), %xmm2
	vmovq	%xmm1, %rcx
	vpextrq	$1, %xmm1, %rdx
	vperm2f128	$33, 128(%r12), %ymm0, %ymm0
	vmovups	160(%r12), %xmm1
	vmovaps	%xmm1, 736(%rsp)
	movq	(%rcx), %rsi
	movq	(%rdx), %rcx
	movq	8(%rdx), %r8
	vmovups	%xmm2, 480(%rsp)
	vmovups	%ymm0, 448(%rsp)
	vmovups	%xmm1, 496(%rsp)
Ltmp221:
	movq	%rax, (%rsp)
	movzbl	160(%rsp), %r15d
	leaq	64(%rsp), %rdi
	leaq	448(%rsp), %r9
	movl	%r15d, %edx
	vzeroupper
	callq	__ZN5rayon4iter8plumbing24bridge_producer_consumer6helper17h08cd0410494d8951E
Ltmp222:
	vmovaps	64(%rsp), %ymm0
	vmovaps	%ymm0, 160(%rsp)
	vmovaps	96(%rsp), %ymm0
	vmovaps	%ymm0, 800(%rsp)
	leaq	416(%rsp), %r12
	movb	416(%rsp), %al
	testb	%al, %al
	je	LBB5_12
	jmp	LBB5_16
	.p2align	4, 0x90
LBB5_23:
Ltmp231:
	movq	%rbx, %rdi
	movq	%rax, %rsi
	callq	__ZN10rayon_core8registry12WorkerThread7execute17h2d3f3a8dd2af2716E
Ltmp232:
	movzbl	416(%rsp), %eax
	testb	%al, %al
	jne	LBB5_16
LBB5_12:
Ltmp229:
	movq	%rbx, %rdi
	vzeroupper
	callq	__ZN10rayon_core8registry12WorkerThread14take_local_job17h123bfb54be8597fdE
Ltmp230:
	testq	%rdx, %rdx
	je	LBB5_14
	cmpq	%r13, %rax
	jne	LBB5_23
	cmpq	%r14, %rdx
	jne	LBB5_23
	vmovaps	416(%rsp), %ymm0
	vmovaps	%ymm0, 672(%rsp)
	vmovaps	384(%rsp), %ymm0
	vmovaps	%ymm0, 640(%rsp)
	vmovaps	352(%rsp), %ymm0
	vmovaps	%ymm0, 608(%rsp)
	vmovaps	320(%rsp), %ymm0
	vmovaps	%ymm0, 576(%rsp)
	vmovaps	192(%rsp), %ymm0
	vmovaps	224(%rsp), %ymm1
	vmovaps	256(%rsp), %ymm2
	vmovaps	288(%rsp), %ymm3
	vmovaps	%ymm3, 544(%rsp)
	vmovaps	%ymm2, 512(%rsp)
	vmovaps	%ymm1, 480(%rsp)
	vmovaps	%ymm0, 448(%rsp)
	movq	576(%rsp), %rdx
	movq	584(%rsp), %rcx
	movq	592(%rsp), %rax
	vmovups	600(%rsp), %ymm0
	vmovups	632(%rsp), %ymm1
	vmovaps	%ymm0, 64(%rsp)
	vmovaps	%ymm1, 96(%rsp)
	testq	%rdx, %rdx
	je	LBB5_25
	vmovaps	64(%rsp), %ymm0
	vmovaps	96(%rsp), %ymm1
	vmovaps	%ymm1, 928(%rsp)
	vmovaps	%ymm0, 896(%rsp)
	vmovaps	%ymm1, 768(%rsp)
	movq	664(%rsp), %rdi
	vmovaps	%ymm0, 736(%rsp)
	movq	(%rdx), %rsi
	subq	(%rcx), %rsi
	jb	LBB5_33
	movq	(%rax), %rcx
	movq	8(%rax), %r8
	vmovaps	736(%rsp), %ymm0
	vmovaps	768(%rsp), %ymm1
	vmovaps	%ymm1, 96(%rsp)
	vmovaps	%ymm0, 64(%rsp)
Ltmp234:
	movq	%rdi, (%rsp)
	leaq	832(%rsp), %rdi
	leaq	64(%rsp), %r9
	movl	%r15d, %edx
	vzeroupper
	callq	__ZN5rayon4iter8plumbing24bridge_producer_consumer6helper17h08cd0410494d8951E
Ltmp235:
	cmpq	$2, 448(%rsp)
	jb	LBB5_32
	movq	456(%rsp), %r15
	movq	464(%rsp), %rbx
Ltmp236:
	movq	%r15, %rdi
	callq	*(%rbx)
Ltmp237:
	movq	8(%rbx), %rsi
	testq	%rsi, %rsi
	je	LBB5_32
	movq	16(%rbx), %rdx
	movq	%r15, %rdi
	callq	___rust_dealloc
LBB5_32:
	vmovaps	832(%rsp), %ymm0
	vmovaps	864(%rsp), %ymm1
	jmp	LBB5_37
LBB5_14:
	movb	416(%rsp), %al
	testb	%al, %al
	jne	LBB5_16
Ltmp247:
	movq	%rbx, %rdi
	movq	%r12, %rsi
	callq	__ZN10rayon_core8registry12WorkerThread15wait_until_cold17hf0fae827bbf09742E
Ltmp248:
LBB5_16:
	movq	192(%rsp), %rax
	cmpq	$1, %rax
	jne	LBB5_17
	vmovaps	256(%rsp), %ymm0
	vmovaps	288(%rsp), %ymm1
LBB5_37:
	movq	56(%rsp), %rax
	vmovaps	160(%rsp), %ymm2
	vmovaps	%ymm2, (%rax)
	vmovaps	800(%rsp), %ymm2
	vmovaps	%ymm2, 32(%rax)
	vmovaps	%ymm0, 64(%rax)
	vmovaps	%ymm1, 96(%rax)
	leaq	-40(%rbp), %rsp
	popq	%rbx
	popq	%r12
	popq	%r13
	popq	%r14
	popq	%r15
	popq	%rbp
	vzeroupper
	retq
LBB5_17:
	testq	%rax, %rax
	je	LBB5_35
	movq	200(%rsp), %rdi
	movq	208(%rsp), %rsi
Ltmp250:
	vzeroupper
	callq	__ZN10rayon_core6unwind16resume_unwinding17h47c2e39f90248736E
Ltmp251:
	jmp	LBB5_6
LBB5_5:
Ltmp255:
	leaq	_str.1(%rip), %rdi
	leaq	l___unnamed_1(%rip), %rdx
	movl	$33, %esi
	vzeroupper
	callq	__ZN4core9panicking5panic17h736ee47a631475c0E
Ltmp256:
	jmp	LBB5_6
LBB5_35:
Ltmp252:
	leaq	l___unnamed_2(%rip), %rdi
	leaq	l___unnamed_3(%rip), %rdx
	movl	$40, %esi
	vzeroupper
	callq	__ZN3std9panicking11begin_panic17h853288e601a61dd9E
Ltmp253:
	jmp	LBB5_6
LBB5_7:
Ltmp217:
	leaq	_str.3(%rip), %rdi
	leaq	l___unnamed_4(%rip), %rdx
	movl	$33, %esi
	vzeroupper
	callq	__ZN4core9panicking5panic17h736ee47a631475c0E
Ltmp218:
	jmp	LBB5_6
LBB5_25:
Ltmp241:
	leaq	l___unnamed_5(%rip), %rdi
	leaq	l___unnamed_6(%rip), %rdx
	movl	$43, %esi
	vzeroupper
	callq	__ZN4core9panicking5panic17h736ee47a631475c0E
Ltmp242:
	jmp	LBB5_6
LBB5_33:
Ltmp239:
	leaq	_str.1(%rip), %rdi
	leaq	l___unnamed_7(%rip), %rdx
	movl	$33, %esi
	vzeroupper
	callq	__ZN4core9panicking5panic17h736ee47a631475c0E
Ltmp240:
	jmp	LBB5_6
LBB5_47:
Ltmp254:
	jmp	LBB5_42
LBB5_40:
Ltmp249:
	jmp	LBB5_46
LBB5_38:
Ltmp238:
	movq	%rax, %r14
	movq	%r15, %rdi
	movq	%rbx, %rsi
	callq	__ZN5alloc5alloc8box_free17h601baa71c821b98cE
	movq	%r14, %rdi
	callq	__Unwind_Resume
	ud2
LBB5_34:
Ltmp243:
	movq	%rax, %r14
Ltmp244:
	leaq	448(%rsp), %rdi
	callq	__ZN4core3ptr13drop_in_place17h04000df5dc98c10bE
Ltmp245:
	jmp	LBB5_43
LBB5_41:
Ltmp246:
LBB5_42:
	movq	%rax, %r14
	movq	%r14, %rdi
	callq	__Unwind_Resume
	ud2
LBB5_19:
Ltmp223:
Ltmp224:
	movq	%rax, %rdi
	callq	__ZN3std9panicking3try7cleanup17hd895f7beef0a7dadE
Ltmp225:
	movq	%rdx, %rcx
	leaq	416(%rsp), %rsi
Ltmp226:
	movq	%rbx, %rdi
	movq	%rax, %rdx
	callq	__ZN10rayon_core4join23join_recover_from_panic17h65e0dcb6d5862f08E
Ltmp227:
LBB5_6:
	ud2
LBB5_45:
Ltmp228:
	jmp	LBB5_46
LBB5_44:
Ltmp257:
	jmp	LBB5_46
LBB5_39:
Ltmp233:
LBB5_46:
	movq	%rax, %r14
	leaq	192(%rsp), %rdi
	callq	__ZN4core3ptr13drop_in_place17h04000df5dc98c10bE
LBB5_43:
	movq	%r14, %rdi
	callq	__Unwind_Resume
	ud2
Lfunc_end5:
	.cfi_endproc
	.section	__TEXT,__gcc_except_tab
	.p2align	2
GCC_except_table5:
Lexception5:
	.byte	255
	.byte	155
	.uleb128 Lttbase5-Lttbaseref5
Lttbaseref5:
	.byte	1
	.uleb128 Lcst_end5-Lcst_begin5
Lcst_begin5:
	.uleb128 Ltmp215-Lfunc_begin5
	.uleb128 Ltmp220-Ltmp215
	.uleb128 Ltmp257-Lfunc_begin5
	.byte	0
	.uleb128 Ltmp221-Lfunc_begin5
	.uleb128 Ltmp222-Ltmp221
	.uleb128 Ltmp223-Lfunc_begin5
	.byte	3
	.uleb128 Ltmp231-Lfunc_begin5
	.uleb128 Ltmp230-Ltmp231
	.uleb128 Ltmp233-Lfunc_begin5
	.byte	0
	.uleb128 Ltmp234-Lfunc_begin5
	.uleb128 Ltmp235-Ltmp234
	.uleb128 Ltmp243-Lfunc_begin5
	.byte	0
	.uleb128 Ltmp236-Lfunc_begin5
	.uleb128 Ltmp237-Ltmp236
	.uleb128 Ltmp238-Lfunc_begin5
	.byte	0
	.uleb128 Ltmp247-Lfunc_begin5
	.uleb128 Ltmp248-Ltmp247
	.uleb128 Ltmp249-Lfunc_begin5
	.byte	0
	.uleb128 Ltmp250-Lfunc_begin5
	.uleb128 Ltmp251-Ltmp250
	.uleb128 Ltmp254-Lfunc_begin5
	.byte	0
	.uleb128 Ltmp255-Lfunc_begin5
	.uleb128 Ltmp256-Ltmp255
	.uleb128 Ltmp257-Lfunc_begin5
	.byte	0
	.uleb128 Ltmp252-Lfunc_begin5
	.uleb128 Ltmp253-Ltmp252
	.uleb128 Ltmp254-Lfunc_begin5
	.byte	0
	.uleb128 Ltmp217-Lfunc_begin5
	.uleb128 Ltmp218-Ltmp217
	.uleb128 Ltmp257-Lfunc_begin5
	.byte	0
	.uleb128 Ltmp241-Lfunc_begin5
	.uleb128 Ltmp240-Ltmp241
	.uleb128 Ltmp243-Lfunc_begin5
	.byte	0
	.uleb128 Ltmp240-Lfunc_begin5
	.uleb128 Ltmp244-Ltmp240
	.byte	0
	.byte	0
	.uleb128 Ltmp244-Lfunc_begin5
	.uleb128 Ltmp245-Ltmp244
	.uleb128 Ltmp246-Lfunc_begin5
	.byte	0
	.uleb128 Ltmp245-Lfunc_begin5
	.uleb128 Ltmp224-Ltmp245
	.byte	0
	.byte	0
	.uleb128 Ltmp224-Lfunc_begin5
	.uleb128 Ltmp225-Ltmp224
	.uleb128 Ltmp257-Lfunc_begin5
	.byte	0
	.uleb128 Ltmp226-Lfunc_begin5
	.uleb128 Ltmp227-Ltmp226
	.uleb128 Ltmp228-Lfunc_begin5
	.byte	0
	.uleb128 Ltmp227-Lfunc_begin5
	.uleb128 Lfunc_end5-Ltmp227
	.byte	0
	.byte	0
Lcst_end5:
	.byte	0
	.byte	0
	.byte	1
	.byte	125
	.p2align	2
	.long	0
Lttbase5:
	.p2align	2

	.section	__TEXT,__text,regular,pure_instructions
	.p2align	4, 0x90
__ZN10rayon_core4join12join_context28_$u7b$$u7b$closure$u7d$$u7d$17h3290a287d572be01E:
Lfunc_begin6:
	.cfi_startproc
	.cfi_personality 155, _rust_eh_personality
	.cfi_lsda 16, Lexception6
	pushq	%rbp
	.cfi_def_cfa_offset 16
	.cfi_offset %rbp, -16
	movq	%rsp, %rbp
	.cfi_def_cfa_register %rbp
	pushq	%r15
	pushq	%r14
	pushq	%r13
	pushq	%r12
	pushq	%rbx
	subq	$184, %rsp
	.cfi_offset %rbx, -56
	.cfi_offset %r12, -48
	.cfi_offset %r13, -40
	.cfi_offset %r14, -32
	.cfi_offset %r15, -24
	movq	%rsi, %rbx
	movq	%rdi, %r15
	vmovups	(%rdi), %ymm0
	vmovups	16(%rdi), %ymm1
	vmovups	%ymm1, -112(%rbp)
	vmovups	%ymm0, -128(%rbp)
	movb	$0, -56(%rbp)
	movq	$0, -80(%rbp)
	movq	256(%rsi), %rax
	movq	264(%rax), %r14
	movq	256(%rax), %rax
	movq	272(%rsi), %rsi
	movq	%r14, %rcx
	subq	%rax, %rcx
	cmpq	%rsi, %rcx
	movl	%edx, -44(%rbp)
	jl	LBB6_4
	addq	%rsi, %rsi
	jb	LBB6_7
	leaq	256(%rbx), %rdi
Ltmp258:
	vzeroupper
	callq	__ZN15crossbeam_deque15Worker$LT$T$GT$6resize17h34dc55adb45f7cc1E
Ltmp259:
	movq	272(%rbx), %rsi
LBB6_4:
	subq	$1, %rsi
	jb	LBB6_5
	movq	264(%rbx), %rax
	andq	%r14, %rsi
	shlq	$4, %rsi
	leaq	-128(%rbp), %r12
	movq	%r12, (%rax,%rsi)
	leaq	__ZN83_$LT$rayon_core..job..StackJob$LT$L$C$F$C$R$GT$$u20$as$u20$rayon_core..job..Job$GT$7execute17h6733e7fed8fc0b08E(%rip), %r13
	movq	%r13, 8(%rax,%rsi)
	##MEMBARRIER
	movq	256(%rbx), %rax
	incq	%r14
	movq	%r14, 264(%rax)
	movl	$408, %edi
	addq	304(%rbx), %rdi
	movq	288(%rbx), %rsi
Ltmp262:
	vzeroupper
	callq	__ZN10rayon_core5sleep5Sleep6tickle17h00d06f732555dc32E
Ltmp263:
	movq	48(%r15), %rax
	movq	56(%r15), %rcx
	movq	64(%r15), %r8
	movq	72(%r15), %r9
	movq	80(%r15), %rsi
	movq	(%rax), %rdi
	movq	(%rcx), %rdx
	movq	8(%rcx), %rcx
Ltmp264:
	movq	%rsi, (%rsp)
	movzbl	-44(%rbp), %r14d
	movl	%r14d, %esi
	callq	__ZN5rayon4iter8plumbing24bridge_producer_consumer6helper17h2395d30d65c44400E
Ltmp265:
LBB6_12:
	leaq	-56(%rbp), %r15
	movb	-56(%rbp), %al
	testb	%al, %al
	je	LBB6_14
	jmp	LBB6_18
	.p2align	4, 0x90
LBB6_23:
Ltmp274:
	movq	%rbx, %rdi
	movq	%rax, %rsi
	callq	__ZN10rayon_core8registry12WorkerThread7execute17h2d3f3a8dd2af2716E
Ltmp275:
	movzbl	-56(%rbp), %eax
	testb	%al, %al
	jne	LBB6_18
LBB6_14:
Ltmp272:
	movq	%rbx, %rdi
	callq	__ZN10rayon_core8registry12WorkerThread14take_local_job17h123bfb54be8597fdE
Ltmp273:
	testq	%rdx, %rdx
	je	LBB6_16
	cmpq	%r12, %rax
	jne	LBB6_23
	cmpq	%r13, %rdx
	jne	LBB6_23
	vmovups	-128(%rbp), %ymm0
	vmovups	-96(%rbp), %ymm1
	vmovups	-80(%rbp), %ymm2
	vmovups	%ymm0, -208(%rbp)
	vmovups	%ymm1, -176(%rbp)
	vmovups	%ymm2, -160(%rbp)
	movq	-208(%rbp), %rax
	testq	%rax, %rax
	je	LBB6_25
	movq	-200(%rbp), %rcx
	movq	(%rax), %rdi
	subq	(%rcx), %rdi
	jb	LBB6_27
	movq	-192(%rbp), %rax
	movq	-184(%rbp), %r8
	movq	-176(%rbp), %r9
	movq	-168(%rbp), %rsi
	movq	(%rax), %rdx
	movq	8(%rax), %rcx
Ltmp277:
	movq	%rsi, (%rsp)
	movl	%r14d, %esi
	vzeroupper
	callq	__ZN5rayon4iter8plumbing24bridge_producer_consumer6helper17h2395d30d65c44400E
Ltmp278:
	cmpq	$2, -160(%rbp)
	jb	LBB6_33
	movq	-152(%rbp), %r15
	movq	-144(%rbp), %rbx
Ltmp279:
	movq	%r15, %rdi
	callq	*(%rbx)
Ltmp280:
	movq	8(%rbx), %rsi
	testq	%rsi, %rsi
	je	LBB6_33
	movq	16(%rbx), %rdx
	movq	%r15, %rdi
	callq	___rust_dealloc
	jmp	LBB6_33
LBB6_16:
	movb	-56(%rbp), %al
	testb	%al, %al
	jne	LBB6_18
Ltmp290:
	movq	%rbx, %rdi
	movq	%r15, %rsi
	callq	__ZN10rayon_core8registry12WorkerThread15wait_until_cold17hf0fae827bbf09742E
Ltmp291:
LBB6_18:
	movq	-80(%rbp), %rax
	cmpq	$1, %rax
	jne	LBB6_19
LBB6_33:
	addq	$184, %rsp
	popq	%rbx
	popq	%r12
	popq	%r13
	popq	%r14
	popq	%r15
	popq	%rbp
	retq
LBB6_19:
	testq	%rax, %rax
	je	LBB6_35
	movq	-72(%rbp), %rdi
	movq	-64(%rbp), %rsi
Ltmp293:
	callq	__ZN10rayon_core6unwind16resume_unwinding17h47c2e39f90248736E
Ltmp294:
	jmp	LBB6_6
LBB6_5:
Ltmp298:
	leaq	_str.1(%rip), %rdi
	leaq	l___unnamed_1(%rip), %rdx
	movl	$33, %esi
	vzeroupper
	callq	__ZN4core9panicking5panic17h736ee47a631475c0E
Ltmp299:
	jmp	LBB6_6
LBB6_35:
Ltmp295:
	leaq	l___unnamed_2(%rip), %rdi
	leaq	l___unnamed_3(%rip), %rdx
	movl	$40, %esi
	callq	__ZN3std9panicking11begin_panic17h853288e601a61dd9E
Ltmp296:
	jmp	LBB6_6
LBB6_7:
Ltmp260:
	leaq	_str.3(%rip), %rdi
	leaq	l___unnamed_4(%rip), %rdx
	movl	$33, %esi
	vzeroupper
	callq	__ZN4core9panicking5panic17h736ee47a631475c0E
Ltmp261:
	jmp	LBB6_6
LBB6_25:
Ltmp284:
	leaq	l___unnamed_5(%rip), %rdi
	leaq	l___unnamed_6(%rip), %rdx
	movl	$43, %esi
	vzeroupper
	callq	__ZN4core9panicking5panic17h736ee47a631475c0E
Ltmp285:
	jmp	LBB6_6
LBB6_27:
Ltmp282:
	leaq	_str.1(%rip), %rdi
	leaq	l___unnamed_7(%rip), %rdx
	movl	$33, %esi
	vzeroupper
	callq	__ZN4core9panicking5panic17h736ee47a631475c0E
Ltmp283:
LBB6_6:
	ud2
LBB6_46:
Ltmp297:
	jmp	LBB6_40
LBB6_38:
Ltmp292:
	jmp	LBB6_45
LBB6_36:
Ltmp281:
	movq	%rax, %r14
	movq	%r15, %rdi
	movq	%rbx, %rsi
	callq	__ZN5alloc5alloc8box_free17h601baa71c821b98cE
	movq	%r14, %rdi
	callq	__Unwind_Resume
	ud2
LBB6_34:
Ltmp286:
	movq	%rax, %r14
	leaq	-160(%rbp), %rdi
Ltmp287:
	callq	__ZN4core3ptr13drop_in_place17hf1c6e0d6c6000ae2E
Ltmp288:
	jmp	LBB6_41
LBB6_39:
Ltmp289:
LBB6_40:
	movq	%rax, %r14
	movq	%r14, %rdi
	callq	__Unwind_Resume
	ud2
LBB6_10:
Ltmp266:
Ltmp267:
	movq	%rax, %rdi
	callq	__ZN3std9panicking3try7cleanup17hd895f7beef0a7dadE
Ltmp268:
	testq	%rax, %rax
	je	LBB6_12
	movq	%rdx, %rcx
	leaq	-56(%rbp), %rsi
Ltmp269:
	movq	%rbx, %rdi
	movq	%rax, %rdx
	callq	__ZN10rayon_core4join23join_recover_from_panic17h65e0dcb6d5862f08E
Ltmp270:
	jmp	LBB6_6
LBB6_44:
Ltmp271:
	jmp	LBB6_45
LBB6_42:
Ltmp300:
	jmp	LBB6_45
LBB6_37:
Ltmp276:
LBB6_45:
	movq	%rax, %r14
	leaq	-128(%rbp), %rdi
	callq	__ZN4core3ptr13drop_in_place17h15e4c257c89b0e89E
LBB6_41:
	movq	%r14, %rdi
	callq	__Unwind_Resume
	ud2
Lfunc_end6:
	.cfi_endproc
	.section	__TEXT,__gcc_except_tab
	.p2align	2
GCC_except_table6:
Lexception6:
	.byte	255
	.byte	155
	.uleb128 Lttbase6-Lttbaseref6
Lttbaseref6:
	.byte	1
	.uleb128 Lcst_end6-Lcst_begin6
Lcst_begin6:
	.uleb128 Ltmp258-Lfunc_begin6
	.uleb128 Ltmp263-Ltmp258
	.uleb128 Ltmp300-Lfunc_begin6
	.byte	0
	.uleb128 Ltmp264-Lfunc_begin6
	.uleb128 Ltmp265-Ltmp264
	.uleb128 Ltmp266-Lfunc_begin6
	.byte	3
	.uleb128 Ltmp274-Lfunc_begin6
	.uleb128 Ltmp273-Ltmp274
	.uleb128 Ltmp276-Lfunc_begin6
	.byte	0
	.uleb128 Ltmp277-Lfunc_begin6
	.uleb128 Ltmp278-Ltmp277
	.uleb128 Ltmp286-Lfunc_begin6
	.byte	0
	.uleb128 Ltmp279-Lfunc_begin6
	.uleb128 Ltmp280-Ltmp279
	.uleb128 Ltmp281-Lfunc_begin6
	.byte	0
	.uleb128 Ltmp290-Lfunc_begin6
	.uleb128 Ltmp291-Ltmp290
	.uleb128 Ltmp292-Lfunc_begin6
	.byte	0
	.uleb128 Ltmp293-Lfunc_begin6
	.uleb128 Ltmp294-Ltmp293
	.uleb128 Ltmp297-Lfunc_begin6
	.byte	0
	.uleb128 Ltmp298-Lfunc_begin6
	.uleb128 Ltmp299-Ltmp298
	.uleb128 Ltmp300-Lfunc_begin6
	.byte	0
	.uleb128 Ltmp295-Lfunc_begin6
	.uleb128 Ltmp296-Ltmp295
	.uleb128 Ltmp297-Lfunc_begin6
	.byte	0
	.uleb128 Ltmp260-Lfunc_begin6
	.uleb128 Ltmp261-Ltmp260
	.uleb128 Ltmp300-Lfunc_begin6
	.byte	0
	.uleb128 Ltmp284-Lfunc_begin6
	.uleb128 Ltmp283-Ltmp284
	.uleb128 Ltmp286-Lfunc_begin6
	.byte	0
	.uleb128 Ltmp283-Lfunc_begin6
	.uleb128 Ltmp287-Ltmp283
	.byte	0
	.byte	0
	.uleb128 Ltmp287-Lfunc_begin6
	.uleb128 Ltmp288-Ltmp287
	.uleb128 Ltmp289-Lfunc_begin6
	.byte	0
	.uleb128 Ltmp288-Lfunc_begin6
	.uleb128 Ltmp267-Ltmp288
	.byte	0
	.byte	0
	.uleb128 Ltmp267-Lfunc_begin6
	.uleb128 Ltmp268-Ltmp267
	.uleb128 Ltmp300-Lfunc_begin6
	.byte	0
	.uleb128 Ltmp269-Lfunc_begin6
	.uleb128 Ltmp270-Ltmp269
	.uleb128 Ltmp271-Lfunc_begin6
	.byte	0
	.uleb128 Ltmp270-Lfunc_begin6
	.uleb128 Lfunc_end6-Ltmp270
	.byte	0
	.byte	0
Lcst_end6:
	.byte	0
	.byte	0
	.byte	1
	.byte	125
	.p2align	2
	.long	0
Lttbase6:
	.p2align	2

	.section	__TEXT,__text,regular,pure_instructions
	.p2align	4, 0x90
__ZN10rayon_core4join12join_context28_$u7b$$u7b$closure$u7d$$u7d$17h35cb1e0ec72c1b47E:
Lfunc_begin7:
	.cfi_startproc
	.cfi_personality 155, _rust_eh_personality
	.cfi_lsda 16, Lexception7
	pushq	%rbp
	.cfi_def_cfa_offset 16
	.cfi_offset %rbp, -16
	movq	%rsp, %rbp
	.cfi_def_cfa_register %rbp
	pushq	%r15
	pushq	%r14
	pushq	%r13
	pushq	%r12
	pushq	%rbx
	subq	$184, %rsp
	.cfi_offset %rbx, -56
	.cfi_offset %r12, -48
	.cfi_offset %r13, -40
	.cfi_offset %r14, -32
	.cfi_offset %r15, -24
	movq	%rsi, %rbx
	movq	%rdi, %r15
	vmovups	(%rdi), %ymm0
	vmovups	16(%rdi), %ymm1
	vmovups	%ymm1, -112(%rbp)
	vmovups	%ymm0, -128(%rbp)
	movb	$0, -56(%rbp)
	movq	$0, -80(%rbp)
	movq	256(%rsi), %rax
	movq	264(%rax), %r14
	movq	256(%rax), %rax
	movq	272(%rsi), %rsi
	movq	%r14, %rcx
	subq	%rax, %rcx
	cmpq	%rsi, %rcx
	movl	%edx, -44(%rbp)
	jl	LBB7_4
	addq	%rsi, %rsi
	jb	LBB7_7
	leaq	256(%rbx), %rdi
Ltmp301:
	vzeroupper
	callq	__ZN15crossbeam_deque15Worker$LT$T$GT$6resize17h34dc55adb45f7cc1E
Ltmp302:
	movq	272(%rbx), %rsi
LBB7_4:
	subq	$1, %rsi
	jb	LBB7_5
	movq	264(%rbx), %rax
	andq	%r14, %rsi
	shlq	$4, %rsi
	leaq	-128(%rbp), %r12
	movq	%r12, (%rax,%rsi)
	leaq	__ZN83_$LT$rayon_core..job..StackJob$LT$L$C$F$C$R$GT$$u20$as$u20$rayon_core..job..Job$GT$7execute17h04448f338fbbd7b1E(%rip), %r13
	movq	%r13, 8(%rax,%rsi)
	##MEMBARRIER
	movq	256(%rbx), %rax
	incq	%r14
	movq	%r14, 264(%rax)
	movl	$408, %edi
	addq	304(%rbx), %rdi
	movq	288(%rbx), %rsi
Ltmp305:
	vzeroupper
	callq	__ZN10rayon_core5sleep5Sleep6tickle17h00d06f732555dc32E
Ltmp306:
	movq	48(%r15), %rax
	movq	56(%r15), %rcx
	movq	64(%r15), %r8
	movq	72(%r15), %r9
	movq	80(%r15), %rsi
	movq	(%rax), %rdi
	movq	(%rcx), %rdx
	movq	8(%rcx), %rcx
Ltmp307:
	movq	%rsi, (%rsp)
	movzbl	-44(%rbp), %r14d
	movl	%r14d, %esi
	callq	__ZN5rayon4iter8plumbing24bridge_producer_consumer6helper17he71c6e485153800aE
Ltmp308:
LBB7_12:
	leaq	-56(%rbp), %r15
	movb	-56(%rbp), %al
	testb	%al, %al
	je	LBB7_14
	jmp	LBB7_18
	.p2align	4, 0x90
LBB7_23:
Ltmp317:
	movq	%rbx, %rdi
	movq	%rax, %rsi
	callq	__ZN10rayon_core8registry12WorkerThread7execute17h2d3f3a8dd2af2716E
Ltmp318:
	movzbl	-56(%rbp), %eax
	testb	%al, %al
	jne	LBB7_18
LBB7_14:
Ltmp315:
	movq	%rbx, %rdi
	callq	__ZN10rayon_core8registry12WorkerThread14take_local_job17h123bfb54be8597fdE
Ltmp316:
	testq	%rdx, %rdx
	je	LBB7_16
	cmpq	%r12, %rax
	jne	LBB7_23
	cmpq	%r13, %rdx
	jne	LBB7_23
	vmovups	-128(%rbp), %ymm0
	vmovups	-96(%rbp), %ymm1
	vmovups	-80(%rbp), %ymm2
	vmovups	%ymm0, -208(%rbp)
	vmovups	%ymm1, -176(%rbp)
	vmovups	%ymm2, -160(%rbp)
	movq	-208(%rbp), %rax
	testq	%rax, %rax
	je	LBB7_25
	movq	-200(%rbp), %rcx
	movq	(%rax), %rdi
	subq	(%rcx), %rdi
	jb	LBB7_33
	movq	-192(%rbp), %rax
	movq	-184(%rbp), %r8
	movq	-176(%rbp), %r9
	movq	-168(%rbp), %rsi
	movq	(%rax), %rdx
	movq	8(%rax), %rcx
Ltmp320:
	movq	%rsi, (%rsp)
	movl	%r14d, %esi
	vzeroupper
	callq	__ZN5rayon4iter8plumbing24bridge_producer_consumer6helper17he71c6e485153800aE
Ltmp321:
	cmpq	$2, -160(%rbp)
	jb	LBB7_32
	movq	-152(%rbp), %r15
	movq	-144(%rbp), %rbx
Ltmp322:
	movq	%r15, %rdi
	callq	*(%rbx)
Ltmp323:
	movq	8(%rbx), %rsi
	testq	%rsi, %rsi
	je	LBB7_32
	movq	16(%rbx), %rdx
	movq	%r15, %rdi
	callq	___rust_dealloc
	jmp	LBB7_32
LBB7_16:
	movb	-56(%rbp), %al
	testb	%al, %al
	jne	LBB7_18
Ltmp333:
	movq	%rbx, %rdi
	movq	%r15, %rsi
	callq	__ZN10rayon_core8registry12WorkerThread15wait_until_cold17hf0fae827bbf09742E
Ltmp334:
LBB7_18:
	movq	-80(%rbp), %rax
	cmpq	$1, %rax
	jne	LBB7_19
LBB7_32:
	addq	$184, %rsp
	popq	%rbx
	popq	%r12
	popq	%r13
	popq	%r14
	popq	%r15
	popq	%rbp
	retq
LBB7_19:
	testq	%rax, %rax
	je	LBB7_35
	movq	-72(%rbp), %rdi
	movq	-64(%rbp), %rsi
Ltmp336:
	callq	__ZN10rayon_core6unwind16resume_unwinding17h47c2e39f90248736E
Ltmp337:
	jmp	LBB7_6
LBB7_5:
Ltmp341:
	leaq	_str.1(%rip), %rdi
	leaq	l___unnamed_1(%rip), %rdx
	movl	$33, %esi
	vzeroupper
	callq	__ZN4core9panicking5panic17h736ee47a631475c0E
Ltmp342:
	jmp	LBB7_6
LBB7_35:
Ltmp338:
	leaq	l___unnamed_2(%rip), %rdi
	leaq	l___unnamed_3(%rip), %rdx
	movl	$40, %esi
	callq	__ZN3std9panicking11begin_panic17h853288e601a61dd9E
Ltmp339:
	jmp	LBB7_6
LBB7_7:
Ltmp303:
	leaq	_str.3(%rip), %rdi
	leaq	l___unnamed_4(%rip), %rdx
	movl	$33, %esi
	vzeroupper
	callq	__ZN4core9panicking5panic17h736ee47a631475c0E
Ltmp304:
	jmp	LBB7_6
LBB7_25:
Ltmp327:
	leaq	l___unnamed_5(%rip), %rdi
	leaq	l___unnamed_6(%rip), %rdx
	movl	$43, %esi
	vzeroupper
	callq	__ZN4core9panicking5panic17h736ee47a631475c0E
Ltmp328:
	jmp	LBB7_6
LBB7_33:
Ltmp325:
	leaq	_str.1(%rip), %rdi
	leaq	l___unnamed_7(%rip), %rdx
	movl	$33, %esi
	vzeroupper
	callq	__ZN4core9panicking5panic17h736ee47a631475c0E
Ltmp326:
LBB7_6:
	ud2
LBB7_46:
Ltmp340:
	jmp	LBB7_40
LBB7_38:
Ltmp335:
	jmp	LBB7_45
LBB7_36:
Ltmp324:
	movq	%rax, %r14
	movq	%r15, %rdi
	movq	%rbx, %rsi
	callq	__ZN5alloc5alloc8box_free17h601baa71c821b98cE
	movq	%r14, %rdi
	callq	__Unwind_Resume
	ud2
LBB7_34:
Ltmp329:
	movq	%rax, %r14
	leaq	-160(%rbp), %rdi
Ltmp330:
	callq	__ZN4core3ptr13drop_in_place17hf1c6e0d6c6000ae2E
Ltmp331:
	jmp	LBB7_41
LBB7_39:
Ltmp332:
LBB7_40:
	movq	%rax, %r14
	movq	%r14, %rdi
	callq	__Unwind_Resume
	ud2
LBB7_10:
Ltmp309:
Ltmp310:
	movq	%rax, %rdi
	callq	__ZN3std9panicking3try7cleanup17hd895f7beef0a7dadE
Ltmp311:
	testq	%rax, %rax
	je	LBB7_12
	movq	%rdx, %rcx
	leaq	-56(%rbp), %rsi
Ltmp312:
	movq	%rbx, %rdi
	movq	%rax, %rdx
	callq	__ZN10rayon_core4join23join_recover_from_panic17h65e0dcb6d5862f08E
Ltmp313:
	jmp	LBB7_6
LBB7_44:
Ltmp314:
	jmp	LBB7_45
LBB7_42:
Ltmp343:
	jmp	LBB7_45
LBB7_37:
Ltmp319:
LBB7_45:
	movq	%rax, %r14
	leaq	-128(%rbp), %rdi
	callq	__ZN4core3ptr13drop_in_place17h15e4c257c89b0e89E
LBB7_41:
	movq	%r14, %rdi
	callq	__Unwind_Resume
	ud2
Lfunc_end7:
	.cfi_endproc
	.section	__TEXT,__gcc_except_tab
	.p2align	2
GCC_except_table7:
Lexception7:
	.byte	255
	.byte	155
	.uleb128 Lttbase7-Lttbaseref7
Lttbaseref7:
	.byte	1
	.uleb128 Lcst_end7-Lcst_begin7
Lcst_begin7:
	.uleb128 Ltmp301-Lfunc_begin7
	.uleb128 Ltmp306-Ltmp301
	.uleb128 Ltmp343-Lfunc_begin7
	.byte	0
	.uleb128 Ltmp307-Lfunc_begin7
	.uleb128 Ltmp308-Ltmp307
	.uleb128 Ltmp309-Lfunc_begin7
	.byte	3
	.uleb128 Ltmp317-Lfunc_begin7
	.uleb128 Ltmp316-Ltmp317
	.uleb128 Ltmp319-Lfunc_begin7
	.byte	0
	.uleb128 Ltmp320-Lfunc_begin7
	.uleb128 Ltmp321-Ltmp320
	.uleb128 Ltmp329-Lfunc_begin7
	.byte	0
	.uleb128 Ltmp322-Lfunc_begin7
	.uleb128 Ltmp323-Ltmp322
	.uleb128 Ltmp324-Lfunc_begin7
	.byte	0
	.uleb128 Ltmp333-Lfunc_begin7
	.uleb128 Ltmp334-Ltmp333
	.uleb128 Ltmp335-Lfunc_begin7
	.byte	0
	.uleb128 Ltmp336-Lfunc_begin7
	.uleb128 Ltmp337-Ltmp336
	.uleb128 Ltmp340-Lfunc_begin7
	.byte	0
	.uleb128 Ltmp341-Lfunc_begin7
	.uleb128 Ltmp342-Ltmp341
	.uleb128 Ltmp343-Lfunc_begin7
	.byte	0
	.uleb128 Ltmp338-Lfunc_begin7
	.uleb128 Ltmp339-Ltmp338
	.uleb128 Ltmp340-Lfunc_begin7
	.byte	0
	.uleb128 Ltmp303-Lfunc_begin7
	.uleb128 Ltmp304-Ltmp303
	.uleb128 Ltmp343-Lfunc_begin7
	.byte	0
	.uleb128 Ltmp327-Lfunc_begin7
	.uleb128 Ltmp326-Ltmp327
	.uleb128 Ltmp329-Lfunc_begin7
	.byte	0
	.uleb128 Ltmp326-Lfunc_begin7
	.uleb128 Ltmp330-Ltmp326
	.byte	0
	.byte	0
	.uleb128 Ltmp330-Lfunc_begin7
	.uleb128 Ltmp331-Ltmp330
	.uleb128 Ltmp332-Lfunc_begin7
	.byte	0
	.uleb128 Ltmp331-Lfunc_begin7
	.uleb128 Ltmp310-Ltmp331
	.byte	0
	.byte	0
	.uleb128 Ltmp310-Lfunc_begin7
	.uleb128 Ltmp311-Ltmp310
	.uleb128 Ltmp343-Lfunc_begin7
	.byte	0
	.uleb128 Ltmp312-Lfunc_begin7
	.uleb128 Ltmp313-Ltmp312
	.uleb128 Ltmp314-Lfunc_begin7
	.byte	0
	.uleb128 Ltmp313-Lfunc_begin7
	.uleb128 Lfunc_end7-Ltmp313
	.byte	0
	.byte	0
Lcst_end7:
	.byte	0
	.byte	0
	.byte	1
	.byte	125
	.p2align	2
	.long	0
Lttbase7:
	.p2align	2

	.section	__TEXT,__text,regular,pure_instructions
	.p2align	4, 0x90
__ZN10rayon_core4join12join_context28_$u7b$$u7b$closure$u7d$$u7d$17h3978e15f5771cce6E:
Lfunc_begin8:
	.cfi_startproc
	.cfi_personality 155, _rust_eh_personality
	.cfi_lsda 16, Lexception8
	pushq	%rbp
	.cfi_def_cfa_offset 16
	.cfi_offset %rbp, -16
	movq	%rsp, %rbp
	.cfi_def_cfa_register %rbp
	pushq	%r15
	pushq	%r14
	pushq	%r13
	pushq	%r12
	pushq	%rbx
	subq	$184, %rsp
	.cfi_offset %rbx, -56
	.cfi_offset %r12, -48
	.cfi_offset %r13, -40
	.cfi_offset %r14, -32
	.cfi_offset %r15, -24
	movq	%rsi, %rbx
	movq	%rdi, %r15
	vmovups	(%rdi), %ymm0
	vmovups	16(%rdi), %ymm1
	vmovups	%ymm1, -112(%rbp)
	vmovups	%ymm0, -128(%rbp)
	movb	$0, -56(%rbp)
	movq	$0, -80(%rbp)
	movq	256(%rsi), %rax
	movq	264(%rax), %r14
	movq	256(%rax), %rax
	movq	272(%rsi), %rsi
	movq	%r14, %rcx
	subq	%rax, %rcx
	cmpq	%rsi, %rcx
	movl	%edx, -44(%rbp)
	jl	LBB8_4
	addq	%rsi, %rsi
	jb	LBB8_7
	leaq	256(%rbx), %rdi
Ltmp344:
	vzeroupper
	callq	__ZN15crossbeam_deque15Worker$LT$T$GT$6resize17h34dc55adb45f7cc1E
Ltmp345:
	movq	272(%rbx), %rsi
LBB8_4:
	subq	$1, %rsi
	jb	LBB8_5
	movq	264(%rbx), %rax
	andq	%r14, %rsi
	shlq	$4, %rsi
	leaq	-128(%rbp), %r12
	movq	%r12, (%rax,%rsi)
	leaq	__ZN83_$LT$rayon_core..job..StackJob$LT$L$C$F$C$R$GT$$u20$as$u20$rayon_core..job..Job$GT$7execute17h8da3cda5121704f4E(%rip), %r13
	movq	%r13, 8(%rax,%rsi)
	##MEMBARRIER
	movq	256(%rbx), %rax
	incq	%r14
	movq	%r14, 264(%rax)
	movl	$408, %edi
	addq	304(%rbx), %rdi
	movq	288(%rbx), %rsi
Ltmp348:
	vzeroupper
	callq	__ZN10rayon_core5sleep5Sleep6tickle17h00d06f732555dc32E
Ltmp349:
	movq	48(%r15), %rax
	movq	56(%r15), %rcx
	movq	64(%r15), %r8
	movq	72(%r15), %r9
	movq	80(%r15), %rsi
	movq	(%rax), %rdi
	movq	(%rcx), %rdx
	movq	8(%rcx), %rcx
Ltmp350:
	movq	%rsi, (%rsp)
	movzbl	-44(%rbp), %r14d
	movl	%r14d, %esi
	callq	__ZN5rayon4iter8plumbing24bridge_producer_consumer6helper17hf17d0abb9471ca78E
Ltmp351:
LBB8_12:
	leaq	-56(%rbp), %r15
	movb	-56(%rbp), %al
	testb	%al, %al
	je	LBB8_14
	jmp	LBB8_18
	.p2align	4, 0x90
LBB8_23:
Ltmp360:
	movq	%rbx, %rdi
	movq	%rax, %rsi
	callq	__ZN10rayon_core8registry12WorkerThread7execute17h2d3f3a8dd2af2716E
Ltmp361:
	movzbl	-56(%rbp), %eax
	testb	%al, %al
	jne	LBB8_18
LBB8_14:
Ltmp358:
	movq	%rbx, %rdi
	callq	__ZN10rayon_core8registry12WorkerThread14take_local_job17h123bfb54be8597fdE
Ltmp359:
	testq	%rdx, %rdx
	je	LBB8_16
	cmpq	%r12, %rax
	jne	LBB8_23
	cmpq	%r13, %rdx
	jne	LBB8_23
	vmovups	-128(%rbp), %ymm0
	vmovups	-96(%rbp), %ymm1
	vmovups	-80(%rbp), %ymm2
	vmovups	%ymm0, -208(%rbp)
	vmovups	%ymm1, -176(%rbp)
	vmovups	%ymm2, -160(%rbp)
	movq	-208(%rbp), %rax
	testq	%rax, %rax
	je	LBB8_25
	movq	-200(%rbp), %rcx
	movq	(%rax), %rdi
	subq	(%rcx), %rdi
	jb	LBB8_27
	movq	-192(%rbp), %rax
	movq	-184(%rbp), %r8
	movq	-176(%rbp), %r9
	movq	-168(%rbp), %rsi
	movq	(%rax), %rdx
	movq	8(%rax), %rcx
Ltmp363:
	movq	%rsi, (%rsp)
	movl	%r14d, %esi
	vzeroupper
	callq	__ZN5rayon4iter8plumbing24bridge_producer_consumer6helper17hf17d0abb9471ca78E
Ltmp364:
	cmpq	$2, -160(%rbp)
	jb	LBB8_33
	movq	-152(%rbp), %r15
	movq	-144(%rbp), %rbx
Ltmp365:
	movq	%r15, %rdi
	callq	*(%rbx)
Ltmp366:
	movq	8(%rbx), %rsi
	testq	%rsi, %rsi
	je	LBB8_33
	movq	16(%rbx), %rdx
	movq	%r15, %rdi
	callq	___rust_dealloc
	jmp	LBB8_33
LBB8_16:
	movb	-56(%rbp), %al
	testb	%al, %al
	jne	LBB8_18
Ltmp376:
	movq	%rbx, %rdi
	movq	%r15, %rsi
	callq	__ZN10rayon_core8registry12WorkerThread15wait_until_cold17hf0fae827bbf09742E
Ltmp377:
LBB8_18:
	movq	-80(%rbp), %rax
	cmpq	$1, %rax
	jne	LBB8_19
LBB8_33:
	addq	$184, %rsp
	popq	%rbx
	popq	%r12
	popq	%r13
	popq	%r14
	popq	%r15
	popq	%rbp
	retq
LBB8_19:
	testq	%rax, %rax
	je	LBB8_35
	movq	-72(%rbp), %rdi
	movq	-64(%rbp), %rsi
Ltmp379:
	callq	__ZN10rayon_core6unwind16resume_unwinding17h47c2e39f90248736E
Ltmp380:
	jmp	LBB8_6
LBB8_5:
Ltmp384:
	leaq	_str.1(%rip), %rdi
	leaq	l___unnamed_1(%rip), %rdx
	movl	$33, %esi
	vzeroupper
	callq	__ZN4core9panicking5panic17h736ee47a631475c0E
Ltmp385:
	jmp	LBB8_6
LBB8_35:
Ltmp381:
	leaq	l___unnamed_2(%rip), %rdi
	leaq	l___unnamed_3(%rip), %rdx
	movl	$40, %esi
	callq	__ZN3std9panicking11begin_panic17h853288e601a61dd9E
Ltmp382:
	jmp	LBB8_6
LBB8_7:
Ltmp346:
	leaq	_str.3(%rip), %rdi
	leaq	l___unnamed_4(%rip), %rdx
	movl	$33, %esi
	vzeroupper
	callq	__ZN4core9panicking5panic17h736ee47a631475c0E
Ltmp347:
	jmp	LBB8_6
LBB8_25:
Ltmp370:
	leaq	l___unnamed_5(%rip), %rdi
	leaq	l___unnamed_6(%rip), %rdx
	movl	$43, %esi
	vzeroupper
	callq	__ZN4core9panicking5panic17h736ee47a631475c0E
Ltmp371:
	jmp	LBB8_6
LBB8_27:
Ltmp368:
	leaq	_str.1(%rip), %rdi
	leaq	l___unnamed_7(%rip), %rdx
	movl	$33, %esi
	vzeroupper
	callq	__ZN4core9panicking5panic17h736ee47a631475c0E
Ltmp369:
LBB8_6:
	ud2
LBB8_46:
Ltmp383:
	jmp	LBB8_40
LBB8_38:
Ltmp378:
	jmp	LBB8_45
LBB8_36:
Ltmp367:
	movq	%rax, %r14
	movq	%r15, %rdi
	movq	%rbx, %rsi
	callq	__ZN5alloc5alloc8box_free17h601baa71c821b98cE
	movq	%r14, %rdi
	callq	__Unwind_Resume
	ud2
LBB8_34:
Ltmp372:
	movq	%rax, %r14
	leaq	-160(%rbp), %rdi
Ltmp373:
	callq	__ZN4core3ptr13drop_in_place17hf1c6e0d6c6000ae2E
Ltmp374:
	jmp	LBB8_41
LBB8_39:
Ltmp375:
LBB8_40:
	movq	%rax, %r14
	movq	%r14, %rdi
	callq	__Unwind_Resume
	ud2
LBB8_10:
Ltmp352:
Ltmp353:
	movq	%rax, %rdi
	callq	__ZN3std9panicking3try7cleanup17hd895f7beef0a7dadE
Ltmp354:
	testq	%rax, %rax
	je	LBB8_12
	movq	%rdx, %rcx
	leaq	-56(%rbp), %rsi
Ltmp355:
	movq	%rbx, %rdi
	movq	%rax, %rdx
	callq	__ZN10rayon_core4join23join_recover_from_panic17h65e0dcb6d5862f08E
Ltmp356:
	jmp	LBB8_6
LBB8_44:
Ltmp357:
	jmp	LBB8_45
LBB8_42:
Ltmp386:
	jmp	LBB8_45
LBB8_37:
Ltmp362:
LBB8_45:
	movq	%rax, %r14
	leaq	-128(%rbp), %rdi
	callq	__ZN4core3ptr13drop_in_place17h15e4c257c89b0e89E
LBB8_41:
	movq	%r14, %rdi
	callq	__Unwind_Resume
	ud2
Lfunc_end8:
	.cfi_endproc
	.section	__TEXT,__gcc_except_tab
	.p2align	2
GCC_except_table8:
Lexception8:
	.byte	255
	.byte	155
	.uleb128 Lttbase8-Lttbaseref8
Lttbaseref8:
	.byte	1
	.uleb128 Lcst_end8-Lcst_begin8
Lcst_begin8:
	.uleb128 Ltmp344-Lfunc_begin8
	.uleb128 Ltmp349-Ltmp344
	.uleb128 Ltmp386-Lfunc_begin8
	.byte	0
	.uleb128 Ltmp350-Lfunc_begin8
	.uleb128 Ltmp351-Ltmp350
	.uleb128 Ltmp352-Lfunc_begin8
	.byte	3
	.uleb128 Ltmp360-Lfunc_begin8
	.uleb128 Ltmp359-Ltmp360
	.uleb128 Ltmp362-Lfunc_begin8
	.byte	0
	.uleb128 Ltmp363-Lfunc_begin8
	.uleb128 Ltmp364-Ltmp363
	.uleb128 Ltmp372-Lfunc_begin8
	.byte	0
	.uleb128 Ltmp365-Lfunc_begin8
	.uleb128 Ltmp366-Ltmp365
	.uleb128 Ltmp367-Lfunc_begin8
	.byte	0
	.uleb128 Ltmp376-Lfunc_begin8
	.uleb128 Ltmp377-Ltmp376
	.uleb128 Ltmp378-Lfunc_begin8
	.byte	0
	.uleb128 Ltmp379-Lfunc_begin8
	.uleb128 Ltmp380-Ltmp379
	.uleb128 Ltmp383-Lfunc_begin8
	.byte	0
	.uleb128 Ltmp384-Lfunc_begin8
	.uleb128 Ltmp385-Ltmp384
	.uleb128 Ltmp386-Lfunc_begin8
	.byte	0
	.uleb128 Ltmp381-Lfunc_begin8
	.uleb128 Ltmp382-Ltmp381
	.uleb128 Ltmp383-Lfunc_begin8
	.byte	0
	.uleb128 Ltmp346-Lfunc_begin8
	.uleb128 Ltmp347-Ltmp346
	.uleb128 Ltmp386-Lfunc_begin8
	.byte	0
	.uleb128 Ltmp370-Lfunc_begin8
	.uleb128 Ltmp369-Ltmp370
	.uleb128 Ltmp372-Lfunc_begin8
	.byte	0
	.uleb128 Ltmp369-Lfunc_begin8
	.uleb128 Ltmp373-Ltmp369
	.byte	0
	.byte	0
	.uleb128 Ltmp373-Lfunc_begin8
	.uleb128 Ltmp374-Ltmp373
	.uleb128 Ltmp375-Lfunc_begin8
	.byte	0
	.uleb128 Ltmp374-Lfunc_begin8
	.uleb128 Ltmp353-Ltmp374
	.byte	0
	.byte	0
	.uleb128 Ltmp353-Lfunc_begin8
	.uleb128 Ltmp354-Ltmp353
	.uleb128 Ltmp386-Lfunc_begin8
	.byte	0
	.uleb128 Ltmp355-Lfunc_begin8
	.uleb128 Ltmp356-Ltmp355
	.uleb128 Ltmp357-Lfunc_begin8
	.byte	0
	.uleb128 Ltmp356-Lfunc_begin8
	.uleb128 Lfunc_end8-Ltmp356
	.byte	0
	.byte	0
Lcst_end8:
	.byte	0
	.byte	0
	.byte	1
	.byte	125
	.p2align	2
	.long	0
Lttbase8:
	.p2align	2

	.section	__TEXT,__text,regular,pure_instructions
	.p2align	4, 0x90
__ZN10rayon_core4join12join_context28_$u7b$$u7b$closure$u7d$$u7d$17h3e6e22037d084d63E:
Lfunc_begin9:
	.cfi_startproc
	.cfi_personality 155, _rust_eh_personality
	.cfi_lsda 16, Lexception9
	pushq	%rbp
	.cfi_def_cfa_offset 16
	.cfi_offset %rbp, -16
	movq	%rsp, %rbp
	.cfi_def_cfa_register %rbp
	pushq	%r15
	pushq	%r14
	pushq	%r13
	pushq	%r12
	pushq	%rbx
	subq	$184, %rsp
	.cfi_offset %rbx, -56
	.cfi_offset %r12, -48
	.cfi_offset %r13, -40
	.cfi_offset %r14, -32
	.cfi_offset %r15, -24
	movq	%rsi, %rbx
	movq	%rdi, %r15
	vmovups	(%rdi), %ymm0
	vmovups	16(%rdi), %ymm1
	vmovups	%ymm1, -112(%rbp)
	vmovups	%ymm0, -128(%rbp)
	movb	$0, -56(%rbp)
	movq	$0, -80(%rbp)
	movq	256(%rsi), %rax
	movq	264(%rax), %r14
	movq	256(%rax), %rax
	movq	272(%rsi), %rsi
	movq	%r14, %rcx
	subq	%rax, %rcx
	cmpq	%rsi, %rcx
	movl	%edx, -44(%rbp)
	jl	LBB9_4
	addq	%rsi, %rsi
	jb	LBB9_7
	leaq	256(%rbx), %rdi
Ltmp387:
	vzeroupper
	callq	__ZN15crossbeam_deque15Worker$LT$T$GT$6resize17h34dc55adb45f7cc1E
Ltmp388:
	movq	272(%rbx), %rsi
LBB9_4:
	subq	$1, %rsi
	jb	LBB9_5
	movq	264(%rbx), %rax
	andq	%r14, %rsi
	shlq	$4, %rsi
	leaq	-128(%rbp), %r12
	movq	%r12, (%rax,%rsi)
	leaq	__ZN83_$LT$rayon_core..job..StackJob$LT$L$C$F$C$R$GT$$u20$as$u20$rayon_core..job..Job$GT$7execute17h0a6c6ada20575cbeE(%rip), %r13
	movq	%r13, 8(%rax,%rsi)
	##MEMBARRIER
	movq	256(%rbx), %rax
	incq	%r14
	movq	%r14, 264(%rax)
	movl	$408, %edi
	addq	304(%rbx), %rdi
	movq	288(%rbx), %rsi
Ltmp391:
	vzeroupper
	callq	__ZN10rayon_core5sleep5Sleep6tickle17h00d06f732555dc32E
Ltmp392:
	movq	48(%r15), %rax
	movq	56(%r15), %rcx
	movq	64(%r15), %r8
	movq	72(%r15), %r9
	movq	80(%r15), %rsi
	movq	(%rax), %rdi
	movq	(%rcx), %rdx
	movq	8(%rcx), %rcx
Ltmp393:
	movq	%rsi, (%rsp)
	movzbl	-44(%rbp), %r14d
	movl	%r14d, %esi
	callq	__ZN5rayon4iter8plumbing24bridge_producer_consumer6helper17hf409ee847d2de198E
Ltmp394:
LBB9_12:
	leaq	-56(%rbp), %r15
	movb	-56(%rbp), %al
	testb	%al, %al
	je	LBB9_14
	jmp	LBB9_18
	.p2align	4, 0x90
LBB9_23:
Ltmp403:
	movq	%rbx, %rdi
	movq	%rax, %rsi
	callq	__ZN10rayon_core8registry12WorkerThread7execute17h2d3f3a8dd2af2716E
Ltmp404:
	movzbl	-56(%rbp), %eax
	testb	%al, %al
	jne	LBB9_18
LBB9_14:
Ltmp401:
	movq	%rbx, %rdi
	callq	__ZN10rayon_core8registry12WorkerThread14take_local_job17h123bfb54be8597fdE
Ltmp402:
	testq	%rdx, %rdx
	je	LBB9_16
	cmpq	%r12, %rax
	jne	LBB9_23
	cmpq	%r13, %rdx
	jne	LBB9_23
	vmovups	-128(%rbp), %ymm0
	vmovups	-96(%rbp), %ymm1
	vmovups	-80(%rbp), %ymm2
	vmovups	%ymm0, -208(%rbp)
	vmovups	%ymm1, -176(%rbp)
	vmovups	%ymm2, -160(%rbp)
	movq	-208(%rbp), %rax
	testq	%rax, %rax
	je	LBB9_25
	movq	-200(%rbp), %rcx
	movq	(%rax), %rdi
	subq	(%rcx), %rdi
	jb	LBB9_27
	movq	-192(%rbp), %rax
	movq	-184(%rbp), %r8
	movq	-176(%rbp), %r9
	movq	-168(%rbp), %rsi
	movq	(%rax), %rdx
	movq	8(%rax), %rcx
Ltmp406:
	movq	%rsi, (%rsp)
	movl	%r14d, %esi
	vzeroupper
	callq	__ZN5rayon4iter8plumbing24bridge_producer_consumer6helper17hf409ee847d2de198E
Ltmp407:
	cmpq	$2, -160(%rbp)
	jb	LBB9_33
	movq	-152(%rbp), %r15
	movq	-144(%rbp), %rbx
Ltmp408:
	movq	%r15, %rdi
	callq	*(%rbx)
Ltmp409:
	movq	8(%rbx), %rsi
	testq	%rsi, %rsi
	je	LBB9_33
	movq	16(%rbx), %rdx
	movq	%r15, %rdi
	callq	___rust_dealloc
	jmp	LBB9_33
LBB9_16:
	movb	-56(%rbp), %al
	testb	%al, %al
	jne	LBB9_18
Ltmp419:
	movq	%rbx, %rdi
	movq	%r15, %rsi
	callq	__ZN10rayon_core8registry12WorkerThread15wait_until_cold17hf0fae827bbf09742E
Ltmp420:
LBB9_18:
	movq	-80(%rbp), %rax
	cmpq	$1, %rax
	jne	LBB9_19
LBB9_33:
	addq	$184, %rsp
	popq	%rbx
	popq	%r12
	popq	%r13
	popq	%r14
	popq	%r15
	popq	%rbp
	retq
LBB9_19:
	testq	%rax, %rax
	je	LBB9_35
	movq	-72(%rbp), %rdi
	movq	-64(%rbp), %rsi
Ltmp422:
	callq	__ZN10rayon_core6unwind16resume_unwinding17h47c2e39f90248736E
Ltmp423:
	jmp	LBB9_6
LBB9_5:
Ltmp427:
	leaq	_str.1(%rip), %rdi
	leaq	l___unnamed_1(%rip), %rdx
	movl	$33, %esi
	vzeroupper
	callq	__ZN4core9panicking5panic17h736ee47a631475c0E
Ltmp428:
	jmp	LBB9_6
LBB9_35:
Ltmp424:
	leaq	l___unnamed_2(%rip), %rdi
	leaq	l___unnamed_3(%rip), %rdx
	movl	$40, %esi
	callq	__ZN3std9panicking11begin_panic17h853288e601a61dd9E
Ltmp425:
	jmp	LBB9_6
LBB9_7:
Ltmp389:
	leaq	_str.3(%rip), %rdi
	leaq	l___unnamed_4(%rip), %rdx
	movl	$33, %esi
	vzeroupper
	callq	__ZN4core9panicking5panic17h736ee47a631475c0E
Ltmp390:
	jmp	LBB9_6
LBB9_25:
Ltmp413:
	leaq	l___unnamed_5(%rip), %rdi
	leaq	l___unnamed_6(%rip), %rdx
	movl	$43, %esi
	vzeroupper
	callq	__ZN4core9panicking5panic17h736ee47a631475c0E
Ltmp414:
	jmp	LBB9_6
LBB9_27:
Ltmp411:
	leaq	_str.1(%rip), %rdi
	leaq	l___unnamed_7(%rip), %rdx
	movl	$33, %esi
	vzeroupper
	callq	__ZN4core9panicking5panic17h736ee47a631475c0E
Ltmp412:
LBB9_6:
	ud2
LBB9_46:
Ltmp426:
	jmp	LBB9_40
LBB9_38:
Ltmp421:
	jmp	LBB9_45
LBB9_36:
Ltmp410:
	movq	%rax, %r14
	movq	%r15, %rdi
	movq	%rbx, %rsi
	callq	__ZN5alloc5alloc8box_free17h601baa71c821b98cE
	movq	%r14, %rdi
	callq	__Unwind_Resume
	ud2
LBB9_34:
Ltmp415:
	movq	%rax, %r14
	leaq	-160(%rbp), %rdi
Ltmp416:
	callq	__ZN4core3ptr13drop_in_place17hf1c6e0d6c6000ae2E
Ltmp417:
	jmp	LBB9_41
LBB9_39:
Ltmp418:
LBB9_40:
	movq	%rax, %r14
	movq	%r14, %rdi
	callq	__Unwind_Resume
	ud2
LBB9_10:
Ltmp395:
Ltmp396:
	movq	%rax, %rdi
	callq	__ZN3std9panicking3try7cleanup17hd895f7beef0a7dadE
Ltmp397:
	testq	%rax, %rax
	je	LBB9_12
	movq	%rdx, %rcx
	leaq	-56(%rbp), %rsi
Ltmp398:
	movq	%rbx, %rdi
	movq	%rax, %rdx
	callq	__ZN10rayon_core4join23join_recover_from_panic17h65e0dcb6d5862f08E
Ltmp399:
	jmp	LBB9_6
LBB9_44:
Ltmp400:
	jmp	LBB9_45
LBB9_42:
Ltmp429:
	jmp	LBB9_45
LBB9_37:
Ltmp405:
LBB9_45:
	movq	%rax, %r14
	leaq	-128(%rbp), %rdi
	callq	__ZN4core3ptr13drop_in_place17h15e4c257c89b0e89E
LBB9_41:
	movq	%r14, %rdi
	callq	__Unwind_Resume
	ud2
Lfunc_end9:
	.cfi_endproc
	.section	__TEXT,__gcc_except_tab
	.p2align	2
GCC_except_table9:
Lexception9:
	.byte	255
	.byte	155
	.uleb128 Lttbase9-Lttbaseref9
Lttbaseref9:
	.byte	1
	.uleb128 Lcst_end9-Lcst_begin9
Lcst_begin9:
	.uleb128 Ltmp387-Lfunc_begin9
	.uleb128 Ltmp392-Ltmp387
	.uleb128 Ltmp429-Lfunc_begin9
	.byte	0
	.uleb128 Ltmp393-Lfunc_begin9
	.uleb128 Ltmp394-Ltmp393
	.uleb128 Ltmp395-Lfunc_begin9
	.byte	3
	.uleb128 Ltmp403-Lfunc_begin9
	.uleb128 Ltmp402-Ltmp403
	.uleb128 Ltmp405-Lfunc_begin9
	.byte	0
	.uleb128 Ltmp406-Lfunc_begin9
	.uleb128 Ltmp407-Ltmp406
	.uleb128 Ltmp415-Lfunc_begin9
	.byte	0
	.uleb128 Ltmp408-Lfunc_begin9
	.uleb128 Ltmp409-Ltmp408
	.uleb128 Ltmp410-Lfunc_begin9
	.byte	0
	.uleb128 Ltmp419-Lfunc_begin9
	.uleb128 Ltmp420-Ltmp419
	.uleb128 Ltmp421-Lfunc_begin9
	.byte	0
	.uleb128 Ltmp422-Lfunc_begin9
	.uleb128 Ltmp423-Ltmp422
	.uleb128 Ltmp426-Lfunc_begin9
	.byte	0
	.uleb128 Ltmp427-Lfunc_begin9
	.uleb128 Ltmp428-Ltmp427
	.uleb128 Ltmp429-Lfunc_begin9
	.byte	0
	.uleb128 Ltmp424-Lfunc_begin9
	.uleb128 Ltmp425-Ltmp424
	.uleb128 Ltmp426-Lfunc_begin9
	.byte	0
	.uleb128 Ltmp389-Lfunc_begin9
	.uleb128 Ltmp390-Ltmp389
	.uleb128 Ltmp429-Lfunc_begin9
	.byte	0
	.uleb128 Ltmp413-Lfunc_begin9
	.uleb128 Ltmp412-Ltmp413
	.uleb128 Ltmp415-Lfunc_begin9
	.byte	0
	.uleb128 Ltmp412-Lfunc_begin9
	.uleb128 Ltmp416-Ltmp412
	.byte	0
	.byte	0
	.uleb128 Ltmp416-Lfunc_begin9
	.uleb128 Ltmp417-Ltmp416
	.uleb128 Ltmp418-Lfunc_begin9
	.byte	0
	.uleb128 Ltmp417-Lfunc_begin9
	.uleb128 Ltmp396-Ltmp417
	.byte	0
	.byte	0
	.uleb128 Ltmp396-Lfunc_begin9
	.uleb128 Ltmp397-Ltmp396
	.uleb128 Ltmp429-Lfunc_begin9
	.byte	0
	.uleb128 Ltmp398-Lfunc_begin9
	.uleb128 Ltmp399-Ltmp398
	.uleb128 Ltmp400-Lfunc_begin9
	.byte	0
	.uleb128 Ltmp399-Lfunc_begin9
	.uleb128 Lfunc_end9-Ltmp399
	.byte	0
	.byte	0
Lcst_end9:
	.byte	0
	.byte	0
	.byte	1
	.byte	125
	.p2align	2
	.long	0
Lttbase9:
	.p2align	2

	.section	__TEXT,__text,regular,pure_instructions
	.p2align	4, 0x90
__ZN10rayon_core4join12join_context28_$u7b$$u7b$closure$u7d$$u7d$17h47120a75e9270438E:
Lfunc_begin10:
	.cfi_startproc
	.cfi_personality 155, _rust_eh_personality
	.cfi_lsda 16, Lexception10
	pushq	%rbp
	.cfi_def_cfa_offset 16
	.cfi_offset %rbp, -16
	movq	%rsp, %rbp
	.cfi_def_cfa_register %rbp
	pushq	%r15
	pushq	%r14
	pushq	%r13
	pushq	%r12
	pushq	%rbx
	subq	$184, %rsp
	.cfi_offset %rbx, -56
	.cfi_offset %r12, -48
	.cfi_offset %r13, -40
	.cfi_offset %r14, -32
	.cfi_offset %r15, -24
	movq	%rsi, %rbx
	movq	%rdi, %r15
	vmovups	(%rdi), %ymm0
	vmovups	16(%rdi), %ymm1
	vmovups	%ymm1, -112(%rbp)
	vmovups	%ymm0, -128(%rbp)
	movb	$0, -56(%rbp)
	movq	$0, -80(%rbp)
	movq	256(%rsi), %rax
	movq	264(%rax), %r14
	movq	256(%rax), %rax
	movq	272(%rsi), %rsi
	movq	%r14, %rcx
	subq	%rax, %rcx
	cmpq	%rsi, %rcx
	movl	%edx, -44(%rbp)
	jl	LBB10_4
	addq	%rsi, %rsi
	jb	LBB10_7
	leaq	256(%rbx), %rdi
Ltmp430:
	vzeroupper
	callq	__ZN15crossbeam_deque15Worker$LT$T$GT$6resize17h34dc55adb45f7cc1E
Ltmp431:
	movq	272(%rbx), %rsi
LBB10_4:
	subq	$1, %rsi
	jb	LBB10_5
	movq	264(%rbx), %rax
	andq	%r14, %rsi
	shlq	$4, %rsi
	leaq	-128(%rbp), %r12
	movq	%r12, (%rax,%rsi)
	leaq	__ZN83_$LT$rayon_core..job..StackJob$LT$L$C$F$C$R$GT$$u20$as$u20$rayon_core..job..Job$GT$7execute17h66098996f778b483E(%rip), %r13
	movq	%r13, 8(%rax,%rsi)
	##MEMBARRIER
	movq	256(%rbx), %rax
	incq	%r14
	movq	%r14, 264(%rax)
	movl	$408, %edi
	addq	304(%rbx), %rdi
	movq	288(%rbx), %rsi
Ltmp434:
	vzeroupper
	callq	__ZN10rayon_core5sleep5Sleep6tickle17h00d06f732555dc32E
Ltmp435:
	movq	48(%r15), %rax
	movq	56(%r15), %rcx
	movq	64(%r15), %r8
	movq	72(%r15), %r9
	movq	80(%r15), %rsi
	movq	(%rax), %rdi
	movq	(%rcx), %rdx
	movq	8(%rcx), %rcx
Ltmp436:
	movq	%rsi, (%rsp)
	movzbl	-44(%rbp), %r14d
	movl	%r14d, %esi
	callq	__ZN5rayon4iter8plumbing24bridge_producer_consumer6helper17he2e0ed02bd580b5bE
Ltmp437:
LBB10_12:
	leaq	-56(%rbp), %r15
	movb	-56(%rbp), %al
	testb	%al, %al
	je	LBB10_14
	jmp	LBB10_18
	.p2align	4, 0x90
LBB10_23:
Ltmp446:
	movq	%rbx, %rdi
	movq	%rax, %rsi
	callq	__ZN10rayon_core8registry12WorkerThread7execute17h2d3f3a8dd2af2716E
Ltmp447:
	movzbl	-56(%rbp), %eax
	testb	%al, %al
	jne	LBB10_18
LBB10_14:
Ltmp444:
	movq	%rbx, %rdi
	callq	__ZN10rayon_core8registry12WorkerThread14take_local_job17h123bfb54be8597fdE
Ltmp445:
	testq	%rdx, %rdx
	je	LBB10_16
	cmpq	%r12, %rax
	jne	LBB10_23
	cmpq	%r13, %rdx
	jne	LBB10_23
	vmovups	-128(%rbp), %ymm0
	vmovups	-96(%rbp), %ymm1
	vmovups	-80(%rbp), %ymm2
	vmovups	%ymm0, -208(%rbp)
	vmovups	%ymm1, -176(%rbp)
	vmovups	%ymm2, -160(%rbp)
	movq	-208(%rbp), %rax
	testq	%rax, %rax
	je	LBB10_25
	movq	-200(%rbp), %rcx
	movq	(%rax), %rdi
	subq	(%rcx), %rdi
	jb	LBB10_27
	movq	-192(%rbp), %rax
	movq	-184(%rbp), %r8
	movq	-176(%rbp), %r9
	movq	-168(%rbp), %rsi
	movq	(%rax), %rdx
	movq	8(%rax), %rcx
Ltmp449:
	movq	%rsi, (%rsp)
	movl	%r14d, %esi
	vzeroupper
	callq	__ZN5rayon4iter8plumbing24bridge_producer_consumer6helper17he2e0ed02bd580b5bE
Ltmp450:
	cmpq	$2, -160(%rbp)
	jb	LBB10_33
	movq	-152(%rbp), %r15
	movq	-144(%rbp), %rbx
Ltmp451:
	movq	%r15, %rdi
	callq	*(%rbx)
Ltmp452:
	movq	8(%rbx), %rsi
	testq	%rsi, %rsi
	je	LBB10_33
	movq	16(%rbx), %rdx
	movq	%r15, %rdi
	callq	___rust_dealloc
	jmp	LBB10_33
LBB10_16:
	movb	-56(%rbp), %al
	testb	%al, %al
	jne	LBB10_18
Ltmp462:
	movq	%rbx, %rdi
	movq	%r15, %rsi
	callq	__ZN10rayon_core8registry12WorkerThread15wait_until_cold17hf0fae827bbf09742E
Ltmp463:
LBB10_18:
	movq	-80(%rbp), %rax
	cmpq	$1, %rax
	jne	LBB10_19
LBB10_33:
	addq	$184, %rsp
	popq	%rbx
	popq	%r12
	popq	%r13
	popq	%r14
	popq	%r15
	popq	%rbp
	retq
LBB10_19:
	testq	%rax, %rax
	je	LBB10_35
	movq	-72(%rbp), %rdi
	movq	-64(%rbp), %rsi
Ltmp465:
	callq	__ZN10rayon_core6unwind16resume_unwinding17h47c2e39f90248736E
Ltmp466:
	jmp	LBB10_6
LBB10_5:
Ltmp470:
	leaq	_str.1(%rip), %rdi
	leaq	l___unnamed_1(%rip), %rdx
	movl	$33, %esi
	vzeroupper
	callq	__ZN4core9panicking5panic17h736ee47a631475c0E
Ltmp471:
	jmp	LBB10_6
LBB10_35:
Ltmp467:
	leaq	l___unnamed_2(%rip), %rdi
	leaq	l___unnamed_3(%rip), %rdx
	movl	$40, %esi
	callq	__ZN3std9panicking11begin_panic17h853288e601a61dd9E
Ltmp468:
	jmp	LBB10_6
LBB10_7:
Ltmp432:
	leaq	_str.3(%rip), %rdi
	leaq	l___unnamed_4(%rip), %rdx
	movl	$33, %esi
	vzeroupper
	callq	__ZN4core9panicking5panic17h736ee47a631475c0E
Ltmp433:
	jmp	LBB10_6
LBB10_25:
Ltmp456:
	leaq	l___unnamed_5(%rip), %rdi
	leaq	l___unnamed_6(%rip), %rdx
	movl	$43, %esi
	vzeroupper
	callq	__ZN4core9panicking5panic17h736ee47a631475c0E
Ltmp457:
	jmp	LBB10_6
LBB10_27:
Ltmp454:
	leaq	_str.1(%rip), %rdi
	leaq	l___unnamed_7(%rip), %rdx
	movl	$33, %esi
	vzeroupper
	callq	__ZN4core9panicking5panic17h736ee47a631475c0E
Ltmp455:
LBB10_6:
	ud2
LBB10_46:
Ltmp469:
	jmp	LBB10_40
LBB10_38:
Ltmp464:
	jmp	LBB10_45
LBB10_36:
Ltmp453:
	movq	%rax, %r14
	movq	%r15, %rdi
	movq	%rbx, %rsi
	callq	__ZN5alloc5alloc8box_free17h601baa71c821b98cE
	movq	%r14, %rdi
	callq	__Unwind_Resume
	ud2
LBB10_34:
Ltmp458:
	movq	%rax, %r14
	leaq	-160(%rbp), %rdi
Ltmp459:
	callq	__ZN4core3ptr13drop_in_place17hf1c6e0d6c6000ae2E
Ltmp460:
	jmp	LBB10_41
LBB10_39:
Ltmp461:
LBB10_40:
	movq	%rax, %r14
	movq	%r14, %rdi
	callq	__Unwind_Resume
	ud2
LBB10_10:
Ltmp438:
Ltmp439:
	movq	%rax, %rdi
	callq	__ZN3std9panicking3try7cleanup17hd895f7beef0a7dadE
Ltmp440:
	testq	%rax, %rax
	je	LBB10_12
	movq	%rdx, %rcx
	leaq	-56(%rbp), %rsi
Ltmp441:
	movq	%rbx, %rdi
	movq	%rax, %rdx
	callq	__ZN10rayon_core4join23join_recover_from_panic17h65e0dcb6d5862f08E
Ltmp442:
	jmp	LBB10_6
LBB10_44:
Ltmp443:
	jmp	LBB10_45
LBB10_42:
Ltmp472:
	jmp	LBB10_45
LBB10_37:
Ltmp448:
LBB10_45:
	movq	%rax, %r14
	leaq	-128(%rbp), %rdi
	callq	__ZN4core3ptr13drop_in_place17h15e4c257c89b0e89E
LBB10_41:
	movq	%r14, %rdi
	callq	__Unwind_Resume
	ud2
Lfunc_end10:
	.cfi_endproc
	.section	__TEXT,__gcc_except_tab
	.p2align	2
GCC_except_table10:
Lexception10:
	.byte	255
	.byte	155
	.uleb128 Lttbase10-Lttbaseref10
Lttbaseref10:
	.byte	1
	.uleb128 Lcst_end10-Lcst_begin10
Lcst_begin10:
	.uleb128 Ltmp430-Lfunc_begin10
	.uleb128 Ltmp435-Ltmp430
	.uleb128 Ltmp472-Lfunc_begin10
	.byte	0
	.uleb128 Ltmp436-Lfunc_begin10
	.uleb128 Ltmp437-Ltmp436
	.uleb128 Ltmp438-Lfunc_begin10
	.byte	3
	.uleb128 Ltmp446-Lfunc_begin10
	.uleb128 Ltmp445-Ltmp446
	.uleb128 Ltmp448-Lfunc_begin10
	.byte	0
	.uleb128 Ltmp449-Lfunc_begin10
	.uleb128 Ltmp450-Ltmp449
	.uleb128 Ltmp458-Lfunc_begin10
	.byte	0
	.uleb128 Ltmp451-Lfunc_begin10
	.uleb128 Ltmp452-Ltmp451
	.uleb128 Ltmp453-Lfunc_begin10
	.byte	0
	.uleb128 Ltmp462-Lfunc_begin10
	.uleb128 Ltmp463-Ltmp462
	.uleb128 Ltmp464-Lfunc_begin10
	.byte	0
	.uleb128 Ltmp465-Lfunc_begin10
	.uleb128 Ltmp466-Ltmp465
	.uleb128 Ltmp469-Lfunc_begin10
	.byte	0
	.uleb128 Ltmp470-Lfunc_begin10
	.uleb128 Ltmp471-Ltmp470
	.uleb128 Ltmp472-Lfunc_begin10
	.byte	0
	.uleb128 Ltmp467-Lfunc_begin10
	.uleb128 Ltmp468-Ltmp467
	.uleb128 Ltmp469-Lfunc_begin10
	.byte	0
	.uleb128 Ltmp432-Lfunc_begin10
	.uleb128 Ltmp433-Ltmp432
	.uleb128 Ltmp472-Lfunc_begin10
	.byte	0
	.uleb128 Ltmp456-Lfunc_begin10
	.uleb128 Ltmp455-Ltmp456
	.uleb128 Ltmp458-Lfunc_begin10
	.byte	0
	.uleb128 Ltmp455-Lfunc_begin10
	.uleb128 Ltmp459-Ltmp455
	.byte	0
	.byte	0
	.uleb128 Ltmp459-Lfunc_begin10
	.uleb128 Ltmp460-Ltmp459
	.uleb128 Ltmp461-Lfunc_begin10
	.byte	0
	.uleb128 Ltmp460-Lfunc_begin10
	.uleb128 Ltmp439-Ltmp460
	.byte	0
	.byte	0
	.uleb128 Ltmp439-Lfunc_begin10
	.uleb128 Ltmp440-Ltmp439
	.uleb128 Ltmp472-Lfunc_begin10
	.byte	0
	.uleb128 Ltmp441-Lfunc_begin10
	.uleb128 Ltmp442-Ltmp441
	.uleb128 Ltmp443-Lfunc_begin10
	.byte	0
	.uleb128 Ltmp442-Lfunc_begin10
	.uleb128 Lfunc_end10-Ltmp442
	.byte	0
	.byte	0
Lcst_end10:
	.byte	0
	.byte	0
	.byte	1
	.byte	125
	.p2align	2
	.long	0
Lttbase10:
	.p2align	2

	.section	__TEXT,__text,regular,pure_instructions
	.p2align	4, 0x90
__ZN10rayon_core4join12join_context28_$u7b$$u7b$closure$u7d$$u7d$17h481b8c02e05c9cc4E:
Lfunc_begin11:
	.cfi_startproc
	.cfi_personality 155, _rust_eh_personality
	.cfi_lsda 16, Lexception11
	pushq	%rbp
	.cfi_def_cfa_offset 16
	.cfi_offset %rbp, -16
	movq	%rsp, %rbp
	.cfi_def_cfa_register %rbp
	pushq	%r15
	pushq	%r14
	pushq	%r13
	pushq	%r12
	pushq	%rbx
	andq	$-64, %rsp
	subq	$768, %rsp
	.cfi_offset %rbx, -56
	.cfi_offset %r12, -48
	.cfi_offset %r13, -40
	.cfi_offset %r14, -32
	.cfi_offset %r15, -24
	movl	%ecx, 28(%rsp)
	movq	%rdx, %rbx
	movq	%rsi, %r12
	movq	%rdi, 56(%rsp)
	movb	$0, 376(%rsp)
	vmovdqu	(%rsi), %ymm0
	vmovups	24(%rsi), %ymm1
	vmovdqa	%ymm0, 320(%rsp)
	vmovups	%ymm1, 344(%rsp)
	movq	$0, 192(%rsp)
	movq	256(%rdx), %rax
	movq	264(%rax), %r15
	movq	256(%rax), %rax
	movq	272(%rdx), %rsi
	movq	%r15, %rcx
	subq	%rax, %rcx
	cmpq	%rsi, %rcx
	jl	LBB11_4
	addq	%rsi, %rsi
	jb	LBB11_7
	leaq	256(%rbx), %rdi
Ltmp473:
	vzeroupper
	callq	__ZN15crossbeam_deque15Worker$LT$T$GT$6resize17h34dc55adb45f7cc1E
Ltmp474:
	movq	272(%rbx), %rsi
LBB11_4:
	subq	$1, %rsi
	jb	LBB11_5
	movq	264(%rbx), %rax
	andq	%r15, %rsi
	shlq	$4, %rsi
	leaq	192(%rsp), %r13
	movq	%r13, (%rax,%rsi)
	leaq	__ZN83_$LT$rayon_core..job..StackJob$LT$L$C$F$C$R$GT$$u20$as$u20$rayon_core..job..Job$GT$7execute17ha1d92ab8f967b530E(%rip), %r14
	movq	%r14, 8(%rax,%rsi)
	##MEMBARRIER
	movq	256(%rbx), %rax
	incq	%r15
	movq	%r15, 264(%rax)
	movl	$408, %edi
	addq	304(%rbx), %rdi
	movq	288(%rbx), %rsi
Ltmp477:
	vzeroupper
	callq	__ZN10rayon_core5sleep5Sleep6tickle17h00d06f732555dc32E
Ltmp478:
	vmovups	56(%r12), %ymm0
	vmovups	72(%r12), %ymm1
	vmovaps	%ymm0, 64(%rsp)
	vmovups	%ymm1, 80(%rsp)
	movl	28(%rsp), %r15d
	movb	%r15b, 112(%rsp)
	vmovdqa	64(%rsp), %xmm0
	vmovq	%xmm0, %rax
	vpextrq	$1, %xmm0, %rdi
	vmovdqa	112(%rsp), %xmm0
	vpextrb	$0, %xmm0, %ecx
	vmovdqa	96(%rsp), %xmm0
	vmovaps	80(%rsp), %xmm1
	xorl	%edx, %edx
	testb	%cl, %cl
	setne	%dl
	movq	(%rax), %rsi
	movq	(%rdi), %rcx
	movq	8(%rdi), %r8
	vmovq	%xmm0, 48(%rsp)
	vmovups	%xmm1, 32(%rsp)
Ltmp479:
	vpextrq	$1, %xmm0, (%rsp)
	leaq	384(%rsp), %rdi
	leaq	32(%rsp), %r9
	vzeroupper
	callq	__ZN5rayon4iter8plumbing24bridge_producer_consumer6helper17h88562aaf0f422f1dE
Ltmp480:
	vmovaps	384(%rsp), %ymm0
	vmovaps	%ymm0, 672(%rsp)
	vmovdqa	416(%rsp), %ymm0
	vmovdqa	%ymm0, 640(%rsp)
	leaq	376(%rsp), %r12
	movb	376(%rsp), %al
	testb	%al, %al
	je	LBB11_12
	jmp	LBB11_16
	.p2align	4, 0x90
LBB11_23:
Ltmp489:
	movq	%rbx, %rdi
	movq	%rax, %rsi
	callq	__ZN10rayon_core8registry12WorkerThread7execute17h2d3f3a8dd2af2716E
Ltmp490:
	movzbl	376(%rsp), %eax
	testb	%al, %al
	jne	LBB11_16
LBB11_12:
Ltmp487:
	movq	%rbx, %rdi
	vzeroupper
	callq	__ZN10rayon_core8registry12WorkerThread14take_local_job17h123bfb54be8597fdE
Ltmp488:
	testq	%rdx, %rdx
	je	LBB11_14
	cmpq	%r13, %rax
	jne	LBB11_23
	cmpq	%r14, %rdx
	jne	LBB11_23
	vmovaps	352(%rsp), %ymm0
	vmovaps	%ymm0, 544(%rsp)
	vmovaps	320(%rsp), %ymm0
	vmovaps	%ymm0, 512(%rsp)
	vmovaps	224(%rsp), %ymm0
	vmovaps	256(%rsp), %ymm1
	vmovaps	288(%rsp), %ymm2
	vmovaps	%ymm2, 480(%rsp)
	vmovaps	%ymm1, 448(%rsp)
	vmovaps	%ymm0, 416(%rsp)
	vmovaps	192(%rsp), %ymm0
	vmovaps	%ymm0, 384(%rsp)
	movq	512(%rsp), %rsi
	movq	520(%rsp), %rcx
	movq	528(%rsp), %rax
	vmovdqu	536(%rsp), %xmm0
	vmovdqa	%xmm0, 64(%rsp)
	movq	552(%rsp), %rdx
	movq	%rdx, 80(%rsp)
	testq	%rsi, %rsi
	je	LBB11_25
	movq	560(%rsp), %rdx
	movq	80(%rsp), %rdi
	movq	%rdi, 624(%rsp)
	vmovdqa	64(%rsp), %xmm0
	vmovdqa	%xmm0, 608(%rsp)
	movq	%rdi, 176(%rsp)
	vmovdqa	%xmm0, 160(%rsp)
	movq	(%rsi), %rsi
	subq	(%rcx), %rsi
	jb	LBB11_27
	movq	(%rax), %rcx
	movq	8(%rax), %r8
	movq	176(%rsp), %rax
	movq	%rax, 48(%rsp)
	vmovdqa	160(%rsp), %xmm0
	vmovdqa	%xmm0, 32(%rsp)
Ltmp492:
	movq	%rdx, (%rsp)
	movzbl	%r15b, %edx
	leaq	64(%rsp), %rdi
	leaq	32(%rsp), %r9
	vzeroupper
	callq	__ZN5rayon4iter8plumbing24bridge_producer_consumer6helper17h88562aaf0f422f1dE
Ltmp493:
	cmpq	$2, 384(%rsp)
	jb	LBB11_33
	movq	392(%rsp), %r12
	movq	400(%rsp), %rbx
Ltmp494:
	movq	%r12, %rdi
	callq	*(%rbx)
Ltmp495:
	movq	8(%rbx), %rsi
	testq	%rsi, %rsi
	je	LBB11_33
	movq	16(%rbx), %rdx
	movq	%r12, %rdi
	callq	___rust_dealloc
LBB11_33:
	vmovaps	64(%rsp), %ymm0
	vmovaps	96(%rsp), %ymm1
	jmp	LBB11_37
LBB11_14:
	movb	376(%rsp), %al
	testb	%al, %al
	jne	LBB11_16
Ltmp505:
	movq	%rbx, %rdi
	movq	%r12, %rsi
	callq	__ZN10rayon_core8registry12WorkerThread15wait_until_cold17hf0fae827bbf09742E
Ltmp506:
LBB11_16:
	movq	192(%rsp), %rax
	cmpq	$1, %rax
	jne	LBB11_17
	vmovaps	256(%rsp), %ymm0
	vmovaps	288(%rsp), %ymm1
LBB11_37:
	movq	56(%rsp), %rax
	vmovaps	672(%rsp), %ymm2
	vmovaps	%ymm2, (%rax)
	vmovaps	640(%rsp), %ymm2
	vmovaps	%ymm2, 32(%rax)
	vmovaps	%ymm0, 64(%rax)
	vmovaps	%ymm1, 96(%rax)
	leaq	-40(%rbp), %rsp
	popq	%rbx
	popq	%r12
	popq	%r13
	popq	%r14
	popq	%r15
	popq	%rbp
	vzeroupper
	retq
LBB11_17:
	testq	%rax, %rax
	je	LBB11_35
	movq	200(%rsp), %rdi
	movq	208(%rsp), %rsi
Ltmp508:
	vzeroupper
	callq	__ZN10rayon_core6unwind16resume_unwinding17h47c2e39f90248736E
Ltmp509:
	jmp	LBB11_6
LBB11_5:
Ltmp513:
	leaq	_str.1(%rip), %rdi
	leaq	l___unnamed_1(%rip), %rdx
	movl	$33, %esi
	vzeroupper
	callq	__ZN4core9panicking5panic17h736ee47a631475c0E
Ltmp514:
	jmp	LBB11_6
LBB11_35:
Ltmp510:
	leaq	l___unnamed_2(%rip), %rdi
	leaq	l___unnamed_3(%rip), %rdx
	movl	$40, %esi
	vzeroupper
	callq	__ZN3std9panicking11begin_panic17h853288e601a61dd9E
Ltmp511:
	jmp	LBB11_6
LBB11_7:
Ltmp475:
	leaq	_str.3(%rip), %rdi
	leaq	l___unnamed_4(%rip), %rdx
	movl	$33, %esi
	vzeroupper
	callq	__ZN4core9panicking5panic17h736ee47a631475c0E
Ltmp476:
	jmp	LBB11_6
LBB11_25:
Ltmp499:
	leaq	l___unnamed_5(%rip), %rdi
	leaq	l___unnamed_6(%rip), %rdx
	movl	$43, %esi
	vzeroupper
	callq	__ZN4core9panicking5panic17h736ee47a631475c0E
Ltmp500:
	jmp	LBB11_6
LBB11_27:
Ltmp497:
	leaq	_str.1(%rip), %rdi
	leaq	l___unnamed_7(%rip), %rdx
	movl	$33, %esi
	vzeroupper
	callq	__ZN4core9panicking5panic17h736ee47a631475c0E
Ltmp498:
	jmp	LBB11_6
LBB11_47:
Ltmp512:
	jmp	LBB11_42
LBB11_40:
Ltmp507:
	jmp	LBB11_46
LBB11_38:
Ltmp496:
	movq	%rax, %r14
	movq	%r12, %rdi
	movq	%rbx, %rsi
	callq	__ZN5alloc5alloc8box_free17h601baa71c821b98cE
	movq	%r14, %rdi
	callq	__Unwind_Resume
	ud2
LBB11_34:
Ltmp501:
	movq	%rax, %r14
Ltmp502:
	leaq	384(%rsp), %rdi
	callq	__ZN4core3ptr13drop_in_place17h04000df5dc98c10bE
Ltmp503:
	jmp	LBB11_43
LBB11_41:
Ltmp504:
LBB11_42:
	movq	%rax, %r14
	movq	%r14, %rdi
	callq	__Unwind_Resume
	ud2
LBB11_19:
Ltmp481:
Ltmp482:
	movq	%rax, %rdi
	callq	__ZN3std9panicking3try7cleanup17hd895f7beef0a7dadE
Ltmp483:
	movq	%rdx, %rcx
	leaq	376(%rsp), %rsi
Ltmp484:
	movq	%rbx, %rdi
	movq	%rax, %rdx
	callq	__ZN10rayon_core4join23join_recover_from_panic17h65e0dcb6d5862f08E
Ltmp485:
LBB11_6:
	ud2
LBB11_45:
Ltmp486:
	jmp	LBB11_46
LBB11_44:
Ltmp515:
	jmp	LBB11_46
LBB11_39:
Ltmp491:
LBB11_46:
	movq	%rax, %r14
	leaq	192(%rsp), %rdi
	callq	__ZN4core3ptr13drop_in_place17h04000df5dc98c10bE
LBB11_43:
	movq	%r14, %rdi
	callq	__Unwind_Resume
	ud2
Lfunc_end11:
	.cfi_endproc
	.section	__TEXT,__gcc_except_tab
	.p2align	2
GCC_except_table11:
Lexception11:
	.byte	255
	.byte	155
	.uleb128 Lttbase11-Lttbaseref11
Lttbaseref11:
	.byte	1
	.uleb128 Lcst_end11-Lcst_begin11
Lcst_begin11:
	.uleb128 Ltmp473-Lfunc_begin11
	.uleb128 Ltmp478-Ltmp473
	.uleb128 Ltmp515-Lfunc_begin11
	.byte	0
	.uleb128 Ltmp479-Lfunc_begin11
	.uleb128 Ltmp480-Ltmp479
	.uleb128 Ltmp481-Lfunc_begin11
	.byte	3
	.uleb128 Ltmp489-Lfunc_begin11
	.uleb128 Ltmp488-Ltmp489
	.uleb128 Ltmp491-Lfunc_begin11
	.byte	0
	.uleb128 Ltmp492-Lfunc_begin11
	.uleb128 Ltmp493-Ltmp492
	.uleb128 Ltmp501-Lfunc_begin11
	.byte	0
	.uleb128 Ltmp494-Lfunc_begin11
	.uleb128 Ltmp495-Ltmp494
	.uleb128 Ltmp496-Lfunc_begin11
	.byte	0
	.uleb128 Ltmp505-Lfunc_begin11
	.uleb128 Ltmp506-Ltmp505
	.uleb128 Ltmp507-Lfunc_begin11
	.byte	0
	.uleb128 Ltmp508-Lfunc_begin11
	.uleb128 Ltmp509-Ltmp508
	.uleb128 Ltmp512-Lfunc_begin11
	.byte	0
	.uleb128 Ltmp513-Lfunc_begin11
	.uleb128 Ltmp514-Ltmp513
	.uleb128 Ltmp515-Lfunc_begin11
	.byte	0
	.uleb128 Ltmp510-Lfunc_begin11
	.uleb128 Ltmp511-Ltmp510
	.uleb128 Ltmp512-Lfunc_begin11
	.byte	0
	.uleb128 Ltmp475-Lfunc_begin11
	.uleb128 Ltmp476-Ltmp475
	.uleb128 Ltmp515-Lfunc_begin11
	.byte	0
	.uleb128 Ltmp499-Lfunc_begin11
	.uleb128 Ltmp498-Ltmp499
	.uleb128 Ltmp501-Lfunc_begin11
	.byte	0
	.uleb128 Ltmp498-Lfunc_begin11
	.uleb128 Ltmp502-Ltmp498
	.byte	0
	.byte	0
	.uleb128 Ltmp502-Lfunc_begin11
	.uleb128 Ltmp503-Ltmp502
	.uleb128 Ltmp504-Lfunc_begin11
	.byte	0
	.uleb128 Ltmp503-Lfunc_begin11
	.uleb128 Ltmp482-Ltmp503
	.byte	0
	.byte	0
	.uleb128 Ltmp482-Lfunc_begin11
	.uleb128 Ltmp483-Ltmp482
	.uleb128 Ltmp515-Lfunc_begin11
	.byte	0
	.uleb128 Ltmp484-Lfunc_begin11
	.uleb128 Ltmp485-Ltmp484
	.uleb128 Ltmp486-Lfunc_begin11
	.byte	0
	.uleb128 Ltmp485-Lfunc_begin11
	.uleb128 Lfunc_end11-Ltmp485
	.byte	0
	.byte	0
Lcst_end11:
	.byte	0
	.byte	0
	.byte	1
	.byte	125
	.p2align	2
	.long	0
Lttbase11:
	.p2align	2

	.section	__TEXT,__text,regular,pure_instructions
	.p2align	4, 0x90
__ZN10rayon_core4join12join_context28_$u7b$$u7b$closure$u7d$$u7d$17h4f66ac2b113b268bE:
Lfunc_begin12:
	.cfi_startproc
	.cfi_personality 155, _rust_eh_personality
	.cfi_lsda 16, Lexception12
	pushq	%rbp
	.cfi_def_cfa_offset 16
	.cfi_offset %rbp, -16
	movq	%rsp, %rbp
	.cfi_def_cfa_register %rbp
	pushq	%r15
	pushq	%r14
	pushq	%r13
	pushq	%r12
	pushq	%rbx
	andq	$-64, %rsp
	subq	$1024, %rsp
	.cfi_offset %rbx, -56
	.cfi_offset %r12, -48
	.cfi_offset %r13, -40
	.cfi_offset %r14, -32
	.cfi_offset %r15, -24
	movq	%rdx, %rbx
	movq	%rsi, %r12
	movq	%rdi, 56(%rsp)
	movb	$0, 416(%rsp)
	vmovups	(%rsi), %ymm0
	vmovups	32(%rsi), %ymm1
	vmovaps	%ymm0, 320(%rsp)
	vmovups	64(%rsi), %ymm0
	vmovaps	%ymm1, 352(%rsp)
	vmovaps	%ymm0, 384(%rsp)
	movq	$0, 192(%rsp)
	movq	256(%rdx), %rax
	movq	264(%rax), %r15
	movq	256(%rax), %rax
	movq	272(%rdx), %rsi
	movq	%r15, %rdx
	subq	%rax, %rdx
	cmpq	%rsi, %rdx
	movl	%ecx, 160(%rsp)
	jl	LBB12_4
	addq	%rsi, %rsi
	jb	LBB12_7
	leaq	256(%rbx), %rdi
Ltmp516:
	vzeroupper
	callq	__ZN15crossbeam_deque15Worker$LT$T$GT$6resize17h34dc55adb45f7cc1E
Ltmp517:
	movq	272(%rbx), %rsi
LBB12_4:
	subq	$1, %rsi
	jb	LBB12_5
	movq	264(%rbx), %rax
	andq	%r15, %rsi
	shlq	$4, %rsi
	leaq	192(%rsp), %r13
	movq	%r13, (%rax,%rsi)
	leaq	__ZN83_$LT$rayon_core..job..StackJob$LT$L$C$F$C$R$GT$$u20$as$u20$rayon_core..job..Job$GT$7execute17h0fd9205a2cb1e06eE(%rip), %r14
	movq	%r14, 8(%rax,%rsi)
	##MEMBARRIER
	movq	256(%rbx), %rax
	incq	%r15
	movq	%r15, 264(%rax)
	movl	$408, %edi
	addq	304(%rbx), %rdi
	movq	288(%rbx), %rsi
Ltmp520:
	vzeroupper
	callq	__ZN10rayon_core5sleep5Sleep6tickle17h00d06f732555dc32E
Ltmp521:
	vmovups	96(%r12), %ymm0
	movq	176(%r12), %rax
	vmovdqu	96(%r12), %xmm1
	vmovq	%xmm1, %rcx
	vpextrq	$1, %xmm1, %rdx
	vperm2f128	$33, 128(%r12), %ymm0, %ymm0
	vmovups	144(%r12), %xmm1
	vmovups	160(%r12), %xmm2
	vmovaps	%xmm2, 736(%rsp)
	movq	(%rcx), %rsi
	movq	(%rdx), %rcx
	movq	8(%rdx), %r8
	vmovups	%xmm1, 480(%rsp)
	vmovups	%ymm0, 448(%rsp)
	vmovups	%xmm2, 496(%rsp)
Ltmp522:
	movq	%rax, (%rsp)
	movzbl	160(%rsp), %r15d
	leaq	64(%rsp), %rdi
	leaq	448(%rsp), %r9
	movl	%r15d, %edx
	vzeroupper
	callq	__ZN5rayon4iter8plumbing24bridge_producer_consumer6helper17ha2f99a0eebe114e4E
Ltmp523:
	vmovaps	64(%rsp), %ymm0
	vmovaps	%ymm0, 160(%rsp)
	vmovaps	96(%rsp), %ymm0
	vmovaps	%ymm0, 800(%rsp)
	leaq	416(%rsp), %r12
	movb	416(%rsp), %al
	testb	%al, %al
	je	LBB12_12
	jmp	LBB12_16
	.p2align	4, 0x90
LBB12_23:
Ltmp532:
	movq	%rbx, %rdi
	movq	%rax, %rsi
	callq	__ZN10rayon_core8registry12WorkerThread7execute17h2d3f3a8dd2af2716E
Ltmp533:
	movzbl	416(%rsp), %eax
	testb	%al, %al
	jne	LBB12_16
LBB12_12:
Ltmp530:
	movq	%rbx, %rdi
	vzeroupper
	callq	__ZN10rayon_core8registry12WorkerThread14take_local_job17h123bfb54be8597fdE
Ltmp531:
	testq	%rdx, %rdx
	je	LBB12_14
	cmpq	%r13, %rax
	jne	LBB12_23
	cmpq	%r14, %rdx
	jne	LBB12_23
	vmovaps	416(%rsp), %ymm0
	vmovaps	%ymm0, 672(%rsp)
	vmovaps	384(%rsp), %ymm0
	vmovaps	%ymm0, 640(%rsp)
	vmovaps	352(%rsp), %ymm0
	vmovaps	%ymm0, 608(%rsp)
	vmovaps	320(%rsp), %ymm0
	vmovaps	%ymm0, 576(%rsp)
	vmovaps	192(%rsp), %ymm0
	vmovaps	224(%rsp), %ymm1
	vmovaps	256(%rsp), %ymm2
	vmovaps	288(%rsp), %ymm3
	vmovaps	%ymm3, 544(%rsp)
	vmovaps	%ymm2, 512(%rsp)
	vmovaps	%ymm1, 480(%rsp)
	vmovaps	%ymm0, 448(%rsp)
	movq	576(%rsp), %rdx
	movq	584(%rsp), %rcx
	movq	592(%rsp), %rax
	vmovups	600(%rsp), %ymm0
	vmovups	632(%rsp), %ymm1
	vmovaps	%ymm0, 64(%rsp)
	vmovaps	%ymm1, 96(%rsp)
	testq	%rdx, %rdx
	je	LBB12_25
	vmovaps	64(%rsp), %ymm0
	vmovaps	96(%rsp), %ymm1
	vmovaps	%ymm1, 928(%rsp)
	vmovaps	%ymm0, 896(%rsp)
	vmovaps	%ymm1, 768(%rsp)
	movq	664(%rsp), %rdi
	vmovaps	%ymm0, 736(%rsp)
	movq	(%rdx), %rsi
	subq	(%rcx), %rsi
	jb	LBB12_33
	movq	(%rax), %rcx
	movq	8(%rax), %r8
	vmovaps	736(%rsp), %ymm0
	vmovaps	768(%rsp), %ymm1
	vmovaps	%ymm1, 96(%rsp)
	vmovaps	%ymm0, 64(%rsp)
Ltmp535:
	movq	%rdi, (%rsp)
	leaq	832(%rsp), %rdi
	leaq	64(%rsp), %r9
	movl	%r15d, %edx
	vzeroupper
	callq	__ZN5rayon4iter8plumbing24bridge_producer_consumer6helper17ha2f99a0eebe114e4E
Ltmp536:
	cmpq	$2, 448(%rsp)
	jb	LBB12_32
	movq	456(%rsp), %r15
	movq	464(%rsp), %rbx
Ltmp537:
	movq	%r15, %rdi
	callq	*(%rbx)
Ltmp538:
	movq	8(%rbx), %rsi
	testq	%rsi, %rsi
	je	LBB12_32
	movq	16(%rbx), %rdx
	movq	%r15, %rdi
	callq	___rust_dealloc
LBB12_32:
	vmovaps	832(%rsp), %ymm0
	vmovaps	864(%rsp), %ymm1
	jmp	LBB12_37
LBB12_14:
	movb	416(%rsp), %al
	testb	%al, %al
	jne	LBB12_16
Ltmp548:
	movq	%rbx, %rdi
	movq	%r12, %rsi
	callq	__ZN10rayon_core8registry12WorkerThread15wait_until_cold17hf0fae827bbf09742E
Ltmp549:
LBB12_16:
	movq	192(%rsp), %rax
	cmpq	$1, %rax
	jne	LBB12_17
	vmovaps	256(%rsp), %ymm0
	vmovaps	288(%rsp), %ymm1
LBB12_37:
	movq	56(%rsp), %rax
	vmovaps	160(%rsp), %ymm2
	vmovaps	%ymm2, (%rax)
	vmovaps	800(%rsp), %ymm2
	vmovaps	%ymm2, 32(%rax)
	vmovaps	%ymm0, 64(%rax)
	vmovaps	%ymm1, 96(%rax)
	leaq	-40(%rbp), %rsp
	popq	%rbx
	popq	%r12
	popq	%r13
	popq	%r14
	popq	%r15
	popq	%rbp
	vzeroupper
	retq
LBB12_17:
	testq	%rax, %rax
	je	LBB12_35
	movq	200(%rsp), %rdi
	movq	208(%rsp), %rsi
Ltmp551:
	vzeroupper
	callq	__ZN10rayon_core6unwind16resume_unwinding17h47c2e39f90248736E
Ltmp552:
	jmp	LBB12_6
LBB12_5:
Ltmp556:
	leaq	_str.1(%rip), %rdi
	leaq	l___unnamed_1(%rip), %rdx
	movl	$33, %esi
	vzeroupper
	callq	__ZN4core9panicking5panic17h736ee47a631475c0E
Ltmp557:
	jmp	LBB12_6
LBB12_35:
Ltmp553:
	leaq	l___unnamed_2(%rip), %rdi
	leaq	l___unnamed_3(%rip), %rdx
	movl	$40, %esi
	vzeroupper
	callq	__ZN3std9panicking11begin_panic17h853288e601a61dd9E
Ltmp554:
	jmp	LBB12_6
LBB12_7:
Ltmp518:
	leaq	_str.3(%rip), %rdi
	leaq	l___unnamed_4(%rip), %rdx
	movl	$33, %esi
	vzeroupper
	callq	__ZN4core9panicking5panic17h736ee47a631475c0E
Ltmp519:
	jmp	LBB12_6
LBB12_25:
Ltmp542:
	leaq	l___unnamed_5(%rip), %rdi
	leaq	l___unnamed_6(%rip), %rdx
	movl	$43, %esi
	vzeroupper
	callq	__ZN4core9panicking5panic17h736ee47a631475c0E
Ltmp543:
	jmp	LBB12_6
LBB12_33:
Ltmp540:
	leaq	_str.1(%rip), %rdi
	leaq	l___unnamed_7(%rip), %rdx
	movl	$33, %esi
	vzeroupper
	callq	__ZN4core9panicking5panic17h736ee47a631475c0E
Ltmp541:
	jmp	LBB12_6
LBB12_47:
Ltmp555:
	jmp	LBB12_42
LBB12_40:
Ltmp550:
	jmp	LBB12_46
LBB12_38:
Ltmp539:
	movq	%rax, %r14
	movq	%r15, %rdi
	movq	%rbx, %rsi
	callq	__ZN5alloc5alloc8box_free17h601baa71c821b98cE
	movq	%r14, %rdi
	callq	__Unwind_Resume
	ud2
LBB12_34:
Ltmp544:
	movq	%rax, %r14
Ltmp545:
	leaq	448(%rsp), %rdi
	callq	__ZN4core3ptr13drop_in_place17h04000df5dc98c10bE
Ltmp546:
	jmp	LBB12_43
LBB12_41:
Ltmp547:
LBB12_42:
	movq	%rax, %r14
	movq	%r14, %rdi
	callq	__Unwind_Resume
	ud2
LBB12_19:
Ltmp524:
Ltmp525:
	movq	%rax, %rdi
	callq	__ZN3std9panicking3try7cleanup17hd895f7beef0a7dadE
Ltmp526:
	movq	%rdx, %rcx
	leaq	416(%rsp), %rsi
Ltmp527:
	movq	%rbx, %rdi
	movq	%rax, %rdx
	callq	__ZN10rayon_core4join23join_recover_from_panic17h65e0dcb6d5862f08E
Ltmp528:
LBB12_6:
	ud2
LBB12_45:
Ltmp529:
	jmp	LBB12_46
LBB12_44:
Ltmp558:
	jmp	LBB12_46
LBB12_39:
Ltmp534:
LBB12_46:
	movq	%rax, %r14
	leaq	192(%rsp), %rdi
	callq	__ZN4core3ptr13drop_in_place17h04000df5dc98c10bE
LBB12_43:
	movq	%r14, %rdi
	callq	__Unwind_Resume
	ud2
Lfunc_end12:
	.cfi_endproc
	.section	__TEXT,__gcc_except_tab
	.p2align	2
GCC_except_table12:
Lexception12:
	.byte	255
	.byte	155
	.uleb128 Lttbase12-Lttbaseref12
Lttbaseref12:
	.byte	1
	.uleb128 Lcst_end12-Lcst_begin12
Lcst_begin12:
	.uleb128 Ltmp516-Lfunc_begin12
	.uleb128 Ltmp521-Ltmp516
	.uleb128 Ltmp558-Lfunc_begin12
	.byte	0
	.uleb128 Ltmp522-Lfunc_begin12
	.uleb128 Ltmp523-Ltmp522
	.uleb128 Ltmp524-Lfunc_begin12
	.byte	3
	.uleb128 Ltmp532-Lfunc_begin12
	.uleb128 Ltmp531-Ltmp532
	.uleb128 Ltmp534-Lfunc_begin12
	.byte	0
	.uleb128 Ltmp535-Lfunc_begin12
	.uleb128 Ltmp536-Ltmp535
	.uleb128 Ltmp544-Lfunc_begin12
	.byte	0
	.uleb128 Ltmp537-Lfunc_begin12
	.uleb128 Ltmp538-Ltmp537
	.uleb128 Ltmp539-Lfunc_begin12
	.byte	0
	.uleb128 Ltmp548-Lfunc_begin12
	.uleb128 Ltmp549-Ltmp548
	.uleb128 Ltmp550-Lfunc_begin12
	.byte	0
	.uleb128 Ltmp551-Lfunc_begin12
	.uleb128 Ltmp552-Ltmp551
	.uleb128 Ltmp555-Lfunc_begin12
	.byte	0
	.uleb128 Ltmp556-Lfunc_begin12
	.uleb128 Ltmp557-Ltmp556
	.uleb128 Ltmp558-Lfunc_begin12
	.byte	0
	.uleb128 Ltmp553-Lfunc_begin12
	.uleb128 Ltmp554-Ltmp553
	.uleb128 Ltmp555-Lfunc_begin12
	.byte	0
	.uleb128 Ltmp518-Lfunc_begin12
	.uleb128 Ltmp519-Ltmp518
	.uleb128 Ltmp558-Lfunc_begin12
	.byte	0
	.uleb128 Ltmp542-Lfunc_begin12
	.uleb128 Ltmp541-Ltmp542
	.uleb128 Ltmp544-Lfunc_begin12
	.byte	0
	.uleb128 Ltmp541-Lfunc_begin12
	.uleb128 Ltmp545-Ltmp541
	.byte	0
	.byte	0
	.uleb128 Ltmp545-Lfunc_begin12
	.uleb128 Ltmp546-Ltmp545
	.uleb128 Ltmp547-Lfunc_begin12
	.byte	0
	.uleb128 Ltmp546-Lfunc_begin12
	.uleb128 Ltmp525-Ltmp546
	.byte	0
	.byte	0
	.uleb128 Ltmp525-Lfunc_begin12
	.uleb128 Ltmp526-Ltmp525
	.uleb128 Ltmp558-Lfunc_begin12
	.byte	0
	.uleb128 Ltmp527-Lfunc_begin12
	.uleb128 Ltmp528-Ltmp527
	.uleb128 Ltmp529-Lfunc_begin12
	.byte	0
	.uleb128 Ltmp528-Lfunc_begin12
	.uleb128 Lfunc_end12-Ltmp528
	.byte	0
	.byte	0
Lcst_end12:
	.byte	0
	.byte	0
	.byte	1
	.byte	125
	.p2align	2
	.long	0
Lttbase12:
	.p2align	2

	.section	__TEXT,__text,regular,pure_instructions
	.p2align	4, 0x90
__ZN10rayon_core4join12join_context28_$u7b$$u7b$closure$u7d$$u7d$17h52f524c866d61f1cE:
Lfunc_begin13:
	.cfi_startproc
	.cfi_personality 155, _rust_eh_personality
	.cfi_lsda 16, Lexception13
	pushq	%rbp
	.cfi_def_cfa_offset 16
	.cfi_offset %rbp, -16
	movq	%rsp, %rbp
	.cfi_def_cfa_register %rbp
	pushq	%r15
	pushq	%r14
	pushq	%r13
	pushq	%r12
	pushq	%rbx
	andq	$-64, %rsp
	subq	$768, %rsp
	.cfi_offset %rbx, -56
	.cfi_offset %r12, -48
	.cfi_offset %r13, -40
	.cfi_offset %r14, -32
	.cfi_offset %r15, -24
	movl	%ecx, 28(%rsp)
	movq	%rdx, %rbx
	movq	%rsi, %r12
	movq	%rdi, 56(%rsp)
	movb	$0, 376(%rsp)
	vmovdqu	(%rsi), %ymm0
	vmovups	24(%rsi), %ymm1
	vmovdqa	%ymm0, 320(%rsp)
	vmovups	%ymm1, 344(%rsp)
	movq	$0, 192(%rsp)
	movq	256(%rdx), %rax
	movq	264(%rax), %r15
	movq	256(%rax), %rax
	movq	272(%rdx), %rsi
	movq	%r15, %rcx
	subq	%rax, %rcx
	cmpq	%rsi, %rcx
	jl	LBB13_4
	addq	%rsi, %rsi
	jb	LBB13_7
	leaq	256(%rbx), %rdi
Ltmp559:
	vzeroupper
	callq	__ZN15crossbeam_deque15Worker$LT$T$GT$6resize17h34dc55adb45f7cc1E
Ltmp560:
	movq	272(%rbx), %rsi
LBB13_4:
	subq	$1, %rsi
	jb	LBB13_5
	movq	264(%rbx), %rax
	andq	%r15, %rsi
	shlq	$4, %rsi
	leaq	192(%rsp), %r13
	movq	%r13, (%rax,%rsi)
	leaq	__ZN83_$LT$rayon_core..job..StackJob$LT$L$C$F$C$R$GT$$u20$as$u20$rayon_core..job..Job$GT$7execute17h006e09d4d7103f8cE(%rip), %r14
	movq	%r14, 8(%rax,%rsi)
	##MEMBARRIER
	movq	256(%rbx), %rax
	incq	%r15
	movq	%r15, 264(%rax)
	movl	$408, %edi
	addq	304(%rbx), %rdi
	movq	288(%rbx), %rsi
Ltmp563:
	vzeroupper
	callq	__ZN10rayon_core5sleep5Sleep6tickle17h00d06f732555dc32E
Ltmp564:
	vmovups	56(%r12), %ymm0
	vmovups	72(%r12), %ymm1
	vmovaps	%ymm0, 64(%rsp)
	vmovups	%ymm1, 80(%rsp)
	movl	28(%rsp), %r15d
	movb	%r15b, 112(%rsp)
	vmovdqa	64(%rsp), %xmm0
	vmovq	%xmm0, %rax
	vpextrq	$1, %xmm0, %rdi
	vmovdqa	112(%rsp), %xmm0
	vpextrb	$0, %xmm0, %ecx
	vmovdqa	96(%rsp), %xmm0
	vmovaps	80(%rsp), %xmm1
	xorl	%edx, %edx
	testb	%cl, %cl
	setne	%dl
	movq	(%rax), %rsi
	movq	(%rdi), %rcx
	movq	8(%rdi), %r8
	vmovq	%xmm0, 48(%rsp)
	vmovups	%xmm1, 32(%rsp)
Ltmp565:
	vpextrq	$1, %xmm0, (%rsp)
	leaq	384(%rsp), %rdi
	leaq	32(%rsp), %r9
	vzeroupper
	callq	__ZN5rayon4iter8plumbing24bridge_producer_consumer6helper17hf8f8293b3b524e6eE
Ltmp566:
	vmovaps	384(%rsp), %ymm0
	vmovaps	%ymm0, 672(%rsp)
	vmovdqa	416(%rsp), %ymm0
	vmovdqa	%ymm0, 640(%rsp)
	leaq	376(%rsp), %r12
	movb	376(%rsp), %al
	testb	%al, %al
	je	LBB13_12
	jmp	LBB13_16
	.p2align	4, 0x90
LBB13_23:
Ltmp575:
	movq	%rbx, %rdi
	movq	%rax, %rsi
	callq	__ZN10rayon_core8registry12WorkerThread7execute17h2d3f3a8dd2af2716E
Ltmp576:
	movzbl	376(%rsp), %eax
	testb	%al, %al
	jne	LBB13_16
LBB13_12:
Ltmp573:
	movq	%rbx, %rdi
	vzeroupper
	callq	__ZN10rayon_core8registry12WorkerThread14take_local_job17h123bfb54be8597fdE
Ltmp574:
	testq	%rdx, %rdx
	je	LBB13_14
	cmpq	%r13, %rax
	jne	LBB13_23
	cmpq	%r14, %rdx
	jne	LBB13_23
	vmovaps	352(%rsp), %ymm0
	vmovaps	%ymm0, 544(%rsp)
	vmovaps	320(%rsp), %ymm0
	vmovaps	%ymm0, 512(%rsp)
	vmovaps	224(%rsp), %ymm0
	vmovaps	256(%rsp), %ymm1
	vmovaps	288(%rsp), %ymm2
	vmovaps	%ymm2, 480(%rsp)
	vmovaps	%ymm1, 448(%rsp)
	vmovaps	%ymm0, 416(%rsp)
	vmovaps	192(%rsp), %ymm0
	vmovaps	%ymm0, 384(%rsp)
	movq	512(%rsp), %rsi
	movq	520(%rsp), %rcx
	movq	528(%rsp), %rax
	vmovdqu	536(%rsp), %xmm0
	vmovdqa	%xmm0, 64(%rsp)
	movq	552(%rsp), %rdx
	movq	%rdx, 80(%rsp)
	testq	%rsi, %rsi
	je	LBB13_25
	movq	560(%rsp), %rdx
	movq	80(%rsp), %rdi
	movq	%rdi, 624(%rsp)
	vmovdqa	64(%rsp), %xmm0
	vmovdqa	%xmm0, 608(%rsp)
	movq	%rdi, 176(%rsp)
	vmovdqa	%xmm0, 160(%rsp)
	movq	(%rsi), %rsi
	subq	(%rcx), %rsi
	jb	LBB13_33
	movq	(%rax), %rcx
	movq	8(%rax), %r8
	movq	176(%rsp), %rax
	movq	%rax, 48(%rsp)
	vmovdqa	160(%rsp), %xmm0
	vmovdqa	%xmm0, 32(%rsp)
Ltmp578:
	movq	%rdx, (%rsp)
	movzbl	%r15b, %edx
	leaq	64(%rsp), %rdi
	leaq	32(%rsp), %r9
	vzeroupper
	callq	__ZN5rayon4iter8plumbing24bridge_producer_consumer6helper17hf8f8293b3b524e6eE
Ltmp579:
	cmpq	$2, 384(%rsp)
	jb	LBB13_32
	movq	392(%rsp), %r12
	movq	400(%rsp), %rbx
Ltmp580:
	movq	%r12, %rdi
	callq	*(%rbx)
Ltmp581:
	movq	8(%rbx), %rsi
	testq	%rsi, %rsi
	je	LBB13_32
	movq	16(%rbx), %rdx
	movq	%r12, %rdi
	callq	___rust_dealloc
LBB13_32:
	vmovaps	64(%rsp), %ymm0
	vmovaps	96(%rsp), %ymm1
	jmp	LBB13_37
LBB13_14:
	movb	376(%rsp), %al
	testb	%al, %al
	jne	LBB13_16
Ltmp591:
	movq	%rbx, %rdi
	movq	%r12, %rsi
	callq	__ZN10rayon_core8registry12WorkerThread15wait_until_cold17hf0fae827bbf09742E
Ltmp592:
LBB13_16:
	movq	192(%rsp), %rax
	cmpq	$1, %rax
	jne	LBB13_17
	vmovaps	256(%rsp), %ymm0
	vmovaps	288(%rsp), %ymm1
LBB13_37:
	movq	56(%rsp), %rax
	vmovaps	672(%rsp), %ymm2
	vmovaps	%ymm2, (%rax)
	vmovaps	640(%rsp), %ymm2
	vmovaps	%ymm2, 32(%rax)
	vmovaps	%ymm0, 64(%rax)
	vmovaps	%ymm1, 96(%rax)
	leaq	-40(%rbp), %rsp
	popq	%rbx
	popq	%r12
	popq	%r13
	popq	%r14
	popq	%r15
	popq	%rbp
	vzeroupper
	retq
LBB13_17:
	testq	%rax, %rax
	je	LBB13_35
	movq	200(%rsp), %rdi
	movq	208(%rsp), %rsi
Ltmp594:
	vzeroupper
	callq	__ZN10rayon_core6unwind16resume_unwinding17h47c2e39f90248736E
Ltmp595:
	jmp	LBB13_6
LBB13_5:
Ltmp599:
	leaq	_str.1(%rip), %rdi
	leaq	l___unnamed_1(%rip), %rdx
	movl	$33, %esi
	vzeroupper
	callq	__ZN4core9panicking5panic17h736ee47a631475c0E
Ltmp600:
	jmp	LBB13_6
LBB13_35:
Ltmp596:
	leaq	l___unnamed_2(%rip), %rdi
	leaq	l___unnamed_3(%rip), %rdx
	movl	$40, %esi
	vzeroupper
	callq	__ZN3std9panicking11begin_panic17h853288e601a61dd9E
Ltmp597:
	jmp	LBB13_6
LBB13_7:
Ltmp561:
	leaq	_str.3(%rip), %rdi
	leaq	l___unnamed_4(%rip), %rdx
	movl	$33, %esi
	vzeroupper
	callq	__ZN4core9panicking5panic17h736ee47a631475c0E
Ltmp562:
	jmp	LBB13_6
LBB13_25:
Ltmp585:
	leaq	l___unnamed_5(%rip), %rdi
	leaq	l___unnamed_6(%rip), %rdx
	movl	$43, %esi
	vzeroupper
	callq	__ZN4core9panicking5panic17h736ee47a631475c0E
Ltmp586:
	jmp	LBB13_6
LBB13_33:
Ltmp583:
	leaq	_str.1(%rip), %rdi
	leaq	l___unnamed_7(%rip), %rdx
	movl	$33, %esi
	vzeroupper
	callq	__ZN4core9panicking5panic17h736ee47a631475c0E
Ltmp584:
	jmp	LBB13_6
LBB13_47:
Ltmp598:
	jmp	LBB13_42
LBB13_40:
Ltmp593:
	jmp	LBB13_46
LBB13_38:
Ltmp582:
	movq	%rax, %r14
	movq	%r12, %rdi
	movq	%rbx, %rsi
	callq	__ZN5alloc5alloc8box_free17h601baa71c821b98cE
	movq	%r14, %rdi
	callq	__Unwind_Resume
	ud2
LBB13_34:
Ltmp587:
	movq	%rax, %r14
Ltmp588:
	leaq	384(%rsp), %rdi
	callq	__ZN4core3ptr13drop_in_place17h04000df5dc98c10bE
Ltmp589:
	jmp	LBB13_43
LBB13_41:
Ltmp590:
LBB13_42:
	movq	%rax, %r14
	movq	%r14, %rdi
	callq	__Unwind_Resume
	ud2
LBB13_19:
Ltmp567:
Ltmp568:
	movq	%rax, %rdi
	callq	__ZN3std9panicking3try7cleanup17hd895f7beef0a7dadE
Ltmp569:
	movq	%rdx, %rcx
	leaq	376(%rsp), %rsi
Ltmp570:
	movq	%rbx, %rdi
	movq	%rax, %rdx
	callq	__ZN10rayon_core4join23join_recover_from_panic17h65e0dcb6d5862f08E
Ltmp571:
LBB13_6:
	ud2
LBB13_45:
Ltmp572:
	jmp	LBB13_46
LBB13_44:
Ltmp601:
	jmp	LBB13_46
LBB13_39:
Ltmp577:
LBB13_46:
	movq	%rax, %r14
	leaq	192(%rsp), %rdi
	callq	__ZN4core3ptr13drop_in_place17h04000df5dc98c10bE
LBB13_43:
	movq	%r14, %rdi
	callq	__Unwind_Resume
	ud2
Lfunc_end13:
	.cfi_endproc
	.section	__TEXT,__gcc_except_tab
	.p2align	2
GCC_except_table13:
Lexception13:
	.byte	255
	.byte	155
	.uleb128 Lttbase13-Lttbaseref13
Lttbaseref13:
	.byte	1
	.uleb128 Lcst_end13-Lcst_begin13
Lcst_begin13:
	.uleb128 Ltmp559-Lfunc_begin13
	.uleb128 Ltmp564-Ltmp559
	.uleb128 Ltmp601-Lfunc_begin13
	.byte	0
	.uleb128 Ltmp565-Lfunc_begin13
	.uleb128 Ltmp566-Ltmp565
	.uleb128 Ltmp567-Lfunc_begin13
	.byte	3
	.uleb128 Ltmp575-Lfunc_begin13
	.uleb128 Ltmp574-Ltmp575
	.uleb128 Ltmp577-Lfunc_begin13
	.byte	0
	.uleb128 Ltmp578-Lfunc_begin13
	.uleb128 Ltmp579-Ltmp578
	.uleb128 Ltmp587-Lfunc_begin13
	.byte	0
	.uleb128 Ltmp580-Lfunc_begin13
	.uleb128 Ltmp581-Ltmp580
	.uleb128 Ltmp582-Lfunc_begin13
	.byte	0
	.uleb128 Ltmp591-Lfunc_begin13
	.uleb128 Ltmp592-Ltmp591
	.uleb128 Ltmp593-Lfunc_begin13
	.byte	0
	.uleb128 Ltmp594-Lfunc_begin13
	.uleb128 Ltmp595-Ltmp594
	.uleb128 Ltmp598-Lfunc_begin13
	.byte	0
	.uleb128 Ltmp599-Lfunc_begin13
	.uleb128 Ltmp600-Ltmp599
	.uleb128 Ltmp601-Lfunc_begin13
	.byte	0
	.uleb128 Ltmp596-Lfunc_begin13
	.uleb128 Ltmp597-Ltmp596
	.uleb128 Ltmp598-Lfunc_begin13
	.byte	0
	.uleb128 Ltmp561-Lfunc_begin13
	.uleb128 Ltmp562-Ltmp561
	.uleb128 Ltmp601-Lfunc_begin13
	.byte	0
	.uleb128 Ltmp585-Lfunc_begin13
	.uleb128 Ltmp584-Ltmp585
	.uleb128 Ltmp587-Lfunc_begin13
	.byte	0
	.uleb128 Ltmp584-Lfunc_begin13
	.uleb128 Ltmp588-Ltmp584
	.byte	0
	.byte	0
	.uleb128 Ltmp588-Lfunc_begin13
	.uleb128 Ltmp589-Ltmp588
	.uleb128 Ltmp590-Lfunc_begin13
	.byte	0
	.uleb128 Ltmp589-Lfunc_begin13
	.uleb128 Ltmp568-Ltmp589
	.byte	0
	.byte	0
	.uleb128 Ltmp568-Lfunc_begin13
	.uleb128 Ltmp569-Ltmp568
	.uleb128 Ltmp601-Lfunc_begin13
	.byte	0
	.uleb128 Ltmp570-Lfunc_begin13
	.uleb128 Ltmp571-Ltmp570
	.uleb128 Ltmp572-Lfunc_begin13
	.byte	0
	.uleb128 Ltmp571-Lfunc_begin13
	.uleb128 Lfunc_end13-Ltmp571
	.byte	0
	.byte	0
Lcst_end13:
	.byte	0
	.byte	0
	.byte	1
	.byte	125
	.p2align	2
	.long	0
Lttbase13:
	.p2align	2

	.section	__TEXT,__text,regular,pure_instructions
	.p2align	4, 0x90
__ZN10rayon_core4join12join_context28_$u7b$$u7b$closure$u7d$$u7d$17h6b8f521016c729d0E:
Lfunc_begin14:
	.cfi_startproc
	.cfi_personality 155, _rust_eh_personality
	.cfi_lsda 16, Lexception14
	pushq	%rbp
	.cfi_def_cfa_offset 16
	.cfi_offset %rbp, -16
	movq	%rsp, %rbp
	.cfi_def_cfa_register %rbp
	pushq	%r15
	pushq	%r14
	pushq	%r13
	pushq	%r12
	pushq	%rbx
	andq	$-64, %rsp
	subq	$1024, %rsp
	.cfi_offset %rbx, -56
	.cfi_offset %r12, -48
	.cfi_offset %r13, -40
	.cfi_offset %r14, -32
	.cfi_offset %r15, -24
	movq	%rdx, %rbx
	movq	%rsi, %r12
	movq	%rdi, 56(%rsp)
	movb	$0, 416(%rsp)
	vmovups	(%rsi), %ymm0
	vmovups	32(%rsi), %ymm1
	vmovaps	%ymm0, 320(%rsp)
	vmovups	64(%rsi), %ymm0
	vmovaps	%ymm1, 352(%rsp)
	vmovaps	%ymm0, 384(%rsp)
	movq	$0, 192(%rsp)
	movq	256(%rdx), %rax
	movq	264(%rax), %r15
	movq	256(%rax), %rax
	movq	272(%rdx), %rsi
	movq	%r15, %rdx
	subq	%rax, %rdx
	cmpq	%rsi, %rdx
	movl	%ecx, 160(%rsp)
	jl	LBB14_4
	addq	%rsi, %rsi
	jb	LBB14_7
	leaq	256(%rbx), %rdi
Ltmp602:
	vzeroupper
	callq	__ZN15crossbeam_deque15Worker$LT$T$GT$6resize17h34dc55adb45f7cc1E
Ltmp603:
	movq	272(%rbx), %rsi
LBB14_4:
	subq	$1, %rsi
	jb	LBB14_5
	movq	264(%rbx), %rax
	andq	%r15, %rsi
	shlq	$4, %rsi
	leaq	192(%rsp), %r13
	movq	%r13, (%rax,%rsi)
	leaq	__ZN83_$LT$rayon_core..job..StackJob$LT$L$C$F$C$R$GT$$u20$as$u20$rayon_core..job..Job$GT$7execute17hd23e8ab73b0a4946E(%rip), %r14
	movq	%r14, 8(%rax,%rsi)
	##MEMBARRIER
	movq	256(%rbx), %rax
	incq	%r15
	movq	%r15, 264(%rax)
	movl	$408, %edi
	addq	304(%rbx), %rdi
	movq	288(%rbx), %rsi
Ltmp606:
	vzeroupper
	callq	__ZN10rayon_core5sleep5Sleep6tickle17h00d06f732555dc32E
Ltmp607:
	vmovups	96(%r12), %ymm0
	movq	176(%r12), %rax
	vmovdqu	96(%r12), %xmm1
	vmovups	144(%r12), %xmm2
	vmovq	%xmm1, %rcx
	vpextrq	$1, %xmm1, %rdx
	vperm2f128	$33, 128(%r12), %ymm0, %ymm0
	vmovups	160(%r12), %xmm1
	vmovaps	%xmm1, 736(%rsp)
	movq	(%rcx), %rsi
	movq	(%rdx), %rcx
	movq	8(%rdx), %r8
	vmovups	%xmm2, 480(%rsp)
	vmovups	%ymm0, 448(%rsp)
	vmovups	%xmm1, 496(%rsp)
Ltmp608:
	movq	%rax, (%rsp)
	movzbl	160(%rsp), %r15d
	leaq	64(%rsp), %rdi
	leaq	448(%rsp), %r9
	movl	%r15d, %edx
	vzeroupper
	callq	__ZN5rayon4iter8plumbing24bridge_producer_consumer6helper17h2eb6b78daa809218E
Ltmp609:
	vmovaps	64(%rsp), %ymm0
	vmovaps	%ymm0, 160(%rsp)
	vmovaps	96(%rsp), %ymm0
	vmovaps	%ymm0, 800(%rsp)
	leaq	416(%rsp), %r12
	movb	416(%rsp), %al
	testb	%al, %al
	je	LBB14_12
	jmp	LBB14_16
	.p2align	4, 0x90
LBB14_23:
Ltmp618:
	movq	%rbx, %rdi
	movq	%rax, %rsi
	callq	__ZN10rayon_core8registry12WorkerThread7execute17h2d3f3a8dd2af2716E
Ltmp619:
	movzbl	416(%rsp), %eax
	testb	%al, %al
	jne	LBB14_16
LBB14_12:
Ltmp616:
	movq	%rbx, %rdi
	vzeroupper
	callq	__ZN10rayon_core8registry12WorkerThread14take_local_job17h123bfb54be8597fdE
Ltmp617:
	testq	%rdx, %rdx
	je	LBB14_14
	cmpq	%r13, %rax
	jne	LBB14_23
	cmpq	%r14, %rdx
	jne	LBB14_23
	vmovaps	416(%rsp), %ymm0
	vmovaps	%ymm0, 672(%rsp)
	vmovaps	384(%rsp), %ymm0
	vmovaps	%ymm0, 640(%rsp)
	vmovaps	352(%rsp), %ymm0
	vmovaps	%ymm0, 608(%rsp)
	vmovaps	320(%rsp), %ymm0
	vmovaps	%ymm0, 576(%rsp)
	vmovaps	192(%rsp), %ymm0
	vmovaps	224(%rsp), %ymm1
	vmovaps	256(%rsp), %ymm2
	vmovaps	288(%rsp), %ymm3
	vmovaps	%ymm3, 544(%rsp)
	vmovaps	%ymm2, 512(%rsp)
	vmovaps	%ymm1, 480(%rsp)
	vmovaps	%ymm0, 448(%rsp)
	movq	576(%rsp), %rdx
	movq	584(%rsp), %rcx
	movq	592(%rsp), %rax
	vmovups	600(%rsp), %ymm0
	vmovups	632(%rsp), %ymm1
	vmovaps	%ymm0, 64(%rsp)
	vmovaps	%ymm1, 96(%rsp)
	testq	%rdx, %rdx
	je	LBB14_25
	vmovaps	64(%rsp), %ymm0
	vmovaps	96(%rsp), %ymm1
	vmovaps	%ymm1, 928(%rsp)
	vmovaps	%ymm0, 896(%rsp)
	vmovaps	%ymm1, 768(%rsp)
	movq	664(%rsp), %rdi
	vmovaps	%ymm0, 736(%rsp)
	movq	(%rdx), %rsi
	subq	(%rcx), %rsi
	jb	LBB14_27
	movq	(%rax), %rcx
	movq	8(%rax), %r8
	vmovaps	736(%rsp), %ymm0
	vmovaps	768(%rsp), %ymm1
	vmovaps	%ymm1, 96(%rsp)
	vmovaps	%ymm0, 64(%rsp)
Ltmp621:
	movq	%rdi, (%rsp)
	leaq	832(%rsp), %rdi
	leaq	64(%rsp), %r9
	movl	%r15d, %edx
	vzeroupper
	callq	__ZN5rayon4iter8plumbing24bridge_producer_consumer6helper17h2eb6b78daa809218E
Ltmp622:
	cmpq	$2, 448(%rsp)
	jb	LBB14_33
	movq	456(%rsp), %r15
	movq	464(%rsp), %rbx
Ltmp623:
	movq	%r15, %rdi
	callq	*(%rbx)
Ltmp624:
	movq	8(%rbx), %rsi
	testq	%rsi, %rsi
	je	LBB14_33
	movq	16(%rbx), %rdx
	movq	%r15, %rdi
	callq	___rust_dealloc
LBB14_33:
	vmovaps	832(%rsp), %ymm0
	vmovaps	864(%rsp), %ymm1
	jmp	LBB14_37
LBB14_14:
	movb	416(%rsp), %al
	testb	%al, %al
	jne	LBB14_16
Ltmp634:
	movq	%rbx, %rdi
	movq	%r12, %rsi
	callq	__ZN10rayon_core8registry12WorkerThread15wait_until_cold17hf0fae827bbf09742E
Ltmp635:
LBB14_16:
	movq	192(%rsp), %rax
	cmpq	$1, %rax
	jne	LBB14_17
	vmovaps	256(%rsp), %ymm0
	vmovaps	288(%rsp), %ymm1
LBB14_37:
	movq	56(%rsp), %rax
	vmovaps	160(%rsp), %ymm2
	vmovaps	%ymm2, (%rax)
	vmovaps	800(%rsp), %ymm2
	vmovaps	%ymm2, 32(%rax)
	vmovaps	%ymm0, 64(%rax)
	vmovaps	%ymm1, 96(%rax)
	leaq	-40(%rbp), %rsp
	popq	%rbx
	popq	%r12
	popq	%r13
	popq	%r14
	popq	%r15
	popq	%rbp
	vzeroupper
	retq
LBB14_17:
	testq	%rax, %rax
	je	LBB14_35
	movq	200(%rsp), %rdi
	movq	208(%rsp), %rsi
Ltmp637:
	vzeroupper
	callq	__ZN10rayon_core6unwind16resume_unwinding17h47c2e39f90248736E
Ltmp638:
	jmp	LBB14_6
LBB14_5:
Ltmp642:
	leaq	_str.1(%rip), %rdi
	leaq	l___unnamed_1(%rip), %rdx
	movl	$33, %esi
	vzeroupper
	callq	__ZN4core9panicking5panic17h736ee47a631475c0E
Ltmp643:
	jmp	LBB14_6
LBB14_35:
Ltmp639:
	leaq	l___unnamed_2(%rip), %rdi
	leaq	l___unnamed_3(%rip), %rdx
	movl	$40, %esi
	vzeroupper
	callq	__ZN3std9panicking11begin_panic17h853288e601a61dd9E
Ltmp640:
	jmp	LBB14_6
LBB14_7:
Ltmp604:
	leaq	_str.3(%rip), %rdi
	leaq	l___unnamed_4(%rip), %rdx
	movl	$33, %esi
	vzeroupper
	callq	__ZN4core9panicking5panic17h736ee47a631475c0E
Ltmp605:
	jmp	LBB14_6
LBB14_25:
Ltmp628:
	leaq	l___unnamed_5(%rip), %rdi
	leaq	l___unnamed_6(%rip), %rdx
	movl	$43, %esi
	vzeroupper
	callq	__ZN4core9panicking5panic17h736ee47a631475c0E
Ltmp629:
	jmp	LBB14_6
LBB14_27:
Ltmp626:
	leaq	_str.1(%rip), %rdi
	leaq	l___unnamed_7(%rip), %rdx
	movl	$33, %esi
	vzeroupper
	callq	__ZN4core9panicking5panic17h736ee47a631475c0E
Ltmp627:
	jmp	LBB14_6
LBB14_47:
Ltmp641:
	jmp	LBB14_42
LBB14_40:
Ltmp636:
	jmp	LBB14_46
LBB14_38:
Ltmp625:
	movq	%rax, %r14
	movq	%r15, %rdi
	movq	%rbx, %rsi
	callq	__ZN5alloc5alloc8box_free17h601baa71c821b98cE
	movq	%r14, %rdi
	callq	__Unwind_Resume
	ud2
LBB14_34:
Ltmp630:
	movq	%rax, %r14
Ltmp631:
	leaq	448(%rsp), %rdi
	callq	__ZN4core3ptr13drop_in_place17h04000df5dc98c10bE
Ltmp632:
	jmp	LBB14_43
LBB14_41:
Ltmp633:
LBB14_42:
	movq	%rax, %r14
	movq	%r14, %rdi
	callq	__Unwind_Resume
	ud2
LBB14_19:
Ltmp610:
Ltmp611:
	movq	%rax, %rdi
	callq	__ZN3std9panicking3try7cleanup17hd895f7beef0a7dadE
Ltmp612:
	movq	%rdx, %rcx
	leaq	416(%rsp), %rsi
Ltmp613:
	movq	%rbx, %rdi
	movq	%rax, %rdx
	callq	__ZN10rayon_core4join23join_recover_from_panic17h65e0dcb6d5862f08E
Ltmp614:
LBB14_6:
	ud2
LBB14_45:
Ltmp615:
	jmp	LBB14_46
LBB14_44:
Ltmp644:
	jmp	LBB14_46
LBB14_39:
Ltmp620:
LBB14_46:
	movq	%rax, %r14
	leaq	192(%rsp), %rdi
	callq	__ZN4core3ptr13drop_in_place17h04000df5dc98c10bE
LBB14_43:
	movq	%r14, %rdi
	callq	__Unwind_Resume
	ud2
Lfunc_end14:
	.cfi_endproc
	.section	__TEXT,__gcc_except_tab
	.p2align	2
GCC_except_table14:
Lexception14:
	.byte	255
	.byte	155
	.uleb128 Lttbase14-Lttbaseref14
Lttbaseref14:
	.byte	1
	.uleb128 Lcst_end14-Lcst_begin14
Lcst_begin14:
	.uleb128 Ltmp602-Lfunc_begin14
	.uleb128 Ltmp607-Ltmp602
	.uleb128 Ltmp644-Lfunc_begin14
	.byte	0
	.uleb128 Ltmp608-Lfunc_begin14
	.uleb128 Ltmp609-Ltmp608
	.uleb128 Ltmp610-Lfunc_begin14
	.byte	3
	.uleb128 Ltmp618-Lfunc_begin14
	.uleb128 Ltmp617-Ltmp618
	.uleb128 Ltmp620-Lfunc_begin14
	.byte	0
	.uleb128 Ltmp621-Lfunc_begin14
	.uleb128 Ltmp622-Ltmp621
	.uleb128 Ltmp630-Lfunc_begin14
	.byte	0
	.uleb128 Ltmp623-Lfunc_begin14
	.uleb128 Ltmp624-Ltmp623
	.uleb128 Ltmp625-Lfunc_begin14
	.byte	0
	.uleb128 Ltmp634-Lfunc_begin14
	.uleb128 Ltmp635-Ltmp634
	.uleb128 Ltmp636-Lfunc_begin14
	.byte	0
	.uleb128 Ltmp637-Lfunc_begin14
	.uleb128 Ltmp638-Ltmp637
	.uleb128 Ltmp641-Lfunc_begin14
	.byte	0
	.uleb128 Ltmp642-Lfunc_begin14
	.uleb128 Ltmp643-Ltmp642
	.uleb128 Ltmp644-Lfunc_begin14
	.byte	0
	.uleb128 Ltmp639-Lfunc_begin14
	.uleb128 Ltmp640-Ltmp639
	.uleb128 Ltmp641-Lfunc_begin14
	.byte	0
	.uleb128 Ltmp604-Lfunc_begin14
	.uleb128 Ltmp605-Ltmp604
	.uleb128 Ltmp644-Lfunc_begin14
	.byte	0
	.uleb128 Ltmp628-Lfunc_begin14
	.uleb128 Ltmp627-Ltmp628
	.uleb128 Ltmp630-Lfunc_begin14
	.byte	0
	.uleb128 Ltmp627-Lfunc_begin14
	.uleb128 Ltmp631-Ltmp627
	.byte	0
	.byte	0
	.uleb128 Ltmp631-Lfunc_begin14
	.uleb128 Ltmp632-Ltmp631
	.uleb128 Ltmp633-Lfunc_begin14
	.byte	0
	.uleb128 Ltmp632-Lfunc_begin14
	.uleb128 Ltmp611-Ltmp632
	.byte	0
	.byte	0
	.uleb128 Ltmp611-Lfunc_begin14
	.uleb128 Ltmp612-Ltmp611
	.uleb128 Ltmp644-Lfunc_begin14
	.byte	0
	.uleb128 Ltmp613-Lfunc_begin14
	.uleb128 Ltmp614-Ltmp613
	.uleb128 Ltmp615-Lfunc_begin14
	.byte	0
	.uleb128 Ltmp614-Lfunc_begin14
	.uleb128 Lfunc_end14-Ltmp614
	.byte	0
	.byte	0
Lcst_end14:
	.byte	0
	.byte	0
	.byte	1
	.byte	125
	.p2align	2
	.long	0
Lttbase14:
	.p2align	2

	.section	__TEXT,__text,regular,pure_instructions
	.p2align	4, 0x90
__ZN10rayon_core4join12join_context28_$u7b$$u7b$closure$u7d$$u7d$17h702911570b428847E:
Lfunc_begin15:
	.cfi_startproc
	.cfi_personality 155, _rust_eh_personality
	.cfi_lsda 16, Lexception15
	pushq	%rbp
	.cfi_def_cfa_offset 16
	.cfi_offset %rbp, -16
	movq	%rsp, %rbp
	.cfi_def_cfa_register %rbp
	pushq	%r15
	pushq	%r14
	pushq	%r13
	pushq	%r12
	pushq	%rbx
	andq	$-64, %rsp
	subq	$1024, %rsp
	.cfi_offset %rbx, -56
	.cfi_offset %r12, -48
	.cfi_offset %r13, -40
	.cfi_offset %r14, -32
	.cfi_offset %r15, -24
	movq	%rdx, %rbx
	movq	%rsi, %r12
	movq	%rdi, 56(%rsp)
	movb	$0, 416(%rsp)
	vmovups	(%rsi), %ymm0
	vmovups	32(%rsi), %ymm1
	vmovaps	%ymm0, 320(%rsp)
	vmovups	64(%rsi), %ymm0
	vmovaps	%ymm1, 352(%rsp)
	vmovaps	%ymm0, 384(%rsp)
	movq	$0, 192(%rsp)
	movq	256(%rdx), %rax
	movq	264(%rax), %r15
	movq	256(%rax), %rax
	movq	272(%rdx), %rsi
	movq	%r15, %rdx
	subq	%rax, %rdx
	cmpq	%rsi, %rdx
	movl	%ecx, 160(%rsp)
	jl	LBB15_4
	addq	%rsi, %rsi
	jb	LBB15_7
	leaq	256(%rbx), %rdi
Ltmp645:
	vzeroupper
	callq	__ZN15crossbeam_deque15Worker$LT$T$GT$6resize17h34dc55adb45f7cc1E
Ltmp646:
	movq	272(%rbx), %rsi
LBB15_4:
	subq	$1, %rsi
	jb	LBB15_5
	movq	264(%rbx), %rax
	andq	%r15, %rsi
	shlq	$4, %rsi
	leaq	192(%rsp), %r13
	movq	%r13, (%rax,%rsi)
	leaq	__ZN83_$LT$rayon_core..job..StackJob$LT$L$C$F$C$R$GT$$u20$as$u20$rayon_core..job..Job$GT$7execute17hdece5c6b42c6eff4E(%rip), %r14
	movq	%r14, 8(%rax,%rsi)
	##MEMBARRIER
	movq	256(%rbx), %rax
	incq	%r15
	movq	%r15, 264(%rax)
	movl	$408, %edi
	addq	304(%rbx), %rdi
	movq	288(%rbx), %rsi
Ltmp649:
	vzeroupper
	callq	__ZN10rayon_core5sleep5Sleep6tickle17h00d06f732555dc32E
Ltmp650:
	vmovups	96(%r12), %ymm0
	movq	176(%r12), %rax
	vmovdqu	96(%r12), %xmm1
	vmovups	144(%r12), %xmm2
	vmovq	%xmm1, %rcx
	vpextrq	$1, %xmm1, %rdx
	vperm2f128	$33, 128(%r12), %ymm0, %ymm0
	vmovups	160(%r12), %xmm1
	vmovaps	%xmm1, 736(%rsp)
	movq	(%rcx), %rsi
	movq	(%rdx), %rcx
	movq	8(%rdx), %r8
	vmovups	%xmm2, 480(%rsp)
	vmovups	%ymm0, 448(%rsp)
	vmovups	%xmm1, 496(%rsp)
Ltmp651:
	movq	%rax, (%rsp)
	movzbl	160(%rsp), %r15d
	leaq	64(%rsp), %rdi
	leaq	448(%rsp), %r9
	movl	%r15d, %edx
	vzeroupper
	callq	__ZN5rayon4iter8plumbing24bridge_producer_consumer6helper17h134d0549b874d7b0E
Ltmp652:
	vmovaps	64(%rsp), %ymm0
	vmovaps	%ymm0, 160(%rsp)
	vmovaps	96(%rsp), %ymm0
	vmovaps	%ymm0, 800(%rsp)
	leaq	416(%rsp), %r12
	movb	416(%rsp), %al
	testb	%al, %al
	je	LBB15_12
	jmp	LBB15_16
	.p2align	4, 0x90
LBB15_23:
Ltmp661:
	movq	%rbx, %rdi
	movq	%rax, %rsi
	callq	__ZN10rayon_core8registry12WorkerThread7execute17h2d3f3a8dd2af2716E
Ltmp662:
	movzbl	416(%rsp), %eax
	testb	%al, %al
	jne	LBB15_16
LBB15_12:
Ltmp659:
	movq	%rbx, %rdi
	vzeroupper
	callq	__ZN10rayon_core8registry12WorkerThread14take_local_job17h123bfb54be8597fdE
Ltmp660:
	testq	%rdx, %rdx
	je	LBB15_14
	cmpq	%r13, %rax
	jne	LBB15_23
	cmpq	%r14, %rdx
	jne	LBB15_23
	vmovaps	416(%rsp), %ymm0
	vmovaps	%ymm0, 672(%rsp)
	vmovaps	384(%rsp), %ymm0
	vmovaps	%ymm0, 640(%rsp)
	vmovaps	352(%rsp), %ymm0
	vmovaps	%ymm0, 608(%rsp)
	vmovaps	320(%rsp), %ymm0
	vmovaps	%ymm0, 576(%rsp)
	vmovaps	192(%rsp), %ymm0
	vmovaps	224(%rsp), %ymm1
	vmovaps	256(%rsp), %ymm2
	vmovaps	288(%rsp), %ymm3
	vmovaps	%ymm3, 544(%rsp)
	vmovaps	%ymm2, 512(%rsp)
	vmovaps	%ymm1, 480(%rsp)
	vmovaps	%ymm0, 448(%rsp)
	movq	576(%rsp), %rdx
	movq	584(%rsp), %rcx
	movq	592(%rsp), %rax
	vmovups	600(%rsp), %ymm0
	vmovups	632(%rsp), %ymm1
	vmovaps	%ymm0, 64(%rsp)
	vmovaps	%ymm1, 96(%rsp)
	testq	%rdx, %rdx
	je	LBB15_25
	vmovaps	64(%rsp), %ymm0
	vmovaps	96(%rsp), %ymm1
	vmovaps	%ymm1, 928(%rsp)
	vmovaps	%ymm0, 896(%rsp)
	vmovaps	%ymm1, 768(%rsp)
	movq	664(%rsp), %rdi
	vmovaps	%ymm0, 736(%rsp)
	movq	(%rdx), %rsi
	subq	(%rcx), %rsi
	jb	LBB15_27
	movq	(%rax), %rcx
	movq	8(%rax), %r8
	vmovaps	736(%rsp), %ymm0
	vmovaps	768(%rsp), %ymm1
	vmovaps	%ymm1, 96(%rsp)
	vmovaps	%ymm0, 64(%rsp)
Ltmp664:
	movq	%rdi, (%rsp)
	leaq	832(%rsp), %rdi
	leaq	64(%rsp), %r9
	movl	%r15d, %edx
	vzeroupper
	callq	__ZN5rayon4iter8plumbing24bridge_producer_consumer6helper17h134d0549b874d7b0E
Ltmp665:
	cmpq	$2, 448(%rsp)
	jb	LBB15_33
	movq	456(%rsp), %r15
	movq	464(%rsp), %rbx
Ltmp666:
	movq	%r15, %rdi
	callq	*(%rbx)
Ltmp667:
	movq	8(%rbx), %rsi
	testq	%rsi, %rsi
	je	LBB15_33
	movq	16(%rbx), %rdx
	movq	%r15, %rdi
	callq	___rust_dealloc
LBB15_33:
	vmovaps	832(%rsp), %ymm0
	vmovaps	864(%rsp), %ymm1
	jmp	LBB15_37
LBB15_14:
	movb	416(%rsp), %al
	testb	%al, %al
	jne	LBB15_16
Ltmp677:
	movq	%rbx, %rdi
	movq	%r12, %rsi
	callq	__ZN10rayon_core8registry12WorkerThread15wait_until_cold17hf0fae827bbf09742E
Ltmp678:
LBB15_16:
	movq	192(%rsp), %rax
	cmpq	$1, %rax
	jne	LBB15_17
	vmovaps	256(%rsp), %ymm0
	vmovaps	288(%rsp), %ymm1
LBB15_37:
	movq	56(%rsp), %rax
	vmovaps	160(%rsp), %ymm2
	vmovaps	%ymm2, (%rax)
	vmovaps	800(%rsp), %ymm2
	vmovaps	%ymm2, 32(%rax)
	vmovaps	%ymm0, 64(%rax)
	vmovaps	%ymm1, 96(%rax)
	leaq	-40(%rbp), %rsp
	popq	%rbx
	popq	%r12
	popq	%r13
	popq	%r14
	popq	%r15
	popq	%rbp
	vzeroupper
	retq
LBB15_17:
	testq	%rax, %rax
	je	LBB15_35
	movq	200(%rsp), %rdi
	movq	208(%rsp), %rsi
Ltmp680:
	vzeroupper
	callq	__ZN10rayon_core6unwind16resume_unwinding17h47c2e39f90248736E
Ltmp681:
	jmp	LBB15_6
LBB15_5:
Ltmp685:
	leaq	_str.1(%rip), %rdi
	leaq	l___unnamed_1(%rip), %rdx
	movl	$33, %esi
	vzeroupper
	callq	__ZN4core9panicking5panic17h736ee47a631475c0E
Ltmp686:
	jmp	LBB15_6
LBB15_35:
Ltmp682:
	leaq	l___unnamed_2(%rip), %rdi
	leaq	l___unnamed_3(%rip), %rdx
	movl	$40, %esi
	vzeroupper
	callq	__ZN3std9panicking11begin_panic17h853288e601a61dd9E
Ltmp683:
	jmp	LBB15_6
LBB15_7:
Ltmp647:
	leaq	_str.3(%rip), %rdi
	leaq	l___unnamed_4(%rip), %rdx
	movl	$33, %esi
	vzeroupper
	callq	__ZN4core9panicking5panic17h736ee47a631475c0E
Ltmp648:
	jmp	LBB15_6
LBB15_25:
Ltmp671:
	leaq	l___unnamed_5(%rip), %rdi
	leaq	l___unnamed_6(%rip), %rdx
	movl	$43, %esi
	vzeroupper
	callq	__ZN4core9panicking5panic17h736ee47a631475c0E
Ltmp672:
	jmp	LBB15_6
LBB15_27:
Ltmp669:
	leaq	_str.1(%rip), %rdi
	leaq	l___unnamed_7(%rip), %rdx
	movl	$33, %esi
	vzeroupper
	callq	__ZN4core9panicking5panic17h736ee47a631475c0E
Ltmp670:
	jmp	LBB15_6
LBB15_47:
Ltmp684:
	jmp	LBB15_42
LBB15_40:
Ltmp679:
	jmp	LBB15_46
LBB15_38:
Ltmp668:
	movq	%rax, %r14
	movq	%r15, %rdi
	movq	%rbx, %rsi
	callq	__ZN5alloc5alloc8box_free17h601baa71c821b98cE
	movq	%r14, %rdi
	callq	__Unwind_Resume
	ud2
LBB15_34:
Ltmp673:
	movq	%rax, %r14
Ltmp674:
	leaq	448(%rsp), %rdi
	callq	__ZN4core3ptr13drop_in_place17h04000df5dc98c10bE
Ltmp675:
	jmp	LBB15_43
LBB15_41:
Ltmp676:
LBB15_42:
	movq	%rax, %r14
	movq	%r14, %rdi
	callq	__Unwind_Resume
	ud2
LBB15_19:
Ltmp653:
Ltmp654:
	movq	%rax, %rdi
	callq	__ZN3std9panicking3try7cleanup17hd895f7beef0a7dadE
Ltmp655:
	movq	%rdx, %rcx
	leaq	416(%rsp), %rsi
Ltmp656:
	movq	%rbx, %rdi
	movq	%rax, %rdx
	callq	__ZN10rayon_core4join23join_recover_from_panic17h65e0dcb6d5862f08E
Ltmp657:
LBB15_6:
	ud2
LBB15_45:
Ltmp658:
	jmp	LBB15_46
LBB15_44:
Ltmp687:
	jmp	LBB15_46
LBB15_39:
Ltmp663:
LBB15_46:
	movq	%rax, %r14
	leaq	192(%rsp), %rdi
	callq	__ZN4core3ptr13drop_in_place17h04000df5dc98c10bE
LBB15_43:
	movq	%r14, %rdi
	callq	__Unwind_Resume
	ud2
Lfunc_end15:
	.cfi_endproc
	.section	__TEXT,__gcc_except_tab
	.p2align	2
GCC_except_table15:
Lexception15:
	.byte	255
	.byte	155
	.uleb128 Lttbase15-Lttbaseref15
Lttbaseref15:
	.byte	1
	.uleb128 Lcst_end15-Lcst_begin15
Lcst_begin15:
	.uleb128 Ltmp645-Lfunc_begin15
	.uleb128 Ltmp650-Ltmp645
	.uleb128 Ltmp687-Lfunc_begin15
	.byte	0
	.uleb128 Ltmp651-Lfunc_begin15
	.uleb128 Ltmp652-Ltmp651
	.uleb128 Ltmp653-Lfunc_begin15
	.byte	3
	.uleb128 Ltmp661-Lfunc_begin15
	.uleb128 Ltmp660-Ltmp661
	.uleb128 Ltmp663-Lfunc_begin15
	.byte	0
	.uleb128 Ltmp664-Lfunc_begin15
	.uleb128 Ltmp665-Ltmp664
	.uleb128 Ltmp673-Lfunc_begin15
	.byte	0
	.uleb128 Ltmp666-Lfunc_begin15
	.uleb128 Ltmp667-Ltmp666
	.uleb128 Ltmp668-Lfunc_begin15
	.byte	0
	.uleb128 Ltmp677-Lfunc_begin15
	.uleb128 Ltmp678-Ltmp677
	.uleb128 Ltmp679-Lfunc_begin15
	.byte	0
	.uleb128 Ltmp680-Lfunc_begin15
	.uleb128 Ltmp681-Ltmp680
	.uleb128 Ltmp684-Lfunc_begin15
	.byte	0
	.uleb128 Ltmp685-Lfunc_begin15
	.uleb128 Ltmp686-Ltmp685
	.uleb128 Ltmp687-Lfunc_begin15
	.byte	0
	.uleb128 Ltmp682-Lfunc_begin15
	.uleb128 Ltmp683-Ltmp682
	.uleb128 Ltmp684-Lfunc_begin15
	.byte	0
	.uleb128 Ltmp647-Lfunc_begin15
	.uleb128 Ltmp648-Ltmp647
	.uleb128 Ltmp687-Lfunc_begin15
	.byte	0
	.uleb128 Ltmp671-Lfunc_begin15
	.uleb128 Ltmp670-Ltmp671
	.uleb128 Ltmp673-Lfunc_begin15
	.byte	0
	.uleb128 Ltmp670-Lfunc_begin15
	.uleb128 Ltmp674-Ltmp670
	.byte	0
	.byte	0
	.uleb128 Ltmp674-Lfunc_begin15
	.uleb128 Ltmp675-Ltmp674
	.uleb128 Ltmp676-Lfunc_begin15
	.byte	0
	.uleb128 Ltmp675-Lfunc_begin15
	.uleb128 Ltmp654-Ltmp675
	.byte	0
	.byte	0
	.uleb128 Ltmp654-Lfunc_begin15
	.uleb128 Ltmp655-Ltmp654
	.uleb128 Ltmp687-Lfunc_begin15
	.byte	0
	.uleb128 Ltmp656-Lfunc_begin15
	.uleb128 Ltmp657-Ltmp656
	.uleb128 Ltmp658-Lfunc_begin15
	.byte	0
	.uleb128 Ltmp657-Lfunc_begin15
	.uleb128 Lfunc_end15-Ltmp657
	.byte	0
	.byte	0
Lcst_end15:
	.byte	0
	.byte	0
	.byte	1
	.byte	125
	.p2align	2
	.long	0
Lttbase15:
	.p2align	2

	.section	__TEXT,__text,regular,pure_instructions
	.p2align	4, 0x90
__ZN10rayon_core4join12join_context28_$u7b$$u7b$closure$u7d$$u7d$17h88842e955f57968cE:
Lfunc_begin16:
	.cfi_startproc
	.cfi_personality 155, _rust_eh_personality
	.cfi_lsda 16, Lexception16
	pushq	%rbp
	.cfi_def_cfa_offset 16
	.cfi_offset %rbp, -16
	movq	%rsp, %rbp
	.cfi_def_cfa_register %rbp
	pushq	%r15
	pushq	%r14
	pushq	%r13
	pushq	%r12
	pushq	%rbx
	andq	$-64, %rsp
	subq	$896, %rsp
	.cfi_offset %rbx, -56
	.cfi_offset %r12, -48
	.cfi_offset %r13, -40
	.cfi_offset %r14, -32
	.cfi_offset %r15, -24
	movl	%ecx, 28(%rsp)
	movq	%rdx, %rbx
	movq	%rsi, %r12
	movq	%rdi, 56(%rsp)
	movb	$0, 384(%rsp)
	vmovups	(%rsi), %ymm0
	vmovups	32(%rsi), %ymm1
	vmovaps	%ymm0, 320(%rsp)
	vmovaps	%ymm1, 352(%rsp)
	movq	$0, 192(%rsp)
	movq	256(%rdx), %rax
	movq	264(%rax), %r15
	movq	256(%rax), %rax
	movq	272(%rdx), %rsi
	movq	%r15, %rcx
	subq	%rax, %rcx
	cmpq	%rsi, %rcx
	jl	LBB16_4
	addq	%rsi, %rsi
	jb	LBB16_7
	leaq	256(%rbx), %rdi
Ltmp688:
	vzeroupper
	callq	__ZN15crossbeam_deque15Worker$LT$T$GT$6resize17h34dc55adb45f7cc1E
Ltmp689:
	movq	272(%rbx), %rsi
LBB16_4:
	subq	$1, %rsi
	jb	LBB16_5
	movq	264(%rbx), %rax
	andq	%r15, %rsi
	shlq	$4, %rsi
	leaq	192(%rsp), %r13
	movq	%r13, (%rax,%rsi)
	leaq	__ZN83_$LT$rayon_core..job..StackJob$LT$L$C$F$C$R$GT$$u20$as$u20$rayon_core..job..Job$GT$7execute17h97eed5dde8a9bab4E(%rip), %r14
	movq	%r14, 8(%rax,%rsi)
	##MEMBARRIER
	movq	256(%rbx), %rax
	incq	%r15
	movq	%r15, 264(%rax)
	movl	$408, %edi
	addq	304(%rbx), %rdi
	movq	288(%rbx), %rsi
Ltmp692:
	vzeroupper
	callq	__ZN10rayon_core5sleep5Sleep6tickle17h00d06f732555dc32E
Ltmp693:
	vmovups	64(%r12), %ymm0
	vmovups	88(%r12), %ymm1
	vmovups	%ymm1, 88(%rsp)
	vmovaps	%ymm0, 64(%rsp)
	movl	28(%rsp), %r15d
	movb	%r15b, 120(%rsp)
	vmovaps	96(%rsp), %ymm0
	vmovdqa	64(%rsp), %xmm1
	vmovdqa	112(%rsp), %xmm2
	vmovaps	80(%rsp), %xmm3
	vmovq	%xmm1, %rax
	vpextrq	$1, %xmm1, %rdi
	vpextrb	$8, %xmm2, %ecx
	vpermpd	$68, %ymm0, %ymm1
	xorl	%edx, %edx
	testb	%cl, %cl
	setne	%dl
	movq	(%rax), %rsi
	movq	(%rdi), %rcx
	movq	8(%rdi), %r8
	vextractf128	$1, %ymm1, %xmm1
	vmovlps	%xmm1, 48(%rsp)
	vmovups	%xmm3, 32(%rsp)
Ltmp694:
	vpermpd	$233, %ymm0, %ymm0
	vmovups	%xmm0, (%rsp)
	leaq	448(%rsp), %rdi
	leaq	32(%rsp), %r9
	vzeroupper
	callq	__ZN5rayon4iter8plumbing24bridge_producer_consumer6helper17h7090b48d49163759E
Ltmp695:
	vmovaps	448(%rsp), %ymm0
	vmovaps	%ymm0, 800(%rsp)
	vmovaps	480(%rsp), %ymm0
	vmovaps	%ymm0, 768(%rsp)
	leaq	384(%rsp), %r12
	movb	384(%rsp), %al
	testb	%al, %al
	je	LBB16_12
	jmp	LBB16_16
	.p2align	4, 0x90
LBB16_23:
Ltmp704:
	movq	%rbx, %rdi
	movq	%rax, %rsi
	callq	__ZN10rayon_core8registry12WorkerThread7execute17h2d3f3a8dd2af2716E
Ltmp705:
	movzbl	384(%rsp), %eax
	testb	%al, %al
	jne	LBB16_16
LBB16_12:
Ltmp702:
	movq	%rbx, %rdi
	vzeroupper
	callq	__ZN10rayon_core8registry12WorkerThread14take_local_job17h123bfb54be8597fdE
Ltmp703:
	testq	%rdx, %rdx
	je	LBB16_14
	cmpq	%r13, %rax
	jne	LBB16_23
	cmpq	%r14, %rdx
	jne	LBB16_23
	vmovaps	416(%rsp), %ymm0
	vmovaps	%ymm0, 672(%rsp)
	vmovaps	384(%rsp), %ymm0
	vmovaps	%ymm0, 640(%rsp)
	vmovaps	352(%rsp), %ymm0
	vmovaps	%ymm0, 608(%rsp)
	vmovaps	320(%rsp), %ymm0
	vmovaps	%ymm0, 576(%rsp)
	vmovaps	224(%rsp), %ymm0
	vmovaps	256(%rsp), %ymm1
	vmovdqa	288(%rsp), %ymm2
	vmovdqa	%ymm2, 544(%rsp)
	vmovaps	%ymm1, 512(%rsp)
	vmovaps	%ymm0, 480(%rsp)
	vmovaps	192(%rsp), %ymm0
	vmovaps	%ymm0, 448(%rsp)
	movq	576(%rsp), %rsi
	movq	584(%rsp), %rcx
	movq	592(%rsp), %rax
	vmovups	600(%rsp), %xmm0
	vmovaps	%xmm0, 64(%rsp)
	movq	616(%rsp), %rdx
	movq	%rdx, 80(%rsp)
	testq	%rsi, %rsi
	je	LBB16_25
	movq	624(%rsp), %rdx
	movq	632(%rsp), %rdi
	movq	80(%rsp), %rbx
	movq	%rbx, 752(%rsp)
	vmovaps	64(%rsp), %xmm0
	vmovaps	%xmm0, 736(%rsp)
	movq	%rbx, 176(%rsp)
	vmovaps	%xmm0, 160(%rsp)
	movq	(%rsi), %rsi
	subq	(%rcx), %rsi
	jb	LBB16_27
	movq	(%rax), %rcx
	movq	8(%rax), %r8
	movq	176(%rsp), %rax
	movq	%rax, 48(%rsp)
	vmovaps	160(%rsp), %xmm0
	vmovaps	%xmm0, 32(%rsp)
Ltmp707:
	movq	%rdi, 8(%rsp)
	movq	%rdx, (%rsp)
	movzbl	%r15b, %edx
	leaq	64(%rsp), %rdi
	leaq	32(%rsp), %r9
	vzeroupper
	callq	__ZN5rayon4iter8plumbing24bridge_producer_consumer6helper17h7090b48d49163759E
Ltmp708:
	cmpq	$2, 448(%rsp)
	jb	LBB16_33
	movq	456(%rsp), %r12
	movq	464(%rsp), %rbx
Ltmp709:
	movq	%r12, %rdi
	callq	*(%rbx)
Ltmp710:
	movq	8(%rbx), %rsi
	testq	%rsi, %rsi
	je	LBB16_33
	movq	16(%rbx), %rdx
	movq	%r12, %rdi
	callq	___rust_dealloc
LBB16_33:
	vmovaps	64(%rsp), %ymm0
	vmovaps	96(%rsp), %ymm1
	jmp	LBB16_37
LBB16_14:
	movb	384(%rsp), %al
	testb	%al, %al
	jne	LBB16_16
Ltmp720:
	movq	%rbx, %rdi
	movq	%r12, %rsi
	callq	__ZN10rayon_core8registry12WorkerThread15wait_until_cold17hf0fae827bbf09742E
Ltmp721:
LBB16_16:
	movq	192(%rsp), %rax
	cmpq	$1, %rax
	jne	LBB16_17
	vmovaps	256(%rsp), %ymm0
	vmovaps	288(%rsp), %ymm1
LBB16_37:
	movq	56(%rsp), %rax
	vmovaps	800(%rsp), %ymm2
	vmovaps	%ymm2, (%rax)
	vmovaps	768(%rsp), %ymm2
	vmovaps	%ymm2, 32(%rax)
	vmovaps	%ymm0, 64(%rax)
	vmovaps	%ymm1, 96(%rax)
	leaq	-40(%rbp), %rsp
	popq	%rbx
	popq	%r12
	popq	%r13
	popq	%r14
	popq	%r15
	popq	%rbp
	vzeroupper
	retq
LBB16_17:
	testq	%rax, %rax
	je	LBB16_35
	movq	200(%rsp), %rdi
	movq	208(%rsp), %rsi
Ltmp723:
	vzeroupper
	callq	__ZN10rayon_core6unwind16resume_unwinding17h47c2e39f90248736E
Ltmp724:
	jmp	LBB16_6
LBB16_5:
Ltmp728:
	leaq	_str.1(%rip), %rdi
	leaq	l___unnamed_1(%rip), %rdx
	movl	$33, %esi
	vzeroupper
	callq	__ZN4core9panicking5panic17h736ee47a631475c0E
Ltmp729:
	jmp	LBB16_6
LBB16_35:
Ltmp725:
	leaq	l___unnamed_2(%rip), %rdi
	leaq	l___unnamed_3(%rip), %rdx
	movl	$40, %esi
	vzeroupper
	callq	__ZN3std9panicking11begin_panic17h853288e601a61dd9E
Ltmp726:
	jmp	LBB16_6
LBB16_7:
Ltmp690:
	leaq	_str.3(%rip), %rdi
	leaq	l___unnamed_4(%rip), %rdx
	movl	$33, %esi
	vzeroupper
	callq	__ZN4core9panicking5panic17h736ee47a631475c0E
Ltmp691:
	jmp	LBB16_6
LBB16_25:
Ltmp714:
	leaq	l___unnamed_5(%rip), %rdi
	leaq	l___unnamed_6(%rip), %rdx
	movl	$43, %esi
	vzeroupper
	callq	__ZN4core9panicking5panic17h736ee47a631475c0E
Ltmp715:
	jmp	LBB16_6
LBB16_27:
Ltmp712:
	leaq	_str.1(%rip), %rdi
	leaq	l___unnamed_7(%rip), %rdx
	movl	$33, %esi
	vzeroupper
	callq	__ZN4core9panicking5panic17h736ee47a631475c0E
Ltmp713:
	jmp	LBB16_6
LBB16_47:
Ltmp727:
	jmp	LBB16_42
LBB16_40:
Ltmp722:
	jmp	LBB16_46
LBB16_38:
Ltmp711:
	movq	%rax, %r14
	movq	%r12, %rdi
	movq	%rbx, %rsi
	callq	__ZN5alloc5alloc8box_free17h601baa71c821b98cE
	movq	%r14, %rdi
	callq	__Unwind_Resume
	ud2
LBB16_34:
Ltmp716:
	movq	%rax, %r14
Ltmp717:
	leaq	448(%rsp), %rdi
	callq	__ZN4core3ptr13drop_in_place17h04000df5dc98c10bE
Ltmp718:
	jmp	LBB16_43
LBB16_41:
Ltmp719:
LBB16_42:
	movq	%rax, %r14
	movq	%r14, %rdi
	callq	__Unwind_Resume
	ud2
LBB16_19:
Ltmp696:
Ltmp697:
	movq	%rax, %rdi
	callq	__ZN3std9panicking3try7cleanup17hd895f7beef0a7dadE
Ltmp698:
	movq	%rdx, %rcx
	leaq	384(%rsp), %rsi
Ltmp699:
	movq	%rbx, %rdi
	movq	%rax, %rdx
	callq	__ZN10rayon_core4join23join_recover_from_panic17h65e0dcb6d5862f08E
Ltmp700:
LBB16_6:
	ud2
LBB16_45:
Ltmp701:
	jmp	LBB16_46
LBB16_44:
Ltmp730:
	jmp	LBB16_46
LBB16_39:
Ltmp706:
LBB16_46:
	movq	%rax, %r14
	leaq	192(%rsp), %rdi
	callq	__ZN4core3ptr13drop_in_place17h04000df5dc98c10bE
LBB16_43:
	movq	%r14, %rdi
	callq	__Unwind_Resume
	ud2
Lfunc_end16:
	.cfi_endproc
	.section	__TEXT,__gcc_except_tab
	.p2align	2
GCC_except_table16:
Lexception16:
	.byte	255
	.byte	155
	.uleb128 Lttbase16-Lttbaseref16
Lttbaseref16:
	.byte	1
	.uleb128 Lcst_end16-Lcst_begin16
Lcst_begin16:
	.uleb128 Ltmp688-Lfunc_begin16
	.uleb128 Ltmp693-Ltmp688
	.uleb128 Ltmp730-Lfunc_begin16
	.byte	0
	.uleb128 Ltmp694-Lfunc_begin16
	.uleb128 Ltmp695-Ltmp694
	.uleb128 Ltmp696-Lfunc_begin16
	.byte	3
	.uleb128 Ltmp704-Lfunc_begin16
	.uleb128 Ltmp703-Ltmp704
	.uleb128 Ltmp706-Lfunc_begin16
	.byte	0
	.uleb128 Ltmp707-Lfunc_begin16
	.uleb128 Ltmp708-Ltmp707
	.uleb128 Ltmp716-Lfunc_begin16
	.byte	0
	.uleb128 Ltmp709-Lfunc_begin16
	.uleb128 Ltmp710-Ltmp709
	.uleb128 Ltmp711-Lfunc_begin16
	.byte	0
	.uleb128 Ltmp720-Lfunc_begin16
	.uleb128 Ltmp721-Ltmp720
	.uleb128 Ltmp722-Lfunc_begin16
	.byte	0
	.uleb128 Ltmp723-Lfunc_begin16
	.uleb128 Ltmp724-Ltmp723
	.uleb128 Ltmp727-Lfunc_begin16
	.byte	0
	.uleb128 Ltmp728-Lfunc_begin16
	.uleb128 Ltmp729-Ltmp728
	.uleb128 Ltmp730-Lfunc_begin16
	.byte	0
	.uleb128 Ltmp725-Lfunc_begin16
	.uleb128 Ltmp726-Ltmp725
	.uleb128 Ltmp727-Lfunc_begin16
	.byte	0
	.uleb128 Ltmp690-Lfunc_begin16
	.uleb128 Ltmp691-Ltmp690
	.uleb128 Ltmp730-Lfunc_begin16
	.byte	0
	.uleb128 Ltmp714-Lfunc_begin16
	.uleb128 Ltmp713-Ltmp714
	.uleb128 Ltmp716-Lfunc_begin16
	.byte	0
	.uleb128 Ltmp713-Lfunc_begin16
	.uleb128 Ltmp717-Ltmp713
	.byte	0
	.byte	0
	.uleb128 Ltmp717-Lfunc_begin16
	.uleb128 Ltmp718-Ltmp717
	.uleb128 Ltmp719-Lfunc_begin16
	.byte	0
	.uleb128 Ltmp718-Lfunc_begin16
	.uleb128 Ltmp697-Ltmp718
	.byte	0
	.byte	0
	.uleb128 Ltmp697-Lfunc_begin16
	.uleb128 Ltmp698-Ltmp697
	.uleb128 Ltmp730-Lfunc_begin16
	.byte	0
	.uleb128 Ltmp699-Lfunc_begin16
	.uleb128 Ltmp700-Ltmp699
	.uleb128 Ltmp701-Lfunc_begin16
	.byte	0
	.uleb128 Ltmp700-Lfunc_begin16
	.uleb128 Lfunc_end16-Ltmp700
	.byte	0
	.byte	0
Lcst_end16:
	.byte	0
	.byte	0
	.byte	1
	.byte	125
	.p2align	2
	.long	0
Lttbase16:
	.p2align	2

	.section	__TEXT,__text,regular,pure_instructions
	.p2align	4, 0x90
__ZN10rayon_core4join12join_context28_$u7b$$u7b$closure$u7d$$u7d$17h9321494734bafdcbE:
Lfunc_begin17:
	.cfi_startproc
	.cfi_personality 155, _rust_eh_personality
	.cfi_lsda 16, Lexception17
	pushq	%rbp
	.cfi_def_cfa_offset 16
	.cfi_offset %rbp, -16
	movq	%rsp, %rbp
	.cfi_def_cfa_register %rbp
	pushq	%r15
	pushq	%r14
	pushq	%r13
	pushq	%r12
	pushq	%rbx
	andq	$-64, %rsp
	subq	$1024, %rsp
	.cfi_offset %rbx, -56
	.cfi_offset %r12, -48
	.cfi_offset %r13, -40
	.cfi_offset %r14, -32
	.cfi_offset %r15, -24
	movq	%rdx, %rbx
	movq	%rsi, %r12
	movq	%rdi, 56(%rsp)
	movb	$0, 416(%rsp)
	vmovups	(%rsi), %ymm0
	vmovups	32(%rsi), %ymm1
	vmovaps	%ymm0, 320(%rsp)
	vmovups	64(%rsi), %ymm0
	vmovaps	%ymm1, 352(%rsp)
	vmovaps	%ymm0, 384(%rsp)
	movq	$0, 192(%rsp)
	movq	256(%rdx), %rax
	movq	264(%rax), %r15
	movq	256(%rax), %rax
	movq	272(%rdx), %rsi
	movq	%r15, %rdx
	subq	%rax, %rdx
	cmpq	%rsi, %rdx
	movl	%ecx, 160(%rsp)
	jl	LBB17_4
	addq	%rsi, %rsi
	jb	LBB17_7
	leaq	256(%rbx), %rdi
Ltmp731:
	vzeroupper
	callq	__ZN15crossbeam_deque15Worker$LT$T$GT$6resize17h34dc55adb45f7cc1E
Ltmp732:
	movq	272(%rbx), %rsi
LBB17_4:
	subq	$1, %rsi
	jb	LBB17_5
	movq	264(%rbx), %rax
	andq	%r15, %rsi
	shlq	$4, %rsi
	leaq	192(%rsp), %r13
	movq	%r13, (%rax,%rsi)
	leaq	__ZN83_$LT$rayon_core..job..StackJob$LT$L$C$F$C$R$GT$$u20$as$u20$rayon_core..job..Job$GT$7execute17h5f3213e3b662df40E(%rip), %r14
	movq	%r14, 8(%rax,%rsi)
	##MEMBARRIER
	movq	256(%rbx), %rax
	incq	%r15
	movq	%r15, 264(%rax)
	movl	$408, %edi
	addq	304(%rbx), %rdi
	movq	288(%rbx), %rsi
Ltmp735:
	vzeroupper
	callq	__ZN10rayon_core5sleep5Sleep6tickle17h00d06f732555dc32E
Ltmp736:
	vmovups	96(%r12), %ymm0
	movq	176(%r12), %rax
	vmovdqu	96(%r12), %xmm1
	vmovq	%xmm1, %rcx
	vpextrq	$1, %xmm1, %rdx
	vperm2f128	$33, 128(%r12), %ymm0, %ymm0
	vmovups	144(%r12), %xmm1
	vmovups	160(%r12), %xmm2
	vmovaps	%xmm2, 736(%rsp)
	movq	(%rcx), %rsi
	movq	(%rdx), %rcx
	movq	8(%rdx), %r8
	vmovups	%xmm1, 480(%rsp)
	vmovups	%ymm0, 448(%rsp)
	vmovups	%xmm2, 496(%rsp)
Ltmp737:
	movq	%rax, (%rsp)
	movzbl	160(%rsp), %r15d
	leaq	64(%rsp), %rdi
	leaq	448(%rsp), %r9
	movl	%r15d, %edx
	vzeroupper
	callq	__ZN5rayon4iter8plumbing24bridge_producer_consumer6helper17h88adf7442447d004E
Ltmp738:
	vmovaps	64(%rsp), %ymm0
	vmovaps	%ymm0, 160(%rsp)
	vmovaps	96(%rsp), %ymm0
	vmovaps	%ymm0, 800(%rsp)
	leaq	416(%rsp), %r12
	movb	416(%rsp), %al
	testb	%al, %al
	je	LBB17_12
	jmp	LBB17_16
	.p2align	4, 0x90
LBB17_23:
Ltmp747:
	movq	%rbx, %rdi
	movq	%rax, %rsi
	callq	__ZN10rayon_core8registry12WorkerThread7execute17h2d3f3a8dd2af2716E
Ltmp748:
	movzbl	416(%rsp), %eax
	testb	%al, %al
	jne	LBB17_16
LBB17_12:
Ltmp745:
	movq	%rbx, %rdi
	vzeroupper
	callq	__ZN10rayon_core8registry12WorkerThread14take_local_job17h123bfb54be8597fdE
Ltmp746:
	testq	%rdx, %rdx
	je	LBB17_14
	cmpq	%r13, %rax
	jne	LBB17_23
	cmpq	%r14, %rdx
	jne	LBB17_23
	vmovaps	416(%rsp), %ymm0
	vmovaps	%ymm0, 672(%rsp)
	vmovaps	384(%rsp), %ymm0
	vmovaps	%ymm0, 640(%rsp)
	vmovaps	352(%rsp), %ymm0
	vmovaps	%ymm0, 608(%rsp)
	vmovaps	320(%rsp), %ymm0
	vmovaps	%ymm0, 576(%rsp)
	vmovaps	192(%rsp), %ymm0
	vmovaps	224(%rsp), %ymm1
	vmovaps	256(%rsp), %ymm2
	vmovaps	288(%rsp), %ymm3
	vmovaps	%ymm3, 544(%rsp)
	vmovaps	%ymm2, 512(%rsp)
	vmovaps	%ymm1, 480(%rsp)
	vmovaps	%ymm0, 448(%rsp)
	movq	576(%rsp), %rdx
	movq	584(%rsp), %rcx
	movq	592(%rsp), %rax
	vmovups	600(%rsp), %ymm0
	vmovups	632(%rsp), %ymm1
	vmovaps	%ymm0, 64(%rsp)
	vmovaps	%ymm1, 96(%rsp)
	testq	%rdx, %rdx
	je	LBB17_25
	vmovaps	64(%rsp), %ymm0
	vmovaps	96(%rsp), %ymm1
	vmovaps	%ymm1, 928(%rsp)
	vmovaps	%ymm0, 896(%rsp)
	vmovaps	%ymm1, 768(%rsp)
	movq	664(%rsp), %rdi
	vmovaps	%ymm0, 736(%rsp)
	movq	(%rdx), %rsi
	subq	(%rcx), %rsi
	jb	LBB17_33
	movq	(%rax), %rcx
	movq	8(%rax), %r8
	vmovaps	736(%rsp), %ymm0
	vmovaps	768(%rsp), %ymm1
	vmovaps	%ymm1, 96(%rsp)
	vmovaps	%ymm0, 64(%rsp)
Ltmp750:
	movq	%rdi, (%rsp)
	leaq	832(%rsp), %rdi
	leaq	64(%rsp), %r9
	movl	%r15d, %edx
	vzeroupper
	callq	__ZN5rayon4iter8plumbing24bridge_producer_consumer6helper17h88adf7442447d004E
Ltmp751:
	cmpq	$2, 448(%rsp)
	jb	LBB17_32
	movq	456(%rsp), %r15
	movq	464(%rsp), %rbx
Ltmp752:
	movq	%r15, %rdi
	callq	*(%rbx)
Ltmp753:
	movq	8(%rbx), %rsi
	testq	%rsi, %rsi
	je	LBB17_32
	movq	16(%rbx), %rdx
	movq	%r15, %rdi
	callq	___rust_dealloc
LBB17_32:
	vmovaps	832(%rsp), %ymm0
	vmovaps	864(%rsp), %ymm1
	jmp	LBB17_37
LBB17_14:
	movb	416(%rsp), %al
	testb	%al, %al
	jne	LBB17_16
Ltmp763:
	movq	%rbx, %rdi
	movq	%r12, %rsi
	callq	__ZN10rayon_core8registry12WorkerThread15wait_until_cold17hf0fae827bbf09742E
Ltmp764:
LBB17_16:
	movq	192(%rsp), %rax
	cmpq	$1, %rax
	jne	LBB17_17
	vmovaps	256(%rsp), %ymm0
	vmovaps	288(%rsp), %ymm1
LBB17_37:
	movq	56(%rsp), %rax
	vmovaps	160(%rsp), %ymm2
	vmovaps	%ymm2, (%rax)
	vmovaps	800(%rsp), %ymm2
	vmovaps	%ymm2, 32(%rax)
	vmovaps	%ymm0, 64(%rax)
	vmovaps	%ymm1, 96(%rax)
	leaq	-40(%rbp), %rsp
	popq	%rbx
	popq	%r12
	popq	%r13
	popq	%r14
	popq	%r15
	popq	%rbp
	vzeroupper
	retq
LBB17_17:
	testq	%rax, %rax
	je	LBB17_35
	movq	200(%rsp), %rdi
	movq	208(%rsp), %rsi
Ltmp766:
	vzeroupper
	callq	__ZN10rayon_core6unwind16resume_unwinding17h47c2e39f90248736E
Ltmp767:
	jmp	LBB17_6
LBB17_5:
Ltmp771:
	leaq	_str.1(%rip), %rdi
	leaq	l___unnamed_1(%rip), %rdx
	movl	$33, %esi
	vzeroupper
	callq	__ZN4core9panicking5panic17h736ee47a631475c0E
Ltmp772:
	jmp	LBB17_6
LBB17_35:
Ltmp768:
	leaq	l___unnamed_2(%rip), %rdi
	leaq	l___unnamed_3(%rip), %rdx
	movl	$40, %esi
	vzeroupper
	callq	__ZN3std9panicking11begin_panic17h853288e601a61dd9E
Ltmp769:
	jmp	LBB17_6
LBB17_7:
Ltmp733:
	leaq	_str.3(%rip), %rdi
	leaq	l___unnamed_4(%rip), %rdx
	movl	$33, %esi
	vzeroupper
	callq	__ZN4core9panicking5panic17h736ee47a631475c0E
Ltmp734:
	jmp	LBB17_6
LBB17_25:
Ltmp757:
	leaq	l___unnamed_5(%rip), %rdi
	leaq	l___unnamed_6(%rip), %rdx
	movl	$43, %esi
	vzeroupper
	callq	__ZN4core9panicking5panic17h736ee47a631475c0E
Ltmp758:
	jmp	LBB17_6
LBB17_33:
Ltmp755:
	leaq	_str.1(%rip), %rdi
	leaq	l___unnamed_7(%rip), %rdx
	movl	$33, %esi
	vzeroupper
	callq	__ZN4core9panicking5panic17h736ee47a631475c0E
Ltmp756:
	jmp	LBB17_6
LBB17_47:
Ltmp770:
	jmp	LBB17_42
LBB17_40:
Ltmp765:
	jmp	LBB17_46
LBB17_38:
Ltmp754:
	movq	%rax, %r14
	movq	%r15, %rdi
	movq	%rbx, %rsi
	callq	__ZN5alloc5alloc8box_free17h601baa71c821b98cE
	movq	%r14, %rdi
	callq	__Unwind_Resume
	ud2
LBB17_34:
Ltmp759:
	movq	%rax, %r14
Ltmp760:
	leaq	448(%rsp), %rdi
	callq	__ZN4core3ptr13drop_in_place17h04000df5dc98c10bE
Ltmp761:
	jmp	LBB17_43
LBB17_41:
Ltmp762:
LBB17_42:
	movq	%rax, %r14
	movq	%r14, %rdi
	callq	__Unwind_Resume
	ud2
LBB17_19:
Ltmp739:
Ltmp740:
	movq	%rax, %rdi
	callq	__ZN3std9panicking3try7cleanup17hd895f7beef0a7dadE
Ltmp741:
	movq	%rdx, %rcx
	leaq	416(%rsp), %rsi
Ltmp742:
	movq	%rbx, %rdi
	movq	%rax, %rdx
	callq	__ZN10rayon_core4join23join_recover_from_panic17h65e0dcb6d5862f08E
Ltmp743:
LBB17_6:
	ud2
LBB17_45:
Ltmp744:
	jmp	LBB17_46
LBB17_44:
Ltmp773:
	jmp	LBB17_46
LBB17_39:
Ltmp749:
LBB17_46:
	movq	%rax, %r14
	leaq	192(%rsp), %rdi
	callq	__ZN4core3ptr13drop_in_place17h04000df5dc98c10bE
LBB17_43:
	movq	%r14, %rdi
	callq	__Unwind_Resume
	ud2
Lfunc_end17:
	.cfi_endproc
	.section	__TEXT,__gcc_except_tab
	.p2align	2
GCC_except_table17:
Lexception17:
	.byte	255
	.byte	155
	.uleb128 Lttbase17-Lttbaseref17
Lttbaseref17:
	.byte	1
	.uleb128 Lcst_end17-Lcst_begin17
Lcst_begin17:
	.uleb128 Ltmp731-Lfunc_begin17
	.uleb128 Ltmp736-Ltmp731
	.uleb128 Ltmp773-Lfunc_begin17
	.byte	0
	.uleb128 Ltmp737-Lfunc_begin17
	.uleb128 Ltmp738-Ltmp737
	.uleb128 Ltmp739-Lfunc_begin17
	.byte	3
	.uleb128 Ltmp747-Lfunc_begin17
	.uleb128 Ltmp746-Ltmp747
	.uleb128 Ltmp749-Lfunc_begin17
	.byte	0
	.uleb128 Ltmp750-Lfunc_begin17
	.uleb128 Ltmp751-Ltmp750
	.uleb128 Ltmp759-Lfunc_begin17
	.byte	0
	.uleb128 Ltmp752-Lfunc_begin17
	.uleb128 Ltmp753-Ltmp752
	.uleb128 Ltmp754-Lfunc_begin17
	.byte	0
	.uleb128 Ltmp763-Lfunc_begin17
	.uleb128 Ltmp764-Ltmp763
	.uleb128 Ltmp765-Lfunc_begin17
	.byte	0
	.uleb128 Ltmp766-Lfunc_begin17
	.uleb128 Ltmp767-Ltmp766
	.uleb128 Ltmp770-Lfunc_begin17
	.byte	0
	.uleb128 Ltmp771-Lfunc_begin17
	.uleb128 Ltmp772-Ltmp771
	.uleb128 Ltmp773-Lfunc_begin17
	.byte	0
	.uleb128 Ltmp768-Lfunc_begin17
	.uleb128 Ltmp769-Ltmp768
	.uleb128 Ltmp770-Lfunc_begin17
	.byte	0
	.uleb128 Ltmp733-Lfunc_begin17
	.uleb128 Ltmp734-Ltmp733
	.uleb128 Ltmp773-Lfunc_begin17
	.byte	0
	.uleb128 Ltmp757-Lfunc_begin17
	.uleb128 Ltmp756-Ltmp757
	.uleb128 Ltmp759-Lfunc_begin17
	.byte	0
	.uleb128 Ltmp756-Lfunc_begin17
	.uleb128 Ltmp760-Ltmp756
	.byte	0
	.byte	0
	.uleb128 Ltmp760-Lfunc_begin17
	.uleb128 Ltmp761-Ltmp760
	.uleb128 Ltmp762-Lfunc_begin17
	.byte	0
	.uleb128 Ltmp761-Lfunc_begin17
	.uleb128 Ltmp740-Ltmp761
	.byte	0
	.byte	0
	.uleb128 Ltmp740-Lfunc_begin17
	.uleb128 Ltmp741-Ltmp740
	.uleb128 Ltmp773-Lfunc_begin17
	.byte	0
	.uleb128 Ltmp742-Lfunc_begin17
	.uleb128 Ltmp743-Ltmp742
	.uleb128 Ltmp744-Lfunc_begin17
	.byte	0
	.uleb128 Ltmp743-Lfunc_begin17
	.uleb128 Lfunc_end17-Ltmp743
	.byte	0
	.byte	0
Lcst_end17:
	.byte	0
	.byte	0
	.byte	1
	.byte	125
	.p2align	2
	.long	0
Lttbase17:
	.p2align	2

	.section	__TEXT,__text,regular,pure_instructions
	.p2align	4, 0x90
__ZN10rayon_core4join12join_context28_$u7b$$u7b$closure$u7d$$u7d$17h9495025b2b50f61eE:
Lfunc_begin18:
	.cfi_startproc
	.cfi_personality 155, _rust_eh_personality
	.cfi_lsda 16, Lexception18
	pushq	%rbp
	.cfi_def_cfa_offset 16
	.cfi_offset %rbp, -16
	movq	%rsp, %rbp
	.cfi_def_cfa_register %rbp
	pushq	%r15
	pushq	%r14
	pushq	%r13
	pushq	%r12
	pushq	%rbx
	subq	$184, %rsp
	.cfi_offset %rbx, -56
	.cfi_offset %r12, -48
	.cfi_offset %r13, -40
	.cfi_offset %r14, -32
	.cfi_offset %r15, -24
	movq	%rsi, %rbx
	movq	%rdi, %r15
	vmovups	(%rdi), %ymm0
	vmovups	16(%rdi), %ymm1
	vmovups	%ymm1, -112(%rbp)
	vmovups	%ymm0, -128(%rbp)
	movb	$0, -56(%rbp)
	movq	$0, -80(%rbp)
	movq	256(%rsi), %rax
	movq	264(%rax), %r14
	movq	256(%rax), %rax
	movq	272(%rsi), %rsi
	movq	%r14, %rcx
	subq	%rax, %rcx
	cmpq	%rsi, %rcx
	movl	%edx, -44(%rbp)
	jl	LBB18_4
	addq	%rsi, %rsi
	jb	LBB18_7
	leaq	256(%rbx), %rdi
Ltmp774:
	vzeroupper
	callq	__ZN15crossbeam_deque15Worker$LT$T$GT$6resize17h34dc55adb45f7cc1E
Ltmp775:
	movq	272(%rbx), %rsi
LBB18_4:
	subq	$1, %rsi
	jb	LBB18_5
	movq	264(%rbx), %rax
	andq	%r14, %rsi
	shlq	$4, %rsi
	leaq	-128(%rbp), %r12
	movq	%r12, (%rax,%rsi)
	leaq	__ZN83_$LT$rayon_core..job..StackJob$LT$L$C$F$C$R$GT$$u20$as$u20$rayon_core..job..Job$GT$7execute17haa8806a7ca9a90c2E(%rip), %r13
	movq	%r13, 8(%rax,%rsi)
	##MEMBARRIER
	movq	256(%rbx), %rax
	incq	%r14
	movq	%r14, 264(%rax)
	movl	$408, %edi
	addq	304(%rbx), %rdi
	movq	288(%rbx), %rsi
Ltmp778:
	vzeroupper
	callq	__ZN10rayon_core5sleep5Sleep6tickle17h00d06f732555dc32E
Ltmp779:
	movq	48(%r15), %rax
	movq	56(%r15), %rcx
	movq	64(%r15), %r8
	movq	72(%r15), %r9
	movq	80(%r15), %rsi
	movq	(%rax), %rdi
	movq	(%rcx), %rdx
	movq	8(%rcx), %rcx
Ltmp780:
	movq	%rsi, (%rsp)
	movzbl	-44(%rbp), %r14d
	movl	%r14d, %esi
	callq	__ZN5rayon4iter8plumbing24bridge_producer_consumer6helper17h9d5f279b65cc3217E
Ltmp781:
LBB18_12:
	leaq	-56(%rbp), %r15
	movb	-56(%rbp), %al
	testb	%al, %al
	je	LBB18_14
	jmp	LBB18_18
	.p2align	4, 0x90
LBB18_23:
Ltmp790:
	movq	%rbx, %rdi
	movq	%rax, %rsi
	callq	__ZN10rayon_core8registry12WorkerThread7execute17h2d3f3a8dd2af2716E
Ltmp791:
	movzbl	-56(%rbp), %eax
	testb	%al, %al
	jne	LBB18_18
LBB18_14:
Ltmp788:
	movq	%rbx, %rdi
	callq	__ZN10rayon_core8registry12WorkerThread14take_local_job17h123bfb54be8597fdE
Ltmp789:
	testq	%rdx, %rdx
	je	LBB18_16
	cmpq	%r12, %rax
	jne	LBB18_23
	cmpq	%r13, %rdx
	jne	LBB18_23
	vmovups	-128(%rbp), %ymm0
	vmovups	-96(%rbp), %ymm1
	vmovups	-80(%rbp), %ymm2
	vmovups	%ymm0, -208(%rbp)
	vmovups	%ymm1, -176(%rbp)
	vmovups	%ymm2, -160(%rbp)
	movq	-208(%rbp), %rax
	testq	%rax, %rax
	je	LBB18_25
	movq	-200(%rbp), %rcx
	movq	(%rax), %rdi
	subq	(%rcx), %rdi
	jb	LBB18_27
	movq	-192(%rbp), %rax
	movq	-184(%rbp), %r8
	movq	-176(%rbp), %r9
	movq	-168(%rbp), %rsi
	movq	(%rax), %rdx
	movq	8(%rax), %rcx
Ltmp793:
	movq	%rsi, (%rsp)
	movl	%r14d, %esi
	vzeroupper
	callq	__ZN5rayon4iter8plumbing24bridge_producer_consumer6helper17h9d5f279b65cc3217E
Ltmp794:
	cmpq	$2, -160(%rbp)
	jb	LBB18_33
	movq	-152(%rbp), %r15
	movq	-144(%rbp), %rbx
Ltmp795:
	movq	%r15, %rdi
	callq	*(%rbx)
Ltmp796:
	movq	8(%rbx), %rsi
	testq	%rsi, %rsi
	je	LBB18_33
	movq	16(%rbx), %rdx
	movq	%r15, %rdi
	callq	___rust_dealloc
	jmp	LBB18_33
LBB18_16:
	movb	-56(%rbp), %al
	testb	%al, %al
	jne	LBB18_18
Ltmp806:
	movq	%rbx, %rdi
	movq	%r15, %rsi
	callq	__ZN10rayon_core8registry12WorkerThread15wait_until_cold17hf0fae827bbf09742E
Ltmp807:
LBB18_18:
	movq	-80(%rbp), %rax
	cmpq	$1, %rax
	jne	LBB18_19
LBB18_33:
	addq	$184, %rsp
	popq	%rbx
	popq	%r12
	popq	%r13
	popq	%r14
	popq	%r15
	popq	%rbp
	retq
LBB18_19:
	testq	%rax, %rax
	je	LBB18_35
	movq	-72(%rbp), %rdi
	movq	-64(%rbp), %rsi
Ltmp809:
	callq	__ZN10rayon_core6unwind16resume_unwinding17h47c2e39f90248736E
Ltmp810:
	jmp	LBB18_6
LBB18_5:
Ltmp814:
	leaq	_str.1(%rip), %rdi
	leaq	l___unnamed_1(%rip), %rdx
	movl	$33, %esi
	vzeroupper
	callq	__ZN4core9panicking5panic17h736ee47a631475c0E
Ltmp815:
	jmp	LBB18_6
LBB18_35:
Ltmp811:
	leaq	l___unnamed_2(%rip), %rdi
	leaq	l___unnamed_3(%rip), %rdx
	movl	$40, %esi
	callq	__ZN3std9panicking11begin_panic17h853288e601a61dd9E
Ltmp812:
	jmp	LBB18_6
LBB18_7:
Ltmp776:
	leaq	_str.3(%rip), %rdi
	leaq	l___unnamed_4(%rip), %rdx
	movl	$33, %esi
	vzeroupper
	callq	__ZN4core9panicking5panic17h736ee47a631475c0E
Ltmp777:
	jmp	LBB18_6
LBB18_25:
Ltmp800:
	leaq	l___unnamed_5(%rip), %rdi
	leaq	l___unnamed_6(%rip), %rdx
	movl	$43, %esi
	vzeroupper
	callq	__ZN4core9panicking5panic17h736ee47a631475c0E
Ltmp801:
	jmp	LBB18_6
LBB18_27:
Ltmp798:
	leaq	_str.1(%rip), %rdi
	leaq	l___unnamed_7(%rip), %rdx
	movl	$33, %esi
	vzeroupper
	callq	__ZN4core9panicking5panic17h736ee47a631475c0E
Ltmp799:
LBB18_6:
	ud2
LBB18_46:
Ltmp813:
	jmp	LBB18_40
LBB18_38:
Ltmp808:
	jmp	LBB18_45
LBB18_36:
Ltmp797:
	movq	%rax, %r14
	movq	%r15, %rdi
	movq	%rbx, %rsi
	callq	__ZN5alloc5alloc8box_free17h601baa71c821b98cE
	movq	%r14, %rdi
	callq	__Unwind_Resume
	ud2
LBB18_34:
Ltmp802:
	movq	%rax, %r14
	leaq	-160(%rbp), %rdi
Ltmp803:
	callq	__ZN4core3ptr13drop_in_place17hf1c6e0d6c6000ae2E
Ltmp804:
	jmp	LBB18_41
LBB18_39:
Ltmp805:
LBB18_40:
	movq	%rax, %r14
	movq	%r14, %rdi
	callq	__Unwind_Resume
	ud2
LBB18_10:
Ltmp782:
Ltmp783:
	movq	%rax, %rdi
	callq	__ZN3std9panicking3try7cleanup17hd895f7beef0a7dadE
Ltmp784:
	testq	%rax, %rax
	je	LBB18_12
	movq	%rdx, %rcx
	leaq	-56(%rbp), %rsi
Ltmp785:
	movq	%rbx, %rdi
	movq	%rax, %rdx
	callq	__ZN10rayon_core4join23join_recover_from_panic17h65e0dcb6d5862f08E
Ltmp786:
	jmp	LBB18_6
LBB18_44:
Ltmp787:
	jmp	LBB18_45
LBB18_42:
Ltmp816:
	jmp	LBB18_45
LBB18_37:
Ltmp792:
LBB18_45:
	movq	%rax, %r14
	leaq	-128(%rbp), %rdi
	callq	__ZN4core3ptr13drop_in_place17h15e4c257c89b0e89E
LBB18_41:
	movq	%r14, %rdi
	callq	__Unwind_Resume
	ud2
Lfunc_end18:
	.cfi_endproc
	.section	__TEXT,__gcc_except_tab
	.p2align	2
GCC_except_table18:
Lexception18:
	.byte	255
	.byte	155
	.uleb128 Lttbase18-Lttbaseref18
Lttbaseref18:
	.byte	1
	.uleb128 Lcst_end18-Lcst_begin18
Lcst_begin18:
	.uleb128 Ltmp774-Lfunc_begin18
	.uleb128 Ltmp779-Ltmp774
	.uleb128 Ltmp816-Lfunc_begin18
	.byte	0
	.uleb128 Ltmp780-Lfunc_begin18
	.uleb128 Ltmp781-Ltmp780
	.uleb128 Ltmp782-Lfunc_begin18
	.byte	3
	.uleb128 Ltmp790-Lfunc_begin18
	.uleb128 Ltmp789-Ltmp790
	.uleb128 Ltmp792-Lfunc_begin18
	.byte	0
	.uleb128 Ltmp793-Lfunc_begin18
	.uleb128 Ltmp794-Ltmp793
	.uleb128 Ltmp802-Lfunc_begin18
	.byte	0
	.uleb128 Ltmp795-Lfunc_begin18
	.uleb128 Ltmp796-Ltmp795
	.uleb128 Ltmp797-Lfunc_begin18
	.byte	0
	.uleb128 Ltmp806-Lfunc_begin18
	.uleb128 Ltmp807-Ltmp806
	.uleb128 Ltmp808-Lfunc_begin18
	.byte	0
	.uleb128 Ltmp809-Lfunc_begin18
	.uleb128 Ltmp810-Ltmp809
	.uleb128 Ltmp813-Lfunc_begin18
	.byte	0
	.uleb128 Ltmp814-Lfunc_begin18
	.uleb128 Ltmp815-Ltmp814
	.uleb128 Ltmp816-Lfunc_begin18
	.byte	0
	.uleb128 Ltmp811-Lfunc_begin18
	.uleb128 Ltmp812-Ltmp811
	.uleb128 Ltmp813-Lfunc_begin18
	.byte	0
	.uleb128 Ltmp776-Lfunc_begin18
	.uleb128 Ltmp777-Ltmp776
	.uleb128 Ltmp816-Lfunc_begin18
	.byte	0
	.uleb128 Ltmp800-Lfunc_begin18
	.uleb128 Ltmp799-Ltmp800
	.uleb128 Ltmp802-Lfunc_begin18
	.byte	0
	.uleb128 Ltmp799-Lfunc_begin18
	.uleb128 Ltmp803-Ltmp799
	.byte	0
	.byte	0
	.uleb128 Ltmp803-Lfunc_begin18
	.uleb128 Ltmp804-Ltmp803
	.uleb128 Ltmp805-Lfunc_begin18
	.byte	0
	.uleb128 Ltmp804-Lfunc_begin18
	.uleb128 Ltmp783-Ltmp804
	.byte	0
	.byte	0
	.uleb128 Ltmp783-Lfunc_begin18
	.uleb128 Ltmp784-Ltmp783
	.uleb128 Ltmp816-Lfunc_begin18
	.byte	0
	.uleb128 Ltmp785-Lfunc_begin18
	.uleb128 Ltmp786-Ltmp785
	.uleb128 Ltmp787-Lfunc_begin18
	.byte	0
	.uleb128 Ltmp786-Lfunc_begin18
	.uleb128 Lfunc_end18-Ltmp786
	.byte	0
	.byte	0
Lcst_end18:
	.byte	0
	.byte	0
	.byte	1
	.byte	125
	.p2align	2
	.long	0
Lttbase18:
	.p2align	2

	.section	__TEXT,__text,regular,pure_instructions
	.p2align	4, 0x90
__ZN10rayon_core4join12join_context28_$u7b$$u7b$closure$u7d$$u7d$17h9890762a6a4004c5E:
Lfunc_begin19:
	.cfi_startproc
	.cfi_personality 155, _rust_eh_personality
	.cfi_lsda 16, Lexception19
	pushq	%rbp
	.cfi_def_cfa_offset 16
	.cfi_offset %rbp, -16
	movq	%rsp, %rbp
	.cfi_def_cfa_register %rbp
	pushq	%r15
	pushq	%r14
	pushq	%r13
	pushq	%r12
	pushq	%rbx
	andq	$-64, %rsp
	subq	$1024, %rsp
	.cfi_offset %rbx, -56
	.cfi_offset %r12, -48
	.cfi_offset %r13, -40
	.cfi_offset %r14, -32
	.cfi_offset %r15, -24
	movq	%rdx, %rbx
	movq	%rsi, %r12
	movq	%rdi, 56(%rsp)
	movb	$0, 416(%rsp)
	vmovups	(%rsi), %ymm0
	vmovups	32(%rsi), %ymm1
	vmovaps	%ymm0, 320(%rsp)
	vmovups	64(%rsi), %ymm0
	vmovaps	%ymm1, 352(%rsp)
	vmovaps	%ymm0, 384(%rsp)
	movq	$0, 192(%rsp)
	movq	256(%rdx), %rax
	movq	264(%rax), %r15
	movq	256(%rax), %rax
	movq	272(%rdx), %rsi
	movq	%r15, %rdx
	subq	%rax, %rdx
	cmpq	%rsi, %rdx
	movl	%ecx, 160(%rsp)
	jl	LBB19_4
	addq	%rsi, %rsi
	jb	LBB19_7
	leaq	256(%rbx), %rdi
Ltmp817:
	vzeroupper
	callq	__ZN15crossbeam_deque15Worker$LT$T$GT$6resize17h34dc55adb45f7cc1E
Ltmp818:
	movq	272(%rbx), %rsi
LBB19_4:
	subq	$1, %rsi
	jb	LBB19_5
	movq	264(%rbx), %rax
	andq	%r15, %rsi
	shlq	$4, %rsi
	leaq	192(%rsp), %r13
	movq	%r13, (%rax,%rsi)
	leaq	__ZN83_$LT$rayon_core..job..StackJob$LT$L$C$F$C$R$GT$$u20$as$u20$rayon_core..job..Job$GT$7execute17h85e1b76bd1affdd5E(%rip), %r14
	movq	%r14, 8(%rax,%rsi)
	##MEMBARRIER
	movq	256(%rbx), %rax
	incq	%r15
	movq	%r15, 264(%rax)
	movl	$408, %edi
	addq	304(%rbx), %rdi
	movq	288(%rbx), %rsi
Ltmp821:
	vzeroupper
	callq	__ZN10rayon_core5sleep5Sleep6tickle17h00d06f732555dc32E
Ltmp822:
	movq	176(%r12), %rax
	vmovups	96(%r12), %ymm0
	vmovdqu	96(%r12), %xmm1
	vmovups	144(%r12), %xmm2
	vmovq	%xmm1, %rcx
	vpextrq	$1, %xmm1, %rdx
	vperm2f128	$33, 128(%r12), %ymm0, %ymm0
	vmovups	160(%r12), %xmm1
	vmovaps	%xmm1, 736(%rsp)
	movq	(%rcx), %rsi
	movq	(%rdx), %rcx
	movq	8(%rdx), %r8
	vmovups	%xmm2, 480(%rsp)
	vmovups	%ymm0, 448(%rsp)
	vmovups	%xmm1, 496(%rsp)
Ltmp823:
	movq	%rax, (%rsp)
	movzbl	160(%rsp), %r15d
	leaq	64(%rsp), %rdi
	leaq	448(%rsp), %r9
	movl	%r15d, %edx
	vzeroupper
	callq	__ZN5rayon4iter8plumbing24bridge_producer_consumer6helper17h0d59b9077151e637E
Ltmp824:
	vmovaps	64(%rsp), %ymm0
	vmovaps	%ymm0, 160(%rsp)
	vmovaps	96(%rsp), %ymm0
	vmovaps	%ymm0, 800(%rsp)
	leaq	416(%rsp), %r12
	movb	416(%rsp), %al
	testb	%al, %al
	je	LBB19_12
	jmp	LBB19_16
	.p2align	4, 0x90
LBB19_23:
Ltmp833:
	movq	%rbx, %rdi
	movq	%rax, %rsi
	callq	__ZN10rayon_core8registry12WorkerThread7execute17h2d3f3a8dd2af2716E
Ltmp834:
	movzbl	416(%rsp), %eax
	testb	%al, %al
	jne	LBB19_16
LBB19_12:
Ltmp831:
	movq	%rbx, %rdi
	vzeroupper
	callq	__ZN10rayon_core8registry12WorkerThread14take_local_job17h123bfb54be8597fdE
Ltmp832:
	testq	%rdx, %rdx
	je	LBB19_14
	cmpq	%r13, %rax
	jne	LBB19_23
	cmpq	%r14, %rdx
	jne	LBB19_23
	vmovaps	416(%rsp), %ymm0
	vmovaps	%ymm0, 672(%rsp)
	vmovaps	384(%rsp), %ymm0
	vmovaps	%ymm0, 640(%rsp)
	vmovaps	352(%rsp), %ymm0
	vmovaps	%ymm0, 608(%rsp)
	vmovaps	320(%rsp), %ymm0
	vmovaps	%ymm0, 576(%rsp)
	vmovaps	192(%rsp), %ymm0
	vmovaps	224(%rsp), %ymm1
	vmovaps	256(%rsp), %ymm2
	vmovaps	288(%rsp), %ymm3
	vmovaps	%ymm3, 544(%rsp)
	vmovaps	%ymm2, 512(%rsp)
	vmovaps	%ymm1, 480(%rsp)
	vmovaps	%ymm0, 448(%rsp)
	movq	576(%rsp), %rdx
	movq	584(%rsp), %rcx
	movq	592(%rsp), %rax
	vmovups	600(%rsp), %ymm0
	vmovups	632(%rsp), %ymm1
	vmovaps	%ymm0, 64(%rsp)
	vmovaps	%ymm1, 96(%rsp)
	testq	%rdx, %rdx
	je	LBB19_25
	vmovaps	64(%rsp), %ymm0
	vmovaps	96(%rsp), %ymm1
	vmovaps	%ymm1, 928(%rsp)
	vmovaps	%ymm0, 896(%rsp)
	vmovaps	%ymm1, 768(%rsp)
	movq	664(%rsp), %rdi
	vmovaps	%ymm0, 736(%rsp)
	movq	(%rdx), %rsi
	subq	(%rcx), %rsi
	jb	LBB19_27
	movq	(%rax), %rcx
	movq	8(%rax), %r8
	vmovaps	736(%rsp), %ymm0
	vmovaps	768(%rsp), %ymm1
	vmovaps	%ymm1, 96(%rsp)
	vmovaps	%ymm0, 64(%rsp)
Ltmp836:
	movq	%rdi, (%rsp)
	leaq	832(%rsp), %rdi
	leaq	64(%rsp), %r9
	movl	%r15d, %edx
	vzeroupper
	callq	__ZN5rayon4iter8plumbing24bridge_producer_consumer6helper17h0d59b9077151e637E
Ltmp837:
	cmpq	$2, 448(%rsp)
	jb	LBB19_33
	movq	456(%rsp), %r15
	movq	464(%rsp), %rbx
Ltmp838:
	movq	%r15, %rdi
	callq	*(%rbx)
Ltmp839:
	movq	8(%rbx), %rsi
	testq	%rsi, %rsi
	je	LBB19_33
	movq	16(%rbx), %rdx
	movq	%r15, %rdi
	callq	___rust_dealloc
LBB19_33:
	vmovaps	832(%rsp), %ymm0
	vmovaps	864(%rsp), %ymm1
	jmp	LBB19_37
LBB19_14:
	movb	416(%rsp), %al
	testb	%al, %al
	jne	LBB19_16
Ltmp849:
	movq	%rbx, %rdi
	movq	%r12, %rsi
	callq	__ZN10rayon_core8registry12WorkerThread15wait_until_cold17hf0fae827bbf09742E
Ltmp850:
LBB19_16:
	movq	192(%rsp), %rax
	cmpq	$1, %rax
	jne	LBB19_17
	vmovaps	256(%rsp), %ymm0
	vmovaps	288(%rsp), %ymm1
LBB19_37:
	movq	56(%rsp), %rax
	vmovaps	160(%rsp), %ymm2
	vmovaps	%ymm2, (%rax)
	vmovaps	800(%rsp), %ymm2
	vmovaps	%ymm2, 32(%rax)
	vmovaps	%ymm0, 64(%rax)
	vmovaps	%ymm1, 96(%rax)
	leaq	-40(%rbp), %rsp
	popq	%rbx
	popq	%r12
	popq	%r13
	popq	%r14
	popq	%r15
	popq	%rbp
	vzeroupper
	retq
LBB19_17:
	testq	%rax, %rax
	je	LBB19_35
	movq	200(%rsp), %rdi
	movq	208(%rsp), %rsi
Ltmp852:
	vzeroupper
	callq	__ZN10rayon_core6unwind16resume_unwinding17h47c2e39f90248736E
Ltmp853:
	jmp	LBB19_6
LBB19_5:
Ltmp857:
	leaq	_str.1(%rip), %rdi
	leaq	l___unnamed_1(%rip), %rdx
	movl	$33, %esi
	vzeroupper
	callq	__ZN4core9panicking5panic17h736ee47a631475c0E
Ltmp858:
	jmp	LBB19_6
LBB19_35:
Ltmp854:
	leaq	l___unnamed_2(%rip), %rdi
	leaq	l___unnamed_3(%rip), %rdx
	movl	$40, %esi
	vzeroupper
	callq	__ZN3std9panicking11begin_panic17h853288e601a61dd9E
Ltmp855:
	jmp	LBB19_6
LBB19_7:
Ltmp819:
	leaq	_str.3(%rip), %rdi
	leaq	l___unnamed_4(%rip), %rdx
	movl	$33, %esi
	vzeroupper
	callq	__ZN4core9panicking5panic17h736ee47a631475c0E
Ltmp820:
	jmp	LBB19_6
LBB19_25:
Ltmp843:
	leaq	l___unnamed_5(%rip), %rdi
	leaq	l___unnamed_6(%rip), %rdx
	movl	$43, %esi
	vzeroupper
	callq	__ZN4core9panicking5panic17h736ee47a631475c0E
Ltmp844:
	jmp	LBB19_6
LBB19_27:
Ltmp841:
	leaq	_str.1(%rip), %rdi
	leaq	l___unnamed_7(%rip), %rdx
	movl	$33, %esi
	vzeroupper
	callq	__ZN4core9panicking5panic17h736ee47a631475c0E
Ltmp842:
	jmp	LBB19_6
LBB19_47:
Ltmp856:
	jmp	LBB19_42
LBB19_40:
Ltmp851:
	jmp	LBB19_46
LBB19_38:
Ltmp840:
	movq	%rax, %r14
	movq	%r15, %rdi
	movq	%rbx, %rsi
	callq	__ZN5alloc5alloc8box_free17h601baa71c821b98cE
	movq	%r14, %rdi
	callq	__Unwind_Resume
	ud2
LBB19_34:
Ltmp845:
	movq	%rax, %r14
Ltmp846:
	leaq	448(%rsp), %rdi
	callq	__ZN4core3ptr13drop_in_place17h04000df5dc98c10bE
Ltmp847:
	jmp	LBB19_43
LBB19_41:
Ltmp848:
LBB19_42:
	movq	%rax, %r14
	movq	%r14, %rdi
	callq	__Unwind_Resume
	ud2
LBB19_19:
Ltmp825:
Ltmp826:
	movq	%rax, %rdi
	callq	__ZN3std9panicking3try7cleanup17hd895f7beef0a7dadE
Ltmp827:
	movq	%rdx, %rcx
	leaq	416(%rsp), %rsi
Ltmp828:
	movq	%rbx, %rdi
	movq	%rax, %rdx
	callq	__ZN10rayon_core4join23join_recover_from_panic17h65e0dcb6d5862f08E
Ltmp829:
LBB19_6:
	ud2
LBB19_45:
Ltmp830:
	jmp	LBB19_46
LBB19_44:
Ltmp859:
	jmp	LBB19_46
LBB19_39:
Ltmp835:
LBB19_46:
	movq	%rax, %r14
	leaq	192(%rsp), %rdi
	callq	__ZN4core3ptr13drop_in_place17h04000df5dc98c10bE
LBB19_43:
	movq	%r14, %rdi
	callq	__Unwind_Resume
	ud2
Lfunc_end19:
	.cfi_endproc
	.section	__TEXT,__gcc_except_tab
	.p2align	2
GCC_except_table19:
Lexception19:
	.byte	255
	.byte	155
	.uleb128 Lttbase19-Lttbaseref19
Lttbaseref19:
	.byte	1
	.uleb128 Lcst_end19-Lcst_begin19
Lcst_begin19:
	.uleb128 Ltmp817-Lfunc_begin19
	.uleb128 Ltmp822-Ltmp817
	.uleb128 Ltmp859-Lfunc_begin19
	.byte	0
	.uleb128 Ltmp823-Lfunc_begin19
	.uleb128 Ltmp824-Ltmp823
	.uleb128 Ltmp825-Lfunc_begin19
	.byte	3
	.uleb128 Ltmp833-Lfunc_begin19
	.uleb128 Ltmp832-Ltmp833
	.uleb128 Ltmp835-Lfunc_begin19
	.byte	0
	.uleb128 Ltmp836-Lfunc_begin19
	.uleb128 Ltmp837-Ltmp836
	.uleb128 Ltmp845-Lfunc_begin19
	.byte	0
	.uleb128 Ltmp838-Lfunc_begin19
	.uleb128 Ltmp839-Ltmp838
	.uleb128 Ltmp840-Lfunc_begin19
	.byte	0
	.uleb128 Ltmp849-Lfunc_begin19
	.uleb128 Ltmp850-Ltmp849
	.uleb128 Ltmp851-Lfunc_begin19
	.byte	0
	.uleb128 Ltmp852-Lfunc_begin19
	.uleb128 Ltmp853-Ltmp852
	.uleb128 Ltmp856-Lfunc_begin19
	.byte	0
	.uleb128 Ltmp857-Lfunc_begin19
	.uleb128 Ltmp858-Ltmp857
	.uleb128 Ltmp859-Lfunc_begin19
	.byte	0
	.uleb128 Ltmp854-Lfunc_begin19
	.uleb128 Ltmp855-Ltmp854
	.uleb128 Ltmp856-Lfunc_begin19
	.byte	0
	.uleb128 Ltmp819-Lfunc_begin19
	.uleb128 Ltmp820-Ltmp819
	.uleb128 Ltmp859-Lfunc_begin19
	.byte	0
	.uleb128 Ltmp843-Lfunc_begin19
	.uleb128 Ltmp842-Ltmp843
	.uleb128 Ltmp845-Lfunc_begin19
	.byte	0
	.uleb128 Ltmp842-Lfunc_begin19
	.uleb128 Ltmp846-Ltmp842
	.byte	0
	.byte	0
	.uleb128 Ltmp846-Lfunc_begin19
	.uleb128 Ltmp847-Ltmp846
	.uleb128 Ltmp848-Lfunc_begin19
	.byte	0
	.uleb128 Ltmp847-Lfunc_begin19
	.uleb128 Ltmp826-Ltmp847
	.byte	0
	.byte	0
	.uleb128 Ltmp826-Lfunc_begin19
	.uleb128 Ltmp827-Ltmp826
	.uleb128 Ltmp859-Lfunc_begin19
	.byte	0
	.uleb128 Ltmp828-Lfunc_begin19
	.uleb128 Ltmp829-Ltmp828
	.uleb128 Ltmp830-Lfunc_begin19
	.byte	0
	.uleb128 Ltmp829-Lfunc_begin19
	.uleb128 Lfunc_end19-Ltmp829
	.byte	0
	.byte	0
Lcst_end19:
	.byte	0
	.byte	0
	.byte	1
	.byte	125
	.p2align	2
	.long	0
Lttbase19:
	.p2align	2

	.section	__TEXT,__text,regular,pure_instructions
	.p2align	4, 0x90
__ZN10rayon_core4join12join_context28_$u7b$$u7b$closure$u7d$$u7d$17h9ca205191000996dE:
Lfunc_begin20:
	.cfi_startproc
	.cfi_personality 155, _rust_eh_personality
	.cfi_lsda 16, Lexception20
	pushq	%rbp
	.cfi_def_cfa_offset 16
	.cfi_offset %rbp, -16
	movq	%rsp, %rbp
	.cfi_def_cfa_register %rbp
	pushq	%r15
	pushq	%r14
	pushq	%r13
	pushq	%r12
	pushq	%rbx
	subq	$184, %rsp
	.cfi_offset %rbx, -56
	.cfi_offset %r12, -48
	.cfi_offset %r13, -40
	.cfi_offset %r14, -32
	.cfi_offset %r15, -24
	movq	%rsi, %rbx
	movq	%rdi, %r15
	vmovups	(%rdi), %ymm0
	vmovups	16(%rdi), %ymm1
	vmovups	%ymm1, -112(%rbp)
	vmovups	%ymm0, -128(%rbp)
	movb	$0, -56(%rbp)
	movq	$0, -80(%rbp)
	movq	256(%rsi), %rax
	movq	264(%rax), %r14
	movq	256(%rax), %rax
	movq	272(%rsi), %rsi
	movq	%r14, %rcx
	subq	%rax, %rcx
	cmpq	%rsi, %rcx
	movl	%edx, -44(%rbp)
	jl	LBB20_4
	addq	%rsi, %rsi
	jb	LBB20_7
	leaq	256(%rbx), %rdi
Ltmp860:
	vzeroupper
	callq	__ZN15crossbeam_deque15Worker$LT$T$GT$6resize17h34dc55adb45f7cc1E
Ltmp861:
	movq	272(%rbx), %rsi
LBB20_4:
	subq	$1, %rsi
	jb	LBB20_5
	movq	264(%rbx), %rax
	andq	%r14, %rsi
	shlq	$4, %rsi
	leaq	-128(%rbp), %r12
	movq	%r12, (%rax,%rsi)
	leaq	__ZN83_$LT$rayon_core..job..StackJob$LT$L$C$F$C$R$GT$$u20$as$u20$rayon_core..job..Job$GT$7execute17h6149570e01c37addE(%rip), %r13
	movq	%r13, 8(%rax,%rsi)
	##MEMBARRIER
	movq	256(%rbx), %rax
	incq	%r14
	movq	%r14, 264(%rax)
	movl	$408, %edi
	addq	304(%rbx), %rdi
	movq	288(%rbx), %rsi
Ltmp864:
	vzeroupper
	callq	__ZN10rayon_core5sleep5Sleep6tickle17h00d06f732555dc32E
Ltmp865:
	movq	48(%r15), %rax
	movq	56(%r15), %rcx
	movq	64(%r15), %r8
	movq	72(%r15), %r9
	movq	80(%r15), %rsi
	movq	(%rax), %rdi
	movq	(%rcx), %rdx
	movq	8(%rcx), %rcx
Ltmp866:
	movq	%rsi, (%rsp)
	movzbl	-44(%rbp), %r14d
	movl	%r14d, %esi
	callq	__ZN5rayon4iter8plumbing24bridge_producer_consumer6helper17hddeecd8dd3b2af70E
Ltmp867:
LBB20_12:
	leaq	-56(%rbp), %r15
	movb	-56(%rbp), %al
	testb	%al, %al
	je	LBB20_14
	jmp	LBB20_18
	.p2align	4, 0x90
LBB20_23:
Ltmp876:
	movq	%rbx, %rdi
	movq	%rax, %rsi
	callq	__ZN10rayon_core8registry12WorkerThread7execute17h2d3f3a8dd2af2716E
Ltmp877:
	movzbl	-56(%rbp), %eax
	testb	%al, %al
	jne	LBB20_18
LBB20_14:
Ltmp874:
	movq	%rbx, %rdi
	callq	__ZN10rayon_core8registry12WorkerThread14take_local_job17h123bfb54be8597fdE
Ltmp875:
	testq	%rdx, %rdx
	je	LBB20_16
	cmpq	%r12, %rax
	jne	LBB20_23
	cmpq	%r13, %rdx
	jne	LBB20_23
	vmovups	-128(%rbp), %ymm0
	vmovups	-96(%rbp), %ymm1
	vmovups	-80(%rbp), %ymm2
	vmovups	%ymm0, -208(%rbp)
	vmovups	%ymm1, -176(%rbp)
	vmovups	%ymm2, -160(%rbp)
	movq	-208(%rbp), %rax
	testq	%rax, %rax
	je	LBB20_25
	movq	-200(%rbp), %rcx
	movq	(%rax), %rdi
	subq	(%rcx), %rdi
	jb	LBB20_27
	movq	-192(%rbp), %rax
	movq	-184(%rbp), %r8
	movq	-176(%rbp), %r9
	movq	-168(%rbp), %rsi
	movq	(%rax), %rdx
	movq	8(%rax), %rcx
Ltmp879:
	movq	%rsi, (%rsp)
	movl	%r14d, %esi
	vzeroupper
	callq	__ZN5rayon4iter8plumbing24bridge_producer_consumer6helper17hddeecd8dd3b2af70E
Ltmp880:
	cmpq	$2, -160(%rbp)
	jb	LBB20_33
	movq	-152(%rbp), %r15
	movq	-144(%rbp), %rbx
Ltmp881:
	movq	%r15, %rdi
	callq	*(%rbx)
Ltmp882:
	movq	8(%rbx), %rsi
	testq	%rsi, %rsi
	je	LBB20_33
	movq	16(%rbx), %rdx
	movq	%r15, %rdi
	callq	___rust_dealloc
	jmp	LBB20_33
LBB20_16:
	movb	-56(%rbp), %al
	testb	%al, %al
	jne	LBB20_18
Ltmp892:
	movq	%rbx, %rdi
	movq	%r15, %rsi
	callq	__ZN10rayon_core8registry12WorkerThread15wait_until_cold17hf0fae827bbf09742E
Ltmp893:
LBB20_18:
	movq	-80(%rbp), %rax
	cmpq	$1, %rax
	jne	LBB20_19
LBB20_33:
	addq	$184, %rsp
	popq	%rbx
	popq	%r12
	popq	%r13
	popq	%r14
	popq	%r15
	popq	%rbp
	retq
LBB20_19:
	testq	%rax, %rax
	je	LBB20_35
	movq	-72(%rbp), %rdi
	movq	-64(%rbp), %rsi
Ltmp895:
	callq	__ZN10rayon_core6unwind16resume_unwinding17h47c2e39f90248736E
Ltmp896:
	jmp	LBB20_6
LBB20_5:
Ltmp900:
	leaq	_str.1(%rip), %rdi
	leaq	l___unnamed_1(%rip), %rdx
	movl	$33, %esi
	vzeroupper
	callq	__ZN4core9panicking5panic17h736ee47a631475c0E
Ltmp901:
	jmp	LBB20_6
LBB20_35:
Ltmp897:
	leaq	l___unnamed_2(%rip), %rdi
	leaq	l___unnamed_3(%rip), %rdx
	movl	$40, %esi
	callq	__ZN3std9panicking11begin_panic17h853288e601a61dd9E
Ltmp898:
	jmp	LBB20_6
LBB20_7:
Ltmp862:
	leaq	_str.3(%rip), %rdi
	leaq	l___unnamed_4(%rip), %rdx
	movl	$33, %esi
	vzeroupper
	callq	__ZN4core9panicking5panic17h736ee47a631475c0E
Ltmp863:
	jmp	LBB20_6
LBB20_25:
Ltmp886:
	leaq	l___unnamed_5(%rip), %rdi
	leaq	l___unnamed_6(%rip), %rdx
	movl	$43, %esi
	vzeroupper
	callq	__ZN4core9panicking5panic17h736ee47a631475c0E
Ltmp887:
	jmp	LBB20_6
LBB20_27:
Ltmp884:
	leaq	_str.1(%rip), %rdi
	leaq	l___unnamed_7(%rip), %rdx
	movl	$33, %esi
	vzeroupper
	callq	__ZN4core9panicking5panic17h736ee47a631475c0E
Ltmp885:
LBB20_6:
	ud2
LBB20_46:
Ltmp899:
	jmp	LBB20_40
LBB20_38:
Ltmp894:
	jmp	LBB20_45
LBB20_36:
Ltmp883:
	movq	%rax, %r14
	movq	%r15, %rdi
	movq	%rbx, %rsi
	callq	__ZN5alloc5alloc8box_free17h601baa71c821b98cE
	movq	%r14, %rdi
	callq	__Unwind_Resume
	ud2
LBB20_34:
Ltmp888:
	movq	%rax, %r14
	leaq	-160(%rbp), %rdi
Ltmp889:
	callq	__ZN4core3ptr13drop_in_place17hf1c6e0d6c6000ae2E
Ltmp890:
	jmp	LBB20_41
LBB20_39:
Ltmp891:
LBB20_40:
	movq	%rax, %r14
	movq	%r14, %rdi
	callq	__Unwind_Resume
	ud2
LBB20_10:
Ltmp868:
Ltmp869:
	movq	%rax, %rdi
	callq	__ZN3std9panicking3try7cleanup17hd895f7beef0a7dadE
Ltmp870:
	testq	%rax, %rax
	je	LBB20_12
	movq	%rdx, %rcx
	leaq	-56(%rbp), %rsi
Ltmp871:
	movq	%rbx, %rdi
	movq	%rax, %rdx
	callq	__ZN10rayon_core4join23join_recover_from_panic17h65e0dcb6d5862f08E
Ltmp872:
	jmp	LBB20_6
LBB20_44:
Ltmp873:
	jmp	LBB20_45
LBB20_42:
Ltmp902:
	jmp	LBB20_45
LBB20_37:
Ltmp878:
LBB20_45:
	movq	%rax, %r14
	leaq	-128(%rbp), %rdi
	callq	__ZN4core3ptr13drop_in_place17h15e4c257c89b0e89E
LBB20_41:
	movq	%r14, %rdi
	callq	__Unwind_Resume
	ud2
Lfunc_end20:
	.cfi_endproc
	.section	__TEXT,__gcc_except_tab
	.p2align	2
GCC_except_table20:
Lexception20:
	.byte	255
	.byte	155
	.uleb128 Lttbase20-Lttbaseref20
Lttbaseref20:
	.byte	1
	.uleb128 Lcst_end20-Lcst_begin20
Lcst_begin20:
	.uleb128 Ltmp860-Lfunc_begin20
	.uleb128 Ltmp865-Ltmp860
	.uleb128 Ltmp902-Lfunc_begin20
	.byte	0
	.uleb128 Ltmp866-Lfunc_begin20
	.uleb128 Ltmp867-Ltmp866
	.uleb128 Ltmp868-Lfunc_begin20
	.byte	3
	.uleb128 Ltmp876-Lfunc_begin20
	.uleb128 Ltmp875-Ltmp876
	.uleb128 Ltmp878-Lfunc_begin20
	.byte	0
	.uleb128 Ltmp879-Lfunc_begin20
	.uleb128 Ltmp880-Ltmp879
	.uleb128 Ltmp888-Lfunc_begin20
	.byte	0
	.uleb128 Ltmp881-Lfunc_begin20
	.uleb128 Ltmp882-Ltmp881
	.uleb128 Ltmp883-Lfunc_begin20
	.byte	0
	.uleb128 Ltmp892-Lfunc_begin20
	.uleb128 Ltmp893-Ltmp892
	.uleb128 Ltmp894-Lfunc_begin20
	.byte	0
	.uleb128 Ltmp895-Lfunc_begin20
	.uleb128 Ltmp896-Ltmp895
	.uleb128 Ltmp899-Lfunc_begin20
	.byte	0
	.uleb128 Ltmp900-Lfunc_begin20
	.uleb128 Ltmp901-Ltmp900
	.uleb128 Ltmp902-Lfunc_begin20
	.byte	0
	.uleb128 Ltmp897-Lfunc_begin20
	.uleb128 Ltmp898-Ltmp897
	.uleb128 Ltmp899-Lfunc_begin20
	.byte	0
	.uleb128 Ltmp862-Lfunc_begin20
	.uleb128 Ltmp863-Ltmp862
	.uleb128 Ltmp902-Lfunc_begin20
	.byte	0
	.uleb128 Ltmp886-Lfunc_begin20
	.uleb128 Ltmp885-Ltmp886
	.uleb128 Ltmp888-Lfunc_begin20
	.byte	0
	.uleb128 Ltmp885-Lfunc_begin20
	.uleb128 Ltmp889-Ltmp885
	.byte	0
	.byte	0
	.uleb128 Ltmp889-Lfunc_begin20
	.uleb128 Ltmp890-Ltmp889
	.uleb128 Ltmp891-Lfunc_begin20
	.byte	0
	.uleb128 Ltmp890-Lfunc_begin20
	.uleb128 Ltmp869-Ltmp890
	.byte	0
	.byte	0
	.uleb128 Ltmp869-Lfunc_begin20
	.uleb128 Ltmp870-Ltmp869
	.uleb128 Ltmp902-Lfunc_begin20
	.byte	0
	.uleb128 Ltmp871-Lfunc_begin20
	.uleb128 Ltmp872-Ltmp871
	.uleb128 Ltmp873-Lfunc_begin20
	.byte	0
	.uleb128 Ltmp872-Lfunc_begin20
	.uleb128 Lfunc_end20-Ltmp872
	.byte	0
	.byte	0
Lcst_end20:
	.byte	0
	.byte	0
	.byte	1
	.byte	125
	.p2align	2
	.long	0
Lttbase20:
	.p2align	2

	.section	__TEXT,__text,regular,pure_instructions
	.p2align	4, 0x90
__ZN10rayon_core4join12join_context28_$u7b$$u7b$closure$u7d$$u7d$17hb2418168bff1c57dE:
Lfunc_begin21:
	.cfi_startproc
	.cfi_personality 155, _rust_eh_personality
	.cfi_lsda 16, Lexception21
	pushq	%rbp
	.cfi_def_cfa_offset 16
	.cfi_offset %rbp, -16
	movq	%rsp, %rbp
	.cfi_def_cfa_register %rbp
	pushq	%r15
	pushq	%r14
	pushq	%r13
	pushq	%r12
	pushq	%rbx
	andq	$-64, %rsp
	subq	$1024, %rsp
	.cfi_offset %rbx, -56
	.cfi_offset %r12, -48
	.cfi_offset %r13, -40
	.cfi_offset %r14, -32
	.cfi_offset %r15, -24
	movq	%rdx, %rbx
	movq	%rsi, %r12
	movq	%rdi, 56(%rsp)
	movb	$0, 416(%rsp)
	vmovups	(%rsi), %ymm0
	vmovdqu	32(%rsi), %ymm1
	vmovaps	%ymm0, 320(%rsp)
	vmovups	64(%rsi), %ymm0
	vmovdqa	%ymm1, 352(%rsp)
	vmovaps	%ymm0, 384(%rsp)
	movq	$0, 192(%rsp)
	movq	256(%rdx), %rax
	movq	264(%rax), %r15
	movq	256(%rax), %rax
	movq	272(%rdx), %rsi
	movq	%r15, %rdx
	subq	%rax, %rdx
	cmpq	%rsi, %rdx
	movl	%ecx, 160(%rsp)
	jl	LBB21_4
	addq	%rsi, %rsi
	jb	LBB21_7
	leaq	256(%rbx), %rdi
Ltmp903:
	vzeroupper
	callq	__ZN15crossbeam_deque15Worker$LT$T$GT$6resize17h34dc55adb45f7cc1E
Ltmp904:
	movq	272(%rbx), %rsi
LBB21_4:
	subq	$1, %rsi
	jb	LBB21_5
	movq	264(%rbx), %rax
	andq	%r15, %rsi
	shlq	$4, %rsi
	leaq	192(%rsp), %r13
	movq	%r13, (%rax,%rsi)
	leaq	__ZN83_$LT$rayon_core..job..StackJob$LT$L$C$F$C$R$GT$$u20$as$u20$rayon_core..job..Job$GT$7execute17h8fdce23ca587fd0dE(%rip), %r14
	movq	%r14, 8(%rax,%rsi)
	##MEMBARRIER
	movq	256(%rbx), %rax
	incq	%r15
	movq	%r15, 264(%rax)
	movl	$408, %edi
	addq	304(%rbx), %rdi
	movq	288(%rbx), %rsi
Ltmp907:
	vzeroupper
	callq	__ZN10rayon_core5sleep5Sleep6tickle17h00d06f732555dc32E
Ltmp908:
	vmovups	96(%r12), %ymm0
	vperm2f128	$33, 128(%r12), %ymm0, %ymm0
	movq	176(%r12), %rax
	vmovdqu	96(%r12), %xmm1
	vmovups	144(%r12), %xmm2
	vmovups	160(%r12), %xmm3
	vmovaps	%xmm3, 736(%rsp)
	vmovq	%xmm1, %rcx
	movq	(%rcx), %rsi
	vpextrq	$1, %xmm1, %rdx
	movq	(%rdx), %rcx
	movq	8(%rdx), %r8
	vmovups	%xmm2, 480(%rsp)
	vmovups	%ymm0, 448(%rsp)
	vmovups	%xmm3, 496(%rsp)
Ltmp909:
	movq	%rax, (%rsp)
	movzbl	160(%rsp), %r15d
	leaq	64(%rsp), %rdi
	leaq	448(%rsp), %r9
	movl	%r15d, %edx
	vzeroupper
	callq	__ZN5rayon4iter8plumbing24bridge_producer_consumer6helper17h0ffe93cfb7fb0572E
Ltmp910:
	vmovaps	64(%rsp), %ymm0
	vmovaps	%ymm0, 160(%rsp)
	vmovaps	96(%rsp), %ymm0
	vmovaps	%ymm0, 800(%rsp)
	leaq	416(%rsp), %r12
	movb	416(%rsp), %al
	testb	%al, %al
	je	LBB21_12
	jmp	LBB21_16
	.p2align	4, 0x90
LBB21_23:
Ltmp919:
	movq	%rbx, %rdi
	movq	%rax, %rsi
	callq	__ZN10rayon_core8registry12WorkerThread7execute17h2d3f3a8dd2af2716E
Ltmp920:
	movzbl	416(%rsp), %eax
	testb	%al, %al
	jne	LBB21_16
LBB21_12:
Ltmp917:
	movq	%rbx, %rdi
	vzeroupper
	callq	__ZN10rayon_core8registry12WorkerThread14take_local_job17h123bfb54be8597fdE
Ltmp918:
	testq	%rdx, %rdx
	je	LBB21_14
	cmpq	%r13, %rax
	jne	LBB21_23
	cmpq	%r14, %rdx
	jne	LBB21_23
	vmovaps	416(%rsp), %ymm0
	vmovaps	%ymm0, 672(%rsp)
	vmovaps	384(%rsp), %ymm0
	vmovaps	%ymm0, 640(%rsp)
	vmovaps	352(%rsp), %ymm0
	vmovaps	%ymm0, 608(%rsp)
	vmovaps	320(%rsp), %ymm0
	vmovaps	%ymm0, 576(%rsp)
	vmovaps	192(%rsp), %ymm0
	vmovaps	224(%rsp), %ymm1
	vmovaps	256(%rsp), %ymm2
	vmovaps	288(%rsp), %ymm3
	vmovaps	%ymm3, 544(%rsp)
	vmovaps	%ymm2, 512(%rsp)
	vmovaps	%ymm1, 480(%rsp)
	vmovaps	%ymm0, 448(%rsp)
	movq	576(%rsp), %rdx
	movq	584(%rsp), %rcx
	movq	592(%rsp), %rax
	vmovups	600(%rsp), %ymm0
	vmovdqu	632(%rsp), %ymm1
	vmovaps	%ymm0, 64(%rsp)
	vmovdqa	%ymm1, 96(%rsp)
	testq	%rdx, %rdx
	je	LBB21_25
	vmovaps	64(%rsp), %ymm0
	vmovdqa	96(%rsp), %ymm1
	vmovdqa	%ymm1, 928(%rsp)
	vmovaps	%ymm0, 896(%rsp)
	vmovdqa	%ymm1, 768(%rsp)
	movq	664(%rsp), %rdi
	vmovaps	%ymm0, 736(%rsp)
	movq	(%rdx), %rsi
	subq	(%rcx), %rsi
	jb	LBB21_27
	movq	(%rax), %rcx
	movq	8(%rax), %r8
	vmovaps	736(%rsp), %ymm0
	vmovdqa	768(%rsp), %ymm1
	vmovdqa	%ymm1, 96(%rsp)
	vmovaps	%ymm0, 64(%rsp)
Ltmp922:
	movq	%rdi, (%rsp)
	leaq	832(%rsp), %rdi
	leaq	64(%rsp), %r9
	movl	%r15d, %edx
	vzeroupper
	callq	__ZN5rayon4iter8plumbing24bridge_producer_consumer6helper17h0ffe93cfb7fb0572E
Ltmp923:
	cmpq	$2, 448(%rsp)
	jb	LBB21_33
	movq	456(%rsp), %r15
	movq	464(%rsp), %rbx
Ltmp924:
	movq	%r15, %rdi
	callq	*(%rbx)
Ltmp925:
	movq	8(%rbx), %rsi
	testq	%rsi, %rsi
	je	LBB21_33
	movq	16(%rbx), %rdx
	movq	%r15, %rdi
	callq	___rust_dealloc
LBB21_33:
	vmovaps	832(%rsp), %ymm0
	vmovaps	864(%rsp), %ymm1
	jmp	LBB21_37
LBB21_14:
	movb	416(%rsp), %al
	testb	%al, %al
	jne	LBB21_16
Ltmp935:
	movq	%rbx, %rdi
	movq	%r12, %rsi
	callq	__ZN10rayon_core8registry12WorkerThread15wait_until_cold17hf0fae827bbf09742E
Ltmp936:
LBB21_16:
	movq	192(%rsp), %rax
	cmpq	$1, %rax
	jne	LBB21_17
	vmovaps	256(%rsp), %ymm0
	vmovaps	288(%rsp), %ymm1
LBB21_37:
	movq	56(%rsp), %rax
	vmovaps	160(%rsp), %ymm2
	vmovaps	%ymm2, (%rax)
	vmovaps	800(%rsp), %ymm2
	vmovaps	%ymm2, 32(%rax)
	vmovaps	%ymm0, 64(%rax)
	vmovaps	%ymm1, 96(%rax)
	leaq	-40(%rbp), %rsp
	popq	%rbx
	popq	%r12
	popq	%r13
	popq	%r14
	popq	%r15
	popq	%rbp
	vzeroupper
	retq
LBB21_17:
	testq	%rax, %rax
	je	LBB21_35
	movq	200(%rsp), %rdi
	movq	208(%rsp), %rsi
Ltmp938:
	vzeroupper
	callq	__ZN10rayon_core6unwind16resume_unwinding17h47c2e39f90248736E
Ltmp939:
	jmp	LBB21_6
LBB21_5:
Ltmp943:
	leaq	_str.1(%rip), %rdi
	leaq	l___unnamed_1(%rip), %rdx
	movl	$33, %esi
	vzeroupper
	callq	__ZN4core9panicking5panic17h736ee47a631475c0E
Ltmp944:
	jmp	LBB21_6
LBB21_35:
Ltmp940:
	leaq	l___unnamed_2(%rip), %rdi
	leaq	l___unnamed_3(%rip), %rdx
	movl	$40, %esi
	vzeroupper
	callq	__ZN3std9panicking11begin_panic17h853288e601a61dd9E
Ltmp941:
	jmp	LBB21_6
LBB21_7:
Ltmp905:
	leaq	_str.3(%rip), %rdi
	leaq	l___unnamed_4(%rip), %rdx
	movl	$33, %esi
	vzeroupper
	callq	__ZN4core9panicking5panic17h736ee47a631475c0E
Ltmp906:
	jmp	LBB21_6
LBB21_25:
Ltmp929:
	leaq	l___unnamed_5(%rip), %rdi
	leaq	l___unnamed_6(%rip), %rdx
	movl	$43, %esi
	vzeroupper
	callq	__ZN4core9panicking5panic17h736ee47a631475c0E
Ltmp930:
	jmp	LBB21_6
LBB21_27:
Ltmp927:
	leaq	_str.1(%rip), %rdi
	leaq	l___unnamed_7(%rip), %rdx
	movl	$33, %esi
	vzeroupper
	callq	__ZN4core9panicking5panic17h736ee47a631475c0E
Ltmp928:
	jmp	LBB21_6
LBB21_47:
Ltmp942:
	jmp	LBB21_42
LBB21_40:
Ltmp937:
	jmp	LBB21_46
LBB21_38:
Ltmp926:
	movq	%rax, %r14
	movq	%r15, %rdi
	movq	%rbx, %rsi
	callq	__ZN5alloc5alloc8box_free17h601baa71c821b98cE
	movq	%r14, %rdi
	callq	__Unwind_Resume
	ud2
LBB21_34:
Ltmp931:
	movq	%rax, %r14
Ltmp932:
	leaq	448(%rsp), %rdi
	callq	__ZN4core3ptr13drop_in_place17h04000df5dc98c10bE
Ltmp933:
	jmp	LBB21_43
LBB21_41:
Ltmp934:
LBB21_42:
	movq	%rax, %r14
	movq	%r14, %rdi
	callq	__Unwind_Resume
	ud2
LBB21_19:
Ltmp911:
Ltmp912:
	movq	%rax, %rdi
	callq	__ZN3std9panicking3try7cleanup17hd895f7beef0a7dadE
Ltmp913:
	movq	%rdx, %rcx
	leaq	416(%rsp), %rsi
Ltmp914:
	movq	%rbx, %rdi
	movq	%rax, %rdx
	callq	__ZN10rayon_core4join23join_recover_from_panic17h65e0dcb6d5862f08E
Ltmp915:
LBB21_6:
	ud2
LBB21_45:
Ltmp916:
	jmp	LBB21_46
LBB21_44:
Ltmp945:
	jmp	LBB21_46
LBB21_39:
Ltmp921:
LBB21_46:
	movq	%rax, %r14
	leaq	192(%rsp), %rdi
	callq	__ZN4core3ptr13drop_in_place17h04000df5dc98c10bE
LBB21_43:
	movq	%r14, %rdi
	callq	__Unwind_Resume
	ud2
Lfunc_end21:
	.cfi_endproc
	.section	__TEXT,__gcc_except_tab
	.p2align	2
GCC_except_table21:
Lexception21:
	.byte	255
	.byte	155
	.uleb128 Lttbase21-Lttbaseref21
Lttbaseref21:
	.byte	1
	.uleb128 Lcst_end21-Lcst_begin21
Lcst_begin21:
	.uleb128 Ltmp903-Lfunc_begin21
	.uleb128 Ltmp908-Ltmp903
	.uleb128 Ltmp945-Lfunc_begin21
	.byte	0
	.uleb128 Ltmp909-Lfunc_begin21
	.uleb128 Ltmp910-Ltmp909
	.uleb128 Ltmp911-Lfunc_begin21
	.byte	3
	.uleb128 Ltmp919-Lfunc_begin21
	.uleb128 Ltmp918-Ltmp919
	.uleb128 Ltmp921-Lfunc_begin21
	.byte	0
	.uleb128 Ltmp922-Lfunc_begin21
	.uleb128 Ltmp923-Ltmp922
	.uleb128 Ltmp931-Lfunc_begin21
	.byte	0
	.uleb128 Ltmp924-Lfunc_begin21
	.uleb128 Ltmp925-Ltmp924
	.uleb128 Ltmp926-Lfunc_begin21
	.byte	0
	.uleb128 Ltmp935-Lfunc_begin21
	.uleb128 Ltmp936-Ltmp935
	.uleb128 Ltmp937-Lfunc_begin21
	.byte	0
	.uleb128 Ltmp938-Lfunc_begin21
	.uleb128 Ltmp939-Ltmp938
	.uleb128 Ltmp942-Lfunc_begin21
	.byte	0
	.uleb128 Ltmp943-Lfunc_begin21
	.uleb128 Ltmp944-Ltmp943
	.uleb128 Ltmp945-Lfunc_begin21
	.byte	0
	.uleb128 Ltmp940-Lfunc_begin21
	.uleb128 Ltmp941-Ltmp940
	.uleb128 Ltmp942-Lfunc_begin21
	.byte	0
	.uleb128 Ltmp905-Lfunc_begin21
	.uleb128 Ltmp906-Ltmp905
	.uleb128 Ltmp945-Lfunc_begin21
	.byte	0
	.uleb128 Ltmp929-Lfunc_begin21
	.uleb128 Ltmp928-Ltmp929
	.uleb128 Ltmp931-Lfunc_begin21
	.byte	0
	.uleb128 Ltmp928-Lfunc_begin21
	.uleb128 Ltmp932-Ltmp928
	.byte	0
	.byte	0
	.uleb128 Ltmp932-Lfunc_begin21
	.uleb128 Ltmp933-Ltmp932
	.uleb128 Ltmp934-Lfunc_begin21
	.byte	0
	.uleb128 Ltmp933-Lfunc_begin21
	.uleb128 Ltmp912-Ltmp933
	.byte	0
	.byte	0
	.uleb128 Ltmp912-Lfunc_begin21
	.uleb128 Ltmp913-Ltmp912
	.uleb128 Ltmp945-Lfunc_begin21
	.byte	0
	.uleb128 Ltmp914-Lfunc_begin21
	.uleb128 Ltmp915-Ltmp914
	.uleb128 Ltmp916-Lfunc_begin21
	.byte	0
	.uleb128 Ltmp915-Lfunc_begin21
	.uleb128 Lfunc_end21-Ltmp915
	.byte	0
	.byte	0
Lcst_end21:
	.byte	0
	.byte	0
	.byte	1
	.byte	125
	.p2align	2
	.long	0
Lttbase21:
	.p2align	2

	.section	__TEXT,__text,regular,pure_instructions
	.p2align	4, 0x90
__ZN10rayon_core4join12join_context28_$u7b$$u7b$closure$u7d$$u7d$17hd3310eccc434e7d5E:
Lfunc_begin22:
	.cfi_startproc
	.cfi_personality 155, _rust_eh_personality
	.cfi_lsda 16, Lexception22
	pushq	%rbp
	.cfi_def_cfa_offset 16
	.cfi_offset %rbp, -16
	movq	%rsp, %rbp
	.cfi_def_cfa_register %rbp
	pushq	%r15
	pushq	%r14
	pushq	%r13
	pushq	%r12
	pushq	%rbx
	subq	$184, %rsp
	.cfi_offset %rbx, -56
	.cfi_offset %r12, -48
	.cfi_offset %r13, -40
	.cfi_offset %r14, -32
	.cfi_offset %r15, -24
	movq	%rsi, %rbx
	movq	%rdi, %r15
	vmovups	(%rdi), %ymm0
	vmovups	16(%rdi), %ymm1
	vmovups	%ymm1, -112(%rbp)
	vmovups	%ymm0, -128(%rbp)
	movb	$0, -56(%rbp)
	movq	$0, -80(%rbp)
	movq	256(%rsi), %rax
	movq	264(%rax), %r14
	movq	256(%rax), %rax
	movq	272(%rsi), %rsi
	movq	%r14, %rcx
	subq	%rax, %rcx
	cmpq	%rsi, %rcx
	movl	%edx, -44(%rbp)
	jl	LBB22_4
	addq	%rsi, %rsi
	jb	LBB22_7
	leaq	256(%rbx), %rdi
Ltmp946:
	vzeroupper
	callq	__ZN15crossbeam_deque15Worker$LT$T$GT$6resize17h34dc55adb45f7cc1E
Ltmp947:
	movq	272(%rbx), %rsi
LBB22_4:
	subq	$1, %rsi
	jb	LBB22_5
	movq	264(%rbx), %rax
	andq	%r14, %rsi
	shlq	$4, %rsi
	leaq	-128(%rbp), %r12
	movq	%r12, (%rax,%rsi)
	leaq	__ZN83_$LT$rayon_core..job..StackJob$LT$L$C$F$C$R$GT$$u20$as$u20$rayon_core..job..Job$GT$7execute17h2f5ce5cc9ac7e4fbE(%rip), %r13
	movq	%r13, 8(%rax,%rsi)
	##MEMBARRIER
	movq	256(%rbx), %rax
	incq	%r14
	movq	%r14, 264(%rax)
	movl	$408, %edi
	addq	304(%rbx), %rdi
	movq	288(%rbx), %rsi
Ltmp950:
	vzeroupper
	callq	__ZN10rayon_core5sleep5Sleep6tickle17h00d06f732555dc32E
Ltmp951:
	movq	48(%r15), %rax
	movq	56(%r15), %rcx
	movq	64(%r15), %r8
	movq	72(%r15), %r9
	movq	80(%r15), %rsi
	movq	(%rax), %rdi
	movq	(%rcx), %rdx
	movq	8(%rcx), %rcx
Ltmp952:
	movq	%rsi, (%rsp)
	movzbl	-44(%rbp), %r14d
	movl	%r14d, %esi
	callq	__ZN5rayon4iter8plumbing24bridge_producer_consumer6helper17h333b34283e7d4003E
Ltmp953:
LBB22_12:
	leaq	-56(%rbp), %r15
	movb	-56(%rbp), %al
	testb	%al, %al
	je	LBB22_14
	jmp	LBB22_18
	.p2align	4, 0x90
LBB22_23:
Ltmp962:
	movq	%rbx, %rdi
	movq	%rax, %rsi
	callq	__ZN10rayon_core8registry12WorkerThread7execute17h2d3f3a8dd2af2716E
Ltmp963:
	movzbl	-56(%rbp), %eax
	testb	%al, %al
	jne	LBB22_18
LBB22_14:
Ltmp960:
	movq	%rbx, %rdi
	callq	__ZN10rayon_core8registry12WorkerThread14take_local_job17h123bfb54be8597fdE
Ltmp961:
	testq	%rdx, %rdx
	je	LBB22_16
	cmpq	%r12, %rax
	jne	LBB22_23
	cmpq	%r13, %rdx
	jne	LBB22_23
	vmovups	-128(%rbp), %ymm0
	vmovups	-96(%rbp), %ymm1
	vmovups	-80(%rbp), %ymm2
	vmovups	%ymm0, -208(%rbp)
	vmovups	%ymm1, -176(%rbp)
	vmovups	%ymm2, -160(%rbp)
	movq	-208(%rbp), %rax
	testq	%rax, %rax
	je	LBB22_25
	movq	-200(%rbp), %rcx
	movq	(%rax), %rdi
	subq	(%rcx), %rdi
	jb	LBB22_27
	movq	-192(%rbp), %rax
	movq	-184(%rbp), %r8
	movq	-176(%rbp), %r9
	movq	-168(%rbp), %rsi
	movq	(%rax), %rdx
	movq	8(%rax), %rcx
Ltmp965:
	movq	%rsi, (%rsp)
	movl	%r14d, %esi
	vzeroupper
	callq	__ZN5rayon4iter8plumbing24bridge_producer_consumer6helper17h333b34283e7d4003E
Ltmp966:
	cmpq	$2, -160(%rbp)
	jb	LBB22_33
	movq	-152(%rbp), %r15
	movq	-144(%rbp), %rbx
Ltmp967:
	movq	%r15, %rdi
	callq	*(%rbx)
Ltmp968:
	movq	8(%rbx), %rsi
	testq	%rsi, %rsi
	je	LBB22_33
	movq	16(%rbx), %rdx
	movq	%r15, %rdi
	callq	___rust_dealloc
	jmp	LBB22_33
LBB22_16:
	movb	-56(%rbp), %al
	testb	%al, %al
	jne	LBB22_18
Ltmp978:
	movq	%rbx, %rdi
	movq	%r15, %rsi
	callq	__ZN10rayon_core8registry12WorkerThread15wait_until_cold17hf0fae827bbf09742E
Ltmp979:
LBB22_18:
	movq	-80(%rbp), %rax
	cmpq	$1, %rax
	jne	LBB22_19
LBB22_33:
	addq	$184, %rsp
	popq	%rbx
	popq	%r12
	popq	%r13
	popq	%r14
	popq	%r15
	popq	%rbp
	retq
LBB22_19:
	testq	%rax, %rax
	je	LBB22_35
	movq	-72(%rbp), %rdi
	movq	-64(%rbp), %rsi
Ltmp981:
	callq	__ZN10rayon_core6unwind16resume_unwinding17h47c2e39f90248736E
Ltmp982:
	jmp	LBB22_6
LBB22_5:
Ltmp986:
	leaq	_str.1(%rip), %rdi
	leaq	l___unnamed_1(%rip), %rdx
	movl	$33, %esi
	vzeroupper
	callq	__ZN4core9panicking5panic17h736ee47a631475c0E
Ltmp987:
	jmp	LBB22_6
LBB22_35:
Ltmp983:
	leaq	l___unnamed_2(%rip), %rdi
	leaq	l___unnamed_3(%rip), %rdx
	movl	$40, %esi
	callq	__ZN3std9panicking11begin_panic17h853288e601a61dd9E
Ltmp984:
	jmp	LBB22_6
LBB22_7:
Ltmp948:
	leaq	_str.3(%rip), %rdi
	leaq	l___unnamed_4(%rip), %rdx
	movl	$33, %esi
	vzeroupper
	callq	__ZN4core9panicking5panic17h736ee47a631475c0E
Ltmp949:
	jmp	LBB22_6
LBB22_25:
Ltmp972:
	leaq	l___unnamed_5(%rip), %rdi
	leaq	l___unnamed_6(%rip), %rdx
	movl	$43, %esi
	vzeroupper
	callq	__ZN4core9panicking5panic17h736ee47a631475c0E
Ltmp973:
	jmp	LBB22_6
LBB22_27:
Ltmp970:
	leaq	_str.1(%rip), %rdi
	leaq	l___unnamed_7(%rip), %rdx
	movl	$33, %esi
	vzeroupper
	callq	__ZN4core9panicking5panic17h736ee47a631475c0E
Ltmp971:
LBB22_6:
	ud2
LBB22_46:
Ltmp985:
	jmp	LBB22_40
LBB22_38:
Ltmp980:
	jmp	LBB22_45
LBB22_36:
Ltmp969:
	movq	%rax, %r14
	movq	%r15, %rdi
	movq	%rbx, %rsi
	callq	__ZN5alloc5alloc8box_free17h601baa71c821b98cE
	movq	%r14, %rdi
	callq	__Unwind_Resume
	ud2
LBB22_34:
Ltmp974:
	movq	%rax, %r14
	leaq	-160(%rbp), %rdi
Ltmp975:
	callq	__ZN4core3ptr13drop_in_place17hf1c6e0d6c6000ae2E
Ltmp976:
	jmp	LBB22_41
LBB22_39:
Ltmp977:
LBB22_40:
	movq	%rax, %r14
	movq	%r14, %rdi
	callq	__Unwind_Resume
	ud2
LBB22_10:
Ltmp954:
Ltmp955:
	movq	%rax, %rdi
	callq	__ZN3std9panicking3try7cleanup17hd895f7beef0a7dadE
Ltmp956:
	testq	%rax, %rax
	je	LBB22_12
	movq	%rdx, %rcx
	leaq	-56(%rbp), %rsi
Ltmp957:
	movq	%rbx, %rdi
	movq	%rax, %rdx
	callq	__ZN10rayon_core4join23join_recover_from_panic17h65e0dcb6d5862f08E
Ltmp958:
	jmp	LBB22_6
LBB22_44:
Ltmp959:
	jmp	LBB22_45
LBB22_42:
Ltmp988:
	jmp	LBB22_45
LBB22_37:
Ltmp964:
LBB22_45:
	movq	%rax, %r14
	leaq	-128(%rbp), %rdi
	callq	__ZN4core3ptr13drop_in_place17h15e4c257c89b0e89E
LBB22_41:
	movq	%r14, %rdi
	callq	__Unwind_Resume
	ud2
Lfunc_end22:
	.cfi_endproc
	.section	__TEXT,__gcc_except_tab
	.p2align	2
GCC_except_table22:
Lexception22:
	.byte	255
	.byte	155
	.uleb128 Lttbase22-Lttbaseref22
Lttbaseref22:
	.byte	1
	.uleb128 Lcst_end22-Lcst_begin22
Lcst_begin22:
	.uleb128 Ltmp946-Lfunc_begin22
	.uleb128 Ltmp951-Ltmp946
	.uleb128 Ltmp988-Lfunc_begin22
	.byte	0
	.uleb128 Ltmp952-Lfunc_begin22
	.uleb128 Ltmp953-Ltmp952
	.uleb128 Ltmp954-Lfunc_begin22
	.byte	3
	.uleb128 Ltmp962-Lfunc_begin22
	.uleb128 Ltmp961-Ltmp962
	.uleb128 Ltmp964-Lfunc_begin22
	.byte	0
	.uleb128 Ltmp965-Lfunc_begin22
	.uleb128 Ltmp966-Ltmp965
	.uleb128 Ltmp974-Lfunc_begin22
	.byte	0
	.uleb128 Ltmp967-Lfunc_begin22
	.uleb128 Ltmp968-Ltmp967
	.uleb128 Ltmp969-Lfunc_begin22
	.byte	0
	.uleb128 Ltmp978-Lfunc_begin22
	.uleb128 Ltmp979-Ltmp978
	.uleb128 Ltmp980-Lfunc_begin22
	.byte	0
	.uleb128 Ltmp981-Lfunc_begin22
	.uleb128 Ltmp982-Ltmp981
	.uleb128 Ltmp985-Lfunc_begin22
	.byte	0
	.uleb128 Ltmp986-Lfunc_begin22
	.uleb128 Ltmp987-Ltmp986
	.uleb128 Ltmp988-Lfunc_begin22
	.byte	0
	.uleb128 Ltmp983-Lfunc_begin22
	.uleb128 Ltmp984-Ltmp983
	.uleb128 Ltmp985-Lfunc_begin22
	.byte	0
	.uleb128 Ltmp948-Lfunc_begin22
	.uleb128 Ltmp949-Ltmp948
	.uleb128 Ltmp988-Lfunc_begin22
	.byte	0
	.uleb128 Ltmp972-Lfunc_begin22
	.uleb128 Ltmp971-Ltmp972
	.uleb128 Ltmp974-Lfunc_begin22
	.byte	0
	.uleb128 Ltmp971-Lfunc_begin22
	.uleb128 Ltmp975-Ltmp971
	.byte	0
	.byte	0
	.uleb128 Ltmp975-Lfunc_begin22
	.uleb128 Ltmp976-Ltmp975
	.uleb128 Ltmp977-Lfunc_begin22
	.byte	0
	.uleb128 Ltmp976-Lfunc_begin22
	.uleb128 Ltmp955-Ltmp976
	.byte	0
	.byte	0
	.uleb128 Ltmp955-Lfunc_begin22
	.uleb128 Ltmp956-Ltmp955
	.uleb128 Ltmp988-Lfunc_begin22
	.byte	0
	.uleb128 Ltmp957-Lfunc_begin22
	.uleb128 Ltmp958-Ltmp957
	.uleb128 Ltmp959-Lfunc_begin22
	.byte	0
	.uleb128 Ltmp958-Lfunc_begin22
	.uleb128 Lfunc_end22-Ltmp958
	.byte	0
	.byte	0
Lcst_end22:
	.byte	0
	.byte	0
	.byte	1
	.byte	125
	.p2align	2
	.long	0
Lttbase22:
	.p2align	2

	.section	__TEXT,__text,regular,pure_instructions
	.p2align	4, 0x90
__ZN10rayon_core4join12join_context28_$u7b$$u7b$closure$u7d$$u7d$17hd467aaba5ed10466E:
Lfunc_begin23:
	.cfi_startproc
	.cfi_personality 155, _rust_eh_personality
	.cfi_lsda 16, Lexception23
	pushq	%rbp
	.cfi_def_cfa_offset 16
	.cfi_offset %rbp, -16
	movq	%rsp, %rbp
	.cfi_def_cfa_register %rbp
	pushq	%r15
	pushq	%r14
	pushq	%r13
	pushq	%r12
	pushq	%rbx
	andq	$-64, %rsp
	subq	$768, %rsp
	.cfi_offset %rbx, -56
	.cfi_offset %r12, -48
	.cfi_offset %r13, -40
	.cfi_offset %r14, -32
	.cfi_offset %r15, -24
	movl	%ecx, 28(%rsp)
	movq	%rdx, %rbx
	movq	%rsi, %r12
	movq	%rdi, 56(%rsp)
	movb	$0, 376(%rsp)
	vmovdqu	(%rsi), %ymm0
	vmovdqu	24(%rsi), %ymm1
	vmovdqa	%ymm0, 320(%rsp)
	vmovdqu	%ymm1, 344(%rsp)
	movq	$0, 192(%rsp)
	movq	256(%rdx), %rax
	movq	264(%rax), %r15
	movq	256(%rax), %rax
	movq	272(%rdx), %rsi
	movq	%r15, %rcx
	subq	%rax, %rcx
	cmpq	%rsi, %rcx
	jl	LBB23_4
	addq	%rsi, %rsi
	jb	LBB23_7
	leaq	256(%rbx), %rdi
Ltmp989:
	vzeroupper
	callq	__ZN15crossbeam_deque15Worker$LT$T$GT$6resize17h34dc55adb45f7cc1E
Ltmp990:
	movq	272(%rbx), %rsi
LBB23_4:
	subq	$1, %rsi
	jb	LBB23_5
	movq	264(%rbx), %rax
	andq	%r15, %rsi
	shlq	$4, %rsi
	leaq	192(%rsp), %r13
	movq	%r13, (%rax,%rsi)
	leaq	__ZN83_$LT$rayon_core..job..StackJob$LT$L$C$F$C$R$GT$$u20$as$u20$rayon_core..job..Job$GT$7execute17hcc144b7baeda931fE(%rip), %r14
	movq	%r14, 8(%rax,%rsi)
	##MEMBARRIER
	movq	256(%rbx), %rax
	incq	%r15
	movq	%r15, 264(%rax)
	movl	$408, %edi
	addq	304(%rbx), %rdi
	movq	288(%rbx), %rsi
Ltmp993:
	vzeroupper
	callq	__ZN10rayon_core5sleep5Sleep6tickle17h00d06f732555dc32E
Ltmp994:
	vmovups	56(%r12), %ymm0
	vmovups	72(%r12), %ymm1
	vmovaps	%ymm0, 64(%rsp)
	vmovups	%ymm1, 80(%rsp)
	movl	28(%rsp), %r15d
	movb	%r15b, 112(%rsp)
	vmovdqa	64(%rsp), %xmm0
	vmovdqa	96(%rsp), %xmm1
	vmovdqa	112(%rsp), %xmm2
	vmovaps	80(%rsp), %xmm3
	vmovq	%xmm0, %rax
	vpextrq	$1, %xmm0, %rdi
	vpextrb	$0, %xmm2, %ecx
	xorl	%edx, %edx
	testb	%cl, %cl
	setne	%dl
	movq	(%rax), %rsi
	movq	(%rdi), %rcx
	movq	8(%rdi), %r8
	vmovq	%xmm1, 48(%rsp)
	vmovups	%xmm3, 32(%rsp)
Ltmp995:
	vpextrq	$1, %xmm1, (%rsp)
	leaq	384(%rsp), %rdi
	leaq	32(%rsp), %r9
	vzeroupper
	callq	__ZN5rayon4iter8plumbing24bridge_producer_consumer6helper17hce15a800f10f4e33E
Ltmp996:
	vmovaps	384(%rsp), %ymm0
	vmovaps	%ymm0, 672(%rsp)
	vmovdqa	416(%rsp), %ymm0
	vmovdqa	%ymm0, 640(%rsp)
	leaq	376(%rsp), %r12
	movb	376(%rsp), %al
	testb	%al, %al
	je	LBB23_12
	jmp	LBB23_16
	.p2align	4, 0x90
LBB23_23:
Ltmp1005:
	movq	%rbx, %rdi
	movq	%rax, %rsi
	callq	__ZN10rayon_core8registry12WorkerThread7execute17h2d3f3a8dd2af2716E
Ltmp1006:
	movzbl	376(%rsp), %eax
	testb	%al, %al
	jne	LBB23_16
LBB23_12:
Ltmp1003:
	movq	%rbx, %rdi
	vzeroupper
	callq	__ZN10rayon_core8registry12WorkerThread14take_local_job17h123bfb54be8597fdE
Ltmp1004:
	testq	%rdx, %rdx
	je	LBB23_14
	cmpq	%r13, %rax
	jne	LBB23_23
	cmpq	%r14, %rdx
	jne	LBB23_23
	vmovaps	352(%rsp), %ymm0
	vmovaps	%ymm0, 544(%rsp)
	vmovaps	320(%rsp), %ymm0
	vmovaps	%ymm0, 512(%rsp)
	vmovaps	224(%rsp), %ymm0
	vmovdqa	256(%rsp), %ymm1
	vmovdqa	288(%rsp), %ymm2
	vmovdqa	%ymm2, 480(%rsp)
	vmovdqa	%ymm1, 448(%rsp)
	vmovaps	%ymm0, 416(%rsp)
	vmovaps	192(%rsp), %ymm0
	vmovaps	%ymm0, 384(%rsp)
	movq	512(%rsp), %rsi
	movq	520(%rsp), %rcx
	movq	528(%rsp), %rax
	vmovdqu	536(%rsp), %xmm0
	vmovdqa	%xmm0, 64(%rsp)
	movq	552(%rsp), %rdx
	movq	%rdx, 80(%rsp)
	testq	%rsi, %rsi
	je	LBB23_25
	movq	560(%rsp), %rdx
	movq	80(%rsp), %rdi
	movq	%rdi, 624(%rsp)
	vmovdqa	64(%rsp), %xmm0
	vmovdqa	%xmm0, 608(%rsp)
	movq	%rdi, 176(%rsp)
	vmovdqa	%xmm0, 160(%rsp)
	movq	(%rsi), %rsi
	subq	(%rcx), %rsi
	jb	LBB23_27
	movq	(%rax), %rcx
	movq	8(%rax), %r8
	movq	176(%rsp), %rax
	movq	%rax, 48(%rsp)
	vmovdqa	160(%rsp), %xmm0
	vmovdqa	%xmm0, 32(%rsp)
Ltmp1008:
	movq	%rdx, (%rsp)
	movzbl	%r15b, %edx
	leaq	64(%rsp), %rdi
	leaq	32(%rsp), %r9
	vzeroupper
	callq	__ZN5rayon4iter8plumbing24bridge_producer_consumer6helper17hce15a800f10f4e33E
Ltmp1009:
	cmpq	$2, 384(%rsp)
	jb	LBB23_33
	movq	392(%rsp), %r12
	movq	400(%rsp), %rbx
Ltmp1010:
	movq	%r12, %rdi
	callq	*(%rbx)
Ltmp1011:
	movq	8(%rbx), %rsi
	testq	%rsi, %rsi
	je	LBB23_33
	movq	16(%rbx), %rdx
	movq	%r12, %rdi
	callq	___rust_dealloc
LBB23_33:
	vmovaps	64(%rsp), %ymm0
	vmovaps	96(%rsp), %ymm1
	jmp	LBB23_37
LBB23_14:
	movb	376(%rsp), %al
	testb	%al, %al
	jne	LBB23_16
Ltmp1021:
	movq	%rbx, %rdi
	movq	%r12, %rsi
	callq	__ZN10rayon_core8registry12WorkerThread15wait_until_cold17hf0fae827bbf09742E
Ltmp1022:
LBB23_16:
	movq	192(%rsp), %rax
	cmpq	$1, %rax
	jne	LBB23_17
	vmovaps	256(%rsp), %ymm0
	vmovaps	288(%rsp), %ymm1
LBB23_37:
	movq	56(%rsp), %rax
	vmovaps	672(%rsp), %ymm2
	vmovaps	%ymm2, (%rax)
	vmovaps	640(%rsp), %ymm2
	vmovaps	%ymm2, 32(%rax)
	vmovaps	%ymm0, 64(%rax)
	vmovaps	%ymm1, 96(%rax)
	leaq	-40(%rbp), %rsp
	popq	%rbx
	popq	%r12
	popq	%r13
	popq	%r14
	popq	%r15
	popq	%rbp
	vzeroupper
	retq
LBB23_17:
	testq	%rax, %rax
	je	LBB23_35
	movq	200(%rsp), %rdi
	movq	208(%rsp), %rsi
Ltmp1024:
	vzeroupper
	callq	__ZN10rayon_core6unwind16resume_unwinding17h47c2e39f90248736E
Ltmp1025:
	jmp	LBB23_6
LBB23_5:
Ltmp1029:
	leaq	_str.1(%rip), %rdi
	leaq	l___unnamed_1(%rip), %rdx
	movl	$33, %esi
	vzeroupper
	callq	__ZN4core9panicking5panic17h736ee47a631475c0E
Ltmp1030:
	jmp	LBB23_6
LBB23_35:
Ltmp1026:
	leaq	l___unnamed_2(%rip), %rdi
	leaq	l___unnamed_3(%rip), %rdx
	movl	$40, %esi
	vzeroupper
	callq	__ZN3std9panicking11begin_panic17h853288e601a61dd9E
Ltmp1027:
	jmp	LBB23_6
LBB23_7:
Ltmp991:
	leaq	_str.3(%rip), %rdi
	leaq	l___unnamed_4(%rip), %rdx
	movl	$33, %esi
	vzeroupper
	callq	__ZN4core9panicking5panic17h736ee47a631475c0E
Ltmp992:
	jmp	LBB23_6
LBB23_25:
Ltmp1015:
	leaq	l___unnamed_5(%rip), %rdi
	leaq	l___unnamed_6(%rip), %rdx
	movl	$43, %esi
	vzeroupper
	callq	__ZN4core9panicking5panic17h736ee47a631475c0E
Ltmp1016:
	jmp	LBB23_6
LBB23_27:
Ltmp1013:
	leaq	_str.1(%rip), %rdi
	leaq	l___unnamed_7(%rip), %rdx
	movl	$33, %esi
	vzeroupper
	callq	__ZN4core9panicking5panic17h736ee47a631475c0E
Ltmp1014:
	jmp	LBB23_6
LBB23_47:
Ltmp1028:
	jmp	LBB23_42
LBB23_40:
Ltmp1023:
	jmp	LBB23_46
LBB23_38:
Ltmp1012:
	movq	%rax, %r14
	movq	%r12, %rdi
	movq	%rbx, %rsi
	callq	__ZN5alloc5alloc8box_free17h601baa71c821b98cE
	movq	%r14, %rdi
	callq	__Unwind_Resume
	ud2
LBB23_34:
Ltmp1017:
	movq	%rax, %r14
Ltmp1018:
	leaq	384(%rsp), %rdi
	callq	__ZN4core3ptr13drop_in_place17h04000df5dc98c10bE
Ltmp1019:
	jmp	LBB23_43
LBB23_41:
Ltmp1020:
LBB23_42:
	movq	%rax, %r14
	movq	%r14, %rdi
	callq	__Unwind_Resume
	ud2
LBB23_19:
Ltmp997:
Ltmp998:
	movq	%rax, %rdi
	callq	__ZN3std9panicking3try7cleanup17hd895f7beef0a7dadE
Ltmp999:
	movq	%rdx, %rcx
	leaq	376(%rsp), %rsi
Ltmp1000:
	movq	%rbx, %rdi
	movq	%rax, %rdx
	callq	__ZN10rayon_core4join23join_recover_from_panic17h65e0dcb6d5862f08E
Ltmp1001:
LBB23_6:
	ud2
LBB23_45:
Ltmp1002:
	jmp	LBB23_46
LBB23_44:
Ltmp1031:
	jmp	LBB23_46
LBB23_39:
Ltmp1007:
LBB23_46:
	movq	%rax, %r14
	leaq	192(%rsp), %rdi
	callq	__ZN4core3ptr13drop_in_place17h04000df5dc98c10bE
LBB23_43:
	movq	%r14, %rdi
	callq	__Unwind_Resume
	ud2
Lfunc_end23:
	.cfi_endproc
	.section	__TEXT,__gcc_except_tab
	.p2align	2
GCC_except_table23:
Lexception23:
	.byte	255
	.byte	155
	.uleb128 Lttbase23-Lttbaseref23
Lttbaseref23:
	.byte	1
	.uleb128 Lcst_end23-Lcst_begin23
Lcst_begin23:
	.uleb128 Ltmp989-Lfunc_begin23
	.uleb128 Ltmp994-Ltmp989
	.uleb128 Ltmp1031-Lfunc_begin23
	.byte	0
	.uleb128 Ltmp995-Lfunc_begin23
	.uleb128 Ltmp996-Ltmp995
	.uleb128 Ltmp997-Lfunc_begin23
	.byte	3
	.uleb128 Ltmp1005-Lfunc_begin23
	.uleb128 Ltmp1004-Ltmp1005
	.uleb128 Ltmp1007-Lfunc_begin23
	.byte	0
	.uleb128 Ltmp1008-Lfunc_begin23
	.uleb128 Ltmp1009-Ltmp1008
	.uleb128 Ltmp1017-Lfunc_begin23
	.byte	0
	.uleb128 Ltmp1010-Lfunc_begin23
	.uleb128 Ltmp1011-Ltmp1010
	.uleb128 Ltmp1012-Lfunc_begin23
	.byte	0
	.uleb128 Ltmp1021-Lfunc_begin23
	.uleb128 Ltmp1022-Ltmp1021
	.uleb128 Ltmp1023-Lfunc_begin23
	.byte	0
	.uleb128 Ltmp1024-Lfunc_begin23
	.uleb128 Ltmp1025-Ltmp1024
	.uleb128 Ltmp1028-Lfunc_begin23
	.byte	0
	.uleb128 Ltmp1029-Lfunc_begin23
	.uleb128 Ltmp1030-Ltmp1029
	.uleb128 Ltmp1031-Lfunc_begin23
	.byte	0
	.uleb128 Ltmp1026-Lfunc_begin23
	.uleb128 Ltmp1027-Ltmp1026
	.uleb128 Ltmp1028-Lfunc_begin23
	.byte	0
	.uleb128 Ltmp991-Lfunc_begin23
	.uleb128 Ltmp992-Ltmp991
	.uleb128 Ltmp1031-Lfunc_begin23
	.byte	0
	.uleb128 Ltmp1015-Lfunc_begin23
	.uleb128 Ltmp1014-Ltmp1015
	.uleb128 Ltmp1017-Lfunc_begin23
	.byte	0
	.uleb128 Ltmp1014-Lfunc_begin23
	.uleb128 Ltmp1018-Ltmp1014
	.byte	0
	.byte	0
	.uleb128 Ltmp1018-Lfunc_begin23
	.uleb128 Ltmp1019-Ltmp1018
	.uleb128 Ltmp1020-Lfunc_begin23
	.byte	0
	.uleb128 Ltmp1019-Lfunc_begin23
	.uleb128 Ltmp998-Ltmp1019
	.byte	0
	.byte	0
	.uleb128 Ltmp998-Lfunc_begin23
	.uleb128 Ltmp999-Ltmp998
	.uleb128 Ltmp1031-Lfunc_begin23
	.byte	0
	.uleb128 Ltmp1000-Lfunc_begin23
	.uleb128 Ltmp1001-Ltmp1000
	.uleb128 Ltmp1002-Lfunc_begin23
	.byte	0
	.uleb128 Ltmp1001-Lfunc_begin23
	.uleb128 Lfunc_end23-Ltmp1001
	.byte	0
	.byte	0
Lcst_end23:
	.byte	0
	.byte	0
	.byte	1
	.byte	125
	.p2align	2
	.long	0
Lttbase23:
	.p2align	2

	.section	__TEXT,__text,regular,pure_instructions
	.p2align	4, 0x90
__ZN10rayon_core4join12join_context28_$u7b$$u7b$closure$u7d$$u7d$17hdfa8584ced223de9E:
Lfunc_begin24:
	.cfi_startproc
	.cfi_personality 155, _rust_eh_personality
	.cfi_lsda 16, Lexception24
	pushq	%rbp
	.cfi_def_cfa_offset 16
	.cfi_offset %rbp, -16
	movq	%rsp, %rbp
	.cfi_def_cfa_register %rbp
	pushq	%r15
	pushq	%r14
	pushq	%r13
	pushq	%r12
	pushq	%rbx
	andq	$-64, %rsp
	subq	$768, %rsp
	.cfi_offset %rbx, -56
	.cfi_offset %r12, -48
	.cfi_offset %r13, -40
	.cfi_offset %r14, -32
	.cfi_offset %r15, -24
	movl	%ecx, 28(%rsp)
	movq	%rdx, %rbx
	movq	%rsi, %r12
	movq	%rdi, 56(%rsp)
	movb	$0, 376(%rsp)
	vmovups	(%rsi), %ymm0
	vmovups	24(%rsi), %ymm1
	vmovaps	%ymm0, 320(%rsp)
	vmovups	%ymm1, 344(%rsp)
	movq	$0, 192(%rsp)
	movq	256(%rdx), %rax
	movq	264(%rax), %r15
	movq	256(%rax), %rax
	movq	272(%rdx), %rsi
	movq	%r15, %rcx
	subq	%rax, %rcx
	cmpq	%rsi, %rcx
	jl	LBB24_4
	addq	%rsi, %rsi
	jb	LBB24_7
	leaq	256(%rbx), %rdi
Ltmp1032:
	vzeroupper
	callq	__ZN15crossbeam_deque15Worker$LT$T$GT$6resize17h34dc55adb45f7cc1E
Ltmp1033:
	movq	272(%rbx), %rsi
LBB24_4:
	subq	$1, %rsi
	jb	LBB24_5
	movq	264(%rbx), %rax
	andq	%r15, %rsi
	shlq	$4, %rsi
	leaq	192(%rsp), %r13
	movq	%r13, (%rax,%rsi)
	leaq	__ZN83_$LT$rayon_core..job..StackJob$LT$L$C$F$C$R$GT$$u20$as$u20$rayon_core..job..Job$GT$7execute17h83d26d877944e7c7E(%rip), %r14
	movq	%r14, 8(%rax,%rsi)
	##MEMBARRIER
	movq	256(%rbx), %rax
	incq	%r15
	movq	%r15, 264(%rax)
	movl	$408, %edi
	addq	304(%rbx), %rdi
	movq	288(%rbx), %rsi
Ltmp1036:
	vzeroupper
	callq	__ZN10rayon_core5sleep5Sleep6tickle17h00d06f732555dc32E
Ltmp1037:
	vmovups	56(%r12), %ymm0
	vmovups	72(%r12), %ymm1
	vmovaps	%ymm0, 64(%rsp)
	vmovups	%ymm1, 80(%rsp)
	movl	28(%rsp), %r15d
	movb	%r15b, 112(%rsp)
	vmovdqa	64(%rsp), %xmm0
	vpermpd	$68, 96(%rsp), %ymm1
	movq	104(%rsp), %rax
	vmovdqa	112(%rsp), %xmm2
	vmovaps	80(%rsp), %xmm3
	vpextrq	$1, %xmm0, %rdi
	vpextrb	$0, %xmm2, %ecx
	vmovq	%xmm0, %rsi
	xorl	%edx, %edx
	testb	%cl, %cl
	setne	%dl
	movq	(%rsi), %rsi
	movq	(%rdi), %rcx
	movq	8(%rdi), %r8
	vextractf128	$1, %ymm1, %xmm0
	vmovlps	%xmm0, 48(%rsp)
	vmovups	%xmm3, 32(%rsp)
Ltmp1038:
	movq	%rax, (%rsp)
	leaq	384(%rsp), %rdi
	leaq	32(%rsp), %r9
	vzeroupper
	callq	__ZN5rayon4iter8plumbing24bridge_producer_consumer6helper17h1013a109747a48f3E
Ltmp1039:
	vmovaps	384(%rsp), %ymm0
	vmovaps	%ymm0, 672(%rsp)
	vmovaps	416(%rsp), %ymm0
	vmovaps	%ymm0, 640(%rsp)
	leaq	376(%rsp), %r12
	movb	376(%rsp), %al
	testb	%al, %al
	je	LBB24_12
	jmp	LBB24_16
	.p2align	4, 0x90
LBB24_23:
Ltmp1048:
	movq	%rbx, %rdi
	movq	%rax, %rsi
	callq	__ZN10rayon_core8registry12WorkerThread7execute17h2d3f3a8dd2af2716E
Ltmp1049:
	movzbl	376(%rsp), %eax
	testb	%al, %al
	jne	LBB24_16
LBB24_12:
Ltmp1046:
	movq	%rbx, %rdi
	vzeroupper
	callq	__ZN10rayon_core8registry12WorkerThread14take_local_job17h123bfb54be8597fdE
Ltmp1047:
	testq	%rdx, %rdx
	je	LBB24_14
	cmpq	%r13, %rax
	jne	LBB24_23
	cmpq	%r14, %rdx
	jne	LBB24_23
	vmovaps	352(%rsp), %ymm0
	vmovaps	%ymm0, 544(%rsp)
	vmovaps	320(%rsp), %ymm0
	vmovaps	%ymm0, 512(%rsp)
	vmovaps	224(%rsp), %ymm0
	vmovaps	256(%rsp), %ymm1
	vmovdqa	288(%rsp), %ymm2
	vmovdqa	%ymm2, 480(%rsp)
	vmovaps	%ymm1, 448(%rsp)
	vmovaps	%ymm0, 416(%rsp)
	vmovaps	192(%rsp), %ymm0
	vmovaps	%ymm0, 384(%rsp)
	movq	512(%rsp), %rsi
	movq	520(%rsp), %rcx
	movq	528(%rsp), %rax
	vmovups	536(%rsp), %xmm0
	vmovaps	%xmm0, 64(%rsp)
	movq	552(%rsp), %rdx
	movq	%rdx, 80(%rsp)
	testq	%rsi, %rsi
	je	LBB24_25
	movq	560(%rsp), %rdx
	movq	80(%rsp), %rdi
	movq	%rdi, 624(%rsp)
	vmovaps	64(%rsp), %xmm0
	vmovaps	%xmm0, 608(%rsp)
	movq	%rdi, 176(%rsp)
	vmovaps	%xmm0, 160(%rsp)
	movq	(%rsi), %rsi
	subq	(%rcx), %rsi
	jb	LBB24_27
	movq	(%rax), %rcx
	movq	8(%rax), %r8
	movq	176(%rsp), %rax
	movq	%rax, 48(%rsp)
	vmovaps	160(%rsp), %xmm0
	vmovaps	%xmm0, 32(%rsp)
Ltmp1051:
	movq	%rdx, (%rsp)
	movzbl	%r15b, %edx
	leaq	64(%rsp), %rdi
	leaq	32(%rsp), %r9
	vzeroupper
	callq	__ZN5rayon4iter8plumbing24bridge_producer_consumer6helper17h1013a109747a48f3E
Ltmp1052:
	cmpq	$2, 384(%rsp)
	jb	LBB24_33
	movq	392(%rsp), %r12
	movq	400(%rsp), %rbx
Ltmp1053:
	movq	%r12, %rdi
	callq	*(%rbx)
Ltmp1054:
	movq	8(%rbx), %rsi
	testq	%rsi, %rsi
	je	LBB24_33
	movq	16(%rbx), %rdx
	movq	%r12, %rdi
	callq	___rust_dealloc
LBB24_33:
	vmovaps	64(%rsp), %ymm0
	vmovaps	96(%rsp), %ymm1
	jmp	LBB24_37
LBB24_14:
	movb	376(%rsp), %al
	testb	%al, %al
	jne	LBB24_16
Ltmp1064:
	movq	%rbx, %rdi
	movq	%r12, %rsi
	callq	__ZN10rayon_core8registry12WorkerThread15wait_until_cold17hf0fae827bbf09742E
Ltmp1065:
LBB24_16:
	movq	192(%rsp), %rax
	cmpq	$1, %rax
	jne	LBB24_17
	vmovaps	256(%rsp), %ymm0
	vmovaps	288(%rsp), %ymm1
LBB24_37:
	movq	56(%rsp), %rax
	vmovaps	672(%rsp), %ymm2
	vmovaps	%ymm2, (%rax)
	vmovaps	640(%rsp), %ymm2
	vmovaps	%ymm2, 32(%rax)
	vmovaps	%ymm0, 64(%rax)
	vmovaps	%ymm1, 96(%rax)
	leaq	-40(%rbp), %rsp
	popq	%rbx
	popq	%r12
	popq	%r13
	popq	%r14
	popq	%r15
	popq	%rbp
	vzeroupper
	retq
LBB24_17:
	testq	%rax, %rax
	je	LBB24_35
	movq	200(%rsp), %rdi
	movq	208(%rsp), %rsi
Ltmp1067:
	vzeroupper
	callq	__ZN10rayon_core6unwind16resume_unwinding17h47c2e39f90248736E
Ltmp1068:
	jmp	LBB24_6
LBB24_5:
Ltmp1072:
	leaq	_str.1(%rip), %rdi
	leaq	l___unnamed_1(%rip), %rdx
	movl	$33, %esi
	vzeroupper
	callq	__ZN4core9panicking5panic17h736ee47a631475c0E
Ltmp1073:
	jmp	LBB24_6
LBB24_35:
Ltmp1069:
	leaq	l___unnamed_2(%rip), %rdi
	leaq	l___unnamed_3(%rip), %rdx
	movl	$40, %esi
	vzeroupper
	callq	__ZN3std9panicking11begin_panic17h853288e601a61dd9E
Ltmp1070:
	jmp	LBB24_6
LBB24_7:
Ltmp1034:
	leaq	_str.3(%rip), %rdi
	leaq	l___unnamed_4(%rip), %rdx
	movl	$33, %esi
	vzeroupper
	callq	__ZN4core9panicking5panic17h736ee47a631475c0E
Ltmp1035:
	jmp	LBB24_6
LBB24_25:
Ltmp1058:
	leaq	l___unnamed_5(%rip), %rdi
	leaq	l___unnamed_6(%rip), %rdx
	movl	$43, %esi
	vzeroupper
	callq	__ZN4core9panicking5panic17h736ee47a631475c0E
Ltmp1059:
	jmp	LBB24_6
LBB24_27:
Ltmp1056:
	leaq	_str.1(%rip), %rdi
	leaq	l___unnamed_7(%rip), %rdx
	movl	$33, %esi
	vzeroupper
	callq	__ZN4core9panicking5panic17h736ee47a631475c0E
Ltmp1057:
	jmp	LBB24_6
LBB24_47:
Ltmp1071:
	jmp	LBB24_42
LBB24_40:
Ltmp1066:
	jmp	LBB24_46
LBB24_38:
Ltmp1055:
	movq	%rax, %r14
	movq	%r12, %rdi
	movq	%rbx, %rsi
	callq	__ZN5alloc5alloc8box_free17h601baa71c821b98cE
	movq	%r14, %rdi
	callq	__Unwind_Resume
	ud2
LBB24_34:
Ltmp1060:
	movq	%rax, %r14
Ltmp1061:
	leaq	384(%rsp), %rdi
	callq	__ZN4core3ptr13drop_in_place17h04000df5dc98c10bE
Ltmp1062:
	jmp	LBB24_43
LBB24_41:
Ltmp1063:
LBB24_42:
	movq	%rax, %r14
	movq	%r14, %rdi
	callq	__Unwind_Resume
	ud2
LBB24_19:
Ltmp1040:
Ltmp1041:
	movq	%rax, %rdi
	callq	__ZN3std9panicking3try7cleanup17hd895f7beef0a7dadE
Ltmp1042:
	movq	%rdx, %rcx
	leaq	376(%rsp), %rsi
Ltmp1043:
	movq	%rbx, %rdi
	movq	%rax, %rdx
	callq	__ZN10rayon_core4join23join_recover_from_panic17h65e0dcb6d5862f08E
Ltmp1044:
LBB24_6:
	ud2
LBB24_45:
Ltmp1045:
	jmp	LBB24_46
LBB24_44:
Ltmp1074:
	jmp	LBB24_46
LBB24_39:
Ltmp1050:
LBB24_46:
	movq	%rax, %r14
	leaq	192(%rsp), %rdi
	callq	__ZN4core3ptr13drop_in_place17h04000df5dc98c10bE
LBB24_43:
	movq	%r14, %rdi
	callq	__Unwind_Resume
	ud2
Lfunc_end24:
	.cfi_endproc
	.section	__TEXT,__gcc_except_tab
	.p2align	2
GCC_except_table24:
Lexception24:
	.byte	255
	.byte	155
	.uleb128 Lttbase24-Lttbaseref24
Lttbaseref24:
	.byte	1
	.uleb128 Lcst_end24-Lcst_begin24
Lcst_begin24:
	.uleb128 Ltmp1032-Lfunc_begin24
	.uleb128 Ltmp1037-Ltmp1032
	.uleb128 Ltmp1074-Lfunc_begin24
	.byte	0
	.uleb128 Ltmp1038-Lfunc_begin24
	.uleb128 Ltmp1039-Ltmp1038
	.uleb128 Ltmp1040-Lfunc_begin24
	.byte	3
	.uleb128 Ltmp1048-Lfunc_begin24
	.uleb128 Ltmp1047-Ltmp1048
	.uleb128 Ltmp1050-Lfunc_begin24
	.byte	0
	.uleb128 Ltmp1051-Lfunc_begin24
	.uleb128 Ltmp1052-Ltmp1051
	.uleb128 Ltmp1060-Lfunc_begin24
	.byte	0
	.uleb128 Ltmp1053-Lfunc_begin24
	.uleb128 Ltmp1054-Ltmp1053
	.uleb128 Ltmp1055-Lfunc_begin24
	.byte	0
	.uleb128 Ltmp1064-Lfunc_begin24
	.uleb128 Ltmp1065-Ltmp1064
	.uleb128 Ltmp1066-Lfunc_begin24
	.byte	0
	.uleb128 Ltmp1067-Lfunc_begin24
	.uleb128 Ltmp1068-Ltmp1067
	.uleb128 Ltmp1071-Lfunc_begin24
	.byte	0
	.uleb128 Ltmp1072-Lfunc_begin24
	.uleb128 Ltmp1073-Ltmp1072
	.uleb128 Ltmp1074-Lfunc_begin24
	.byte	0
	.uleb128 Ltmp1069-Lfunc_begin24
	.uleb128 Ltmp1070-Ltmp1069
	.uleb128 Ltmp1071-Lfunc_begin24
	.byte	0
	.uleb128 Ltmp1034-Lfunc_begin24
	.uleb128 Ltmp1035-Ltmp1034
	.uleb128 Ltmp1074-Lfunc_begin24
	.byte	0
	.uleb128 Ltmp1058-Lfunc_begin24
	.uleb128 Ltmp1057-Ltmp1058
	.uleb128 Ltmp1060-Lfunc_begin24
	.byte	0
	.uleb128 Ltmp1057-Lfunc_begin24
	.uleb128 Ltmp1061-Ltmp1057
	.byte	0
	.byte	0
	.uleb128 Ltmp1061-Lfunc_begin24
	.uleb128 Ltmp1062-Ltmp1061
	.uleb128 Ltmp1063-Lfunc_begin24
	.byte	0
	.uleb128 Ltmp1062-Lfunc_begin24
	.uleb128 Ltmp1041-Ltmp1062
	.byte	0
	.byte	0
	.uleb128 Ltmp1041-Lfunc_begin24
	.uleb128 Ltmp1042-Ltmp1041
	.uleb128 Ltmp1074-Lfunc_begin24
	.byte	0
	.uleb128 Ltmp1043-Lfunc_begin24
	.uleb128 Ltmp1044-Ltmp1043
	.uleb128 Ltmp1045-Lfunc_begin24
	.byte	0
	.uleb128 Ltmp1044-Lfunc_begin24
	.uleb128 Lfunc_end24-Ltmp1044
	.byte	0
	.byte	0
Lcst_end24:
	.byte	0
	.byte	0
	.byte	1
	.byte	125
	.p2align	2
	.long	0
Lttbase24:
	.p2align	2

	.section	__TEXT,__text,regular,pure_instructions
	.p2align	4, 0x90
__ZN10rayon_core4join12join_context28_$u7b$$u7b$closure$u7d$$u7d$17he54d9e491b91f7a1E:
Lfunc_begin25:
	.cfi_startproc
	.cfi_personality 155, _rust_eh_personality
	.cfi_lsda 16, Lexception25
	pushq	%rbp
	.cfi_def_cfa_offset 16
	.cfi_offset %rbp, -16
	movq	%rsp, %rbp
	.cfi_def_cfa_register %rbp
	pushq	%r15
	pushq	%r14
	pushq	%r13
	pushq	%r12
	pushq	%rbx
	andq	$-64, %rsp
	subq	$768, %rsp
	.cfi_offset %rbx, -56
	.cfi_offset %r12, -48
	.cfi_offset %r13, -40
	.cfi_offset %r14, -32
	.cfi_offset %r15, -24
	movl	%ecx, 28(%rsp)
	movq	%rdx, %rbx
	movq	%rsi, %r12
	movq	%rdi, 56(%rsp)
	movb	$0, 376(%rsp)
	vmovups	(%rsi), %ymm0
	vmovups	24(%rsi), %ymm1
	vmovaps	%ymm0, 320(%rsp)
	vmovups	%ymm1, 344(%rsp)
	movq	$0, 192(%rsp)
	movq	256(%rdx), %rax
	movq	264(%rax), %r15
	movq	256(%rax), %rax
	movq	272(%rdx), %rsi
	movq	%r15, %rcx
	subq	%rax, %rcx
	cmpq	%rsi, %rcx
	jl	LBB25_4
	addq	%rsi, %rsi
	jb	LBB25_7
	leaq	256(%rbx), %rdi
Ltmp1075:
	vzeroupper
	callq	__ZN15crossbeam_deque15Worker$LT$T$GT$6resize17h34dc55adb45f7cc1E
Ltmp1076:
	movq	272(%rbx), %rsi
LBB25_4:
	subq	$1, %rsi
	jb	LBB25_5
	movq	264(%rbx), %rax
	andq	%r15, %rsi
	shlq	$4, %rsi
	leaq	192(%rsp), %r13
	movq	%r13, (%rax,%rsi)
	leaq	__ZN83_$LT$rayon_core..job..StackJob$LT$L$C$F$C$R$GT$$u20$as$u20$rayon_core..job..Job$GT$7execute17h23a755ad2f7f77cfE(%rip), %r14
	movq	%r14, 8(%rax,%rsi)
	##MEMBARRIER
	movq	256(%rbx), %rax
	incq	%r15
	movq	%r15, 264(%rax)
	movl	$408, %edi
	addq	304(%rbx), %rdi
	movq	288(%rbx), %rsi
Ltmp1079:
	vzeroupper
	callq	__ZN10rayon_core5sleep5Sleep6tickle17h00d06f732555dc32E
Ltmp1080:
	vmovups	56(%r12), %ymm0
	vmovups	72(%r12), %ymm1
	vmovaps	%ymm0, 64(%rsp)
	vmovups	%ymm1, 80(%rsp)
	movl	28(%rsp), %r15d
	movb	%r15b, 112(%rsp)
	vmovdqa	64(%rsp), %xmm0
	vmovq	%xmm0, %rax
	vpextrq	$1, %xmm0, %rdi
	vpermpd	$68, 96(%rsp), %ymm0
	movq	104(%rsp), %r9
	vmovdqa	112(%rsp), %xmm1
	vpextrb	$0, %xmm1, %ecx
	vmovaps	80(%rsp), %xmm1
	xorl	%edx, %edx
	testb	%cl, %cl
	setne	%dl
	movq	(%rax), %rsi
	movq	(%rdi), %rcx
	movq	8(%rdi), %r8
	vextractf128	$1, %ymm0, %xmm0
	vmovlps	%xmm0, 48(%rsp)
	vmovups	%xmm1, 32(%rsp)
Ltmp1081:
	movq	%r9, (%rsp)
	leaq	384(%rsp), %rdi
	leaq	32(%rsp), %r9
	vzeroupper
	callq	__ZN5rayon4iter8plumbing24bridge_producer_consumer6helper17h7e7cdc163fa85702E
Ltmp1082:
	vmovaps	384(%rsp), %ymm0
	vmovaps	%ymm0, 672(%rsp)
	vmovaps	416(%rsp), %ymm0
	vmovaps	%ymm0, 640(%rsp)
	leaq	376(%rsp), %r12
	movb	376(%rsp), %al
	testb	%al, %al
	je	LBB25_12
	jmp	LBB25_16
	.p2align	4, 0x90
LBB25_23:
Ltmp1091:
	movq	%rbx, %rdi
	movq	%rax, %rsi
	callq	__ZN10rayon_core8registry12WorkerThread7execute17h2d3f3a8dd2af2716E
Ltmp1092:
	movzbl	376(%rsp), %eax
	testb	%al, %al
	jne	LBB25_16
LBB25_12:
Ltmp1089:
	movq	%rbx, %rdi
	vzeroupper
	callq	__ZN10rayon_core8registry12WorkerThread14take_local_job17h123bfb54be8597fdE
Ltmp1090:
	testq	%rdx, %rdx
	je	LBB25_14
	cmpq	%r13, %rax
	jne	LBB25_23
	cmpq	%r14, %rdx
	jne	LBB25_23
	vmovaps	352(%rsp), %ymm0
	vmovaps	%ymm0, 544(%rsp)
	vmovaps	320(%rsp), %ymm0
	vmovaps	%ymm0, 512(%rsp)
	vmovaps	224(%rsp), %ymm0
	vmovaps	256(%rsp), %ymm1
	vmovaps	288(%rsp), %ymm2
	vmovaps	%ymm2, 480(%rsp)
	vmovaps	%ymm1, 448(%rsp)
	vmovaps	%ymm0, 416(%rsp)
	vmovaps	192(%rsp), %ymm0
	vmovaps	%ymm0, 384(%rsp)
	movq	512(%rsp), %rsi
	movq	520(%rsp), %rcx
	movq	528(%rsp), %rax
	vmovups	536(%rsp), %xmm0
	vmovaps	%xmm0, 64(%rsp)
	movq	552(%rsp), %rdx
	movq	%rdx, 80(%rsp)
	testq	%rsi, %rsi
	je	LBB25_25
	movq	560(%rsp), %rdx
	movq	80(%rsp), %rdi
	movq	%rdi, 624(%rsp)
	vmovaps	64(%rsp), %xmm0
	vmovaps	%xmm0, 608(%rsp)
	movq	%rdi, 176(%rsp)
	vmovaps	%xmm0, 160(%rsp)
	movq	(%rsi), %rsi
	subq	(%rcx), %rsi
	jb	LBB25_27
	movq	(%rax), %rcx
	movq	8(%rax), %r8
	movq	176(%rsp), %rax
	movq	%rax, 48(%rsp)
	vmovaps	160(%rsp), %xmm0
	vmovaps	%xmm0, 32(%rsp)
Ltmp1094:
	movq	%rdx, (%rsp)
	movzbl	%r15b, %edx
	leaq	64(%rsp), %rdi
	leaq	32(%rsp), %r9
	vzeroupper
	callq	__ZN5rayon4iter8plumbing24bridge_producer_consumer6helper17h7e7cdc163fa85702E
Ltmp1095:
	cmpq	$2, 384(%rsp)
	jb	LBB25_33
	movq	392(%rsp), %r12
	movq	400(%rsp), %rbx
Ltmp1096:
	movq	%r12, %rdi
	callq	*(%rbx)
Ltmp1097:
	movq	8(%rbx), %rsi
	testq	%rsi, %rsi
	je	LBB25_33
	movq	16(%rbx), %rdx
	movq	%r12, %rdi
	callq	___rust_dealloc
LBB25_33:
	vmovaps	64(%rsp), %ymm0
	vmovaps	96(%rsp), %ymm1
	jmp	LBB25_37
LBB25_14:
	movb	376(%rsp), %al
	testb	%al, %al
	jne	LBB25_16
Ltmp1107:
	movq	%rbx, %rdi
	movq	%r12, %rsi
	callq	__ZN10rayon_core8registry12WorkerThread15wait_until_cold17hf0fae827bbf09742E
Ltmp1108:
LBB25_16:
	movq	192(%rsp), %rax
	cmpq	$1, %rax
	jne	LBB25_17
	vmovaps	256(%rsp), %ymm0
	vmovaps	288(%rsp), %ymm1
LBB25_37:
	movq	56(%rsp), %rax
	vmovaps	672(%rsp), %ymm2
	vmovaps	%ymm2, (%rax)
	vmovaps	640(%rsp), %ymm2
	vmovaps	%ymm2, 32(%rax)
	vmovaps	%ymm0, 64(%rax)
	vmovaps	%ymm1, 96(%rax)
	leaq	-40(%rbp), %rsp
	popq	%rbx
	popq	%r12
	popq	%r13
	popq	%r14
	popq	%r15
	popq	%rbp
	vzeroupper
	retq
LBB25_17:
	testq	%rax, %rax
	je	LBB25_35
	movq	200(%rsp), %rdi
	movq	208(%rsp), %rsi
Ltmp1110:
	vzeroupper
	callq	__ZN10rayon_core6unwind16resume_unwinding17h47c2e39f90248736E
Ltmp1111:
	jmp	LBB25_6
LBB25_5:
Ltmp1115:
	leaq	_str.1(%rip), %rdi
	leaq	l___unnamed_1(%rip), %rdx
	movl	$33, %esi
	vzeroupper
	callq	__ZN4core9panicking5panic17h736ee47a631475c0E
Ltmp1116:
	jmp	LBB25_6
LBB25_35:
Ltmp1112:
	leaq	l___unnamed_2(%rip), %rdi
	leaq	l___unnamed_3(%rip), %rdx
	movl	$40, %esi
	vzeroupper
	callq	__ZN3std9panicking11begin_panic17h853288e601a61dd9E
Ltmp1113:
	jmp	LBB25_6
LBB25_7:
Ltmp1077:
	leaq	_str.3(%rip), %rdi
	leaq	l___unnamed_4(%rip), %rdx
	movl	$33, %esi
	vzeroupper
	callq	__ZN4core9panicking5panic17h736ee47a631475c0E
Ltmp1078:
	jmp	LBB25_6
LBB25_25:
Ltmp1101:
	leaq	l___unnamed_5(%rip), %rdi
	leaq	l___unnamed_6(%rip), %rdx
	movl	$43, %esi
	vzeroupper
	callq	__ZN4core9panicking5panic17h736ee47a631475c0E
Ltmp1102:
	jmp	LBB25_6
LBB25_27:
Ltmp1099:
	leaq	_str.1(%rip), %rdi
	leaq	l___unnamed_7(%rip), %rdx
	movl	$33, %esi
	vzeroupper
	callq	__ZN4core9panicking5panic17h736ee47a631475c0E
Ltmp1100:
	jmp	LBB25_6
LBB25_47:
Ltmp1114:
	jmp	LBB25_42
LBB25_40:
Ltmp1109:
	jmp	LBB25_46
LBB25_38:
Ltmp1098:
	movq	%rax, %r14
	movq	%r12, %rdi
	movq	%rbx, %rsi
	callq	__ZN5alloc5alloc8box_free17h601baa71c821b98cE
	movq	%r14, %rdi
	callq	__Unwind_Resume
	ud2
LBB25_34:
Ltmp1103:
	movq	%rax, %r14
Ltmp1104:
	leaq	384(%rsp), %rdi
	callq	__ZN4core3ptr13drop_in_place17h04000df5dc98c10bE
Ltmp1105:
	jmp	LBB25_43
LBB25_41:
Ltmp1106:
LBB25_42:
	movq	%rax, %r14
	movq	%r14, %rdi
	callq	__Unwind_Resume
	ud2
LBB25_19:
Ltmp1083:
Ltmp1084:
	movq	%rax, %rdi
	callq	__ZN3std9panicking3try7cleanup17hd895f7beef0a7dadE
Ltmp1085:
	movq	%rdx, %rcx
	leaq	376(%rsp), %rsi
Ltmp1086:
	movq	%rbx, %rdi
	movq	%rax, %rdx
	callq	__ZN10rayon_core4join23join_recover_from_panic17h65e0dcb6d5862f08E
Ltmp1087:
LBB25_6:
	ud2
LBB25_45:
Ltmp1088:
	jmp	LBB25_46
LBB25_44:
Ltmp1117:
	jmp	LBB25_46
LBB25_39:
Ltmp1093:
LBB25_46:
	movq	%rax, %r14
	leaq	192(%rsp), %rdi
	callq	__ZN4core3ptr13drop_in_place17h04000df5dc98c10bE
LBB25_43:
	movq	%r14, %rdi
	callq	__Unwind_Resume
	ud2
Lfunc_end25:
	.cfi_endproc
	.section	__TEXT,__gcc_except_tab
	.p2align	2
GCC_except_table25:
Lexception25:
	.byte	255
	.byte	155
	.uleb128 Lttbase25-Lttbaseref25
Lttbaseref25:
	.byte	1
	.uleb128 Lcst_end25-Lcst_begin25
Lcst_begin25:
	.uleb128 Ltmp1075-Lfunc_begin25
	.uleb128 Ltmp1080-Ltmp1075
	.uleb128 Ltmp1117-Lfunc_begin25
	.byte	0
	.uleb128 Ltmp1081-Lfunc_begin25
	.uleb128 Ltmp1082-Ltmp1081
	.uleb128 Ltmp1083-Lfunc_begin25
	.byte	3
	.uleb128 Ltmp1091-Lfunc_begin25
	.uleb128 Ltmp1090-Ltmp1091
	.uleb128 Ltmp1093-Lfunc_begin25
	.byte	0
	.uleb128 Ltmp1094-Lfunc_begin25
	.uleb128 Ltmp1095-Ltmp1094
	.uleb128 Ltmp1103-Lfunc_begin25
	.byte	0
	.uleb128 Ltmp1096-Lfunc_begin25
	.uleb128 Ltmp1097-Ltmp1096
	.uleb128 Ltmp1098-Lfunc_begin25
	.byte	0
	.uleb128 Ltmp1107-Lfunc_begin25
	.uleb128 Ltmp1108-Ltmp1107
	.uleb128 Ltmp1109-Lfunc_begin25
	.byte	0
	.uleb128 Ltmp1110-Lfunc_begin25
	.uleb128 Ltmp1111-Ltmp1110
	.uleb128 Ltmp1114-Lfunc_begin25
	.byte	0
	.uleb128 Ltmp1115-Lfunc_begin25
	.uleb128 Ltmp1116-Ltmp1115
	.uleb128 Ltmp1117-Lfunc_begin25
	.byte	0
	.uleb128 Ltmp1112-Lfunc_begin25
	.uleb128 Ltmp1113-Ltmp1112
	.uleb128 Ltmp1114-Lfunc_begin25
	.byte	0
	.uleb128 Ltmp1077-Lfunc_begin25
	.uleb128 Ltmp1078-Ltmp1077
	.uleb128 Ltmp1117-Lfunc_begin25
	.byte	0
	.uleb128 Ltmp1101-Lfunc_begin25
	.uleb128 Ltmp1100-Ltmp1101
	.uleb128 Ltmp1103-Lfunc_begin25
	.byte	0
	.uleb128 Ltmp1100-Lfunc_begin25
	.uleb128 Ltmp1104-Ltmp1100
	.byte	0
	.byte	0
	.uleb128 Ltmp1104-Lfunc_begin25
	.uleb128 Ltmp1105-Ltmp1104
	.uleb128 Ltmp1106-Lfunc_begin25
	.byte	0
	.uleb128 Ltmp1105-Lfunc_begin25
	.uleb128 Ltmp1084-Ltmp1105
	.byte	0
	.byte	0
	.uleb128 Ltmp1084-Lfunc_begin25
	.uleb128 Ltmp1085-Ltmp1084
	.uleb128 Ltmp1117-Lfunc_begin25
	.byte	0
	.uleb128 Ltmp1086-Lfunc_begin25
	.uleb128 Ltmp1087-Ltmp1086
	.uleb128 Ltmp1088-Lfunc_begin25
	.byte	0
	.uleb128 Ltmp1087-Lfunc_begin25
	.uleb128 Lfunc_end25-Ltmp1087
	.byte	0
	.byte	0
Lcst_end25:
	.byte	0
	.byte	0
	.byte	1
	.byte	125
	.p2align	2
	.long	0
Lttbase25:
	.p2align	2

	.section	__TEXT,__text,regular,pure_instructions
	.p2align	4, 0x90
__ZN10rayon_core4join12join_context28_$u7b$$u7b$closure$u7d$$u7d$17he9e6a61e30b054aeE:
Lfunc_begin26:
	.cfi_startproc
	.cfi_personality 155, _rust_eh_personality
	.cfi_lsda 16, Lexception26
	pushq	%rbp
	.cfi_def_cfa_offset 16
	.cfi_offset %rbp, -16
	movq	%rsp, %rbp
	.cfi_def_cfa_register %rbp
	pushq	%r15
	pushq	%r14
	pushq	%r13
	pushq	%r12
	pushq	%rbx
	subq	$184, %rsp
	.cfi_offset %rbx, -56
	.cfi_offset %r12, -48
	.cfi_offset %r13, -40
	.cfi_offset %r14, -32
	.cfi_offset %r15, -24
	movq	%rsi, %rbx
	movq	%rdi, %r15
	vmovups	(%rdi), %ymm0
	vmovups	16(%rdi), %ymm1
	vmovups	%ymm1, -112(%rbp)
	vmovups	%ymm0, -128(%rbp)
	movb	$0, -56(%rbp)
	movq	$0, -80(%rbp)
	movq	256(%rsi), %rax
	movq	264(%rax), %r14
	movq	256(%rax), %rax
	movq	272(%rsi), %rsi
	movq	%r14, %rcx
	subq	%rax, %rcx
	cmpq	%rsi, %rcx
	movl	%edx, -44(%rbp)
	jl	LBB26_4
	addq	%rsi, %rsi
	jb	LBB26_7
	leaq	256(%rbx), %rdi
Ltmp1118:
	vzeroupper
	callq	__ZN15crossbeam_deque15Worker$LT$T$GT$6resize17h34dc55adb45f7cc1E
Ltmp1119:
	movq	272(%rbx), %rsi
LBB26_4:
	subq	$1, %rsi
	jb	LBB26_5
	movq	264(%rbx), %rax
	andq	%r14, %rsi
	shlq	$4, %rsi
	leaq	-128(%rbp), %r12
	movq	%r12, (%rax,%rsi)
	leaq	__ZN83_$LT$rayon_core..job..StackJob$LT$L$C$F$C$R$GT$$u20$as$u20$rayon_core..job..Job$GT$7execute17h14d9cc91c3586ce4E(%rip), %r13
	movq	%r13, 8(%rax,%rsi)
	##MEMBARRIER
	movq	256(%rbx), %rax
	incq	%r14
	movq	%r14, 264(%rax)
	movl	$408, %edi
	addq	304(%rbx), %rdi
	movq	288(%rbx), %rsi
Ltmp1122:
	vzeroupper
	callq	__ZN10rayon_core5sleep5Sleep6tickle17h00d06f732555dc32E
Ltmp1123:
	movq	48(%r15), %rax
	movq	56(%r15), %rcx
	movq	64(%r15), %r8
	movq	72(%r15), %r9
	movq	80(%r15), %rsi
	movq	(%rax), %rdi
	movq	(%rcx), %rdx
	movq	8(%rcx), %rcx
Ltmp1124:
	movq	%rsi, (%rsp)
	movzbl	-44(%rbp), %r14d
	movl	%r14d, %esi
	callq	__ZN5rayon4iter8plumbing24bridge_producer_consumer6helper17h7832ac13ae304cccE
Ltmp1125:
LBB26_12:
	leaq	-56(%rbp), %r15
	movb	-56(%rbp), %al
	testb	%al, %al
	je	LBB26_14
	jmp	LBB26_18
	.p2align	4, 0x90
LBB26_23:
Ltmp1134:
	movq	%rbx, %rdi
	movq	%rax, %rsi
	callq	__ZN10rayon_core8registry12WorkerThread7execute17h2d3f3a8dd2af2716E
Ltmp1135:
	movzbl	-56(%rbp), %eax
	testb	%al, %al
	jne	LBB26_18
LBB26_14:
Ltmp1132:
	movq	%rbx, %rdi
	callq	__ZN10rayon_core8registry12WorkerThread14take_local_job17h123bfb54be8597fdE
Ltmp1133:
	testq	%rdx, %rdx
	je	LBB26_16
	cmpq	%r12, %rax
	jne	LBB26_23
	cmpq	%r13, %rdx
	jne	LBB26_23
	vmovups	-128(%rbp), %ymm0
	vmovups	-96(%rbp), %ymm1
	vmovups	-80(%rbp), %ymm2
	vmovups	%ymm0, -208(%rbp)
	vmovups	%ymm1, -176(%rbp)
	vmovups	%ymm2, -160(%rbp)
	movq	-208(%rbp), %rax
	testq	%rax, %rax
	je	LBB26_25
	movq	-200(%rbp), %rcx
	movq	(%rax), %rdi
	subq	(%rcx), %rdi
	jb	LBB26_27
	movq	-192(%rbp), %rax
	movq	-184(%rbp), %r8
	movq	-176(%rbp), %r9
	movq	-168(%rbp), %rsi
	movq	(%rax), %rdx
	movq	8(%rax), %rcx
Ltmp1137:
	movq	%rsi, (%rsp)
	movl	%r14d, %esi
	vzeroupper
	callq	__ZN5rayon4iter8plumbing24bridge_producer_consumer6helper17h7832ac13ae304cccE
Ltmp1138:
	cmpq	$2, -160(%rbp)
	jb	LBB26_33
	movq	-152(%rbp), %r15
	movq	-144(%rbp), %rbx
Ltmp1139:
	movq	%r15, %rdi
	callq	*(%rbx)
Ltmp1140:
	movq	8(%rbx), %rsi
	testq	%rsi, %rsi
	je	LBB26_33
	movq	16(%rbx), %rdx
	movq	%r15, %rdi
	callq	___rust_dealloc
	jmp	LBB26_33
LBB26_16:
	movb	-56(%rbp), %al
	testb	%al, %al
	jne	LBB26_18
Ltmp1150:
	movq	%rbx, %rdi
	movq	%r15, %rsi
	callq	__ZN10rayon_core8registry12WorkerThread15wait_until_cold17hf0fae827bbf09742E
Ltmp1151:
LBB26_18:
	movq	-80(%rbp), %rax
	cmpq	$1, %rax
	jne	LBB26_19
LBB26_33:
	addq	$184, %rsp
	popq	%rbx
	popq	%r12
	popq	%r13
	popq	%r14
	popq	%r15
	popq	%rbp
	retq
LBB26_19:
	testq	%rax, %rax
	je	LBB26_35
	movq	-72(%rbp), %rdi
	movq	-64(%rbp), %rsi
Ltmp1153:
	callq	__ZN10rayon_core6unwind16resume_unwinding17h47c2e39f90248736E
Ltmp1154:
	jmp	LBB26_6
LBB26_5:
Ltmp1158:
	leaq	_str.1(%rip), %rdi
	leaq	l___unnamed_1(%rip), %rdx
	movl	$33, %esi
	vzeroupper
	callq	__ZN4core9panicking5panic17h736ee47a631475c0E
Ltmp1159:
	jmp	LBB26_6
LBB26_35:
Ltmp1155:
	leaq	l___unnamed_2(%rip), %rdi
	leaq	l___unnamed_3(%rip), %rdx
	movl	$40, %esi
	callq	__ZN3std9panicking11begin_panic17h853288e601a61dd9E
Ltmp1156:
	jmp	LBB26_6
LBB26_7:
Ltmp1120:
	leaq	_str.3(%rip), %rdi
	leaq	l___unnamed_4(%rip), %rdx
	movl	$33, %esi
	vzeroupper
	callq	__ZN4core9panicking5panic17h736ee47a631475c0E
Ltmp1121:
	jmp	LBB26_6
LBB26_25:
Ltmp1144:
	leaq	l___unnamed_5(%rip), %rdi
	leaq	l___unnamed_6(%rip), %rdx
	movl	$43, %esi
	vzeroupper
	callq	__ZN4core9panicking5panic17h736ee47a631475c0E
Ltmp1145:
	jmp	LBB26_6
LBB26_27:
Ltmp1142:
	leaq	_str.1(%rip), %rdi
	leaq	l___unnamed_7(%rip), %rdx
	movl	$33, %esi
	vzeroupper
	callq	__ZN4core9panicking5panic17h736ee47a631475c0E
Ltmp1143:
LBB26_6:
	ud2
LBB26_46:
Ltmp1157:
	jmp	LBB26_40
LBB26_38:
Ltmp1152:
	jmp	LBB26_45
LBB26_36:
Ltmp1141:
	movq	%rax, %r14
	movq	%r15, %rdi
	movq	%rbx, %rsi
	callq	__ZN5alloc5alloc8box_free17h601baa71c821b98cE
	movq	%r14, %rdi
	callq	__Unwind_Resume
	ud2
LBB26_34:
Ltmp1146:
	movq	%rax, %r14
	leaq	-160(%rbp), %rdi
Ltmp1147:
	callq	__ZN4core3ptr13drop_in_place17hf1c6e0d6c6000ae2E
Ltmp1148:
	jmp	LBB26_41
LBB26_39:
Ltmp1149:
LBB26_40:
	movq	%rax, %r14
	movq	%r14, %rdi
	callq	__Unwind_Resume
	ud2
LBB26_10:
Ltmp1126:
Ltmp1127:
	movq	%rax, %rdi
	callq	__ZN3std9panicking3try7cleanup17hd895f7beef0a7dadE
Ltmp1128:
	testq	%rax, %rax
	je	LBB26_12
	movq	%rdx, %rcx
	leaq	-56(%rbp), %rsi
Ltmp1129:
	movq	%rbx, %rdi
	movq	%rax, %rdx
	callq	__ZN10rayon_core4join23join_recover_from_panic17h65e0dcb6d5862f08E
Ltmp1130:
	jmp	LBB26_6
LBB26_44:
Ltmp1131:
	jmp	LBB26_45
LBB26_42:
Ltmp1160:
	jmp	LBB26_45
LBB26_37:
Ltmp1136:
LBB26_45:
	movq	%rax, %r14
	leaq	-128(%rbp), %rdi
	callq	__ZN4core3ptr13drop_in_place17h15e4c257c89b0e89E
LBB26_41:
	movq	%r14, %rdi
	callq	__Unwind_Resume
	ud2
Lfunc_end26:
	.cfi_endproc
	.section	__TEXT,__gcc_except_tab
	.p2align	2
GCC_except_table26:
Lexception26:
	.byte	255
	.byte	155
	.uleb128 Lttbase26-Lttbaseref26
Lttbaseref26:
	.byte	1
	.uleb128 Lcst_end26-Lcst_begin26
Lcst_begin26:
	.uleb128 Ltmp1118-Lfunc_begin26
	.uleb128 Ltmp1123-Ltmp1118
	.uleb128 Ltmp1160-Lfunc_begin26
	.byte	0
	.uleb128 Ltmp1124-Lfunc_begin26
	.uleb128 Ltmp1125-Ltmp1124
	.uleb128 Ltmp1126-Lfunc_begin26
	.byte	3
	.uleb128 Ltmp1134-Lfunc_begin26
	.uleb128 Ltmp1133-Ltmp1134
	.uleb128 Ltmp1136-Lfunc_begin26
	.byte	0
	.uleb128 Ltmp1137-Lfunc_begin26
	.uleb128 Ltmp1138-Ltmp1137
	.uleb128 Ltmp1146-Lfunc_begin26
	.byte	0
	.uleb128 Ltmp1139-Lfunc_begin26
	.uleb128 Ltmp1140-Ltmp1139
	.uleb128 Ltmp1141-Lfunc_begin26
	.byte	0
	.uleb128 Ltmp1150-Lfunc_begin26
	.uleb128 Ltmp1151-Ltmp1150
	.uleb128 Ltmp1152-Lfunc_begin26
	.byte	0
	.uleb128 Ltmp1153-Lfunc_begin26
	.uleb128 Ltmp1154-Ltmp1153
	.uleb128 Ltmp1157-Lfunc_begin26
	.byte	0
	.uleb128 Ltmp1158-Lfunc_begin26
	.uleb128 Ltmp1159-Ltmp1158
	.uleb128 Ltmp1160-Lfunc_begin26
	.byte	0
	.uleb128 Ltmp1155-Lfunc_begin26
	.uleb128 Ltmp1156-Ltmp1155
	.uleb128 Ltmp1157-Lfunc_begin26
	.byte	0
	.uleb128 Ltmp1120-Lfunc_begin26
	.uleb128 Ltmp1121-Ltmp1120
	.uleb128 Ltmp1160-Lfunc_begin26
	.byte	0
	.uleb128 Ltmp1144-Lfunc_begin26
	.uleb128 Ltmp1143-Ltmp1144
	.uleb128 Ltmp1146-Lfunc_begin26
	.byte	0
	.uleb128 Ltmp1143-Lfunc_begin26
	.uleb128 Ltmp1147-Ltmp1143
	.byte	0
	.byte	0
	.uleb128 Ltmp1147-Lfunc_begin26
	.uleb128 Ltmp1148-Ltmp1147
	.uleb128 Ltmp1149-Lfunc_begin26
	.byte	0
	.uleb128 Ltmp1148-Lfunc_begin26
	.uleb128 Ltmp1127-Ltmp1148
	.byte	0
	.byte	0
	.uleb128 Ltmp1127-Lfunc_begin26
	.uleb128 Ltmp1128-Ltmp1127
	.uleb128 Ltmp1160-Lfunc_begin26
	.byte	0
	.uleb128 Ltmp1129-Lfunc_begin26
	.uleb128 Ltmp1130-Ltmp1129
	.uleb128 Ltmp1131-Lfunc_begin26
	.byte	0
	.uleb128 Ltmp1130-Lfunc_begin26
	.uleb128 Lfunc_end26-Ltmp1130
	.byte	0
	.byte	0
Lcst_end26:
	.byte	0
	.byte	0
	.byte	1
	.byte	125
	.p2align	2
	.long	0
Lttbase26:
	.p2align	2

	.section	__TEXT,__text,regular,pure_instructions
	.p2align	4, 0x90
__ZN10rayon_core4join12join_context28_$u7b$$u7b$closure$u7d$$u7d$17hfb786e3748f8012eE:
Lfunc_begin27:
	.cfi_startproc
	.cfi_personality 155, _rust_eh_personality
	.cfi_lsda 16, Lexception27
	pushq	%rbp
	.cfi_def_cfa_offset 16
	.cfi_offset %rbp, -16
	movq	%rsp, %rbp
	.cfi_def_cfa_register %rbp
	pushq	%r15
	pushq	%r14
	pushq	%r13
	pushq	%r12
	pushq	%rbx
	andq	$-64, %rsp
	subq	$704, %rsp
	.cfi_offset %rbx, -56
	.cfi_offset %r12, -48
	.cfi_offset %r13, -40
	.cfi_offset %r14, -32
	.cfi_offset %r15, -24
	movq	%rdx, %rbx
	movq	%rsi, %r12
	movq	%rdi, 56(%rsp)
	movb	$0, 376(%rsp)
	vmovups	(%rsi), %ymm0
	vmovups	24(%rsi), %ymm1
	vmovaps	%ymm0, 320(%rsp)
	vmovups	%ymm1, 344(%rsp)
	movq	$0, 192(%rsp)
	movq	256(%rdx), %rax
	movq	264(%rax), %r15
	movq	256(%rax), %rax
	movq	272(%rdx), %rsi
	movq	%r15, %rdx
	subq	%rax, %rdx
	cmpq	%rsi, %rdx
	movl	%ecx, 160(%rsp)
	jl	LBB27_4
	addq	%rsi, %rsi
	jb	LBB27_7
	leaq	256(%rbx), %rdi
Ltmp1161:
	vzeroupper
	callq	__ZN15crossbeam_deque15Worker$LT$T$GT$6resize17h34dc55adb45f7cc1E
Ltmp1162:
	movq	272(%rbx), %rsi
LBB27_4:
	subq	$1, %rsi
	jb	LBB27_5
	movq	264(%rbx), %rax
	andq	%r15, %rsi
	shlq	$4, %rsi
	leaq	192(%rsp), %r13
	movq	%r13, (%rax,%rsi)
	leaq	__ZN83_$LT$rayon_core..job..StackJob$LT$L$C$F$C$R$GT$$u20$as$u20$rayon_core..job..Job$GT$7execute17h607ca98c39182f5cE(%rip), %r14
	movq	%r14, 8(%rax,%rsi)
	##MEMBARRIER
	movq	256(%rbx), %rax
	incq	%r15
	movq	%r15, 264(%rax)
	movl	$408, %edi
	addq	304(%rbx), %rdi
	movq	288(%rbx), %rsi
Ltmp1165:
	vzeroupper
	callq	__ZN10rayon_core5sleep5Sleep6tickle17h00d06f732555dc32E
Ltmp1166:
	vmovups	56(%r12), %ymm0
	vmovups	72(%r12), %ymm1
	vmovaps	%ymm0, 64(%rsp)
	vmovups	%ymm1, 80(%rsp)
	movl	160(%rsp), %edi
	movb	%dil, 112(%rsp)
	movq	64(%rsp), %rax
	movq	72(%rsp), %rdx
	movq	96(%rsp), %r10
	movq	104(%rsp), %r9
	movq	(%rax), %rsi
	movq	(%rdx), %rcx
	movq	8(%rdx), %r8
	movq	%r10, 48(%rsp)
	vmovaps	80(%rsp), %xmm0
	vmovaps	%xmm0, 32(%rsp)
Ltmp1167:
	movq	%r9, (%rsp)
	movzbl	%dil, %r15d
	leaq	384(%rsp), %rdi
	leaq	32(%rsp), %r9
	movl	%r15d, %edx
	vzeroupper
	callq	__ZN5rayon4iter8plumbing24bridge_producer_consumer6helper17h9345e3cb89fa4930E
Ltmp1168:
	vmovaps	384(%rsp), %ymm0
	vmovaps	%ymm0, 160(%rsp)
	vmovaps	416(%rsp), %ymm0
	vmovaps	%ymm0, 608(%rsp)
	leaq	376(%rsp), %r12
	movb	376(%rsp), %al
	testb	%al, %al
	je	LBB27_12
	jmp	LBB27_16
	.p2align	4, 0x90
LBB27_23:
Ltmp1177:
	movq	%rbx, %rdi
	movq	%rax, %rsi
	callq	__ZN10rayon_core8registry12WorkerThread7execute17h2d3f3a8dd2af2716E
Ltmp1178:
	movzbl	376(%rsp), %eax
	testb	%al, %al
	jne	LBB27_16
LBB27_12:
Ltmp1175:
	movq	%rbx, %rdi
	vzeroupper
	callq	__ZN10rayon_core8registry12WorkerThread14take_local_job17h123bfb54be8597fdE
Ltmp1176:
	testq	%rdx, %rdx
	je	LBB27_14
	cmpq	%r13, %rax
	jne	LBB27_23
	cmpq	%r14, %rdx
	jne	LBB27_23
	vmovaps	352(%rsp), %ymm0
	vmovaps	%ymm0, 544(%rsp)
	vmovaps	320(%rsp), %ymm0
	vmovaps	%ymm0, 512(%rsp)
	vmovaps	224(%rsp), %ymm0
	vmovaps	256(%rsp), %ymm1
	vmovaps	288(%rsp), %ymm2
	vmovaps	%ymm2, 480(%rsp)
	vmovaps	%ymm1, 448(%rsp)
	vmovaps	%ymm0, 416(%rsp)
	vmovaps	192(%rsp), %ymm0
	vmovaps	%ymm0, 384(%rsp)
	movq	512(%rsp), %rsi
	movq	520(%rsp), %rcx
	movq	528(%rsp), %rax
	vmovups	536(%rsp), %xmm0
	vmovaps	%xmm0, 64(%rsp)
	movq	552(%rsp), %rdx
	movq	%rdx, 80(%rsp)
	testq	%rsi, %rsi
	je	LBB27_25
	movq	560(%rsp), %rdx
	movq	80(%rsp), %rdi
	movq	%rdi, 592(%rsp)
	vmovaps	64(%rsp), %xmm0
	vmovaps	%xmm0, 576(%rsp)
	movq	%rdi, 144(%rsp)
	vmovaps	%xmm0, 128(%rsp)
	movq	(%rsi), %rsi
	subq	(%rcx), %rsi
	jb	LBB27_33
	movq	(%rax), %rcx
	movq	8(%rax), %r8
	movq	144(%rsp), %rax
	movq	%rax, 48(%rsp)
	vmovaps	128(%rsp), %xmm0
	vmovaps	%xmm0, 32(%rsp)
Ltmp1180:
	movq	%rdx, (%rsp)
	leaq	64(%rsp), %rdi
	leaq	32(%rsp), %r9
	movl	%r15d, %edx
	vzeroupper
	callq	__ZN5rayon4iter8plumbing24bridge_producer_consumer6helper17h9345e3cb89fa4930E
Ltmp1181:
	cmpq	$2, 384(%rsp)
	jb	LBB27_32
	movq	392(%rsp), %r15
	movq	400(%rsp), %rbx
Ltmp1182:
	movq	%r15, %rdi
	callq	*(%rbx)
Ltmp1183:
	movq	8(%rbx), %rsi
	testq	%rsi, %rsi
	je	LBB27_32
	movq	16(%rbx), %rdx
	movq	%r15, %rdi
	callq	___rust_dealloc
LBB27_32:
	vmovaps	64(%rsp), %ymm0
	vmovaps	96(%rsp), %ymm1
	jmp	LBB27_37
LBB27_14:
	movb	376(%rsp), %al
	testb	%al, %al
	jne	LBB27_16
Ltmp1193:
	movq	%rbx, %rdi
	movq	%r12, %rsi
	callq	__ZN10rayon_core8registry12WorkerThread15wait_until_cold17hf0fae827bbf09742E
Ltmp1194:
LBB27_16:
	movq	192(%rsp), %rax
	cmpq	$1, %rax
	jne	LBB27_17
	vmovaps	256(%rsp), %ymm0
	vmovaps	288(%rsp), %ymm1
LBB27_37:
	movq	56(%rsp), %rax
	vmovaps	160(%rsp), %ymm2
	vmovaps	%ymm2, (%rax)
	vmovaps	608(%rsp), %ymm2
	vmovaps	%ymm2, 32(%rax)
	vmovaps	%ymm0, 64(%rax)
	vmovaps	%ymm1, 96(%rax)
	leaq	-40(%rbp), %rsp
	popq	%rbx
	popq	%r12
	popq	%r13
	popq	%r14
	popq	%r15
	popq	%rbp
	vzeroupper
	retq
LBB27_17:
	testq	%rax, %rax
	je	LBB27_35
	movq	200(%rsp), %rdi
	movq	208(%rsp), %rsi
Ltmp1196:
	vzeroupper
	callq	__ZN10rayon_core6unwind16resume_unwinding17h47c2e39f90248736E
Ltmp1197:
	jmp	LBB27_6
LBB27_5:
Ltmp1201:
	leaq	_str.1(%rip), %rdi
	leaq	l___unnamed_1(%rip), %rdx
	movl	$33, %esi
	vzeroupper
	callq	__ZN4core9panicking5panic17h736ee47a631475c0E
Ltmp1202:
	jmp	LBB27_6
LBB27_35:
Ltmp1198:
	leaq	l___unnamed_2(%rip), %rdi
	leaq	l___unnamed_3(%rip), %rdx
	movl	$40, %esi
	vzeroupper
	callq	__ZN3std9panicking11begin_panic17h853288e601a61dd9E
Ltmp1199:
	jmp	LBB27_6
LBB27_7:
Ltmp1163:
	leaq	_str.3(%rip), %rdi
	leaq	l___unnamed_4(%rip), %rdx
	movl	$33, %esi
	vzeroupper
	callq	__ZN4core9panicking5panic17h736ee47a631475c0E
Ltmp1164:
	jmp	LBB27_6
LBB27_25:
Ltmp1187:
	leaq	l___unnamed_5(%rip), %rdi
	leaq	l___unnamed_6(%rip), %rdx
	movl	$43, %esi
	vzeroupper
	callq	__ZN4core9panicking5panic17h736ee47a631475c0E
Ltmp1188:
	jmp	LBB27_6
LBB27_33:
Ltmp1185:
	leaq	_str.1(%rip), %rdi
	leaq	l___unnamed_7(%rip), %rdx
	movl	$33, %esi
	vzeroupper
	callq	__ZN4core9panicking5panic17h736ee47a631475c0E
Ltmp1186:
	jmp	LBB27_6
LBB27_47:
Ltmp1200:
	jmp	LBB27_42
LBB27_40:
Ltmp1195:
	jmp	LBB27_46
LBB27_38:
Ltmp1184:
	movq	%rax, %r14
	movq	%r15, %rdi
	movq	%rbx, %rsi
	callq	__ZN5alloc5alloc8box_free17h601baa71c821b98cE
	movq	%r14, %rdi
	callq	__Unwind_Resume
	ud2
LBB27_34:
Ltmp1189:
	movq	%rax, %r14
Ltmp1190:
	leaq	384(%rsp), %rdi
	callq	__ZN4core3ptr13drop_in_place17h04000df5dc98c10bE
Ltmp1191:
	jmp	LBB27_43
LBB27_41:
Ltmp1192:
LBB27_42:
	movq	%rax, %r14
	movq	%r14, %rdi
	callq	__Unwind_Resume
	ud2
LBB27_19:
Ltmp1169:
Ltmp1170:
	movq	%rax, %rdi
	callq	__ZN3std9panicking3try7cleanup17hd895f7beef0a7dadE
Ltmp1171:
	movq	%rdx, %rcx
	leaq	376(%rsp), %rsi
Ltmp1172:
	movq	%rbx, %rdi
	movq	%rax, %rdx
	callq	__ZN10rayon_core4join23join_recover_from_panic17h65e0dcb6d5862f08E
Ltmp1173:
LBB27_6:
	ud2
LBB27_45:
Ltmp1174:
	jmp	LBB27_46
LBB27_44:
Ltmp1203:
	jmp	LBB27_46
LBB27_39:
Ltmp1179:
LBB27_46:
	movq	%rax, %r14
	leaq	192(%rsp), %rdi
	callq	__ZN4core3ptr13drop_in_place17h04000df5dc98c10bE
LBB27_43:
	movq	%r14, %rdi
	callq	__Unwind_Resume
	ud2
Lfunc_end27:
	.cfi_endproc
	.section	__TEXT,__gcc_except_tab
	.p2align	2
GCC_except_table27:
Lexception27:
	.byte	255
	.byte	155
	.uleb128 Lttbase27-Lttbaseref27
Lttbaseref27:
	.byte	1
	.uleb128 Lcst_end27-Lcst_begin27
Lcst_begin27:
	.uleb128 Ltmp1161-Lfunc_begin27
	.uleb128 Ltmp1166-Ltmp1161
	.uleb128 Ltmp1203-Lfunc_begin27
	.byte	0
	.uleb128 Ltmp1167-Lfunc_begin27
	.uleb128 Ltmp1168-Ltmp1167
	.uleb128 Ltmp1169-Lfunc_begin27
	.byte	3
	.uleb128 Ltmp1177-Lfunc_begin27
	.uleb128 Ltmp1176-Ltmp1177
	.uleb128 Ltmp1179-Lfunc_begin27
	.byte	0
	.uleb128 Ltmp1180-Lfunc_begin27
	.uleb128 Ltmp1181-Ltmp1180
	.uleb128 Ltmp1189-Lfunc_begin27
	.byte	0
	.uleb128 Ltmp1182-Lfunc_begin27
	.uleb128 Ltmp1183-Ltmp1182
	.uleb128 Ltmp1184-Lfunc_begin27
	.byte	0
	.uleb128 Ltmp1193-Lfunc_begin27
	.uleb128 Ltmp1194-Ltmp1193
	.uleb128 Ltmp1195-Lfunc_begin27
	.byte	0
	.uleb128 Ltmp1196-Lfunc_begin27
	.uleb128 Ltmp1197-Ltmp1196
	.uleb128 Ltmp1200-Lfunc_begin27
	.byte	0
	.uleb128 Ltmp1201-Lfunc_begin27
	.uleb128 Ltmp1202-Ltmp1201
	.uleb128 Ltmp1203-Lfunc_begin27
	.byte	0
	.uleb128 Ltmp1198-Lfunc_begin27
	.uleb128 Ltmp1199-Ltmp1198
	.uleb128 Ltmp1200-Lfunc_begin27
	.byte	0
	.uleb128 Ltmp1163-Lfunc_begin27
	.uleb128 Ltmp1164-Ltmp1163
	.uleb128 Ltmp1203-Lfunc_begin27
	.byte	0
	.uleb128 Ltmp1187-Lfunc_begin27
	.uleb128 Ltmp1186-Ltmp1187
	.uleb128 Ltmp1189-Lfunc_begin27
	.byte	0
	.uleb128 Ltmp1186-Lfunc_begin27
	.uleb128 Ltmp1190-Ltmp1186
	.byte	0
	.byte	0
	.uleb128 Ltmp1190-Lfunc_begin27
	.uleb128 Ltmp1191-Ltmp1190
	.uleb128 Ltmp1192-Lfunc_begin27
	.byte	0
	.uleb128 Ltmp1191-Lfunc_begin27
	.uleb128 Ltmp1170-Ltmp1191
	.byte	0
	.byte	0
	.uleb128 Ltmp1170-Lfunc_begin27
	.uleb128 Ltmp1171-Ltmp1170
	.uleb128 Ltmp1203-Lfunc_begin27
	.byte	0
	.uleb128 Ltmp1172-Lfunc_begin27
	.uleb128 Ltmp1173-Ltmp1172
	.uleb128 Ltmp1174-Lfunc_begin27
	.byte	0
	.uleb128 Ltmp1173-Lfunc_begin27
	.uleb128 Lfunc_end27-Ltmp1173
	.byte	0
	.byte	0
Lcst_end27:
	.byte	0
	.byte	0
	.byte	1
	.byte	125
	.p2align	2
	.long	0
Lttbase27:
	.p2align	2

	.section	__TEXT,__text,regular,pure_instructions
	.p2align	4, 0x90
__ZN10rayon_core8registry12WorkerThread14take_local_job17h123bfb54be8597fdE:
	.cfi_startproc
	pushq	%rbp
	.cfi_def_cfa_offset 16
	.cfi_offset %rbp, -16
	movq	%rsp, %rbp
	.cfi_def_cfa_register %rbp
	pushq	%r15
	pushq	%r14
	pushq	%rbx
	pushq	%rax
	.cfi_offset %rbx, -40
	.cfi_offset %r14, -32
	.cfi_offset %r15, -24
	movq	256(%rdi), %rsi
	movq	264(%rsi), %rcx
	movq	256(%rsi), %rdx
	movq	%rcx, %rax
	subq	%rdx, %rax
	testq	%rax, %rax
	jle	LBB28_1
	cmpb	$1, 280(%rdi)
	jne	LBB28_8
	leaq	-1(%rcx), %rdx
	movq	%rdx, 264(%rsi)
	mfence
	movq	256(%rdi), %r8
	movq	256(%r8), %rax
	movq	%rdx, %r9
	subq	%rax, %r9
	js	LBB28_13
	movq	272(%rdi), %rsi
	movq	%rsi, %rbx
	subq	$1, %rbx
	jb	LBB28_16
	movq	264(%rdi), %r10
	andq	%rdx, %rbx
	shlq	$4, %rbx
	movq	(%r10,%rbx), %r14
	movq	8(%r10,%rbx), %r15
	testq	%r9, %r9
	je	LBB28_14
	cmpq	$65, %rsi
	jb	LBB28_15
	movq	%rsi, %rax
	sarq	$63, %rax
	shrq	$62, %rax
	addq	%rsi, %rax
	sarq	$2, %rax
	cmpq	%rax, %r9
	jge	LBB28_15
	jmp	LBB28_12
LBB28_1:
	xorl	%r15d, %r15d
	jmp	LBB28_15
LBB28_8:
	movl	$1, %edx
	lock		xaddq	%rdx, 256(%rsi)
	movq	%rdx, %rsi
	notq	%rsi
	addq	%rsi, %rcx
	js	LBB28_17
	movq	272(%rdi), %rsi
	movq	%rsi, %rcx
	subq	$1, %rcx
	jb	LBB28_16
	movq	264(%rdi), %rbx
	andq	%rdx, %rcx
	shlq	$4, %rcx
	movq	(%rbx,%rcx), %r14
	movq	8(%rbx,%rcx), %r15
	cmpq	$65, %rsi
	jb	LBB28_15
	movq	%rsi, %rcx
	sarq	$63, %rcx
	shrq	$62, %rcx
	addq	%rsi, %rcx
	sarq	$2, %rcx
	cmpq	%rcx, %rax
	jg	LBB28_15
LBB28_12:
	shrq	%rsi
	addq	$256, %rdi
	callq	__ZN15crossbeam_deque15Worker$LT$T$GT$6resize17h34dc55adb45f7cc1E
	jmp	LBB28_15
LBB28_13:
	movq	%rcx, 264(%r8)
	xorl	%r15d, %r15d
	jmp	LBB28_15
LBB28_17:
	movq	256(%rdi), %rax
	movq	%rdx, 256(%rax)
	xorl	%r15d, %r15d
	jmp	LBB28_15
LBB28_14:
	xorl	%edx, %edx
	leaq	1(%rax), %rsi
	lock		cmpxchgq	%rsi, 256(%r8)
	cmovneq	%rdx, %r15
	movq	256(%rdi), %rax
	movq	%rcx, 264(%rax)
LBB28_15:
	movq	%r14, %rax
	movq	%r15, %rdx
	addq	$8, %rsp
	popq	%rbx
	popq	%r14
	popq	%r15
	popq	%rbp
	retq
LBB28_16:
	leaq	_str.1(%rip), %rdi
	leaq	l___unnamed_1(%rip), %rdx
	movl	$33, %esi
	callq	__ZN4core9panicking5panic17h736ee47a631475c0E
	.cfi_endproc

	.p2align	4, 0x90
__ZN10rayon_core8registry12WorkerThread15wait_until_cold17hf0fae827bbf09742E:
Lfunc_begin28:
	.cfi_startproc
	.cfi_personality 155, _rust_eh_personality
	.cfi_lsda 16, Lexception28
	pushq	%rbp
	.cfi_def_cfa_offset 16
	.cfi_offset %rbp, -16
	movq	%rsp, %rbp
	.cfi_def_cfa_register %rbp
	pushq	%r15
	pushq	%r14
	pushq	%r13
	pushq	%r12
	pushq	%rbx
	pushq	%rax
	.cfi_offset %rbx, -56
	.cfi_offset %r12, -48
	.cfi_offset %r13, -40
	.cfi_offset %r14, -32
	.cfi_offset %r15, -24
	movb	(%rsi), %al
	testb	%al, %al
	jne	LBB29_28
	movq	%rsi, %r14
	movq	%rdi, %r15
	xorl	%r13d, %r13d
	.p2align	4, 0x90
LBB29_2:
Ltmp1204:
	movq	%r15, %rdi
	callq	__ZN10rayon_core8registry12WorkerThread14take_local_job17h123bfb54be8597fdE
Ltmp1205:
	movq	%rdx, %rbx
	testq	%rdx, %rdx
	jne	LBB29_8
Ltmp1206:
	movq	%r15, %rdi
	callq	__ZN10rayon_core8registry12WorkerThread5steal17hd186ba5e84ac41c8E
Ltmp1207:
	movq	%rdx, %rbx
	testq	%rdx, %rdx
	jne	LBB29_8
	movq	288(%r15), %rsi
	movq	304(%r15), %rdi
	subq	$-128, %rdi
Ltmp1208:
	callq	__ZN10rayon_core8registry8Registry16pop_injected_job17h92493cc3be278c4fE
Ltmp1209:
	movq	%rdx, %rbx
	testq	%rdx, %rdx
	je	LBB29_12
	.p2align	4, 0x90
LBB29_8:
	movq	%rax, %r12
	cmpq	$33, %r13
	jb	LBB29_10
	movq	288(%r15), %rsi
	movq	304(%r15), %rdi
	movl	$408, %eax
	addq	%rax, %rdi
Ltmp1210:
	callq	__ZN10rayon_core5sleep5Sleep6tickle17h00d06f732555dc32E
Ltmp1211:
LBB29_10:
Ltmp1212:
	movq	%r15, %rdi
	movq	%r12, %rsi
	movq	%rbx, %rdx
	callq	__ZN10rayon_core8registry12WorkerThread7execute17h2d3f3a8dd2af2716E
Ltmp1213:
	xorl	%r13d, %r13d
	movzbl	(%r14), %eax
	testb	%al, %al
	je	LBB29_2
	jmp	LBB29_26
LBB29_12:
	movq	304(%r15), %rbx
	movl	$408, %eax
	addq	%rax, %rbx
	cmpq	$32, %r13
	jae	LBB29_13
Ltmp1224:
	callq	__ZN3std6thread9yield_now17h5be99eab200ba878E
Ltmp1225:
	incq	%r13
	movzbl	(%r14), %eax
	testb	%al, %al
	je	LBB29_2
	jmp	LBB29_26
LBB29_13:
	movq	288(%r15), %r12
	jne	LBB29_14
Ltmp1220:
	callq	__ZN3std6thread9yield_now17h5be99eab200ba878E
Ltmp1221:
Ltmp1222:
	movq	%rbx, %rdi
	movq	%r12, %rsi
	callq	__ZN10rayon_core5sleep5Sleep10get_sleepy17h2d1649e7f480748dE
Ltmp1223:
	movzbl	%al, %r13d
	orq	$32, %r13
	movzbl	(%r14), %eax
	testb	%al, %al
	je	LBB29_2
	jmp	LBB29_26
LBB29_14:
	cmpq	$64, %r13
	jae	LBB29_15
Ltmp1216:
	callq	__ZN3std6thread9yield_now17h5be99eab200ba878E
Ltmp1217:
Ltmp1218:
	movq	%rbx, %rdi
	movq	%r12, %rsi
	callq	__ZN10rayon_core5sleep5Sleep12still_sleepy17hb19f6bc0b2efe2adE
Ltmp1219:
	incq	%r13
	testb	%al, %al
	movl	$0, %eax
	cmoveq	%rax, %r13
	movzbl	(%r14), %eax
	testb	%al, %al
	je	LBB29_2
	jmp	LBB29_26
LBB29_15:
Ltmp1214:
	movq	%rbx, %rdi
	movq	%r12, %rsi
	callq	__ZN10rayon_core5sleep5Sleep5sleep17h69a54e30b00311e5E
Ltmp1215:
	xorl	%r13d, %r13d
	movzbl	(%r14), %eax
	testb	%al, %al
	je	LBB29_2
LBB29_26:
	cmpq	$33, %r13
	jb	LBB29_28
	movq	288(%r15), %rsi
	movl	$408, %edi
	addq	304(%r15), %rdi
Ltmp1227:
	callq	__ZN10rayon_core5sleep5Sleep6tickle17h00d06f732555dc32E
Ltmp1228:
LBB29_28:
	addq	$8, %rsp
	popq	%rbx
	popq	%r12
	popq	%r13
	popq	%r14
	popq	%r15
	popq	%rbp
	retq
LBB29_30:
Ltmp1229:
	jmp	LBB29_31
LBB29_29:
Ltmp1226:
LBB29_31:
	movq	%rax, %rbx
	leaq	-48(%rbp), %rdi
	callq	__ZN4core3ptr13drop_in_place17hb7818da7f8c4942aE
	movq	%rbx, %rdi
	callq	__Unwind_Resume
	ud2
Lfunc_end28:
	.cfi_endproc
	.section	__TEXT,__gcc_except_tab
	.p2align	2
GCC_except_table29:
Lexception28:
	.byte	255
	.byte	255
	.byte	1
	.uleb128 Lcst_end28-Lcst_begin28
Lcst_begin28:
	.uleb128 Ltmp1204-Lfunc_begin28
	.uleb128 Ltmp1215-Ltmp1204
	.uleb128 Ltmp1226-Lfunc_begin28
	.byte	0
	.uleb128 Ltmp1227-Lfunc_begin28
	.uleb128 Ltmp1228-Ltmp1227
	.uleb128 Ltmp1229-Lfunc_begin28
	.byte	0
	.uleb128 Ltmp1228-Lfunc_begin28
	.uleb128 Lfunc_end28-Ltmp1228
	.byte	0
	.byte	0
Lcst_end28:
	.p2align	2

	.section	__TEXT,__text,regular,pure_instructions
	.p2align	4, 0x90
__ZN10rayon_core8registry8Registry14in_worker_cold17h0230adf386e20217E:
Lfunc_begin29:
	.cfi_startproc
	.cfi_personality 155, _rust_eh_personality
	.cfi_lsda 16, Lexception29
	pushq	%rbp
	.cfi_def_cfa_offset 16
	.cfi_offset %rbp, -16
	movq	%rsp, %rbp
	.cfi_def_cfa_register %rbp
	pushq	%r14
	pushq	%rbx
	andq	$-64, %rsp
	subq	$960, %rsp
	.cfi_offset %rbx, -32
	.cfi_offset %r14, -24
	movq	%rsi, %r14
	movq	%rdi, %rbx
	vmovups	152(%rdx), %ymm0
	vmovups	%ymm0, 344(%rsp)
	vmovups	128(%rdx), %ymm0
	vmovaps	%ymm0, 320(%rsp)
	vmovups	(%rdx), %ymm0
	vmovups	32(%rdx), %ymm1
	vmovups	64(%rdx), %ymm2
	vmovups	96(%rdx), %ymm3
	vmovaps	%ymm3, 288(%rsp)
	vmovaps	%ymm2, 256(%rsp)
	vmovaps	%ymm1, 224(%rsp)
	vmovaps	%ymm0, 192(%rsp)
	vzeroupper
	callq	__ZN10rayon_core8registry8Registry14in_worker_cold10LOCK_LATCH7__getit17hebd45496564c82e5E
	testq	%rax, %rax
	je	LBB30_11
	movq	%rax, 576(%rsp)
	vmovaps	192(%rsp), %ymm0
	vmovaps	224(%rsp), %ymm1
	vmovaps	256(%rsp), %ymm2
	vmovaps	288(%rsp), %ymm3
	vmovups	%ymm0, 584(%rsp)
	vmovups	%ymm1, 616(%rsp)
	vmovups	%ymm2, 648(%rsp)
	vmovups	%ymm3, 680(%rsp)
	vmovaps	320(%rsp), %ymm0
	vmovups	%ymm0, 712(%rsp)
	vmovups	344(%rsp), %ymm0
	vmovups	%ymm0, 736(%rsp)
	movq	$0, 384(%rsp)
	leaq	384(%rsp), %rax
	movq	%rax, (%rsp)
	leaq	__ZN83_$LT$rayon_core..job..StackJob$LT$L$C$F$C$R$GT$$u20$as$u20$rayon_core..job..Job$GT$7execute17h6f5ac582fe6f1885E(%rip), %rax
	movq	%rax, 8(%rsp)
Ltmp1230:
	movq	%rsp, %rsi
	movl	$1, %edx
	movq	%r14, %rdi
	vzeroupper
	callq	__ZN10rayon_core8registry8Registry6inject17h5506992ab536b1f6E
Ltmp1231:
	movq	576(%rsp), %rdi
Ltmp1232:
	callq	__ZN10rayon_core5latch9LockLatch14wait_and_reset17h04941717c3cc4bc7E
Ltmp1233:
	movq	384(%rsp), %rax
	movq	392(%rsp), %rdi
	movq	400(%rsp), %rsi
	movq	568(%rsp), %rcx
	movq	%rcx, 160(%rsp)
	vmovups	536(%rsp), %ymm0
	vmovaps	%ymm0, 128(%rsp)
	vmovups	504(%rsp), %ymm0
	vmovaps	%ymm0, 96(%rsp)
	vmovups	472(%rsp), %ymm0
	vmovaps	%ymm0, 64(%rsp)
	vmovups	440(%rsp), %ymm0
	vmovaps	%ymm0, 32(%rsp)
	vmovups	408(%rsp), %ymm0
	vmovaps	%ymm0, (%rsp)
	cmpq	$1, %rax
	jne	LBB30_4
	vmovups	40(%rsp), %ymm0
	vmovups	72(%rsp), %ymm1
	vmovups	104(%rsp), %ymm2
	vmovups	136(%rsp), %ymm3
	vmovaps	%ymm3, 864(%rsp)
	vmovups	%ymm0, 447(%rsp)
	vmovups	%ymm1, 479(%rsp)
	vmovups	%ymm2, 511(%rsp)
	vmovups	%ymm3, 543(%rsp)
	vmovups	%ymm3, 96(%rbx)
	vmovups	%ymm2, 64(%rbx)
	vmovups	%ymm1, 32(%rbx)
	vmovups	%ymm0, (%rbx)
	leaq	-16(%rbp), %rsp
	popq	%rbx
	popq	%r14
	popq	%rbp
	vzeroupper
	retq
LBB30_4:
	testq	%rax, %rax
	je	LBB30_7
Ltmp1235:
	vzeroupper
	callq	__ZN10rayon_core6unwind16resume_unwinding17h47c2e39f90248736E
Ltmp1236:
	jmp	LBB30_6
LBB30_11:
	leaq	l___unnamed_8(%rip), %rdi
	leaq	l___unnamed_9(%rip), %rcx
	leaq	l___unnamed_10(%rip), %r8
	leaq	192(%rsp), %rdx
	movl	$70, %esi
	callq	__ZN4core6result13unwrap_failed17hb5a510096a5fc85fE
LBB30_7:
Ltmp1237:
	leaq	l___unnamed_2(%rip), %rdi
	leaq	l___unnamed_3(%rip), %rdx
	movl	$40, %esi
	vzeroupper
	callq	__ZN3std9panicking11begin_panic17h853288e601a61dd9E
Ltmp1238:
LBB30_6:
	ud2
LBB30_10:
Ltmp1239:
	movq	%rax, %rbx
	movq	%rbx, %rdi
	callq	__Unwind_Resume
	ud2
LBB30_8:
Ltmp1234:
	movq	%rax, %rbx
	leaq	384(%rsp), %rdi
	callq	__ZN4core3ptr13drop_in_place17h04000df5dc98c10bE
	movq	%rbx, %rdi
	callq	__Unwind_Resume
	ud2
Lfunc_end29:
	.cfi_endproc
	.section	__TEXT,__gcc_except_tab
	.p2align	2
GCC_except_table30:
Lexception29:
	.byte	255
	.byte	255
	.byte	1
	.uleb128 Lcst_end29-Lcst_begin29
Lcst_begin29:
	.uleb128 Lfunc_begin29-Lfunc_begin29
	.uleb128 Ltmp1230-Lfunc_begin29
	.byte	0
	.byte	0
	.uleb128 Ltmp1230-Lfunc_begin29
	.uleb128 Ltmp1233-Ltmp1230
	.uleb128 Ltmp1234-Lfunc_begin29
	.byte	0
	.uleb128 Ltmp1235-Lfunc_begin29
	.uleb128 Ltmp1236-Ltmp1235
	.uleb128 Ltmp1239-Lfunc_begin29
	.byte	0
	.uleb128 Ltmp1236-Lfunc_begin29
	.uleb128 Ltmp1237-Ltmp1236
	.byte	0
	.byte	0
	.uleb128 Ltmp1237-Lfunc_begin29
	.uleb128 Ltmp1238-Ltmp1237
	.uleb128 Ltmp1239-Lfunc_begin29
	.byte	0
	.uleb128 Ltmp1238-Lfunc_begin29
	.uleb128 Lfunc_end29-Ltmp1238
	.byte	0
	.byte	0
Lcst_end29:
	.p2align	2

	.section	__TEXT,__text,regular,pure_instructions
	.p2align	4, 0x90
__ZN10rayon_core8registry8Registry14in_worker_cold17h0f22171cf420b7edE:
Lfunc_begin30:
	.cfi_startproc
	.cfi_personality 155, _rust_eh_personality
	.cfi_lsda 16, Lexception30
	pushq	%rbp
	.cfi_def_cfa_offset 16
	.cfi_offset %rbp, -16
	movq	%rsp, %rbp
	.cfi_def_cfa_register %rbp
	pushq	%r14
	pushq	%rbx
	andq	$-64, %rsp
	subq	$832, %rsp
	.cfi_offset %rbx, -32
	.cfi_offset %r14, -24
	movq	%rsi, %r14
	movq	%rdi, %rbx
	movq	96(%rdx), %rax
	movq	%rax, 288(%rsp)
	vmovups	(%rdx), %ymm0
	vmovups	32(%rdx), %ymm1
	vmovups	64(%rdx), %ymm2
	vmovaps	%ymm2, 256(%rsp)
	vmovaps	%ymm1, 224(%rsp)
	vmovaps	%ymm0, 192(%rsp)
	vzeroupper
	callq	__ZN10rayon_core8registry8Registry14in_worker_cold10LOCK_LATCH7__getit17hebd45496564c82e5E
	testq	%rax, %rax
	je	LBB31_11
	movq	%rax, 512(%rsp)
	vmovaps	192(%rsp), %ymm0
	vmovaps	224(%rsp), %ymm1
	vmovups	%ymm0, 520(%rsp)
	vmovaps	256(%rsp), %ymm0
	vmovups	%ymm1, 552(%rsp)
	vmovups	%ymm0, 584(%rsp)
	movq	288(%rsp), %rax
	movq	%rax, 616(%rsp)
	movq	$0, 320(%rsp)
	leaq	320(%rsp), %rax
	movq	%rax, (%rsp)
	leaq	__ZN83_$LT$rayon_core..job..StackJob$LT$L$C$F$C$R$GT$$u20$as$u20$rayon_core..job..Job$GT$7execute17h6bc5d022e5ada673E(%rip), %rax
	movq	%rax, 8(%rsp)
Ltmp1240:
	movq	%rsp, %rsi
	movl	$1, %edx
	movq	%r14, %rdi
	vzeroupper
	callq	__ZN10rayon_core8registry8Registry6inject17h5506992ab536b1f6E
Ltmp1241:
	movq	512(%rsp), %rdi
Ltmp1242:
	callq	__ZN10rayon_core5latch9LockLatch14wait_and_reset17h04941717c3cc4bc7E
Ltmp1243:
	movq	320(%rsp), %rax
	movq	328(%rsp), %rdi
	movq	336(%rsp), %rsi
	movq	504(%rsp), %rcx
	movq	%rcx, 160(%rsp)
	vmovups	472(%rsp), %ymm0
	vmovaps	%ymm0, 128(%rsp)
	vmovups	440(%rsp), %ymm0
	vmovaps	%ymm0, 96(%rsp)
	vmovups	408(%rsp), %ymm0
	vmovaps	%ymm0, 64(%rsp)
	vmovups	376(%rsp), %ymm0
	vmovaps	%ymm0, 32(%rsp)
	vmovups	344(%rsp), %ymm0
	vmovaps	%ymm0, (%rsp)
	cmpq	$1, %rax
	jne	LBB31_4
	vmovups	40(%rsp), %ymm0
	vmovups	72(%rsp), %ymm1
	vmovups	104(%rsp), %ymm2
	vmovups	136(%rsp), %ymm3
	vmovaps	%ymm3, 736(%rsp)
	vmovups	%ymm0, 383(%rsp)
	vmovups	%ymm1, 415(%rsp)
	vmovups	%ymm2, 447(%rsp)
	vmovups	%ymm3, 479(%rsp)
	vmovups	%ymm3, 96(%rbx)
	vmovups	%ymm2, 64(%rbx)
	vmovups	%ymm1, 32(%rbx)
	vmovups	%ymm0, (%rbx)
	leaq	-16(%rbp), %rsp
	popq	%rbx
	popq	%r14
	popq	%rbp
	vzeroupper
	retq
LBB31_4:
	testq	%rax, %rax
	je	LBB31_7
Ltmp1245:
	vzeroupper
	callq	__ZN10rayon_core6unwind16resume_unwinding17h47c2e39f90248736E
Ltmp1246:
	jmp	LBB31_6
LBB31_11:
	leaq	l___unnamed_8(%rip), %rdi
	leaq	l___unnamed_9(%rip), %rcx
	leaq	l___unnamed_10(%rip), %r8
	movq	%rsp, %rdx
	movl	$70, %esi
	callq	__ZN4core6result13unwrap_failed17hb5a510096a5fc85fE
LBB31_7:
Ltmp1247:
	leaq	l___unnamed_2(%rip), %rdi
	leaq	l___unnamed_3(%rip), %rdx
	movl	$40, %esi
	vzeroupper
	callq	__ZN3std9panicking11begin_panic17h853288e601a61dd9E
Ltmp1248:
LBB31_6:
	ud2
LBB31_10:
Ltmp1249:
	movq	%rax, %rbx
	movq	%rbx, %rdi
	callq	__Unwind_Resume
	ud2
LBB31_8:
Ltmp1244:
	movq	%rax, %rbx
	leaq	320(%rsp), %rdi
	callq	__ZN4core3ptr13drop_in_place17h04000df5dc98c10bE
	movq	%rbx, %rdi
	callq	__Unwind_Resume
	ud2
Lfunc_end30:
	.cfi_endproc
	.section	__TEXT,__gcc_except_tab
	.p2align	2
GCC_except_table31:
Lexception30:
	.byte	255
	.byte	255
	.byte	1
	.uleb128 Lcst_end30-Lcst_begin30
Lcst_begin30:
	.uleb128 Lfunc_begin30-Lfunc_begin30
	.uleb128 Ltmp1240-Lfunc_begin30
	.byte	0
	.byte	0
	.uleb128 Ltmp1240-Lfunc_begin30
	.uleb128 Ltmp1243-Ltmp1240
	.uleb128 Ltmp1244-Lfunc_begin30
	.byte	0
	.uleb128 Ltmp1245-Lfunc_begin30
	.uleb128 Ltmp1246-Ltmp1245
	.uleb128 Ltmp1249-Lfunc_begin30
	.byte	0
	.uleb128 Ltmp1246-Lfunc_begin30
	.uleb128 Ltmp1247-Ltmp1246
	.byte	0
	.byte	0
	.uleb128 Ltmp1247-Lfunc_begin30
	.uleb128 Ltmp1248-Ltmp1247
	.uleb128 Ltmp1249-Lfunc_begin30
	.byte	0
	.uleb128 Ltmp1248-Lfunc_begin30
	.uleb128 Lfunc_end30-Ltmp1248
	.byte	0
	.byte	0
Lcst_end30:
	.p2align	2

	.section	__TEXT,__text,regular,pure_instructions
	.p2align	4, 0x90
__ZN10rayon_core8registry8Registry14in_worker_cold17h2a34d240acb221c9E:
Lfunc_begin31:
	.cfi_startproc
	.cfi_personality 155, _rust_eh_personality
