	.section	__TEXT,__text,regular,pure_instructions
	.macosx_version_min 10, 7
	.p2align	4, 0x90
__ZN10rayon_core4join12join_context28_$u7b$$u7b$closure$u7d$$u7d$17h069073ae49831f8fE:
Lfunc_begin0:
	.cfi_startproc
	.cfi_personality 155, _rust_eh_personality
	.cfi_lsda 16, Lexception0
	pushq	%rbp
	.cfi_def_cfa_offset 16
	.cfi_offset %rbp, -16
	movq	%rsp, %rbp
	.cfi_def_cfa_register %rbp
	pushq	%r15
	pushq	%r14
	pushq	%r13
	pushq	%r12
	pushq	%rbx
	andq	$-64, %rsp
	subq	$1024, %rsp
	.cfi_offset %rbx, -56
	.cfi_offset %r12, -48
	.cfi_offset %r13, -40
	.cfi_offset %r14, -32
	.cfi_offset %r15, -24
	movl	%ecx, %r8d
	movq	%rdx, %rbx
	movq	%rsi, %r12
	movq	%rdi, 184(%rsp)
	movb	$0, 928(%rsp)
	leaq	832(%rsp), %rdi
	movl	$12, %ecx
	rep;movsq (%rsi), %es:(%rdi)
	movq	$0, 704(%rsp)
	movq	256(%rdx), %rax
	movq	264(%rax), %r14
	movq	256(%rax), %rax
	movq	272(%rdx), %rsi
	movq	%r14, %rcx
	subq	%rax, %rcx
	cmpq	%rsi, %rcx
	movl	%r8d, 192(%rsp)
	jl	LBB0_4
	addq	%rsi, %rsi
	jb	LBB0_7
	leaq	256(%rbx), %rdi
Ltmp0:
	callq	__ZN15crossbeam_deque15Worker$LT$T$GT$6resize17h73667af9f54c6c19E
Ltmp1:
	movq	272(%rbx), %rsi
LBB0_4:
	subq	$1, %rsi
	jb	LBB0_5
	movq	264(%rbx), %rax
	andq	%r14, %rsi
	shlq	$4, %rsi
	leaq	704(%rsp), %r13
	movq	%r13, (%rax,%rsi)
	leaq	__ZN83_$LT$rayon_core..job..StackJob$LT$L$C$F$C$R$GT$$u20$as$u20$rayon_core..job..Job$GT$7execute17hf27f059a20cd248cE(%rip), %r15
	movq	%r15, 8(%rax,%rsi)
	##MEMBARRIER
	movq	256(%rbx), %rax
	incq	%r14
	movq	%r14, 264(%rax)
	movl	$408, %edi
	addq	304(%rbx), %rdi
	movq	288(%rbx), %rsi
Ltmp4:
	callq	__ZN10rayon_core5sleep5Sleep6tickle17h5038bd408706a5c1E
Ltmp5:
	movdqu	96(%r12), %xmm0
	movups	112(%r12), %xmm1
	movups	128(%r12), %xmm2
	movups	144(%r12), %xmm3
	movq	176(%r12), %r9
	movq	160(%r12), %rdx
	movq	168(%r12), %rdi
	movq	%rdi, 216(%rsp)
	movq	%rdx, 208(%rsp)
	movq	%xmm0, %rcx
	movq	(%rcx), %rsi
	pshufd	$78, %xmm0, %xmm0
	movq	%xmm0, %rax
	movq	(%rax), %rcx
	movq	8(%rax), %r8
	movups	%xmm3, 416(%rsp)
	movups	%xmm2, 400(%rsp)
	movups	%xmm1, 384(%rsp)
	movq	%rdx, 432(%rsp)
	movq	%rdi, 440(%rsp)
Ltmp6:
	movq	%r9, (%rsp)
	movzbl	192(%rsp), %r12d
	leaq	64(%rsp), %rdi
	leaq	384(%rsp), %r9
	movl	%r12d, %edx
	callq	__ZN5rayon4iter8plumbing24bridge_producer_consumer6helper17h5aab8eeeefeb6d07E
Ltmp7:
	movaps	64(%rsp), %xmm0
	movaps	%xmm0, 304(%rsp)
	movaps	80(%rsp), %xmm0
	movaps	%xmm0, 288(%rsp)
	movaps	96(%rsp), %xmm0
	movaps	%xmm0, 272(%rsp)
	movdqa	112(%rsp), %xmm0
	movdqa	%xmm0, 192(%rsp)
	leaq	928(%rsp), %r14
	jmp	LBB0_11
	.p2align	4, 0x90
LBB0_23:
Ltmp16:
	movq	%rbx, %rdi
	movq	%rax, %rsi
	callq	__ZN10rayon_core8registry12WorkerThread7execute17hc504892f49177628E
Ltmp17:
LBB0_11:
	movzbl	928(%rsp), %eax
	testb	%al, %al
	jne	LBB0_16
Ltmp14:
	movq	%rbx, %rdi
	callq	__ZN10rayon_core8registry12WorkerThread14take_local_job17h4a60902ba985e6d4E
Ltmp15:
	testq	%rdx, %rdx
	je	LBB0_14
	cmpq	%r13, %rax
	jne	LBB0_23
	cmpq	%r15, %rdx
	jne	LBB0_23
	leaq	384(%rsp), %rdi
	leaq	704(%rsp), %rsi
	movl	$256, %edx
	callq	_memcpy
	movq	512(%rsp), %r11
	movq	520(%rsp), %r8
	movq	528(%rsp), %r10
	movq	536(%rsp), %rdx
	movq	%rdx, 64(%rsp)
	movq	544(%rsp), %rdx
	movq	%rdx, 72(%rsp)
	movq	552(%rsp), %rdx
	movq	%rdx, 80(%rsp)
	movq	560(%rsp), %rdx
	movq	%rdx, 88(%rsp)
	movq	568(%rsp), %rdx
	movq	%rdx, 96(%rsp)
	movq	576(%rsp), %rdx
	movq	%rdx, 104(%rsp)
	movq	584(%rsp), %rdx
	movq	%rdx, 112(%rsp)
	movq	592(%rsp), %rdx
	movq	%rdx, 120(%rsp)
	testq	%r11, %r11
	je	LBB0_25
	movq	600(%rsp), %r9
	movq	120(%rsp), %rdi
	movq	%rdi, 376(%rsp)
	movq	112(%rsp), %r14
	movq	%r14, 368(%rsp)
	movq	104(%rsp), %rbx
	movq	%rbx, 360(%rsp)
	movq	96(%rsp), %rdx
	movq	%rdx, 352(%rsp)
	movq	88(%rsp), %rcx
	movq	%rcx, 344(%rsp)
	movq	80(%rsp), %rax
	movq	%rax, 336(%rsp)
	movq	64(%rsp), %rsi
	movq	72(%rsp), %rdi
	movq	%rdi, 328(%rsp)
	movq	%rsi, 320(%rsp)
	movq	%r14, 256(%rsp)
	movq	%rbx, 248(%rsp)
	movq	%rdx, 240(%rsp)
	movq	%rcx, 232(%rsp)
	movq	%rax, 224(%rsp)
	movq	%rdi, 216(%rsp)
	movq	%rsi, 208(%rsp)
	movq	376(%rsp), %rax
	movq	%rax, 264(%rsp)
	movq	(%r11), %rsi
	subq	(%r8), %rsi
	jb	LBB0_27
	movq	(%r10), %rcx
	movq	8(%r10), %r8
	movq	264(%rsp), %rax
	movq	%rax, 120(%rsp)
	movq	256(%rsp), %rax
	movq	%rax, 112(%rsp)
	movq	248(%rsp), %rax
	movq	%rax, 104(%rsp)
	movq	240(%rsp), %rax
	movq	%rax, 96(%rsp)
	movq	232(%rsp), %rax
	movq	%rax, 88(%rsp)
	movq	224(%rsp), %rax
	movq	%rax, 80(%rsp)
	movq	208(%rsp), %rax
	movq	216(%rsp), %rdx
	movq	%rdx, 72(%rsp)
	movq	%rax, 64(%rsp)
Ltmp19:
	movq	%r9, (%rsp)
	leaq	640(%rsp), %rdi
	leaq	64(%rsp), %r9
	movl	%r12d, %edx
	callq	__ZN5rayon4iter8plumbing24bridge_producer_consumer6helper17h5aab8eeeefeb6d07E
Ltmp20:
	cmpl	$2, 384(%rsp)
	jb	LBB0_33
	movq	392(%rsp), %r15
	movq	400(%rsp), %rbx
Ltmp21:
	movq	%r15, %rdi
	callq	*(%rbx)
Ltmp22:
	movq	8(%rbx), %rsi
	testq	%rsi, %rsi
	je	LBB0_33
	movq	16(%rbx), %rdx
	movq	%r15, %rdi
	callq	___rust_dealloc
LBB0_33:
	movaps	640(%rsp), %xmm0
	movaps	656(%rsp), %xmm1
	movaps	672(%rsp), %xmm2
	movaps	688(%rsp), %xmm3
	movq	184(%rsp), %rax
	movaps	272(%rsp), %xmm4
	movaps	%xmm4, 32(%rax)
	movaps	288(%rsp), %xmm4
	movaps	%xmm4, 16(%rax)
	movaps	304(%rsp), %xmm4
	movaps	%xmm4, (%rax)
	movaps	192(%rsp), %xmm4
	movaps	%xmm4, 48(%rax)
	movaps	%xmm3, 112(%rax)
	movaps	%xmm2, 96(%rax)
	movaps	%xmm1, 80(%rax)
	movaps	%xmm0, 64(%rax)
	jmp	LBB0_34
LBB0_14:
	movb	928(%rsp), %al
	testb	%al, %al
	jne	LBB0_16
Ltmp32:
	movq	%rbx, %rdi
	movq	%r14, %rsi
	callq	__ZN10rayon_core8registry12WorkerThread15wait_until_cold17h85a044fa98ca4aa2E
Ltmp33:
LBB0_16:
	movq	704(%rsp), %rax
	cmpq	$1, %rax
	jne	LBB0_17
	movaps	768(%rsp), %xmm0
	movaps	784(%rsp), %xmm1
	movaps	800(%rsp), %xmm2
	movaps	816(%rsp), %xmm3
	movq	184(%rsp), %rax
	movaps	304(%rsp), %xmm4
	movaps	%xmm4, (%rax)
	movaps	288(%rsp), %xmm4
	movaps	%xmm4, 16(%rax)
	movaps	272(%rsp), %xmm4
	movaps	%xmm4, 32(%rax)
	movaps	192(%rsp), %xmm4
	movaps	%xmm4, 48(%rax)
	movaps	%xmm2, 96(%rax)
	movaps	%xmm3, 112(%rax)
	movaps	%xmm0, 64(%rax)
	movaps	%xmm1, 80(%rax)
LBB0_34:
	leaq	-40(%rbp), %rsp
	popq	%rbx
	popq	%r12
	popq	%r13
	popq	%r14
	popq	%r15
	popq	%rbp
	retq
LBB0_17:
	testq	%rax, %rax
	je	LBB0_36
	movq	712(%rsp), %rdi
	movq	720(%rsp), %rsi
Ltmp35:
	callq	__ZN10rayon_core6unwind16resume_unwinding17h5fa1757f689722ceE
Ltmp36:
	jmp	LBB0_6
LBB0_5:
Ltmp40:
	leaq	_str.2(%rip), %rdi
	leaq	l___unnamed_1(%rip), %rdx
	movl	$33, %esi
	callq	__ZN4core9panicking5panic17h383a6b80ea7021aaE
Ltmp41:
	jmp	LBB0_6
LBB0_36:
Ltmp37:
	leaq	l___unnamed_2(%rip), %rdi
	leaq	l___unnamed_3(%rip), %rdx
	movl	$40, %esi
	callq	__ZN3std9panicking11begin_panic17hd62f0347f881f53aE
Ltmp38:
	jmp	LBB0_6
LBB0_7:
Ltmp2:
	leaq	_str.1(%rip), %rdi
	leaq	l___unnamed_4(%rip), %rdx
	movl	$33, %esi
	callq	__ZN4core9panicking5panic17h383a6b80ea7021aaE
Ltmp3:
	jmp	LBB0_6
LBB0_25:
Ltmp26:
	leaq	l___unnamed_5(%rip), %rdi
	leaq	l___unnamed_6(%rip), %rdx
	movl	$43, %esi
	callq	__ZN4core9panicking5panic17h383a6b80ea7021aaE
Ltmp27:
	jmp	LBB0_6
LBB0_27:
Ltmp24:
	leaq	_str.2(%rip), %rdi
	leaq	l___unnamed_7(%rip), %rdx
	movl	$33, %esi
	callq	__ZN4core9panicking5panic17h383a6b80ea7021aaE
Ltmp25:
	jmp	LBB0_6
LBB0_47:
Ltmp39:
	jmp	LBB0_42
LBB0_40:
Ltmp34:
	jmp	LBB0_46
LBB0_38:
Ltmp23:
	movq	%rax, %r14
	movq	%r15, %rdi
	movq	%rbx, %rsi
	callq	__ZN5alloc5alloc8box_free17h9438c5f1772b94e3E
	jmp	LBB0_43
LBB0_35:
Ltmp28:
	movq	%rax, %r14
Ltmp29:
	leaq	384(%rsp), %rdi
	callq	__ZN4core3ptr13drop_in_place17h0b7def0b7e32d541E
Ltmp30:
	jmp	LBB0_43
LBB0_41:
Ltmp31:
LBB0_42:
	movq	%rax, %r14
	jmp	LBB0_43
LBB0_19:
Ltmp8:
Ltmp9:
	movq	%rax, %rdi
	callq	__ZN3std9panicking3try7cleanup17hd630ddf77975344aE
Ltmp10:
	movq	%rdx, %rcx
	leaq	928(%rsp), %rsi
Ltmp11:
	movq	%rbx, %rdi
	movq	%rax, %rdx
	callq	__ZN10rayon_core4join23join_recover_from_panic17h47a5fd9714c21a6fE
Ltmp12:
LBB0_6:
	ud2
LBB0_45:
Ltmp13:
	jmp	LBB0_46
LBB0_44:
Ltmp42:
	jmp	LBB0_46
LBB0_39:
Ltmp18:
LBB0_46:
	movq	%rax, %r14
	leaq	704(%rsp), %rdi
	callq	__ZN4core3ptr13drop_in_place17h0b7def0b7e32d541E
LBB0_43:
	movq	%r14, %rdi
	callq	__Unwind_Resume
	ud2
Lfunc_end0:
	.cfi_endproc
	.section	__TEXT,__gcc_except_tab
	.p2align	2
GCC_except_table0:
Lexception0:
	.byte	255
	.byte	155
	.uleb128 Lttbase0-Lttbaseref0
Lttbaseref0:
	.byte	1
	.uleb128 Lcst_end0-Lcst_begin0
Lcst_begin0:
	.uleb128 Ltmp0-Lfunc_begin0
	.uleb128 Ltmp5-Ltmp0
	.uleb128 Ltmp42-Lfunc_begin0
	.byte	0
	.uleb128 Ltmp6-Lfunc_begin0
	.uleb128 Ltmp7-Ltmp6
	.uleb128 Ltmp8-Lfunc_begin0
	.byte	3
	.uleb128 Ltmp16-Lfunc_begin0
	.uleb128 Ltmp15-Ltmp16
	.uleb128 Ltmp18-Lfunc_begin0
	.byte	0
	.uleb128 Ltmp15-Lfunc_begin0
	.uleb128 Ltmp19-Ltmp15
	.byte	0
	.byte	0
	.uleb128 Ltmp19-Lfunc_begin0
	.uleb128 Ltmp20-Ltmp19
	.uleb128 Ltmp28-Lfunc_begin0
	.byte	0
	.uleb128 Ltmp21-Lfunc_begin0
	.uleb128 Ltmp22-Ltmp21
	.uleb128 Ltmp23-Lfunc_begin0
	.byte	0
	.uleb128 Ltmp32-Lfunc_begin0
	.uleb128 Ltmp33-Ltmp32
	.uleb128 Ltmp34-Lfunc_begin0
	.byte	0
	.uleb128 Ltmp35-Lfunc_begin0
	.uleb128 Ltmp36-Ltmp35
	.uleb128 Ltmp39-Lfunc_begin0
	.byte	0
	.uleb128 Ltmp40-Lfunc_begin0
	.uleb128 Ltmp41-Ltmp40
	.uleb128 Ltmp42-Lfunc_begin0
	.byte	0
	.uleb128 Ltmp37-Lfunc_begin0
	.uleb128 Ltmp38-Ltmp37
	.uleb128 Ltmp39-Lfunc_begin0
	.byte	0
	.uleb128 Ltmp2-Lfunc_begin0
	.uleb128 Ltmp3-Ltmp2
	.uleb128 Ltmp42-Lfunc_begin0
	.byte	0
	.uleb128 Ltmp26-Lfunc_begin0
	.uleb128 Ltmp25-Ltmp26
	.uleb128 Ltmp28-Lfunc_begin0
	.byte	0
	.uleb128 Ltmp29-Lfunc_begin0
	.uleb128 Ltmp30-Ltmp29
	.uleb128 Ltmp31-Lfunc_begin0
	.byte	0
	.uleb128 Ltmp9-Lfunc_begin0
	.uleb128 Ltmp10-Ltmp9
	.uleb128 Ltmp42-Lfunc_begin0
	.byte	0
	.uleb128 Ltmp11-Lfunc_begin0
	.uleb128 Ltmp12-Ltmp11
	.uleb128 Ltmp13-Lfunc_begin0
	.byte	0
	.uleb128 Ltmp12-Lfunc_begin0
	.uleb128 Lfunc_end0-Ltmp12
	.byte	0
	.byte	0
Lcst_end0:
	.byte	0
	.byte	0
	.byte	1
	.byte	125
	.p2align	2
	.long	0
Lttbase0:
	.p2align	2

	.section	__TEXT,__text,regular,pure_instructions
	.p2align	4, 0x90
__ZN10rayon_core4join12join_context28_$u7b$$u7b$closure$u7d$$u7d$17h393c0fa54d3f9f3aE:
Lfunc_begin1:
	.cfi_startproc
	.cfi_personality 155, _rust_eh_personality
	.cfi_lsda 16, Lexception1
	pushq	%rbp
	.cfi_def_cfa_offset 16
	.cfi_offset %rbp, -16
	movq	%rsp, %rbp
	.cfi_def_cfa_register %rbp
	pushq	%r15
	pushq	%r14
	pushq	%r13
	pushq	%r12
	pushq	%rbx
	subq	$184, %rsp
	.cfi_offset %rbx, -56
	.cfi_offset %r12, -48
	.cfi_offset %r13, -40
	.cfi_offset %r14, -32
	.cfi_offset %r15, -24
	movq	%rsi, %rbx
	movq	%rdi, %r15
	movq	40(%rdi), %rax
	movq	%rax, -88(%rbp)
	movq	32(%rdi), %rax
	movq	%rax, -96(%rbp)
	movq	24(%rdi), %rax
	movq	%rax, -104(%rbp)
	movq	16(%rdi), %rax
	movq	%rax, -112(%rbp)
	movq	(%rdi), %rax
	movq	8(%rdi), %rcx
	movq	%rcx, -120(%rbp)
	movq	%rax, -128(%rbp)
	movb	$0, -56(%rbp)
	movq	$0, -80(%rbp)
	movq	256(%rsi), %rax
	movq	264(%rax), %r14
	movq	256(%rax), %rax
	movq	272(%rsi), %rsi
	movq	%r14, %rcx
	subq	%rax, %rcx
	cmpq	%rsi, %rcx
	movl	%edx, -44(%rbp)
	jl	LBB1_4
	addq	%rsi, %rsi
	jb	LBB1_7
	leaq	256(%rbx), %rdi
Ltmp43:
	callq	__ZN15crossbeam_deque15Worker$LT$T$GT$6resize17h73667af9f54c6c19E
Ltmp44:
	movq	272(%rbx), %rsi
LBB1_4:
	subq	$1, %rsi
	jb	LBB1_5
	movq	264(%rbx), %rax
	andq	%r14, %rsi
	shlq	$4, %rsi
	leaq	-128(%rbp), %r12
	movq	%r12, (%rax,%rsi)
	leaq	__ZN83_$LT$rayon_core..job..StackJob$LT$L$C$F$C$R$GT$$u20$as$u20$rayon_core..job..Job$GT$7execute17h31cc34b10e081a1bE(%rip), %r13
	movq	%r13, 8(%rax,%rsi)
	##MEMBARRIER
	movq	256(%rbx), %rax
	incq	%r14
	movq	%r14, 264(%rax)
	movl	$408, %edi
	addq	304(%rbx), %rdi
	movq	288(%rbx), %rsi
Ltmp47:
	callq	__ZN10rayon_core5sleep5Sleep6tickle17h5038bd408706a5c1E
Ltmp48:
	movq	48(%r15), %rax
	movq	56(%r15), %rcx
	movq	64(%r15), %r8
	movq	72(%r15), %r9
	movq	80(%r15), %rsi
	movq	(%rax), %rdi
	movq	(%rcx), %rdx
	movq	8(%rcx), %rcx
Ltmp49:
	movq	%rsi, (%rsp)
	movzbl	-44(%rbp), %r14d
	movl	%r14d, %esi
	callq	__ZN5rayon4iter8plumbing24bridge_producer_consumer6helper17h9f0aa28c8261ef10E
Ltmp50:
	leaq	-56(%rbp), %r15
	jmp	LBB1_11
	.p2align	4, 0x90
LBB1_23:
Ltmp59:
	movq	%rbx, %rdi
	movq	%rax, %rsi
	callq	__ZN10rayon_core8registry12WorkerThread7execute17hc504892f49177628E
Ltmp60:
LBB1_11:
	movzbl	-56(%rbp), %eax
	testb	%al, %al
	jne	LBB1_16
Ltmp57:
	movq	%rbx, %rdi
	callq	__ZN10rayon_core8registry12WorkerThread14take_local_job17h4a60902ba985e6d4E
Ltmp58:
	testq	%rdx, %rdx
	je	LBB1_14
	cmpq	%r12, %rax
	jne	LBB1_23
	cmpq	%r13, %rdx
	jne	LBB1_23
	leaq	-208(%rbp), %rdi
	leaq	-128(%rbp), %rsi
	movl	$10, %ecx
	rep;movsq (%rsi), %es:(%rdi)
	movq	-208(%rbp), %rax
	testq	%rax, %rax
	je	LBB1_25
	movq	-200(%rbp), %rcx
	movq	(%rax), %rdi
	subq	(%rcx), %rdi
	jb	LBB1_27
	movq	-192(%rbp), %rax
	movq	-184(%rbp), %r8
	movq	-176(%rbp), %r9
	movq	-168(%rbp), %rsi
	movq	(%rax), %rdx
	movq	8(%rax), %rcx
Ltmp62:
	movq	%rsi, (%rsp)
	movl	%r14d, %esi
	callq	__ZN5rayon4iter8plumbing24bridge_producer_consumer6helper17h9f0aa28c8261ef10E
Ltmp63:
	cmpl	$2, -160(%rbp)
	jb	LBB1_33
	movq	-152(%rbp), %r15
	movq	-144(%rbp), %rbx
Ltmp64:
	movq	%r15, %rdi
	callq	*(%rbx)
Ltmp65:
	movq	8(%rbx), %rsi
	testq	%rsi, %rsi
	je	LBB1_33
	movq	16(%rbx), %rdx
	movq	%r15, %rdi
	callq	___rust_dealloc
	jmp	LBB1_33
LBB1_14:
	movb	-56(%rbp), %al
	testb	%al, %al
	jne	LBB1_16
Ltmp75:
	movq	%rbx, %rdi
	movq	%r15, %rsi
	callq	__ZN10rayon_core8registry12WorkerThread15wait_until_cold17h85a044fa98ca4aa2E
Ltmp76:
LBB1_16:
	movq	-80(%rbp), %rax
	cmpq	$1, %rax
	jne	LBB1_17
LBB1_33:
	addq	$184, %rsp
	popq	%rbx
	popq	%r12
	popq	%r13
	popq	%r14
	popq	%r15
	popq	%rbp
	retq
LBB1_17:
	testq	%rax, %rax
	je	LBB1_35
	movq	-72(%rbp), %rdi
	movq	-64(%rbp), %rsi
Ltmp78:
	callq	__ZN10rayon_core6unwind16resume_unwinding17h5fa1757f689722ceE
Ltmp79:
	jmp	LBB1_6
LBB1_5:
Ltmp83:
	leaq	_str.2(%rip), %rdi
	leaq	l___unnamed_1(%rip), %rdx
	movl	$33, %esi
	callq	__ZN4core9panicking5panic17h383a6b80ea7021aaE
Ltmp84:
	jmp	LBB1_6
LBB1_35:
Ltmp80:
	leaq	l___unnamed_2(%rip), %rdi
	leaq	l___unnamed_3(%rip), %rdx
	movl	$40, %esi
	callq	__ZN3std9panicking11begin_panic17hd62f0347f881f53aE
Ltmp81:
	jmp	LBB1_6
LBB1_7:
Ltmp45:
	leaq	_str.1(%rip), %rdi
	leaq	l___unnamed_4(%rip), %rdx
	movl	$33, %esi
	callq	__ZN4core9panicking5panic17h383a6b80ea7021aaE
Ltmp46:
	jmp	LBB1_6
LBB1_25:
Ltmp69:
	leaq	l___unnamed_5(%rip), %rdi
	leaq	l___unnamed_6(%rip), %rdx
	movl	$43, %esi
	callq	__ZN4core9panicking5panic17h383a6b80ea7021aaE
Ltmp70:
	jmp	LBB1_6
LBB1_27:
Ltmp67:
	leaq	_str.2(%rip), %rdi
	leaq	l___unnamed_7(%rip), %rdx
	movl	$33, %esi
	callq	__ZN4core9panicking5panic17h383a6b80ea7021aaE
Ltmp68:
	jmp	LBB1_6
LBB1_45:
Ltmp82:
	jmp	LBB1_40
LBB1_38:
Ltmp77:
	jmp	LBB1_44
LBB1_36:
Ltmp66:
	movq	%rax, %r14
	movq	%r15, %rdi
	movq	%rbx, %rsi
	callq	__ZN5alloc5alloc8box_free17h9438c5f1772b94e3E
	jmp	LBB1_41
LBB1_34:
Ltmp71:
	movq	%rax, %r14
	leaq	-160(%rbp), %rdi
Ltmp72:
	callq	__ZN4core3ptr13drop_in_place17hd53146ad14be3b16E
Ltmp73:
	jmp	LBB1_41
LBB1_39:
Ltmp74:
LBB1_40:
	movq	%rax, %r14
	jmp	LBB1_41
LBB1_19:
Ltmp51:
Ltmp52:
	movq	%rax, %rdi
	callq	__ZN3std9panicking3try7cleanup17hd630ddf77975344aE
Ltmp53:
	movq	%rdx, %rcx
	leaq	-56(%rbp), %rsi
Ltmp54:
	movq	%rbx, %rdi
	movq	%rax, %rdx
	callq	__ZN10rayon_core4join23join_recover_from_panic17h47a5fd9714c21a6fE
Ltmp55:
LBB1_6:
	ud2
LBB1_43:
Ltmp56:
	jmp	LBB1_44
LBB1_42:
Ltmp85:
	jmp	LBB1_44
LBB1_37:
Ltmp61:
LBB1_44:
	movq	%rax, %r14
	leaq	-128(%rbp), %rdi
	callq	__ZN4core3ptr13drop_in_place17h0737b5809d4cb690E
LBB1_41:
	movq	%r14, %rdi
	callq	__Unwind_Resume
	ud2
Lfunc_end1:
	.cfi_endproc
	.section	__TEXT,__gcc_except_tab
	.p2align	2
GCC_except_table1:
Lexception1:
	.byte	255
	.byte	155
	.uleb128 Lttbase1-Lttbaseref1
Lttbaseref1:
	.byte	1
	.uleb128 Lcst_end1-Lcst_begin1
Lcst_begin1:
	.uleb128 Ltmp43-Lfunc_begin1
	.uleb128 Ltmp48-Ltmp43
	.uleb128 Ltmp85-Lfunc_begin1
	.byte	0
	.uleb128 Ltmp49-Lfunc_begin1
	.uleb128 Ltmp50-Ltmp49
	.uleb128 Ltmp51-Lfunc_begin1
	.byte	3
	.uleb128 Ltmp59-Lfunc_begin1
	.uleb128 Ltmp58-Ltmp59
	.uleb128 Ltmp61-Lfunc_begin1
	.byte	0
	.uleb128 Ltmp62-Lfunc_begin1
	.uleb128 Ltmp63-Ltmp62
	.uleb128 Ltmp71-Lfunc_begin1
	.byte	0
	.uleb128 Ltmp64-Lfunc_begin1
	.uleb128 Ltmp65-Ltmp64
	.uleb128 Ltmp66-Lfunc_begin1
	.byte	0
	.uleb128 Ltmp75-Lfunc_begin1
	.uleb128 Ltmp76-Ltmp75
	.uleb128 Ltmp77-Lfunc_begin1
	.byte	0
	.uleb128 Ltmp78-Lfunc_begin1
	.uleb128 Ltmp79-Ltmp78
	.uleb128 Ltmp82-Lfunc_begin1
	.byte	0
	.uleb128 Ltmp83-Lfunc_begin1
	.uleb128 Ltmp84-Ltmp83
	.uleb128 Ltmp85-Lfunc_begin1
	.byte	0
	.uleb128 Ltmp80-Lfunc_begin1
	.uleb128 Ltmp81-Ltmp80
	.uleb128 Ltmp82-Lfunc_begin1
	.byte	0
	.uleb128 Ltmp45-Lfunc_begin1
	.uleb128 Ltmp46-Ltmp45
	.uleb128 Ltmp85-Lfunc_begin1
	.byte	0
	.uleb128 Ltmp69-Lfunc_begin1
	.uleb128 Ltmp68-Ltmp69
	.uleb128 Ltmp71-Lfunc_begin1
	.byte	0
	.uleb128 Ltmp72-Lfunc_begin1
	.uleb128 Ltmp73-Ltmp72
	.uleb128 Ltmp74-Lfunc_begin1
	.byte	0
	.uleb128 Ltmp52-Lfunc_begin1
	.uleb128 Ltmp53-Ltmp52
	.uleb128 Ltmp85-Lfunc_begin1
	.byte	0
	.uleb128 Ltmp54-Lfunc_begin1
	.uleb128 Ltmp55-Ltmp54
	.uleb128 Ltmp56-Lfunc_begin1
	.byte	0
	.uleb128 Ltmp55-Lfunc_begin1
	.uleb128 Lfunc_end1-Ltmp55
	.byte	0
	.byte	0
Lcst_end1:
	.byte	0
	.byte	0
	.byte	1
	.byte	125
	.p2align	2
	.long	0
Lttbase1:
	.p2align	2

	.section	__TEXT,__text,regular,pure_instructions
	.p2align	4, 0x90
__ZN10rayon_core4join12join_context28_$u7b$$u7b$closure$u7d$$u7d$17h42eb42d77c348b4bE:
Lfunc_begin2:
	.cfi_startproc
	.cfi_personality 155, _rust_eh_personality
	.cfi_lsda 16, Lexception2
	pushq	%rbp
	.cfi_def_cfa_offset 16
	.cfi_offset %rbp, -16
	movq	%rsp, %rbp
	.cfi_def_cfa_register %rbp
	pushq	%r15
	pushq	%r14
	pushq	%r13
	pushq	%r12
	pushq	%rbx
	andq	$-64, %rsp
	subq	$704, %rsp
	.cfi_offset %rbx, -56
	.cfi_offset %r12, -48
	.cfi_offset %r13, -40
	.cfi_offset %r14, -32
	.cfi_offset %r15, -24
	movq	%rdx, %rbx
	movq	%rsi, %r12
	movq	%rdi, %r14
	movb	$0, 440(%rsp)
	movq	(%rsi), %rax
	movq	8(%rsi), %rdx
	movq	%rax, 384(%rsp)
	movq	%rdx, 392(%rsp)
	movq	16(%rsi), %rax
	movq	%rax, 400(%rsp)
	movq	24(%rsi), %rax
	movq	%rax, 408(%rsp)
	movq	32(%rsi), %rax
	movq	%rax, 416(%rsp)
	movq	40(%rsi), %rax
	movq	%rax, 424(%rsp)
	movq	48(%rsi), %rax
	movq	%rax, 432(%rsp)
	movq	$0, 256(%rsp)
	movq	256(%rbx), %rax
	movq	264(%rax), %r15
	movq	256(%rax), %rax
	movq	272(%rbx), %rsi
	movq	%r15, %rdx
	subq	%rax, %rdx
	cmpq	%rsi, %rdx
	movl	%ecx, 128(%rsp)
	jl	LBB2_4
	addq	%rsi, %rsi
	jb	LBB2_7
	leaq	256(%rbx), %rdi
Ltmp86:
	callq	__ZN15crossbeam_deque15Worker$LT$T$GT$6resize17h73667af9f54c6c19E
Ltmp87:
	movq	272(%rbx), %rsi
LBB2_4:
	subq	$1, %rsi
	jb	LBB2_5
	movq	264(%rbx), %rax
	andq	%r15, %rsi
	shlq	$4, %rsi
	leaq	256(%rsp), %r13
	movq	%r13, (%rax,%rsi)
	leaq	__ZN83_$LT$rayon_core..job..StackJob$LT$L$C$F$C$R$GT$$u20$as$u20$rayon_core..job..Job$GT$7execute17h4e7df37f3d1dfce1E(%rip), %rcx
	movq	%rcx, 8(%rax,%rsi)
	##MEMBARRIER
	movq	256(%rbx), %rax
	incq	%r15
	movq	%r15, 264(%rax)
	movl	$408, %edi
	addq	304(%rbx), %rdi
	movq	288(%rbx), %rsi
Ltmp90:
	callq	__ZN10rayon_core5sleep5Sleep6tickle17h5038bd408706a5c1E
Ltmp91:
	movq	96(%r12), %rax
	movq	%rax, 104(%rsp)
	movq	88(%r12), %rcx
	movq	%rcx, 96(%rsp)
	movq	80(%r12), %rcx
	movq	%rcx, 88(%rsp)
	movq	72(%r12), %rcx
	movq	%rcx, 80(%rsp)
	movq	56(%r12), %rcx
	movq	64(%r12), %rdx
	movq	%rdx, 72(%rsp)
	movq	%rcx, 64(%rsp)
	movl	128(%rsp), %edi
	movb	%dil, 112(%rsp)
	movq	(%rcx), %rsi
	movq	(%rdx), %rcx
	movq	8(%rdx), %r8
	movq	80(%rsp), %rdx
	movq	%rdx, 32(%rsp)
	movq	88(%rsp), %rdx
	movq	%rdx, 40(%rsp)
	movq	96(%rsp), %rdx
	movq	%rdx, 48(%rsp)
Ltmp92:
	movq	%rax, (%rsp)
	movzbl	%dil, %r12d
	leaq	448(%rsp), %rdi
	leaq	32(%rsp), %r9
	movl	%r12d, %edx
	callq	__ZN5rayon4iter8plumbing24bridge_producer_consumer6helper17hcecf2333f8c7c1f0E
Ltmp93:
	movaps	448(%rsp), %xmm0
	movaps	%xmm0, 208(%rsp)
	movaps	464(%rsp), %xmm0
	movaps	%xmm0, 192(%rsp)
	movaps	480(%rsp), %xmm0
	movaps	%xmm0, 176(%rsp)
	movaps	496(%rsp), %xmm0
	movaps	%xmm0, 128(%rsp)
	leaq	__ZN83_$LT$rayon_core..job..StackJob$LT$L$C$F$C$R$GT$$u20$as$u20$rayon_core..job..Job$GT$7execute17h4e7df37f3d1dfce1E(%rip), %r15
	jmp	LBB2_11
	.p2align	4, 0x90
LBB2_23:
Ltmp102:
	movq	%rbx, %rdi
	movq	%rax, %rsi
	callq	__ZN10rayon_core8registry12WorkerThread7execute17hc504892f49177628E
Ltmp103:
LBB2_11:
	movzbl	440(%rsp), %eax
	testb	%al, %al
	jne	LBB2_16
Ltmp100:
	movq	%rbx, %rdi
	callq	__ZN10rayon_core8registry12WorkerThread14take_local_job17h4a60902ba985e6d4E
Ltmp101:
	testq	%rdx, %rdx
	je	LBB2_14
	cmpq	%r13, %rax
	jne	LBB2_23
	cmpq	%r15, %rdx
	jne	LBB2_23
	leaq	448(%rsp), %rdi
	leaq	256(%rsp), %rsi
	movl	$192, %edx
	callq	_memcpy
	movq	576(%rsp), %rsi
	movq	584(%rsp), %rcx
	movq	592(%rsp), %rax
	movq	600(%rsp), %rdx
	movq	%rdx, 64(%rsp)
	movq	608(%rsp), %rdx
	movq	%rdx, 72(%rsp)
	movq	616(%rsp), %rdx
	movq	%rdx, 80(%rsp)
	testq	%rsi, %rsi
	je	LBB2_25
	movq	624(%rsp), %r9
	movq	80(%rsp), %rdi
	movq	%rdi, 248(%rsp)
	movq	64(%rsp), %rbx
	movq	72(%rsp), %rdx
	movq	%rdx, 240(%rsp)
	movq	%rbx, 232(%rsp)
	movq	%rdi, 168(%rsp)
	movq	%rdx, 160(%rsp)
	movq	%rbx, 152(%rsp)
	movq	(%rsi), %rsi
	subq	(%rcx), %rsi
	jb	LBB2_27
	movq	(%rax), %rcx
	movq	8(%rax), %r8
	movq	168(%rsp), %rax
	movq	%rax, 48(%rsp)
	movq	152(%rsp), %rax
	movq	160(%rsp), %rdx
	movq	%rdx, 40(%rsp)
	movq	%rax, 32(%rsp)
Ltmp105:
	movq	%r9, (%rsp)
	leaq	64(%rsp), %rdi
	leaq	32(%rsp), %r9
	movl	%r12d, %edx
	callq	__ZN5rayon4iter8plumbing24bridge_producer_consumer6helper17hcecf2333f8c7c1f0E
Ltmp106:
	cmpl	$2, 448(%rsp)
	jb	LBB2_33
	movq	456(%rsp), %r15
	movq	464(%rsp), %rbx
Ltmp107:
	movq	%r15, %rdi
	callq	*(%rbx)
Ltmp108:
	movq	8(%rbx), %rsi
	testq	%rsi, %rsi
	je	LBB2_33
	movq	16(%rbx), %rdx
	movq	%r15, %rdi
	callq	___rust_dealloc
LBB2_33:
	movaps	64(%rsp), %xmm0
	movaps	80(%rsp), %xmm1
	movaps	96(%rsp), %xmm2
	movaps	112(%rsp), %xmm3
	movaps	176(%rsp), %xmm4
	movaps	%xmm4, 32(%r14)
	movaps	192(%rsp), %xmm4
	movaps	%xmm4, 16(%r14)
	movaps	208(%rsp), %xmm4
	movaps	%xmm4, (%r14)
	movaps	128(%rsp), %xmm4
	movaps	%xmm4, 48(%r14)
	movaps	%xmm3, 112(%r14)
	movaps	%xmm2, 96(%r14)
	movaps	%xmm1, 80(%r14)
	movaps	%xmm0, 64(%r14)
	jmp	LBB2_34
LBB2_14:
	movb	440(%rsp), %al
	testb	%al, %al
	jne	LBB2_16
Ltmp118:
	movq	%rbx, %rdi
	leaq	440(%rsp), %rsi
	callq	__ZN10rayon_core8registry12WorkerThread15wait_until_cold17h85a044fa98ca4aa2E
Ltmp119:
LBB2_16:
	movq	256(%rsp), %rax
	cmpq	$1, %rax
	jne	LBB2_17
	movaps	320(%rsp), %xmm0
	movaps	336(%rsp), %xmm1
	movaps	352(%rsp), %xmm2
	movaps	368(%rsp), %xmm3
	movaps	208(%rsp), %xmm4
	movaps	%xmm4, (%r14)
	movaps	192(%rsp), %xmm4
	movaps	%xmm4, 16(%r14)
	movaps	176(%rsp), %xmm4
	movaps	%xmm4, 32(%r14)
	movaps	128(%rsp), %xmm4
	movaps	%xmm4, 48(%r14)
	movaps	%xmm2, 96(%r14)
	movaps	%xmm3, 112(%r14)
	movaps	%xmm0, 64(%r14)
	movaps	%xmm1, 80(%r14)
LBB2_34:
	leaq	-40(%rbp), %rsp
	popq	%rbx
	popq	%r12
	popq	%r13
	popq	%r14
	popq	%r15
	popq	%rbp
	retq
LBB2_17:
	testq	%rax, %rax
	je	LBB2_36
	movq	264(%rsp), %rdi
	movq	272(%rsp), %rsi
Ltmp121:
	callq	__ZN10rayon_core6unwind16resume_unwinding17h5fa1757f689722ceE
Ltmp122:
	jmp	LBB2_6
LBB2_5:
Ltmp126:
	leaq	_str.2(%rip), %rdi
	leaq	l___unnamed_1(%rip), %rdx
	movl	$33, %esi
	callq	__ZN4core9panicking5panic17h383a6b80ea7021aaE
Ltmp127:
	jmp	LBB2_6
LBB2_36:
Ltmp123:
	leaq	l___unnamed_2(%rip), %rdi
	leaq	l___unnamed_3(%rip), %rdx
	movl	$40, %esi
	callq	__ZN3std9panicking11begin_panic17hd62f0347f881f53aE
Ltmp124:
	jmp	LBB2_6
LBB2_7:
Ltmp88:
	leaq	_str.1(%rip), %rdi
	leaq	l___unnamed_4(%rip), %rdx
	movl	$33, %esi
	callq	__ZN4core9panicking5panic17h383a6b80ea7021aaE
Ltmp89:
	jmp	LBB2_6
LBB2_25:
Ltmp112:
	leaq	l___unnamed_5(%rip), %rdi
	leaq	l___unnamed_6(%rip), %rdx
	movl	$43, %esi
	callq	__ZN4core9panicking5panic17h383a6b80ea7021aaE
Ltmp113:
	jmp	LBB2_6
LBB2_27:
Ltmp110:
	leaq	_str.2(%rip), %rdi
	leaq	l___unnamed_7(%rip), %rdx
	movl	$33, %esi
	callq	__ZN4core9panicking5panic17h383a6b80ea7021aaE
Ltmp111:
	jmp	LBB2_6
LBB2_47:
Ltmp125:
	jmp	LBB2_42
LBB2_40:
Ltmp120:
	jmp	LBB2_46
LBB2_38:
Ltmp109:
	movq	%rax, %r14
	movq	%r15, %rdi
	movq	%rbx, %rsi
	callq	__ZN5alloc5alloc8box_free17h9438c5f1772b94e3E
	jmp	LBB2_43
LBB2_35:
Ltmp114:
	movq	%rax, %r14
Ltmp115:
	leaq	448(%rsp), %rdi
	callq	__ZN4core3ptr13drop_in_place17h0b7def0b7e32d541E
Ltmp116:
	jmp	LBB2_43
LBB2_41:
Ltmp117:
LBB2_42:
	movq	%rax, %r14
	jmp	LBB2_43
LBB2_19:
Ltmp94:
Ltmp95:
	movq	%rax, %rdi
	callq	__ZN3std9panicking3try7cleanup17hd630ddf77975344aE
Ltmp96:
	movq	%rdx, %rcx
	leaq	440(%rsp), %rsi
Ltmp97:
	movq	%rbx, %rdi
	movq	%rax, %rdx
	callq	__ZN10rayon_core4join23join_recover_from_panic17h47a5fd9714c21a6fE
Ltmp98:
LBB2_6:
	ud2
LBB2_45:
Ltmp99:
	jmp	LBB2_46
LBB2_44:
Ltmp128:
	jmp	LBB2_46
LBB2_39:
Ltmp104:
LBB2_46:
	movq	%rax, %r14
	leaq	256(%rsp), %rdi
	callq	__ZN4core3ptr13drop_in_place17h0b7def0b7e32d541E
LBB2_43:
	movq	%r14, %rdi
	callq	__Unwind_Resume
	ud2
Lfunc_end2:
	.cfi_endproc
	.section	__TEXT,__gcc_except_tab
	.p2align	2
GCC_except_table2:
Lexception2:
	.byte	255
	.byte	155
	.uleb128 Lttbase2-Lttbaseref2
Lttbaseref2:
	.byte	1
	.uleb128 Lcst_end2-Lcst_begin2
Lcst_begin2:
	.uleb128 Ltmp86-Lfunc_begin2
	.uleb128 Ltmp91-Ltmp86
	.uleb128 Ltmp128-Lfunc_begin2
	.byte	0
	.uleb128 Ltmp92-Lfunc_begin2
	.uleb128 Ltmp93-Ltmp92
	.uleb128 Ltmp94-Lfunc_begin2
	.byte	3
	.uleb128 Ltmp102-Lfunc_begin2
	.uleb128 Ltmp101-Ltmp102
	.uleb128 Ltmp104-Lfunc_begin2
	.byte	0
	.uleb128 Ltmp101-Lfunc_begin2
	.uleb128 Ltmp105-Ltmp101
	.byte	0
	.byte	0
	.uleb128 Ltmp105-Lfunc_begin2
	.uleb128 Ltmp106-Ltmp105
	.uleb128 Ltmp114-Lfunc_begin2
	.byte	0
	.uleb128 Ltmp107-Lfunc_begin2
	.uleb128 Ltmp108-Ltmp107
	.uleb128 Ltmp109-Lfunc_begin2
	.byte	0
	.uleb128 Ltmp118-Lfunc_begin2
	.uleb128 Ltmp119-Ltmp118
	.uleb128 Ltmp120-Lfunc_begin2
	.byte	0
	.uleb128 Ltmp121-Lfunc_begin2
	.uleb128 Ltmp122-Ltmp121
	.uleb128 Ltmp125-Lfunc_begin2
	.byte	0
	.uleb128 Ltmp126-Lfunc_begin2
	.uleb128 Ltmp127-Ltmp126
	.uleb128 Ltmp128-Lfunc_begin2
	.byte	0
	.uleb128 Ltmp123-Lfunc_begin2
	.uleb128 Ltmp124-Ltmp123
	.uleb128 Ltmp125-Lfunc_begin2
	.byte	0
	.uleb128 Ltmp88-Lfunc_begin2
	.uleb128 Ltmp89-Ltmp88
	.uleb128 Ltmp128-Lfunc_begin2
	.byte	0
	.uleb128 Ltmp112-Lfunc_begin2
	.uleb128 Ltmp111-Ltmp112
	.uleb128 Ltmp114-Lfunc_begin2
	.byte	0
	.uleb128 Ltmp115-Lfunc_begin2
	.uleb128 Ltmp116-Ltmp115
	.uleb128 Ltmp117-Lfunc_begin2
	.byte	0
	.uleb128 Ltmp95-Lfunc_begin2
	.uleb128 Ltmp96-Ltmp95
	.uleb128 Ltmp128-Lfunc_begin2
	.byte	0
	.uleb128 Ltmp97-Lfunc_begin2
	.uleb128 Ltmp98-Ltmp97
	.uleb128 Ltmp99-Lfunc_begin2
	.byte	0
	.uleb128 Ltmp98-Lfunc_begin2
	.uleb128 Lfunc_end2-Ltmp98
	.byte	0
	.byte	0
Lcst_end2:
	.byte	0
	.byte	0
	.byte	1
	.byte	125
	.p2align	2
	.long	0
Lttbase2:
	.p2align	2

	.section	__TEXT,__text,regular,pure_instructions
	.p2align	4, 0x90
__ZN10rayon_core4join12join_context28_$u7b$$u7b$closure$u7d$$u7d$17h4916ded6374ba076E:
Lfunc_begin3:
	.cfi_startproc
	.cfi_personality 155, _rust_eh_personality
	.cfi_lsda 16, Lexception3
	pushq	%rbp
	.cfi_def_cfa_offset 16
	.cfi_offset %rbp, -16
	movq	%rsp, %rbp
	.cfi_def_cfa_register %rbp
	pushq	%r15
	pushq	%r14
	pushq	%r13
	pushq	%r12
	pushq	%rbx
	subq	$184, %rsp
	.cfi_offset %rbx, -56
	.cfi_offset %r12, -48
	.cfi_offset %r13, -40
	.cfi_offset %r14, -32
	.cfi_offset %r15, -24
	movq	%rsi, %rbx
	movq	%rdi, %r15
	movq	40(%rdi), %rax
	movq	%rax, -88(%rbp)
	movq	32(%rdi), %rax
	movq	%rax, -96(%rbp)
	movq	24(%rdi), %rax
	movq	%rax, -104(%rbp)
	movq	16(%rdi), %rax
	movq	%rax, -112(%rbp)
	movq	(%rdi), %rax
	movq	8(%rdi), %rcx
	movq	%rcx, -120(%rbp)
	movq	%rax, -128(%rbp)
	movb	$0, -56(%rbp)
	movq	$0, -80(%rbp)
	movq	256(%rsi), %rax
	movq	264(%rax), %r14
	movq	256(%rax), %rax
	movq	272(%rsi), %rsi
	movq	%r14, %rcx
	subq	%rax, %rcx
	cmpq	%rsi, %rcx
	movl	%edx, -44(%rbp)
	jl	LBB3_4
	addq	%rsi, %rsi
	jb	LBB3_7
	leaq	256(%rbx), %rdi
Ltmp129:
	callq	__ZN15crossbeam_deque15Worker$LT$T$GT$6resize17h73667af9f54c6c19E
Ltmp130:
	movq	272(%rbx), %rsi
LBB3_4:
	subq	$1, %rsi
	jb	LBB3_5
	movq	264(%rbx), %rax
	andq	%r14, %rsi
	shlq	$4, %rsi
	leaq	-128(%rbp), %r12
	movq	%r12, (%rax,%rsi)
	leaq	__ZN83_$LT$rayon_core..job..StackJob$LT$L$C$F$C$R$GT$$u20$as$u20$rayon_core..job..Job$GT$7execute17hf1f0f94f46598cbaE(%rip), %r13
	movq	%r13, 8(%rax,%rsi)
	##MEMBARRIER
	movq	256(%rbx), %rax
	incq	%r14
	movq	%r14, 264(%rax)
	movl	$408, %edi
	addq	304(%rbx), %rdi
	movq	288(%rbx), %rsi
Ltmp133:
	callq	__ZN10rayon_core5sleep5Sleep6tickle17h5038bd408706a5c1E
Ltmp134:
	movq	48(%r15), %rax
	movq	56(%r15), %rcx
	movq	64(%r15), %r8
	movq	72(%r15), %r9
	movq	80(%r15), %rsi
	movq	(%rax), %rdi
	movq	(%rcx), %rdx
	movq	8(%rcx), %rcx
Ltmp135:
	movq	%rsi, (%rsp)
	movzbl	-44(%rbp), %r14d
	movl	%r14d, %esi
	callq	__ZN5rayon4iter8plumbing24bridge_producer_consumer6helper17he12e11409c09567fE
Ltmp136:
	leaq	-56(%rbp), %r15
	jmp	LBB3_11
	.p2align	4, 0x90
LBB3_23:
Ltmp145:
	movq	%rbx, %rdi
	movq	%rax, %rsi
	callq	__ZN10rayon_core8registry12WorkerThread7execute17hc504892f49177628E
Ltmp146:
LBB3_11:
	movzbl	-56(%rbp), %eax
	testb	%al, %al
	jne	LBB3_16
Ltmp143:
	movq	%rbx, %rdi
	callq	__ZN10rayon_core8registry12WorkerThread14take_local_job17h4a60902ba985e6d4E
Ltmp144:
	testq	%rdx, %rdx
	je	LBB3_14
	cmpq	%r12, %rax
	jne	LBB3_23
	cmpq	%r13, %rdx
	jne	LBB3_23
	leaq	-208(%rbp), %rdi
	leaq	-128(%rbp), %rsi
	movl	$10, %ecx
	rep;movsq (%rsi), %es:(%rdi)
	movq	-208(%rbp), %rax
	testq	%rax, %rax
	je	LBB3_25
	movq	-200(%rbp), %rcx
	movq	(%rax), %rdi
	subq	(%rcx), %rdi
	jb	LBB3_27
	movq	-192(%rbp), %rax
	movq	-184(%rbp), %r8
	movq	-176(%rbp), %r9
	movq	-168(%rbp), %rsi
	movq	(%rax), %rdx
	movq	8(%rax), %rcx
Ltmp148:
	movq	%rsi, (%rsp)
	movl	%r14d, %esi
	callq	__ZN5rayon4iter8plumbing24bridge_producer_consumer6helper17he12e11409c09567fE
Ltmp149:
	cmpl	$2, -160(%rbp)
	jb	LBB3_33
	movq	-152(%rbp), %r15
	movq	-144(%rbp), %rbx
Ltmp150:
	movq	%r15, %rdi
	callq	*(%rbx)
Ltmp151:
	movq	8(%rbx), %rsi
	testq	%rsi, %rsi
	je	LBB3_33
	movq	16(%rbx), %rdx
	movq	%r15, %rdi
	callq	___rust_dealloc
	jmp	LBB3_33
LBB3_14:
	movb	-56(%rbp), %al
	testb	%al, %al
	jne	LBB3_16
Ltmp161:
	movq	%rbx, %rdi
	movq	%r15, %rsi
	callq	__ZN10rayon_core8registry12WorkerThread15wait_until_cold17h85a044fa98ca4aa2E
Ltmp162:
LBB3_16:
	movq	-80(%rbp), %rax
	cmpq	$1, %rax
	jne	LBB3_17
LBB3_33:
	addq	$184, %rsp
	popq	%rbx
	popq	%r12
	popq	%r13
	popq	%r14
	popq	%r15
	popq	%rbp
	retq
LBB3_17:
	testq	%rax, %rax
	je	LBB3_35
	movq	-72(%rbp), %rdi
	movq	-64(%rbp), %rsi
Ltmp164:
	callq	__ZN10rayon_core6unwind16resume_unwinding17h5fa1757f689722ceE
Ltmp165:
	jmp	LBB3_6
LBB3_5:
Ltmp169:
	leaq	_str.2(%rip), %rdi
	leaq	l___unnamed_1(%rip), %rdx
	movl	$33, %esi
	callq	__ZN4core9panicking5panic17h383a6b80ea7021aaE
Ltmp170:
	jmp	LBB3_6
LBB3_35:
Ltmp166:
	leaq	l___unnamed_2(%rip), %rdi
	leaq	l___unnamed_3(%rip), %rdx
	movl	$40, %esi
	callq	__ZN3std9panicking11begin_panic17hd62f0347f881f53aE
Ltmp167:
	jmp	LBB3_6
LBB3_7:
Ltmp131:
	leaq	_str.1(%rip), %rdi
	leaq	l___unnamed_4(%rip), %rdx
	movl	$33, %esi
	callq	__ZN4core9panicking5panic17h383a6b80ea7021aaE
Ltmp132:
	jmp	LBB3_6
LBB3_25:
Ltmp155:
	leaq	l___unnamed_5(%rip), %rdi
	leaq	l___unnamed_6(%rip), %rdx
	movl	$43, %esi
	callq	__ZN4core9panicking5panic17h383a6b80ea7021aaE
Ltmp156:
	jmp	LBB3_6
LBB3_27:
Ltmp153:
	leaq	_str.2(%rip), %rdi
	leaq	l___unnamed_7(%rip), %rdx
	movl	$33, %esi
	callq	__ZN4core9panicking5panic17h383a6b80ea7021aaE
Ltmp154:
	jmp	LBB3_6
LBB3_45:
Ltmp168:
	jmp	LBB3_40
LBB3_38:
Ltmp163:
	jmp	LBB3_44
LBB3_36:
Ltmp152:
	movq	%rax, %r14
	movq	%r15, %rdi
	movq	%rbx, %rsi
	callq	__ZN5alloc5alloc8box_free17h9438c5f1772b94e3E
	jmp	LBB3_41
LBB3_34:
Ltmp157:
	movq	%rax, %r14
	leaq	-160(%rbp), %rdi
Ltmp158:
	callq	__ZN4core3ptr13drop_in_place17hd53146ad14be3b16E
Ltmp159:
	jmp	LBB3_41
LBB3_39:
Ltmp160:
LBB3_40:
	movq	%rax, %r14
	jmp	LBB3_41
LBB3_19:
Ltmp137:
Ltmp138:
	movq	%rax, %rdi
	callq	__ZN3std9panicking3try7cleanup17hd630ddf77975344aE
Ltmp139:
	movq	%rdx, %rcx
	leaq	-56(%rbp), %rsi
Ltmp140:
	movq	%rbx, %rdi
	movq	%rax, %rdx
	callq	__ZN10rayon_core4join23join_recover_from_panic17h47a5fd9714c21a6fE
Ltmp141:
LBB3_6:
	ud2
LBB3_43:
Ltmp142:
	jmp	LBB3_44
LBB3_42:
Ltmp171:
	jmp	LBB3_44
LBB3_37:
Ltmp147:
LBB3_44:
	movq	%rax, %r14
	leaq	-128(%rbp), %rdi
	callq	__ZN4core3ptr13drop_in_place17h0737b5809d4cb690E
LBB3_41:
	movq	%r14, %rdi
	callq	__Unwind_Resume
	ud2
Lfunc_end3:
	.cfi_endproc
	.section	__TEXT,__gcc_except_tab
	.p2align	2
GCC_except_table3:
Lexception3:
	.byte	255
	.byte	155
	.uleb128 Lttbase3-Lttbaseref3
Lttbaseref3:
	.byte	1
	.uleb128 Lcst_end3-Lcst_begin3
Lcst_begin3:
	.uleb128 Ltmp129-Lfunc_begin3
	.uleb128 Ltmp134-Ltmp129
	.uleb128 Ltmp171-Lfunc_begin3
	.byte	0
	.uleb128 Ltmp135-Lfunc_begin3
	.uleb128 Ltmp136-Ltmp135
	.uleb128 Ltmp137-Lfunc_begin3
	.byte	3
	.uleb128 Ltmp145-Lfunc_begin3
	.uleb128 Ltmp144-Ltmp145
	.uleb128 Ltmp147-Lfunc_begin3
	.byte	0
	.uleb128 Ltmp148-Lfunc_begin3
	.uleb128 Ltmp149-Ltmp148
	.uleb128 Ltmp157-Lfunc_begin3
	.byte	0
	.uleb128 Ltmp150-Lfunc_begin3
	.uleb128 Ltmp151-Ltmp150
	.uleb128 Ltmp152-Lfunc_begin3
	.byte	0
	.uleb128 Ltmp161-Lfunc_begin3
	.uleb128 Ltmp162-Ltmp161
	.uleb128 Ltmp163-Lfunc_begin3
	.byte	0
	.uleb128 Ltmp164-Lfunc_begin3
	.uleb128 Ltmp165-Ltmp164
	.uleb128 Ltmp168-Lfunc_begin3
	.byte	0
	.uleb128 Ltmp169-Lfunc_begin3
	.uleb128 Ltmp170-Ltmp169
	.uleb128 Ltmp171-Lfunc_begin3
	.byte	0
	.uleb128 Ltmp166-Lfunc_begin3
	.uleb128 Ltmp167-Ltmp166
	.uleb128 Ltmp168-Lfunc_begin3
	.byte	0
	.uleb128 Ltmp131-Lfunc_begin3
	.uleb128 Ltmp132-Ltmp131
	.uleb128 Ltmp171-Lfunc_begin3
	.byte	0
	.uleb128 Ltmp155-Lfunc_begin3
	.uleb128 Ltmp154-Ltmp155
	.uleb128 Ltmp157-Lfunc_begin3
	.byte	0
	.uleb128 Ltmp158-Lfunc_begin3
	.uleb128 Ltmp159-Ltmp158
	.uleb128 Ltmp160-Lfunc_begin3
	.byte	0
	.uleb128 Ltmp138-Lfunc_begin3
	.uleb128 Ltmp139-Ltmp138
	.uleb128 Ltmp171-Lfunc_begin3
	.byte	0
	.uleb128 Ltmp140-Lfunc_begin3
	.uleb128 Ltmp141-Ltmp140
	.uleb128 Ltmp142-Lfunc_begin3
	.byte	0
	.uleb128 Ltmp141-Lfunc_begin3
	.uleb128 Lfunc_end3-Ltmp141
	.byte	0
	.byte	0
Lcst_end3:
	.byte	0
	.byte	0
	.byte	1
	.byte	125
	.p2align	2
	.long	0
Lttbase3:
	.p2align	2

	.section	__TEXT,__text,regular,pure_instructions
	.p2align	4, 0x90
__ZN10rayon_core4join12join_context28_$u7b$$u7b$closure$u7d$$u7d$17h4a5ddbc05ac4fba4E:
Lfunc_begin4:
	.cfi_startproc
	.cfi_personality 155, _rust_eh_personality
	.cfi_lsda 16, Lexception4
	pushq	%rbp
	.cfi_def_cfa_offset 16
	.cfi_offset %rbp, -16
	movq	%rsp, %rbp
	.cfi_def_cfa_register %rbp
	pushq	%r15
	pushq	%r14
	pushq	%r13
	pushq	%r12
	pushq	%rbx
	subq	$184, %rsp
	.cfi_offset %rbx, -56
	.cfi_offset %r12, -48
	.cfi_offset %r13, -40
	.cfi_offset %r14, -32
	.cfi_offset %r15, -24
	movq	%rsi, %rbx
	movq	%rdi, %r15
	movq	40(%rdi), %rax
	movq	%rax, -88(%rbp)
	movq	32(%rdi), %rax
	movq	%rax, -96(%rbp)
	movq	24(%rdi), %rax
	movq	%rax, -104(%rbp)
	movq	16(%rdi), %rax
	movq	%rax, -112(%rbp)
	movq	(%rdi), %rax
	movq	8(%rdi), %rcx
	movq	%rcx, -120(%rbp)
	movq	%rax, -128(%rbp)
	movb	$0, -56(%rbp)
	movq	$0, -80(%rbp)
	movq	256(%rsi), %rax
	movq	264(%rax), %r14
	movq	256(%rax), %rax
	movq	272(%rsi), %rsi
	movq	%r14, %rcx
	subq	%rax, %rcx
	cmpq	%rsi, %rcx
	movl	%edx, -44(%rbp)
	jl	LBB4_4
	addq	%rsi, %rsi
	jb	LBB4_7
	leaq	256(%rbx), %rdi
Ltmp172:
	callq	__ZN15crossbeam_deque15Worker$LT$T$GT$6resize17h73667af9f54c6c19E
Ltmp173:
	movq	272(%rbx), %rsi
LBB4_4:
	subq	$1, %rsi
	jb	LBB4_5
	movq	264(%rbx), %rax
	andq	%r14, %rsi
	shlq	$4, %rsi
	leaq	-128(%rbp), %r12
	movq	%r12, (%rax,%rsi)
	leaq	__ZN83_$LT$rayon_core..job..StackJob$LT$L$C$F$C$R$GT$$u20$as$u20$rayon_core..job..Job$GT$7execute17h0b4e52aad2bbccecE(%rip), %r13
	movq	%r13, 8(%rax,%rsi)
	##MEMBARRIER
	movq	256(%rbx), %rax
	incq	%r14
	movq	%r14, 264(%rax)
	movl	$408, %edi
	addq	304(%rbx), %rdi
	movq	288(%rbx), %rsi
Ltmp176:
	callq	__ZN10rayon_core5sleep5Sleep6tickle17h5038bd408706a5c1E
Ltmp177:
	movq	48(%r15), %rax
	movq	56(%r15), %rcx
	movq	64(%r15), %r8
	movq	72(%r15), %r9
	movq	80(%r15), %rsi
	movq	(%rax), %rdi
	movq	(%rcx), %rdx
	movq	8(%rcx), %rcx
Ltmp178:
	movq	%rsi, (%rsp)
	movzbl	-44(%rbp), %r14d
	movl	%r14d, %esi
	callq	__ZN5rayon4iter8plumbing24bridge_producer_consumer6helper17h3eb53bfcd77f48e3E
Ltmp179:
	leaq	-56(%rbp), %r15
	jmp	LBB4_11
	.p2align	4, 0x90
LBB4_23:
Ltmp188:
	movq	%rbx, %rdi
	movq	%rax, %rsi
	callq	__ZN10rayon_core8registry12WorkerThread7execute17hc504892f49177628E
Ltmp189:
LBB4_11:
	movzbl	-56(%rbp), %eax
	testb	%al, %al
	jne	LBB4_16
Ltmp186:
	movq	%rbx, %rdi
	callq	__ZN10rayon_core8registry12WorkerThread14take_local_job17h4a60902ba985e6d4E
Ltmp187:
	testq	%rdx, %rdx
	je	LBB4_14
	cmpq	%r12, %rax
	jne	LBB4_23
	cmpq	%r13, %rdx
	jne	LBB4_23
	leaq	-208(%rbp), %rdi
	leaq	-128(%rbp), %rsi
	movl	$10, %ecx
	rep;movsq (%rsi), %es:(%rdi)
	movq	-208(%rbp), %rax
	testq	%rax, %rax
	je	LBB4_25
	movq	-200(%rbp), %rcx
	movq	(%rax), %rdi
	subq	(%rcx), %rdi
	jb	LBB4_33
	movq	-192(%rbp), %rax
	movq	-184(%rbp), %r8
	movq	-176(%rbp), %r9
	movq	-168(%rbp), %rsi
	movq	(%rax), %rdx
	movq	8(%rax), %rcx
Ltmp191:
	movq	%rsi, (%rsp)
	movl	%r14d, %esi
	callq	__ZN5rayon4iter8plumbing24bridge_producer_consumer6helper17h3eb53bfcd77f48e3E
Ltmp192:
	cmpl	$2, -160(%rbp)
	jb	LBB4_32
	movq	-152(%rbp), %r15
	movq	-144(%rbp), %rbx
Ltmp193:
	movq	%r15, %rdi
	callq	*(%rbx)
Ltmp194:
	movq	8(%rbx), %rsi
	testq	%rsi, %rsi
	je	LBB4_32
	movq	16(%rbx), %rdx
	movq	%r15, %rdi
	callq	___rust_dealloc
	jmp	LBB4_32
LBB4_14:
	movb	-56(%rbp), %al
	testb	%al, %al
	jne	LBB4_16
Ltmp204:
	movq	%rbx, %rdi
	movq	%r15, %rsi
	callq	__ZN10rayon_core8registry12WorkerThread15wait_until_cold17h85a044fa98ca4aa2E
Ltmp205:
LBB4_16:
	movq	-80(%rbp), %rax
	cmpq	$1, %rax
	jne	LBB4_17
LBB4_32:
	addq	$184, %rsp
	popq	%rbx
	popq	%r12
	popq	%r13
	popq	%r14
	popq	%r15
	popq	%rbp
	retq
LBB4_17:
	testq	%rax, %rax
	je	LBB4_35
	movq	-72(%rbp), %rdi
	movq	-64(%rbp), %rsi
Ltmp207:
	callq	__ZN10rayon_core6unwind16resume_unwinding17h5fa1757f689722ceE
Ltmp208:
	jmp	LBB4_6
LBB4_5:
Ltmp212:
	leaq	_str.2(%rip), %rdi
	leaq	l___unnamed_1(%rip), %rdx
	movl	$33, %esi
	callq	__ZN4core9panicking5panic17h383a6b80ea7021aaE
Ltmp213:
	jmp	LBB4_6
LBB4_35:
Ltmp209:
	leaq	l___unnamed_2(%rip), %rdi
	leaq	l___unnamed_3(%rip), %rdx
	movl	$40, %esi
	callq	__ZN3std9panicking11begin_panic17hd62f0347f881f53aE
Ltmp210:
	jmp	LBB4_6
LBB4_7:
Ltmp174:
	leaq	_str.1(%rip), %rdi
	leaq	l___unnamed_4(%rip), %rdx
	movl	$33, %esi
	callq	__ZN4core9panicking5panic17h383a6b80ea7021aaE
Ltmp175:
	jmp	LBB4_6
LBB4_25:
Ltmp198:
	leaq	l___unnamed_5(%rip), %rdi
	leaq	l___unnamed_6(%rip), %rdx
	movl	$43, %esi
	callq	__ZN4core9panicking5panic17h383a6b80ea7021aaE
Ltmp199:
	jmp	LBB4_6
LBB4_33:
Ltmp196:
	leaq	_str.2(%rip), %rdi
	leaq	l___unnamed_7(%rip), %rdx
	movl	$33, %esi
	callq	__ZN4core9panicking5panic17h383a6b80ea7021aaE
Ltmp197:
	jmp	LBB4_6
LBB4_45:
Ltmp211:
	jmp	LBB4_40
LBB4_38:
Ltmp206:
	jmp	LBB4_44
LBB4_36:
Ltmp195:
	movq	%rax, %r14
	movq	%r15, %rdi
	movq	%rbx, %rsi
	callq	__ZN5alloc5alloc8box_free17h9438c5f1772b94e3E
	jmp	LBB4_41
LBB4_34:
Ltmp200:
	movq	%rax, %r14
	leaq	-160(%rbp), %rdi
Ltmp201:
	callq	__ZN4core3ptr13drop_in_place17hd53146ad14be3b16E
Ltmp202:
	jmp	LBB4_41
LBB4_39:
Ltmp203:
LBB4_40:
	movq	%rax, %r14
	jmp	LBB4_41
LBB4_19:
Ltmp180:
Ltmp181:
	movq	%rax, %rdi
	callq	__ZN3std9panicking3try7cleanup17hd630ddf77975344aE
Ltmp182:
	movq	%rdx, %rcx
	leaq	-56(%rbp), %rsi
Ltmp183:
	movq	%rbx, %rdi
	movq	%rax, %rdx
	callq	__ZN10rayon_core4join23join_recover_from_panic17h47a5fd9714c21a6fE
Ltmp184:
LBB4_6:
	ud2
LBB4_43:
Ltmp185:
	jmp	LBB4_44
LBB4_42:
Ltmp214:
	jmp	LBB4_44
LBB4_37:
Ltmp190:
LBB4_44:
	movq	%rax, %r14
	leaq	-128(%rbp), %rdi
	callq	__ZN4core3ptr13drop_in_place17h0737b5809d4cb690E
LBB4_41:
	movq	%r14, %rdi
	callq	__Unwind_Resume
	ud2
Lfunc_end4:
	.cfi_endproc
	.section	__TEXT,__gcc_except_tab
	.p2align	2
GCC_except_table4:
Lexception4:
	.byte	255
	.byte	155
	.uleb128 Lttbase4-Lttbaseref4
Lttbaseref4:
	.byte	1
	.uleb128 Lcst_end4-Lcst_begin4
Lcst_begin4:
	.uleb128 Ltmp172-Lfunc_begin4
	.uleb128 Ltmp177-Ltmp172
	.uleb128 Ltmp214-Lfunc_begin4
	.byte	0
	.uleb128 Ltmp178-Lfunc_begin4
	.uleb128 Ltmp179-Ltmp178
	.uleb128 Ltmp180-Lfunc_begin4
	.byte	3
	.uleb128 Ltmp188-Lfunc_begin4
	.uleb128 Ltmp187-Ltmp188
	.uleb128 Ltmp190-Lfunc_begin4
	.byte	0
	.uleb128 Ltmp191-Lfunc_begin4
	.uleb128 Ltmp192-Ltmp191
	.uleb128 Ltmp200-Lfunc_begin4
	.byte	0
	.uleb128 Ltmp193-Lfunc_begin4
	.uleb128 Ltmp194-Ltmp193
	.uleb128 Ltmp195-Lfunc_begin4
	.byte	0
	.uleb128 Ltmp204-Lfunc_begin4
	.uleb128 Ltmp205-Ltmp204
	.uleb128 Ltmp206-Lfunc_begin4
	.byte	0
	.uleb128 Ltmp207-Lfunc_begin4
	.uleb128 Ltmp208-Ltmp207
	.uleb128 Ltmp211-Lfunc_begin4
	.byte	0
	.uleb128 Ltmp212-Lfunc_begin4
	.uleb128 Ltmp213-Ltmp212
	.uleb128 Ltmp214-Lfunc_begin4
	.byte	0
	.uleb128 Ltmp209-Lfunc_begin4
	.uleb128 Ltmp210-Ltmp209
	.uleb128 Ltmp211-Lfunc_begin4
	.byte	0
	.uleb128 Ltmp174-Lfunc_begin4
	.uleb128 Ltmp175-Ltmp174
	.uleb128 Ltmp214-Lfunc_begin4
	.byte	0
	.uleb128 Ltmp198-Lfunc_begin4
	.uleb128 Ltmp197-Ltmp198
	.uleb128 Ltmp200-Lfunc_begin4
	.byte	0
	.uleb128 Ltmp201-Lfunc_begin4
	.uleb128 Ltmp202-Ltmp201
	.uleb128 Ltmp203-Lfunc_begin4
	.byte	0
	.uleb128 Ltmp181-Lfunc_begin4
	.uleb128 Ltmp182-Ltmp181
	.uleb128 Ltmp214-Lfunc_begin4
	.byte	0
	.uleb128 Ltmp183-Lfunc_begin4
	.uleb128 Ltmp184-Ltmp183
	.uleb128 Ltmp185-Lfunc_begin4
	.byte	0
	.uleb128 Ltmp184-Lfunc_begin4
	.uleb128 Lfunc_end4-Ltmp184
	.byte	0
	.byte	0
Lcst_end4:
	.byte	0
	.byte	0
	.byte	1
	.byte	125
	.p2align	2
	.long	0
Lttbase4:
	.p2align	2

	.section	__TEXT,__text,regular,pure_instructions
	.p2align	4, 0x90
__ZN10rayon_core4join12join_context28_$u7b$$u7b$closure$u7d$$u7d$17h5077b7a27024be78E:
Lfunc_begin5:
	.cfi_startproc
	.cfi_personality 155, _rust_eh_personality
	.cfi_lsda 16, Lexception5
	pushq	%rbp
	.cfi_def_cfa_offset 16
	.cfi_offset %rbp, -16
	movq	%rsp, %rbp
	.cfi_def_cfa_register %rbp
	pushq	%r15
	pushq	%r14
	pushq	%r13
	pushq	%r12
	pushq	%rbx
	andq	$-64, %rsp
	subq	$768, %rsp
	.cfi_offset %rbx, -56
	.cfi_offset %r12, -48
	.cfi_offset %r13, -40
	.cfi_offset %r14, -32
	.cfi_offset %r15, -24
	movl	%ecx, 60(%rsp)
	movq	%rdx, %rbx
	movq	%rsi, %r12
	movq	%rdi, %r15
	movb	$0, 504(%rsp)
	movq	(%rsi), %rax
	movq	8(%rsi), %rcx
	movq	%rax, 448(%rsp)
	movq	%rcx, 456(%rsp)
	movq	16(%rsi), %rax
	movq	%rax, 464(%rsp)
	movq	24(%rsi), %rax
	movq	%rax, 472(%rsp)
	movq	32(%rsi), %rax
	movq	%rax, 480(%rsp)
	movq	40(%rsi), %rax
	movq	%rax, 488(%rsp)
	movq	48(%rsi), %rax
	movq	%rax, 496(%rsp)
	movq	$0, 320(%rsp)
	movq	256(%rdx), %rax
	movq	264(%rax), %r14
	movq	256(%rax), %rax
	movq	272(%rdx), %rsi
	movq	%r14, %rcx
	subq	%rax, %rcx
	cmpq	%rsi, %rcx
	jl	LBB5_4
	addq	%rsi, %rsi
	jb	LBB5_7
	leaq	256(%rbx), %rdi
Ltmp215:
	callq	__ZN15crossbeam_deque15Worker$LT$T$GT$6resize17h73667af9f54c6c19E
Ltmp216:
	movq	272(%rbx), %rsi
LBB5_4:
	subq	$1, %rsi
	jb	LBB5_5
	movq	264(%rbx), %rax
	andq	%r14, %rsi
	shlq	$4, %rsi
	leaq	320(%rsp), %r13
	movq	%r13, (%rax,%rsi)
	leaq	__ZN83_$LT$rayon_core..job..StackJob$LT$L$C$F$C$R$GT$$u20$as$u20$rayon_core..job..Job$GT$7execute17h4c0bc4beaeef4966E(%rip), %rcx
	movq	%rcx, 8(%rax,%rsi)
	##MEMBARRIER
	movq	256(%rbx), %rax
	incq	%r14
	movq	%r14, 264(%rax)
	movl	$408, %edi
	addq	304(%rbx), %rdi
	movq	288(%rbx), %rsi
Ltmp219:
	callq	__ZN10rayon_core5sleep5Sleep6tickle17h5038bd408706a5c1E
Ltmp220:
	movq	80(%r12), %rax
	movq	%rax, 88(%rsp)
	movq	72(%r12), %rax
	movq	%rax, 80(%rsp)
	movq	96(%r12), %rax
	movq	%rax, 104(%rsp)
	movq	88(%r12), %rax
	movq	%rax, 96(%rsp)
	movq	56(%r12), %rax
	movq	64(%r12), %rcx
	movq	%rcx, 72(%rsp)
	movq	%rax, 64(%rsp)
	movl	60(%rsp), %r14d
	movb	%r14b, 112(%rsp)
	movq	80(%rsp), %r9
	movq	88(%rsp), %rdi
	movdqa	96(%rsp), %xmm0
	movdqa	64(%rsp), %xmm1
	movq	%xmm1, %rcx
	pshufd	$78, %xmm1, %xmm1
	movq	%xmm1, %rax
	pshufd	$78, %xmm0, %xmm1
	xorl	%edx, %edx
	testb	%r14b, %r14b
	setne	%dl
	movq	(%rcx), %rsi
	movq	(%rax), %rcx
	movq	8(%rax), %r8
	movq	%xmm0, 192(%rsp)
	movq	%r9, 176(%rsp)
	movq	%rdi, 184(%rsp)
Ltmp221:
	movq	%xmm1, (%rsp)
	leaq	512(%rsp), %rdi
	leaq	176(%rsp), %r9
	callq	__ZN5rayon4iter8plumbing24bridge_producer_consumer6helper17he048f86b6e3f9a33E
Ltmp222:
	movaps	512(%rsp), %xmm0
	movaps	%xmm0, 256(%rsp)
	movaps	528(%rsp), %xmm0
	movaps	%xmm0, 240(%rsp)
	movaps	544(%rsp), %xmm0
	movaps	%xmm0, 224(%rsp)
	movdqa	560(%rsp), %xmm0
	movdqa	%xmm0, 272(%rsp)
	leaq	504(%rsp), %r12
	jmp	LBB5_11
	.p2align	4, 0x90
LBB5_23:
Ltmp231:
	movq	%rbx, %rdi
	movq	%rax, %rsi
	callq	__ZN10rayon_core8registry12WorkerThread7execute17hc504892f49177628E
Ltmp232:
LBB5_11:
	movzbl	504(%rsp), %eax
	testb	%al, %al
	jne	LBB5_16
Ltmp229:
	movq	%rbx, %rdi
	callq	__ZN10rayon_core8registry12WorkerThread14take_local_job17h4a60902ba985e6d4E
Ltmp230:
	testq	%rdx, %rdx
	je	LBB5_14
	cmpq	%r13, %rax
	jne	LBB5_23
	leaq	__ZN83_$LT$rayon_core..job..StackJob$LT$L$C$F$C$R$GT$$u20$as$u20$rayon_core..job..Job$GT$7execute17h4c0bc4beaeef4966E(%rip), %rcx
	cmpq	%rcx, %rdx
	jne	LBB5_23
	leaq	512(%rsp), %rdi
	leaq	320(%rsp), %rsi
	movl	$192, %edx
	callq	_memcpy
	movq	640(%rsp), %rsi
	movq	648(%rsp), %rcx
	movq	656(%rsp), %rax
	movq	664(%rsp), %rdx
	movq	%rdx, 64(%rsp)
	movq	672(%rsp), %rdx
	movq	%rdx, 72(%rsp)
	movq	680(%rsp), %rdx
	movq	%rdx, 80(%rsp)
	testq	%rsi, %rsi
	je	LBB5_25
	movq	688(%rsp), %r9
	movq	80(%rsp), %rdi
	movq	%rdi, 312(%rsp)
	movq	64(%rsp), %rbx
	movq	72(%rsp), %rdx
	movq	%rdx, 304(%rsp)
	movq	%rbx, 296(%rsp)
	movq	%rdi, 216(%rsp)
	movq	%rdx, 208(%rsp)
	movq	%rbx, 200(%rsp)
	movq	(%rsi), %rsi
	subq	(%rcx), %rsi
	jb	LBB5_27
	movq	(%rax), %rcx
	movq	8(%rax), %r8
	movq	216(%rsp), %rax
	movq	%rax, 192(%rsp)
	movq	200(%rsp), %rax
	movq	208(%rsp), %rdx
	movq	%rdx, 184(%rsp)
	movq	%rax, 176(%rsp)
Ltmp234:
	movq	%r9, (%rsp)
	movzbl	%r14b, %edx
	leaq	64(%rsp), %rdi
	leaq	176(%rsp), %r9
	callq	__ZN5rayon4iter8plumbing24bridge_producer_consumer6helper17he048f86b6e3f9a33E
Ltmp235:
	cmpl	$2, 512(%rsp)
	jb	LBB5_33
	movq	520(%rsp), %r12
	movq	528(%rsp), %rbx
Ltmp236:
	movq	%r12, %rdi
	callq	*(%rbx)
Ltmp237:
	movq	8(%rbx), %rsi
	testq	%rsi, %rsi
	je	LBB5_33
	movq	16(%rbx), %rdx
	movq	%r12, %rdi
	callq	___rust_dealloc
LBB5_33:
	movaps	64(%rsp), %xmm0
	movaps	80(%rsp), %xmm1
	movaps	96(%rsp), %xmm2
	movaps	112(%rsp), %xmm3
	movaps	224(%rsp), %xmm4
	movaps	%xmm4, 32(%r15)
	movaps	240(%rsp), %xmm4
	movaps	%xmm4, 16(%r15)
	movaps	256(%rsp), %xmm4
	movaps	%xmm4, (%r15)
	movaps	272(%rsp), %xmm4
	movaps	%xmm4, 48(%r15)
	movaps	%xmm3, 112(%r15)
	movaps	%xmm2, 96(%r15)
	movaps	%xmm1, 80(%r15)
	movaps	%xmm0, 64(%r15)
	jmp	LBB5_34
LBB5_14:
	movb	504(%rsp), %al
	testb	%al, %al
	jne	LBB5_16
Ltmp247:
	movq	%rbx, %rdi
	movq	%r12, %rsi
	callq	__ZN10rayon_core8registry12WorkerThread15wait_until_cold17h85a044fa98ca4aa2E
Ltmp248:
LBB5_16:
	movq	320(%rsp), %rax
	cmpq	$1, %rax
	jne	LBB5_17
	movaps	384(%rsp), %xmm0
	movaps	400(%rsp), %xmm1
	movaps	416(%rsp), %xmm2
	movaps	432(%rsp), %xmm3
	movaps	256(%rsp), %xmm4
	movaps	%xmm4, (%r15)
	movaps	240(%rsp), %xmm4
	movaps	%xmm4, 16(%r15)
	movaps	224(%rsp), %xmm4
	movaps	%xmm4, 32(%r15)
	movaps	272(%rsp), %xmm4
	movaps	%xmm4, 48(%r15)
	movaps	%xmm2, 96(%r15)
	movaps	%xmm3, 112(%r15)
	movaps	%xmm0, 64(%r15)
	movaps	%xmm1, 80(%r15)
LBB5_34:
	leaq	-40(%rbp), %rsp
	popq	%rbx
	popq	%r12
	popq	%r13
	popq	%r14
	popq	%r15
	popq	%rbp
	retq
LBB5_17:
	testq	%rax, %rax
	je	LBB5_36
	movq	328(%rsp), %rdi
	movq	336(%rsp), %rsi
Ltmp250:
	callq	__ZN10rayon_core6unwind16resume_unwinding17h5fa1757f689722ceE
Ltmp251:
	jmp	LBB5_6
LBB5_5:
Ltmp255:
	leaq	_str.2(%rip), %rdi
	leaq	l___unnamed_1(%rip), %rdx
	movl	$33, %esi
	callq	__ZN4core9panicking5panic17h383a6b80ea7021aaE
Ltmp256:
	jmp	LBB5_6
LBB5_36:
Ltmp252:
	leaq	l___unnamed_2(%rip), %rdi
	leaq	l___unnamed_3(%rip), %rdx
	movl	$40, %esi
	callq	__ZN3std9panicking11begin_panic17hd62f0347f881f53aE
Ltmp253:
	jmp	LBB5_6
LBB5_7:
Ltmp217:
	leaq	_str.1(%rip), %rdi
	leaq	l___unnamed_4(%rip), %rdx
	movl	$33, %esi
	callq	__ZN4core9panicking5panic17h383a6b80ea7021aaE
Ltmp218:
	jmp	LBB5_6
LBB5_25:
Ltmp241:
	leaq	l___unnamed_5(%rip), %rdi
	leaq	l___unnamed_6(%rip), %rdx
	movl	$43, %esi
	callq	__ZN4core9panicking5panic17h383a6b80ea7021aaE
Ltmp242:
	jmp	LBB5_6
LBB5_27:
Ltmp239:
	leaq	_str.2(%rip), %rdi
	leaq	l___unnamed_7(%rip), %rdx
	movl	$33, %esi
	callq	__ZN4core9panicking5panic17h383a6b80ea7021aaE
Ltmp240:
	jmp	LBB5_6
LBB5_47:
Ltmp254:
	jmp	LBB5_42
LBB5_40:
Ltmp249:
	jmp	LBB5_46
LBB5_38:
Ltmp238:
	movq	%rax, %r14
	movq	%r12, %rdi
	movq	%rbx, %rsi
	callq	__ZN5alloc5alloc8box_free17h9438c5f1772b94e3E
	jmp	LBB5_43
LBB5_35:
Ltmp243:
	movq	%rax, %r14
Ltmp244:
	leaq	512(%rsp), %rdi
	callq	__ZN4core3ptr13drop_in_place17h0b7def0b7e32d541E
Ltmp245:
	jmp	LBB5_43
LBB5_41:
Ltmp246:
LBB5_42:
	movq	%rax, %r14
	jmp	LBB5_43
LBB5_19:
Ltmp223:
Ltmp224:
	movq	%rax, %rdi
	callq	__ZN3std9panicking3try7cleanup17hd630ddf77975344aE
Ltmp225:
	movq	%rdx, %rcx
	leaq	504(%rsp), %rsi
Ltmp226:
	movq	%rbx, %rdi
	movq	%rax, %rdx
	callq	__ZN10rayon_core4join23join_recover_from_panic17h47a5fd9714c21a6fE
Ltmp227:
LBB5_6:
	ud2
LBB5_45:
Ltmp228:
	jmp	LBB5_46
LBB5_44:
Ltmp257:
	jmp	LBB5_46
LBB5_39:
Ltmp233:
LBB5_46:
	movq	%rax, %r14
	leaq	320(%rsp), %rdi
	callq	__ZN4core3ptr13drop_in_place17h0b7def0b7e32d541E
LBB5_43:
	movq	%r14, %rdi
	callq	__Unwind_Resume
	ud2
Lfunc_end5:
	.cfi_endproc
	.section	__TEXT,__gcc_except_tab
	.p2align	2
GCC_except_table5:
Lexception5:
	.byte	255
	.byte	155
	.uleb128 Lttbase5-Lttbaseref5
Lttbaseref5:
	.byte	1
	.uleb128 Lcst_end5-Lcst_begin5
Lcst_begin5:
	.uleb128 Ltmp215-Lfunc_begin5
	.uleb128 Ltmp220-Ltmp215
	.uleb128 Ltmp257-Lfunc_begin5
	.byte	0
	.uleb128 Ltmp221-Lfunc_begin5
	.uleb128 Ltmp222-Ltmp221
	.uleb128 Ltmp223-Lfunc_begin5
	.byte	3
	.uleb128 Ltmp231-Lfunc_begin5
	.uleb128 Ltmp230-Ltmp231
	.uleb128 Ltmp233-Lfunc_begin5
	.byte	0
	.uleb128 Ltmp230-Lfunc_begin5
	.uleb128 Ltmp234-Ltmp230
	.byte	0
	.byte	0
	.uleb128 Ltmp234-Lfunc_begin5
	.uleb128 Ltmp235-Ltmp234
	.uleb128 Ltmp243-Lfunc_begin5
	.byte	0
	.uleb128 Ltmp236-Lfunc_begin5
	.uleb128 Ltmp237-Ltmp236
	.uleb128 Ltmp238-Lfunc_begin5
	.byte	0
	.uleb128 Ltmp247-Lfunc_begin5
	.uleb128 Ltmp248-Ltmp247
	.uleb128 Ltmp249-Lfunc_begin5
	.byte	0
	.uleb128 Ltmp250-Lfunc_begin5
	.uleb128 Ltmp251-Ltmp250
	.uleb128 Ltmp254-Lfunc_begin5
	.byte	0
	.uleb128 Ltmp255-Lfunc_begin5
	.uleb128 Ltmp256-Ltmp255
	.uleb128 Ltmp257-Lfunc_begin5
	.byte	0
	.uleb128 Ltmp252-Lfunc_begin5
	.uleb128 Ltmp253-Ltmp252
	.uleb128 Ltmp254-Lfunc_begin5
	.byte	0
	.uleb128 Ltmp217-Lfunc_begin5
	.uleb128 Ltmp218-Ltmp217
	.uleb128 Ltmp257-Lfunc_begin5
	.byte	0
	.uleb128 Ltmp241-Lfunc_begin5
	.uleb128 Ltmp240-Ltmp241
	.uleb128 Ltmp243-Lfunc_begin5
	.byte	0
	.uleb128 Ltmp244-Lfunc_begin5
	.uleb128 Ltmp245-Ltmp244
	.uleb128 Ltmp246-Lfunc_begin5
	.byte	0
	.uleb128 Ltmp224-Lfunc_begin5
	.uleb128 Ltmp225-Ltmp224
	.uleb128 Ltmp257-Lfunc_begin5
	.byte	0
	.uleb128 Ltmp226-Lfunc_begin5
	.uleb128 Ltmp227-Ltmp226
	.uleb128 Ltmp228-Lfunc_begin5
	.byte	0
	.uleb128 Ltmp227-Lfunc_begin5
	.uleb128 Lfunc_end5-Ltmp227
	.byte	0
	.byte	0
Lcst_end5:
	.byte	0
	.byte	0
	.byte	1
	.byte	125
	.p2align	2
	.long	0
Lttbase5:
	.p2align	2

	.section	__TEXT,__text,regular,pure_instructions
	.p2align	4, 0x90
__ZN10rayon_core4join12join_context28_$u7b$$u7b$closure$u7d$$u7d$17h6511e43919a0d0d6E:
Lfunc_begin6:
	.cfi_startproc
	.cfi_personality 155, _rust_eh_personality
	.cfi_lsda 16, Lexception6
	pushq	%rbp
	.cfi_def_cfa_offset 16
	.cfi_offset %rbp, -16
	movq	%rsp, %rbp
	.cfi_def_cfa_register %rbp
	pushq	%r15
	pushq	%r14
	pushq	%r13
	pushq	%r12
	pushq	%rbx
	andq	$-64, %rsp
	subq	$1024, %rsp
	.cfi_offset %rbx, -56
	.cfi_offset %r12, -48
	.cfi_offset %r13, -40
	.cfi_offset %r14, -32
	.cfi_offset %r15, -24
	movl	%ecx, %r8d
	movq	%rdx, %rbx
	movq	%rsi, %r12
	movq	%rdi, 184(%rsp)
	movb	$0, 928(%rsp)
	leaq	832(%rsp), %rdi
	movl	$12, %ecx
	rep;movsq (%rsi), %es:(%rdi)
	movq	$0, 704(%rsp)
	movq	256(%rdx), %rax
	movq	264(%rax), %r14
	movq	256(%rax), %rax
	movq	272(%rdx), %rsi
	movq	%r14, %rcx
	subq	%rax, %rcx
	cmpq	%rsi, %rcx
	movl	%r8d, 192(%rsp)
	jl	LBB6_4
	addq	%rsi, %rsi
	jb	LBB6_7
	leaq	256(%rbx), %rdi
Ltmp258:
	callq	__ZN15crossbeam_deque15Worker$LT$T$GT$6resize17h73667af9f54c6c19E
Ltmp259:
	movq	272(%rbx), %rsi
LBB6_4:
	subq	$1, %rsi
	jb	LBB6_5
	movq	264(%rbx), %rax
	andq	%r14, %rsi
	shlq	$4, %rsi
	leaq	704(%rsp), %r13
	movq	%r13, (%rax,%rsi)
	leaq	__ZN83_$LT$rayon_core..job..StackJob$LT$L$C$F$C$R$GT$$u20$as$u20$rayon_core..job..Job$GT$7execute17ha23ca263632b0313E(%rip), %r15
	movq	%r15, 8(%rax,%rsi)
	##MEMBARRIER
	movq	256(%rbx), %rax
	incq	%r14
	movq	%r14, 264(%rax)
	movl	$408, %edi
	addq	304(%rbx), %rdi
	movq	288(%rbx), %rsi
Ltmp262:
	callq	__ZN10rayon_core5sleep5Sleep6tickle17h5038bd408706a5c1E
Ltmp263:
	movdqu	96(%r12), %xmm0
	movups	112(%r12), %xmm1
	movups	128(%r12), %xmm2
	movups	144(%r12), %xmm3
	movq	176(%r12), %r9
	movq	%xmm0, %rcx
	pshufd	$78, %xmm0, %xmm0
	movq	%xmm0, %rdx
	movq	160(%r12), %rdi
	movq	168(%r12), %rax
	movq	%rax, 216(%rsp)
	movq	%rdi, 208(%rsp)
	movq	(%rcx), %rsi
	movq	(%rdx), %rcx
	movq	8(%rdx), %r8
	movups	%xmm3, 416(%rsp)
	movups	%xmm2, 400(%rsp)
	movups	%xmm1, 384(%rsp)
	movq	%rdi, 432(%rsp)
	movq	%rax, 440(%rsp)
Ltmp264:
	movq	%r9, (%rsp)
	movzbl	192(%rsp), %r12d
	leaq	64(%rsp), %rdi
	leaq	384(%rsp), %r9
	movl	%r12d, %edx
	callq	__ZN5rayon4iter8plumbing24bridge_producer_consumer6helper17h70242b42e3696239E
Ltmp265:
	movaps	64(%rsp), %xmm0
	movaps	%xmm0, 304(%rsp)
	movaps	80(%rsp), %xmm0
	movaps	%xmm0, 288(%rsp)
	movaps	96(%rsp), %xmm0
	movaps	%xmm0, 272(%rsp)
	movdqa	112(%rsp), %xmm0
	movdqa	%xmm0, 192(%rsp)
	leaq	928(%rsp), %r14
	jmp	LBB6_11
	.p2align	4, 0x90
LBB6_23:
Ltmp274:
	movq	%rbx, %rdi
	movq	%rax, %rsi
	callq	__ZN10rayon_core8registry12WorkerThread7execute17hc504892f49177628E
Ltmp275:
LBB6_11:
	movzbl	928(%rsp), %eax
	testb	%al, %al
	jne	LBB6_16
Ltmp272:
	movq	%rbx, %rdi
	callq	__ZN10rayon_core8registry12WorkerThread14take_local_job17h4a60902ba985e6d4E
Ltmp273:
	testq	%rdx, %rdx
	je	LBB6_14
	cmpq	%r13, %rax
	jne	LBB6_23
	cmpq	%r15, %rdx
	jne	LBB6_23
	leaq	384(%rsp), %rdi
	leaq	704(%rsp), %rsi
	movl	$256, %edx
	callq	_memcpy
	movq	512(%rsp), %r11
	movq	520(%rsp), %r8
	movq	528(%rsp), %r10
	movq	536(%rsp), %rdx
	movq	%rdx, 64(%rsp)
	movq	544(%rsp), %rdx
	movq	%rdx, 72(%rsp)
	movq	552(%rsp), %rdx
	movq	%rdx, 80(%rsp)
	movq	560(%rsp), %rdx
	movq	%rdx, 88(%rsp)
	movq	568(%rsp), %rdx
	movq	%rdx, 96(%rsp)
	movq	576(%rsp), %rdx
	movq	%rdx, 104(%rsp)
	movq	584(%rsp), %rdx
	movq	%rdx, 112(%rsp)
	movq	592(%rsp), %rdx
	movq	%rdx, 120(%rsp)
	testq	%r11, %r11
	je	LBB6_25
	movq	600(%rsp), %r9
	movq	120(%rsp), %rdi
	movq	%rdi, 376(%rsp)
	movq	112(%rsp), %r14
	movq	%r14, 368(%rsp)
	movq	104(%rsp), %rbx
	movq	%rbx, 360(%rsp)
	movq	96(%rsp), %rdx
	movq	%rdx, 352(%rsp)
	movq	88(%rsp), %rcx
	movq	%rcx, 344(%rsp)
	movq	80(%rsp), %rax
	movq	%rax, 336(%rsp)
	movq	64(%rsp), %rsi
	movq	72(%rsp), %rdi
	movq	%rdi, 328(%rsp)
	movq	%rsi, 320(%rsp)
	movq	%r14, 256(%rsp)
	movq	%rbx, 248(%rsp)
	movq	%rdx, 240(%rsp)
	movq	%rcx, 232(%rsp)
	movq	%rax, 224(%rsp)
	movq	%rdi, 216(%rsp)
	movq	%rsi, 208(%rsp)
	movq	376(%rsp), %rax
	movq	%rax, 264(%rsp)
	movq	(%r11), %rsi
	subq	(%r8), %rsi
	jb	LBB6_27
	movq	(%r10), %rcx
	movq	8(%r10), %r8
	movq	264(%rsp), %rax
	movq	%rax, 120(%rsp)
	movq	256(%rsp), %rax
	movq	%rax, 112(%rsp)
	movq	248(%rsp), %rax
	movq	%rax, 104(%rsp)
	movq	240(%rsp), %rax
	movq	%rax, 96(%rsp)
	movq	232(%rsp), %rax
	movq	%rax, 88(%rsp)
	movq	224(%rsp), %rax
	movq	%rax, 80(%rsp)
	movq	208(%rsp), %rax
	movq	216(%rsp), %rdx
	movq	%rdx, 72(%rsp)
	movq	%rax, 64(%rsp)
Ltmp277:
	movq	%r9, (%rsp)
	leaq	640(%rsp), %rdi
	leaq	64(%rsp), %r9
	movl	%r12d, %edx
	callq	__ZN5rayon4iter8plumbing24bridge_producer_consumer6helper17h70242b42e3696239E
Ltmp278:
	cmpl	$2, 384(%rsp)
	jb	LBB6_33
	movq	392(%rsp), %r15
	movq	400(%rsp), %rbx
Ltmp279:
	movq	%r15, %rdi
	callq	*(%rbx)
Ltmp280:
	movq	8(%rbx), %rsi
	testq	%rsi, %rsi
	je	LBB6_33
	movq	16(%rbx), %rdx
	movq	%r15, %rdi
	callq	___rust_dealloc
LBB6_33:
	movaps	640(%rsp), %xmm0
	movaps	656(%rsp), %xmm1
	movaps	672(%rsp), %xmm2
	movaps	688(%rsp), %xmm3
	movq	184(%rsp), %rax
	movaps	272(%rsp), %xmm4
	movaps	%xmm4, 32(%rax)
	movaps	288(%rsp), %xmm4
	movaps	%xmm4, 16(%rax)
	movaps	304(%rsp), %xmm4
	movaps	%xmm4, (%rax)
	movaps	192(%rsp), %xmm4
	movaps	%xmm4, 48(%rax)
	movaps	%xmm3, 112(%rax)
	movaps	%xmm2, 96(%rax)
	movaps	%xmm1, 80(%rax)
	movaps	%xmm0, 64(%rax)
	jmp	LBB6_34
LBB6_14:
	movb	928(%rsp), %al
	testb	%al, %al
	jne	LBB6_16
Ltmp290:
	movq	%rbx, %rdi
	movq	%r14, %rsi
	callq	__ZN10rayon_core8registry12WorkerThread15wait_until_cold17h85a044fa98ca4aa2E
Ltmp291:
LBB6_16:
	movq	704(%rsp), %rax
	cmpq	$1, %rax
	jne	LBB6_17
	movaps	768(%rsp), %xmm0
	movaps	784(%rsp), %xmm1
	movaps	800(%rsp), %xmm2
	movaps	816(%rsp), %xmm3
	movq	184(%rsp), %rax
	movaps	304(%rsp), %xmm4
	movaps	%xmm4, (%rax)
	movaps	288(%rsp), %xmm4
	movaps	%xmm4, 16(%rax)
	movaps	272(%rsp), %xmm4
	movaps	%xmm4, 32(%rax)
	movaps	192(%rsp), %xmm4
	movaps	%xmm4, 48(%rax)
	movaps	%xmm2, 96(%rax)
	movaps	%xmm3, 112(%rax)
	movaps	%xmm0, 64(%rax)
	movaps	%xmm1, 80(%rax)
LBB6_34:
	leaq	-40(%rbp), %rsp
	popq	%rbx
	popq	%r12
	popq	%r13
	popq	%r14
	popq	%r15
	popq	%rbp
	retq
LBB6_17:
	testq	%rax, %rax
	je	LBB6_36
	movq	712(%rsp), %rdi
	movq	720(%rsp), %rsi
Ltmp293:
	callq	__ZN10rayon_core6unwind16resume_unwinding17h5fa1757f689722ceE
Ltmp294:
	jmp	LBB6_6
LBB6_5:
Ltmp298:
	leaq	_str.2(%rip), %rdi
	leaq	l___unnamed_1(%rip), %rdx
	movl	$33, %esi
	callq	__ZN4core9panicking5panic17h383a6b80ea7021aaE
Ltmp299:
	jmp	LBB6_6
LBB6_36:
Ltmp295:
	leaq	l___unnamed_2(%rip), %rdi
	leaq	l___unnamed_3(%rip), %rdx
	movl	$40, %esi
	callq	__ZN3std9panicking11begin_panic17hd62f0347f881f53aE
Ltmp296:
	jmp	LBB6_6
LBB6_7:
Ltmp260:
	leaq	_str.1(%rip), %rdi
	leaq	l___unnamed_4(%rip), %rdx
	movl	$33, %esi
	callq	__ZN4core9panicking5panic17h383a6b80ea7021aaE
Ltmp261:
	jmp	LBB6_6
LBB6_25:
Ltmp284:
	leaq	l___unnamed_5(%rip), %rdi
	leaq	l___unnamed_6(%rip), %rdx
	movl	$43, %esi
	callq	__ZN4core9panicking5panic17h383a6b80ea7021aaE
Ltmp285:
	jmp	LBB6_6
LBB6_27:
Ltmp282:
	leaq	_str.2(%rip), %rdi
	leaq	l___unnamed_7(%rip), %rdx
	movl	$33, %esi
	callq	__ZN4core9panicking5panic17h383a6b80ea7021aaE
Ltmp283:
	jmp	LBB6_6
LBB6_47:
Ltmp297:
	jmp	LBB6_42
LBB6_40:
Ltmp292:
	jmp	LBB6_46
LBB6_38:
Ltmp281:
	movq	%rax, %r14
	movq	%r15, %rdi
	movq	%rbx, %rsi
	callq	__ZN5alloc5alloc8box_free17h9438c5f1772b94e3E
	jmp	LBB6_43
LBB6_35:
Ltmp286:
	movq	%rax, %r14
Ltmp287:
	leaq	384(%rsp), %rdi
	callq	__ZN4core3ptr13drop_in_place17h0b7def0b7e32d541E
Ltmp288:
	jmp	LBB6_43
LBB6_41:
Ltmp289:
LBB6_42:
	movq	%rax, %r14
	jmp	LBB6_43
LBB6_19:
Ltmp266:
Ltmp267:
	movq	%rax, %rdi
	callq	__ZN3std9panicking3try7cleanup17hd630ddf77975344aE
Ltmp268:
	movq	%rdx, %rcx
	leaq	928(%rsp), %rsi
Ltmp269:
	movq	%rbx, %rdi
	movq	%rax, %rdx
	callq	__ZN10rayon_core4join23join_recover_from_panic17h47a5fd9714c21a6fE
Ltmp270:
LBB6_6:
	ud2
LBB6_45:
Ltmp271:
	jmp	LBB6_46
LBB6_44:
Ltmp300:
	jmp	LBB6_46
LBB6_39:
Ltmp276:
LBB6_46:
	movq	%rax, %r14
	leaq	704(%rsp), %rdi
	callq	__ZN4core3ptr13drop_in_place17h0b7def0b7e32d541E
LBB6_43:
	movq	%r14, %rdi
	callq	__Unwind_Resume
	ud2
Lfunc_end6:
	.cfi_endproc
	.section	__TEXT,__gcc_except_tab
	.p2align	2
GCC_except_table6:
Lexception6:
	.byte	255
	.byte	155
	.uleb128 Lttbase6-Lttbaseref6
Lttbaseref6:
	.byte	1
	.uleb128 Lcst_end6-Lcst_begin6
Lcst_begin6:
	.uleb128 Ltmp258-Lfunc_begin6
	.uleb128 Ltmp263-Ltmp258
	.uleb128 Ltmp300-Lfunc_begin6
	.byte	0
	.uleb128 Ltmp264-Lfunc_begin6
	.uleb128 Ltmp265-Ltmp264
	.uleb128 Ltmp266-Lfunc_begin6
	.byte	3
	.uleb128 Ltmp274-Lfunc_begin6
	.uleb128 Ltmp273-Ltmp274
	.uleb128 Ltmp276-Lfunc_begin6
	.byte	0
	.uleb128 Ltmp273-Lfunc_begin6
	.uleb128 Ltmp277-Ltmp273
	.byte	0
	.byte	0
	.uleb128 Ltmp277-Lfunc_begin6
	.uleb128 Ltmp278-Ltmp277
	.uleb128 Ltmp286-Lfunc_begin6
	.byte	0
	.uleb128 Ltmp279-Lfunc_begin6
	.uleb128 Ltmp280-Ltmp279
	.uleb128 Ltmp281-Lfunc_begin6
	.byte	0
	.uleb128 Ltmp290-Lfunc_begin6
	.uleb128 Ltmp291-Ltmp290
	.uleb128 Ltmp292-Lfunc_begin6
	.byte	0
	.uleb128 Ltmp293-Lfunc_begin6
	.uleb128 Ltmp294-Ltmp293
	.uleb128 Ltmp297-Lfunc_begin6
	.byte	0
	.uleb128 Ltmp298-Lfunc_begin6
	.uleb128 Ltmp299-Ltmp298
	.uleb128 Ltmp300-Lfunc_begin6
	.byte	0
	.uleb128 Ltmp295-Lfunc_begin6
	.uleb128 Ltmp296-Ltmp295
	.uleb128 Ltmp297-Lfunc_begin6
	.byte	0
	.uleb128 Ltmp260-Lfunc_begin6
	.uleb128 Ltmp261-Ltmp260
	.uleb128 Ltmp300-Lfunc_begin6
	.byte	0
	.uleb128 Ltmp284-Lfunc_begin6
	.uleb128 Ltmp283-Ltmp284
	.uleb128 Ltmp286-Lfunc_begin6
	.byte	0
	.uleb128 Ltmp287-Lfunc_begin6
	.uleb128 Ltmp288-Ltmp287
	.uleb128 Ltmp289-Lfunc_begin6
	.byte	0
	.uleb128 Ltmp267-Lfunc_begin6
	.uleb128 Ltmp268-Ltmp267
	.uleb128 Ltmp300-Lfunc_begin6
	.byte	0
	.uleb128 Ltmp269-Lfunc_begin6
	.uleb128 Ltmp270-Ltmp269
	.uleb128 Ltmp271-Lfunc_begin6
	.byte	0
	.uleb128 Ltmp270-Lfunc_begin6
	.uleb128 Lfunc_end6-Ltmp270
	.byte	0
	.byte	0
Lcst_end6:
	.byte	0
	.byte	0
	.byte	1
	.byte	125
	.p2align	2
	.long	0
Lttbase6:
	.p2align	2

	.section	__TEXT,__text,regular,pure_instructions
	.p2align	4, 0x90
__ZN10rayon_core4join12join_context28_$u7b$$u7b$closure$u7d$$u7d$17h759f49fbca7e3800E:
Lfunc_begin7:
	.cfi_startproc
	.cfi_personality 155, _rust_eh_personality
	.cfi_lsda 16, Lexception7
	pushq	%rbp
	.cfi_def_cfa_offset 16
	.cfi_offset %rbp, -16
	movq	%rsp, %rbp
	.cfi_def_cfa_register %rbp
	pushq	%r15
	pushq	%r14
	pushq	%r13
	pushq	%r12
	pushq	%rbx
	subq	$184, %rsp
	.cfi_offset %rbx, -56
	.cfi_offset %r12, -48
	.cfi_offset %r13, -40
	.cfi_offset %r14, -32
	.cfi_offset %r15, -24
	movq	%rsi, %rbx
	movq	%rdi, %r15
	movq	40(%rdi), %rax
	movq	%rax, -88(%rbp)
	movq	32(%rdi), %rax
	movq	%rax, -96(%rbp)
	movq	24(%rdi), %rax
	movq	%rax, -104(%rbp)
	movq	16(%rdi), %rax
	movq	%rax, -112(%rbp)
	movq	(%rdi), %rax
	movq	8(%rdi), %rcx
	movq	%rcx, -120(%rbp)
	movq	%rax, -128(%rbp)
	movb	$0, -56(%rbp)
	movq	$0, -80(%rbp)
	movq	256(%rsi), %rax
	movq	264(%rax), %r14
	movq	256(%rax), %rax
	movq	272(%rsi), %rsi
	movq	%r14, %rcx
	subq	%rax, %rcx
	cmpq	%rsi, %rcx
	movl	%edx, -44(%rbp)
	jl	LBB7_4
	addq	%rsi, %rsi
	jb	LBB7_7
	leaq	256(%rbx), %rdi
Ltmp301:
	callq	__ZN15crossbeam_deque15Worker$LT$T$GT$6resize17h73667af9f54c6c19E
Ltmp302:
	movq	272(%rbx), %rsi
LBB7_4:
	subq	$1, %rsi
	jb	LBB7_5
	movq	264(%rbx), %rax
	andq	%r14, %rsi
	shlq	$4, %rsi
	leaq	-128(%rbp), %r12
	movq	%r12, (%rax,%rsi)
	leaq	__ZN83_$LT$rayon_core..job..StackJob$LT$L$C$F$C$R$GT$$u20$as$u20$rayon_core..job..Job$GT$7execute17h9a7eaf2e4066a073E(%rip), %r13
	movq	%r13, 8(%rax,%rsi)
	##MEMBARRIER
	movq	256(%rbx), %rax
	incq	%r14
	movq	%r14, 264(%rax)
	movl	$408, %edi
	addq	304(%rbx), %rdi
	movq	288(%rbx), %rsi
Ltmp305:
	callq	__ZN10rayon_core5sleep5Sleep6tickle17h5038bd408706a5c1E
Ltmp306:
	movq	48(%r15), %rax
	movq	56(%r15), %rcx
	movq	64(%r15), %r8
	movq	72(%r15), %r9
	movq	80(%r15), %rsi
	movq	(%rax), %rdi
	movq	(%rcx), %rdx
	movq	8(%rcx), %rcx
Ltmp307:
	movq	%rsi, (%rsp)
	movzbl	-44(%rbp), %r14d
	movl	%r14d, %esi
	callq	__ZN5rayon4iter8plumbing24bridge_producer_consumer6helper17h4ea5dac2bbc9d73aE
Ltmp308:
	leaq	-56(%rbp), %r15
	jmp	LBB7_11
	.p2align	4, 0x90
LBB7_23:
Ltmp317:
	movq	%rbx, %rdi
	movq	%rax, %rsi
	callq	__ZN10rayon_core8registry12WorkerThread7execute17hc504892f49177628E
Ltmp318:
LBB7_11:
	movzbl	-56(%rbp), %eax
	testb	%al, %al
	jne	LBB7_16
Ltmp315:
	movq	%rbx, %rdi
	callq	__ZN10rayon_core8registry12WorkerThread14take_local_job17h4a60902ba985e6d4E
Ltmp316:
	testq	%rdx, %rdx
	je	LBB7_14
	cmpq	%r12, %rax
	jne	LBB7_23
	cmpq	%r13, %rdx
	jne	LBB7_23
	leaq	-208(%rbp), %rdi
	leaq	-128(%rbp), %rsi
	movl	$10, %ecx
	rep;movsq (%rsi), %es:(%rdi)
	movq	-208(%rbp), %rax
	testq	%rax, %rax
	je	LBB7_25
	movq	-200(%rbp), %rcx
	movq	(%rax), %rdi
	subq	(%rcx), %rdi
	jb	LBB7_27
	movq	-192(%rbp), %rax
	movq	-184(%rbp), %r8
	movq	-176(%rbp), %r9
	movq	-168(%rbp), %rsi
	movq	(%rax), %rdx
	movq	8(%rax), %rcx
Ltmp320:
	movq	%rsi, (%rsp)
	movl	%r14d, %esi
	callq	__ZN5rayon4iter8plumbing24bridge_producer_consumer6helper17h4ea5dac2bbc9d73aE
Ltmp321:
	cmpl	$2, -160(%rbp)
	jb	LBB7_33
	movq	-152(%rbp), %r15
	movq	-144(%rbp), %rbx
Ltmp322:
	movq	%r15, %rdi
	callq	*(%rbx)
Ltmp323:
	movq	8(%rbx), %rsi
	testq	%rsi, %rsi
	je	LBB7_33
	movq	16(%rbx), %rdx
	movq	%r15, %rdi
	callq	___rust_dealloc
	jmp	LBB7_33
LBB7_14:
	movb	-56(%rbp), %al
	testb	%al, %al
	jne	LBB7_16
Ltmp333:
	movq	%rbx, %rdi
	movq	%r15, %rsi
	callq	__ZN10rayon_core8registry12WorkerThread15wait_until_cold17h85a044fa98ca4aa2E
Ltmp334:
LBB7_16:
	movq	-80(%rbp), %rax
	cmpq	$1, %rax
	jne	LBB7_17
LBB7_33:
	addq	$184, %rsp
	popq	%rbx
	popq	%r12
	popq	%r13
	popq	%r14
	popq	%r15
	popq	%rbp
	retq
LBB7_17:
	testq	%rax, %rax
	je	LBB7_35
	movq	-72(%rbp), %rdi
	movq	-64(%rbp), %rsi
Ltmp336:
	callq	__ZN10rayon_core6unwind16resume_unwinding17h5fa1757f689722ceE
Ltmp337:
	jmp	LBB7_6
LBB7_5:
Ltmp341:
	leaq	_str.2(%rip), %rdi
	leaq	l___unnamed_1(%rip), %rdx
	movl	$33, %esi
	callq	__ZN4core9panicking5panic17h383a6b80ea7021aaE
Ltmp342:
	jmp	LBB7_6
LBB7_35:
Ltmp338:
	leaq	l___unnamed_2(%rip), %rdi
	leaq	l___unnamed_3(%rip), %rdx
	movl	$40, %esi
	callq	__ZN3std9panicking11begin_panic17hd62f0347f881f53aE
Ltmp339:
	jmp	LBB7_6
LBB7_7:
Ltmp303:
	leaq	_str.1(%rip), %rdi
	leaq	l___unnamed_4(%rip), %rdx
	movl	$33, %esi
	callq	__ZN4core9panicking5panic17h383a6b80ea7021aaE
Ltmp304:
	jmp	LBB7_6
LBB7_25:
Ltmp327:
	leaq	l___unnamed_5(%rip), %rdi
	leaq	l___unnamed_6(%rip), %rdx
	movl	$43, %esi
	callq	__ZN4core9panicking5panic17h383a6b80ea7021aaE
Ltmp328:
	jmp	LBB7_6
LBB7_27:
Ltmp325:
	leaq	_str.2(%rip), %rdi
	leaq	l___unnamed_7(%rip), %rdx
	movl	$33, %esi
	callq	__ZN4core9panicking5panic17h383a6b80ea7021aaE
Ltmp326:
	jmp	LBB7_6
LBB7_45:
Ltmp340:
	jmp	LBB7_40
LBB7_38:
Ltmp335:
	jmp	LBB7_44
LBB7_36:
Ltmp324:
	movq	%rax, %r14
	movq	%r15, %rdi
	movq	%rbx, %rsi
	callq	__ZN5alloc5alloc8box_free17h9438c5f1772b94e3E
	jmp	LBB7_41
LBB7_34:
Ltmp329:
	movq	%rax, %r14
	leaq	-160(%rbp), %rdi
Ltmp330:
	callq	__ZN4core3ptr13drop_in_place17hd53146ad14be3b16E
Ltmp331:
	jmp	LBB7_41
LBB7_39:
Ltmp332:
LBB7_40:
	movq	%rax, %r14
	jmp	LBB7_41
LBB7_19:
Ltmp309:
Ltmp310:
	movq	%rax, %rdi
	callq	__ZN3std9panicking3try7cleanup17hd630ddf77975344aE
Ltmp311:
	movq	%rdx, %rcx
	leaq	-56(%rbp), %rsi
Ltmp312:
	movq	%rbx, %rdi
	movq	%rax, %rdx
	callq	__ZN10rayon_core4join23join_recover_from_panic17h47a5fd9714c21a6fE
Ltmp313:
LBB7_6:
	ud2
LBB7_43:
Ltmp314:
	jmp	LBB7_44
LBB7_42:
Ltmp343:
	jmp	LBB7_44
LBB7_37:
Ltmp319:
LBB7_44:
	movq	%rax, %r14
	leaq	-128(%rbp), %rdi
	callq	__ZN4core3ptr13drop_in_place17h0737b5809d4cb690E
LBB7_41:
	movq	%r14, %rdi
	callq	__Unwind_Resume
	ud2
Lfunc_end7:
	.cfi_endproc
	.section	__TEXT,__gcc_except_tab
	.p2align	2
GCC_except_table7:
Lexception7:
	.byte	255
	.byte	155
	.uleb128 Lttbase7-Lttbaseref7
Lttbaseref7:
	.byte	1
	.uleb128 Lcst_end7-Lcst_begin7
Lcst_begin7:
	.uleb128 Ltmp301-Lfunc_begin7
	.uleb128 Ltmp306-Ltmp301
	.uleb128 Ltmp343-Lfunc_begin7
	.byte	0
	.uleb128 Ltmp307-Lfunc_begin7
	.uleb128 Ltmp308-Ltmp307
	.uleb128 Ltmp309-Lfunc_begin7
	.byte	3
	.uleb128 Ltmp317-Lfunc_begin7
	.uleb128 Ltmp316-Ltmp317
	.uleb128 Ltmp319-Lfunc_begin7
	.byte	0
	.uleb128 Ltmp320-Lfunc_begin7
	.uleb128 Ltmp321-Ltmp320
	.uleb128 Ltmp329-Lfunc_begin7
	.byte	0
	.uleb128 Ltmp322-Lfunc_begin7
	.uleb128 Ltmp323-Ltmp322
	.uleb128 Ltmp324-Lfunc_begin7
	.byte	0
	.uleb128 Ltmp333-Lfunc_begin7
	.uleb128 Ltmp334-Ltmp333
	.uleb128 Ltmp335-Lfunc_begin7
	.byte	0
	.uleb128 Ltmp336-Lfunc_begin7
	.uleb128 Ltmp337-Ltmp336
	.uleb128 Ltmp340-Lfunc_begin7
	.byte	0
	.uleb128 Ltmp341-Lfunc_begin7
	.uleb128 Ltmp342-Ltmp341
	.uleb128 Ltmp343-Lfunc_begin7
	.byte	0
	.uleb128 Ltmp338-Lfunc_begin7
	.uleb128 Ltmp339-Ltmp338
	.uleb128 Ltmp340-Lfunc_begin7
	.byte	0
	.uleb128 Ltmp303-Lfunc_begin7
	.uleb128 Ltmp304-Ltmp303
	.uleb128 Ltmp343-Lfunc_begin7
	.byte	0
	.uleb128 Ltmp327-Lfunc_begin7
	.uleb128 Ltmp326-Ltmp327
	.uleb128 Ltmp329-Lfunc_begin7
	.byte	0
	.uleb128 Ltmp330-Lfunc_begin7
	.uleb128 Ltmp331-Ltmp330
	.uleb128 Ltmp332-Lfunc_begin7
	.byte	0
	.uleb128 Ltmp310-Lfunc_begin7
	.uleb128 Ltmp311-Ltmp310
	.uleb128 Ltmp343-Lfunc_begin7
	.byte	0
	.uleb128 Ltmp312-Lfunc_begin7
	.uleb128 Ltmp313-Ltmp312
	.uleb128 Ltmp314-Lfunc_begin7
	.byte	0
	.uleb128 Ltmp313-Lfunc_begin7
	.uleb128 Lfunc_end7-Ltmp313
	.byte	0
	.byte	0
Lcst_end7:
	.byte	0
	.byte	0
	.byte	1
	.byte	125
	.p2align	2
	.long	0
Lttbase7:
	.p2align	2

	.section	__TEXT,__text,regular,pure_instructions
	.p2align	4, 0x90
__ZN10rayon_core4join12join_context28_$u7b$$u7b$closure$u7d$$u7d$17h7d2344920d93010dE:
Lfunc_begin8:
	.cfi_startproc
	.cfi_personality 155, _rust_eh_personality
	.cfi_lsda 16, Lexception8
	pushq	%rbp
	.cfi_def_cfa_offset 16
	.cfi_offset %rbp, -16
	movq	%rsp, %rbp
	.cfi_def_cfa_register %rbp
	pushq	%r15
	pushq	%r14
	pushq	%r13
	pushq	%r12
	pushq	%rbx
	andq	$-64, %rsp
	subq	$1024, %rsp
	.cfi_offset %rbx, -56
	.cfi_offset %r12, -48
	.cfi_offset %r13, -40
	.cfi_offset %r14, -32
	.cfi_offset %r15, -24
	movl	%ecx, %r8d
	movq	%rdx, %rbx
	movq	%rsi, %r12
	movq	%rdi, 184(%rsp)
	movb	$0, 928(%rsp)
	leaq	832(%rsp), %rdi
	movl	$12, %ecx
	rep;movsq (%rsi), %es:(%rdi)
	movq	$0, 704(%rsp)
	movq	256(%rdx), %rax
	movq	264(%rax), %r14
	movq	256(%rax), %rax
	movq	272(%rdx), %rsi
	movq	%r14, %rcx
	subq	%rax, %rcx
	cmpq	%rsi, %rcx
	movl	%r8d, 192(%rsp)
	jl	LBB8_4
	addq	%rsi, %rsi
	jb	LBB8_7
	leaq	256(%rbx), %rdi
Ltmp344:
	callq	__ZN15crossbeam_deque15Worker$LT$T$GT$6resize17h73667af9f54c6c19E
Ltmp345:
	movq	272(%rbx), %rsi
LBB8_4:
	subq	$1, %rsi
	jb	LBB8_5
	movq	264(%rbx), %rax
	andq	%r14, %rsi
	shlq	$4, %rsi
	leaq	704(%rsp), %r13
	movq	%r13, (%rax,%rsi)
	leaq	__ZN83_$LT$rayon_core..job..StackJob$LT$L$C$F$C$R$GT$$u20$as$u20$rayon_core..job..Job$GT$7execute17h3c38c8efac6929d1E(%rip), %r15
	movq	%r15, 8(%rax,%rsi)
	##MEMBARRIER
	movq	256(%rbx), %rax
	incq	%r14
	movq	%r14, 264(%rax)
	movl	$408, %edi
	addq	304(%rbx), %rdi
	movq	288(%rbx), %rsi
Ltmp348:
	callq	__ZN10rayon_core5sleep5Sleep6tickle17h5038bd408706a5c1E
Ltmp349:
	movdqu	96(%r12), %xmm0
	movups	112(%r12), %xmm1
	movups	128(%r12), %xmm2
	movups	144(%r12), %xmm3
	movq	176(%r12), %r9
	movq	%xmm0, %rcx
	pshufd	$78, %xmm0, %xmm0
	movq	%xmm0, %rdx
	movq	160(%r12), %rdi
	movq	168(%r12), %rax
	movq	%rax, 216(%rsp)
	movq	%rdi, 208(%rsp)
	movq	(%rcx), %rsi
	movq	(%rdx), %rcx
	movq	8(%rdx), %r8
	movups	%xmm3, 416(%rsp)
	movups	%xmm2, 400(%rsp)
	movups	%xmm1, 384(%rsp)
	movq	%rdi, 432(%rsp)
	movq	%rax, 440(%rsp)
Ltmp350:
	movq	%r9, (%rsp)
	movzbl	192(%rsp), %r12d
	leaq	64(%rsp), %rdi
	leaq	384(%rsp), %r9
	movl	%r12d, %edx
	callq	__ZN5rayon4iter8plumbing24bridge_producer_consumer6helper17he9c6ca35b68d755bE
Ltmp351:
	movaps	64(%rsp), %xmm0
	movaps	%xmm0, 304(%rsp)
	movaps	80(%rsp), %xmm0
	movaps	%xmm0, 288(%rsp)
	movaps	96(%rsp), %xmm0
	movaps	%xmm0, 272(%rsp)
	movdqa	112(%rsp), %xmm0
	movdqa	%xmm0, 192(%rsp)
	leaq	928(%rsp), %r14
	jmp	LBB8_11
	.p2align	4, 0x90
LBB8_23:
Ltmp360:
	movq	%rbx, %rdi
	movq	%rax, %rsi
	callq	__ZN10rayon_core8registry12WorkerThread7execute17hc504892f49177628E
Ltmp361:
LBB8_11:
	movzbl	928(%rsp), %eax
	testb	%al, %al
	jne	LBB8_16
Ltmp358:
	movq	%rbx, %rdi
	callq	__ZN10rayon_core8registry12WorkerThread14take_local_job17h4a60902ba985e6d4E
Ltmp359:
	testq	%rdx, %rdx
	je	LBB8_14
	cmpq	%r13, %rax
	jne	LBB8_23
	cmpq	%r15, %rdx
	jne	LBB8_23
	leaq	384(%rsp), %rdi
	leaq	704(%rsp), %rsi
	movl	$256, %edx
	callq	_memcpy
	movq	512(%rsp), %r11
	movq	520(%rsp), %r8
	movq	528(%rsp), %r10
	movq	536(%rsp), %rdx
	movq	%rdx, 64(%rsp)
	movq	544(%rsp), %rdx
	movq	%rdx, 72(%rsp)
	movq	552(%rsp), %rdx
	movq	%rdx, 80(%rsp)
	movq	560(%rsp), %rdx
	movq	%rdx, 88(%rsp)
	movq	568(%rsp), %rdx
	movq	%rdx, 96(%rsp)
	movq	576(%rsp), %rdx
	movq	%rdx, 104(%rsp)
	movq	584(%rsp), %rdx
	movq	%rdx, 112(%rsp)
	movq	592(%rsp), %rdx
	movq	%rdx, 120(%rsp)
	testq	%r11, %r11
	je	LBB8_25
	movq	600(%rsp), %r9
	movq	120(%rsp), %rdi
	movq	%rdi, 376(%rsp)
	movq	112(%rsp), %r14
	movq	%r14, 368(%rsp)
	movq	104(%rsp), %rbx
	movq	%rbx, 360(%rsp)
	movq	96(%rsp), %rdx
	movq	%rdx, 352(%rsp)
	movq	88(%rsp), %rcx
	movq	%rcx, 344(%rsp)
	movq	80(%rsp), %rax
	movq	%rax, 336(%rsp)
	movq	64(%rsp), %rsi
	movq	72(%rsp), %rdi
	movq	%rdi, 328(%rsp)
	movq	%rsi, 320(%rsp)
	movq	%r14, 256(%rsp)
	movq	%rbx, 248(%rsp)
	movq	%rdx, 240(%rsp)
	movq	%rcx, 232(%rsp)
	movq	%rax, 224(%rsp)
	movq	%rdi, 216(%rsp)
	movq	%rsi, 208(%rsp)
	movq	376(%rsp), %rax
	movq	%rax, 264(%rsp)
	movq	(%r11), %rsi
	subq	(%r8), %rsi
	jb	LBB8_27
	movq	(%r10), %rcx
	movq	8(%r10), %r8
	movq	264(%rsp), %rax
	movq	%rax, 120(%rsp)
	movq	256(%rsp), %rax
	movq	%rax, 112(%rsp)
	movq	248(%rsp), %rax
	movq	%rax, 104(%rsp)
	movq	240(%rsp), %rax
	movq	%rax, 96(%rsp)
	movq	232(%rsp), %rax
	movq	%rax, 88(%rsp)
	movq	224(%rsp), %rax
	movq	%rax, 80(%rsp)
	movq	208(%rsp), %rax
	movq	216(%rsp), %rdx
	movq	%rdx, 72(%rsp)
	movq	%rax, 64(%rsp)
Ltmp363:
	movq	%r9, (%rsp)
	leaq	640(%rsp), %rdi
	leaq	64(%rsp), %r9
	movl	%r12d, %edx
	callq	__ZN5rayon4iter8plumbing24bridge_producer_consumer6helper17he9c6ca35b68d755bE
Ltmp364:
	cmpl	$2, 384(%rsp)
	jb	LBB8_33
	movq	392(%rsp), %r15
	movq	400(%rsp), %rbx
Ltmp365:
	movq	%r15, %rdi
	callq	*(%rbx)
Ltmp366:
	movq	8(%rbx), %rsi
	testq	%rsi, %rsi
	je	LBB8_33
	movq	16(%rbx), %rdx
	movq	%r15, %rdi
	callq	___rust_dealloc
LBB8_33:
	movaps	640(%rsp), %xmm0
	movaps	656(%rsp), %xmm1
	movaps	672(%rsp), %xmm2
	movaps	688(%rsp), %xmm3
	movq	184(%rsp), %rax
	movaps	272(%rsp), %xmm4
	movaps	%xmm4, 32(%rax)
	movaps	288(%rsp), %xmm4
	movaps	%xmm4, 16(%rax)
	movaps	304(%rsp), %xmm4
	movaps	%xmm4, (%rax)
	movaps	192(%rsp), %xmm4
	movaps	%xmm4, 48(%rax)
	movaps	%xmm3, 112(%rax)
	movaps	%xmm2, 96(%rax)
	movaps	%xmm1, 80(%rax)
	movaps	%xmm0, 64(%rax)
	jmp	LBB8_34
LBB8_14:
	movb	928(%rsp), %al
	testb	%al, %al
	jne	LBB8_16
Ltmp376:
	movq	%rbx, %rdi
	movq	%r14, %rsi
	callq	__ZN10rayon_core8registry12WorkerThread15wait_until_cold17h85a044fa98ca4aa2E
Ltmp377:
LBB8_16:
	movq	704(%rsp), %rax
	cmpq	$1, %rax
	jne	LBB8_17
	movaps	768(%rsp), %xmm0
	movaps	784(%rsp), %xmm1
	movaps	800(%rsp), %xmm2
	movaps	816(%rsp), %xmm3
	movq	184(%rsp), %rax
	movaps	304(%rsp), %xmm4
	movaps	%xmm4, (%rax)
	movaps	288(%rsp), %xmm4
	movaps	%xmm4, 16(%rax)
	movaps	272(%rsp), %xmm4
	movaps	%xmm4, 32(%rax)
	movaps	192(%rsp), %xmm4
	movaps	%xmm4, 48(%rax)
	movaps	%xmm2, 96(%rax)
	movaps	%xmm3, 112(%rax)
	movaps	%xmm0, 64(%rax)
	movaps	%xmm1, 80(%rax)
LBB8_34:
	leaq	-40(%rbp), %rsp
	popq	%rbx
	popq	%r12
	popq	%r13
	popq	%r14
	popq	%r15
	popq	%rbp
	retq
LBB8_17:
	testq	%rax, %rax
	je	LBB8_36
	movq	712(%rsp), %rdi
	movq	720(%rsp), %rsi
Ltmp379:
	callq	__ZN10rayon_core6unwind16resume_unwinding17h5fa1757f689722ceE
Ltmp380:
	jmp	LBB8_6
LBB8_5:
Ltmp384:
	leaq	_str.2(%rip), %rdi
	leaq	l___unnamed_1(%rip), %rdx
	movl	$33, %esi
	callq	__ZN4core9panicking5panic17h383a6b80ea7021aaE
Ltmp385:
	jmp	LBB8_6
LBB8_36:
Ltmp381:
	leaq	l___unnamed_2(%rip), %rdi
	leaq	l___unnamed_3(%rip), %rdx
	movl	$40, %esi
	callq	__ZN3std9panicking11begin_panic17hd62f0347f881f53aE
Ltmp382:
	jmp	LBB8_6
LBB8_7:
Ltmp346:
	leaq	_str.1(%rip), %rdi
	leaq	l___unnamed_4(%rip), %rdx
	movl	$33, %esi
	callq	__ZN4core9panicking5panic17h383a6b80ea7021aaE
Ltmp347:
	jmp	LBB8_6
LBB8_25:
Ltmp370:
	leaq	l___unnamed_5(%rip), %rdi
	leaq	l___unnamed_6(%rip), %rdx
	movl	$43, %esi
	callq	__ZN4core9panicking5panic17h383a6b80ea7021aaE
Ltmp371:
	jmp	LBB8_6
LBB8_27:
Ltmp368:
	leaq	_str.2(%rip), %rdi
	leaq	l___unnamed_7(%rip), %rdx
	movl	$33, %esi
	callq	__ZN4core9panicking5panic17h383a6b80ea7021aaE
Ltmp369:
	jmp	LBB8_6
LBB8_47:
Ltmp383:
	jmp	LBB8_42
LBB8_40:
Ltmp378:
	jmp	LBB8_46
LBB8_38:
Ltmp367:
	movq	%rax, %r14
	movq	%r15, %rdi
	movq	%rbx, %rsi
	callq	__ZN5alloc5alloc8box_free17h9438c5f1772b94e3E
	jmp	LBB8_43
LBB8_35:
Ltmp372:
	movq	%rax, %r14
Ltmp373:
	leaq	384(%rsp), %rdi
	callq	__ZN4core3ptr13drop_in_place17h0b7def0b7e32d541E
Ltmp374:
	jmp	LBB8_43
LBB8_41:
Ltmp375:
LBB8_42:
	movq	%rax, %r14
	jmp	LBB8_43
LBB8_19:
Ltmp352:
Ltmp353:
	movq	%rax, %rdi
	callq	__ZN3std9panicking3try7cleanup17hd630ddf77975344aE
Ltmp354:
	movq	%rdx, %rcx
	leaq	928(%rsp), %rsi
Ltmp355:
	movq	%rbx, %rdi
	movq	%rax, %rdx
	callq	__ZN10rayon_core4join23join_recover_from_panic17h47a5fd9714c21a6fE
Ltmp356:
LBB8_6:
	ud2
LBB8_45:
Ltmp357:
	jmp	LBB8_46
LBB8_44:
Ltmp386:
	jmp	LBB8_46
LBB8_39:
Ltmp362:
LBB8_46:
	movq	%rax, %r14
	leaq	704(%rsp), %rdi
	callq	__ZN4core3ptr13drop_in_place17h0b7def0b7e32d541E
LBB8_43:
	movq	%r14, %rdi
	callq	__Unwind_Resume
	ud2
Lfunc_end8:
	.cfi_endproc
	.section	__TEXT,__gcc_except_tab
	.p2align	2
GCC_except_table8:
Lexception8:
	.byte	255
	.byte	155
	.uleb128 Lttbase8-Lttbaseref8
Lttbaseref8:
	.byte	1
	.uleb128 Lcst_end8-Lcst_begin8
Lcst_begin8:
	.uleb128 Ltmp344-Lfunc_begin8
	.uleb128 Ltmp349-Ltmp344
	.uleb128 Ltmp386-Lfunc_begin8
	.byte	0
	.uleb128 Ltmp350-Lfunc_begin8
	.uleb128 Ltmp351-Ltmp350
	.uleb128 Ltmp352-Lfunc_begin8
	.byte	3
	.uleb128 Ltmp360-Lfunc_begin8
	.uleb128 Ltmp359-Ltmp360
	.uleb128 Ltmp362-Lfunc_begin8
	.byte	0
	.uleb128 Ltmp359-Lfunc_begin8
	.uleb128 Ltmp363-Ltmp359
	.byte	0
	.byte	0
	.uleb128 Ltmp363-Lfunc_begin8
	.uleb128 Ltmp364-Ltmp363
	.uleb128 Ltmp372-Lfunc_begin8
	.byte	0
	.uleb128 Ltmp365-Lfunc_begin8
	.uleb128 Ltmp366-Ltmp365
	.uleb128 Ltmp367-Lfunc_begin8
	.byte	0
	.uleb128 Ltmp376-Lfunc_begin8
	.uleb128 Ltmp377-Ltmp376
	.uleb128 Ltmp378-Lfunc_begin8
	.byte	0
	.uleb128 Ltmp379-Lfunc_begin8
	.uleb128 Ltmp380-Ltmp379
	.uleb128 Ltmp383-Lfunc_begin8
	.byte	0
	.uleb128 Ltmp384-Lfunc_begin8
	.uleb128 Ltmp385-Ltmp384
	.uleb128 Ltmp386-Lfunc_begin8
	.byte	0
	.uleb128 Ltmp381-Lfunc_begin8
	.uleb128 Ltmp382-Ltmp381
	.uleb128 Ltmp383-Lfunc_begin8
	.byte	0
	.uleb128 Ltmp346-Lfunc_begin8
	.uleb128 Ltmp347-Ltmp346
	.uleb128 Ltmp386-Lfunc_begin8
	.byte	0
	.uleb128 Ltmp370-Lfunc_begin8
	.uleb128 Ltmp369-Ltmp370
	.uleb128 Ltmp372-Lfunc_begin8
	.byte	0
	.uleb128 Ltmp373-Lfunc_begin8
	.uleb128 Ltmp374-Ltmp373
	.uleb128 Ltmp375-Lfunc_begin8
	.byte	0
	.uleb128 Ltmp353-Lfunc_begin8
	.uleb128 Ltmp354-Ltmp353
	.uleb128 Ltmp386-Lfunc_begin8
	.byte	0
	.uleb128 Ltmp355-Lfunc_begin8
	.uleb128 Ltmp356-Ltmp355
	.uleb128 Ltmp357-Lfunc_begin8
	.byte	0
	.uleb128 Ltmp356-Lfunc_begin8
	.uleb128 Lfunc_end8-Ltmp356
	.byte	0
	.byte	0
Lcst_end8:
	.byte	0
	.byte	0
	.byte	1
	.byte	125
	.p2align	2
	.long	0
Lttbase8:
	.p2align	2

	.section	__TEXT,__text,regular,pure_instructions
	.p2align	4, 0x90
__ZN10rayon_core4join12join_context28_$u7b$$u7b$closure$u7d$$u7d$17h7d7024ce7d7c7b3eE:
Lfunc_begin9:
	.cfi_startproc
	.cfi_personality 155, _rust_eh_personality
	.cfi_lsda 16, Lexception9
	pushq	%rbp
	.cfi_def_cfa_offset 16
	.cfi_offset %rbp, -16
	movq	%rsp, %rbp
	.cfi_def_cfa_register %rbp
	pushq	%r15
	pushq	%r14
	pushq	%r13
	pushq	%r12
	pushq	%rbx
	subq	$184, %rsp
	.cfi_offset %rbx, -56
	.cfi_offset %r12, -48
	.cfi_offset %r13, -40
	.cfi_offset %r14, -32
	.cfi_offset %r15, -24
	movq	%rsi, %rbx
	movq	%rdi, %r15
	movq	40(%rdi), %rax
	movq	%rax, -88(%rbp)
	movq	32(%rdi), %rax
	movq	%rax, -96(%rbp)
	movq	24(%rdi), %rax
	movq	%rax, -104(%rbp)
	movq	16(%rdi), %rax
	movq	%rax, -112(%rbp)
	movq	(%rdi), %rax
	movq	8(%rdi), %rcx
	movq	%rcx, -120(%rbp)
	movq	%rax, -128(%rbp)
	movb	$0, -56(%rbp)
	movq	$0, -80(%rbp)
	movq	256(%rsi), %rax
	movq	264(%rax), %r14
	movq	256(%rax), %rax
	movq	272(%rsi), %rsi
	movq	%r14, %rcx
	subq	%rax, %rcx
	cmpq	%rsi, %rcx
	movl	%edx, -44(%rbp)
	jl	LBB9_4
	addq	%rsi, %rsi
	jb	LBB9_7
	leaq	256(%rbx), %rdi
Ltmp387:
	callq	__ZN15crossbeam_deque15Worker$LT$T$GT$6resize17h73667af9f54c6c19E
Ltmp388:
	movq	272(%rbx), %rsi
LBB9_4:
	subq	$1, %rsi
	jb	LBB9_5
	movq	264(%rbx), %rax
	andq	%r14, %rsi
	shlq	$4, %rsi
	leaq	-128(%rbp), %r12
	movq	%r12, (%rax,%rsi)
	leaq	__ZN83_$LT$rayon_core..job..StackJob$LT$L$C$F$C$R$GT$$u20$as$u20$rayon_core..job..Job$GT$7execute17hacbc055c781e8c0bE(%rip), %r13
	movq	%r13, 8(%rax,%rsi)
	##MEMBARRIER
	movq	256(%rbx), %rax
	incq	%r14
	movq	%r14, 264(%rax)
	movl	$408, %edi
	addq	304(%rbx), %rdi
	movq	288(%rbx), %rsi
Ltmp391:
	callq	__ZN10rayon_core5sleep5Sleep6tickle17h5038bd408706a5c1E
Ltmp392:
	movq	48(%r15), %rax
	movq	56(%r15), %rcx
	movq	64(%r15), %r8
	movq	72(%r15), %r9
	movq	80(%r15), %rsi
	movq	(%rax), %rdi
	movq	(%rcx), %rdx
	movq	8(%rcx), %rcx
Ltmp393:
	movq	%rsi, (%rsp)
	movzbl	-44(%rbp), %r14d
	movl	%r14d, %esi
	callq	__ZN5rayon4iter8plumbing24bridge_producer_consumer6helper17hb2eb27d43da566bbE
Ltmp394:
	leaq	-56(%rbp), %r15
	jmp	LBB9_11
	.p2align	4, 0x90
LBB9_23:
Ltmp403:
	movq	%rbx, %rdi
	movq	%rax, %rsi
	callq	__ZN10rayon_core8registry12WorkerThread7execute17hc504892f49177628E
Ltmp404:
LBB9_11:
	movzbl	-56(%rbp), %eax
	testb	%al, %al
	jne	LBB9_16
Ltmp401:
	movq	%rbx, %rdi
	callq	__ZN10rayon_core8registry12WorkerThread14take_local_job17h4a60902ba985e6d4E
Ltmp402:
	testq	%rdx, %rdx
	je	LBB9_14
	cmpq	%r12, %rax
	jne	LBB9_23
	cmpq	%r13, %rdx
	jne	LBB9_23
	leaq	-208(%rbp), %rdi
	leaq	-128(%rbp), %rsi
	movl	$10, %ecx
	rep;movsq (%rsi), %es:(%rdi)
	movq	-208(%rbp), %rax
	testq	%rax, %rax
	je	LBB9_25
	movq	-200(%rbp), %rcx
	movq	(%rax), %rdi
	subq	(%rcx), %rdi
	jb	LBB9_27
	movq	-192(%rbp), %rax
	movq	-184(%rbp), %r8
	movq	-176(%rbp), %r9
	movq	-168(%rbp), %rsi
	movq	(%rax), %rdx
	movq	8(%rax), %rcx
Ltmp406:
	movq	%rsi, (%rsp)
	movl	%r14d, %esi
	callq	__ZN5rayon4iter8plumbing24bridge_producer_consumer6helper17hb2eb27d43da566bbE
Ltmp407:
	cmpl	$2, -160(%rbp)
	jb	LBB9_33
	movq	-152(%rbp), %r15
	movq	-144(%rbp), %rbx
Ltmp408:
	movq	%r15, %rdi
	callq	*(%rbx)
Ltmp409:
	movq	8(%rbx), %rsi
	testq	%rsi, %rsi
	je	LBB9_33
	movq	16(%rbx), %rdx
	movq	%r15, %rdi
	callq	___rust_dealloc
	jmp	LBB9_33
LBB9_14:
	movb	-56(%rbp), %al
	testb	%al, %al
	jne	LBB9_16
Ltmp419:
	movq	%rbx, %rdi
	movq	%r15, %rsi
	callq	__ZN10rayon_core8registry12WorkerThread15wait_until_cold17h85a044fa98ca4aa2E
Ltmp420:
LBB9_16:
	movq	-80(%rbp), %rax
	cmpq	$1, %rax
	jne	LBB9_17
LBB9_33:
	addq	$184, %rsp
	popq	%rbx
	popq	%r12
	popq	%r13
	popq	%r14
	popq	%r15
	popq	%rbp
	retq
LBB9_17:
	testq	%rax, %rax
	je	LBB9_35
	movq	-72(%rbp), %rdi
	movq	-64(%rbp), %rsi
Ltmp422:
	callq	__ZN10rayon_core6unwind16resume_unwinding17h5fa1757f689722ceE
Ltmp423:
	jmp	LBB9_6
LBB9_5:
Ltmp427:
	leaq	_str.2(%rip), %rdi
	leaq	l___unnamed_1(%rip), %rdx
	movl	$33, %esi
	callq	__ZN4core9panicking5panic17h383a6b80ea7021aaE
Ltmp428:
	jmp	LBB9_6
LBB9_35:
Ltmp424:
	leaq	l___unnamed_2(%rip), %rdi
	leaq	l___unnamed_3(%rip), %rdx
	movl	$40, %esi
	callq	__ZN3std9panicking11begin_panic17hd62f0347f881f53aE
Ltmp425:
	jmp	LBB9_6
LBB9_7:
Ltmp389:
	leaq	_str.1(%rip), %rdi
	leaq	l___unnamed_4(%rip), %rdx
	movl	$33, %esi
	callq	__ZN4core9panicking5panic17h383a6b80ea7021aaE
Ltmp390:
	jmp	LBB9_6
LBB9_25:
Ltmp413:
	leaq	l___unnamed_5(%rip), %rdi
	leaq	l___unnamed_6(%rip), %rdx
	movl	$43, %esi
	callq	__ZN4core9panicking5panic17h383a6b80ea7021aaE
Ltmp414:
	jmp	LBB9_6
LBB9_27:
Ltmp411:
	leaq	_str.2(%rip), %rdi
	leaq	l___unnamed_7(%rip), %rdx
	movl	$33, %esi
	callq	__ZN4core9panicking5panic17h383a6b80ea7021aaE
Ltmp412:
	jmp	LBB9_6
LBB9_45:
Ltmp426:
	jmp	LBB9_40
LBB9_38:
Ltmp421:
	jmp	LBB9_44
LBB9_36:
Ltmp410:
	movq	%rax, %r14
	movq	%r15, %rdi
	movq	%rbx, %rsi
	callq	__ZN5alloc5alloc8box_free17h9438c5f1772b94e3E
	jmp	LBB9_41
LBB9_34:
Ltmp415:
	movq	%rax, %r14
	leaq	-160(%rbp), %rdi
Ltmp416:
	callq	__ZN4core3ptr13drop_in_place17hd53146ad14be3b16E
Ltmp417:
	jmp	LBB9_41
LBB9_39:
Ltmp418:
LBB9_40:
	movq	%rax, %r14
	jmp	LBB9_41
LBB9_19:
Ltmp395:
Ltmp396:
	movq	%rax, %rdi
	callq	__ZN3std9panicking3try7cleanup17hd630ddf77975344aE
Ltmp397:
	movq	%rdx, %rcx
	leaq	-56(%rbp), %rsi
Ltmp398:
	movq	%rbx, %rdi
	movq	%rax, %rdx
	callq	__ZN10rayon_core4join23join_recover_from_panic17h47a5fd9714c21a6fE
Ltmp399:
LBB9_6:
	ud2
LBB9_43:
Ltmp400:
	jmp	LBB9_44
LBB9_42:
Ltmp429:
	jmp	LBB9_44
LBB9_37:
Ltmp405:
LBB9_44:
	movq	%rax, %r14
	leaq	-128(%rbp), %rdi
	callq	__ZN4core3ptr13drop_in_place17h0737b5809d4cb690E
LBB9_41:
	movq	%r14, %rdi
	callq	__Unwind_Resume
	ud2
Lfunc_end9:
	.cfi_endproc
	.section	__TEXT,__gcc_except_tab
	.p2align	2
GCC_except_table9:
Lexception9:
	.byte	255
	.byte	155
	.uleb128 Lttbase9-Lttbaseref9
Lttbaseref9:
	.byte	1
	.uleb128 Lcst_end9-Lcst_begin9
Lcst_begin9:
	.uleb128 Ltmp387-Lfunc_begin9
	.uleb128 Ltmp392-Ltmp387
	.uleb128 Ltmp429-Lfunc_begin9
	.byte	0
	.uleb128 Ltmp393-Lfunc_begin9
	.uleb128 Ltmp394-Ltmp393
	.uleb128 Ltmp395-Lfunc_begin9
	.byte	3
	.uleb128 Ltmp403-Lfunc_begin9
	.uleb128 Ltmp402-Ltmp403
	.uleb128 Ltmp405-Lfunc_begin9
	.byte	0
	.uleb128 Ltmp406-Lfunc_begin9
	.uleb128 Ltmp407-Ltmp406
	.uleb128 Ltmp415-Lfunc_begin9
	.byte	0
	.uleb128 Ltmp408-Lfunc_begin9
	.uleb128 Ltmp409-Ltmp408
	.uleb128 Ltmp410-Lfunc_begin9
	.byte	0
	.uleb128 Ltmp419-Lfunc_begin9
	.uleb128 Ltmp420-Ltmp419
	.uleb128 Ltmp421-Lfunc_begin9
	.byte	0
	.uleb128 Ltmp422-Lfunc_begin9
	.uleb128 Ltmp423-Ltmp422
	.uleb128 Ltmp426-Lfunc_begin9
	.byte	0
	.uleb128 Ltmp427-Lfunc_begin9
	.uleb128 Ltmp428-Ltmp427
	.uleb128 Ltmp429-Lfunc_begin9
	.byte	0
	.uleb128 Ltmp424-Lfunc_begin9
	.uleb128 Ltmp425-Ltmp424
	.uleb128 Ltmp426-Lfunc_begin9
	.byte	0
	.uleb128 Ltmp389-Lfunc_begin9
	.uleb128 Ltmp390-Ltmp389
	.uleb128 Ltmp429-Lfunc_begin9
	.byte	0
	.uleb128 Ltmp413-Lfunc_begin9
	.uleb128 Ltmp412-Ltmp413
	.uleb128 Ltmp415-Lfunc_begin9
	.byte	0
	.uleb128 Ltmp416-Lfunc_begin9
	.uleb128 Ltmp417-Ltmp416
	.uleb128 Ltmp418-Lfunc_begin9
	.byte	0
	.uleb128 Ltmp396-Lfunc_begin9
	.uleb128 Ltmp397-Ltmp396
	.uleb128 Ltmp429-Lfunc_begin9
	.byte	0
	.uleb128 Ltmp398-Lfunc_begin9
	.uleb128 Ltmp399-Ltmp398
	.uleb128 Ltmp400-Lfunc_begin9
	.byte	0
	.uleb128 Ltmp399-Lfunc_begin9
	.uleb128 Lfunc_end9-Ltmp399
	.byte	0
	.byte	0
Lcst_end9:
	.byte	0
	.byte	0
	.byte	1
	.byte	125
	.p2align	2
	.long	0
Lttbase9:
	.p2align	2

	.section	__TEXT,__text,regular,pure_instructions
	.p2align	4, 0x90
__ZN10rayon_core4join12join_context28_$u7b$$u7b$closure$u7d$$u7d$17h861f72e8f3da76c8E:
Lfunc_begin10:
	.cfi_startproc
	.cfi_personality 155, _rust_eh_personality
	.cfi_lsda 16, Lexception10
	pushq	%rbp
	.cfi_def_cfa_offset 16
	.cfi_offset %rbp, -16
	movq	%rsp, %rbp
	.cfi_def_cfa_register %rbp
	pushq	%r15
	pushq	%r14
	pushq	%r13
	pushq	%r12
	pushq	%rbx
	andq	$-64, %rsp
	subq	$896, %rsp
	.cfi_offset %rbx, -56
	.cfi_offset %r12, -48
	.cfi_offset %r13, -40
	.cfi_offset %r14, -32
	.cfi_offset %r15, -24
	movl	%ecx, 60(%rsp)
	movq	%rdx, %r12
	movq	%rsi, %rbx
	movq	%rdi, %r15
	movb	$0, 512(%rsp)
	movq	(%rsi), %rax
	movq	8(%rsi), %rcx
	movq	%rax, 448(%rsp)
	movq	%rcx, 456(%rsp)
	movq	16(%rsi), %rax
	movq	%rax, 464(%rsp)
	movq	24(%rsi), %rax
	movq	%rax, 472(%rsp)
	movq	32(%rsi), %rax
	movq	%rax, 480(%rsp)
	movq	40(%rsi), %rax
	movq	%rax, 488(%rsp)
	movq	48(%rsi), %rax
	movq	%rax, 496(%rsp)
	movq	56(%rsi), %rax
	movq	%rax, 504(%rsp)
	movq	$0, 320(%rsp)
	movq	256(%rdx), %rax
	movq	264(%rax), %r14
	movq	256(%rax), %rax
	movq	272(%rdx), %rsi
	movq	%r14, %rcx
	subq	%rax, %rcx
	cmpq	%rsi, %rcx
	jl	LBB10_4
	addq	%rsi, %rsi
	jb	LBB10_7
	leaq	256(%r12), %rdi
Ltmp430:
	callq	__ZN15crossbeam_deque15Worker$LT$T$GT$6resize17h73667af9f54c6c19E
Ltmp431:
	movq	272(%r12), %rsi
LBB10_4:
	subq	$1, %rsi
	jb	LBB10_5
	movq	264(%r12), %rax
	andq	%r14, %rsi
	shlq	$4, %rsi
	leaq	320(%rsp), %r13
	movq	%r13, (%rax,%rsi)
	leaq	__ZN83_$LT$rayon_core..job..StackJob$LT$L$C$F$C$R$GT$$u20$as$u20$rayon_core..job..Job$GT$7execute17h2051abea3bfc7ed1E(%rip), %rcx
	movq	%rcx, 8(%rax,%rsi)
	##MEMBARRIER
	movq	256(%r12), %rax
	incq	%r14
	movq	%r14, 264(%rax)
	movl	$408, %edi
	addq	304(%r12), %rdi
	movq	288(%r12), %rsi
Ltmp434:
	callq	__ZN10rayon_core5sleep5Sleep6tickle17h5038bd408706a5c1E
Ltmp435:
	movq	88(%rbx), %rax
	movq	%rax, 88(%rsp)
	movq	80(%rbx), %rax
	movq	%rax, 80(%rsp)
	movq	112(%rbx), %rax
	movq	%rax, 112(%rsp)
	movq	104(%rbx), %rax
	movq	%rax, 104(%rsp)
	movq	96(%rbx), %rax
	movq	%rax, 96(%rsp)
	movq	64(%rbx), %rax
	movq	72(%rbx), %rcx
	movq	%rcx, 72(%rsp)
	movq	%rax, 64(%rsp)
	movl	60(%rsp), %r14d
	movb	%r14b, 120(%rsp)
	movq	80(%rsp), %rax
	movq	88(%rsp), %rdi
	movdqa	112(%rsp), %xmm0
	movdqa	96(%rsp), %xmm1
	movdqa	64(%rsp), %xmm2
	movq	%xmm2, %rcx
	pshufd	$78, %xmm2, %xmm2
	movq	%xmm2, %rbx
	pshufd	$78, %xmm1, %xmm2
	pextrw	$4, %xmm0, %esi
	xorl	%edx, %edx
	testb	%sil, %sil
	setne	%dl
	movq	(%rcx), %rsi
	movq	(%rbx), %rcx
	movq	8(%rbx), %r8
	movq	%xmm1, 192(%rsp)
	movq	%rax, 176(%rsp)
	movq	%rdi, 184(%rsp)
Ltmp436:
	movq	%xmm0, 8(%rsp)
	movq	%xmm2, (%rsp)
	leaq	576(%rsp), %rdi
	leaq	176(%rsp), %r9
	callq	__ZN5rayon4iter8plumbing24bridge_producer_consumer6helper17h22fba3a562695d63E
Ltmp437:
	movaps	576(%rsp), %xmm0
	movaps	%xmm0, 256(%rsp)
	movaps	592(%rsp), %xmm0
	movaps	%xmm0, 240(%rsp)
	movaps	608(%rsp), %xmm0
	movaps	%xmm0, 224(%rsp)
	movdqa	624(%rsp), %xmm0
	movdqa	%xmm0, 272(%rsp)
	leaq	512(%rsp), %rbx
	jmp	LBB10_11
	.p2align	4, 0x90
LBB10_23:
Ltmp446:
	movq	%r12, %rdi
	movq	%rax, %rsi
	callq	__ZN10rayon_core8registry12WorkerThread7execute17hc504892f49177628E
Ltmp447:
LBB10_11:
	movzbl	512(%rsp), %eax
	testb	%al, %al
	jne	LBB10_16
Ltmp444:
	movq	%r12, %rdi
	callq	__ZN10rayon_core8registry12WorkerThread14take_local_job17h4a60902ba985e6d4E
Ltmp445:
	testq	%rdx, %rdx
	je	LBB10_14
	cmpq	%r13, %rax
	jne	LBB10_23
	leaq	__ZN83_$LT$rayon_core..job..StackJob$LT$L$C$F$C$R$GT$$u20$as$u20$rayon_core..job..Job$GT$7execute17h2051abea3bfc7ed1E(%rip), %rcx
	cmpq	%rcx, %rdx
	jne	LBB10_23
	leaq	576(%rsp), %rdi
	leaq	320(%rsp), %rsi
	movl	$256, %edx
	callq	_memcpy
	movq	704(%rsp), %rsi
	movq	712(%rsp), %rcx
	movq	720(%rsp), %rax
	movq	728(%rsp), %rdx
	movq	%rdx, 64(%rsp)
	movq	736(%rsp), %rdx
	movq	%rdx, 72(%rsp)
	movq	744(%rsp), %rdx
	movq	%rdx, 80(%rsp)
	testq	%rsi, %rsi
	je	LBB10_25
	movq	752(%rsp), %r9
	movq	760(%rsp), %r10
	movq	80(%rsp), %rbx
	movq	%rbx, 312(%rsp)
	movq	64(%rsp), %rdx
	movq	72(%rsp), %rdi
	movq	%rdi, 304(%rsp)
	movq	%rdx, 296(%rsp)
	movq	%rbx, 216(%rsp)
	movq	%rdi, 208(%rsp)
	movq	%rdx, 200(%rsp)
	movq	(%rsi), %rsi
	subq	(%rcx), %rsi
	jb	LBB10_27
	movq	(%rax), %rcx
	movq	8(%rax), %r8
	movq	216(%rsp), %rax
	movq	%rax, 192(%rsp)
	movq	200(%rsp), %rax
	movq	208(%rsp), %rdx
	movq	%rdx, 184(%rsp)
	movq	%rax, 176(%rsp)
Ltmp449:
	movq	%r10, 8(%rsp)
	movq	%r9, (%rsp)
	movzbl	%r14b, %edx
	leaq	64(%rsp), %rdi
	leaq	176(%rsp), %r9
	callq	__ZN5rayon4iter8plumbing24bridge_producer_consumer6helper17h22fba3a562695d63E
Ltmp450:
	cmpl	$2, 576(%rsp)
	jb	LBB10_33
	movq	584(%rsp), %r12
	movq	592(%rsp), %rbx
Ltmp451:
	movq	%r12, %rdi
	callq	*(%rbx)
Ltmp452:
	movq	8(%rbx), %rsi
	testq	%rsi, %rsi
	je	LBB10_33
	movq	16(%rbx), %rdx
	movq	%r12, %rdi
	callq	___rust_dealloc
LBB10_33:
	movaps	64(%rsp), %xmm0
	movaps	80(%rsp), %xmm1
	movaps	96(%rsp), %xmm2
	movaps	112(%rsp), %xmm3
	movaps	224(%rsp), %xmm4
	movaps	%xmm4, 32(%r15)
	movaps	240(%rsp), %xmm4
	movaps	%xmm4, 16(%r15)
	movaps	256(%rsp), %xmm4
	movaps	%xmm4, (%r15)
	movaps	272(%rsp), %xmm4
	movaps	%xmm4, 48(%r15)
	movaps	%xmm3, 112(%r15)
	movaps	%xmm2, 96(%r15)
	movaps	%xmm1, 80(%r15)
	movaps	%xmm0, 64(%r15)
	jmp	LBB10_34
LBB10_14:
	movb	512(%rsp), %al
	testb	%al, %al
	jne	LBB10_16
Ltmp462:
	movq	%r12, %rdi
	movq	%rbx, %rsi
	callq	__ZN10rayon_core8registry12WorkerThread15wait_until_cold17h85a044fa98ca4aa2E
Ltmp463:
LBB10_16:
	movq	320(%rsp), %rax
	cmpq	$1, %rax
	jne	LBB10_17
	movaps	384(%rsp), %xmm0
	movaps	400(%rsp), %xmm1
	movaps	416(%rsp), %xmm2
	movaps	432(%rsp), %xmm3
	movaps	256(%rsp), %xmm4
	movaps	%xmm4, (%r15)
	movaps	240(%rsp), %xmm4
	movaps	%xmm4, 16(%r15)
	movaps	224(%rsp), %xmm4
	movaps	%xmm4, 32(%r15)
	movaps	272(%rsp), %xmm4
	movaps	%xmm4, 48(%r15)
	movaps	%xmm2, 96(%r15)
	movaps	%xmm3, 112(%r15)
	movaps	%xmm0, 64(%r15)
	movaps	%xmm1, 80(%r15)
LBB10_34:
	leaq	-40(%rbp), %rsp
	popq	%rbx
	popq	%r12
	popq	%r13
	popq	%r14
	popq	%r15
	popq	%rbp
	retq
LBB10_17:
	testq	%rax, %rax
	je	LBB10_36
	movq	328(%rsp), %rdi
	movq	336(%rsp), %rsi
Ltmp465:
	callq	__ZN10rayon_core6unwind16resume_unwinding17h5fa1757f689722ceE
Ltmp466:
	jmp	LBB10_6
LBB10_5:
Ltmp470:
	leaq	_str.2(%rip), %rdi
	leaq	l___unnamed_1(%rip), %rdx
	movl	$33, %esi
	callq	__ZN4core9panicking5panic17h383a6b80ea7021aaE
Ltmp471:
	jmp	LBB10_6
LBB10_36:
Ltmp467:
	leaq	l___unnamed_2(%rip), %rdi
	leaq	l___unnamed_3(%rip), %rdx
	movl	$40, %esi
	callq	__ZN3std9panicking11begin_panic17hd62f0347f881f53aE
Ltmp468:
	jmp	LBB10_6
LBB10_7:
Ltmp432:
	leaq	_str.1(%rip), %rdi
	leaq	l___unnamed_4(%rip), %rdx
	movl	$33, %esi
	callq	__ZN4core9panicking5panic17h383a6b80ea7021aaE
Ltmp433:
	jmp	LBB10_6
LBB10_25:
Ltmp456:
	leaq	l___unnamed_5(%rip), %rdi
	leaq	l___unnamed_6(%rip), %rdx
	movl	$43, %esi
	callq	__ZN4core9panicking5panic17h383a6b80ea7021aaE
Ltmp457:
	jmp	LBB10_6
LBB10_27:
Ltmp454:
	leaq	_str.2(%rip), %rdi
	leaq	l___unnamed_7(%rip), %rdx
	movl	$33, %esi
	callq	__ZN4core9panicking5panic17h383a6b80ea7021aaE
Ltmp455:
	jmp	LBB10_6
LBB10_47:
Ltmp469:
	jmp	LBB10_42
LBB10_40:
Ltmp464:
	jmp	LBB10_46
LBB10_38:
Ltmp453:
	movq	%rax, %r14
	movq	%r12, %rdi
	movq	%rbx, %rsi
	callq	__ZN5alloc5alloc8box_free17h9438c5f1772b94e3E
	jmp	LBB10_43
LBB10_35:
Ltmp458:
	movq	%rax, %r14
Ltmp459:
	leaq	576(%rsp), %rdi
	callq	__ZN4core3ptr13drop_in_place17h0b7def0b7e32d541E
Ltmp460:
	jmp	LBB10_43
LBB10_41:
Ltmp461:
LBB10_42:
	movq	%rax, %r14
	jmp	LBB10_43
LBB10_19:
Ltmp438:
Ltmp439:
	movq	%rax, %rdi
	callq	__ZN3std9panicking3try7cleanup17hd630ddf77975344aE
Ltmp440:
	movq	%rdx, %rcx
	leaq	512(%rsp), %rsi
Ltmp441:
	movq	%r12, %rdi
	movq	%rax, %rdx
	callq	__ZN10rayon_core4join23join_recover_from_panic17h47a5fd9714c21a6fE
Ltmp442:
LBB10_6:
	ud2
LBB10_45:
Ltmp443:
	jmp	LBB10_46
LBB10_44:
Ltmp472:
	jmp	LBB10_46
LBB10_39:
Ltmp448:
LBB10_46:
	movq	%rax, %r14
	leaq	320(%rsp), %rdi
	callq	__ZN4core3ptr13drop_in_place17h0b7def0b7e32d541E
LBB10_43:
	movq	%r14, %rdi
	callq	__Unwind_Resume
	ud2
Lfunc_end10:
	.cfi_endproc
	.section	__TEXT,__gcc_except_tab
	.p2align	2
GCC_except_table10:
Lexception10:
	.byte	255
	.byte	155
	.uleb128 Lttbase10-Lttbaseref10
Lttbaseref10:
	.byte	1
	.uleb128 Lcst_end10-Lcst_begin10
Lcst_begin10:
	.uleb128 Ltmp430-Lfunc_begin10
	.uleb128 Ltmp435-Ltmp430
	.uleb128 Ltmp472-Lfunc_begin10
	.byte	0
	.uleb128 Ltmp436-Lfunc_begin10
	.uleb128 Ltmp437-Ltmp436
	.uleb128 Ltmp438-Lfunc_begin10
	.byte	3
	.uleb128 Ltmp446-Lfunc_begin10
	.uleb128 Ltmp445-Ltmp446
	.uleb128 Ltmp448-Lfunc_begin10
	.byte	0
	.uleb128 Ltmp445-Lfunc_begin10
	.uleb128 Ltmp449-Ltmp445
	.byte	0
	.byte	0
	.uleb128 Ltmp449-Lfunc_begin10
	.uleb128 Ltmp450-Ltmp449
	.uleb128 Ltmp458-Lfunc_begin10
	.byte	0
	.uleb128 Ltmp451-Lfunc_begin10
	.uleb128 Ltmp452-Ltmp451
	.uleb128 Ltmp453-Lfunc_begin10
	.byte	0
	.uleb128 Ltmp462-Lfunc_begin10
	.uleb128 Ltmp463-Ltmp462
	.uleb128 Ltmp464-Lfunc_begin10
	.byte	0
	.uleb128 Ltmp465-Lfunc_begin10
	.uleb128 Ltmp466-Ltmp465
	.uleb128 Ltmp469-Lfunc_begin10
	.byte	0
	.uleb128 Ltmp470-Lfunc_begin10
	.uleb128 Ltmp471-Ltmp470
	.uleb128 Ltmp472-Lfunc_begin10
	.byte	0
	.uleb128 Ltmp467-Lfunc_begin10
	.uleb128 Ltmp468-Ltmp467
	.uleb128 Ltmp469-Lfunc_begin10
	.byte	0
	.uleb128 Ltmp432-Lfunc_begin10
	.uleb128 Ltmp433-Ltmp432
	.uleb128 Ltmp472-Lfunc_begin10
	.byte	0
	.uleb128 Ltmp456-Lfunc_begin10
	.uleb128 Ltmp455-Ltmp456
	.uleb128 Ltmp458-Lfunc_begin10
	.byte	0
	.uleb128 Ltmp459-Lfunc_begin10
	.uleb128 Ltmp460-Ltmp459
	.uleb128 Ltmp461-Lfunc_begin10
	.byte	0
	.uleb128 Ltmp439-Lfunc_begin10
	.uleb128 Ltmp440-Ltmp439
	.uleb128 Ltmp472-Lfunc_begin10
	.byte	0
	.uleb128 Ltmp441-Lfunc_begin10
	.uleb128 Ltmp442-Ltmp441
	.uleb128 Ltmp443-Lfunc_begin10
	.byte	0
	.uleb128 Ltmp442-Lfunc_begin10
	.uleb128 Lfunc_end10-Ltmp442
	.byte	0
	.byte	0
Lcst_end10:
	.byte	0
	.byte	0
	.byte	1
	.byte	125
	.p2align	2
	.long	0
Lttbase10:
	.p2align	2

	.section	__TEXT,__text,regular,pure_instructions
	.p2align	4, 0x90
__ZN10rayon_core4join12join_context28_$u7b$$u7b$closure$u7d$$u7d$17h8f0ea3bd00cc941bE:
Lfunc_begin11:
	.cfi_startproc
	.cfi_personality 155, _rust_eh_personality
	.cfi_lsda 16, Lexception11
	pushq	%rbp
	.cfi_def_cfa_offset 16
	.cfi_offset %rbp, -16
	movq	%rsp, %rbp
	.cfi_def_cfa_register %rbp
	pushq	%r15
	pushq	%r14
	pushq	%r13
	pushq	%r12
	pushq	%rbx
	andq	$-64, %rsp
	subq	$768, %rsp
	.cfi_offset %rbx, -56
	.cfi_offset %r12, -48
	.cfi_offset %r13, -40
	.cfi_offset %r14, -32
	.cfi_offset %r15, -24
	movl	%ecx, 60(%rsp)
	movq	%rdx, %rbx
	movq	%rsi, %r12
	movq	%rdi, %r15
	movb	$0, 504(%rsp)
	movq	(%rsi), %rax
	movq	8(%rsi), %rcx
	movq	%rax, 448(%rsp)
	movq	%rcx, 456(%rsp)
	movq	16(%rsi), %rax
	movq	%rax, 464(%rsp)
	movq	24(%rsi), %rax
	movq	%rax, 472(%rsp)
	movq	32(%rsi), %rax
	movq	%rax, 480(%rsp)
	movq	40(%rsi), %rax
	movq	%rax, 488(%rsp)
	movq	48(%rsi), %rax
	movq	%rax, 496(%rsp)
	movq	$0, 320(%rsp)
	movq	256(%rdx), %rax
	movq	264(%rax), %r14
	movq	256(%rax), %rax
	movq	272(%rdx), %rsi
	movq	%r14, %rcx
	subq	%rax, %rcx
	cmpq	%rsi, %rcx
	jl	LBB11_4
	addq	%rsi, %rsi
	jb	LBB11_7
	leaq	256(%rbx), %rdi
Ltmp473:
	callq	__ZN15crossbeam_deque15Worker$LT$T$GT$6resize17h73667af9f54c6c19E
Ltmp474:
	movq	272(%rbx), %rsi
LBB11_4:
	subq	$1, %rsi
	jb	LBB11_5
	movq	264(%rbx), %rax
	andq	%r14, %rsi
	shlq	$4, %rsi
	leaq	320(%rsp), %r13
	movq	%r13, (%rax,%rsi)
	leaq	__ZN83_$LT$rayon_core..job..StackJob$LT$L$C$F$C$R$GT$$u20$as$u20$rayon_core..job..Job$GT$7execute17he14c641588bcff40E(%rip), %rcx
	movq	%rcx, 8(%rax,%rsi)
	##MEMBARRIER
	movq	256(%rbx), %rax
	incq	%r14
	movq	%r14, 264(%rax)
	movl	$408, %edi
	addq	304(%rbx), %rdi
	movq	288(%rbx), %rsi
Ltmp477:
	callq	__ZN10rayon_core5sleep5Sleep6tickle17h5038bd408706a5c1E
Ltmp478:
	movq	80(%r12), %rax
	movq	%rax, 88(%rsp)
	movq	72(%r12), %rax
	movq	%rax, 80(%rsp)
	movq	96(%r12), %rax
	movq	%rax, 104(%rsp)
	movq	88(%r12), %rax
	movq	%rax, 96(%rsp)
	movq	56(%r12), %rax
	movq	64(%r12), %rcx
	movq	%rcx, 72(%rsp)
	movq	%rax, 64(%rsp)
	movl	60(%rsp), %r14d
	movb	%r14b, 112(%rsp)
	movq	80(%rsp), %r9
	movq	88(%rsp), %rdi
	movdqa	96(%rsp), %xmm0
	movdqa	64(%rsp), %xmm1
	movq	%xmm1, %rcx
	pshufd	$78, %xmm1, %xmm1
	movq	%xmm1, %rax
	movaps	112(%rsp), %xmm1
	movaps	%xmm1, 272(%rsp)
	xorl	%edx, %edx
	cmpb	$0, 272(%rsp)
	pshufd	$78, %xmm0, %xmm1
	setne	%dl
	movq	(%rcx), %rsi
	movq	(%rax), %rcx
	movq	8(%rax), %r8
	movq	%xmm0, 176(%rsp)
	movq	%r9, 160(%rsp)
	movq	%rdi, 168(%rsp)
Ltmp479:
	movq	%xmm1, (%rsp)
	leaq	512(%rsp), %rdi
	leaq	160(%rsp), %r9
	callq	__ZN5rayon4iter8plumbing24bridge_producer_consumer6helper17h26edccad41e45f2aE
Ltmp480:
	movaps	512(%rsp), %xmm0
	movaps	%xmm0, 240(%rsp)
	movaps	528(%rsp), %xmm0
	movaps	%xmm0, 224(%rsp)
	movaps	544(%rsp), %xmm0
	movaps	%xmm0, 208(%rsp)
	movdqa	560(%rsp), %xmm0
	movdqa	%xmm0, 256(%rsp)
	leaq	504(%rsp), %r12
	jmp	LBB11_11
	.p2align	4, 0x90
LBB11_23:
Ltmp489:
	movq	%rbx, %rdi
	movq	%rax, %rsi
	callq	__ZN10rayon_core8registry12WorkerThread7execute17hc504892f49177628E
Ltmp490:
LBB11_11:
	movzbl	504(%rsp), %eax
	testb	%al, %al
	jne	LBB11_16
Ltmp487:
	movq	%rbx, %rdi
	callq	__ZN10rayon_core8registry12WorkerThread14take_local_job17h4a60902ba985e6d4E
Ltmp488:
	testq	%rdx, %rdx
	je	LBB11_14
	cmpq	%r13, %rax
	jne	LBB11_23
	leaq	__ZN83_$LT$rayon_core..job..StackJob$LT$L$C$F$C$R$GT$$u20$as$u20$rayon_core..job..Job$GT$7execute17he14c641588bcff40E(%rip), %rcx
	cmpq	%rcx, %rdx
	jne	LBB11_23
	leaq	512(%rsp), %rdi
	leaq	320(%rsp), %rsi
	movl	$192, %edx
	callq	_memcpy
	movq	640(%rsp), %rsi
	movq	648(%rsp), %rcx
	movq	656(%rsp), %rax
	movq	664(%rsp), %rdx
	movq	%rdx, 64(%rsp)
	movq	672(%rsp), %rdx
	movq	%rdx, 72(%rsp)
	movq	680(%rsp), %rdx
	movq	%rdx, 80(%rsp)
	testq	%rsi, %rsi
	je	LBB11_25
	movq	688(%rsp), %r9
	movq	80(%rsp), %rdi
	movq	%rdi, 312(%rsp)
	movq	64(%rsp), %rbx
	movq	72(%rsp), %rdx
	movq	%rdx, 304(%rsp)
	movq	%rbx, 296(%rsp)
	movq	%rdi, 200(%rsp)
	movq	%rdx, 192(%rsp)
	movq	%rbx, 184(%rsp)
	movq	(%rsi), %rsi
	subq	(%rcx), %rsi
	jb	LBB11_27
	movq	(%rax), %rcx
	movq	8(%rax), %r8
	movq	200(%rsp), %rax
	movq	%rax, 176(%rsp)
	movq	184(%rsp), %rax
	movq	192(%rsp), %rdx
	movq	%rdx, 168(%rsp)
	movq	%rax, 160(%rsp)
Ltmp492:
	movq	%r9, (%rsp)
	movzbl	%r14b, %edx
	leaq	64(%rsp), %rdi
	leaq	160(%rsp), %r9
	callq	__ZN5rayon4iter8plumbing24bridge_producer_consumer6helper17h26edccad41e45f2aE
Ltmp493:
	cmpl	$2, 512(%rsp)
	jb	LBB11_33
	movq	520(%rsp), %r12
	movq	528(%rsp), %rbx
Ltmp494:
	movq	%r12, %rdi
	callq	*(%rbx)
Ltmp495:
	movq	8(%rbx), %rsi
	testq	%rsi, %rsi
	je	LBB11_33
	movq	16(%rbx), %rdx
	movq	%r12, %rdi
	callq	___rust_dealloc
LBB11_33:
	movaps	64(%rsp), %xmm0
	movaps	80(%rsp), %xmm1
	movaps	96(%rsp), %xmm2
	movaps	112(%rsp), %xmm3
	movaps	208(%rsp), %xmm4
	movaps	%xmm4, 32(%r15)
	movaps	224(%rsp), %xmm4
	movaps	%xmm4, 16(%r15)
	movaps	240(%rsp), %xmm4
	movaps	%xmm4, (%r15)
	movaps	256(%rsp), %xmm4
	movaps	%xmm4, 48(%r15)
	movaps	%xmm3, 112(%r15)
	movaps	%xmm2, 96(%r15)
	movaps	%xmm1, 80(%r15)
	movaps	%xmm0, 64(%r15)
	jmp	LBB11_34
LBB11_14:
	movb	504(%rsp), %al
	testb	%al, %al
	jne	LBB11_16
Ltmp505:
	movq	%rbx, %rdi
	movq	%r12, %rsi
	callq	__ZN10rayon_core8registry12WorkerThread15wait_until_cold17h85a044fa98ca4aa2E
Ltmp506:
LBB11_16:
	movq	320(%rsp), %rax
	cmpq	$1, %rax
	jne	LBB11_17
	movaps	384(%rsp), %xmm0
	movaps	400(%rsp), %xmm1
	movaps	416(%rsp), %xmm2
	movaps	432(%rsp), %xmm3
	movaps	240(%rsp), %xmm4
	movaps	%xmm4, (%r15)
	movaps	224(%rsp), %xmm4
	movaps	%xmm4, 16(%r15)
	movaps	208(%rsp), %xmm4
	movaps	%xmm4, 32(%r15)
	movaps	256(%rsp), %xmm4
	movaps	%xmm4, 48(%r15)
	movaps	%xmm2, 96(%r15)
	movaps	%xmm3, 112(%r15)
	movaps	%xmm0, 64(%r15)
	movaps	%xmm1, 80(%r15)
LBB11_34:
	leaq	-40(%rbp), %rsp
	popq	%rbx
	popq	%r12
	popq	%r13
	popq	%r14
	popq	%r15
	popq	%rbp
	retq
LBB11_17:
	testq	%rax, %rax
	je	LBB11_36
	movq	328(%rsp), %rdi
	movq	336(%rsp), %rsi
Ltmp508:
	callq	__ZN10rayon_core6unwind16resume_unwinding17h5fa1757f689722ceE
Ltmp509:
	jmp	LBB11_6
LBB11_5:
Ltmp513:
	leaq	_str.2(%rip), %rdi
	leaq	l___unnamed_1(%rip), %rdx
	movl	$33, %esi
	callq	__ZN4core9panicking5panic17h383a6b80ea7021aaE
Ltmp514:
	jmp	LBB11_6
LBB11_36:
Ltmp510:
	leaq	l___unnamed_2(%rip), %rdi
	leaq	l___unnamed_3(%rip), %rdx
	movl	$40, %esi
	callq	__ZN3std9panicking11begin_panic17hd62f0347f881f53aE
Ltmp511:
	jmp	LBB11_6
LBB11_7:
Ltmp475:
	leaq	_str.1(%rip), %rdi
	leaq	l___unnamed_4(%rip), %rdx
	movl	$33, %esi
	callq	__ZN4core9panicking5panic17h383a6b80ea7021aaE
Ltmp476:
	jmp	LBB11_6
LBB11_25:
Ltmp499:
	leaq	l___unnamed_5(%rip), %rdi
	leaq	l___unnamed_6(%rip), %rdx
	movl	$43, %esi
	callq	__ZN4core9panicking5panic17h383a6b80ea7021aaE
Ltmp500:
	jmp	LBB11_6
LBB11_27:
Ltmp497:
	leaq	_str.2(%rip), %rdi
	leaq	l___unnamed_7(%rip), %rdx
	movl	$33, %esi
	callq	__ZN4core9panicking5panic17h383a6b80ea7021aaE
Ltmp498:
	jmp	LBB11_6
LBB11_47:
Ltmp512:
	jmp	LBB11_42
LBB11_40:
Ltmp507:
	jmp	LBB11_46
LBB11_38:
Ltmp496:
	movq	%rax, %r14
	movq	%r12, %rdi
	movq	%rbx, %rsi
	callq	__ZN5alloc5alloc8box_free17h9438c5f1772b94e3E
	jmp	LBB11_43
LBB11_35:
Ltmp501:
	movq	%rax, %r14
Ltmp502:
	leaq	512(%rsp), %rdi
	callq	__ZN4core3ptr13drop_in_place17h0b7def0b7e32d541E
Ltmp503:
	jmp	LBB11_43
LBB11_41:
Ltmp504:
LBB11_42:
	movq	%rax, %r14
	jmp	LBB11_43
LBB11_19:
Ltmp481:
Ltmp482:
	movq	%rax, %rdi
	callq	__ZN3std9panicking3try7cleanup17hd630ddf77975344aE
Ltmp483:
	movq	%rdx, %rcx
	leaq	504(%rsp), %rsi
Ltmp484:
	movq	%rbx, %rdi
	movq	%rax, %rdx
	callq	__ZN10rayon_core4join23join_recover_from_panic17h47a5fd9714c21a6fE
Ltmp485:
LBB11_6:
	ud2
LBB11_45:
Ltmp486:
	jmp	LBB11_46
LBB11_44:
Ltmp515:
	jmp	LBB11_46
LBB11_39:
Ltmp491:
LBB11_46:
	movq	%rax, %r14
	leaq	320(%rsp), %rdi
	callq	__ZN4core3ptr13drop_in_place17h0b7def0b7e32d541E
LBB11_43:
	movq	%r14, %rdi
	callq	__Unwind_Resume
	ud2
Lfunc_end11:
	.cfi_endproc
	.section	__TEXT,__gcc_except_tab
	.p2align	2
GCC_except_table11:
Lexception11:
	.byte	255
	.byte	155
	.uleb128 Lttbase11-Lttbaseref11
Lttbaseref11:
	.byte	1
	.uleb128 Lcst_end11-Lcst_begin11
Lcst_begin11:
	.uleb128 Ltmp473-Lfunc_begin11
	.uleb128 Ltmp478-Ltmp473
	.uleb128 Ltmp515-Lfunc_begin11
	.byte	0
	.uleb128 Ltmp479-Lfunc_begin11
	.uleb128 Ltmp480-Ltmp479
	.uleb128 Ltmp481-Lfunc_begin11
	.byte	3
	.uleb128 Ltmp489-Lfunc_begin11
	.uleb128 Ltmp488-Ltmp489
	.uleb128 Ltmp491-Lfunc_begin11
	.byte	0
	.uleb128 Ltmp488-Lfunc_begin11
	.uleb128 Ltmp492-Ltmp488
	.byte	0
	.byte	0
	.uleb128 Ltmp492-Lfunc_begin11
	.uleb128 Ltmp493-Ltmp492
	.uleb128 Ltmp501-Lfunc_begin11
	.byte	0
	.uleb128 Ltmp494-Lfunc_begin11
	.uleb128 Ltmp495-Ltmp494
	.uleb128 Ltmp496-Lfunc_begin11
	.byte	0
	.uleb128 Ltmp505-Lfunc_begin11
	.uleb128 Ltmp506-Ltmp505
	.uleb128 Ltmp507-Lfunc_begin11
	.byte	0
	.uleb128 Ltmp508-Lfunc_begin11
	.uleb128 Ltmp509-Ltmp508
	.uleb128 Ltmp512-Lfunc_begin11
	.byte	0
	.uleb128 Ltmp513-Lfunc_begin11
	.uleb128 Ltmp514-Ltmp513
	.uleb128 Ltmp515-Lfunc_begin11
	.byte	0
	.uleb128 Ltmp510-Lfunc_begin11
	.uleb128 Ltmp511-Ltmp510
	.uleb128 Ltmp512-Lfunc_begin11
	.byte	0
	.uleb128 Ltmp475-Lfunc_begin11
	.uleb128 Ltmp476-Ltmp475
	.uleb128 Ltmp515-Lfunc_begin11
	.byte	0
	.uleb128 Ltmp499-Lfunc_begin11
	.uleb128 Ltmp498-Ltmp499
	.uleb128 Ltmp501-Lfunc_begin11
	.byte	0
	.uleb128 Ltmp502-Lfunc_begin11
	.uleb128 Ltmp503-Ltmp502
	.uleb128 Ltmp504-Lfunc_begin11
	.byte	0
	.uleb128 Ltmp482-Lfunc_begin11
	.uleb128 Ltmp483-Ltmp482
	.uleb128 Ltmp515-Lfunc_begin11
	.byte	0
	.uleb128 Ltmp484-Lfunc_begin11
	.uleb128 Ltmp485-Ltmp484
	.uleb128 Ltmp486-Lfunc_begin11
	.byte	0
	.uleb128 Ltmp485-Lfunc_begin11
	.uleb128 Lfunc_end11-Ltmp485
	.byte	0
	.byte	0
Lcst_end11:
	.byte	0
	.byte	0
	.byte	1
	.byte	125
	.p2align	2
	.long	0
Lttbase11:
	.p2align	2

	.section	__TEXT,__text,regular,pure_instructions
	.p2align	4, 0x90
__ZN10rayon_core4join12join_context28_$u7b$$u7b$closure$u7d$$u7d$17h956e30b1f46abaddE:
Lfunc_begin12:
	.cfi_startproc
	.cfi_personality 155, _rust_eh_personality
	.cfi_lsda 16, Lexception12
	pushq	%rbp
	.cfi_def_cfa_offset 16
	.cfi_offset %rbp, -16
	movq	%rsp, %rbp
	.cfi_def_cfa_register %rbp
	pushq	%r15
	pushq	%r14
	pushq	%r13
	pushq	%r12
	pushq	%rbx
	andq	$-64, %rsp
	subq	$704, %rsp
	.cfi_offset %rbx, -56
	.cfi_offset %r12, -48
	.cfi_offset %r13, -40
	.cfi_offset %r14, -32
	.cfi_offset %r15, -24
	movq	%rdx, %rbx
	movq	%rsi, %r12
	movq	%rdi, %r14
	movb	$0, 440(%rsp)
	movq	(%rsi), %rax
	movq	8(%rsi), %rdx
	movq	%rax, 384(%rsp)
	movq	%rdx, 392(%rsp)
	movq	16(%rsi), %rax
	movq	%rax, 400(%rsp)
	movq	24(%rsi), %rax
	movq	%rax, 408(%rsp)
	movq	32(%rsi), %rax
	movq	%rax, 416(%rsp)
	movq	40(%rsi), %rax
	movq	%rax, 424(%rsp)
	movq	48(%rsi), %rax
	movq	%rax, 432(%rsp)
	movq	$0, 256(%rsp)
	movq	256(%rbx), %rax
	movq	264(%rax), %r15
	movq	256(%rax), %rax
	movq	272(%rbx), %rsi
	movq	%r15, %rdx
	subq	%rax, %rdx
	cmpq	%rsi, %rdx
	movl	%ecx, 128(%rsp)
	jl	LBB12_4
	addq	%rsi, %rsi
	jb	LBB12_7
	leaq	256(%rbx), %rdi
Ltmp516:
	callq	__ZN15crossbeam_deque15Worker$LT$T$GT$6resize17h73667af9f54c6c19E
Ltmp517:
	movq	272(%rbx), %rsi
LBB12_4:
	subq	$1, %rsi
	jb	LBB12_5
	movq	264(%rbx), %rax
	andq	%r15, %rsi
	shlq	$4, %rsi
	leaq	256(%rsp), %r13
	movq	%r13, (%rax,%rsi)
	leaq	__ZN83_$LT$rayon_core..job..StackJob$LT$L$C$F$C$R$GT$$u20$as$u20$rayon_core..job..Job$GT$7execute17h27d7b76d371c6a15E(%rip), %rcx
	movq	%rcx, 8(%rax,%rsi)
	##MEMBARRIER
	movq	256(%rbx), %rax
	incq	%r15
	movq	%r15, 264(%rax)
	movl	$408, %edi
	addq	304(%rbx), %rdi
	movq	288(%rbx), %rsi
Ltmp520:
	callq	__ZN10rayon_core5sleep5Sleep6tickle17h5038bd408706a5c1E
Ltmp521:
	movq	96(%r12), %rax
	movq	%rax, 104(%rsp)
	movq	88(%r12), %rcx
	movq	%rcx, 96(%rsp)
	movq	80(%r12), %rcx
	movq	%rcx, 88(%rsp)
	movq	72(%r12), %rcx
	movq	%rcx, 80(%rsp)
	movq	56(%r12), %rcx
	movq	64(%r12), %rdx
	movq	%rdx, 72(%rsp)
	movq	%rcx, 64(%rsp)
	movl	128(%rsp), %edi
	movb	%dil, 112(%rsp)
	movq	(%rcx), %rsi
	movq	(%rdx), %rcx
	movq	8(%rdx), %r8
	movq	80(%rsp), %rdx
	movq	%rdx, 32(%rsp)
	movq	88(%rsp), %rdx
	movq	%rdx, 40(%rsp)
	movq	96(%rsp), %rdx
	movq	%rdx, 48(%rsp)
Ltmp522:
	movq	%rax, (%rsp)
	movzbl	%dil, %r12d
	leaq	448(%rsp), %rdi
	leaq	32(%rsp), %r9
	movl	%r12d, %edx
	callq	__ZN5rayon4iter8plumbing24bridge_producer_consumer6helper17h068243e8c042c4b5E
Ltmp523:
	movaps	448(%rsp), %xmm0
	movaps	%xmm0, 208(%rsp)
	movaps	464(%rsp), %xmm0
	movaps	%xmm0, 192(%rsp)
	movaps	480(%rsp), %xmm0
	movaps	%xmm0, 176(%rsp)
	movaps	496(%rsp), %xmm0
	movaps	%xmm0, 128(%rsp)
	leaq	__ZN83_$LT$rayon_core..job..StackJob$LT$L$C$F$C$R$GT$$u20$as$u20$rayon_core..job..Job$GT$7execute17h27d7b76d371c6a15E(%rip), %r15
	jmp	LBB12_11
	.p2align	4, 0x90
LBB12_23:
Ltmp532:
	movq	%rbx, %rdi
	movq	%rax, %rsi
	callq	__ZN10rayon_core8registry12WorkerThread7execute17hc504892f49177628E
Ltmp533:
LBB12_11:
	movzbl	440(%rsp), %eax
	testb	%al, %al
	jne	LBB12_16
Ltmp530:
	movq	%rbx, %rdi
	callq	__ZN10rayon_core8registry12WorkerThread14take_local_job17h4a60902ba985e6d4E
Ltmp531:
	testq	%rdx, %rdx
	je	LBB12_14
	cmpq	%r13, %rax
	jne	LBB12_23
	cmpq	%r15, %rdx
	jne	LBB12_23
	leaq	448(%rsp), %rdi
	leaq	256(%rsp), %rsi
	movl	$192, %edx
	callq	_memcpy
	movq	576(%rsp), %rsi
	movq	584(%rsp), %rcx
	movq	592(%rsp), %rax
	movq	600(%rsp), %rdx
	movq	%rdx, 64(%rsp)
	movq	608(%rsp), %rdx
	movq	%rdx, 72(%rsp)
	movq	616(%rsp), %rdx
	movq	%rdx, 80(%rsp)
	testq	%rsi, %rsi
	je	LBB12_25
	movq	624(%rsp), %r9
	movq	80(%rsp), %rdi
	movq	%rdi, 248(%rsp)
	movq	64(%rsp), %rbx
	movq	72(%rsp), %rdx
	movq	%rdx, 240(%rsp)
	movq	%rbx, 232(%rsp)
	movq	%rdi, 168(%rsp)
	movq	%rdx, 160(%rsp)
	movq	%rbx, 152(%rsp)
	movq	(%rsi), %rsi
	subq	(%rcx), %rsi
	jb	LBB12_27
	movq	(%rax), %rcx
	movq	8(%rax), %r8
	movq	168(%rsp), %rax
	movq	%rax, 48(%rsp)
	movq	152(%rsp), %rax
	movq	160(%rsp), %rdx
	movq	%rdx, 40(%rsp)
	movq	%rax, 32(%rsp)
Ltmp535:
	movq	%r9, (%rsp)
	leaq	64(%rsp), %rdi
	leaq	32(%rsp), %r9
	movl	%r12d, %edx
	callq	__ZN5rayon4iter8plumbing24bridge_producer_consumer6helper17h068243e8c042c4b5E
Ltmp536:
	cmpl	$2, 448(%rsp)
	jb	LBB12_33
	movq	456(%rsp), %r15
	movq	464(%rsp), %rbx
Ltmp537:
	movq	%r15, %rdi
	callq	*(%rbx)
Ltmp538:
	movq	8(%rbx), %rsi
	testq	%rsi, %rsi
	je	LBB12_33
	movq	16(%rbx), %rdx
	movq	%r15, %rdi
	callq	___rust_dealloc
LBB12_33:
	movaps	64(%rsp), %xmm0
	movaps	80(%rsp), %xmm1
	movaps	96(%rsp), %xmm2
	movaps	112(%rsp), %xmm3
	movaps	176(%rsp), %xmm4
	movaps	%xmm4, 32(%r14)
	movaps	192(%rsp), %xmm4
	movaps	%xmm4, 16(%r14)
	movaps	208(%rsp), %xmm4
	movaps	%xmm4, (%r14)
	movaps	128(%rsp), %xmm4
	movaps	%xmm4, 48(%r14)
	movaps	%xmm3, 112(%r14)
	movaps	%xmm2, 96(%r14)
	movaps	%xmm1, 80(%r14)
	movaps	%xmm0, 64(%r14)
	jmp	LBB12_34
LBB12_14:
	movb	440(%rsp), %al
	testb	%al, %al
	jne	LBB12_16
Ltmp548:
	movq	%rbx, %rdi
	leaq	440(%rsp), %rsi
	callq	__ZN10rayon_core8registry12WorkerThread15wait_until_cold17h85a044fa98ca4aa2E
Ltmp549:
LBB12_16:
	movq	256(%rsp), %rax
	cmpq	$1, %rax
	jne	LBB12_17
	movaps	320(%rsp), %xmm0
	movaps	336(%rsp), %xmm1
	movaps	352(%rsp), %xmm2
	movaps	368(%rsp), %xmm3
	movaps	208(%rsp), %xmm4
	movaps	%xmm4, (%r14)
	movaps	192(%rsp), %xmm4
	movaps	%xmm4, 16(%r14)
	movaps	176(%rsp), %xmm4
	movaps	%xmm4, 32(%r14)
	movaps	128(%rsp), %xmm4
	movaps	%xmm4, 48(%r14)
	movaps	%xmm2, 96(%r14)
	movaps	%xmm3, 112(%r14)
	movaps	%xmm0, 64(%r14)
	movaps	%xmm1, 80(%r14)
LBB12_34:
	leaq	-40(%rbp), %rsp
	popq	%rbx
	popq	%r12
	popq	%r13
	popq	%r14
	popq	%r15
	popq	%rbp
	retq
LBB12_17:
	testq	%rax, %rax
	je	LBB12_36
	movq	264(%rsp), %rdi
	movq	272(%rsp), %rsi
Ltmp551:
	callq	__ZN10rayon_core6unwind16resume_unwinding17h5fa1757f689722ceE
Ltmp552:
	jmp	LBB12_6
LBB12_5:
Ltmp556:
	leaq	_str.2(%rip), %rdi
	leaq	l___unnamed_1(%rip), %rdx
	movl	$33, %esi
	callq	__ZN4core9panicking5panic17h383a6b80ea7021aaE
Ltmp557:
	jmp	LBB12_6
LBB12_36:
Ltmp553:
	leaq	l___unnamed_2(%rip), %rdi
	leaq	l___unnamed_3(%rip), %rdx
	movl	$40, %esi
	callq	__ZN3std9panicking11begin_panic17hd62f0347f881f53aE
Ltmp554:
	jmp	LBB12_6
LBB12_7:
Ltmp518:
	leaq	_str.1(%rip), %rdi
	leaq	l___unnamed_4(%rip), %rdx
	movl	$33, %esi
	callq	__ZN4core9panicking5panic17h383a6b80ea7021aaE
Ltmp519:
	jmp	LBB12_6
LBB12_25:
Ltmp542:
	leaq	l___unnamed_5(%rip), %rdi
	leaq	l___unnamed_6(%rip), %rdx
	movl	$43, %esi
	callq	__ZN4core9panicking5panic17h383a6b80ea7021aaE
Ltmp543:
	jmp	LBB12_6
LBB12_27:
Ltmp540:
	leaq	_str.2(%rip), %rdi
	leaq	l___unnamed_7(%rip), %rdx
	movl	$33, %esi
	callq	__ZN4core9panicking5panic17h383a6b80ea7021aaE
Ltmp541:
	jmp	LBB12_6
LBB12_47:
Ltmp555:
	jmp	LBB12_42
LBB12_40:
Ltmp550:
	jmp	LBB12_46
LBB12_38:
Ltmp539:
	movq	%rax, %r14
	movq	%r15, %rdi
	movq	%rbx, %rsi
	callq	__ZN5alloc5alloc8box_free17h9438c5f1772b94e3E
	jmp	LBB12_43
LBB12_35:
Ltmp544:
	movq	%rax, %r14
Ltmp545:
	leaq	448(%rsp), %rdi
	callq	__ZN4core3ptr13drop_in_place17h0b7def0b7e32d541E
Ltmp546:
	jmp	LBB12_43
LBB12_41:
Ltmp547:
LBB12_42:
	movq	%rax, %r14
	jmp	LBB12_43
LBB12_19:
Ltmp524:
Ltmp525:
	movq	%rax, %rdi
	callq	__ZN3std9panicking3try7cleanup17hd630ddf77975344aE
Ltmp526:
	movq	%rdx, %rcx
	leaq	440(%rsp), %rsi
Ltmp527:
	movq	%rbx, %rdi
	movq	%rax, %rdx
	callq	__ZN10rayon_core4join23join_recover_from_panic17h47a5fd9714c21a6fE
Ltmp528:
LBB12_6:
	ud2
LBB12_45:
Ltmp529:
	jmp	LBB12_46
LBB12_44:
Ltmp558:
	jmp	LBB12_46
LBB12_39:
Ltmp534:
LBB12_46:
	movq	%rax, %r14
	leaq	256(%rsp), %rdi
	callq	__ZN4core3ptr13drop_in_place17h0b7def0b7e32d541E
LBB12_43:
	movq	%r14, %rdi
	callq	__Unwind_Resume
	ud2
Lfunc_end12:
	.cfi_endproc
	.section	__TEXT,__gcc_except_tab
	.p2align	2
GCC_except_table12:
Lexception12:
	.byte	255
	.byte	155
	.uleb128 Lttbase12-Lttbaseref12
Lttbaseref12:
	.byte	1
	.uleb128 Lcst_end12-Lcst_begin12
Lcst_begin12:
	.uleb128 Ltmp516-Lfunc_begin12
	.uleb128 Ltmp521-Ltmp516
	.uleb128 Ltmp558-Lfunc_begin12
	.byte	0
	.uleb128 Ltmp522-Lfunc_begin12
	.uleb128 Ltmp523-Ltmp522
	.uleb128 Ltmp524-Lfunc_begin12
	.byte	3
	.uleb128 Ltmp532-Lfunc_begin12
	.uleb128 Ltmp531-Ltmp532
	.uleb128 Ltmp534-Lfunc_begin12
	.byte	0
	.uleb128 Ltmp531-Lfunc_begin12
	.uleb128 Ltmp535-Ltmp531
	.byte	0
	.byte	0
	.uleb128 Ltmp535-Lfunc_begin12
	.uleb128 Ltmp536-Ltmp535
	.uleb128 Ltmp544-Lfunc_begin12
	.byte	0
	.uleb128 Ltmp537-Lfunc_begin12
	.uleb128 Ltmp538-Ltmp537
	.uleb128 Ltmp539-Lfunc_begin12
	.byte	0
	.uleb128 Ltmp548-Lfunc_begin12
	.uleb128 Ltmp549-Ltmp548
	.uleb128 Ltmp550-Lfunc_begin12
	.byte	0
	.uleb128 Ltmp551-Lfunc_begin12
	.uleb128 Ltmp552-Ltmp551
	.uleb128 Ltmp555-Lfunc_begin12
	.byte	0
	.uleb128 Ltmp556-Lfunc_begin12
	.uleb128 Ltmp557-Ltmp556
	.uleb128 Ltmp558-Lfunc_begin12
	.byte	0
	.uleb128 Ltmp553-Lfunc_begin12
	.uleb128 Ltmp554-Ltmp553
	.uleb128 Ltmp555-Lfunc_begin12
	.byte	0
	.uleb128 Ltmp518-Lfunc_begin12
	.uleb128 Ltmp519-Ltmp518
	.uleb128 Ltmp558-Lfunc_begin12
	.byte	0
	.uleb128 Ltmp542-Lfunc_begin12
	.uleb128 Ltmp541-Ltmp542
	.uleb128 Ltmp544-Lfunc_begin12
	.byte	0
	.uleb128 Ltmp545-Lfunc_begin12
	.uleb128 Ltmp546-Ltmp545
	.uleb128 Ltmp547-Lfunc_begin12
	.byte	0
	.uleb128 Ltmp525-Lfunc_begin12
	.uleb128 Ltmp526-Ltmp525
	.uleb128 Ltmp558-Lfunc_begin12
	.byte	0
	.uleb128 Ltmp527-Lfunc_begin12
	.uleb128 Ltmp528-Ltmp527
	.uleb128 Ltmp529-Lfunc_begin12
	.byte	0
	.uleb128 Ltmp528-Lfunc_begin12
	.uleb128 Lfunc_end12-Ltmp528
	.byte	0
	.byte	0
Lcst_end12:
	.byte	0
	.byte	0
	.byte	1
	.byte	125
	.p2align	2
	.long	0
Lttbase12:
	.p2align	2

	.section	__TEXT,__text,regular,pure_instructions
	.p2align	4, 0x90
__ZN10rayon_core4join12join_context28_$u7b$$u7b$closure$u7d$$u7d$17h97edfd312e207f58E:
Lfunc_begin13:
	.cfi_startproc
	.cfi_personality 155, _rust_eh_personality
	.cfi_lsda 16, Lexception13
	pushq	%rbp
	.cfi_def_cfa_offset 16
	.cfi_offset %rbp, -16
	movq	%rsp, %rbp
	.cfi_def_cfa_register %rbp
	pushq	%r15
	pushq	%r14
	pushq	%r13
	pushq	%r12
	pushq	%rbx
	andq	$-64, %rsp
	subq	$1024, %rsp
	.cfi_offset %rbx, -56
	.cfi_offset %r12, -48
	.cfi_offset %r13, -40
	.cfi_offset %r14, -32
	.cfi_offset %r15, -24
	movl	%ecx, %r8d
	movq	%rdx, %rbx
	movq	%rsi, %r12
	movq	%rdi, 184(%rsp)
	movb	$0, 928(%rsp)
	leaq	832(%rsp), %rdi
	movl	$12, %ecx
	rep;movsq (%rsi), %es:(%rdi)
	movq	$0, 704(%rsp)
	movq	256(%rdx), %rax
	movq	264(%rax), %r14
	movq	256(%rax), %rax
	movq	272(%rdx), %rsi
	movq	%r14, %rcx
	subq	%rax, %rcx
	cmpq	%rsi, %rcx
	movl	%r8d, 192(%rsp)
	jl	LBB13_4
	addq	%rsi, %rsi
	jb	LBB13_7
	leaq	256(%rbx), %rdi
Ltmp559:
	callq	__ZN15crossbeam_deque15Worker$LT$T$GT$6resize17h73667af9f54c6c19E
Ltmp560:
	movq	272(%rbx), %rsi
LBB13_4:
	subq	$1, %rsi
	jb	LBB13_5
	movq	264(%rbx), %rax
	andq	%r14, %rsi
	shlq	$4, %rsi
	leaq	704(%rsp), %r13
	movq	%r13, (%rax,%rsi)
	leaq	__ZN83_$LT$rayon_core..job..StackJob$LT$L$C$F$C$R$GT$$u20$as$u20$rayon_core..job..Job$GT$7execute17h032d8aabaa5ef815E(%rip), %r15
	movq	%r15, 8(%rax,%rsi)
	##MEMBARRIER
	movq	256(%rbx), %rax
	incq	%r14
	movq	%r14, 264(%rax)
	movl	$408, %edi
	addq	304(%rbx), %rdi
	movq	288(%rbx), %rsi
Ltmp563:
	callq	__ZN10rayon_core5sleep5Sleep6tickle17h5038bd408706a5c1E
Ltmp564:
	movdqu	96(%r12), %xmm0
	movups	112(%r12), %xmm1
	movups	128(%r12), %xmm2
	movups	144(%r12), %xmm3
	movq	176(%r12), %r9
	movq	%xmm0, %rcx
	pshufd	$78, %xmm0, %xmm0
	movq	%xmm0, %rdx
	movq	160(%r12), %rdi
	movq	168(%r12), %rax
	movq	%rax, 216(%rsp)
	movq	%rdi, 208(%rsp)
	movq	(%rcx), %rsi
	movq	(%rdx), %rcx
	movq	8(%rdx), %r8
	movups	%xmm3, 416(%rsp)
	movups	%xmm2, 400(%rsp)
	movups	%xmm1, 384(%rsp)
	movq	%rdi, 432(%rsp)
	movq	%rax, 440(%rsp)
Ltmp565:
	movq	%r9, (%rsp)
	movzbl	192(%rsp), %r12d
	leaq	64(%rsp), %rdi
	leaq	384(%rsp), %r9
	movl	%r12d, %edx
	callq	__ZN5rayon4iter8plumbing24bridge_producer_consumer6helper17hc5e4b53199d624ecE
Ltmp566:
	movaps	64(%rsp), %xmm0
	movaps	%xmm0, 304(%rsp)
	movaps	80(%rsp), %xmm0
	movaps	%xmm0, 288(%rsp)
	movaps	96(%rsp), %xmm0
	movaps	%xmm0, 272(%rsp)
	movdqa	112(%rsp), %xmm0
	movdqa	%xmm0, 192(%rsp)
	leaq	928(%rsp), %r14
	jmp	LBB13_11
	.p2align	4, 0x90
LBB13_23:
Ltmp575:
	movq	%rbx, %rdi
	movq	%rax, %rsi
	callq	__ZN10rayon_core8registry12WorkerThread7execute17hc504892f49177628E
Ltmp576:
LBB13_11:
	movzbl	928(%rsp), %eax
	testb	%al, %al
	jne	LBB13_16
Ltmp573:
	movq	%rbx, %rdi
	callq	__ZN10rayon_core8registry12WorkerThread14take_local_job17h4a60902ba985e6d4E
Ltmp574:
	testq	%rdx, %rdx
	je	LBB13_14
	cmpq	%r13, %rax
	jne	LBB13_23
	cmpq	%r15, %rdx
	jne	LBB13_23
	leaq	384(%rsp), %rdi
	leaq	704(%rsp), %rsi
	movl	$256, %edx
	callq	_memcpy
	movq	512(%rsp), %r11
	movq	520(%rsp), %r8
	movq	528(%rsp), %r10
	movq	536(%rsp), %rdx
	movq	%rdx, 64(%rsp)
	movq	544(%rsp), %rdx
	movq	%rdx, 72(%rsp)
	movq	552(%rsp), %rdx
	movq	%rdx, 80(%rsp)
	movq	560(%rsp), %rdx
	movq	%rdx, 88(%rsp)
	movq	568(%rsp), %rdx
	movq	%rdx, 96(%rsp)
	movq	576(%rsp), %rdx
	movq	%rdx, 104(%rsp)
	movq	584(%rsp), %rdx
	movq	%rdx, 112(%rsp)
	movq	592(%rsp), %rdx
	movq	%rdx, 120(%rsp)
	testq	%r11, %r11
	je	LBB13_25
	movq	600(%rsp), %r9
	movq	120(%rsp), %rdi
	movq	%rdi, 376(%rsp)
	movq	112(%rsp), %r14
	movq	%r14, 368(%rsp)
	movq	104(%rsp), %rbx
	movq	%rbx, 360(%rsp)
	movq	96(%rsp), %rdx
	movq	%rdx, 352(%rsp)
	movq	88(%rsp), %rcx
	movq	%rcx, 344(%rsp)
	movq	80(%rsp), %rax
	movq	%rax, 336(%rsp)
	movq	64(%rsp), %rsi
	movq	72(%rsp), %rdi
	movq	%rdi, 328(%rsp)
	movq	%rsi, 320(%rsp)
	movq	%r14, 256(%rsp)
	movq	%rbx, 248(%rsp)
	movq	%rdx, 240(%rsp)
	movq	%rcx, 232(%rsp)
	movq	%rax, 224(%rsp)
	movq	%rdi, 216(%rsp)
	movq	%rsi, 208(%rsp)
	movq	376(%rsp), %rax
	movq	%rax, 264(%rsp)
	movq	(%r11), %rsi
	subq	(%r8), %rsi
	jb	LBB13_27
	movq	(%r10), %rcx
	movq	8(%r10), %r8
	movq	264(%rsp), %rax
	movq	%rax, 120(%rsp)
	movq	256(%rsp), %rax
	movq	%rax, 112(%rsp)
	movq	248(%rsp), %rax
	movq	%rax, 104(%rsp)
	movq	240(%rsp), %rax
	movq	%rax, 96(%rsp)
	movq	232(%rsp), %rax
	movq	%rax, 88(%rsp)
	movq	224(%rsp), %rax
	movq	%rax, 80(%rsp)
	movq	208(%rsp), %rax
	movq	216(%rsp), %rdx
	movq	%rdx, 72(%rsp)
	movq	%rax, 64(%rsp)
Ltmp578:
	movq	%r9, (%rsp)
	leaq	640(%rsp), %rdi
	leaq	64(%rsp), %r9
	movl	%r12d, %edx
	callq	__ZN5rayon4iter8plumbing24bridge_producer_consumer6helper17hc5e4b53199d624ecE
Ltmp579:
	cmpl	$2, 384(%rsp)
	jb	LBB13_33
	movq	392(%rsp), %r15
	movq	400(%rsp), %rbx
Ltmp580:
	movq	%r15, %rdi
	callq	*(%rbx)
Ltmp581:
	movq	8(%rbx), %rsi
	testq	%rsi, %rsi
	je	LBB13_33
	movq	16(%rbx), %rdx
	movq	%r15, %rdi
	callq	___rust_dealloc
LBB13_33:
	movaps	640(%rsp), %xmm0
	movaps	656(%rsp), %xmm1
	movaps	672(%rsp), %xmm2
	movaps	688(%rsp), %xmm3
	movq	184(%rsp), %rax
	movaps	272(%rsp), %xmm4
	movaps	%xmm4, 32(%rax)
	movaps	288(%rsp), %xmm4
	movaps	%xmm4, 16(%rax)
	movaps	304(%rsp), %xmm4
	movaps	%xmm4, (%rax)
	movaps	192(%rsp), %xmm4
	movaps	%xmm4, 48(%rax)
	movaps	%xmm3, 112(%rax)
	movaps	%xmm2, 96(%rax)
	movaps	%xmm1, 80(%rax)
	movaps	%xmm0, 64(%rax)
	jmp	LBB13_34
LBB13_14:
	movb	928(%rsp), %al
	testb	%al, %al
	jne	LBB13_16
Ltmp591:
	movq	%rbx, %rdi
	movq	%r14, %rsi
	callq	__ZN10rayon_core8registry12WorkerThread15wait_until_cold17h85a044fa98ca4aa2E
Ltmp592:
LBB13_16:
	movq	704(%rsp), %rax
	cmpq	$1, %rax
	jne	LBB13_17
	movaps	768(%rsp), %xmm0
	movaps	784(%rsp), %xmm1
	movaps	800(%rsp), %xmm2
	movaps	816(%rsp), %xmm3
	movq	184(%rsp), %rax
	movaps	304(%rsp), %xmm4
	movaps	%xmm4, (%rax)
	movaps	288(%rsp), %xmm4
	movaps	%xmm4, 16(%rax)
	movaps	272(%rsp), %xmm4
	movaps	%xmm4, 32(%rax)
	movaps	192(%rsp), %xmm4
	movaps	%xmm4, 48(%rax)
	movaps	%xmm2, 96(%rax)
	movaps	%xmm3, 112(%rax)
	movaps	%xmm0, 64(%rax)
	movaps	%xmm1, 80(%rax)
LBB13_34:
	leaq	-40(%rbp), %rsp
	popq	%rbx
	popq	%r12
	popq	%r13
	popq	%r14
	popq	%r15
	popq	%rbp
	retq
LBB13_17:
	testq	%rax, %rax
	je	LBB13_36
	movq	712(%rsp), %rdi
	movq	720(%rsp), %rsi
Ltmp594:
	callq	__ZN10rayon_core6unwind16resume_unwinding17h5fa1757f689722ceE
Ltmp595:
	jmp	LBB13_6
LBB13_5:
Ltmp599:
	leaq	_str.2(%rip), %rdi
	leaq	l___unnamed_1(%rip), %rdx
	movl	$33, %esi
	callq	__ZN4core9panicking5panic17h383a6b80ea7021aaE
Ltmp600:
	jmp	LBB13_6
LBB13_36:
Ltmp596:
	leaq	l___unnamed_2(%rip), %rdi
	leaq	l___unnamed_3(%rip), %rdx
	movl	$40, %esi
	callq	__ZN3std9panicking11begin_panic17hd62f0347f881f53aE
Ltmp597:
	jmp	LBB13_6
LBB13_7:
Ltmp561:
	leaq	_str.1(%rip), %rdi
	leaq	l___unnamed_4(%rip), %rdx
	movl	$33, %esi
	callq	__ZN4core9panicking5panic17h383a6b80ea7021aaE
Ltmp562:
	jmp	LBB13_6
LBB13_25:
Ltmp585:
	leaq	l___unnamed_5(%rip), %rdi
	leaq	l___unnamed_6(%rip), %rdx
	movl	$43, %esi
	callq	__ZN4core9panicking5panic17h383a6b80ea7021aaE
Ltmp586:
	jmp	LBB13_6
LBB13_27:
Ltmp583:
	leaq	_str.2(%rip), %rdi
	leaq	l___unnamed_7(%rip), %rdx
	movl	$33, %esi
	callq	__ZN4core9panicking5panic17h383a6b80ea7021aaE
Ltmp584:
	jmp	LBB13_6
LBB13_47:
Ltmp598:
	jmp	LBB13_42
LBB13_40:
Ltmp593:
	jmp	LBB13_46
LBB13_38:
Ltmp582:
	movq	%rax, %r14
	movq	%r15, %rdi
	movq	%rbx, %rsi
	callq	__ZN5alloc5alloc8box_free17h9438c5f1772b94e3E
	jmp	LBB13_43
LBB13_35:
Ltmp587:
	movq	%rax, %r14
Ltmp588:
	leaq	384(%rsp), %rdi
	callq	__ZN4core3ptr13drop_in_place17h0b7def0b7e32d541E
Ltmp589:
	jmp	LBB13_43
LBB13_41:
Ltmp590:
LBB13_42:
	movq	%rax, %r14
	jmp	LBB13_43
LBB13_19:
Ltmp567:
Ltmp568:
	movq	%rax, %rdi
	callq	__ZN3std9panicking3try7cleanup17hd630ddf77975344aE
Ltmp569:
	movq	%rdx, %rcx
	leaq	928(%rsp), %rsi
Ltmp570:
	movq	%rbx, %rdi
	movq	%rax, %rdx
	callq	__ZN10rayon_core4join23join_recover_from_panic17h47a5fd9714c21a6fE
Ltmp571:
LBB13_6:
	ud2
LBB13_45:
Ltmp572:
	jmp	LBB13_46
LBB13_44:
Ltmp601:
	jmp	LBB13_46
LBB13_39:
Ltmp577:
LBB13_46:
	movq	%rax, %r14
	leaq	704(%rsp), %rdi
	callq	__ZN4core3ptr13drop_in_place17h0b7def0b7e32d541E
LBB13_43:
	movq	%r14, %rdi
	callq	__Unwind_Resume
	ud2
Lfunc_end13:
	.cfi_endproc
	.section	__TEXT,__gcc_except_tab
	.p2align	2
GCC_except_table13:
Lexception13:
	.byte	255
	.byte	155
	.uleb128 Lttbase13-Lttbaseref13
Lttbaseref13:
	.byte	1
	.uleb128 Lcst_end13-Lcst_begin13
Lcst_begin13:
	.uleb128 Ltmp559-Lfunc_begin13
	.uleb128 Ltmp564-Ltmp559
	.uleb128 Ltmp601-Lfunc_begin13
	.byte	0
	.uleb128 Ltmp565-Lfunc_begin13
	.uleb128 Ltmp566-Ltmp565
	.uleb128 Ltmp567-Lfunc_begin13
	.byte	3
	.uleb128 Ltmp575-Lfunc_begin13
	.uleb128 Ltmp574-Ltmp575
	.uleb128 Ltmp577-Lfunc_begin13
	.byte	0
	.uleb128 Ltmp574-Lfunc_begin13
	.uleb128 Ltmp578-Ltmp574
	.byte	0
	.byte	0
	.uleb128 Ltmp578-Lfunc_begin13
	.uleb128 Ltmp579-Ltmp578
	.uleb128 Ltmp587-Lfunc_begin13
	.byte	0
	.uleb128 Ltmp580-Lfunc_begin13
	.uleb128 Ltmp581-Ltmp580
	.uleb128 Ltmp582-Lfunc_begin13
	.byte	0
	.uleb128 Ltmp591-Lfunc_begin13
	.uleb128 Ltmp592-Ltmp591
	.uleb128 Ltmp593-Lfunc_begin13
	.byte	0
	.uleb128 Ltmp594-Lfunc_begin13
	.uleb128 Ltmp595-Ltmp594
	.uleb128 Ltmp598-Lfunc_begin13
	.byte	0
	.uleb128 Ltmp599-Lfunc_begin13
	.uleb128 Ltmp600-Ltmp599
	.uleb128 Ltmp601-Lfunc_begin13
	.byte	0
	.uleb128 Ltmp596-Lfunc_begin13
	.uleb128 Ltmp597-Ltmp596
	.uleb128 Ltmp598-Lfunc_begin13
	.byte	0
	.uleb128 Ltmp561-Lfunc_begin13
	.uleb128 Ltmp562-Ltmp561
	.uleb128 Ltmp601-Lfunc_begin13
	.byte	0
	.uleb128 Ltmp585-Lfunc_begin13
	.uleb128 Ltmp584-Ltmp585
	.uleb128 Ltmp587-Lfunc_begin13
	.byte	0
	.uleb128 Ltmp588-Lfunc_begin13
	.uleb128 Ltmp589-Ltmp588
	.uleb128 Ltmp590-Lfunc_begin13
	.byte	0
	.uleb128 Ltmp568-Lfunc_begin13
	.uleb128 Ltmp569-Ltmp568
	.uleb128 Ltmp601-Lfunc_begin13
	.byte	0
	.uleb128 Ltmp570-Lfunc_begin13
	.uleb128 Ltmp571-Ltmp570
	.uleb128 Ltmp572-Lfunc_begin13
	.byte	0
	.uleb128 Ltmp571-Lfunc_begin13
	.uleb128 Lfunc_end13-Ltmp571
	.byte	0
	.byte	0
Lcst_end13:
	.byte	0
	.byte	0
	.byte	1
	.byte	125
	.p2align	2
	.long	0
Lttbase13:
	.p2align	2

	.section	__TEXT,__text,regular,pure_instructions
	.p2align	4, 0x90
__ZN10rayon_core4join12join_context28_$u7b$$u7b$closure$u7d$$u7d$17h9e05ac2eeb5637beE:
Lfunc_begin14:
	.cfi_startproc
	.cfi_personality 155, _rust_eh_personality
	.cfi_lsda 16, Lexception14
	pushq	%rbp
	.cfi_def_cfa_offset 16
	.cfi_offset %rbp, -16
	movq	%rsp, %rbp
	.cfi_def_cfa_register %rbp
	pushq	%r15
	pushq	%r14
	pushq	%r13
	pushq	%r12
	pushq	%rbx
	andq	$-64, %rsp
	subq	$768, %rsp
	.cfi_offset %rbx, -56
	.cfi_offset %r12, -48
	.cfi_offset %r13, -40
	.cfi_offset %r14, -32
	.cfi_offset %r15, -24
	movl	%ecx, 60(%rsp)
	movq	%rdx, %rbx
	movq	%rsi, %r12
	movq	%rdi, %r15
	movb	$0, 504(%rsp)
	movq	(%rsi), %rax
	movq	8(%rsi), %rcx
	movq	%rax, 448(%rsp)
	movq	%rcx, 456(%rsp)
	movq	16(%rsi), %rax
	movq	%rax, 464(%rsp)
	movq	24(%rsi), %rax
	movq	%rax, 472(%rsp)
	movq	32(%rsi), %rax
	movq	%rax, 480(%rsp)
	movq	40(%rsi), %rax
	movq	%rax, 488(%rsp)
	movq	48(%rsi), %rax
	movq	%rax, 496(%rsp)
	movq	$0, 320(%rsp)
	movq	256(%rdx), %rax
	movq	264(%rax), %r14
	movq	256(%rax), %rax
	movq	272(%rdx), %rsi
	movq	%r14, %rcx
	subq	%rax, %rcx
	cmpq	%rsi, %rcx
	jl	LBB14_4
	addq	%rsi, %rsi
	jb	LBB14_7
	leaq	256(%rbx), %rdi
Ltmp602:
	callq	__ZN15crossbeam_deque15Worker$LT$T$GT$6resize17h73667af9f54c6c19E
Ltmp603:
	movq	272(%rbx), %rsi
LBB14_4:
	subq	$1, %rsi
	jb	LBB14_5
	movq	264(%rbx), %rax
	andq	%r14, %rsi
	shlq	$4, %rsi
	leaq	320(%rsp), %r13
	movq	%r13, (%rax,%rsi)
	leaq	__ZN83_$LT$rayon_core..job..StackJob$LT$L$C$F$C$R$GT$$u20$as$u20$rayon_core..job..Job$GT$7execute17h610949ad60f4e75cE(%rip), %rcx
	movq	%rcx, 8(%rax,%rsi)
	##MEMBARRIER
	movq	256(%rbx), %rax
	incq	%r14
	movq	%r14, 264(%rax)
	movl	$408, %edi
	addq	304(%rbx), %rdi
	movq	288(%rbx), %rsi
Ltmp606:
	callq	__ZN10rayon_core5sleep5Sleep6tickle17h5038bd408706a5c1E
Ltmp607:
	movq	80(%r12), %rax
	movq	%rax, 88(%rsp)
	movq	72(%r12), %rax
	movq	%rax, 80(%rsp)
	movq	96(%r12), %rax
	movq	%rax, 104(%rsp)
	movq	88(%r12), %rax
	movq	%rax, 96(%rsp)
	movq	56(%r12), %rax
	movq	64(%r12), %rcx
	movq	%rcx, 72(%rsp)
	movq	%rax, 64(%rsp)
	movl	60(%rsp), %r14d
	movb	%r14b, 112(%rsp)
	movq	80(%rsp), %r9
	movq	88(%rsp), %rdi
	movdqa	96(%rsp), %xmm0
	movdqa	64(%rsp), %xmm1
	movq	%xmm1, %rcx
	pshufd	$78, %xmm1, %xmm1
	movq	%xmm1, %rax
	pshufd	$78, %xmm0, %xmm1
	xorl	%edx, %edx
	testb	%r14b, %r14b
	setne	%dl
	movq	(%rcx), %rsi
	movq	(%rax), %rcx
	movq	8(%rax), %r8
	movq	%xmm0, 192(%rsp)
	movq	%r9, 176(%rsp)
	movq	%rdi, 184(%rsp)
Ltmp608:
	movq	%xmm1, (%rsp)
	leaq	512(%rsp), %rdi
	leaq	176(%rsp), %r9
	callq	__ZN5rayon4iter8plumbing24bridge_producer_consumer6helper17h9b78c890ce7eac92E
Ltmp609:
	movaps	512(%rsp), %xmm0
	movaps	%xmm0, 256(%rsp)
	movaps	528(%rsp), %xmm0
	movaps	%xmm0, 240(%rsp)
	movaps	544(%rsp), %xmm0
	movaps	%xmm0, 224(%rsp)
	movdqa	560(%rsp), %xmm0
	movdqa	%xmm0, 272(%rsp)
	leaq	504(%rsp), %r12
	jmp	LBB14_11
	.p2align	4, 0x90
LBB14_23:
Ltmp618:
	movq	%rbx, %rdi
	movq	%rax, %rsi
	callq	__ZN10rayon_core8registry12WorkerThread7execute17hc504892f49177628E
Ltmp619:
LBB14_11:
	movzbl	504(%rsp), %eax
	testb	%al, %al
	jne	LBB14_16
Ltmp616:
	movq	%rbx, %rdi
	callq	__ZN10rayon_core8registry12WorkerThread14take_local_job17h4a60902ba985e6d4E
Ltmp617:
	testq	%rdx, %rdx
	je	LBB14_14
	cmpq	%r13, %rax
	jne	LBB14_23
	leaq	__ZN83_$LT$rayon_core..job..StackJob$LT$L$C$F$C$R$GT$$u20$as$u20$rayon_core..job..Job$GT$7execute17h610949ad60f4e75cE(%rip), %rcx
	cmpq	%rcx, %rdx
	jne	LBB14_23
	leaq	512(%rsp), %rdi
	leaq	320(%rsp), %rsi
	movl	$192, %edx
	callq	_memcpy
	movq	640(%rsp), %rsi
	movq	648(%rsp), %rcx
	movq	656(%rsp), %rax
	movq	664(%rsp), %rdx
	movq	%rdx, 64(%rsp)
	movq	672(%rsp), %rdx
	movq	%rdx, 72(%rsp)
	movq	680(%rsp), %rdx
	movq	%rdx, 80(%rsp)
	testq	%rsi, %rsi
	je	LBB14_25
	movq	688(%rsp), %r9
	movq	80(%rsp), %rdi
	movq	%rdi, 312(%rsp)
	movq	64(%rsp), %rbx
	movq	72(%rsp), %rdx
	movq	%rdx, 304(%rsp)
	movq	%rbx, 296(%rsp)
	movq	%rdi, 216(%rsp)
	movq	%rdx, 208(%rsp)
	movq	%rbx, 200(%rsp)
	movq	(%rsi), %rsi
	subq	(%rcx), %rsi
	jb	LBB14_27
	movq	(%rax), %rcx
	movq	8(%rax), %r8
	movq	216(%rsp), %rax
	movq	%rax, 192(%rsp)
	movq	200(%rsp), %rax
	movq	208(%rsp), %rdx
	movq	%rdx, 184(%rsp)
	movq	%rax, 176(%rsp)
Ltmp621:
	movq	%r9, (%rsp)
	movzbl	%r14b, %edx
	leaq	64(%rsp), %rdi
	leaq	176(%rsp), %r9
	callq	__ZN5rayon4iter8plumbing24bridge_producer_consumer6helper17h9b78c890ce7eac92E
Ltmp622:
	cmpl	$2, 512(%rsp)
	jb	LBB14_33
	movq	520(%rsp), %r12
	movq	528(%rsp), %rbx
Ltmp623:
	movq	%r12, %rdi
	callq	*(%rbx)
Ltmp624:
	movq	8(%rbx), %rsi
	testq	%rsi, %rsi
	je	LBB14_33
	movq	16(%rbx), %rdx
	movq	%r12, %rdi
	callq	___rust_dealloc
LBB14_33:
	movaps	64(%rsp), %xmm0
	movaps	80(%rsp), %xmm1
	movaps	96(%rsp), %xmm2
	movaps	112(%rsp), %xmm3
	movaps	224(%rsp), %xmm4
	movaps	%xmm4, 32(%r15)
	movaps	240(%rsp), %xmm4
	movaps	%xmm4, 16(%r15)
	movaps	256(%rsp), %xmm4
	movaps	%xmm4, (%r15)
	movaps	272(%rsp), %xmm4
	movaps	%xmm4, 48(%r15)
	movaps	%xmm3, 112(%r15)
	movaps	%xmm2, 96(%r15)
	movaps	%xmm1, 80(%r15)
	movaps	%xmm0, 64(%r15)
	jmp	LBB14_34
LBB14_14:
	movb	504(%rsp), %al
	testb	%al, %al
	jne	LBB14_16
Ltmp634:
	movq	%rbx, %rdi
	movq	%r12, %rsi
	callq	__ZN10rayon_core8registry12WorkerThread15wait_until_cold17h85a044fa98ca4aa2E
Ltmp635:
LBB14_16:
	movq	320(%rsp), %rax
	cmpq	$1, %rax
	jne	LBB14_17
	movaps	384(%rsp), %xmm0
	movaps	400(%rsp), %xmm1
	movaps	416(%rsp), %xmm2
	movaps	432(%rsp), %xmm3
	movaps	256(%rsp), %xmm4
	movaps	%xmm4, (%r15)
	movaps	240(%rsp), %xmm4
	movaps	%xmm4, 16(%r15)
	movaps	224(%rsp), %xmm4
	movaps	%xmm4, 32(%r15)
	movaps	272(%rsp), %xmm4
	movaps	%xmm4, 48(%r15)
	movaps	%xmm2, 96(%r15)
	movaps	%xmm3, 112(%r15)
	movaps	%xmm0, 64(%r15)
	movaps	%xmm1, 80(%r15)
LBB14_34:
	leaq	-40(%rbp), %rsp
	popq	%rbx
	popq	%r12
	popq	%r13
	popq	%r14
	popq	%r15
	popq	%rbp
	retq
LBB14_17:
	testq	%rax, %rax
	je	LBB14_36
	movq	328(%rsp), %rdi
	movq	336(%rsp), %rsi
Ltmp637:
	callq	__ZN10rayon_core6unwind16resume_unwinding17h5fa1757f689722ceE
Ltmp638:
	jmp	LBB14_6
LBB14_5:
Ltmp642:
	leaq	_str.2(%rip), %rdi
	leaq	l___unnamed_1(%rip), %rdx
	movl	$33, %esi
	callq	__ZN4core9panicking5panic17h383a6b80ea7021aaE
Ltmp643:
	jmp	LBB14_6
LBB14_36:
Ltmp639:
	leaq	l___unnamed_2(%rip), %rdi
	leaq	l___unnamed_3(%rip), %rdx
	movl	$40, %esi
	callq	__ZN3std9panicking11begin_panic17hd62f0347f881f53aE
Ltmp640:
	jmp	LBB14_6
LBB14_7:
Ltmp604:
	leaq	_str.1(%rip), %rdi
	leaq	l___unnamed_4(%rip), %rdx
	movl	$33, %esi
	callq	__ZN4core9panicking5panic17h383a6b80ea7021aaE
Ltmp605:
	jmp	LBB14_6
LBB14_25:
Ltmp628:
	leaq	l___unnamed_5(%rip), %rdi
	leaq	l___unnamed_6(%rip), %rdx
	movl	$43, %esi
	callq	__ZN4core9panicking5panic17h383a6b80ea7021aaE
Ltmp629:
	jmp	LBB14_6
LBB14_27:
Ltmp626:
	leaq	_str.2(%rip), %rdi
	leaq	l___unnamed_7(%rip), %rdx
	movl	$33, %esi
	callq	__ZN4core9panicking5panic17h383a6b80ea7021aaE
Ltmp627:
	jmp	LBB14_6
LBB14_47:
Ltmp641:
	jmp	LBB14_42
LBB14_40:
Ltmp636:
	jmp	LBB14_46
LBB14_38:
Ltmp625:
	movq	%rax, %r14
	movq	%r12, %rdi
	movq	%rbx, %rsi
	callq	__ZN5alloc5alloc8box_free17h9438c5f1772b94e3E
	jmp	LBB14_43
LBB14_35:
Ltmp630:
	movq	%rax, %r14
Ltmp631:
	leaq	512(%rsp), %rdi
	callq	__ZN4core3ptr13drop_in_place17h0b7def0b7e32d541E
Ltmp632:
	jmp	LBB14_43
LBB14_41:
Ltmp633:
LBB14_42:
	movq	%rax, %r14
	jmp	LBB14_43
LBB14_19:
Ltmp610:
Ltmp611:
	movq	%rax, %rdi
	callq	__ZN3std9panicking3try7cleanup17hd630ddf77975344aE
Ltmp612:
	movq	%rdx, %rcx
	leaq	504(%rsp), %rsi
Ltmp613:
	movq	%rbx, %rdi
	movq	%rax, %rdx
	callq	__ZN10rayon_core4join23join_recover_from_panic17h47a5fd9714c21a6fE
Ltmp614:
LBB14_6:
	ud2
LBB14_45:
Ltmp615:
	jmp	LBB14_46
LBB14_44:
Ltmp644:
	jmp	LBB14_46
LBB14_39:
Ltmp620:
LBB14_46:
	movq	%rax, %r14
	leaq	320(%rsp), %rdi
	callq	__ZN4core3ptr13drop_in_place17h0b7def0b7e32d541E
LBB14_43:
	movq	%r14, %rdi
	callq	__Unwind_Resume
	ud2
Lfunc_end14:
	.cfi_endproc
	.section	__TEXT,__gcc_except_tab
	.p2align	2
GCC_except_table14:
Lexception14:
	.byte	255
	.byte	155
	.uleb128 Lttbase14-Lttbaseref14
Lttbaseref14:
	.byte	1
	.uleb128 Lcst_end14-Lcst_begin14
Lcst_begin14:
	.uleb128 Ltmp602-Lfunc_begin14
	.uleb128 Ltmp607-Ltmp602
	.uleb128 Ltmp644-Lfunc_begin14
	.byte	0
	.uleb128 Ltmp608-Lfunc_begin14
	.uleb128 Ltmp609-Ltmp608
	.uleb128 Ltmp610-Lfunc_begin14
	.byte	3
	.uleb128 Ltmp618-Lfunc_begin14
	.uleb128 Ltmp617-Ltmp618
	.uleb128 Ltmp620-Lfunc_begin14
	.byte	0
	.uleb128 Ltmp617-Lfunc_begin14
	.uleb128 Ltmp621-Ltmp617
	.byte	0
	.byte	0
	.uleb128 Ltmp621-Lfunc_begin14
	.uleb128 Ltmp622-Ltmp621
	.uleb128 Ltmp630-Lfunc_begin14
	.byte	0
	.uleb128 Ltmp623-Lfunc_begin14
	.uleb128 Ltmp624-Ltmp623
	.uleb128 Ltmp625-Lfunc_begin14
	.byte	0
	.uleb128 Ltmp634-Lfunc_begin14
	.uleb128 Ltmp635-Ltmp634
	.uleb128 Ltmp636-Lfunc_begin14
	.byte	0
	.uleb128 Ltmp637-Lfunc_begin14
	.uleb128 Ltmp638-Ltmp637
	.uleb128 Ltmp641-Lfunc_begin14
	.byte	0
	.uleb128 Ltmp642-Lfunc_begin14
	.uleb128 Ltmp643-Ltmp642
	.uleb128 Ltmp644-Lfunc_begin14
	.byte	0
	.uleb128 Ltmp639-Lfunc_begin14
	.uleb128 Ltmp640-Ltmp639
	.uleb128 Ltmp641-Lfunc_begin14
	.byte	0
	.uleb128 Ltmp604-Lfunc_begin14
	.uleb128 Ltmp605-Ltmp604
	.uleb128 Ltmp644-Lfunc_begin14
	.byte	0
	.uleb128 Ltmp628-Lfunc_begin14
	.uleb128 Ltmp627-Ltmp628
	.uleb128 Ltmp630-Lfunc_begin14
	.byte	0
	.uleb128 Ltmp631-Lfunc_begin14
	.uleb128 Ltmp632-Ltmp631
	.uleb128 Ltmp633-Lfunc_begin14
	.byte	0
	.uleb128 Ltmp611-Lfunc_begin14
	.uleb128 Ltmp612-Ltmp611
	.uleb128 Ltmp644-Lfunc_begin14
	.byte	0
	.uleb128 Ltmp613-Lfunc_begin14
	.uleb128 Ltmp614-Ltmp613
	.uleb128 Ltmp615-Lfunc_begin14
	.byte	0
	.uleb128 Ltmp614-Lfunc_begin14
	.uleb128 Lfunc_end14-Ltmp614
	.byte	0
	.byte	0
Lcst_end14:
	.byte	0
	.byte	0
	.byte	1
	.byte	125
	.p2align	2
	.long	0
Lttbase14:
	.p2align	2

	.section	__TEXT,__text,regular,pure_instructions
	.p2align	4, 0x90
__ZN10rayon_core4join12join_context28_$u7b$$u7b$closure$u7d$$u7d$17ha8537b82a283faddE:
Lfunc_begin15:
	.cfi_startproc
	.cfi_personality 155, _rust_eh_personality
	.cfi_lsda 16, Lexception15
	pushq	%rbp
	.cfi_def_cfa_offset 16
	.cfi_offset %rbp, -16
	movq	%rsp, %rbp
	.cfi_def_cfa_register %rbp
	pushq	%r15
	pushq	%r14
	pushq	%r13
	pushq	%r12
	pushq	%rbx
	subq	$184, %rsp
	.cfi_offset %rbx, -56
	.cfi_offset %r12, -48
	.cfi_offset %r13, -40
	.cfi_offset %r14, -32
	.cfi_offset %r15, -24
	movq	%rsi, %rbx
	movq	%rdi, %r15
	movq	40(%rdi), %rax
	movq	%rax, -88(%rbp)
	movq	32(%rdi), %rax
	movq	%rax, -96(%rbp)
	movq	24(%rdi), %rax
	movq	%rax, -104(%rbp)
	movq	16(%rdi), %rax
	movq	%rax, -112(%rbp)
	movq	(%rdi), %rax
	movq	8(%rdi), %rcx
	movq	%rcx, -120(%rbp)
	movq	%rax, -128(%rbp)
	movb	$0, -56(%rbp)
	movq	$0, -80(%rbp)
	movq	256(%rsi), %rax
	movq	264(%rax), %r14
	movq	256(%rax), %rax
	movq	272(%rsi), %rsi
	movq	%r14, %rcx
	subq	%rax, %rcx
	cmpq	%rsi, %rcx
	movl	%edx, -44(%rbp)
	jl	LBB15_4
	addq	%rsi, %rsi
	jb	LBB15_7
	leaq	256(%rbx), %rdi
Ltmp645:
	callq	__ZN15crossbeam_deque15Worker$LT$T$GT$6resize17h73667af9f54c6c19E
Ltmp646:
	movq	272(%rbx), %rsi
LBB15_4:
	subq	$1, %rsi
	jb	LBB15_5
	movq	264(%rbx), %rax
	andq	%r14, %rsi
	shlq	$4, %rsi
	leaq	-128(%rbp), %r12
	movq	%r12, (%rax,%rsi)
	leaq	__ZN83_$LT$rayon_core..job..StackJob$LT$L$C$F$C$R$GT$$u20$as$u20$rayon_core..job..Job$GT$7execute17h4314de172146a49fE(%rip), %r13
	movq	%r13, 8(%rax,%rsi)
	##MEMBARRIER
	movq	256(%rbx), %rax
	incq	%r14
	movq	%r14, 264(%rax)
	movl	$408, %edi
	addq	304(%rbx), %rdi
	movq	288(%rbx), %rsi
Ltmp649:
	callq	__ZN10rayon_core5sleep5Sleep6tickle17h5038bd408706a5c1E
Ltmp650:
	movq	48(%r15), %rax
	movq	56(%r15), %rcx
	movq	64(%r15), %r8
	movq	72(%r15), %r9
	movq	80(%r15), %rsi
	movq	(%rax), %rdi
	movq	(%rcx), %rdx
	movq	8(%rcx), %rcx
Ltmp651:
	movq	%rsi, (%rsp)
	movzbl	-44(%rbp), %r14d
	movl	%r14d, %esi
	callq	__ZN5rayon4iter8plumbing24bridge_producer_consumer6helper17h678bdd76e9697c31E
Ltmp652:
	leaq	-56(%rbp), %r15
	jmp	LBB15_11
	.p2align	4, 0x90
LBB15_23:
Ltmp661:
	movq	%rbx, %rdi
	movq	%rax, %rsi
	callq	__ZN10rayon_core8registry12WorkerThread7execute17hc504892f49177628E
Ltmp662:
LBB15_11:
	movzbl	-56(%rbp), %eax
	testb	%al, %al
	jne	LBB15_16
Ltmp659:
	movq	%rbx, %rdi
	callq	__ZN10rayon_core8registry12WorkerThread14take_local_job17h4a60902ba985e6d4E
Ltmp660:
	testq	%rdx, %rdx
	je	LBB15_14
	cmpq	%r12, %rax
	jne	LBB15_23
	cmpq	%r13, %rdx
	jne	LBB15_23
	leaq	-208(%rbp), %rdi
	leaq	-128(%rbp), %rsi
	movl	$10, %ecx
	rep;movsq (%rsi), %es:(%rdi)
	movq	-208(%rbp), %rax
	testq	%rax, %rax
	je	LBB15_25
	movq	-200(%rbp), %rcx
	movq	(%rax), %rdi
	subq	(%rcx), %rdi
	jb	LBB15_27
	movq	-192(%rbp), %rax
	movq	-184(%rbp), %r8
	movq	-176(%rbp), %r9
	movq	-168(%rbp), %rsi
	movq	(%rax), %rdx
	movq	8(%rax), %rcx
Ltmp664:
	movq	%rsi, (%rsp)
	movl	%r14d, %esi
	callq	__ZN5rayon4iter8plumbing24bridge_producer_consumer6helper17h678bdd76e9697c31E
Ltmp665:
	cmpl	$2, -160(%rbp)
	jb	LBB15_33
	movq	-152(%rbp), %r15
	movq	-144(%rbp), %rbx
Ltmp666:
	movq	%r15, %rdi
	callq	*(%rbx)
Ltmp667:
	movq	8(%rbx), %rsi
	testq	%rsi, %rsi
	je	LBB15_33
	movq	16(%rbx), %rdx
	movq	%r15, %rdi
	callq	___rust_dealloc
	jmp	LBB15_33
LBB15_14:
	movb	-56(%rbp), %al
	testb	%al, %al
	jne	LBB15_16
Ltmp677:
	movq	%rbx, %rdi
	movq	%r15, %rsi
	callq	__ZN10rayon_core8registry12WorkerThread15wait_until_cold17h85a044fa98ca4aa2E
Ltmp678:
LBB15_16:
	movq	-80(%rbp), %rax
	cmpq	$1, %rax
	jne	LBB15_17
LBB15_33:
	addq	$184, %rsp
	popq	%rbx
	popq	%r12
	popq	%r13
	popq	%r14
	popq	%r15
	popq	%rbp
	retq
LBB15_17:
	testq	%rax, %rax
	je	LBB15_35
	movq	-72(%rbp), %rdi
	movq	-64(%rbp), %rsi
Ltmp680:
	callq	__ZN10rayon_core6unwind16resume_unwinding17h5fa1757f689722ceE
Ltmp681:
	jmp	LBB15_6
LBB15_5:
Ltmp685:
	leaq	_str.2(%rip), %rdi
	leaq	l___unnamed_1(%rip), %rdx
	movl	$33, %esi
	callq	__ZN4core9panicking5panic17h383a6b80ea7021aaE
Ltmp686:
	jmp	LBB15_6
LBB15_35:
Ltmp682:
	leaq	l___unnamed_2(%rip), %rdi
	leaq	l___unnamed_3(%rip), %rdx
	movl	$40, %esi
	callq	__ZN3std9panicking11begin_panic17hd62f0347f881f53aE
Ltmp683:
	jmp	LBB15_6
LBB15_7:
Ltmp647:
	leaq	_str.1(%rip), %rdi
	leaq	l___unnamed_4(%rip), %rdx
	movl	$33, %esi
	callq	__ZN4core9panicking5panic17h383a6b80ea7021aaE
Ltmp648:
	jmp	LBB15_6
LBB15_25:
Ltmp671:
	leaq	l___unnamed_5(%rip), %rdi
	leaq	l___unnamed_6(%rip), %rdx
	movl	$43, %esi
	callq	__ZN4core9panicking5panic17h383a6b80ea7021aaE
Ltmp672:
	jmp	LBB15_6
LBB15_27:
Ltmp669:
	leaq	_str.2(%rip), %rdi
	leaq	l___unnamed_7(%rip), %rdx
	movl	$33, %esi
	callq	__ZN4core9panicking5panic17h383a6b80ea7021aaE
Ltmp670:
	jmp	LBB15_6
LBB15_45:
Ltmp684:
	jmp	LBB15_40
LBB15_38:
Ltmp679:
	jmp	LBB15_44
LBB15_36:
Ltmp668:
	movq	%rax, %r14
	movq	%r15, %rdi
	movq	%rbx, %rsi
	callq	__ZN5alloc5alloc8box_free17h9438c5f1772b94e3E
	jmp	LBB15_41
LBB15_34:
Ltmp673:
	movq	%rax, %r14
	leaq	-160(%rbp), %rdi
Ltmp674:
	callq	__ZN4core3ptr13drop_in_place17hd53146ad14be3b16E
Ltmp675:
	jmp	LBB15_41
LBB15_39:
Ltmp676:
LBB15_40:
	movq	%rax, %r14
	jmp	LBB15_41
LBB15_19:
Ltmp653:
Ltmp654:
	movq	%rax, %rdi
	callq	__ZN3std9panicking3try7cleanup17hd630ddf77975344aE
Ltmp655:
	movq	%rdx, %rcx
	leaq	-56(%rbp), %rsi
Ltmp656:
	movq	%rbx, %rdi
	movq	%rax, %rdx
	callq	__ZN10rayon_core4join23join_recover_from_panic17h47a5fd9714c21a6fE
Ltmp657:
LBB15_6:
	ud2
LBB15_43:
Ltmp658:
	jmp	LBB15_44
LBB15_42:
Ltmp687:
	jmp	LBB15_44
LBB15_37:
Ltmp663:
LBB15_44:
	movq	%rax, %r14
	leaq	-128(%rbp), %rdi
	callq	__ZN4core3ptr13drop_in_place17h0737b5809d4cb690E
LBB15_41:
	movq	%r14, %rdi
	callq	__Unwind_Resume
	ud2
Lfunc_end15:
	.cfi_endproc
	.section	__TEXT,__gcc_except_tab
	.p2align	2
GCC_except_table15:
Lexception15:
	.byte	255
	.byte	155
	.uleb128 Lttbase15-Lttbaseref15
Lttbaseref15:
	.byte	1
	.uleb128 Lcst_end15-Lcst_begin15
Lcst_begin15:
	.uleb128 Ltmp645-Lfunc_begin15
	.uleb128 Ltmp650-Ltmp645
	.uleb128 Ltmp687-Lfunc_begin15
	.byte	0
	.uleb128 Ltmp651-Lfunc_begin15
	.uleb128 Ltmp652-Ltmp651
	.uleb128 Ltmp653-Lfunc_begin15
	.byte	3
	.uleb128 Ltmp661-Lfunc_begin15
	.uleb128 Ltmp660-Ltmp661
	.uleb128 Ltmp663-Lfunc_begin15
	.byte	0
	.uleb128 Ltmp664-Lfunc_begin15
	.uleb128 Ltmp665-Ltmp664
	.uleb128 Ltmp673-Lfunc_begin15
	.byte	0
	.uleb128 Ltmp666-Lfunc_begin15
	.uleb128 Ltmp667-Ltmp666
	.uleb128 Ltmp668-Lfunc_begin15
	.byte	0
	.uleb128 Ltmp677-Lfunc_begin15
	.uleb128 Ltmp678-Ltmp677
	.uleb128 Ltmp679-Lfunc_begin15
	.byte	0
	.uleb128 Ltmp680-Lfunc_begin15
	.uleb128 Ltmp681-Ltmp680
	.uleb128 Ltmp684-Lfunc_begin15
	.byte	0
	.uleb128 Ltmp685-Lfunc_begin15
	.uleb128 Ltmp686-Ltmp685
	.uleb128 Ltmp687-Lfunc_begin15
	.byte	0
	.uleb128 Ltmp682-Lfunc_begin15
	.uleb128 Ltmp683-Ltmp682
	.uleb128 Ltmp684-Lfunc_begin15
	.byte	0
	.uleb128 Ltmp647-Lfunc_begin15
	.uleb128 Ltmp648-Ltmp647
	.uleb128 Ltmp687-Lfunc_begin15
	.byte	0
	.uleb128 Ltmp671-Lfunc_begin15
	.uleb128 Ltmp670-Ltmp671
	.uleb128 Ltmp673-Lfunc_begin15
	.byte	0
	.uleb128 Ltmp674-Lfunc_begin15
	.uleb128 Ltmp675-Ltmp674
	.uleb128 Ltmp676-Lfunc_begin15
	.byte	0
	.uleb128 Ltmp654-Lfunc_begin15
	.uleb128 Ltmp655-Ltmp654
	.uleb128 Ltmp687-Lfunc_begin15
	.byte	0
	.uleb128 Ltmp656-Lfunc_begin15
	.uleb128 Ltmp657-Ltmp656
	.uleb128 Ltmp658-Lfunc_begin15
	.byte	0
	.uleb128 Ltmp657-Lfunc_begin15
	.uleb128 Lfunc_end15-Ltmp657
	.byte	0
	.byte	0
Lcst_end15:
	.byte	0
	.byte	0
	.byte	1
	.byte	125
	.p2align	2
	.long	0
Lttbase15:
	.p2align	2

	.section	__TEXT,__text,regular,pure_instructions
	.p2align	4, 0x90
__ZN10rayon_core4join12join_context28_$u7b$$u7b$closure$u7d$$u7d$17had8dae8f7f86742fE:
Lfunc_begin16:
	.cfi_startproc
	.cfi_personality 155, _rust_eh_personality
	.cfi_lsda 16, Lexception16
	pushq	%rbp
	.cfi_def_cfa_offset 16
	.cfi_offset %rbp, -16
	movq	%rsp, %rbp
	.cfi_def_cfa_register %rbp
	pushq	%r15
	pushq	%r14
	pushq	%r13
	pushq	%r12
	pushq	%rbx
	andq	$-64, %rsp
	subq	$896, %rsp
	.cfi_offset %rbx, -56
	.cfi_offset %r12, -48
	.cfi_offset %r13, -40
	.cfi_offset %r14, -32
	.cfi_offset %r15, -24
	movl	%ecx, 60(%rsp)
	movq	%rdx, %r12
	movq	%rsi, %rbx
	movq	%rdi, %r15
	movb	$0, 512(%rsp)
	movq	(%rsi), %rax
	movq	8(%rsi), %rcx
	movq	%rax, 448(%rsp)
	movq	%rcx, 456(%rsp)
	movq	16(%rsi), %rax
	movq	%rax, 464(%rsp)
	movq	24(%rsi), %rax
	movq	%rax, 472(%rsp)
	movq	32(%rsi), %rax
	movq	%rax, 480(%rsp)
	movq	40(%rsi), %rax
	movq	%rax, 488(%rsp)
	movq	48(%rsi), %rax
	movq	%rax, 496(%rsp)
	movq	56(%rsi), %rax
	movq	%rax, 504(%rsp)
	movq	$0, 320(%rsp)
	movq	256(%rdx), %rax
	movq	264(%rax), %r14
	movq	256(%rax), %rax
	movq	272(%rdx), %rsi
	movq	%r14, %rcx
	subq	%rax, %rcx
	cmpq	%rsi, %rcx
	jl	LBB16_4
	addq	%rsi, %rsi
	jb	LBB16_7
	leaq	256(%r12), %rdi
Ltmp688:
	callq	__ZN15crossbeam_deque15Worker$LT$T$GT$6resize17h73667af9f54c6c19E
Ltmp689:
	movq	272(%r12), %rsi
LBB16_4:
	subq	$1, %rsi
	jb	LBB16_5
	movq	264(%r12), %rax
	andq	%r14, %rsi
	shlq	$4, %rsi
	leaq	320(%rsp), %r13
	movq	%r13, (%rax,%rsi)
	leaq	__ZN83_$LT$rayon_core..job..StackJob$LT$L$C$F$C$R$GT$$u20$as$u20$rayon_core..job..Job$GT$7execute17h83f4a8de93ca371dE(%rip), %rcx
	movq	%rcx, 8(%rax,%rsi)
	##MEMBARRIER
	movq	256(%r12), %rax
	incq	%r14
	movq	%r14, 264(%rax)
	movl	$408, %edi
	addq	304(%r12), %rdi
	movq	288(%r12), %rsi
Ltmp692:
	callq	__ZN10rayon_core5sleep5Sleep6tickle17h5038bd408706a5c1E
Ltmp693:
	movq	88(%rbx), %rax
	movq	%rax, 88(%rsp)
	movq	80(%rbx), %rax
	movq	%rax, 80(%rsp)
	movq	112(%rbx), %rax
	movq	%rax, 112(%rsp)
	movq	104(%rbx), %rax
	movq	%rax, 104(%rsp)
	movq	96(%rbx), %rax
	movq	%rax, 96(%rsp)
	movq	64(%rbx), %rax
	movq	72(%rbx), %rcx
	movq	%rcx, 72(%rsp)
	movq	%rax, 64(%rsp)
	movl	60(%rsp), %r14d
	movb	%r14b, 120(%rsp)
	movaps	80(%rsp), %xmm0
	movdqa	112(%rsp), %xmm1
	movdqa	96(%rsp), %xmm2
	movdqa	64(%rsp), %xmm3
	movq	%xmm3, %rax
	pshufd	$78, %xmm3, %xmm3
	movq	%xmm3, %rdi
	pshufd	$78, %xmm2, %xmm3
	pextrw	$4, %xmm1, %ecx
	xorl	%edx, %edx
	testb	%cl, %cl
	setne	%dl
	movq	(%rax), %rsi
	movq	(%rdi), %rcx
	movq	8(%rdi), %r8
	movq	%xmm2, 192(%rsp)
	movups	%xmm0, 176(%rsp)
Ltmp694:
	movq	%xmm1, 8(%rsp)
	movq	%xmm3, (%rsp)
	leaq	576(%rsp), %rdi
	leaq	176(%rsp), %r9
	callq	__ZN5rayon4iter8plumbing24bridge_producer_consumer6helper17h15289454ab048733E
Ltmp695:
	movaps	576(%rsp), %xmm0
	movaps	%xmm0, 256(%rsp)
	movaps	592(%rsp), %xmm0
	movaps	%xmm0, 240(%rsp)
	movaps	608(%rsp), %xmm0
	movaps	%xmm0, 224(%rsp)
	movaps	624(%rsp), %xmm0
	movaps	%xmm0, 272(%rsp)
	leaq	512(%rsp), %rbx
	jmp	LBB16_11
	.p2align	4, 0x90
LBB16_23:
Ltmp704:
	movq	%r12, %rdi
	movq	%rax, %rsi
	callq	__ZN10rayon_core8registry12WorkerThread7execute17hc504892f49177628E
Ltmp705:
LBB16_11:
	movzbl	512(%rsp), %eax
	testb	%al, %al
	jne	LBB16_16
Ltmp702:
	movq	%r12, %rdi
	callq	__ZN10rayon_core8registry12WorkerThread14take_local_job17h4a60902ba985e6d4E
Ltmp703:
	testq	%rdx, %rdx
	je	LBB16_14
	cmpq	%r13, %rax
	jne	LBB16_23
	leaq	__ZN83_$LT$rayon_core..job..StackJob$LT$L$C$F$C$R$GT$$u20$as$u20$rayon_core..job..Job$GT$7execute17h83f4a8de93ca371dE(%rip), %rcx
	cmpq	%rcx, %rdx
	jne	LBB16_23
	leaq	576(%rsp), %rdi
	leaq	320(%rsp), %rsi
	movl	$256, %edx
	callq	_memcpy
	movq	704(%rsp), %rsi
	movq	712(%rsp), %rcx
	movq	720(%rsp), %rax
	movq	728(%rsp), %rdx
	movq	%rdx, 64(%rsp)
	movq	736(%rsp), %rdx
	movq	%rdx, 72(%rsp)
	movq	744(%rsp), %rdx
	movq	%rdx, 80(%rsp)
	testq	%rsi, %rsi
	je	LBB16_25
	movq	752(%rsp), %r9
	movq	760(%rsp), %r10
	movq	80(%rsp), %rbx
	movq	%rbx, 312(%rsp)
	movq	64(%rsp), %rdx
	movq	72(%rsp), %rdi
	movq	%rdi, 304(%rsp)
	movq	%rdx, 296(%rsp)
	movq	%rbx, 216(%rsp)
	movq	%rdi, 208(%rsp)
	movq	%rdx, 200(%rsp)
	movq	(%rsi), %rsi
	subq	(%rcx), %rsi
	jb	LBB16_34
	movq	(%rax), %rcx
	movq	8(%rax), %r8
	movq	216(%rsp), %rax
	movq	%rax, 192(%rsp)
	movq	200(%rsp), %rax
	movq	208(%rsp), %rdx
	movq	%rdx, 184(%rsp)
	movq	%rax, 176(%rsp)
Ltmp707:
	movq	%r10, 8(%rsp)
	movq	%r9, (%rsp)
	movzbl	%r14b, %edx
	leaq	64(%rsp), %rdi
	leaq	176(%rsp), %r9
	callq	__ZN5rayon4iter8plumbing24bridge_producer_consumer6helper17h15289454ab048733E
Ltmp708:
	cmpl	$2, 576(%rsp)
	jb	LBB16_32
	movq	584(%rsp), %r12
	movq	592(%rsp), %rbx
Ltmp709:
	movq	%r12, %rdi
	callq	*(%rbx)
Ltmp710:
	movq	8(%rbx), %rsi
	testq	%rsi, %rsi
	je	LBB16_32
	movq	16(%rbx), %rdx
	movq	%r12, %rdi
	callq	___rust_dealloc
LBB16_32:
	movaps	64(%rsp), %xmm0
	movaps	80(%rsp), %xmm1
	movaps	96(%rsp), %xmm2
	movaps	112(%rsp), %xmm3
	movaps	224(%rsp), %xmm4
	movaps	%xmm4, 32(%r15)
	movaps	240(%rsp), %xmm4
	movaps	%xmm4, 16(%r15)
	movaps	256(%rsp), %xmm4
	movaps	%xmm4, (%r15)
	movaps	272(%rsp), %xmm4
	movaps	%xmm4, 48(%r15)
	movaps	%xmm3, 112(%r15)
	movaps	%xmm2, 96(%r15)
	movaps	%xmm1, 80(%r15)
	movaps	%xmm0, 64(%r15)
	jmp	LBB16_33
LBB16_14:
	movb	512(%rsp), %al
	testb	%al, %al
	jne	LBB16_16
Ltmp720:
	movq	%r12, %rdi
	movq	%rbx, %rsi
	callq	__ZN10rayon_core8registry12WorkerThread15wait_until_cold17h85a044fa98ca4aa2E
Ltmp721:
LBB16_16:
	movq	320(%rsp), %rax
	cmpq	$1, %rax
	jne	LBB16_17
	movaps	384(%rsp), %xmm0
	movaps	400(%rsp), %xmm1
	movaps	416(%rsp), %xmm2
	movaps	432(%rsp), %xmm3
	movaps	256(%rsp), %xmm4
	movaps	%xmm4, (%r15)
	movaps	240(%rsp), %xmm4
	movaps	%xmm4, 16(%r15)
	movaps	224(%rsp), %xmm4
	movaps	%xmm4, 32(%r15)
	movaps	272(%rsp), %xmm4
	movaps	%xmm4, 48(%r15)
	movaps	%xmm2, 96(%r15)
	movaps	%xmm3, 112(%r15)
	movaps	%xmm0, 64(%r15)
	movaps	%xmm1, 80(%r15)
LBB16_33:
	leaq	-40(%rbp), %rsp
	popq	%rbx
	popq	%r12
	popq	%r13
	popq	%r14
	popq	%r15
	popq	%rbp
	retq
LBB16_17:
	testq	%rax, %rax
	je	LBB16_36
	movq	328(%rsp), %rdi
	movq	336(%rsp), %rsi
Ltmp723:
	callq	__ZN10rayon_core6unwind16resume_unwinding17h5fa1757f689722ceE
Ltmp724:
	jmp	LBB16_6
LBB16_5:
Ltmp728:
	leaq	_str.2(%rip), %rdi
	leaq	l___unnamed_1(%rip), %rdx
	movl	$33, %esi
	callq	__ZN4core9panicking5panic17h383a6b80ea7021aaE
Ltmp729:
	jmp	LBB16_6
LBB16_36:
Ltmp725:
	leaq	l___unnamed_2(%rip), %rdi
	leaq	l___unnamed_3(%rip), %rdx
	movl	$40, %esi
	callq	__ZN3std9panicking11begin_panic17hd62f0347f881f53aE
Ltmp726:
	jmp	LBB16_6
LBB16_7:
Ltmp690:
	leaq	_str.1(%rip), %rdi
	leaq	l___unnamed_4(%rip), %rdx
	movl	$33, %esi
	callq	__ZN4core9panicking5panic17h383a6b80ea7021aaE
Ltmp691:
	jmp	LBB16_6
LBB16_25:
Ltmp714:
	leaq	l___unnamed_5(%rip), %rdi
	leaq	l___unnamed_6(%rip), %rdx
	movl	$43, %esi
	callq	__ZN4core9panicking5panic17h383a6b80ea7021aaE
Ltmp715:
	jmp	LBB16_6
LBB16_34:
Ltmp712:
	leaq	_str.2(%rip), %rdi
	leaq	l___unnamed_7(%rip), %rdx
	movl	$33, %esi
	callq	__ZN4core9panicking5panic17h383a6b80ea7021aaE
Ltmp713:
	jmp	LBB16_6
LBB16_47:
Ltmp727:
	jmp	LBB16_42
LBB16_40:
Ltmp722:
	jmp	LBB16_46
LBB16_38:
Ltmp711:
	movq	%rax, %r14
	movq	%r12, %rdi
	movq	%rbx, %rsi
	callq	__ZN5alloc5alloc8box_free17h9438c5f1772b94e3E
	jmp	LBB16_43
LBB16_35:
Ltmp716:
	movq	%rax, %r14
Ltmp717:
	leaq	576(%rsp), %rdi
	callq	__ZN4core3ptr13drop_in_place17h0b7def0b7e32d541E
Ltmp718:
	jmp	LBB16_43
LBB16_41:
Ltmp719:
LBB16_42:
	movq	%rax, %r14
	jmp	LBB16_43
LBB16_19:
Ltmp696:
Ltmp697:
	movq	%rax, %rdi
	callq	__ZN3std9panicking3try7cleanup17hd630ddf77975344aE
Ltmp698:
	movq	%rdx, %rcx
	leaq	512(%rsp), %rsi
Ltmp699:
	movq	%r12, %rdi
	movq	%rax, %rdx
	callq	__ZN10rayon_core4join23join_recover_from_panic17h47a5fd9714c21a6fE
Ltmp700:
LBB16_6:
	ud2
LBB16_45:
Ltmp701:
	jmp	LBB16_46
LBB16_44:
Ltmp730:
	jmp	LBB16_46
LBB16_39:
Ltmp706:
LBB16_46:
	movq	%rax, %r14
	leaq	320(%rsp), %rdi
	callq	__ZN4core3ptr13drop_in_place17h0b7def0b7e32d541E
LBB16_43:
	movq	%r14, %rdi
	callq	__Unwind_Resume
	ud2
Lfunc_end16:
	.cfi_endproc
	.section	__TEXT,__gcc_except_tab
	.p2align	2
GCC_except_table16:
Lexception16:
	.byte	255
	.byte	155
	.uleb128 Lttbase16-Lttbaseref16
Lttbaseref16:
	.byte	1
	.uleb128 Lcst_end16-Lcst_begin16
Lcst_begin16:
	.uleb128 Ltmp688-Lfunc_begin16
	.uleb128 Ltmp693-Ltmp688
	.uleb128 Ltmp730-Lfunc_begin16
	.byte	0
	.uleb128 Ltmp694-Lfunc_begin16
	.uleb128 Ltmp695-Ltmp694
	.uleb128 Ltmp696-Lfunc_begin16
	.byte	3
	.uleb128 Ltmp704-Lfunc_begin16
	.uleb128 Ltmp703-Ltmp704
	.uleb128 Ltmp706-Lfunc_begin16
	.byte	0
	.uleb128 Ltmp703-Lfunc_begin16
	.uleb128 Ltmp707-Ltmp703
	.byte	0
	.byte	0
	.uleb128 Ltmp707-Lfunc_begin16
	.uleb128 Ltmp708-Ltmp707
	.uleb128 Ltmp716-Lfunc_begin16
	.byte	0
	.uleb128 Ltmp709-Lfunc_begin16
	.uleb128 Ltmp710-Ltmp709
	.uleb128 Ltmp711-Lfunc_begin16
	.byte	0
	.uleb128 Ltmp720-Lfunc_begin16
	.uleb128 Ltmp721-Ltmp720
	.uleb128 Ltmp722-Lfunc_begin16
	.byte	0
	.uleb128 Ltmp723-Lfunc_begin16
	.uleb128 Ltmp724-Ltmp723
	.uleb128 Ltmp727-Lfunc_begin16
	.byte	0
	.uleb128 Ltmp728-Lfunc_begin16
	.uleb128 Ltmp729-Ltmp728
	.uleb128 Ltmp730-Lfunc_begin16
	.byte	0
	.uleb128 Ltmp725-Lfunc_begin16
	.uleb128 Ltmp726-Ltmp725
	.uleb128 Ltmp727-Lfunc_begin16
	.byte	0
	.uleb128 Ltmp690-Lfunc_begin16
	.uleb128 Ltmp691-Ltmp690
	.uleb128 Ltmp730-Lfunc_begin16
	.byte	0
	.uleb128 Ltmp714-Lfunc_begin16
	.uleb128 Ltmp713-Ltmp714
	.uleb128 Ltmp716-Lfunc_begin16
	.byte	0
	.uleb128 Ltmp717-Lfunc_begin16
	.uleb128 Ltmp718-Ltmp717
	.uleb128 Ltmp719-Lfunc_begin16
	.byte	0
	.uleb128 Ltmp697-Lfunc_begin16
	.uleb128 Ltmp698-Ltmp697
	.uleb128 Ltmp730-Lfunc_begin16
	.byte	0
	.uleb128 Ltmp699-Lfunc_begin16
	.uleb128 Ltmp700-Ltmp699
	.uleb128 Ltmp701-Lfunc_begin16
	.byte	0
	.uleb128 Ltmp700-Lfunc_begin16
	.uleb128 Lfunc_end16-Ltmp700
	.byte	0
	.byte	0
Lcst_end16:
	.byte	0
	.byte	0
	.byte	1
	.byte	125
	.p2align	2
	.long	0
Lttbase16:
	.p2align	2

	.section	__TEXT,__text,regular,pure_instructions
	.p2align	4, 0x90
__ZN10rayon_core4join12join_context28_$u7b$$u7b$closure$u7d$$u7d$17hbbd7e333a00c5039E:
Lfunc_begin17:
	.cfi_startproc
	.cfi_personality 155, _rust_eh_personality
	.cfi_lsda 16, Lexception17
	pushq	%rbp
	.cfi_def_cfa_offset 16
	.cfi_offset %rbp, -16
	movq	%rsp, %rbp
	.cfi_def_cfa_register %rbp
	pushq	%r15
	pushq	%r14
	pushq	%r13
	pushq	%r12
	pushq	%rbx
	andq	$-64, %rsp
	subq	$1024, %rsp
	.cfi_offset %rbx, -56
	.cfi_offset %r12, -48
	.cfi_offset %r13, -40
	.cfi_offset %r14, -32
	.cfi_offset %r15, -24
	movl	%ecx, %r8d
	movq	%rdx, %rbx
	movq	%rsi, %r12
	movq	%rdi, 184(%rsp)
	movb	$0, 928(%rsp)
	leaq	832(%rsp), %rdi
	movl	$12, %ecx
	rep;movsq (%rsi), %es:(%rdi)
	movq	$0, 704(%rsp)
	movq	256(%rdx), %rax
	movq	264(%rax), %r14
	movq	256(%rax), %rax
	movq	272(%rdx), %rsi
	movq	%r14, %rcx
	subq	%rax, %rcx
	cmpq	%rsi, %rcx
	movl	%r8d, 192(%rsp)
	jl	LBB17_4
	addq	%rsi, %rsi
	jb	LBB17_7
	leaq	256(%rbx), %rdi
Ltmp731:
	callq	__ZN15crossbeam_deque15Worker$LT$T$GT$6resize17h73667af9f54c6c19E
Ltmp732:
	movq	272(%rbx), %rsi
LBB17_4:
	subq	$1, %rsi
	jb	LBB17_5
	movq	264(%rbx), %rax
	andq	%r14, %rsi
	shlq	$4, %rsi
	leaq	704(%rsp), %r13
	movq	%r13, (%rax,%rsi)
	leaq	__ZN83_$LT$rayon_core..job..StackJob$LT$L$C$F$C$R$GT$$u20$as$u20$rayon_core..job..Job$GT$7execute17h8df10a2327615d7dE(%rip), %r15
	movq	%r15, 8(%rax,%rsi)
	##MEMBARRIER
	movq	256(%rbx), %rax
	incq	%r14
	movq	%r14, 264(%rax)
	movl	$408, %edi
	addq	304(%rbx), %rdi
	movq	288(%rbx), %rsi
Ltmp735:
	callq	__ZN10rayon_core5sleep5Sleep6tickle17h5038bd408706a5c1E
Ltmp736:
	movdqu	96(%r12), %xmm0
	movups	112(%r12), %xmm1
	movups	128(%r12), %xmm2
	movups	144(%r12), %xmm3
	movq	176(%r12), %r9
	movq	160(%r12), %rdx
	movq	168(%r12), %rdi
	movq	%rdi, 216(%rsp)
	movq	%rdx, 208(%rsp)
	movq	%xmm0, %rcx
	movq	(%rcx), %rsi
	pshufd	$78, %xmm0, %xmm0
	movq	%xmm0, %rax
	movq	(%rax), %rcx
	movq	8(%rax), %r8
	movups	%xmm3, 416(%rsp)
	movups	%xmm2, 400(%rsp)
	movups	%xmm1, 384(%rsp)
	movq	%rdx, 432(%rsp)
	movq	%rdi, 440(%rsp)
Ltmp737:
	movq	%r9, (%rsp)
	movzbl	192(%rsp), %r12d
	leaq	64(%rsp), %rdi
	leaq	384(%rsp), %r9
	movl	%r12d, %edx
	callq	__ZN5rayon4iter8plumbing24bridge_producer_consumer6helper17h30f3a4312a7bef87E
Ltmp738:
	movaps	64(%rsp), %xmm0
	movaps	%xmm0, 304(%rsp)
	movaps	80(%rsp), %xmm0
	movaps	%xmm0, 288(%rsp)
	movaps	96(%rsp), %xmm0
	movaps	%xmm0, 272(%rsp)
	movdqa	112(%rsp), %xmm0
	movdqa	%xmm0, 192(%rsp)
	leaq	928(%rsp), %r14
	jmp	LBB17_11
	.p2align	4, 0x90
LBB17_23:
Ltmp747:
	movq	%rbx, %rdi
	movq	%rax, %rsi
	callq	__ZN10rayon_core8registry12WorkerThread7execute17hc504892f49177628E
Ltmp748:
LBB17_11:
	movzbl	928(%rsp), %eax
	testb	%al, %al
	jne	LBB17_16
Ltmp745:
	movq	%rbx, %rdi
	callq	__ZN10rayon_core8registry12WorkerThread14take_local_job17h4a60902ba985e6d4E
Ltmp746:
	testq	%rdx, %rdx
	je	LBB17_14
	cmpq	%r13, %rax
	jne	LBB17_23
	cmpq	%r15, %rdx
	jne	LBB17_23
	leaq	384(%rsp), %rdi
	leaq	704(%rsp), %rsi
	movl	$256, %edx
	callq	_memcpy
	movq	512(%rsp), %r11
	movq	520(%rsp), %r8
	movq	528(%rsp), %r10
	movq	536(%rsp), %rdx
	movq	%rdx, 64(%rsp)
	movq	544(%rsp), %rdx
	movq	%rdx, 72(%rsp)
	movq	552(%rsp), %rdx
	movq	%rdx, 80(%rsp)
	movq	560(%rsp), %rdx
	movq	%rdx, 88(%rsp)
	movq	568(%rsp), %rdx
	movq	%rdx, 96(%rsp)
	movq	576(%rsp), %rdx
	movq	%rdx, 104(%rsp)
	movq	584(%rsp), %rdx
	movq	%rdx, 112(%rsp)
	movq	592(%rsp), %rdx
	movq	%rdx, 120(%rsp)
	testq	%r11, %r11
	je	LBB17_25
	movq	600(%rsp), %r9
	movq	120(%rsp), %rdi
	movq	%rdi, 376(%rsp)
	movq	112(%rsp), %r14
	movq	%r14, 368(%rsp)
	movq	104(%rsp), %rbx
	movq	%rbx, 360(%rsp)
	movq	96(%rsp), %rdx
	movq	%rdx, 352(%rsp)
	movq	88(%rsp), %rcx
	movq	%rcx, 344(%rsp)
	movq	80(%rsp), %rax
	movq	%rax, 336(%rsp)
	movq	64(%rsp), %rsi
	movq	72(%rsp), %rdi
	movq	%rdi, 328(%rsp)
	movq	%rsi, 320(%rsp)
	movq	%r14, 256(%rsp)
	movq	%rbx, 248(%rsp)
	movq	%rdx, 240(%rsp)
	movq	%rcx, 232(%rsp)
	movq	%rax, 224(%rsp)
	movq	%rdi, 216(%rsp)
	movq	%rsi, 208(%rsp)
	movq	376(%rsp), %rax
	movq	%rax, 264(%rsp)
	movq	(%r11), %rsi
	subq	(%r8), %rsi
	jb	LBB17_27
	movq	(%r10), %rcx
	movq	8(%r10), %r8
	movq	264(%rsp), %rax
	movq	%rax, 120(%rsp)
	movq	256(%rsp), %rax
	movq	%rax, 112(%rsp)
	movq	248(%rsp), %rax
	movq	%rax, 104(%rsp)
	movq	240(%rsp), %rax
	movq	%rax, 96(%rsp)
	movq	232(%rsp), %rax
	movq	%rax, 88(%rsp)
	movq	224(%rsp), %rax
	movq	%rax, 80(%rsp)
	movq	208(%rsp), %rax
	movq	216(%rsp), %rdx
	movq	%rdx, 72(%rsp)
	movq	%rax, 64(%rsp)
Ltmp750:
	movq	%r9, (%rsp)
	leaq	640(%rsp), %rdi
	leaq	64(%rsp), %r9
	movl	%r12d, %edx
	callq	__ZN5rayon4iter8plumbing24bridge_producer_consumer6helper17h30f3a4312a7bef87E
Ltmp751:
	cmpl	$2, 384(%rsp)
	jb	LBB17_33
	movq	392(%rsp), %r15
	movq	400(%rsp), %rbx
Ltmp752:
	movq	%r15, %rdi
	callq	*(%rbx)
Ltmp753:
	movq	8(%rbx), %rsi
	testq	%rsi, %rsi
	je	LBB17_33
	movq	16(%rbx), %rdx
	movq	%r15, %rdi
	callq	___rust_dealloc
LBB17_33:
	movaps	640(%rsp), %xmm0
	movaps	656(%rsp), %xmm1
	movaps	672(%rsp), %xmm2
	movaps	688(%rsp), %xmm3
	movq	184(%rsp), %rax
	movaps	272(%rsp), %xmm4
	movaps	%xmm4, 32(%rax)
	movaps	288(%rsp), %xmm4
	movaps	%xmm4, 16(%rax)
	movaps	304(%rsp), %xmm4
	movaps	%xmm4, (%rax)
	movaps	192(%rsp), %xmm4
	movaps	%xmm4, 48(%rax)
	movaps	%xmm3, 112(%rax)
	movaps	%xmm2, 96(%rax)
	movaps	%xmm1, 80(%rax)
	movaps	%xmm0, 64(%rax)
	jmp	LBB17_34
LBB17_14:
	movb	928(%rsp), %al
	testb	%al, %al
	jne	LBB17_16
Ltmp763:
	movq	%rbx, %rdi
	movq	%r14, %rsi
	callq	__ZN10rayon_core8registry12WorkerThread15wait_until_cold17h85a044fa98ca4aa2E
Ltmp764:
LBB17_16:
	movq	704(%rsp), %rax
	cmpq	$1, %rax
	jne	LBB17_17
	movaps	768(%rsp), %xmm0
	movaps	784(%rsp), %xmm1
	movaps	800(%rsp), %xmm2
	movaps	816(%rsp), %xmm3
	movq	184(%rsp), %rax
	movaps	304(%rsp), %xmm4
	movaps	%xmm4, (%rax)
	movaps	288(%rsp), %xmm4
	movaps	%xmm4, 16(%rax)
	movaps	272(%rsp), %xmm4
	movaps	%xmm4, 32(%rax)
	movaps	192(%rsp), %xmm4
	movaps	%xmm4, 48(%rax)
	movaps	%xmm2, 96(%rax)
	movaps	%xmm3, 112(%rax)
	movaps	%xmm0, 64(%rax)
	movaps	%xmm1, 80(%rax)
LBB17_34:
	leaq	-40(%rbp), %rsp
	popq	%rbx
	popq	%r12
	popq	%r13
	popq	%r14
	popq	%r15
	popq	%rbp
	retq
LBB17_17:
	testq	%rax, %rax
	je	LBB17_36
	movq	712(%rsp), %rdi
	movq	720(%rsp), %rsi
Ltmp766:
	callq	__ZN10rayon_core6unwind16resume_unwinding17h5fa1757f689722ceE
Ltmp767:
	jmp	LBB17_6
LBB17_5:
Ltmp771:
	leaq	_str.2(%rip), %rdi
	leaq	l___unnamed_1(%rip), %rdx
	movl	$33, %esi
	callq	__ZN4core9panicking5panic17h383a6b80ea7021aaE
Ltmp772:
	jmp	LBB17_6
LBB17_36:
Ltmp768:
	leaq	l___unnamed_2(%rip), %rdi
	leaq	l___unnamed_3(%rip), %rdx
	movl	$40, %esi
	callq	__ZN3std9panicking11begin_panic17hd62f0347f881f53aE
Ltmp769:
	jmp	LBB17_6
LBB17_7:
Ltmp733:
	leaq	_str.1(%rip), %rdi
	leaq	l___unnamed_4(%rip), %rdx
	movl	$33, %esi
	callq	__ZN4core9panicking5panic17h383a6b80ea7021aaE
Ltmp734:
	jmp	LBB17_6
LBB17_25:
Ltmp757:
	leaq	l___unnamed_5(%rip), %rdi
	leaq	l___unnamed_6(%rip), %rdx
	movl	$43, %esi
	callq	__ZN4core9panicking5panic17h383a6b80ea7021aaE
Ltmp758:
	jmp	LBB17_6
LBB17_27:
Ltmp755:
	leaq	_str.2(%rip), %rdi
	leaq	l___unnamed_7(%rip), %rdx
	movl	$33, %esi
	callq	__ZN4core9panicking5panic17h383a6b80ea7021aaE
Ltmp756:
	jmp	LBB17_6
LBB17_47:
Ltmp770:
	jmp	LBB17_42
LBB17_40:
Ltmp765:
	jmp	LBB17_46
LBB17_38:
Ltmp754:
	movq	%rax, %r14
	movq	%r15, %rdi
	movq	%rbx, %rsi
	callq	__ZN5alloc5alloc8box_free17h9438c5f1772b94e3E
	jmp	LBB17_43
LBB17_35:
Ltmp759:
	movq	%rax, %r14
Ltmp760:
	leaq	384(%rsp), %rdi
	callq	__ZN4core3ptr13drop_in_place17h0b7def0b7e32d541E
Ltmp761:
	jmp	LBB17_43
LBB17_41:
Ltmp762:
LBB17_42:
	movq	%rax, %r14
	jmp	LBB17_43
LBB17_19:
Ltmp739:
Ltmp740:
	movq	%rax, %rdi
	callq	__ZN3std9panicking3try7cleanup17hd630ddf77975344aE
Ltmp741:
	movq	%rdx, %rcx
	leaq	928(%rsp), %rsi
Ltmp742:
	movq	%rbx, %rdi
	movq	%rax, %rdx
	callq	__ZN10rayon_core4join23join_recover_from_panic17h47a5fd9714c21a6fE
Ltmp743:
LBB17_6:
	ud2
LBB17_45:
Ltmp744:
	jmp	LBB17_46
LBB17_44:
Ltmp773:
	jmp	LBB17_46
LBB17_39:
Ltmp749:
LBB17_46:
	movq	%rax, %r14
	leaq	704(%rsp), %rdi
	callq	__ZN4core3ptr13drop_in_place17h0b7def0b7e32d541E
LBB17_43:
	movq	%r14, %rdi
	callq	__Unwind_Resume
	ud2
Lfunc_end17:
	.cfi_endproc
	.section	__TEXT,__gcc_except_tab
	.p2align	2
GCC_except_table17:
Lexception17:
	.byte	255
	.byte	155
	.uleb128 Lttbase17-Lttbaseref17
Lttbaseref17:
	.byte	1
	.uleb128 Lcst_end17-Lcst_begin17
Lcst_begin17:
	.uleb128 Ltmp731-Lfunc_begin17
	.uleb128 Ltmp736-Ltmp731
	.uleb128 Ltmp773-Lfunc_begin17
	.byte	0
	.uleb128 Ltmp737-Lfunc_begin17
	.uleb128 Ltmp738-Ltmp737
	.uleb128 Ltmp739-Lfunc_begin17
	.byte	3
	.uleb128 Ltmp747-Lfunc_begin17
	.uleb128 Ltmp746-Ltmp747
	.uleb128 Ltmp749-Lfunc_begin17
	.byte	0
	.uleb128 Ltmp746-Lfunc_begin17
	.uleb128 Ltmp750-Ltmp746
	.byte	0
	.byte	0
	.uleb128 Ltmp750-Lfunc_begin17
	.uleb128 Ltmp751-Ltmp750
	.uleb128 Ltmp759-Lfunc_begin17
	.byte	0
	.uleb128 Ltmp752-Lfunc_begin17
	.uleb128 Ltmp753-Ltmp752
	.uleb128 Ltmp754-Lfunc_begin17
	.byte	0
	.uleb128 Ltmp763-Lfunc_begin17
	.uleb128 Ltmp764-Ltmp763
	.uleb128 Ltmp765-Lfunc_begin17
	.byte	0
	.uleb128 Ltmp766-Lfunc_begin17
	.uleb128 Ltmp767-Ltmp766
	.uleb128 Ltmp770-Lfunc_begin17
	.byte	0
	.uleb128 Ltmp771-Lfunc_begin17
	.uleb128 Ltmp772-Ltmp771
	.uleb128 Ltmp773-Lfunc_begin17
	.byte	0
	.uleb128 Ltmp768-Lfunc_begin17
	.uleb128 Ltmp769-Ltmp768
	.uleb128 Ltmp770-Lfunc_begin17
	.byte	0
	.uleb128 Ltmp733-Lfunc_begin17
	.uleb128 Ltmp734-Ltmp733
	.uleb128 Ltmp773-Lfunc_begin17
	.byte	0
	.uleb128 Ltmp757-Lfunc_begin17
	.uleb128 Ltmp756-Ltmp757
	.uleb128 Ltmp759-Lfunc_begin17
	.byte	0
	.uleb128 Ltmp760-Lfunc_begin17
	.uleb128 Ltmp761-Ltmp760
	.uleb128 Ltmp762-Lfunc_begin17
	.byte	0
	.uleb128 Ltmp740-Lfunc_begin17
	.uleb128 Ltmp741-Ltmp740
	.uleb128 Ltmp773-Lfunc_begin17
	.byte	0
	.uleb128 Ltmp742-Lfunc_begin17
	.uleb128 Ltmp743-Ltmp742
	.uleb128 Ltmp744-Lfunc_begin17
	.byte	0
	.uleb128 Ltmp743-Lfunc_begin17
	.uleb128 Lfunc_end17-Ltmp743
	.byte	0
	.byte	0
Lcst_end17:
	.byte	0
	.byte	0
	.byte	1
	.byte	125
	.p2align	2
	.long	0
Lttbase17:
	.p2align	2

	.section	__TEXT,__text,regular,pure_instructions
	.p2align	4, 0x90
__ZN10rayon_core4join12join_context28_$u7b$$u7b$closure$u7d$$u7d$17hbe935f1d62da8e94E:
Lfunc_begin18:
	.cfi_startproc
	.cfi_personality 155, _rust_eh_personality
	.cfi_lsda 16, Lexception18
	pushq	%rbp
	.cfi_def_cfa_offset 16
	.cfi_offset %rbp, -16
	movq	%rsp, %rbp
	.cfi_def_cfa_register %rbp
	pushq	%r15
	pushq	%r14
	pushq	%r13
	pushq	%r12
	pushq	%rbx
	andq	$-64, %rsp
	subq	$1024, %rsp
	.cfi_offset %rbx, -56
	.cfi_offset %r12, -48
	.cfi_offset %r13, -40
	.cfi_offset %r14, -32
	.cfi_offset %r15, -24
	movl	%ecx, %r8d
	movq	%rdx, %rbx
	movq	%rsi, %r12
	movq	%rdi, 184(%rsp)
	movb	$0, 928(%rsp)
	leaq	832(%rsp), %rdi
	movl	$12, %ecx
	rep;movsq (%rsi), %es:(%rdi)
	movq	$0, 704(%rsp)
	movq	256(%rdx), %rax
	movq	264(%rax), %r14
	movq	256(%rax), %rax
	movq	272(%rdx), %rsi
	movq	%r14, %rcx
	subq	%rax, %rcx
	cmpq	%rsi, %rcx
	movl	%r8d, 192(%rsp)
	jl	LBB18_4
	addq	%rsi, %rsi
	jb	LBB18_7
	leaq	256(%rbx), %rdi
Ltmp774:
	callq	__ZN15crossbeam_deque15Worker$LT$T$GT$6resize17h73667af9f54c6c19E
Ltmp775:
	movq	272(%rbx), %rsi
LBB18_4:
	subq	$1, %rsi
	jb	LBB18_5
	movq	264(%rbx), %rax
	andq	%r14, %rsi
	shlq	$4, %rsi
	leaq	704(%rsp), %r13
	movq	%r13, (%rax,%rsi)
	leaq	__ZN83_$LT$rayon_core..job..StackJob$LT$L$C$F$C$R$GT$$u20$as$u20$rayon_core..job..Job$GT$7execute17hb7092c7d19213d06E(%rip), %r15
	movq	%r15, 8(%rax,%rsi)
	##MEMBARRIER
	movq	256(%rbx), %rax
	incq	%r14
	movq	%r14, 264(%rax)
	movl	$408, %edi
	addq	304(%rbx), %rdi
	movq	288(%rbx), %rsi
Ltmp778:
	callq	__ZN10rayon_core5sleep5Sleep6tickle17h5038bd408706a5c1E
Ltmp779:
	movdqu	96(%r12), %xmm0
	movups	112(%r12), %xmm1
	movups	128(%r12), %xmm2
	movups	144(%r12), %xmm3
	movq	176(%r12), %r9
	movq	%xmm0, %rcx
	pshufd	$78, %xmm0, %xmm0
	movq	%xmm0, %rdx
	movq	160(%r12), %rdi
	movq	168(%r12), %rax
	movq	%rax, 216(%rsp)
	movq	%rdi, 208(%rsp)
	movq	(%rcx), %rsi
	movq	(%rdx), %rcx
	movq	8(%rdx), %r8
	movups	%xmm3, 416(%rsp)
	movups	%xmm2, 400(%rsp)
	movups	%xmm1, 384(%rsp)
	movq	%rdi, 432(%rsp)
	movq	%rax, 440(%rsp)
Ltmp780:
	movq	%r9, (%rsp)
	movzbl	192(%rsp), %r12d
	leaq	64(%rsp), %rdi
	leaq	384(%rsp), %r9
	movl	%r12d, %edx
	callq	__ZN5rayon4iter8plumbing24bridge_producer_consumer6helper17hab86d24986d6f0e0E
Ltmp781:
	movaps	64(%rsp), %xmm0
	movaps	%xmm0, 304(%rsp)
	movaps	80(%rsp), %xmm0
	movaps	%xmm0, 288(%rsp)
	movaps	96(%rsp), %xmm0
	movaps	%xmm0, 272(%rsp)
	movdqa	112(%rsp), %xmm0
	movdqa	%xmm0, 192(%rsp)
	leaq	928(%rsp), %r14
	jmp	LBB18_11
	.p2align	4, 0x90
LBB18_23:
Ltmp790:
	movq	%rbx, %rdi
	movq	%rax, %rsi
	callq	__ZN10rayon_core8registry12WorkerThread7execute17hc504892f49177628E
Ltmp791:
LBB18_11:
	movzbl	928(%rsp), %eax
	testb	%al, %al
	jne	LBB18_16
Ltmp788:
	movq	%rbx, %rdi
	callq	__ZN10rayon_core8registry12WorkerThread14take_local_job17h4a60902ba985e6d4E
Ltmp789:
	testq	%rdx, %rdx
	je	LBB18_14
	cmpq	%r13, %rax
	jne	LBB18_23
	cmpq	%r15, %rdx
	jne	LBB18_23
	leaq	384(%rsp), %rdi
	leaq	704(%rsp), %rsi
	movl	$256, %edx
	callq	_memcpy
	movq	512(%rsp), %r11
	movq	520(%rsp), %r8
	movq	528(%rsp), %r10
	movq	536(%rsp), %rdx
	movq	%rdx, 64(%rsp)
	movq	544(%rsp), %rdx
	movq	%rdx, 72(%rsp)
	movq	552(%rsp), %rdx
	movq	%rdx, 80(%rsp)
	movq	560(%rsp), %rdx
	movq	%rdx, 88(%rsp)
	movq	568(%rsp), %rdx
	movq	%rdx, 96(%rsp)
	movq	576(%rsp), %rdx
	movq	%rdx, 104(%rsp)
	movq	584(%rsp), %rdx
	movq	%rdx, 112(%rsp)
	movq	592(%rsp), %rdx
	movq	%rdx, 120(%rsp)
	testq	%r11, %r11
	je	LBB18_25
	movq	600(%rsp), %r9
	movq	120(%rsp), %rdi
	movq	%rdi, 376(%rsp)
	movq	112(%rsp), %r14
	movq	%r14, 368(%rsp)
	movq	104(%rsp), %rbx
	movq	%rbx, 360(%rsp)
	movq	96(%rsp), %rdx
	movq	%rdx, 352(%rsp)
	movq	88(%rsp), %rcx
	movq	%rcx, 344(%rsp)
	movq	80(%rsp), %rax
	movq	%rax, 336(%rsp)
	movq	64(%rsp), %rsi
	movq	72(%rsp), %rdi
	movq	%rdi, 328(%rsp)
	movq	%rsi, 320(%rsp)
	movq	%r14, 256(%rsp)
	movq	%rbx, 248(%rsp)
	movq	%rdx, 240(%rsp)
	movq	%rcx, 232(%rsp)
	movq	%rax, 224(%rsp)
	movq	%rdi, 216(%rsp)
	movq	%rsi, 208(%rsp)
	movq	376(%rsp), %rax
	movq	%rax, 264(%rsp)
	movq	(%r11), %rsi
	subq	(%r8), %rsi
	jb	LBB18_27
	movq	(%r10), %rcx
	movq	8(%r10), %r8
	movq	264(%rsp), %rax
	movq	%rax, 120(%rsp)
	movq	256(%rsp), %rax
	movq	%rax, 112(%rsp)
	movq	248(%rsp), %rax
	movq	%rax, 104(%rsp)
	movq	240(%rsp), %rax
	movq	%rax, 96(%rsp)
	movq	232(%rsp), %rax
	movq	%rax, 88(%rsp)
	movq	224(%rsp), %rax
	movq	%rax, 80(%rsp)
	movq	208(%rsp), %rax
	movq	216(%rsp), %rdx
	movq	%rdx, 72(%rsp)
	movq	%rax, 64(%rsp)
Ltmp793:
	movq	%r9, (%rsp)
	leaq	640(%rsp), %rdi
	leaq	64(%rsp), %r9
	movl	%r12d, %edx
	callq	__ZN5rayon4iter8plumbing24bridge_producer_consumer6helper17hab86d24986d6f0e0E
Ltmp794:
	cmpl	$2, 384(%rsp)
	jb	LBB18_33
	movq	392(%rsp), %r15
	movq	400(%rsp), %rbx
Ltmp795:
	movq	%r15, %rdi
	callq	*(%rbx)
Ltmp796:
	movq	8(%rbx), %rsi
	testq	%rsi, %rsi
	je	LBB18_33
	movq	16(%rbx), %rdx
	movq	%r15, %rdi
	callq	___rust_dealloc
LBB18_33:
	movaps	640(%rsp), %xmm0
	movaps	656(%rsp), %xmm1
	movaps	672(%rsp), %xmm2
	movaps	688(%rsp), %xmm3
	movq	184(%rsp), %rax
	movaps	272(%rsp), %xmm4
	movaps	%xmm4, 32(%rax)
	movaps	288(%rsp), %xmm4
	movaps	%xmm4, 16(%rax)
	movaps	304(%rsp), %xmm4
	movaps	%xmm4, (%rax)
	movaps	192(%rsp), %xmm4
	movaps	%xmm4, 48(%rax)
	movaps	%xmm3, 112(%rax)
	movaps	%xmm2, 96(%rax)
	movaps	%xmm1, 80(%rax)
	movaps	%xmm0, 64(%rax)
	jmp	LBB18_34
LBB18_14:
	movb	928(%rsp), %al
	testb	%al, %al
	jne	LBB18_16
Ltmp806:
	movq	%rbx, %rdi
	movq	%r14, %rsi
	callq	__ZN10rayon_core8registry12WorkerThread15wait_until_cold17h85a044fa98ca4aa2E
Ltmp807:
LBB18_16:
	movq	704(%rsp), %rax
	cmpq	$1, %rax
	jne	LBB18_17
	movaps	768(%rsp), %xmm0
	movaps	784(%rsp), %xmm1
	movaps	800(%rsp), %xmm2
	movaps	816(%rsp), %xmm3
	movq	184(%rsp), %rax
	movaps	304(%rsp), %xmm4
	movaps	%xmm4, (%rax)
	movaps	288(%rsp), %xmm4
	movaps	%xmm4, 16(%rax)
	movaps	272(%rsp), %xmm4
	movaps	%xmm4, 32(%rax)
	movaps	192(%rsp), %xmm4
	movaps	%xmm4, 48(%rax)
	movaps	%xmm2, 96(%rax)
	movaps	%xmm3, 112(%rax)
	movaps	%xmm0, 64(%rax)
	movaps	%xmm1, 80(%rax)
LBB18_34:
	leaq	-40(%rbp), %rsp
	popq	%rbx
	popq	%r12
	popq	%r13
	popq	%r14
	popq	%r15
	popq	%rbp
	retq
LBB18_17:
	testq	%rax, %rax
	je	LBB18_36
	movq	712(%rsp), %rdi
	movq	720(%rsp), %rsi
Ltmp809:
	callq	__ZN10rayon_core6unwind16resume_unwinding17h5fa1757f689722ceE
Ltmp810:
	jmp	LBB18_6
LBB18_5:
Ltmp814:
	leaq	_str.2(%rip), %rdi
	leaq	l___unnamed_1(%rip), %rdx
	movl	$33, %esi
	callq	__ZN4core9panicking5panic17h383a6b80ea7021aaE
Ltmp815:
	jmp	LBB18_6
LBB18_36:
Ltmp811:
	leaq	l___unnamed_2(%rip), %rdi
	leaq	l___unnamed_3(%rip), %rdx
	movl	$40, %esi
	callq	__ZN3std9panicking11begin_panic17hd62f0347f881f53aE
Ltmp812:
	jmp	LBB18_6
LBB18_7:
Ltmp776:
	leaq	_str.1(%rip), %rdi
	leaq	l___unnamed_4(%rip), %rdx
	movl	$33, %esi
	callq	__ZN4core9panicking5panic17h383a6b80ea7021aaE
Ltmp777:
	jmp	LBB18_6
LBB18_25:
Ltmp800:
	leaq	l___unnamed_5(%rip), %rdi
	leaq	l___unnamed_6(%rip), %rdx
	movl	$43, %esi
	callq	__ZN4core9panicking5panic17h383a6b80ea7021aaE
Ltmp801:
	jmp	LBB18_6
LBB18_27:
Ltmp798:
	leaq	_str.2(%rip), %rdi
	leaq	l___unnamed_7(%rip), %rdx
	movl	$33, %esi
	callq	__ZN4core9panicking5panic17h383a6b80ea7021aaE
Ltmp799:
	jmp	LBB18_6
LBB18_47:
Ltmp813:
	jmp	LBB18_42
LBB18_40:
Ltmp808:
	jmp	LBB18_46
LBB18_38:
Ltmp797:
	movq	%rax, %r14
	movq	%r15, %rdi
	movq	%rbx, %rsi
	callq	__ZN5alloc5alloc8box_free17h9438c5f1772b94e3E
	jmp	LBB18_43
LBB18_35:
Ltmp802:
	movq	%rax, %r14
Ltmp803:
	leaq	384(%rsp), %rdi
	callq	__ZN4core3ptr13drop_in_place17h0b7def0b7e32d541E
Ltmp804:
	jmp	LBB18_43
LBB18_41:
Ltmp805:
LBB18_42:
	movq	%rax, %r14
	jmp	LBB18_43
LBB18_19:
Ltmp782:
Ltmp783:
	movq	%rax, %rdi
	callq	__ZN3std9panicking3try7cleanup17hd630ddf77975344aE
Ltmp784:
	movq	%rdx, %rcx
	leaq	928(%rsp), %rsi
Ltmp785:
	movq	%rbx, %rdi
	movq	%rax, %rdx
	callq	__ZN10rayon_core4join23join_recover_from_panic17h47a5fd9714c21a6fE
Ltmp786:
LBB18_6:
	ud2
LBB18_45:
Ltmp787:
	jmp	LBB18_46
LBB18_44:
Ltmp816:
	jmp	LBB18_46
LBB18_39:
Ltmp792:
LBB18_46:
	movq	%rax, %r14
	leaq	704(%rsp), %rdi
	callq	__ZN4core3ptr13drop_in_place17h0b7def0b7e32d541E
LBB18_43:
	movq	%r14, %rdi
	callq	__Unwind_Resume
	ud2
Lfunc_end18:
	.cfi_endproc
	.section	__TEXT,__gcc_except_tab
	.p2align	2
GCC_except_table18:
Lexception18:
	.byte	255
	.byte	155
	.uleb128 Lttbase18-Lttbaseref18
Lttbaseref18:
	.byte	1
	.uleb128 Lcst_end18-Lcst_begin18
Lcst_begin18:
	.uleb128 Ltmp774-Lfunc_begin18
	.uleb128 Ltmp779-Ltmp774
	.uleb128 Ltmp816-Lfunc_begin18
	.byte	0
	.uleb128 Ltmp780-Lfunc_begin18
	.uleb128 Ltmp781-Ltmp780
	.uleb128 Ltmp782-Lfunc_begin18
	.byte	3
	.uleb128 Ltmp790-Lfunc_begin18
	.uleb128 Ltmp789-Ltmp790
	.uleb128 Ltmp792-Lfunc_begin18
	.byte	0
	.uleb128 Ltmp789-Lfunc_begin18
	.uleb128 Ltmp793-Ltmp789
	.byte	0
	.byte	0
	.uleb128 Ltmp793-Lfunc_begin18
	.uleb128 Ltmp794-Ltmp793
	.uleb128 Ltmp802-Lfunc_begin18
	.byte	0
	.uleb128 Ltmp795-Lfunc_begin18
	.uleb128 Ltmp796-Ltmp795
	.uleb128 Ltmp797-Lfunc_begin18
	.byte	0
	.uleb128 Ltmp806-Lfunc_begin18
	.uleb128 Ltmp807-Ltmp806
	.uleb128 Ltmp808-Lfunc_begin18
	.byte	0
	.uleb128 Ltmp809-Lfunc_begin18
	.uleb128 Ltmp810-Ltmp809
	.uleb128 Ltmp813-Lfunc_begin18
	.byte	0
	.uleb128 Ltmp814-Lfunc_begin18
	.uleb128 Ltmp815-Ltmp814
	.uleb128 Ltmp816-Lfunc_begin18
	.byte	0
	.uleb128 Ltmp811-Lfunc_begin18
	.uleb128 Ltmp812-Ltmp811
	.uleb128 Ltmp813-Lfunc_begin18
	.byte	0
	.uleb128 Ltmp776-Lfunc_begin18
	.uleb128 Ltmp777-Ltmp776
	.uleb128 Ltmp816-Lfunc_begin18
	.byte	0
	.uleb128 Ltmp800-Lfunc_begin18
	.uleb128 Ltmp799-Ltmp800
	.uleb128 Ltmp802-Lfunc_begin18
	.byte	0
	.uleb128 Ltmp803-Lfunc_begin18
	.uleb128 Ltmp804-Ltmp803
	.uleb128 Ltmp805-Lfunc_begin18
	.byte	0
	.uleb128 Ltmp783-Lfunc_begin18
	.uleb128 Ltmp784-Ltmp783
	.uleb128 Ltmp816-Lfunc_begin18
	.byte	0
	.uleb128 Ltmp785-Lfunc_begin18
	.uleb128 Ltmp786-Ltmp785
	.uleb128 Ltmp787-Lfunc_begin18
	.byte	0
	.uleb128 Ltmp786-Lfunc_begin18
	.uleb128 Lfunc_end18-Ltmp786
	.byte	0
	.byte	0
Lcst_end18:
	.byte	0
	.byte	0
	.byte	1
	.byte	125
	.p2align	2
	.long	0
Lttbase18:
	.p2align	2

	.section	__TEXT,__text,regular,pure_instructions
	.p2align	4, 0x90
__ZN10rayon_core4join12join_context28_$u7b$$u7b$closure$u7d$$u7d$17hd5caaf6c25566b61E:
Lfunc_begin19:
	.cfi_startproc
	.cfi_personality 155, _rust_eh_personality
	.cfi_lsda 16, Lexception19
	pushq	%rbp
	.cfi_def_cfa_offset 16
	.cfi_offset %rbp, -16
	movq	%rsp, %rbp
	.cfi_def_cfa_register %rbp
	pushq	%r15
	pushq	%r14
	pushq	%r13
	pushq	%r12
	pushq	%rbx
	subq	$184, %rsp
	.cfi_offset %rbx, -56
	.cfi_offset %r12, -48
	.cfi_offset %r13, -40
	.cfi_offset %r14, -32
	.cfi_offset %r15, -24
	movq	%rsi, %rbx
	movq	%rdi, %r15
	movq	40(%rdi), %rax
	movq	%rax, -88(%rbp)
	movq	32(%rdi), %rax
	movq	%rax, -96(%rbp)
	movq	24(%rdi), %rax
	movq	%rax, -104(%rbp)
	movq	16(%rdi), %rax
	movq	%rax, -112(%rbp)
	movq	(%rdi), %rax
	movq	8(%rdi), %rcx
	movq	%rcx, -120(%rbp)
	movq	%rax, -128(%rbp)
	movb	$0, -56(%rbp)
	movq	$0, -80(%rbp)
	movq	256(%rsi), %rax
	movq	264(%rax), %r14
	movq	256(%rax), %rax
	movq	272(%rsi), %rsi
	movq	%r14, %rcx
	subq	%rax, %rcx
	cmpq	%rsi, %rcx
	movl	%edx, -44(%rbp)
	jl	LBB19_4
	addq	%rsi, %rsi
	jb	LBB19_7
	leaq	256(%rbx), %rdi
Ltmp817:
	callq	__ZN15crossbeam_deque15Worker$LT$T$GT$6resize17h73667af9f54c6c19E
Ltmp818:
	movq	272(%rbx), %rsi
LBB19_4:
	subq	$1, %rsi
	jb	LBB19_5
	movq	264(%rbx), %rax
	andq	%r14, %rsi
	shlq	$4, %rsi
	leaq	-128(%rbp), %r12
	movq	%r12, (%rax,%rsi)
	leaq	__ZN83_$LT$rayon_core..job..StackJob$LT$L$C$F$C$R$GT$$u20$as$u20$rayon_core..job..Job$GT$7execute17h758a07910925cd94E(%rip), %r13
	movq	%r13, 8(%rax,%rsi)
	##MEMBARRIER
	movq	256(%rbx), %rax
	incq	%r14
	movq	%r14, 264(%rax)
	movl	$408, %edi
	addq	304(%rbx), %rdi
	movq	288(%rbx), %rsi
Ltmp821:
	callq	__ZN10rayon_core5sleep5Sleep6tickle17h5038bd408706a5c1E
Ltmp822:
	movq	48(%r15), %rax
	movq	56(%r15), %rcx
	movq	64(%r15), %r8
	movq	72(%r15), %r9
	movq	80(%r15), %rsi
	movq	(%rax), %rdi
	movq	(%rcx), %rdx
	movq	8(%rcx), %rcx
Ltmp823:
	movq	%rsi, (%rsp)
	movzbl	-44(%rbp), %r14d
	movl	%r14d, %esi
	callq	__ZN5rayon4iter8plumbing24bridge_producer_consumer6helper17h42f037019df1de2aE
Ltmp824:
	leaq	-56(%rbp), %r15
	jmp	LBB19_11
	.p2align	4, 0x90
LBB19_23:
Ltmp833:
	movq	%rbx, %rdi
	movq	%rax, %rsi
	callq	__ZN10rayon_core8registry12WorkerThread7execute17hc504892f49177628E
Ltmp834:
LBB19_11:
	movzbl	-56(%rbp), %eax
	testb	%al, %al
	jne	LBB19_16
Ltmp831:
	movq	%rbx, %rdi
	callq	__ZN10rayon_core8registry12WorkerThread14take_local_job17h4a60902ba985e6d4E
Ltmp832:
	testq	%rdx, %rdx
	je	LBB19_14
	cmpq	%r12, %rax
	jne	LBB19_23
	cmpq	%r13, %rdx
	jne	LBB19_23
	leaq	-208(%rbp), %rdi
	leaq	-128(%rbp), %rsi
	movl	$10, %ecx
	rep;movsq (%rsi), %es:(%rdi)
	movq	-208(%rbp), %rax
	testq	%rax, %rax
	je	LBB19_25
	movq	-200(%rbp), %rcx
	movq	(%rax), %rdi
	subq	(%rcx), %rdi
	jb	LBB19_27
	movq	-192(%rbp), %rax
	movq	-184(%rbp), %r8
	movq	-176(%rbp), %r9
	movq	-168(%rbp), %rsi
	movq	(%rax), %rdx
	movq	8(%rax), %rcx
Ltmp836:
	movq	%rsi, (%rsp)
	movl	%r14d, %esi
	callq	__ZN5rayon4iter8plumbing24bridge_producer_consumer6helper17h42f037019df1de2aE
Ltmp837:
	cmpl	$2, -160(%rbp)
	jb	LBB19_33
	movq	-152(%rbp), %r15
	movq	-144(%rbp), %rbx
Ltmp838:
	movq	%r15, %rdi
	callq	*(%rbx)
Ltmp839:
	movq	8(%rbx), %rsi
	testq	%rsi, %rsi
	je	LBB19_33
	movq	16(%rbx), %rdx
	movq	%r15, %rdi
	callq	___rust_dealloc
	jmp	LBB19_33
LBB19_14:
	movb	-56(%rbp), %al
	testb	%al, %al
	jne	LBB19_16
Ltmp849:
	movq	%rbx, %rdi
	movq	%r15, %rsi
	callq	__ZN10rayon_core8registry12WorkerThread15wait_until_cold17h85a044fa98ca4aa2E
Ltmp850:
LBB19_16:
	movq	-80(%rbp), %rax
	cmpq	$1, %rax
	jne	LBB19_17
LBB19_33:
	addq	$184, %rsp
	popq	%rbx
	popq	%r12
	popq	%r13
	popq	%r14
	popq	%r15
	popq	%rbp
	retq
LBB19_17:
	testq	%rax, %rax
	je	LBB19_35
	movq	-72(%rbp), %rdi
	movq	-64(%rbp), %rsi
Ltmp852:
	callq	__ZN10rayon_core6unwind16resume_unwinding17h5fa1757f689722ceE
Ltmp853:
	jmp	LBB19_6
LBB19_5:
Ltmp857:
	leaq	_str.2(%rip), %rdi
	leaq	l___unnamed_1(%rip), %rdx
	movl	$33, %esi
	callq	__ZN4core9panicking5panic17h383a6b80ea7021aaE
Ltmp858:
	jmp	LBB19_6
LBB19_35:
Ltmp854:
	leaq	l___unnamed_2(%rip), %rdi
	leaq	l___unnamed_3(%rip), %rdx
	movl	$40, %esi
	callq	__ZN3std9panicking11begin_panic17hd62f0347f881f53aE
Ltmp855:
	jmp	LBB19_6
LBB19_7:
Ltmp819:
	leaq	_str.1(%rip), %rdi
	leaq	l___unnamed_4(%rip), %rdx
	movl	$33, %esi
	callq	__ZN4core9panicking5panic17h383a6b80ea7021aaE
Ltmp820:
	jmp	LBB19_6
LBB19_25:
Ltmp843:
	leaq	l___unnamed_5(%rip), %rdi
	leaq	l___unnamed_6(%rip), %rdx
	movl	$43, %esi
	callq	__ZN4core9panicking5panic17h383a6b80ea7021aaE
Ltmp844:
	jmp	LBB19_6
LBB19_27:
Ltmp841:
	leaq	_str.2(%rip), %rdi
	leaq	l___unnamed_7(%rip), %rdx
	movl	$33, %esi
	callq	__ZN4core9panicking5panic17h383a6b80ea7021aaE
Ltmp842:
	jmp	LBB19_6
LBB19_45:
Ltmp856:
	jmp	LBB19_40
LBB19_38:
Ltmp851:
	jmp	LBB19_44
LBB19_36:
Ltmp840:
	movq	%rax, %r14
	movq	%r15, %rdi
	movq	%rbx, %rsi
	callq	__ZN5alloc5alloc8box_free17h9438c5f1772b94e3E
	jmp	LBB19_41
LBB19_34:
Ltmp845:
	movq	%rax, %r14
	leaq	-160(%rbp), %rdi
Ltmp846:
	callq	__ZN4core3ptr13drop_in_place17hd53146ad14be3b16E
Ltmp847:
	jmp	LBB19_41
LBB19_39:
Ltmp848:
LBB19_40:
	movq	%rax, %r14
	jmp	LBB19_41
LBB19_19:
Ltmp825:
Ltmp826:
	movq	%rax, %rdi
	callq	__ZN3std9panicking3try7cleanup17hd630ddf77975344aE
Ltmp827:
	movq	%rdx, %rcx
	leaq	-56(%rbp), %rsi
Ltmp828:
	movq	%rbx, %rdi
	movq	%rax, %rdx
	callq	__ZN10rayon_core4join23join_recover_from_panic17h47a5fd9714c21a6fE
Ltmp829:
LBB19_6:
	ud2
LBB19_43:
Ltmp830:
	jmp	LBB19_44
LBB19_42:
Ltmp859:
	jmp	LBB19_44
LBB19_37:
Ltmp835:
LBB19_44:
	movq	%rax, %r14
	leaq	-128(%rbp), %rdi
	callq	__ZN4core3ptr13drop_in_place17h0737b5809d4cb690E
LBB19_41:
	movq	%r14, %rdi
	callq	__Unwind_Resume
	ud2
Lfunc_end19:
	.cfi_endproc
	.section	__TEXT,__gcc_except_tab
	.p2align	2
GCC_except_table19:
Lexception19:
	.byte	255
	.byte	155
	.uleb128 Lttbase19-Lttbaseref19
Lttbaseref19:
	.byte	1
	.uleb128 Lcst_end19-Lcst_begin19
Lcst_begin19:
	.uleb128 Ltmp817-Lfunc_begin19
	.uleb128 Ltmp822-Ltmp817
	.uleb128 Ltmp859-Lfunc_begin19
	.byte	0
	.uleb128 Ltmp823-Lfunc_begin19
	.uleb128 Ltmp824-Ltmp823
	.uleb128 Ltmp825-Lfunc_begin19
	.byte	3
	.uleb128 Ltmp833-Lfunc_begin19
	.uleb128 Ltmp832-Ltmp833
	.uleb128 Ltmp835-Lfunc_begin19
	.byte	0
	.uleb128 Ltmp836-Lfunc_begin19
	.uleb128 Ltmp837-Ltmp836
	.uleb128 Ltmp845-Lfunc_begin19
	.byte	0
	.uleb128 Ltmp838-Lfunc_begin19
	.uleb128 Ltmp839-Ltmp838
	.uleb128 Ltmp840-Lfunc_begin19
	.byte	0
	.uleb128 Ltmp849-Lfunc_begin19
	.uleb128 Ltmp850-Ltmp849
	.uleb128 Ltmp851-Lfunc_begin19
	.byte	0
	.uleb128 Ltmp852-Lfunc_begin19
	.uleb128 Ltmp853-Ltmp852
	.uleb128 Ltmp856-Lfunc_begin19
	.byte	0
	.uleb128 Ltmp857-Lfunc_begin19
	.uleb128 Ltmp858-Ltmp857
	.uleb128 Ltmp859-Lfunc_begin19
	.byte	0
	.uleb128 Ltmp854-Lfunc_begin19
	.uleb128 Ltmp855-Ltmp854
	.uleb128 Ltmp856-Lfunc_begin19
	.byte	0
	.uleb128 Ltmp819-Lfunc_begin19
	.uleb128 Ltmp820-Ltmp819
	.uleb128 Ltmp859-Lfunc_begin19
	.byte	0
	.uleb128 Ltmp843-Lfunc_begin19
	.uleb128 Ltmp842-Ltmp843
	.uleb128 Ltmp845-Lfunc_begin19
	.byte	0
	.uleb128 Ltmp846-Lfunc_begin19
	.uleb128 Ltmp847-Ltmp846
	.uleb128 Ltmp848-Lfunc_begin19
	.byte	0
	.uleb128 Ltmp826-Lfunc_begin19
	.uleb128 Ltmp827-Ltmp826
	.uleb128 Ltmp859-Lfunc_begin19
	.byte	0
	.uleb128 Ltmp828-Lfunc_begin19
	.uleb128 Ltmp829-Ltmp828
	.uleb128 Ltmp830-Lfunc_begin19
	.byte	0
	.uleb128 Ltmp829-Lfunc_begin19
	.uleb128 Lfunc_end19-Ltmp829
	.byte	0
	.byte	0
Lcst_end19:
	.byte	0
	.byte	0
	.byte	1
	.byte	125
	.p2align	2
	.long	0
Lttbase19:
	.p2align	2

	.section	__TEXT,__text,regular,pure_instructions
	.p2align	4, 0x90
__ZN10rayon_core4join12join_context28_$u7b$$u7b$closure$u7d$$u7d$17hda63c292dbc5ee61E:
Lfunc_begin20:
	.cfi_startproc
	.cfi_personality 155, _rust_eh_personality
	.cfi_lsda 16, Lexception20
	pushq	%rbp
	.cfi_def_cfa_offset 16
	.cfi_offset %rbp, -16
	movq	%rsp, %rbp
	.cfi_def_cfa_register %rbp
	pushq	%r15
	pushq	%r14
	pushq	%r13
	pushq	%r12
	pushq	%rbx
	subq	$184, %rsp
	.cfi_offset %rbx, -56
	.cfi_offset %r12, -48
	.cfi_offset %r13, -40
	.cfi_offset %r14, -32
	.cfi_offset %r15, -24
	movq	%rsi, %rbx
	movq	%rdi, %r15
	movq	40(%rdi), %rax
	movq	%rax, -88(%rbp)
	movq	32(%rdi), %rax
	movq	%rax, -96(%rbp)
	movq	24(%rdi), %rax
	movq	%rax, -104(%rbp)
	movq	16(%rdi), %rax
	movq	%rax, -112(%rbp)
	movq	(%rdi), %rax
	movq	8(%rdi), %rcx
	movq	%rcx, -120(%rbp)
	movq	%rax, -128(%rbp)
	movb	$0, -56(%rbp)
	movq	$0, -80(%rbp)
	movq	256(%rsi), %rax
	movq	264(%rax), %r14
	movq	256(%rax), %rax
	movq	272(%rsi), %rsi
	movq	%r14, %rcx
	subq	%rax, %rcx
	cmpq	%rsi, %rcx
	movl	%edx, -44(%rbp)
	jl	LBB20_4
	addq	%rsi, %rsi
	jb	LBB20_7
	leaq	256(%rbx), %rdi
Ltmp860:
	callq	__ZN15crossbeam_deque15Worker$LT$T$GT$6resize17h73667af9f54c6c19E
Ltmp861:
	movq	272(%rbx), %rsi
LBB20_4:
	subq	$1, %rsi
	jb	LBB20_5
	movq	264(%rbx), %rax
	andq	%r14, %rsi
	shlq	$4, %rsi
	leaq	-128(%rbp), %r12
	movq	%r12, (%rax,%rsi)
	leaq	__ZN83_$LT$rayon_core..job..StackJob$LT$L$C$F$C$R$GT$$u20$as$u20$rayon_core..job..Job$GT$7execute17h86e2530ce55de0d8E(%rip), %r13
	movq	%r13, 8(%rax,%rsi)
	##MEMBARRIER
	movq	256(%rbx), %rax
	incq	%r14
	movq	%r14, 264(%rax)
	movl	$408, %edi
	addq	304(%rbx), %rdi
	movq	288(%rbx), %rsi
Ltmp864:
	callq	__ZN10rayon_core5sleep5Sleep6tickle17h5038bd408706a5c1E
Ltmp865:
	movq	48(%r15), %rax
	movq	56(%r15), %rcx
	movq	64(%r15), %r8
	movq	72(%r15), %r9
	movq	80(%r15), %rsi
	movq	(%rax), %rdi
	movq	(%rcx), %rdx
	movq	8(%rcx), %rcx
Ltmp866:
	movq	%rsi, (%rsp)
	movzbl	-44(%rbp), %r14d
	movl	%r14d, %esi
	callq	__ZN5rayon4iter8plumbing24bridge_producer_consumer6helper17hbae3971ac8aa1b49E
Ltmp867:
	leaq	-56(%rbp), %r15
	jmp	LBB20_11
	.p2align	4, 0x90
LBB20_23:
Ltmp876:
	movq	%rbx, %rdi
	movq	%rax, %rsi
	callq	__ZN10rayon_core8registry12WorkerThread7execute17hc504892f49177628E
Ltmp877:
LBB20_11:
	movzbl	-56(%rbp), %eax
	testb	%al, %al
	jne	LBB20_16
Ltmp874:
	movq	%rbx, %rdi
	callq	__ZN10rayon_core8registry12WorkerThread14take_local_job17h4a60902ba985e6d4E
Ltmp875:
	testq	%rdx, %rdx
	je	LBB20_14
	cmpq	%r12, %rax
	jne	LBB20_23
	cmpq	%r13, %rdx
	jne	LBB20_23
	leaq	-208(%rbp), %rdi
	leaq	-128(%rbp), %rsi
	movl	$10, %ecx
	rep;movsq (%rsi), %es:(%rdi)
	movq	-208(%rbp), %rax
	testq	%rax, %rax
	je	LBB20_25
	movq	-200(%rbp), %rcx
	movq	(%rax), %rdi
	subq	(%rcx), %rdi
	jb	LBB20_33
	movq	-192(%rbp), %rax
	movq	-184(%rbp), %r8
	movq	-176(%rbp), %r9
	movq	-168(%rbp), %rsi
	movq	(%rax), %rdx
	movq	8(%rax), %rcx
Ltmp879:
	movq	%rsi, (%rsp)
	movl	%r14d, %esi
	callq	__ZN5rayon4iter8plumbing24bridge_producer_consumer6helper17hbae3971ac8aa1b49E
Ltmp880:
	cmpl	$2, -160(%rbp)
	jb	LBB20_32
	movq	-152(%rbp), %r15
	movq	-144(%rbp), %rbx
Ltmp881:
	movq	%r15, %rdi
	callq	*(%rbx)
Ltmp882:
	movq	8(%rbx), %rsi
	testq	%rsi, %rsi
	je	LBB20_32
	movq	16(%rbx), %rdx
	movq	%r15, %rdi
	callq	___rust_dealloc
	jmp	LBB20_32
LBB20_14:
	movb	-56(%rbp), %al
	testb	%al, %al
	jne	LBB20_16
Ltmp892:
	movq	%rbx, %rdi
	movq	%r15, %rsi
	callq	__ZN10rayon_core8registry12WorkerThread15wait_until_cold17h85a044fa98ca4aa2E
Ltmp893:
LBB20_16:
	movq	-80(%rbp), %rax
	cmpq	$1, %rax
	jne	LBB20_17
LBB20_32:
	addq	$184, %rsp
	popq	%rbx
	popq	%r12
	popq	%r13
	popq	%r14
	popq	%r15
	popq	%rbp
	retq
LBB20_17:
	testq	%rax, %rax
	je	LBB20_35
	movq	-72(%rbp), %rdi
	movq	-64(%rbp), %rsi
Ltmp895:
	callq	__ZN10rayon_core6unwind16resume_unwinding17h5fa1757f689722ceE
Ltmp896:
	jmp	LBB20_6
LBB20_5:
Ltmp900:
	leaq	_str.2(%rip), %rdi
	leaq	l___unnamed_1(%rip), %rdx
	movl	$33, %esi
	callq	__ZN4core9panicking5panic17h383a6b80ea7021aaE
Ltmp901:
	jmp	LBB20_6
LBB20_35:
Ltmp897:
	leaq	l___unnamed_2(%rip), %rdi
	leaq	l___unnamed_3(%rip), %rdx
	movl	$40, %esi
	callq	__ZN3std9panicking11begin_panic17hd62f0347f881f53aE
Ltmp898:
	jmp	LBB20_6
LBB20_7:
Ltmp862:
	leaq	_str.1(%rip), %rdi
	leaq	l___unnamed_4(%rip), %rdx
	movl	$33, %esi
	callq	__ZN4core9panicking5panic17h383a6b80ea7021aaE
Ltmp863:
	jmp	LBB20_6
LBB20_25:
Ltmp886:
	leaq	l___unnamed_5(%rip), %rdi
	leaq	l___unnamed_6(%rip), %rdx
	movl	$43, %esi
	callq	__ZN4core9panicking5panic17h383a6b80ea7021aaE
Ltmp887:
	jmp	LBB20_6
LBB20_33:
Ltmp884:
	leaq	_str.2(%rip), %rdi
	leaq	l___unnamed_7(%rip), %rdx
	movl	$33, %esi
	callq	__ZN4core9panicking5panic17h383a6b80ea7021aaE
Ltmp885:
	jmp	LBB20_6
LBB20_45:
Ltmp899:
	jmp	LBB20_40
LBB20_38:
Ltmp894:
	jmp	LBB20_44
LBB20_36:
Ltmp883:
	movq	%rax, %r14
	movq	%r15, %rdi
	movq	%rbx, %rsi
	callq	__ZN5alloc5alloc8box_free17h9438c5f1772b94e3E
	jmp	LBB20_41
LBB20_34:
Ltmp888:
	movq	%rax, %r14
	leaq	-160(%rbp), %rdi
Ltmp889:
	callq	__ZN4core3ptr13drop_in_place17hd53146ad14be3b16E
Ltmp890:
	jmp	LBB20_41
LBB20_39:
Ltmp891:
LBB20_40:
	movq	%rax, %r14
	jmp	LBB20_41
LBB20_19:
Ltmp868:
Ltmp869:
	movq	%rax, %rdi
	callq	__ZN3std9panicking3try7cleanup17hd630ddf77975344aE
Ltmp870:
	movq	%rdx, %rcx
	leaq	-56(%rbp), %rsi
Ltmp871:
	movq	%rbx, %rdi
	movq	%rax, %rdx
	callq	__ZN10rayon_core4join23join_recover_from_panic17h47a5fd9714c21a6fE
Ltmp872:
LBB20_6:
	ud2
LBB20_43:
Ltmp873:
	jmp	LBB20_44
LBB20_42:
Ltmp902:
	jmp	LBB20_44
LBB20_37:
Ltmp878:
LBB20_44:
	movq	%rax, %r14
	leaq	-128(%rbp), %rdi
	callq	__ZN4core3ptr13drop_in_place17h0737b5809d4cb690E
LBB20_41:
	movq	%r14, %rdi
	callq	__Unwind_Resume
	ud2
Lfunc_end20:
	.cfi_endproc
	.section	__TEXT,__gcc_except_tab
	.p2align	2
GCC_except_table20:
Lexception20:
	.byte	255
	.byte	155
	.uleb128 Lttbase20-Lttbaseref20
Lttbaseref20:
	.byte	1
	.uleb128 Lcst_end20-Lcst_begin20
Lcst_begin20:
	.uleb128 Ltmp860-Lfunc_begin20
	.uleb128 Ltmp865-Ltmp860
	.uleb128 Ltmp902-Lfunc_begin20
	.byte	0
	.uleb128 Ltmp866-Lfunc_begin20
	.uleb128 Ltmp867-Ltmp866
	.uleb128 Ltmp868-Lfunc_begin20
	.byte	3
	.uleb128 Ltmp876-Lfunc_begin20
	.uleb128 Ltmp875-Ltmp876
	.uleb128 Ltmp878-Lfunc_begin20
	.byte	0
	.uleb128 Ltmp879-Lfunc_begin20
	.uleb128 Ltmp880-Ltmp879
	.uleb128 Ltmp888-Lfunc_begin20
	.byte	0
	.uleb128 Ltmp881-Lfunc_begin20
	.uleb128 Ltmp882-Ltmp881
	.uleb128 Ltmp883-Lfunc_begin20
	.byte	0
	.uleb128 Ltmp892-Lfunc_begin20
	.uleb128 Ltmp893-Ltmp892
	.uleb128 Ltmp894-Lfunc_begin20
	.byte	0
	.uleb128 Ltmp895-Lfunc_begin20
	.uleb128 Ltmp896-Ltmp895
	.uleb128 Ltmp899-Lfunc_begin20
	.byte	0
	.uleb128 Ltmp900-Lfunc_begin20
	.uleb128 Ltmp901-Ltmp900
	.uleb128 Ltmp902-Lfunc_begin20
	.byte	0
	.uleb128 Ltmp897-Lfunc_begin20
	.uleb128 Ltmp898-Ltmp897
	.uleb128 Ltmp899-Lfunc_begin20
	.byte	0
	.uleb128 Ltmp862-Lfunc_begin20
	.uleb128 Ltmp863-Ltmp862
	.uleb128 Ltmp902-Lfunc_begin20
	.byte	0
	.uleb128 Ltmp886-Lfunc_begin20
	.uleb128 Ltmp885-Ltmp886
	.uleb128 Ltmp888-Lfunc_begin20
	.byte	0
	.uleb128 Ltmp889-Lfunc_begin20
	.uleb128 Ltmp890-Ltmp889
	.uleb128 Ltmp891-Lfunc_begin20
	.byte	0
	.uleb128 Ltmp869-Lfunc_begin20
	.uleb128 Ltmp870-Ltmp869
	.uleb128 Ltmp902-Lfunc_begin20
	.byte	0
	.uleb128 Ltmp871-Lfunc_begin20
	.uleb128 Ltmp872-Ltmp871
	.uleb128 Ltmp873-Lfunc_begin20
	.byte	0
	.uleb128 Ltmp872-Lfunc_begin20
	.uleb128 Lfunc_end20-Ltmp872
	.byte	0
	.byte	0
Lcst_end20:
	.byte	0
	.byte	0
	.byte	1
	.byte	125
	.p2align	2
	.long	0
Lttbase20:
	.p2align	2

	.section	__TEXT,__text,regular,pure_instructions
	.p2align	4, 0x90
__ZN10rayon_core4join12join_context28_$u7b$$u7b$closure$u7d$$u7d$17hdbe060815c9be660E:
Lfunc_begin21:
	.cfi_startproc
	.cfi_personality 155, _rust_eh_personality
	.cfi_lsda 16, Lexception21
	pushq	%rbp
	.cfi_def_cfa_offset 16
	.cfi_offset %rbp, -16
	movq	%rsp, %rbp
	.cfi_def_cfa_register %rbp
	pushq	%r15
	pushq	%r14
	pushq	%r13
	pushq	%r12
	pushq	%rbx
	subq	$184, %rsp
	.cfi_offset %rbx, -56
	.cfi_offset %r12, -48
	.cfi_offset %r13, -40
	.cfi_offset %r14, -32
	.cfi_offset %r15, -24
	movq	%rsi, %rbx
	movq	%rdi, %r15
	movq	40(%rdi), %rax
	movq	%rax, -88(%rbp)
	movq	32(%rdi), %rax
	movq	%rax, -96(%rbp)
	movq	24(%rdi), %rax
	movq	%rax, -104(%rbp)
	movq	16(%rdi), %rax
	movq	%rax, -112(%rbp)
	movq	(%rdi), %rax
	movq	8(%rdi), %rcx
	movq	%rcx, -120(%rbp)
	movq	%rax, -128(%rbp)
	movb	$0, -56(%rbp)
	movq	$0, -80(%rbp)
	movq	256(%rsi), %rax
	movq	264(%rax), %r14
	movq	256(%rax), %rax
	movq	272(%rsi), %rsi
	movq	%r14, %rcx
	subq	%rax, %rcx
	cmpq	%rsi, %rcx
	movl	%edx, -44(%rbp)
	jl	LBB21_4
	addq	%rsi, %rsi
	jb	LBB21_7
	leaq	256(%rbx), %rdi
Ltmp903:
	callq	__ZN15crossbeam_deque15Worker$LT$T$GT$6resize17h73667af9f54c6c19E
Ltmp904:
	movq	272(%rbx), %rsi
LBB21_4:
	subq	$1, %rsi
	jb	LBB21_5
	movq	264(%rbx), %rax
	andq	%r14, %rsi
	shlq	$4, %rsi
	leaq	-128(%rbp), %r12
	movq	%r12, (%rax,%rsi)
	leaq	__ZN83_$LT$rayon_core..job..StackJob$LT$L$C$F$C$R$GT$$u20$as$u20$rayon_core..job..Job$GT$7execute17hbf0cbb7b0998c0ceE(%rip), %r13
	movq	%r13, 8(%rax,%rsi)
	##MEMBARRIER
	movq	256(%rbx), %rax
	incq	%r14
	movq	%r14, 264(%rax)
	movl	$408, %edi
	addq	304(%rbx), %rdi
	movq	288(%rbx), %rsi
Ltmp907:
	callq	__ZN10rayon_core5sleep5Sleep6tickle17h5038bd408706a5c1E
Ltmp908:
	movq	48(%r15), %rax
	movq	56(%r15), %rcx
	movq	64(%r15), %r8
	movq	72(%r15), %r9
	movq	80(%r15), %rsi
	movq	(%rax), %rdi
	movq	(%rcx), %rdx
	movq	8(%rcx), %rcx
Ltmp909:
	movq	%rsi, (%rsp)
	movzbl	-44(%rbp), %r14d
	movl	%r14d, %esi
	callq	__ZN5rayon4iter8plumbing24bridge_producer_consumer6helper17h7515c17ed280d9e4E
Ltmp910:
	leaq	-56(%rbp), %r15
	jmp	LBB21_11
	.p2align	4, 0x90
LBB21_23:
Ltmp919:
	movq	%rbx, %rdi
	movq	%rax, %rsi
	callq	__ZN10rayon_core8registry12WorkerThread7execute17hc504892f49177628E
Ltmp920:
LBB21_11:
	movzbl	-56(%rbp), %eax
	testb	%al, %al
	jne	LBB21_16
Ltmp917:
	movq	%rbx, %rdi
	callq	__ZN10rayon_core8registry12WorkerThread14take_local_job17h4a60902ba985e6d4E
Ltmp918:
	testq	%rdx, %rdx
	je	LBB21_14
	cmpq	%r12, %rax
	jne	LBB21_23
	cmpq	%r13, %rdx
	jne	LBB21_23
	leaq	-208(%rbp), %rdi
	leaq	-128(%rbp), %rsi
	movl	$10, %ecx
	rep;movsq (%rsi), %es:(%rdi)
	movq	-208(%rbp), %rax
	testq	%rax, %rax
	je	LBB21_25
	movq	-200(%rbp), %rcx
	movq	(%rax), %rdi
	subq	(%rcx), %rdi
	jb	LBB21_27
	movq	-192(%rbp), %rax
	movq	-184(%rbp), %r8
	movq	-176(%rbp), %r9
	movq	-168(%rbp), %rsi
	movq	(%rax), %rdx
	movq	8(%rax), %rcx
Ltmp922:
	movq	%rsi, (%rsp)
	movl	%r14d, %esi
	callq	__ZN5rayon4iter8plumbing24bridge_producer_consumer6helper17h7515c17ed280d9e4E
Ltmp923:
	cmpl	$2, -160(%rbp)
	jb	LBB21_33
	movq	-152(%rbp), %r15
	movq	-144(%rbp), %rbx
Ltmp924:
	movq	%r15, %rdi
	callq	*(%rbx)
Ltmp925:
	movq	8(%rbx), %rsi
	testq	%rsi, %rsi
	je	LBB21_33
	movq	16(%rbx), %rdx
	movq	%r15, %rdi
	callq	___rust_dealloc
	jmp	LBB21_33
LBB21_14:
	movb	-56(%rbp), %al
	testb	%al, %al
	jne	LBB21_16
Ltmp935:
	movq	%rbx, %rdi
	movq	%r15, %rsi
	callq	__ZN10rayon_core8registry12WorkerThread15wait_until_cold17h85a044fa98ca4aa2E
Ltmp936:
LBB21_16:
	movq	-80(%rbp), %rax
	cmpq	$1, %rax
	jne	LBB21_17
LBB21_33:
	addq	$184, %rsp
	popq	%rbx
	popq	%r12
	popq	%r13
	popq	%r14
	popq	%r15
	popq	%rbp
	retq
LBB21_17:
	testq	%rax, %rax
	je	LBB21_35
	movq	-72(%rbp), %rdi
	movq	-64(%rbp), %rsi
Ltmp938:
	callq	__ZN10rayon_core6unwind16resume_unwinding17h5fa1757f689722ceE
Ltmp939:
	jmp	LBB21_6
LBB21_5:
Ltmp943:
	leaq	_str.2(%rip), %rdi
	leaq	l___unnamed_1(%rip), %rdx
	movl	$33, %esi
	callq	__ZN4core9panicking5panic17h383a6b80ea7021aaE
Ltmp944:
	jmp	LBB21_6
LBB21_35:
Ltmp940:
	leaq	l___unnamed_2(%rip), %rdi
	leaq	l___unnamed_3(%rip), %rdx
	movl	$40, %esi
	callq	__ZN3std9panicking11begin_panic17hd62f0347f881f53aE
Ltmp941:
	jmp	LBB21_6
LBB21_7:
Ltmp905:
	leaq	_str.1(%rip), %rdi
	leaq	l___unnamed_4(%rip), %rdx
	movl	$33, %esi
	callq	__ZN4core9panicking5panic17h383a6b80ea7021aaE
Ltmp906:
	jmp	LBB21_6
LBB21_25:
Ltmp929:
	leaq	l___unnamed_5(%rip), %rdi
	leaq	l___unnamed_6(%rip), %rdx
	movl	$43, %esi
	callq	__ZN4core9panicking5panic17h383a6b80ea7021aaE
Ltmp930:
	jmp	LBB21_6
LBB21_27:
Ltmp927:
	leaq	_str.2(%rip), %rdi
	leaq	l___unnamed_7(%rip), %rdx
	movl	$33, %esi
	callq	__ZN4core9panicking5panic17h383a6b80ea7021aaE
Ltmp928:
	jmp	LBB21_6
LBB21_45:
Ltmp942:
	jmp	LBB21_40
LBB21_38:
Ltmp937:
	jmp	LBB21_44
LBB21_36:
Ltmp926:
	movq	%rax, %r14
	movq	%r15, %rdi
	movq	%rbx, %rsi
	callq	__ZN5alloc5alloc8box_free17h9438c5f1772b94e3E
	jmp	LBB21_41
LBB21_34:
Ltmp931:
	movq	%rax, %r14
	leaq	-160(%rbp), %rdi
Ltmp932:
	callq	__ZN4core3ptr13drop_in_place17hd53146ad14be3b16E
Ltmp933:
	jmp	LBB21_41
LBB21_39:
Ltmp934:
LBB21_40:
	movq	%rax, %r14
	jmp	LBB21_41
LBB21_19:
Ltmp911:
Ltmp912:
	movq	%rax, %rdi
	callq	__ZN3std9panicking3try7cleanup17hd630ddf77975344aE
Ltmp913:
	movq	%rdx, %rcx
	leaq	-56(%rbp), %rsi
Ltmp914:
	movq	%rbx, %rdi
	movq	%rax, %rdx
	callq	__ZN10rayon_core4join23join_recover_from_panic17h47a5fd9714c21a6fE
Ltmp915:
LBB21_6:
	ud2
LBB21_43:
Ltmp916:
	jmp	LBB21_44
LBB21_42:
Ltmp945:
	jmp	LBB21_44
LBB21_37:
Ltmp921:
LBB21_44:
	movq	%rax, %r14
	leaq	-128(%rbp), %rdi
	callq	__ZN4core3ptr13drop_in_place17h0737b5809d4cb690E
LBB21_41:
	movq	%r14, %rdi
	callq	__Unwind_Resume
	ud2
Lfunc_end21:
	.cfi_endproc
	.section	__TEXT,__gcc_except_tab
	.p2align	2
GCC_except_table21:
Lexception21:
	.byte	255
	.byte	155
	.uleb128 Lttbase21-Lttbaseref21
Lttbaseref21:
	.byte	1
	.uleb128 Lcst_end21-Lcst_begin21
Lcst_begin21:
	.uleb128 Ltmp903-Lfunc_begin21
	.uleb128 Ltmp908-Ltmp903
	.uleb128 Ltmp945-Lfunc_begin21
	.byte	0
	.uleb128 Ltmp909-Lfunc_begin21
	.uleb128 Ltmp910-Ltmp909
	.uleb128 Ltmp911-Lfunc_begin21
	.byte	3
	.uleb128 Ltmp919-Lfunc_begin21
	.uleb128 Ltmp918-Ltmp919
	.uleb128 Ltmp921-Lfunc_begin21
	.byte	0
	.uleb128 Ltmp922-Lfunc_begin21
	.uleb128 Ltmp923-Ltmp922
	.uleb128 Ltmp931-Lfunc_begin21
	.byte	0
	.uleb128 Ltmp924-Lfunc_begin21
	.uleb128 Ltmp925-Ltmp924
	.uleb128 Ltmp926-Lfunc_begin21
	.byte	0
	.uleb128 Ltmp935-Lfunc_begin21
	.uleb128 Ltmp936-Ltmp935
	.uleb128 Ltmp937-Lfunc_begin21
	.byte	0
	.uleb128 Ltmp938-Lfunc_begin21
	.uleb128 Ltmp939-Ltmp938
	.uleb128 Ltmp942-Lfunc_begin21
	.byte	0
	.uleb128 Ltmp943-Lfunc_begin21
	.uleb128 Ltmp944-Ltmp943
	.uleb128 Ltmp945-Lfunc_begin21
	.byte	0
	.uleb128 Ltmp940-Lfunc_begin21
	.uleb128 Ltmp941-Ltmp940
	.uleb128 Ltmp942-Lfunc_begin21
	.byte	0
	.uleb128 Ltmp905-Lfunc_begin21
	.uleb128 Ltmp906-Ltmp905
	.uleb128 Ltmp945-Lfunc_begin21
	.byte	0
	.uleb128 Ltmp929-Lfunc_begin21
	.uleb128 Ltmp928-Ltmp929
	.uleb128 Ltmp931-Lfunc_begin21
	.byte	0
	.uleb128 Ltmp932-Lfunc_begin21
	.uleb128 Ltmp933-Ltmp932
	.uleb128 Ltmp934-Lfunc_begin21
	.byte	0
	.uleb128 Ltmp912-Lfunc_begin21
	.uleb128 Ltmp913-Ltmp912
	.uleb128 Ltmp945-Lfunc_begin21
	.byte	0
	.uleb128 Ltmp914-Lfunc_begin21
	.uleb128 Ltmp915-Ltmp914
	.uleb128 Ltmp916-Lfunc_begin21
	.byte	0
	.uleb128 Ltmp915-Lfunc_begin21
	.uleb128 Lfunc_end21-Ltmp915
	.byte	0
	.byte	0
Lcst_end21:
	.byte	0
	.byte	0
	.byte	1
	.byte	125
	.p2align	2
	.long	0
Lttbase21:
	.p2align	2

	.section	__TEXT,__text,regular,pure_instructions
	.p2align	4, 0x90
__ZN10rayon_core4join12join_context28_$u7b$$u7b$closure$u7d$$u7d$17he102e2dcb490dc78E:
Lfunc_begin22:
	.cfi_startproc
	.cfi_personality 155, _rust_eh_personality
	.cfi_lsda 16, Lexception22
	pushq	%rbp
	.cfi_def_cfa_offset 16
	.cfi_offset %rbp, -16
	movq	%rsp, %rbp
	.cfi_def_cfa_register %rbp
	pushq	%r15
	pushq	%r14
	pushq	%r13
	pushq	%r12
	pushq	%rbx
	andq	$-64, %rsp
	subq	$768, %rsp
	.cfi_offset %rbx, -56
	.cfi_offset %r12, -48
	.cfi_offset %r13, -40
	.cfi_offset %r14, -32
	.cfi_offset %r15, -24
	movl	%ecx, 60(%rsp)
	movq	%rdx, %rbx
	movq	%rsi, %r12
	movq	%rdi, %r15
	movb	$0, 504(%rsp)
	movq	(%rsi), %rax
	movq	8(%rsi), %rcx
	movq	%rax, 448(%rsp)
	movq	%rcx, 456(%rsp)
	movq	16(%rsi), %rax
	movq	%rax, 464(%rsp)
	movq	24(%rsi), %rax
	movq	%rax, 472(%rsp)
	movq	32(%rsi), %rax
	movq	%rax, 480(%rsp)
	movq	40(%rsi), %rax
	movq	%rax, 488(%rsp)
	movq	48(%rsi), %rax
	movq	%rax, 496(%rsp)
	movq	$0, 320(%rsp)
	movq	256(%rdx), %rax
	movq	264(%rax), %r14
	movq	256(%rax), %rax
	movq	272(%rdx), %rsi
	movq	%r14, %rcx
	subq	%rax, %rcx
	cmpq	%rsi, %rcx
	jl	LBB22_4
	addq	%rsi, %rsi
	jb	LBB22_7
	leaq	256(%rbx), %rdi
Ltmp946:
	callq	__ZN15crossbeam_deque15Worker$LT$T$GT$6resize17h73667af9f54c6c19E
Ltmp947:
	movq	272(%rbx), %rsi
LBB22_4:
	subq	$1, %rsi
	jb	LBB22_5
	movq	264(%rbx), %rax
	andq	%r14, %rsi
	shlq	$4, %rsi
	leaq	320(%rsp), %r13
	movq	%r13, (%rax,%rsi)
	leaq	__ZN83_$LT$rayon_core..job..StackJob$LT$L$C$F$C$R$GT$$u20$as$u20$rayon_core..job..Job$GT$7execute17h96d30d43d8044e37E(%rip), %rcx
	movq	%rcx, 8(%rax,%rsi)
	##MEMBARRIER
	movq	256(%rbx), %rax
	incq	%r14
	movq	%r14, 264(%rax)
	movl	$408, %edi
	addq	304(%rbx), %rdi
	movq	288(%rbx), %rsi
Ltmp950:
	callq	__ZN10rayon_core5sleep5Sleep6tickle17h5038bd408706a5c1E
Ltmp951:
	movq	80(%r12), %rax
	movq	%rax, 88(%rsp)
	movq	72(%r12), %rax
	movq	%rax, 80(%rsp)
	movq	96(%r12), %rax
	movq	%rax, 104(%rsp)
	movq	88(%r12), %rax
	movq	%rax, 96(%rsp)
	movq	56(%r12), %rax
	movq	64(%r12), %rcx
	movq	%rcx, 72(%rsp)
	movq	%rax, 64(%rsp)
	movl	60(%rsp), %r14d
	movb	%r14b, 112(%rsp)
	movq	80(%rsp), %r9
	movq	88(%rsp), %rdi
	movdqa	96(%rsp), %xmm0
	movdqa	64(%rsp), %xmm1
	movq	%xmm1, %rcx
	pshufd	$78, %xmm1, %xmm1
	movq	%xmm1, %rax
	pshufd	$78, %xmm0, %xmm1
	xorl	%edx, %edx
	testb	%r14b, %r14b
	setne	%dl
	movq	(%rcx), %rsi
	movq	(%rax), %rcx
	movq	8(%rax), %r8
	movq	%xmm0, 192(%rsp)
	movq	%r9, 176(%rsp)
	movq	%rdi, 184(%rsp)
Ltmp952:
	movq	%xmm1, (%rsp)
	leaq	512(%rsp), %rdi
	leaq	176(%rsp), %r9
	callq	__ZN5rayon4iter8plumbing24bridge_producer_consumer6helper17h2ccc1d00c3730ae7E
Ltmp953:
	movaps	512(%rsp), %xmm0
	movaps	%xmm0, 256(%rsp)
	movaps	528(%rsp), %xmm0
	movaps	%xmm0, 240(%rsp)
	movaps	544(%rsp), %xmm0
	movaps	%xmm0, 224(%rsp)
	movdqa	560(%rsp), %xmm0
	movdqa	%xmm0, 272(%rsp)
	leaq	504(%rsp), %r12
	jmp	LBB22_11
	.p2align	4, 0x90
LBB22_23:
Ltmp962:
	movq	%rbx, %rdi
	movq	%rax, %rsi
	callq	__ZN10rayon_core8registry12WorkerThread7execute17hc504892f49177628E
Ltmp963:
LBB22_11:
	movzbl	504(%rsp), %eax
	testb	%al, %al
	jne	LBB22_16
Ltmp960:
	movq	%rbx, %rdi
	callq	__ZN10rayon_core8registry12WorkerThread14take_local_job17h4a60902ba985e6d4E
Ltmp961:
	testq	%rdx, %rdx
	je	LBB22_14
	cmpq	%r13, %rax
	jne	LBB22_23
	leaq	__ZN83_$LT$rayon_core..job..StackJob$LT$L$C$F$C$R$GT$$u20$as$u20$rayon_core..job..Job$GT$7execute17h96d30d43d8044e37E(%rip), %rcx
	cmpq	%rcx, %rdx
	jne	LBB22_23
	leaq	512(%rsp), %rdi
	leaq	320(%rsp), %rsi
	movl	$192, %edx
	callq	_memcpy
	movq	640(%rsp), %rsi
	movq	648(%rsp), %rcx
	movq	656(%rsp), %rax
	movq	664(%rsp), %rdx
	movq	%rdx, 64(%rsp)
	movq	672(%rsp), %rdx
	movq	%rdx, 72(%rsp)
	movq	680(%rsp), %rdx
	movq	%rdx, 80(%rsp)
	testq	%rsi, %rsi
	je	LBB22_25
	movq	688(%rsp), %r9
	movq	80(%rsp), %rdi
	movq	%rdi, 312(%rsp)
	movq	64(%rsp), %rbx
	movq	72(%rsp), %rdx
	movq	%rdx, 304(%rsp)
	movq	%rbx, 296(%rsp)
	movq	%rdi, 216(%rsp)
	movq	%rdx, 208(%rsp)
	movq	%rbx, 200(%rsp)
	movq	(%rsi), %rsi
	subq	(%rcx), %rsi
	jb	LBB22_27
	movq	(%rax), %rcx
	movq	8(%rax), %r8
	movq	216(%rsp), %rax
	movq	%rax, 192(%rsp)
	movq	200(%rsp), %rax
	movq	208(%rsp), %rdx
	movq	%rdx, 184(%rsp)
	movq	%rax, 176(%rsp)
Ltmp965:
	movq	%r9, (%rsp)
	movzbl	%r14b, %edx
	leaq	64(%rsp), %rdi
	leaq	176(%rsp), %r9
	callq	__ZN5rayon4iter8plumbing24bridge_producer_consumer6helper17h2ccc1d00c3730ae7E
Ltmp966:
	cmpl	$2, 512(%rsp)
	jb	LBB22_33
	movq	520(%rsp), %r12
	movq	528(%rsp), %rbx
Ltmp967:
	movq	%r12, %rdi
	callq	*(%rbx)
Ltmp968:
	movq	8(%rbx), %rsi
	testq	%rsi, %rsi
	je	LBB22_33
	movq	16(%rbx), %rdx
	movq	%r12, %rdi
	callq	___rust_dealloc
LBB22_33:
	movaps	64(%rsp), %xmm0
	movaps	80(%rsp), %xmm1
	movaps	96(%rsp), %xmm2
	movaps	112(%rsp), %xmm3
	movaps	224(%rsp), %xmm4
	movaps	%xmm4, 32(%r15)
	movaps	240(%rsp), %xmm4
	movaps	%xmm4, 16(%r15)
	movaps	256(%rsp), %xmm4
	movaps	%xmm4, (%r15)
	movaps	272(%rsp), %xmm4
	movaps	%xmm4, 48(%r15)
	movaps	%xmm3, 112(%r15)
	movaps	%xmm2, 96(%r15)
	movaps	%xmm1, 80(%r15)
	movaps	%xmm0, 64(%r15)
	jmp	LBB22_34
LBB22_14:
	movb	504(%rsp), %al
	testb	%al, %al
	jne	LBB22_16
Ltmp978:
	movq	%rbx, %rdi
	movq	%r12, %rsi
	callq	__ZN10rayon_core8registry12WorkerThread15wait_until_cold17h85a044fa98ca4aa2E
Ltmp979:
LBB22_16:
	movq	320(%rsp), %rax
	cmpq	$1, %rax
	jne	LBB22_17
	movaps	384(%rsp), %xmm0
	movaps	400(%rsp), %xmm1
	movaps	416(%rsp), %xmm2
	movaps	432(%rsp), %xmm3
	movaps	256(%rsp), %xmm4
	movaps	%xmm4, (%r15)
	movaps	240(%rsp), %xmm4
	movaps	%xmm4, 16(%r15)
	movaps	224(%rsp), %xmm4
	movaps	%xmm4, 32(%r15)
	movaps	272(%rsp), %xmm4
	movaps	%xmm4, 48(%r15)
	movaps	%xmm2, 96(%r15)
	movaps	%xmm3, 112(%r15)
	movaps	%xmm0, 64(%r15)
	movaps	%xmm1, 80(%r15)
LBB22_34:
	leaq	-40(%rbp), %rsp
	popq	%rbx
	popq	%r12
	popq	%r13
	popq	%r14
	popq	%r15
	popq	%rbp
	retq
LBB22_17:
	testq	%rax, %rax
	je	LBB22_36
	movq	328(%rsp), %rdi
	movq	336(%rsp), %rsi
Ltmp981:
	callq	__ZN10rayon_core6unwind16resume_unwinding17h5fa1757f689722ceE
Ltmp982:
	jmp	LBB22_6
LBB22_5:
Ltmp986:
	leaq	_str.2(%rip), %rdi
	leaq	l___unnamed_1(%rip), %rdx
	movl	$33, %esi
	callq	__ZN4core9panicking5panic17h383a6b80ea7021aaE
Ltmp987:
	jmp	LBB22_6
LBB22_36:
Ltmp983:
	leaq	l___unnamed_2(%rip), %rdi
	leaq	l___unnamed_3(%rip), %rdx
	movl	$40, %esi
	callq	__ZN3std9panicking11begin_panic17hd62f0347f881f53aE
Ltmp984:
	jmp	LBB22_6
LBB22_7:
Ltmp948:
	leaq	_str.1(%rip), %rdi
	leaq	l___unnamed_4(%rip), %rdx
	movl	$33, %esi
	callq	__ZN4core9panicking5panic17h383a6b80ea7021aaE
Ltmp949:
	jmp	LBB22_6
LBB22_25:
Ltmp972:
	leaq	l___unnamed_5(%rip), %rdi
	leaq	l___unnamed_6(%rip), %rdx
	movl	$43, %esi
	callq	__ZN4core9panicking5panic17h383a6b80ea7021aaE
Ltmp973:
	jmp	LBB22_6
LBB22_27:
Ltmp970:
	leaq	_str.2(%rip), %rdi
	leaq	l___unnamed_7(%rip), %rdx
	movl	$33, %esi
	callq	__ZN4core9panicking5panic17h383a6b80ea7021aaE
Ltmp971:
	jmp	LBB22_6
LBB22_47:
Ltmp985:
	jmp	LBB22_42
LBB22_40:
Ltmp980:
	jmp	LBB22_46
LBB22_38:
Ltmp969:
	movq	%rax, %r14
	movq	%r12, %rdi
	movq	%rbx, %rsi
	callq	__ZN5alloc5alloc8box_free17h9438c5f1772b94e3E
	jmp	LBB22_43
LBB22_35:
Ltmp974:
	movq	%rax, %r14
Ltmp975:
	leaq	512(%rsp), %rdi
	callq	__ZN4core3ptr13drop_in_place17h0b7def0b7e32d541E
Ltmp976:
	jmp	LBB22_43
LBB22_41:
Ltmp977:
LBB22_42:
	movq	%rax, %r14
	jmp	LBB22_43
LBB22_19:
Ltmp954:
Ltmp955:
	movq	%rax, %rdi
	callq	__ZN3std9panicking3try7cleanup17hd630ddf77975344aE
Ltmp956:
	movq	%rdx, %rcx
	leaq	504(%rsp), %rsi
Ltmp957:
	movq	%rbx, %rdi
	movq	%rax, %rdx
	callq	__ZN10rayon_core4join23join_recover_from_panic17h47a5fd9714c21a6fE
Ltmp958:
LBB22_6:
	ud2
LBB22_45:
Ltmp959:
	jmp	LBB22_46
LBB22_44:
Ltmp988:
	jmp	LBB22_46
LBB22_39:
Ltmp964:
LBB22_46:
	movq	%rax, %r14
	leaq	320(%rsp), %rdi
	callq	__ZN4core3ptr13drop_in_place17h0b7def0b7e32d541E
LBB22_43:
	movq	%r14, %rdi
	callq	__Unwind_Resume
	ud2
Lfunc_end22:
	.cfi_endproc
	.section	__TEXT,__gcc_except_tab
	.p2align	2
GCC_except_table22:
Lexception22:
	.byte	255
	.byte	155
	.uleb128 Lttbase22-Lttbaseref22
Lttbaseref22:
	.byte	1
	.uleb128 Lcst_end22-Lcst_begin22
Lcst_begin22:
	.uleb128 Ltmp946-Lfunc_begin22
	.uleb128 Ltmp951-Ltmp946
	.uleb128 Ltmp988-Lfunc_begin22
	.byte	0
	.uleb128 Ltmp952-Lfunc_begin22
	.uleb128 Ltmp953-Ltmp952
	.uleb128 Ltmp954-Lfunc_begin22
	.byte	3
	.uleb128 Ltmp962-Lfunc_begin22
	.uleb128 Ltmp961-Ltmp962
	.uleb128 Ltmp964-Lfunc_begin22
	.byte	0
	.uleb128 Ltmp961-Lfunc_begin22
	.uleb128 Ltmp965-Ltmp961
	.byte	0
	.byte	0
	.uleb128 Ltmp965-Lfunc_begin22
	.uleb128 Ltmp966-Ltmp965
	.uleb128 Ltmp974-Lfunc_begin22
	.byte	0
	.uleb128 Ltmp967-Lfunc_begin22
	.uleb128 Ltmp968-Ltmp967
	.uleb128 Ltmp969-Lfunc_begin22
	.byte	0
	.uleb128 Ltmp978-Lfunc_begin22
	.uleb128 Ltmp979-Ltmp978
	.uleb128 Ltmp980-Lfunc_begin22
	.byte	0
	.uleb128 Ltmp981-Lfunc_begin22
	.uleb128 Ltmp982-Ltmp981
	.uleb128 Ltmp985-Lfunc_begin22
	.byte	0
	.uleb128 Ltmp986-Lfunc_begin22
	.uleb128 Ltmp987-Ltmp986
	.uleb128 Ltmp988-Lfunc_begin22
	.byte	0
	.uleb128 Ltmp983-Lfunc_begin22
	.uleb128 Ltmp984-Ltmp983
	.uleb128 Ltmp985-Lfunc_begin22
	.byte	0
	.uleb128 Ltmp948-Lfunc_begin22
	.uleb128 Ltmp949-Ltmp948
	.uleb128 Ltmp988-Lfunc_begin22
	.byte	0
	.uleb128 Ltmp972-Lfunc_begin22
	.uleb128 Ltmp971-Ltmp972
	.uleb128 Ltmp974-Lfunc_begin22
	.byte	0
	.uleb128 Ltmp975-Lfunc_begin22
	.uleb128 Ltmp976-Ltmp975
	.uleb128 Ltmp977-Lfunc_begin22
	.byte	0
	.uleb128 Ltmp955-Lfunc_begin22
	.uleb128 Ltmp956-Ltmp955
	.uleb128 Ltmp988-Lfunc_begin22
	.byte	0
	.uleb128 Ltmp957-Lfunc_begin22
	.uleb128 Ltmp958-Ltmp957
	.uleb128 Ltmp959-Lfunc_begin22
	.byte	0
	.uleb128 Ltmp958-Lfunc_begin22
	.uleb128 Lfunc_end22-Ltmp958
	.byte	0
	.byte	0
Lcst_end22:
	.byte	0
	.byte	0
	.byte	1
	.byte	125
	.p2align	2
	.long	0
Lttbase22:
	.p2align	2

	.section	__TEXT,__text,regular,pure_instructions
	.p2align	4, 0x90
__ZN10rayon_core4join12join_context28_$u7b$$u7b$closure$u7d$$u7d$17he6c92b3af5e5682bE:
Lfunc_begin23:
	.cfi_startproc
	.cfi_personality 155, _rust_eh_personality
	.cfi_lsda 16, Lexception23
	pushq	%rbp
	.cfi_def_cfa_offset 16
	.cfi_offset %rbp, -16
	movq	%rsp, %rbp
	.cfi_def_cfa_register %rbp
	pushq	%r15
	pushq	%r14
	pushq	%r13
	pushq	%r12
	pushq	%rbx
	andq	$-64, %rsp
	subq	$768, %rsp
	.cfi_offset %rbx, -56
	.cfi_offset %r12, -48
	.cfi_offset %r13, -40
	.cfi_offset %r14, -32
	.cfi_offset %r15, -24
	movl	%ecx, 60(%rsp)
	movq	%rdx, %rbx
	movq	%rsi, %r12
	movq	%rdi, %r15
	movb	$0, 504(%rsp)
	movq	(%rsi), %rax
	movq	8(%rsi), %rcx
	movq	%rax, 448(%rsp)
	movq	%rcx, 456(%rsp)
	movq	16(%rsi), %rax
	movq	%rax, 464(%rsp)
	movq	24(%rsi), %rax
	movq	%rax, 472(%rsp)
	movq	32(%rsi), %rax
	movq	%rax, 480(%rsp)
	movq	40(%rsi), %rax
	movq	%rax, 488(%rsp)
	movq	48(%rsi), %rax
	movq	%rax, 496(%rsp)
	movq	$0, 320(%rsp)
	movq	256(%rdx), %rax
	movq	264(%rax), %r14
	movq	256(%rax), %rax
	movq	272(%rdx), %rsi
	movq	%r14, %rcx
	subq	%rax, %rcx
	cmpq	%rsi, %rcx
	jl	LBB23_4
	addq	%rsi, %rsi
	jb	LBB23_7
	leaq	256(%rbx), %rdi
Ltmp989:
	callq	__ZN15crossbeam_deque15Worker$LT$T$GT$6resize17h73667af9f54c6c19E
Ltmp990:
	movq	272(%rbx), %rsi
LBB23_4:
	subq	$1, %rsi
	jb	LBB23_5
	movq	264(%rbx), %rax
	andq	%r14, %rsi
	shlq	$4, %rsi
	leaq	320(%rsp), %r13
	movq	%r13, (%rax,%rsi)
	leaq	__ZN83_$LT$rayon_core..job..StackJob$LT$L$C$F$C$R$GT$$u20$as$u20$rayon_core..job..Job$GT$7execute17hf976b9d39aa79b3aE(%rip), %rcx
	movq	%rcx, 8(%rax,%rsi)
	##MEMBARRIER
	movq	256(%rbx), %rax
	incq	%r14
	movq	%r14, 264(%rax)
	movl	$408, %edi
	addq	304(%rbx), %rdi
	movq	288(%rbx), %rsi
Ltmp993:
	callq	__ZN10rayon_core5sleep5Sleep6tickle17h5038bd408706a5c1E
Ltmp994:
	movq	80(%r12), %rax
	movq	%rax, 88(%rsp)
	movq	72(%r12), %rax
	movq	%rax, 80(%rsp)
	movq	96(%r12), %rax
	movq	%rax, 104(%rsp)
	movq	88(%r12), %rax
	movq	%rax, 96(%rsp)
	movq	56(%r12), %rax
	movq	64(%r12), %rcx
	movq	%rcx, 72(%rsp)
	movq	%rax, 64(%rsp)
	movl	60(%rsp), %r14d
	movb	%r14b, 112(%rsp)
	movq	80(%rsp), %r9
	movq	88(%rsp), %rdi
	movdqa	96(%rsp), %xmm0
	movdqa	64(%rsp), %xmm1
	movq	%xmm1, %rcx
	pshufd	$78, %xmm1, %xmm1
	movq	%xmm1, %rax
	movaps	112(%rsp), %xmm1
	movaps	%xmm1, 272(%rsp)
	xorl	%edx, %edx
	cmpb	$0, 272(%rsp)
	pshufd	$78, %xmm0, %xmm1
	setne	%dl
	movq	(%rcx), %rsi
	movq	(%rax), %rcx
	movq	8(%rax), %r8
	movq	%xmm0, 176(%rsp)
	movq	%r9, 160(%rsp)
	movq	%rdi, 168(%rsp)
Ltmp995:
	movq	%xmm1, (%rsp)
	leaq	512(%rsp), %rdi
	leaq	160(%rsp), %r9
	callq	__ZN5rayon4iter8plumbing24bridge_producer_consumer6helper17h19f5b24d00a4019cE
Ltmp996:
	movaps	512(%rsp), %xmm0
	movaps	%xmm0, 240(%rsp)
	movaps	528(%rsp), %xmm0
	movaps	%xmm0, 224(%rsp)
	movaps	544(%rsp), %xmm0
	movaps	%xmm0, 208(%rsp)
	movdqa	560(%rsp), %xmm0
	movdqa	%xmm0, 256(%rsp)
	leaq	504(%rsp), %r12
	jmp	LBB23_11
	.p2align	4, 0x90
LBB23_23:
Ltmp1005:
	movq	%rbx, %rdi
	movq	%rax, %rsi
	callq	__ZN10rayon_core8registry12WorkerThread7execute17hc504892f49177628E
Ltmp1006:
LBB23_11:
	movzbl	504(%rsp), %eax
	testb	%al, %al
	jne	LBB23_16
Ltmp1003:
	movq	%rbx, %rdi
	callq	__ZN10rayon_core8registry12WorkerThread14take_local_job17h4a60902ba985e6d4E
Ltmp1004:
	testq	%rdx, %rdx
	je	LBB23_14
	cmpq	%r13, %rax
	jne	LBB23_23
	leaq	__ZN83_$LT$rayon_core..job..StackJob$LT$L$C$F$C$R$GT$$u20$as$u20$rayon_core..job..Job$GT$7execute17hf976b9d39aa79b3aE(%rip), %rcx
	cmpq	%rcx, %rdx
	jne	LBB23_23
	leaq	512(%rsp), %rdi
	leaq	320(%rsp), %rsi
	movl	$192, %edx
	callq	_memcpy
	movq	640(%rsp), %rsi
	movq	648(%rsp), %rcx
	movq	656(%rsp), %rax
	movq	664(%rsp), %rdx
	movq	%rdx, 64(%rsp)
	movq	672(%rsp), %rdx
	movq	%rdx, 72(%rsp)
	movq	680(%rsp), %rdx
	movq	%rdx, 80(%rsp)
	testq	%rsi, %rsi
	je	LBB23_25
	movq	688(%rsp), %r9
	movq	80(%rsp), %rdi
	movq	%rdi, 312(%rsp)
	movq	64(%rsp), %rbx
	movq	72(%rsp), %rdx
	movq	%rdx, 304(%rsp)
	movq	%rbx, 296(%rsp)
	movq	%rdi, 200(%rsp)
	movq	%rdx, 192(%rsp)
	movq	%rbx, 184(%rsp)
	movq	(%rsi), %rsi
	subq	(%rcx), %rsi
	jb	LBB23_34
	movq	(%rax), %rcx
	movq	8(%rax), %r8
	movq	200(%rsp), %rax
	movq	%rax, 176(%rsp)
	movq	184(%rsp), %rax
	movq	192(%rsp), %rdx
	movq	%rdx, 168(%rsp)
	movq	%rax, 160(%rsp)
Ltmp1008:
	movq	%r9, (%rsp)
	movzbl	%r14b, %edx
	leaq	64(%rsp), %rdi
	leaq	160(%rsp), %r9
	callq	__ZN5rayon4iter8plumbing24bridge_producer_consumer6helper17h19f5b24d00a4019cE
Ltmp1009:
	cmpl	$2, 512(%rsp)
	jb	LBB23_32
	movq	520(%rsp), %r12
	movq	528(%rsp), %rbx
Ltmp1010:
	movq	%r12, %rdi
	callq	*(%rbx)
Ltmp1011:
	movq	8(%rbx), %rsi
	testq	%rsi, %rsi
	je	LBB23_32
	movq	16(%rbx), %rdx
	movq	%r12, %rdi
	callq	___rust_dealloc
LBB23_32:
	movaps	64(%rsp), %xmm0
	movaps	80(%rsp), %xmm1
	movaps	96(%rsp), %xmm2
	movaps	112(%rsp), %xmm3
	movaps	208(%rsp), %xmm4
	movaps	%xmm4, 32(%r15)
	movaps	224(%rsp), %xmm4
	movaps	%xmm4, 16(%r15)
	movaps	240(%rsp), %xmm4
	movaps	%xmm4, (%r15)
	movaps	256(%rsp), %xmm4
	movaps	%xmm4, 48(%r15)
	movaps	%xmm3, 112(%r15)
	movaps	%xmm2, 96(%r15)
	movaps	%xmm1, 80(%r15)
	movaps	%xmm0, 64(%r15)
	jmp	LBB23_33
LBB23_14:
	movb	504(%rsp), %al
	testb	%al, %al
	jne	LBB23_16
Ltmp1021:
	movq	%rbx, %rdi
	movq	%r12, %rsi
	callq	__ZN10rayon_core8registry12WorkerThread15wait_until_cold17h85a044fa98ca4aa2E
Ltmp1022:
LBB23_16:
	movq	320(%rsp), %rax
	cmpq	$1, %rax
	jne	LBB23_17
	movaps	384(%rsp), %xmm0
	movaps	400(%rsp), %xmm1
	movaps	416(%rsp), %xmm2
	movaps	432(%rsp), %xmm3
	movaps	240(%rsp), %xmm4
	movaps	%xmm4, (%r15)
	movaps	224(%rsp), %xmm4
	movaps	%xmm4, 16(%r15)
	movaps	208(%rsp), %xmm4
	movaps	%xmm4, 32(%r15)
	movaps	256(%rsp), %xmm4
	movaps	%xmm4, 48(%r15)
	movaps	%xmm2, 96(%r15)
	movaps	%xmm3, 112(%r15)
	movaps	%xmm0, 64(%r15)
	movaps	%xmm1, 80(%r15)
LBB23_33:
	leaq	-40(%rbp), %rsp
	popq	%rbx
	popq	%r12
	popq	%r13
	popq	%r14
	popq	%r15
	popq	%rbp
	retq
LBB23_17:
	testq	%rax, %rax
	je	LBB23_36
	movq	328(%rsp), %rdi
	movq	336(%rsp), %rsi
Ltmp1024:
	callq	__ZN10rayon_core6unwind16resume_unwinding17h5fa1757f689722ceE
Ltmp1025:
	jmp	LBB23_6
LBB23_5:
Ltmp1029:
	leaq	_str.2(%rip), %rdi
	leaq	l___unnamed_1(%rip), %rdx
	movl	$33, %esi
	callq	__ZN4core9panicking5panic17h383a6b80ea7021aaE
Ltmp1030:
	jmp	LBB23_6
LBB23_36:
Ltmp1026:
	leaq	l___unnamed_2(%rip), %rdi
	leaq	l___unnamed_3(%rip), %rdx
	movl	$40, %esi
	callq	__ZN3std9panicking11begin_panic17hd62f0347f881f53aE
Ltmp1027:
	jmp	LBB23_6
LBB23_7:
Ltmp991:
	leaq	_str.1(%rip), %rdi
	leaq	l___unnamed_4(%rip), %rdx
	movl	$33, %esi
	callq	__ZN4core9panicking5panic17h383a6b80ea7021aaE
Ltmp992:
	jmp	LBB23_6
LBB23_25:
Ltmp1015:
	leaq	l___unnamed_5(%rip), %rdi
	leaq	l___unnamed_6(%rip), %rdx
	movl	$43, %esi
	callq	__ZN4core9panicking5panic17h383a6b80ea7021aaE
Ltmp1016:
	jmp	LBB23_6
LBB23_34:
Ltmp1013:
	leaq	_str.2(%rip), %rdi
	leaq	l___unnamed_7(%rip), %rdx
	movl	$33, %esi
	callq	__ZN4core9panicking5panic17h383a6b80ea7021aaE
Ltmp1014:
	jmp	LBB23_6
LBB23_47:
Ltmp1028:
	jmp	LBB23_42
LBB23_40:
Ltmp1023:
	jmp	LBB23_46
LBB23_38:
Ltmp1012:
	movq	%rax, %r14
	movq	%r12, %rdi
	movq	%rbx, %rsi
	callq	__ZN5alloc5alloc8box_free17h9438c5f1772b94e3E
	jmp	LBB23_43
LBB23_35:
Ltmp1017:
	movq	%rax, %r14
Ltmp1018:
	leaq	512(%rsp), %rdi
	callq	__ZN4core3ptr13drop_in_place17h0b7def0b7e32d541E
Ltmp1019:
	jmp	LBB23_43
LBB23_41:
Ltmp1020:
LBB23_42:
	movq	%rax, %r14
	jmp	LBB23_43
LBB23_19:
Ltmp997:
Ltmp998:
	movq	%rax, %rdi
	callq	__ZN3std9panicking3try7cleanup17hd630ddf77975344aE
Ltmp999:
	movq	%rdx, %rcx
	leaq	504(%rsp), %rsi
Ltmp1000:
	movq	%rbx, %rdi
	movq	%rax, %rdx
	callq	__ZN10rayon_core4join23join_recover_from_panic17h47a5fd9714c21a6fE
Ltmp1001:
LBB23_6:
	ud2
LBB23_45:
Ltmp1002:
	jmp	LBB23_46
LBB23_44:
Ltmp1031:
	jmp	LBB23_46
LBB23_39:
Ltmp1007:
LBB23_46:
	movq	%rax, %r14
	leaq	320(%rsp), %rdi
	callq	__ZN4core3ptr13drop_in_place17h0b7def0b7e32d541E
LBB23_43:
	movq	%r14, %rdi
	callq	__Unwind_Resume
	ud2
Lfunc_end23:
	.cfi_endproc
	.section	__TEXT,__gcc_except_tab
	.p2align	2
GCC_except_table23:
Lexception23:
	.byte	255
	.byte	155
	.uleb128 Lttbase23-Lttbaseref23
Lttbaseref23:
	.byte	1
	.uleb128 Lcst_end23-Lcst_begin23
Lcst_begin23:
	.uleb128 Ltmp989-Lfunc_begin23
	.uleb128 Ltmp994-Ltmp989
	.uleb128 Ltmp1031-Lfunc_begin23
	.byte	0
	.uleb128 Ltmp995-Lfunc_begin23
	.uleb128 Ltmp996-Ltmp995
	.uleb128 Ltmp997-Lfunc_begin23
	.byte	3
	.uleb128 Ltmp1005-Lfunc_begin23
	.uleb128 Ltmp1004-Ltmp1005
	.uleb128 Ltmp1007-Lfunc_begin23
	.byte	0
	.uleb128 Ltmp1004-Lfunc_begin23
	.uleb128 Ltmp1008-Ltmp1004
	.byte	0
	.byte	0
	.uleb128 Ltmp1008-Lfunc_begin23
	.uleb128 Ltmp1009-Ltmp1008
	.uleb128 Ltmp1017-Lfunc_begin23
	.byte	0
	.uleb128 Ltmp1010-Lfunc_begin23
	.uleb128 Ltmp1011-Ltmp1010
	.uleb128 Ltmp1012-Lfunc_begin23
	.byte	0
	.uleb128 Ltmp1021-Lfunc_begin23
	.uleb128 Ltmp1022-Ltmp1021
	.uleb128 Ltmp1023-Lfunc_begin23
	.byte	0
	.uleb128 Ltmp1024-Lfunc_begin23
	.uleb128 Ltmp1025-Ltmp1024
	.uleb128 Ltmp1028-Lfunc_begin23
	.byte	0
	.uleb128 Ltmp1029-Lfunc_begin23
	.uleb128 Ltmp1030-Ltmp1029
	.uleb128 Ltmp1031-Lfunc_begin23
	.byte	0
	.uleb128 Ltmp1026-Lfunc_begin23
	.uleb128 Ltmp1027-Ltmp1026
	.uleb128 Ltmp1028-Lfunc_begin23
	.byte	0
	.uleb128 Ltmp991-Lfunc_begin23
	.uleb128 Ltmp992-Ltmp991
	.uleb128 Ltmp1031-Lfunc_begin23
	.byte	0
	.uleb128 Ltmp1015-Lfunc_begin23
	.uleb128 Ltmp1014-Ltmp1015
	.uleb128 Ltmp1017-Lfunc_begin23
	.byte	0
	.uleb128 Ltmp1018-Lfunc_begin23
	.uleb128 Ltmp1019-Ltmp1018
	.uleb128 Ltmp1020-Lfunc_begin23
	.byte	0
	.uleb128 Ltmp998-Lfunc_begin23
	.uleb128 Ltmp999-Ltmp998
	.uleb128 Ltmp1031-Lfunc_begin23
	.byte	0
	.uleb128 Ltmp1000-Lfunc_begin23
	.uleb128 Ltmp1001-Ltmp1000
	.uleb128 Ltmp1002-Lfunc_begin23
	.byte	0
	.uleb128 Ltmp1001-Lfunc_begin23
	.uleb128 Lfunc_end23-Ltmp1001
	.byte	0
	.byte	0
Lcst_end23:
	.byte	0
	.byte	0
	.byte	1
	.byte	125
	.p2align	2
	.long	0
Lttbase23:
	.p2align	2

	.section	__TEXT,__text,regular,pure_instructions
	.p2align	4, 0x90
__ZN10rayon_core4join12join_context28_$u7b$$u7b$closure$u7d$$u7d$17hee5f4af781b58ef4E:
Lfunc_begin24:
	.cfi_startproc
	.cfi_personality 155, _rust_eh_personality
	.cfi_lsda 16, Lexception24
	pushq	%rbp
	.cfi_def_cfa_offset 16
	.cfi_offset %rbp, -16
	movq	%rsp, %rbp
	.cfi_def_cfa_register %rbp
	pushq	%r15
	pushq	%r14
	pushq	%r13
	pushq	%r12
	pushq	%rbx
	subq	$184, %rsp
	.cfi_offset %rbx, -56
	.cfi_offset %r12, -48
	.cfi_offset %r13, -40
	.cfi_offset %r14, -32
	.cfi_offset %r15, -24
	movq	%rsi, %rbx
	movq	%rdi, %r15
	movq	40(%rdi), %rax
	movq	%rax, -88(%rbp)
	movq	32(%rdi), %rax
	movq	%rax, -96(%rbp)
	movq	24(%rdi), %rax
	movq	%rax, -104(%rbp)
	movq	16(%rdi), %rax
	movq	%rax, -112(%rbp)
	movq	(%rdi), %rax
	movq	8(%rdi), %rcx
	movq	%rcx, -120(%rbp)
	movq	%rax, -128(%rbp)
	movb	$0, -56(%rbp)
	movq	$0, -80(%rbp)
	movq	256(%rsi), %rax
	movq	264(%rax), %r14
	movq	256(%rax), %rax
	movq	272(%rsi), %rsi
	movq	%r14, %rcx
	subq	%rax, %rcx
	cmpq	%rsi, %rcx
	movl	%edx, -44(%rbp)
	jl	LBB24_4
	addq	%rsi, %rsi
	jb	LBB24_7
	leaq	256(%rbx), %rdi
Ltmp1032:
	callq	__ZN15crossbeam_deque15Worker$LT$T$GT$6resize17h73667af9f54c6c19E
Ltmp1033:
	movq	272(%rbx), %rsi
LBB24_4:
	subq	$1, %rsi
	jb	LBB24_5
	movq	264(%rbx), %rax
	andq	%r14, %rsi
	shlq	$4, %rsi
	leaq	-128(%rbp), %r12
	movq	%r12, (%rax,%rsi)
	leaq	__ZN83_$LT$rayon_core..job..StackJob$LT$L$C$F$C$R$GT$$u20$as$u20$rayon_core..job..Job$GT$7execute17hb1a5c6a6e7f0bf8cE(%rip), %r13
	movq	%r13, 8(%rax,%rsi)
	##MEMBARRIER
	movq	256(%rbx), %rax
	incq	%r14
	movq	%r14, 264(%rax)
	movl	$408, %edi
	addq	304(%rbx), %rdi
	movq	288(%rbx), %rsi
Ltmp1036:
	callq	__ZN10rayon_core5sleep5Sleep6tickle17h5038bd408706a5c1E
Ltmp1037:
	movq	48(%r15), %rax
	movq	56(%r15), %rcx
	movq	64(%r15), %r8
	movq	72(%r15), %r9
	movq	80(%r15), %rsi
	movq	(%rax), %rdi
	movq	(%rcx), %rdx
	movq	8(%rcx), %rcx
Ltmp1038:
	movq	%rsi, (%rsp)
	movzbl	-44(%rbp), %r14d
	movl	%r14d, %esi
	callq	__ZN5rayon4iter8plumbing24bridge_producer_consumer6helper17hf8e1fb18f6e13211E
Ltmp1039:
	leaq	-56(%rbp), %r15
	jmp	LBB24_11
	.p2align	4, 0x90
LBB24_23:
Ltmp1048:
	movq	%rbx, %rdi
	movq	%rax, %rsi
	callq	__ZN10rayon_core8registry12WorkerThread7execute17hc504892f49177628E
Ltmp1049:
LBB24_11:
	movzbl	-56(%rbp), %eax
	testb	%al, %al
	jne	LBB24_16
Ltmp1046:
	movq	%rbx, %rdi
	callq	__ZN10rayon_core8registry12WorkerThread14take_local_job17h4a60902ba985e6d4E
Ltmp1047:
	testq	%rdx, %rdx
	je	LBB24_14
	cmpq	%r12, %rax
	jne	LBB24_23
	cmpq	%r13, %rdx
	jne	LBB24_23
	leaq	-208(%rbp), %rdi
	leaq	-128(%rbp), %rsi
	movl	$10, %ecx
	rep;movsq (%rsi), %es:(%rdi)
	movq	-208(%rbp), %rax
	testq	%rax, %rax
	je	LBB24_25
	movq	-200(%rbp), %rcx
	movq	(%rax), %rdi
	subq	(%rcx), %rdi
	jb	LBB24_33
	movq	-192(%rbp), %rax
	movq	-184(%rbp), %r8
	movq	-176(%rbp), %r9
	movq	-168(%rbp), %rsi
	movq	(%rax), %rdx
	movq	8(%rax), %rcx
Ltmp1051:
	movq	%rsi, (%rsp)
	movl	%r14d, %esi
	callq	__ZN5rayon4iter8plumbing24bridge_producer_consumer6helper17hf8e1fb18f6e13211E
Ltmp1052:
	cmpl	$2, -160(%rbp)
	jb	LBB24_32
	movq	-152(%rbp), %r15
	movq	-144(%rbp), %rbx
Ltmp1053:
	movq	%r15, %rdi
	callq	*(%rbx)
Ltmp1054:
	movq	8(%rbx), %rsi
	testq	%rsi, %rsi
	je	LBB24_32
	movq	16(%rbx), %rdx
	movq	%r15, %rdi
	callq	___rust_dealloc
	jmp	LBB24_32
LBB24_14:
	movb	-56(%rbp), %al
	testb	%al, %al
	jne	LBB24_16
Ltmp1064:
	movq	%rbx, %rdi
	movq	%r15, %rsi
	callq	__ZN10rayon_core8registry12WorkerThread15wait_until_cold17h85a044fa98ca4aa2E
Ltmp1065:
LBB24_16:
	movq	-80(%rbp), %rax
	cmpq	$1, %rax
	jne	LBB24_17
LBB24_32:
	addq	$184, %rsp
	popq	%rbx
	popq	%r12
	popq	%r13
	popq	%r14
	popq	%r15
	popq	%rbp
	retq
LBB24_17:
	testq	%rax, %rax
	je	LBB24_35
	movq	-72(%rbp), %rdi
	movq	-64(%rbp), %rsi
Ltmp1067:
	callq	__ZN10rayon_core6unwind16resume_unwinding17h5fa1757f689722ceE
Ltmp1068:
	jmp	LBB24_6
LBB24_5:
Ltmp1072:
	leaq	_str.2(%rip), %rdi
	leaq	l___unnamed_1(%rip), %rdx
	movl	$33, %esi
	callq	__ZN4core9panicking5panic17h383a6b80ea7021aaE
Ltmp1073:
	jmp	LBB24_6
LBB24_35:
Ltmp1069:
	leaq	l___unnamed_2(%rip), %rdi
	leaq	l___unnamed_3(%rip), %rdx
	movl	$40, %esi
	callq	__ZN3std9panicking11begin_panic17hd62f0347f881f53aE
Ltmp1070:
	jmp	LBB24_6
LBB24_7:
Ltmp1034:
	leaq	_str.1(%rip), %rdi
	leaq	l___unnamed_4(%rip), %rdx
	movl	$33, %esi
	callq	__ZN4core9panicking5panic17h383a6b80ea7021aaE
Ltmp1035:
	jmp	LBB24_6
LBB24_25:
Ltmp1058:
	leaq	l___unnamed_5(%rip), %rdi
	leaq	l___unnamed_6(%rip), %rdx
	movl	$43, %esi
	callq	__ZN4core9panicking5panic17h383a6b80ea7021aaE
Ltmp1059:
	jmp	LBB24_6
LBB24_33:
Ltmp1056:
	leaq	_str.2(%rip), %rdi
	leaq	l___unnamed_7(%rip), %rdx
	movl	$33, %esi
	callq	__ZN4core9panicking5panic17h383a6b80ea7021aaE
Ltmp1057:
	jmp	LBB24_6
LBB24_45:
Ltmp1071:
	jmp	LBB24_40
LBB24_38:
Ltmp1066:
	jmp	LBB24_44
LBB24_36:
Ltmp1055:
	movq	%rax, %r14
	movq	%r15, %rdi
	movq	%rbx, %rsi
	callq	__ZN5alloc5alloc8box_free17h9438c5f1772b94e3E
	jmp	LBB24_41
LBB24_34:
Ltmp1060:
	movq	%rax, %r14
	leaq	-160(%rbp), %rdi
Ltmp1061:
	callq	__ZN4core3ptr13drop_in_place17hd53146ad14be3b16E
Ltmp1062:
	jmp	LBB24_41
LBB24_39:
Ltmp1063:
LBB24_40:
	movq	%rax, %r14
	jmp	LBB24_41
LBB24_19:
Ltmp1040:
Ltmp1041:
	movq	%rax, %rdi
	callq	__ZN3std9panicking3try7cleanup17hd630ddf77975344aE
Ltmp1042:
	movq	%rdx, %rcx
	leaq	-56(%rbp), %rsi
Ltmp1043:
	movq	%rbx, %rdi
	movq	%rax, %rdx
	callq	__ZN10rayon_core4join23join_recover_from_panic17h47a5fd9714c21a6fE
Ltmp1044:
LBB24_6:
	ud2
LBB24_43:
Ltmp1045:
	jmp	LBB24_44
LBB24_42:
Ltmp1074:
	jmp	LBB24_44
LBB24_37:
Ltmp1050:
LBB24_44:
	movq	%rax, %r14
	leaq	-128(%rbp), %rdi
	callq	__ZN4core3ptr13drop_in_place17h0737b5809d4cb690E
LBB24_41:
	movq	%r14, %rdi
	callq	__Unwind_Resume
	ud2
Lfunc_end24:
	.cfi_endproc
	.section	__TEXT,__gcc_except_tab
	.p2align	2
GCC_except_table24:
Lexception24:
	.byte	255
	.byte	155
	.uleb128 Lttbase24-Lttbaseref24
Lttbaseref24:
	.byte	1
	.uleb128 Lcst_end24-Lcst_begin24
Lcst_begin24:
	.uleb128 Ltmp1032-Lfunc_begin24
	.uleb128 Ltmp1037-Ltmp1032
	.uleb128 Ltmp1074-Lfunc_begin24
	.byte	0
	.uleb128 Ltmp1038-Lfunc_begin24
	.uleb128 Ltmp1039-Ltmp1038
	.uleb128 Ltmp1040-Lfunc_begin24
	.byte	3
	.uleb128 Ltmp1048-Lfunc_begin24
	.uleb128 Ltmp1047-Ltmp1048
	.uleb128 Ltmp1050-Lfunc_begin24
	.byte	0
	.uleb128 Ltmp1051-Lfunc_begin24
	.uleb128 Ltmp1052-Ltmp1051
	.uleb128 Ltmp1060-Lfunc_begin24
	.byte	0
	.uleb128 Ltmp1053-Lfunc_begin24
	.uleb128 Ltmp1054-Ltmp1053
	.uleb128 Ltmp1055-Lfunc_begin24
	.byte	0
	.uleb128 Ltmp1064-Lfunc_begin24
	.uleb128 Ltmp1065-Ltmp1064
	.uleb128 Ltmp1066-Lfunc_begin24
	.byte	0
	.uleb128 Ltmp1067-Lfunc_begin24
	.uleb128 Ltmp1068-Ltmp1067
	.uleb128 Ltmp1071-Lfunc_begin24
	.byte	0
	.uleb128 Ltmp1072-Lfunc_begin24
	.uleb128 Ltmp1073-Ltmp1072
	.uleb128 Ltmp1074-Lfunc_begin24
	.byte	0
	.uleb128 Ltmp1069-Lfunc_begin24
	.uleb128 Ltmp1070-Ltmp1069
	.uleb128 Ltmp1071-Lfunc_begin24
	.byte	0
	.uleb128 Ltmp1034-Lfunc_begin24
	.uleb128 Ltmp1035-Ltmp1034
	.uleb128 Ltmp1074-Lfunc_begin24
	.byte	0
	.uleb128 Ltmp1058-Lfunc_begin24
	.uleb128 Ltmp1057-Ltmp1058
	.uleb128 Ltmp1060-Lfunc_begin24
	.byte	0
	.uleb128 Ltmp1061-Lfunc_begin24
	.uleb128 Ltmp1062-Ltmp1061
	.uleb128 Ltmp1063-Lfunc_begin24
	.byte	0
	.uleb128 Ltmp1041-Lfunc_begin24
	.uleb128 Ltmp1042-Ltmp1041
	.uleb128 Ltmp1074-Lfunc_begin24
	.byte	0
	.uleb128 Ltmp1043-Lfunc_begin24
	.uleb128 Ltmp1044-Ltmp1043
	.uleb128 Ltmp1045-Lfunc_begin24
	.byte	0
	.uleb128 Ltmp1044-Lfunc_begin24
	.uleb128 Lfunc_end24-Ltmp1044
	.byte	0
	.byte	0
Lcst_end24:
	.byte	0
	.byte	0
	.byte	1
	.byte	125
	.p2align	2
	.long	0
Lttbase24:
	.p2align	2

	.section	__TEXT,__text,regular,pure_instructions
	.p2align	4, 0x90
__ZN10rayon_core4join12join_context28_$u7b$$u7b$closure$u7d$$u7d$17hf4e0a4162b48def8E:
Lfunc_begin25:
	.cfi_startproc
	.cfi_personality 155, _rust_eh_personality
	.cfi_lsda 16, Lexception25
	pushq	%rbp
	.cfi_def_cfa_offset 16
	.cfi_offset %rbp, -16
	movq	%rsp, %rbp
	.cfi_def_cfa_register %rbp
	pushq	%r15
	pushq	%r14
	pushq	%r13
	pushq	%r12
	pushq	%rbx
	subq	$184, %rsp
	.cfi_offset %rbx, -56
	.cfi_offset %r12, -48
	.cfi_offset %r13, -40
	.cfi_offset %r14, -32
	.cfi_offset %r15, -24
	movq	%rsi, %rbx
	movq	%rdi, %r15
	movq	40(%rdi), %rax
	movq	%rax, -88(%rbp)
	movq	32(%rdi), %rax
	movq	%rax, -96(%rbp)
	movq	24(%rdi), %rax
	movq	%rax, -104(%rbp)
	movq	16(%rdi), %rax
	movq	%rax, -112(%rbp)
	movq	(%rdi), %rax
	movq	8(%rdi), %rcx
	movq	%rcx, -120(%rbp)
	movq	%rax, -128(%rbp)
	movb	$0, -56(%rbp)
	movq	$0, -80(%rbp)
	movq	256(%rsi), %rax
	movq	264(%rax), %r14
	movq	256(%rax), %rax
	movq	272(%rsi), %rsi
	movq	%r14, %rcx
	subq	%rax, %rcx
	cmpq	%rsi, %rcx
	movl	%edx, -44(%rbp)
	jl	LBB25_4
	addq	%rsi, %rsi
	jb	LBB25_7
	leaq	256(%rbx), %rdi
Ltmp1075:
	callq	__ZN15crossbeam_deque15Worker$LT$T$GT$6resize17h73667af9f54c6c19E
Ltmp1076:
	movq	272(%rbx), %rsi
LBB25_4:
	subq	$1, %rsi
	jb	LBB25_5
	movq	264(%rbx), %rax
	andq	%r14, %rsi
	shlq	$4, %rsi
	leaq	-128(%rbp), %r12
	movq	%r12, (%rax,%rsi)
	leaq	__ZN83_$LT$rayon_core..job..StackJob$LT$L$C$F$C$R$GT$$u20$as$u20$rayon_core..job..Job$GT$7execute17h29f2edde92bf873eE(%rip), %r13
	movq	%r13, 8(%rax,%rsi)
	##MEMBARRIER
	movq	256(%rbx), %rax
	incq	%r14
	movq	%r14, 264(%rax)
	movl	$408, %edi
	addq	304(%rbx), %rdi
	movq	288(%rbx), %rsi
Ltmp1079:
	callq	__ZN10rayon_core5sleep5Sleep6tickle17h5038bd408706a5c1E
Ltmp1080:
	movq	48(%r15), %rax
	movq	56(%r15), %rcx
	movq	64(%r15), %r8
	movq	72(%r15), %r9
	movq	80(%r15), %rsi
	movq	(%rax), %rdi
	movq	(%rcx), %rdx
	movq	8(%rcx), %rcx
Ltmp1081:
	movq	%rsi, (%rsp)
	movzbl	-44(%rbp), %r14d
	movl	%r14d, %esi
	callq	__ZN5rayon4iter8plumbing24bridge_producer_consumer6helper17h009a773ce90dd8bcE
Ltmp1082:
	leaq	-56(%rbp), %r15
	jmp	LBB25_11
	.p2align	4, 0x90
LBB25_23:
Ltmp1091:
	movq	%rbx, %rdi
	movq	%rax, %rsi
	callq	__ZN10rayon_core8registry12WorkerThread7execute17hc504892f49177628E
Ltmp1092:
LBB25_11:
	movzbl	-56(%rbp), %eax
	testb	%al, %al
	jne	LBB25_16
Ltmp1089:
	movq	%rbx, %rdi
	callq	__ZN10rayon_core8registry12WorkerThread14take_local_job17h4a60902ba985e6d4E
Ltmp1090:
	testq	%rdx, %rdx
	je	LBB25_14
	cmpq	%r12, %rax
	jne	LBB25_23
	cmpq	%r13, %rdx
	jne	LBB25_23
	leaq	-208(%rbp), %rdi
	leaq	-128(%rbp), %rsi
	movl	$10, %ecx
	rep;movsq (%rsi), %es:(%rdi)
	movq	-208(%rbp), %rax
	testq	%rax, %rax
	je	LBB25_25
	movq	-200(%rbp), %rcx
	movq	(%rax), %rdi
	subq	(%rcx), %rdi
	jb	LBB25_27
	movq	-192(%rbp), %rax
	movq	-184(%rbp), %r8
	movq	-176(%rbp), %r9
	movq	-168(%rbp), %rsi
	movq	(%rax), %rdx
	movq	8(%rax), %rcx
Ltmp1094:
	movq	%rsi, (%rsp)
	movl	%r14d, %esi
	callq	__ZN5rayon4iter8plumbing24bridge_producer_consumer6helper17h009a773ce90dd8bcE
Ltmp1095:
	cmpl	$2, -160(%rbp)
	jb	LBB25_33
	movq	-152(%rbp), %r15
	movq	-144(%rbp), %rbx
Ltmp1096:
	movq	%r15, %rdi
	callq	*(%rbx)
Ltmp1097:
	movq	8(%rbx), %rsi
	testq	%rsi, %rsi
	je	LBB25_33
	movq	16(%rbx), %rdx
	movq	%r15, %rdi
	callq	___rust_dealloc
	jmp	LBB25_33
LBB25_14:
	movb	-56(%rbp), %al
	testb	%al, %al
	jne	LBB25_16
Ltmp1107:
	movq	%rbx, %rdi
	movq	%r15, %rsi
	callq	__ZN10rayon_core8registry12WorkerThread15wait_until_cold17h85a044fa98ca4aa2E
Ltmp1108:
LBB25_16:
	movq	-80(%rbp), %rax
	cmpq	$1, %rax
	jne	LBB25_17
LBB25_33:
	addq	$184, %rsp
	popq	%rbx
	popq	%r12
	popq	%r13
	popq	%r14
	popq	%r15
	popq	%rbp
	retq
LBB25_17:
	testq	%rax, %rax
	je	LBB25_35
	movq	-72(%rbp), %rdi
	movq	-64(%rbp), %rsi
Ltmp1110:
	callq	__ZN10rayon_core6unwind16resume_unwinding17h5fa1757f689722ceE
Ltmp1111:
	jmp	LBB25_6
LBB25_5:
Ltmp1115:
	leaq	_str.2(%rip), %rdi
	leaq	l___unnamed_1(%rip), %rdx
	movl	$33, %esi
	callq	__ZN4core9panicking5panic17h383a6b80ea7021aaE
Ltmp1116:
	jmp	LBB25_6
LBB25_35:
Ltmp1112:
	leaq	l___unnamed_2(%rip), %rdi
	leaq	l___unnamed_3(%rip), %rdx
	movl	$40, %esi
	callq	__ZN3std9panicking11begin_panic17hd62f0347f881f53aE
Ltmp1113:
	jmp	LBB25_6
LBB25_7:
Ltmp1077:
	leaq	_str.1(%rip), %rdi
	leaq	l___unnamed_4(%rip), %rdx
	movl	$33, %esi
	callq	__ZN4core9panicking5panic17h383a6b80ea7021aaE
Ltmp1078:
	jmp	LBB25_6
LBB25_25:
Ltmp1101:
	leaq	l___unnamed_5(%rip), %rdi
	leaq	l___unnamed_6(%rip), %rdx
	movl	$43, %esi
	callq	__ZN4core9panicking5panic17h383a6b80ea7021aaE
Ltmp1102:
	jmp	LBB25_6
LBB25_27:
Ltmp1099:
	leaq	_str.2(%rip), %rdi
	leaq	l___unnamed_7(%rip), %rdx
	movl	$33, %esi
	callq	__ZN4core9panicking5panic17h383a6b80ea7021aaE
Ltmp1100:
	jmp	LBB25_6
LBB25_45:
Ltmp1114:
	jmp	LBB25_40
LBB25_38:
Ltmp1109:
	jmp	LBB25_44
LBB25_36:
Ltmp1098:
	movq	%rax, %r14
	movq	%r15, %rdi
	movq	%rbx, %rsi
	callq	__ZN5alloc5alloc8box_free17h9438c5f1772b94e3E
	jmp	LBB25_41
LBB25_34:
Ltmp1103:
	movq	%rax, %r14
	leaq	-160(%rbp), %rdi
Ltmp1104:
	callq	__ZN4core3ptr13drop_in_place17hd53146ad14be3b16E
Ltmp1105:
	jmp	LBB25_41
LBB25_39:
Ltmp1106:
LBB25_40:
	movq	%rax, %r14
	jmp	LBB25_41
LBB25_19:
Ltmp1083:
Ltmp1084:
	movq	%rax, %rdi
	callq	__ZN3std9panicking3try7cleanup17hd630ddf77975344aE
Ltmp1085:
	movq	%rdx, %rcx
	leaq	-56(%rbp), %rsi
Ltmp1086:
	movq	%rbx, %rdi
	movq	%rax, %rdx
	callq	__ZN10rayon_core4join23join_recover_from_panic17h47a5fd9714c21a6fE
Ltmp1087:
LBB25_6:
	ud2
LBB25_43:
Ltmp1088:
	jmp	LBB25_44
LBB25_42:
Ltmp1117:
	jmp	LBB25_44
LBB25_37:
Ltmp1093:
LBB25_44:
	movq	%rax, %r14
	leaq	-128(%rbp), %rdi
	callq	__ZN4core3ptr13drop_in_place17h0737b5809d4cb690E
LBB25_41:
	movq	%r14, %rdi
	callq	__Unwind_Resume
	ud2
Lfunc_end25:
	.cfi_endproc
	.section	__TEXT,__gcc_except_tab
	.p2align	2
GCC_except_table25:
Lexception25:
	.byte	255
	.byte	155
	.uleb128 Lttbase25-Lttbaseref25
Lttbaseref25:
	.byte	1
	.uleb128 Lcst_end25-Lcst_begin25
Lcst_begin25:
	.uleb128 Ltmp1075-Lfunc_begin25
	.uleb128 Ltmp1080-Ltmp1075
	.uleb128 Ltmp1117-Lfunc_begin25
	.byte	0
	.uleb128 Ltmp1081-Lfunc_begin25
	.uleb128 Ltmp1082-Ltmp1081
	.uleb128 Ltmp1083-Lfunc_begin25
	.byte	3
	.uleb128 Ltmp1091-Lfunc_begin25
	.uleb128 Ltmp1090-Ltmp1091
	.uleb128 Ltmp1093-Lfunc_begin25
	.byte	0
	.uleb128 Ltmp1094-Lfunc_begin25
	.uleb128 Ltmp1095-Ltmp1094
	.uleb128 Ltmp1103-Lfunc_begin25
	.byte	0
	.uleb128 Ltmp1096-Lfunc_begin25
	.uleb128 Ltmp1097-Ltmp1096
	.uleb128 Ltmp1098-Lfunc_begin25
	.byte	0
	.uleb128 Ltmp1107-Lfunc_begin25
	.uleb128 Ltmp1108-Ltmp1107
	.uleb128 Ltmp1109-Lfunc_begin25
	.byte	0
	.uleb128 Ltmp1110-Lfunc_begin25
	.uleb128 Ltmp1111-Ltmp1110
	.uleb128 Ltmp1114-Lfunc_begin25
	.byte	0
	.uleb128 Ltmp1115-Lfunc_begin25
	.uleb128 Ltmp1116-Ltmp1115
	.uleb128 Ltmp1117-Lfunc_begin25
	.byte	0
	.uleb128 Ltmp1112-Lfunc_begin25
	.uleb128 Ltmp1113-Ltmp1112
	.uleb128 Ltmp1114-Lfunc_begin25
	.byte	0
	.uleb128 Ltmp1077-Lfunc_begin25
	.uleb128 Ltmp1078-Ltmp1077
	.uleb128 Ltmp1117-Lfunc_begin25
	.byte	0
	.uleb128 Ltmp1101-Lfunc_begin25
	.uleb128 Ltmp1100-Ltmp1101
	.uleb128 Ltmp1103-Lfunc_begin25
	.byte	0
	.uleb128 Ltmp1104-Lfunc_begin25
	.uleb128 Ltmp1105-Ltmp1104
	.uleb128 Ltmp1106-Lfunc_begin25
	.byte	0
	.uleb128 Ltmp1084-Lfunc_begin25
	.uleb128 Ltmp1085-Ltmp1084
	.uleb128 Ltmp1117-Lfunc_begin25
	.byte	0
	.uleb128 Ltmp1086-Lfunc_begin25
	.uleb128 Ltmp1087-Ltmp1086
	.uleb128 Ltmp1088-Lfunc_begin25
	.byte	0
	.uleb128 Ltmp1087-Lfunc_begin25
	.uleb128 Lfunc_end25-Ltmp1087
	.byte	0
	.byte	0
Lcst_end25:
	.byte	0
	.byte	0
	.byte	1
	.byte	125
	.p2align	2
	.long	0
Lttbase25:
	.p2align	2

	.section	__TEXT,__text,regular,pure_instructions
	.p2align	4, 0x90
__ZN10rayon_core4join12join_context28_$u7b$$u7b$closure$u7d$$u7d$17hf88774d84bc1afe2E:
Lfunc_begin26:
	.cfi_startproc
	.cfi_personality 155, _rust_eh_personality
	.cfi_lsda 16, Lexception26
	pushq	%rbp
	.cfi_def_cfa_offset 16
	.cfi_offset %rbp, -16
	movq	%rsp, %rbp
	.cfi_def_cfa_register %rbp
	pushq	%r15
	pushq	%r14
	pushq	%r13
	pushq	%r12
	pushq	%rbx
	subq	$184, %rsp
	.cfi_offset %rbx, -56
	.cfi_offset %r12, -48
	.cfi_offset %r13, -40
	.cfi_offset %r14, -32
	.cfi_offset %r15, -24
	movq	%rsi, %rbx
	movq	%rdi, %r15
	movq	40(%rdi), %rax
	movq	%rax, -88(%rbp)
	movq	32(%rdi), %rax
	movq	%rax, -96(%rbp)
	movq	24(%rdi), %rax
	movq	%rax, -104(%rbp)
	movq	16(%rdi), %rax
	movq	%rax, -112(%rbp)
	movq	(%rdi), %rax
	movq	8(%rdi), %rcx
	movq	%rcx, -120(%rbp)
	movq	%rax, -128(%rbp)
	movb	$0, -56(%rbp)
	movq	$0, -80(%rbp)
	movq	256(%rsi), %rax
	movq	264(%rax), %r14
	movq	256(%rax), %rax
	movq	272(%rsi), %rsi
	movq	%r14, %rcx
	subq	%rax, %rcx
	cmpq	%rsi, %rcx
	movl	%edx, -44(%rbp)
	jl	LBB26_4
	addq	%rsi, %rsi
	jb	LBB26_7
	leaq	256(%rbx), %rdi
Ltmp1118:
	callq	__ZN15crossbeam_deque15Worker$LT$T$GT$6resize17h73667af9f54c6c19E
Ltmp1119:
	movq	272(%rbx), %rsi
LBB26_4:
	subq	$1, %rsi
	jb	LBB26_5
	movq	264(%rbx), %rax
	andq	%r14, %rsi
	shlq	$4, %rsi
	leaq	-128(%rbp), %r12
	movq	%r12, (%rax,%rsi)
	leaq	__ZN83_$LT$rayon_core..job..StackJob$LT$L$C$F$C$R$GT$$u20$as$u20$rayon_core..job..Job$GT$7execute17hc798c03781f9b8b3E(%rip), %r13
	movq	%r13, 8(%rax,%rsi)
	##MEMBARRIER
	movq	256(%rbx), %rax
	incq	%r14
	movq	%r14, 264(%rax)
	movl	$408, %edi
	addq	304(%rbx), %rdi
	movq	288(%rbx), %rsi
Ltmp1122:
	callq	__ZN10rayon_core5sleep5Sleep6tickle17h5038bd408706a5c1E
Ltmp1123:
	movq	48(%r15), %rax
	movq	56(%r15), %rcx
	movq	64(%r15), %r8
	movq	72(%r15), %r9
	movq	80(%r15), %rsi
	movq	(%rax), %rdi
	movq	(%rcx), %rdx
	movq	8(%rcx), %rcx
Ltmp1124:
	movq	%rsi, (%rsp)
	movzbl	-44(%rbp), %r14d
	movl	%r14d, %esi
	callq	__ZN5rayon4iter8plumbing24bridge_producer_consumer6helper17hd2911ac9bc69a560E
Ltmp1125:
	leaq	-56(%rbp), %r15
	jmp	LBB26_11
	.p2align	4, 0x90
LBB26_23:
Ltmp1134:
	movq	%rbx, %rdi
	movq	%rax, %rsi
	callq	__ZN10rayon_core8registry12WorkerThread7execute17hc504892f49177628E
Ltmp1135:
LBB26_11:
	movzbl	-56(%rbp), %eax
	testb	%al, %al
	jne	LBB26_16
Ltmp1132:
	movq	%rbx, %rdi
	callq	__ZN10rayon_core8registry12WorkerThread14take_local_job17h4a60902ba985e6d4E
Ltmp1133:
	testq	%rdx, %rdx
	je	LBB26_14
	cmpq	%r12, %rax
	jne	LBB26_23
	cmpq	%r13, %rdx
	jne	LBB26_23
	leaq	-208(%rbp), %rdi
	leaq	-128(%rbp), %rsi
	movl	$10, %ecx
	rep;movsq (%rsi), %es:(%rdi)
	movq	-208(%rbp), %rax
	testq	%rax, %rax
	je	LBB26_25
	movq	-200(%rbp), %rcx
	movq	(%rax), %rdi
	subq	(%rcx), %rdi
	jb	LBB26_33
	movq	-192(%rbp), %rax
	movq	-184(%rbp), %r8
	movq	-176(%rbp), %r9
	movq	-168(%rbp), %rsi
	movq	(%rax), %rdx
	movq	8(%rax), %rcx
Ltmp1137:
	movq	%rsi, (%rsp)
	movl	%r14d, %esi
	callq	__ZN5rayon4iter8plumbing24bridge_producer_consumer6helper17hd2911ac9bc69a560E
Ltmp1138:
	cmpl	$2, -160(%rbp)
	jb	LBB26_32
	movq	-152(%rbp), %r15
	movq	-144(%rbp), %rbx
Ltmp1139:
	movq	%r15, %rdi
	callq	*(%rbx)
Ltmp1140:
	movq	8(%rbx), %rsi
	testq	%rsi, %rsi
	je	LBB26_32
	movq	16(%rbx), %rdx
	movq	%r15, %rdi
	callq	___rust_dealloc
	jmp	LBB26_32
LBB26_14:
	movb	-56(%rbp), %al
	testb	%al, %al
	jne	LBB26_16
Ltmp1150:
	movq	%rbx, %rdi
	movq	%r15, %rsi
	callq	__ZN10rayon_core8registry12WorkerThread15wait_until_cold17h85a044fa98ca4aa2E
Ltmp1151:
LBB26_16:
	movq	-80(%rbp), %rax
	cmpq	$1, %rax
	jne	LBB26_17
LBB26_32:
	addq	$184, %rsp
	popq	%rbx
	popq	%r12
	popq	%r13
	popq	%r14
	popq	%r15
	popq	%rbp
	retq
LBB26_17:
	testq	%rax, %rax
	je	LBB26_35
	movq	-72(%rbp), %rdi
	movq	-64(%rbp), %rsi
Ltmp1153:
	callq	__ZN10rayon_core6unwind16resume_unwinding17h5fa1757f689722ceE
Ltmp1154:
	jmp	LBB26_6
LBB26_5:
Ltmp1158:
	leaq	_str.2(%rip), %rdi
	leaq	l___unnamed_1(%rip), %rdx
	movl	$33, %esi
	callq	__ZN4core9panicking5panic17h383a6b80ea7021aaE
Ltmp1159:
	jmp	LBB26_6
LBB26_35:
Ltmp1155:
	leaq	l___unnamed_2(%rip), %rdi
	leaq	l___unnamed_3(%rip), %rdx
	movl	$40, %esi
	callq	__ZN3std9panicking11begin_panic17hd62f0347f881f53aE
Ltmp1156:
	jmp	LBB26_6
LBB26_7:
Ltmp1120:
	leaq	_str.1(%rip), %rdi
	leaq	l___unnamed_4(%rip), %rdx
	movl	$33, %esi
	callq	__ZN4core9panicking5panic17h383a6b80ea7021aaE
Ltmp1121:
	jmp	LBB26_6
LBB26_25:
Ltmp1144:
	leaq	l___unnamed_5(%rip), %rdi
	leaq	l___unnamed_6(%rip), %rdx
	movl	$43, %esi
	callq	__ZN4core9panicking5panic17h383a6b80ea7021aaE
Ltmp1145:
	jmp	LBB26_6
LBB26_33:
Ltmp1142:
	leaq	_str.2(%rip), %rdi
	leaq	l___unnamed_7(%rip), %rdx
	movl	$33, %esi
	callq	__ZN4core9panicking5panic17h383a6b80ea7021aaE
Ltmp1143:
	jmp	LBB26_6
LBB26_45:
Ltmp1157:
	jmp	LBB26_40
LBB26_38:
Ltmp1152:
	jmp	LBB26_44
LBB26_36:
Ltmp1141:
	movq	%rax, %r14
	movq	%r15, %rdi
	movq	%rbx, %rsi
	callq	__ZN5alloc5alloc8box_free17h9438c5f1772b94e3E
	jmp	LBB26_41
LBB26_34:
Ltmp1146:
	movq	%rax, %r14
	leaq	-160(%rbp), %rdi
Ltmp1147:
	callq	__ZN4core3ptr13drop_in_place17hd53146ad14be3b16E
Ltmp1148:
	jmp	LBB26_41
LBB26_39:
Ltmp1149:
LBB26_40:
	movq	%rax, %r14
	jmp	LBB26_41
LBB26_19:
Ltmp1126:
Ltmp1127:
	movq	%rax, %rdi
	callq	__ZN3std9panicking3try7cleanup17hd630ddf77975344aE
Ltmp1128:
	movq	%rdx, %rcx
	leaq	-56(%rbp), %rsi
Ltmp1129:
	movq	%rbx, %rdi
	movq	%rax, %rdx
	callq	__ZN10rayon_core4join23join_recover_from_panic17h47a5fd9714c21a6fE
Ltmp1130:
LBB26_6:
	ud2
LBB26_43:
Ltmp1131:
	jmp	LBB26_44
LBB26_42:
Ltmp1160:
	jmp	LBB26_44
LBB26_37:
Ltmp1136:
LBB26_44:
	movq	%rax, %r14
	leaq	-128(%rbp), %rdi
	callq	__ZN4core3ptr13drop_in_place17h0737b5809d4cb690E
LBB26_41:
	movq	%r14, %rdi
	callq	__Unwind_Resume
	ud2
Lfunc_end26:
	.cfi_endproc
	.section	__TEXT,__gcc_except_tab
	.p2align	2
GCC_except_table26:
Lexception26:
	.byte	255
	.byte	155
	.uleb128 Lttbase26-Lttbaseref26
Lttbaseref26:
	.byte	1
	.uleb128 Lcst_end26-Lcst_begin26
Lcst_begin26:
	.uleb128 Ltmp1118-Lfunc_begin26
	.uleb128 Ltmp1123-Ltmp1118
	.uleb128 Ltmp1160-Lfunc_begin26
	.byte	0
	.uleb128 Ltmp1124-Lfunc_begin26
	.uleb128 Ltmp1125-Ltmp1124
	.uleb128 Ltmp1126-Lfunc_begin26
	.byte	3
	.uleb128 Ltmp1134-Lfunc_begin26
	.uleb128 Ltmp1133-Ltmp1134
	.uleb128 Ltmp1136-Lfunc_begin26
	.byte	0
	.uleb128 Ltmp1137-Lfunc_begin26
	.uleb128 Ltmp1138-Ltmp1137
	.uleb128 Ltmp1146-Lfunc_begin26
	.byte	0
	.uleb128 Ltmp1139-Lfunc_begin26
	.uleb128 Ltmp1140-Ltmp1139
	.uleb128 Ltmp1141-Lfunc_begin26
	.byte	0
	.uleb128 Ltmp1150-Lfunc_begin26
	.uleb128 Ltmp1151-Ltmp1150
	.uleb128 Ltmp1152-Lfunc_begin26
	.byte	0
	.uleb128 Ltmp1153-Lfunc_begin26
	.uleb128 Ltmp1154-Ltmp1153
	.uleb128 Ltmp1157-Lfunc_begin26
	.byte	0
	.uleb128 Ltmp1158-Lfunc_begin26
	.uleb128 Ltmp1159-Ltmp1158
	.uleb128 Ltmp1160-Lfunc_begin26
	.byte	0
	.uleb128 Ltmp1155-Lfunc_begin26
	.uleb128 Ltmp1156-Ltmp1155
	.uleb128 Ltmp1157-Lfunc_begin26
	.byte	0
	.uleb128 Ltmp1120-Lfunc_begin26
	.uleb128 Ltmp1121-Ltmp1120
	.uleb128 Ltmp1160-Lfunc_begin26
	.byte	0
	.uleb128 Ltmp1144-Lfunc_begin26
	.uleb128 Ltmp1143-Ltmp1144
	.uleb128 Ltmp1146-Lfunc_begin26
	.byte	0
	.uleb128 Ltmp1147-Lfunc_begin26
	.uleb128 Ltmp1148-Ltmp1147
	.uleb128 Ltmp1149-Lfunc_begin26
	.byte	0
	.uleb128 Ltmp1127-Lfunc_begin26
	.uleb128 Ltmp1128-Ltmp1127
	.uleb128 Ltmp1160-Lfunc_begin26
	.byte	0
	.uleb128 Ltmp1129-Lfunc_begin26
	.uleb128 Ltmp1130-Ltmp1129
	.uleb128 Ltmp1131-Lfunc_begin26
	.byte	0
	.uleb128 Ltmp1130-Lfunc_begin26
	.uleb128 Lfunc_end26-Ltmp1130
	.byte	0
	.byte	0
Lcst_end26:
	.byte	0
	.byte	0
	.byte	1
	.byte	125
	.p2align	2
	.long	0
Lttbase26:
	.p2align	2

	.section	__TEXT,__text,regular,pure_instructions
	.p2align	4, 0x90
__ZN10rayon_core4join12join_context28_$u7b$$u7b$closure$u7d$$u7d$17hfb6689bd624d7ff8E:
Lfunc_begin27:
	.cfi_startproc
	.cfi_personality 155, _rust_eh_personality
	.cfi_lsda 16, Lexception27
	pushq	%rbp
	.cfi_def_cfa_offset 16
	.cfi_offset %rbp, -16
	movq	%rsp, %rbp
	.cfi_def_cfa_register %rbp
	pushq	%r15
	pushq	%r14
	pushq	%r13
	pushq	%r12
	pushq	%rbx
	andq	$-64, %rsp
	subq	$1024, %rsp
	.cfi_offset %rbx, -56
	.cfi_offset %r12, -48
	.cfi_offset %r13, -40
	.cfi_offset %r14, -32
	.cfi_offset %r15, -24
	movl	%ecx, %r8d
	movq	%rdx, %rbx
	movq	%rsi, %r12
	movq	%rdi, 184(%rsp)
	movb	$0, 928(%rsp)
	leaq	832(%rsp), %rdi
	movl	$12, %ecx
	rep;movsq (%rsi), %es:(%rdi)
	movq	$0, 704(%rsp)
	movq	256(%rdx), %rax
	movq	264(%rax), %r14
	movq	256(%rax), %rax
	movq	272(%rdx), %rsi
	movq	%r14, %rcx
	subq	%rax, %rcx
	cmpq	%rsi, %rcx
	movl	%r8d, 192(%rsp)
	jl	LBB27_4
	addq	%rsi, %rsi
	jb	LBB27_7
	leaq	256(%rbx), %rdi
Ltmp1161:
	callq	__ZN15crossbeam_deque15Worker$LT$T$GT$6resize17h73667af9f54c6c19E
Ltmp1162:
	movq	272(%rbx), %rsi
LBB27_4:
	subq	$1, %rsi
	jb	LBB27_5
	movq	264(%rbx), %rax
	andq	%r14, %rsi
	shlq	$4, %rsi
	leaq	704(%rsp), %r13
	movq	%r13, (%rax,%rsi)
	leaq	__ZN83_$LT$rayon_core..job..StackJob$LT$L$C$F$C$R$GT$$u20$as$u20$rayon_core..job..Job$GT$7execute17h55761e170b2eaf7fE(%rip), %r15
	movq	%r15, 8(%rax,%rsi)
	##MEMBARRIER
	movq	256(%rbx), %rax
	incq	%r14
	movq	%r14, 264(%rax)
	movl	$408, %edi
	addq	304(%rbx), %rdi
	movq	288(%rbx), %rsi
Ltmp1165:
	callq	__ZN10rayon_core5sleep5Sleep6tickle17h5038bd408706a5c1E
Ltmp1166:
	movups	112(%r12), %xmm0
	movups	128(%r12), %xmm1
	movups	144(%r12), %xmm2
	movq	176(%r12), %r9
	movdqu	96(%r12), %xmm3
	movq	%xmm3, %rcx
	pshufd	$78, %xmm3, %xmm3
	movq	%xmm3, %rdx
	movq	160(%r12), %rdi
	movq	168(%r12), %rax
	movq	%rax, 216(%rsp)
	movq	%rdi, 208(%rsp)
	movq	(%rcx), %rsi
	movq	(%rdx), %rcx
	movq	8(%rdx), %r8
	movups	%xmm2, 416(%rsp)
	movups	%xmm1, 400(%rsp)
	movups	%xmm0, 384(%rsp)
	movq	%rdi, 432(%rsp)
	movq	%rax, 440(%rsp)
Ltmp1167:
	movq	%r9, (%rsp)
	movzbl	192(%rsp), %r12d
	leaq	64(%rsp), %rdi
	leaq	384(%rsp), %r9
	movl	%r12d, %edx
	callq	__ZN5rayon4iter8plumbing24bridge_producer_consumer6helper17hb40aec971856deafE
Ltmp1168:
	movaps	64(%rsp), %xmm0
	movaps	%xmm0, 304(%rsp)
	movaps	80(%rsp), %xmm0
	movaps	%xmm0, 288(%rsp)
	movaps	96(%rsp), %xmm0
	movaps	%xmm0, 272(%rsp)
	movaps	112(%rsp), %xmm0
	movaps	%xmm0, 192(%rsp)
	leaq	928(%rsp), %r14
	jmp	LBB27_11
	.p2align	4, 0x90
LBB27_23:
Ltmp1177:
	movq	%rbx, %rdi
	movq	%rax, %rsi
	callq	__ZN10rayon_core8registry12WorkerThread7execute17hc504892f49177628E
Ltmp1178:
LBB27_11:
	movzbl	928(%rsp), %eax
	testb	%al, %al
	jne	LBB27_16
Ltmp1175:
	movq	%rbx, %rdi
	callq	__ZN10rayon_core8registry12WorkerThread14take_local_job17h4a60902ba985e6d4E
Ltmp1176:
	testq	%rdx, %rdx
	je	LBB27_14
	cmpq	%r13, %rax
	jne	LBB27_23
	cmpq	%r15, %rdx
	jne	LBB27_23
	leaq	384(%rsp), %rdi
	leaq	704(%rsp), %rsi
	movl	$256, %edx
	callq	_memcpy
	movq	512(%rsp), %r11
	movq	520(%rsp), %r8
	movq	528(%rsp), %r10
	movq	536(%rsp), %rdx
	movq	%rdx, 64(%rsp)
	movq	544(%rsp), %rdx
	movq	%rdx, 72(%rsp)
	movq	552(%rsp), %rdx
	movq	%rdx, 80(%rsp)
	movq	560(%rsp), %rdx
	movq	%rdx, 88(%rsp)
	movq	568(%rsp), %rdx
	movq	%rdx, 96(%rsp)
	movq	576(%rsp), %rdx
	movq	%rdx, 104(%rsp)
	movq	584(%rsp), %rdx
	movq	%rdx, 112(%rsp)
	movq	592(%rsp), %rdx
	movq	%rdx, 120(%rsp)
	testq	%r11, %r11
	je	LBB27_25
	movq	600(%rsp), %r9
	movq	120(%rsp), %rdi
	movq	%rdi, 376(%rsp)
	movq	112(%rsp), %r14
	movq	%r14, 368(%rsp)
	movq	104(%rsp), %rbx
	movq	%rbx, 360(%rsp)
	movq	96(%rsp), %rdx
	movq	%rdx, 352(%rsp)
	movq	88(%rsp), %rcx
	movq	%rcx, 344(%rsp)
	movq	80(%rsp), %rax
	movq	%rax, 336(%rsp)
	movq	64(%rsp), %rsi
	movq	72(%rsp), %rdi
	movq	%rdi, 328(%rsp)
	movq	%rsi, 320(%rsp)
	movq	%r14, 256(%rsp)
	movq	%rbx, 248(%rsp)
	movq	%rdx, 240(%rsp)
	movq	%rcx, 232(%rsp)
	movq	%rax, 224(%rsp)
	movq	%rdi, 216(%rsp)
	movq	%rsi, 208(%rsp)
	movq	376(%rsp), %rax
	movq	%rax, 264(%rsp)
	movq	(%r11), %rsi
	subq	(%r8), %rsi
	jb	LBB27_27
	movq	(%r10), %rcx
	movq	8(%r10), %r8
	movq	264(%rsp), %rax
	movq	%rax, 120(%rsp)
	movq	256(%rsp), %rax
	movq	%rax, 112(%rsp)
	movq	248(%rsp), %rax
	movq	%rax, 104(%rsp)
	movq	240(%rsp), %rax
	movq	%rax, 96(%rsp)
	movq	232(%rsp), %rax
	movq	%rax, 88(%rsp)
	movq	224(%rsp), %rax
	movq	%rax, 80(%rsp)
	movq	208(%rsp), %rax
	movq	216(%rsp), %rdx
	movq	%rdx, 72(%rsp)
	movq	%rax, 64(%rsp)
Ltmp1180:
	movq	%r9, (%rsp)
	leaq	640(%rsp), %rdi
	leaq	64(%rsp), %r9
	movl	%r12d, %edx
	callq	__ZN5rayon4iter8plumbing24bridge_producer_consumer6helper17hb40aec971856deafE
Ltmp1181:
	cmpl	$2, 384(%rsp)
	jb	LBB27_33
	movq	392(%rsp), %r15
	movq	400(%rsp), %rbx
Ltmp1182:
	movq	%r15, %rdi
	callq	*(%rbx)
Ltmp1183:
	movq	8(%rbx), %rsi
	testq	%rsi, %rsi
	je	LBB27_33
	movq	16(%rbx), %rdx
	movq	%r15, %rdi
	callq	___rust_dealloc
LBB27_33:
	movaps	640(%rsp), %xmm0
	movaps	656(%rsp), %xmm1
	movaps	672(%rsp), %xmm2
	movaps	688(%rsp), %xmm3
	movq	184(%rsp), %rax
	movaps	272(%rsp), %xmm4
	movaps	%xmm4, 32(%rax)
	movaps	288(%rsp), %xmm4
	movaps	%xmm4, 16(%rax)
	movaps	304(%rsp), %xmm4
	movaps	%xmm4, (%rax)
	movaps	192(%rsp), %xmm4
	movaps	%xmm4, 48(%rax)
	movaps	%xmm3, 112(%rax)
	movaps	%xmm2, 96(%rax)
	movaps	%xmm1, 80(%rax)
	movaps	%xmm0, 64(%rax)
	jmp	LBB27_34
LBB27_14:
	movb	928(%rsp), %al
	testb	%al, %al
	jne	LBB27_16
Ltmp1193:
	movq	%rbx, %rdi
	movq	%r14, %rsi
	callq	__ZN10rayon_core8registry12WorkerThread15wait_until_cold17h85a044fa98ca4aa2E
Ltmp1194:
LBB27_16:
	movq	704(%rsp), %rax
	cmpq	$1, %rax
	jne	LBB27_17
	movaps	768(%rsp), %xmm0
	movaps	784(%rsp), %xmm1
	movaps	800(%rsp), %xmm2
	movaps	816(%rsp), %xmm3
	movq	184(%rsp), %rax
	movaps	304(%rsp), %xmm4
	movaps	%xmm4, (%rax)
	movaps	288(%rsp), %xmm4
	movaps	%xmm4, 16(%rax)
	movaps	272(%rsp), %xmm4
	movaps	%xmm4, 32(%rax)
	movaps	192(%rsp), %xmm4
	movaps	%xmm4, 48(%rax)
	movaps	%xmm2, 96(%rax)
	movaps	%xmm3, 112(%rax)
	movaps	%xmm0, 64(%rax)
	movaps	%xmm1, 80(%rax)
LBB27_34:
	leaq	-40(%rbp), %rsp
	popq	%rbx
	popq	%r12
	popq	%r13
	popq	%r14
	popq	%r15
	popq	%rbp
	retq
LBB27_17:
	testq	%rax, %rax
	je	LBB27_36
	movq	712(%rsp), %rdi
	movq	720(%rsp), %rsi
Ltmp1196:
	callq	__ZN10rayon_core6unwind16resume_unwinding17h5fa1757f689722ceE
Ltmp1197:
	jmp	LBB27_6
LBB27_5:
Ltmp1201:
	leaq	_str.2(%rip), %rdi
	leaq	l___unnamed_1(%rip), %rdx
	movl	$33, %esi
	callq	__ZN4core9panicking5panic17h383a6b80ea7021aaE
Ltmp1202:
	jmp	LBB27_6
LBB27_36:
Ltmp1198:
	leaq	l___unnamed_2(%rip), %rdi
	leaq	l___unnamed_3(%rip), %rdx
	movl	$40, %esi
	callq	__ZN3std9panicking11begin_panic17hd62f0347f881f53aE
Ltmp1199:
	jmp	LBB27_6
LBB27_7:
Ltmp1163:
	leaq	_str.1(%rip), %rdi
	leaq	l___unnamed_4(%rip), %rdx
	movl	$33, %esi
	callq	__ZN4core9panicking5panic17h383a6b80ea7021aaE
Ltmp1164:
	jmp	LBB27_6
LBB27_25:
Ltmp1187:
	leaq	l___unnamed_5(%rip), %rdi
	leaq	l___unnamed_6(%rip), %rdx
	movl	$43, %esi
	callq	__ZN4core9panicking5panic17h383a6b80ea7021aaE
Ltmp1188:
	jmp	LBB27_6
LBB27_27:
Ltmp1185:
	leaq	_str.2(%rip), %rdi
	leaq	l___unnamed_7(%rip), %rdx
	movl	$33, %esi
	callq	__ZN4core9panicking5panic17h383a6b80ea7021aaE
Ltmp1186:
	jmp	LBB27_6
LBB27_47:
Ltmp1200:
	jmp	LBB27_42
LBB27_40:
Ltmp1195:
	jmp	LBB27_46
LBB27_38:
Ltmp1184:
	movq	%rax, %r14
	movq	%r15, %rdi
	movq	%rbx, %rsi
	callq	__ZN5alloc5alloc8box_free17h9438c5f1772b94e3E
	jmp	LBB27_43
LBB27_35:
Ltmp1189:
	movq	%rax, %r14
Ltmp1190:
	leaq	384(%rsp), %rdi
	callq	__ZN4core3ptr13drop_in_place17h0b7def0b7e32d541E
Ltmp1191:
	jmp	LBB27_43
LBB27_41:
Ltmp1192:
LBB27_42:
	movq	%rax, %r14
	jmp	LBB27_43
LBB27_19:
Ltmp1169:
Ltmp1170:
	movq	%rax, %rdi
	callq	__ZN3std9panicking3try7cleanup17hd630ddf77975344aE
Ltmp1171:
	movq	%rdx, %rcx
	leaq	928(%rsp), %rsi
Ltmp1172:
	movq	%rbx, %rdi
	movq	%rax, %rdx
	callq	__ZN10rayon_core4join23join_recover_from_panic17h47a5fd9714c21a6fE
Ltmp1173:
LBB27_6:
	ud2
LBB27_45:
Ltmp1174:
	jmp	LBB27_46
LBB27_44:
Ltmp1203:
	jmp	LBB27_46
LBB27_39:
Ltmp1179:
LBB27_46:
	movq	%rax, %r14
	leaq	704(%rsp), %rdi
	callq	__ZN4core3ptr13drop_in_place17h0b7def0b7e32d541E
LBB27_43:
	movq	%r14, %rdi
	callq	__Unwind_Resume
	ud2
Lfunc_end27:
	.cfi_endproc
	.section	__TEXT,__gcc_except_tab
	.p2align	2
GCC_except_table27:
Lexception27:
	.byte	255
	.byte	155
	.uleb128 Lttbase27-Lttbaseref27
Lttbaseref27:
	.byte	1
	.uleb128 Lcst_end27-Lcst_begin27
Lcst_begin27:
	.uleb128 Ltmp1161-Lfunc_begin27
	.uleb128 Ltmp1166-Ltmp1161
	.uleb128 Ltmp1203-Lfunc_begin27
	.byte	0
	.uleb128 Ltmp1167-Lfunc_begin27
	.uleb128 Ltmp1168-Ltmp1167
	.uleb128 Ltmp1169-Lfunc_begin27
	.byte	3
	.uleb128 Ltmp1177-Lfunc_begin27
	.uleb128 Ltmp1176-Ltmp1177
	.uleb128 Ltmp1179-Lfunc_begin27
	.byte	0
	.uleb128 Ltmp1176-Lfunc_begin27
	.uleb128 Ltmp1180-Ltmp1176
	.byte	0
	.byte	0
	.uleb128 Ltmp1180-Lfunc_begin27
	.uleb128 Ltmp1181-Ltmp1180
	.uleb128 Ltmp1189-Lfunc_begin27
	.byte	0
	.uleb128 Ltmp1182-Lfunc_begin27
	.uleb128 Ltmp1183-Ltmp1182
	.uleb128 Ltmp1184-Lfunc_begin27
	.byte	0
	.uleb128 Ltmp1193-Lfunc_begin27
	.uleb128 Ltmp1194-Ltmp1193
	.uleb128 Ltmp1195-Lfunc_begin27
	.byte	0
	.uleb128 Ltmp1196-Lfunc_begin27
	.uleb128 Ltmp1197-Ltmp1196
	.uleb128 Ltmp1200-Lfunc_begin27
	.byte	0
	.uleb128 Ltmp1201-Lfunc_begin27
	.uleb128 Ltmp1202-Ltmp1201
	.uleb128 Ltmp1203-Lfunc_begin27
	.byte	0
	.uleb128 Ltmp1198-Lfunc_begin27
	.uleb128 Ltmp1199-Ltmp1198
	.uleb128 Ltmp1200-Lfunc_begin27
	.byte	0
	.uleb128 Ltmp1163-Lfunc_begin27
	.uleb128 Ltmp1164-Ltmp1163
	.uleb128 Ltmp1203-Lfunc_begin27
	.byte	0
	.uleb128 Ltmp1187-Lfunc_begin27
	.uleb128 Ltmp1186-Ltmp1187
	.uleb128 Ltmp1189-Lfunc_begin27
	.byte	0
	.uleb128 Ltmp1190-Lfunc_begin27
	.uleb128 Ltmp1191-Ltmp1190
	.uleb128 Ltmp1192-Lfunc_begin27
	.byte	0
	.uleb128 Ltmp1170-Lfunc_begin27
	.uleb128 Ltmp1171-Ltmp1170
	.uleb128 Ltmp1203-Lfunc_begin27
	.byte	0
	.uleb128 Ltmp1172-Lfunc_begin27
	.uleb128 Ltmp1173-Ltmp1172
	.uleb128 Ltmp1174-Lfunc_begin27
	.byte	0
	.uleb128 Ltmp1173-Lfunc_begin27
	.uleb128 Lfunc_end27-Ltmp1173
	.byte	0
	.byte	0
Lcst_end27:
	.byte	0
	.byte	0
	.byte	1
	.byte	125
	.p2align	2
	.long	0
Lttbase27:
	.p2align	2

	.section	__TEXT,__text,regular,pure_instructions
	.p2align	4, 0x90
__ZN10rayon_core8registry12WorkerThread14take_local_job17h4a60902ba985e6d4E:
	.cfi_startproc
	pushq	%rbp
	.cfi_def_cfa_offset 16
	.cfi_offset %rbp, -16
	movq	%rsp, %rbp
	.cfi_def_cfa_register %rbp
	pushq	%r15
	pushq	%r14
	pushq	%rbx
	pushq	%rax
	.cfi_offset %rbx, -40
	.cfi_offset %r14, -32
	.cfi_offset %r15, -24
	movq	256(%rdi), %rsi
	movq	264(%rsi), %rcx
	movq	256(%rsi), %rdx
	movq	%rcx, %rax
	subq	%rdx, %rax
	testq	%rax, %rax
	jle	LBB28_1
	cmpb	$1, 280(%rdi)
	jne	LBB28_8
	leaq	-1(%rcx), %rdx
	movq	%rdx, 264(%rsi)
	mfence
	movq	256(%rdi), %r8
	movq	256(%r8), %rax
	movq	%rdx, %r9
	subq	%rax, %r9
	js	LBB28_13
	movq	272(%rdi), %rsi
	movq	%rsi, %rbx
	subq	$1, %rbx
	jb	LBB28_16
	movq	264(%rdi), %r10
	andq	%rdx, %rbx
	shlq	$4, %rbx
	movq	(%r10,%rbx), %r14
	movq	8(%r10,%rbx), %r15
	testq	%r9, %r9
	je	LBB28_14
	leaq	3(%rsi), %rax
	testq	%rsi, %rsi
	cmovnsq	%rsi, %rax
	cmpq	$65, %rsi
	jb	LBB28_15
	sarq	$2, %rax
	cmpq	%rax, %r9
	jge	LBB28_15
	jmp	LBB28_12
LBB28_1:
	xorl	%r15d, %r15d
	jmp	LBB28_15
LBB28_8:
	movl	$1, %edx
	lock		xaddq	%rdx, 256(%rsi)
	movq	%rdx, %rsi
	notq	%rsi
	addq	%rsi, %rcx
	js	LBB28_17
	movq	272(%rdi), %rsi
	movq	%rsi, %rcx
	subq	$1, %rcx
	jb	LBB28_16
	movq	264(%rdi), %rbx
	andq	%rdx, %rcx
	shlq	$4, %rcx
	movq	(%rbx,%rcx), %r14
	movq	8(%rbx,%rcx), %r15
	leaq	3(%rsi), %rcx
	testq	%rsi, %rsi
	cmovnsq	%rsi, %rcx
	cmpq	$65, %rsi
	jb	LBB28_15
	sarq	$2, %rcx
	cmpq	%rcx, %rax
	jg	LBB28_15
LBB28_12:
	shrq	%rsi
	addq	$256, %rdi
	callq	__ZN15crossbeam_deque15Worker$LT$T$GT$6resize17h73667af9f54c6c19E
	jmp	LBB28_15
LBB28_13:
	movq	%rcx, 264(%r8)
	xorl	%r15d, %r15d
	jmp	LBB28_15
LBB28_17:
	movq	256(%rdi), %rax
	movq	%rdx, 256(%rax)
	xorl	%r15d, %r15d
	jmp	LBB28_15
LBB28_14:
	xorl	%edx, %edx
	leaq	1(%rax), %rsi
	lock		cmpxchgq	%rsi, 256(%r8)
	cmovneq	%rdx, %r15
	movq	256(%rdi), %rax
	movq	%rcx, 264(%rax)
LBB28_15:
	movq	%r14, %rax
	movq	%r15, %rdx
	addq	$8, %rsp
	popq	%rbx
	popq	%r14
	popq	%r15
	popq	%rbp
	retq
LBB28_16:
	leaq	_str.2(%rip), %rdi
	leaq	l___unnamed_1(%rip), %rdx
	movl	$33, %esi
	callq	__ZN4core9panicking5panic17h383a6b80ea7021aaE
	.cfi_endproc

	.p2align	4, 0x90
__ZN10rayon_core8registry12WorkerThread15wait_until_cold17h85a044fa98ca4aa2E:
Lfunc_begin28:
	.cfi_startproc
	.cfi_personality 155, _rust_eh_personality
	.cfi_lsda 16, Lexception28
	pushq	%rbp
	.cfi_def_cfa_offset 16
	.cfi_offset %rbp, -16
	movq	%rsp, %rbp
	.cfi_def_cfa_register %rbp
	pushq	%r15
	pushq	%r14
	pushq	%r13
	pushq	%r12
	pushq	%rbx
	pushq	%rax
	.cfi_offset %rbx, -56
	.cfi_offset %r12, -48
	.cfi_offset %r13, -40
	.cfi_offset %r14, -32
	.cfi_offset %r15, -24
	movb	(%rsi), %al
	testb	%al, %al
	jne	LBB29_28
	movq	%rsi, %r14
	movq	%rdi, %r15
	xorl	%r13d, %r13d
	.p2align	4, 0x90
LBB29_2:
Ltmp1204:
	movq	%r15, %rdi
	callq	__ZN10rayon_core8registry12WorkerThread14take_local_job17h4a60902ba985e6d4E
Ltmp1205:
	movq	%rdx, %rbx
	testq	%rdx, %rdx
	jne	LBB29_8
Ltmp1206:
	movq	%r15, %rdi
	callq	__ZN10rayon_core8registry12WorkerThread5steal17h9051b51e30f6341aE
Ltmp1207:
	movq	%rdx, %rbx
	testq	%rdx, %rdx
	jne	LBB29_8
	movq	288(%r15), %rsi
	movq	304(%r15), %rdi
	subq	$-128, %rdi
Ltmp1208:
	callq	__ZN10rayon_core8registry8Registry16pop_injected_job17he6df0731b3829873E
Ltmp1209:
	movq	%rdx, %rbx
	testq	%rdx, %rdx
	je	LBB29_13
	.p2align	4, 0x90
LBB29_8:
	movq	%rax, %r12
	cmpq	$33, %r13
	jb	LBB29_10
	movq	288(%r15), %rsi
	movq	304(%r15), %rdi
	movl	$408, %eax
	addq	%rax, %rdi
Ltmp1210:
	callq	__ZN10rayon_core5sleep5Sleep6tickle17h5038bd408706a5c1E
Ltmp1211:
LBB29_10:
Ltmp1212:
	movq	%r15, %rdi
	movq	%r12, %rsi
	movq	%rbx, %rdx
	callq	__ZN10rayon_core8registry12WorkerThread7execute17hc504892f49177628E
Ltmp1213:
LBB29_11:
	xorl	%r13d, %r13d
LBB29_12:
	movzbl	(%r14), %eax
	testb	%al, %al
	je	LBB29_2
	jmp	LBB29_26
LBB29_13:
	movq	304(%r15), %rbx
	movl	$408, %eax
	addq	%rax, %rbx
	cmpq	$32, %r13
	jae	LBB29_16
Ltmp1224:
	callq	__ZN3std6thread9yield_now17hea691f9eb34bfe1eE
Ltmp1225:
	incq	%r13
	jmp	LBB29_12
LBB29_16:
	movq	288(%r15), %r12
	jne	LBB29_20
Ltmp1220:
	callq	__ZN3std6thread9yield_now17hea691f9eb34bfe1eE
Ltmp1221:
Ltmp1222:
	movq	%rbx, %rdi
	movq	%r12, %rsi
	callq	__ZN10rayon_core5sleep5Sleep10get_sleepy17h30de7bac3a9bf028E
Ltmp1223:
	movzbl	%al, %r13d
	orq	$32, %r13
	jmp	LBB29_12
LBB29_20:
	cmpq	$64, %r13
	jae	LBB29_24
Ltmp1216:
	callq	__ZN3std6thread9yield_now17hea691f9eb34bfe1eE
Ltmp1217:
Ltmp1218:
	movq	%rbx, %rdi
	movq	%r12, %rsi
	callq	__ZN10rayon_core5sleep5Sleep12still_sleepy17hb115f7cc21aef098E
Ltmp1219:
	incq	%r13
	testb	%al, %al
	movl	$0, %eax
	cmoveq	%rax, %r13
	jmp	LBB29_12
LBB29_24:
Ltmp1214:
	movq	%rbx, %rdi
	movq	%r12, %rsi
	callq	__ZN10rayon_core5sleep5Sleep5sleep17h2cdc728cb856d22aE
Ltmp1215:
	jmp	LBB29_11
LBB29_26:
	cmpq	$33, %r13
	jb	LBB29_28
	movq	288(%r15), %rsi
	movl	$408, %edi
	addq	304(%r15), %rdi
Ltmp1227:
	callq	__ZN10rayon_core5sleep5Sleep6tickle17h5038bd408706a5c1E
Ltmp1228:
LBB29_28:
	addq	$8, %rsp
	popq	%rbx
	popq	%r12
	popq	%r13
	popq	%r14
	popq	%r15
	popq	%rbp
	retq
LBB29_29:
Ltmp1229:
	jmp	LBB29_31
LBB29_30:
Ltmp1226:
LBB29_31:
	movq	%rax, %rbx
	leaq	-48(%rbp), %rdi
	callq	__ZN4core3ptr13drop_in_place17hd8103524f89c584cE
	movq	%rbx, %rdi
	callq	__Unwind_Resume
	ud2
Lfunc_end28:
	.cfi_endproc
	.section	__TEXT,__gcc_except_tab
	.p2align	2
GCC_except_table29:
Lexception28:
	.byte	255
	.byte	255
	.byte	1
	.uleb128 Lcst_end28-Lcst_begin28
Lcst_begin28:
	.uleb128 Ltmp1204-Lfunc_begin28
	.uleb128 Ltmp1215-Ltmp1204
	.uleb128 Ltmp1226-Lfunc_begin28
	.byte	0
	.uleb128 Ltmp1227-Lfunc_begin28
	.uleb128 Ltmp1228-Ltmp1227
	.uleb128 Ltmp1229-Lfunc_begin28
	.byte	0
	.uleb128 Ltmp1228-Lfunc_begin28
	.uleb128 Lfunc_end28-Ltmp1228
	.byte	0
	.byte	0
Lcst_end28:
	.p2align	2

	.section	__TEXT,__text,regular,pure_instructions
	.p2align	4, 0x90
__ZN10rayon_core8registry8Registry14in_worker_cold17h0225d6e9744e6adeE:
Lfunc_begin29:
	.cfi_startproc
