	.section	__TEXT,__text,regular,pure_instructions
	.macosx_version_min 10, 7
	.intel_syntax noprefix
	.p2align	4, 0x90
__ZN10rayon_core4join12join_context28_$u7b$$u7b$closure$u7d$$u7d$17h041cdddb5b7029acE:
Lfunc_begin0:
	.cfi_startproc
	.cfi_personality 155, _rust_eh_personality
	.cfi_lsda 16, Lexception0
	push	rbp
	.cfi_def_cfa_offset 16
	.cfi_offset rbp, -16
	mov	rbp, rsp
	.cfi_def_cfa_register rbp
	push	r15
	push	r14
	push	r13
	push	r12
	push	rbx
	sub	rsp, 184
	.cfi_offset rbx, -56
	.cfi_offset r12, -48
	.cfi_offset r13, -40
	.cfi_offset r14, -32
	.cfi_offset r15, -24
	mov	rbx, rsi
	mov	r15, rdi
	mov	rax, qword ptr [rdi + 40]
	mov	qword ptr [rbp - 88], rax
	mov	rax, qword ptr [rdi + 32]
	mov	qword ptr [rbp - 96], rax
	mov	rax, qword ptr [rdi + 24]
	mov	qword ptr [rbp - 104], rax
	mov	rax, qword ptr [rdi + 16]
	mov	qword ptr [rbp - 112], rax
	mov	rax, qword ptr [rdi]
	mov	rcx, qword ptr [rdi + 8]
	mov	qword ptr [rbp - 120], rcx
	mov	qword ptr [rbp - 128], rax
	mov	byte ptr [rbp - 56], 0
	mov	qword ptr [rbp - 80], 0
	mov	rax, qword ptr [rsi + 256]
	mov	r14, qword ptr [rax + 264]
	mov	rax, qword ptr [rax + 256]
	mov	rsi, qword ptr [rsi + 272]
	mov	rcx, r14
	sub	rcx, rax
	cmp	rcx, rsi
	mov	dword ptr [rbp - 44], edx
	jl	LBB0_4
	add	rsi, rsi
	jb	LBB0_7
	lea	rdi, [rbx + 256]
Ltmp0:
	call	__ZN15crossbeam_deque15Worker$LT$T$GT$6resize17h5c22be2b4226dcffE
Ltmp1:
	mov	rsi, qword ptr [rbx + 272]
LBB0_4:
	sub	rsi, 1
	jb	LBB0_5
	mov	rax, qword ptr [rbx + 264]
	and	rsi, r14
	shl	rsi, 4
	lea	r12, [rbp - 128]
	mov	qword ptr [rax + rsi], r12
	lea	r13, [rip + __ZN83_$LT$rayon_core..job..StackJob$LT$L$C$F$C$R$GT$$u20$as$u20$rayon_core..job..Job$GT$7execute17hf828021bdffe7e7eE]
	mov	qword ptr [rax + rsi + 8], r13
	##MEMBARRIER
	mov	rax, qword ptr [rbx + 256]
	inc	r14
	mov	qword ptr [rax + 264], r14
	mov	edi, 408
	add	rdi, qword ptr [rbx + 304]
	mov	rsi, qword ptr [rbx + 288]
Ltmp4:
	call	__ZN10rayon_core5sleep5Sleep6tickle17h00d06f732555dc32E
Ltmp5:
	mov	rax, qword ptr [r15 + 48]
	mov	rcx, qword ptr [r15 + 56]
	mov	r8, qword ptr [r15 + 64]
	mov	r9, qword ptr [r15 + 72]
	mov	rsi, qword ptr [r15 + 80]
	mov	rdi, qword ptr [rax]
	mov	rdx, qword ptr [rcx]
	mov	rcx, qword ptr [rcx + 8]
Ltmp6:
	mov	qword ptr [rsp], rsi
	movzx	r14d, byte ptr [rbp - 44]
	mov	esi, r14d
	call	__ZN5rayon4iter8plumbing24bridge_producer_consumer6helper17h3f26c2f179a2c0f2E
Ltmp7:
LBB0_12:
	lea	r15, [rbp - 56]
	mov	al, byte ptr [rbp - 56]
	test	al, al
	je	LBB0_14
	jmp	LBB0_18
	.p2align	4, 0x90
LBB0_23:
Ltmp16:
	mov	rdi, rbx
	mov	rsi, rax
	call	__ZN10rayon_core8registry12WorkerThread7execute17h2d3f3a8dd2af2716E
Ltmp17:
	movzx	eax, byte ptr [rbp - 56]
	test	al, al
	jne	LBB0_18
LBB0_14:
Ltmp14:
	mov	rdi, rbx
	call	__ZN10rayon_core8registry12WorkerThread14take_local_job17h123bfb54be8597fdE
Ltmp15:
	test	rdx, rdx
	je	LBB0_16
	cmp	rax, r12
	jne	LBB0_23
	cmp	rdx, r13
	jne	LBB0_23
	lea	rdi, [rbp - 208]
	lea	rsi, [rbp - 128]
	mov	ecx, 10
	rep movsq es:[rdi], [rsi]
	mov	rax, qword ptr [rbp - 208]
	test	rax, rax
	je	LBB0_25
	mov	rcx, qword ptr [rbp - 200]
	mov	rdi, qword ptr [rax]
	sub	rdi, qword ptr [rcx]
	jb	LBB0_27
	mov	rax, qword ptr [rbp - 192]
	mov	r8, qword ptr [rbp - 184]
	mov	r9, qword ptr [rbp - 176]
	mov	rsi, qword ptr [rbp - 168]
	mov	rdx, qword ptr [rax]
	mov	rcx, qword ptr [rax + 8]
Ltmp19:
	mov	qword ptr [rsp], rsi
	mov	esi, r14d
	call	__ZN5rayon4iter8plumbing24bridge_producer_consumer6helper17h3f26c2f179a2c0f2E
Ltmp20:
	cmp	qword ptr [rbp - 160], 2
	jb	LBB0_33
	mov	r15, qword ptr [rbp - 152]
	mov	rbx, qword ptr [rbp - 144]
Ltmp21:
	mov	rdi, r15
	call	qword ptr [rbx]
Ltmp22:
	mov	rsi, qword ptr [rbx + 8]
	test	rsi, rsi
	je	LBB0_33
	mov	rdx, qword ptr [rbx + 16]
	mov	rdi, r15
	call	___rust_dealloc
	jmp	LBB0_33
LBB0_16:
	mov	al, byte ptr [rbp - 56]
	test	al, al
	jne	LBB0_18
Ltmp32:
	mov	rdi, rbx
	mov	rsi, r15
	call	__ZN10rayon_core8registry12WorkerThread15wait_until_cold17h4ea94d81ba0d12faE
Ltmp33:
LBB0_18:
	mov	rax, qword ptr [rbp - 80]
	cmp	rax, 1
	jne	LBB0_19
LBB0_33:
	add	rsp, 184
	pop	rbx
	pop	r12
	pop	r13
	pop	r14
	pop	r15
	pop	rbp
	ret
LBB0_19:
	test	rax, rax
	je	LBB0_35
	mov	rdi, qword ptr [rbp - 72]
	mov	rsi, qword ptr [rbp - 64]
Ltmp35:
	call	__ZN10rayon_core6unwind16resume_unwinding17h47c2e39f90248736E
Ltmp36:
	jmp	LBB0_6
LBB0_5:
Ltmp40:
	lea	rdi, [rip + _str.1]
	lea	rdx, [rip + l___unnamed_1]
	mov	esi, 33
	call	__ZN4core9panicking5panic17h736ee47a631475c0E
Ltmp41:
	jmp	LBB0_6
LBB0_35:
Ltmp37:
	lea	rdi, [rip + l___unnamed_2]
	lea	rdx, [rip + l___unnamed_3]
	mov	esi, 40
	call	__ZN3std9panicking11begin_panic17h75aebe10c874e798E
Ltmp38:
	jmp	LBB0_6
LBB0_7:
Ltmp2:
	lea	rdi, [rip + _str.3]
	lea	rdx, [rip + l___unnamed_4]
	mov	esi, 33
	call	__ZN4core9panicking5panic17h736ee47a631475c0E
Ltmp3:
	jmp	LBB0_6
LBB0_25:
Ltmp26:
	lea	rdi, [rip + l___unnamed_5]
	lea	rdx, [rip + l___unnamed_6]
	mov	esi, 43
	call	__ZN4core9panicking5panic17h736ee47a631475c0E
Ltmp27:
	jmp	LBB0_6
LBB0_27:
Ltmp24:
	lea	rdi, [rip + _str.1]
	lea	rdx, [rip + l___unnamed_7]
	mov	esi, 33
	call	__ZN4core9panicking5panic17h736ee47a631475c0E
Ltmp25:
LBB0_6:
	ud2
LBB0_46:
Ltmp39:
	jmp	LBB0_40
LBB0_38:
Ltmp34:
	jmp	LBB0_45
LBB0_36:
Ltmp23:
	mov	r14, rax
	mov	rdi, r15
	mov	rsi, rbx
	call	__ZN5alloc5alloc8box_free17hfd27018577a513c9E
	mov	rdi, r14
	call	__Unwind_Resume
	ud2
LBB0_34:
Ltmp28:
	mov	r14, rax
	lea	rdi, [rbp - 160]
Ltmp29:
	call	__ZN4core3ptr13drop_in_place17h386a8cdc061ec2cfE
Ltmp30:
	jmp	LBB0_41
LBB0_39:
Ltmp31:
LBB0_40:
	mov	r14, rax
	mov	rdi, r14
	call	__Unwind_Resume
	ud2
LBB0_10:
Ltmp8:
Ltmp9:
	mov	rdi, rax
	call	__ZN3std9panicking3try7cleanup17hd895f7beef0a7dadE
Ltmp10:
	test	rax, rax
	je	LBB0_12
	mov	rcx, rdx
	lea	rsi, [rbp - 56]
Ltmp11:
	mov	rdi, rbx
	mov	rdx, rax
	call	__ZN10rayon_core4join23join_recover_from_panic17h65e0dcb6d5862f08E
Ltmp12:
	jmp	LBB0_6
LBB0_44:
Ltmp13:
	jmp	LBB0_45
LBB0_42:
Ltmp42:
	jmp	LBB0_45
LBB0_37:
Ltmp18:
LBB0_45:
	mov	r14, rax
	lea	rdi, [rbp - 128]
	call	__ZN4core3ptr13drop_in_place17h1618ebc4b133e534E
LBB0_41:
	mov	rdi, r14
	call	__Unwind_Resume
	ud2
Lfunc_end0:
	.cfi_endproc
	.section	__TEXT,__gcc_except_tab
	.p2align	2
GCC_except_table0:
Lexception0:
	.byte	255
	.byte	155
	.uleb128 Lttbase0-Lttbaseref0
Lttbaseref0:
	.byte	1
	.uleb128 Lcst_end0-Lcst_begin0
Lcst_begin0:
	.uleb128 Ltmp0-Lfunc_begin0
	.uleb128 Ltmp5-Ltmp0
	.uleb128 Ltmp42-Lfunc_begin0
	.byte	0
	.uleb128 Ltmp6-Lfunc_begin0
	.uleb128 Ltmp7-Ltmp6
	.uleb128 Ltmp8-Lfunc_begin0
	.byte	3
	.uleb128 Ltmp16-Lfunc_begin0
	.uleb128 Ltmp15-Ltmp16
	.uleb128 Ltmp18-Lfunc_begin0
	.byte	0
	.uleb128 Ltmp19-Lfunc_begin0
	.uleb128 Ltmp20-Ltmp19
	.uleb128 Ltmp28-Lfunc_begin0
	.byte	0
	.uleb128 Ltmp21-Lfunc_begin0
	.uleb128 Ltmp22-Ltmp21
	.uleb128 Ltmp23-Lfunc_begin0
	.byte	0
	.uleb128 Ltmp32-Lfunc_begin0
	.uleb128 Ltmp33-Ltmp32
	.uleb128 Ltmp34-Lfunc_begin0
	.byte	0
	.uleb128 Ltmp35-Lfunc_begin0
	.uleb128 Ltmp36-Ltmp35
	.uleb128 Ltmp39-Lfunc_begin0
	.byte	0
	.uleb128 Ltmp40-Lfunc_begin0
	.uleb128 Ltmp41-Ltmp40
	.uleb128 Ltmp42-Lfunc_begin0
	.byte	0
	.uleb128 Ltmp37-Lfunc_begin0
	.uleb128 Ltmp38-Ltmp37
	.uleb128 Ltmp39-Lfunc_begin0
	.byte	0
	.uleb128 Ltmp2-Lfunc_begin0
	.uleb128 Ltmp3-Ltmp2
	.uleb128 Ltmp42-Lfunc_begin0
	.byte	0
	.uleb128 Ltmp26-Lfunc_begin0
	.uleb128 Ltmp25-Ltmp26
	.uleb128 Ltmp28-Lfunc_begin0
	.byte	0
	.uleb128 Ltmp25-Lfunc_begin0
	.uleb128 Ltmp29-Ltmp25
	.byte	0
	.byte	0
	.uleb128 Ltmp29-Lfunc_begin0
	.uleb128 Ltmp30-Ltmp29
	.uleb128 Ltmp31-Lfunc_begin0
	.byte	0
	.uleb128 Ltmp30-Lfunc_begin0
	.uleb128 Ltmp9-Ltmp30
	.byte	0
	.byte	0
	.uleb128 Ltmp9-Lfunc_begin0
	.uleb128 Ltmp10-Ltmp9
	.uleb128 Ltmp42-Lfunc_begin0
	.byte	0
	.uleb128 Ltmp11-Lfunc_begin0
	.uleb128 Ltmp12-Ltmp11
	.uleb128 Ltmp13-Lfunc_begin0
	.byte	0
	.uleb128 Ltmp12-Lfunc_begin0
	.uleb128 Lfunc_end0-Ltmp12
	.byte	0
	.byte	0
Lcst_end0:
	.byte	0
	.byte	0
	.byte	1
	.byte	125
	.p2align	2
	.long	0
Lttbase0:
	.p2align	2

	.section	__TEXT,__text,regular,pure_instructions
	.p2align	4, 0x90
__ZN10rayon_core4join12join_context28_$u7b$$u7b$closure$u7d$$u7d$17h059391fffd443e45E:
Lfunc_begin1:
	.cfi_startproc
	.cfi_personality 155, _rust_eh_personality
	.cfi_lsda 16, Lexception1
	push	rbp
	.cfi_def_cfa_offset 16
	.cfi_offset rbp, -16
	mov	rbp, rsp
	.cfi_def_cfa_register rbp
	push	r15
	push	r14
	push	r13
	push	r12
	push	rbx
	and	rsp, -32
	sub	rsp, 480
	.cfi_offset rbx, -56
	.cfi_offset r12, -48
	.cfi_offset r13, -40
	.cfi_offset r14, -32
	.cfi_offset r15, -24
	mov	rbx, rdx
	mov	r12, rsi
	mov	qword ptr [rsp + 96], rdi
	mov	byte ptr [rsp + 248], 0
	mov	rax, qword ptr [rsi]
	mov	rdx, qword ptr [rsi + 8]
	mov	qword ptr [rsp + 192], rax
	mov	qword ptr [rsp + 200], rdx
	mov	rax, qword ptr [rsi + 16]
	mov	qword ptr [rsp + 208], rax
	mov	rax, qword ptr [rsi + 24]
	mov	qword ptr [rsp + 216], rax
	mov	rax, qword ptr [rsi + 32]
	mov	qword ptr [rsp + 224], rax
	mov	rax, qword ptr [rsi + 40]
	mov	qword ptr [rsp + 232], rax
	mov	rax, qword ptr [rsi + 48]
	mov	qword ptr [rsp + 240], rax
	mov	qword ptr [rsp + 128], 0
	mov	rax, qword ptr [rbx + 256]
	mov	r15, qword ptr [rax + 264]
	mov	rax, qword ptr [rax + 256]
	mov	rsi, qword ptr [rbx + 272]
	mov	rdx, r15
	sub	rdx, rax
	cmp	rdx, rsi
	mov	dword ptr [rsp + 80], ecx
	jl	LBB1_4
	add	rsi, rsi
	jb	LBB1_7
	lea	rdi, [rbx + 256]
Ltmp43:
	call	__ZN15crossbeam_deque15Worker$LT$T$GT$6resize17h5c22be2b4226dcffE
Ltmp44:
	mov	rsi, qword ptr [rbx + 272]
LBB1_4:
	sub	rsi, 1
	jb	LBB1_5
	mov	rax, qword ptr [rbx + 264]
	and	rsi, r15
	shl	rsi, 4
	lea	r13, [rsp + 128]
	mov	qword ptr [rax + rsi], r13
	lea	r14, [rip + __ZN83_$LT$rayon_core..job..StackJob$LT$L$C$F$C$R$GT$$u20$as$u20$rayon_core..job..Job$GT$7execute17h4fde23ef5a295b21E]
	mov	qword ptr [rax + rsi + 8], r14
	##MEMBARRIER
	mov	rax, qword ptr [rbx + 256]
	inc	r15
	mov	qword ptr [rax + 264], r15
	mov	edi, 408
	add	rdi, qword ptr [rbx + 304]
	mov	rsi, qword ptr [rbx + 288]
Ltmp47:
	call	__ZN10rayon_core5sleep5Sleep6tickle17h00d06f732555dc32E
Ltmp48:
	mov	rax, qword ptr [r12 + 88]
	mov	rdx, qword ptr [r12 + 96]
	movdqu	xmm0, xmmword ptr [r12 + 56]
	movups	xmm1, xmmword ptr [r12 + 72]
	movq	rcx, xmm0
	pshufd	xmm0, xmm0, 78
	movq	rdi, xmm0
	mov	rsi, qword ptr [rcx]
	mov	rcx, qword ptr [rdi]
	mov	r8, qword ptr [rdi + 8]
	movaps	xmmword ptr [rsp + 32], xmm1
	mov	qword ptr [rsp + 48], rax
Ltmp49:
	mov	qword ptr [rsp], rdx
	movzx	r15d, byte ptr [rsp + 80]
	lea	rdi, [rsp + 256]
	lea	r9, [rsp + 32]
	mov	edx, r15d
	call	__ZN5rayon4iter8plumbing24bridge_producer_consumer6helper17h16b7be411e156e44E
Ltmp50:
	movaps	xmm0, xmmword ptr [rsp + 256]
	movaps	xmmword ptr [rsp + 80], xmm0
	movdqa	xmm0, xmmword ptr [rsp + 272]
	movdqa	xmmword ptr [rsp + 416], xmm0
	lea	r12, [rsp + 248]
	mov	al, byte ptr [rsp + 248]
	test	al, al
	je	LBB1_12
	jmp	LBB1_16
	.p2align	4, 0x90
LBB1_23:
Ltmp59:
	mov	rdi, rbx
	mov	rsi, rax
	call	__ZN10rayon_core8registry12WorkerThread7execute17h2d3f3a8dd2af2716E
Ltmp60:
	movzx	eax, byte ptr [rsp + 248]
	test	al, al
	jne	LBB1_16
LBB1_12:
Ltmp57:
	mov	rdi, rbx
	call	__ZN10rayon_core8registry12WorkerThread14take_local_job17h123bfb54be8597fdE
Ltmp58:
	test	rdx, rdx
	je	LBB1_14
	cmp	rax, r13
	jne	LBB1_23
	cmp	rdx, r14
	jne	LBB1_23
	movaps	xmm0, xmmword ptr [rsp + 240]
	movaps	xmmword ptr [rsp + 368], xmm0
	movaps	xmm0, xmmword ptr [rsp + 224]
	movaps	xmmword ptr [rsp + 352], xmm0
	movaps	xmm0, xmmword ptr [rsp + 208]
	movaps	xmmword ptr [rsp + 336], xmm0
	movaps	xmm0, xmmword ptr [rsp + 192]
	movaps	xmmword ptr [rsp + 320], xmm0
	movdqa	xmm0, xmmword ptr [rsp + 128]
	movaps	xmm1, xmmword ptr [rsp + 144]
	movaps	xmm2, xmmword ptr [rsp + 160]
	movaps	xmm3, xmmword ptr [rsp + 176]
	movaps	xmmword ptr [rsp + 304], xmm3
	movaps	xmmword ptr [rsp + 288], xmm2
	movaps	xmmword ptr [rsp + 272], xmm1
	movdqa	xmmword ptr [rsp + 256], xmm0
	mov	rsi, qword ptr [rsp + 320]
	mov	rcx, qword ptr [rsp + 328]
	mov	rax, qword ptr [rsp + 336]
	mov	rdx, qword ptr [rsp + 344]
	mov	rdi, qword ptr [rsp + 352]
	mov	qword ptr [rsp + 32], rdx
	mov	qword ptr [rsp + 40], rdi
	mov	rdx, qword ptr [rsp + 360]
	mov	qword ptr [rsp + 48], rdx
	test	rsi, rsi
	je	LBB1_25
	mov	r9, qword ptr [rsp + 368]
	mov	rdi, qword ptr [rsp + 48]
	mov	qword ptr [rsp + 448], rdi
	mov	rbx, qword ptr [rsp + 32]
	mov	rdx, qword ptr [rsp + 40]
	mov	qword ptr [rsp + 440], rdx
	mov	qword ptr [rsp + 432], rbx
	mov	qword ptr [rsp + 120], rdi
	mov	qword ptr [rsp + 112], rdx
	mov	qword ptr [rsp + 104], rbx
	mov	rsi, qword ptr [rsi]
	sub	rsi, qword ptr [rcx]
	jb	LBB1_27
	mov	rcx, qword ptr [rax]
	mov	r8, qword ptr [rax + 8]
	mov	rax, qword ptr [rsp + 120]
	mov	qword ptr [rsp + 408], rax
	mov	rax, qword ptr [rsp + 104]
	mov	rdx, qword ptr [rsp + 112]
	mov	qword ptr [rsp + 400], rdx
	mov	qword ptr [rsp + 392], rax
Ltmp62:
	mov	qword ptr [rsp], r9
	lea	rdi, [rsp + 32]
	lea	r9, [rsp + 392]
	mov	edx, r15d
	call	__ZN5rayon4iter8plumbing24bridge_producer_consumer6helper17h16b7be411e156e44E
Ltmp63:
	cmp	qword ptr [rsp + 256], 2
	jb	LBB1_33
	mov	r15, qword ptr [rsp + 264]
	mov	rbx, qword ptr [rsp + 272]
Ltmp64:
	mov	rdi, r15
	call	qword ptr [rbx]
Ltmp65:
	mov	rsi, qword ptr [rbx + 8]
	test	rsi, rsi
	je	LBB1_33
	mov	rdx, qword ptr [rbx + 16]
	mov	rdi, r15
	call	___rust_dealloc
LBB1_33:
	movaps	xmm0, xmmword ptr [rsp + 32]
	movaps	xmm1, xmmword ptr [rsp + 48]
	jmp	LBB1_37
LBB1_14:
	mov	al, byte ptr [rsp + 248]
	test	al, al
	jne	LBB1_16
Ltmp75:
	mov	rdi, rbx
	mov	rsi, r12
	call	__ZN10rayon_core8registry12WorkerThread15wait_until_cold17h4ea94d81ba0d12faE
Ltmp76:
LBB1_16:
	mov	rax, qword ptr [rsp + 128]
	cmp	rax, 1
	jne	LBB1_17
	movaps	xmm0, xmmword ptr [rsp + 160]
	movaps	xmm1, xmmword ptr [rsp + 176]
LBB1_37:
	mov	rax, qword ptr [rsp + 96]
	movaps	xmm2, xmmword ptr [rsp + 80]
	movaps	xmmword ptr [rax], xmm2
	movaps	xmm2, xmmword ptr [rsp + 416]
	movaps	xmmword ptr [rax + 16], xmm2
	movaps	xmmword ptr [rax + 32], xmm0
	movaps	xmmword ptr [rax + 48], xmm1
	lea	rsp, [rbp - 40]
	pop	rbx
	pop	r12
	pop	r13
	pop	r14
	pop	r15
	pop	rbp
	ret
LBB1_17:
	test	rax, rax
	je	LBB1_35
	mov	rdi, qword ptr [rsp + 136]
	mov	rsi, qword ptr [rsp + 144]
Ltmp78:
	call	__ZN10rayon_core6unwind16resume_unwinding17h47c2e39f90248736E
Ltmp79:
	jmp	LBB1_6
LBB1_5:
Ltmp83:
	lea	rdi, [rip + _str.1]
	lea	rdx, [rip + l___unnamed_1]
	mov	esi, 33
	call	__ZN4core9panicking5panic17h736ee47a631475c0E
Ltmp84:
	jmp	LBB1_6
LBB1_35:
Ltmp80:
	lea	rdi, [rip + l___unnamed_2]
	lea	rdx, [rip + l___unnamed_3]
	mov	esi, 40
	call	__ZN3std9panicking11begin_panic17h75aebe10c874e798E
Ltmp81:
	jmp	LBB1_6
LBB1_7:
Ltmp45:
	lea	rdi, [rip + _str.3]
	lea	rdx, [rip + l___unnamed_4]
	mov	esi, 33
	call	__ZN4core9panicking5panic17h736ee47a631475c0E
Ltmp46:
	jmp	LBB1_6
LBB1_25:
Ltmp69:
	lea	rdi, [rip + l___unnamed_5]
	lea	rdx, [rip + l___unnamed_6]
	mov	esi, 43
	call	__ZN4core9panicking5panic17h736ee47a631475c0E
Ltmp70:
	jmp	LBB1_6
LBB1_27:
Ltmp67:
	lea	rdi, [rip + _str.1]
	lea	rdx, [rip + l___unnamed_7]
	mov	esi, 33
	call	__ZN4core9panicking5panic17h736ee47a631475c0E
Ltmp68:
	jmp	LBB1_6
LBB1_47:
Ltmp82:
	jmp	LBB1_42
LBB1_40:
Ltmp77:
	jmp	LBB1_46
LBB1_38:
Ltmp66:
	mov	r14, rax
	mov	rdi, r15
	mov	rsi, rbx
	call	__ZN5alloc5alloc8box_free17hfd27018577a513c9E
	mov	rdi, r14
	call	__Unwind_Resume
	ud2
LBB1_34:
Ltmp71:
	mov	r14, rax
Ltmp72:
	lea	rdi, [rsp + 256]
	call	__ZN4core3ptr13drop_in_place17h07e85562a77b63c9E
Ltmp73:
	jmp	LBB1_43
LBB1_41:
Ltmp74:
LBB1_42:
	mov	r14, rax
	mov	rdi, r14
	call	__Unwind_Resume
	ud2
LBB1_19:
Ltmp51:
Ltmp52:
	mov	rdi, rax
	call	__ZN3std9panicking3try7cleanup17hd895f7beef0a7dadE
Ltmp53:
	mov	rcx, rdx
	lea	rsi, [rsp + 248]
Ltmp54:
	mov	rdi, rbx
	mov	rdx, rax
	call	__ZN10rayon_core4join23join_recover_from_panic17h65e0dcb6d5862f08E
Ltmp55:
LBB1_6:
	ud2
LBB1_45:
Ltmp56:
	jmp	LBB1_46
LBB1_44:
Ltmp85:
	jmp	LBB1_46
LBB1_39:
Ltmp61:
LBB1_46:
	mov	r14, rax
	lea	rdi, [rsp + 128]
	call	__ZN4core3ptr13drop_in_place17h07e85562a77b63c9E
LBB1_43:
	mov	rdi, r14
	call	__Unwind_Resume
	ud2
Lfunc_end1:
	.cfi_endproc
	.section	__TEXT,__gcc_except_tab
	.p2align	2
GCC_except_table1:
Lexception1:
	.byte	255
	.byte	155
	.uleb128 Lttbase1-Lttbaseref1
Lttbaseref1:
	.byte	1
	.uleb128 Lcst_end1-Lcst_begin1
Lcst_begin1:
	.uleb128 Ltmp43-Lfunc_begin1
	.uleb128 Ltmp48-Ltmp43
	.uleb128 Ltmp85-Lfunc_begin1
	.byte	0
	.uleb128 Ltmp49-Lfunc_begin1
	.uleb128 Ltmp50-Ltmp49
	.uleb128 Ltmp51-Lfunc_begin1
	.byte	3
	.uleb128 Ltmp59-Lfunc_begin1
	.uleb128 Ltmp58-Ltmp59
	.uleb128 Ltmp61-Lfunc_begin1
	.byte	0
	.uleb128 Ltmp62-Lfunc_begin1
	.uleb128 Ltmp63-Ltmp62
	.uleb128 Ltmp71-Lfunc_begin1
	.byte	0
	.uleb128 Ltmp64-Lfunc_begin1
	.uleb128 Ltmp65-Ltmp64
	.uleb128 Ltmp66-Lfunc_begin1
	.byte	0
	.uleb128 Ltmp75-Lfunc_begin1
	.uleb128 Ltmp76-Ltmp75
	.uleb128 Ltmp77-Lfunc_begin1
	.byte	0
	.uleb128 Ltmp78-Lfunc_begin1
	.uleb128 Ltmp79-Ltmp78
	.uleb128 Ltmp82-Lfunc_begin1
	.byte	0
	.uleb128 Ltmp83-Lfunc_begin1
	.uleb128 Ltmp84-Ltmp83
	.uleb128 Ltmp85-Lfunc_begin1
	.byte	0
	.uleb128 Ltmp80-Lfunc_begin1
	.uleb128 Ltmp81-Ltmp80
	.uleb128 Ltmp82-Lfunc_begin1
	.byte	0
	.uleb128 Ltmp45-Lfunc_begin1
	.uleb128 Ltmp46-Ltmp45
	.uleb128 Ltmp85-Lfunc_begin1
	.byte	0
	.uleb128 Ltmp69-Lfunc_begin1
	.uleb128 Ltmp68-Ltmp69
	.uleb128 Ltmp71-Lfunc_begin1
	.byte	0
	.uleb128 Ltmp68-Lfunc_begin1
	.uleb128 Ltmp72-Ltmp68
	.byte	0
	.byte	0
	.uleb128 Ltmp72-Lfunc_begin1
	.uleb128 Ltmp73-Ltmp72
	.uleb128 Ltmp74-Lfunc_begin1
	.byte	0
	.uleb128 Ltmp73-Lfunc_begin1
	.uleb128 Ltmp52-Ltmp73
	.byte	0
	.byte	0
	.uleb128 Ltmp52-Lfunc_begin1
	.uleb128 Ltmp53-Ltmp52
	.uleb128 Ltmp85-Lfunc_begin1
	.byte	0
	.uleb128 Ltmp54-Lfunc_begin1
	.uleb128 Ltmp55-Ltmp54
	.uleb128 Ltmp56-Lfunc_begin1
	.byte	0
	.uleb128 Ltmp55-Lfunc_begin1
	.uleb128 Lfunc_end1-Ltmp55
	.byte	0
	.byte	0
Lcst_end1:
	.byte	0
	.byte	0
	.byte	1
	.byte	125
	.p2align	2
	.long	0
Lttbase1:
	.p2align	2

	.section	__TEXT,__text,regular,pure_instructions
	.p2align	4, 0x90
__ZN10rayon_core4join12join_context28_$u7b$$u7b$closure$u7d$$u7d$17h06a16c62b45a27fcE:
Lfunc_begin2:
	.cfi_startproc
	.cfi_personality 155, _rust_eh_personality
	.cfi_lsda 16, Lexception2
	push	rbp
	.cfi_def_cfa_offset 16
	.cfi_offset rbp, -16
	mov	rbp, rsp
	.cfi_def_cfa_register rbp
	push	r15
	push	r14
	push	r13
	push	r12
	push	rbx
	sub	rsp, 472
	.cfi_offset rbx, -56
	.cfi_offset r12, -48
	.cfi_offset r13, -40
	.cfi_offset r14, -32
	.cfi_offset r15, -24
	mov	rbx, rsi
	mov	r12, rdi
	lea	r14, [rbp - 496]
	mov	ecx, 12
	mov	rdi, r14
	mov	rsi, r12
	rep movsq es:[rdi], [rsi]
	mov	byte ptr [rbp - 376], 0
	mov	dword ptr [rbp - 400], 0
	mov	rax, qword ptr [rbx + 256]
	mov	r15, qword ptr [rax + 264]
	mov	rax, qword ptr [rax + 256]
	mov	rsi, qword ptr [rbx + 272]
	mov	rcx, r15
	sub	rcx, rax
	cmp	rcx, rsi
	mov	dword ptr [rbp - 44], edx
	jl	LBB2_4
	add	rsi, rsi
	jb	LBB2_7
	lea	rdi, [rbx + 256]
Ltmp86:
	call	__ZN15crossbeam_deque15Worker$LT$T$GT$6resize17h5c22be2b4226dcffE
Ltmp87:
	mov	rsi, qword ptr [rbx + 272]
LBB2_4:
	sub	rsi, 1
	jb	LBB2_5
	mov	rax, qword ptr [rbx + 264]
	and	rsi, r15
	shl	rsi, 4
	mov	qword ptr [rax + rsi], r14
	lea	r13, [rip + __ZN83_$LT$rayon_core..job..StackJob$LT$L$C$F$C$R$GT$$u20$as$u20$rayon_core..job..Job$GT$7execute17h18e0ff05363995adE]
	mov	qword ptr [rax + rsi + 8], r13
	##MEMBARRIER
	mov	rax, qword ptr [rbx + 256]
	inc	r15
	mov	qword ptr [rax + 264], r15
	mov	edi, 408
	add	rdi, qword ptr [rbx + 304]
	mov	rsi, qword ptr [rbx + 288]
Ltmp90:
	call	__ZN10rayon_core5sleep5Sleep6tickle17h00d06f732555dc32E
Ltmp91:
	mov	rax, qword ptr [r12 + 96]
	mov	rdx, qword ptr [r12 + 104]
	mov	rdi, qword ptr [r12 + 176]
	mov	rsi, qword ptr [rax]
	mov	rcx, qword ptr [rdx]
	mov	r8, qword ptr [rdx + 8]
	mov	rax, qword ptr [r12 + 168]
	mov	qword ptr [rbp - 248], rax
	mov	rax, qword ptr [r12 + 160]
	mov	qword ptr [rbp - 256], rax
	mov	rax, qword ptr [r12 + 152]
	mov	qword ptr [rbp - 264], rax
	mov	rax, qword ptr [r12 + 144]
	mov	qword ptr [rbp - 272], rax
	mov	rax, qword ptr [r12 + 136]
	mov	qword ptr [rbp - 280], rax
	mov	rax, qword ptr [r12 + 128]
	mov	qword ptr [rbp - 288], rax
	mov	rax, qword ptr [r12 + 112]
	mov	rdx, qword ptr [r12 + 120]
	mov	qword ptr [rbp - 296], rdx
	mov	qword ptr [rbp - 304], rax
Ltmp92:
	mov	qword ptr [rsp], rdi
	movzx	r15d, byte ptr [rbp - 44]
	lea	rdi, [rbp - 112]
	lea	r9, [rbp - 304]
	mov	edx, r15d
	call	__ZN5rayon4iter8plumbing24bridge_producer_consumer6helper17heb6b494e39b5e272E
Ltmp93:
	mov	r12d, dword ptr [rbp - 112]
	mov	al, byte ptr [rbp - 376]
	test	al, al
	je	LBB2_12
	jmp	LBB2_16
	.p2align	4, 0x90
LBB2_23:
Ltmp102:
	mov	rdi, rbx
	mov	rsi, rax
	call	__ZN10rayon_core8registry12WorkerThread7execute17h2d3f3a8dd2af2716E
Ltmp103:
	movzx	eax, byte ptr [rbp - 376]
	test	al, al
	jne	LBB2_16
LBB2_12:
Ltmp100:
	mov	rdi, rbx
	call	__ZN10rayon_core8registry12WorkerThread14take_local_job17h123bfb54be8597fdE
Ltmp101:
	test	rdx, rdx
	je	LBB2_14
	cmp	rax, r14
	jne	LBB2_23
	cmp	rdx, r13
	jne	LBB2_23
	lea	rdi, [rbp - 304]
	lea	rsi, [rbp - 496]
	mov	ecx, 16
	rep movsq es:[rdi], [rsi]
	mov	r11, qword ptr [rbp - 304]
	mov	r8, qword ptr [rbp - 296]
	mov	r10, qword ptr [rbp - 288]
	mov	rdx, qword ptr [rbp - 280]
	mov	qword ptr [rbp - 112], rdx
	mov	rdx, qword ptr [rbp - 272]
	mov	qword ptr [rbp - 104], rdx
	mov	rdx, qword ptr [rbp - 264]
	mov	qword ptr [rbp - 96], rdx
	mov	rdx, qword ptr [rbp - 256]
	mov	qword ptr [rbp - 88], rdx
	mov	rdx, qword ptr [rbp - 248]
	mov	qword ptr [rbp - 80], rdx
	mov	rdx, qword ptr [rbp - 240]
	mov	qword ptr [rbp - 72], rdx
	mov	rdx, qword ptr [rbp - 232]
	mov	qword ptr [rbp - 64], rdx
	mov	rdx, qword ptr [rbp - 224]
	mov	qword ptr [rbp - 56], rdx
	test	r11, r11
	je	LBB2_25
	mov	r9, qword ptr [rbp - 216]
	mov	rdi, qword ptr [rbp - 56]
	mov	qword ptr [rbp - 312], rdi
	mov	r14, qword ptr [rbp - 64]
	mov	qword ptr [rbp - 320], r14
	mov	rbx, qword ptr [rbp - 72]
	mov	qword ptr [rbp - 328], rbx
	mov	rdx, qword ptr [rbp - 80]
	mov	qword ptr [rbp - 336], rdx
	mov	rcx, qword ptr [rbp - 88]
	mov	qword ptr [rbp - 344], rcx
	mov	rax, qword ptr [rbp - 96]
	mov	qword ptr [rbp - 352], rax
	mov	rsi, qword ptr [rbp - 112]
	mov	rdi, qword ptr [rbp - 104]
	mov	qword ptr [rbp - 360], rdi
	mov	qword ptr [rbp - 368], rsi
	mov	qword ptr [rbp - 128], r14
	mov	qword ptr [rbp - 136], rbx
	mov	qword ptr [rbp - 144], rdx
	mov	qword ptr [rbp - 152], rcx
	mov	qword ptr [rbp - 160], rax
	mov	qword ptr [rbp - 168], rdi
	mov	qword ptr [rbp - 176], rsi
	mov	rax, qword ptr [rbp - 312]
	mov	qword ptr [rbp - 120], rax
	mov	rsi, qword ptr [r11]
	sub	rsi, qword ptr [r8]
	jb	LBB2_27
	mov	rcx, qword ptr [r10]
	mov	r8, qword ptr [r10 + 8]
	mov	rax, qword ptr [rbp - 120]
	mov	qword ptr [rbp - 56], rax
	mov	rax, qword ptr [rbp - 128]
	mov	qword ptr [rbp - 64], rax
	mov	rax, qword ptr [rbp - 136]
	mov	qword ptr [rbp - 72], rax
	mov	rax, qword ptr [rbp - 144]
	mov	qword ptr [rbp - 80], rax
	mov	rax, qword ptr [rbp - 152]
	mov	qword ptr [rbp - 88], rax
	mov	rax, qword ptr [rbp - 160]
	mov	qword ptr [rbp - 96], rax
	mov	rax, qword ptr [rbp - 176]
	mov	rdx, qword ptr [rbp - 168]
	mov	qword ptr [rbp - 104], rdx
	mov	qword ptr [rbp - 112], rax
Ltmp105:
	mov	qword ptr [rsp], r9
	lea	rdi, [rbp - 48]
	lea	r9, [rbp - 112]
	mov	edx, r15d
	call	__ZN5rayon4iter8plumbing24bridge_producer_consumer6helper17heb6b494e39b5e272E
Ltmp106:
	cmp	dword ptr [rbp - 208], 2
	jb	LBB2_33
	mov	r15, qword ptr [rbp - 200]
	mov	rbx, qword ptr [rbp - 192]
Ltmp107:
	mov	rdi, r15
	call	qword ptr [rbx]
Ltmp108:
	mov	rsi, qword ptr [rbx + 8]
	test	rsi, rsi
	je	LBB2_33
	mov	rdx, qword ptr [rbx + 16]
	mov	rdi, r15
	call	___rust_dealloc
LBB2_33:
	mov	eax, dword ptr [rbp - 48]
	jmp	LBB2_37
LBB2_14:
	mov	al, byte ptr [rbp - 376]
	test	al, al
	jne	LBB2_16
Ltmp118:
	mov	rdi, rbx
	lea	rsi, [rbp - 376]
	call	__ZN10rayon_core8registry12WorkerThread15wait_until_cold17h4ea94d81ba0d12faE
Ltmp119:
LBB2_16:
	mov	eax, dword ptr [rbp - 400]
	cmp	eax, 1
	jne	LBB2_17
	mov	eax, dword ptr [rbp - 396]
LBB2_37:
	shl	rax, 32
	or	rax, r12
	add	rsp, 472
	pop	rbx
	pop	r12
	pop	r13
	pop	r14
	pop	r15
	pop	rbp
	ret
LBB2_17:
	test	eax, eax
	je	LBB2_35
	mov	rdi, qword ptr [rbp - 392]
	mov	rsi, qword ptr [rbp - 384]
Ltmp121:
	call	__ZN10rayon_core6unwind16resume_unwinding17h47c2e39f90248736E
Ltmp122:
	jmp	LBB2_6
LBB2_5:
Ltmp126:
	lea	rdi, [rip + _str.1]
	lea	rdx, [rip + l___unnamed_1]
	mov	esi, 33
	call	__ZN4core9panicking5panic17h736ee47a631475c0E
Ltmp127:
	jmp	LBB2_6
LBB2_35:
Ltmp123:
	lea	rdi, [rip + l___unnamed_2]
	lea	rdx, [rip + l___unnamed_3]
	mov	esi, 40
	call	__ZN3std9panicking11begin_panic17h75aebe10c874e798E
Ltmp124:
	jmp	LBB2_6
LBB2_7:
Ltmp88:
	lea	rdi, [rip + _str.3]
	lea	rdx, [rip + l___unnamed_4]
	mov	esi, 33
	call	__ZN4core9panicking5panic17h736ee47a631475c0E
Ltmp89:
	jmp	LBB2_6
LBB2_25:
Ltmp112:
	lea	rdi, [rip + l___unnamed_5]
	lea	rdx, [rip + l___unnamed_6]
	mov	esi, 43
	call	__ZN4core9panicking5panic17h736ee47a631475c0E
Ltmp113:
	jmp	LBB2_6
LBB2_27:
Ltmp110:
	lea	rdi, [rip + _str.1]
	lea	rdx, [rip + l___unnamed_7]
	mov	esi, 33
	call	__ZN4core9panicking5panic17h736ee47a631475c0E
Ltmp111:
	jmp	LBB2_6
LBB2_47:
Ltmp125:
	jmp	LBB2_42
LBB2_40:
Ltmp120:
	jmp	LBB2_46
LBB2_38:
Ltmp109:
	mov	r14, rax
	mov	rdi, r15
	mov	rsi, rbx
	call	__ZN5alloc5alloc8box_free17hfd27018577a513c9E
	mov	rdi, r14
	call	__Unwind_Resume
	ud2
LBB2_34:
Ltmp114:
	mov	r14, rax
	lea	rdi, [rbp - 208]
Ltmp115:
	call	__ZN4core3ptr13drop_in_place17h2bed3385e42bae15E
Ltmp116:
	jmp	LBB2_43
LBB2_41:
Ltmp117:
LBB2_42:
	mov	r14, rax
	mov	rdi, r14
	call	__Unwind_Resume
	ud2
LBB2_19:
Ltmp94:
Ltmp95:
	mov	rdi, rax
	call	__ZN3std9panicking3try7cleanup17hd895f7beef0a7dadE
Ltmp96:
	mov	rcx, rdx
	lea	rsi, [rbp - 376]
Ltmp97:
	mov	rdi, rbx
	mov	rdx, rax
	call	__ZN10rayon_core4join23join_recover_from_panic17h65e0dcb6d5862f08E
Ltmp98:
LBB2_6:
	ud2
LBB2_45:
Ltmp99:
	jmp	LBB2_46
LBB2_44:
Ltmp128:
	jmp	LBB2_46
LBB2_39:
Ltmp104:
LBB2_46:
	mov	r14, rax
	lea	rdi, [rbp - 496]
	call	__ZN4core3ptr13drop_in_place17h1c963e8f56dcdb1aE
LBB2_43:
	mov	rdi, r14
	call	__Unwind_Resume
	ud2
Lfunc_end2:
	.cfi_endproc
	.section	__TEXT,__gcc_except_tab
	.p2align	2
GCC_except_table2:
Lexception2:
	.byte	255
	.byte	155
	.uleb128 Lttbase2-Lttbaseref2
Lttbaseref2:
	.byte	1
	.uleb128 Lcst_end2-Lcst_begin2
Lcst_begin2:
	.uleb128 Ltmp86-Lfunc_begin2
	.uleb128 Ltmp91-Ltmp86
	.uleb128 Ltmp128-Lfunc_begin2
	.byte	0
	.uleb128 Ltmp92-Lfunc_begin2
	.uleb128 Ltmp93-Ltmp92
	.uleb128 Ltmp94-Lfunc_begin2
	.byte	3
	.uleb128 Ltmp102-Lfunc_begin2
	.uleb128 Ltmp101-Ltmp102
	.uleb128 Ltmp104-Lfunc_begin2
	.byte	0
	.uleb128 Ltmp105-Lfunc_begin2
	.uleb128 Ltmp106-Ltmp105
	.uleb128 Ltmp114-Lfunc_begin2
	.byte	0
	.uleb128 Ltmp107-Lfunc_begin2
	.uleb128 Ltmp108-Ltmp107
	.uleb128 Ltmp109-Lfunc_begin2
	.byte	0
	.uleb128 Ltmp118-Lfunc_begin2
	.uleb128 Ltmp119-Ltmp118
	.uleb128 Ltmp120-Lfunc_begin2
	.byte	0
	.uleb128 Ltmp121-Lfunc_begin2
	.uleb128 Ltmp122-Ltmp121
	.uleb128 Ltmp125-Lfunc_begin2
	.byte	0
	.uleb128 Ltmp126-Lfunc_begin2
	.uleb128 Ltmp127-Ltmp126
	.uleb128 Ltmp128-Lfunc_begin2
	.byte	0
	.uleb128 Ltmp123-Lfunc_begin2
	.uleb128 Ltmp124-Ltmp123
	.uleb128 Ltmp125-Lfunc_begin2
	.byte	0
	.uleb128 Ltmp88-Lfunc_begin2
	.uleb128 Ltmp89-Ltmp88
	.uleb128 Ltmp128-Lfunc_begin2
	.byte	0
	.uleb128 Ltmp112-Lfunc_begin2
	.uleb128 Ltmp111-Ltmp112
	.uleb128 Ltmp114-Lfunc_begin2
	.byte	0
	.uleb128 Ltmp111-Lfunc_begin2
	.uleb128 Ltmp115-Ltmp111
	.byte	0
	.byte	0
	.uleb128 Ltmp115-Lfunc_begin2
	.uleb128 Ltmp116-Ltmp115
	.uleb128 Ltmp117-Lfunc_begin2
	.byte	0
	.uleb128 Ltmp116-Lfunc_begin2
	.uleb128 Ltmp95-Ltmp116
	.byte	0
	.byte	0
	.uleb128 Ltmp95-Lfunc_begin2
	.uleb128 Ltmp96-Ltmp95
	.uleb128 Ltmp128-Lfunc_begin2
	.byte	0
	.uleb128 Ltmp97-Lfunc_begin2
	.uleb128 Ltmp98-Ltmp97
	.uleb128 Ltmp99-Lfunc_begin2
	.byte	0
	.uleb128 Ltmp98-Lfunc_begin2
	.uleb128 Lfunc_end2-Ltmp98
	.byte	0
	.byte	0
Lcst_end2:
	.byte	0
	.byte	0
	.byte	1
	.byte	125
	.p2align	2
	.long	0
Lttbase2:
	.p2align	2

	.section	__TEXT,__text,regular,pure_instructions
	.p2align	4, 0x90
__ZN10rayon_core4join12join_context28_$u7b$$u7b$closure$u7d$$u7d$17h06af1ad15c6e4ab6E:
Lfunc_begin3:
	.cfi_startproc
	.cfi_personality 155, _rust_eh_personality
	.cfi_lsda 16, Lexception3
	push	rbp
	.cfi_def_cfa_offset 16
	.cfi_offset rbp, -16
	mov	rbp, rsp
	.cfi_def_cfa_register rbp
	push	r15
	push	r14
	push	r13
	push	r12
	push	rbx
	sub	rsp, 312
	.cfi_offset rbx, -56
	.cfi_offset r12, -48
	.cfi_offset r13, -40
	.cfi_offset r14, -32
	.cfi_offset r15, -24
	mov	rbx, rdx
	mov	r12, rsi
	mov	qword ptr [rbp - 200], rdi
	mov	byte ptr [rbp - 104], 0
	mov	rax, qword ptr [rsi]
	mov	rdx, qword ptr [rsi + 8]
	mov	qword ptr [rbp - 160], rax
	mov	qword ptr [rbp - 152], rdx
	mov	rax, qword ptr [rsi + 16]
	mov	qword ptr [rbp - 144], rax
	mov	rax, qword ptr [rsi + 24]
	mov	qword ptr [rbp - 136], rax
	mov	rax, qword ptr [rsi + 32]
	mov	qword ptr [rbp - 128], rax
	mov	rax, qword ptr [rsi + 40]
	mov	qword ptr [rbp - 120], rax
	mov	rax, qword ptr [rsi + 48]
	mov	qword ptr [rbp - 112], rax
	mov	qword ptr [rbp - 192], 0
	mov	rax, qword ptr [rbx + 256]
	mov	r15, qword ptr [rax + 264]
	mov	rax, qword ptr [rax + 256]
	mov	rsi, qword ptr [rbx + 272]
	mov	rdx, r15
	sub	rdx, rax
	cmp	rdx, rsi
	mov	dword ptr [rbp - 72], ecx
	jl	LBB3_4
	add	rsi, rsi
	jb	LBB3_7
	lea	rdi, [rbx + 256]
Ltmp129:
	call	__ZN15crossbeam_deque15Worker$LT$T$GT$6resize17h5c22be2b4226dcffE
Ltmp130:
	mov	rsi, qword ptr [rbx + 272]
LBB3_4:
	sub	rsi, 1
	jb	LBB3_5
	mov	rax, qword ptr [rbx + 264]
	and	rsi, r15
	shl	rsi, 4
	lea	r13, [rbp - 192]
	mov	qword ptr [rax + rsi], r13
	lea	r14, [rip + __ZN83_$LT$rayon_core..job..StackJob$LT$L$C$F$C$R$GT$$u20$as$u20$rayon_core..job..Job$GT$7execute17h5180cd05fe905957E]
	mov	qword ptr [rax + rsi + 8], r14
	##MEMBARRIER
	mov	rax, qword ptr [rbx + 256]
	inc	r15
	mov	qword ptr [rax + 264], r15
	mov	edi, 408
	add	rdi, qword ptr [rbx + 304]
	mov	rsi, qword ptr [rbx + 288]
Ltmp133:
	call	__ZN10rayon_core5sleep5Sleep6tickle17h00d06f732555dc32E
Ltmp134:
	mov	rcx, qword ptr [r12 + 56]
	mov	r8, qword ptr [r12 + 64]
	mov	r9, qword ptr [r12 + 96]
	mov	rdi, qword ptr [r12 + 88]
	mov	qword ptr [rbp - 48], rdi
	mov	rax, qword ptr [r12 + 72]
	mov	rdx, qword ptr [r12 + 80]
	mov	qword ptr [rbp - 56], rdx
	mov	qword ptr [rbp - 64], rax
	mov	rsi, qword ptr [rcx]
	mov	rcx, qword ptr [r8]
	mov	r8, qword ptr [r8 + 8]
	mov	qword ptr [rbp - 288], rdi
	mov	qword ptr [rbp - 296], rdx
	mov	qword ptr [rbp - 304], rax
Ltmp135:
	mov	qword ptr [rsp], r9
	movzx	r15d, byte ptr [rbp - 72]
	lea	rdi, [rbp - 96]
	lea	r9, [rbp - 304]
	mov	edx, r15d
	call	__ZN5rayon4iter8plumbing24bridge_producer_consumer6helper17h98036e4f9f924d3aE
Ltmp136:
	movdqa	xmm0, xmmword ptr [rbp - 96]
	movq	qword ptr [rbp - 72], xmm0
	pshufd	xmm0, xmm0, 78
	movq	r12, xmm0
	mov	al, byte ptr [rbp - 104]
	test	al, al
	je	LBB3_12
	jmp	LBB3_16
	.p2align	4, 0x90
LBB3_22:
Ltmp145:
	mov	rdi, rbx
	mov	rsi, rax
	call	__ZN10rayon_core8registry12WorkerThread7execute17h2d3f3a8dd2af2716E
Ltmp146:
	movzx	eax, byte ptr [rbp - 104]
	test	al, al
	jne	LBB3_16
LBB3_12:
Ltmp143:
	mov	rdi, rbx
	call	__ZN10rayon_core8registry12WorkerThread14take_local_job17h123bfb54be8597fdE
Ltmp144:
	test	rdx, rdx
	je	LBB3_14
	cmp	rax, r13
	jne	LBB3_22
	cmp	rdx, r14
	jne	LBB3_22
	movaps	xmm0, xmmword ptr [rbp - 112]
	movaps	xmmword ptr [rbp - 224], xmm0
	movaps	xmm0, xmmword ptr [rbp - 128]
	movaps	xmmword ptr [rbp - 240], xmm0
	movdqa	xmm0, xmmword ptr [rbp - 192]
	movaps	xmm1, xmmword ptr [rbp - 176]
	movaps	xmm2, xmmword ptr [rbp - 160]
	movaps	xmm3, xmmword ptr [rbp - 144]
	movaps	xmmword ptr [rbp - 256], xmm3
	movaps	xmmword ptr [rbp - 272], xmm2
	movaps	xmmword ptr [rbp - 288], xmm1
	movdqa	xmmword ptr [rbp - 304], xmm0
	mov	rsi, qword ptr [rbp - 272]
	mov	rcx, qword ptr [rbp - 264]
	mov	rax, qword ptr [rbp - 256]
	mov	rdx, qword ptr [rbp - 248]
	mov	qword ptr [rbp - 64], rdx
	mov	rdx, qword ptr [rbp - 240]
	mov	rdi, qword ptr [rbp - 232]
	mov	qword ptr [rbp - 56], rdx
	mov	qword ptr [rbp - 48], rdi
	test	rsi, rsi
	je	LBB3_24
	mov	r9, qword ptr [rbp - 224]
	mov	rdi, qword ptr [rbp - 48]
	mov	qword ptr [rbp - 328], rdi
	mov	rbx, qword ptr [rbp - 64]
	mov	rdx, qword ptr [rbp - 56]
	mov	qword ptr [rbp - 336], rdx
	mov	qword ptr [rbp - 344], rbx
	mov	qword ptr [rbp - 80], rdi
	mov	qword ptr [rbp - 88], rdx
	mov	qword ptr [rbp - 96], rbx
	mov	rsi, qword ptr [rsi]
	sub	rsi, qword ptr [rcx]
	jb	LBB3_26
	mov	rcx, qword ptr [rax]
	mov	r8, qword ptr [rax + 8]
	mov	rax, qword ptr [rbp - 80]
	mov	qword ptr [rbp - 48], rax
	mov	rax, qword ptr [rbp - 96]
	mov	rdx, qword ptr [rbp - 88]
	mov	qword ptr [rbp - 56], rdx
	mov	qword ptr [rbp - 64], rax
Ltmp148:
	mov	qword ptr [rsp], r9
	lea	rdi, [rbp - 320]
	lea	r9, [rbp - 64]
	mov	edx, r15d
	call	__ZN5rayon4iter8plumbing24bridge_producer_consumer6helper17h98036e4f9f924d3aE
Ltmp149:
	cmp	qword ptr [rbp - 304], 2
	jb	LBB3_32
	mov	r15, qword ptr [rbp - 296]
	mov	rbx, qword ptr [rbp - 288]
Ltmp150:
	mov	rdi, r15
	call	qword ptr [rbx]
Ltmp151:
	mov	rsi, qword ptr [rbx + 8]
	test	rsi, rsi
	je	LBB3_32
	mov	rdx, qword ptr [rbx + 16]
	mov	rdi, r15
	call	___rust_dealloc
LBB3_32:
	movdqa	xmm0, xmmword ptr [rbp - 320]
	movq	rsi, xmm0
	jmp	LBB3_17
LBB3_14:
	mov	al, byte ptr [rbp - 104]
	test	al, al
	jne	LBB3_16
Ltmp161:
	mov	rdi, rbx
	lea	rsi, [rbp - 104]
	call	__ZN10rayon_core8registry12WorkerThread15wait_until_cold17h4ea94d81ba0d12faE
Ltmp162:
LBB3_16:
	mov	rax, qword ptr [rbp - 192]
	movdqa	xmm0, xmmword ptr [rbp - 176]
	movq	rsi, xmm0
	cmp	rax, 1
	jne	LBB3_34
LBB3_17:
	pshufd	xmm0, xmm0, 78
	movq	rax, xmm0
	mov	rcx, qword ptr [rbp - 200]
	mov	rdx, qword ptr [rbp - 72]
	mov	qword ptr [rcx], rdx
	mov	qword ptr [rcx + 8], r12
	mov	qword ptr [rcx + 16], rsi
	mov	qword ptr [rcx + 24], rax
	add	rsp, 312
	pop	rbx
	pop	r12
	pop	r13
	pop	r14
	pop	r15
	pop	rbp
	ret
LBB3_34:
	test	rax, rax
	je	LBB3_36
	mov	rdi, qword ptr [rbp - 184]
Ltmp164:
	call	__ZN10rayon_core6unwind16resume_unwinding17h47c2e39f90248736E
Ltmp165:
	jmp	LBB3_6
LBB3_5:
Ltmp169:
	lea	rdi, [rip + _str.1]
	lea	rdx, [rip + l___unnamed_1]
	mov	esi, 33
	call	__ZN4core9panicking5panic17h736ee47a631475c0E
Ltmp170:
	jmp	LBB3_6
LBB3_36:
Ltmp166:
	lea	rdi, [rip + l___unnamed_2]
	lea	rdx, [rip + l___unnamed_3]
	mov	esi, 40
	call	__ZN3std9panicking11begin_panic17h75aebe10c874e798E
Ltmp167:
	jmp	LBB3_6
LBB3_7:
Ltmp131:
	lea	rdi, [rip + _str.3]
	lea	rdx, [rip + l___unnamed_4]
	mov	esi, 33
	call	__ZN4core9panicking5panic17h736ee47a631475c0E
Ltmp132:
	jmp	LBB3_6
LBB3_24:
Ltmp155:
	lea	rdi, [rip + l___unnamed_5]
	lea	rdx, [rip + l___unnamed_6]
	mov	esi, 43
	call	__ZN4core9panicking5panic17h736ee47a631475c0E
Ltmp156:
	jmp	LBB3_6
LBB3_26:
Ltmp153:
	lea	rdi, [rip + _str.1]
	lea	rdx, [rip + l___unnamed_7]
	mov	esi, 33
	call	__ZN4core9panicking5panic17h736ee47a631475c0E
Ltmp154:
	jmp	LBB3_6
LBB3_46:
Ltmp168:
	jmp	LBB3_41
LBB3_39:
Ltmp163:
	jmp	LBB3_45
LBB3_37:
Ltmp152:
	mov	r14, rax
	mov	rdi, r15
	mov	rsi, rbx
	call	__ZN5alloc5alloc8box_free17hfd27018577a513c9E
	mov	rdi, r14
	call	__Unwind_Resume
	ud2
LBB3_33:
Ltmp157:
	mov	r14, rax
Ltmp158:
	lea	rdi, [rbp - 304]
	call	__ZN4core3ptr13drop_in_place17h03e3d151d67a9ae6E
Ltmp159:
	jmp	LBB3_42
LBB3_40:
Ltmp160:
LBB3_41:
	mov	r14, rax
	mov	rdi, r14
	call	__Unwind_Resume
	ud2
LBB3_18:
Ltmp137:
Ltmp138:
	mov	rdi, rax
	call	__ZN3std9panicking3try7cleanup17hd895f7beef0a7dadE
Ltmp139:
	mov	rcx, rdx
	lea	rsi, [rbp - 104]
Ltmp140:
	mov	rdi, rbx
	mov	rdx, rax
	call	__ZN10rayon_core4join23join_recover_from_panic17h65e0dcb6d5862f08E
Ltmp141:
LBB3_6:
	ud2
LBB3_44:
Ltmp142:
	jmp	LBB3_45
LBB3_43:
Ltmp171:
	jmp	LBB3_45
LBB3_38:
Ltmp147:
LBB3_45:
	mov	r14, rax
	lea	rdi, [rbp - 192]
	call	__ZN4core3ptr13drop_in_place17h03e3d151d67a9ae6E
LBB3_42:
	mov	rdi, r14
	call	__Unwind_Resume
	ud2
Lfunc_end3:
	.cfi_endproc
	.section	__TEXT,__gcc_except_tab
	.p2align	2
GCC_except_table3:
Lexception3:
	.byte	255
	.byte	155
	.uleb128 Lttbase3-Lttbaseref3
Lttbaseref3:
	.byte	1
	.uleb128 Lcst_end3-Lcst_begin3
Lcst_begin3:
	.uleb128 Ltmp129-Lfunc_begin3
	.uleb128 Ltmp134-Ltmp129
	.uleb128 Ltmp171-Lfunc_begin3
	.byte	0
	.uleb128 Ltmp135-Lfunc_begin3
	.uleb128 Ltmp136-Ltmp135
	.uleb128 Ltmp137-Lfunc_begin3
	.byte	3
	.uleb128 Ltmp145-Lfunc_begin3
	.uleb128 Ltmp144-Ltmp145
	.uleb128 Ltmp147-Lfunc_begin3
	.byte	0
	.uleb128 Ltmp148-Lfunc_begin3
	.uleb128 Ltmp149-Ltmp148
	.uleb128 Ltmp157-Lfunc_begin3
	.byte	0
	.uleb128 Ltmp150-Lfunc_begin3
	.uleb128 Ltmp151-Ltmp150
	.uleb128 Ltmp152-Lfunc_begin3
	.byte	0
	.uleb128 Ltmp161-Lfunc_begin3
	.uleb128 Ltmp162-Ltmp161
	.uleb128 Ltmp163-Lfunc_begin3
	.byte	0
	.uleb128 Ltmp164-Lfunc_begin3
	.uleb128 Ltmp165-Ltmp164
	.uleb128 Ltmp168-Lfunc_begin3
	.byte	0
	.uleb128 Ltmp169-Lfunc_begin3
	.uleb128 Ltmp170-Ltmp169
	.uleb128 Ltmp171-Lfunc_begin3
	.byte	0
	.uleb128 Ltmp166-Lfunc_begin3
	.uleb128 Ltmp167-Ltmp166
	.uleb128 Ltmp168-Lfunc_begin3
	.byte	0
	.uleb128 Ltmp131-Lfunc_begin3
	.uleb128 Ltmp132-Ltmp131
	.uleb128 Ltmp171-Lfunc_begin3
	.byte	0
	.uleb128 Ltmp155-Lfunc_begin3
	.uleb128 Ltmp154-Ltmp155
	.uleb128 Ltmp157-Lfunc_begin3
	.byte	0
	.uleb128 Ltmp154-Lfunc_begin3
	.uleb128 Ltmp158-Ltmp154
	.byte	0
	.byte	0
	.uleb128 Ltmp158-Lfunc_begin3
	.uleb128 Ltmp159-Ltmp158
	.uleb128 Ltmp160-Lfunc_begin3
	.byte	0
	.uleb128 Ltmp159-Lfunc_begin3
	.uleb128 Ltmp138-Ltmp159
	.byte	0
	.byte	0
	.uleb128 Ltmp138-Lfunc_begin3
	.uleb128 Ltmp139-Ltmp138
	.uleb128 Ltmp171-Lfunc_begin3
	.byte	0
	.uleb128 Ltmp140-Lfunc_begin3
	.uleb128 Ltmp141-Ltmp140
	.uleb128 Ltmp142-Lfunc_begin3
	.byte	0
	.uleb128 Ltmp141-Lfunc_begin3
	.uleb128 Lfunc_end3-Ltmp141
	.byte	0
	.byte	0
Lcst_end3:
	.byte	0
	.byte	0
	.byte	1
	.byte	125
	.p2align	2
	.long	0
Lttbase3:
	.p2align	2

	.section	__TEXT,__text,regular,pure_instructions
	.p2align	4, 0x90
__ZN10rayon_core4join12join_context28_$u7b$$u7b$closure$u7d$$u7d$17h0c2e839f5534dfb6E:
Lfunc_begin4:
	.cfi_startproc
	.cfi_personality 155, _rust_eh_personality
	.cfi_lsda 16, Lexception4
	push	rbp
	.cfi_def_cfa_offset 16
	.cfi_offset rbp, -16
	mov	rbp, rsp
	.cfi_def_cfa_register rbp
	push	r15
	push	r14
	push	r13
	push	r12
	push	rbx
	sub	rsp, 552
	.cfi_offset rbx, -56
	.cfi_offset r12, -48
	.cfi_offset r13, -40
	.cfi_offset r14, -32
	.cfi_offset r15, -24
	mov	r8d, ecx
	mov	rbx, rdx
	mov	r12, rsi
	mov	qword ptr [rbp - 200], rdi
	mov	byte ptr [rbp - 448], 0
	lea	rdi, [rbp - 544]
	mov	ecx, 12
	rep movsq es:[rdi], [rsi]
	mov	qword ptr [rbp - 576], 0
	mov	rax, qword ptr [rdx + 256]
	mov	r15, qword ptr [rax + 264]
	mov	rax, qword ptr [rax + 256]
	mov	rsi, qword ptr [rdx + 272]
	mov	rcx, r15
	sub	rcx, rax
	cmp	rcx, rsi
	mov	dword ptr [rbp - 192], r8d
	jl	LBB4_4
	add	rsi, rsi
	jb	LBB4_7
	lea	rdi, [rbx + 256]
Ltmp172:
	call	__ZN15crossbeam_deque15Worker$LT$T$GT$6resize17h5c22be2b4226dcffE
Ltmp173:
	mov	rsi, qword ptr [rbx + 272]
LBB4_4:
	sub	rsi, 1
	jb	LBB4_5
	mov	rax, qword ptr [rbx + 264]
	and	rsi, r15
	shl	rsi, 4
	lea	r13, [rbp - 576]
	mov	qword ptr [rax + rsi], r13
	lea	r14, [rip + __ZN83_$LT$rayon_core..job..StackJob$LT$L$C$F$C$R$GT$$u20$as$u20$rayon_core..job..Job$GT$7execute17h6932d405b68ab792E]
	mov	qword ptr [rax + rsi + 8], r14
	##MEMBARRIER
	mov	rax, qword ptr [rbx + 256]
	inc	r15
	mov	qword ptr [rax + 264], r15
	mov	edi, 408
	add	rdi, qword ptr [rbx + 304]
	mov	rsi, qword ptr [rbx + 288]
Ltmp176:
	call	__ZN10rayon_core5sleep5Sleep6tickle17h00d06f732555dc32E
Ltmp177:
	mov	rcx, qword ptr [r12 + 96]
	mov	rdx, qword ptr [r12 + 104]
	mov	rax, qword ptr [r12 + 176]
	mov	rsi, qword ptr [r12 + 168]
	mov	qword ptr [rbp - 48], rsi
	mov	rsi, qword ptr [r12 + 160]
	mov	qword ptr [rbp - 56], rsi
	mov	rsi, qword ptr [r12 + 152]
	mov	qword ptr [rbp - 64], rsi
	mov	rsi, qword ptr [r12 + 144]
	mov	qword ptr [rbp - 72], rsi
	mov	rsi, qword ptr [r12 + 136]
	mov	qword ptr [rbp - 80], rsi
	mov	rsi, qword ptr [r12 + 128]
	mov	qword ptr [rbp - 88], rsi
	mov	rsi, qword ptr [r12 + 112]
	mov	rdi, qword ptr [r12 + 120]
	mov	qword ptr [rbp - 96], rdi
	mov	qword ptr [rbp - 104], rsi
	mov	rsi, qword ptr [rcx]
	mov	rcx, qword ptr [rdx]
	mov	r8, qword ptr [rdx + 8]
	mov	rdx, qword ptr [rbp - 48]
	mov	qword ptr [rbp - 296], rdx
	mov	rdx, qword ptr [rbp - 56]
	mov	qword ptr [rbp - 304], rdx
	mov	rdx, qword ptr [rbp - 64]
	mov	qword ptr [rbp - 312], rdx
	mov	rdx, qword ptr [rbp - 72]
	mov	qword ptr [rbp - 320], rdx
	mov	rdx, qword ptr [rbp - 80]
	mov	qword ptr [rbp - 328], rdx
	mov	rdx, qword ptr [rbp - 88]
	mov	qword ptr [rbp - 336], rdx
	mov	rdx, qword ptr [rbp - 104]
	mov	rdi, qword ptr [rbp - 96]
	mov	qword ptr [rbp - 344], rdi
	mov	qword ptr [rbp - 352], rdx
Ltmp178:
	mov	qword ptr [rsp], rax
	movzx	r15d, byte ptr [rbp - 192]
	lea	rdi, [rbp - 176]
	lea	r9, [rbp - 352]
	mov	edx, r15d
	call	__ZN5rayon4iter8plumbing24bridge_producer_consumer6helper17h3f29bd5f13ae43a6E
Ltmp179:
	movdqa	xmm0, xmmword ptr [rbp - 176]
	movdqa	xmmword ptr [rbp - 192], xmm0
	lea	r12, [rbp - 448]
	mov	al, byte ptr [rbp - 448]
	test	al, al
	je	LBB4_12
	jmp	LBB4_16
	.p2align	4, 0x90
LBB4_23:
Ltmp188:
	mov	rdi, rbx
	mov	rsi, rax
	call	__ZN10rayon_core8registry12WorkerThread7execute17h2d3f3a8dd2af2716E
Ltmp189:
	movzx	eax, byte ptr [rbp - 448]
	test	al, al
	jne	LBB4_16
LBB4_12:
Ltmp186:
	mov	rdi, rbx
	call	__ZN10rayon_core8registry12WorkerThread14take_local_job17h123bfb54be8597fdE
Ltmp187:
	test	rdx, rdx
	je	LBB4_14
	cmp	rax, r13
	jne	LBB4_23
	cmp	rdx, r14
	jne	LBB4_23
	lea	rdi, [rbp - 352]
	lea	rsi, [rbp - 576]
	mov	edx, 144
	call	_memcpy
	mov	r11, qword ptr [rbp - 320]
	mov	r8, qword ptr [rbp - 312]
	mov	r10, qword ptr [rbp - 304]
	mov	rdx, qword ptr [rbp - 296]
	mov	qword ptr [rbp - 104], rdx
	mov	rdx, qword ptr [rbp - 288]
	mov	qword ptr [rbp - 96], rdx
	mov	rdx, qword ptr [rbp - 280]
	mov	qword ptr [rbp - 88], rdx
	mov	rdx, qword ptr [rbp - 272]
	mov	qword ptr [rbp - 80], rdx
	mov	rdx, qword ptr [rbp - 264]
	mov	qword ptr [rbp - 72], rdx
	mov	rdx, qword ptr [rbp - 256]
	mov	qword ptr [rbp - 64], rdx
	mov	rdx, qword ptr [rbp - 248]
	mov	qword ptr [rbp - 56], rdx
	mov	rdx, qword ptr [rbp - 240]
	mov	qword ptr [rbp - 48], rdx
	test	r11, r11
	je	LBB4_25
	mov	r9, qword ptr [rbp - 232]
	mov	rdi, qword ptr [rbp - 48]
	mov	qword ptr [rbp - 360], rdi
	mov	r14, qword ptr [rbp - 56]
	mov	qword ptr [rbp - 368], r14
	mov	rbx, qword ptr [rbp - 64]
	mov	qword ptr [rbp - 376], rbx
	mov	rdx, qword ptr [rbp - 72]
	mov	qword ptr [rbp - 384], rdx
	mov	rcx, qword ptr [rbp - 80]
	mov	qword ptr [rbp - 392], rcx
	mov	rax, qword ptr [rbp - 88]
	mov	qword ptr [rbp - 400], rax
	mov	rsi, qword ptr [rbp - 104]
	mov	rdi, qword ptr [rbp - 96]
	mov	qword ptr [rbp - 408], rdi
	mov	qword ptr [rbp - 416], rsi
	mov	qword ptr [rbp - 128], r14
	mov	qword ptr [rbp - 136], rbx
	mov	qword ptr [rbp - 144], rdx
	mov	qword ptr [rbp - 152], rcx
	mov	qword ptr [rbp - 160], rax
	mov	qword ptr [rbp - 168], rdi
	mov	qword ptr [rbp - 176], rsi
	mov	rax, qword ptr [rbp - 360]
	mov	qword ptr [rbp - 120], rax
	mov	rsi, qword ptr [r11]
	sub	rsi, qword ptr [r8]
	jb	LBB4_34
	mov	rcx, qword ptr [r10]
	mov	r8, qword ptr [r10 + 8]
	mov	rax, qword ptr [rbp - 120]
	mov	qword ptr [rbp - 48], rax
	mov	rax, qword ptr [rbp - 128]
	mov	qword ptr [rbp - 56], rax
	mov	rax, qword ptr [rbp - 136]
	mov	qword ptr [rbp - 64], rax
	mov	rax, qword ptr [rbp - 144]
	mov	qword ptr [rbp - 72], rax
	mov	rax, qword ptr [rbp - 152]
	mov	qword ptr [rbp - 80], rax
	mov	rax, qword ptr [rbp - 160]
	mov	qword ptr [rbp - 88], rax
	mov	rax, qword ptr [rbp - 176]
	mov	rdx, qword ptr [rbp - 168]
	mov	qword ptr [rbp - 96], rdx
	mov	qword ptr [rbp - 104], rax
Ltmp191:
	mov	qword ptr [rsp], r9
	lea	rdi, [rbp - 432]
	lea	r9, [rbp - 104]
	mov	edx, r15d
	call	__ZN5rayon4iter8plumbing24bridge_producer_consumer6helper17h3f29bd5f13ae43a6E
Ltmp192:
	cmp	qword ptr [rbp - 352], 2
	jb	LBB4_32
	mov	r15, qword ptr [rbp - 344]
	mov	rbx, qword ptr [rbp - 336]
Ltmp193:
	mov	rdi, r15
	call	qword ptr [rbx]
Ltmp194:
	mov	rsi, qword ptr [rbx + 8]
	test	rsi, rsi
	je	LBB4_32
	mov	rdx, qword ptr [rbx + 16]
	mov	rdi, r15
	call	___rust_dealloc
LBB4_32:
	movdqa	xmm0, xmmword ptr [rbp - 432]
	jmp	LBB4_33
LBB4_14:
	mov	al, byte ptr [rbp - 448]
	test	al, al
	jne	LBB4_16
Ltmp204:
	mov	rdi, rbx
	mov	rsi, r12
	call	__ZN10rayon_core8registry12WorkerThread15wait_until_cold17h4ea94d81ba0d12faE
Ltmp205:
LBB4_16:
	mov	rax, qword ptr [rbp - 576]
	movdqa	xmm0, xmmword ptr [rbp - 560]
	cmp	rax, 1
	jne	LBB4_17
LBB4_33:
	mov	rax, qword ptr [rbp - 200]
	movaps	xmm1, xmmword ptr [rbp - 192]
	movaps	xmmword ptr [rax], xmm1
	movdqa	xmmword ptr [rax + 16], xmm0
	add	rsp, 552
	pop	rbx
	pop	r12
	pop	r13
	pop	r14
	pop	r15
	pop	rbp
	ret
LBB4_17:
	test	rax, rax
	je	LBB4_36
	mov	rdi, qword ptr [rbp - 568]
	movq	rsi, xmm0
Ltmp207:
	call	__ZN10rayon_core6unwind16resume_unwinding17h47c2e39f90248736E
Ltmp208:
	jmp	LBB4_6
LBB4_5:
Ltmp212:
	lea	rdi, [rip + _str.1]
	lea	rdx, [rip + l___unnamed_1]
	mov	esi, 33
	call	__ZN4core9panicking5panic17h736ee47a631475c0E
Ltmp213:
	jmp	LBB4_6
LBB4_36:
Ltmp209:
	lea	rdi, [rip + l___unnamed_2]
	lea	rdx, [rip + l___unnamed_3]
	mov	esi, 40
	call	__ZN3std9panicking11begin_panic17h75aebe10c874e798E
Ltmp210:
	jmp	LBB4_6
LBB4_7:
Ltmp174:
	lea	rdi, [rip + _str.3]
	lea	rdx, [rip + l___unnamed_4]
	mov	esi, 33
	call	__ZN4core9panicking5panic17h736ee47a631475c0E
Ltmp175:
	jmp	LBB4_6
LBB4_25:
Ltmp198:
	lea	rdi, [rip + l___unnamed_5]
	lea	rdx, [rip + l___unnamed_6]
	mov	esi, 43
	call	__ZN4core9panicking5panic17h736ee47a631475c0E
Ltmp199:
	jmp	LBB4_6
LBB4_34:
Ltmp196:
	lea	rdi, [rip + _str.1]
	lea	rdx, [rip + l___unnamed_7]
	mov	esi, 33
	call	__ZN4core9panicking5panic17h736ee47a631475c0E
Ltmp197:
	jmp	LBB4_6
LBB4_46:
Ltmp211:
	jmp	LBB4_41
LBB4_39:
Ltmp206:
	jmp	LBB4_45
LBB4_37:
Ltmp195:
	mov	r14, rax
	mov	rdi, r15
	mov	rsi, rbx
	call	__ZN5alloc5alloc8box_free17hfd27018577a513c9E
	mov	rdi, r14
	call	__Unwind_Resume
	ud2
LBB4_35:
Ltmp200:
	mov	r14, rax
Ltmp201:
	lea	rdi, [rbp - 352]
	call	__ZN4core3ptr13drop_in_place17h03e3d151d67a9ae6E
Ltmp202:
	jmp	LBB4_42
LBB4_40:
Ltmp203:
LBB4_41:
	mov	r14, rax
	mov	rdi, r14
	call	__Unwind_Resume
	ud2
LBB4_19:
Ltmp180:
Ltmp181:
	mov	rdi, rax
	call	__ZN3std9panicking3try7cleanup17hd895f7beef0a7dadE
Ltmp182:
	mov	rcx, rdx
	lea	rsi, [rbp - 448]
Ltmp183:
	mov	rdi, rbx
	mov	rdx, rax
	call	__ZN10rayon_core4join23join_recover_from_panic17h65e0dcb6d5862f08E
Ltmp184:
LBB4_6:
	ud2
LBB4_44:
Ltmp185:
	jmp	LBB4_45
LBB4_43:
Ltmp214:
	jmp	LBB4_45
LBB4_38:
Ltmp190:
LBB4_45:
	mov	r14, rax
	lea	rdi, [rbp - 576]
	call	__ZN4core3ptr13drop_in_place17h03e3d151d67a9ae6E
LBB4_42:
	mov	rdi, r14
	call	__Unwind_Resume
	ud2
Lfunc_end4:
	.cfi_endproc
	.section	__TEXT,__gcc_except_tab
	.p2align	2
GCC_except_table4:
Lexception4:
	.byte	255
	.byte	155
	.uleb128 Lttbase4-Lttbaseref4
Lttbaseref4:
	.byte	1
	.uleb128 Lcst_end4-Lcst_begin4
Lcst_begin4:
	.uleb128 Ltmp172-Lfunc_begin4
	.uleb128 Ltmp177-Ltmp172
	.uleb128 Ltmp214-Lfunc_begin4
	.byte	0
	.uleb128 Ltmp178-Lfunc_begin4
	.uleb128 Ltmp179-Ltmp178
	.uleb128 Ltmp180-Lfunc_begin4
	.byte	3
	.uleb128 Ltmp188-Lfunc_begin4
	.uleb128 Ltmp187-Ltmp188
	.uleb128 Ltmp190-Lfunc_begin4
	.byte	0
	.uleb128 Ltmp187-Lfunc_begin4
	.uleb128 Ltmp191-Ltmp187
	.byte	0
	.byte	0
	.uleb128 Ltmp191-Lfunc_begin4
	.uleb128 Ltmp192-Ltmp191
	.uleb128 Ltmp200-Lfunc_begin4
	.byte	0
	.uleb128 Ltmp193-Lfunc_begin4
	.uleb128 Ltmp194-Ltmp193
	.uleb128 Ltmp195-Lfunc_begin4
	.byte	0
	.uleb128 Ltmp204-Lfunc_begin4
	.uleb128 Ltmp205-Ltmp204
	.uleb128 Ltmp206-Lfunc_begin4
	.byte	0
	.uleb128 Ltmp207-Lfunc_begin4
	.uleb128 Ltmp208-Ltmp207
	.uleb128 Ltmp211-Lfunc_begin4
	.byte	0
	.uleb128 Ltmp212-Lfunc_begin4
	.uleb128 Ltmp213-Ltmp212
	.uleb128 Ltmp214-Lfunc_begin4
	.byte	0
	.uleb128 Ltmp209-Lfunc_begin4
	.uleb128 Ltmp210-Ltmp209
	.uleb128 Ltmp211-Lfunc_begin4
	.byte	0
	.uleb128 Ltmp174-Lfunc_begin4
	.uleb128 Ltmp175-Ltmp174
	.uleb128 Ltmp214-Lfunc_begin4
	.byte	0
	.uleb128 Ltmp198-Lfunc_begin4
	.uleb128 Ltmp197-Ltmp198
	.uleb128 Ltmp200-Lfunc_begin4
	.byte	0
	.uleb128 Ltmp197-Lfunc_begin4
	.uleb128 Ltmp201-Ltmp197
	.byte	0
	.byte	0
	.uleb128 Ltmp201-Lfunc_begin4
	.uleb128 Ltmp202-Ltmp201
	.uleb128 Ltmp203-Lfunc_begin4
	.byte	0
	.uleb128 Ltmp202-Lfunc_begin4
	.uleb128 Ltmp181-Ltmp202
	.byte	0
	.byte	0
	.uleb128 Ltmp181-Lfunc_begin4
	.uleb128 Ltmp182-Ltmp181
	.uleb128 Ltmp214-Lfunc_begin4
	.byte	0
	.uleb128 Ltmp183-Lfunc_begin4
	.uleb128 Ltmp184-Ltmp183
	.uleb128 Ltmp185-Lfunc_begin4
	.byte	0
	.uleb128 Ltmp184-Lfunc_begin4
	.uleb128 Lfunc_end4-Ltmp184
	.byte	0
	.byte	0
Lcst_end4:
	.byte	0
	.byte	0
	.byte	1
	.byte	125
	.p2align	2
	.long	0
Lttbase4:
	.p2align	2

	.section	__TEXT,__text,regular,pure_instructions
	.p2align	4, 0x90
__ZN10rayon_core4join12join_context28_$u7b$$u7b$closure$u7d$$u7d$17h0d390034817a00f0E:
Lfunc_begin5:
	.cfi_startproc
	.cfi_personality 155, _rust_eh_personality
	.cfi_lsda 16, Lexception5
	push	rbp
	.cfi_def_cfa_offset 16
	.cfi_offset rbp, -16
	mov	rbp, rsp
	.cfi_def_cfa_register rbp
	push	r15
	push	r14
	push	r13
	push	r12
	push	rbx
	sub	rsp, 280
	.cfi_offset rbx, -56
	.cfi_offset r12, -48
	.cfi_offset r13, -40
	.cfi_offset r14, -32
	.cfi_offset r15, -24
	mov	rbx, rdx
	mov	r12, rsi
	mov	rax, qword ptr [rsi + 48]
	mov	qword ptr [rbp - 152], rax
	mov	rax, qword ptr [rsi + 40]
	mov	qword ptr [rbp - 160], rax
	mov	rax, qword ptr [rsi + 32]
	mov	qword ptr [rbp - 168], rax
	mov	rax, qword ptr [rsi + 24]
	mov	qword ptr [rbp - 176], rax
	mov	rax, qword ptr [rsi + 16]
	mov	qword ptr [rbp - 184], rax
	mov	rax, qword ptr [rsi]
	mov	rdx, qword ptr [rsi + 8]
	mov	qword ptr [rbp - 192], rdx
	mov	qword ptr [rbp - 200], rax
	mov	byte ptr [rbp - 120], 0
	mov	qword ptr [rbp - 144], 0
	mov	rax, qword ptr [rbx + 256]
	mov	r15, qword ptr [rax + 264]
	mov	rax, qword ptr [rax + 256]
	mov	rsi, qword ptr [rbx + 272]
	mov	rdx, r15
	sub	rdx, rax
	cmp	rdx, rsi
	mov	qword ptr [rbp - 80], rdi
	mov	dword ptr [rbp - 68], ecx
	jl	LBB5_4
	add	rsi, rsi
	jb	LBB5_7
	lea	rdi, [rbx + 256]
Ltmp215:
	call	__ZN15crossbeam_deque15Worker$LT$T$GT$6resize17h5c22be2b4226dcffE
Ltmp216:
	mov	rsi, qword ptr [rbx + 272]
LBB5_4:
	sub	rsi, 1
	jb	LBB5_5
	mov	rax, qword ptr [rbx + 264]
	and	rsi, r15
	shl	rsi, 4
	lea	r14, [rbp - 200]
	mov	qword ptr [rax + rsi], r14
	lea	r13, [rip + __ZN83_$LT$rayon_core..job..StackJob$LT$L$C$F$C$R$GT$$u20$as$u20$rayon_core..job..Job$GT$7execute17h2c1862843067b9f9E]
	mov	qword ptr [rax + rsi + 8], r13
	##MEMBARRIER
	mov	rax, qword ptr [rbx + 256]
	inc	r15
	mov	qword ptr [rax + 264], r15
	mov	edi, 408
	add	rdi, qword ptr [rbx + 304]
	mov	rsi, qword ptr [rbx + 288]
Ltmp219:
	call	__ZN10rayon_core5sleep5Sleep6tickle17h00d06f732555dc32E
Ltmp220:
	mov	rax, qword ptr [r12 + 56]
	mov	rdx, qword ptr [r12 + 64]
	mov	rdi, qword ptr [r12 + 96]
	mov	rsi, qword ptr [rax]
	mov	rcx, qword ptr [rdx]
	mov	r8, qword ptr [rdx + 8]
	mov	rax, qword ptr [r12 + 88]
	mov	qword ptr [rbp - 272], rax
	mov	rax, qword ptr [r12 + 72]
	mov	rdx, qword ptr [r12 + 80]
	mov	qword ptr [rbp - 280], rdx
	mov	qword ptr [rbp - 288], rax
Ltmp221:
	mov	qword ptr [rsp], rdi
	movzx	r15d, byte ptr [rbp - 68]
	lea	rdi, [rbp - 64]
	lea	r9, [rbp - 288]
	mov	edx, r15d
	call	__ZN5rayon4iter8plumbing24bridge_producer_consumer6helper17h6a5b1fc03ed9bb13E
Ltmp222:
	mov	r12, qword ptr [rbp - 64]
	mov	al, byte ptr [rbp - 120]
	test	al, al
	je	LBB5_12
	jmp	LBB5_16
	.p2align	4, 0x90
LBB5_23:
Ltmp231:
	mov	rdi, rbx
	mov	rsi, rax
	call	__ZN10rayon_core8registry12WorkerThread7execute17h2d3f3a8dd2af2716E
Ltmp232:
	movzx	eax, byte ptr [rbp - 120]
	test	al, al
	jne	LBB5_16
LBB5_12:
Ltmp229:
	mov	rdi, rbx
	call	__ZN10rayon_core8registry12WorkerThread14take_local_job17h123bfb54be8597fdE
Ltmp230:
	test	rdx, rdx
	je	LBB5_14
	cmp	rax, r14
	jne	LBB5_23
	cmp	rdx, r13
	jne	LBB5_23
	lea	rdi, [rbp - 288]
	lea	rsi, [rbp - 200]
	mov	ecx, 11
	rep movsq es:[rdi], [rsi]
	mov	rsi, qword ptr [rbp - 288]
	mov	rcx, qword ptr [rbp - 280]
	mov	rax, qword ptr [rbp - 272]
	mov	rdx, qword ptr [rbp - 264]
	mov	qword ptr [rbp - 64], rdx
	mov	rdx, qword ptr [rbp - 256]
	mov	qword ptr [rbp - 56], rdx
	mov	rdx, qword ptr [rbp - 248]
	mov	qword ptr [rbp - 48], rdx
	test	rsi, rsi
	je	LBB5_25
	mov	r9, qword ptr [rbp - 240]
	mov	rdi, qword ptr [rbp - 48]
	mov	qword ptr [rbp - 296], rdi
	mov	rbx, qword ptr [rbp - 64]
	mov	rdx, qword ptr [rbp - 56]
	mov	qword ptr [rbp - 304], rdx
	mov	qword ptr [rbp - 312], rbx
	mov	qword ptr [rbp - 96], rdi
	mov	qword ptr [rbp - 104], rdx
	mov	qword ptr [rbp - 112], rbx
	mov	rsi, qword ptr [rsi]
	sub	rsi, qword ptr [rcx]
	jb	LBB5_27
	mov	rcx, qword ptr [rax]
	mov	r8, qword ptr [rax + 8]
	mov	rax, qword ptr [rbp - 96]
	mov	qword ptr [rbp - 48], rax
	mov	rax, qword ptr [rbp - 112]
	mov	rdx, qword ptr [rbp - 104]
	mov	qword ptr [rbp - 56], rdx
	mov	qword ptr [rbp - 64], rax
Ltmp234:
	mov	qword ptr [rsp], r9
	lea	rdi, [rbp - 88]
	lea	r9, [rbp - 64]
	mov	edx, r15d
	call	__ZN5rayon4iter8plumbing24bridge_producer_consumer6helper17h6a5b1fc03ed9bb13E
Ltmp235:
	cmp	qword ptr [rbp - 232], 2
	jb	LBB5_33
	mov	r15, qword ptr [rbp - 224]
	mov	rbx, qword ptr [rbp - 216]
Ltmp236:
	mov	rdi, r15
	call	qword ptr [rbx]
Ltmp237:
	mov	rsi, qword ptr [rbx + 8]
	test	rsi, rsi
	je	LBB5_33
	mov	rdx, qword ptr [rbx + 16]
	mov	rdi, r15
	call	___rust_dealloc
LBB5_33:
	mov	rdi, qword ptr [rbp - 88]
	jmp	LBB5_34
LBB5_14:
	mov	al, byte ptr [rbp - 120]
	test	al, al
	jne	LBB5_16
Ltmp247:
	mov	rdi, rbx
	lea	rsi, [rbp - 120]
	call	__ZN10rayon_core8registry12WorkerThread15wait_until_cold17h4ea94d81ba0d12faE
Ltmp248:
LBB5_16:
	mov	rax, qword ptr [rbp - 144]
	mov	rdi, qword ptr [rbp - 136]
	cmp	rax, 1
	jne	LBB5_17
LBB5_34:
	mov	rax, qword ptr [rbp - 80]
	mov	qword ptr [rax], r12
	mov	qword ptr [rax + 8], rdi
	add	rsp, 280
	pop	rbx
	pop	r12
	pop	r13
	pop	r14
	pop	r15
	pop	rbp
	ret
LBB5_17:
	test	rax, rax
	je	LBB5_36
	mov	rsi, qword ptr [rbp - 128]
Ltmp250:
	call	__ZN10rayon_core6unwind16resume_unwinding17h47c2e39f90248736E
Ltmp251:
	jmp	LBB5_6
LBB5_5:
Ltmp255:
	lea	rdi, [rip + _str.1]
	lea	rdx, [rip + l___unnamed_1]
	mov	esi, 33
	call	__ZN4core9panicking5panic17h736ee47a631475c0E
Ltmp256:
	jmp	LBB5_6
LBB5_36:
Ltmp252:
	lea	rdi, [rip + l___unnamed_2]
	lea	rdx, [rip + l___unnamed_3]
	mov	esi, 40
	call	__ZN3std9panicking11begin_panic17h75aebe10c874e798E
Ltmp253:
	jmp	LBB5_6
LBB5_7:
Ltmp217:
	lea	rdi, [rip + _str.3]
	lea	rdx, [rip + l___unnamed_4]
	mov	esi, 33
	call	__ZN4core9panicking5panic17h736ee47a631475c0E
Ltmp218:
	jmp	LBB5_6
LBB5_25:
Ltmp241:
	lea	rdi, [rip + l___unnamed_5]
	lea	rdx, [rip + l___unnamed_6]
	mov	esi, 43
	call	__ZN4core9panicking5panic17h736ee47a631475c0E
Ltmp242:
	jmp	LBB5_6
LBB5_27:
Ltmp239:
	lea	rdi, [rip + _str.1]
	lea	rdx, [rip + l___unnamed_7]
	mov	esi, 33
	call	__ZN4core9panicking5panic17h736ee47a631475c0E
Ltmp240:
	jmp	LBB5_6
LBB5_46:
Ltmp254:
	jmp	LBB5_41
LBB5_39:
Ltmp249:
	jmp	LBB5_45
LBB5_37:
Ltmp238:
	mov	r14, rax
	mov	rdi, r15
	mov	rsi, rbx
	call	__ZN5alloc5alloc8box_free17hfd27018577a513c9E
	mov	rdi, r14
	call	__Unwind_Resume
	ud2
LBB5_35:
Ltmp243:
	mov	r14, rax
	lea	rdi, [rbp - 232]
Ltmp244:
	call	__ZN4core3ptr13drop_in_place17h386a8cdc061ec2cfE
Ltmp245:
	jmp	LBB5_42
LBB5_40:
Ltmp246:
LBB5_41:
	mov	r14, rax
	mov	rdi, r14
	call	__Unwind_Resume
	ud2
LBB5_19:
Ltmp223:
Ltmp224:
	mov	rdi, rax
	call	__ZN3std9panicking3try7cleanup17hd895f7beef0a7dadE
Ltmp225:
	mov	rcx, rdx
	lea	rsi, [rbp - 120]
Ltmp226:
	mov	rdi, rbx
	mov	rdx, rax
	call	__ZN10rayon_core4join23join_recover_from_panic17h65e0dcb6d5862f08E
Ltmp227:
LBB5_6:
	ud2
LBB5_44:
Ltmp228:
	jmp	LBB5_45
LBB5_43:
Ltmp257:
	jmp	LBB5_45
LBB5_38:
Ltmp233:
LBB5_45:
	mov	r14, rax
	lea	rdi, [rbp - 200]
	call	__ZN4core3ptr13drop_in_place17h0eaae2101da5e23aE
LBB5_42:
	mov	rdi, r14
	call	__Unwind_Resume
	ud2
Lfunc_end5:
	.cfi_endproc
	.section	__TEXT,__gcc_except_tab
	.p2align	2
GCC_except_table5:
Lexception5:
	.byte	255
	.byte	155
	.uleb128 Lttbase5-Lttbaseref5
Lttbaseref5:
	.byte	1
	.uleb128 Lcst_end5-Lcst_begin5
Lcst_begin5:
	.uleb128 Ltmp215-Lfunc_begin5
	.uleb128 Ltmp220-Ltmp215
	.uleb128 Ltmp257-Lfunc_begin5
	.byte	0
	.uleb128 Ltmp221-Lfunc_begin5
	.uleb128 Ltmp222-Ltmp221
	.uleb128 Ltmp223-Lfunc_begin5
	.byte	3
	.uleb128 Ltmp231-Lfunc_begin5
	.uleb128 Ltmp230-Ltmp231
	.uleb128 Ltmp233-Lfunc_begin5
	.byte	0
	.uleb128 Ltmp234-Lfunc_begin5
	.uleb128 Ltmp235-Ltmp234
	.uleb128 Ltmp243-Lfunc_begin5
	.byte	0
	.uleb128 Ltmp236-Lfunc_begin5
	.uleb128 Ltmp237-Ltmp236
	.uleb128 Ltmp238-Lfunc_begin5
	.byte	0
	.uleb128 Ltmp247-Lfunc_begin5
	.uleb128 Ltmp248-Ltmp247
	.uleb128 Ltmp249-Lfunc_begin5
	.byte	0
	.uleb128 Ltmp250-Lfunc_begin5
	.uleb128 Ltmp251-Ltmp250
	.uleb128 Ltmp254-Lfunc_begin5
	.byte	0
	.uleb128 Ltmp255-Lfunc_begin5
	.uleb128 Ltmp256-Ltmp255
	.uleb128 Ltmp257-Lfunc_begin5
	.byte	0
	.uleb128 Ltmp252-Lfunc_begin5
	.uleb128 Ltmp253-Ltmp252
	.uleb128 Ltmp254-Lfunc_begin5
	.byte	0
	.uleb128 Ltmp217-Lfunc_begin5
	.uleb128 Ltmp218-Ltmp217
	.uleb128 Ltmp257-Lfunc_begin5
	.byte	0
	.uleb128 Ltmp241-Lfunc_begin5
	.uleb128 Ltmp240-Ltmp241
	.uleb128 Ltmp243-Lfunc_begin5
	.byte	0
	.uleb128 Ltmp240-Lfunc_begin5
	.uleb128 Ltmp244-Ltmp240
	.byte	0
	.byte	0
	.uleb128 Ltmp244-Lfunc_begin5
	.uleb128 Ltmp245-Ltmp244
	.uleb128 Ltmp246-Lfunc_begin5
	.byte	0
	.uleb128 Ltmp245-Lfunc_begin5
	.uleb128 Ltmp224-Ltmp245
	.byte	0
	.byte	0
	.uleb128 Ltmp224-Lfunc_begin5
	.uleb128 Ltmp225-Ltmp224
	.uleb128 Ltmp257-Lfunc_begin5
	.byte	0
	.uleb128 Ltmp226-Lfunc_begin5
	.uleb128 Ltmp227-Ltmp226
	.uleb128 Ltmp228-Lfunc_begin5
	.byte	0
	.uleb128 Ltmp227-Lfunc_begin5
	.uleb128 Lfunc_end5-Ltmp227
	.byte	0
	.byte	0
Lcst_end5:
	.byte	0
	.byte	0
	.byte	1
	.byte	125
	.p2align	2
	.long	0
Lttbase5:
	.p2align	2

	.section	__TEXT,__text,regular,pure_instructions
	.p2align	4, 0x90
__ZN10rayon_core4join12join_context28_$u7b$$u7b$closure$u7d$$u7d$17h112a0961873d796eE:
Lfunc_begin6:
	.cfi_startproc
	.cfi_personality 155, _rust_eh_personality
	.cfi_lsda 16, Lexception6
	push	rbp
	.cfi_def_cfa_offset 16
	.cfi_offset rbp, -16
	mov	rbp, rsp
	.cfi_def_cfa_register rbp
	push	r15
	push	r14
	push	r13
	push	r12
	push	rbx
	sub	rsp, 184
	.cfi_offset rbx, -56
	.cfi_offset r12, -48
	.cfi_offset r13, -40
	.cfi_offset r14, -32
	.cfi_offset r15, -24
	mov	rbx, rsi
	mov	r15, rdi
	mov	rax, qword ptr [rdi + 40]
	mov	qword ptr [rbp - 88], rax
	mov	rax, qword ptr [rdi + 32]
	mov	qword ptr [rbp - 96], rax
	mov	rax, qword ptr [rdi + 24]
	mov	qword ptr [rbp - 104], rax
	mov	rax, qword ptr [rdi + 16]
	mov	qword ptr [rbp - 112], rax
	mov	rax, qword ptr [rdi]
	mov	rcx, qword ptr [rdi + 8]
	mov	qword ptr [rbp - 120], rcx
	mov	qword ptr [rbp - 128], rax
	mov	byte ptr [rbp - 56], 0
	mov	qword ptr [rbp - 80], 0
	mov	rax, qword ptr [rsi + 256]
	mov	r14, qword ptr [rax + 264]
	mov	rax, qword ptr [rax + 256]
	mov	rsi, qword ptr [rsi + 272]
	mov	rcx, r14
	sub	rcx, rax
	cmp	rcx, rsi
	mov	dword ptr [rbp - 44], edx
	jl	LBB6_4
	add	rsi, rsi
	jb	LBB6_7
	lea	rdi, [rbx + 256]
Ltmp258:
	call	__ZN15crossbeam_deque15Worker$LT$T$GT$6resize17h5c22be2b4226dcffE
Ltmp259:
	mov	rsi, qword ptr [rbx + 272]
LBB6_4:
	sub	rsi, 1
	jb	LBB6_5
	mov	rax, qword ptr [rbx + 264]
	and	rsi, r14
	shl	rsi, 4
	lea	r12, [rbp - 128]
	mov	qword ptr [rax + rsi], r12
	lea	r13, [rip + __ZN83_$LT$rayon_core..job..StackJob$LT$L$C$F$C$R$GT$$u20$as$u20$rayon_core..job..Job$GT$7execute17h651743415fec09a8E]
	mov	qword ptr [rax + rsi + 8], r13
	##MEMBARRIER
	mov	rax, qword ptr [rbx + 256]
	inc	r14
	mov	qword ptr [rax + 264], r14
	mov	edi, 408
	add	rdi, qword ptr [rbx + 304]
	mov	rsi, qword ptr [rbx + 288]
Ltmp262:
	call	__ZN10rayon_core5sleep5Sleep6tickle17h00d06f732555dc32E
Ltmp263:
	mov	rax, qword ptr [r15 + 48]
	mov	rcx, qword ptr [r15 + 56]
	mov	r8, qword ptr [r15 + 64]
	mov	r9, qword ptr [r15 + 72]
	mov	rsi, qword ptr [r15 + 80]
	mov	rdi, qword ptr [rax]
	mov	rdx, qword ptr [rcx]
	mov	rcx, qword ptr [rcx + 8]
Ltmp264:
	mov	qword ptr [rsp], rsi
	movzx	r14d, byte ptr [rbp - 44]
	mov	esi, r14d
	call	__ZN5rayon4iter8plumbing24bridge_producer_consumer6helper17h3a7ee44991c782e8E
Ltmp265:
LBB6_12:
	lea	r15, [rbp - 56]
	mov	al, byte ptr [rbp - 56]
	test	al, al
	je	LBB6_14
	jmp	LBB6_18
	.p2align	4, 0x90
LBB6_23:
Ltmp274:
	mov	rdi, rbx
	mov	rsi, rax
	call	__ZN10rayon_core8registry12WorkerThread7execute17h2d3f3a8dd2af2716E
Ltmp275:
	movzx	eax, byte ptr [rbp - 56]
	test	al, al
	jne	LBB6_18
LBB6_14:
Ltmp272:
	mov	rdi, rbx
	call	__ZN10rayon_core8registry12WorkerThread14take_local_job17h123bfb54be8597fdE
Ltmp273:
	test	rdx, rdx
	je	LBB6_16
	cmp	rax, r12
	jne	LBB6_23
	cmp	rdx, r13
	jne	LBB6_23
	lea	rdi, [rbp - 208]
	lea	rsi, [rbp - 128]
	mov	ecx, 10
	rep movsq es:[rdi], [rsi]
	mov	rax, qword ptr [rbp - 208]
	test	rax, rax
	je	LBB6_25
	mov	rcx, qword ptr [rbp - 200]
	mov	rdi, qword ptr [rax]
	sub	rdi, qword ptr [rcx]
	jb	LBB6_27
	mov	rax, qword ptr [rbp - 192]
	mov	r8, qword ptr [rbp - 184]
	mov	r9, qword ptr [rbp - 176]
	mov	rsi, qword ptr [rbp - 168]
	mov	rdx, qword ptr [rax]
	mov	rcx, qword ptr [rax + 8]
Ltmp277:
	mov	qword ptr [rsp], rsi
	mov	esi, r14d
	call	__ZN5rayon4iter8plumbing24bridge_producer_consumer6helper17h3a7ee44991c782e8E
Ltmp278:
	cmp	qword ptr [rbp - 160], 2
	jb	LBB6_33
	mov	r15, qword ptr [rbp - 152]
	mov	rbx, qword ptr [rbp - 144]
Ltmp279:
	mov	rdi, r15
	call	qword ptr [rbx]
Ltmp280:
	mov	rsi, qword ptr [rbx + 8]
	test	rsi, rsi
	je	LBB6_33
	mov	rdx, qword ptr [rbx + 16]
	mov	rdi, r15
	call	___rust_dealloc
	jmp	LBB6_33
LBB6_16:
	mov	al, byte ptr [rbp - 56]
	test	al, al
	jne	LBB6_18
Ltmp290:
	mov	rdi, rbx
	mov	rsi, r15
	call	__ZN10rayon_core8registry12WorkerThread15wait_until_cold17h4ea94d81ba0d12faE
Ltmp291:
LBB6_18:
	mov	rax, qword ptr [rbp - 80]
	cmp	rax, 1
	jne	LBB6_19
LBB6_33:
	add	rsp, 184
	pop	rbx
	pop	r12
	pop	r13
	pop	r14
	pop	r15
	pop	rbp
	ret
LBB6_19:
	test	rax, rax
	je	LBB6_35
	mov	rdi, qword ptr [rbp - 72]
	mov	rsi, qword ptr [rbp - 64]
Ltmp293:
	call	__ZN10rayon_core6unwind16resume_unwinding17h47c2e39f90248736E
Ltmp294:
	jmp	LBB6_6
LBB6_5:
Ltmp298:
	lea	rdi, [rip + _str.1]
	lea	rdx, [rip + l___unnamed_1]
	mov	esi, 33
	call	__ZN4core9panicking5panic17h736ee47a631475c0E
Ltmp299:
	jmp	LBB6_6
LBB6_35:
Ltmp295:
	lea	rdi, [rip + l___unnamed_2]
	lea	rdx, [rip + l___unnamed_3]
	mov	esi, 40
	call	__ZN3std9panicking11begin_panic17h75aebe10c874e798E
Ltmp296:
	jmp	LBB6_6
LBB6_7:
Ltmp260:
	lea	rdi, [rip + _str.3]
	lea	rdx, [rip + l___unnamed_4]
	mov	esi, 33
	call	__ZN4core9panicking5panic17h736ee47a631475c0E
Ltmp261:
	jmp	LBB6_6
LBB6_25:
Ltmp284:
	lea	rdi, [rip + l___unnamed_5]
	lea	rdx, [rip + l___unnamed_6]
	mov	esi, 43
	call	__ZN4core9panicking5panic17h736ee47a631475c0E
Ltmp285:
	jmp	LBB6_6
LBB6_27:
Ltmp282:
	lea	rdi, [rip + _str.1]
	lea	rdx, [rip + l___unnamed_7]
	mov	esi, 33
	call	__ZN4core9panicking5panic17h736ee47a631475c0E
Ltmp283:
LBB6_6:
	ud2
LBB6_46:
Ltmp297:
	jmp	LBB6_40
LBB6_38:
Ltmp292:
	jmp	LBB6_45
LBB6_36:
Ltmp281:
	mov	r14, rax
	mov	rdi, r15
	mov	rsi, rbx
	call	__ZN5alloc5alloc8box_free17hfd27018577a513c9E
	mov	rdi, r14
	call	__Unwind_Resume
	ud2
LBB6_34:
Ltmp286:
	mov	r14, rax
	lea	rdi, [rbp - 160]
Ltmp287:
	call	__ZN4core3ptr13drop_in_place17h386a8cdc061ec2cfE
Ltmp288:
	jmp	LBB6_41
LBB6_39:
Ltmp289:
LBB6_40:
	mov	r14, rax
	mov	rdi, r14
	call	__Unwind_Resume
	ud2
LBB6_10:
Ltmp266:
Ltmp267:
	mov	rdi, rax
	call	__ZN3std9panicking3try7cleanup17hd895f7beef0a7dadE
Ltmp268:
	test	rax, rax
	je	LBB6_12
	mov	rcx, rdx
	lea	rsi, [rbp - 56]
Ltmp269:
	mov	rdi, rbx
	mov	rdx, rax
	call	__ZN10rayon_core4join23join_recover_from_panic17h65e0dcb6d5862f08E
Ltmp270:
	jmp	LBB6_6
LBB6_44:
Ltmp271:
	jmp	LBB6_45
LBB6_42:
Ltmp300:
	jmp	LBB6_45
LBB6_37:
Ltmp276:
LBB6_45:
	mov	r14, rax
	lea	rdi, [rbp - 128]
	call	__ZN4core3ptr13drop_in_place17h1618ebc4b133e534E
LBB6_41:
	mov	rdi, r14
	call	__Unwind_Resume
	ud2
Lfunc_end6:
	.cfi_endproc
	.section	__TEXT,__gcc_except_tab
	.p2align	2
GCC_except_table6:
Lexception6:
	.byte	255
	.byte	155
	.uleb128 Lttbase6-Lttbaseref6
Lttbaseref6:
	.byte	1
	.uleb128 Lcst_end6-Lcst_begin6
Lcst_begin6:
	.uleb128 Ltmp258-Lfunc_begin6
	.uleb128 Ltmp263-Ltmp258
	.uleb128 Ltmp300-Lfunc_begin6
	.byte	0
	.uleb128 Ltmp264-Lfunc_begin6
	.uleb128 Ltmp265-Ltmp264
	.uleb128 Ltmp266-Lfunc_begin6
	.byte	3
	.uleb128 Ltmp274-Lfunc_begin6
	.uleb128 Ltmp273-Ltmp274
	.uleb128 Ltmp276-Lfunc_begin6
	.byte	0
	.uleb128 Ltmp277-Lfunc_begin6
	.uleb128 Ltmp278-Ltmp277
	.uleb128 Ltmp286-Lfunc_begin6
	.byte	0
	.uleb128 Ltmp279-Lfunc_begin6
	.uleb128 Ltmp280-Ltmp279
	.uleb128 Ltmp281-Lfunc_begin6
	.byte	0
	.uleb128 Ltmp290-Lfunc_begin6
	.uleb128 Ltmp291-Ltmp290
	.uleb128 Ltmp292-Lfunc_begin6
	.byte	0
	.uleb128 Ltmp293-Lfunc_begin6
	.uleb128 Ltmp294-Ltmp293
	.uleb128 Ltmp297-Lfunc_begin6
	.byte	0
	.uleb128 Ltmp298-Lfunc_begin6
	.uleb128 Ltmp299-Ltmp298
	.uleb128 Ltmp300-Lfunc_begin6
	.byte	0
	.uleb128 Ltmp295-Lfunc_begin6
	.uleb128 Ltmp296-Ltmp295
	.uleb128 Ltmp297-Lfunc_begin6
	.byte	0
	.uleb128 Ltmp260-Lfunc_begin6
	.uleb128 Ltmp261-Ltmp260
	.uleb128 Ltmp300-Lfunc_begin6
	.byte	0
	.uleb128 Ltmp284-Lfunc_begin6
	.uleb128 Ltmp283-Ltmp284
	.uleb128 Ltmp286-Lfunc_begin6
	.byte	0
	.uleb128 Ltmp283-Lfunc_begin6
	.uleb128 Ltmp287-Ltmp283
	.byte	0
	.byte	0
	.uleb128 Ltmp287-Lfunc_begin6
	.uleb128 Ltmp288-Ltmp287
	.uleb128 Ltmp289-Lfunc_begin6
	.byte	0
	.uleb128 Ltmp288-Lfunc_begin6
	.uleb128 Ltmp267-Ltmp288
	.byte	0
	.byte	0
	.uleb128 Ltmp267-Lfunc_begin6
	.uleb128 Ltmp268-Ltmp267
	.uleb128 Ltmp300-Lfunc_begin6
	.byte	0
	.uleb128 Ltmp269-Lfunc_begin6
	.uleb128 Ltmp270-Ltmp269
	.uleb128 Ltmp271-Lfunc_begin6
	.byte	0
	.uleb128 Ltmp270-Lfunc_begin6
	.uleb128 Lfunc_end6-Ltmp270
	.byte	0
	.byte	0
Lcst_end6:
	.byte	0
	.byte	0
	.byte	1
	.byte	125
	.p2align	2
	.long	0
Lttbase6:
	.p2align	2

	.section	__TEXT,__text,regular,pure_instructions
	.p2align	4, 0x90
__ZN10rayon_core4join12join_context28_$u7b$$u7b$closure$u7d$$u7d$17h12b30306af0c2920E:
Lfunc_begin7:
	.cfi_startproc
	.cfi_personality 155, _rust_eh_personality
	.cfi_lsda 16, Lexception7
	push	rbp
	.cfi_def_cfa_offset 16
	.cfi_offset rbp, -16
	mov	rbp, rsp
	.cfi_def_cfa_register rbp
	push	r15
	push	r14
	push	r13
	push	r12
	push	rbx
	sub	rsp, 552
	.cfi_offset rbx, -56
	.cfi_offset r12, -48
	.cfi_offset r13, -40
	.cfi_offset r14, -32
	.cfi_offset r15, -24
	mov	r8d, ecx
	mov	rbx, rdx
	mov	r12, rsi
	mov	qword ptr [rbp - 200], rdi
	mov	byte ptr [rbp - 448], 0
	lea	rdi, [rbp - 544]
	mov	ecx, 12
	rep movsq es:[rdi], [rsi]
	mov	qword ptr [rbp - 576], 0
	mov	rax, qword ptr [rdx + 256]
	mov	r15, qword ptr [rax + 264]
	mov	rax, qword ptr [rax + 256]
	mov	rsi, qword ptr [rdx + 272]
	mov	rcx, r15
	sub	rcx, rax
	cmp	rcx, rsi
	mov	dword ptr [rbp - 192], r8d
	jl	LBB7_4
	add	rsi, rsi
	jb	LBB7_7
	lea	rdi, [rbx + 256]
Ltmp301:
	call	__ZN15crossbeam_deque15Worker$LT$T$GT$6resize17h5c22be2b4226dcffE
Ltmp302:
	mov	rsi, qword ptr [rbx + 272]
LBB7_4:
	sub	rsi, 1
	jb	LBB7_5
	mov	rax, qword ptr [rbx + 264]
	and	rsi, r15
	shl	rsi, 4
	lea	r13, [rbp - 576]
	mov	qword ptr [rax + rsi], r13
	lea	r14, [rip + __ZN83_$LT$rayon_core..job..StackJob$LT$L$C$F$C$R$GT$$u20$as$u20$rayon_core..job..Job$GT$7execute17hc2e946e8fc2a2056E]
	mov	qword ptr [rax + rsi + 8], r14
	##MEMBARRIER
	mov	rax, qword ptr [rbx + 256]
	inc	r15
	mov	qword ptr [rax + 264], r15
	mov	edi, 408
	add	rdi, qword ptr [rbx + 304]
	mov	rsi, qword ptr [rbx + 288]
Ltmp305:
	call	__ZN10rayon_core5sleep5Sleep6tickle17h00d06f732555dc32E
Ltmp306:
	movdqu	xmm0, xmmword ptr [r12 + 96]
	mov	rax, qword ptr [r12 + 176]
	movq	rcx, xmm0
	pshufd	xmm0, xmm0, 78
	movq	rdx, xmm0
	mov	rsi, qword ptr [r12 + 168]
	mov	qword ptr [rbp - 48], rsi
	mov	rsi, qword ptr [r12 + 160]
	mov	qword ptr [rbp - 56], rsi
	mov	rsi, qword ptr [r12 + 152]
	mov	qword ptr [rbp - 64], rsi
	mov	rsi, qword ptr [r12 + 144]
	mov	qword ptr [rbp - 72], rsi
	mov	rsi, qword ptr [r12 + 136]
	mov	qword ptr [rbp - 80], rsi
	mov	rsi, qword ptr [r12 + 128]
	mov	qword ptr [rbp - 88], rsi
	mov	rsi, qword ptr [r12 + 112]
	mov	rdi, qword ptr [r12 + 120]
	mov	qword ptr [rbp - 96], rdi
	mov	qword ptr [rbp - 104], rsi
	mov	rsi, qword ptr [rcx]
	mov	rcx, qword ptr [rdx]
	mov	r8, qword ptr [rdx + 8]
	mov	rdx, qword ptr [rbp - 48]
	mov	qword ptr [rbp - 296], rdx
	mov	rdx, qword ptr [rbp - 56]
	mov	qword ptr [rbp - 304], rdx
	mov	rdx, qword ptr [rbp - 64]
	mov	qword ptr [rbp - 312], rdx
	mov	rdx, qword ptr [rbp - 72]
	mov	qword ptr [rbp - 320], rdx
	mov	rdx, qword ptr [rbp - 80]
	mov	qword ptr [rbp - 328], rdx
	mov	rdx, qword ptr [rbp - 88]
	mov	qword ptr [rbp - 336], rdx
	mov	rdx, qword ptr [rbp - 104]
	mov	rdi, qword ptr [rbp - 96]
	mov	qword ptr [rbp - 344], rdi
	mov	qword ptr [rbp - 352], rdx
Ltmp307:
	mov	qword ptr [rsp], rax
	movzx	r15d, byte ptr [rbp - 192]
	lea	rdi, [rbp - 176]
	lea	r9, [rbp - 352]
	mov	edx, r15d
	call	__ZN5rayon4iter8plumbing24bridge_producer_consumer6helper17h94a6841acdd72589E
Ltmp308:
	movdqa	xmm0, xmmword ptr [rbp - 176]
	movdqa	xmmword ptr [rbp - 192], xmm0
	lea	r12, [rbp - 448]
	mov	al, byte ptr [rbp - 448]
	test	al, al
	je	LBB7_12
	jmp	LBB7_16
	.p2align	4, 0x90
LBB7_23:
Ltmp317:
	mov	rdi, rbx
	mov	rsi, rax
	call	__ZN10rayon_core8registry12WorkerThread7execute17h2d3f3a8dd2af2716E
Ltmp318:
	movzx	eax, byte ptr [rbp - 448]
	test	al, al
	jne	LBB7_16
LBB7_12:
Ltmp315:
	mov	rdi, rbx
	call	__ZN10rayon_core8registry12WorkerThread14take_local_job17h123bfb54be8597fdE
Ltmp316:
	test	rdx, rdx
	je	LBB7_14
	cmp	rax, r13
	jne	LBB7_23
	cmp	rdx, r14
	jne	LBB7_23
	lea	rdi, [rbp - 352]
	lea	rsi, [rbp - 576]
	mov	edx, 144
	call	_memcpy
	mov	r11, qword ptr [rbp - 320]
	mov	r8, qword ptr [rbp - 312]
	mov	r10, qword ptr [rbp - 304]
	mov	rdx, qword ptr [rbp - 296]
	mov	qword ptr [rbp - 104], rdx
	mov	rdx, qword ptr [rbp - 288]
	mov	qword ptr [rbp - 96], rdx
	mov	rdx, qword ptr [rbp - 280]
	mov	qword ptr [rbp - 88], rdx
	mov	rdx, qword ptr [rbp - 272]
	mov	qword ptr [rbp - 80], rdx
	mov	rdx, qword ptr [rbp - 264]
	mov	qword ptr [rbp - 72], rdx
	mov	rdx, qword ptr [rbp - 256]
	mov	qword ptr [rbp - 64], rdx
	mov	rdx, qword ptr [rbp - 248]
	mov	qword ptr [rbp - 56], rdx
	mov	rdx, qword ptr [rbp - 240]
	mov	qword ptr [rbp - 48], rdx
	test	r11, r11
	je	LBB7_25
	mov	r9, qword ptr [rbp - 232]
	mov	rdi, qword ptr [rbp - 48]
	mov	qword ptr [rbp - 360], rdi
	mov	r14, qword ptr [rbp - 56]
	mov	qword ptr [rbp - 368], r14
	mov	rbx, qword ptr [rbp - 64]
	mov	qword ptr [rbp - 376], rbx
	mov	rdx, qword ptr [rbp - 72]
	mov	qword ptr [rbp - 384], rdx
	mov	rcx, qword ptr [rbp - 80]
	mov	qword ptr [rbp - 392], rcx
	mov	rax, qword ptr [rbp - 88]
	mov	qword ptr [rbp - 400], rax
	mov	rsi, qword ptr [rbp - 104]
	mov	rdi, qword ptr [rbp - 96]
	mov	qword ptr [rbp - 408], rdi
	mov	qword ptr [rbp - 416], rsi
	mov	qword ptr [rbp - 128], r14
	mov	qword ptr [rbp - 136], rbx
	mov	qword ptr [rbp - 144], rdx
	mov	qword ptr [rbp - 152], rcx
	mov	qword ptr [rbp - 160], rax
	mov	qword ptr [rbp - 168], rdi
	mov	qword ptr [rbp - 176], rsi
	mov	rax, qword ptr [rbp - 360]
	mov	qword ptr [rbp - 120], rax
	mov	rsi, qword ptr [r11]
	sub	rsi, qword ptr [r8]
	jb	LBB7_27
	mov	rcx, qword ptr [r10]
	mov	r8, qword ptr [r10 + 8]
	mov	rax, qword ptr [rbp - 120]
	mov	qword ptr [rbp - 48], rax
	mov	rax, qword ptr [rbp - 128]
	mov	qword ptr [rbp - 56], rax
	mov	rax, qword ptr [rbp - 136]
	mov	qword ptr [rbp - 64], rax
	mov	rax, qword ptr [rbp - 144]
	mov	qword ptr [rbp - 72], rax
	mov	rax, qword ptr [rbp - 152]
	mov	qword ptr [rbp - 80], rax
	mov	rax, qword ptr [rbp - 160]
	mov	qword ptr [rbp - 88], rax
	mov	rax, qword ptr [rbp - 176]
	mov	rdx, qword ptr [rbp - 168]
	mov	qword ptr [rbp - 96], rdx
	mov	qword ptr [rbp - 104], rax
Ltmp320:
	mov	qword ptr [rsp], r9
	lea	rdi, [rbp - 432]
	lea	r9, [rbp - 104]
	mov	edx, r15d
	call	__ZN5rayon4iter8plumbing24bridge_producer_consumer6helper17h94a6841acdd72589E
Ltmp321:
	cmp	qword ptr [rbp - 352], 2
	jb	LBB7_33
	mov	r15, qword ptr [rbp - 344]
	mov	rbx, qword ptr [rbp - 336]
Ltmp322:
	mov	rdi, r15
	call	qword ptr [rbx]
Ltmp323:
	mov	rsi, qword ptr [rbx + 8]
	test	rsi, rsi
	je	LBB7_33
	mov	rdx, qword ptr [rbx + 16]
	mov	rdi, r15
	call	___rust_dealloc
LBB7_33:
	movdqa	xmm0, xmmword ptr [rbp - 432]
	jmp	LBB7_34
LBB7_14:
	mov	al, byte ptr [rbp - 448]
	test	al, al
	jne	LBB7_16
Ltmp333:
	mov	rdi, rbx
	mov	rsi, r12
	call	__ZN10rayon_core8registry12WorkerThread15wait_until_cold17h4ea94d81ba0d12faE
Ltmp334:
LBB7_16:
	mov	rax, qword ptr [rbp - 576]
	movdqa	xmm0, xmmword ptr [rbp - 560]
	cmp	rax, 1
	jne	LBB7_17
LBB7_34:
	mov	rax, qword ptr [rbp - 200]
	movaps	xmm1, xmmword ptr [rbp - 192]
	movaps	xmmword ptr [rax], xmm1
	movdqa	xmmword ptr [rax + 16], xmm0
	add	rsp, 552
	pop	rbx
	pop	r12
	pop	r13
	pop	r14
	pop	r15
	pop	rbp
	ret
LBB7_17:
	test	rax, rax
	je	LBB7_36
	mov	rdi, qword ptr [rbp - 568]
	movq	rsi, xmm0
Ltmp336:
	call	__ZN10rayon_core6unwind16resume_unwinding17h47c2e39f90248736E
Ltmp337:
	jmp	LBB7_6
LBB7_5:
Ltmp341:
	lea	rdi, [rip + _str.1]
	lea	rdx, [rip + l___unnamed_1]
	mov	esi, 33
	call	__ZN4core9panicking5panic17h736ee47a631475c0E
Ltmp342:
	jmp	LBB7_6
LBB7_36:
Ltmp338:
	lea	rdi, [rip + l___unnamed_2]
	lea	rdx, [rip + l___unnamed_3]
	mov	esi, 40
	call	__ZN3std9panicking11begin_panic17h75aebe10c874e798E
Ltmp339:
	jmp	LBB7_6
LBB7_7:
Ltmp303:
	lea	rdi, [rip + _str.3]
	lea	rdx, [rip + l___unnamed_4]
	mov	esi, 33
	call	__ZN4core9panicking5panic17h736ee47a631475c0E
Ltmp304:
	jmp	LBB7_6
LBB7_25:
Ltmp327:
	lea	rdi, [rip + l___unnamed_5]
	lea	rdx, [rip + l___unnamed_6]
	mov	esi, 43
	call	__ZN4core9panicking5panic17h736ee47a631475c0E
Ltmp328:
	jmp	LBB7_6
LBB7_27:
Ltmp325:
	lea	rdi, [rip + _str.1]
	lea	rdx, [rip + l___unnamed_7]
	mov	esi, 33
	call	__ZN4core9panicking5panic17h736ee47a631475c0E
Ltmp326:
	jmp	LBB7_6
LBB7_46:
Ltmp340:
	jmp	LBB7_41
LBB7_39:
Ltmp335:
	jmp	LBB7_45
LBB7_37:
Ltmp324:
	mov	r14, rax
	mov	rdi, r15
	mov	rsi, rbx
	call	__ZN5alloc5alloc8box_free17hfd27018577a513c9E
	mov	rdi, r14
	call	__Unwind_Resume
	ud2
LBB7_35:
Ltmp329:
	mov	r14, rax
Ltmp330:
	lea	rdi, [rbp - 352]
	call	__ZN4core3ptr13drop_in_place17h03e3d151d67a9ae6E
Ltmp331:
	jmp	LBB7_42
LBB7_40:
Ltmp332:
LBB7_41:
	mov	r14, rax
	mov	rdi, r14
	call	__Unwind_Resume
	ud2
LBB7_19:
Ltmp309:
Ltmp310:
	mov	rdi, rax
	call	__ZN3std9panicking3try7cleanup17hd895f7beef0a7dadE
Ltmp311:
	mov	rcx, rdx
	lea	rsi, [rbp - 448]
Ltmp312:
	mov	rdi, rbx
	mov	rdx, rax
	call	__ZN10rayon_core4join23join_recover_from_panic17h65e0dcb6d5862f08E
Ltmp313:
LBB7_6:
	ud2
LBB7_44:
Ltmp314:
	jmp	LBB7_45
LBB7_43:
Ltmp343:
	jmp	LBB7_45
LBB7_38:
Ltmp319:
LBB7_45:
	mov	r14, rax
	lea	rdi, [rbp - 576]
	call	__ZN4core3ptr13drop_in_place17h03e3d151d67a9ae6E
LBB7_42:
	mov	rdi, r14
	call	__Unwind_Resume
	ud2
Lfunc_end7:
	.cfi_endproc
	.section	__TEXT,__gcc_except_tab
	.p2align	2
GCC_except_table7:
Lexception7:
	.byte	255
	.byte	155
	.uleb128 Lttbase7-Lttbaseref7
Lttbaseref7:
	.byte	1
	.uleb128 Lcst_end7-Lcst_begin7
Lcst_begin7:
	.uleb128 Ltmp301-Lfunc_begin7
	.uleb128 Ltmp306-Ltmp301
	.uleb128 Ltmp343-Lfunc_begin7
	.byte	0
	.uleb128 Ltmp307-Lfunc_begin7
	.uleb128 Ltmp308-Ltmp307
	.uleb128 Ltmp309-Lfunc_begin7
	.byte	3
	.uleb128 Ltmp317-Lfunc_begin7
	.uleb128 Ltmp316-Ltmp317
	.uleb128 Ltmp319-Lfunc_begin7
	.byte	0
	.uleb128 Ltmp316-Lfunc_begin7
	.uleb128 Ltmp320-Ltmp316
	.byte	0
	.byte	0
	.uleb128 Ltmp320-Lfunc_begin7
	.uleb128 Ltmp321-Ltmp320
	.uleb128 Ltmp329-Lfunc_begin7
	.byte	0
	.uleb128 Ltmp322-Lfunc_begin7
	.uleb128 Ltmp323-Ltmp322
	.uleb128 Ltmp324-Lfunc_begin7
	.byte	0
	.uleb128 Ltmp333-Lfunc_begin7
	.uleb128 Ltmp334-Ltmp333
	.uleb128 Ltmp335-Lfunc_begin7
	.byte	0
	.uleb128 Ltmp336-Lfunc_begin7
	.uleb128 Ltmp337-Ltmp336
	.uleb128 Ltmp340-Lfunc_begin7
	.byte	0
	.uleb128 Ltmp341-Lfunc_begin7
	.uleb128 Ltmp342-Ltmp341
	.uleb128 Ltmp343-Lfunc_begin7
	.byte	0
	.uleb128 Ltmp338-Lfunc_begin7
	.uleb128 Ltmp339-Ltmp338
	.uleb128 Ltmp340-Lfunc_begin7
	.byte	0
	.uleb128 Ltmp303-Lfunc_begin7
	.uleb128 Ltmp304-Ltmp303
	.uleb128 Ltmp343-Lfunc_begin7
	.byte	0
	.uleb128 Ltmp327-Lfunc_begin7
	.uleb128 Ltmp326-Ltmp327
	.uleb128 Ltmp329-Lfunc_begin7
	.byte	0
	.uleb128 Ltmp326-Lfunc_begin7
	.uleb128 Ltmp330-Ltmp326
	.byte	0
	.byte	0
	.uleb128 Ltmp330-Lfunc_begin7
	.uleb128 Ltmp331-Ltmp330
	.uleb128 Ltmp332-Lfunc_begin7
	.byte	0
	.uleb128 Ltmp331-Lfunc_begin7
	.uleb128 Ltmp310-Ltmp331
	.byte	0
	.byte	0
	.uleb128 Ltmp310-Lfunc_begin7
	.uleb128 Ltmp311-Ltmp310
	.uleb128 Ltmp343-Lfunc_begin7
	.byte	0
	.uleb128 Ltmp312-Lfunc_begin7
	.uleb128 Ltmp313-Ltmp312
	.uleb128 Ltmp314-Lfunc_begin7
	.byte	0
	.uleb128 Ltmp313-Lfunc_begin7
	.uleb128 Lfunc_end7-Ltmp313
	.byte	0
	.byte	0
Lcst_end7:
	.byte	0
	.byte	0
	.byte	1
	.byte	125
	.p2align	2
	.long	0
Lttbase7:
	.p2align	2

	.section	__TEXT,__text,regular,pure_instructions
	.p2align	4, 0x90
__ZN10rayon_core4join12join_context28_$u7b$$u7b$closure$u7d$$u7d$17h16bf9fd650415badE:
Lfunc_begin8:
	.cfi_startproc
	.cfi_personality 155, _rust_eh_personality
	.cfi_lsda 16, Lexception8
	push	rbp
	.cfi_def_cfa_offset 16
	.cfi_offset rbp, -16
	mov	rbp, rsp
	.cfi_def_cfa_register rbp
	push	r15
	push	r14
	push	r13
	push	r12
	push	rbx
	sub	rsp, 264
	.cfi_offset rbx, -56
	.cfi_offset r12, -48
	.cfi_offset r13, -40
	.cfi_offset r14, -32
	.cfi_offset r15, -24
	mov	rbx, rsi
	mov	r15, rdi
	mov	rax, qword ptr [rdi + 48]
	mov	qword ptr [rbp - 136], rax
	mov	rax, qword ptr [rdi + 40]
	mov	qword ptr [rbp - 144], rax
	mov	rax, qword ptr [rdi + 32]
	mov	qword ptr [rbp - 152], rax
	mov	rax, qword ptr [rdi + 24]
	mov	qword ptr [rbp - 160], rax
	mov	rax, qword ptr [rdi + 16]
	mov	qword ptr [rbp - 168], rax
	mov	rax, qword ptr [rdi]
	mov	rcx, qword ptr [rdi + 8]
	mov	qword ptr [rbp - 176], rcx
	mov	qword ptr [rbp - 184], rax
	mov	byte ptr [rbp - 104], 0
	mov	dword ptr [rbp - 128], 0
	mov	rax, qword ptr [rsi + 256]
	mov	r14, qword ptr [rax + 264]
	mov	rax, qword ptr [rax + 256]
	mov	rsi, qword ptr [rsi + 272]
	mov	rcx, r14
	sub	rcx, rax
	cmp	rcx, rsi
	mov	dword ptr [rbp - 68], edx
	jl	LBB8_4
	add	rsi, rsi
	jb	LBB8_7
	lea	rdi, [rbx + 256]
Ltmp344:
	call	__ZN15crossbeam_deque15Worker$LT$T$GT$6resize17h5c22be2b4226dcffE
Ltmp345:
	mov	rsi, qword ptr [rbx + 272]
LBB8_4:
	sub	rsi, 1
	jb	LBB8_5
	mov	rax, qword ptr [rbx + 264]
	and	rsi, r14
	shl	rsi, 4
	lea	r13, [rbp - 184]
	mov	qword ptr [rax + rsi], r13
	lea	r12, [rip + __ZN83_$LT$rayon_core..job..StackJob$LT$L$C$F$C$R$GT$$u20$as$u20$rayon_core..job..Job$GT$7execute17hf1a34ee0a7167179E]
	mov	qword ptr [rax + rsi + 8], r12
	##MEMBARRIER
	mov	rax, qword ptr [rbx + 256]
	inc	r14
	mov	qword ptr [rax + 264], r14
	mov	edi, 408
	add	rdi, qword ptr [rbx + 304]
	mov	rsi, qword ptr [rbx + 288]
Ltmp348:
	call	__ZN10rayon_core5sleep5Sleep6tickle17h00d06f732555dc32E
Ltmp349:
	mov	rax, qword ptr [r15 + 56]
	mov	rdx, qword ptr [r15 + 64]
	mov	rdi, qword ptr [r15 + 96]
	mov	rsi, qword ptr [rax]
	mov	rcx, qword ptr [rdx]
	mov	r8, qword ptr [rdx + 8]
	mov	rax, qword ptr [r15 + 88]
	mov	qword ptr [rbp - 256], rax
	mov	rax, qword ptr [r15 + 72]
	mov	rdx, qword ptr [r15 + 80]
	mov	qword ptr [rbp - 264], rdx
	mov	qword ptr [rbp - 272], rax
Ltmp350:
	mov	qword ptr [rsp], rdi
	movzx	r14d, byte ptr [rbp - 68]
	lea	rdi, [rbp - 64]
	lea	r9, [rbp - 272]
	mov	edx, r14d
	call	__ZN5rayon4iter8plumbing24bridge_producer_consumer6helper17he721805e5baf5690E
Ltmp351:
	mov	r15d, dword ptr [rbp - 64]
	mov	al, byte ptr [rbp - 104]
	test	al, al
	je	LBB8_12
	jmp	LBB8_16
	.p2align	4, 0x90
LBB8_23:
Ltmp360:
	mov	rdi, rbx
	mov	rsi, rax
	call	__ZN10rayon_core8registry12WorkerThread7execute17h2d3f3a8dd2af2716E
Ltmp361:
	movzx	eax, byte ptr [rbp - 104]
	test	al, al
	jne	LBB8_16
LBB8_12:
Ltmp358:
	mov	rdi, rbx
	call	__ZN10rayon_core8registry12WorkerThread14take_local_job17h123bfb54be8597fdE
Ltmp359:
	test	rdx, rdx
	je	LBB8_14
	cmp	rax, r13
	jne	LBB8_23
	cmp	rdx, r12
	jne	LBB8_23
	lea	rdi, [rbp - 272]
	lea	rsi, [rbp - 184]
	mov	ecx, 11
	rep movsq es:[rdi], [rsi]
	mov	rsi, qword ptr [rbp - 272]
	mov	rcx, qword ptr [rbp - 264]
	mov	rax, qword ptr [rbp - 256]
	mov	rdx, qword ptr [rbp - 248]
	mov	qword ptr [rbp - 64], rdx
	mov	rdx, qword ptr [rbp - 240]
	mov	qword ptr [rbp - 56], rdx
	mov	rdx, qword ptr [rbp - 232]
	mov	qword ptr [rbp - 48], rdx
	test	rsi, rsi
	je	LBB8_25
	mov	r9, qword ptr [rbp - 224]
	mov	rdi, qword ptr [rbp - 48]
	mov	qword ptr [rbp - 280], rdi
	mov	rbx, qword ptr [rbp - 64]
	mov	rdx, qword ptr [rbp - 56]
	mov	qword ptr [rbp - 288], rdx
	mov	qword ptr [rbp - 296], rbx
	mov	qword ptr [rbp - 80], rdi
	mov	qword ptr [rbp - 88], rdx
	mov	qword ptr [rbp - 96], rbx
	mov	rsi, qword ptr [rsi]
	sub	rsi, qword ptr [rcx]
	jb	LBB8_27
	mov	rcx, qword ptr [rax]
	mov	r8, qword ptr [rax + 8]
	mov	rax, qword ptr [rbp - 80]
	mov	qword ptr [rbp - 48], rax
	mov	rax, qword ptr [rbp - 96]
	mov	rdx, qword ptr [rbp - 88]
	mov	qword ptr [rbp - 56], rdx
	mov	qword ptr [rbp - 64], rax
Ltmp363:
	mov	qword ptr [rsp], r9
	lea	rdi, [rbp - 72]
	lea	r9, [rbp - 64]
	mov	edx, r14d
	call	__ZN5rayon4iter8plumbing24bridge_producer_consumer6helper17he721805e5baf5690E
Ltmp364:
	cmp	dword ptr [rbp - 216], 2
	jb	LBB8_33
	mov	r12, qword ptr [rbp - 208]
	mov	rbx, qword ptr [rbp - 200]
Ltmp365:
	mov	rdi, r12
	call	qword ptr [rbx]
Ltmp366:
	mov	rsi, qword ptr [rbx + 8]
	test	rsi, rsi
	je	LBB8_33
	mov	rdx, qword ptr [rbx + 16]
	mov	rdi, r12
	call	___rust_dealloc
LBB8_33:
	mov	eax, dword ptr [rbp - 72]
	jmp	LBB8_37
LBB8_14:
	mov	al, byte ptr [rbp - 104]
	test	al, al
	jne	LBB8_16
Ltmp376:
	mov	rdi, rbx
	lea	rsi, [rbp - 104]
	call	__ZN10rayon_core8registry12WorkerThread15wait_until_cold17h4ea94d81ba0d12faE
Ltmp377:
LBB8_16:
	mov	eax, dword ptr [rbp - 128]
	cmp	eax, 1
	jne	LBB8_17
	mov	eax, dword ptr [rbp - 124]
LBB8_37:
	shl	rax, 32
	or	rax, r15
	add	rsp, 264
	pop	rbx
	pop	r12
	pop	r13
	pop	r14
	pop	r15
	pop	rbp
	ret
LBB8_17:
	test	eax, eax
	je	LBB8_35
	mov	rdi, qword ptr [rbp - 120]
	mov	rsi, qword ptr [rbp - 112]
Ltmp379:
	call	__ZN10rayon_core6unwind16resume_unwinding17h47c2e39f90248736E
Ltmp380:
	jmp	LBB8_6
LBB8_5:
Ltmp384:
	lea	rdi, [rip + _str.1]
	lea	rdx, [rip + l___unnamed_1]
	mov	esi, 33
	call	__ZN4core9panicking5panic17h736ee47a631475c0E
Ltmp385:
	jmp	LBB8_6
LBB8_35:
Ltmp381:
	lea	rdi, [rip + l___unnamed_2]
	lea	rdx, [rip + l___unnamed_3]
	mov	esi, 40
	call	__ZN3std9panicking11begin_panic17h75aebe10c874e798E
Ltmp382:
	jmp	LBB8_6
LBB8_7:
Ltmp346:
	lea	rdi, [rip + _str.3]
	lea	rdx, [rip + l___unnamed_4]
	mov	esi, 33
	call	__ZN4core9panicking5panic17h736ee47a631475c0E
Ltmp347:
	jmp	LBB8_6
LBB8_25:
Ltmp370:
	lea	rdi, [rip + l___unnamed_5]
	lea	rdx, [rip + l___unnamed_6]
	mov	esi, 43
	call	__ZN4core9panicking5panic17h736ee47a631475c0E
Ltmp371:
	jmp	LBB8_6
LBB8_27:
Ltmp368:
	lea	rdi, [rip + _str.1]
	lea	rdx, [rip + l___unnamed_7]
	mov	esi, 33
	call	__ZN4core9panicking5panic17h736ee47a631475c0E
Ltmp369:
	jmp	LBB8_6
LBB8_47:
Ltmp383:
	jmp	LBB8_42
LBB8_40:
Ltmp378:
	jmp	LBB8_46
LBB8_38:
Ltmp367:
	mov	r14, rax
	mov	rdi, r12
	mov	rsi, rbx
	call	__ZN5alloc5alloc8box_free17hfd27018577a513c9E
	mov	rdi, r14
	call	__Unwind_Resume
	ud2
LBB8_34:
Ltmp372:
	mov	r14, rax
	lea	rdi, [rbp - 216]
Ltmp373:
	call	__ZN4core3ptr13drop_in_place17h2bed3385e42bae15E
Ltmp374:
	jmp	LBB8_43
LBB8_41:
Ltmp375:
LBB8_42:
	mov	r14, rax
	mov	rdi, r14
	call	__Unwind_Resume
	ud2
LBB8_19:
Ltmp352:
Ltmp353:
	mov	rdi, rax
	call	__ZN3std9panicking3try7cleanup17hd895f7beef0a7dadE
Ltmp354:
	mov	rcx, rdx
	lea	rsi, [rbp - 104]
Ltmp355:
	mov	rdi, rbx
	mov	rdx, rax
	call	__ZN10rayon_core4join23join_recover_from_panic17h65e0dcb6d5862f08E
Ltmp356:
LBB8_6:
	ud2
LBB8_45:
Ltmp357:
	jmp	LBB8_46
LBB8_44:
Ltmp386:
	jmp	LBB8_46
LBB8_39:
Ltmp362:
LBB8_46:
	mov	r14, rax
	lea	rdi, [rbp - 184]
	call	__ZN4core3ptr13drop_in_place17h17bc7f42751f4383E
LBB8_43:
	mov	rdi, r14
	call	__Unwind_Resume
	ud2
Lfunc_end8:
	.cfi_endproc
	.section	__TEXT,__gcc_except_tab
	.p2align	2
GCC_except_table8:
Lexception8:
	.byte	255
	.byte	155
	.uleb128 Lttbase8-Lttbaseref8
Lttbaseref8:
	.byte	1
	.uleb128 Lcst_end8-Lcst_begin8
Lcst_begin8:
	.uleb128 Ltmp344-Lfunc_begin8
	.uleb128 Ltmp349-Ltmp344
	.uleb128 Ltmp386-Lfunc_begin8
	.byte	0
	.uleb128 Ltmp350-Lfunc_begin8
	.uleb128 Ltmp351-Ltmp350
	.uleb128 Ltmp352-Lfunc_begin8
	.byte	3
	.uleb128 Ltmp360-Lfunc_begin8
	.uleb128 Ltmp359-Ltmp360
	.uleb128 Ltmp362-Lfunc_begin8
	.byte	0
	.uleb128 Ltmp363-Lfunc_begin8
	.uleb128 Ltmp364-Ltmp363
	.uleb128 Ltmp372-Lfunc_begin8
	.byte	0
	.uleb128 Ltmp365-Lfunc_begin8
	.uleb128 Ltmp366-Ltmp365
	.uleb128 Ltmp367-Lfunc_begin8
	.byte	0
	.uleb128 Ltmp376-Lfunc_begin8
	.uleb128 Ltmp377-Ltmp376
	.uleb128 Ltmp378-Lfunc_begin8
	.byte	0
	.uleb128 Ltmp379-Lfunc_begin8
	.uleb128 Ltmp380-Ltmp379
	.uleb128 Ltmp383-Lfunc_begin8
	.byte	0
	.uleb128 Ltmp384-Lfunc_begin8
	.uleb128 Ltmp385-Ltmp384
	.uleb128 Ltmp386-Lfunc_begin8
	.byte	0
	.uleb128 Ltmp381-Lfunc_begin8
	.uleb128 Ltmp382-Ltmp381
	.uleb128 Ltmp383-Lfunc_begin8
	.byte	0
	.uleb128 Ltmp346-Lfunc_begin8
	.uleb128 Ltmp347-Ltmp346
	.uleb128 Ltmp386-Lfunc_begin8
	.byte	0
	.uleb128 Ltmp370-Lfunc_begin8
	.uleb128 Ltmp369-Ltmp370
	.uleb128 Ltmp372-Lfunc_begin8
	.byte	0
	.uleb128 Ltmp369-Lfunc_begin8
	.uleb128 Ltmp373-Ltmp369
	.byte	0
	.byte	0
	.uleb128 Ltmp373-Lfunc_begin8
	.uleb128 Ltmp374-Ltmp373
	.uleb128 Ltmp375-Lfunc_begin8
	.byte	0
	.uleb128 Ltmp374-Lfunc_begin8
	.uleb128 Ltmp353-Ltmp374
	.byte	0
	.byte	0
	.uleb128 Ltmp353-Lfunc_begin8
	.uleb128 Ltmp354-Ltmp353
	.uleb128 Ltmp386-Lfunc_begin8
	.byte	0
	.uleb128 Ltmp355-Lfunc_begin8
	.uleb128 Ltmp356-Ltmp355
	.uleb128 Ltmp357-Lfunc_begin8
	.byte	0
	.uleb128 Ltmp356-Lfunc_begin8
	.uleb128 Lfunc_end8-Ltmp356
	.byte	0
	.byte	0
Lcst_end8:
	.byte	0
	.byte	0
	.byte	1
	.byte	125
	.p2align	2
	.long	0
Lttbase8:
	.p2align	2

	.section	__TEXT,__text,regular,pure_instructions
	.p2align	4, 0x90
__ZN10rayon_core4join12join_context28_$u7b$$u7b$closure$u7d$$u7d$17h16c771cb5cd86b14E:
Lfunc_begin9:
	.cfi_startproc
	.cfi_personality 155, _rust_eh_personality
	.cfi_lsda 16, Lexception9
	push	rbp
	.cfi_def_cfa_offset 16
	.cfi_offset rbp, -16
	mov	rbp, rsp
	.cfi_def_cfa_register rbp
	push	r15
	push	r14
	push	r13
	push	r12
	push	rbx
	and	rsp, -32
	sub	rsp, 480
	.cfi_offset rbx, -56
	.cfi_offset r12, -48
	.cfi_offset r13, -40
	.cfi_offset r14, -32
	.cfi_offset r15, -24
	mov	rbx, rdx
	mov	r12, rsi
	mov	byte ptr [rsp + 248], 0
	mov	rax, qword ptr [rsi]
	mov	rdx, qword ptr [rsi + 8]
	mov	qword ptr [rsp + 192], rax
	mov	qword ptr [rsp + 200], rdx
	mov	rax, qword ptr [rsi + 16]
	mov	qword ptr [rsp + 208], rax
	mov	rax, qword ptr [rsi + 24]
	mov	qword ptr [rsp + 216], rax
	mov	rax, qword ptr [rsi + 32]
	mov	qword ptr [rsp + 224], rax
	mov	rax, qword ptr [rsi + 40]
	mov	qword ptr [rsp + 232], rax
	mov	rax, qword ptr [rsi + 48]
	mov	qword ptr [rsp + 240], rax
	mov	qword ptr [rsp + 128], 0
	mov	rax, qword ptr [rbx + 256]
	mov	r14, qword ptr [rax + 264]
	mov	rax, qword ptr [rax + 256]
	mov	rsi, qword ptr [rbx + 272]
	mov	rdx, r14
	sub	rdx, rax
	cmp	rdx, rsi
	mov	qword ptr [rsp + 96], rdi
	mov	dword ptr [rsp + 24], ecx
	jl	LBB9_4
	add	rsi, rsi
	jb	LBB9_7
	lea	rdi, [rbx + 256]
Ltmp387:
	call	__ZN15crossbeam_deque15Worker$LT$T$GT$6resize17h5c22be2b4226dcffE
Ltmp388:
	mov	rsi, qword ptr [rbx + 272]
LBB9_4:
	sub	rsi, 1
	jb	LBB9_5
	mov	rax, qword ptr [rbx + 264]
	and	rsi, r14
	shl	rsi, 4
	lea	r13, [rsp + 128]
	mov	qword ptr [rax + rsi], r13
	lea	r15, [rip + __ZN83_$LT$rayon_core..job..StackJob$LT$L$C$F$C$R$GT$$u20$as$u20$rayon_core..job..Job$GT$7execute17h0a2db57334884156E]
	mov	qword ptr [rax + rsi + 8], r15
	##MEMBARRIER
	mov	rax, qword ptr [rbx + 256]
	inc	r14
	mov	qword ptr [rax + 264], r14
	mov	edi, 408
	add	rdi, qword ptr [rbx + 304]
	mov	rsi, qword ptr [rbx + 288]
Ltmp391:
	call	__ZN10rayon_core5sleep5Sleep6tickle17h00d06f732555dc32E
Ltmp392:
	mov	rax, qword ptr [r12 + 88]
	mov	rdx, qword ptr [r12 + 96]
	movdqu	xmm0, xmmword ptr [r12 + 56]
	movdqu	xmm1, xmmword ptr [r12 + 72]
	movq	rcx, xmm0
	pshufd	xmm0, xmm0, 78
	movq	rdi, xmm0
	pshufd	xmm0, xmm1, 78
	mov	rsi, qword ptr [rcx]
	mov	rcx, qword ptr [rdi]
	mov	r8, qword ptr [rdi + 8]
	movq	qword ptr [rsp + 40], xmm0
	movq	qword ptr [rsp + 32], xmm1
	mov	qword ptr [rsp + 48], rax
Ltmp393:
	mov	qword ptr [rsp], rdx
	movzx	r12d, byte ptr [rsp + 24]
	lea	rdi, [rsp + 256]
	lea	r9, [rsp + 32]
	mov	edx, r12d
	call	__ZN5rayon4iter8plumbing24bridge_producer_consumer6helper17h4a0bea9cc322754dE
Ltmp394:
	movdqa	xmm0, xmmword ptr [rsp + 256]
	movdqa	xmm1, xmmword ptr [rsp + 272]
	movq	r14, xmm1
	movq	qword ptr [rsp + 88], xmm0
	pshufd	xmm1, xmm1, 78
	movq	qword ptr [rsp + 24], xmm1
	pshufd	xmm0, xmm0, 78
	movq	qword ptr [rsp + 80], xmm0
	mov	al, byte ptr [rsp + 248]
	test	al, al
	je	LBB9_12
	jmp	LBB9_16
	.p2align	4, 0x90
LBB9_23:
Ltmp403:
	mov	rdi, rbx
	mov	rsi, rax
	call	__ZN10rayon_core8registry12WorkerThread7execute17h2d3f3a8dd2af2716E
Ltmp404:
	movzx	eax, byte ptr [rsp + 248]
	test	al, al
	jne	LBB9_16
LBB9_12:
Ltmp401:
	mov	rdi, rbx
	call	__ZN10rayon_core8registry12WorkerThread14take_local_job17h123bfb54be8597fdE
Ltmp402:
	test	rdx, rdx
	je	LBB9_14
	cmp	rax, r13
	jne	LBB9_23
	cmp	rdx, r15
	jne	LBB9_23
	movaps	xmm0, xmmword ptr [rsp + 240]
	movaps	xmmword ptr [rsp + 368], xmm0
	movaps	xmm0, xmmword ptr [rsp + 224]
	movaps	xmmword ptr [rsp + 352], xmm0
	movaps	xmm0, xmmword ptr [rsp + 208]
	movaps	xmmword ptr [rsp + 336], xmm0
	movaps	xmm0, xmmword ptr [rsp + 192]
	movaps	xmmword ptr [rsp + 320], xmm0
	movdqa	xmm0, xmmword ptr [rsp + 128]
	movdqa	xmm1, xmmword ptr [rsp + 144]
	movaps	xmm2, xmmword ptr [rsp + 160]
	movaps	xmm3, xmmword ptr [rsp + 176]
	movaps	xmmword ptr [rsp + 304], xmm3
	movaps	xmmword ptr [rsp + 288], xmm2
	movdqa	xmmword ptr [rsp + 272], xmm1
	movdqa	xmmword ptr [rsp + 256], xmm0
	mov	rsi, qword ptr [rsp + 320]
	mov	rcx, qword ptr [rsp + 328]
	mov	rax, qword ptr [rsp + 336]
	mov	rdx, qword ptr [rsp + 344]
	mov	rdi, qword ptr [rsp + 352]
	mov	qword ptr [rsp + 32], rdx
	mov	qword ptr [rsp + 40], rdi
	mov	rdx, qword ptr [rsp + 360]
	mov	qword ptr [rsp + 48], rdx
	test	rsi, rsi
	je	LBB9_25
	mov	r9, qword ptr [rsp + 368]
	mov	rdi, qword ptr [rsp + 48]
	mov	qword ptr [rsp + 448], rdi
	mov	rbx, qword ptr [rsp + 32]
	mov	rdx, qword ptr [rsp + 40]
	mov	qword ptr [rsp + 440], rdx
	mov	qword ptr [rsp + 432], rbx
	mov	qword ptr [rsp + 120], rdi
	mov	qword ptr [rsp + 112], rdx
	mov	qword ptr [rsp + 104], rbx
	mov	rsi, qword ptr [rsi]
	sub	rsi, qword ptr [rcx]
	jb	LBB9_33
	mov	rcx, qword ptr [rax]
	mov	r8, qword ptr [rax + 8]
	mov	rax, qword ptr [rsp + 120]
	mov	qword ptr [rsp + 424], rax
	mov	rax, qword ptr [rsp + 104]
	mov	rdx, qword ptr [rsp + 112]
	mov	qword ptr [rsp + 416], rdx
	mov	qword ptr [rsp + 408], rax
Ltmp406:
	mov	qword ptr [rsp], r9
	lea	rdi, [rsp + 32]
	lea	r9, [rsp + 408]
	mov	edx, r12d
	call	__ZN5rayon4iter8plumbing24bridge_producer_consumer6helper17h4a0bea9cc322754dE
Ltmp407:
	cmp	qword ptr [rsp + 256], 2
	jb	LBB9_32
	mov	r15, qword ptr [rsp + 264]
	mov	rbx, qword ptr [rsp + 272]
Ltmp408:
	mov	rdi, r15
	call	qword ptr [rbx]
Ltmp409:
	mov	rsi, qword ptr [rbx + 8]
	test	rsi, rsi
	je	LBB9_32
	mov	rdx, qword ptr [rbx + 16]
	mov	rdi, r15
	call	___rust_dealloc
LBB9_32:
	movdqa	xmm0, xmmword ptr [rsp + 32]
	movdqa	xmm1, xmmword ptr [rsp + 48]
	jmp	LBB9_37
LBB9_14:
	mov	al, byte ptr [rsp + 248]
	test	al, al
	jne	LBB9_16
Ltmp419:
	mov	rdi, rbx
	lea	rsi, [rsp + 248]
	call	__ZN10rayon_core8registry12WorkerThread15wait_until_cold17h4ea94d81ba0d12faE
Ltmp420:
LBB9_16:
	mov	rax, qword ptr [rsp + 128]
	cmp	rax, 1
	jne	LBB9_17
	movdqa	xmm0, xmmword ptr [rsp + 160]
	movdqa	xmm1, xmmword ptr [rsp + 176]
LBB9_37:
	movq	rax, xmm1
	movq	rcx, xmm0
	pshufd	xmm1, xmm1, 78
	movq	rdx, xmm1
	pshufd	xmm0, xmm0, 78
	movq	rsi, xmm0
	mov	rdi, qword ptr [rsp + 96]
	mov	rbx, qword ptr [rsp + 88]
	mov	qword ptr [rdi], rbx
	mov	rbx, qword ptr [rsp + 80]
	mov	qword ptr [rdi + 8], rbx
	mov	qword ptr [rdi + 16], r14
	mov	rbx, qword ptr [rsp + 24]
	mov	qword ptr [rdi + 24], rbx
	mov	qword ptr [rdi + 32], rcx
	mov	qword ptr [rdi + 40], rsi
	mov	qword ptr [rdi + 48], rax
	mov	qword ptr [rdi + 56], rdx
	lea	rsp, [rbp - 40]
	pop	rbx
	pop	r12
	pop	r13
	pop	r14
	pop	r15
	pop	rbp
	ret
LBB9_17:
	test	rax, rax
	je	LBB9_35
	mov	rdi, qword ptr [rsp + 136]
	mov	rsi, qword ptr [rsp + 144]
Ltmp422:
	call	__ZN10rayon_core6unwind16resume_unwinding17h47c2e39f90248736E
Ltmp423:
	jmp	LBB9_6
LBB9_5:
Ltmp427:
	lea	rdi, [rip + _str.1]
	lea	rdx, [rip + l___unnamed_1]
	mov	esi, 33
	call	__ZN4core9panicking5panic17h736ee47a631475c0E
Ltmp428:
	jmp	LBB9_6
LBB9_35:
Ltmp424:
	lea	rdi, [rip + l___unnamed_2]
	lea	rdx, [rip + l___unnamed_3]
	mov	esi, 40
	call	__ZN3std9panicking11begin_panic17h75aebe10c874e798E
Ltmp425:
	jmp	LBB9_6
LBB9_7:
Ltmp389:
	lea	rdi, [rip + _str.3]
	lea	rdx, [rip + l___unnamed_4]
	mov	esi, 33
	call	__ZN4core9panicking5panic17h736ee47a631475c0E
Ltmp390:
	jmp	LBB9_6
LBB9_25:
Ltmp413:
	lea	rdi, [rip + l___unnamed_5]
	lea	rdx, [rip + l___unnamed_6]
	mov	esi, 43
	call	__ZN4core9panicking5panic17h736ee47a631475c0E
Ltmp414:
	jmp	LBB9_6
LBB9_33:
Ltmp411:
	lea	rdi, [rip + _str.1]
	lea	rdx, [rip + l___unnamed_7]
	mov	esi, 33
	call	__ZN4core9panicking5panic17h736ee47a631475c0E
Ltmp412:
	jmp	LBB9_6
LBB9_47:
Ltmp426:
	jmp	LBB9_42
LBB9_40:
Ltmp421:
	jmp	LBB9_46
LBB9_38:
Ltmp410:
	mov	r14, rax
	mov	rdi, r15
	mov	rsi, rbx
	call	__ZN5alloc5alloc8box_free17hfd27018577a513c9E
	mov	rdi, r14
	call	__Unwind_Resume
	ud2
LBB9_34:
Ltmp415:
	mov	r14, rax
Ltmp416:
	lea	rdi, [rsp + 256]
	call	__ZN4core3ptr13drop_in_place17h07e85562a77b63c9E
Ltmp417:
	jmp	LBB9_43
LBB9_41:
Ltmp418:
LBB9_42:
	mov	r14, rax
	mov	rdi, r14
	call	__Unwind_Resume
	ud2
LBB9_19:
Ltmp395:
Ltmp396:
	mov	rdi, rax
	call	__ZN3std9panicking3try7cleanup17hd895f7beef0a7dadE
Ltmp397:
	mov	rcx, rdx
	lea	rsi, [rsp + 248]
Ltmp398:
	mov	rdi, rbx
	mov	rdx, rax
	call	__ZN10rayon_core4join23join_recover_from_panic17h65e0dcb6d5862f08E
Ltmp399:
LBB9_6:
	ud2
LBB9_45:
Ltmp400:
	jmp	LBB9_46
LBB9_44:
Ltmp429:
	jmp	LBB9_46
LBB9_39:
Ltmp405:
LBB9_46:
	mov	r14, rax
	lea	rdi, [rsp + 128]
	call	__ZN4core3ptr13drop_in_place17h07e85562a77b63c9E
LBB9_43:
	mov	rdi, r14
	call	__Unwind_Resume
	ud2
Lfunc_end9:
	.cfi_endproc
	.section	__TEXT,__gcc_except_tab
	.p2align	2
GCC_except_table9:
Lexception9:
	.byte	255
	.byte	155
	.uleb128 Lttbase9-Lttbaseref9
Lttbaseref9:
	.byte	1
	.uleb128 Lcst_end9-Lcst_begin9
Lcst_begin9:
	.uleb128 Ltmp387-Lfunc_begin9
	.uleb128 Ltmp392-Ltmp387
	.uleb128 Ltmp429-Lfunc_begin9
	.byte	0
	.uleb128 Ltmp393-Lfunc_begin9
	.uleb128 Ltmp394-Ltmp393
	.uleb128 Ltmp395-Lfunc_begin9
	.byte	3
	.uleb128 Ltmp403-Lfunc_begin9
	.uleb128 Ltmp402-Ltmp403
	.uleb128 Ltmp405-Lfunc_begin9
	.byte	0
	.uleb128 Ltmp406-Lfunc_begin9
	.uleb128 Ltmp407-Ltmp406
	.uleb128 Ltmp415-Lfunc_begin9
	.byte	0
	.uleb128 Ltmp408-Lfunc_begin9
	.uleb128 Ltmp409-Ltmp408
	.uleb128 Ltmp410-Lfunc_begin9
	.byte	0
	.uleb128 Ltmp419-Lfunc_begin9
	.uleb128 Ltmp420-Ltmp419
	.uleb128 Ltmp421-Lfunc_begin9
	.byte	0
	.uleb128 Ltmp422-Lfunc_begin9
	.uleb128 Ltmp423-Ltmp422
	.uleb128 Ltmp426-Lfunc_begin9
	.byte	0
	.uleb128 Ltmp427-Lfunc_begin9
	.uleb128 Ltmp428-Ltmp427
	.uleb128 Ltmp429-Lfunc_begin9
	.byte	0
	.uleb128 Ltmp424-Lfunc_begin9
	.uleb128 Ltmp425-Ltmp424
	.uleb128 Ltmp426-Lfunc_begin9
	.byte	0
	.uleb128 Ltmp389-Lfunc_begin9
	.uleb128 Ltmp390-Ltmp389
	.uleb128 Ltmp429-Lfunc_begin9
	.byte	0
	.uleb128 Ltmp413-Lfunc_begin9
	.uleb128 Ltmp412-Ltmp413
	.uleb128 Ltmp415-Lfunc_begin9
	.byte	0
	.uleb128 Ltmp412-Lfunc_begin9
	.uleb128 Ltmp416-Ltmp412
	.byte	0
	.byte	0
	.uleb128 Ltmp416-Lfunc_begin9
	.uleb128 Ltmp417-Ltmp416
	.uleb128 Ltmp418-Lfunc_begin9
	.byte	0
	.uleb128 Ltmp417-Lfunc_begin9
	.uleb128 Ltmp396-Ltmp417
	.byte	0
	.byte	0
	.uleb128 Ltmp396-Lfunc_begin9
	.uleb128 Ltmp397-Ltmp396
	.uleb128 Ltmp429-Lfunc_begin9
	.byte	0
	.uleb128 Ltmp398-Lfunc_begin9
	.uleb128 Ltmp399-Ltmp398
	.uleb128 Ltmp400-Lfunc_begin9
	.byte	0
	.uleb128 Ltmp399-Lfunc_begin9
	.uleb128 Lfunc_end9-Ltmp399
	.byte	0
	.byte	0
Lcst_end9:
	.byte	0
	.byte	0
	.byte	1
	.byte	125
	.p2align	2
	.long	0
Lttbase9:
	.p2align	2

	.section	__TEXT,__text,regular,pure_instructions
	.p2align	4, 0x90
__ZN10rayon_core4join12join_context28_$u7b$$u7b$closure$u7d$$u7d$17h1727d6614684742fE:
Lfunc_begin10:
	.cfi_startproc
	.cfi_personality 155, _rust_eh_personality
	.cfi_lsda 16, Lexception10
	push	rbp
	.cfi_def_cfa_offset 16
	.cfi_offset rbp, -16
	mov	rbp, rsp
	.cfi_def_cfa_register rbp
	push	r15
	push	r14
	push	r13
	push	r12
	push	rbx
	sub	rsp, 552
	.cfi_offset rbx, -56
	.cfi_offset r12, -48
	.cfi_offset r13, -40
	.cfi_offset r14, -32
	.cfi_offset r15, -24
	mov	r8d, ecx
	mov	rbx, rdx
	mov	r12, rsi
	mov	qword ptr [rbp - 200], rdi
	mov	byte ptr [rbp - 448], 0
	lea	rdi, [rbp - 544]
	mov	ecx, 12
	rep movsq es:[rdi], [rsi]
	mov	qword ptr [rbp - 576], 0
	mov	rax, qword ptr [rdx + 256]
	mov	r15, qword ptr [rax + 264]
	mov	rax, qword ptr [rax + 256]
	mov	rsi, qword ptr [rdx + 272]
	mov	rcx, r15
	sub	rcx, rax
	cmp	rcx, rsi
	mov	dword ptr [rbp - 192], r8d
	jl	LBB10_4
	add	rsi, rsi
	jb	LBB10_7
	lea	rdi, [rbx + 256]
Ltmp430:
	call	__ZN15crossbeam_deque15Worker$LT$T$GT$6resize17h5c22be2b4226dcffE
Ltmp431:
	mov	rsi, qword ptr [rbx + 272]
LBB10_4:
	sub	rsi, 1
	jb	LBB10_5
	mov	rax, qword ptr [rbx + 264]
	and	rsi, r15
	shl	rsi, 4
	lea	r13, [rbp - 576]
	mov	qword ptr [rax + rsi], r13
	lea	r14, [rip + __ZN83_$LT$rayon_core..job..StackJob$LT$L$C$F$C$R$GT$$u20$as$u20$rayon_core..job..Job$GT$7execute17h3e1363aa0a569832E]
	mov	qword ptr [rax + rsi + 8], r14
	##MEMBARRIER
	mov	rax, qword ptr [rbx + 256]
	inc	r15
	mov	qword ptr [rax + 264], r15
	mov	edi, 408
	add	rdi, qword ptr [rbx + 304]
	mov	rsi, qword ptr [rbx + 288]
Ltmp434:
	call	__ZN10rayon_core5sleep5Sleep6tickle17h00d06f732555dc32E
Ltmp435:
	movdqu	xmm0, xmmword ptr [r12 + 96]
	mov	rax, qword ptr [r12 + 176]
	mov	rcx, qword ptr [r12 + 168]
	mov	qword ptr [rbp - 48], rcx
	mov	rcx, qword ptr [r12 + 160]
	mov	qword ptr [rbp - 56], rcx
	mov	rcx, qword ptr [r12 + 152]
	mov	qword ptr [rbp - 64], rcx
	mov	rcx, qword ptr [r12 + 144]
	mov	qword ptr [rbp - 72], rcx
	mov	rcx, qword ptr [r12 + 136]
	mov	qword ptr [rbp - 80], rcx
	mov	rcx, qword ptr [r12 + 128]
	mov	qword ptr [rbp - 88], rcx
	mov	rcx, qword ptr [r12 + 112]
	mov	rdx, qword ptr [r12 + 120]
	mov	qword ptr [rbp - 96], rdx
	mov	qword ptr [rbp - 104], rcx
	movq	rcx, xmm0
	mov	rsi, qword ptr [rcx]
	pshufd	xmm0, xmm0, 78
	movq	rdx, xmm0
	mov	rcx, qword ptr [rdx]
	mov	r8, qword ptr [rdx + 8]
	mov	rdx, qword ptr [rbp - 48]
	mov	qword ptr [rbp - 296], rdx
	mov	rdx, qword ptr [rbp - 56]
	mov	qword ptr [rbp - 304], rdx
	mov	rdx, qword ptr [rbp - 64]
	mov	qword ptr [rbp - 312], rdx
	mov	rdx, qword ptr [rbp - 72]
	mov	qword ptr [rbp - 320], rdx
	mov	rdx, qword ptr [rbp - 80]
	mov	qword ptr [rbp - 328], rdx
	mov	rdx, qword ptr [rbp - 88]
	mov	qword ptr [rbp - 336], rdx
	mov	rdx, qword ptr [rbp - 104]
	mov	rdi, qword ptr [rbp - 96]
	mov	qword ptr [rbp - 344], rdi
	mov	qword ptr [rbp - 352], rdx
Ltmp436:
	mov	qword ptr [rsp], rax
	movzx	r15d, byte ptr [rbp - 192]
	lea	rdi, [rbp - 176]
	lea	r9, [rbp - 352]
	mov	edx, r15d
	call	__ZN5rayon4iter8plumbing24bridge_producer_consumer6helper17h3f4e969af68f196fE
Ltmp437:
	movdqa	xmm0, xmmword ptr [rbp - 176]
	movdqa	xmmword ptr [rbp - 192], xmm0
	lea	r12, [rbp - 448]
	mov	al, byte ptr [rbp - 448]
	test	al, al
	je	LBB10_12
	jmp	LBB10_16
	.p2align	4, 0x90
LBB10_23:
Ltmp446:
	mov	rdi, rbx
	mov	rsi, rax
	call	__ZN10rayon_core8registry12WorkerThread7execute17h2d3f3a8dd2af2716E
Ltmp447:
	movzx	eax, byte ptr [rbp - 448]
	test	al, al
	jne	LBB10_16
LBB10_12:
Ltmp444:
	mov	rdi, rbx
	call	__ZN10rayon_core8registry12WorkerThread14take_local_job17h123bfb54be8597fdE
Ltmp445:
	test	rdx, rdx
	je	LBB10_14
	cmp	rax, r13
	jne	LBB10_23
	cmp	rdx, r14
	jne	LBB10_23
	lea	rdi, [rbp - 352]
	lea	rsi, [rbp - 576]
	mov	edx, 144
	call	_memcpy
	mov	r11, qword ptr [rbp - 320]
	mov	r8, qword ptr [rbp - 312]
	mov	r10, qword ptr [rbp - 304]
	mov	rdx, qword ptr [rbp - 296]
	mov	qword ptr [rbp - 104], rdx
	mov	rdx, qword ptr [rbp - 288]
	mov	qword ptr [rbp - 96], rdx
	mov	rdx, qword ptr [rbp - 280]
	mov	qword ptr [rbp - 88], rdx
	mov	rdx, qword ptr [rbp - 272]
	mov	qword ptr [rbp - 80], rdx
	mov	rdx, qword ptr [rbp - 264]
	mov	qword ptr [rbp - 72], rdx
	mov	rdx, qword ptr [rbp - 256]
	mov	qword ptr [rbp - 64], rdx
	mov	rdx, qword ptr [rbp - 248]
	mov	qword ptr [rbp - 56], rdx
	mov	rdx, qword ptr [rbp - 240]
	mov	qword ptr [rbp - 48], rdx
	test	r11, r11
	je	LBB10_25
	mov	r9, qword ptr [rbp - 232]
	mov	rdi, qword ptr [rbp - 48]
	mov	qword ptr [rbp - 360], rdi
	mov	r14, qword ptr [rbp - 56]
	mov	qword ptr [rbp - 368], r14
	mov	rbx, qword ptr [rbp - 64]
	mov	qword ptr [rbp - 376], rbx
	mov	rdx, qword ptr [rbp - 72]
	mov	qword ptr [rbp - 384], rdx
	mov	rcx, qword ptr [rbp - 80]
	mov	qword ptr [rbp - 392], rcx
	mov	rax, qword ptr [rbp - 88]
	mov	qword ptr [rbp - 400], rax
	mov	rsi, qword ptr [rbp - 104]
	mov	rdi, qword ptr [rbp - 96]
	mov	qword ptr [rbp - 408], rdi
	mov	qword ptr [rbp - 416], rsi
	mov	qword ptr [rbp - 128], r14
	mov	qword ptr [rbp - 136], rbx
	mov	qword ptr [rbp - 144], rdx
	mov	qword ptr [rbp - 152], rcx
	mov	qword ptr [rbp - 160], rax
	mov	qword ptr [rbp - 168], rdi
	mov	qword ptr [rbp - 176], rsi
	mov	rax, qword ptr [rbp - 360]
	mov	qword ptr [rbp - 120], rax
	mov	rsi, qword ptr [r11]
	sub	rsi, qword ptr [r8]
	jb	LBB10_27
	mov	rcx, qword ptr [r10]
	mov	r8, qword ptr [r10 + 8]
	mov	rax, qword ptr [rbp - 120]
	mov	qword ptr [rbp - 48], rax
	mov	rax, qword ptr [rbp - 128]
	mov	qword ptr [rbp - 56], rax
	mov	rax, qword ptr [rbp - 136]
	mov	qword ptr [rbp - 64], rax
	mov	rax, qword ptr [rbp - 144]
	mov	qword ptr [rbp - 72], rax
	mov	rax, qword ptr [rbp - 152]
	mov	qword ptr [rbp - 80], rax
	mov	rax, qword ptr [rbp - 160]
	mov	qword ptr [rbp - 88], rax
	mov	rax, qword ptr [rbp - 176]
	mov	rdx, qword ptr [rbp - 168]
	mov	qword ptr [rbp - 96], rdx
	mov	qword ptr [rbp - 104], rax
Ltmp449:
	mov	qword ptr [rsp], r9
	lea	rdi, [rbp - 432]
	lea	r9, [rbp - 104]
	mov	edx, r15d
	call	__ZN5rayon4iter8plumbing24bridge_producer_consumer6helper17h3f4e969af68f196fE
Ltmp450:
	cmp	qword ptr [rbp - 352], 2
	jb	LBB10_33
	mov	r15, qword ptr [rbp - 344]
	mov	rbx, qword ptr [rbp - 336]
Ltmp451:
	mov	rdi, r15
	call	qword ptr [rbx]
Ltmp452:
	mov	rsi, qword ptr [rbx + 8]
	test	rsi, rsi
	je	LBB10_33
	mov	rdx, qword ptr [rbx + 16]
	mov	rdi, r15
	call	___rust_dealloc
LBB10_33:
	movdqa	xmm0, xmmword ptr [rbp - 432]
	jmp	LBB10_34
LBB10_14:
	mov	al, byte ptr [rbp - 448]
	test	al, al
	jne	LBB10_16
Ltmp462:
	mov	rdi, rbx
	mov	rsi, r12
	call	__ZN10rayon_core8registry12WorkerThread15wait_until_cold17h4ea94d81ba0d12faE
Ltmp463:
LBB10_16:
	mov	rax, qword ptr [rbp - 576]
	movdqa	xmm0, xmmword ptr [rbp - 560]
	cmp	rax, 1
	jne	LBB10_17
LBB10_34:
	mov	rax, qword ptr [rbp - 200]
	movaps	xmm1, xmmword ptr [rbp - 192]
	movaps	xmmword ptr [rax], xmm1
	movdqa	xmmword ptr [rax + 16], xmm0
	add	rsp, 552
	pop	rbx
	pop	r12
	pop	r13
	pop	r14
	pop	r15
	pop	rbp
	ret
LBB10_17:
	test	rax, rax
	je	LBB10_36
	mov	rdi, qword ptr [rbp - 568]
	movq	rsi, xmm0
Ltmp465:
	call	__ZN10rayon_core6unwind16resume_unwinding17h47c2e39f90248736E
Ltmp466:
	jmp	LBB10_6
LBB10_5:
Ltmp470:
	lea	rdi, [rip + _str.1]
	lea	rdx, [rip + l___unnamed_1]
	mov	esi, 33
	call	__ZN4core9panicking5panic17h736ee47a631475c0E
Ltmp471:
	jmp	LBB10_6
LBB10_36:
Ltmp467:
	lea	rdi, [rip + l___unnamed_2]
	lea	rdx, [rip + l___unnamed_3]
	mov	esi, 40
	call	__ZN3std9panicking11begin_panic17h75aebe10c874e798E
Ltmp468:
	jmp	LBB10_6
LBB10_7:
Ltmp432:
	lea	rdi, [rip + _str.3]
	lea	rdx, [rip + l___unnamed_4]
	mov	esi, 33
	call	__ZN4core9panicking5panic17h736ee47a631475c0E
Ltmp433:
	jmp	LBB10_6
LBB10_25:
Ltmp456:
	lea	rdi, [rip + l___unnamed_5]
	lea	rdx, [rip + l___unnamed_6]
	mov	esi, 43
	call	__ZN4core9panicking5panic17h736ee47a631475c0E
Ltmp457:
	jmp	LBB10_6
LBB10_27:
Ltmp454:
	lea	rdi, [rip + _str.1]
	lea	rdx, [rip + l___unnamed_7]
	mov	esi, 33
	call	__ZN4core9panicking5panic17h736ee47a631475c0E
Ltmp455:
	jmp	LBB10_6
LBB10_46:
Ltmp469:
	jmp	LBB10_41
LBB10_39:
Ltmp464:
	jmp	LBB10_45
LBB10_37:
Ltmp453:
	mov	r14, rax
	mov	rdi, r15
	mov	rsi, rbx
	call	__ZN5alloc5alloc8box_free17hfd27018577a513c9E
	mov	rdi, r14
	call	__Unwind_Resume
	ud2
LBB10_35:
Ltmp458:
	mov	r14, rax
Ltmp459:
	lea	rdi, [rbp - 352]
	call	__ZN4core3ptr13drop_in_place17h03e3d151d67a9ae6E
Ltmp460:
	jmp	LBB10_42
LBB10_40:
Ltmp461:
LBB10_41:
	mov	r14, rax
	mov	rdi, r14
	call	__Unwind_Resume
	ud2
LBB10_19:
Ltmp438:
Ltmp439:
	mov	rdi, rax
	call	__ZN3std9panicking3try7cleanup17hd895f7beef0a7dadE
Ltmp440:
	mov	rcx, rdx
	lea	rsi, [rbp - 448]
Ltmp441:
	mov	rdi, rbx
	mov	rdx, rax
	call	__ZN10rayon_core4join23join_recover_from_panic17h65e0dcb6d5862f08E
Ltmp442:
LBB10_6:
	ud2
LBB10_44:
Ltmp443:
	jmp	LBB10_45
LBB10_43:
Ltmp472:
	jmp	LBB10_45
LBB10_38:
Ltmp448:
LBB10_45:
	mov	r14, rax
	lea	rdi, [rbp - 576]
	call	__ZN4core3ptr13drop_in_place17h03e3d151d67a9ae6E
LBB10_42:
	mov	rdi, r14
	call	__Unwind_Resume
	ud2
Lfunc_end10:
	.cfi_endproc
	.section	__TEXT,__gcc_except_tab
	.p2align	2
GCC_except_table10:
Lexception10:
	.byte	255
	.byte	155
	.uleb128 Lttbase10-Lttbaseref10
Lttbaseref10:
	.byte	1
	.uleb128 Lcst_end10-Lcst_begin10
Lcst_begin10:
	.uleb128 Ltmp430-Lfunc_begin10
	.uleb128 Ltmp435-Ltmp430
	.uleb128 Ltmp472-Lfunc_begin10
	.byte	0
	.uleb128 Ltmp436-Lfunc_begin10
	.uleb128 Ltmp437-Ltmp436
	.uleb128 Ltmp438-Lfunc_begin10
	.byte	3
	.uleb128 Ltmp446-Lfunc_begin10
	.uleb128 Ltmp445-Ltmp446
	.uleb128 Ltmp448-Lfunc_begin10
	.byte	0
	.uleb128 Ltmp445-Lfunc_begin10
	.uleb128 Ltmp449-Ltmp445
	.byte	0
	.byte	0
	.uleb128 Ltmp449-Lfunc_begin10
	.uleb128 Ltmp450-Ltmp449
	.uleb128 Ltmp458-Lfunc_begin10
	.byte	0
	.uleb128 Ltmp451-Lfunc_begin10
	.uleb128 Ltmp452-Ltmp451
	.uleb128 Ltmp453-Lfunc_begin10
	.byte	0
	.uleb128 Ltmp462-Lfunc_begin10
	.uleb128 Ltmp463-Ltmp462
	.uleb128 Ltmp464-Lfunc_begin10
	.byte	0
	.uleb128 Ltmp465-Lfunc_begin10
	.uleb128 Ltmp466-Ltmp465
	.uleb128 Ltmp469-Lfunc_begin10
	.byte	0
	.uleb128 Ltmp470-Lfunc_begin10
	.uleb128 Ltmp471-Ltmp470
	.uleb128 Ltmp472-Lfunc_begin10
	.byte	0
	.uleb128 Ltmp467-Lfunc_begin10
	.uleb128 Ltmp468-Ltmp467
	.uleb128 Ltmp469-Lfunc_begin10
	.byte	0
	.uleb128 Ltmp432-Lfunc_begin10
	.uleb128 Ltmp433-Ltmp432
	.uleb128 Ltmp472-Lfunc_begin10
	.byte	0
	.uleb128 Ltmp456-Lfunc_begin10
	.uleb128 Ltmp455-Ltmp456
	.uleb128 Ltmp458-Lfunc_begin10
	.byte	0
	.uleb128 Ltmp455-Lfunc_begin10
	.uleb128 Ltmp459-Ltmp455
	.byte	0
	.byte	0
	.uleb128 Ltmp459-Lfunc_begin10
	.uleb128 Ltmp460-Ltmp459
	.uleb128 Ltmp461-Lfunc_begin10
	.byte	0
	.uleb128 Ltmp460-Lfunc_begin10
	.uleb128 Ltmp439-Ltmp460
	.byte	0
	.byte	0
	.uleb128 Ltmp439-Lfunc_begin10
	.uleb128 Ltmp440-Ltmp439
	.uleb128 Ltmp472-Lfunc_begin10
	.byte	0
	.uleb128 Ltmp441-Lfunc_begin10
	.uleb128 Ltmp442-Ltmp441
	.uleb128 Ltmp443-Lfunc_begin10
	.byte	0
	.uleb128 Ltmp442-Lfunc_begin10
	.uleb128 Lfunc_end10-Ltmp442
	.byte	0
	.byte	0
Lcst_end10:
	.byte	0
	.byte	0
	.byte	1
	.byte	125
	.p2align	2
	.long	0
Lttbase10:
	.p2align	2

	.section	__TEXT,__text,regular,pure_instructions
	.p2align	4, 0x90
__ZN10rayon_core4join12join_context28_$u7b$$u7b$closure$u7d$$u7d$17h19bc45a3ee294e42E:
Lfunc_begin11:
	.cfi_startproc
	.cfi_personality 155, _rust_eh_personality
	.cfi_lsda 16, Lexception11
	push	rbp
	.cfi_def_cfa_offset 16
	.cfi_offset rbp, -16
	mov	rbp, rsp
	.cfi_def_cfa_register rbp
	push	r15
	push	r14
	push	r13
	push	r12
	push	rbx
	sub	rsp, 184
	.cfi_offset rbx, -56
	.cfi_offset r12, -48
	.cfi_offset r13, -40
	.cfi_offset r14, -32
	.cfi_offset r15, -24
	mov	rbx, rsi
	mov	r15, rdi
	mov	rax, qword ptr [rdi + 40]
	mov	qword ptr [rbp - 88], rax
	mov	rax, qword ptr [rdi + 32]
	mov	qword ptr [rbp - 96], rax
	mov	rax, qword ptr [rdi + 24]
	mov	qword ptr [rbp - 104], rax
	mov	rax, qword ptr [rdi + 16]
	mov	qword ptr [rbp - 112], rax
	mov	rax, qword ptr [rdi]
	mov	rcx, qword ptr [rdi + 8]
	mov	qword ptr [rbp - 120], rcx
	mov	qword ptr [rbp - 128], rax
	mov	byte ptr [rbp - 56], 0
	mov	qword ptr [rbp - 80], 0
	mov	rax, qword ptr [rsi + 256]
	mov	r14, qword ptr [rax + 264]
	mov	rax, qword ptr [rax + 256]
	mov	rsi, qword ptr [rsi + 272]
	mov	rcx, r14
	sub	rcx, rax
	cmp	rcx, rsi
	mov	dword ptr [rbp - 44], edx
	jl	LBB11_4
	add	rsi, rsi
	jb	LBB11_7
	lea	rdi, [rbx + 256]
Ltmp473:
	call	__ZN15crossbeam_deque15Worker$LT$T$GT$6resize17h5c22be2b4226dcffE
Ltmp474:
	mov	rsi, qword ptr [rbx + 272]
LBB11_4:
	sub	rsi, 1
	jb	LBB11_5
	mov	rax, qword ptr [rbx + 264]
	and	rsi, r14
	shl	rsi, 4
	lea	r12, [rbp - 128]
	mov	qword ptr [rax + rsi], r12
	lea	r13, [rip + __ZN83_$LT$rayon_core..job..StackJob$LT$L$C$F$C$R$GT$$u20$as$u20$rayon_core..job..Job$GT$7execute17h3d05d8385ddea353E]
	mov	qword ptr [rax + rsi + 8], r13
	##MEMBARRIER
	mov	rax, qword ptr [rbx + 256]
	inc	r14
	mov	qword ptr [rax + 264], r14
	mov	edi, 408
	add	rdi, qword ptr [rbx + 304]
	mov	rsi, qword ptr [rbx + 288]
Ltmp477:
	call	__ZN10rayon_core5sleep5Sleep6tickle17h00d06f732555dc32E
Ltmp478:
	mov	rax, qword ptr [r15 + 48]
	mov	rcx, qword ptr [r15 + 56]
	mov	r8, qword ptr [r15 + 64]
	mov	r9, qword ptr [r15 + 72]
	mov	rsi, qword ptr [r15 + 80]
	mov	rdi, qword ptr [rax]
	mov	rdx, qword ptr [rcx]
	mov	rcx, qword ptr [rcx + 8]
Ltmp479:
	mov	qword ptr [rsp], rsi
	movzx	r14d, byte ptr [rbp - 44]
	mov	esi, r14d
	call	__ZN5rayon4iter8plumbing24bridge_producer_consumer6helper17h90978a71ca92d35bE
Ltmp480:
LBB11_12:
	lea	r15, [rbp - 56]
	mov	al, byte ptr [rbp - 56]
	test	al, al
	je	LBB11_14
	jmp	LBB11_18
	.p2align	4, 0x90
LBB11_23:
Ltmp489:
	mov	rdi, rbx
	mov	rsi, rax
	call	__ZN10rayon_core8registry12WorkerThread7execute17h2d3f3a8dd2af2716E
Ltmp490:
	movzx	eax, byte ptr [rbp - 56]
	test	al, al
	jne	LBB11_18
LBB11_14:
Ltmp487:
	mov	rdi, rbx
	call	__ZN10rayon_core8registry12WorkerThread14take_local_job17h123bfb54be8597fdE
Ltmp488:
	test	rdx, rdx
	je	LBB11_16
	cmp	rax, r12
	jne	LBB11_23
	cmp	rdx, r13
	jne	LBB11_23
	lea	rdi, [rbp - 208]
	lea	rsi, [rbp - 128]
	mov	ecx, 10
	rep movsq es:[rdi], [rsi]
	mov	rax, qword ptr [rbp - 208]
	test	rax, rax
	je	LBB11_25
	mov	rcx, qword ptr [rbp - 200]
	mov	rdi, qword ptr [rax]
	sub	rdi, qword ptr [rcx]
	jb	LBB11_27
	mov	rax, qword ptr [rbp - 192]
	mov	r8, qword ptr [rbp - 184]
	mov	r9, qword ptr [rbp - 176]
	mov	rsi, qword ptr [rbp - 168]
	mov	rdx, qword ptr [rax]
	mov	rcx, qword ptr [rax + 8]
Ltmp492:
	mov	qword ptr [rsp], rsi
	mov	esi, r14d
	call	__ZN5rayon4iter8plumbing24bridge_producer_consumer6helper17h90978a71ca92d35bE
Ltmp493:
	cmp	qword ptr [rbp - 160], 2
	jb	LBB11_33
	mov	r15, qword ptr [rbp - 152]
	mov	rbx, qword ptr [rbp - 144]
Ltmp494:
	mov	rdi, r15
	call	qword ptr [rbx]
Ltmp495:
	mov	rsi, qword ptr [rbx + 8]
	test	rsi, rsi
	je	LBB11_33
	mov	rdx, qword ptr [rbx + 16]
	mov	rdi, r15
	call	___rust_dealloc
	jmp	LBB11_33
LBB11_16:
	mov	al, byte ptr [rbp - 56]
	test	al, al
	jne	LBB11_18
Ltmp505:
	mov	rdi, rbx
	mov	rsi, r15
	call	__ZN10rayon_core8registry12WorkerThread15wait_until_cold17h4ea94d81ba0d12faE
Ltmp506:
LBB11_18:
	mov	rax, qword ptr [rbp - 80]
	cmp	rax, 1
	jne	LBB11_19
LBB11_33:
	add	rsp, 184
	pop	rbx
	pop	r12
	pop	r13
	pop	r14
	pop	r15
	pop	rbp
	ret
LBB11_19:
	test	rax, rax
	je	LBB11_35
	mov	rdi, qword ptr [rbp - 72]
	mov	rsi, qword ptr [rbp - 64]
Ltmp508:
	call	__ZN10rayon_core6unwind16resume_unwinding17h47c2e39f90248736E
Ltmp509:
	jmp	LBB11_6
LBB11_5:
Ltmp513:
	lea	rdi, [rip + _str.1]
	lea	rdx, [rip + l___unnamed_1]
	mov	esi, 33
	call	__ZN4core9panicking5panic17h736ee47a631475c0E
Ltmp514:
	jmp	LBB11_6
LBB11_35:
Ltmp510:
	lea	rdi, [rip + l___unnamed_2]
	lea	rdx, [rip + l___unnamed_3]
	mov	esi, 40
	call	__ZN3std9panicking11begin_panic17h75aebe10c874e798E
Ltmp511:
	jmp	LBB11_6
LBB11_7:
Ltmp475:
	lea	rdi, [rip + _str.3]
	lea	rdx, [rip + l___unnamed_4]
	mov	esi, 33
	call	__ZN4core9panicking5panic17h736ee47a631475c0E
Ltmp476:
	jmp	LBB11_6
LBB11_25:
Ltmp499:
	lea	rdi, [rip + l___unnamed_5]
	lea	rdx, [rip + l___unnamed_6]
	mov	esi, 43
	call	__ZN4core9panicking5panic17h736ee47a631475c0E
Ltmp500:
	jmp	LBB11_6
LBB11_27:
Ltmp497:
	lea	rdi, [rip + _str.1]
	lea	rdx, [rip + l___unnamed_7]
	mov	esi, 33
	call	__ZN4core9panicking5panic17h736ee47a631475c0E
Ltmp498:
LBB11_6:
	ud2
LBB11_46:
Ltmp512:
	jmp	LBB11_40
LBB11_38:
Ltmp507:
	jmp	LBB11_45
LBB11_36:
Ltmp496:
	mov	r14, rax
	mov	rdi, r15
	mov	rsi, rbx
	call	__ZN5alloc5alloc8box_free17hfd27018577a513c9E
	mov	rdi, r14
	call	__Unwind_Resume
	ud2
LBB11_34:
Ltmp501:
	mov	r14, rax
	lea	rdi, [rbp - 160]
Ltmp502:
	call	__ZN4core3ptr13drop_in_place17h386a8cdc061ec2cfE
Ltmp503:
	jmp	LBB11_41
LBB11_39:
Ltmp504:
LBB11_40:
	mov	r14, rax
	mov	rdi, r14
	call	__Unwind_Resume
	ud2
LBB11_10:
Ltmp481:
Ltmp482:
	mov	rdi, rax
	call	__ZN3std9panicking3try7cleanup17hd895f7beef0a7dadE
Ltmp483:
	test	rax, rax
	je	LBB11_12
	mov	rcx, rdx
	lea	rsi, [rbp - 56]
Ltmp484:
	mov	rdi, rbx
	mov	rdx, rax
	call	__ZN10rayon_core4join23join_recover_from_panic17h65e0dcb6d5862f08E
Ltmp485:
	jmp	LBB11_6
LBB11_44:
Ltmp486:
	jmp	LBB11_45
LBB11_42:
Ltmp515:
	jmp	LBB11_45
LBB11_37:
Ltmp491:
LBB11_45:
	mov	r14, rax
	lea	rdi, [rbp - 128]
	call	__ZN4core3ptr13drop_in_place17h1618ebc4b133e534E
LBB11_41:
	mov	rdi, r14
	call	__Unwind_Resume
	ud2
Lfunc_end11:
	.cfi_endproc
	.section	__TEXT,__gcc_except_tab
	.p2align	2
GCC_except_table11:
Lexception11:
	.byte	255
	.byte	155
	.uleb128 Lttbase11-Lttbaseref11
Lttbaseref11:
	.byte	1
	.uleb128 Lcst_end11-Lcst_begin11
Lcst_begin11:
	.uleb128 Ltmp473-Lfunc_begin11
	.uleb128 Ltmp478-Ltmp473
	.uleb128 Ltmp515-Lfunc_begin11
	.byte	0
	.uleb128 Ltmp479-Lfunc_begin11
	.uleb128 Ltmp480-Ltmp479
	.uleb128 Ltmp481-Lfunc_begin11
	.byte	3
	.uleb128 Ltmp489-Lfunc_begin11
	.uleb128 Ltmp488-Ltmp489
	.uleb128 Ltmp491-Lfunc_begin11
	.byte	0
	.uleb128 Ltmp492-Lfunc_begin11
	.uleb128 Ltmp493-Ltmp492
	.uleb128 Ltmp501-Lfunc_begin11
	.byte	0
	.uleb128 Ltmp494-Lfunc_begin11
	.uleb128 Ltmp495-Ltmp494
	.uleb128 Ltmp496-Lfunc_begin11
	.byte	0
	.uleb128 Ltmp505-Lfunc_begin11
	.uleb128 Ltmp506-Ltmp505
	.uleb128 Ltmp507-Lfunc_begin11
	.byte	0
	.uleb128 Ltmp508-Lfunc_begin11
	.uleb128 Ltmp509-Ltmp508
	.uleb128 Ltmp512-Lfunc_begin11
	.byte	0
	.uleb128 Ltmp513-Lfunc_begin11
	.uleb128 Ltmp514-Ltmp513
	.uleb128 Ltmp515-Lfunc_begin11
	.byte	0
	.uleb128 Ltmp510-Lfunc_begin11
	.uleb128 Ltmp511-Ltmp510
	.uleb128 Ltmp512-Lfunc_begin11
	.byte	0
	.uleb128 Ltmp475-Lfunc_begin11
	.uleb128 Ltmp476-Ltmp475
	.uleb128 Ltmp515-Lfunc_begin11
	.byte	0
	.uleb128 Ltmp499-Lfunc_begin11
	.uleb128 Ltmp498-Ltmp499
	.uleb128 Ltmp501-Lfunc_begin11
	.byte	0
	.uleb128 Ltmp498-Lfunc_begin11
	.uleb128 Ltmp502-Ltmp498
	.byte	0
	.byte	0
	.uleb128 Ltmp502-Lfunc_begin11
	.uleb128 Ltmp503-Ltmp502
	.uleb128 Ltmp504-Lfunc_begin11
	.byte	0
	.uleb128 Ltmp503-Lfunc_begin11
	.uleb128 Ltmp482-Ltmp503
	.byte	0
	.byte	0
	.uleb128 Ltmp482-Lfunc_begin11
	.uleb128 Ltmp483-Ltmp482
	.uleb128 Ltmp515-Lfunc_begin11
	.byte	0
	.uleb128 Ltmp484-Lfunc_begin11
	.uleb128 Ltmp485-Ltmp484
	.uleb128 Ltmp486-Lfunc_begin11
	.byte	0
	.uleb128 Ltmp485-Lfunc_begin11
	.uleb128 Lfunc_end11-Ltmp485
	.byte	0
	.byte	0
Lcst_end11:
	.byte	0
	.byte	0
	.byte	1
	.byte	125
	.p2align	2
	.long	0
Lttbase11:
	.p2align	2

	.section	__TEXT,__text,regular,pure_instructions
	.p2align	4, 0x90
__ZN10rayon_core4join12join_context28_$u7b$$u7b$closure$u7d$$u7d$17h1e17fe42b0bede32E:
Lfunc_begin12:
	.cfi_startproc
	.cfi_personality 155, _rust_eh_personality
	.cfi_lsda 16, Lexception12
	push	rbp
	.cfi_def_cfa_offset 16
	.cfi_offset rbp, -16
	mov	rbp, rsp
	.cfi_def_cfa_register rbp
	push	r15
	push	r14
	push	r13
	push	r12
	push	rbx
	and	rsp, -64
	sub	rsp, 1024
	.cfi_offset rbx, -56
	.cfi_offset r12, -48
	.cfi_offset r13, -40
	.cfi_offset r14, -32
	.cfi_offset r15, -24
	mov	r8d, ecx
	mov	rbx, rdx
	mov	r12, rsi
	mov	qword ptr [rsp + 264], rdi
	mov	byte ptr [rsp + 928], 0
	lea	rdi, [rsp + 832]
	mov	ecx, 12
	rep movsq es:[rdi], [rsi]
	mov	qword ptr [rsp + 704], 0
	mov	rax, qword ptr [rdx + 256]
	mov	r14, qword ptr [rax + 264]
	mov	rax, qword ptr [rax + 256]
	mov	rsi, qword ptr [rdx + 272]
	mov	rcx, r14
	sub	rcx, rax
	cmp	rcx, rsi
	mov	dword ptr [rsp + 240], r8d
	jl	LBB12_4
	add	rsi, rsi
	jb	LBB12_7
	lea	rdi, [rbx + 256]
Ltmp516:
	call	__ZN15crossbeam_deque15Worker$LT$T$GT$6resize17h5c22be2b4226dcffE
Ltmp517:
	mov	rsi, qword ptr [rbx + 272]
LBB12_4:
	sub	rsi, 1
	jb	LBB12_5
	mov	rax, qword ptr [rbx + 264]
	and	rsi, r14
	shl	rsi, 4
	lea	r13, [rsp + 704]
	mov	qword ptr [rax + rsi], r13
	lea	r15, [rip + __ZN83_$LT$rayon_core..job..StackJob$LT$L$C$F$C$R$GT$$u20$as$u20$rayon_core..job..Job$GT$7execute17h2718fe7dcb85b4f8E]
	mov	qword ptr [rax + rsi + 8], r15
	##MEMBARRIER
	mov	rax, qword ptr [rbx + 256]
	inc	r14
	mov	qword ptr [rax + 264], r14
	mov	edi, 408
	add	rdi, qword ptr [rbx + 304]
	mov	rsi, qword ptr [rbx + 288]
Ltmp520:
	call	__ZN10rayon_core5sleep5Sleep6tickle17h00d06f732555dc32E
Ltmp521:
	movdqu	xmm0, xmmword ptr [r12 + 96]
	movups	xmm1, xmmword ptr [r12 + 112]
	movups	xmm2, xmmword ptr [r12 + 128]
	movups	xmm3, xmmword ptr [r12 + 144]
	mov	r9, qword ptr [r12 + 176]
	movq	rcx, xmm0
	pshufd	xmm0, xmm0, 78
	movq	rdx, xmm0
	mov	rdi, qword ptr [r12 + 160]
	mov	rax, qword ptr [r12 + 168]
	mov	qword ptr [rsp + 184], rax
	mov	qword ptr [rsp + 176], rdi
	mov	rsi, qword ptr [rcx]
	mov	rcx, qword ptr [rdx]
	mov	r8, qword ptr [rdx + 8]
	movups	xmmword ptr [rsp + 416], xmm3
	movups	xmmword ptr [rsp + 400], xmm2
	movups	xmmword ptr [rsp + 384], xmm1
	mov	qword ptr [rsp + 432], rdi
	mov	qword ptr [rsp + 440], rax
Ltmp522:
	mov	qword ptr [rsp], r9
	movzx	r12d, byte ptr [rsp + 240]
	lea	rdi, [rsp + 64]
	lea	r9, [rsp + 384]
	mov	edx, r12d
	call	__ZN5rayon4iter8plumbing24bridge_producer_consumer6helper17h06d30cb2be842de1E
Ltmp523:
	movaps	xmm0, xmmword ptr [rsp + 64]
	movaps	xmmword ptr [rsp + 240], xmm0
	movaps	xmm0, xmmword ptr [rsp + 80]
	movaps	xmmword ptr [rsp + 368], xmm0
	movaps	xmm0, xmmword ptr [rsp + 96]
	movaps	xmmword ptr [rsp + 352], xmm0
	movdqa	xmm0, xmmword ptr [rsp + 112]
	movdqa	xmmword ptr [rsp + 336], xmm0
	lea	r14, [rsp + 928]
	mov	al, byte ptr [rsp + 928]
	test	al, al
	je	LBB12_12
	jmp	LBB12_16
	.p2align	4, 0x90
LBB12_23:
Ltmp532:
	mov	rdi, rbx
	mov	rsi, rax
	call	__ZN10rayon_core8registry12WorkerThread7execute17h2d3f3a8dd2af2716E
Ltmp533:
	movzx	eax, byte ptr [rsp + 928]
	test	al, al
	jne	LBB12_16
LBB12_12:
Ltmp530:
	mov	rdi, rbx
	call	__ZN10rayon_core8registry12WorkerThread14take_local_job17h123bfb54be8597fdE
Ltmp531:
	test	rdx, rdx
	je	LBB12_14
	cmp	rax, r13
	jne	LBB12_23
	cmp	rdx, r15
	jne	LBB12_23
	lea	rdi, [rsp + 384]
	lea	rsi, [rsp + 704]
	mov	edx, 256
	call	_memcpy
	mov	r11, qword ptr [rsp + 512]
	mov	r8, qword ptr [rsp + 520]
	mov	r10, qword ptr [rsp + 528]
	mov	rdx, qword ptr [rsp + 536]
	mov	qword ptr [rsp + 64], rdx
	mov	rdx, qword ptr [rsp + 544]
	mov	qword ptr [rsp + 72], rdx
	mov	rdx, qword ptr [rsp + 552]
	mov	qword ptr [rsp + 80], rdx
	mov	rdx, qword ptr [rsp + 560]
	mov	qword ptr [rsp + 88], rdx
	mov	rdx, qword ptr [rsp + 568]
	mov	qword ptr [rsp + 96], rdx
	mov	rdx, qword ptr [rsp + 576]
	mov	qword ptr [rsp + 104], rdx
	mov	rdx, qword ptr [rsp + 584]
	mov	qword ptr [rsp + 112], rdx
	mov	rdx, qword ptr [rsp + 592]
	mov	qword ptr [rsp + 120], rdx
	test	r11, r11
	je	LBB12_25
	mov	r9, qword ptr [rsp + 600]
	mov	rdi, qword ptr [rsp + 120]
	mov	qword ptr [rsp + 328], rdi
	mov	r14, qword ptr [rsp + 112]
	mov	qword ptr [rsp + 320], r14
	mov	rbx, qword ptr [rsp + 104]
	mov	qword ptr [rsp + 312], rbx
	mov	rdx, qword ptr [rsp + 96]
	mov	qword ptr [rsp + 304], rdx
	mov	rcx, qword ptr [rsp + 88]
	mov	qword ptr [rsp + 296], rcx
	mov	rax, qword ptr [rsp + 80]
	mov	qword ptr [rsp + 288], rax
	mov	rsi, qword ptr [rsp + 64]
	mov	rdi, qword ptr [rsp + 72]
	mov	qword ptr [rsp + 280], rdi
	mov	qword ptr [rsp + 272], rsi
	mov	qword ptr [rsp + 224], r14
	mov	qword ptr [rsp + 216], rbx
	mov	qword ptr [rsp + 208], rdx
	mov	qword ptr [rsp + 200], rcx
	mov	qword ptr [rsp + 192], rax
	mov	qword ptr [rsp + 184], rdi
	mov	qword ptr [rsp + 176], rsi
	mov	rax, qword ptr [rsp + 328]
	mov	qword ptr [rsp + 232], rax
	mov	rsi, qword ptr [r11]
	sub	rsi, qword ptr [r8]
	jb	LBB12_27
	mov	rcx, qword ptr [r10]
	mov	r8, qword ptr [r10 + 8]
	mov	rax, qword ptr [rsp + 232]
	mov	qword ptr [rsp + 120], rax
	mov	rax, qword ptr [rsp + 224]
	mov	qword ptr [rsp + 112], rax
	mov	rax, qword ptr [rsp + 216]
	mov	qword ptr [rsp + 104], rax
	mov	rax, qword ptr [rsp + 208]
	mov	qword ptr [rsp + 96], rax
	mov	rax, qword ptr [rsp + 200]
	mov	qword ptr [rsp + 88], rax
	mov	rax, qword ptr [rsp + 192]
	mov	qword ptr [rsp + 80], rax
	mov	rax, qword ptr [rsp + 176]
	mov	rdx, qword ptr [rsp + 184]
	mov	qword ptr [rsp + 72], rdx
	mov	qword ptr [rsp + 64], rax
Ltmp535:
	mov	qword ptr [rsp], r9
	lea	rdi, [rsp + 640]
	lea	r9, [rsp + 64]
	mov	edx, r12d
	call	__ZN5rayon4iter8plumbing24bridge_producer_consumer6helper17h06d30cb2be842de1E
Ltmp536:
	cmp	qword ptr [rsp + 384], 2
	jb	LBB12_33
	mov	r15, qword ptr [rsp + 392]
	mov	rbx, qword ptr [rsp + 400]
Ltmp537:
	mov	rdi, r15
	call	qword ptr [rbx]
Ltmp538:
	mov	rsi, qword ptr [rbx + 8]
	test	rsi, rsi
	je	LBB12_33
	mov	rdx, qword ptr [rbx + 16]
	mov	rdi, r15
	call	___rust_dealloc
LBB12_33:
	movaps	xmm0, xmmword ptr [rsp + 640]
	movaps	xmm1, xmmword ptr [rsp + 656]
	movaps	xmm2, xmmword ptr [rsp + 672]
	movaps	xmm3, xmmword ptr [rsp + 688]
	jmp	LBB12_37
LBB12_14:
	mov	al, byte ptr [rsp + 928]
	test	al, al
	jne	LBB12_16
Ltmp548:
	mov	rdi, rbx
	mov	rsi, r14
	call	__ZN10rayon_core8registry12WorkerThread15wait_until_cold17h4ea94d81ba0d12faE
Ltmp549:
LBB12_16:
	mov	rax, qword ptr [rsp + 704]
	cmp	rax, 1
	jne	LBB12_17
	movaps	xmm0, xmmword ptr [rsp + 768]
	movaps	xmm1, xmmword ptr [rsp + 784]
	movaps	xmm2, xmmword ptr [rsp + 800]
	movaps	xmm3, xmmword ptr [rsp + 816]
LBB12_37:
	mov	rax, qword ptr [rsp + 264]
	movaps	xmm4, xmmword ptr [rsp + 240]
	movaps	xmmword ptr [rax], xmm4
	movaps	xmm4, xmmword ptr [rsp + 368]
	movaps	xmmword ptr [rax + 16], xmm4
	movaps	xmm4, xmmword ptr [rsp + 352]
	movaps	xmmword ptr [rax + 32], xmm4
	movaps	xmm4, xmmword ptr [rsp + 336]
	movaps	xmmword ptr [rax + 48], xmm4
	movaps	xmmword ptr [rax + 64], xmm0
	movaps	xmmword ptr [rax + 80], xmm1
	movaps	xmmword ptr [rax + 96], xmm2
	movaps	xmmword ptr [rax + 112], xmm3
	lea	rsp, [rbp - 40]
	pop	rbx
	pop	r12
	pop	r13
	pop	r14
	pop	r15
	pop	rbp
	ret
LBB12_17:
	test	rax, rax
	je	LBB12_35
	mov	rdi, qword ptr [rsp + 712]
	mov	rsi, qword ptr [rsp + 720]
Ltmp551:
	call	__ZN10rayon_core6unwind16resume_unwinding17h47c2e39f90248736E
Ltmp552:
	jmp	LBB12_6
LBB12_5:
Ltmp556:
	lea	rdi, [rip + _str.1]
	lea	rdx, [rip + l___unnamed_1]
	mov	esi, 33
	call	__ZN4core9panicking5panic17h736ee47a631475c0E
Ltmp557:
	jmp	LBB12_6
LBB12_35:
Ltmp553:
	lea	rdi, [rip + l___unnamed_2]
	lea	rdx, [rip + l___unnamed_3]
	mov	esi, 40
	call	__ZN3std9panicking11begin_panic17h75aebe10c874e798E
Ltmp554:
	jmp	LBB12_6
LBB12_7:
Ltmp518:
	lea	rdi, [rip + _str.3]
	lea	rdx, [rip + l___unnamed_4]
	mov	esi, 33
	call	__ZN4core9panicking5panic17h736ee47a631475c0E
Ltmp519:
	jmp	LBB12_6
LBB12_25:
Ltmp542:
	lea	rdi, [rip + l___unnamed_5]
	lea	rdx, [rip + l___unnamed_6]
	mov	esi, 43
	call	__ZN4core9panicking5panic17h736ee47a631475c0E
Ltmp543:
	jmp	LBB12_6
LBB12_27:
Ltmp540:
	lea	rdi, [rip + _str.1]
	lea	rdx, [rip + l___unnamed_7]
	mov	esi, 33
	call	__ZN4core9panicking5panic17h736ee47a631475c0E
Ltmp541:
	jmp	LBB12_6
LBB12_47:
Ltmp555:
	jmp	LBB12_42
LBB12_40:
Ltmp550:
	jmp	LBB12_46
LBB12_38:
Ltmp539:
	mov	r14, rax
	mov	rdi, r15
	mov	rsi, rbx
	call	__ZN5alloc5alloc8box_free17hfd27018577a513c9E
	mov	rdi, r14
	call	__Unwind_Resume
	ud2
LBB12_34:
Ltmp544:
	mov	r14, rax
Ltmp545:
	lea	rdi, [rsp + 384]
	call	__ZN4core3ptr13drop_in_place17h01471ebcf0653146E
Ltmp546:
	jmp	LBB12_43
LBB12_41:
Ltmp547:
LBB12_42:
	mov	r14, rax
	mov	rdi, r14
	call	__Unwind_Resume
	ud2
LBB12_19:
Ltmp524:
Ltmp525:
	mov	rdi, rax
	call	__ZN3std9panicking3try7cleanup17hd895f7beef0a7dadE
Ltmp526:
	mov	rcx, rdx
	lea	rsi, [rsp + 928]
Ltmp527:
	mov	rdi, rbx
	mov	rdx, rax
	call	__ZN10rayon_core4join23join_recover_from_panic17h65e0dcb6d5862f08E
Ltmp528:
LBB12_6:
	ud2
LBB12_45:
Ltmp529:
	jmp	LBB12_46
LBB12_44:
Ltmp558:
	jmp	LBB12_46
LBB12_39:
Ltmp534:
LBB12_46:
	mov	r14, rax
	lea	rdi, [rsp + 704]
	call	__ZN4core3ptr13drop_in_place17h01471ebcf0653146E
LBB12_43:
	mov	rdi, r14
	call	__Unwind_Resume
	ud2
Lfunc_end12:
	.cfi_endproc
	.section	__TEXT,__gcc_except_tab
	.p2align	2
GCC_except_table12:
Lexception12:
	.byte	255
	.byte	155
	.uleb128 Lttbase12-Lttbaseref12
Lttbaseref12:
	.byte	1
	.uleb128 Lcst_end12-Lcst_begin12
Lcst_begin12:
	.uleb128 Ltmp516-Lfunc_begin12
	.uleb128 Ltmp521-Ltmp516
	.uleb128 Ltmp558-Lfunc_begin12
	.byte	0
	.uleb128 Ltmp522-Lfunc_begin12
	.uleb128 Ltmp523-Ltmp522
	.uleb128 Ltmp524-Lfunc_begin12
	.byte	3
	.uleb128 Ltmp532-Lfunc_begin12
	.uleb128 Ltmp531-Ltmp532
	.uleb128 Ltmp534-Lfunc_begin12
	.byte	0
	.uleb128 Ltmp531-Lfunc_begin12
	.uleb128 Ltmp535-Ltmp531
	.byte	0
	.byte	0
	.uleb128 Ltmp535-Lfunc_begin12
	.uleb128 Ltmp536-Ltmp535
	.uleb128 Ltmp544-Lfunc_begin12
	.byte	0
	.uleb128 Ltmp537-Lfunc_begin12
	.uleb128 Ltmp538-Ltmp537
	.uleb128 Ltmp539-Lfunc_begin12
	.byte	0
	.uleb128 Ltmp548-Lfunc_begin12
	.uleb128 Ltmp549-Ltmp548
	.uleb128 Ltmp550-Lfunc_begin12
	.byte	0
	.uleb128 Ltmp551-Lfunc_begin12
	.uleb128 Ltmp552-Ltmp551
	.uleb128 Ltmp555-Lfunc_begin12
	.byte	0
	.uleb128 Ltmp556-Lfunc_begin12
	.uleb128 Ltmp557-Ltmp556
	.uleb128 Ltmp558-Lfunc_begin12
	.byte	0
	.uleb128 Ltmp553-Lfunc_begin12
	.uleb128 Ltmp554-Ltmp553
	.uleb128 Ltmp555-Lfunc_begin12
	.byte	0
	.uleb128 Ltmp518-Lfunc_begin12
	.uleb128 Ltmp519-Ltmp518
	.uleb128 Ltmp558-Lfunc_begin12
	.byte	0
	.uleb128 Ltmp542-Lfunc_begin12
	.uleb128 Ltmp541-Ltmp542
	.uleb128 Ltmp544-Lfunc_begin12
	.byte	0
	.uleb128 Ltmp541-Lfunc_begin12
	.uleb128 Ltmp545-Ltmp541
	.byte	0
	.byte	0
	.uleb128 Ltmp545-Lfunc_begin12
	.uleb128 Ltmp546-Ltmp545
	.uleb128 Ltmp547-Lfunc_begin12
	.byte	0
	.uleb128 Ltmp546-Lfunc_begin12
	.uleb128 Ltmp525-Ltmp546
	.byte	0
	.byte	0
	.uleb128 Ltmp525-Lfunc_begin12
	.uleb128 Ltmp526-Ltmp525
	.uleb128 Ltmp558-Lfunc_begin12
	.byte	0
	.uleb128 Ltmp527-Lfunc_begin12
	.uleb128 Ltmp528-Ltmp527
	.uleb128 Ltmp529-Lfunc_begin12
	.byte	0
	.uleb128 Ltmp528-Lfunc_begin12
	.uleb128 Lfunc_end12-Ltmp528
	.byte	0
	.byte	0
Lcst_end12:
	.byte	0
	.byte	0
	.byte	1
	.byte	125
	.p2align	2
	.long	0
Lttbase12:
	.p2align	2

	.section	__TEXT,__text,regular,pure_instructions
	.p2align	4, 0x90
__ZN10rayon_core4join12join_context28_$u7b$$u7b$closure$u7d$$u7d$17h1ea0c4a3fac65271E:
Lfunc_begin13:
	.cfi_startproc
	.cfi_personality 155, _rust_eh_personality
	.cfi_lsda 16, Lexception13
	push	rbp
	.cfi_def_cfa_offset 16
	.cfi_offset rbp, -16
	mov	rbp, rsp
	.cfi_def_cfa_register rbp
	push	r15
	push	r14
	push	r13
	push	r12
	push	rbx
	sub	rsp, 280
	.cfi_offset rbx, -56
	.cfi_offset r12, -48
	.cfi_offset r13, -40
	.cfi_offset r14, -32
	.cfi_offset r15, -24
	mov	rbx, rdx
	mov	r12, rsi
	mov	rax, qword ptr [rsi + 48]
	mov	qword ptr [rbp - 152], rax
	mov	rax, qword ptr [rsi + 40]
	mov	qword ptr [rbp - 160], rax
	mov	rax, qword ptr [rsi + 32]
	mov	qword ptr [rbp - 168], rax
	mov	rax, qword ptr [rsi + 24]
	mov	qword ptr [rbp - 176], rax
	mov	rax, qword ptr [rsi + 16]
	mov	qword ptr [rbp - 184], rax
	mov	rax, qword ptr [rsi]
	mov	rdx, qword ptr [rsi + 8]
	mov	qword ptr [rbp - 192], rdx
	mov	qword ptr [rbp - 200], rax
	mov	byte ptr [rbp - 120], 0
	mov	qword ptr [rbp - 144], 0
	mov	rax, qword ptr [rbx + 256]
	mov	r15, qword ptr [rax + 264]
	mov	rax, qword ptr [rax + 256]
	mov	rsi, qword ptr [rbx + 272]
	mov	rdx, r15
	sub	rdx, rax
	cmp	rdx, rsi
	mov	qword ptr [rbp - 80], rdi
	mov	dword ptr [rbp - 68], ecx
	jl	LBB13_4
	add	rsi, rsi
	jb	LBB13_7
	lea	rdi, [rbx + 256]
Ltmp559:
	call	__ZN15crossbeam_deque15Worker$LT$T$GT$6resize17h5c22be2b4226dcffE
Ltmp560:
	mov	rsi, qword ptr [rbx + 272]
LBB13_4:
	sub	rsi, 1
	jb	LBB13_5
	mov	rax, qword ptr [rbx + 264]
	and	rsi, r15
	shl	rsi, 4
	lea	r14, [rbp - 200]
	mov	qword ptr [rax + rsi], r14
	lea	r13, [rip + __ZN83_$LT$rayon_core..job..StackJob$LT$L$C$F$C$R$GT$$u20$as$u20$rayon_core..job..Job$GT$7execute17ha4e500fc78167005E]
	mov	qword ptr [rax + rsi + 8], r13
	##MEMBARRIER
	mov	rax, qword ptr [rbx + 256]
	inc	r15
	mov	qword ptr [rax + 264], r15
	mov	edi, 408
	add	rdi, qword ptr [rbx + 304]
	mov	rsi, qword ptr [rbx + 288]
Ltmp563:
	call	__ZN10rayon_core5sleep5Sleep6tickle17h00d06f732555dc32E
Ltmp564:
	mov	rax, qword ptr [r12 + 56]
	mov	rdx, qword ptr [r12 + 64]
	mov	rdi, qword ptr [r12 + 96]
	mov	rsi, qword ptr [rax]
	mov	rcx, qword ptr [rdx]
	mov	r8, qword ptr [rdx + 8]
	mov	rax, qword ptr [r12 + 88]
	mov	qword ptr [rbp - 272], rax
	mov	rax, qword ptr [r12 + 72]
	mov	rdx, qword ptr [r12 + 80]
	mov	qword ptr [rbp - 280], rdx
	mov	qword ptr [rbp - 288], rax
Ltmp565:
	mov	qword ptr [rsp], rdi
	movzx	r15d, byte ptr [rbp - 68]
	lea	rdi, [rbp - 64]
	lea	r9, [rbp - 288]
	mov	edx, r15d
	call	__ZN5rayon4iter8plumbing24bridge_producer_consumer6helper17h8d9469013f93844bE
Ltmp566:
	mov	r12, qword ptr [rbp - 64]
	mov	al, byte ptr [rbp - 120]
	test	al, al
	je	LBB13_12
	jmp	LBB13_16
	.p2align	4, 0x90
LBB13_23:
Ltmp575:
	mov	rdi, rbx
	mov	rsi, rax
	call	__ZN10rayon_core8registry12WorkerThread7execute17h2d3f3a8dd2af2716E
Ltmp576:
	movzx	eax, byte ptr [rbp - 120]
	test	al, al
	jne	LBB13_16
LBB13_12:
Ltmp573:
	mov	rdi, rbx
	call	__ZN10rayon_core8registry12WorkerThread14take_local_job17h123bfb54be8597fdE
Ltmp574:
	test	rdx, rdx
	je	LBB13_14
	cmp	rax, r14
	jne	LBB13_23
	cmp	rdx, r13
	jne	LBB13_23
	lea	rdi, [rbp - 288]
	lea	rsi, [rbp - 200]
	mov	ecx, 11
	rep movsq es:[rdi], [rsi]
	mov	rsi, qword ptr [rbp - 288]
	mov	rcx, qword ptr [rbp - 280]
	mov	rax, qword ptr [rbp - 272]
	mov	rdx, qword ptr [rbp - 264]
	mov	qword ptr [rbp - 64], rdx
	mov	rdx, qword ptr [rbp - 256]
	mov	qword ptr [rbp - 56], rdx
	mov	rdx, qword ptr [rbp - 248]
	mov	qword ptr [rbp - 48], rdx
	test	rsi, rsi
	je	LBB13_25
	mov	r9, qword ptr [rbp - 240]
	mov	rdi, qword ptr [rbp - 48]
	mov	qword ptr [rbp - 296], rdi
	mov	rbx, qword ptr [rbp - 64]
	mov	rdx, qword ptr [rbp - 56]
	mov	qword ptr [rbp - 304], rdx
	mov	qword ptr [rbp - 312], rbx
	mov	qword ptr [rbp - 96], rdi
	mov	qword ptr [rbp - 104], rdx
	mov	qword ptr [rbp - 112], rbx
	mov	rsi, qword ptr [rsi]
	sub	rsi, qword ptr [rcx]
	jb	LBB13_34
	mov	rcx, qword ptr [rax]
	mov	r8, qword ptr [rax + 8]
	mov	rax, qword ptr [rbp - 96]
	mov	qword ptr [rbp - 48], rax
	mov	rax, qword ptr [rbp - 112]
	mov	rdx, qword ptr [rbp - 104]
	mov	qword ptr [rbp - 56], rdx
	mov	qword ptr [rbp - 64], rax
Ltmp578:
	mov	qword ptr [rsp], r9
	lea	rdi, [rbp - 88]
	lea	r9, [rbp - 64]
	mov	edx, r15d
	call	__ZN5rayon4iter8plumbing24bridge_producer_consumer6helper17h8d9469013f93844bE
Ltmp579:
	cmp	qword ptr [rbp - 232], 2
	jb	LBB13_32
	mov	r15, qword ptr [rbp - 224]
	mov	rbx, qword ptr [rbp - 216]
Ltmp580:
	mov	rdi, r15
	call	qword ptr [rbx]
Ltmp581:
	mov	rsi, qword ptr [rbx + 8]
	test	rsi, rsi
	je	LBB13_32
	mov	rdx, qword ptr [rbx + 16]
	mov	rdi, r15
	call	___rust_dealloc
LBB13_32:
	mov	rdi, qword ptr [rbp - 88]
	jmp	LBB13_33
LBB13_14:
	mov	al, byte ptr [rbp - 120]
	test	al, al
	jne	LBB13_16
Ltmp591:
	mov	rdi, rbx
	lea	rsi, [rbp - 120]
	call	__ZN10rayon_core8registry12WorkerThread15wait_until_cold17h4ea94d81ba0d12faE
Ltmp592:
LBB13_16:
	mov	rax, qword ptr [rbp - 144]
	mov	rdi, qword ptr [rbp - 136]
	cmp	rax, 1
	jne	LBB13_17
LBB13_33:
	mov	rax, qword ptr [rbp - 80]
	mov	qword ptr [rax], r12
	mov	qword ptr [rax + 8], rdi
	add	rsp, 280
	pop	rbx
	pop	r12
	pop	r13
	pop	r14
	pop	r15
	pop	rbp
	ret
LBB13_17:
	test	rax, rax
	je	LBB13_36
	mov	rsi, qword ptr [rbp - 128]
Ltmp594:
	call	__ZN10rayon_core6unwind16resume_unwinding17h47c2e39f90248736E
Ltmp595:
	jmp	LBB13_6
LBB13_5:
Ltmp599:
	lea	rdi, [rip + _str.1]
	lea	rdx, [rip + l___unnamed_1]
	mov	esi, 33
	call	__ZN4core9panicking5panic17h736ee47a631475c0E
Ltmp600:
	jmp	LBB13_6
LBB13_36:
Ltmp596:
	lea	rdi, [rip + l___unnamed_2]
	lea	rdx, [rip + l___unnamed_3]
	mov	esi, 40
	call	__ZN3std9panicking11begin_panic17h75aebe10c874e798E
Ltmp597:
	jmp	LBB13_6
LBB13_7:
Ltmp561:
	lea	rdi, [rip + _str.3]
	lea	rdx, [rip + l___unnamed_4]
	mov	esi, 33
	call	__ZN4core9panicking5panic17h736ee47a631475c0E
Ltmp562:
	jmp	LBB13_6
LBB13_25:
Ltmp585:
	lea	rdi, [rip + l___unnamed_5]
	lea	rdx, [rip + l___unnamed_6]
	mov	esi, 43
	call	__ZN4core9panicking5panic17h736ee47a631475c0E
Ltmp586:
	jmp	LBB13_6
LBB13_34:
Ltmp583:
	lea	rdi, [rip + _str.1]
	lea	rdx, [rip + l___unnamed_7]
	mov	esi, 33
	call	__ZN4core9panicking5panic17h736ee47a631475c0E
Ltmp584:
	jmp	LBB13_6
LBB13_46:
Ltmp598:
	jmp	LBB13_41
LBB13_39:
Ltmp593:
	jmp	LBB13_45
LBB13_37:
Ltmp582:
	mov	r14, rax
	mov	rdi, r15
	mov	rsi, rbx
	call	__ZN5alloc5alloc8box_free17hfd27018577a513c9E
	mov	rdi, r14
	call	__Unwind_Resume
	ud2
LBB13_35:
Ltmp587:
	mov	r14, rax
	lea	rdi, [rbp - 232]
Ltmp588:
	call	__ZN4core3ptr13drop_in_place17h386a8cdc061ec2cfE
Ltmp589:
	jmp	LBB13_42
LBB13_40:
Ltmp590:
LBB13_41:
	mov	r14, rax
	mov	rdi, r14
	call	__Unwind_Resume
	ud2
LBB13_19:
Ltmp567:
Ltmp568:
	mov	rdi, rax
	call	__ZN3std9panicking3try7cleanup17hd895f7beef0a7dadE
Ltmp569:
	mov	rcx, rdx
	lea	rsi, [rbp - 120]
Ltmp570:
	mov	rdi, rbx
	mov	rdx, rax
	call	__ZN10rayon_core4join23join_recover_from_panic17h65e0dcb6d5862f08E
Ltmp571:
LBB13_6:
	ud2
LBB13_44:
Ltmp572:
	jmp	LBB13_45
LBB13_43:
Ltmp601:
	jmp	LBB13_45
LBB13_38:
Ltmp577:
LBB13_45:
	mov	r14, rax
	lea	rdi, [rbp - 200]
	call	__ZN4core3ptr13drop_in_place17h0eaae2101da5e23aE
LBB13_42:
	mov	rdi, r14
	call	__Unwind_Resume
	ud2
Lfunc_end13:
	.cfi_endproc
	.section	__TEXT,__gcc_except_tab
	.p2align	2
GCC_except_table13:
Lexception13:
	.byte	255
	.byte	155
	.uleb128 Lttbase13-Lttbaseref13
Lttbaseref13:
	.byte	1
	.uleb128 Lcst_end13-Lcst_begin13
Lcst_begin13:
	.uleb128 Ltmp559-Lfunc_begin13
	.uleb128 Ltmp564-Ltmp559
	.uleb128 Ltmp601-Lfunc_begin13
	.byte	0
	.uleb128 Ltmp565-Lfunc_begin13
	.uleb128 Ltmp566-Ltmp565
	.uleb128 Ltmp567-Lfunc_begin13
	.byte	3
	.uleb128 Ltmp575-Lfunc_begin13
	.uleb128 Ltmp574-Ltmp575
	.uleb128 Ltmp577-Lfunc_begin13
	.byte	0
	.uleb128 Ltmp578-Lfunc_begin13
	.uleb128 Ltmp579-Ltmp578
	.uleb128 Ltmp587-Lfunc_begin13
	.byte	0
	.uleb128 Ltmp580-Lfunc_begin13
	.uleb128 Ltmp581-Ltmp580
	.uleb128 Ltmp582-Lfunc_begin13
	.byte	0
	.uleb128 Ltmp591-Lfunc_begin13
	.uleb128 Ltmp592-Ltmp591
	.uleb128 Ltmp593-Lfunc_begin13
	.byte	0
	.uleb128 Ltmp594-Lfunc_begin13
	.uleb128 Ltmp595-Ltmp594
	.uleb128 Ltmp598-Lfunc_begin13
	.byte	0
	.uleb128 Ltmp599-Lfunc_begin13
	.uleb128 Ltmp600-Ltmp599
	.uleb128 Ltmp601-Lfunc_begin13
	.byte	0
	.uleb128 Ltmp596-Lfunc_begin13
	.uleb128 Ltmp597-Ltmp596
	.uleb128 Ltmp598-Lfunc_begin13
	.byte	0
	.uleb128 Ltmp561-Lfunc_begin13
	.uleb128 Ltmp562-Ltmp561
	.uleb128 Ltmp601-Lfunc_begin13
	.byte	0
	.uleb128 Ltmp585-Lfunc_begin13
	.uleb128 Ltmp584-Ltmp585
	.uleb128 Ltmp587-Lfunc_begin13
	.byte	0
	.uleb128 Ltmp584-Lfunc_begin13
	.uleb128 Ltmp588-Ltmp584
	.byte	0
	.byte	0
	.uleb128 Ltmp588-Lfunc_begin13
	.uleb128 Ltmp589-Ltmp588
	.uleb128 Ltmp590-Lfunc_begin13
	.byte	0
	.uleb128 Ltmp589-Lfunc_begin13
	.uleb128 Ltmp568-Ltmp589
	.byte	0
	.byte	0
	.uleb128 Ltmp568-Lfunc_begin13
	.uleb128 Ltmp569-Ltmp568
	.uleb128 Ltmp601-Lfunc_begin13
	.byte	0
	.uleb128 Ltmp570-Lfunc_begin13
	.uleb128 Ltmp571-Ltmp570
	.uleb128 Ltmp572-Lfunc_begin13
	.byte	0
	.uleb128 Ltmp571-Lfunc_begin13
	.uleb128 Lfunc_end13-Ltmp571
	.byte	0
	.byte	0
Lcst_end13:
	.byte	0
	.byte	0
	.byte	1
	.byte	125
	.p2align	2
	.long	0
Lttbase13:
	.p2align	2

	.section	__TEXT,__text,regular,pure_instructions
	.p2align	4, 0x90
__ZN10rayon_core4join12join_context28_$u7b$$u7b$closure$u7d$$u7d$17h228d9f05627c33e8E:
Lfunc_begin14:
	.cfi_startproc
	.cfi_personality 155, _rust_eh_personality
	.cfi_lsda 16, Lexception14
	push	rbp
	.cfi_def_cfa_offset 16
	.cfi_offset rbp, -16
	mov	rbp, rsp
	.cfi_def_cfa_register rbp
	push	r15
	push	r14
	push	r13
	push	r12
	push	rbx
	sub	rsp, 488
	.cfi_offset rbx, -56
	.cfi_offset r12, -48
	.cfi_offset r13, -40
	.cfi_offset r14, -32
	.cfi_offset r15, -24
	mov	r8d, ecx
	mov	rbx, rdx
	mov	r13, rsi
	mov	qword ptr [rbp - 120], rdi
	lea	r15, [rbp - 512]
	mov	ecx, 12
	mov	rdi, r15
	rep movsq es:[rdi], [rsi]
	mov	byte ptr [rbp - 392], 0
	mov	qword ptr [rbp - 416], 0
	mov	rax, qword ptr [rdx + 256]
	mov	r12, qword ptr [rax + 264]
	mov	rax, qword ptr [rax + 256]
	mov	rsi, qword ptr [rdx + 272]
	mov	rcx, r12
	sub	rcx, rax
	cmp	rcx, rsi
	mov	dword ptr [rbp - 44], r8d
	jl	LBB14_4
	add	rsi, rsi
	jb	LBB14_7
	lea	rdi, [rbx + 256]
Ltmp602:
	call	__ZN15crossbeam_deque15Worker$LT$T$GT$6resize17h5c22be2b4226dcffE
Ltmp603:
	mov	rsi, qword ptr [rbx + 272]
LBB14_4:
	sub	rsi, 1
	jb	LBB14_5
	mov	rax, qword ptr [rbx + 264]
	and	rsi, r12
	shl	rsi, 4
	mov	qword ptr [rax + rsi], r15
	lea	r14, [rip + __ZN83_$LT$rayon_core..job..StackJob$LT$L$C$F$C$R$GT$$u20$as$u20$rayon_core..job..Job$GT$7execute17hb52b956f89a64ca0E]
	mov	qword ptr [rax + rsi + 8], r14
	##MEMBARRIER
	mov	rax, qword ptr [rbx + 256]
	inc	r12
	mov	qword ptr [rax + 264], r12
	mov	edi, 408
	add	rdi, qword ptr [rbx + 304]
	mov	rsi, qword ptr [rbx + 288]
Ltmp606:
	call	__ZN10rayon_core5sleep5Sleep6tickle17h00d06f732555dc32E
Ltmp607:
	mov	rax, qword ptr [r13 + 96]
	mov	rdx, qword ptr [r13 + 104]
	mov	rdi, qword ptr [r13 + 176]
	mov	rsi, qword ptr [rax]
	mov	rcx, qword ptr [rdx]
	mov	r8, qword ptr [rdx + 8]
	mov	rax, qword ptr [r13 + 168]
	mov	qword ptr [rbp - 264], rax
	mov	rax, qword ptr [r13 + 160]
	mov	qword ptr [rbp - 272], rax
	mov	rax, qword ptr [r13 + 152]
	mov	qword ptr [rbp - 280], rax
	mov	rax, qword ptr [r13 + 144]
	mov	qword ptr [rbp - 288], rax
	mov	rax, qword ptr [r13 + 136]
	mov	qword ptr [rbp - 296], rax
	mov	rax, qword ptr [r13 + 128]
	mov	qword ptr [rbp - 304], rax
	mov	rax, qword ptr [r13 + 112]
	mov	rdx, qword ptr [r13 + 120]
	mov	qword ptr [rbp - 312], rdx
	mov	qword ptr [rbp - 320], rax
Ltmp608:
	mov	qword ptr [rsp], rdi
	movzx	r12d, byte ptr [rbp - 44]
	lea	rdi, [rbp - 112]
	lea	r9, [rbp - 320]
	mov	edx, r12d
	call	__ZN5rayon4iter8plumbing24bridge_producer_consumer6helper17hdfdac3649a3d5f10E
Ltmp609:
	mov	r13, qword ptr [rbp - 112]
	mov	al, byte ptr [rbp - 392]
	test	al, al
	je	LBB14_12
	jmp	LBB14_16
	.p2align	4, 0x90
LBB14_23:
Ltmp618:
	mov	rdi, rbx
	mov	rsi, rax
	call	__ZN10rayon_core8registry12WorkerThread7execute17h2d3f3a8dd2af2716E
Ltmp619:
	movzx	eax, byte ptr [rbp - 392]
	test	al, al
	jne	LBB14_16
LBB14_12:
Ltmp616:
	mov	rdi, rbx
	call	__ZN10rayon_core8registry12WorkerThread14take_local_job17h123bfb54be8597fdE
Ltmp617:
	test	rdx, rdx
	je	LBB14_14
	cmp	rax, r15
	jne	LBB14_23
	cmp	rdx, r14
	jne	LBB14_23
	lea	rdi, [rbp - 320]
	lea	rsi, [rbp - 512]
	mov	ecx, 16
	rep movsq es:[rdi], [rsi]
	mov	r11, qword ptr [rbp - 320]
	mov	r8, qword ptr [rbp - 312]
	mov	r10, qword ptr [rbp - 304]
	mov	rdx, qword ptr [rbp - 296]
	mov	qword ptr [rbp - 112], rdx
	mov	rdx, qword ptr [rbp - 288]
	mov	qword ptr [rbp - 104], rdx
	mov	rdx, qword ptr [rbp - 280]
	mov	qword ptr [rbp - 96], rdx
	mov	rdx, qword ptr [rbp - 272]
	mov	qword ptr [rbp - 88], rdx
	mov	rdx, qword ptr [rbp - 264]
	mov	qword ptr [rbp - 80], rdx
	mov	rdx, qword ptr [rbp - 256]
	mov	qword ptr [rbp - 72], rdx
	mov	rdx, qword ptr [rbp - 248]
	mov	qword ptr [rbp - 64], rdx
	mov	rdx, qword ptr [rbp - 240]
	mov	qword ptr [rbp - 56], rdx
	test	r11, r11
	je	LBB14_25
	mov	r9, qword ptr [rbp - 232]
	mov	rdi, qword ptr [rbp - 56]
	mov	qword ptr [rbp - 328], rdi
	mov	r14, qword ptr [rbp - 64]
	mov	qword ptr [rbp - 336], r14
	mov	rbx, qword ptr [rbp - 72]
	mov	qword ptr [rbp - 344], rbx
	mov	rdx, qword ptr [rbp - 80]
	mov	qword ptr [rbp - 352], rdx
	mov	rcx, qword ptr [rbp - 88]
	mov	qword ptr [rbp - 360], rcx
	mov	rax, qword ptr [rbp - 96]
	mov	qword ptr [rbp - 368], rax
	mov	rsi, qword ptr [rbp - 112]
	mov	rdi, qword ptr [rbp - 104]
	mov	qword ptr [rbp - 376], rdi
	mov	qword ptr [rbp - 384], rsi
	mov	qword ptr [rbp - 144], r14
	mov	qword ptr [rbp - 152], rbx
	mov	qword ptr [rbp - 160], rdx
	mov	qword ptr [rbp - 168], rcx
	mov	qword ptr [rbp - 176], rax
	mov	qword ptr [rbp - 184], rdi
	mov	qword ptr [rbp - 192], rsi
	mov	rax, qword ptr [rbp - 328]
	mov	qword ptr [rbp - 136], rax
	mov	rsi, qword ptr [r11]
	sub	rsi, qword ptr [r8]
	jb	LBB14_27
	mov	rcx, qword ptr [r10]
	mov	r8, qword ptr [r10 + 8]
	mov	rax, qword ptr [rbp - 136]
	mov	qword ptr [rbp - 56], rax
	mov	rax, qword ptr [rbp - 144]
	mov	qword ptr [rbp - 64], rax
	mov	rax, qword ptr [rbp - 152]
	mov	qword ptr [rbp - 72], rax
	mov	rax, qword ptr [rbp - 160]
	mov	qword ptr [rbp - 80], rax
	mov	rax, qword ptr [rbp - 168]
	mov	qword ptr [rbp - 88], rax
	mov	rax, qword ptr [rbp - 176]
	mov	qword ptr [rbp - 96], rax
	mov	rax, qword ptr [rbp - 192]
	mov	rdx, qword ptr [rbp - 184]
	mov	qword ptr [rbp - 104], rdx
	mov	qword ptr [rbp - 112], rax
Ltmp621:
	mov	qword ptr [rsp], r9
	lea	rdi, [rbp - 128]
	lea	r9, [rbp - 112]
	mov	edx, r12d
	call	__ZN5rayon4iter8plumbing24bridge_producer_consumer6helper17hdfdac3649a3d5f10E
Ltmp622:
	cmp	qword ptr [rbp - 224], 2
	jb	LBB14_33
	mov	r15, qword ptr [rbp - 216]
	mov	rbx, qword ptr [rbp - 208]
Ltmp623:
	mov	rdi, r15
	call	qword ptr [rbx]
Ltmp624:
	mov	rsi, qword ptr [rbx + 8]
	test	rsi, rsi
	je	LBB14_33
	mov	rdx, qword ptr [rbx + 16]
	mov	rdi, r15
	call	___rust_dealloc
LBB14_33:
	mov	rdi, qword ptr [rbp - 128]
	jmp	LBB14_34
LBB14_14:
	mov	al, byte ptr [rbp - 392]
	test	al, al
	jne	LBB14_16
Ltmp634:
	mov	rdi, rbx
	lea	rsi, [rbp - 392]
	call	__ZN10rayon_core8registry12WorkerThread15wait_until_cold17h4ea94d81ba0d12faE
Ltmp635:
LBB14_16:
	mov	rax, qword ptr [rbp - 416]
	mov	rdi, qword ptr [rbp - 408]
	cmp	rax, 1
	jne	LBB14_17
LBB14_34:
	mov	rax, qword ptr [rbp - 120]
	mov	qword ptr [rax], r13
	mov	qword ptr [rax + 8], rdi
	add	rsp, 488
	pop	rbx
	pop	r12
	pop	r13
	pop	r14
	pop	r15
	pop	rbp
	ret
LBB14_17:
	test	rax, rax
	je	LBB14_36
	mov	rsi, qword ptr [rbp - 400]
Ltmp637:
	call	__ZN10rayon_core6unwind16resume_unwinding17h47c2e39f90248736E
Ltmp638:
	jmp	LBB14_6
LBB14_5:
Ltmp642:
	lea	rdi, [rip + _str.1]
	lea	rdx, [rip + l___unnamed_1]
	mov	esi, 33
	call	__ZN4core9panicking5panic17h736ee47a631475c0E
Ltmp643:
	jmp	LBB14_6
LBB14_36:
Ltmp639:
	lea	rdi, [rip + l___unnamed_2]
	lea	rdx, [rip + l___unnamed_3]
	mov	esi, 40
	call	__ZN3std9panicking11begin_panic17h75aebe10c874e798E
Ltmp640:
	jmp	LBB14_6
LBB14_7:
Ltmp604:
	lea	rdi, [rip + _str.3]
	lea	rdx, [rip + l___unnamed_4]
	mov	esi, 33
	call	__ZN4core9panicking5panic17h736ee47a631475c0E
Ltmp605:
	jmp	LBB14_6
LBB14_25:
Ltmp628:
	lea	rdi, [rip + l___unnamed_5]
	lea	rdx, [rip + l___unnamed_6]
	mov	esi, 43
	call	__ZN4core9panicking5panic17h736ee47a631475c0E
Ltmp629:
	jmp	LBB14_6
LBB14_27:
Ltmp626:
	lea	rdi, [rip + _str.1]
	lea	rdx, [rip + l___unnamed_7]
	mov	esi, 33
	call	__ZN4core9panicking5panic17h736ee47a631475c0E
Ltmp627:
	jmp	LBB14_6
LBB14_46:
Ltmp641:
	jmp	LBB14_41
LBB14_39:
Ltmp636:
	jmp	LBB14_45
LBB14_37:
Ltmp625:
	mov	r14, rax
	mov	rdi, r15
	mov	rsi, rbx
	call	__ZN5alloc5alloc8box_free17hfd27018577a513c9E
	mov	rdi, r14
	call	__Unwind_Resume
	ud2
LBB14_35:
Ltmp630:
	mov	r14, rax
	lea	rdi, [rbp - 224]
Ltmp631:
	call	__ZN4core3ptr13drop_in_place17h386a8cdc061ec2cfE
Ltmp632:
	jmp	LBB14_42
LBB14_40:
Ltmp633:
LBB14_41:
	mov	r14, rax
	mov	rdi, r14
	call	__Unwind_Resume
	ud2
LBB14_19:
Ltmp610:
Ltmp611:
	mov	rdi, rax
	call	__ZN3std9panicking3try7cleanup17hd895f7beef0a7dadE
Ltmp612:
	mov	rcx, rdx
	lea	rsi, [rbp - 392]
Ltmp613:
	mov	rdi, rbx
	mov	rdx, rax
	call	__ZN10rayon_core4join23join_recover_from_panic17h65e0dcb6d5862f08E
Ltmp614:
LBB14_6:
	ud2
LBB14_44:
Ltmp615:
	jmp	LBB14_45
LBB14_43:
Ltmp644:
	jmp	LBB14_45
LBB14_38:
Ltmp620:
LBB14_45:
	mov	r14, rax
	lea	rdi, [rbp - 512]
	call	__ZN4core3ptr13drop_in_place17h2f02750a4e4133e6E
LBB14_42:
	mov	rdi, r14
	call	__Unwind_Resume
	ud2
Lfunc_end14:
	.cfi_endproc
	.section	__TEXT,__gcc_except_tab
	.p2align	2
GCC_except_table14:
Lexception14:
	.byte	255
	.byte	155
	.uleb128 Lttbase14-Lttbaseref14
Lttbaseref14:
	.byte	1
	.uleb128 Lcst_end14-Lcst_begin14
Lcst_begin14:
	.uleb128 Ltmp602-Lfunc_begin14
	.uleb128 Ltmp607-Ltmp602
	.uleb128 Ltmp644-Lfunc_begin14
	.byte	0
	.uleb128 Ltmp608-Lfunc_begin14
	.uleb128 Ltmp609-Ltmp608
	.uleb128 Ltmp610-Lfunc_begin14
	.byte	3
	.uleb128 Ltmp618-Lfunc_begin14
	.uleb128 Ltmp617-Ltmp618
	.uleb128 Ltmp620-Lfunc_begin14
	.byte	0
	.uleb128 Ltmp621-Lfunc_begin14
	.uleb128 Ltmp622-Ltmp621
	.uleb128 Ltmp630-Lfunc_begin14
	.byte	0
	.uleb128 Ltmp623-Lfunc_begin14
	.uleb128 Ltmp624-Ltmp623
	.uleb128 Ltmp625-Lfunc_begin14
	.byte	0
	.uleb128 Ltmp634-Lfunc_begin14
	.uleb128 Ltmp635-Ltmp634
	.uleb128 Ltmp636-Lfunc_begin14
	.byte	0
	.uleb128 Ltmp637-Lfunc_begin14
	.uleb128 Ltmp638-Ltmp637
	.uleb128 Ltmp641-Lfunc_begin14
	.byte	0
	.uleb128 Ltmp642-Lfunc_begin14
	.uleb128 Ltmp643-Ltmp642
	.uleb128 Ltmp644-Lfunc_begin14
	.byte	0
	.uleb128 Ltmp639-Lfunc_begin14
	.uleb128 Ltmp640-Ltmp639
	.uleb128 Ltmp641-Lfunc_begin14
	.byte	0
	.uleb128 Ltmp604-Lfunc_begin14
	.uleb128 Ltmp605-Ltmp604
	.uleb128 Ltmp644-Lfunc_begin14
	.byte	0
	.uleb128 Ltmp628-Lfunc_begin14
	.uleb128 Ltmp627-Ltmp628
	.uleb128 Ltmp630-Lfunc_begin14
	.byte	0
	.uleb128 Ltmp627-Lfunc_begin14
	.uleb128 Ltmp631-Ltmp627
	.byte	0
	.byte	0
	.uleb128 Ltmp631-Lfunc_begin14
	.uleb128 Ltmp632-Ltmp631
	.uleb128 Ltmp633-Lfunc_begin14
	.byte	0
	.uleb128 Ltmp632-Lfunc_begin14
	.uleb128 Ltmp611-Ltmp632
	.byte	0
	.byte	0
	.uleb128 Ltmp611-Lfunc_begin14
	.uleb128 Ltmp612-Ltmp611
	.uleb128 Ltmp644-Lfunc_begin14
	.byte	0
	.uleb128 Ltmp613-Lfunc_begin14
	.uleb128 Ltmp614-Ltmp613
	.uleb128 Ltmp615-Lfunc_begin14
	.byte	0
	.uleb128 Ltmp614-Lfunc_begin14
	.uleb128 Lfunc_end14-Ltmp614
	.byte	0
	.byte	0
Lcst_end14:
	.byte	0
	.byte	0
	.byte	1
	.byte	125
	.p2align	2
	.long	0
Lttbase14:
	.p2align	2

	.section	__TEXT,__text,regular,pure_instructions
	.p2align	4, 0x90
__ZN10rayon_core4join12join_context28_$u7b$$u7b$closure$u7d$$u7d$17h2543734b385ae430E:
Lfunc_begin15:
	.cfi_startproc
	.cfi_personality 155, _rust_eh_personality
	.cfi_lsda 16, Lexception15
	push	rbp
	.cfi_def_cfa_offset 16
	.cfi_offset rbp, -16
	mov	rbp, rsp
	.cfi_def_cfa_register rbp
	push	r15
	push	r14
	push	r13
	push	r12
	push	rbx
	sub	rsp, 280
	.cfi_offset rbx, -56
	.cfi_offset r12, -48
	.cfi_offset r13, -40
	.cfi_offset r14, -32
	.cfi_offset r15, -24
	mov	rbx, rdx
	mov	r12, rsi
	mov	rax, qword ptr [rsi + 48]
	mov	qword ptr [rbp - 152], rax
	mov	rax, qword ptr [rsi + 40]
	mov	qword ptr [rbp - 160], rax
	mov	rax, qword ptr [rsi + 32]
	mov	qword ptr [rbp - 168], rax
	mov	rax, qword ptr [rsi + 24]
	mov	qword ptr [rbp - 176], rax
	mov	rax, qword ptr [rsi + 16]
	mov	qword ptr [rbp - 184], rax
	mov	rax, qword ptr [rsi]
	mov	rdx, qword ptr [rsi + 8]
	mov	qword ptr [rbp - 192], rdx
	mov	qword ptr [rbp - 200], rax
	mov	byte ptr [rbp - 120], 0
	mov	qword ptr [rbp - 144], 0
	mov	rax, qword ptr [rbx + 256]
	mov	r15, qword ptr [rax + 264]
	mov	rax, qword ptr [rax + 256]
	mov	rsi, qword ptr [rbx + 272]
	mov	rdx, r15
	sub	rdx, rax
	cmp	rdx, rsi
	mov	qword ptr [rbp - 80], rdi
	mov	dword ptr [rbp - 68], ecx
	jl	LBB15_4
	add	rsi, rsi
	jb	LBB15_7
	lea	rdi, [rbx + 256]
Ltmp645:
	call	__ZN15crossbeam_deque15Worker$LT$T$GT$6resize17h5c22be2b4226dcffE
Ltmp646:
	mov	rsi, qword ptr [rbx + 272]
LBB15_4:
	sub	rsi, 1
	jb	LBB15_5
	mov	rax, qword ptr [rbx + 264]
	and	rsi, r15
	shl	rsi, 4
	lea	r14, [rbp - 200]
	mov	qword ptr [rax + rsi], r14
	lea	r13, [rip + __ZN83_$LT$rayon_core..job..StackJob$LT$L$C$F$C$R$GT$$u20$as$u20$rayon_core..job..Job$GT$7execute17hf3e0e55bf8fad1a9E]
	mov	qword ptr [rax + rsi + 8], r13
	##MEMBARRIER
	mov	rax, qword ptr [rbx + 256]
	inc	r15
	mov	qword ptr [rax + 264], r15
	mov	edi, 408
	add	rdi, qword ptr [rbx + 304]
	mov	rsi, qword ptr [rbx + 288]
Ltmp649:
	call	__ZN10rayon_core5sleep5Sleep6tickle17h00d06f732555dc32E
Ltmp650:
	mov	rax, qword ptr [r12 + 56]
	mov	rdx, qword ptr [r12 + 64]
	mov	rdi, qword ptr [r12 + 96]
	mov	rsi, qword ptr [rax]
	mov	rcx, qword ptr [rdx]
	mov	r8, qword ptr [rdx + 8]
	mov	rax, qword ptr [r12 + 88]
	mov	qword ptr [rbp - 272], rax
	mov	rax, qword ptr [r12 + 72]
	mov	rdx, qword ptr [r12 + 80]
	mov	qword ptr [rbp - 280], rdx
	mov	qword ptr [rbp - 288], rax
Ltmp651:
	mov	qword ptr [rsp], rdi
	movzx	r15d, byte ptr [rbp - 68]
	lea	rdi, [rbp - 64]
	lea	r9, [rbp - 288]
	mov	edx, r15d
	call	__ZN5rayon4iter8plumbing24bridge_producer_consumer6helper17h33b2711f2558e219E
Ltmp652:
	mov	r12, qword ptr [rbp - 64]
	mov	al, byte ptr [rbp - 120]
	test	al, al
	je	LBB15_12
	jmp	LBB15_16
	.p2align	4, 0x90
LBB15_23:
Ltmp661:
	mov	rdi, rbx
	mov	rsi, rax
	call	__ZN10rayon_core8registry12WorkerThread7execute17h2d3f3a8dd2af2716E
Ltmp662:
	movzx	eax, byte ptr [rbp - 120]
	test	al, al
	jne	LBB15_16
LBB15_12:
Ltmp659:
	mov	rdi, rbx
	call	__ZN10rayon_core8registry12WorkerThread14take_local_job17h123bfb54be8597fdE
Ltmp660:
	test	rdx, rdx
	je	LBB15_14
	cmp	rax, r14
	jne	LBB15_23
	cmp	rdx, r13
	jne	LBB15_23
	lea	rdi, [rbp - 288]
	lea	rsi, [rbp - 200]
	mov	ecx, 11
	rep movsq es:[rdi], [rsi]
	mov	rsi, qword ptr [rbp - 288]
	mov	rcx, qword ptr [rbp - 280]
	mov	rax, qword ptr [rbp - 272]
	mov	rdx, qword ptr [rbp - 264]
	mov	qword ptr [rbp - 64], rdx
	mov	rdx, qword ptr [rbp - 256]
	mov	qword ptr [rbp - 56], rdx
	mov	rdx, qword ptr [rbp - 248]
	mov	qword ptr [rbp - 48], rdx
	test	rsi, rsi
	je	LBB15_25
	mov	r9, qword ptr [rbp - 240]
	mov	rdi, qword ptr [rbp - 48]
	mov	qword ptr [rbp - 296], rdi
	mov	rbx, qword ptr [rbp - 64]
	mov	rdx, qword ptr [rbp - 56]
	mov	qword ptr [rbp - 304], rdx
	mov	qword ptr [rbp - 312], rbx
	mov	qword ptr [rbp - 96], rdi
	mov	qword ptr [rbp - 104], rdx
	mov	qword ptr [rbp - 112], rbx
	mov	rsi, qword ptr [rsi]
	sub	rsi, qword ptr [rcx]
	jb	LBB15_27
	mov	rcx, qword ptr [rax]
	mov	r8, qword ptr [rax + 8]
	mov	rax, qword ptr [rbp - 96]
	mov	qword ptr [rbp - 48], rax
	mov	rax, qword ptr [rbp - 112]
	mov	rdx, qword ptr [rbp - 104]
	mov	qword ptr [rbp - 56], rdx
	mov	qword ptr [rbp - 64], rax
Ltmp664:
	mov	qword ptr [rsp], r9
	lea	rdi, [rbp - 88]
	lea	r9, [rbp - 64]
	mov	edx, r15d
	call	__ZN5rayon4iter8plumbing24bridge_producer_consumer6helper17h33b2711f2558e219E
Ltmp665:
	cmp	qword ptr [rbp - 232], 2
	jb	LBB15_33
	mov	r15, qword ptr [rbp - 224]
	mov	rbx, qword ptr [rbp - 216]
Ltmp666:
	mov	rdi, r15
	call	qword ptr [rbx]
Ltmp667:
	mov	rsi, qword ptr [rbx + 8]
	test	rsi, rsi
	je	LBB15_33
	mov	rdx, qword ptr [rbx + 16]
	mov	rdi, r15
	call	___rust_dealloc
LBB15_33:
	mov	rdi, qword ptr [rbp - 88]
	jmp	LBB15_34
LBB15_14:
	mov	al, byte ptr [rbp - 120]
	test	al, al
	jne	LBB15_16
Ltmp677:
	mov	rdi, rbx
	lea	rsi, [rbp - 120]
	call	__ZN10rayon_core8registry12WorkerThread15wait_until_cold17h4ea94d81ba0d12faE
Ltmp678:
LBB15_16:
	mov	rax, qword ptr [rbp - 144]
	mov	rdi, qword ptr [rbp - 136]
	cmp	rax, 1
	jne	LBB15_17
LBB15_34:
	mov	rax, qword ptr [rbp - 80]
	mov	qword ptr [rax], r12
	mov	qword ptr [rax + 8], rdi
	add	rsp, 280
	pop	rbx
	pop	r12
	pop	r13
	pop	r14
	pop	r15
	pop	rbp
	ret
LBB15_17:
	test	rax, rax
	je	LBB15_36
	mov	rsi, qword ptr [rbp - 128]
Ltmp680:
	call	__ZN10rayon_core6unwind16resume_unwinding17h47c2e39f90248736E
Ltmp681:
	jmp	LBB15_6
LBB15_5:
Ltmp685:
	lea	rdi, [rip + _str.1]
	lea	rdx, [rip + l___unnamed_1]
	mov	esi, 33
	call	__ZN4core9panicking5panic17h736ee47a631475c0E
Ltmp686:
	jmp	LBB15_6
LBB15_36:
Ltmp682:
	lea	rdi, [rip + l___unnamed_2]
	lea	rdx, [rip + l___unnamed_3]
	mov	esi, 40
	call	__ZN3std9panicking11begin_panic17h75aebe10c874e798E
Ltmp683:
	jmp	LBB15_6
LBB15_7:
Ltmp647:
	lea	rdi, [rip + _str.3]
	lea	rdx, [rip + l___unnamed_4]
	mov	esi, 33
	call	__ZN4core9panicking5panic17h736ee47a631475c0E
Ltmp648:
	jmp	LBB15_6
LBB15_25:
Ltmp671:
	lea	rdi, [rip + l___unnamed_5]
	lea	rdx, [rip + l___unnamed_6]
	mov	esi, 43
	call	__ZN4core9panicking5panic17h736ee47a631475c0E
Ltmp672:
	jmp	LBB15_6
LBB15_27:
Ltmp669:
	lea	rdi, [rip + _str.1]
	lea	rdx, [rip + l___unnamed_7]
	mov	esi, 33
	call	__ZN4core9panicking5panic17h736ee47a631475c0E
Ltmp670:
	jmp	LBB15_6
LBB15_46:
Ltmp684:
	jmp	LBB15_41
LBB15_39:
Ltmp679:
	jmp	LBB15_45
LBB15_37:
Ltmp668:
	mov	r14, rax
	mov	rdi, r15
	mov	rsi, rbx
	call	__ZN5alloc5alloc8box_free17hfd27018577a513c9E
	mov	rdi, r14
	call	__Unwind_Resume
	ud2
LBB15_35:
Ltmp673:
	mov	r14, rax
	lea	rdi, [rbp - 232]
Ltmp674:
	call	__ZN4core3ptr13drop_in_place17h386a8cdc061ec2cfE
Ltmp675:
	jmp	LBB15_42
LBB15_40:
Ltmp676:
LBB15_41:
	mov	r14, rax
	mov	rdi, r14
	call	__Unwind_Resume
	ud2
LBB15_19:
Ltmp653:
Ltmp654:
	mov	rdi, rax
	call	__ZN3std9panicking3try7cleanup17hd895f7beef0a7dadE
Ltmp655:
	mov	rcx, rdx
	lea	rsi, [rbp - 120]
Ltmp656:
	mov	rdi, rbx
	mov	rdx, rax
	call	__ZN10rayon_core4join23join_recover_from_panic17h65e0dcb6d5862f08E
Ltmp657:
LBB15_6:
	ud2
LBB15_44:
Ltmp658:
	jmp	LBB15_45
LBB15_43:
Ltmp687:
	jmp	LBB15_45
LBB15_38:
Ltmp663:
LBB15_45:
	mov	r14, rax
	lea	rdi, [rbp - 200]
	call	__ZN4core3ptr13drop_in_place17h0eaae2101da5e23aE
LBB15_42:
	mov	rdi, r14
	call	__Unwind_Resume
	ud2
Lfunc_end15:
	.cfi_endproc
	.section	__TEXT,__gcc_except_tab
	.p2align	2
GCC_except_table15:
Lexception15:
	.byte	255
	.byte	155
	.uleb128 Lttbase15-Lttbaseref15
Lttbaseref15:
	.byte	1
	.uleb128 Lcst_end15-Lcst_begin15
Lcst_begin15:
	.uleb128 Ltmp645-Lfunc_begin15
	.uleb128 Ltmp650-Ltmp645
	.uleb128 Ltmp687-Lfunc_begin15
	.byte	0
	.uleb128 Ltmp651-Lfunc_begin15
	.uleb128 Ltmp652-Ltmp651
	.uleb128 Ltmp653-Lfunc_begin15
	.byte	3
	.uleb128 Ltmp661-Lfunc_begin15
	.uleb128 Ltmp660-Ltmp661
	.uleb128 Ltmp663-Lfunc_begin15
	.byte	0
	.uleb128 Ltmp664-Lfunc_begin15
	.uleb128 Ltmp665-Ltmp664
	.uleb128 Ltmp673-Lfunc_begin15
	.byte	0
	.uleb128 Ltmp666-Lfunc_begin15
	.uleb128 Ltmp667-Ltmp666
	.uleb128 Ltmp668-Lfunc_begin15
	.byte	0
	.uleb128 Ltmp677-Lfunc_begin15
	.uleb128 Ltmp678-Ltmp677
	.uleb128 Ltmp679-Lfunc_begin15
	.byte	0
	.uleb128 Ltmp680-Lfunc_begin15
	.uleb128 Ltmp681-Ltmp680
	.uleb128 Ltmp684-Lfunc_begin15
	.byte	0
	.uleb128 Ltmp685-Lfunc_begin15
	.uleb128 Ltmp686-Ltmp685
	.uleb128 Ltmp687-Lfunc_begin15
	.byte	0
	.uleb128 Ltmp682-Lfunc_begin15
	.uleb128 Ltmp683-Ltmp682
	.uleb128 Ltmp684-Lfunc_begin15
	.byte	0
	.uleb128 Ltmp647-Lfunc_begin15
	.uleb128 Ltmp648-Ltmp647
	.uleb128 Ltmp687-Lfunc_begin15
	.byte	0
	.uleb128 Ltmp671-Lfunc_begin15
	.uleb128 Ltmp670-Ltmp671
	.uleb128 Ltmp673-Lfunc_begin15
	.byte	0
	.uleb128 Ltmp670-Lfunc_begin15
	.uleb128 Ltmp674-Ltmp670
	.byte	0
	.byte	0
	.uleb128 Ltmp674-Lfunc_begin15
	.uleb128 Ltmp675-Ltmp674
	.uleb128 Ltmp676-Lfunc_begin15
	.byte	0
	.uleb128 Ltmp675-Lfunc_begin15
	.uleb128 Ltmp654-Ltmp675
	.byte	0
	.byte	0
	.uleb128 Ltmp654-Lfunc_begin15
	.uleb128 Ltmp655-Ltmp654
	.uleb128 Ltmp687-Lfunc_begin15
	.byte	0
	.uleb128 Ltmp656-Lfunc_begin15
	.uleb128 Ltmp657-Ltmp656
	.uleb128 Ltmp658-Lfunc_begin15
	.byte	0
	.uleb128 Ltmp657-Lfunc_begin15
	.uleb128 Lfunc_end15-Ltmp657
	.byte	0
	.byte	0
Lcst_end15:
	.byte	0
	.byte	0
	.byte	1
	.byte	125
	.p2align	2
	.long	0
Lttbase15:
	.p2align	2

	.section	__TEXT,__text,regular,pure_instructions
	.p2align	4, 0x90
__ZN10rayon_core4join12join_context28_$u7b$$u7b$closure$u7d$$u7d$17h28a7b09cdccad693E:
Lfunc_begin16:
	.cfi_startproc
	.cfi_personality 155, _rust_eh_personality
	.cfi_lsda 16, Lexception16
	push	rbp
	.cfi_def_cfa_offset 16
	.cfi_offset rbp, -16
	mov	rbp, rsp
	.cfi_def_cfa_register rbp
	push	r15
	push	r14
	push	r13
	push	r12
	push	rbx
	and	rsp, -64
	sub	rsp, 768
	.cfi_offset rbx, -56
	.cfi_offset r12, -48
	.cfi_offset r13, -40
	.cfi_offset r14, -32
	.cfi_offset r15, -24
	mov	dword ptr [rsp + 60], ecx
	mov	rbx, rdx
	mov	r12, rsi
	mov	r15, rdi
	mov	byte ptr [rsp + 504], 0
	mov	rax, qword ptr [rsi]
	mov	rcx, qword ptr [rsi + 8]
	mov	qword ptr [rsp + 448], rax
	mov	qword ptr [rsp + 456], rcx
	mov	rax, qword ptr [rsi + 16]
	mov	qword ptr [rsp + 464], rax
	mov	rax, qword ptr [rsi + 24]
	mov	qword ptr [rsp + 472], rax
	mov	rax, qword ptr [rsi + 32]
	mov	qword ptr [rsp + 480], rax
	mov	rax, qword ptr [rsi + 40]
	mov	qword ptr [rsp + 488], rax
	mov	rax, qword ptr [rsi + 48]
	mov	qword ptr [rsp + 496], rax
	mov	qword ptr [rsp + 320], 0
	mov	rax, qword ptr [rdx + 256]
	mov	r14, qword ptr [rax + 264]
	mov	rax, qword ptr [rax + 256]
	mov	rsi, qword ptr [rdx + 272]
	mov	rcx, r14
	sub	rcx, rax
	cmp	rcx, rsi
	jl	LBB16_4
	add	rsi, rsi
	jb	LBB16_7
	lea	rdi, [rbx + 256]
Ltmp688:
	call	__ZN15crossbeam_deque15Worker$LT$T$GT$6resize17h5c22be2b4226dcffE
Ltmp689:
	mov	rsi, qword ptr [rbx + 272]
LBB16_4:
	sub	rsi, 1
	jb	LBB16_5
	mov	rax, qword ptr [rbx + 264]
	and	rsi, r14
	shl	rsi, 4
	lea	r13, [rsp + 320]
	mov	qword ptr [rax + rsi], r13
	lea	rcx, [rip + __ZN83_$LT$rayon_core..job..StackJob$LT$L$C$F$C$R$GT$$u20$as$u20$rayon_core..job..Job$GT$7execute17h97705e14af1f89b9E]
	mov	qword ptr [rax + rsi + 8], rcx
	##MEMBARRIER
	mov	rax, qword ptr [rbx + 256]
	inc	r14
	mov	qword ptr [rax + 264], r14
	mov	edi, 408
	add	rdi, qword ptr [rbx + 304]
	mov	rsi, qword ptr [rbx + 288]
Ltmp692:
	call	__ZN10rayon_core5sleep5Sleep6tickle17h00d06f732555dc32E
Ltmp693:
	mov	rax, qword ptr [r12 + 80]
	mov	qword ptr [rsp + 88], rax
	mov	rax, qword ptr [r12 + 72]
	mov	qword ptr [rsp + 80], rax
	mov	rax, qword ptr [r12 + 96]
	mov	qword ptr [rsp + 104], rax
	mov	rax, qword ptr [r12 + 88]
	mov	qword ptr [rsp + 96], rax
	mov	rax, qword ptr [r12 + 56]
	mov	rcx, qword ptr [r12 + 64]
	mov	qword ptr [rsp + 72], rcx
	mov	qword ptr [rsp + 64], rax
	mov	r14d, dword ptr [rsp + 60]
	mov	byte ptr [rsp + 112], r14b
	mov	r9, qword ptr [rsp + 80]
	mov	rdi, qword ptr [rsp + 88]
	movdqa	xmm0, xmmword ptr [rsp + 96]
	movdqa	xmm1, xmmword ptr [rsp + 64]
	movq	rcx, xmm1
	pshufd	xmm1, xmm1, 78
	movq	rax, xmm1
	pshufd	xmm1, xmm0, 78
	xor	edx, edx
	test	r14b, r14b
	setne	dl
	mov	rsi, qword ptr [rcx]
	mov	rcx, qword ptr [rax]
	mov	r8, qword ptr [rax + 8]
	movq	qword ptr [rsp + 192], xmm0
	mov	qword ptr [rsp + 176], r9
	mov	qword ptr [rsp + 184], rdi
Ltmp694:
	movq	qword ptr [rsp], xmm1
	lea	rdi, [rsp + 512]
	lea	r9, [rsp + 176]
	call	__ZN5rayon4iter8plumbing24bridge_producer_consumer6helper17hd8066c25d6ee29aaE
Ltmp695:
	movaps	xmm0, xmmword ptr [rsp + 512]
	movaps	xmmword ptr [rsp + 272], xmm0
	movaps	xmm0, xmmword ptr [rsp + 528]
	movaps	xmmword ptr [rsp + 256], xmm0
	movaps	xmm0, xmmword ptr [rsp + 544]
	movaps	xmmword ptr [rsp + 240], xmm0
	movdqa	xmm0, xmmword ptr [rsp + 560]
	movdqa	xmmword ptr [rsp + 224], xmm0
	lea	r12, [rsp + 504]
	mov	al, byte ptr [rsp + 504]
	test	al, al
	je	LBB16_12
	jmp	LBB16_16
	.p2align	4, 0x90
LBB16_23:
Ltmp704:
	mov	rdi, rbx
	mov	rsi, rax
	call	__ZN10rayon_core8registry12WorkerThread7execute17h2d3f3a8dd2af2716E
Ltmp705:
	movzx	eax, byte ptr [rsp + 504]
	test	al, al
	jne	LBB16_16
LBB16_12:
Ltmp702:
	mov	rdi, rbx
	call	__ZN10rayon_core8registry12WorkerThread14take_local_job17h123bfb54be8597fdE
Ltmp703:
	test	rdx, rdx
	je	LBB16_14
	cmp	rax, r13
	jne	LBB16_23
	lea	rcx, [rip + __ZN83_$LT$rayon_core..job..StackJob$LT$L$C$F$C$R$GT$$u20$as$u20$rayon_core..job..Job$GT$7execute17h97705e14af1f89b9E]
	cmp	rdx, rcx
	jne	LBB16_23
	lea	rdi, [rsp + 512]
	lea	rsi, [rsp + 320]
	mov	edx, 192
	call	_memcpy
	mov	rsi, qword ptr [rsp + 640]
	mov	rcx, qword ptr [rsp + 648]
	mov	rax, qword ptr [rsp + 656]
	mov	rdx, qword ptr [rsp + 664]
	mov	qword ptr [rsp + 64], rdx
	mov	rdx, qword ptr [rsp + 672]
	mov	qword ptr [rsp + 72], rdx
	mov	rdx, qword ptr [rsp + 680]
	mov	qword ptr [rsp + 80], rdx
	test	rsi, rsi
	je	LBB16_25
	mov	r9, qword ptr [rsp + 688]
	mov	rdi, qword ptr [rsp + 80]
	mov	qword ptr [rsp + 312], rdi
	mov	rbx, qword ptr [rsp + 64]
	mov	rdx, qword ptr [rsp + 72]
	mov	qword ptr [rsp + 304], rdx
	mov	qword ptr [rsp + 296], rbx
	mov	qword ptr [rsp + 216], rdi
	mov	qword ptr [rsp + 208], rdx
	mov	qword ptr [rsp + 200], rbx
	mov	rsi, qword ptr [rsi]
	sub	rsi, qword ptr [rcx]
	jb	LBB16_27
	mov	rcx, qword ptr [rax]
	mov	r8, qword ptr [rax + 8]
	mov	rax, qword ptr [rsp + 216]
	mov	qword ptr [rsp + 192], rax
	mov	rax, qword ptr [rsp + 200]
	mov	rdx, qword ptr [rsp + 208]
	mov	qword ptr [rsp + 184], rdx
	mov	qword ptr [rsp + 176], rax
Ltmp707:
	mov	qword ptr [rsp], r9
	movzx	edx, r14b
	lea	rdi, [rsp + 64]
	lea	r9, [rsp + 176]
	call	__ZN5rayon4iter8plumbing24bridge_producer_consumer6helper17hd8066c25d6ee29aaE
Ltmp708:
	cmp	qword ptr [rsp + 512], 2
	jb	LBB16_33
	mov	r12, qword ptr [rsp + 520]
	mov	rbx, qword ptr [rsp + 528]
Ltmp709:
	mov	rdi, r12
	call	qword ptr [rbx]
Ltmp710:
	mov	rsi, qword ptr [rbx + 8]
	test	rsi, rsi
	je	LBB16_33
	mov	rdx, qword ptr [rbx + 16]
	mov	rdi, r12
	call	___rust_dealloc
LBB16_33:
	movaps	xmm0, xmmword ptr [rsp + 64]
	movaps	xmm1, xmmword ptr [rsp + 80]
	movaps	xmm2, xmmword ptr [rsp + 96]
	movaps	xmm3, xmmword ptr [rsp + 112]
	jmp	LBB16_37
LBB16_14:
	mov	al, byte ptr [rsp + 504]
	test	al, al
	jne	LBB16_16
Ltmp720:
	mov	rdi, rbx
	mov	rsi, r12
	call	__ZN10rayon_core8registry12WorkerThread15wait_until_cold17h4ea94d81ba0d12faE
Ltmp721:
LBB16_16:
	mov	rax, qword ptr [rsp + 320]
	cmp	rax, 1
	jne	LBB16_17
	movaps	xmm0, xmmword ptr [rsp + 384]
	movaps	xmm1, xmmword ptr [rsp + 400]
	movaps	xmm2, xmmword ptr [rsp + 416]
	movaps	xmm3, xmmword ptr [rsp + 432]
LBB16_37:
	movaps	xmm4, xmmword ptr [rsp + 272]
	movaps	xmmword ptr [r15], xmm4
	movaps	xmm4, xmmword ptr [rsp + 256]
	movaps	xmmword ptr [r15 + 16], xmm4
	movaps	xmm4, xmmword ptr [rsp + 240]
	movaps	xmmword ptr [r15 + 32], xmm4
	movaps	xmm4, xmmword ptr [rsp + 224]
	movaps	xmmword ptr [r15 + 48], xmm4
	movaps	xmmword ptr [r15 + 64], xmm0
	movaps	xmmword ptr [r15 + 80], xmm1
	movaps	xmmword ptr [r15 + 96], xmm2
	movaps	xmmword ptr [r15 + 112], xmm3
	lea	rsp, [rbp - 40]
	pop	rbx
	pop	r12
	pop	r13
	pop	r14
	pop	r15
	pop	rbp
	ret
LBB16_17:
	test	rax, rax
	je	LBB16_35
	mov	rdi, qword ptr [rsp + 328]
	mov	rsi, qword ptr [rsp + 336]
Ltmp723:
	call	__ZN10rayon_core6unwind16resume_unwinding17h47c2e39f90248736E
Ltmp724:
	jmp	LBB16_6
LBB16_5:
Ltmp728:
	lea	rdi, [rip + _str.1]
	lea	rdx, [rip + l___unnamed_1]
	mov	esi, 33
	call	__ZN4core9panicking5panic17h736ee47a631475c0E
Ltmp729:
	jmp	LBB16_6
LBB16_35:
Ltmp725:
	lea	rdi, [rip + l___unnamed_2]
	lea	rdx, [rip + l___unnamed_3]
	mov	esi, 40
	call	__ZN3std9panicking11begin_panic17h75aebe10c874e798E
Ltmp726:
	jmp	LBB16_6
LBB16_7:
Ltmp690:
	lea	rdi, [rip + _str.3]
	lea	rdx, [rip + l___unnamed_4]
	mov	esi, 33
	call	__ZN4core9panicking5panic17h736ee47a631475c0E
Ltmp691:
	jmp	LBB16_6
LBB16_25:
Ltmp714:
	lea	rdi, [rip + l___unnamed_5]
	lea	rdx, [rip + l___unnamed_6]
	mov	esi, 43
	call	__ZN4core9panicking5panic17h736ee47a631475c0E
Ltmp715:
	jmp	LBB16_6
LBB16_27:
Ltmp712:
	lea	rdi, [rip + _str.1]
	lea	rdx, [rip + l___unnamed_7]
	mov	esi, 33
	call	__ZN4core9panicking5panic17h736ee47a631475c0E
Ltmp713:
	jmp	LBB16_6
LBB16_47:
Ltmp727:
	jmp	LBB16_42
LBB16_40:
Ltmp722:
	jmp	LBB16_46
LBB16_38:
Ltmp711:
	mov	r14, rax
	mov	rdi, r12
	mov	rsi, rbx
	call	__ZN5alloc5alloc8box_free17hfd27018577a513c9E
	mov	rdi, r14
	call	__Unwind_Resume
	ud2
LBB16_34:
Ltmp716:
	mov	r14, rax
Ltmp717:
	lea	rdi, [rsp + 512]
	call	__ZN4core3ptr13drop_in_place17h01471ebcf0653146E
Ltmp718:
	jmp	LBB16_43
LBB16_41:
Ltmp719:
LBB16_42:
	mov	r14, rax
	mov	rdi, r14
	call	__Unwind_Resume
	ud2
LBB16_19:
Ltmp696:
Ltmp697:
	mov	rdi, rax
	call	__ZN3std9panicking3try7cleanup17hd895f7beef0a7dadE
Ltmp698:
	mov	rcx, rdx
	lea	rsi, [rsp + 504]
Ltmp699:
	mov	rdi, rbx
	mov	rdx, rax
	call	__ZN10rayon_core4join23join_recover_from_panic17h65e0dcb6d5862f08E
Ltmp700:
LBB16_6:
	ud2
LBB16_45:
Ltmp701:
	jmp	LBB16_46
LBB16_44:
Ltmp730:
	jmp	LBB16_46
LBB16_39:
Ltmp706:
LBB16_46:
	mov	r14, rax
	lea	rdi, [rsp + 320]
	call	__ZN4core3ptr13drop_in_place17h01471ebcf0653146E
LBB16_43:
	mov	rdi, r14
	call	__Unwind_Resume
	ud2
Lfunc_end16:
	.cfi_endproc
	.section	__TEXT,__gcc_except_tab
	.p2align	2
GCC_except_table16:
Lexception16:
	.byte	255
	.byte	155
	.uleb128 Lttbase16-Lttbaseref16
Lttbaseref16:
	.byte	1
	.uleb128 Lcst_end16-Lcst_begin16
Lcst_begin16:
	.uleb128 Ltmp688-Lfunc_begin16
	.uleb128 Ltmp693-Ltmp688
	.uleb128 Ltmp730-Lfunc_begin16
	.byte	0
	.uleb128 Ltmp694-Lfunc_begin16
	.uleb128 Ltmp695-Ltmp694
	.uleb128 Ltmp696-Lfunc_begin16
	.byte	3
	.uleb128 Ltmp704-Lfunc_begin16
	.uleb128 Ltmp703-Ltmp704
	.uleb128 Ltmp706-Lfunc_begin16
	.byte	0
	.uleb128 Ltmp703-Lfunc_begin16
	.uleb128 Ltmp707-Ltmp703
	.byte	0
	.byte	0
	.uleb128 Ltmp707-Lfunc_begin16
	.uleb128 Ltmp708-Ltmp707
	.uleb128 Ltmp716-Lfunc_begin16
	.byte	0
	.uleb128 Ltmp709-Lfunc_begin16
	.uleb128 Ltmp710-Ltmp709
	.uleb128 Ltmp711-Lfunc_begin16
	.byte	0
	.uleb128 Ltmp720-Lfunc_begin16
	.uleb128 Ltmp721-Ltmp720
	.uleb128 Ltmp722-Lfunc_begin16
	.byte	0
	.uleb128 Ltmp723-Lfunc_begin16
	.uleb128 Ltmp724-Ltmp723
	.uleb128 Ltmp727-Lfunc_begin16
	.byte	0
	.uleb128 Ltmp728-Lfunc_begin16
	.uleb128 Ltmp729-Ltmp728
	.uleb128 Ltmp730-Lfunc_begin16
	.byte	0
	.uleb128 Ltmp725-Lfunc_begin16
	.uleb128 Ltmp726-Ltmp725
	.uleb128 Ltmp727-Lfunc_begin16
	.byte	0
	.uleb128 Ltmp690-Lfunc_begin16
	.uleb128 Ltmp691-Ltmp690
	.uleb128 Ltmp730-Lfunc_begin16
	.byte	0
	.uleb128 Ltmp714-Lfunc_begin16
	.uleb128 Ltmp713-Ltmp714
	.uleb128 Ltmp716-Lfunc_begin16
	.byte	0
	.uleb128 Ltmp713-Lfunc_begin16
	.uleb128 Ltmp717-Ltmp713
	.byte	0
	.byte	0
	.uleb128 Ltmp717-Lfunc_begin16
	.uleb128 Ltmp718-Ltmp717
	.uleb128 Ltmp719-Lfunc_begin16
	.byte	0
	.uleb128 Ltmp718-Lfunc_begin16
	.uleb128 Ltmp697-Ltmp718
	.byte	0
	.byte	0
	.uleb128 Ltmp697-Lfunc_begin16
	.uleb128 Ltmp698-Ltmp697
	.uleb128 Ltmp730-Lfunc_begin16
	.byte	0
	.uleb128 Ltmp699-Lfunc_begin16
	.uleb128 Ltmp700-Ltmp699
	.uleb128 Ltmp701-Lfunc_begin16
	.byte	0
	.uleb128 Ltmp700-Lfunc_begin16
	.uleb128 Lfunc_end16-Ltmp700
	.byte	0
	.byte	0
Lcst_end16:
	.byte	0
	.byte	0
	.byte	1
	.byte	125
	.p2align	2
	.long	0
Lttbase16:
	.p2align	2

	.section	__TEXT,__text,regular,pure_instructions
	.p2align	4, 0x90
__ZN10rayon_core4join12join_context28_$u7b$$u7b$closure$u7d$$u7d$17h2b0c7726b03c5585E:
Lfunc_begin17:
	.cfi_startproc
	.cfi_personality 155, _rust_eh_personality
	.cfi_lsda 16, Lexception17
	push	rbp
	.cfi_def_cfa_offset 16
	.cfi_offset rbp, -16
	mov	rbp, rsp
	.cfi_def_cfa_register rbp
	push	r15
	push	r14
	push	r13
	push	r12
	push	rbx
	sub	rsp, 376
	.cfi_offset rbx, -56
	.cfi_offset r12, -48
	.cfi_offset r13, -40
	.cfi_offset r14, -32
	.cfi_offset r15, -24
	mov	r12, rdx
	mov	rbx, rsi
	mov	qword ptr [rbp - 120], rdi
	mov	byte ptr [rbp - 144], 0
	mov	rax, qword ptr [rsi]
	mov	rdx, qword ptr [rsi + 8]
	mov	qword ptr [rbp - 208], rax
	mov	qword ptr [rbp - 200], rdx
	mov	rax, qword ptr [rsi + 16]
	mov	qword ptr [rbp - 192], rax
	mov	rax, qword ptr [rsi + 24]
	mov	qword ptr [rbp - 184], rax
	mov	rax, qword ptr [rsi + 32]
	mov	qword ptr [rbp - 176], rax
	mov	rax, qword ptr [rsi + 40]
	mov	qword ptr [rbp - 168], rax
	mov	rax, qword ptr [rsi + 48]
	mov	qword ptr [rbp - 160], rax
	mov	rax, qword ptr [rsi + 56]
	mov	qword ptr [rbp - 152], rax
	mov	qword ptr [rbp - 240], 0
	mov	rax, qword ptr [r12 + 256]
	mov	r15, qword ptr [rax + 264]
	mov	rax, qword ptr [rax + 256]
	mov	rsi, qword ptr [r12 + 272]
	mov	rdx, r15
	sub	rdx, rax
	cmp	rdx, rsi
	mov	dword ptr [rbp - 112], ecx
	jl	LBB17_4
	add	rsi, rsi
	jb	LBB17_7
	lea	rdi, [r12 + 256]
Ltmp731:
	call	__ZN15crossbeam_deque15Worker$LT$T$GT$6resize17h5c22be2b4226dcffE
Ltmp732:
	mov	rsi, qword ptr [r12 + 272]
LBB17_4:
	sub	rsi, 1
	jb	LBB17_5
	mov	rax, qword ptr [r12 + 264]
	and	rsi, r15
	shl	rsi, 4
	lea	r13, [rbp - 240]
	mov	qword ptr [rax + rsi], r13
	lea	r14, [rip + __ZN83_$LT$rayon_core..job..StackJob$LT$L$C$F$C$R$GT$$u20$as$u20$rayon_core..job..Job$GT$7execute17h6dd7080019f1d806E]
	mov	qword ptr [rax + rsi + 8], r14
	##MEMBARRIER
	mov	rax, qword ptr [r12 + 256]
	inc	r15
	mov	qword ptr [rax + 264], r15
	mov	edi, 408
	add	rdi, qword ptr [r12 + 304]
	mov	rsi, qword ptr [r12 + 288]
Ltmp735:
	call	__ZN10rayon_core5sleep5Sleep6tickle17h00d06f732555dc32E
Ltmp736:
	mov	rcx, qword ptr [rbx + 64]
	mov	rdx, qword ptr [rbx + 72]
	mov	r9, qword ptr [rbx + 104]
	mov	r10, qword ptr [rbx + 112]
	mov	rdi, qword ptr [rbx + 96]
	mov	qword ptr [rbp - 48], rdi
	mov	rax, qword ptr [rbx + 80]
	mov	rbx, qword ptr [rbx + 88]
	mov	qword ptr [rbp - 56], rbx
	mov	qword ptr [rbp - 64], rax
	mov	rsi, qword ptr [rcx]
	mov	rcx, qword ptr [rdx]
	mov	r8, qword ptr [rdx + 8]
	mov	qword ptr [rbp - 336], rdi
	mov	qword ptr [rbp - 344], rbx
	mov	qword ptr [rbp - 352], rax
Ltmp737:
	mov	qword ptr [rsp + 8], r10
	mov	qword ptr [rsp], r9
	movzx	r15d, byte ptr [rbp - 112]
	lea	rdi, [rbp - 96]
	lea	r9, [rbp - 352]
	mov	edx, r15d
	call	__ZN5rayon4iter8plumbing24bridge_producer_consumer6helper17hfbf01dc854433435E
Ltmp738:
	movdqa	xmm0, xmmword ptr [rbp - 96]
	movdqa	xmmword ptr [rbp - 112], xmm0
	lea	rbx, [rbp - 144]
	mov	al, byte ptr [rbp - 144]
	test	al, al
	je	LBB17_12
	jmp	LBB17_16
	.p2align	4, 0x90
LBB17_23:
Ltmp747:
	mov	rdi, r12
	mov	rsi, rax
	call	__ZN10rayon_core8registry12WorkerThread7execute17h2d3f3a8dd2af2716E
Ltmp748:
	movzx	eax, byte ptr [rbp - 144]
	test	al, al
	jne	LBB17_16
LBB17_12:
Ltmp745:
	mov	rdi, r12
	call	__ZN10rayon_core8registry12WorkerThread14take_local_job17h123bfb54be8597fdE
Ltmp746:
	test	rdx, rdx
	je	LBB17_14
	cmp	rax, r13
	jne	LBB17_23
	cmp	rdx, r14
	jne	LBB17_23
	movaps	xmm0, xmmword ptr [rbp - 144]
	movaps	xmmword ptr [rbp - 256], xmm0
	movaps	xmm0, xmmword ptr [rbp - 160]
	movaps	xmmword ptr [rbp - 272], xmm0
	movaps	xmm0, xmmword ptr [rbp - 176]
	movaps	xmmword ptr [rbp - 288], xmm0
	movdqa	xmm0, xmmword ptr [rbp - 240]
	movaps	xmm1, xmmword ptr [rbp - 224]
	movaps	xmm2, xmmword ptr [rbp - 208]
	movaps	xmm3, xmmword ptr [rbp - 192]
	movaps	xmmword ptr [rbp - 304], xmm3
	movaps	xmmword ptr [rbp - 320], xmm2
	movaps	xmmword ptr [rbp - 336], xmm1
	movdqa	xmmword ptr [rbp - 352], xmm0
	mov	rsi, qword ptr [rbp - 320]
	mov	rcx, qword ptr [rbp - 312]
	mov	rax, qword ptr [rbp - 304]
	mov	rdx, qword ptr [rbp - 296]
	mov	rdi, qword ptr [rbp - 288]
	mov	qword ptr [rbp - 64], rdx
	mov	qword ptr [rbp - 56], rdi
	mov	rdx, qword ptr [rbp - 280]
	mov	qword ptr [rbp - 48], rdx
	test	rsi, rsi
	je	LBB17_25
	mov	r9, qword ptr [rbp - 272]
	mov	r10, qword ptr [rbp - 264]
	mov	rbx, qword ptr [rbp - 48]
	mov	qword ptr [rbp - 376], rbx
	mov	rdx, qword ptr [rbp - 64]
	mov	rdi, qword ptr [rbp - 56]
	mov	qword ptr [rbp - 384], rdi
	mov	qword ptr [rbp - 392], rdx
	mov	qword ptr [rbp - 80], rbx
	mov	qword ptr [rbp - 88], rdi
	mov	qword ptr [rbp - 96], rdx
	mov	rsi, qword ptr [rsi]
	sub	rsi, qword ptr [rcx]
	jb	LBB17_34
	mov	rcx, qword ptr [rax]
	mov	r8, qword ptr [rax + 8]
	mov	rax, qword ptr [rbp - 80]
	mov	qword ptr [rbp - 48], rax
	mov	rax, qword ptr [rbp - 96]
	mov	rdx, qword ptr [rbp - 88]
	mov	qword ptr [rbp - 56], rdx
	mov	qword ptr [rbp - 64], rax
Ltmp750:
	mov	qword ptr [rsp + 8], r10
	mov	qword ptr [rsp], r9
	lea	rdi, [rbp - 368]
	lea	r9, [rbp - 64]
	mov	edx, r15d
	call	__ZN5rayon4iter8plumbing24bridge_producer_consumer6helper17hfbf01dc854433435E
Ltmp751:
	cmp	qword ptr [rbp - 352], 2
	jb	LBB17_32
	mov	r15, qword ptr [rbp - 344]
	mov	rbx, qword ptr [rbp - 336]
Ltmp752:
	mov	rdi, r15
	call	qword ptr [rbx]
Ltmp753:
	mov	rsi, qword ptr [rbx + 8]
	test	rsi, rsi
	je	LBB17_32
	mov	rdx, qword ptr [rbx + 16]
	mov	rdi, r15
	call	___rust_dealloc
LBB17_32:
	movdqa	xmm0, xmmword ptr [rbp - 368]
	jmp	LBB17_33
LBB17_14:
	mov	al, byte ptr [rbp - 144]
	test	al, al
	jne	LBB17_16
Ltmp763:
	mov	rdi, r12
	mov	rsi, rbx
	call	__ZN10rayon_core8registry12WorkerThread15wait_until_cold17h4ea94d81ba0d12faE
Ltmp764:
LBB17_16:
	mov	rax, qword ptr [rbp - 240]
	movdqa	xmm0, xmmword ptr [rbp - 224]
	cmp	rax, 1
	jne	LBB17_17
LBB17_33:
	mov	rax, qword ptr [rbp - 120]
	movaps	xmm1, xmmword ptr [rbp - 112]
	movaps	xmmword ptr [rax], xmm1
	movdqa	xmmword ptr [rax + 16], xmm0
	add	rsp, 376
	pop	rbx
	pop	r12
	pop	r13
	pop	r14
	pop	r15
	pop	rbp
	ret
LBB17_17:
	test	rax, rax
	je	LBB17_36
	mov	rdi, qword ptr [rbp - 232]
	movq	rsi, xmm0
Ltmp766:
	call	__ZN10rayon_core6unwind16resume_unwinding17h47c2e39f90248736E
Ltmp767:
	jmp	LBB17_6
LBB17_5:
Ltmp771:
	lea	rdi, [rip + _str.1]
	lea	rdx, [rip + l___unnamed_1]
	mov	esi, 33
	call	__ZN4core9panicking5panic17h736ee47a631475c0E
Ltmp772:
	jmp	LBB17_6
LBB17_36:
Ltmp768:
	lea	rdi, [rip + l___unnamed_2]
	lea	rdx, [rip + l___unnamed_3]
	mov	esi, 40
	call	__ZN3std9panicking11begin_panic17h75aebe10c874e798E
Ltmp769:
	jmp	LBB17_6
LBB17_7:
Ltmp733:
	lea	rdi, [rip + _str.3]
	lea	rdx, [rip + l___unnamed_4]
	mov	esi, 33
	call	__ZN4core9panicking5panic17h736ee47a631475c0E
Ltmp734:
	jmp	LBB17_6
LBB17_25:
Ltmp757:
	lea	rdi, [rip + l___unnamed_5]
	lea	rdx, [rip + l___unnamed_6]
	mov	esi, 43
	call	__ZN4core9panicking5panic17h736ee47a631475c0E
Ltmp758:
	jmp	LBB17_6
LBB17_34:
Ltmp755:
	lea	rdi, [rip + _str.1]
	lea	rdx, [rip + l___unnamed_7]
	mov	esi, 33
	call	__ZN4core9panicking5panic17h736ee47a631475c0E
Ltmp756:
	jmp	LBB17_6
LBB17_46:
Ltmp770:
	jmp	LBB17_41
LBB17_39:
Ltmp765:
	jmp	LBB17_45
LBB17_37:
Ltmp754:
	mov	r14, rax
	mov	rdi, r15
	mov	rsi, rbx
	call	__ZN5alloc5alloc8box_free17hfd27018577a513c9E
	mov	rdi, r14
	call	__Unwind_Resume
	ud2
LBB17_35:
Ltmp759:
	mov	r14, rax
Ltmp760:
	lea	rdi, [rbp - 352]
	call	__ZN4core3ptr13drop_in_place17h03e3d151d67a9ae6E
Ltmp761:
	jmp	LBB17_42
LBB17_40:
Ltmp762:
LBB17_41:
	mov	r14, rax
	mov	rdi, r14
	call	__Unwind_Resume
	ud2
LBB17_19:
Ltmp739:
Ltmp740:
	mov	rdi, rax
	call	__ZN3std9panicking3try7cleanup17hd895f7beef0a7dadE
Ltmp741:
	mov	rcx, rdx
	lea	rsi, [rbp - 144]
Ltmp742:
	mov	rdi, r12
	mov	rdx, rax
	call	__ZN10rayon_core4join23join_recover_from_panic17h65e0dcb6d5862f08E
Ltmp743:
LBB17_6:
	ud2
LBB17_44:
Ltmp744:
	jmp	LBB17_45
LBB17_43:
Ltmp773:
	jmp	LBB17_45
LBB17_38:
Ltmp749:
LBB17_45:
	mov	r14, rax
	lea	rdi, [rbp - 240]
	call	__ZN4core3ptr13drop_in_place17h03e3d151d67a9ae6E
LBB17_42:
	mov	rdi, r14
	call	__Unwind_Resume
	ud2
Lfunc_end17:
	.cfi_endproc
	.section	__TEXT,__gcc_except_tab
	.p2align	2
GCC_except_table17:
Lexception17:
	.byte	255
	.byte	155
	.uleb128 Lttbase17-Lttbaseref17
Lttbaseref17:
	.byte	1
	.uleb128 Lcst_end17-Lcst_begin17
Lcst_begin17:
	.uleb128 Ltmp731-Lfunc_begin17
	.uleb128 Ltmp736-Ltmp731
	.uleb128 Ltmp773-Lfunc_begin17
	.byte	0
	.uleb128 Ltmp737-Lfunc_begin17
	.uleb128 Ltmp738-Ltmp737
	.uleb128 Ltmp739-Lfunc_begin17
	.byte	3
	.uleb128 Ltmp747-Lfunc_begin17
	.uleb128 Ltmp746-Ltmp747
	.uleb128 Ltmp749-Lfunc_begin17
	.byte	0
	.uleb128 Ltmp750-Lfunc_begin17
	.uleb128 Ltmp751-Ltmp750
	.uleb128 Ltmp759-Lfunc_begin17
	.byte	0
	.uleb128 Ltmp752-Lfunc_begin17
	.uleb128 Ltmp753-Ltmp752
	.uleb128 Ltmp754-Lfunc_begin17
	.byte	0
	.uleb128 Ltmp763-Lfunc_begin17
	.uleb128 Ltmp764-Ltmp763
	.uleb128 Ltmp765-Lfunc_begin17
	.byte	0
	.uleb128 Ltmp766-Lfunc_begin17
	.uleb128 Ltmp767-Ltmp766
	.uleb128 Ltmp770-Lfunc_begin17
	.byte	0
	.uleb128 Ltmp771-Lfunc_begin17
	.uleb128 Ltmp772-Ltmp771
	.uleb128 Ltmp773-Lfunc_begin17
	.byte	0
	.uleb128 Ltmp768-Lfunc_begin17
	.uleb128 Ltmp769-Ltmp768
	.uleb128 Ltmp770-Lfunc_begin17
	.byte	0
	.uleb128 Ltmp733-Lfunc_begin17
	.uleb128 Ltmp734-Ltmp733
	.uleb128 Ltmp773-Lfunc_begin17
	.byte	0
	.uleb128 Ltmp757-Lfunc_begin17
	.uleb128 Ltmp756-Ltmp757
	.uleb128 Ltmp759-Lfunc_begin17
	.byte	0
	.uleb128 Ltmp756-Lfunc_begin17
	.uleb128 Ltmp760-Ltmp756
	.byte	0
	.byte	0
	.uleb128 Ltmp760-Lfunc_begin17
	.uleb128 Ltmp761-Ltmp760
	.uleb128 Ltmp762-Lfunc_begin17
	.byte	0
	.uleb128 Ltmp761-Lfunc_begin17
	.uleb128 Ltmp740-Ltmp761
	.byte	0
	.byte	0
	.uleb128 Ltmp740-Lfunc_begin17
	.uleb128 Ltmp741-Ltmp740
	.uleb128 Ltmp773-Lfunc_begin17
	.byte	0
	.uleb128 Ltmp742-Lfunc_begin17
	.uleb128 Ltmp743-Ltmp742
	.uleb128 Ltmp744-Lfunc_begin17
	.byte	0
	.uleb128 Ltmp743-Lfunc_begin17
	.uleb128 Lfunc_end17-Ltmp743
	.byte	0
	.byte	0
Lcst_end17:
	.byte	0
	.byte	0
	.byte	1
	.byte	125
	.p2align	2
	.long	0
Lttbase17:
	.p2align	2

	.section	__TEXT,__text,regular,pure_instructions
	.p2align	4, 0x90
__ZN10rayon_core4join12join_context28_$u7b$$u7b$closure$u7d$$u7d$17h2d3dd6d208c66d50E:
Lfunc_begin18:
	.cfi_startproc
	.cfi_personality 155, _rust_eh_personality
	.cfi_lsda 16, Lexception18
	push	rbp
	.cfi_def_cfa_offset 16
	.cfi_offset rbp, -16
	mov	rbp, rsp
	.cfi_def_cfa_register rbp
	push	r15
	push	r14
	push	r13
	push	r12
	push	rbx
	and	rsp, -32
	sub	rsp, 736
	.cfi_offset rbx, -56
	.cfi_offset r12, -48
	.cfi_offset r13, -40
	.cfi_offset r14, -32
	.cfi_offset r15, -24
	mov	r8d, ecx
	mov	rbx, rdx
	mov	r12, rsi
	mov	qword ptr [rsp + 184], rdi
	mov	byte ptr [rsp + 672], 0
	lea	rdi, [rsp + 576]
	mov	ecx, 12
	rep movsq es:[rdi], [rsi]
	mov	qword ptr [rsp + 512], 0
	mov	rax, qword ptr [rdx + 256]
	mov	r15, qword ptr [rax + 264]
	mov	rax, qword ptr [rax + 256]
	mov	rsi, qword ptr [rdx + 272]
	mov	rcx, r15
	sub	rcx, rax
	cmp	rcx, rsi
	mov	dword ptr [rsp + 160], r8d
	jl	LBB18_4
	add	rsi, rsi
	jb	LBB18_7
	lea	rdi, [rbx + 256]
Ltmp774:
	call	__ZN15crossbeam_deque15Worker$LT$T$GT$6resize17h5c22be2b4226dcffE
Ltmp775:
	mov	rsi, qword ptr [rbx + 272]
LBB18_4:
	sub	rsi, 1
	jb	LBB18_5
	mov	rax, qword ptr [rbx + 264]
	and	rsi, r15
	shl	rsi, 4
	lea	r13, [rsp + 512]
	mov	qword ptr [rax + rsi], r13
	lea	r14, [rip + __ZN83_$LT$rayon_core..job..StackJob$LT$L$C$F$C$R$GT$$u20$as$u20$rayon_core..job..Job$GT$7execute17h8a1fb39f94c596efE]
	mov	qword ptr [rax + rsi + 8], r14
	##MEMBARRIER
	mov	rax, qword ptr [rbx + 256]
	inc	r15
	mov	qword ptr [rax + 264], r15
	mov	edi, 408
	add	rdi, qword ptr [rbx + 304]
	mov	rsi, qword ptr [rbx + 288]
Ltmp778:
	call	__ZN10rayon_core5sleep5Sleep6tickle17h00d06f732555dc32E
Ltmp779:
	mov	r9, qword ptr [r12 + 176]
	movdqu	xmm0, xmmword ptr [r12 + 96]
	movups	xmm1, xmmword ptr [r12 + 112]
	mov	r10, qword ptr [r12 + 168]
	mov	qword ptr [rsp + 72], r10
	mov	r11, qword ptr [r12 + 160]
	mov	qword ptr [rsp + 64], r11
	mov	r15, qword ptr [r12 + 152]
	mov	qword ptr [rsp + 56], r15
	mov	rdx, qword ptr [r12 + 144]
	mov	qword ptr [rsp + 48], rdx
	mov	rdi, qword ptr [r12 + 128]
	mov	r12, qword ptr [r12 + 136]
	mov	qword ptr [rsp + 40], r12
	mov	qword ptr [rsp + 32], rdi
	movq	rcx, xmm0
	mov	rsi, qword ptr [rcx]
	pshufd	xmm0, xmm0, 78
	movq	rax, xmm0
	mov	rcx, qword ptr [rax]
	mov	r8, qword ptr [rax + 8]
	movaps	xmmword ptr [rsp + 256], xmm1
	mov	qword ptr [rsp + 272], rdi
	mov	qword ptr [rsp + 280], r12
	mov	qword ptr [rsp + 288], rdx
	mov	qword ptr [rsp + 296], r15
	mov	qword ptr [rsp + 304], r11
	mov	qword ptr [rsp + 312], r10
Ltmp780:
	mov	qword ptr [rsp], r9
	movzx	r15d, byte ptr [rsp + 160]
	lea	rdi, [rsp + 96]
	lea	r9, [rsp + 256]
	mov	edx, r15d
	call	__ZN5rayon4iter8plumbing24bridge_producer_consumer6helper17h0d9ac3ab69930f11E
Ltmp781:
	movaps	xmm0, xmmword ptr [rsp + 96]
	movaps	xmmword ptr [rsp + 160], xmm0
	movdqa	xmm0, xmmword ptr [rsp + 112]
	movdqa	xmmword ptr [rsp + 464], xmm0
	lea	r12, [rsp + 672]
	mov	al, byte ptr [rsp + 672]
	test	al, al
	je	LBB18_12
	jmp	LBB18_16
	.p2align	4, 0x90
LBB18_23:
Ltmp790:
	mov	rdi, rbx
	mov	rsi, rax
	call	__ZN10rayon_core8registry12WorkerThread7execute17h2d3f3a8dd2af2716E
Ltmp791:
	movzx	eax, byte ptr [rsp + 672]
	test	al, al
	jne	LBB18_16
LBB18_12:
Ltmp788:
	mov	rdi, rbx
	call	__ZN10rayon_core8registry12WorkerThread14take_local_job17h123bfb54be8597fdE
Ltmp789:
	test	rdx, rdx
	je	LBB18_14
	cmp	rax, r13
	jne	LBB18_23
	cmp	rdx, r14
	jne	LBB18_23
	lea	rdi, [rsp + 256]
	lea	rsi, [rsp + 512]
	mov	edx, 192
	call	_memcpy
	mov	r11, qword ptr [rsp + 320]
	mov	r8, qword ptr [rsp + 328]
	mov	r10, qword ptr [rsp + 336]
	mov	rdx, qword ptr [rsp + 344]
	mov	qword ptr [rsp + 32], rdx
	mov	rdx, qword ptr [rsp + 352]
	mov	qword ptr [rsp + 40], rdx
	mov	rdx, qword ptr [rsp + 360]
	mov	qword ptr [rsp + 48], rdx
	mov	rdx, qword ptr [rsp + 368]
	mov	qword ptr [rsp + 56], rdx
	mov	rdx, qword ptr [rsp + 376]
	mov	qword ptr [rsp + 64], rdx
	mov	rdx, qword ptr [rsp + 384]
	mov	qword ptr [rsp + 72], rdx
	mov	rdx, qword ptr [rsp + 392]
	mov	qword ptr [rsp + 80], rdx
	mov	rdx, qword ptr [rsp + 400]
	mov	qword ptr [rsp + 88], rdx
	test	r11, r11
	je	LBB18_25
	mov	r9, qword ptr [rsp + 408]
	mov	rdi, qword ptr [rsp + 88]
	mov	qword ptr [rsp + 248], rdi
	mov	r14, qword ptr [rsp + 80]
	mov	qword ptr [rsp + 240], r14
	mov	rbx, qword ptr [rsp + 72]
	mov	qword ptr [rsp + 232], rbx
	mov	rdx, qword ptr [rsp + 64]
	mov	qword ptr [rsp + 224], rdx
	mov	rcx, qword ptr [rsp + 56]
	mov	qword ptr [rsp + 216], rcx
	mov	rax, qword ptr [rsp + 48]
	mov	qword ptr [rsp + 208], rax
	mov	rsi, qword ptr [rsp + 32]
	mov	rdi, qword ptr [rsp + 40]
	mov	qword ptr [rsp + 200], rdi
	mov	qword ptr [rsp + 192], rsi
	mov	qword ptr [rsp + 144], r14
	mov	qword ptr [rsp + 136], rbx
	mov	qword ptr [rsp + 128], rdx
	mov	qword ptr [rsp + 120], rcx
	mov	qword ptr [rsp + 112], rax
	mov	qword ptr [rsp + 104], rdi
	mov	qword ptr [rsp + 96], rsi
	mov	rax, qword ptr [rsp + 248]
	mov	qword ptr [rsp + 152], rax
	mov	rsi, qword ptr [r11]
	sub	rsi, qword ptr [r8]
	jb	LBB18_27
	mov	rcx, qword ptr [r10]
	mov	r8, qword ptr [r10 + 8]
	mov	rax, qword ptr [rsp + 152]
	mov	qword ptr [rsp + 88], rax
	mov	rax, qword ptr [rsp + 144]
	mov	qword ptr [rsp + 80], rax
	mov	rax, qword ptr [rsp + 136]
	mov	qword ptr [rsp + 72], rax
	mov	rax, qword ptr [rsp + 128]
	mov	qword ptr [rsp + 64], rax
	mov	rax, qword ptr [rsp + 120]
	mov	qword ptr [rsp + 56], rax
	mov	rax, qword ptr [rsp + 112]
	mov	qword ptr [rsp + 48], rax
	mov	rax, qword ptr [rsp + 96]
	mov	rdx, qword ptr [rsp + 104]
	mov	qword ptr [rsp + 40], rdx
	mov	qword ptr [rsp + 32], rax
Ltmp793:
	mov	qword ptr [rsp], r9
	lea	rdi, [rsp + 480]
	lea	r9, [rsp + 32]
	mov	edx, r15d
	call	__ZN5rayon4iter8plumbing24bridge_producer_consumer6helper17h0d9ac3ab69930f11E
Ltmp794:
	cmp	qword ptr [rsp + 256], 2
	jb	LBB18_33
	mov	r15, qword ptr [rsp + 264]
	mov	rbx, qword ptr [rsp + 272]
Ltmp795:
	mov	rdi, r15
	call	qword ptr [rbx]
Ltmp796:
	mov	rsi, qword ptr [rbx + 8]
	test	rsi, rsi
	je	LBB18_33
	mov	rdx, qword ptr [rbx + 16]
	mov	rdi, r15
	call	___rust_dealloc
LBB18_33:
	movaps	xmm0, xmmword ptr [rsp + 480]
	movaps	xmm1, xmmword ptr [rsp + 496]
	jmp	LBB18_37
LBB18_14:
	mov	al, byte ptr [rsp + 672]
	test	al, al
	jne	LBB18_16
Ltmp806:
	mov	rdi, rbx
	mov	rsi, r12
	call	__ZN10rayon_core8registry12WorkerThread15wait_until_cold17h4ea94d81ba0d12faE
Ltmp807:
LBB18_16:
	mov	rax, qword ptr [rsp + 512]
	cmp	rax, 1
	jne	LBB18_17
	movaps	xmm0, xmmword ptr [rsp + 544]
	movaps	xmm1, xmmword ptr [rsp + 560]
LBB18_37:
	mov	rax, qword ptr [rsp + 184]
	movaps	xmm2, xmmword ptr [rsp + 160]
	movaps	xmmword ptr [rax], xmm2
	movaps	xmm2, xmmword ptr [rsp + 464]
	movaps	xmmword ptr [rax + 16], xmm2
	movaps	xmmword ptr [rax + 32], xmm0
	movaps	xmmword ptr [rax + 48], xmm1
	lea	rsp, [rbp - 40]
	pop	rbx
	pop	r12
	pop	r13
	pop	r14
	pop	r15
	pop	rbp
	ret
LBB18_17:
	test	rax, rax
	je	LBB18_35
	mov	rdi, qword ptr [rsp + 520]
	mov	rsi, qword ptr [rsp + 528]
Ltmp809:
	call	__ZN10rayon_core6unwind16resume_unwinding17h47c2e39f90248736E
Ltmp810:
	jmp	LBB18_6
LBB18_5:
Ltmp814:
	lea	rdi, [rip + _str.1]
	lea	rdx, [rip + l___unnamed_1]
	mov	esi, 33
	call	__ZN4core9panicking5panic17h736ee47a631475c0E
Ltmp815:
	jmp	LBB18_6
LBB18_35:
Ltmp811:
	lea	rdi, [rip + l___unnamed_2]
	lea	rdx, [rip + l___unnamed_3]
	mov	esi, 40
	call	__ZN3std9panicking11begin_panic17h75aebe10c874e798E
Ltmp812:
	jmp	LBB18_6
LBB18_7:
Ltmp776:
	lea	rdi, [rip + _str.3]
	lea	rdx, [rip + l___unnamed_4]
	mov	esi, 33
	call	__ZN4core9panicking5panic17h736ee47a631475c0E
Ltmp777:
	jmp	LBB18_6
LBB18_25:
Ltmp800:
	lea	rdi, [rip + l___unnamed_5]
	lea	rdx, [rip + l___unnamed_6]
	mov	esi, 43
	call	__ZN4core9panicking5panic17h736ee47a631475c0E
Ltmp801:
	jmp	LBB18_6
LBB18_27:
Ltmp798:
	lea	rdi, [rip + _str.1]
	lea	rdx, [rip + l___unnamed_7]
	mov	esi, 33
	call	__ZN4core9panicking5panic17h736ee47a631475c0E
Ltmp799:
	jmp	LBB18_6
LBB18_47:
Ltmp813:
	jmp	LBB18_42
LBB18_40:
Ltmp808:
	jmp	LBB18_46
LBB18_38:
Ltmp797:
	mov	r14, rax
	mov	rdi, r15
	mov	rsi, rbx
	call	__ZN5alloc5alloc8box_free17hfd27018577a513c9E
	mov	rdi, r14
	call	__Unwind_Resume
	ud2
LBB18_34:
Ltmp802:
	mov	r14, rax
Ltmp803:
	lea	rdi, [rsp + 256]
	call	__ZN4core3ptr13drop_in_place17h07e85562a77b63c9E
Ltmp804:
	jmp	LBB18_43
LBB18_41:
Ltmp805:
LBB18_42:
	mov	r14, rax
	mov	rdi, r14
	call	__Unwind_Resume
	ud2
LBB18_19:
Ltmp782:
Ltmp783:
	mov	rdi, rax
	call	__ZN3std9panicking3try7cleanup17hd895f7beef0a7dadE
Ltmp784:
	mov	rcx, rdx
	lea	rsi, [rsp + 672]
Ltmp785:
	mov	rdi, rbx
	mov	rdx, rax
	call	__ZN10rayon_core4join23join_recover_from_panic17h65e0dcb6d5862f08E
Ltmp786:
LBB18_6:
	ud2
LBB18_45:
Ltmp787:
	jmp	LBB18_46
LBB18_44:
Ltmp816:
	jmp	LBB18_46
LBB18_39:
Ltmp792:
LBB18_46:
	mov	r14, rax
	lea	rdi, [rsp + 512]
	call	__ZN4core3ptr13drop_in_place17h07e85562a77b63c9E
LBB18_43:
	mov	rdi, r14
	call	__Unwind_Resume
	ud2
Lfunc_end18:
	.cfi_endproc
	.section	__TEXT,__gcc_except_tab
	.p2align	2
GCC_except_table18:
Lexception18:
	.byte	255
	.byte	155
	.uleb128 Lttbase18-Lttbaseref18
Lttbaseref18:
	.byte	1
	.uleb128 Lcst_end18-Lcst_begin18
Lcst_begin18:
	.uleb128 Ltmp774-Lfunc_begin18
	.uleb128 Ltmp779-Ltmp774
	.uleb128 Ltmp816-Lfunc_begin18
	.byte	0
	.uleb128 Ltmp780-Lfunc_begin18
	.uleb128 Ltmp781-Ltmp780
	.uleb128 Ltmp782-Lfunc_begin18
	.byte	3
	.uleb128 Ltmp790-Lfunc_begin18
	.uleb128 Ltmp789-Ltmp790
	.uleb128 Ltmp792-Lfunc_begin18
	.byte	0
	.uleb128 Ltmp789-Lfunc_begin18
	.uleb128 Ltmp793-Ltmp789
	.byte	0
	.byte	0
	.uleb128 Ltmp793-Lfunc_begin18
	.uleb128 Ltmp794-Ltmp793
	.uleb128 Ltmp802-Lfunc_begin18
	.byte	0
	.uleb128 Ltmp795-Lfunc_begin18
	.uleb128 Ltmp796-Ltmp795
	.uleb128 Ltmp797-Lfunc_begin18
	.byte	0
	.uleb128 Ltmp806-Lfunc_begin18
	.uleb128 Ltmp807-Ltmp806
	.uleb128 Ltmp808-Lfunc_begin18
	.byte	0
	.uleb128 Ltmp809-Lfunc_begin18
	.uleb128 Ltmp810-Ltmp809
	.uleb128 Ltmp813-Lfunc_begin18
	.byte	0
	.uleb128 Ltmp814-Lfunc_begin18
	.uleb128 Ltmp815-Ltmp814
	.uleb128 Ltmp816-Lfunc_begin18
	.byte	0
	.uleb128 Ltmp811-Lfunc_begin18
	.uleb128 Ltmp812-Ltmp811
	.uleb128 Ltmp813-Lfunc_begin18
	.byte	0
	.uleb128 Ltmp776-Lfunc_begin18
	.uleb128 Ltmp777-Ltmp776
	.uleb128 Ltmp816-Lfunc_begin18
	.byte	0
	.uleb128 Ltmp800-Lfunc_begin18
	.uleb128 Ltmp799-Ltmp800
	.uleb128 Ltmp802-Lfunc_begin18
	.byte	0
	.uleb128 Ltmp799-Lfunc_begin18
	.uleb128 Ltmp803-Ltmp799
	.byte	0
	.byte	0
	.uleb128 Ltmp803-Lfunc_begin18
	.uleb128 Ltmp804-Ltmp803
	.uleb128 Ltmp805-Lfunc_begin18
	.byte	0
	.uleb128 Ltmp804-Lfunc_begin18
	.uleb128 Ltmp783-Ltmp804
	.byte	0
	.byte	0
	.uleb128 Ltmp783-Lfunc_begin18
	.uleb128 Ltmp784-Ltmp783
	.uleb128 Ltmp816-Lfunc_begin18
	.byte	0
	.uleb128 Ltmp785-Lfunc_begin18
	.uleb128 Ltmp786-Ltmp785
	.uleb128 Ltmp787-Lfunc_begin18
	.byte	0
	.uleb128 Ltmp786-Lfunc_begin18
	.uleb128 Lfunc_end18-Ltmp786
	.byte	0
	.byte	0
Lcst_end18:
	.byte	0
	.byte	0
	.byte	1
	.byte	125
	.p2align	2
	.long	0
Lttbase18:
	.p2align	2

	.section	__TEXT,__text,regular,pure_instructions
	.p2align	4, 0x90
__ZN10rayon_core4join12join_context28_$u7b$$u7b$closure$u7d$$u7d$17h2d4354659a0a089cE:
Lfunc_begin19:
	.cfi_startproc
	.cfi_personality 155, _rust_eh_personality
	.cfi_lsda 16, Lexception19
	push	rbp
	.cfi_def_cfa_offset 16
	.cfi_offset rbp, -16
	mov	rbp, rsp
	.cfi_def_cfa_register rbp
	push	r15
	push	r14
	push	r13
	push	r12
	push	rbx
	sub	rsp, 328
	.cfi_offset rbx, -56
	.cfi_offset r12, -48
	.cfi_offset r13, -40
	.cfi_offset r14, -32
	.cfi_offset r15, -24
	mov	rbx, rdx
	mov	r12, rsi
	mov	qword ptr [rbp - 216], rdi
	mov	byte ptr [rbp - 120], 0
	mov	rax, qword ptr [rsi]
	mov	rdx, qword ptr [rsi + 8]
	mov	qword ptr [rbp - 176], rax
	mov	qword ptr [rbp - 168], rdx
	mov	rax, qword ptr [rsi + 16]
	mov	qword ptr [rbp - 160], rax
	mov	rax, qword ptr [rsi + 24]
	mov	qword ptr [rbp - 152], rax
	mov	rax, qword ptr [rsi + 32]
	mov	qword ptr [rbp - 144], rax
	mov	rax, qword ptr [rsi + 40]
	mov	qword ptr [rbp - 136], rax
	mov	rax, qword ptr [rsi + 48]
	mov	qword ptr [rbp - 128], rax
	mov	qword ptr [rbp - 208], 0
	mov	rax, qword ptr [rbx + 256]
	mov	r15, qword ptr [rax + 264]
	mov	rax, qword ptr [rax + 256]
	mov	rsi, qword ptr [rbx + 272]
	mov	rdx, r15
	sub	rdx, rax
	cmp	rdx, rsi
	mov	dword ptr [rbp - 112], ecx
	jl	LBB19_4
	add	rsi, rsi
	jb	LBB19_7
	lea	rdi, [rbx + 256]
Ltmp817:
	call	__ZN15crossbeam_deque15Worker$LT$T$GT$6resize17h5c22be2b4226dcffE
Ltmp818:
	mov	rsi, qword ptr [rbx + 272]
LBB19_4:
	sub	rsi, 1
	jb	LBB19_5
	mov	rax, qword ptr [rbx + 264]
	and	rsi, r15
	shl	rsi, 4
	lea	r13, [rbp - 208]
	mov	qword ptr [rax + rsi], r13
	lea	r14, [rip + __ZN83_$LT$rayon_core..job..StackJob$LT$L$C$F$C$R$GT$$u20$as$u20$rayon_core..job..Job$GT$7execute17h6322b935f4acc684E]
	mov	qword ptr [rax + rsi + 8], r14
	##MEMBARRIER
	mov	rax, qword ptr [rbx + 256]
	inc	r15
	mov	qword ptr [rax + 264], r15
	mov	edi, 408
	add	rdi, qword ptr [rbx + 304]
	mov	rsi, qword ptr [rbx + 288]
Ltmp821:
	call	__ZN10rayon_core5sleep5Sleep6tickle17h00d06f732555dc32E
Ltmp822:
	mov	rcx, qword ptr [r12 + 56]
	mov	r8, qword ptr [r12 + 64]
	mov	r9, qword ptr [r12 + 96]
	mov	rdi, qword ptr [r12 + 88]
	mov	qword ptr [rbp - 48], rdi
	mov	rax, qword ptr [r12 + 72]
	mov	rdx, qword ptr [r12 + 80]
	mov	qword ptr [rbp - 56], rdx
	mov	qword ptr [rbp - 64], rax
	mov	rsi, qword ptr [rcx]
	mov	rcx, qword ptr [r8]
	mov	r8, qword ptr [r8 + 8]
	mov	qword ptr [rbp - 304], rdi
	mov	qword ptr [rbp - 312], rdx
	mov	qword ptr [rbp - 320], rax
Ltmp823:
	mov	qword ptr [rsp], r9
	movzx	r15d, byte ptr [rbp - 112]
	lea	rdi, [rbp - 96]
	lea	r9, [rbp - 320]
	mov	edx, r15d
	call	__ZN5rayon4iter8plumbing24bridge_producer_consumer6helper17h4672c1ddc90ae474E
Ltmp824:
	movdqa	xmm0, xmmword ptr [rbp - 96]
	movdqa	xmmword ptr [rbp - 112], xmm0
	lea	r12, [rbp - 120]
	mov	al, byte ptr [rbp - 120]
	test	al, al
	je	LBB19_12
	jmp	LBB19_16
	.p2align	4, 0x90
LBB19_23:
Ltmp833:
	mov	rdi, rbx
	mov	rsi, rax
	call	__ZN10rayon_core8registry12WorkerThread7execute17h2d3f3a8dd2af2716E
Ltmp834:
	movzx	eax, byte ptr [rbp - 120]
	test	al, al
	jne	LBB19_16
LBB19_12:
Ltmp831:
	mov	rdi, rbx
	call	__ZN10rayon_core8registry12WorkerThread14take_local_job17h123bfb54be8597fdE
Ltmp832:
	test	rdx, rdx
	je	LBB19_14
	cmp	rax, r13
	jne	LBB19_23
	cmp	rdx, r14
	jne	LBB19_23
	movaps	xmm0, xmmword ptr [rbp - 128]
	movaps	xmmword ptr [rbp - 240], xmm0
	movaps	xmm0, xmmword ptr [rbp - 144]
	movaps	xmmword ptr [rbp - 256], xmm0
	movdqa	xmm0, xmmword ptr [rbp - 208]
	movaps	xmm1, xmmword ptr [rbp - 192]
	movaps	xmm2, xmmword ptr [rbp - 176]
	movaps	xmm3, xmmword ptr [rbp - 160]
	movaps	xmmword ptr [rbp - 272], xmm3
	movaps	xmmword ptr [rbp - 288], xmm2
	movaps	xmmword ptr [rbp - 304], xmm1
	movdqa	xmmword ptr [rbp - 320], xmm0
	mov	rsi, qword ptr [rbp - 288]
	mov	rcx, qword ptr [rbp - 280]
	mov	rax, qword ptr [rbp - 272]
	mov	rdx, qword ptr [rbp - 264]
	mov	qword ptr [rbp - 64], rdx
	mov	rdx, qword ptr [rbp - 256]
	mov	rdi, qword ptr [rbp - 248]
	mov	qword ptr [rbp - 56], rdx
	mov	qword ptr [rbp - 48], rdi
	test	rsi, rsi
	je	LBB19_25
	mov	r9, qword ptr [rbp - 240]
	mov	rdi, qword ptr [rbp - 48]
	mov	qword ptr [rbp - 344], rdi
	mov	rbx, qword ptr [rbp - 64]
	mov	rdx, qword ptr [rbp - 56]
	mov	qword ptr [rbp - 352], rdx
	mov	qword ptr [rbp - 360], rbx
	mov	qword ptr [rbp - 80], rdi
	mov	qword ptr [rbp - 88], rdx
	mov	qword ptr [rbp - 96], rbx
	mov	rsi, qword ptr [rsi]
	sub	rsi, qword ptr [rcx]
	jb	LBB19_34
	mov	rcx, qword ptr [rax]
	mov	r8, qword ptr [rax + 8]
	mov	rax, qword ptr [rbp - 80]
	mov	qword ptr [rbp - 48], rax
	mov	rax, qword ptr [rbp - 96]
	mov	rdx, qword ptr [rbp - 88]
	mov	qword ptr [rbp - 56], rdx
	mov	qword ptr [rbp - 64], rax
Ltmp836:
	mov	qword ptr [rsp], r9
	lea	rdi, [rbp - 336]
	lea	r9, [rbp - 64]
	mov	edx, r15d
	call	__ZN5rayon4iter8plumbing24bridge_producer_consumer6helper17h4672c1ddc90ae474E
Ltmp837:
	cmp	qword ptr [rbp - 320], 2
	jb	LBB19_32
	mov	r15, qword ptr [rbp - 312]
	mov	rbx, qword ptr [rbp - 304]
Ltmp838:
	mov	rdi, r15
	call	qword ptr [rbx]
Ltmp839:
	mov	rsi, qword ptr [rbx + 8]
	test	rsi, rsi
	je	LBB19_32
	mov	rdx, qword ptr [rbx + 16]
	mov	rdi, r15
	call	___rust_dealloc
LBB19_32:
	movdqa	xmm0, xmmword ptr [rbp - 336]
	jmp	LBB19_33
LBB19_14:
	mov	al, byte ptr [rbp - 120]
	test	al, al
	jne	LBB19_16
Ltmp849:
	mov	rdi, rbx
	mov	rsi, r12
	call	__ZN10rayon_core8registry12WorkerThread15wait_until_cold17h4ea94d81ba0d12faE
Ltmp850:
LBB19_16:
	mov	rax, qword ptr [rbp - 208]
	movdqa	xmm0, xmmword ptr [rbp - 192]
	cmp	rax, 1
	jne	LBB19_17
LBB19_33:
	mov	rax, qword ptr [rbp - 216]
	movaps	xmm1, xmmword ptr [rbp - 112]
	movaps	xmmword ptr [rax], xmm1
	movdqa	xmmword ptr [rax + 16], xmm0
	add	rsp, 328
	pop	rbx
	pop	r12
	pop	r13
	pop	r14
	pop	r15
	pop	rbp
	ret
LBB19_17:
	test	rax, rax
	je	LBB19_36
	mov	rdi, qword ptr [rbp - 200]
	movq	rsi, xmm0
Ltmp852:
	call	__ZN10rayon_core6unwind16resume_unwinding17h47c2e39f90248736E
Ltmp853:
	jmp	LBB19_6
LBB19_5:
Ltmp857:
	lea	rdi, [rip + _str.1]
	lea	rdx, [rip + l___unnamed_1]
	mov	esi, 33
	call	__ZN4core9panicking5panic17h736ee47a631475c0E
Ltmp858:
	jmp	LBB19_6
LBB19_36:
Ltmp854:
	lea	rdi, [rip + l___unnamed_2]
	lea	rdx, [rip + l___unnamed_3]
	mov	esi, 40
	call	__ZN3std9panicking11begin_panic17h75aebe10c874e798E
Ltmp855:
	jmp	LBB19_6
LBB19_7:
Ltmp819:
	lea	rdi, [rip + _str.3]
	lea	rdx, [rip + l___unnamed_4]
	mov	esi, 33
	call	__ZN4core9panicking5panic17h736ee47a631475c0E
Ltmp820:
	jmp	LBB19_6
LBB19_25:
Ltmp843:
	lea	rdi, [rip + l___unnamed_5]
	lea	rdx, [rip + l___unnamed_6]
	mov	esi, 43
	call	__ZN4core9panicking5panic17h736ee47a631475c0E
Ltmp844:
	jmp	LBB19_6
LBB19_34:
Ltmp841:
	lea	rdi, [rip + _str.1]
	lea	rdx, [rip + l___unnamed_7]
	mov	esi, 33
	call	__ZN4core9panicking5panic17h736ee47a631475c0E
Ltmp842:
	jmp	LBB19_6
LBB19_46:
Ltmp856:
	jmp	LBB19_41
LBB19_39:
Ltmp851:
	jmp	LBB19_45
LBB19_37:
Ltmp840:
	mov	r14, rax
	mov	rdi, r15
	mov	rsi, rbx
	call	__ZN5alloc5alloc8box_free17hfd27018577a513c9E
	mov	rdi, r14
	call	__Unwind_Resume
	ud2
LBB19_35:
Ltmp845:
	mov	r14, rax
Ltmp846:
	lea	rdi, [rbp - 320]
	call	__ZN4core3ptr13drop_in_place17h03e3d151d67a9ae6E
Ltmp847:
	jmp	LBB19_42
LBB19_40:
Ltmp848:
LBB19_41:
	mov	r14, rax
	mov	rdi, r14
	call	__Unwind_Resume
	ud2
LBB19_19:
Ltmp825:
Ltmp826:
	mov	rdi, rax
	call	__ZN3std9panicking3try7cleanup17hd895f7beef0a7dadE
Ltmp827:
	mov	rcx, rdx
	lea	rsi, [rbp - 120]
Ltmp828:
	mov	rdi, rbx
	mov	rdx, rax
	call	__ZN10rayon_core4join23join_recover_from_panic17h65e0dcb6d5862f08E
Ltmp829:
LBB19_6:
	ud2
LBB19_44:
Ltmp830:
	jmp	LBB19_45
LBB19_43:
Ltmp859:
	jmp	LBB19_45
LBB19_38:
Ltmp835:
LBB19_45:
	mov	r14, rax
	lea	rdi, [rbp - 208]
	call	__ZN4core3ptr13drop_in_place17h03e3d151d67a9ae6E
LBB19_42:
	mov	rdi, r14
	call	__Unwind_Resume
	ud2
Lfunc_end19:
	.cfi_endproc
	.section	__TEXT,__gcc_except_tab
	.p2align	2
GCC_except_table19:
Lexception19:
	.byte	255
	.byte	155
	.uleb128 Lttbase19-Lttbaseref19
Lttbaseref19:
	.byte	1
	.uleb128 Lcst_end19-Lcst_begin19
Lcst_begin19:
	.uleb128 Ltmp817-Lfunc_begin19
	.uleb128 Ltmp822-Ltmp817
	.uleb128 Ltmp859-Lfunc_begin19
	.byte	0
	.uleb128 Ltmp823-Lfunc_begin19
	.uleb128 Ltmp824-Ltmp823
	.uleb128 Ltmp825-Lfunc_begin19
	.byte	3
	.uleb128 Ltmp833-Lfunc_begin19
	.uleb128 Ltmp832-Ltmp833
	.uleb128 Ltmp835-Lfunc_begin19
	.byte	0
	.uleb128 Ltmp836-Lfunc_begin19
	.uleb128 Ltmp837-Ltmp836
	.uleb128 Ltmp845-Lfunc_begin19
	.byte	0
	.uleb128 Ltmp838-Lfunc_begin19
	.uleb128 Ltmp839-Ltmp838
	.uleb128 Ltmp840-Lfunc_begin19
	.byte	0
	.uleb128 Ltmp849-Lfunc_begin19
	.uleb128 Ltmp850-Ltmp849
	.uleb128 Ltmp851-Lfunc_begin19
	.byte	0
	.uleb128 Ltmp852-Lfunc_begin19
	.uleb128 Ltmp853-Ltmp852
	.uleb128 Ltmp856-Lfunc_begin19
	.byte	0
	.uleb128 Ltmp857-Lfunc_begin19
	.uleb128 Ltmp858-Ltmp857
	.uleb128 Ltmp859-Lfunc_begin19
	.byte	0
	.uleb128 Ltmp854-Lfunc_begin19
	.uleb128 Ltmp855-Ltmp854
	.uleb128 Ltmp856-Lfunc_begin19
	.byte	0
	.uleb128 Ltmp819-Lfunc_begin19
	.uleb128 Ltmp820-Ltmp819
	.uleb128 Ltmp859-Lfunc_begin19
	.byte	0
	.uleb128 Ltmp843-Lfunc_begin19
	.uleb128 Ltmp842-Ltmp843
	.uleb128 Ltmp845-Lfunc_begin19
	.byte	0
	.uleb128 Ltmp842-Lfunc_begin19
	.uleb128 Ltmp846-Ltmp842
	.byte	0
	.byte	0
	.uleb128 Ltmp846-Lfunc_begin19
	.uleb128 Ltmp847-Ltmp846
	.uleb128 Ltmp848-Lfunc_begin19
	.byte	0
	.uleb128 Ltmp847-Lfunc_begin19
	.uleb128 Ltmp826-Ltmp847
	.byte	0
	.byte	0
	.uleb128 Ltmp826-Lfunc_begin19
	.uleb128 Ltmp827-Ltmp826
	.uleb128 Ltmp859-Lfunc_begin19
	.byte	0
	.uleb128 Ltmp828-Lfunc_begin19
	.uleb128 Ltmp829-Ltmp828
	.uleb128 Ltmp830-Lfunc_begin19
	.byte	0
	.uleb128 Ltmp829-Lfunc_begin19
	.uleb128 Lfunc_end19-Ltmp829
	.byte	0
	.byte	0
Lcst_end19:
	.byte	0
	.byte	0
	.byte	1
	.byte	125
	.p2align	2
	.long	0
Lttbase19:
	.p2align	2

	.section	__TEXT,__text,regular,pure_instructions
	.p2align	4, 0x90
__ZN10rayon_core4join12join_context28_$u7b$$u7b$closure$u7d$$u7d$17h32900ea28b50ec77E:
Lfunc_begin20:
	.cfi_startproc
	.cfi_personality 155, _rust_eh_personality
	.cfi_lsda 16, Lexception20
	push	rbp
	.cfi_def_cfa_offset 16
	.cfi_offset rbp, -16
	mov	rbp, rsp
	.cfi_def_cfa_register rbp
	push	r15
	push	r14
	push	r13
	push	r12
	push	rbx
	sub	rsp, 552
	.cfi_offset rbx, -56
	.cfi_offset r12, -48
	.cfi_offset r13, -40
	.cfi_offset r14, -32
	.cfi_offset r15, -24
	mov	r8d, ecx
	mov	rbx, rdx
	mov	r12, rsi
	mov	qword ptr [rbp - 200], rdi
	mov	byte ptr [rbp - 448], 0
	lea	rdi, [rbp - 544]
	mov	ecx, 12
	rep movsq es:[rdi], [rsi]
	mov	qword ptr [rbp - 576], 0
	mov	rax, qword ptr [rdx + 256]
	mov	r15, qword ptr [rax + 264]
	mov	rax, qword ptr [rax + 256]
	mov	rsi, qword ptr [rdx + 272]
	mov	rcx, r15
	sub	rcx, rax
	cmp	rcx, rsi
	mov	dword ptr [rbp - 192], r8d
	jl	LBB20_4
	add	rsi, rsi
	jb	LBB20_7
	lea	rdi, [rbx + 256]
Ltmp860:
	call	__ZN15crossbeam_deque15Worker$LT$T$GT$6resize17h5c22be2b4226dcffE
Ltmp861:
	mov	rsi, qword ptr [rbx + 272]
LBB20_4:
	sub	rsi, 1
	jb	LBB20_5
	mov	rax, qword ptr [rbx + 264]
	and	rsi, r15
	shl	rsi, 4
	lea	r13, [rbp - 576]
	mov	qword ptr [rax + rsi], r13
	lea	r14, [rip + __ZN83_$LT$rayon_core..job..StackJob$LT$L$C$F$C$R$GT$$u20$as$u20$rayon_core..job..Job$GT$7execute17h818f49af5e5f2d9cE]
	mov	qword ptr [rax + rsi + 8], r14
	##MEMBARRIER
	mov	rax, qword ptr [rbx + 256]
	inc	r15
	mov	qword ptr [rax + 264], r15
	mov	edi, 408
	add	rdi, qword ptr [rbx + 304]
	mov	rsi, qword ptr [rbx + 288]
Ltmp864:
	call	__ZN10rayon_core5sleep5Sleep6tickle17h00d06f732555dc32E
Ltmp865:
	movdqu	xmm0, xmmword ptr [r12 + 96]
	mov	rax, qword ptr [r12 + 176]
	movq	rcx, xmm0
	pshufd	xmm0, xmm0, 78
	movq	rdx, xmm0
	mov	rsi, qword ptr [r12 + 168]
	mov	qword ptr [rbp - 48], rsi
	mov	rsi, qword ptr [r12 + 160]
	mov	qword ptr [rbp - 56], rsi
	mov	rsi, qword ptr [r12 + 152]
	mov	qword ptr [rbp - 64], rsi
	mov	rsi, qword ptr [r12 + 144]
	mov	qword ptr [rbp - 72], rsi
	mov	rsi, qword ptr [r12 + 136]
	mov	qword ptr [rbp - 80], rsi
	mov	rsi, qword ptr [r12 + 128]
	mov	qword ptr [rbp - 88], rsi
	mov	rsi, qword ptr [r12 + 112]
	mov	rdi, qword ptr [r12 + 120]
	mov	qword ptr [rbp - 96], rdi
	mov	qword ptr [rbp - 104], rsi
	mov	rsi, qword ptr [rcx]
	mov	rcx, qword ptr [rdx]
	mov	r8, qword ptr [rdx + 8]
	mov	rdx, qword ptr [rbp - 48]
	mov	qword ptr [rbp - 296], rdx
	mov	rdx, qword ptr [rbp - 56]
	mov	qword ptr [rbp - 304], rdx
	mov	rdx, qword ptr [rbp - 64]
	mov	qword ptr [rbp - 312], rdx
	mov	rdx, qword ptr [rbp - 72]
	mov	qword ptr [rbp - 320], rdx
	mov	rdx, qword ptr [rbp - 80]
	mov	qword ptr [rbp - 328], rdx
	mov	rdx, qword ptr [rbp - 88]
	mov	qword ptr [rbp - 336], rdx
	mov	rdx, qword ptr [rbp - 104]
	mov	rdi, qword ptr [rbp - 96]
	mov	qword ptr [rbp - 344], rdi
	mov	qword ptr [rbp - 352], rdx
Ltmp866:
	mov	qword ptr [rsp], rax
	movzx	r15d, byte ptr [rbp - 192]
	lea	rdi, [rbp - 176]
	lea	r9, [rbp - 352]
	mov	edx, r15d
	call	__ZN5rayon4iter8plumbing24bridge_producer_consumer6helper17hee8b237da5aa20b5E
Ltmp867:
	movdqa	xmm0, xmmword ptr [rbp - 176]
	movdqa	xmmword ptr [rbp - 192], xmm0
	lea	r12, [rbp - 448]
	mov	al, byte ptr [rbp - 448]
	test	al, al
	je	LBB20_12
	jmp	LBB20_16
	.p2align	4, 0x90
LBB20_23:
Ltmp876:
	mov	rdi, rbx
	mov	rsi, rax
	call	__ZN10rayon_core8registry12WorkerThread7execute17h2d3f3a8dd2af2716E
Ltmp877:
	movzx	eax, byte ptr [rbp - 448]
	test	al, al
	jne	LBB20_16
LBB20_12:
Ltmp874:
	mov	rdi, rbx
	call	__ZN10rayon_core8registry12WorkerThread14take_local_job17h123bfb54be8597fdE
Ltmp875:
	test	rdx, rdx
	je	LBB20_14
	cmp	rax, r13
	jne	LBB20_23
	cmp	rdx, r14
	jne	LBB20_23
	lea	rdi, [rbp - 352]
	lea	rsi, [rbp - 576]
	mov	edx, 144
	call	_memcpy
	mov	r11, qword ptr [rbp - 320]
	mov	r8, qword ptr [rbp - 312]
	mov	r10, qword ptr [rbp - 304]
	mov	rdx, qword ptr [rbp - 296]
	mov	qword ptr [rbp - 104], rdx
	mov	rdx, qword ptr [rbp - 288]
	mov	qword ptr [rbp - 96], rdx
	mov	rdx, qword ptr [rbp - 280]
	mov	qword ptr [rbp - 88], rdx
	mov	rdx, qword ptr [rbp - 272]
	mov	qword ptr [rbp - 80], rdx
	mov	rdx, qword ptr [rbp - 264]
	mov	qword ptr [rbp - 72], rdx
	mov	rdx, qword ptr [rbp - 256]
	mov	qword ptr [rbp - 64], rdx
	mov	rdx, qword ptr [rbp - 248]
	mov	qword ptr [rbp - 56], rdx
	mov	rdx, qword ptr [rbp - 240]
	mov	qword ptr [rbp - 48], rdx
	test	r11, r11
	je	LBB20_25
	mov	r9, qword ptr [rbp - 232]
	mov	rdi, qword ptr [rbp - 48]
	mov	qword ptr [rbp - 360], rdi
	mov	r14, qword ptr [rbp - 56]
	mov	qword ptr [rbp - 368], r14
	mov	rbx, qword ptr [rbp - 64]
	mov	qword ptr [rbp - 376], rbx
	mov	rdx, qword ptr [rbp - 72]
	mov	qword ptr [rbp - 384], rdx
	mov	rcx, qword ptr [rbp - 80]
	mov	qword ptr [rbp - 392], rcx
	mov	rax, qword ptr [rbp - 88]
	mov	qword ptr [rbp - 400], rax
	mov	rsi, qword ptr [rbp - 104]
	mov	rdi, qword ptr [rbp - 96]
	mov	qword ptr [rbp - 408], rdi
	mov	qword ptr [rbp - 416], rsi
	mov	qword ptr [rbp - 128], r14
	mov	qword ptr [rbp - 136], rbx
	mov	qword ptr [rbp - 144], rdx
	mov	qword ptr [rbp - 152], rcx
	mov	qword ptr [rbp - 160], rax
	mov	qword ptr [rbp - 168], rdi
	mov	qword ptr [rbp - 176], rsi
	mov	rax, qword ptr [rbp - 360]
	mov	qword ptr [rbp - 120], rax
	mov	rsi, qword ptr [r11]
	sub	rsi, qword ptr [r8]
	jb	LBB20_27
	mov	rcx, qword ptr [r10]
	mov	r8, qword ptr [r10 + 8]
	mov	rax, qword ptr [rbp - 120]
	mov	qword ptr [rbp - 48], rax
	mov	rax, qword ptr [rbp - 128]
	mov	qword ptr [rbp - 56], rax
	mov	rax, qword ptr [rbp - 136]
	mov	qword ptr [rbp - 64], rax
	mov	rax, qword ptr [rbp - 144]
	mov	qword ptr [rbp - 72], rax
	mov	rax, qword ptr [rbp - 152]
	mov	qword ptr [rbp - 80], rax
	mov	rax, qword ptr [rbp - 160]
	mov	qword ptr [rbp - 88], rax
	mov	rax, qword ptr [rbp - 176]
	mov	rdx, qword ptr [rbp - 168]
	mov	qword ptr [rbp - 96], rdx
	mov	qword ptr [rbp - 104], rax
Ltmp879:
	mov	qword ptr [rsp], r9
	lea	rdi, [rbp - 432]
	lea	r9, [rbp - 104]
	mov	edx, r15d
	call	__ZN5rayon4iter8plumbing24bridge_producer_consumer6helper17hee8b237da5aa20b5E
Ltmp880:
	cmp	qword ptr [rbp - 352], 2
	jb	LBB20_33
	mov	r15, qword ptr [rbp - 344]
	mov	rbx, qword ptr [rbp - 336]
Ltmp881:
	mov	rdi, r15
	call	qword ptr [rbx]
Ltmp882:
	mov	rsi, qword ptr [rbx + 8]
	test	rsi, rsi
	je	LBB20_33
	mov	rdx, qword ptr [rbx + 16]
	mov	rdi, r15
	call	___rust_dealloc
LBB20_33:
	movdqa	xmm0, xmmword ptr [rbp - 432]
	jmp	LBB20_34
LBB20_14:
	mov	al, byte ptr [rbp - 448]
	test	al, al
	jne	LBB20_16
Ltmp892:
	mov	rdi, rbx
	mov	rsi, r12
	call	__ZN10rayon_core8registry12WorkerThread15wait_until_cold17h4ea94d81ba0d12faE
Ltmp893:
LBB20_16:
	mov	rax, qword ptr [rbp - 576]
	movdqa	xmm0, xmmword ptr [rbp - 560]
	cmp	rax, 1
	jne	LBB20_17
LBB20_34:
	mov	rax, qword ptr [rbp - 200]
	movaps	xmm1, xmmword ptr [rbp - 192]
	movaps	xmmword ptr [rax], xmm1
	movdqa	xmmword ptr [rax + 16], xmm0
	add	rsp, 552
	pop	rbx
	pop	r12
	pop	r13
	pop	r14
	pop	r15
	pop	rbp
	ret
LBB20_17:
	test	rax, rax
	je	LBB20_36
	mov	rdi, qword ptr [rbp - 568]
	movq	rsi, xmm0
Ltmp895:
	call	__ZN10rayon_core6unwind16resume_unwinding17h47c2e39f90248736E
Ltmp896:
	jmp	LBB20_6
LBB20_5:
Ltmp900:
	lea	rdi, [rip + _str.1]
	lea	rdx, [rip + l___unnamed_1]
	mov	esi, 33
	call	__ZN4core9panicking5panic17h736ee47a631475c0E
Ltmp901:
	jmp	LBB20_6
LBB20_36:
Ltmp897:
	lea	rdi, [rip + l___unnamed_2]
	lea	rdx, [rip + l___unnamed_3]
	mov	esi, 40
	call	__ZN3std9panicking11begin_panic17h75aebe10c874e798E
Ltmp898:
	jmp	LBB20_6
LBB20_7:
Ltmp862:
	lea	rdi, [rip + _str.3]
	lea	rdx, [rip + l___unnamed_4]
	mov	esi, 33
	call	__ZN4core9panicking5panic17h736ee47a631475c0E
Ltmp863:
	jmp	LBB20_6
LBB20_25:
Ltmp886:
	lea	rdi, [rip + l___unnamed_5]
	lea	rdx, [rip + l___unnamed_6]
	mov	esi, 43
	call	__ZN4core9panicking5panic17h736ee47a631475c0E
Ltmp887:
	jmp	LBB20_6
LBB20_27:
Ltmp884:
	lea	rdi, [rip + _str.1]
	lea	rdx, [rip + l___unnamed_7]
	mov	esi, 33
	call	__ZN4core9panicking5panic17h736ee47a631475c0E
Ltmp885:
	jmp	LBB20_6
LBB20_46:
Ltmp899:
	jmp	LBB20_41
LBB20_39:
Ltmp894:
	jmp	LBB20_45
LBB20_37:
Ltmp883:
	mov	r14, rax
	mov	rdi, r15
	mov	rsi, rbx
	call	__ZN5alloc5alloc8box_free17hfd27018577a513c9E
	mov	rdi, r14
	call	__Unwind_Resume
	ud2
LBB20_35:
Ltmp888:
	mov	r14, rax
Ltmp889:
	lea	rdi, [rbp - 352]
	call	__ZN4core3ptr13drop_in_place17h03e3d151d67a9ae6E
Ltmp890:
	jmp	LBB20_42
LBB20_40:
Ltmp891:
LBB20_41:
	mov	r14, rax
	mov	rdi, r14
	call	__Unwind_Resume
	ud2
LBB20_19:
Ltmp868:
Ltmp869:
	mov	rdi, rax
	call	__ZN3std9panicking3try7cleanup17hd895f7beef0a7dadE
Ltmp870:
	mov	rcx, rdx
	lea	rsi, [rbp - 448]
Ltmp871:
	mov	rdi, rbx
	mov	rdx, rax
	call	__ZN10rayon_core4join23join_recover_from_panic17h65e0dcb6d5862f08E
Ltmp872:
LBB20_6:
	ud2
LBB20_44:
Ltmp873:
	jmp	LBB20_45
LBB20_43:
Ltmp902:
	jmp	LBB20_45
LBB20_38:
Ltmp878:
LBB20_45:
	mov	r14, rax
	lea	rdi, [rbp - 576]
	call	__ZN4core3ptr13drop_in_place17h03e3d151d67a9ae6E
LBB20_42:
	mov	rdi, r14
	call	__Unwind_Resume
	ud2
Lfunc_end20:
	.cfi_endproc
	.section	__TEXT,__gcc_except_tab
	.p2align	2
GCC_except_table20:
Lexception20:
	.byte	255
	.byte	155
	.uleb128 Lttbase20-Lttbaseref20
Lttbaseref20:
	.byte	1
	.uleb128 Lcst_end20-Lcst_begin20
Lcst_begin20:
	.uleb128 Ltmp860-Lfunc_begin20
	.uleb128 Ltmp865-Ltmp860
	.uleb128 Ltmp902-Lfunc_begin20
	.byte	0
	.uleb128 Ltmp866-Lfunc_begin20
	.uleb128 Ltmp867-Ltmp866
	.uleb128 Ltmp868-Lfunc_begin20
	.byte	3
	.uleb128 Ltmp876-Lfunc_begin20
	.uleb128 Ltmp875-Ltmp876
	.uleb128 Ltmp878-Lfunc_begin20
	.byte	0
	.uleb128 Ltmp875-Lfunc_begin20
	.uleb128 Ltmp879-Ltmp875
	.byte	0
	.byte	0
	.uleb128 Ltmp879-Lfunc_begin20
	.uleb128 Ltmp880-Ltmp879
	.uleb128 Ltmp888-Lfunc_begin20
	.byte	0
	.uleb128 Ltmp881-Lfunc_begin20
	.uleb128 Ltmp882-Ltmp881
	.uleb128 Ltmp883-Lfunc_begin20
	.byte	0
	.uleb128 Ltmp892-Lfunc_begin20
	.uleb128 Ltmp893-Ltmp892
	.uleb128 Ltmp894-Lfunc_begin20
	.byte	0
	.uleb128 Ltmp895-Lfunc_begin20
	.uleb128 Ltmp896-Ltmp895
	.uleb128 Ltmp899-Lfunc_begin20
	.byte	0
	.uleb128 Ltmp900-Lfunc_begin20
	.uleb128 Ltmp901-Ltmp900
	.uleb128 Ltmp902-Lfunc_begin20
	.byte	0
	.uleb128 Ltmp897-Lfunc_begin20
	.uleb128 Ltmp898-Ltmp897
	.uleb128 Ltmp899-Lfunc_begin20
	.byte	0
	.uleb128 Ltmp862-Lfunc_begin20
	.uleb128 Ltmp863-Ltmp862
	.uleb128 Ltmp902-Lfunc_begin20
	.byte	0
	.uleb128 Ltmp886-Lfunc_begin20
	.uleb128 Ltmp885-Ltmp886
	.uleb128 Ltmp888-Lfunc_begin20
	.byte	0
	.uleb128 Ltmp885-Lfunc_begin20
	.uleb128 Ltmp889-Ltmp885
	.byte	0
	.byte	0
	.uleb128 Ltmp889-Lfunc_begin20
	.uleb128 Ltmp890-Ltmp889
	.uleb128 Ltmp891-Lfunc_begin20
	.byte	0
	.uleb128 Ltmp890-Lfunc_begin20
	.uleb128 Ltmp869-Ltmp890
	.byte	0
	.byte	0
	.uleb128 Ltmp869-Lfunc_begin20
	.uleb128 Ltmp870-Ltmp869
	.uleb128 Ltmp902-Lfunc_begin20
	.byte	0
	.uleb128 Ltmp871-Lfunc_begin20
	.uleb128 Ltmp872-Ltmp871
	.uleb128 Ltmp873-Lfunc_begin20
	.byte	0
	.uleb128 Ltmp872-Lfunc_begin20
	.uleb128 Lfunc_end20-Ltmp872
	.byte	0
	.byte	0
Lcst_end20:
	.byte	0
	.byte	0
	.byte	1
	.byte	125
	.p2align	2
	.long	0
Lttbase20:
	.p2align	2

	.section	__TEXT,__text,regular,pure_instructions
	.p2align	4, 0x90
__ZN10rayon_core4join12join_context28_$u7b$$u7b$closure$u7d$$u7d$17h34719aa7d8dc52eaE:
Lfunc_begin21:
	.cfi_startproc
	.cfi_personality 155, _rust_eh_personality
	.cfi_lsda 16, Lexception21
	push	rbp
	.cfi_def_cfa_offset 16
	.cfi_offset rbp, -16
	mov	rbp, rsp
	.cfi_def_cfa_register rbp
	push	r15
	push	r14
	push	r13
	push	r12
	push	rbx
	and	rsp, -32
	sub	rsp, 736
	.cfi_offset rbx, -56
	.cfi_offset r12, -48
	.cfi_offset r13, -40
	.cfi_offset r14, -32
	.cfi_offset r15, -24
	mov	r8d, ecx
	mov	rbx, rdx
	mov	r12, rsi
	mov	qword ptr [rsp + 184], rdi
	mov	byte ptr [rsp + 672], 0
	lea	rdi, [rsp + 576]
	mov	ecx, 12
	rep movsq es:[rdi], [rsi]
	mov	qword ptr [rsp + 512], 0
	mov	rax, qword ptr [rdx + 256]
	mov	r15, qword ptr [rax + 264]
	mov	rax, qword ptr [rax + 256]
	mov	rsi, qword ptr [rdx + 272]
	mov	rcx, r15
	sub	rcx, rax
	cmp	rcx, rsi
	mov	dword ptr [rsp + 160], r8d
	jl	LBB21_4
	add	rsi, rsi
	jb	LBB21_7
	lea	rdi, [rbx + 256]
Ltmp903:
	call	__ZN15crossbeam_deque15Worker$LT$T$GT$6resize17h5c22be2b4226dcffE
Ltmp904:
	mov	rsi, qword ptr [rbx + 272]
LBB21_4:
	sub	rsi, 1
	jb	LBB21_5
	mov	rax, qword ptr [rbx + 264]
	and	rsi, r15
	shl	rsi, 4
	lea	r13, [rsp + 512]
	mov	qword ptr [rax + rsi], r13
	lea	r14, [rip + __ZN83_$LT$rayon_core..job..StackJob$LT$L$C$F$C$R$GT$$u20$as$u20$rayon_core..job..Job$GT$7execute17h22de6753b5f0ccb4E]
	mov	qword ptr [rax + rsi + 8], r14
	##MEMBARRIER
	mov	rax, qword ptr [rbx + 256]
	inc	r15
	mov	qword ptr [rax + 264], r15
	mov	edi, 408
	add	rdi, qword ptr [rbx + 304]
	mov	rsi, qword ptr [rbx + 288]
Ltmp907:
	call	__ZN10rayon_core5sleep5Sleep6tickle17h00d06f732555dc32E
Ltmp908:
	mov	r9, qword ptr [r12 + 176]
	movdqu	xmm0, xmmword ptr [r12 + 96]
	movups	xmm1, xmmword ptr [r12 + 112]
	movq	rcx, xmm0
	pshufd	xmm0, xmm0, 78
	movq	r8, xmm0
	mov	r10, qword ptr [r12 + 168]
	mov	qword ptr [rsp + 72], r10
	mov	r11, qword ptr [r12 + 160]
	mov	qword ptr [rsp + 64], r11
	mov	r15, qword ptr [r12 + 152]
	mov	qword ptr [rsp + 56], r15
	mov	rax, qword ptr [r12 + 144]
	mov	qword ptr [rsp + 48], rax
	mov	rdx, qword ptr [r12 + 128]
	mov	rdi, qword ptr [r12 + 136]
	mov	qword ptr [rsp + 40], rdi
	mov	qword ptr [rsp + 32], rdx
	mov	rsi, qword ptr [rcx]
	mov	rcx, qword ptr [r8]
	mov	r8, qword ptr [r8 + 8]
	movaps	xmmword ptr [rsp + 256], xmm1
	mov	qword ptr [rsp + 272], rdx
	mov	qword ptr [rsp + 280], rdi
	mov	qword ptr [rsp + 288], rax
	mov	qword ptr [rsp + 296], r15
	mov	qword ptr [rsp + 304], r11
	mov	qword ptr [rsp + 312], r10
Ltmp909:
	mov	qword ptr [rsp], r9
	movzx	r15d, byte ptr [rsp + 160]
	lea	rdi, [rsp + 96]
	lea	r9, [rsp + 256]
	mov	edx, r15d
	call	__ZN5rayon4iter8plumbing24bridge_producer_consumer6helper17h4b4b3a5acaad9c5cE
Ltmp910:
	movaps	xmm0, xmmword ptr [rsp + 96]
	movaps	xmmword ptr [rsp + 160], xmm0
	movdqa	xmm0, xmmword ptr [rsp + 112]
	movdqa	xmmword ptr [rsp + 464], xmm0
	lea	r12, [rsp + 672]
	mov	al, byte ptr [rsp + 672]
	test	al, al
	je	LBB21_12
	jmp	LBB21_16
	.p2align	4, 0x90
LBB21_23:
Ltmp919:
	mov	rdi, rbx
	mov	rsi, rax
	call	__ZN10rayon_core8registry12WorkerThread7execute17h2d3f3a8dd2af2716E
Ltmp920:
	movzx	eax, byte ptr [rsp + 672]
	test	al, al
	jne	LBB21_16
LBB21_12:
Ltmp917:
	mov	rdi, rbx
	call	__ZN10rayon_core8registry12WorkerThread14take_local_job17h123bfb54be8597fdE
Ltmp918:
	test	rdx, rdx
	je	LBB21_14
	cmp	rax, r13
	jne	LBB21_23
	cmp	rdx, r14
	jne	LBB21_23
	lea	rdi, [rsp + 256]
	lea	rsi, [rsp + 512]
	mov	edx, 192
	call	_memcpy
	mov	r11, qword ptr [rsp + 320]
	mov	r8, qword ptr [rsp + 328]
	mov	r10, qword ptr [rsp + 336]
	mov	rdx, qword ptr [rsp + 344]
	mov	qword ptr [rsp + 32], rdx
	mov	rdx, qword ptr [rsp + 352]
	mov	qword ptr [rsp + 40], rdx
	mov	rdx, qword ptr [rsp + 360]
	mov	qword ptr [rsp + 48], rdx
	mov	rdx, qword ptr [rsp + 368]
	mov	qword ptr [rsp + 56], rdx
	mov	rdx, qword ptr [rsp + 376]
	mov	qword ptr [rsp + 64], rdx
	mov	rdx, qword ptr [rsp + 384]
	mov	qword ptr [rsp + 72], rdx
	mov	rdx, qword ptr [rsp + 392]
	mov	qword ptr [rsp + 80], rdx
	mov	rdx, qword ptr [rsp + 400]
	mov	qword ptr [rsp + 88], rdx
	test	r11, r11
	je	LBB21_25
	mov	r9, qword ptr [rsp + 408]
	mov	rdi, qword ptr [rsp + 88]
	mov	qword ptr [rsp + 248], rdi
	mov	r14, qword ptr [rsp + 80]
	mov	qword ptr [rsp + 240], r14
	mov	rbx, qword ptr [rsp + 72]
	mov	qword ptr [rsp + 232], rbx
	mov	rdx, qword ptr [rsp + 64]
	mov	qword ptr [rsp + 224], rdx
	mov	rcx, qword ptr [rsp + 56]
	mov	qword ptr [rsp + 216], rcx
	mov	rax, qword ptr [rsp + 48]
	mov	qword ptr [rsp + 208], rax
	mov	rsi, qword ptr [rsp + 32]
	mov	rdi, qword ptr [rsp + 40]
	mov	qword ptr [rsp + 200], rdi
	mov	qword ptr [rsp + 192], rsi
	mov	qword ptr [rsp + 144], r14
	mov	qword ptr [rsp + 136], rbx
	mov	qword ptr [rsp + 128], rdx
	mov	qword ptr [rsp + 120], rcx
	mov	qword ptr [rsp + 112], rax
	mov	qword ptr [rsp + 104], rdi
	mov	qword ptr [rsp + 96], rsi
	mov	rax, qword ptr [rsp + 248]
	mov	qword ptr [rsp + 152], rax
	mov	rsi, qword ptr [r11]
	sub	rsi, qword ptr [r8]
	jb	LBB21_27
	mov	rcx, qword ptr [r10]
	mov	r8, qword ptr [r10 + 8]
	mov	rax, qword ptr [rsp + 152]
	mov	qword ptr [rsp + 88], rax
	mov	rax, qword ptr [rsp + 144]
	mov	qword ptr [rsp + 80], rax
	mov	rax, qword ptr [rsp + 136]
	mov	qword ptr [rsp + 72], rax
	mov	rax, qword ptr [rsp + 128]
	mov	qword ptr [rsp + 64], rax
	mov	rax, qword ptr [rsp + 120]
	mov	qword ptr [rsp + 56], rax
	mov	rax, qword ptr [rsp + 112]
	mov	qword ptr [rsp + 48], rax
	mov	rax, qword ptr [rsp + 96]
	mov	rdx, qword ptr [rsp + 104]
	mov	qword ptr [rsp + 40], rdx
	mov	qword ptr [rsp + 32], rax
Ltmp922:
	mov	qword ptr [rsp], r9
	lea	rdi, [rsp + 480]
	lea	r9, [rsp + 32]
	mov	edx, r15d
	call	__ZN5rayon4iter8plumbing24bridge_producer_consumer6helper17h4b4b3a5acaad9c5cE
Ltmp923:
	cmp	qword ptr [rsp + 256], 2
	jb	LBB21_33
	mov	r15, qword ptr [rsp + 264]
	mov	rbx, qword ptr [rsp + 272]
Ltmp924:
	mov	rdi, r15
	call	qword ptr [rbx]
Ltmp925:
	mov	rsi, qword ptr [rbx + 8]
	test	rsi, rsi
	je	LBB21_33
	mov	rdx, qword ptr [rbx + 16]
	mov	rdi, r15
	call	___rust_dealloc
LBB21_33:
	movaps	xmm0, xmmword ptr [rsp + 480]
	movaps	xmm1, xmmword ptr [rsp + 496]
	jmp	LBB21_37
LBB21_14:
	mov	al, byte ptr [rsp + 672]
	test	al, al
	jne	LBB21_16
Ltmp935:
	mov	rdi, rbx
	mov	rsi, r12
	call	__ZN10rayon_core8registry12WorkerThread15wait_until_cold17h4ea94d81ba0d12faE
Ltmp936:
LBB21_16:
	mov	rax, qword ptr [rsp + 512]
	cmp	rax, 1
	jne	LBB21_17
	movaps	xmm0, xmmword ptr [rsp + 544]
	movaps	xmm1, xmmword ptr [rsp + 560]
LBB21_37:
	mov	rax, qword ptr [rsp + 184]
	movaps	xmm2, xmmword ptr [rsp + 160]
	movaps	xmmword ptr [rax], xmm2
	movaps	xmm2, xmmword ptr [rsp + 464]
	movaps	xmmword ptr [rax + 16], xmm2
	movaps	xmmword ptr [rax + 32], xmm0
	movaps	xmmword ptr [rax + 48], xmm1
	lea	rsp, [rbp - 40]
	pop	rbx
	pop	r12
	pop	r13
	pop	r14
	pop	r15
	pop	rbp
	ret
LBB21_17:
	test	rax, rax
	je	LBB21_35
	mov	rdi, qword ptr [rsp + 520]
	mov	rsi, qword ptr [rsp + 528]
Ltmp938:
	call	__ZN10rayon_core6unwind16resume_unwinding17h47c2e39f90248736E
Ltmp939:
	jmp	LBB21_6
LBB21_5:
Ltmp943:
	lea	rdi, [rip + _str.1]
	lea	rdx, [rip + l___unnamed_1]
	mov	esi, 33
	call	__ZN4core9panicking5panic17h736ee47a631475c0E
Ltmp944:
	jmp	LBB21_6
LBB21_35:
Ltmp940:
	lea	rdi, [rip + l___unnamed_2]
	lea	rdx, [rip + l___unnamed_3]
	mov	esi, 40
	call	__ZN3std9panicking11begin_panic17h75aebe10c874e798E
Ltmp941:
	jmp	LBB21_6
LBB21_7:
Ltmp905:
	lea	rdi, [rip + _str.3]
	lea	rdx, [rip + l___unnamed_4]
	mov	esi, 33
	call	__ZN4core9panicking5panic17h736ee47a631475c0E
Ltmp906:
	jmp	LBB21_6
LBB21_25:
Ltmp929:
	lea	rdi, [rip + l___unnamed_5]
	lea	rdx, [rip + l___unnamed_6]
	mov	esi, 43
	call	__ZN4core9panicking5panic17h736ee47a631475c0E
Ltmp930:
	jmp	LBB21_6
LBB21_27:
Ltmp927:
	lea	rdi, [rip + _str.1]
	lea	rdx, [rip + l___unnamed_7]
	mov	esi, 33
	call	__ZN4core9panicking5panic17h736ee47a631475c0E
Ltmp928:
	jmp	LBB21_6
LBB21_47:
Ltmp942:
	jmp	LBB21_42
LBB21_40:
Ltmp937:
	jmp	LBB21_46
LBB21_38:
Ltmp926:
	mov	r14, rax
	mov	rdi, r15
	mov	rsi, rbx
	call	__ZN5alloc5alloc8box_free17hfd27018577a513c9E
	mov	rdi, r14
	call	__Unwind_Resume
	ud2
LBB21_34:
Ltmp931:
	mov	r14, rax
Ltmp932:
	lea	rdi, [rsp + 256]
	call	__ZN4core3ptr13drop_in_place17h07e85562a77b63c9E
Ltmp933:
	jmp	LBB21_43
LBB21_41:
Ltmp934:
LBB21_42:
	mov	r14, rax
	mov	rdi, r14
	call	__Unwind_Resume
	ud2
LBB21_19:
Ltmp911:
Ltmp912:
	mov	rdi, rax
	call	__ZN3std9panicking3try7cleanup17hd895f7beef0a7dadE
Ltmp913:
	mov	rcx, rdx
	lea	rsi, [rsp + 672]
Ltmp914:
	mov	rdi, rbx
	mov	rdx, rax
	call	__ZN10rayon_core4join23join_recover_from_panic17h65e0dcb6d5862f08E
Ltmp915:
LBB21_6:
	ud2
LBB21_45:
Ltmp916:
	jmp	LBB21_46
LBB21_44:
Ltmp945:
	jmp	LBB21_46
LBB21_39:
Ltmp921:
LBB21_46:
	mov	r14, rax
	lea	rdi, [rsp + 512]
	call	__ZN4core3ptr13drop_in_place17h07e85562a77b63c9E
LBB21_43:
	mov	rdi, r14
	call	__Unwind_Resume
	ud2
Lfunc_end21:
	.cfi_endproc
	.section	__TEXT,__gcc_except_tab
	.p2align	2
GCC_except_table21:
Lexception21:
	.byte	255
	.byte	155
	.uleb128 Lttbase21-Lttbaseref21
Lttbaseref21:
	.byte	1
	.uleb128 Lcst_end21-Lcst_begin21
Lcst_begin21:
	.uleb128 Ltmp903-Lfunc_begin21
	.uleb128 Ltmp908-Ltmp903
	.uleb128 Ltmp945-Lfunc_begin21
	.byte	0
	.uleb128 Ltmp909-Lfunc_begin21
	.uleb128 Ltmp910-Ltmp909
	.uleb128 Ltmp911-Lfunc_begin21
	.byte	3
	.uleb128 Ltmp919-Lfunc_begin21
	.uleb128 Ltmp918-Ltmp919
	.uleb128 Ltmp921-Lfunc_begin21
	.byte	0
	.uleb128 Ltmp918-Lfunc_begin21
	.uleb128 Ltmp922-Ltmp918
	.byte	0
	.byte	0
	.uleb128 Ltmp922-Lfunc_begin21
	.uleb128 Ltmp923-Ltmp922
	.uleb128 Ltmp931-Lfunc_begin21
	.byte	0
	.uleb128 Ltmp924-Lfunc_begin21
	.uleb128 Ltmp925-Ltmp924
	.uleb128 Ltmp926-Lfunc_begin21
	.byte	0
	.uleb128 Ltmp935-Lfunc_begin21
	.uleb128 Ltmp936-Ltmp935
	.uleb128 Ltmp937-Lfunc_begin21
	.byte	0
	.uleb128 Ltmp938-Lfunc_begin21
	.uleb128 Ltmp939-Ltmp938
	.uleb128 Ltmp942-Lfunc_begin21
	.byte	0
	.uleb128 Ltmp943-Lfunc_begin21
	.uleb128 Ltmp944-Ltmp943
	.uleb128 Ltmp945-Lfunc_begin21
	.byte	0
	.uleb128 Ltmp940-Lfunc_begin21
	.uleb128 Ltmp941-Ltmp940
	.uleb128 Ltmp942-Lfunc_begin21
	.byte	0
	.uleb128 Ltmp905-Lfunc_begin21
	.uleb128 Ltmp906-Ltmp905
	.uleb128 Ltmp945-Lfunc_begin21
	.byte	0
	.uleb128 Ltmp929-Lfunc_begin21
	.uleb128 Ltmp928-Ltmp929
	.uleb128 Ltmp931-Lfunc_begin21
	.byte	0
	.uleb128 Ltmp928-Lfunc_begin21
	.uleb128 Ltmp932-Ltmp928
	.byte	0
	.byte	0
	.uleb128 Ltmp932-Lfunc_begin21
	.uleb128 Ltmp933-Ltmp932
	.uleb128 Ltmp934-Lfunc_begin21
	.byte	0
	.uleb128 Ltmp933-Lfunc_begin21
	.uleb128 Ltmp912-Ltmp933
	.byte	0
	.byte	0
	.uleb128 Ltmp912-Lfunc_begin21
	.uleb128 Ltmp913-Ltmp912
	.uleb128 Ltmp945-Lfunc_begin21
	.byte	0
	.uleb128 Ltmp914-Lfunc_begin21
	.uleb128 Ltmp915-Ltmp914
	.uleb128 Ltmp916-Lfunc_begin21
	.byte	0
	.uleb128 Ltmp915-Lfunc_begin21
	.uleb128 Lfunc_end21-Ltmp915
	.byte	0
	.byte	0
Lcst_end21:
	.byte	0
	.byte	0
	.byte	1
	.byte	125
	.p2align	2
	.long	0
Lttbase21:
	.p2align	2

	.section	__TEXT,__text,regular,pure_instructions
	.p2align	4, 0x90
__ZN10rayon_core4join12join_context28_$u7b$$u7b$closure$u7d$$u7d$17h39d7e294426d5fc5E:
Lfunc_begin22:
	.cfi_startproc
	.cfi_personality 155, _rust_eh_personality
	.cfi_lsda 16, Lexception22
	push	rbp
	.cfi_def_cfa_offset 16
	.cfi_offset rbp, -16
	mov	rbp, rsp
	.cfi_def_cfa_register rbp
	push	r15
	push	r14
	push	r13
	push	r12
	push	rbx
	sub	rsp, 328
	.cfi_offset rbx, -56
	.cfi_offset r12, -48
	.cfi_offset r13, -40
	.cfi_offset r14, -32
	.cfi_offset r15, -24
	mov	rbx, rdx
	mov	r12, rsi
	mov	qword ptr [rbp - 216], rdi
	mov	byte ptr [rbp - 120], 0
	mov	rax, qword ptr [rsi]
	mov	rdx, qword ptr [rsi + 8]
	mov	qword ptr [rbp - 176], rax
	mov	qword ptr [rbp - 168], rdx
	mov	rax, qword ptr [rsi + 16]
	mov	qword ptr [rbp - 160], rax
	mov	rax, qword ptr [rsi + 24]
	mov	qword ptr [rbp - 152], rax
	mov	rax, qword ptr [rsi + 32]
	mov	qword ptr [rbp - 144], rax
	mov	rax, qword ptr [rsi + 40]
	mov	qword ptr [rbp - 136], rax
	mov	rax, qword ptr [rsi + 48]
	mov	qword ptr [rbp - 128], rax
	mov	qword ptr [rbp - 208], 0
	mov	rax, qword ptr [rbx + 256]
	mov	r15, qword ptr [rax + 264]
	mov	rax, qword ptr [rax + 256]
	mov	rsi, qword ptr [rbx + 272]
	mov	rdx, r15
	sub	rdx, rax
	cmp	rdx, rsi
	mov	dword ptr [rbp - 112], ecx
	jl	LBB22_4
	add	rsi, rsi
	jb	LBB22_7
	lea	rdi, [rbx + 256]
Ltmp946:
	call	__ZN15crossbeam_deque15Worker$LT$T$GT$6resize17h5c22be2b4226dcffE
Ltmp947:
	mov	rsi, qword ptr [rbx + 272]
LBB22_4:
	sub	rsi, 1
	jb	LBB22_5
	mov	rax, qword ptr [rbx + 264]
	and	rsi, r15
	shl	rsi, 4
	lea	r13, [rbp - 208]
	mov	qword ptr [rax + rsi], r13
	lea	r14, [rip + __ZN83_$LT$rayon_core..job..StackJob$LT$L$C$F$C$R$GT$$u20$as$u20$rayon_core..job..Job$GT$7execute17hb12b23f42fed0a23E]
	mov	qword ptr [rax + rsi + 8], r14
	##MEMBARRIER
	mov	rax, qword ptr [rbx + 256]
	inc	r15
	mov	qword ptr [rax + 264], r15
	mov	edi, 408
	add	rdi, qword ptr [rbx + 304]
	mov	rsi, qword ptr [rbx + 288]
Ltmp950:
	call	__ZN10rayon_core5sleep5Sleep6tickle17h00d06f732555dc32E
Ltmp951:
	movdqu	xmm0, xmmword ptr [r12 + 56]
	mov	r9, qword ptr [r12 + 96]
	movq	rcx, xmm0
	pshufd	xmm0, xmm0, 78
	movq	rdx, xmm0
	mov	rdi, qword ptr [r12 + 88]
	mov	qword ptr [rbp - 48], rdi
	mov	r10, qword ptr [r12 + 72]
	mov	rax, qword ptr [r12 + 80]
	mov	qword ptr [rbp - 56], rax
	mov	qword ptr [rbp - 64], r10
	mov	rsi, qword ptr [rcx]
	mov	rcx, qword ptr [rdx]
	mov	r8, qword ptr [rdx + 8]
	mov	qword ptr [rbp - 304], rdi
	mov	qword ptr [rbp - 312], rax
	mov	qword ptr [rbp - 320], r10
Ltmp952:
	mov	qword ptr [rsp], r9
	movzx	r15d, byte ptr [rbp - 112]
	lea	rdi, [rbp - 96]
	lea	r9, [rbp - 320]
	mov	edx, r15d
	call	__ZN5rayon4iter8plumbing24bridge_producer_consumer6helper17h0beccfd154cb0fd2E
Ltmp953:
	movdqa	xmm0, xmmword ptr [rbp - 96]
	movdqa	xmmword ptr [rbp - 112], xmm0
	lea	r12, [rbp - 120]
	mov	al, byte ptr [rbp - 120]
	test	al, al
	je	LBB22_12
	jmp	LBB22_16
	.p2align	4, 0x90
LBB22_23:
Ltmp962:
	mov	rdi, rbx
	mov	rsi, rax
	call	__ZN10rayon_core8registry12WorkerThread7execute17h2d3f3a8dd2af2716E
Ltmp963:
	movzx	eax, byte ptr [rbp - 120]
	test	al, al
	jne	LBB22_16
LBB22_12:
Ltmp960:
	mov	rdi, rbx
	call	__ZN10rayon_core8registry12WorkerThread14take_local_job17h123bfb54be8597fdE
Ltmp961:
	test	rdx, rdx
	je	LBB22_14
	cmp	rax, r13
	jne	LBB22_23
	cmp	rdx, r14
	jne	LBB22_23
	movaps	xmm0, xmmword ptr [rbp - 128]
	movaps	xmmword ptr [rbp - 240], xmm0
	movaps	xmm0, xmmword ptr [rbp - 144]
	movaps	xmmword ptr [rbp - 256], xmm0
	movdqa	xmm0, xmmword ptr [rbp - 208]
	movaps	xmm1, xmmword ptr [rbp - 192]
	movaps	xmm2, xmmword ptr [rbp - 176]
	movaps	xmm3, xmmword ptr [rbp - 160]
	movaps	xmmword ptr [rbp - 272], xmm3
	movaps	xmmword ptr [rbp - 288], xmm2
	movaps	xmmword ptr [rbp - 304], xmm1
	movdqa	xmmword ptr [rbp - 320], xmm0
	mov	rsi, qword ptr [rbp - 288]
	mov	rcx, qword ptr [rbp - 280]
	mov	rax, qword ptr [rbp - 272]
	mov	rdx, qword ptr [rbp - 264]
	mov	qword ptr [rbp - 64], rdx
	mov	rdx, qword ptr [rbp - 256]
	mov	rdi, qword ptr [rbp - 248]
	mov	qword ptr [rbp - 56], rdx
	mov	qword ptr [rbp - 48], rdi
	test	rsi, rsi
	je	LBB22_25
	mov	r9, qword ptr [rbp - 240]
	mov	rdi, qword ptr [rbp - 48]
	mov	qword ptr [rbp - 344], rdi
	mov	rbx, qword ptr [rbp - 64]
	mov	rdx, qword ptr [rbp - 56]
	mov	qword ptr [rbp - 352], rdx
	mov	qword ptr [rbp - 360], rbx
	mov	qword ptr [rbp - 80], rdi
	mov	qword ptr [rbp - 88], rdx
	mov	qword ptr [rbp - 96], rbx
	mov	rsi, qword ptr [rsi]
	sub	rsi, qword ptr [rcx]
	jb	LBB22_27
	mov	rcx, qword ptr [rax]
	mov	r8, qword ptr [rax + 8]
	mov	rax, qword ptr [rbp - 80]
	mov	qword ptr [rbp - 48], rax
	mov	rax, qword ptr [rbp - 96]
	mov	rdx, qword ptr [rbp - 88]
	mov	qword ptr [rbp - 56], rdx
	mov	qword ptr [rbp - 64], rax
Ltmp965:
	mov	qword ptr [rsp], r9
	lea	rdi, [rbp - 336]
	lea	r9, [rbp - 64]
	mov	edx, r15d
	call	__ZN5rayon4iter8plumbing24bridge_producer_consumer6helper17h0beccfd154cb0fd2E
Ltmp966:
	cmp	qword ptr [rbp - 320], 2
	jb	LBB22_33
	mov	r15, qword ptr [rbp - 312]
	mov	rbx, qword ptr [rbp - 304]
Ltmp967:
	mov	rdi, r15
	call	qword ptr [rbx]
Ltmp968:
	mov	rsi, qword ptr [rbx + 8]
	test	rsi, rsi
	je	LBB22_33
	mov	rdx, qword ptr [rbx + 16]
	mov	rdi, r15
	call	___rust_dealloc
LBB22_33:
	movdqa	xmm0, xmmword ptr [rbp - 336]
	jmp	LBB22_34
LBB22_14:
	mov	al, byte ptr [rbp - 120]
	test	al, al
	jne	LBB22_16
Ltmp978:
	mov	rdi, rbx
	mov	rsi, r12
	call	__ZN10rayon_core8registry12WorkerThread15wait_until_cold17h4ea94d81ba0d12faE
Ltmp979:
LBB22_16:
	mov	rax, qword ptr [rbp - 208]
	movdqa	xmm0, xmmword ptr [rbp - 192]
	cmp	rax, 1
	jne	LBB22_17
LBB22_34:
	mov	rax, qword ptr [rbp - 216]
	movaps	xmm1, xmmword ptr [rbp - 112]
	movaps	xmmword ptr [rax], xmm1
	movdqa	xmmword ptr [rax + 16], xmm0
	add	rsp, 328
	pop	rbx
	pop	r12
	pop	r13
	pop	r14
	pop	r15
	pop	rbp
	ret
LBB22_17:
	test	rax, rax
	je	LBB22_36
	mov	rdi, qword ptr [rbp - 200]
	movq	rsi, xmm0
Ltmp981:
	call	__ZN10rayon_core6unwind16resume_unwinding17h47c2e39f90248736E
Ltmp982:
	jmp	LBB22_6
LBB22_5:
Ltmp986:
	lea	rdi, [rip + _str.1]
	lea	rdx, [rip + l___unnamed_1]
	mov	esi, 33
	call	__ZN4core9panicking5panic17h736ee47a631475c0E
Ltmp987:
	jmp	LBB22_6
LBB22_36:
Ltmp983:
	lea	rdi, [rip + l___unnamed_2]
	lea	rdx, [rip + l___unnamed_3]
	mov	esi, 40
	call	__ZN3std9panicking11begin_panic17h75aebe10c874e798E
Ltmp984:
	jmp	LBB22_6
LBB22_7:
Ltmp948:
	lea	rdi, [rip + _str.3]
	lea	rdx, [rip + l___unnamed_4]
	mov	esi, 33
	call	__ZN4core9panicking5panic17h736ee47a631475c0E
Ltmp949:
	jmp	LBB22_6
LBB22_25:
Ltmp972:
	lea	rdi, [rip + l___unnamed_5]
	lea	rdx, [rip + l___unnamed_6]
	mov	esi, 43
	call	__ZN4core9panicking5panic17h736ee47a631475c0E
Ltmp973:
	jmp	LBB22_6
LBB22_27:
Ltmp970:
	lea	rdi, [rip + _str.1]
	lea	rdx, [rip + l___unnamed_7]
	mov	esi, 33
	call	__ZN4core9panicking5panic17h736ee47a631475c0E
Ltmp971:
	jmp	LBB22_6
LBB22_46:
Ltmp985:
	jmp	LBB22_41
LBB22_39:
Ltmp980:
	jmp	LBB22_45
LBB22_37:
Ltmp969:
	mov	r14, rax
	mov	rdi, r15
	mov	rsi, rbx
	call	__ZN5alloc5alloc8box_free17hfd27018577a513c9E
	mov	rdi, r14
	call	__Unwind_Resume
	ud2
LBB22_35:
Ltmp974:
	mov	r14, rax
Ltmp975:
	lea	rdi, [rbp - 320]
	call	__ZN4core3ptr13drop_in_place17h03e3d151d67a9ae6E
Ltmp976:
	jmp	LBB22_42
LBB22_40:
Ltmp977:
LBB22_41:
	mov	r14, rax
	mov	rdi, r14
	call	__Unwind_Resume
	ud2
LBB22_19:
Ltmp954:
Ltmp955:
	mov	rdi, rax
	call	__ZN3std9panicking3try7cleanup17hd895f7beef0a7dadE
Ltmp956:
	mov	rcx, rdx
	lea	rsi, [rbp - 120]
Ltmp957:
	mov	rdi, rbx
	mov	rdx, rax
	call	__ZN10rayon_core4join23join_recover_from_panic17h65e0dcb6d5862f08E
Ltmp958:
LBB22_6:
	ud2
LBB22_44:
Ltmp959:
	jmp	LBB22_45
LBB22_43:
Ltmp988:
	jmp	LBB22_45
LBB22_38:
Ltmp964:
LBB22_45:
	mov	r14, rax
	lea	rdi, [rbp - 208]
	call	__ZN4core3ptr13drop_in_place17h03e3d151d67a9ae6E
LBB22_42:
	mov	rdi, r14
	call	__Unwind_Resume
	ud2
Lfunc_end22:
	.cfi_endproc
	.section	__TEXT,__gcc_except_tab
	.p2align	2
GCC_except_table22:
Lexception22:
	.byte	255
	.byte	155
	.uleb128 Lttbase22-Lttbaseref22
Lttbaseref22:
	.byte	1
	.uleb128 Lcst_end22-Lcst_begin22
Lcst_begin22:
	.uleb128 Ltmp946-Lfunc_begin22
	.uleb128 Ltmp951-Ltmp946
	.uleb128 Ltmp988-Lfunc_begin22
	.byte	0
	.uleb128 Ltmp952-Lfunc_begin22
	.uleb128 Ltmp953-Ltmp952
	.uleb128 Ltmp954-Lfunc_begin22
	.byte	3
	.uleb128 Ltmp962-Lfunc_begin22
	.uleb128 Ltmp961-Ltmp962
	.uleb128 Ltmp964-Lfunc_begin22
	.byte	0
	.uleb128 Ltmp965-Lfunc_begin22
	.uleb128 Ltmp966-Ltmp965
	.uleb128 Ltmp974-Lfunc_begin22
	.byte	0
	.uleb128 Ltmp967-Lfunc_begin22
	.uleb128 Ltmp968-Ltmp967
	.uleb128 Ltmp969-Lfunc_begin22
	.byte	0
	.uleb128 Ltmp978-Lfunc_begin22
	.uleb128 Ltmp979-Ltmp978
	.uleb128 Ltmp980-Lfunc_begin22
	.byte	0
	.uleb128 Ltmp981-Lfunc_begin22
	.uleb128 Ltmp982-Ltmp981
	.uleb128 Ltmp985-Lfunc_begin22
	.byte	0
	.uleb128 Ltmp986-Lfunc_begin22
	.uleb128 Ltmp987-Ltmp986
	.uleb128 Ltmp988-Lfunc_begin22
	.byte	0
	.uleb128 Ltmp983-Lfunc_begin22
	.uleb128 Ltmp984-Ltmp983
	.uleb128 Ltmp985-Lfunc_begin22
	.byte	0
	.uleb128 Ltmp948-Lfunc_begin22
	.uleb128 Ltmp949-Ltmp948
	.uleb128 Ltmp988-Lfunc_begin22
	.byte	0
	.uleb128 Ltmp972-Lfunc_begin22
	.uleb128 Ltmp971-Ltmp972
	.uleb128 Ltmp974-Lfunc_begin22
	.byte	0
	.uleb128 Ltmp971-Lfunc_begin22
	.uleb128 Ltmp975-Ltmp971
	.byte	0
	.byte	0
	.uleb128 Ltmp975-Lfunc_begin22
	.uleb128 Ltmp976-Ltmp975
	.uleb128 Ltmp977-Lfunc_begin22
	.byte	0
	.uleb128 Ltmp976-Lfunc_begin22
	.uleb128 Ltmp955-Ltmp976
	.byte	0
	.byte	0
	.uleb128 Ltmp955-Lfunc_begin22
	.uleb128 Ltmp956-Ltmp955
	.uleb128 Ltmp988-Lfunc_begin22
	.byte	0
	.uleb128 Ltmp957-Lfunc_begin22
	.uleb128 Ltmp958-Ltmp957
	.uleb128 Ltmp959-Lfunc_begin22
	.byte	0
	.uleb128 Ltmp958-Lfunc_begin22
	.uleb128 Lfunc_end22-Ltmp958
	.byte	0
	.byte	0
Lcst_end22:
	.byte	0
	.byte	0
	.byte	1
	.byte	125
	.p2align	2
	.long	0
Lttbase22:
	.p2align	2

	.section	__TEXT,__text,regular,pure_instructions
	.p2align	4, 0x90
__ZN10rayon_core4join12join_context28_$u7b$$u7b$closure$u7d$$u7d$17h3a7dcd2aa43b5d88E:
Lfunc_begin23:
	.cfi_startproc
	.cfi_personality 155, _rust_eh_personality
	.cfi_lsda 16, Lexception23
	push	rbp
	.cfi_def_cfa_offset 16
	.cfi_offset rbp, -16
	mov	rbp, rsp
	.cfi_def_cfa_register rbp
	push	r15
	push	r14
	push	r13
	push	r12
	push	rbx
	sub	rsp, 488
	.cfi_offset rbx, -56
	.cfi_offset r12, -48
	.cfi_offset r13, -40
	.cfi_offset r14, -32
	.cfi_offset r15, -24
	mov	r8d, ecx
	mov	rbx, rdx
	mov	r13, rsi
	mov	qword ptr [rbp - 120], rdi
	lea	r15, [rbp - 512]
	mov	ecx, 12
	mov	rdi, r15
	rep movsq es:[rdi], [rsi]
	mov	byte ptr [rbp - 392], 0
	mov	qword ptr [rbp - 416], 0
	mov	rax, qword ptr [rdx + 256]
	mov	r12, qword ptr [rax + 264]
	mov	rax, qword ptr [rax + 256]
	mov	rsi, qword ptr [rdx + 272]
	mov	rcx, r12
	sub	rcx, rax
	cmp	rcx, rsi
	mov	dword ptr [rbp - 44], r8d
	jl	LBB23_4
	add	rsi, rsi
	jb	LBB23_7
	lea	rdi, [rbx + 256]
Ltmp989:
	call	__ZN15crossbeam_deque15Worker$LT$T$GT$6resize17h5c22be2b4226dcffE
Ltmp990:
	mov	rsi, qword ptr [rbx + 272]
LBB23_4:
	sub	rsi, 1
	jb	LBB23_5
	mov	rax, qword ptr [rbx + 264]
	and	rsi, r12
	shl	rsi, 4
	mov	qword ptr [rax + rsi], r15
	lea	r14, [rip + __ZN83_$LT$rayon_core..job..StackJob$LT$L$C$F$C$R$GT$$u20$as$u20$rayon_core..job..Job$GT$7execute17h9e322416574088feE]
	mov	qword ptr [rax + rsi + 8], r14
	##MEMBARRIER
	mov	rax, qword ptr [rbx + 256]
	inc	r12
	mov	qword ptr [rax + 264], r12
	mov	edi, 408
	add	rdi, qword ptr [rbx + 304]
	mov	rsi, qword ptr [rbx + 288]
Ltmp993:
	call	__ZN10rayon_core5sleep5Sleep6tickle17h00d06f732555dc32E
Ltmp994:
	mov	rax, qword ptr [r13 + 96]
	mov	rdx, qword ptr [r13 + 104]
	mov	rdi, qword ptr [r13 + 176]
	mov	rsi, qword ptr [rax]
	mov	rcx, qword ptr [rdx]
	mov	r8, qword ptr [rdx + 8]
	mov	rax, qword ptr [r13 + 168]
	mov	qword ptr [rbp - 264], rax
	mov	rax, qword ptr [r13 + 160]
	mov	qword ptr [rbp - 272], rax
	mov	rax, qword ptr [r13 + 152]
	mov	qword ptr [rbp - 280], rax
	mov	rax, qword ptr [r13 + 144]
	mov	qword ptr [rbp - 288], rax
	mov	rax, qword ptr [r13 + 136]
	mov	qword ptr [rbp - 296], rax
	mov	rax, qword ptr [r13 + 128]
	mov	qword ptr [rbp - 304], rax
	mov	rax, qword ptr [r13 + 112]
	mov	rdx, qword ptr [r13 + 120]
	mov	qword ptr [rbp - 312], rdx
	mov	qword ptr [rbp - 320], rax
Ltmp995:
	mov	qword ptr [rsp], rdi
	movzx	r12d, byte ptr [rbp - 44]
	lea	rdi, [rbp - 112]
	lea	r9, [rbp - 320]
	mov	edx, r12d
	call	__ZN5rayon4iter8plumbing24bridge_producer_consumer6helper17hbce68171424ccfdfE
Ltmp996:
	mov	r13, qword ptr [rbp - 112]
	mov	al, byte ptr [rbp - 392]
	test	al, al
	je	LBB23_12
	jmp	LBB23_16
	.p2align	4, 0x90
LBB23_23:
Ltmp1005:
	mov	rdi, rbx
	mov	rsi, rax
	call	__ZN10rayon_core8registry12WorkerThread7execute17h2d3f3a8dd2af2716E
Ltmp1006:
	movzx	eax, byte ptr [rbp - 392]
	test	al, al
	jne	LBB23_16
LBB23_12:
Ltmp1003:
	mov	rdi, rbx
	call	__ZN10rayon_core8registry12WorkerThread14take_local_job17h123bfb54be8597fdE
Ltmp1004:
	test	rdx, rdx
	je	LBB23_14
	cmp	rax, r15
	jne	LBB23_23
	cmp	rdx, r14
	jne	LBB23_23
	lea	rdi, [rbp - 320]
	lea	rsi, [rbp - 512]
	mov	ecx, 16
	rep movsq es:[rdi], [rsi]
	mov	r11, qword ptr [rbp - 320]
	mov	r8, qword ptr [rbp - 312]
	mov	r10, qword ptr [rbp - 304]
	mov	rdx, qword ptr [rbp - 296]
	mov	qword ptr [rbp - 112], rdx
	mov	rdx, qword ptr [rbp - 288]
	mov	qword ptr [rbp - 104], rdx
	mov	rdx, qword ptr [rbp - 280]
	mov	qword ptr [rbp - 96], rdx
	mov	rdx, qword ptr [rbp - 272]
	mov	qword ptr [rbp - 88], rdx
	mov	rdx, qword ptr [rbp - 264]
	mov	qword ptr [rbp - 80], rdx
	mov	rdx, qword ptr [rbp - 256]
	mov	qword ptr [rbp - 72], rdx
	mov	rdx, qword ptr [rbp - 248]
	mov	qword ptr [rbp - 64], rdx
	mov	rdx, qword ptr [rbp - 240]
	mov	qword ptr [rbp - 56], rdx
	test	r11, r11
	je	LBB23_25
	mov	r9, qword ptr [rbp - 232]
	mov	rdi, qword ptr [rbp - 56]
	mov	qword ptr [rbp - 328], rdi
	mov	r14, qword ptr [rbp - 64]
	mov	qword ptr [rbp - 336], r14
	mov	rbx, qword ptr [rbp - 72]
	mov	qword ptr [rbp - 344], rbx
	mov	rdx, qword ptr [rbp - 80]
	mov	qword ptr [rbp - 352], rdx
	mov	rcx, qword ptr [rbp - 88]
	mov	qword ptr [rbp - 360], rcx
	mov	rax, qword ptr [rbp - 96]
	mov	qword ptr [rbp - 368], rax
	mov	rsi, qword ptr [rbp - 112]
	mov	rdi, qword ptr [rbp - 104]
	mov	qword ptr [rbp - 376], rdi
	mov	qword ptr [rbp - 384], rsi
	mov	qword ptr [rbp - 144], r14
	mov	qword ptr [rbp - 152], rbx
	mov	qword ptr [rbp - 160], rdx
	mov	qword ptr [rbp - 168], rcx
	mov	qword ptr [rbp - 176], rax
	mov	qword ptr [rbp - 184], rdi
	mov	qword ptr [rbp - 192], rsi
	mov	rax, qword ptr [rbp - 328]
	mov	qword ptr [rbp - 136], rax
	mov	rsi, qword ptr [r11]
	sub	rsi, qword ptr [r8]
	jb	LBB23_27
	mov	rcx, qword ptr [r10]
	mov	r8, qword ptr [r10 + 8]
	mov	rax, qword ptr [rbp - 136]
	mov	qword ptr [rbp - 56], rax
	mov	rax, qword ptr [rbp - 144]
	mov	qword ptr [rbp - 64], rax
	mov	rax, qword ptr [rbp - 152]
	mov	qword ptr [rbp - 72], rax
	mov	rax, qword ptr [rbp - 160]
	mov	qword ptr [rbp - 80], rax
	mov	rax, qword ptr [rbp - 168]
	mov	qword ptr [rbp - 88], rax
	mov	rax, qword ptr [rbp - 176]
	mov	qword ptr [rbp - 96], rax
	mov	rax, qword ptr [rbp - 192]
	mov	rdx, qword ptr [rbp - 184]
	mov	qword ptr [rbp - 104], rdx
	mov	qword ptr [rbp - 112], rax
Ltmp1008:
	mov	qword ptr [rsp], r9
	lea	rdi, [rbp - 128]
	lea	r9, [rbp - 112]
	mov	edx, r12d
	call	__ZN5rayon4iter8plumbing24bridge_producer_consumer6helper17hbce68171424ccfdfE
Ltmp1009:
	cmp	qword ptr [rbp - 224], 2
	jb	LBB23_33
	mov	r15, qword ptr [rbp - 216]
	mov	rbx, qword ptr [rbp - 208]
Ltmp1010:
	mov	rdi, r15
	call	qword ptr [rbx]
Ltmp1011:
	mov	rsi, qword ptr [rbx + 8]
	test	rsi, rsi
	je	LBB23_33
	mov	rdx, qword ptr [rbx + 16]
	mov	rdi, r15
	call	___rust_dealloc
LBB23_33:
	mov	rdi, qword ptr [rbp - 128]
	jmp	LBB23_34
LBB23_14:
	mov	al, byte ptr [rbp - 392]
	test	al, al
	jne	LBB23_16
Ltmp1021:
	mov	rdi, rbx
	lea	rsi, [rbp - 392]
	call	__ZN10rayon_core8registry12WorkerThread15wait_until_cold17h4ea94d81ba0d12faE
Ltmp1022:
LBB23_16:
	mov	rax, qword ptr [rbp - 416]
	mov	rdi, qword ptr [rbp - 408]
	cmp	rax, 1
	jne	LBB23_17
LBB23_34:
	mov	rax, qword ptr [rbp - 120]
	mov	qword ptr [rax], r13
	mov	qword ptr [rax + 8], rdi
	add	rsp, 488
	pop	rbx
	pop	r12
	pop	r13
	pop	r14
	pop	r15
	pop	rbp
	ret
LBB23_17:
	test	rax, rax
	je	LBB23_36
	mov	rsi, qword ptr [rbp - 400]
Ltmp1024:
	call	__ZN10rayon_core6unwind16resume_unwinding17h47c2e39f90248736E
Ltmp1025:
	jmp	LBB23_6
LBB23_5:
Ltmp1029:
	lea	rdi, [rip + _str.1]
	lea	rdx, [rip + l___unnamed_1]
	mov	esi, 33
	call	__ZN4core9panicking5panic17h736ee47a631475c0E
Ltmp1030:
	jmp	LBB23_6
LBB23_36:
Ltmp1026:
	lea	rdi, [rip + l___unnamed_2]
	lea	rdx, [rip + l___unnamed_3]
	mov	esi, 40
	call	__ZN3std9panicking11begin_panic17h75aebe10c874e798E
Ltmp1027:
	jmp	LBB23_6
LBB23_7:
Ltmp991:
	lea	rdi, [rip + _str.3]
	lea	rdx, [rip + l___unnamed_4]
	mov	esi, 33
	call	__ZN4core9panicking5panic17h736ee47a631475c0E
Ltmp992:
	jmp	LBB23_6
LBB23_25:
Ltmp1015:
	lea	rdi, [rip + l___unnamed_5]
	lea	rdx, [rip + l___unnamed_6]
	mov	esi, 43
	call	__ZN4core9panicking5panic17h736ee47a631475c0E
Ltmp1016:
	jmp	LBB23_6
LBB23_27:
Ltmp1013:
	lea	rdi, [rip + _str.1]
	lea	rdx, [rip + l___unnamed_7]
	mov	esi, 33
	call	__ZN4core9panicking5panic17h736ee47a631475c0E
Ltmp1014:
	jmp	LBB23_6
LBB23_46:
Ltmp1028:
	jmp	LBB23_41
LBB23_39:
Ltmp1023:
	jmp	LBB23_45
LBB23_37:
Ltmp1012:
	mov	r14, rax
	mov	rdi, r15
	mov	rsi, rbx
	call	__ZN5alloc5alloc8box_free17hfd27018577a513c9E
	mov	rdi, r14
	call	__Unwind_Resume
	ud2
LBB23_35:
Ltmp1017:
	mov	r14, rax
	lea	rdi, [rbp - 224]
Ltmp1018:
	call	__ZN4core3ptr13drop_in_place17h386a8cdc061ec2cfE
Ltmp1019:
	jmp	LBB23_42
LBB23_40:
Ltmp1020:
LBB23_41:
	mov	r14, rax
	mov	rdi, r14
	call	__Unwind_Resume
	ud2
LBB23_19:
Ltmp997:
Ltmp998:
	mov	rdi, rax
	call	__ZN3std9panicking3try7cleanup17hd895f7beef0a7dadE
Ltmp999:
	mov	rcx, rdx
	lea	rsi, [rbp - 392]
Ltmp1000:
	mov	rdi, rbx
	mov	rdx, rax
	call	__ZN10rayon_core4join23join_recover_from_panic17h65e0dcb6d5862f08E
Ltmp1001:
LBB23_6:
	ud2
LBB23_44:
Ltmp1002:
	jmp	LBB23_45
LBB23_43:
Ltmp1031:
	jmp	LBB23_45
LBB23_38:
Ltmp1007:
LBB23_45:
	mov	r14, rax
	lea	rdi, [rbp - 512]
	call	__ZN4core3ptr13drop_in_place17h2f02750a4e4133e6E
LBB23_42:
	mov	rdi, r14
	call	__Unwind_Resume
	ud2
Lfunc_end23:
	.cfi_endproc
	.section	__TEXT,__gcc_except_tab
	.p2align	2
GCC_except_table23:
Lexception23:
	.byte	255
	.byte	155
	.uleb128 Lttbase23-Lttbaseref23
Lttbaseref23:
	.byte	1
	.uleb128 Lcst_end23-Lcst_begin23
Lcst_begin23:
	.uleb128 Ltmp989-Lfunc_begin23
	.uleb128 Ltmp994-Ltmp989
	.uleb128 Ltmp1031-Lfunc_begin23
	.byte	0
	.uleb128 Ltmp995-Lfunc_begin23
	.uleb128 Ltmp996-Ltmp995
	.uleb128 Ltmp997-Lfunc_begin23
	.byte	3
	.uleb128 Ltmp1005-Lfunc_begin23
	.uleb128 Ltmp1004-Ltmp1005
	.uleb128 Ltmp1007-Lfunc_begin23
	.byte	0
	.uleb128 Ltmp1008-Lfunc_begin23
	.uleb128 Ltmp1009-Ltmp1008
	.uleb128 Ltmp1017-Lfunc_begin23
	.byte	0
	.uleb128 Ltmp1010-Lfunc_begin23
	.uleb128 Ltmp1011-Ltmp1010
	.uleb128 Ltmp1012-Lfunc_begin23
	.byte	0
	.uleb128 Ltmp1021-Lfunc_begin23
	.uleb128 Ltmp1022-Ltmp1021
	.uleb128 Ltmp1023-Lfunc_begin23
	.byte	0
	.uleb128 Ltmp1024-Lfunc_begin23
	.uleb128 Ltmp1025-Ltmp1024
	.uleb128 Ltmp1028-Lfunc_begin23
	.byte	0
	.uleb128 Ltmp1029-Lfunc_begin23
	.uleb128 Ltmp1030-Ltmp1029
	.uleb128 Ltmp1031-Lfunc_begin23
	.byte	0
	.uleb128 Ltmp1026-Lfunc_begin23
	.uleb128 Ltmp1027-Ltmp1026
	.uleb128 Ltmp1028-Lfunc_begin23
	.byte	0
	.uleb128 Ltmp991-Lfunc_begin23
	.uleb128 Ltmp992-Ltmp991
	.uleb128 Ltmp1031-Lfunc_begin23
	.byte	0
	.uleb128 Ltmp1015-Lfunc_begin23
	.uleb128 Ltmp1014-Ltmp1015
	.uleb128 Ltmp1017-Lfunc_begin23
	.byte	0
	.uleb128 Ltmp1014-Lfunc_begin23
	.uleb128 Ltmp1018-Ltmp1014
	.byte	0
	.byte	0
	.uleb128 Ltmp1018-Lfunc_begin23
	.uleb128 Ltmp1019-Ltmp1018
	.uleb128 Ltmp1020-Lfunc_begin23
	.byte	0
	.uleb128 Ltmp1019-Lfunc_begin23
	.uleb128 Ltmp998-Ltmp1019
	.byte	0
	.byte	0
	.uleb128 Ltmp998-Lfunc_begin23
	.uleb128 Ltmp999-Ltmp998
	.uleb128 Ltmp1031-Lfunc_begin23
	.byte	0
	.uleb128 Ltmp1000-Lfunc_begin23
	.uleb128 Ltmp1001-Ltmp1000
	.uleb128 Ltmp1002-Lfunc_begin23
	.byte	0
	.uleb128 Ltmp1001-Lfunc_begin23
	.uleb128 Lfunc_end23-Ltmp1001
	.byte	0
	.byte	0
Lcst_end23:
	.byte	0
	.byte	0
	.byte	1
	.byte	125
	.p2align	2
	.long	0
Lttbase23:
	.p2align	2

	.section	__TEXT,__text,regular,pure_instructions
	.p2align	4, 0x90
__ZN10rayon_core4join12join_context28_$u7b$$u7b$closure$u7d$$u7d$17h3b0318084dd75c1dE:
Lfunc_begin24:
	.cfi_startproc
	.cfi_personality 155, _rust_eh_personality
	.cfi_lsda 16, Lexception24
	push	rbp
	.cfi_def_cfa_offset 16
	.cfi_offset rbp, -16
	mov	rbp, rsp
	.cfi_def_cfa_register rbp
	push	r15
	push	r14
	push	r13
	push	r12
	push	rbx
	sub	rsp, 472
	.cfi_offset rbx, -56
	.cfi_offset r12, -48
	.cfi_offset r13, -40
	.cfi_offset r14, -32
	.cfi_offset r15, -24
	mov	rbx, rsi
	mov	r12, rdi
	lea	r14, [rbp - 496]
	mov	ecx, 12
	mov	rdi, r14
	mov	rsi, r12
	rep movsq es:[rdi], [rsi]
	mov	byte ptr [rbp - 376], 0
	mov	dword ptr [rbp - 400], 0
	mov	rax, qword ptr [rbx + 256]
	mov	r15, qword ptr [rax + 264]
	mov	rax, qword ptr [rax + 256]
	mov	rsi, qword ptr [rbx + 272]
	mov	rcx, r15
	sub	rcx, rax
	cmp	rcx, rsi
	mov	dword ptr [rbp - 44], edx
	jl	LBB24_4
	add	rsi, rsi
	jb	LBB24_7
	lea	rdi, [rbx + 256]
Ltmp1032:
	call	__ZN15crossbeam_deque15Worker$LT$T$GT$6resize17h5c22be2b4226dcffE
Ltmp1033:
	mov	rsi, qword ptr [rbx + 272]
LBB24_4:
	sub	rsi, 1
	jb	LBB24_5
	mov	rax, qword ptr [rbx + 264]
	and	rsi, r15
	shl	rsi, 4
	mov	qword ptr [rax + rsi], r14
	lea	r13, [rip + __ZN83_$LT$rayon_core..job..StackJob$LT$L$C$F$C$R$GT$$u20$as$u20$rayon_core..job..Job$GT$7execute17h5afb5127bf3854dcE]
	mov	qword ptr [rax + rsi + 8], r13
	##MEMBARRIER
	mov	rax, qword ptr [rbx + 256]
	inc	r15
	mov	qword ptr [rax + 264], r15
	mov	edi, 408
	add	rdi, qword ptr [rbx + 304]
	mov	rsi, qword ptr [rbx + 288]
Ltmp1036:
	call	__ZN10rayon_core5sleep5Sleep6tickle17h00d06f732555dc32E
Ltmp1037:
	mov	rax, qword ptr [r12 + 96]
	mov	rdx, qword ptr [r12 + 104]
	mov	rdi, qword ptr [r12 + 176]
	mov	rsi, qword ptr [rax]
	mov	rcx, qword ptr [rdx]
	mov	r8, qword ptr [rdx + 8]
	mov	rax, qword ptr [r12 + 168]
	mov	qword ptr [rbp - 248], rax
	mov	rax, qword ptr [r12 + 160]
	mov	qword ptr [rbp - 256], rax
	mov	rax, qword ptr [r12 + 152]
	mov	qword ptr [rbp - 264], rax
	mov	rax, qword ptr [r12 + 144]
	mov	qword ptr [rbp - 272], rax
	mov	rax, qword ptr [r12 + 136]
	mov	qword ptr [rbp - 280], rax
	mov	rax, qword ptr [r12 + 128]
	mov	qword ptr [rbp - 288], rax
	mov	rax, qword ptr [r12 + 112]
	mov	rdx, qword ptr [r12 + 120]
	mov	qword ptr [rbp - 296], rdx
	mov	qword ptr [rbp - 304], rax
Ltmp1038:
	mov	qword ptr [rsp], rdi
	movzx	r15d, byte ptr [rbp - 44]
	lea	rdi, [rbp - 112]
	lea	r9, [rbp - 304]
	mov	edx, r15d
	call	__ZN5rayon4iter8plumbing24bridge_producer_consumer6helper17hf3fb778e913c5db8E
Ltmp1039:
	mov	r12d, dword ptr [rbp - 112]
	mov	al, byte ptr [rbp - 376]
	test	al, al
	je	LBB24_12
	jmp	LBB24_16
	.p2align	4, 0x90
LBB24_23:
Ltmp1048:
	mov	rdi, rbx
	mov	rsi, rax
	call	__ZN10rayon_core8registry12WorkerThread7execute17h2d3f3a8dd2af2716E
Ltmp1049:
	movzx	eax, byte ptr [rbp - 376]
	test	al, al
	jne	LBB24_16
LBB24_12:
Ltmp1046:
	mov	rdi, rbx
	call	__ZN10rayon_core8registry12WorkerThread14take_local_job17h123bfb54be8597fdE
Ltmp1047:
	test	rdx, rdx
	je	LBB24_14
	cmp	rax, r14
	jne	LBB24_23
	cmp	rdx, r13
	jne	LBB24_23
	lea	rdi, [rbp - 304]
	lea	rsi, [rbp - 496]
	mov	ecx, 16
	rep movsq es:[rdi], [rsi]
	mov	r11, qword ptr [rbp - 304]
	mov	r8, qword ptr [rbp - 296]
	mov	r10, qword ptr [rbp - 288]
	mov	rdx, qword ptr [rbp - 280]
	mov	qword ptr [rbp - 112], rdx
	mov	rdx, qword ptr [rbp - 272]
	mov	qword ptr [rbp - 104], rdx
	mov	rdx, qword ptr [rbp - 264]
	mov	qword ptr [rbp - 96], rdx
	mov	rdx, qword ptr [rbp - 256]
	mov	qword ptr [rbp - 88], rdx
	mov	rdx, qword ptr [rbp - 248]
	mov	qword ptr [rbp - 80], rdx
	mov	rdx, qword ptr [rbp - 240]
	mov	qword ptr [rbp - 72], rdx
	mov	rdx, qword ptr [rbp - 232]
	mov	qword ptr [rbp - 64], rdx
	mov	rdx, qword ptr [rbp - 224]
	mov	qword ptr [rbp - 56], rdx
	test	r11, r11
	je	LBB24_25
	mov	r9, qword ptr [rbp - 216]
	mov	rdi, qword ptr [rbp - 56]
	mov	qword ptr [rbp - 312], rdi
	mov	r14, qword ptr [rbp - 64]
	mov	qword ptr [rbp - 320], r14
	mov	rbx, qword ptr [rbp - 72]
	mov	qword ptr [rbp - 328], rbx
	mov	rdx, qword ptr [rbp - 80]
	mov	qword ptr [rbp - 336], rdx
	mov	rcx, qword ptr [rbp - 88]
	mov	qword ptr [rbp - 344], rcx
	mov	rax, qword ptr [rbp - 96]
	mov	qword ptr [rbp - 352], rax
	mov	rsi, qword ptr [rbp - 112]
	mov	rdi, qword ptr [rbp - 104]
	mov	qword ptr [rbp - 360], rdi
	mov	qword ptr [rbp - 368], rsi
	mov	qword ptr [rbp - 128], r14
	mov	qword ptr [rbp - 136], rbx
	mov	qword ptr [rbp - 144], rdx
	mov	qword ptr [rbp - 152], rcx
	mov	qword ptr [rbp - 160], rax
	mov	qword ptr [rbp - 168], rdi
	mov	qword ptr [rbp - 176], rsi
	mov	rax, qword ptr [rbp - 312]
	mov	qword ptr [rbp - 120], rax
	mov	rsi, qword ptr [r11]
	sub	rsi, qword ptr [r8]
	jb	LBB24_27
	mov	rcx, qword ptr [r10]
	mov	r8, qword ptr [r10 + 8]
	mov	rax, qword ptr [rbp - 120]
	mov	qword ptr [rbp - 56], rax
	mov	rax, qword ptr [rbp - 128]
	mov	qword ptr [rbp - 64], rax
	mov	rax, qword ptr [rbp - 136]
	mov	qword ptr [rbp - 72], rax
	mov	rax, qword ptr [rbp - 144]
	mov	qword ptr [rbp - 80], rax
	mov	rax, qword ptr [rbp - 152]
	mov	qword ptr [rbp - 88], rax
	mov	rax, qword ptr [rbp - 160]
	mov	qword ptr [rbp - 96], rax
	mov	rax, qword ptr [rbp - 176]
	mov	rdx, qword ptr [rbp - 168]
	mov	qword ptr [rbp - 104], rdx
	mov	qword ptr [rbp - 112], rax
Ltmp1051:
	mov	qword ptr [rsp], r9
	lea	rdi, [rbp - 48]
	lea	r9, [rbp - 112]
	mov	edx, r15d
	call	__ZN5rayon4iter8plumbing24bridge_producer_consumer6helper17hf3fb778e913c5db8E
Ltmp1052:
	cmp	dword ptr [rbp - 208], 2
	jb	LBB24_33
	mov	r15, qword ptr [rbp - 200]
	mov	rbx, qword ptr [rbp - 192]
Ltmp1053:
	mov	rdi, r15
	call	qword ptr [rbx]
Ltmp1054:
	mov	rsi, qword ptr [rbx + 8]
	test	rsi, rsi
	je	LBB24_33
	mov	rdx, qword ptr [rbx + 16]
	mov	rdi, r15
	call	___rust_dealloc
LBB24_33:
	mov	eax, dword ptr [rbp - 48]
	jmp	LBB24_37
LBB24_14:
	mov	al, byte ptr [rbp - 376]
	test	al, al
	jne	LBB24_16
Ltmp1064:
	mov	rdi, rbx
	lea	rsi, [rbp - 376]
	call	__ZN10rayon_core8registry12WorkerThread15wait_until_cold17h4ea94d81ba0d12faE
Ltmp1065:
LBB24_16:
	mov	eax, dword ptr [rbp - 400]
	cmp	eax, 1
	jne	LBB24_17
	mov	eax, dword ptr [rbp - 396]
LBB24_37:
	shl	rax, 32
	or	rax, r12
	add	rsp, 472
	pop	rbx
	pop	r12
	pop	r13
	pop	r14
	pop	r15
	pop	rbp
	ret
LBB24_17:
	test	eax, eax
	je	LBB24_35
	mov	rdi, qword ptr [rbp - 392]
	mov	rsi, qword ptr [rbp - 384]
Ltmp1067:
	call	__ZN10rayon_core6unwind16resume_unwinding17h47c2e39f90248736E
Ltmp1068:
	jmp	LBB24_6
LBB24_5:
Ltmp1072:
	lea	rdi, [rip + _str.1]
	lea	rdx, [rip + l___unnamed_1]
	mov	esi, 33
	call	__ZN4core9panicking5panic17h736ee47a631475c0E
Ltmp1073:
	jmp	LBB24_6
LBB24_35:
Ltmp1069:
	lea	rdi, [rip + l___unnamed_2]
	lea	rdx, [rip + l___unnamed_3]
	mov	esi, 40
	call	__ZN3std9panicking11begin_panic17h75aebe10c874e798E
Ltmp1070:
	jmp	LBB24_6
LBB24_7:
Ltmp1034:
	lea	rdi, [rip + _str.3]
	lea	rdx, [rip + l___unnamed_4]
	mov	esi, 33
	call	__ZN4core9panicking5panic17h736ee47a631475c0E
Ltmp1035:
	jmp	LBB24_6
LBB24_25:
Ltmp1058:
	lea	rdi, [rip + l___unnamed_5]
	lea	rdx, [rip + l___unnamed_6]
	mov	esi, 43
	call	__ZN4core9panicking5panic17h736ee47a631475c0E
Ltmp1059:
	jmp	LBB24_6
LBB24_27:
Ltmp1056:
	lea	rdi, [rip + _str.1]
	lea	rdx, [rip + l___unnamed_7]
	mov	esi, 33
	call	__ZN4core9panicking5panic17h736ee47a631475c0E
Ltmp1057:
	jmp	LBB24_6
LBB24_47:
Ltmp1071:
	jmp	LBB24_42
LBB24_40:
Ltmp1066:
	jmp	LBB24_46
LBB24_38:
Ltmp1055:
	mov	r14, rax
	mov	rdi, r15
	mov	rsi, rbx
	call	__ZN5alloc5alloc8box_free17hfd27018577a513c9E
	mov	rdi, r14
	call	__Unwind_Resume
	ud2
LBB24_34:
Ltmp1060:
	mov	r14, rax
	lea	rdi, [rbp - 208]
Ltmp1061:
	call	__ZN4core3ptr13drop_in_place17h2bed3385e42bae15E
Ltmp1062:
	jmp	LBB24_43
LBB24_41:
Ltmp1063:
LBB24_42:
	mov	r14, rax
	mov	rdi, r14
	call	__Unwind_Resume
	ud2
LBB24_19:
Ltmp1040:
Ltmp1041:
	mov	rdi, rax
	call	__ZN3std9panicking3try7cleanup17hd895f7beef0a7dadE
Ltmp1042:
	mov	rcx, rdx
	lea	rsi, [rbp - 376]
Ltmp1043:
	mov	rdi, rbx
	mov	rdx, rax
	call	__ZN10rayon_core4join23join_recover_from_panic17h65e0dcb6d5862f08E
Ltmp1044:
LBB24_6:
	ud2
LBB24_45:
Ltmp1045:
	jmp	LBB24_46
LBB24_44:
Ltmp1074:
	jmp	LBB24_46
LBB24_39:
Ltmp1050:
LBB24_46:
	mov	r14, rax
	lea	rdi, [rbp - 496]
	call	__ZN4core3ptr13drop_in_place17h1c963e8f56dcdb1aE
LBB24_43:
	mov	rdi, r14
	call	__Unwind_Resume
	ud2
Lfunc_end24:
	.cfi_endproc
	.section	__TEXT,__gcc_except_tab
	.p2align	2
GCC_except_table24:
Lexception24:
	.byte	255
	.byte	155
	.uleb128 Lttbase24-Lttbaseref24
Lttbaseref24:
	.byte	1
	.uleb128 Lcst_end24-Lcst_begin24
Lcst_begin24:
	.uleb128 Ltmp1032-Lfunc_begin24
	.uleb128 Ltmp1037-Ltmp1032
	.uleb128 Ltmp1074-Lfunc_begin24
	.byte	0
	.uleb128 Ltmp1038-Lfunc_begin24
	.uleb128 Ltmp1039-Ltmp1038
	.uleb128 Ltmp1040-Lfunc_begin24
	.byte	3
	.uleb128 Ltmp1048-Lfunc_begin24
	.uleb128 Ltmp1047-Ltmp1048
	.uleb128 Ltmp1050-Lfunc_begin24
	.byte	0
	.uleb128 Ltmp1051-Lfunc_begin24
	.uleb128 Ltmp1052-Ltmp1051
	.uleb128 Ltmp1060-Lfunc_begin24
	.byte	0
	.uleb128 Ltmp1053-Lfunc_begin24
	.uleb128 Ltmp1054-Ltmp1053
	.uleb128 Ltmp1055-Lfunc_begin24
	.byte	0
	.uleb128 Ltmp1064-Lfunc_begin24
	.uleb128 Ltmp1065-Ltmp1064
	.uleb128 Ltmp1066-Lfunc_begin24
	.byte	0
	.uleb128 Ltmp1067-Lfunc_begin24
	.uleb128 Ltmp1068-Ltmp1067
	.uleb128 Ltmp1071-Lfunc_begin24
	.byte	0
	.uleb128 Ltmp1072-Lfunc_begin24
	.uleb128 Ltmp1073-Ltmp1072
	.uleb128 Ltmp1074-Lfunc_begin24
	.byte	0
	.uleb128 Ltmp1069-Lfunc_begin24
	.uleb128 Ltmp1070-Ltmp1069
	.uleb128 Ltmp1071-Lfunc_begin24
	.byte	0
	.uleb128 Ltmp1034-Lfunc_begin24
	.uleb128 Ltmp1035-Ltmp1034
	.uleb128 Ltmp1074-Lfunc_begin24
	.byte	0
	.uleb128 Ltmp1058-Lfunc_begin24
	.uleb128 Ltmp1057-Ltmp1058
	.uleb128 Ltmp1060-Lfunc_begin24
	.byte	0
	.uleb128 Ltmp1057-Lfunc_begin24
	.uleb128 Ltmp1061-Ltmp1057
	.byte	0
	.byte	0
	.uleb128 Ltmp1061-Lfunc_begin24
	.uleb128 Ltmp1062-Ltmp1061
	.uleb128 Ltmp1063-Lfunc_begin24
	.byte	0
	.uleb128 Ltmp1062-Lfunc_begin24
	.uleb128 Ltmp1041-Ltmp1062
	.byte	0
	.byte	0
	.uleb128 Ltmp1041-Lfunc_begin24
	.uleb128 Ltmp1042-Ltmp1041
	.uleb128 Ltmp1074-Lfunc_begin24
	.byte	0
	.uleb128 Ltmp1043-Lfunc_begin24
	.uleb128 Ltmp1044-Ltmp1043
	.uleb128 Ltmp1045-Lfunc_begin24
	.byte	0
	.uleb128 Ltmp1044-Lfunc_begin24
	.uleb128 Lfunc_end24-Ltmp1044
	.byte	0
	.byte	0
Lcst_end24:
	.byte	0
	.byte	0
	.byte	1
	.byte	125
	.p2align	2
	.long	0
Lttbase24:
	.p2align	2

	.section	__TEXT,__text,regular,pure_instructions
	.p2align	4, 0x90
__ZN10rayon_core4join12join_context28_$u7b$$u7b$closure$u7d$$u7d$17h3b847249f80cf392E:
Lfunc_begin25:
	.cfi_startproc
	.cfi_personality 155, _rust_eh_personality
	.cfi_lsda 16, Lexception25
	push	rbp
	.cfi_def_cfa_offset 16
	.cfi_offset rbp, -16
	mov	rbp, rsp
	.cfi_def_cfa_register rbp
	push	r15
	push	r14
	push	r13
	push	r12
	push	rbx
	and	rsp, -32
	sub	rsp, 480
	.cfi_offset rbx, -56
	.cfi_offset r12, -48
	.cfi_offset r13, -40
	.cfi_offset r14, -32
	.cfi_offset r15, -24
	mov	rbx, rdx
	mov	r12, rsi
	mov	qword ptr [rsp + 96], rdi
	mov	byte ptr [rsp + 248], 0
	mov	rax, qword ptr [rsi]
	mov	rdx, qword ptr [rsi + 8]
	mov	qword ptr [rsp + 192], rax
	mov	qword ptr [rsp + 200], rdx
	mov	rax, qword ptr [rsi + 16]
	mov	qword ptr [rsp + 208], rax
	mov	rax, qword ptr [rsi + 24]
	mov	qword ptr [rsp + 216], rax
	mov	rax, qword ptr [rsi + 32]
	mov	qword ptr [rsp + 224], rax
	mov	rax, qword ptr [rsi + 40]
	mov	qword ptr [rsp + 232], rax
	mov	rax, qword ptr [rsi + 48]
	mov	qword ptr [rsp + 240], rax
	mov	qword ptr [rsp + 128], 0
	mov	rax, qword ptr [rbx + 256]
	mov	r15, qword ptr [rax + 264]
	mov	rax, qword ptr [rax + 256]
	mov	rsi, qword ptr [rbx + 272]
	mov	rdx, r15
	sub	rdx, rax
	cmp	rdx, rsi
	mov	dword ptr [rsp + 80], ecx
	jl	LBB25_4
	add	rsi, rsi
	jb	LBB25_7
	lea	rdi, [rbx + 256]
Ltmp1075:
	call	__ZN15crossbeam_deque15Worker$LT$T$GT$6resize17h5c22be2b4226dcffE
Ltmp1076:
	mov	rsi, qword ptr [rbx + 272]
LBB25_4:
	sub	rsi, 1
	jb	LBB25_5
	mov	rax, qword ptr [rbx + 264]
	and	rsi, r15
	shl	rsi, 4
	lea	r13, [rsp + 128]
	mov	qword ptr [rax + rsi], r13
	lea	r14, [rip + __ZN83_$LT$rayon_core..job..StackJob$LT$L$C$F$C$R$GT$$u20$as$u20$rayon_core..job..Job$GT$7execute17hb8996bb1d58d0319E]
	mov	qword ptr [rax + rsi + 8], r14
	##MEMBARRIER
	mov	rax, qword ptr [rbx + 256]
	inc	r15
	mov	qword ptr [rax + 264], r15
	mov	edi, 408
	add	rdi, qword ptr [rbx + 304]
	mov	rsi, qword ptr [rbx + 288]
Ltmp1079:
	call	__ZN10rayon_core5sleep5Sleep6tickle17h00d06f732555dc32E
Ltmp1080:
	mov	rax, qword ptr [r12 + 88]
	mov	rdx, qword ptr [r12 + 96]
	movdqu	xmm0, xmmword ptr [r12 + 56]
	movups	xmm1, xmmword ptr [r12 + 72]
	movq	rcx, xmm0
	pshufd	xmm0, xmm0, 78
	movq	rdi, xmm0
	mov	rsi, qword ptr [rcx]
	mov	rcx, qword ptr [rdi]
	mov	r8, qword ptr [rdi + 8]
	movaps	xmmword ptr [rsp + 32], xmm1
	mov	qword ptr [rsp + 48], rax
Ltmp1081:
	mov	qword ptr [rsp], rdx
	movzx	r15d, byte ptr [rsp + 80]
	lea	rdi, [rsp + 256]
	lea	r9, [rsp + 32]
	mov	edx, r15d
	call	__ZN5rayon4iter8plumbing24bridge_producer_consumer6helper17h2e042a92705e1830E
Ltmp1082:
	movaps	xmm0, xmmword ptr [rsp + 256]
	movaps	xmmword ptr [rsp + 80], xmm0
	movdqa	xmm0, xmmword ptr [rsp + 272]
	movdqa	xmmword ptr [rsp + 416], xmm0
	lea	r12, [rsp + 248]
	mov	al, byte ptr [rsp + 248]
	test	al, al
	je	LBB25_12
	jmp	LBB25_16
	.p2align	4, 0x90
LBB25_23:
Ltmp1091:
	mov	rdi, rbx
	mov	rsi, rax
	call	__ZN10rayon_core8registry12WorkerThread7execute17h2d3f3a8dd2af2716E
Ltmp1092:
	movzx	eax, byte ptr [rsp + 248]
	test	al, al
	jne	LBB25_16
LBB25_12:
Ltmp1089:
	mov	rdi, rbx
	call	__ZN10rayon_core8registry12WorkerThread14take_local_job17h123bfb54be8597fdE
Ltmp1090:
	test	rdx, rdx
	je	LBB25_14
	cmp	rax, r13
	jne	LBB25_23
	cmp	rdx, r14
	jne	LBB25_23
	movaps	xmm0, xmmword ptr [rsp + 240]
	movaps	xmmword ptr [rsp + 368], xmm0
	movaps	xmm0, xmmword ptr [rsp + 224]
	movaps	xmmword ptr [rsp + 352], xmm0
	movaps	xmm0, xmmword ptr [rsp + 208]
	movaps	xmmword ptr [rsp + 336], xmm0
	movaps	xmm0, xmmword ptr [rsp + 192]
	movaps	xmmword ptr [rsp + 320], xmm0
	movdqa	xmm0, xmmword ptr [rsp + 128]
	movaps	xmm1, xmmword ptr [rsp + 144]
	movaps	xmm2, xmmword ptr [rsp + 160]
	movaps	xmm3, xmmword ptr [rsp + 176]
	movaps	xmmword ptr [rsp + 304], xmm3
	movaps	xmmword ptr [rsp + 288], xmm2
	movaps	xmmword ptr [rsp + 272], xmm1
	movdqa	xmmword ptr [rsp + 256], xmm0
	mov	rsi, qword ptr [rsp + 320]
	mov	rcx, qword ptr [rsp + 328]
