	.section	__TEXT,__text,regular,pure_instructions
	.macosx_version_min 10, 7
	.p2align	4, 0x90
__ZN100_$LT$core..iter..adapters..Filter$LT$I$C$P$GT$$u20$as$u20$core..iter..traits..iterator..Iterator$GT$4next17h0e0779aac72cfc72E:
	.cfi_startproc
	pushq	%rbp
	.cfi_def_cfa_offset 16
	.cfi_offset %rbp, -16
	movq	%rsp, %rbp
	.cfi_def_cfa_register %rbp
	pushq	%r15
	pushq	%r14
	pushq	%r13
	pushq	%r12
	pushq	%rbx
	subq	$264, %rsp
	.cfi_offset %rbx, -56
	.cfi_offset %r12, -48
	.cfi_offset %r13, -40
	.cfi_offset %r14, -32
	.cfi_offset %r15, -24
	movq	%rsi, %r14
	movq	%rdi, -72(%rbp)
	movq	(%rsi), %rsi
	movq	8(%r14), %rdx
	cmpq	%rdx, 8(%rsi)
	jbe	LBB0_14
	movq	(%rsi), %rax
	leaq	(%rdx,%rdx,8), %rcx
	leaq	(%rax,%rcx,2), %rcx
	testq	%rcx, %rcx
	je	LBB0_14
	leaq	-136(%rbp), %r12
	leaq	-176(%rbp), %r15
	movl	$242, %r13d
	.p2align	4, 0x90
LBB0_3:
	leaq	(%rdx,%rdx,8), %rdi
	movzbl	17(%rax,%rdi,2), %eax
	incq	%rax
	addq	%rdx, %rax
	jb	LBB0_16
	movq	%rax, 8(%r14)
	movq	%r15, %rdi
	callq	__ZN6object4read4coff6symbol12parse_symbol17h4d2fb4875d418b1bE
	movq	-160(%rbp), %rax
	movq	%rax, -224(%rbp)
	vmovups	-176(%rbp), %xmm0
	vmovaps	%xmm0, -240(%rbp)
	movq	-152(%rbp), %rax
	movq	-144(%rbp), %rcx
	vmovups	(%r12), %xmm0
	vmovaps	%xmm0, -208(%rbp)
	movq	16(%r12), %rdx
	movq	%rdx, -192(%rbp)
	movzbl	-112(%rbp), %ebx
	movl	25(%r12), %edx
	movl	28(%r12), %esi
	movl	%edx, -56(%rbp)
	movl	%esi, -53(%rbp)
	cmpq	$6, %rcx
	je	LBB0_14
	vmovaps	-240(%rbp), %xmm0
	vmovaps	%xmm0, -176(%rbp)
	movq	-224(%rbp), %rdx
	movq	%rdx, -160(%rbp)
	vmovaps	-208(%rbp), %xmm0
	vmovaps	%xmm0, -96(%rbp)
	movq	-192(%rbp), %rdx
	movq	%rdx, -80(%rbp)
	movl	-56(%rbp), %edx
	movl	-53(%rbp), %esi
	movl	%edx, -48(%rbp)
	movl	%esi, -45(%rbp)
	cmpb	$7, %bl
	ja	LBB0_17
	movl	$6, %edx
	movzbl	%bl, %esi
	btl	%esi, %r13d
	jae	LBB0_7
LBB0_11:
	cmpq	$6, %rdx
	jne	LBB0_18
LBB0_12:
	movq	(%r14), %rsi
	movq	8(%r14), %rdx
	cmpq	%rdx, 8(%rsi)
	jbe	LBB0_14
	movq	(%rsi), %rax
	leaq	(%rdx,%rdx,8), %rcx
	leaq	(%rax,%rcx,2), %rcx
	testq	%rcx, %rcx
	jne	LBB0_3
	jmp	LBB0_14
	.p2align	4, 0x90
LBB0_7:
	cmpq	$2, %rcx
	je	LBB0_11
	cmpq	$4, %rcx
	je	LBB0_11
	testq	%rax, %rax
	je	LBB0_11
	movq	-160(%rbp), %rdx
	movq	%rdx, -288(%rbp)
	vmovaps	-176(%rbp), %xmm0
	vmovaps	%xmm0, -304(%rbp)
	vmovaps	-96(%rbp), %xmm0
	vmovaps	%xmm0, -272(%rbp)
	movq	-80(%rbp), %rdx
	movq	%rdx, -256(%rbp)
	movl	-48(%rbp), %edx
	movl	-45(%rbp), %esi
	movl	%edx, -64(%rbp)
	movl	%esi, -61(%rbp)
	movb	%bl, -41(%rbp)
	movq	%rcx, %rdx
	movq	%rax, -104(%rbp)
	cmpq	$6, %rdx
	je	LBB0_12
LBB0_18:
	movq	-288(%rbp), %rax
	movq	-72(%rbp), %rsi
	movq	%rax, 16(%rsi)
	vmovaps	-304(%rbp), %xmm0
	vmovups	%xmm0, (%rsi)
	vmovaps	-272(%rbp), %xmm0
	vmovaps	%xmm0, -176(%rbp)
	movq	-256(%rbp), %rax
	movq	%rax, -160(%rbp)
	movl	-64(%rbp), %eax
	movl	-61(%rbp), %ecx
	movl	%eax, -96(%rbp)
	movl	%ecx, -93(%rbp)
	movq	-104(%rbp), %rax
	movq	%rax, 24(%rsi)
	movq	%rdx, 32(%rsi)
	vmovaps	-176(%rbp), %xmm0
	vmovups	%xmm0, 40(%rsi)
	movq	-160(%rbp), %rax
	movq	%rax, 56(%rsi)
	movb	-41(%rbp), %al
	movb	%al, 64(%rsi)
	movl	-96(%rbp), %eax
	movl	-93(%rbp), %ecx
	movl	%eax, 65(%rsi)
	movl	%ecx, 68(%rsi)
	jmp	LBB0_15
LBB0_14:
	movq	-72(%rbp), %rax
	movq	$6, 32(%rax)
LBB0_15:
	addq	$264, %rsp
	popq	%rbx
	popq	%r12
	popq	%r13
	popq	%r14
	popq	%r15
	popq	%rbp
	retq
LBB0_16:
	leaq	_str.1(%rip), %rdi
	leaq	l___unnamed_1(%rip), %rdx
	movl	$28, %esi
	callq	__ZN4core9panicking5panic17h736ee47a631475c0E
LBB0_17:
	ud2
	.cfi_endproc

	.p2align	4, 0x90
__ZN100_$LT$core..iter..adapters..Filter$LT$I$C$P$GT$$u20$as$u20$core..iter..traits..iterator..Iterator$GT$4next17h29ce8d35520ac3ecE:
	.cfi_startproc
	pushq	%rbp
	.cfi_def_cfa_offset 16
	.cfi_offset %rbp, -16
	movq	%rsp, %rbp
	.cfi_def_cfa_register %rbp
	pushq	%r15
	pushq	%r14
	pushq	%r13
	pushq	%r12
	pushq	%rbx
	subq	$264, %rsp
	.cfi_offset %rbx, -56
	.cfi_offset %r12, -48
	.cfi_offset %r13, -40
	.cfi_offset %r14, -32
	.cfi_offset %r15, -24
	movq	%rsi, %rbx
	movq	%rdi, -72(%rbp)
	leaq	-136(%rbp), %r13
	leaq	-176(%rbp), %r15
	movl	$242, %r14d
	movq	64(%rbx), %rdx
	movl	$0, %r11d
	cmpq	%rdx, 56(%rbx)
	ja	LBB1_2
	jmp	LBB1_4
	.p2align	4, 0x90
LBB1_20:
	cmpq	$6, %rsi
	jne	LBB1_21
	movq	64(%rbx), %rdx
	movl	$0, %r11d
	cmpq	%rdx, 56(%rbx)
	jbe	LBB1_4
LBB1_2:
	leaq	(,%rdx,4), %rax
	movl	$0, %r11d
	addq	48(%rbx), %rax
	je	LBB1_4
	movl	(%rax), %r10d
	movl	$1, %r11d
LBB1_4:
	cmpq	%rdx, 24(%rbx)
	jbe	LBB1_22
	movq	%rdx, %rcx
	shlq	$4, %rcx
	addq	16(%rbx), %rcx
	leaq	1(%rdx), %rax
	movq	%rax, 64(%rbx)
	movq	(%rbx), %rax
	movb	208(%rax), %r12b
	testb	%r12b, %r12b
	movq	40(%rbx), %rdi
	movl	(%rcx), %eax
	movl	%eax, %esi
	bswapl	%esi
	cmovel	%eax, %esi
	movl	$30, %r9d
	cmpq	%rsi, %rdi
	jae	LBB1_7
	xorl	%r8d, %r8d
	jmp	LBB1_13
	.p2align	4, 0x90
LBB1_7:
	movq	32(%rbx), %r8
	addq	%rsi, %r8
	subq	%rdi, %rsi
	movq	$-1, %rdi
	.p2align	4, 0x90
LBB1_8:
	leaq	(%rsi,%rdi), %rax
	cmpq	$-1, %rax
	je	LBB1_9
	movzbl	1(%r8,%rdi), %r14d
	incq	%rdi
	testb	%r14b, %r14b
	jne	LBB1_8
	cmpb	$1, %r14b
	movb	$1, %al
	adcb	$0, %al
	movzbl	%al, %r9d
	andl	$1, %r9d
	addq	%rdi, %r9
	jmp	LBB1_12
	.p2align	4, 0x90
LBB1_9:
	xorl	%r8d, %r8d
LBB1_12:
	movl	$242, %r14d
LBB1_13:
	movzbl	%r12b, %esi
	movq	%r15, %rdi
	pushq	%r10
	pushq	%r11
	callq	__ZN6object4read3elf6symbol12parse_symbol17h10b2bced0c56459bE
	addq	$16, %rsp
	movq	-160(%rbp), %rax
	movq	%rax, -224(%rbp)
	vmovups	-176(%rbp), %xmm0
	vmovaps	%xmm0, -240(%rbp)
	movq	-152(%rbp), %rax
	movq	-144(%rbp), %rcx
	vmovups	(%r13), %xmm0
	vmovaps	%xmm0, -208(%rbp)
	movq	16(%r13), %rdx
	movq	%rdx, -192(%rbp)
	movb	-112(%rbp), %dl
	movl	25(%r13), %esi
	movl	28(%r13), %edi
	movl	%esi, -56(%rbp)
	movl	%edi, -53(%rbp)
	cmpq	$6, %rcx
	je	LBB1_22
	vmovaps	-240(%rbp), %xmm0
	vmovaps	%xmm0, -176(%rbp)
	movq	-224(%rbp), %rsi
	movq	%rsi, -160(%rbp)
	vmovaps	-208(%rbp), %xmm0
	vmovaps	%xmm0, -96(%rbp)
	movq	-192(%rbp), %rsi
	movq	%rsi, -80(%rbp)
	movl	-56(%rbp), %esi
	movl	-53(%rbp), %edi
	movl	%esi, -48(%rbp)
	movl	%edi, -45(%rbp)
	cmpb	$7, %dl
	ja	LBB1_24
	movl	$6, %esi
	movzbl	%dl, %edi
	btl	%edi, %r14d
	jb	LBB1_20
	cmpq	$2, %rcx
	je	LBB1_20
	cmpq	$4, %rcx
	je	LBB1_20
	testq	%rax, %rax
	je	LBB1_20
	movq	-160(%rbp), %rsi
	movq	%rsi, -288(%rbp)
	vmovaps	-176(%rbp), %xmm0
	vmovaps	%xmm0, -304(%rbp)
	vmovaps	-96(%rbp), %xmm0
	vmovaps	%xmm0, -272(%rbp)
	movq	-80(%rbp), %rsi
	movq	%rsi, -256(%rbp)
	movl	-48(%rbp), %esi
	movl	-45(%rbp), %edi
	movl	%esi, -64(%rbp)
	movl	%edi, -61(%rbp)
	movb	%dl, -41(%rbp)
	movq	%rcx, %rsi
	movq	%rax, -104(%rbp)
	jmp	LBB1_20
LBB1_22:
	movq	-72(%rbp), %rax
	movq	$6, 32(%rax)
	jmp	LBB1_23
LBB1_21:
	movq	-288(%rbp), %rax
	movq	-72(%rbp), %rdx
	movq	%rax, 16(%rdx)
	vmovaps	-304(%rbp), %xmm0
	vmovups	%xmm0, (%rdx)
	vmovaps	-272(%rbp), %xmm0
	vmovaps	%xmm0, -176(%rbp)
	movq	-256(%rbp), %rax
	movq	%rax, -160(%rbp)
	movl	-64(%rbp), %eax
	movl	-61(%rbp), %ecx
	movl	%eax, -96(%rbp)
	movl	%ecx, -93(%rbp)
	movq	-104(%rbp), %rax
	movq	%rax, 24(%rdx)
	movq	%rsi, 32(%rdx)
	vmovaps	-176(%rbp), %xmm0
	vmovups	%xmm0, 40(%rdx)
	movq	-160(%rbp), %rax
	movq	%rax, 56(%rdx)
	movb	-41(%rbp), %al
	movb	%al, 64(%rdx)
	movl	-96(%rbp), %eax
	movl	-93(%rbp), %ecx
	movl	%eax, 65(%rdx)
	movl	%ecx, 68(%rdx)
LBB1_23:
	addq	$264, %rsp
	popq	%rbx
	popq	%r12
	popq	%r13
	popq	%r14
	popq	%r15
	popq	%rbp
	retq
LBB1_24:
	ud2
	.cfi_endproc

	.p2align	4, 0x90
__ZN100_$LT$core..iter..adapters..Filter$LT$I$C$P$GT$$u20$as$u20$core..iter..traits..iterator..Iterator$GT$4next17h2bb6d19981873a91E:
	.cfi_startproc
	pushq	%rbp
	.cfi_def_cfa_offset 16
	.cfi_offset %rbp, -16
	movq	%rsp, %rbp
	.cfi_def_cfa_register %rbp
	pushq	%r15
	pushq	%r14
	pushq	%r13
	pushq	%r12
	pushq	%rbx
	subq	$264, %rsp
	.cfi_offset %rbx, -56
	.cfi_offset %r12, -48
	.cfi_offset %r13, -40
	.cfi_offset %r14, -32
	.cfi_offset %r15, -24
	movq	%rsi, %rbx
	movq	%rdi, -72(%rbp)
	leaq	-136(%rbp), %r13
	leaq	-176(%rbp), %r15
	movl	$242, %r14d
	movq	64(%rbx), %rdx
	movl	$0, %r11d
	cmpq	%rdx, 56(%rbx)
	ja	LBB2_2
	jmp	LBB2_4
	.p2align	4, 0x90
LBB2_20:
	cmpq	$6, %rsi
	jne	LBB2_21
	movq	64(%rbx), %rdx
	movl	$0, %r11d
	cmpq	%rdx, 56(%rbx)
	jbe	LBB2_4
LBB2_2:
	leaq	(,%rdx,4), %rax
	movl	$0, %r11d
	addq	48(%rbx), %rax
	je	LBB2_4
	movl	(%rax), %r10d
	movl	$1, %r11d
LBB2_4:
	cmpq	%rdx, 24(%rbx)
	jbe	LBB2_22
	leaq	(%rdx,%rdx,2), %rcx
	shlq	$3, %rcx
	addq	16(%rbx), %rcx
	leaq	1(%rdx), %rax
	movq	%rax, 64(%rbx)
	movq	(%rbx), %rax
	movb	208(%rax), %r12b
	testb	%r12b, %r12b
	movq	40(%rbx), %rdi
	movl	(%rcx), %eax
	movl	%eax, %esi
	bswapl	%esi
	cmovel	%eax, %esi
	movl	$30, %r9d
	cmpq	%rsi, %rdi
	jae	LBB2_7
	xorl	%r8d, %r8d
	jmp	LBB2_13
	.p2align	4, 0x90
LBB2_7:
	movq	32(%rbx), %r8
	addq	%rsi, %r8
	subq	%rdi, %rsi
	movq	$-1, %rdi
	.p2align	4, 0x90
LBB2_8:
	leaq	(%rsi,%rdi), %rax
	cmpq	$-1, %rax
	je	LBB2_9
	movzbl	1(%r8,%rdi), %r14d
	incq	%rdi
	testb	%r14b, %r14b
	jne	LBB2_8
	cmpb	$1, %r14b
	movb	$1, %al
	adcb	$0, %al
	movzbl	%al, %r9d
	andl	$1, %r9d
	addq	%rdi, %r9
	jmp	LBB2_12
	.p2align	4, 0x90
LBB2_9:
	xorl	%r8d, %r8d
LBB2_12:
	movl	$242, %r14d
LBB2_13:
	movzbl	%r12b, %esi
	movq	%r15, %rdi
	pushq	%r10
	pushq	%r11
	callq	__ZN6object4read3elf6symbol12parse_symbol17he259bcb8fa8840dfE
	addq	$16, %rsp
	movq	-160(%rbp), %rax
	movq	%rax, -224(%rbp)
	vmovups	-176(%rbp), %xmm0
	vmovaps	%xmm0, -240(%rbp)
	movq	-152(%rbp), %rax
	movq	-144(%rbp), %rcx
	vmovups	(%r13), %xmm0
	vmovaps	%xmm0, -208(%rbp)
	movq	16(%r13), %rdx
	movq	%rdx, -192(%rbp)
	movb	-112(%rbp), %dl
	movl	25(%r13), %esi
	movl	28(%r13), %edi
	movl	%esi, -56(%rbp)
	movl	%edi, -53(%rbp)
	cmpq	$6, %rcx
	je	LBB2_22
	vmovaps	-240(%rbp), %xmm0
	vmovaps	%xmm0, -176(%rbp)
	movq	-224(%rbp), %rsi
	movq	%rsi, -160(%rbp)
	vmovaps	-208(%rbp), %xmm0
	vmovaps	%xmm0, -96(%rbp)
	movq	-192(%rbp), %rsi
	movq	%rsi, -80(%rbp)
	movl	-56(%rbp), %esi
	movl	-53(%rbp), %edi
	movl	%esi, -48(%rbp)
	movl	%edi, -45(%rbp)
	cmpb	$7, %dl
	ja	LBB2_24
	movl	$6, %esi
	movzbl	%dl, %edi
	btl	%edi, %r14d
	jb	LBB2_20
	cmpq	$2, %rcx
	je	LBB2_20
	cmpq	$4, %rcx
	je	LBB2_20
	testq	%rax, %rax
	je	LBB2_20
	movq	-160(%rbp), %rsi
	movq	%rsi, -288(%rbp)
	vmovaps	-176(%rbp), %xmm0
	vmovaps	%xmm0, -304(%rbp)
	vmovaps	-96(%rbp), %xmm0
	vmovaps	%xmm0, -272(%rbp)
	movq	-80(%rbp), %rsi
	movq	%rsi, -256(%rbp)
	movl	-48(%rbp), %esi
	movl	-45(%rbp), %edi
	movl	%esi, -64(%rbp)
	movl	%edi, -61(%rbp)
	movb	%dl, -41(%rbp)
	movq	%rcx, %rsi
	movq	%rax, -104(%rbp)
	jmp	LBB2_20
LBB2_22:
	movq	-72(%rbp), %rax
	movq	$6, 32(%rax)
	jmp	LBB2_23
LBB2_21:
	movq	-288(%rbp), %rax
	movq	-72(%rbp), %rdx
	movq	%rax, 16(%rdx)
	vmovaps	-304(%rbp), %xmm0
	vmovups	%xmm0, (%rdx)
	vmovaps	-272(%rbp), %xmm0
	vmovaps	%xmm0, -176(%rbp)
	movq	-256(%rbp), %rax
	movq	%rax, -160(%rbp)
	movl	-64(%rbp), %eax
	movl	-61(%rbp), %ecx
	movl	%eax, -96(%rbp)
	movl	%ecx, -93(%rbp)
	movq	-104(%rbp), %rax
	movq	%rax, 24(%rdx)
	movq	%rsi, 32(%rdx)
	vmovaps	-176(%rbp), %xmm0
	vmovups	%xmm0, 40(%rdx)
	movq	-160(%rbp), %rax
	movq	%rax, 56(%rdx)
	movb	-41(%rbp), %al
	movb	%al, 64(%rdx)
	movl	-96(%rbp), %eax
	movl	-93(%rbp), %ecx
	movl	%eax, 65(%rdx)
	movl	%ecx, 68(%rdx)
LBB2_23:
	addq	$264, %rsp
	popq	%rbx
	popq	%r12
	popq	%r13
	popq	%r14
	popq	%r15
	popq	%rbp
	retq
LBB2_24:
	ud2
	.cfi_endproc

	.p2align	4, 0x90
__ZN42_$LT$$RF$T$u20$as$u20$core..fmt..Debug$GT$3fmt17h013c4f3875ef39f4E:
	.cfi_startproc
	pushq	%rbp
	.cfi_def_cfa_offset 16
	.cfi_offset %rbp, -16
	movq	%rsp, %rbp
	.cfi_def_cfa_register %rbp
	pushq	%r15
	pushq	%r14
	pushq	%r13
	pushq	%r12
	pushq	%rbx
	subq	$24, %rsp
	.cfi_offset %rbx, -56
	.cfi_offset %r12, -48
	.cfi_offset %r13, -40
	.cfi_offset %r14, -32
	.cfi_offset %r15, -24
	movq	(%rdi), %rax
	movq	(%rax), %r13
	movq	16(%rax), %rbx
	leaq	-64(%rbp), %rdi
	callq	__ZN4core3fmt9Formatter10debug_list17hd054f0986422feb9E
	testq	%rbx, %rbx
	je	LBB3_3
	shlq	$3, %rbx
	leaq	(%rbx,%rbx,2), %rbx
	leaq	l___unnamed_2(%rip), %r14
	leaq	-64(%rbp), %r15
	leaq	-48(%rbp), %r12
	.p2align	4, 0x90
LBB3_2:
	movq	%r13, -48(%rbp)
	addq	$24, %r13
	movq	%r15, %rdi
	movq	%r12, %rsi
	movq	%r14, %rdx
	callq	__ZN4core3fmt8builders9DebugList5entry17h5c0dec54538196dfE
	addq	$-24, %rbx
	jne	LBB3_2
LBB3_3:
	leaq	-64(%rbp), %rdi
	callq	__ZN4core3fmt8builders9DebugList6finish17h3635bd6af9b1c5a6E
	addq	$24, %rsp
	popq	%rbx
	popq	%r12
	popq	%r13
	popq	%r14
	popq	%r15
	popq	%rbp
	retq
	.cfi_endproc

	.p2align	4, 0x90
__ZN42_$LT$$RF$T$u20$as$u20$core..fmt..Debug$GT$3fmt17h01f22128b516633bE:
	.cfi_startproc
	pushq	%rbp
	.cfi_def_cfa_offset 16
	.cfi_offset %rbp, -16
	movq	%rsp, %rbp
	.cfi_def_cfa_register %rbp
	pushq	%r15
	pushq	%r14
	pushq	%r13
	pushq	%r12
	pushq	%rbx
	subq	$40, %rsp
	.cfi_offset %rbx, -56
	.cfi_offset %r12, -48
	.cfi_offset %r13, -40
	.cfi_offset %r14, -32
	.cfi_offset %r15, -24
	movq	(%rdi), %rbx
	leaq	208(%rbx), %r14
	leaq	l___unnamed_3(%rip), %rdx
	leaq	-80(%rbp), %r15
	movl	$7, %ecx
	movq	%r15, %rdi
	callq	__ZN4core3fmt9Formatter12debug_struct17h985c0158d1fc7193E
	movq	%r14, -48(%rbp)
	leaq	l___unnamed_4(%rip), %rsi
	leaq	l___unnamed_5(%rip), %r8
	leaq	-48(%rbp), %rcx
	movl	$6, %edx
	movq	%r15, %rdi
	callq	__ZN4core3fmt8builders11DebugStruct5field17h9c15dc155278eed2E
	movq	%rbx, -48(%rbp)
	leaq	16(%rbx), %r14
	leaq	24(%rbx), %r12
	leaq	40(%rbx), %r13
	leaq	72(%rbx), %rax
	movq	%rax, -56(%rbp)
	leaq	96(%rbx), %rax
	movq	%rax, -64(%rbp)
	leaq	152(%rbx), %rbx
	leaq	L___unnamed_6(%rip), %rsi
	leaq	l___unnamed_7(%rip), %r8
	leaq	-48(%rbp), %rcx
	movl	$4, %edx
	movq	%r15, %rdi
	callq	__ZN4core3fmt8builders11DebugStruct5field17h9c15dc155278eed2E
	movq	%r14, -48(%rbp)
	leaq	l___unnamed_8(%rip), %rsi
	leaq	l___unnamed_9(%rip), %r8
	leaq	-48(%rbp), %rcx
	movl	$6, %edx
	movq	%r15, %rdi
	callq	__ZN4core3fmt8builders11DebugStruct5field17h9c15dc155278eed2E
	movq	%r12, -48(%rbp)
	leaq	L___unnamed_10(%rip), %rsi
	leaq	l___unnamed_11(%rip), %r8
	leaq	-48(%rbp), %rcx
	movl	$8, %edx
	movq	%r15, %rdi
	callq	__ZN4core3fmt8builders11DebugStruct5field17h9c15dc155278eed2E
	movq	%r13, -48(%rbp)
	leaq	L___unnamed_12(%rip), %rsi
	leaq	l___unnamed_13(%rip), %r8
	leaq	-48(%rbp), %rcx
	movl	$8, %edx
	movq	%r15, %rdi
	callq	__ZN4core3fmt8builders11DebugStruct5field17h9c15dc155278eed2E
	movq	-56(%rbp), %rax
	movq	%rax, -48(%rbp)
	leaq	l___unnamed_14(%rip), %rsi
	leaq	l___unnamed_15(%rip), %r8
	leaq	-48(%rbp), %rcx
	movl	$11, %edx
	movq	%r15, %rdi
	callq	__ZN4core3fmt8builders11DebugStruct5field17h9c15dc155278eed2E
	movq	-64(%rbp), %rax
	movq	%rax, -48(%rbp)
	leaq	l___unnamed_16(%rip), %rsi
	leaq	l___unnamed_17(%rip), %r14
	leaq	-48(%rbp), %rcx
	movl	$7, %edx
	movq	%r15, %rdi
	movq	%r14, %r8
	callq	__ZN4core3fmt8builders11DebugStruct5field17h9c15dc155278eed2E
	movq	%rbx, -48(%rbp)
	leaq	l___unnamed_18(%rip), %rsi
	leaq	-48(%rbp), %rcx
	movl	$15, %edx
	movq	%r15, %rdi
	movq	%r14, %r8
	callq	__ZN4core3fmt8builders11DebugStruct5field17h9c15dc155278eed2E
	movq	%r15, %rdi
	callq	__ZN4core3fmt8builders11DebugStruct6finish17h26808393f3fed630E
	addq	$40, %rsp
	popq	%rbx
	popq	%r12
	popq	%r13
	popq	%r14
	popq	%r15
	popq	%rbp
	retq
	.cfi_endproc

	.p2align	4, 0x90
__ZN42_$LT$$RF$T$u20$as$u20$core..fmt..Debug$GT$3fmt17h020a301a41e41887E:
	.cfi_startproc
	pushq	%rbp
	.cfi_def_cfa_offset 16
	.cfi_offset %rbp, -16
	movq	%rsp, %rbp
	.cfi_def_cfa_register %rbp
	pushq	%r14
	pushq	%rbx
	subq	$32, %rsp
	.cfi_offset %rbx, -32
	.cfi_offset %r14, -24
	movq	(%rdi), %rbx
	leaq	l___unnamed_19(%rip), %rdx
	leaq	-40(%rbp), %r14
	movl	$17, %ecx
	movq	%r14, %rdi
	callq	__ZN4core3fmt9Formatter12debug_struct17h985c0158d1fc7193E
	movq	%rbx, -24(%rbp)
	addq	$8, %rbx
	leaq	L___unnamed_20(%rip), %rsi
	leaq	l___unnamed_21(%rip), %r8
	leaq	-24(%rbp), %rcx
	movl	$4, %edx
	movq	%r14, %rdi
	callq	__ZN4core3fmt8builders11DebugStruct5field17h9c15dc155278eed2E
	movq	%rbx, -24(%rbp)
	leaq	L___unnamed_22(%rip), %rsi
	leaq	l___unnamed_23(%rip), %r8
	leaq	-24(%rbp), %rcx
	movl	$4, %edx
	movq	%r14, %rdi
	callq	__ZN4core3fmt8builders11DebugStruct5field17h9c15dc155278eed2E
	movq	%r14, %rdi
	callq	__ZN4core3fmt8builders11DebugStruct6finish17h26808393f3fed630E
	addq	$32, %rsp
	popq	%rbx
	popq	%r14
	popq	%rbp
	retq
	.cfi_endproc

	.p2align	4, 0x90
__ZN42_$LT$$RF$T$u20$as$u20$core..fmt..Debug$GT$3fmt17h05f9085aca0a9526E:
	.cfi_startproc
	pushq	%rbp
	.cfi_def_cfa_offset 16
	.cfi_offset %rbp, -16
	movq	%rsp, %rbp
	.cfi_def_cfa_register %rbp
	pushq	%r14
	pushq	%rbx
	.cfi_offset %rbx, -32
	.cfi_offset %r14, -24
	movq	%rsi, %rbx
	movq	(%rdi), %r14
	movq	%rsi, %rdi
	callq	__ZN4core3fmt9Formatter15debug_lower_hex17h8530fbaeba13f4d9E
	testb	%al, %al
	je	LBB6_1
	movq	%r14, %rdi
	movq	%rbx, %rsi
	popq	%rbx
	popq	%r14
	popq	%rbp
	jmp	__ZN4core3fmt3num53_$LT$impl$u20$core..fmt..LowerHex$u20$for$u20$i64$GT$3fmt17ha8bb237a95553570E
LBB6_1:
	movq	%rbx, %rdi
	callq	__ZN4core3fmt9Formatter15debug_upper_hex17hf8fda15ec43a1e68E
	movq	%r14, %rdi
	movq	%rbx, %rsi
	testb	%al, %al
	je	LBB6_4
	popq	%rbx
	popq	%r14
	popq	%rbp
	jmp	__ZN4core3fmt3num53_$LT$impl$u20$core..fmt..UpperHex$u20$for$u20$i64$GT$3fmt17h13194bd83ca37803E
LBB6_4:
	popq	%rbx
	popq	%r14
	popq	%rbp
	jmp	__ZN4core3fmt3num3imp52_$LT$impl$u20$core..fmt..Display$u20$for$u20$i64$GT$3fmt17h6a5170735d6294a5E
	.cfi_endproc

	.p2align	4, 0x90
__ZN42_$LT$$RF$T$u20$as$u20$core..fmt..Debug$GT$3fmt17h0687ac5231e9cf00E:
	.cfi_startproc
	pushq	%rbp
	.cfi_def_cfa_offset 16
	.cfi_offset %rbp, -16
	movq	%rsp, %rbp
	.cfi_def_cfa_register %rbp
	pushq	%r15
	pushq	%r14
	pushq	%r13
	pushq	%r12
	pushq	%rbx
	subq	$24, %rsp
	.cfi_offset %rbx, -56
	.cfi_offset %r12, -48
	.cfi_offset %r13, -40
	.cfi_offset %r14, -32
	.cfi_offset %r15, -24
	movq	(%rdi), %rax
	movq	(%rax), %r13
	movq	8(%rax), %rbx
	leaq	-64(%rbp), %rdi
	callq	__ZN4core3fmt9Formatter10debug_list17hd054f0986422feb9E
	testq	%rbx, %rbx
	je	LBB7_3
	shlq	$3, %rbx
	leaq	(%rbx,%rbx,4), %rbx
	leaq	l___unnamed_24(%rip), %r14
	leaq	-64(%rbp), %r15
	leaq	-48(%rbp), %r12
	.p2align	4, 0x90
LBB7_2:
	movq	%r13, -48(%rbp)
	addq	$40, %r13
	movq	%r15, %rdi
	movq	%r12, %rsi
	movq	%r14, %rdx
	callq	__ZN4core3fmt8builders9DebugList5entry17h5c0dec54538196dfE
	addq	$-40, %rbx
	jne	LBB7_2
LBB7_3:
	leaq	-64(%rbp), %rdi
	callq	__ZN4core3fmt8builders9DebugList6finish17h3635bd6af9b1c5a6E
	addq	$24, %rsp
	popq	%rbx
	popq	%r12
	popq	%r13
	popq	%r14
	popq	%r15
	popq	%rbp
	retq
	.cfi_endproc

	.p2align	4, 0x90
__ZN42_$LT$$RF$T$u20$as$u20$core..fmt..Debug$GT$3fmt17h0726152284f30d13E:
	.cfi_startproc
	pushq	%rbp
	.cfi_def_cfa_offset 16
	.cfi_offset %rbp, -16
	movq	%rsp, %rbp
	.cfi_def_cfa_register %rbp
	pushq	%r15
	pushq	%r14
	pushq	%r12
	pushq	%rbx
	subq	$32, %rsp
	.cfi_offset %rbx, -48
	.cfi_offset %r12, -40
	.cfi_offset %r14, -32
	.cfi_offset %r15, -24
	movq	(%rdi), %rbx
	leaq	-56(%rbp), %r12
	movq	%r12, %rdi
	callq	__ZN4core3fmt9Formatter10debug_list17hd054f0986422feb9E
	movq	%rbx, -40(%rbp)
	leaq	l___unnamed_25(%rip), %r14
	leaq	-40(%rbp), %r15
	movq	%r12, %rdi
	movq	%r15, %rsi
	movq	%r14, %rdx
	callq	__ZN4core3fmt8builders9DebugList5entry17h5c0dec54538196dfE
	incq	%rbx
	movq	%rbx, -40(%rbp)
	movq	%r12, %rdi
	movq	%r15, %rsi
	movq	%r14, %rdx
	callq	__ZN4core3fmt8builders9DebugList5entry17h5c0dec54538196dfE
	movq	%r12, %rdi
	callq	__ZN4core3fmt8builders9DebugList6finish17h3635bd6af9b1c5a6E
	addq	$32, %rsp
	popq	%rbx
	popq	%r12
	popq	%r14
	popq	%r15
	popq	%rbp
	retq
	.cfi_endproc

	.p2align	4, 0x90
__ZN42_$LT$$RF$T$u20$as$u20$core..fmt..Debug$GT$3fmt17h0875f2c6788cdb75E:
	.cfi_startproc
	pushq	%rbp
	.cfi_def_cfa_offset 16
	.cfi_offset %rbp, -16
	movq	%rsp, %rbp
	.cfi_def_cfa_register %rbp
	movq	(%rdi), %rdi
	popq	%rbp
	jmp	__ZN42_$LT$$RF$T$u20$as$u20$core..fmt..Debug$GT$3fmt17h01f22128b516633bE
	.cfi_endproc

	.p2align	4, 0x90
__ZN42_$LT$$RF$T$u20$as$u20$core..fmt..Debug$GT$3fmt17h0d3c5121918032c1E:
	.cfi_startproc
	pushq	%rbp
	.cfi_def_cfa_offset 16
	.cfi_offset %rbp, -16
	movq	%rsp, %rbp
	.cfi_def_cfa_register %rbp
	pushq	%r14
	pushq	%rbx
	subq	$32, %rsp
	.cfi_offset %rbx, -32
	.cfi_offset %r14, -24
	movq	(%rdi), %rbx
	cmpq	$0, (%rbx)
	je	LBB10_2
	leaq	-48(%rbp), %r14
	leaq	L___unnamed_26(%rip), %rdx
	movl	$4, %ecx
	movq	%r14, %rdi
	callq	__ZN4core3fmt9Formatter11debug_tuple17h15ca25ad759edd1cE
	movq	%rbx, -24(%rbp)
	leaq	l___unnamed_27(%rip), %rdx
	leaq	-24(%rbp), %rsi
	movq	%r14, %rdi
	callq	__ZN4core3fmt8builders10DebugTuple5field17hf36121153a94f236E
	jmp	LBB10_3
LBB10_2:
	leaq	-48(%rbp), %r14
	leaq	L___unnamed_28(%rip), %rdx
	movl	$4, %ecx
	movq	%r14, %rdi
	callq	__ZN4core3fmt9Formatter11debug_tuple17h15ca25ad759edd1cE
LBB10_3:
	movq	%r14, %rdi
	callq	__ZN4core3fmt8builders10DebugTuple6finish17h68acf09c6f6593f2E
	addq	$32, %rsp
	popq	%rbx
	popq	%r14
	popq	%rbp
	retq
	.cfi_endproc

	.p2align	4, 0x90
__ZN42_$LT$$RF$T$u20$as$u20$core..fmt..Debug$GT$3fmt17h1051b69bf2670757E:
	.cfi_startproc
	pushq	%rbp
	.cfi_def_cfa_offset 16
	.cfi_offset %rbp, -16
	movq	%rsp, %rbp
	.cfi_def_cfa_register %rbp
	pushq	%r15
	pushq	%r14
	pushq	%r13
	pushq	%r12
	pushq	%rbx
	subq	$56, %rsp
	.cfi_offset %rbx, -56
	.cfi_offset %r12, -48
	.cfi_offset %r13, -40
	.cfi_offset %r14, -32
	.cfi_offset %r15, -24
	movq	(%rdi), %rax
	movq	(%rax), %rbx
	leaq	l___unnamed_29(%rip), %rdx
	leaq	-88(%rbp), %r13
	movl	$12, %ecx
	movq	%r13, %rdi
	callq	__ZN4core3fmt9Formatter12debug_struct17h985c0158d1fc7193E
	movq	%rbx, -48(%rbp)
	leaq	4(%rbx), %r14
	leaq	8(%rbx), %r15
	leaq	12(%rbx), %r12
	leaq	16(%rbx), %rax
	movq	%rax, -56(%rbp)
	leaq	20(%rbx), %rax
	movq	%rax, -64(%rbp)
	leaq	24(%rbx), %rax
	movq	%rax, -72(%rbp)
	leaq	28(%rbx), %rbx
	leaq	l___unnamed_30(%rip), %rsi
	leaq	l___unnamed_31(%rip), %r8
	leaq	-48(%rbp), %rcx
	movl	$5, %edx
	movq	%r13, %rdi
	callq	__ZN4core3fmt8builders11DebugStruct5field17h9c15dc155278eed2E
	movq	%r14, -48(%rbp)
	leaq	l___unnamed_32(%rip), %rsi
	leaq	l___unnamed_33(%rip), %r14
	leaq	-48(%rbp), %rcx
	movl	$7, %edx
	movq	%r13, %rdi
	movq	%r14, %r8
	callq	__ZN4core3fmt8builders11DebugStruct5field17h9c15dc155278eed2E
	movq	%r15, -48(%rbp)
	leaq	l___unnamed_34(%rip), %rsi
	leaq	-48(%rbp), %rcx
	movl	$10, %edx
	movq	%r13, %rdi
	movq	%r14, %r8
	callq	__ZN4core3fmt8builders11DebugStruct5field17h9c15dc155278eed2E
	movq	%r12, -48(%rbp)
	leaq	L___unnamed_35(%rip), %rsi
	leaq	-48(%rbp), %rcx
	movl	$8, %edx
	movq	%r13, %rdi
	movq	%r14, %r8
	callq	__ZN4core3fmt8builders11DebugStruct5field17h9c15dc155278eed2E
	movq	-56(%rbp), %rax
	movq	%rax, -48(%rbp)
	leaq	l___unnamed_36(%rip), %rsi
	leaq	-48(%rbp), %rcx
	movl	$5, %edx
	movq	%r13, %rdi
	movq	%r14, %r8
	callq	__ZN4core3fmt8builders11DebugStruct5field17h9c15dc155278eed2E
	movq	-64(%rbp), %rax
	movq	%rax, -48(%rbp)
	leaq	l___unnamed_37(%rip), %rsi
	leaq	-48(%rbp), %rcx
	movl	$10, %edx
	movq	%r13, %rdi
	movq	%r14, %r8
	callq	__ZN4core3fmt8builders11DebugStruct5field17h9c15dc155278eed2E
	movq	-72(%rbp), %rax
	movq	%rax, -48(%rbp)
	leaq	l___unnamed_38(%rip), %rsi
	leaq	-48(%rbp), %rcx
	movl	$5, %edx
	movq	%r13, %rdi
	movq	%r14, %r8
	callq	__ZN4core3fmt8builders11DebugStruct5field17h9c15dc155278eed2E
	movq	%rbx, -48(%rbp)
	leaq	L___unnamed_39(%rip), %rsi
	leaq	-48(%rbp), %rcx
	movl	$8, %edx
	movq	%r13, %rdi
	movq	%r14, %r8
	callq	__ZN4core3fmt8builders11DebugStruct5field17h9c15dc155278eed2E
	movq	%r13, %rdi
	callq	__ZN4core3fmt8builders11DebugStruct6finish17h26808393f3fed630E
	addq	$56, %rsp
	popq	%rbx
	popq	%r12
	popq	%r13
	popq	%r14
	popq	%r15
	popq	%rbp
	retq
	.cfi_endproc

	.p2align	4, 0x90
__ZN42_$LT$$RF$T$u20$as$u20$core..fmt..Debug$GT$3fmt17h12549475451cd993E:
	.cfi_startproc
	pushq	%rbp
	.cfi_def_cfa_offset 16
	.cfi_offset %rbp, -16
	movq	%rsp, %rbp
	.cfi_def_cfa_register %rbp
	pushq	%rbx
	subq	$24, %rsp
	.cfi_offset %rbx, -24
	leaq	l___unnamed_40(%rip), %rdx
	leaq	-24(%rbp), %rbx
	movl	$17, %ecx
	movq	%rbx, %rdi
	callq	__ZN4core3fmt9Formatter12debug_struct17h985c0158d1fc7193E
	movq	%rbx, %rdi
	callq	__ZN4core3fmt8builders11DebugStruct6finish17h26808393f3fed630E
	addq	$24, %rsp
	popq	%rbx
	popq	%rbp
	retq
	.cfi_endproc

	.p2align	4, 0x90
__ZN42_$LT$$RF$T$u20$as$u20$core..fmt..Debug$GT$3fmt17h16ed4d539cdc7b9aE:
	.cfi_startproc
	pushq	%rbp
	.cfi_def_cfa_offset 16
	.cfi_offset %rbp, -16
	movq	%rsp, %rbp
	.cfi_def_cfa_register %rbp
	pushq	%r15
	pushq	%r14
	pushq	%r12
	pushq	%rbx
	subq	$32, %rsp
	.cfi_offset %rbx, -48
	.cfi_offset %r12, -40
	.cfi_offset %r14, -32
	.cfi_offset %r15, -24
	movq	(%rdi), %rbx
	leaq	-56(%rbp), %r12
	movq	%r12, %rdi
	callq	__ZN4core3fmt9Formatter10debug_list17hd054f0986422feb9E
	movq	%rbx, -40(%rbp)
	leaq	l___unnamed_25(%rip), %r14
	leaq	-40(%rbp), %r15
	movq	%r12, %rdi
	movq	%r15, %rsi
	movq	%r14, %rdx
	callq	__ZN4core3fmt8builders9DebugList5entry17h5c0dec54538196dfE
	leaq	1(%rbx), %rax
	movq	%rax, -40(%rbp)
	movq	%r12, %rdi
	movq	%r15, %rsi
	movq	%r14, %rdx
	callq	__ZN4core3fmt8builders9DebugList5entry17h5c0dec54538196dfE
	leaq	2(%rbx), %rax
	movq	%rax, -40(%rbp)
	movq	%r12, %rdi
	movq	%r15, %rsi
	movq	%r14, %rdx
	callq	__ZN4core3fmt8builders9DebugList5entry17h5c0dec54538196dfE
	addq	$3, %rbx
	movq	%rbx, -40(%rbp)
	movq	%r12, %rdi
	movq	%r15, %rsi
	movq	%r14, %rdx
	callq	__ZN4core3fmt8builders9DebugList5entry17h5c0dec54538196dfE
	movq	%r12, %rdi
	callq	__ZN4core3fmt8builders9DebugList6finish17h3635bd6af9b1c5a6E
	addq	$32, %rsp
	popq	%rbx
	popq	%r12
	popq	%r14
	popq	%r15
	popq	%rbp
	retq
	.cfi_endproc

	.p2align	4, 0x90
__ZN42_$LT$$RF$T$u20$as$u20$core..fmt..Debug$GT$3fmt17h18a37bd0a9149499E:
	.cfi_startproc
	pushq	%rbp
	.cfi_def_cfa_offset 16
	.cfi_offset %rbp, -16
	movq	%rsp, %rbp
	.cfi_def_cfa_register %rbp
	pushq	%r15
	pushq	%r14
	pushq	%r13
	pushq	%r12
	pushq	%rbx
	subq	$24, %rsp
	.cfi_offset %rbx, -56
	.cfi_offset %r12, -48
	.cfi_offset %r13, -40
	.cfi_offset %r14, -32
	.cfi_offset %r15, -24
	movq	(%rdi), %rax
	movq	(%rax), %rbx
	movq	8(%rax), %r13
	leaq	-64(%rbp), %rdi
	callq	__ZN4core3fmt9Formatter10debug_list17hd054f0986422feb9E
	testq	%r13, %r13
	je	LBB14_3
	shlq	$5, %r13
	leaq	l___unnamed_41(%rip), %r14
	leaq	-64(%rbp), %r15
	leaq	-48(%rbp), %r12
	.p2align	4, 0x90
LBB14_2:
	movq	%rbx, -48(%rbp)
	addq	$32, %rbx
	movq	%r15, %rdi
	movq	%r12, %rsi
	movq	%r14, %rdx
	callq	__ZN4core3fmt8builders9DebugList5entry17h5c0dec54538196dfE
	addq	$-32, %r13
	jne	LBB14_2
LBB14_3:
	leaq	-64(%rbp), %rdi
	callq	__ZN4core3fmt8builders9DebugList6finish17h3635bd6af9b1c5a6E
	addq	$24, %rsp
	popq	%rbx
	popq	%r12
	popq	%r13
	popq	%r14
	popq	%r15
	popq	%rbp
	retq
	.cfi_endproc

	.p2align	4, 0x90
__ZN42_$LT$$RF$T$u20$as$u20$core..fmt..Debug$GT$3fmt17h19bd9407fb5e2f50E:
	.cfi_startproc
	pushq	%rbp
	.cfi_def_cfa_offset 16
	.cfi_offset %rbp, -16
	movq	%rsp, %rbp
	.cfi_def_cfa_register %rbp
	pushq	%r15
	pushq	%r14
	pushq	%r13
	pushq	%r12
	pushq	%rbx
	subq	$24, %rsp
	.cfi_offset %rbx, -56
	.cfi_offset %r12, -48
	.cfi_offset %r13, -40
	.cfi_offset %r14, -32
	.cfi_offset %r15, -24
	movq	(%rdi), %rax
	movq	(%rax), %rbx
	movq	16(%rax), %r13
	leaq	-64(%rbp), %rdi
	callq	__ZN4core3fmt9Formatter10debug_list17hd054f0986422feb9E
	testq	%r13, %r13
	je	LBB15_3
	shlq	$3, %r13
	leaq	l___unnamed_42(%rip), %r14
	leaq	-64(%rbp), %r15
	leaq	-48(%rbp), %r12
	.p2align	4, 0x90
LBB15_2:
	movq	%rbx, -48(%rbp)
	movq	%r15, %rdi
	movq	%r12, %rsi
	movq	%r14, %rdx
	callq	__ZN4core3fmt8builders9DebugList5entry17h5c0dec54538196dfE
	addq	$8, %rbx
	addq	$-8, %r13
	jne	LBB15_2
LBB15_3:
	leaq	-64(%rbp), %rdi
	callq	__ZN4core3fmt8builders9DebugList6finish17h3635bd6af9b1c5a6E
	addq	$24, %rsp
	popq	%rbx
	popq	%r12
	popq	%r13
	popq	%r14
	popq	%r15
	popq	%rbp
	retq
	.cfi_endproc

	.p2align	4, 0x90
__ZN42_$LT$$RF$T$u20$as$u20$core..fmt..Debug$GT$3fmt17h1a9df53312210f6aE:
	.cfi_startproc
	pushq	%rbp
	.cfi_def_cfa_offset 16
	.cfi_offset %rbp, -16
	movq	%rsp, %rbp
	.cfi_def_cfa_register %rbp
	pushq	%r15
	pushq	%r14
	pushq	%r13
	pushq	%r12
	pushq	%rbx
	subq	$24, %rsp
	.cfi_offset %rbx, -56
	.cfi_offset %r12, -48
	.cfi_offset %r13, -40
	.cfi_offset %r14, -32
	.cfi_offset %r15, -24
	movq	(%rdi), %rbx
	leaq	-64(%rbp), %r12
	movq	%r12, %rdi
	callq	__ZN4core3fmt9Formatter10debug_list17hd054f0986422feb9E
	leaq	4(%rbx), %r13
	movq	%rbx, -48(%rbp)
	leaq	l___unnamed_43(%rip), %r14
	leaq	-48(%rbp), %r15
	movq	%r12, %rdi
	movq	%r15, %rsi
	movq	%r14, %rdx
	callq	__ZN4core3fmt8builders9DebugList5entry17h5c0dec54538196dfE
	movq	%r13, -48(%rbp)
	movq	%r12, %rdi
	movq	%r15, %rsi
	movq	%r14, %rdx
	callq	__ZN4core3fmt8builders9DebugList5entry17h5c0dec54538196dfE
	leaq	8(%rbx), %rax
	addq	$12, %rbx
	movq	%rax, -48(%rbp)
	movq	%r12, %rdi
	movq	%r15, %rsi
	movq	%r14, %rdx
	callq	__ZN4core3fmt8builders9DebugList5entry17h5c0dec54538196dfE
	movq	%rbx, -48(%rbp)
	movq	%r12, %rdi
	movq	%r15, %rsi
	movq	%r14, %rdx
	callq	__ZN4core3fmt8builders9DebugList5entry17h5c0dec54538196dfE
	movq	%r12, %rdi
	callq	__ZN4core3fmt8builders9DebugList6finish17h3635bd6af9b1c5a6E
	addq	$24, %rsp
	popq	%rbx
	popq	%r12
	popq	%r13
	popq	%r14
	popq	%r15
	popq	%rbp
	retq
	.cfi_endproc

	.p2align	4, 0x90
__ZN42_$LT$$RF$T$u20$as$u20$core..fmt..Debug$GT$3fmt17h1b6adffc6a980489E:
	.cfi_startproc
	pushq	%rbp
	.cfi_def_cfa_offset 16
	.cfi_offset %rbp, -16
	movq	%rsp, %rbp
	.cfi_def_cfa_register %rbp
	pushq	%r15
	pushq	%r14
	pushq	%r13
	pushq	%r12
	pushq	%rbx
	subq	$40, %rsp
	.cfi_offset %rbx, -56
	.cfi_offset %r12, -48
	.cfi_offset %r13, -40
	.cfi_offset %r14, -32
	.cfi_offset %r15, -24
	movq	(%rdi), %rbx
	leaq	l___unnamed_44(%rip), %rdx
	leaq	-72(%rbp), %r13
	movl	$6, %ecx
	movq	%r13, %rdi
	callq	__ZN4core3fmt9Formatter12debug_struct17h985c0158d1fc7193E
	movq	%rbx, -48(%rbp)
	leaq	8(%rbx), %r14
	leaq	16(%rbx), %r15
	leaq	32(%rbx), %r12
	leaq	48(%rbx), %rax
	movq	%rax, -56(%rbp)
	leaq	80(%rbx), %rbx
	leaq	l___unnamed_45(%rip), %rsi
	leaq	l___unnamed_46(%rip), %r8
	leaq	-48(%rbp), %rcx
	movl	$10, %edx
	movq	%r13, %rdi
	callq	__ZN4core3fmt8builders11DebugStruct5field17h9c15dc155278eed2E
	movq	%r14, -48(%rbp)
	leaq	l___unnamed_47(%rip), %rsi
	leaq	l___unnamed_48(%rip), %r8
	leaq	-48(%rbp), %rcx
	movl	$10, %edx
	movq	%r13, %rdi
	callq	__ZN4core3fmt8builders11DebugStruct5field17h9c15dc155278eed2E
	movq	%r15, -48(%rbp)
	leaq	L___unnamed_49(%rip), %rsi
	leaq	l___unnamed_50(%rip), %r8
	leaq	-48(%rbp), %rcx
	movl	$16, %edx
	movq	%r13, %rdi
	callq	__ZN4core3fmt8builders11DebugStruct5field17h9c15dc155278eed2E
	movq	%r12, -48(%rbp)
	leaq	L___unnamed_12(%rip), %rsi
	leaq	l___unnamed_51(%rip), %r8
	leaq	-48(%rbp), %rcx
	movl	$8, %edx
	movq	%r13, %rdi
	callq	__ZN4core3fmt8builders11DebugStruct5field17h9c15dc155278eed2E
	movq	-56(%rbp), %rax
	movq	%rax, -48(%rbp)
	leaq	l___unnamed_16(%rip), %rsi
	leaq	l___unnamed_52(%rip), %r8
	leaq	-48(%rbp), %rcx
	movl	$7, %edx
	movq	%r13, %rdi
	callq	__ZN4core3fmt8builders11DebugStruct5field17h9c15dc155278eed2E
	movq	%rbx, -48(%rbp)
	leaq	L___unnamed_6(%rip), %rsi
	leaq	l___unnamed_7(%rip), %r8
	leaq	-48(%rbp), %rcx
	movl	$4, %edx
	movq	%r13, %rdi
	callq	__ZN4core3fmt8builders11DebugStruct5field17h9c15dc155278eed2E
	movq	%r13, %rdi
	callq	__ZN4core3fmt8builders11DebugStruct6finish17h26808393f3fed630E
	addq	$40, %rsp
	popq	%rbx
	popq	%r12
	popq	%r13
	popq	%r14
	popq	%r15
	popq	%rbp
	retq
	.cfi_endproc

	.p2align	4, 0x90
__ZN42_$LT$$RF$T$u20$as$u20$core..fmt..Debug$GT$3fmt17h1c2a4590d2b39449E:
	.cfi_startproc
	pushq	%rbp
	.cfi_def_cfa_offset 16
	.cfi_offset %rbp, -16
	movq	%rsp, %rbp
	.cfi_def_cfa_register %rbp
	pushq	%r15
	pushq	%r14
	pushq	%r13
	pushq	%r12
	pushq	%rbx
	subq	$40, %rsp
	.cfi_offset %rbx, -56
	.cfi_offset %r12, -48
	.cfi_offset %r13, -40
	.cfi_offset %r14, -32
	.cfi_offset %r15, -24
	movq	(%rdi), %rbx
	leaq	l___unnamed_53(%rip), %rdx
	leaq	-72(%rbp), %r15
	movl	$5, %ecx
	movq	%r15, %rdi
	callq	__ZN4core3fmt9Formatter12debug_struct17h985c0158d1fc7193E
	movq	%rbx, -48(%rbp)
	leaq	4(%rbx), %r14
	leaq	5(%rbx), %r12
	leaq	6(%rbx), %r13
	leaq	8(%rbx), %rax
	movq	%rax, -56(%rbp)
	leaq	16(%rbx), %rbx
	leaq	l___unnamed_54(%rip), %rsi
	leaq	l___unnamed_33(%rip), %r8
	leaq	-48(%rbp), %rcx
	movl	$7, %edx
	movq	%r15, %rdi
	callq	__ZN4core3fmt8builders11DebugStruct5field17h9c15dc155278eed2E
	movq	%r14, -48(%rbp)
	leaq	l___unnamed_55(%rip), %rsi
	leaq	l___unnamed_25(%rip), %r14
	leaq	-48(%rbp), %rcx
	movl	$7, %edx
	movq	%r15, %rdi
	movq	%r14, %r8
	callq	__ZN4core3fmt8builders11DebugStruct5field17h9c15dc155278eed2E
	movq	%r12, -48(%rbp)
	leaq	L___unnamed_56(%rip), %rsi
	leaq	-48(%rbp), %rcx
	movl	$8, %edx
	movq	%r15, %rdi
	movq	%r14, %r8
	callq	__ZN4core3fmt8builders11DebugStruct5field17h9c15dc155278eed2E
	movq	%r13, -48(%rbp)
	leaq	L___unnamed_57(%rip), %rsi
	leaq	l___unnamed_58(%rip), %r8
	leaq	-48(%rbp), %rcx
	movl	$8, %edx
	movq	%r15, %rdi
	callq	__ZN4core3fmt8builders11DebugStruct5field17h9c15dc155278eed2E
	movq	-56(%rbp), %rax
	movq	%rax, -48(%rbp)
	leaq	L___unnamed_59(%rip), %rsi
	leaq	l___unnamed_60(%rip), %r14
	leaq	-48(%rbp), %rcx
	movl	$8, %edx
	movq	%r15, %rdi
	movq	%r14, %r8
	callq	__ZN4core3fmt8builders11DebugStruct5field17h9c15dc155278eed2E
	movq	%rbx, -48(%rbp)
	leaq	l___unnamed_61(%rip), %rsi
	leaq	-48(%rbp), %rcx
	movl	$7, %edx
	movq	%r15, %rdi
	movq	%r14, %r8
	callq	__ZN4core3fmt8builders11DebugStruct5field17h9c15dc155278eed2E
	movq	%r15, %rdi
	callq	__ZN4core3fmt8builders11DebugStruct6finish17h26808393f3fed630E
	addq	$40, %rsp
	popq	%rbx
	popq	%r12
	popq	%r13
	popq	%r14
	popq	%r15
	popq	%rbp
	retq
	.cfi_endproc

	.p2align	4, 0x90
__ZN42_$LT$$RF$T$u20$as$u20$core..fmt..Debug$GT$3fmt17h1d1168a49b468dd0E:
	.cfi_startproc
	pushq	%rbp
	.cfi_def_cfa_offset 16
	.cfi_offset %rbp, -16
	movq	%rsp, %rbp
	.cfi_def_cfa_register %rbp
	pushq	%r15
	pushq	%r14
	pushq	%r13
	pushq	%r12
	pushq	%rbx
	subq	$40, %rsp
	.cfi_offset %rbx, -56
	.cfi_offset %r12, -48
	.cfi_offset %r13, -40
	.cfi_offset %r14, -32
	.cfi_offset %r15, -24
	movq	(%rdi), %rax
	movq	(%rax), %rbx
	leaq	l___unnamed_62(%rip), %rdx
	leaq	-80(%rbp), %r12
	movl	$12, %ecx
	movq	%r12, %rdi
	callq	__ZN4core3fmt9Formatter12debug_struct17h985c0158d1fc7193E
	movq	%rbx, -48(%rbp)
	leaq	4(%rbx), %r14
	leaq	8(%rbx), %r13
	leaq	12(%rbx), %r15
	leaq	16(%rbx), %rax
	movq	%rax, -56(%rbp)
	leaq	20(%rbx), %rax
	movq	%rax, -64(%rbp)
	leaq	24(%rbx), %rbx
	leaq	l___unnamed_30(%rip), %rsi
	leaq	l___unnamed_31(%rip), %r8
	leaq	-48(%rbp), %rcx
	movl	$5, %edx
	movq	%r12, %rdi
	callq	__ZN4core3fmt8builders11DebugStruct5field17h9c15dc155278eed2E
	movq	%r14, -48(%rbp)
	leaq	l___unnamed_32(%rip), %rsi
	leaq	l___unnamed_33(%rip), %r14
	leaq	-48(%rbp), %rcx
	movl	$7, %edx
	movq	%r12, %rdi
	movq	%r14, %r8
	callq	__ZN4core3fmt8builders11DebugStruct5field17h9c15dc155278eed2E
	movq	%r13, -48(%rbp)
	leaq	l___unnamed_34(%rip), %rsi
	leaq	-48(%rbp), %rcx
	movl	$10, %edx
	movq	%r12, %rdi
	movq	%r14, %r8
	callq	__ZN4core3fmt8builders11DebugStruct5field17h9c15dc155278eed2E
	movq	%r15, -48(%rbp)
	leaq	L___unnamed_35(%rip), %rsi
	leaq	-48(%rbp), %rcx
	movl	$8, %edx
	movq	%r12, %rdi
	movq	%r14, %r8
	callq	__ZN4core3fmt8builders11DebugStruct5field17h9c15dc155278eed2E
	movq	-56(%rbp), %rax
	movq	%rax, -48(%rbp)
	leaq	l___unnamed_36(%rip), %rsi
	leaq	-48(%rbp), %rcx
	movl	$5, %edx
	movq	%r12, %rdi
	movq	%r14, %r8
	callq	__ZN4core3fmt8builders11DebugStruct5field17h9c15dc155278eed2E
	movq	-64(%rbp), %rax
	movq	%rax, -48(%rbp)
	leaq	l___unnamed_37(%rip), %rsi
	leaq	-48(%rbp), %rcx
	movl	$10, %edx
	movq	%r12, %rdi
	movq	%r14, %r8
	callq	__ZN4core3fmt8builders11DebugStruct5field17h9c15dc155278eed2E
	movq	%rbx, -48(%rbp)
	leaq	l___unnamed_38(%rip), %rsi
	leaq	-48(%rbp), %rcx
	movl	$5, %edx
	movq	%r12, %rdi
	movq	%r14, %r8
	callq	__ZN4core3fmt8builders11DebugStruct5field17h9c15dc155278eed2E
	movq	%r12, %rdi
	callq	__ZN4core3fmt8builders11DebugStruct6finish17h26808393f3fed630E
	addq	$40, %rsp
	popq	%rbx
	popq	%r12
	popq	%r13
	popq	%r14
	popq	%r15
	popq	%rbp
	retq
	.cfi_endproc

	.p2align	4, 0x90
__ZN42_$LT$$RF$T$u20$as$u20$core..fmt..Debug$GT$3fmt17h1d38462c4f5d59efE:
	.cfi_startproc
	pushq	%rbp
	.cfi_def_cfa_offset 16
	.cfi_offset %rbp, -16
	movq	%rsp, %rbp
	.cfi_def_cfa_register %rbp
	pushq	%r14
	pushq	%rbx
	subq	$32, %rsp
	.cfi_offset %rbx, -32
	.cfi_offset %r14, -24
	movq	(%rdi), %rbx
	leaq	l___unnamed_63(%rip), %rdx
	leaq	-40(%rbp), %r14
	movl	$12, %ecx
	movq	%r14, %rdi
	callq	__ZN4core3fmt9Formatter12debug_struct17h985c0158d1fc7193E
	movq	%rbx, -24(%rbp)
	addq	$8, %rbx
	leaq	L___unnamed_20(%rip), %rsi
	leaq	l___unnamed_64(%rip), %r8
	leaq	-24(%rbp), %rcx
	movl	$4, %edx
	movq	%r14, %rdi
	callq	__ZN4core3fmt8builders11DebugStruct5field17h9c15dc155278eed2E
	movq	%rbx, -24(%rbp)
	leaq	l___unnamed_65(%rip), %rsi
	leaq	l___unnamed_66(%rip), %r8
	leaq	-24(%rbp), %rcx
	movl	$7, %edx
	movq	%r14, %rdi
	callq	__ZN4core3fmt8builders11DebugStruct5field17h9c15dc155278eed2E
	movq	%r14, %rdi
	callq	__ZN4core3fmt8builders11DebugStruct6finish17h26808393f3fed630E
	addq	$32, %rsp
	popq	%rbx
	popq	%r14
	popq	%rbp
	retq
	.cfi_endproc

	.p2align	4, 0x90
__ZN42_$LT$$RF$T$u20$as$u20$core..fmt..Debug$GT$3fmt17h1ddfd43587630e4bE:
	.cfi_startproc
	pushq	%rbp
	.cfi_def_cfa_offset 16
	.cfi_offset %rbp, -16
	movq	%rsp, %rbp
	.cfi_def_cfa_register %rbp
	pushq	%r14
	pushq	%rbx
	.cfi_offset %rbx, -32
	.cfi_offset %r14, -24
	movq	%rsi, %rbx
	movq	(%rdi), %r14
	movq	%rsi, %rdi
	callq	__ZN4core3fmt9Formatter15debug_lower_hex17h8530fbaeba13f4d9E
	testb	%al, %al
	je	LBB21_1
	movq	%r14, %rdi
	movq	%rbx, %rsi
	popq	%rbx
	popq	%r14
	popq	%rbp
	jmp	__ZN4core3fmt3num52_$LT$impl$u20$core..fmt..LowerHex$u20$for$u20$i8$GT$3fmt17h7f7e9f270a5d54c2E
LBB21_1:
	movq	%rbx, %rdi
	callq	__ZN4core3fmt9Formatter15debug_upper_hex17hf8fda15ec43a1e68E
	movq	%r14, %rdi
	movq	%rbx, %rsi
	testb	%al, %al
	je	LBB21_4
	popq	%rbx
	popq	%r14
	popq	%rbp
	jmp	__ZN4core3fmt3num52_$LT$impl$u20$core..fmt..UpperHex$u20$for$u20$i8$GT$3fmt17hd41115610f011194E
LBB21_4:
	popq	%rbx
	popq	%r14
	popq	%rbp
	jmp	__ZN4core3fmt3num3imp51_$LT$impl$u20$core..fmt..Display$u20$for$u20$i8$GT$3fmt17hc80f24a4257c3563E
	.cfi_endproc

	.p2align	4, 0x90
__ZN42_$LT$$RF$T$u20$as$u20$core..fmt..Debug$GT$3fmt17h20c104115f5d6dc5E:
	.cfi_startproc
	pushq	%rbp
	.cfi_def_cfa_offset 16
	.cfi_offset %rbp, -16
	movq	%rsp, %rbp
	.cfi_def_cfa_register %rbp
	pushq	%r14
	pushq	%rbx
	.cfi_offset %rbx, -32
	.cfi_offset %r14, -24
	movq	%rsi, %rbx
	movq	(%rdi), %r14
	movq	%rsi, %rdi
	callq	__ZN4core3fmt9Formatter15debug_lower_hex17h8530fbaeba13f4d9E
	testb	%al, %al
	je	LBB22_1
	movq	%r14, %rdi
	movq	%rbx, %rsi
	popq	%rbx
	popq	%r14
	popq	%rbp
	jmp	__ZN4core3fmt3num52_$LT$impl$u20$core..fmt..LowerHex$u20$for$u20$u8$GT$3fmt17h7701faa643a10c55E
LBB22_1:
	movq	%rbx, %rdi
	callq	__ZN4core3fmt9Formatter15debug_upper_hex17hf8fda15ec43a1e68E
	movq	%r14, %rdi
	movq	%rbx, %rsi
	testb	%al, %al
	je	LBB22_4
	popq	%rbx
	popq	%r14
	popq	%rbp
	jmp	__ZN4core3fmt3num52_$LT$impl$u20$core..fmt..UpperHex$u20$for$u20$u8$GT$3fmt17ha797e73a900719d8E
LBB22_4:
	popq	%rbx
	popq	%r14
	popq	%rbp
	jmp	__ZN4core3fmt3num3imp51_$LT$impl$u20$core..fmt..Display$u20$for$u20$u8$GT$3fmt17h0e89df114e53d66dE
	.cfi_endproc

	.p2align	4, 0x90
__ZN42_$LT$$RF$T$u20$as$u20$core..fmt..Debug$GT$3fmt17h20ebcbb4415ef09eE:
	.cfi_startproc
	pushq	%rbp
	.cfi_def_cfa_offset 16
	.cfi_offset %rbp, -16
	movq	%rsp, %rbp
	.cfi_def_cfa_register %rbp
	pushq	%r15
	pushq	%r14
	pushq	%r13
	pushq	%r12
	pushq	%rbx
	subq	$24, %rsp
	.cfi_offset %rbx, -56
	.cfi_offset %r12, -48
	.cfi_offset %r13, -40
	.cfi_offset %r14, -32
	.cfi_offset %r15, -24
	movq	(%rdi), %rax
	movq	(%rax), %rbx
	movq	8(%rax), %r13
	leaq	-64(%rbp), %rdi
	callq	__ZN4core3fmt9Formatter10debug_list17hd054f0986422feb9E
	testq	%r13, %r13
	je	LBB23_3
	leaq	l___unnamed_25(%rip), %r14
	leaq	-64(%rbp), %r15
	leaq	-48(%rbp), %r12
	.p2align	4, 0x90
LBB23_2:
	movq	%rbx, -48(%rbp)
	movq	%r15, %rdi
	movq	%r12, %rsi
	movq	%r14, %rdx
	callq	__ZN4core3fmt8builders9DebugList5entry17h5c0dec54538196dfE
	incq	%rbx
	decq	%r13
	jne	LBB23_2
LBB23_3:
	leaq	-64(%rbp), %rdi
	callq	__ZN4core3fmt8builders9DebugList6finish17h3635bd6af9b1c5a6E
	addq	$24, %rsp
	popq	%rbx
	popq	%r12
	popq	%r13
	popq	%r14
	popq	%r15
	popq	%rbp
	retq
	.cfi_endproc

	.p2align	4, 0x90
__ZN42_$LT$$RF$T$u20$as$u20$core..fmt..Debug$GT$3fmt17h2572d7f72975dca8E:
	.cfi_startproc
	pushq	%rbp
	.cfi_def_cfa_offset 16
	.cfi_offset %rbp, -16
	movq	%rsp, %rbp
	.cfi_def_cfa_register %rbp
	pushq	%r14
	pushq	%rbx
	subq	$32, %rsp
	.cfi_offset %rbx, -32
	.cfi_offset %r14, -24
	movq	(%rdi), %rbx
	leaq	l___unnamed_67(%rip), %rdx
	leaq	-40(%rbp), %r14
	movl	$11, %ecx
	movq	%r14, %rdi
	callq	__ZN4core3fmt9Formatter12debug_struct17h985c0158d1fc7193E
	movq	%rbx, -24(%rbp)
	addq	$16, %rbx
	leaq	l___unnamed_16(%rip), %rsi
	leaq	l___unnamed_68(%rip), %r8
	leaq	-24(%rbp), %rcx
	movl	$7, %edx
	movq	%r14, %rdi
	callq	__ZN4core3fmt8builders11DebugStruct5field17h9c15dc155278eed2E
	movq	%rbx, -24(%rbp)
	leaq	l___unnamed_69(%rip), %rsi
	leaq	l___unnamed_70(%rip), %r8
	leaq	-24(%rbp), %rcx
	movl	$7, %edx
	movq	%r14, %rdi
	callq	__ZN4core3fmt8builders11DebugStruct5field17h9c15dc155278eed2E
	movq	%r14, %rdi
	callq	__ZN4core3fmt8builders11DebugStruct6finish17h26808393f3fed630E
	addq	$32, %rsp
	popq	%rbx
	popq	%r14
	popq	%rbp
	retq
	.cfi_endproc

	.p2align	4, 0x90
__ZN42_$LT$$RF$T$u20$as$u20$core..fmt..Debug$GT$3fmt17h265896e8cb5799a1E:
	.cfi_startproc
	pushq	%rbp
	.cfi_def_cfa_offset 16
	.cfi_offset %rbp, -16
	movq	%rsp, %rbp
	.cfi_def_cfa_register %rbp
	pushq	%r14
	pushq	%rbx
	subq	$32, %rsp
	.cfi_offset %rbx, -32
	.cfi_offset %r14, -24
	movq	(%rdi), %rbx
	leaq	l___unnamed_71(%rip), %rdx
	leaq	-48(%rbp), %r14
	movl	$12, %ecx
	movq	%r14, %rdi
	callq	__ZN4core3fmt9Formatter11debug_tuple17h15ca25ad759edd1cE
	movq	%rbx, -24(%rbp)
	leaq	l___unnamed_42(%rip), %rdx
	leaq	-24(%rbp), %rsi
	movq	%r14, %rdi
	callq	__ZN4core3fmt8builders10DebugTuple5field17hf36121153a94f236E
	movq	%r14, %rdi
	callq	__ZN4core3fmt8builders10DebugTuple6finish17h68acf09c6f6593f2E
	addq	$32, %rsp
	popq	%rbx
	popq	%r14
	popq	%rbp
	retq
	.cfi_endproc

	.p2align	4, 0x90
__ZN42_$LT$$RF$T$u20$as$u20$core..fmt..Debug$GT$3fmt17h272261de12ced9c0E:
	.cfi_startproc
	pushq	%rbp
	.cfi_def_cfa_offset 16
	.cfi_offset %rbp, -16
	movq	%rsp, %rbp
	.cfi_def_cfa_register %rbp
	movq	(%rdi), %rdi
	popq	%rbp
	jmp	__ZN79_$LT$object..read..any..SegmentIteratorInternal$u20$as$u20$core..fmt..Debug$GT$3fmt17ha802e8a81667ebbcE
	.cfi_endproc

	.p2align	4, 0x90
__ZN42_$LT$$RF$T$u20$as$u20$core..fmt..Debug$GT$3fmt17h28c4a5c63178896cE:
	.cfi_startproc
	pushq	%rbp
	.cfi_def_cfa_offset 16
	.cfi_offset %rbp, -16
	movq	%rsp, %rbp
	.cfi_def_cfa_register %rbp
	movq	(%rdi), %rdi
	popq	%rbp
	jmp	__ZN79_$LT$object..read..any..SectionIteratorInternal$u20$as$u20$core..fmt..Debug$GT$3fmt17h15f644a2a2c0e0d9E
	.cfi_endproc

	.p2align	4, 0x90
__ZN42_$LT$$RF$T$u20$as$u20$core..fmt..Debug$GT$3fmt17h291d1f07d8a4aa5aE:
	.cfi_startproc
	pushq	%rbp
	.cfi_def_cfa_offset 16
	.cfi_offset %rbp, -16
	movq	%rsp, %rbp
	.cfi_def_cfa_register %rbp
	pushq	%r15
	pushq	%r14
	pushq	%r13
	pushq	%r12
	pushq	%rbx
	subq	$24, %rsp
	.cfi_offset %rbx, -56
	.cfi_offset %r12, -48
	.cfi_offset %r13, -40
	.cfi_offset %r14, -32
	.cfi_offset %r15, -24
	movq	(%rdi), %rax
	movq	(%rax), %r13
	movq	16(%rax), %rbx
	leaq	-64(%rbp), %rdi
	callq	__ZN4core3fmt9Formatter10debug_list17hd054f0986422feb9E
	testq	%rbx, %rbx
	je	LBB28_3
	shlq	$3, %rbx
	leaq	(%rbx,%rbx,8), %rbx
	leaq	l___unnamed_72(%rip), %r14
	leaq	-64(%rbp), %r15
	leaq	-48(%rbp), %r12
	.p2align	4, 0x90
LBB28_2:
	movq	%r13, -48(%rbp)
	addq	$72, %r13
	movq	%r15, %rdi
	movq	%r12, %rsi
	movq	%r14, %rdx
	callq	__ZN4core3fmt8builders9DebugList5entry17h5c0dec54538196dfE
	addq	$-72, %rbx
	jne	LBB28_2
LBB28_3:
	leaq	-64(%rbp), %rdi
	callq	__ZN4core3fmt8builders9DebugList6finish17h3635bd6af9b1c5a6E
	addq	$24, %rsp
	popq	%rbx
	popq	%r12
	popq	%r13
	popq	%r14
	popq	%r15
	popq	%rbp
	retq
	.cfi_endproc

	.p2align	4, 0x90
__ZN42_$LT$$RF$T$u20$as$u20$core..fmt..Debug$GT$3fmt17h293db1c88a3a78dbE:
	.cfi_startproc
	pushq	%rbp
	.cfi_def_cfa_offset 16
	.cfi_offset %rbp, -16
	movq	%rsp, %rbp
	.cfi_def_cfa_register %rbp
	pushq	%r15
	pushq	%r14
	pushq	%r13
	pushq	%r12
	pushq	%rbx
	subq	$24, %rsp
	.cfi_offset %rbx, -56
	.cfi_offset %r12, -48
	.cfi_offset %r13, -40
	.cfi_offset %r14, -32
	.cfi_offset %r15, -24
	movq	(%rdi), %rbx
	leaq	l___unnamed_73(%rip), %rdx
	leaq	-64(%rbp), %r13
	movl	$7, %ecx
	movq	%r13, %rdi
	callq	__ZN4core3fmt9Formatter12debug_struct17h985c0158d1fc7193E
	movq	%rbx, -48(%rbp)
	leaq	4(%rbx), %r14
	leaq	5(%rbx), %r15
	leaq	6(%rbx), %r12
	leaq	8(%rbx), %rbx
	leaq	l___unnamed_74(%rip), %rsi
	leaq	l___unnamed_33(%rip), %r8
	leaq	-48(%rbp), %rcx
	movl	$6, %edx
	movq	%r13, %rdi
	callq	__ZN4core3fmt8builders11DebugStruct5field17h9c15dc155278eed2E
	movq	%r14, -48(%rbp)
	leaq	l___unnamed_75(%rip), %rsi
	leaq	l___unnamed_25(%rip), %r14
	leaq	-48(%rbp), %rcx
	movl	$6, %edx
	movq	%r13, %rdi
	movq	%r14, %r8
	callq	__ZN4core3fmt8builders11DebugStruct5field17h9c15dc155278eed2E
	movq	%r15, -48(%rbp)
	leaq	l___unnamed_76(%rip), %rsi
	leaq	-48(%rbp), %rcx
	movl	$6, %edx
	movq	%r13, %rdi
	movq	%r14, %r8
	callq	__ZN4core3fmt8builders11DebugStruct5field17h9c15dc155278eed2E
	movq	%r12, -48(%rbp)
	leaq	l___unnamed_77(%rip), %rsi
	leaq	l___unnamed_58(%rip), %r8
	leaq	-48(%rbp), %rcx
	movl	$6, %edx
	movq	%r13, %rdi
	callq	__ZN4core3fmt8builders11DebugStruct5field17h9c15dc155278eed2E
	movq	%rbx, -48(%rbp)
	leaq	l___unnamed_78(%rip), %rsi
	leaq	l___unnamed_60(%rip), %r8
	leaq	-48(%rbp), %rcx
	movl	$7, %edx
	movq	%r13, %rdi
	callq	__ZN4core3fmt8builders11DebugStruct5field17h9c15dc155278eed2E
	movq	%r13, %rdi
	callq	__ZN4core3fmt8builders11DebugStruct6finish17h26808393f3fed630E
	addq	$24, %rsp
	popq	%rbx
	popq	%r12
	popq	%r13
	popq	%r14
	popq	%r15
	popq	%rbp
	retq
	.cfi_endproc

	.p2align	4, 0x90
__ZN42_$LT$$RF$T$u20$as$u20$core..fmt..Debug$GT$3fmt17h2a61ea383acb7985E:
	.cfi_startproc
	pushq	%rbp
	.cfi_def_cfa_offset 16
	.cfi_offset %rbp, -16
	movq	%rsp, %rbp
	.cfi_def_cfa_register %rbp
	movq	(%rdi), %rdi
	popq	%rbp
	jmp	__ZN64_$LT$object..read..SymbolSection$u20$as$u20$core..fmt..Debug$GT$3fmt17hb3cc543a19b6f5e8E
	.cfi_endproc

	.p2align	4, 0x90
__ZN42_$LT$$RF$T$u20$as$u20$core..fmt..Debug$GT$3fmt17h2b4a7f9e38669c18E:
	.cfi_startproc
	pushq	%rbp
	.cfi_def_cfa_offset 16
	.cfi_offset %rbp, -16
	movq	%rsp, %rbp
	.cfi_def_cfa_register %rbp
	pushq	%r15
	pushq	%r14
	pushq	%r12
	pushq	%rbx
	subq	$32, %rsp
	.cfi_offset %rbx, -48
	.cfi_offset %r12, -40
	.cfi_offset %r14, -32
	.cfi_offset %r15, -24
	movq	(%rdi), %rbx
	leaq	-56(%rbp), %r12
	movq	%r12, %rdi
	callq	__ZN4core3fmt9Formatter10debug_list17hd054f0986422feb9E
	movq	%rbx, -40(%rbp)
	leaq	l___unnamed_25(%rip), %r14
	leaq	-40(%rbp), %r15
	movq	%r12, %rdi
	movq	%r15, %rsi
	movq	%r14, %rdx
	callq	__ZN4core3fmt8builders9DebugList5entry17h5c0dec54538196dfE
	leaq	1(%rbx), %rax
	movq	%rax, -40(%rbp)
	movq	%r12, %rdi
	movq	%r15, %rsi
	movq	%r14, %rdx
	callq	__ZN4core3fmt8builders9DebugList5entry17h5c0dec54538196dfE
	leaq	2(%rbx), %rax
	movq	%rax, -40(%rbp)
	movq	%r12, %rdi
	movq	%r15, %rsi
	movq	%r14, %rdx
	callq	__ZN4core3fmt8builders9DebugList5entry17h5c0dec54538196dfE
	leaq	3(%rbx), %rax
	movq	%rax, -40(%rbp)
	movq	%r12, %rdi
	movq	%r15, %rsi
	movq	%r14, %rdx
	callq	__ZN4core3fmt8builders9DebugList5entry17h5c0dec54538196dfE
	leaq	4(%rbx), %rax
	movq	%rax, -40(%rbp)
	movq	%r12, %rdi
	movq	%r15, %rsi
	movq	%r14, %rdx
	callq	__ZN4core3fmt8builders9DebugList5entry17h5c0dec54538196dfE
	leaq	5(%rbx), %rax
	movq	%rax, -40(%rbp)
	movq	%r12, %rdi
	movq	%r15, %rsi
	movq	%r14, %rdx
	callq	__ZN4core3fmt8builders9DebugList5entry17h5c0dec54538196dfE
	leaq	6(%rbx), %rax
	movq	%rax, -40(%rbp)
	movq	%r12, %rdi
	movq	%r15, %rsi
	movq	%r14, %rdx
	callq	__ZN4core3fmt8builders9DebugList5entry17h5c0dec54538196dfE
	leaq	7(%rbx), %rax
	movq	%rax, -40(%rbp)
	movq	%r12, %rdi
	movq	%r15, %rsi
	movq	%r14, %rdx
	callq	__ZN4core3fmt8builders9DebugList5entry17h5c0dec54538196dfE
	leaq	8(%rbx), %rax
	movq	%rax, -40(%rbp)
	movq	%r12, %rdi
	movq	%r15, %rsi
	movq	%r14, %rdx
	callq	__ZN4core3fmt8builders9DebugList5entry17h5c0dec54538196dfE
	leaq	9(%rbx), %rax
	movq	%rax, -40(%rbp)
	movq	%r12, %rdi
	movq	%r15, %rsi
	movq	%r14, %rdx
	callq	__ZN4core3fmt8builders9DebugList5entry17h5c0dec54538196dfE
	leaq	10(%rbx), %rax
	movq	%rax, -40(%rbp)
	movq	%r12, %rdi
	movq	%r15, %rsi
	movq	%r14, %rdx
	callq	__ZN4core3fmt8builders9DebugList5entry17h5c0dec54538196dfE
	leaq	11(%rbx), %rax
	movq	%rax, -40(%rbp)
	movq	%r12, %rdi
	movq	%r15, %rsi
	movq	%r14, %rdx
	callq	__ZN4core3fmt8builders9DebugList5entry17h5c0dec54538196dfE
	leaq	12(%rbx), %rax
	movq	%rax, -40(%rbp)
	movq	%r12, %rdi
	movq	%r15, %rsi
	movq	%r14, %rdx
	callq	__ZN4core3fmt8builders9DebugList5entry17h5c0dec54538196dfE
	leaq	13(%rbx), %rax
	movq	%rax, -40(%rbp)
	movq	%r12, %rdi
	movq	%r15, %rsi
	movq	%r14, %rdx
	callq	__ZN4core3fmt8builders9DebugList5entry17h5c0dec54538196dfE
	leaq	14(%rbx), %rax
	movq	%rax, -40(%rbp)
	movq	%r12, %rdi
	movq	%r15, %rsi
	movq	%r14, %rdx
	callq	__ZN4core3fmt8builders9DebugList5entry17h5c0dec54538196dfE
	leaq	15(%rbx), %rax
	movq	%rax, -40(%rbp)
	movq	%r12, %rdi
	movq	%r15, %rsi
	movq	%r14, %rdx
	callq	__ZN4core3fmt8builders9DebugList5entry17h5c0dec54538196dfE
	leaq	16(%rbx), %rax
	movq	%rax, -40(%rbp)
	movq	%r12, %rdi
	movq	%r15, %rsi
	movq	%r14, %rdx
	callq	__ZN4core3fmt8builders9DebugList5entry17h5c0dec54538196dfE
	leaq	17(%rbx), %rax
	movq	%rax, -40(%rbp)
	movq	%r12, %rdi
	movq	%r15, %rsi
	movq	%r14, %rdx
	callq	__ZN4core3fmt8builders9DebugList5entry17h5c0dec54538196dfE
	leaq	18(%rbx), %rax
	movq	%rax, -40(%rbp)
	movq	%r12, %rdi
	movq	%r15, %rsi
	movq	%r14, %rdx
	callq	__ZN4core3fmt8builders9DebugList5entry17h5c0dec54538196dfE
	leaq	19(%rbx), %rax
	movq	%rax, -40(%rbp)
	movq	%r12, %rdi
	movq	%r15, %rsi
	movq	%r14, %rdx
	callq	__ZN4core3fmt8builders9DebugList5entry17h5c0dec54538196dfE
	leaq	20(%rbx), %rax
	movq	%rax, -40(%rbp)
	movq	%r12, %rdi
	movq	%r15, %rsi
	movq	%r14, %rdx
	callq	__ZN4core3fmt8builders9DebugList5entry17h5c0dec54538196dfE
	leaq	21(%rbx), %rax
	movq	%rax, -40(%rbp)
	movq	%r12, %rdi
	movq	%r15, %rsi
	movq	%r14, %rdx
	callq	__ZN4core3fmt8builders9DebugList5entry17h5c0dec54538196dfE
	leaq	22(%rbx), %rax
	movq	%rax, -40(%rbp)
	movq	%r12, %rdi
	movq	%r15, %rsi
	movq	%r14, %rdx
	callq	__ZN4core3fmt8builders9DebugList5entry17h5c0dec54538196dfE
	leaq	23(%rbx), %rax
	movq	%rax, -40(%rbp)
	movq	%r12, %rdi
	movq	%r15, %rsi
	movq	%r14, %rdx
	callq	__ZN4core3fmt8builders9DebugList5entry17h5c0dec54538196dfE
	leaq	24(%rbx), %rax
	movq	%rax, -40(%rbp)
	movq	%r12, %rdi
	movq	%r15, %rsi
	movq	%r14, %rdx
	callq	__ZN4core3fmt8builders9DebugList5entry17h5c0dec54538196dfE
	leaq	25(%rbx), %rax
	movq	%rax, -40(%rbp)
	movq	%r12, %rdi
	movq	%r15, %rsi
	movq	%r14, %rdx
	callq	__ZN4core3fmt8builders9DebugList5entry17h5c0dec54538196dfE
	leaq	26(%rbx), %rax
	movq	%rax, -40(%rbp)
	movq	%r12, %rdi
	movq	%r15, %rsi
	movq	%r14, %rdx
	callq	__ZN4core3fmt8builders9DebugList5entry17h5c0dec54538196dfE
	leaq	27(%rbx), %rax
	movq	%rax, -40(%rbp)
	movq	%r12, %rdi
	movq	%r15, %rsi
	movq	%r14, %rdx
	callq	__ZN4core3fmt8builders9DebugList5entry17h5c0dec54538196dfE
	leaq	28(%rbx), %rax
	movq	%rax, -40(%rbp)
	movq	%r12, %rdi
	movq	%r15, %rsi
	movq	%r14, %rdx
	callq	__ZN4core3fmt8builders9DebugList5entry17h5c0dec54538196dfE
	leaq	29(%rbx), %rax
	movq	%rax, -40(%rbp)
	movq	%r12, %rdi
	movq	%r15, %rsi
	movq	%r14, %rdx
	callq	__ZN4core3fmt8builders9DebugList5entry17h5c0dec54538196dfE
	leaq	30(%rbx), %rax
	movq	%rax, -40(%rbp)
	movq	%r12, %rdi
	movq	%r15, %rsi
	movq	%r14, %rdx
	callq	__ZN4core3fmt8builders9DebugList5entry17h5c0dec54538196dfE
	addq	$31, %rbx
	movq	%rbx, -40(%rbp)
	movq	%r12, %rdi
	movq	%r15, %rsi
	movq	%r14, %rdx
	callq	__ZN4core3fmt8builders9DebugList5entry17h5c0dec54538196dfE
	movq	%r12, %rdi
	callq	__ZN4core3fmt8builders9DebugList6finish17h3635bd6af9b1c5a6E
	addq	$32, %rsp
	popq	%rbx
	popq	%r12
	popq	%r14
	popq	%r15
	popq	%rbp
	retq
	.cfi_endproc

	.p2align	4, 0x90
__ZN42_$LT$$RF$T$u20$as$u20$core..fmt..Debug$GT$3fmt17h2c37bc34e01cc2f7E:
	.cfi_startproc
	pushq	%rbp
	.cfi_def_cfa_offset 16
	.cfi_offset %rbp, -16
	movq	%rsp, %rbp
	.cfi_def_cfa_register %rbp
	pushq	%r15
	pushq	%r14
	pushq	%r13
	pushq	%r12
	pushq	%rbx
	subq	$24, %rsp
	.cfi_offset %rbx, -56
	.cfi_offset %r12, -48
	.cfi_offset %r13, -40
	.cfi_offset %r14, -32
	.cfi_offset %r15, -24
	movq	(%rdi), %rax
	movq	(%rax), %rbx
	movq	8(%rax), %r13
	leaq	-64(%rbp), %rdi
	callq	__ZN4core3fmt9Formatter10debug_list17hd054f0986422feb9E
	testq	%r13, %r13
	je	LBB32_3
	shlq	$6, %r13
	leaq	l___unnamed_79(%rip), %r14
	leaq	-64(%rbp), %r15
	leaq	-48(%rbp), %r12
	.p2align	4, 0x90
LBB32_2:
	movq	%rbx, -48(%rbp)
	addq	$64, %rbx
	movq	%r15, %rdi
	movq	%r12, %rsi
	movq	%r14, %rdx
	callq	__ZN4core3fmt8builders9DebugList5entry17h5c0dec54538196dfE
	addq	$-64, %r13
	jne	LBB32_2
LBB32_3:
	leaq	-64(%rbp), %rdi
	callq	__ZN4core3fmt8builders9DebugList6finish17h3635bd6af9b1c5a6E
	addq	$24, %rsp
	popq	%rbx
	popq	%r12
	popq	%r13
	popq	%r14
	popq	%r15
	popq	%rbp
	retq
	.cfi_endproc

	.p2align	4, 0x90
__ZN42_$LT$$RF$T$u20$as$u20$core..fmt..Debug$GT$3fmt17h2dd006e6fd0f8ca7E:
	.cfi_startproc
	pushq	%rbp
	.cfi_def_cfa_offset 16
	.cfi_offset %rbp, -16
	movq	%rsp, %rbp
	.cfi_def_cfa_register %rbp
	movq	(%rdi), %rdi
	popq	%rbp
	jmp	__ZN57_$LT$object..read..Symbol$u20$as$u20$core..fmt..Debug$GT$3fmt17h75d744e3af3dac4dE
	.cfi_endproc

	.p2align	4, 0x90
__ZN42_$LT$$RF$T$u20$as$u20$core..fmt..Debug$GT$3fmt17h2ea61c3c8e6a89f6E:
	.cfi_startproc
	pushq	%rbp
	.cfi_def_cfa_offset 16
	.cfi_offset %rbp, -16
	movq	%rsp, %rbp
	.cfi_def_cfa_register %rbp
	pushq	%r15
	pushq	%r14
	pushq	%r13
	pushq	%r12
	pushq	%rbx
	subq	$24, %rsp
	.cfi_offset %rbx, -56
	.cfi_offset %r12, -48
	.cfi_offset %r13, -40
	.cfi_offset %r14, -32
	.cfi_offset %r15, -24
	movq	(%rdi), %rax
	movq	(%rax), %rbx
	leaq	L___unnamed_80(%rip), %rdx
	leaq	-64(%rbp), %r15
	movl	$8, %ecx
	movq	%r15, %rdi
	callq	__ZN4core3fmt9Formatter12debug_struct17h985c0158d1fc7193E
	movq	%rbx, -48(%rbp)
	leaq	8(%rbx), %r12
	leaq	24(%rbx), %r13
	leaq	56(%rbx), %r14
	leaq	l___unnamed_8(%rip), %rsi
	leaq	l___unnamed_81(%rip), %r8
	leaq	-48(%rbp), %rcx
	movl	$6, %edx
	movq	%r15, %rdi
	callq	__ZN4core3fmt8builders11DebugStruct5field17h9c15dc155278eed2E
	movq	%r12, -48(%rbp)
	leaq	L___unnamed_12(%rip), %rsi
	leaq	l___unnamed_51(%rip), %r8
	leaq	-48(%rbp), %rcx
	movl	$8, %edx
	movq	%r15, %rdi
	callq	__ZN4core3fmt8builders11DebugStruct5field17h9c15dc155278eed2E
	movq	%r13, -48(%rbp)
	leaq	l___unnamed_16(%rip), %rsi
	leaq	l___unnamed_52(%rip), %r8
	leaq	-48(%rbp), %rcx
	movl	$7, %edx
	movq	%r15, %rdi
	callq	__ZN4core3fmt8builders11DebugStruct5field17h9c15dc155278eed2E
	movq	%r14, -48(%rbp)
	leaq	L___unnamed_6(%rip), %rsi
	leaq	l___unnamed_7(%rip), %r8
	leaq	-48(%rbp), %rcx
	movl	$4, %edx
	movq	%r15, %rdi
	callq	__ZN4core3fmt8builders11DebugStruct5field17h9c15dc155278eed2E
	movq	%r15, %rdi
	callq	__ZN4core3fmt8builders11DebugStruct6finish17h26808393f3fed630E
	addq	$24, %rsp
	popq	%rbx
	popq	%r12
	popq	%r13
	popq	%r14
	popq	%r15
	popq	%rbp
	retq
	.cfi_endproc

	.p2align	4, 0x90
__ZN42_$LT$$RF$T$u20$as$u20$core..fmt..Debug$GT$3fmt17h316b5105f76b4681E:
	.cfi_startproc
	pushq	%rbp
	.cfi_def_cfa_offset 16
	.cfi_offset %rbp, -16
	movq	%rsp, %rbp
	.cfi_def_cfa_register %rbp
	movq	(%rdi), %rdi
	popq	%rbp
	jmp	__ZN67_$LT$object..common..RelocationKind$u20$as$u20$core..fmt..Debug$GT$3fmt17h17cbc7a2ef260156E
	.cfi_endproc

	.p2align	4, 0x90
__ZN42_$LT$$RF$T$u20$as$u20$core..fmt..Debug$GT$3fmt17h31f1963ec0584553E:
	.cfi_startproc
	pushq	%rbp
	.cfi_def_cfa_offset 16
	.cfi_offset %rbp, -16
	movq	%rsp, %rbp
	.cfi_def_cfa_register %rbp
	pushq	%r14
	pushq	%rbx
	subq	$32, %rsp
	.cfi_offset %rbx, -32
	.cfi_offset %r14, -24
	movq	(%rdi), %rbx
	leaq	l___unnamed_82(%rip), %rdx
	leaq	-40(%rbp), %r14
	movl	$10, %ecx
	movq	%r14, %rdi
	callq	__ZN4core3fmt9Formatter12debug_struct17h985c0158d1fc7193E
	movq	%rbx, -24(%rbp)
	addq	$8, %rbx
	leaq	L___unnamed_20(%rip), %rsi
	leaq	l___unnamed_83(%rip), %r8
	leaq	-24(%rbp), %rcx
	movl	$4, %edx
	movq	%r14, %rdi
	callq	__ZN4core3fmt8builders11DebugStruct5field17h9c15dc155278eed2E
	movq	%rbx, -24(%rbp)
	leaq	l___unnamed_65(%rip), %rsi
	leaq	l___unnamed_84(%rip), %r8
	leaq	-24(%rbp), %rcx
	movl	$7, %edx
	movq	%r14, %rdi
	callq	__ZN4core3fmt8builders11DebugStruct5field17h9c15dc155278eed2E
	movq	%r14, %rdi
	callq	__ZN4core3fmt8builders11DebugStruct6finish17h26808393f3fed630E
	addq	$32, %rsp
	popq	%rbx
	popq	%r14
	popq	%rbp
	retq
	.cfi_endproc

	.p2align	4, 0x90
__ZN42_$LT$$RF$T$u20$as$u20$core..fmt..Debug$GT$3fmt17h330c162688ca4340E:
	.cfi_startproc
	pushq	%rbp
	.cfi_def_cfa_offset 16
	.cfi_offset %rbp, -16
	movq	%rsp, %rbp
	.cfi_def_cfa_register %rbp
	pushq	%r15
	pushq	%r14
	pushq	%rbx
	subq	$24, %rsp
	.cfi_offset %rbx, -40
	.cfi_offset %r14, -32
	.cfi_offset %r15, -24
	movq	(%rdi), %rax
	movq	(%rax), %rbx
	leaq	L___unnamed_85(%rip), %rdx
	leaq	-48(%rbp), %r14
	movl	$16, %ecx
	movq	%r14, %rdi
	callq	__ZN4core3fmt9Formatter12debug_struct17h985c0158d1fc7193E
	movq	%rbx, -32(%rbp)
	leaq	4(%rbx), %r15
	addq	$24, %rbx
	leaq	l___unnamed_86(%rip), %rsi
	leaq	l___unnamed_43(%rip), %r8
	leaq	-32(%rbp), %rcx
	movl	$9, %edx
	movq	%r14, %rdi
	callq	__ZN4core3fmt8builders11DebugStruct5field17h9c15dc155278eed2E
	movq	%r15, -32(%rbp)
	leaq	l___unnamed_87(%rip), %rsi
	leaq	l___unnamed_88(%rip), %r8
	leaq	-32(%rbp), %rcx
	movl	$11, %edx
	movq	%r14, %rdi
	callq	__ZN4core3fmt8builders11DebugStruct5field17h9c15dc155278eed2E
	movq	%rbx, -32(%rbp)
	leaq	l___unnamed_89(%rip), %rsi
	leaq	l___unnamed_90(%rip), %r8
	leaq	-32(%rbp), %rcx
	movl	$15, %edx
	movq	%r14, %rdi
	callq	__ZN4core3fmt8builders11DebugStruct5field17h9c15dc155278eed2E
	movq	%r14, %rdi
	callq	__ZN4core3fmt8builders11DebugStruct6finish17h26808393f3fed630E
	addq	$24, %rsp
	popq	%rbx
	popq	%r14
	popq	%r15
	popq	%rbp
	retq
	.cfi_endproc

	.p2align	4, 0x90
__ZN42_$LT$$RF$T$u20$as$u20$core..fmt..Debug$GT$3fmt17h3416fc0c283b0583E:
	.cfi_startproc
	pushq	%rbp
	.cfi_def_cfa_offset 16
	.cfi_offset %rbp, -16
	movq	%rsp, %rbp
	.cfi_def_cfa_register %rbp
	pushq	%rbx
	subq	$24, %rsp
	.cfi_offset %rbx, -24
	leaq	l___unnamed_91(%rip), %rdx
	leaq	-24(%rbp), %rbx
	movl	$23, %ecx
	movq	%rbx, %rdi
	callq	__ZN4core3fmt9Formatter12debug_struct17h985c0158d1fc7193E
	movq	%rbx, %rdi
	callq	__ZN4core3fmt8builders11DebugStruct6finish17h26808393f3fed630E
	addq	$24, %rsp
	popq	%rbx
	popq	%rbp
	retq
	.cfi_endproc

	.p2align	4, 0x90
__ZN42_$LT$$RF$T$u20$as$u20$core..fmt..Debug$GT$3fmt17h375a318a5772b6cfE:
	.cfi_startproc
	pushq	%rbp
	.cfi_def_cfa_offset 16
	.cfi_offset %rbp, -16
	movq	%rsp, %rbp
	.cfi_def_cfa_register %rbp
	pushq	%r14
	pushq	%rbx
	.cfi_offset %rbx, -32
	.cfi_offset %r14, -24
	movq	%rsi, %rbx
	movq	(%rdi), %r14
	movq	%rsi, %rdi
	callq	__ZN4core3fmt9Formatter15debug_lower_hex17h8530fbaeba13f4d9E
	testb	%al, %al
	je	LBB39_1
	movq	%r14, %rdi
	movq	%rbx, %rsi
	popq	%rbx
	popq	%r14
	popq	%rbp
	jmp	__ZN4core3fmt3num53_$LT$impl$u20$core..fmt..LowerHex$u20$for$u20$u32$GT$3fmt17h6f8627d2574097eeE
LBB39_1:
	movq	%rbx, %rdi
	callq	__ZN4core3fmt9Formatter15debug_upper_hex17hf8fda15ec43a1e68E
	movq	%r14, %rdi
	movq	%rbx, %rsi
	testb	%al, %al
	je	LBB39_4
	popq	%rbx
	popq	%r14
	popq	%rbp
	jmp	__ZN4core3fmt3num53_$LT$impl$u20$core..fmt..UpperHex$u20$for$u20$u32$GT$3fmt17hfea5795b8018329eE
LBB39_4:
	popq	%rbx
	popq	%r14
	popq	%rbp
	jmp	__ZN4core3fmt3num3imp52_$LT$impl$u20$core..fmt..Display$u20$for$u20$u32$GT$3fmt17h8cb3163b2d7e102aE
	.cfi_endproc

	.p2align	4, 0x90
__ZN42_$LT$$RF$T$u20$as$u20$core..fmt..Debug$GT$3fmt17h38fb6c83f384c5d5E:
	.cfi_startproc
	pushq	%rbp
	.cfi_def_cfa_offset 16
	.cfi_offset %rbp, -16
	movq	%rsp, %rbp
	.cfi_def_cfa_register %rbp
	pushq	%r14
	pushq	%rbx
	subq	$32, %rsp
	.cfi_offset %rbx, -32
	.cfi_offset %r14, -24
	movq	(%rdi), %rbx
	leaq	l___unnamed_92(%rip), %rdx
	leaq	-40(%rbp), %r14
	movl	$19, %ecx
	movq	%r14, %rdi
	callq	__ZN4core3fmt9Formatter12debug_struct17h985c0158d1fc7193E
	movq	%rbx, -24(%rbp)
	addq	$8, %rbx
	leaq	L___unnamed_20(%rip), %rsi
	leaq	l___unnamed_93(%rip), %r8
	leaq	-24(%rbp), %rcx
	movl	$4, %edx
	movq	%r14, %rdi
	callq	__ZN4core3fmt8builders11DebugStruct5field17h9c15dc155278eed2E
	movq	%rbx, -24(%rbp)
	leaq	L___unnamed_22(%rip), %rsi
	leaq	l___unnamed_94(%rip), %r8
	leaq	-24(%rbp), %rcx
	movl	$4, %edx
	movq	%r14, %rdi
	callq	__ZN4core3fmt8builders11DebugStruct5field17h9c15dc155278eed2E
	movq	%r14, %rdi
	callq	__ZN4core3fmt8builders11DebugStruct6finish17h26808393f3fed630E
	addq	$32, %rsp
	popq	%rbx
	popq	%r14
	popq	%rbp
	retq
	.cfi_endproc

	.p2align	4, 0x90
__ZN42_$LT$$RF$T$u20$as$u20$core..fmt..Debug$GT$3fmt17h3a19155bba1d426cE:
	.cfi_startproc
	pushq	%rbp
	.cfi_def_cfa_offset 16
	.cfi_offset %rbp, -16
	movq	%rsp, %rbp
	.cfi_def_cfa_register %rbp
	pushq	%r14
	pushq	%rbx
	subq	$48, %rsp
	.cfi_offset %rbx, -32
	.cfi_offset %r14, -24
	movq	(%rdi), %rbx
	leaq	L___unnamed_95(%rip), %rdx
	leaq	-56(%rbp), %r14
	movl	$4, %ecx
	movq	%r14, %rdi
	callq	__ZN4core3fmt9Formatter11debug_tuple17h15ca25ad759edd1cE
	movq	(%rbx), %rcx
	movq	8(%rbx), %rax
	subq	%rcx, %rax
	shrq	$3, %rax
	movabsq	$2635249153387078803, %rdx
	mulq	%rdx
	movq	%rcx, -32(%rbp)
	movq	%rdx, -24(%rbp)
	leaq	l___unnamed_96(%rip), %rdx
	leaq	-32(%rbp), %rsi
	movq	%r14, %rdi
	callq	__ZN4core3fmt8builders10DebugTuple5field17hf36121153a94f236E
	movq	%rax, %rdi
	callq	__ZN4core3fmt8builders10DebugTuple6finish17h68acf09c6f6593f2E
	addq	$48, %rsp
	popq	%rbx
	popq	%r14
	popq	%rbp
	retq
	.cfi_endproc

	.p2align	4, 0x90
__ZN42_$LT$$RF$T$u20$as$u20$core..fmt..Debug$GT$3fmt17h3a52a6b69e778b97E:
	.cfi_startproc
	pushq	%rbp
	.cfi_def_cfa_offset 16
	.cfi_offset %rbp, -16
	movq	%rsp, %rbp
	.cfi_def_cfa_register %rbp
	movq	%rsi, %rdi
	leaq	l___unnamed_97(%rip), %rsi
	movl	$11, %edx
	popq	%rbp
	jmp	__ZN4core3fmt9Formatter3pad17he4a76f49c06ce69bE
	.cfi_endproc

	.p2align	4, 0x90
__ZN42_$LT$$RF$T$u20$as$u20$core..fmt..Debug$GT$3fmt17h3b8a6ebb7c7161ffE:
	.cfi_startproc
	pushq	%rbp
	.cfi_def_cfa_offset 16
	.cfi_offset %rbp, -16
	movq	%rsp, %rbp
	.cfi_def_cfa_register %rbp
	pushq	%r14
	pushq	%rbx
	subq	$32, %rsp
	.cfi_offset %rbx, -32
	.cfi_offset %r14, -24
	movq	(%rdi), %rbx
	leaq	l___unnamed_67(%rip), %rdx
	leaq	-40(%rbp), %r14
	movl	$11, %ecx
	movq	%r14, %rdi
	callq	__ZN4core3fmt9Formatter12debug_struct17h985c0158d1fc7193E
	movq	%rbx, -24(%rbp)
	addq	$16, %rbx
	leaq	l___unnamed_16(%rip), %rsi
	leaq	l___unnamed_98(%rip), %r8
	leaq	-24(%rbp), %rcx
	movl	$7, %edx
	movq	%r14, %rdi
	callq	__ZN4core3fmt8builders11DebugStruct5field17h9c15dc155278eed2E
	movq	%rbx, -24(%rbp)
	leaq	l___unnamed_69(%rip), %rsi
	leaq	l___unnamed_70(%rip), %r8
	leaq	-24(%rbp), %rcx
	movl	$7, %edx
	movq	%r14, %rdi
	callq	__ZN4core3fmt8builders11DebugStruct5field17h9c15dc155278eed2E
	movq	%r14, %rdi
	callq	__ZN4core3fmt8builders11DebugStruct6finish17h26808393f3fed630E
	addq	$32, %rsp
	popq	%rbx
	popq	%r14
	popq	%rbp
	retq
	.cfi_endproc

	.p2align	4, 0x90
__ZN42_$LT$$RF$T$u20$as$u20$core..fmt..Debug$GT$3fmt17h3db042eef8e05209E:
	.cfi_startproc
	pushq	%rbp
	.cfi_def_cfa_offset 16
	.cfi_offset %rbp, -16
	movq	%rsp, %rbp
	.cfi_def_cfa_register %rbp
	movq	(%rdi), %rdi
	popq	%rbp
	jmp	__ZN43_$LT$bool$u20$as$u20$core..fmt..Display$GT$3fmt17hf36463fa8b480ab4E
	.cfi_endproc

	.p2align	4, 0x90
__ZN42_$LT$$RF$T$u20$as$u20$core..fmt..Debug$GT$3fmt17h3fb33ac5ae8df1bdE:
	.cfi_startproc
	pushq	%rbp
	.cfi_def_cfa_offset 16
	.cfi_offset %rbp, -16
	movq	%rsp, %rbp
	.cfi_def_cfa_register %rbp
	pushq	%r14
	pushq	%rbx
	subq	$32, %rsp
	.cfi_offset %rbx, -32
	.cfi_offset %r14, -24
	movq	(%rdi), %rbx
	leaq	l___unnamed_99(%rip), %rdx
	leaq	-40(%rbp), %r14
	movl	$12, %ecx
	movq	%r14, %rdi
	callq	__ZN4core3fmt9Formatter12debug_struct17h985c0158d1fc7193E
	movq	%rbx, -24(%rbp)
	addq	$16, %rbx
	leaq	L___unnamed_12(%rip), %rsi
	leaq	l___unnamed_100(%rip), %r8
	leaq	-24(%rbp), %rcx
	movl	$8, %edx
	movq	%r14, %rdi
	callq	__ZN4core3fmt8builders11DebugStruct5field17h9c15dc155278eed2E
	movq	%rbx, -24(%rbp)
	leaq	l___unnamed_69(%rip), %rsi
	leaq	l___unnamed_70(%rip), %r8
	leaq	-24(%rbp), %rcx
	movl	$7, %edx
	movq	%r14, %rdi
	callq	__ZN4core3fmt8builders11DebugStruct5field17h9c15dc155278eed2E
	movq	%r14, %rdi
	callq	__ZN4core3fmt8builders11DebugStruct6finish17h26808393f3fed630E
	addq	$32, %rsp
	popq	%rbx
	popq	%r14
	popq	%rbp
	retq
	.cfi_endproc

	.p2align	4, 0x90
__ZN42_$LT$$RF$T$u20$as$u20$core..fmt..Debug$GT$3fmt17h3fdd05508d42d208E:
	.cfi_startproc
	pushq	%rbp
	.cfi_def_cfa_offset 16
	.cfi_offset %rbp, -16
	movq	%rsp, %rbp
	.cfi_def_cfa_register %rbp
	movq	(%rdi), %rdi
	popq	%rbp
	jmp	__ZN78_$LT$object..read..any..SymbolIteratorInternal$u20$as$u20$core..fmt..Debug$GT$3fmt17h4a1bd8ef08fd7147E
	.cfi_endproc

	.p2align	4, 0x90
__ZN42_$LT$$RF$T$u20$as$u20$core..fmt..Debug$GT$3fmt17h4223aef197400e2bE:
	.cfi_startproc
	pushq	%rbp
	.cfi_def_cfa_offset 16
	.cfi_offset %rbp, -16
	movq	%rsp, %rbp
	.cfi_def_cfa_register %rbp
	pushq	%r15
	pushq	%r14
	pushq	%r13
	pushq	%r12
	pushq	%rbx
	subq	$24, %rsp
	.cfi_offset %rbx, -56
	.cfi_offset %r12, -48
	.cfi_offset %r13, -40
	.cfi_offset %r14, -32
	.cfi_offset %r15, -24
	movq	(%rdi), %rax
	movq	(%rax), %r13
	movq	8(%rax), %rbx
	leaq	-64(%rbp), %rdi
	callq	__ZN4core3fmt9Formatter10debug_list17hd054f0986422feb9E
	testq	%rbx, %rbx
	je	LBB47_3
	shlq	$2, %rbx
	leaq	(%rbx,%rbx,2), %rbx
	leaq	l___unnamed_101(%rip), %r14
	leaq	-64(%rbp), %r15
	leaq	-48(%rbp), %r12
	.p2align	4, 0x90
LBB47_2:
	movq	%r13, -48(%rbp)
	addq	$12, %r13
	movq	%r15, %rdi
	movq	%r12, %rsi
	movq	%r14, %rdx
	callq	__ZN4core3fmt8builders9DebugList5entry17h5c0dec54538196dfE
	addq	$-12, %rbx
	jne	LBB47_2
LBB47_3:
	leaq	-64(%rbp), %rdi
	callq	__ZN4core3fmt8builders9DebugList6finish17h3635bd6af9b1c5a6E
	addq	$24, %rsp
	popq	%rbx
	popq	%r12
	popq	%r13
	popq	%r14
	popq	%r15
	popq	%rbp
	retq
	.cfi_endproc

	.p2align	4, 0x90
__ZN42_$LT$$RF$T$u20$as$u20$core..fmt..Debug$GT$3fmt17h431eec4b2bbda366E:
	.cfi_startproc
	pushq	%rbp
	.cfi_def_cfa_offset 16
	.cfi_offset %rbp, -16
	movq	%rsp, %rbp
	.cfi_def_cfa_register %rbp
	movq	(%rdi), %rdi
	popq	%rbp
	jmp	__ZN70_$LT$object..pe..ImageOptionalHeader32$u20$as$u20$core..fmt..Debug$GT$3fmt17h826695d22c9ecbd5E
	.cfi_endproc

	.p2align	4, 0x90
__ZN42_$LT$$RF$T$u20$as$u20$core..fmt..Debug$GT$3fmt17h440d8bba2a4a21fdE:
	.cfi_startproc
	pushq	%rbp
	.cfi_def_cfa_offset 16
	.cfi_offset %rbp, -16
	movq	%rsp, %rbp
	.cfi_def_cfa_register %rbp
	pushq	%r15
	pushq	%r14
	pushq	%r13
	pushq	%r12
	pushq	%rbx
	subq	$88, %rsp
	.cfi_offset %rbx, -56
	.cfi_offset %r12, -48
	.cfi_offset %r13, -40
	.cfi_offset %r14, -32
	.cfi_offset %r15, -24
	movq	(%rdi), %rax
	movq	(%rax), %rbx
	leaq	l___unnamed_102(%rip), %rdx
	leaq	-120(%rbp), %r14
	movl	$9, %ecx
	movq	%r14, %rdi
	callq	__ZN4core3fmt9Formatter12debug_struct17h985c0158d1fc7193E
	movq	%rbx, -48(%rbp)
	leaq	16(%rbx), %r13
	leaq	32(%rbx), %r15
	leaq	36(%rbx), %r12
	leaq	40(%rbx), %rax
	movq	%rax, -56(%rbp)
	leaq	44(%rbx), %rax
	movq	%rax, -64(%rbp)
	leaq	48(%rbx), %rax
	movq	%rax, -72(%rbp)
	leaq	52(%rbx), %rax
	movq	%rax, -80(%rbp)
	leaq	56(%rbx), %rax
	movq	%rax, -88(%rbp)
	leaq	60(%rbx), %rax
	movq	%rax, -96(%rbp)
	leaq	64(%rbx), %rax
	movq	%rax, -104(%rbp)
	leaq	L___unnamed_103(%rip), %rsi
	leaq	l___unnamed_104(%rip), %rbx
	leaq	-48(%rbp), %rcx
	movl	$8, %edx
	movq	%r14, %rdi
	movq	%rbx, %r8
	callq	__ZN4core3fmt8builders11DebugStruct5field17h9c15dc155278eed2E
	movq	%r13, -48(%rbp)
	leaq	l___unnamed_105(%rip), %rsi
	leaq	-48(%rbp), %rcx
	movl	$7, %edx
	movq	%r14, %rdi
	movq	%rbx, %r8
	callq	__ZN4core3fmt8builders11DebugStruct5field17h9c15dc155278eed2E
	movq	%r15, -48(%rbp)
	leaq	L___unnamed_106(%rip), %rsi
	leaq	l___unnamed_33(%rip), %rbx
	leaq	-48(%rbp), %rcx
	movl	$4, %edx
	movq	%r14, %rdi
	movq	%rbx, %r8
	callq	__ZN4core3fmt8builders11DebugStruct5field17h9c15dc155278eed2E
	movq	%r12, -48(%rbp)
	leaq	L___unnamed_107(%rip), %rsi
	leaq	-48(%rbp), %rcx
	movl	$4, %edx
	movq	%r14, %rdi
	movq	%rbx, %r8
	callq	__ZN4core3fmt8builders11DebugStruct5field17h9c15dc155278eed2E
	movq	-56(%rbp), %rax
	movq	%rax, -48(%rbp)
	leaq	l___unnamed_108(%rip), %rsi
	leaq	-48(%rbp), %rcx
	movl	$6, %edx
	movq	%r14, %rdi
	movq	%rbx, %r8
	callq	__ZN4core3fmt8builders11DebugStruct5field17h9c15dc155278eed2E
	movq	-64(%rbp), %rax
	movq	%rax, -48(%rbp)
	leaq	l___unnamed_109(%rip), %rsi
	leaq	-48(%rbp), %rcx
	movl	$5, %edx
	movq	%r14, %rdi
	movq	%rbx, %r8
	callq	__ZN4core3fmt8builders11DebugStruct5field17h9c15dc155278eed2E
	movq	-72(%rbp), %rax
	movq	%rax, -48(%rbp)
	leaq	l___unnamed_110(%rip), %rsi
	leaq	-48(%rbp), %rcx
	movl	$6, %edx
	movq	%r14, %rdi
	movq	%rbx, %r8
	callq	__ZN4core3fmt8builders11DebugStruct5field17h9c15dc155278eed2E
	movq	-80(%rbp), %rax
	movq	%rax, -48(%rbp)
	leaq	l___unnamed_111(%rip), %rsi
	leaq	-48(%rbp), %rcx
	movl	$6, %edx
	movq	%r14, %rdi
	movq	%rbx, %r8
	callq	__ZN4core3fmt8builders11DebugStruct5field17h9c15dc155278eed2E
	movq	-88(%rbp), %rax
	movq	%rax, -48(%rbp)
	leaq	l___unnamed_38(%rip), %rsi
	leaq	-48(%rbp), %rcx
	movl	$5, %edx
	movq	%r14, %rdi
	movq	%rbx, %r8
	callq	__ZN4core3fmt8builders11DebugStruct5field17h9c15dc155278eed2E
	movq	-96(%rbp), %rax
	movq	%rax, -48(%rbp)
	leaq	l___unnamed_112(%rip), %rsi
	leaq	-48(%rbp), %rcx
	movl	$9, %edx
	movq	%r14, %rdi
	movq	%rbx, %r8
	callq	__ZN4core3fmt8builders11DebugStruct5field17h9c15dc155278eed2E
	movq	-104(%rbp), %rax
	movq	%rax, -48(%rbp)
	leaq	l___unnamed_113(%rip), %rsi
	leaq	-48(%rbp), %rcx
	movl	$9, %edx
	movq	%r14, %rdi
	movq	%rbx, %r8
	callq	__ZN4core3fmt8builders11DebugStruct5field17h9c15dc155278eed2E
	movq	%r14, %rdi
	callq	__ZN4core3fmt8builders11DebugStruct6finish17h26808393f3fed630E
	addq	$88, %rsp
	popq	%rbx
	popq	%r12
	popq	%r13
	popq	%r14
	popq	%r15
	popq	%rbp
	retq
	.cfi_endproc

	.p2align	4, 0x90
__ZN42_$LT$$RF$T$u20$as$u20$core..fmt..Debug$GT$3fmt17h47876110dcc732b0E:
	.cfi_startproc
	pushq	%rbp
	.cfi_def_cfa_offset 16
	.cfi_offset %rbp, -16
	movq	%rsp, %rbp
	.cfi_def_cfa_register %rbp
	pushq	%r15
	pushq	%r14
	pushq	%r13
	pushq	%r12
	pushq	%rbx
	subq	$24, %rsp
	.cfi_offset %rbx, -56
	.cfi_offset %r12, -48
	.cfi_offset %r13, -40
	.cfi_offset %r14, -32
	.cfi_offset %r15, -24
	movq	(%rdi), %rax
	movq	(%rax), %r13
	movq	8(%rax), %rbx
	leaq	-64(%rbp), %rdi
	callq	__ZN4core3fmt9Formatter10debug_list17hd054f0986422feb9E
	testq	%rbx, %rbx
	je	LBB50_3
	shlq	$3, %rbx
	leaq	(%rbx,%rbx,4), %rbx
	leaq	l___unnamed_114(%rip), %r14
	leaq	-64(%rbp), %r15
	leaq	-48(%rbp), %r12
	.p2align	4, 0x90
LBB50_2:
	movq	%r13, -48(%rbp)
	addq	$40, %r13
	movq	%r15, %rdi
	movq	%r12, %rsi
	movq	%r14, %rdx
	callq	__ZN4core3fmt8builders9DebugList5entry17h5c0dec54538196dfE
	addq	$-40, %rbx
	jne	LBB50_2
LBB50_3:
	leaq	-64(%rbp), %rdi
	callq	__ZN4core3fmt8builders9DebugList6finish17h3635bd6af9b1c5a6E
	addq	$24, %rsp
	popq	%rbx
	popq	%r12
	popq	%r13
	popq	%r14
	popq	%r15
	popq	%rbp
	retq
	.cfi_endproc

	.p2align	4, 0x90
__ZN42_$LT$$RF$T$u20$as$u20$core..fmt..Debug$GT$3fmt17h4a8f4ee8bca74d4bE:
	.cfi_startproc
	pushq	%rbp
	.cfi_def_cfa_offset 16
	.cfi_offset %rbp, -16
	movq	%rsp, %rbp
	.cfi_def_cfa_register %rbp
	pushq	%r15
	pushq	%r14
	pushq	%rbx
	subq	$24, %rsp
	.cfi_offset %rbx, -40
	.cfi_offset %r14, -32
	.cfi_offset %r15, -24
	movq	(%rdi), %rbx
	leaq	l___unnamed_115(%rip), %rdx
	leaq	-48(%rbp), %r15
	movl	$18, %ecx
	movq	%r15, %rdi
	callq	__ZN4core3fmt9Formatter12debug_struct17h985c0158d1fc7193E
	movq	%rbx, -32(%rbp)
	addq	$4, %rbx
	leaq	l___unnamed_116(%rip), %rsi
	leaq	l___unnamed_43(%rip), %r14
	leaq	-32(%rbp), %rcx
	movl	$15, %edx
	movq	%r15, %rdi
	movq	%r14, %r8
	callq	__ZN4core3fmt8builders11DebugStruct5field17h9c15dc155278eed2E
	movq	%rbx, -32(%rbp)
	leaq	L___unnamed_107(%rip), %rsi
	leaq	-32(%rbp), %rcx
	movl	$4, %edx
	movq	%r15, %rdi
	movq	%r14, %r8
	callq	__ZN4core3fmt8builders11DebugStruct5field17h9c15dc155278eed2E
	movq	%r15, %rdi
	callq	__ZN4core3fmt8builders11DebugStruct6finish17h26808393f3fed630E
	addq	$24, %rsp
	popq	%rbx
	popq	%r14
	popq	%r15
	popq	%rbp
	retq
	.cfi_endproc

	.p2align	4, 0x90
__ZN42_$LT$$RF$T$u20$as$u20$core..fmt..Debug$GT$3fmt17h4b604a4a2698de74E:
	.cfi_startproc
	pushq	%rbp
	.cfi_def_cfa_offset 16
	.cfi_offset %rbp, -16
	movq	%rsp, %rbp
	.cfi_def_cfa_register %rbp
	pushq	%r14
	pushq	%rbx
	subq	$32, %rsp
	.cfi_offset %rbx, -32
	.cfi_offset %r14, -24
	movq	(%rdi), %rbx
	leaq	l___unnamed_117(%rip), %rdx
	leaq	-40(%rbp), %r14
	movl	$9, %ecx
	movq	%r14, %rdi
	callq	__ZN4core3fmt9Formatter12debug_struct17h985c0158d1fc7193E
	movq	%rbx, -24(%rbp)
	addq	$16, %rbx
	leaq	L___unnamed_22(%rip), %rsi
	leaq	l___unnamed_118(%rip), %r8
	leaq	-24(%rbp), %rcx
	movl	$4, %edx
	movq	%r14, %rdi
	callq	__ZN4core3fmt8builders11DebugStruct5field17h9c15dc155278eed2E
	movq	%rbx, -24(%rbp)
	leaq	l___unnamed_119(%rip), %rsi
	leaq	l___unnamed_42(%rip), %r8
	leaq	-24(%rbp), %rcx
	movl	$5, %edx
	movq	%r14, %rdi
	callq	__ZN4core3fmt8builders11DebugStruct5field17h9c15dc155278eed2E
	movq	%r14, %rdi
	callq	__ZN4core3fmt8builders11DebugStruct6finish17h26808393f3fed630E
	addq	$32, %rsp
	popq	%rbx
	popq	%r14
	popq	%rbp
	retq
	.cfi_endproc

	.p2align	4, 0x90
__ZN42_$LT$$RF$T$u20$as$u20$core..fmt..Debug$GT$3fmt17h4d7117b214b7c7e5E:
	.cfi_startproc
	pushq	%rbp
	.cfi_def_cfa_offset 16
	.cfi_offset %rbp, -16
	movq	%rsp, %rbp
	.cfi_def_cfa_register %rbp
	subq	$176, %rsp
	movq	%rsi, %r8
	movq	(%rdi), %rcx
	movq	%rcx, -128(%rbp)
	leaq	1(%rcx), %rdx
	leaq	2(%rcx), %rsi
	leaq	3(%rcx), %rdi
	leaq	4(%rcx), %rax
	leaq	5(%rcx), %r9
	leaq	6(%rcx), %r10
	leaq	7(%rcx), %r11
	movq	__ZN4core3fmt3num52_$LT$impl$u20$core..fmt..LowerHex$u20$for$u20$u8$GT$3fmt17h7701faa643a10c55E@GOTPCREL(%rip), %rcx
	movq	%rcx, -120(%rbp)
	movq	%rdx, -112(%rbp)
	movq	%rcx, -104(%rbp)
	movq	%rsi, -96(%rbp)
	movq	%rcx, -88(%rbp)
	movq	%rdi, -80(%rbp)
	movq	%rcx, -72(%rbp)
	movq	%rax, -64(%rbp)
	movq	%rcx, -56(%rbp)
	movq	%r9, -48(%rbp)
	movq	%rcx, -40(%rbp)
	movq	%r10, -32(%rbp)
	movq	%rcx, -24(%rbp)
	movq	%r11, -16(%rbp)
	movq	%rcx, -8(%rbp)
	leaq	l___unnamed_120(%rip), %rax
	movq	%rax, -176(%rbp)
	movq	$9, -168(%rbp)
	movq	$0, -160(%rbp)
	leaq	-128(%rbp), %rax
	movq	%rax, -144(%rbp)
	movq	$8, -136(%rbp)
	leaq	-176(%rbp), %rsi
	movq	%r8, %rdi
	callq	__ZN4core3fmt9Formatter9write_fmt17h3dc2bf45afed3069E
	addq	$176, %rsp
	popq	%rbp
	retq
	.cfi_endproc

	.p2align	4, 0x90
__ZN42_$LT$$RF$T$u20$as$u20$core..fmt..Debug$GT$3fmt17h4e04d0f3084a41eeE:
	.cfi_startproc
	pushq	%rbp
	.cfi_def_cfa_offset 16
	.cfi_offset %rbp, -16
	movq	%rsp, %rbp
	.cfi_def_cfa_register %rbp
	movq	(%rdi), %rdi
	popq	%rbp
	jmp	__ZN42_$LT$$RF$T$u20$as$u20$core..fmt..Debug$GT$3fmt17h1b6adffc6a980489E
	.cfi_endproc

	.p2align	4, 0x90
__ZN42_$LT$$RF$T$u20$as$u20$core..fmt..Debug$GT$3fmt17h4e19706296bbb203E:
	.cfi_startproc
	pushq	%rbp
	.cfi_def_cfa_offset 16
	.cfi_offset %rbp, -16
	movq	%rsp, %rbp
	.cfi_def_cfa_register %rbp
	pushq	%rbx
	subq	$24, %rsp
	.cfi_offset %rbx, -24
	leaq	l___unnamed_121(%rip), %rdx
	leaq	-24(%rbp), %rbx
	movl	$20, %ecx
	movq	%rbx, %rdi
	callq	__ZN4core3fmt9Formatter12debug_struct17h985c0158d1fc7193E
	movq	%rbx, %rdi
	callq	__ZN4core3fmt8builders11DebugStruct6finish17h26808393f3fed630E
	addq	$24, %rsp
	popq	%rbx
	popq	%rbp
	retq
	.cfi_endproc

	.p2align	4, 0x90
__ZN42_$LT$$RF$T$u20$as$u20$core..fmt..Debug$GT$3fmt17h4f326e8dd20b3757E:
	.cfi_startproc
	pushq	%rbp
	.cfi_def_cfa_offset 16
	.cfi_offset %rbp, -16
	movq	%rsp, %rbp
	.cfi_def_cfa_register %rbp
	pushq	%rbx
	subq	$24, %rsp
	.cfi_offset %rbx, -24
	leaq	l___unnamed_122(%rip), %rdx
	leaq	-24(%rbp), %rbx
	movl	$19, %ecx
	movq	%rbx, %rdi
	callq	__ZN4core3fmt9Formatter12debug_struct17h985c0158d1fc7193E
	movq	%rbx, %rdi
	callq	__ZN4core3fmt8builders11DebugStruct6finish17h26808393f3fed630E
	addq	$24, %rsp
	popq	%rbx
	popq	%rbp
	retq
	.cfi_endproc

	.p2align	4, 0x90
__ZN42_$LT$$RF$T$u20$as$u20$core..fmt..Debug$GT$3fmt17h4f599cb71f37ad39E:
	.cfi_startproc
	pushq	%rbp
	.cfi_def_cfa_offset 16
	.cfi_offset %rbp, -16
	movq	%rsp, %rbp
	.cfi_def_cfa_register %rbp
	pushq	%r15
	pushq	%r14
	pushq	%r13
	pushq	%r12
	pushq	%rbx
	subq	$24, %rsp
	.cfi_offset %rbx, -56
	.cfi_offset %r12, -48
	.cfi_offset %r13, -40
	.cfi_offset %r14, -32
	.cfi_offset %r15, -24
	movq	(%rdi), %rbx
	movq	8(%rdi), %r13
	leaq	-64(%rbp), %rdi
	callq	__ZN4core3fmt9Formatter10debug_list17hd054f0986422feb9E
	testq	%r13, %r13
	je	LBB57_3
	shlq	$5, %r13
	leaq	l___unnamed_41(%rip), %r14
	leaq	-64(%rbp), %r15
	leaq	-48(%rbp), %r12
	.p2align	4, 0x90
LBB57_2:
	movq	%rbx, -48(%rbp)
	addq	$32, %rbx
	movq	%r15, %rdi
	movq	%r12, %rsi
	movq	%r14, %rdx
	callq	__ZN4core3fmt8builders9DebugList5entry17h5c0dec54538196dfE
	addq	$-32, %r13
	jne	LBB57_2
LBB57_3:
	leaq	-64(%rbp), %rdi
	callq	__ZN4core3fmt8builders9DebugList6finish17h3635bd6af9b1c5a6E
	addq	$24, %rsp
	popq	%rbx
	popq	%r12
	popq	%r13
	popq	%r14
	popq	%r15
	popq	%rbp
	retq
	.cfi_endproc

	.p2align	4, 0x90
__ZN42_$LT$$RF$T$u20$as$u20$core..fmt..Debug$GT$3fmt17h512a04d83b382478E:
	.cfi_startproc
	pushq	%rbp
	.cfi_def_cfa_offset 16
	.cfi_offset %rbp, -16
	movq	%rsp, %rbp
	.cfi_def_cfa_register %rbp
	movq	(%rdi), %rdi
	popq	%rbp
	jmp	__ZN71_$LT$object..pe..ImageRomOptionalHeader$u20$as$u20$core..fmt..Debug$GT$3fmt17ha7aee5eb0437ca6bE
	.cfi_endproc

	.p2align	4, 0x90
__ZN42_$LT$$RF$T$u20$as$u20$core..fmt..Debug$GT$3fmt17h52f8e129da693943E:
	.cfi_startproc
	pushq	%rbp
	.cfi_def_cfa_offset 16
	.cfi_offset %rbp, -16
	movq	%rsp, %rbp
	.cfi_def_cfa_register %rbp
	pushq	%r15
	pushq	%r14
	pushq	%r13
	pushq	%r12
	pushq	%rbx
	subq	$24, %rsp
	.cfi_offset %rbx, -56
	.cfi_offset %r12, -48
	.cfi_offset %r13, -40
	.cfi_offset %r14, -32
	.cfi_offset %r15, -24
	movq	(%rdi), %rbx
	leaq	80(%rbx), %r14
	leaq	l___unnamed_123(%rip), %rdx
	leaq	-64(%rbp), %r15
	movl	$9, %ecx
	movq	%r15, %rdi
	callq	__ZN4core3fmt9Formatter12debug_struct17h985c0158d1fc7193E
	movq	%r14, -48(%rbp)
	leaq	l___unnamed_4(%rip), %rsi
	leaq	l___unnamed_5(%rip), %r8
	leaq	-48(%rbp), %rcx
	movl	$6, %edx
	movq	%r15, %rdi
	callq	__ZN4core3fmt8builders11DebugStruct5field17h9c15dc155278eed2E
	movq	%rbx, -48(%rbp)
	leaq	16(%rbx), %r12
	leaq	24(%rbx), %r13
	leaq	48(%rbx), %r14
	leaq	L___unnamed_6(%rip), %rsi
	leaq	l___unnamed_7(%rip), %r8
	leaq	-48(%rbp), %rcx
	movl	$4, %edx
	movq	%r15, %rdi
	callq	__ZN4core3fmt8builders11DebugStruct5field17h9c15dc155278eed2E
	movq	%r12, -48(%rbp)
	leaq	l___unnamed_8(%rip), %rsi
	leaq	l___unnamed_124(%rip), %r8
	leaq	-48(%rbp), %rcx
	movl	$6, %edx
	movq	%r15, %rdi
	callq	__ZN4core3fmt8builders11DebugStruct5field17h9c15dc155278eed2E
	movq	%r13, -48(%rbp)
	leaq	L___unnamed_12(%rip), %rsi
	leaq	l___unnamed_125(%rip), %r8
	leaq	-48(%rbp), %rcx
	movl	$8, %edx
	movq	%r15, %rdi
	callq	__ZN4core3fmt8builders11DebugStruct5field17h9c15dc155278eed2E
	movq	%r14, -48(%rbp)
	leaq	l___unnamed_16(%rip), %rsi
	leaq	l___unnamed_126(%rip), %r8
	leaq	-48(%rbp), %rcx
	movl	$7, %edx
	movq	%r15, %rdi
	callq	__ZN4core3fmt8builders11DebugStruct5field17h9c15dc155278eed2E
	movq	%r15, %rdi
	callq	__ZN4core3fmt8builders11DebugStruct6finish17h26808393f3fed630E
	addq	$24, %rsp
	popq	%rbx
	popq	%r12
	popq	%r13
	popq	%r14
	popq	%r15
	popq	%rbp
	retq
	.cfi_endproc

	.p2align	4, 0x90
__ZN42_$LT$$RF$T$u20$as$u20$core..fmt..Debug$GT$3fmt17h533762cc51f8de0cE:
	.cfi_startproc
	pushq	%rbp
	.cfi_def_cfa_offset 16
	.cfi_offset %rbp, -16
	movq	%rsp, %rbp
	.cfi_def_cfa_register %rbp
	pushq	%r15
	pushq	%r14
	pushq	%r12
	pushq	%rbx
	subq	$32, %rsp
	.cfi_offset %rbx, -48
	.cfi_offset %r12, -40
	.cfi_offset %r14, -32
	.cfi_offset %r15, -24
	movq	(%rdi), %rbx
	leaq	-56(%rbp), %r12
	movq	%r12, %rdi
	callq	__ZN4core3fmt9Formatter10debug_list17hd054f0986422feb9E
	movq	%rbx, -40(%rbp)
	leaq	l___unnamed_25(%rip), %r14
	leaq	-40(%rbp), %r15
	movq	%r12, %rdi
	movq	%r15, %rsi
	movq	%r14, %rdx
	callq	__ZN4core3fmt8builders9DebugList5entry17h5c0dec54538196dfE
	leaq	1(%rbx), %rax
	movq	%rax, -40(%rbp)
	movq	%r12, %rdi
	movq	%r15, %rsi
	movq	%r14, %rdx
	callq	__ZN4core3fmt8builders9DebugList5entry17h5c0dec54538196dfE
	leaq	2(%rbx), %rax
	movq	%rax, -40(%rbp)
	movq	%r12, %rdi
	movq	%r15, %rsi
	movq	%r14, %rdx
	callq	__ZN4core3fmt8builders9DebugList5entry17h5c0dec54538196dfE
	leaq	3(%rbx), %rax
	movq	%rax, -40(%rbp)
	movq	%r12, %rdi
	movq	%r15, %rsi
	movq	%r14, %rdx
	callq	__ZN4core3fmt8builders9DebugList5entry17h5c0dec54538196dfE
	leaq	4(%rbx), %rax
	movq	%rax, -40(%rbp)
	movq	%r12, %rdi
	movq	%r15, %rsi
	movq	%r14, %rdx
	callq	__ZN4core3fmt8builders9DebugList5entry17h5c0dec54538196dfE
	leaq	5(%rbx), %rax
	movq	%rax, -40(%rbp)
	movq	%r12, %rdi
	movq	%r15, %rsi
	movq	%r14, %rdx
	callq	__ZN4core3fmt8builders9DebugList5entry17h5c0dec54538196dfE
	leaq	6(%rbx), %rax
	movq	%rax, -40(%rbp)
	movq	%r12, %rdi
	movq	%r15, %rsi
	movq	%r14, %rdx
	callq	__ZN4core3fmt8builders9DebugList5entry17h5c0dec54538196dfE
	leaq	7(%rbx), %rax
	movq	%rax, -40(%rbp)
	movq	%r12, %rdi
	movq	%r15, %rsi
	movq	%r14, %rdx
	callq	__ZN4core3fmt8builders9DebugList5entry17h5c0dec54538196dfE
	leaq	8(%rbx), %rax
	movq	%rax, -40(%rbp)
	movq	%r12, %rdi
	movq	%r15, %rsi
	movq	%r14, %rdx
	callq	__ZN4core3fmt8builders9DebugList5entry17h5c0dec54538196dfE
	leaq	9(%rbx), %rax
	movq	%rax, -40(%rbp)
	movq	%r12, %rdi
	movq	%r15, %rsi
	movq	%r14, %rdx
	callq	__ZN4core3fmt8builders9DebugList5entry17h5c0dec54538196dfE
	leaq	10(%rbx), %rax
	movq	%rax, -40(%rbp)
	movq	%r12, %rdi
	movq	%r15, %rsi
	movq	%r14, %rdx
	callq	__ZN4core3fmt8builders9DebugList5entry17h5c0dec54538196dfE
	addq	$11, %rbx
	movq	%rbx, -40(%rbp)
	movq	%r12, %rdi
	movq	%r15, %rsi
	movq	%r14, %rdx
	callq	__ZN4core3fmt8builders9DebugList5entry17h5c0dec54538196dfE
	movq	%r12, %rdi
	callq	__ZN4core3fmt8builders9DebugList6finish17h3635bd6af9b1c5a6E
	addq	$32, %rsp
	popq	%rbx
	popq	%r12
	popq	%r14
	popq	%r15
	popq	%rbp
	retq
	.cfi_endproc

	.p2align	4, 0x90
__ZN42_$LT$$RF$T$u20$as$u20$core..fmt..Debug$GT$3fmt17h534d23f0effebb12E:
	.cfi_startproc
	pushq	%rbp
	.cfi_def_cfa_offset 16
	.cfi_offset %rbp, -16
	movq	%rsp, %rbp
	.cfi_def_cfa_register %rbp
	subq	$80, %rsp
	movq	%rsi, %rax
	movq	(%rdi), %rcx
	movq	%rcx, -32(%rbp)
	incq	%rcx
	movq	__ZN4core3fmt3num52_$LT$impl$u20$core..fmt..LowerHex$u20$for$u20$u8$GT$3fmt17h7701faa643a10c55E@GOTPCREL(%rip), %rdx
	movq	%rdx, -24(%rbp)
	movq	%rcx, -16(%rbp)
	movq	%rdx, -8(%rbp)
	leaq	l___unnamed_127(%rip), %rcx
	movq	%rcx, -80(%rbp)
	movq	$3, -72(%rbp)
	movq	$0, -64(%rbp)
	leaq	-32(%rbp), %rcx
	movq	%rcx, -48(%rbp)
	movq	$2, -40(%rbp)
	leaq	-80(%rbp), %rsi
	movq	%rax, %rdi
	callq	__ZN4core3fmt9Formatter9write_fmt17h3dc2bf45afed3069E
	addq	$80, %rsp
	popq	%rbp
	retq
	.cfi_endproc

	.p2align	4, 0x90
__ZN42_$LT$$RF$T$u20$as$u20$core..fmt..Debug$GT$3fmt17h53a15e63594636beE:
	.cfi_startproc
	pushq	%rbp
	.cfi_def_cfa_offset 16
	.cfi_offset %rbp, -16
	movq	%rsp, %rbp
	.cfi_def_cfa_register %rbp
	pushq	%r14
	pushq	%rbx
	subq	$32, %rsp
	.cfi_offset %rbx, -32
	.cfi_offset %r14, -24
	movq	(%rdi), %rbx
	leaq	l___unnamed_128(%rip), %rdx
	leaq	-40(%rbp), %r14
	movl	$20, %ecx
	movq	%r14, %rdi
	callq	__ZN4core3fmt9Formatter12debug_struct17h985c0158d1fc7193E
	movq	%rbx, -24(%rbp)
	addq	$8, %rbx
	leaq	L___unnamed_20(%rip), %rsi
	leaq	l___unnamed_129(%rip), %r8
	leaq	-24(%rbp), %rcx
	movl	$4, %edx
	movq	%r14, %rdi
	callq	__ZN4core3fmt8builders11DebugStruct5field17h9c15dc155278eed2E
	movq	%rbx, -24(%rbp)
	leaq	L___unnamed_130(%rip), %rsi
	leaq	l___unnamed_131(%rip), %r8
	leaq	-24(%rbp), %rcx
	movl	$8, %edx
	movq	%r14, %rdi
	callq	__ZN4core3fmt8builders11DebugStruct5field17h9c15dc155278eed2E
	movq	%r14, %rdi
	callq	__ZN4core3fmt8builders11DebugStruct6finish17h26808393f3fed630E
	addq	$32, %rsp
	popq	%rbx
	popq	%r14
	popq	%rbp
	retq
	.cfi_endproc

	.p2align	4, 0x90
__ZN42_$LT$$RF$T$u20$as$u20$core..fmt..Debug$GT$3fmt17h561de240143c2845E:
	.cfi_startproc
	pushq	%rbp
	.cfi_def_cfa_offset 16
	.cfi_offset %rbp, -16
	movq	%rsp, %rbp
	.cfi_def_cfa_register %rbp
	movq	(%rdi), %rdi
	popq	%rbp
	jmp	__ZN71_$LT$object..common..RelocationEncoding$u20$as$u20$core..fmt..Debug$GT$3fmt17hac6cba704dc5f8fdE
	.cfi_endproc

	.p2align	4, 0x90
__ZN42_$LT$$RF$T$u20$as$u20$core..fmt..Debug$GT$3fmt17h574d8cfe3c52b542E:
	.cfi_startproc
	pushq	%rbp
	.cfi_def_cfa_offset 16
	.cfi_offset %rbp, -16
	movq	%rsp, %rbp
	.cfi_def_cfa_register %rbp
	pushq	%r14
	pushq	%rbx
	subq	$32, %rsp
	.cfi_offset %rbx, -32
	.cfi_offset %r14, -24
	movq	(%rdi), %rbx
	leaq	l___unnamed_132(%rip), %rdx
	leaq	-40(%rbp), %r14
	movl	$19, %ecx
	movq	%r14, %rdi
	callq	__ZN4core3fmt9Formatter12debug_struct17h985c0158d1fc7193E
	movq	%rbx, -24(%rbp)
	addq	$8, %rbx
	leaq	L___unnamed_20(%rip), %rsi
	leaq	l___unnamed_93(%rip), %r8
	leaq	-24(%rbp), %rcx
	movl	$4, %edx
	movq	%r14, %rdi
	callq	__ZN4core3fmt8builders11DebugStruct5field17h9c15dc155278eed2E
	movq	%rbx, -24(%rbp)
	leaq	L___unnamed_22(%rip), %rsi
	leaq	l___unnamed_23(%rip), %r8
	leaq	-24(%rbp), %rcx
	movl	$4, %edx
	movq	%r14, %rdi
	callq	__ZN4core3fmt8builders11DebugStruct5field17h9c15dc155278eed2E
	movq	%r14, %rdi
	callq	__ZN4core3fmt8builders11DebugStruct6finish17h26808393f3fed630E
	addq	$32, %rsp
	popq	%rbx
	popq	%r14
	popq	%rbp
	retq
	.cfi_endproc

	.p2align	4, 0x90
__ZN42_$LT$$RF$T$u20$as$u20$core..fmt..Debug$GT$3fmt17h5806368e9ad2bcd5E:
	.cfi_startproc
	pushq	%rbp
	.cfi_def_cfa_offset 16
	.cfi_offset %rbp, -16
	movq	%rsp, %rbp
	.cfi_def_cfa_register %rbp
	subq	$112, %rsp
	movq	%rsi, %rax
	movq	(%rdi), %rcx
	movq	%rcx, -64(%rbp)
	leaq	1(%rcx), %rdx
	leaq	2(%rcx), %rsi
	leaq	3(%rcx), %rcx
	movq	__ZN4core3fmt3num52_$LT$impl$u20$core..fmt..LowerHex$u20$for$u20$u8$GT$3fmt17h7701faa643a10c55E@GOTPCREL(%rip), %rdi
	movq	%rdi, -56(%rbp)
	movq	%rdx, -48(%rbp)
	movq	%rdi, -40(%rbp)
	movq	%rsi, -32(%rbp)
	movq	%rdi, -24(%rbp)
	movq	%rcx, -16(%rbp)
	movq	%rdi, -8(%rbp)
	leaq	l___unnamed_133(%rip), %rcx
	movq	%rcx, -112(%rbp)
	movq	$5, -104(%rbp)
	movq	$0, -96(%rbp)
	leaq	-64(%rbp), %rcx
	movq	%rcx, -80(%rbp)
	movq	$4, -72(%rbp)
	leaq	-112(%rbp), %rsi
	movq	%rax, %rdi
	callq	__ZN4core3fmt9Formatter9write_fmt17h3dc2bf45afed3069E
	addq	$112, %rsp
	popq	%rbp
	retq
	.cfi_endproc

	.p2align	4, 0x90
__ZN42_$LT$$RF$T$u20$as$u20$core..fmt..Debug$GT$3fmt17h5961c18fd3e07efcE:
	.cfi_startproc
	pushq	%rbp
	.cfi_def_cfa_offset 16
	.cfi_offset %rbp, -16
	movq	%rsp, %rbp
	.cfi_def_cfa_register %rbp
	pushq	%r14
	pushq	%rbx
	subq	$32, %rsp
	.cfi_offset %rbx, -32
	.cfi_offset %r14, -24
	movq	(%rdi), %rbx
	leaq	l___unnamed_128(%rip), %rdx
	leaq	-40(%rbp), %r14
	movl	$20, %ecx
	movq	%r14, %rdi
	callq	__ZN4core3fmt9Formatter12debug_struct17h985c0158d1fc7193E
	movq	%rbx, -24(%rbp)
	addq	$8, %rbx
	leaq	L___unnamed_20(%rip), %rsi
	leaq	l___unnamed_64(%rip), %r8
	leaq	-24(%rbp), %rcx
	movl	$4, %edx
	movq	%r14, %rdi
	callq	__ZN4core3fmt8builders11DebugStruct5field17h9c15dc155278eed2E
	movq	%rbx, -24(%rbp)
	leaq	L___unnamed_130(%rip), %rsi
	leaq	l___unnamed_131(%rip), %r8
	leaq	-24(%rbp), %rcx
	movl	$8, %edx
	movq	%r14, %rdi
	callq	__ZN4core3fmt8builders11DebugStruct5field17h9c15dc155278eed2E
	movq	%r14, %rdi
	callq	__ZN4core3fmt8builders11DebugStruct6finish17h26808393f3fed630E
	addq	$32, %rsp
	popq	%rbx
	popq	%r14
	popq	%rbp
	retq
	.cfi_endproc

	.p2align	4, 0x90
__ZN42_$LT$$RF$T$u20$as$u20$core..fmt..Debug$GT$3fmt17h5a9b5a150a234bf1E:
	.cfi_startproc
	pushq	%rbp
	.cfi_def_cfa_offset 16
	.cfi_offset %rbp, -16
	movq	%rsp, %rbp
	.cfi_def_cfa_register %rbp
	movq	(%rdi), %rax
	movq	(%rax), %rdi
	popq	%rbp
	jmp	__ZN64_$LT$object..pe..ImageFileHeader$u20$as$u20$core..fmt..Debug$GT$3fmt17h605d330e64a9dc1dE
	.cfi_endproc

	.p2align	4, 0x90
__ZN42_$LT$$RF$T$u20$as$u20$core..fmt..Debug$GT$3fmt17h5bbdc15a63f9322cE:
	.cfi_startproc
	pushq	%rbp
	.cfi_def_cfa_offset 16
	.cfi_offset %rbp, -16
	movq	%rsp, %rbp
	.cfi_def_cfa_register %rbp
	pushq	%r15
	pushq	%r14
	pushq	%r13
	pushq	%r12
	pushq	%rbx
	subq	$24, %rsp
	.cfi_offset %rbx, -56
	.cfi_offset %r12, -48
	.cfi_offset %r13, -40
	.cfi_offset %r14, -32
	.cfi_offset %r15, -24
	movq	(%rdi), %rbx
	leaq	L___unnamed_80(%rip), %rdx
	leaq	-64(%rbp), %r15
	movl	$8, %ecx
	movq	%r15, %rdi
	callq	__ZN4core3fmt9Formatter12debug_struct17h985c0158d1fc7193E
	movq	%rbx, -48(%rbp)
	leaq	8(%rbx), %r12
	leaq	24(%rbx), %r13
	leaq	56(%rbx), %r14
	leaq	l___unnamed_8(%rip), %rsi
	leaq	l___unnamed_81(%rip), %r8
	leaq	-48(%rbp), %rcx
	movl	$6, %edx
	movq	%r15, %rdi
	callq	__ZN4core3fmt8builders11DebugStruct5field17h9c15dc155278eed2E
	movq	%r12, -48(%rbp)
	leaq	L___unnamed_12(%rip), %rsi
	leaq	l___unnamed_51(%rip), %r8
	leaq	-48(%rbp), %rcx
	movl	$8, %edx
	movq	%r15, %rdi
	callq	__ZN4core3fmt8builders11DebugStruct5field17h9c15dc155278eed2E
	movq	%r13, -48(%rbp)
	leaq	l___unnamed_16(%rip), %rsi
	leaq	l___unnamed_52(%rip), %r8
	leaq	-48(%rbp), %rcx
	movl	$7, %edx
	movq	%r15, %rdi
	callq	__ZN4core3fmt8builders11DebugStruct5field17h9c15dc155278eed2E
	movq	%r14, -48(%rbp)
	leaq	L___unnamed_6(%rip), %rsi
	leaq	l___unnamed_7(%rip), %r8
	leaq	-48(%rbp), %rcx
	movl	$4, %edx
	movq	%r15, %rdi
	callq	__ZN4core3fmt8builders11DebugStruct5field17h9c15dc155278eed2E
	movq	%r15, %rdi
	callq	__ZN4core3fmt8builders11DebugStruct6finish17h26808393f3fed630E
	addq	$24, %rsp
	popq	%rbx
	popq	%r12
	popq	%r13
	popq	%r14
	popq	%r15
	popq	%rbp
	retq
	.cfi_endproc

	.p2align	4, 0x90
__ZN42_$LT$$RF$T$u20$as$u20$core..fmt..Debug$GT$3fmt17h5f5b1d2fb74e6181E:
	.cfi_startproc
	pushq	%rbp
	.cfi_def_cfa_offset 16
	.cfi_offset %rbp, -16
	movq	%rsp, %rbp
	.cfi_def_cfa_register %rbp
	pushq	%r14
	pushq	%rbx
	subq	$32, %rsp
	.cfi_offset %rbx, -32
	.cfi_offset %r14, -24
	movq	(%rdi), %rbx
	leaq	l___unnamed_134(%rip), %rdx
	leaq	-48(%rbp), %r14
	movl	$11, %ecx
	movq	%r14, %rdi
	callq	__ZN4core3fmt9Formatter11debug_tuple17h15ca25ad759edd1cE
	movq	%rbx, -24(%rbp)
	leaq	l___unnamed_42(%rip), %rdx
	leaq	-24(%rbp), %rsi
	movq	%r14, %rdi
	callq	__ZN4core3fmt8builders10DebugTuple5field17hf36121153a94f236E
	movq	%r14, %rdi
	callq	__ZN4core3fmt8builders10DebugTuple6finish17h68acf09c6f6593f2E
	addq	$32, %rsp
	popq	%rbx
	popq	%r14
	popq	%rbp
	retq
	.cfi_endproc

	.p2align	4, 0x90
__ZN42_$LT$$RF$T$u20$as$u20$core..fmt..Debug$GT$3fmt17h5f74d1868dd55103E:
	.cfi_startproc
	pushq	%rbp
	.cfi_def_cfa_offset 16
	.cfi_offset %rbp, -16
	movq	%rsp, %rbp
	.cfi_def_cfa_register %rbp
	pushq	%r15
	pushq	%r14
	pushq	%r13
	pushq	%r12
	pushq	%rbx
	subq	$72, %rsp
	.cfi_offset %rbx, -56
	.cfi_offset %r12, -48
	.cfi_offset %r13, -40
	.cfi_offset %r14, -32
	.cfi_offset %r15, -24
	movq	(%rdi), %rbx
	leaq	l___unnamed_135(%rip), %rdx
	leaq	-112(%rbp), %r14
	movl	$15, %ecx
	movq	%r14, %rdi
	callq	__ZN4core3fmt9Formatter12debug_struct17h985c0158d1fc7193E
	movq	%rbx, -48(%rbp)
	leaq	4(%rbx), %r15
	leaq	8(%rbx), %r13
	leaq	16(%rbx), %r12
	leaq	24(%rbx), %rax
	movq	%rax, -56(%rbp)
	leaq	32(%rbx), %rax
	movq	%rax, -64(%rbp)
	leaq	40(%rbx), %rax
	movq	%rax, -72(%rbp)
	leaq	44(%rbx), %rax
	movq	%rax, -80(%rbp)
	leaq	48(%rbx), %rax
	movq	%rax, -88(%rbp)
	leaq	56(%rbx), %rax
	movq	%rax, -96(%rbp)
	leaq	l___unnamed_136(%rip), %rsi
	leaq	l___unnamed_33(%rip), %rbx
	leaq	-48(%rbp), %rcx
	movl	$7, %edx
	movq	%r14, %rdi
	movq	%rbx, %r8
	callq	__ZN4core3fmt8builders11DebugStruct5field17h9c15dc155278eed2E
	movq	%r15, -48(%rbp)
	leaq	l___unnamed_137(%rip), %rsi
	leaq	-48(%rbp), %rcx
	movl	$7, %edx
	movq	%r14, %rdi
	movq	%rbx, %r8
	callq	__ZN4core3fmt8builders11DebugStruct5field17h9c15dc155278eed2E
	movq	%r13, -48(%rbp)
	leaq	L___unnamed_138(%rip), %rsi
	leaq	l___unnamed_60(%rip), %r15
	leaq	-48(%rbp), %rcx
	movl	$8, %edx
	movq	%r14, %rdi
	movq	%r15, %r8
	callq	__ZN4core3fmt8builders11DebugStruct5field17h9c15dc155278eed2E
	movq	%r12, -48(%rbp)
	leaq	l___unnamed_139(%rip), %rsi
	leaq	-48(%rbp), %rcx
	movl	$7, %edx
	movq	%r14, %rdi
	movq	%r15, %r8
	callq	__ZN4core3fmt8builders11DebugStruct5field17h9c15dc155278eed2E
	movq	-56(%rbp), %rax
	movq	%rax, -48(%rbp)
	leaq	l___unnamed_140(%rip), %rsi
	leaq	-48(%rbp), %rcx
	movl	$9, %edx
	movq	%r14, %rdi
	movq	%r15, %r8
	callq	__ZN4core3fmt8builders11DebugStruct5field17h9c15dc155278eed2E
	movq	-64(%rbp), %rax
	movq	%rax, -48(%rbp)
	leaq	l___unnamed_141(%rip), %rsi
	leaq	-48(%rbp), %rcx
	movl	$7, %edx
	movq	%r14, %rdi
	movq	%r15, %r8
	callq	__ZN4core3fmt8builders11DebugStruct5field17h9c15dc155278eed2E
	movq	-72(%rbp), %rax
	movq	%rax, -48(%rbp)
	leaq	l___unnamed_142(%rip), %rsi
	leaq	-48(%rbp), %rcx
	movl	$7, %edx
	movq	%r14, %rdi
	movq	%rbx, %r8
	callq	__ZN4core3fmt8builders11DebugStruct5field17h9c15dc155278eed2E
	movq	-80(%rbp), %rax
	movq	%rax, -48(%rbp)
	leaq	l___unnamed_143(%rip), %rsi
	leaq	-48(%rbp), %rcx
	movl	$7, %edx
	movq	%r14, %rdi
	movq	%rbx, %r8
	callq	__ZN4core3fmt8builders11DebugStruct5field17h9c15dc155278eed2E
	movq	-88(%rbp), %rax
	movq	%rax, -48(%rbp)
	leaq	l___unnamed_144(%rip), %rsi
	leaq	-48(%rbp), %rcx
	movl	$12, %edx
	movq	%r14, %rdi
	movq	%r15, %r8
	callq	__ZN4core3fmt8builders11DebugStruct5field17h9c15dc155278eed2E
	movq	-96(%rbp), %rax
	movq	%rax, -48(%rbp)
	leaq	l___unnamed_145(%rip), %rsi
	leaq	-48(%rbp), %rcx
	movl	$10, %edx
	movq	%r14, %rdi
	movq	%r15, %r8
	callq	__ZN4core3fmt8builders11DebugStruct5field17h9c15dc155278eed2E
	movq	%r14, %rdi
	callq	__ZN4core3fmt8builders11DebugStruct6finish17h26808393f3fed630E
	addq	$72, %rsp
	popq	%rbx
	popq	%r12
	popq	%r13
	popq	%r14
	popq	%r15
	popq	%rbp
	retq
	.cfi_endproc

	.p2align	4, 0x90
__ZN42_$LT$$RF$T$u20$as$u20$core..fmt..Debug$GT$3fmt17h60d164e4e2926943E:
	.cfi_startproc
	pushq	%rbp
	.cfi_def_cfa_offset 16
	.cfi_offset %rbp, -16
	movq	%rsp, %rbp
	.cfi_def_cfa_register %rbp
	pushq	%r15
	pushq	%r14
	pushq	%r13
	pushq	%r12
	pushq	%rbx
	subq	$24, %rsp
	.cfi_offset %rbx, -56
	.cfi_offset %r12, -48
	.cfi_offset %r13, -40
	.cfi_offset %r14, -32
	.cfi_offset %r15, -24
	movq	(%rdi), %r13
	movq	8(%rdi), %rbx
	leaq	-64(%rbp), %rdi
	callq	__ZN4core3fmt9Formatter10debug_list17hd054f0986422feb9E
	testq	%rbx, %rbx
	je	LBB71_3
	imulq	$56, %rbx, %rbx
	leaq	l___unnamed_146(%rip), %r14
	leaq	-64(%rbp), %r15
	leaq	-48(%rbp), %r12
	.p2align	4, 0x90
LBB71_2:
	movq	%r13, -48(%rbp)
	addq	$56, %r13
	movq	%r15, %rdi
	movq	%r12, %rsi
	movq	%r14, %rdx
	callq	__ZN4core3fmt8builders9DebugList5entry17h5c0dec54538196dfE
	addq	$-56, %rbx
	jne	LBB71_2
LBB71_3:
	leaq	-64(%rbp), %rdi
	callq	__ZN4core3fmt8builders9DebugList6finish17h3635bd6af9b1c5a6E
	addq	$24, %rsp
	popq	%rbx
	popq	%r12
	popq	%r13
	popq	%r14
	popq	%r15
	popq	%rbp
	retq
	.cfi_endproc

	.p2align	4, 0x90
__ZN42_$LT$$RF$T$u20$as$u20$core..fmt..Debug$GT$3fmt17h62afe492788391e6E:
	.cfi_startproc
	pushq	%rbp
	.cfi_def_cfa_offset 16
	.cfi_offset %rbp, -16
	movq	%rsp, %rbp
	.cfi_def_cfa_register %rbp
	movq	%rsi, %rdx
	movq	(%rdi), %rax
	movq	(%rax), %rdi
	movq	8(%rax), %rsi
	popq	%rbp
	jmp	__ZN6object3pod16debug_list_bytes17h00731385b69b8b3dE
	.cfi_endproc

	.p2align	4, 0x90
__ZN42_$LT$$RF$T$u20$as$u20$core..fmt..Debug$GT$3fmt17h64cb2b0858cc775eE:
	.cfi_startproc
	pushq	%rbp
	.cfi_def_cfa_offset 16
	.cfi_offset %rbp, -16
	movq	%rsp, %rbp
	.cfi_def_cfa_register %rbp
	pushq	%r15
	pushq	%r14
	pushq	%r13
	pushq	%r12
	pushq	%rbx
	subq	$24, %rsp
	.cfi_offset %rbx, -56
	.cfi_offset %r12, -48
	.cfi_offset %r13, -40
	.cfi_offset %r14, -32
	.cfi_offset %r15, -24
	movq	(%rdi), %rbx
	leaq	-64(%rbp), %r12
	movq	%r12, %rdi
	callq	__ZN4core3fmt9Formatter10debug_list17hd054f0986422feb9E
	leaq	2(%rbx), %r13
	movq	%rbx, -48(%rbp)
	leaq	l___unnamed_147(%rip), %r15
	leaq	-48(%rbp), %rsi
	movq	%r12, %rdi
	movq	%r15, %rdx
	callq	__ZN4core3fmt8builders9DebugList5entry17h5c0dec54538196dfE
	leaq	4(%rbx), %r14
	movq	%r13, -48(%rbp)
	movq	%r12, %rdi
	leaq	-48(%rbp), %rsi
	movq	%r15, %rdx
	callq	__ZN4core3fmt8builders9DebugList5entry17h5c0dec54538196dfE
	leaq	6(%rbx), %r13
	movq	%r14, -48(%rbp)
	movq	%r12, %rdi
	leaq	-48(%rbp), %rsi
	movq	%r15, %rdx
	callq	__ZN4core3fmt8builders9DebugList5entry17h5c0dec54538196dfE
	leaq	8(%rbx), %r14
	movq	%r13, -48(%rbp)
	movq	%r12, %rdi
	leaq	-48(%rbp), %rsi
	movq	%r15, %rdx
	callq	__ZN4core3fmt8builders9DebugList5entry17h5c0dec54538196dfE
	leaq	10(%rbx), %r13
	movq	%r14, -48(%rbp)
	movq	%r12, %rdi
	leaq	-48(%rbp), %rsi
	movq	%r15, %rdx
	callq	__ZN4core3fmt8builders9DebugList5entry17h5c0dec54538196dfE
	leaq	12(%rbx), %r14
	movq	%r13, -48(%rbp)
	movq	%r12, %rdi
	leaq	-48(%rbp), %rsi
	movq	%r15, %rdx
	callq	__ZN4core3fmt8builders9DebugList5entry17h5c0dec54538196dfE
	leaq	14(%rbx), %r13
	movq	%r14, -48(%rbp)
	movq	%r12, %rdi
	leaq	-48(%rbp), %rsi
	movq	%rsi, %r14
	movq	%r15, %rdx
	callq	__ZN4core3fmt8builders9DebugList5entry17h5c0dec54538196dfE
	movq	%r13, -48(%rbp)
	movq	%r12, %rdi
	movq	%r14, %rsi
	movq	%r15, %rdx
	callq	__ZN4core3fmt8builders9DebugList5entry17h5c0dec54538196dfE
	leaq	16(%rbx), %rax
	addq	$18, %rbx
	movq	%rax, -48(%rbp)
	movq	%r12, %rdi
	movq	%r14, %rsi
	movq	%r15, %rdx
	callq	__ZN4core3fmt8builders9DebugList5entry17h5c0dec54538196dfE
	movq	%rbx, -48(%rbp)
	movq	%r12, %rdi
	movq	%r14, %rsi
	movq	%r15, %rdx
	callq	__ZN4core3fmt8builders9DebugList5entry17h5c0dec54538196dfE
	movq	%r12, %rdi
	callq	__ZN4core3fmt8builders9DebugList6finish17h3635bd6af9b1c5a6E
	addq	$24, %rsp
	popq	%rbx
	popq	%r12
	popq	%r13
	popq	%r14
	popq	%r15
	popq	%rbp
	retq
	.cfi_endproc

	.p2align	4, 0x90
__ZN42_$LT$$RF$T$u20$as$u20$core..fmt..Debug$GT$3fmt17h6611645d3e595682E:
	.cfi_startproc
	pushq	%rbp
	.cfi_def_cfa_offset 16
	.cfi_offset %rbp, -16
	movq	%rsp, %rbp
	.cfi_def_cfa_register %rbp
	pushq	%r15
	pushq	%r14
	pushq	%r13
	pushq	%r12
	pushq	%rbx
	subq	$56, %rsp
	.cfi_offset %rbx, -56
	.cfi_offset %r12, -48
	.cfi_offset %r13, -40
	.cfi_offset %r14, -32
	.cfi_offset %r15, -24
	movq	(%rdi), %rbx
	leaq	l___unnamed_148(%rip), %rdx
	leaq	-96(%rbp), %r13
	movl	$15, %ecx
	movq	%r13, %rdi
	callq	__ZN4core3fmt9Formatter12debug_struct17h985c0158d1fc7193E
	movq	%rbx, -48(%rbp)
	leaq	4(%rbx), %r15
	leaq	8(%rbx), %r12
	leaq	12(%rbx), %rax
	movq	%rax, -56(%rbp)
	leaq	16(%rbx), %rax
	movq	%rax, -64(%rbp)
	leaq	20(%rbx), %rax
	movq	%rax, -72(%rbp)
	leaq	24(%rbx), %rax
	movq	%rax, -80(%rbp)
	leaq	28(%rbx), %rbx
	leaq	l___unnamed_149(%rip), %rsi
	leaq	l___unnamed_33(%rip), %r14
	leaq	-48(%rbp), %rcx
	movl	$6, %edx
	movq	%r13, %rdi
	movq	%r14, %r8
	callq	__ZN4core3fmt8builders11DebugStruct5field17h9c15dc155278eed2E
	movq	%r15, -48(%rbp)
	leaq	L___unnamed_150(%rip), %rsi
	leaq	-48(%rbp), %rcx
	movl	$8, %edx
	movq	%r13, %rdi
	movq	%r14, %r8
	callq	__ZN4core3fmt8builders11DebugStruct5field17h9c15dc155278eed2E
	movq	%r12, -48(%rbp)
	leaq	l___unnamed_151(%rip), %rsi
	leaq	-48(%rbp), %rcx
	movl	$7, %edx
	movq	%r13, %rdi
	movq	%r14, %r8
	callq	__ZN4core3fmt8builders11DebugStruct5field17h9c15dc155278eed2E
	movq	-56(%rbp), %rax
	movq	%rax, -48(%rbp)
	leaq	l___unnamed_152(%rip), %rsi
	leaq	-48(%rbp), %rcx
	movl	$7, %edx
	movq	%r13, %rdi
	movq	%r14, %r8
	callq	__ZN4core3fmt8builders11DebugStruct5field17h9c15dc155278eed2E
	movq	-64(%rbp), %rax
	movq	%rax, -48(%rbp)
	leaq	L___unnamed_153(%rip), %rsi
	leaq	-48(%rbp), %rcx
	movl	$8, %edx
	movq	%r13, %rdi
	movq	%r14, %r8
	callq	__ZN4core3fmt8builders11DebugStruct5field17h9c15dc155278eed2E
	movq	-72(%rbp), %rax
	movq	%rax, -48(%rbp)
	leaq	l___unnamed_154(%rip), %rsi
	leaq	-48(%rbp), %rcx
	movl	$7, %edx
	movq	%r13, %rdi
	movq	%r14, %r8
	callq	__ZN4core3fmt8builders11DebugStruct5field17h9c15dc155278eed2E
	movq	-80(%rbp), %rax
	movq	%rax, -48(%rbp)
	leaq	l___unnamed_155(%rip), %rsi
	leaq	-48(%rbp), %rcx
	movl	$7, %edx
	movq	%r13, %rdi
	movq	%r14, %r8
	callq	__ZN4core3fmt8builders11DebugStruct5field17h9c15dc155278eed2E
	movq	%rbx, -48(%rbp)
	leaq	l___unnamed_156(%rip), %rsi
	leaq	-48(%rbp), %rcx
	movl	$7, %edx
	movq	%r13, %rdi
	movq	%r14, %r8
	callq	__ZN4core3fmt8builders11DebugStruct5field17h9c15dc155278eed2E
	movq	%r13, %rdi
	callq	__ZN4core3fmt8builders11DebugStruct6finish17h26808393f3fed630E
	addq	$56, %rsp
	popq	%rbx
	popq	%r12
	popq	%r13
	popq	%r14
	popq	%r15
	popq	%rbp
	retq
	.cfi_endproc

	.p2align	4, 0x90
__ZN42_$LT$$RF$T$u20$as$u20$core..fmt..Debug$GT$3fmt17h66f8f0c1dcda820cE:
	.cfi_startproc
	pushq	%rbp
	.cfi_def_cfa_offset 16
	.cfi_offset %rbp, -16
	movq	%rsp, %rbp
	.cfi_def_cfa_register %rbp
	pushq	%r15
	pushq	%r14
	pushq	%r13
	pushq	%r12
	pushq	%rbx
	subq	$24, %rsp
	.cfi_offset %rbx, -56
	.cfi_offset %r12, -48
	.cfi_offset %r13, -40
	.cfi_offset %r14, -32
	.cfi_offset %r15, -24
	movq	(%rdi), %rax
	movq	(%rax), %r13
	movq	16(%rax), %rbx
	leaq	-64(%rbp), %rdi
	callq	__ZN4core3fmt9Formatter10debug_list17hd054f0986422feb9E
	testq	%rbx, %rbx
	je	LBB75_3
	shlq	$3, %rbx
	leaq	(%rbx,%rbx,2), %rbx
	leaq	l___unnamed_157(%rip), %r14
	leaq	-64(%rbp), %r15
	leaq	-48(%rbp), %r12
	.p2align	4, 0x90
LBB75_2:
	movq	%r13, -48(%rbp)
	addq	$24, %r13
	movq	%r15, %rdi
	movq	%r12, %rsi
	movq	%r14, %rdx
	callq	__ZN4core3fmt8builders9DebugList5entry17h5c0dec54538196dfE
	addq	$-24, %rbx
	jne	LBB75_2
LBB75_3:
	leaq	-64(%rbp), %rdi
	callq	__ZN4core3fmt8builders9DebugList6finish17h3635bd6af9b1c5a6E
	addq	$24, %rsp
	popq	%rbx
	popq	%r12
	popq	%r13
	popq	%r14
	popq	%r15
	popq	%rbp
	retq
	.cfi_endproc

	.p2align	4, 0x90
__ZN42_$LT$$RF$T$u20$as$u20$core..fmt..Debug$GT$3fmt17h69c1ccae7b5873f5E:
	.cfi_startproc
	pushq	%rbp
	.cfi_def_cfa_offset 16
	.cfi_offset %rbp, -16
	movq	%rsp, %rbp
	.cfi_def_cfa_register %rbp
	movq	(%rdi), %rdi
	popq	%rbp
	jmp	__ZN68_$LT$object..read..any..FileInternal$u20$as$u20$core..fmt..Debug$GT$3fmt17h04ef1fc561455951E
	.cfi_endproc

	.p2align	4, 0x90
__ZN42_$LT$$RF$T$u20$as$u20$core..fmt..Debug$GT$3fmt17h6a151a3ebbb730efE:
	.cfi_startproc
	pushq	%rbp
	.cfi_def_cfa_offset 16
	.cfi_offset %rbp, -16
	movq	%rsp, %rbp
	.cfi_def_cfa_register %rbp
	pushq	%r14
	pushq	%rbx
	subq	$48, %rsp
	.cfi_offset %rbx, -32
	.cfi_offset %r14, -24
	movq	(%rdi), %rbx
	leaq	L___unnamed_95(%rip), %rdx
	leaq	-56(%rbp), %r14
	movl	$4, %ecx
	movq	%r14, %rdi
	callq	__ZN4core3fmt9Formatter11debug_tuple17h15ca25ad759edd1cE
	movq	(%rbx), %rax
	movq	8(%rbx), %rcx
	subq	%rax, %rcx
	shrq	$5, %rcx
	movq	%rax, -32(%rbp)
	movq	%rcx, -24(%rbp)
	leaq	l___unnamed_158(%rip), %rdx
	leaq	-32(%rbp), %rsi
	movq	%r14, %rdi
	callq	__ZN4core3fmt8builders10DebugTuple5field17hf36121153a94f236E
	movq	%rax, %rdi
	callq	__ZN4core3fmt8builders10DebugTuple6finish17h68acf09c6f6593f2E
	addq	$48, %rsp
	popq	%rbx
	popq	%r14
	popq	%rbp
	retq
	.cfi_endproc

	.p2align	4, 0x90
__ZN42_$LT$$RF$T$u20$as$u20$core..fmt..Debug$GT$3fmt17h6a1f922d93e3aca8E:
	.cfi_startproc
	pushq	%rbp
	.cfi_def_cfa_offset 16
	.cfi_offset %rbp, -16
	movq	%rsp, %rbp
	.cfi_def_cfa_register %rbp
	movq	(%rdi), %rdi
	popq	%rbp
	jmp	__ZN64_$LT$object..common..SymbolScope$u20$as$u20$core..fmt..Debug$GT$3fmt17hc68f75a716b022e2E
	.cfi_endproc

	.p2align	4, 0x90
__ZN42_$LT$$RF$T$u20$as$u20$core..fmt..Debug$GT$3fmt17h6d0ff71ce2cf71edE:
	.cfi_startproc
	pushq	%rbp
	.cfi_def_cfa_offset 16
	.cfi_offset %rbp, -16
	movq	%rsp, %rbp
	.cfi_def_cfa_register %rbp
	movq	(%rdi), %rdi
	popq	%rbp
	jmp	__ZN70_$LT$object..pe..ImageOptionalHeader64$u20$as$u20$core..fmt..Debug$GT$3fmt17hdaaed22d6dff0404E
	.cfi_endproc

	.p2align	4, 0x90
__ZN42_$LT$$RF$T$u20$as$u20$core..fmt..Debug$GT$3fmt17h6e55893c772034d1E:
	.cfi_startproc
	pushq	%rbp
	.cfi_def_cfa_offset 16
	.cfi_offset %rbp, -16
	movq	%rsp, %rbp
	.cfi_def_cfa_register %rbp
	pushq	%rbx
	subq	$24, %rsp
	.cfi_offset %rbx, -24
	leaq	l___unnamed_159(%rip), %rdx
	leaq	-24(%rbp), %rbx
	movl	$21, %ecx
	movq	%rbx, %rdi
	callq	__ZN4core3fmt9Formatter12debug_struct17h985c0158d1fc7193E
	movq	%rbx, %rdi
	callq	__ZN4core3fmt8builders11DebugStruct6finish17h26808393f3fed630E
	addq	$24, %rsp
	popq	%rbx
	popq	%rbp
	retq
	.cfi_endproc

	.p2align	4, 0x90
__ZN42_$LT$$RF$T$u20$as$u20$core..fmt..Debug$GT$3fmt17h72d8445f8e30ac62E:
	.cfi_startproc
	pushq	%rbp
	.cfi_def_cfa_offset 16
	.cfi_offset %rbp, -16
	movq	%rsp, %rbp
	.cfi_def_cfa_register %rbp
	pushq	%r15
	pushq	%r14
	pushq	%r13
	pushq	%r12
	pushq	%rbx
	subq	$24, %rsp
	.cfi_offset %rbx, -56
	.cfi_offset %r12, -48
	.cfi_offset %r13, -40
	.cfi_offset %r14, -32
	.cfi_offset %r15, -24
	movq	(%rdi), %rbx
	leaq	80(%rbx), %r14
	leaq	l___unnamed_123(%rip), %rdx
	leaq	-64(%rbp), %r15
	movl	$9, %ecx
	movq	%r15, %rdi
	callq	__ZN4core3fmt9Formatter12debug_struct17h985c0158d1fc7193E
	movq	%r14, -48(%rbp)
	leaq	l___unnamed_4(%rip), %rsi
	leaq	l___unnamed_5(%rip), %r8
	leaq	-48(%rbp), %rcx
	movl	$6, %edx
	movq	%r15, %rdi
	callq	__ZN4core3fmt8builders11DebugStruct5field17h9c15dc155278eed2E
	movq	%rbx, -48(%rbp)
	leaq	16(%rbx), %r12
	leaq	24(%rbx), %r13
	leaq	48(%rbx), %r14
	leaq	L___unnamed_6(%rip), %rsi
	leaq	l___unnamed_7(%rip), %r8
	leaq	-48(%rbp), %rcx
	movl	$4, %edx
	movq	%r15, %rdi
	callq	__ZN4core3fmt8builders11DebugStruct5field17h9c15dc155278eed2E
	movq	%r12, -48(%rbp)
	leaq	l___unnamed_8(%rip), %rsi
	leaq	l___unnamed_160(%rip), %r8
	leaq	-48(%rbp), %rcx
	movl	$6, %edx
	movq	%r15, %rdi
	callq	__ZN4core3fmt8builders11DebugStruct5field17h9c15dc155278eed2E
	movq	%r13, -48(%rbp)
	leaq	L___unnamed_12(%rip), %rsi
	leaq	l___unnamed_161(%rip), %r8
	leaq	-48(%rbp), %rcx
	movl	$8, %edx
	movq	%r15, %rdi
	callq	__ZN4core3fmt8builders11DebugStruct5field17h9c15dc155278eed2E
	movq	%r14, -48(%rbp)
	leaq	l___unnamed_16(%rip), %rsi
	leaq	l___unnamed_162(%rip), %r8
	leaq	-48(%rbp), %rcx
	movl	$7, %edx
	movq	%r15, %rdi
	callq	__ZN4core3fmt8builders11DebugStruct5field17h9c15dc155278eed2E
	movq	%r15, %rdi
	callq	__ZN4core3fmt8builders11DebugStruct6finish17h26808393f3fed630E
	addq	$24, %rsp
	popq	%rbx
	popq	%r12
	popq	%r13
	popq	%r14
	popq	%r15
	popq	%rbp
	retq
	.cfi_endproc

	.p2align	4, 0x90
__ZN42_$LT$$RF$T$u20$as$u20$core..fmt..Debug$GT$3fmt17h7492a12df67edf2eE:
	.cfi_startproc
	pushq	%rbp
	.cfi_def_cfa_offset 16
	.cfi_offset %rbp, -16
	movq	%rsp, %rbp
	.cfi_def_cfa_register %rbp
	pushq	%r15
	pushq	%r14
	pushq	%rbx
	subq	$40, %rsp
	.cfi_offset %rbx, -40
	.cfi_offset %r14, -32
	.cfi_offset %r15, -24
	movq	(%rdi), %rbx
	movzbl	(%rbx), %eax
	leaq	LJTI82_0(%rip), %rcx
	movslq	(%rcx,%rax,4), %rax
	addq	%rcx, %rax
	jmpq	*%rax
LBB82_2:
	leaq	L___unnamed_28(%rip), %rdx
	leaq	-56(%rbp), %rbx
	movl	$4, %ecx
	movq	%rbx, %rdi
	callq	__ZN4core3fmt9Formatter11debug_tuple17h15ca25ad759edd1cE
	movq	%rbx, %rdi
	callq	__ZN4core3fmt8builders10DebugTuple6finish17h68acf09c6f6593f2E
	jmp	LBB82_7
LBB82_4:
	addq	$2, %rbx
	leaq	l___unnamed_163(%rip), %rdx
	leaq	-56(%rbp), %r14
	movl	$5, %ecx
	movq	%r14, %rdi
	callq	__ZN4core3fmt9Formatter12debug_struct17h985c0158d1fc7193E
	movq	%rbx, -32(%rbp)
	leaq	l___unnamed_77(%rip), %rsi
	leaq	l___unnamed_164(%rip), %r8
	leaq	-32(%rbp), %rcx
	movl	$6, %edx
	jmp	LBB82_5
LBB82_1:
	leaq	1(%rbx), %r15
	addq	$8, %rbx
	leaq	l___unnamed_165(%rip), %rdx
	leaq	-56(%rbp), %r14
	movl	$11, %ecx
	movq	%r14, %rdi
	callq	__ZN4core3fmt9Formatter12debug_struct17h985c0158d1fc7193E
	movq	%r15, -32(%rbp)
	leaq	l___unnamed_166(%rip), %rsi
	leaq	l___unnamed_25(%rip), %r8
	leaq	-32(%rbp), %rcx
	movl	$9, %edx
	movq	%r14, %rdi
	callq	__ZN4core3fmt8builders11DebugStruct5field17h9c15dc155278eed2E
	movq	%rbx, -32(%rbp)
	leaq	l___unnamed_167(%rip), %rsi
	leaq	l___unnamed_168(%rip), %r8
	leaq	-32(%rbp), %rcx
	movl	$19, %edx
LBB82_5:
	movq	%r14, %rdi
	callq	__ZN4core3fmt8builders11DebugStruct5field17h9c15dc155278eed2E
	movq	%r14, %rdi
	jmp	LBB82_6
LBB82_3:
	leaq	1(%rbx), %r14
	addq	$2, %rbx
	leaq	l___unnamed_169(%rip), %rdx
	leaq	-56(%rbp), %r15
	movl	$3, %ecx
	movq	%r15, %rdi
	callq	__ZN4core3fmt9Formatter12debug_struct17h985c0158d1fc7193E
	movq	%r14, -32(%rbp)
	leaq	l___unnamed_55(%rip), %rsi
	leaq	l___unnamed_25(%rip), %r14
	leaq	-32(%rbp), %rcx
	movl	$7, %edx
	movq	%r15, %rdi
	movq	%r14, %r8
	callq	__ZN4core3fmt8builders11DebugStruct5field17h9c15dc155278eed2E
	movq	%rbx, -32(%rbp)
	leaq	L___unnamed_56(%rip), %rsi
	leaq	-32(%rbp), %rcx
	movl	$8, %edx
	movq	%r15, %rdi
	movq	%r14, %r8
	callq	__ZN4core3fmt8builders11DebugStruct5field17h9c15dc155278eed2E
	movq	%r15, %rdi
LBB82_6:
	callq	__ZN4core3fmt8builders11DebugStruct6finish17h26808393f3fed630E
LBB82_7:
	addq	$40, %rsp
	popq	%rbx
	popq	%r14
	popq	%r15
	popq	%rbp
	retq
	.cfi_endproc
	.p2align	2, 0x90
	.data_region jt32
.set L82_0_set_2, LBB82_2-LJTI82_0
.set L82_0_set_3, LBB82_3-LJTI82_0
.set L82_0_set_4, LBB82_4-LJTI82_0
.set L82_0_set_1, LBB82_1-LJTI82_0
LJTI82_0:
	.long	L82_0_set_2
	.long	L82_0_set_3
	.long	L82_0_set_4
	.long	L82_0_set_1
	.end_data_region

	.p2align	4, 0x90
__ZN42_$LT$$RF$T$u20$as$u20$core..fmt..Debug$GT$3fmt17h75447692ff0417c9E:
	.cfi_startproc
	pushq	%rbp
	.cfi_def_cfa_offset 16
	.cfi_offset %rbp, -16
	movq	%rsp, %rbp
	.cfi_def_cfa_register %rbp
	pushq	%r14
	pushq	%rbx
	subq	$32, %rsp
	.cfi_offset %rbx, -32
	.cfi_offset %r14, -24
	movq	(%rdi), %rbx
	leaq	L___unnamed_170(%rip), %rdx
	leaq	-48(%rbp), %r14
	movl	$16, %ecx
	movq	%r14, %rdi
	callq	__ZN4core3fmt9Formatter11debug_tuple17h15ca25ad759edd1cE
	movq	%rbx, -24(%rbp)
	leaq	l___unnamed_171(%rip), %rdx
	leaq	-24(%rbp), %rsi
	movq	%r14, %rdi
	callq	__ZN4core3fmt8builders10DebugTuple5field17hf36121153a94f236E
	movq	%r14, %rdi
	callq	__ZN4core3fmt8builders10DebugTuple6finish17h68acf09c6f6593f2E
	addq	$32, %rsp
	popq	%rbx
	popq	%r14
	popq	%rbp
	retq
	.cfi_endproc

	.p2align	4, 0x90
__ZN42_$LT$$RF$T$u20$as$u20$core..fmt..Debug$GT$3fmt17h765dcfd437b9adb6E:
	.cfi_startproc
	pushq	%rbp
	.cfi_def_cfa_offset 16
	.cfi_offset %rbp, -16
	movq	%rsp, %rbp
	.cfi_def_cfa_register %rbp
	movq	(%rdi), %rdi
	popq	%rbp
	jmp	__ZN42_$LT$$RF$T$u20$as$u20$core..fmt..Debug$GT$3fmt17had7b244a13e400c0E
	.cfi_endproc

	.p2align	4, 0x90
__ZN42_$LT$$RF$T$u20$as$u20$core..fmt..Debug$GT$3fmt17h7874e5972bb011ecE:
	.cfi_startproc
	pushq	%rbp
	.cfi_def_cfa_offset 16
	.cfi_offset %rbp, -16
	movq	%rsp, %rbp
	.cfi_def_cfa_register %rbp
	pushq	%r15
	pushq	%r14
	pushq	%r13
	pushq	%r12
	pushq	%rbx
	subq	$56, %rsp
	.cfi_offset %rbx, -56
	.cfi_offset %r12, -48
	.cfi_offset %r13, -40
	.cfi_offset %r14, -32
	.cfi_offset %r15, -24
	movq	(%rdi), %rbx
	leaq	l___unnamed_172(%rip), %rdx
	leaq	-96(%rbp), %r13
	movl	$15, %ecx
	movq	%r13, %rdi
	callq	__ZN4core3fmt9Formatter12debug_struct17h985c0158d1fc7193E
	movq	%rbx, -48(%rbp)
	leaq	4(%rbx), %r15
	leaq	8(%rbx), %r12
	leaq	16(%rbx), %rax
	movq	%rax, -56(%rbp)
	leaq	24(%rbx), %rax
	movq	%rax, -64(%rbp)
	leaq	32(%rbx), %rax
	movq	%rax, -72(%rbp)
	leaq	40(%rbx), %rax
	movq	%rax, -80(%rbp)
	leaq	48(%rbx), %rbx
	leaq	l___unnamed_149(%rip), %rsi
	leaq	l___unnamed_33(%rip), %r14
	leaq	-48(%rbp), %rcx
	movl	$6, %edx
	movq	%r13, %rdi
	movq	%r14, %r8
	callq	__ZN4core3fmt8builders11DebugStruct5field17h9c15dc155278eed2E
	movq	%r15, -48(%rbp)
	leaq	l___unnamed_155(%rip), %rsi
	leaq	-48(%rbp), %rcx
	movl	$7, %edx
	movq	%r13, %rdi
	movq	%r14, %r8
	callq	__ZN4core3fmt8builders11DebugStruct5field17h9c15dc155278eed2E
	movq	%r12, -48(%rbp)
	leaq	L___unnamed_150(%rip), %rsi
	leaq	l___unnamed_60(%rip), %r14
	leaq	-48(%rbp), %rcx
	movl	$8, %edx
	movq	%r13, %rdi
	movq	%r14, %r8
	callq	__ZN4core3fmt8builders11DebugStruct5field17h9c15dc155278eed2E
	movq	-56(%rbp), %rax
	movq	%rax, -48(%rbp)
	leaq	l___unnamed_151(%rip), %rsi
	leaq	-48(%rbp), %rcx
	movl	$7, %edx
	movq	%r13, %rdi
	movq	%r14, %r8
	callq	__ZN4core3fmt8builders11DebugStruct5field17h9c15dc155278eed2E
	movq	-64(%rbp), %rax
	movq	%rax, -48(%rbp)
	leaq	l___unnamed_152(%rip), %rsi
	leaq	-48(%rbp), %rcx
	movl	$7, %edx
	movq	%r13, %rdi
	movq	%r14, %r8
	callq	__ZN4core3fmt8builders11DebugStruct5field17h9c15dc155278eed2E
	movq	-72(%rbp), %rax
	movq	%rax, -48(%rbp)
	leaq	L___unnamed_153(%rip), %rsi
	leaq	-48(%rbp), %rcx
	movl	$8, %edx
	movq	%r13, %rdi
	movq	%r14, %r8
	callq	__ZN4core3fmt8builders11DebugStruct5field17h9c15dc155278eed2E
	movq	-80(%rbp), %rax
	movq	%rax, -48(%rbp)
	leaq	l___unnamed_154(%rip), %rsi
	leaq	-48(%rbp), %rcx
	movl	$7, %edx
	movq	%r13, %rdi
	movq	%r14, %r8
	callq	__ZN4core3fmt8builders11DebugStruct5field17h9c15dc155278eed2E
	movq	%rbx, -48(%rbp)
	leaq	l___unnamed_156(%rip), %rsi
	leaq	-48(%rbp), %rcx
	movl	$7, %edx
	movq	%r13, %rdi
	movq	%r14, %r8
	callq	__ZN4core3fmt8builders11DebugStruct5field17h9c15dc155278eed2E
	movq	%r13, %rdi
	callq	__ZN4core3fmt8builders11DebugStruct6finish17h26808393f3fed630E
	addq	$56, %rsp
	popq	%rbx
	popq	%r12
	popq	%r13
	popq	%r14
	popq	%r15
	popq	%rbp
	retq
	.cfi_endproc

	.p2align	4, 0x90
__ZN42_$LT$$RF$T$u20$as$u20$core..fmt..Debug$GT$3fmt17h79238520f1e73dfaE:
	.cfi_startproc
	pushq	%rbp
	.cfi_def_cfa_offset 16
	.cfi_offset %rbp, -16
	movq	%rsp, %rbp
	.cfi_def_cfa_register %rbp
	pushq	%r14
	pushq	%rbx
	subq	$48, %rsp
	.cfi_offset %rbx, -32
	.cfi_offset %r14, -24
	movq	(%rdi), %rbx
	leaq	L___unnamed_95(%rip), %rdx
	leaq	-56(%rbp), %r14
	movl	$4, %ecx
	movq	%r14, %rdi
	callq	__ZN4core3fmt9Formatter11debug_tuple17h15ca25ad759edd1cE
	movq	(%rbx), %rcx
	movq	8(%rbx), %rax
	subq	%rcx, %rax
	movabsq	$-3689348814741910323, %rdx
	mulq	%rdx
	shrq	$5, %rdx
	movq	%rcx, -32(%rbp)
	movq	%rdx, -24(%rbp)
	leaq	l___unnamed_173(%rip), %rdx
	leaq	-32(%rbp), %rsi
	movq	%r14, %rdi
	callq	__ZN4core3fmt8builders10DebugTuple5field17hf36121153a94f236E
	movq	%rax, %rdi
	callq	__ZN4core3fmt8builders10DebugTuple6finish17h68acf09c6f6593f2E
	addq	$48, %rsp
	popq	%rbx
	popq	%r14
	popq	%rbp
	retq
	.cfi_endproc

	.p2align	4, 0x90
__ZN42_$LT$$RF$T$u20$as$u20$core..fmt..Debug$GT$3fmt17h7a99d03608a02122E:
	.cfi_startproc
	pushq	%rbp
	.cfi_def_cfa_offset 16
	.cfi_offset %rbp, -16
	movq	%rsp, %rbp
	.cfi_def_cfa_register %rbp
	pushq	%r15
	pushq	%r14
	pushq	%r12
	pushq	%rbx
	subq	$32, %rsp
	.cfi_offset %rbx, -48
	.cfi_offset %r12, -40
	.cfi_offset %r14, -32
	.cfi_offset %r15, -24
	movq	(%rdi), %rbx
	leaq	-56(%rbp), %r12
	movq	%r12, %rdi
	callq	__ZN4core3fmt9Formatter10debug_list17hd054f0986422feb9E
	movq	%rbx, -40(%rbp)
	leaq	l___unnamed_25(%rip), %r14
	leaq	-40(%rbp), %r15
	movq	%r12, %rdi
	movq	%r15, %rsi
	movq	%r14, %rdx
	callq	__ZN4core3fmt8builders9DebugList5entry17h5c0dec54538196dfE
	leaq	1(%rbx), %rax
	movq	%rax, -40(%rbp)
	movq	%r12, %rdi
	movq	%r15, %rsi
	movq	%r14, %rdx
	callq	__ZN4core3fmt8builders9DebugList5entry17h5c0dec54538196dfE
	leaq	2(%rbx), %rax
	movq	%rax, -40(%rbp)
	movq	%r12, %rdi
	movq	%r15, %rsi
	movq	%r14, %rdx
	callq	__ZN4core3fmt8builders9DebugList5entry17h5c0dec54538196dfE
	leaq	3(%rbx), %rax
	movq	%rax, -40(%rbp)
	movq	%r12, %rdi
	movq	%r15, %rsi
	movq	%r14, %rdx
	callq	__ZN4core3fmt8builders9DebugList5entry17h5c0dec54538196dfE
	leaq	4(%rbx), %rax
	movq	%rax, -40(%rbp)
	movq	%r12, %rdi
	movq	%r15, %rsi
	movq	%r14, %rdx
	callq	__ZN4core3fmt8builders9DebugList5entry17h5c0dec54538196dfE
	leaq	5(%rbx), %rax
	movq	%rax, -40(%rbp)
	movq	%r12, %rdi
	movq	%r15, %rsi
	movq	%r14, %rdx
	callq	__ZN4core3fmt8builders9DebugList5entry17h5c0dec54538196dfE
	leaq	6(%rbx), %rax
	movq	%rax, -40(%rbp)
	movq	%r12, %rdi
	movq	%r15, %rsi
	movq	%r14, %rdx
	callq	__ZN4core3fmt8builders9DebugList5entry17h5c0dec54538196dfE
	leaq	7(%rbx), %rax
	movq	%rax, -40(%rbp)
	movq	%r12, %rdi
	movq	%r15, %rsi
	movq	%r14, %rdx
	callq	__ZN4core3fmt8builders9DebugList5entry17h5c0dec54538196dfE
	leaq	8(%rbx), %rax
	movq	%rax, -40(%rbp)
	movq	%r12, %rdi
	movq	%r15, %rsi
	movq	%r14, %rdx
	callq	__ZN4core3fmt8builders9DebugList5entry17h5c0dec54538196dfE
	leaq	9(%rbx), %rax
	movq	%rax, -40(%rbp)
	movq	%r12, %rdi
	movq	%r15, %rsi
	movq	%r14, %rdx
	callq	__ZN4core3fmt8builders9DebugList5entry17h5c0dec54538196dfE
	leaq	10(%rbx), %rax
	movq	%rax, -40(%rbp)
	movq	%r12, %rdi
	movq	%r15, %rsi
	movq	%r14, %rdx
	callq	__ZN4core3fmt8builders9DebugList5entry17h5c0dec54538196dfE
	leaq	11(%rbx), %rax
	movq	%rax, -40(%rbp)
	movq	%r12, %rdi
	movq	%r15, %rsi
	movq	%r14, %rdx
	callq	__ZN4core3fmt8builders9DebugList5entry17h5c0dec54538196dfE
	leaq	12(%rbx), %rax
	movq	%rax, -40(%rbp)
	movq	%r12, %rdi
	movq	%r15, %rsi
	movq	%r14, %rdx
	callq	__ZN4core3fmt8builders9DebugList5entry17h5c0dec54538196dfE
	leaq	13(%rbx), %rax
	movq	%rax, -40(%rbp)
	movq	%r12, %rdi
	movq	%r15, %rsi
	movq	%r14, %rdx
	callq	__ZN4core3fmt8builders9DebugList5entry17h5c0dec54538196dfE
	leaq	14(%rbx), %rax
	movq	%rax, -40(%rbp)
	movq	%r12, %rdi
	movq	%r15, %rsi
	movq	%r14, %rdx
	callq	__ZN4core3fmt8builders9DebugList5entry17h5c0dec54538196dfE
	addq	$15, %rbx
	movq	%rbx, -40(%rbp)
	movq	%r12, %rdi
	movq	%r15, %rsi
	movq	%r14, %rdx
	callq	__ZN4core3fmt8builders9DebugList5entry17h5c0dec54538196dfE
	movq	%r12, %rdi
	callq	__ZN4core3fmt8builders9DebugList6finish17h3635bd6af9b1c5a6E
	addq	$32, %rsp
	popq	%rbx
	popq	%r12
	popq	%r14
	popq	%r15
	popq	%rbp
	retq
	.cfi_endproc

	.p2align	4, 0x90
__ZN42_$LT$$RF$T$u20$as$u20$core..fmt..Debug$GT$3fmt17h7b53a9f2ab316aecE:
	.cfi_startproc
	pushq	%rbp
	.cfi_def_cfa_offset 16
	.cfi_offset %rbp, -16
	movq	%rsp, %rbp
	.cfi_def_cfa_register %rbp
	pushq	%r14
	pushq	%rbx
	subq	$32, %rsp
	.cfi_offset %rbx, -32
	.cfi_offset %r14, -24
	movq	(%rdi), %rbx
	leaq	l___unnamed_174(%rip), %rdx
	leaq	-40(%rbp), %r14
	movl	$9, %ecx
	movq	%r14, %rdi
	callq	__ZN4core3fmt9Formatter12debug_struct17h985c0158d1fc7193E
	movq	%rbx, -24(%rbp)
	addq	$8, %rbx
	leaq	L___unnamed_20(%rip), %rsi
	leaq	l___unnamed_21(%rip), %r8
	leaq	-24(%rbp), %rcx
	movl	$4, %edx
	movq	%r14, %rdi
	callq	__ZN4core3fmt8builders11DebugStruct5field17h9c15dc155278eed2E
	movq	%rbx, -24(%rbp)
	leaq	l___unnamed_175(%rip), %rsi
	leaq	l___unnamed_176(%rip), %r8
	leaq	-24(%rbp), %rcx
	movl	$7, %edx
	movq	%r14, %rdi
	callq	__ZN4core3fmt8builders11DebugStruct5field17h9c15dc155278eed2E
	movq	%r14, %rdi
	callq	__ZN4core3fmt8builders11DebugStruct6finish17h26808393f3fed630E
	addq	$32, %rsp
	popq	%rbx
	popq	%r14
	popq	%rbp
	retq
	.cfi_endproc

	.p2align	4, 0x90
__ZN42_$LT$$RF$T$u20$as$u20$core..fmt..Debug$GT$3fmt17h7eca7f6b4162ea09E:
	.cfi_startproc
	pushq	%rbp
	.cfi_def_cfa_offset 16
	.cfi_offset %rbp, -16
	movq	%rsp, %rbp
	.cfi_def_cfa_register %rbp
	pushq	%r14
	pushq	%rbx
	subq	$32, %rsp
	.cfi_offset %rbx, -32
	.cfi_offset %r14, -24
	movq	(%rdi), %rbx
	leaq	l___unnamed_82(%rip), %rdx
	leaq	-40(%rbp), %r14
	movl	$10, %ecx
	movq	%r14, %rdi
	callq	__ZN4core3fmt9Formatter12debug_struct17h985c0158d1fc7193E
	movq	%rbx, -24(%rbp)
	addq	$8, %rbx
	leaq	L___unnamed_20(%rip), %rsi
	leaq	l___unnamed_177(%rip), %r8
	leaq	-24(%rbp), %rcx
	movl	$4, %edx
	movq	%r14, %rdi
	callq	__ZN4core3fmt8builders11DebugStruct5field17h9c15dc155278eed2E
	movq	%rbx, -24(%rbp)
	leaq	l___unnamed_65(%rip), %rsi
	leaq	l___unnamed_178(%rip), %r8
	leaq	-24(%rbp), %rcx
	movl	$7, %edx
	movq	%r14, %rdi
	callq	__ZN4core3fmt8builders11DebugStruct5field17h9c15dc155278eed2E
	movq	%r14, %rdi
	callq	__ZN4core3fmt8builders11DebugStruct6finish17h26808393f3fed630E
	addq	$32, %rsp
	popq	%rbx
	popq	%r14
	popq	%rbp
	retq
	.cfi_endproc

	.p2align	4, 0x90
__ZN42_$LT$$RF$T$u20$as$u20$core..fmt..Debug$GT$3fmt17h7ee0dde2468991ecE:
	.cfi_startproc
	pushq	%rbp
	.cfi_def_cfa_offset 16
	.cfi_offset %rbp, -16
	movq	%rsp, %rbp
	.cfi_def_cfa_register %rbp
	pushq	%r15
	pushq	%r14
	pushq	%r13
	pushq	%r12
	pushq	%rbx
	subq	$24, %rsp
	.cfi_offset %rbx, -56
	.cfi_offset %r12, -48
	.cfi_offset %r13, -40
	.cfi_offset %r14, -32
	.cfi_offset %r15, -24
	movq	(%rdi), %rbx
	movq	8(%rdi), %r13
	leaq	-64(%rbp), %rdi
	callq	__ZN4core3fmt9Formatter10debug_list17hd054f0986422feb9E
	testq	%r13, %r13
	je	LBB90_3
	shlq	$6, %r13
	leaq	l___unnamed_79(%rip), %r14
	leaq	-64(%rbp), %r15
	leaq	-48(%rbp), %r12
	.p2align	4, 0x90
LBB90_2:
	movq	%rbx, -48(%rbp)
	addq	$64, %rbx
	movq	%r15, %rdi
	movq	%r12, %rsi
	movq	%r14, %rdx
	callq	__ZN4core3fmt8builders9DebugList5entry17h5c0dec54538196dfE
	addq	$-64, %r13
	jne	LBB90_2
LBB90_3:
	leaq	-64(%rbp), %rdi
	callq	__ZN4core3fmt8builders9DebugList6finish17h3635bd6af9b1c5a6E
	addq	$24, %rsp
	popq	%rbx
	popq	%r12
	popq	%r13
	popq	%r14
	popq	%r15
	popq	%rbp
	retq
	.cfi_endproc

	.p2align	4, 0x90
__ZN42_$LT$$RF$T$u20$as$u20$core..fmt..Debug$GT$3fmt17h8079350cd6683960E:
	.cfi_startproc
	pushq	%rbp
	.cfi_def_cfa_offset 16
	.cfi_offset %rbp, -16
	movq	%rsp, %rbp
	.cfi_def_cfa_register %rbp
	pushq	%r14
	pushq	%rbx
	subq	$32, %rsp
	.cfi_offset %rbx, -32
	.cfi_offset %r14, -24
	movq	(%rdi), %rbx
	leaq	l___unnamed_99(%rip), %rdx
	leaq	-40(%rbp), %r14
	movl	$12, %ecx
	movq	%r14, %rdi
	callq	__ZN4core3fmt9Formatter12debug_struct17h985c0158d1fc7193E
	movq	%rbx, -24(%rbp)
	leaq	L___unnamed_12(%rip), %rsi
	leaq	l___unnamed_179(%rip), %r8
	leaq	-24(%rbp), %rcx
	movl	$8, %edx
	movq	%r14, %rdi
	callq	__ZN4core3fmt8builders11DebugStruct5field17h9c15dc155278eed2E
	movq	%r14, %rdi
	callq	__ZN4core3fmt8builders11DebugStruct6finish17h26808393f3fed630E
	addq	$32, %rsp
	popq	%rbx
	popq	%r14
	popq	%rbp
	retq
	.cfi_endproc

	.p2align	4, 0x90
__ZN42_$LT$$RF$T$u20$as$u20$core..fmt..Debug$GT$3fmt17h823a8cb5921f01a4E:
	.cfi_startproc
	pushq	%rbp
	.cfi_def_cfa_offset 16
	.cfi_offset %rbp, -16
	movq	%rsp, %rbp
	.cfi_def_cfa_register %rbp
	pushq	%r14
	pushq	%rbx
	subq	$32, %rsp
	.cfi_offset %rbx, -32
	.cfi_offset %r14, -24
	movq	(%rdi), %rbx
	leaq	l___unnamed_117(%rip), %rdx
	leaq	-40(%rbp), %r14
	movl	$9, %ecx
	movq	%r14, %rdi
	callq	__ZN4core3fmt9Formatter12debug_struct17h985c0158d1fc7193E
	movq	%rbx, -24(%rbp)
	addq	$16, %rbx
	leaq	L___unnamed_22(%rip), %rsi
	leaq	l___unnamed_180(%rip), %r8
	leaq	-24(%rbp), %rcx
	movl	$4, %edx
	movq	%r14, %rdi
	callq	__ZN4core3fmt8builders11DebugStruct5field17h9c15dc155278eed2E
	movq	%rbx, -24(%rbp)
	leaq	l___unnamed_119(%rip), %rsi
	leaq	l___unnamed_42(%rip), %r8
	leaq	-24(%rbp), %rcx
	movl	$5, %edx
	movq	%r14, %rdi
	callq	__ZN4core3fmt8builders11DebugStruct5field17h9c15dc155278eed2E
	movq	%r14, %rdi
	callq	__ZN4core3fmt8builders11DebugStruct6finish17h26808393f3fed630E
	addq	$32, %rsp
	popq	%rbx
	popq	%r14
	popq	%rbp
	retq
	.cfi_endproc

	.p2align	4, 0x90
__ZN42_$LT$$RF$T$u20$as$u20$core..fmt..Debug$GT$3fmt17h8265201b5cdbee12E:
	.cfi_startproc
	pushq	%rbp
	.cfi_def_cfa_offset 16
	.cfi_offset %rbp, -16
	movq	%rsp, %rbp
	.cfi_def_cfa_register %rbp
	pushq	%rbx
	subq	$24, %rsp
	.cfi_offset %rbx, -24
	leaq	l___unnamed_181(%rip), %rdx
	leaq	-24(%rbp), %rbx
	movl	$22, %ecx
	movq	%rbx, %rdi
	callq	__ZN4core3fmt9Formatter12debug_struct17h985c0158d1fc7193E
	movq	%rbx, %rdi
	callq	__ZN4core3fmt8builders11DebugStruct6finish17h26808393f3fed630E
	addq	$24, %rsp
	popq	%rbx
	popq	%rbp
	retq
	.cfi_endproc

	.p2align	4, 0x90
__ZN42_$LT$$RF$T$u20$as$u20$core..fmt..Debug$GT$3fmt17h845131184f8f9d69E:
	.cfi_startproc
	pushq	%rbp
	.cfi_def_cfa_offset 16
	.cfi_offset %rbp, -16
	movq	%rsp, %rbp
	.cfi_def_cfa_register %rbp
	pushq	%r15
	pushq	%r14
	pushq	%r13
	pushq	%r12
	pushq	%rbx
	subq	$24, %rsp
	.cfi_offset %rbx, -56
	.cfi_offset %r12, -48
	.cfi_offset %r13, -40
	.cfi_offset %r14, -32
	.cfi_offset %r15, -24
	movq	(%rdi), %rax
	movq	(%rax), %r13
	movq	8(%rax), %rbx
	leaq	-64(%rbp), %rdi
	callq	__ZN4core3fmt9Formatter10debug_list17hd054f0986422feb9E
	testq	%rbx, %rbx
	je	LBB94_3
	imulq	$56, %rbx, %rbx
	leaq	l___unnamed_146(%rip), %r14
	leaq	-64(%rbp), %r15
	leaq	-48(%rbp), %r12
	.p2align	4, 0x90
LBB94_2:
	movq	%r13, -48(%rbp)
	addq	$56, %r13
	movq	%r15, %rdi
	movq	%r12, %rsi
	movq	%r14, %rdx
	callq	__ZN4core3fmt8builders9DebugList5entry17h5c0dec54538196dfE
	addq	$-56, %rbx
	jne	LBB94_2
LBB94_3:
	leaq	-64(%rbp), %rdi
	callq	__ZN4core3fmt8builders9DebugList6finish17h3635bd6af9b1c5a6E
	addq	$24, %rsp
	popq	%rbx
	popq	%r12
	popq	%r13
	popq	%r14
	popq	%r15
	popq	%rbp
	retq
	.cfi_endproc

	.p2align	4, 0x90
__ZN42_$LT$$RF$T$u20$as$u20$core..fmt..Debug$GT$3fmt17h8524f4b64b45b87eE:
	.cfi_startproc
	pushq	%rbp
	.cfi_def_cfa_offset 16
	.cfi_offset %rbp, -16
	movq	%rsp, %rbp
	.cfi_def_cfa_register %rbp
	movq	(%rdi), %rdi
	popq	%rbp
	jmp	__ZN42_$LT$$RF$T$u20$as$u20$core..fmt..Debug$GT$3fmt17h7874e5972bb011ecE
	.cfi_endproc

	.p2align	4, 0x90
__ZN42_$LT$$RF$T$u20$as$u20$core..fmt..Debug$GT$3fmt17h85b79613f78056c4E:
	.cfi_startproc
	pushq	%rbp
	.cfi_def_cfa_offset 16
	.cfi_offset %rbp, -16
	movq	%rsp, %rbp
	.cfi_def_cfa_register %rbp
	movq	(%rdi), %rax
	movq	(%rax), %rdi
	popq	%rbp
	jmp	__ZN67_$LT$object..pe..ImageSectionHeader$u20$as$u20$core..fmt..Debug$GT$3fmt17h14b80f75e5c76365E
	.cfi_endproc

	.p2align	4, 0x90
__ZN42_$LT$$RF$T$u20$as$u20$core..fmt..Debug$GT$3fmt17h862df5e05c807692E:
	.cfi_startproc
	pushq	%rbp
	.cfi_def_cfa_offset 16
	.cfi_offset %rbp, -16
	movq	%rsp, %rbp
	.cfi_def_cfa_register %rbp
	pushq	%r15
	pushq	%r14
	pushq	%r13
	pushq	%r12
	pushq	%rbx
	subq	$24, %rsp
	.cfi_offset %rbx, -56
	.cfi_offset %r12, -48
	.cfi_offset %r13, -40
	.cfi_offset %r14, -32
	.cfi_offset %r15, -24
	movq	(%rdi), %rbx
	leaq	l___unnamed_182(%rip), %rdx
	leaq	-64(%rbp), %r12
	movl	$28, %ecx
	movq	%r12, %rdi
	callq	__ZN4core3fmt9Formatter12debug_struct17h985c0158d1fc7193E
	movq	%rbx, -48(%rbp)
	leaq	2(%rbx), %r13
	leaq	4(%rbx), %r15
	addq	$8, %rbx
	leaq	l___unnamed_38(%rip), %rsi
	leaq	l___unnamed_147(%rip), %r14
	leaq	-48(%rbp), %rcx
	movl	$5, %edx
	movq	%r12, %rdi
	movq	%r14, %r8
	callq	__ZN4core3fmt8builders11DebugStruct5field17h9c15dc155278eed2E
	movq	%r13, -48(%rbp)
	leaq	l___unnamed_183(%rip), %rsi
	leaq	-48(%rbp), %rcx
	movl	$7, %edx
	movq	%r12, %rdi
	movq	%r14, %r8
	callq	__ZN4core3fmt8builders11DebugStruct5field17h9c15dc155278eed2E
	movq	%r15, -48(%rbp)
	leaq	l___unnamed_184(%rip), %rsi
	leaq	l___unnamed_43(%rip), %r14
	leaq	-48(%rbp), %rcx
	movl	$14, %edx
	movq	%r12, %rdi
	movq	%r14, %r8
	callq	__ZN4core3fmt8builders11DebugStruct5field17h9c15dc155278eed2E
	movq	%rbx, -48(%rbp)
	leaq	L___unnamed_39(%rip), %rsi
	leaq	-48(%rbp), %rcx
	movl	$8, %edx
	movq	%r12, %rdi
	movq	%r14, %r8
	callq	__ZN4core3fmt8builders11DebugStruct5field17h9c15dc155278eed2E
	movq	%r12, %rdi
	callq	__ZN4core3fmt8builders11DebugStruct6finish17h26808393f3fed630E
	addq	$24, %rsp
	popq	%rbx
	popq	%r12
	popq	%r13
	popq	%r14
	popq	%r15
	popq	%rbp
	retq
	.cfi_endproc

	.p2align	4, 0x90
__ZN42_$LT$$RF$T$u20$as$u20$core..fmt..Debug$GT$3fmt17h8717786822219e29E:
	.cfi_startproc
	pushq	%rbp
	.cfi_def_cfa_offset 16
	.cfi_offset %rbp, -16
	movq	%rsp, %rbp
	.cfi_def_cfa_register %rbp
	pushq	%rbx
	subq	$24, %rsp
	.cfi_offset %rbx, -24
	movq	(%rdi), %rax
	movzbl	(%rax), %eax
	leaq	-32(%rbp), %rbx
	testq	%rax, %rax
	je	LBB98_4
	cmpq	$1, %rax
	je	LBB98_5
	leaq	L___unnamed_185(%rip), %rdx
	movl	$4, %ecx
	jmp	LBB98_6
LBB98_4:
	leaq	L___unnamed_28(%rip), %rdx
	movl	$4, %ecx
	jmp	LBB98_6
LBB98_5:
	leaq	l___unnamed_186(%rip), %rdx
	movl	$7, %ecx
LBB98_6:
	movq	%rbx, %rdi
	callq	__ZN4core3fmt9Formatter11debug_tuple17h15ca25ad759edd1cE
	movq	%rbx, %rdi
	callq	__ZN4core3fmt8builders10DebugTuple6finish17h68acf09c6f6593f2E
	addq	$24, %rsp
	popq	%rbx
	popq	%rbp
	retq
	.cfi_endproc

	.p2align	4, 0x90
__ZN42_$LT$$RF$T$u20$as$u20$core..fmt..Debug$GT$3fmt17h8aaf03e37b31c110E:
	.cfi_startproc
	pushq	%rbp
	.cfi_def_cfa_offset 16
	.cfi_offset %rbp, -16
	movq	%rsp, %rbp
	.cfi_def_cfa_register %rbp
	pushq	%r15
	pushq	%r14
	pushq	%r12
	pushq	%rbx
	subq	$32, %rsp
	.cfi_offset %rbx, -48
	.cfi_offset %r12, -40
	.cfi_offset %r14, -32
	.cfi_offset %r15, -24
	movq	(%rdi), %rbx
	leaq	-56(%rbp), %r12
	movq	%r12, %rdi
	callq	__ZN4core3fmt9Formatter10debug_list17hd054f0986422feb9E
	movq	%rbx, -40(%rbp)
	addq	$4, %rbx
	leaq	l___unnamed_43(%rip), %r14
	leaq	-40(%rbp), %r15
	movq	%r12, %rdi
	movq	%r15, %rsi
	movq	%r14, %rdx
	callq	__ZN4core3fmt8builders9DebugList5entry17h5c0dec54538196dfE
	movq	%rbx, -40(%rbp)
	movq	%r12, %rdi
	movq	%r15, %rsi
	movq	%r14, %rdx
	callq	__ZN4core3fmt8builders9DebugList5entry17h5c0dec54538196dfE
	movq	%r12, %rdi
	callq	__ZN4core3fmt8builders9DebugList6finish17h3635bd6af9b1c5a6E
	addq	$32, %rsp
	popq	%rbx
	popq	%r12
	popq	%r14
	popq	%r15
	popq	%rbp
	retq
	.cfi_endproc

	.p2align	4, 0x90
__ZN42_$LT$$RF$T$u20$as$u20$core..fmt..Debug$GT$3fmt17h8f56076367916ccbE:
	.cfi_startproc
	pushq	%rbp
	.cfi_def_cfa_offset 16
	.cfi_offset %rbp, -16
	movq	%rsp, %rbp
	.cfi_def_cfa_register %rbp
	pushq	%r14
	pushq	%rbx
	subq	$48, %rsp
	.cfi_offset %rbx, -32
	.cfi_offset %r14, -24
	movq	(%rdi), %rbx
	leaq	L___unnamed_95(%rip), %rdx
	leaq	-56(%rbp), %r14
	movl	$4, %ecx
	movq	%r14, %rdi
	callq	__ZN4core3fmt9Formatter11debug_tuple17h15ca25ad759edd1cE
	movq	(%rbx), %rcx
	movq	8(%rbx), %rax
	subq	%rcx, %rax
	movabsq	$-3689348814741910323, %rdx
	mulq	%rdx
	shrq	$5, %rdx
	movq	%rcx, -32(%rbp)
	movq	%rdx, -24(%rbp)
	leaq	l___unnamed_187(%rip), %rdx
	leaq	-32(%rbp), %rsi
	movq	%r14, %rdi
	callq	__ZN4core3fmt8builders10DebugTuple5field17hf36121153a94f236E
	movq	%rax, %rdi
	callq	__ZN4core3fmt8builders10DebugTuple6finish17h68acf09c6f6593f2E
	addq	$48, %rsp
	popq	%rbx
	popq	%r14
	popq	%rbp
	retq
	.cfi_endproc

	.p2align	4, 0x90
__ZN42_$LT$$RF$T$u20$as$u20$core..fmt..Debug$GT$3fmt17h8f9cbf9216e66e93E:
	.cfi_startproc
	pushq	%rbp
	.cfi_def_cfa_offset 16
	.cfi_offset %rbp, -16
	movq	%rsp, %rbp
	.cfi_def_cfa_register %rbp
	movq	(%rdi), %rdi
	popq	%rbp
	jmp	__ZN67_$LT$object..pe..ImageSectionHeader$u20$as$u20$core..fmt..Debug$GT$3fmt17h14b80f75e5c76365E
	.cfi_endproc

	.p2align	4, 0x90
__ZN42_$LT$$RF$T$u20$as$u20$core..fmt..Debug$GT$3fmt17h9250c49d63fa545aE:
	.cfi_startproc
	pushq	%rbp
	.cfi_def_cfa_offset 16
	.cfi_offset %rbp, -16
	movq	%rsp, %rbp
	.cfi_def_cfa_register %rbp
	pushq	%r15
	pushq	%r14
	pushq	%r13
	pushq	%r12
	pushq	%rbx
	subq	$24, %rsp
	.cfi_offset %rbx, -56
	.cfi_offset %r12, -48
	.cfi_offset %r13, -40
	.cfi_offset %r14, -32
	.cfi_offset %r15, -24
	movq	(%rdi), %rax
	movq	(%rax), %rbx
	movq	8(%rax), %r13
	leaq	-64(%rbp), %rdi
	callq	__ZN4core3fmt9Formatter10debug_list17hd054f0986422feb9E
	testq	%r13, %r13
	je	LBB102_3
	shlq	$2, %r13
	leaq	l___unnamed_188(%rip), %r14
	leaq	-64(%rbp), %r15
	leaq	-48(%rbp), %r12
	.p2align	4, 0x90
LBB102_2:
	movq	%rbx, -48(%rbp)
	movq	%r15, %rdi
	movq	%r12, %rsi
	movq	%r14, %rdx
	callq	__ZN4core3fmt8builders9DebugList5entry17h5c0dec54538196dfE
	addq	$4, %rbx
	addq	$-4, %r13
	jne	LBB102_2
LBB102_3:
	leaq	-64(%rbp), %rdi
	callq	__ZN4core3fmt8builders9DebugList6finish17h3635bd6af9b1c5a6E
	addq	$24, %rsp
	popq	%rbx
	popq	%r12
	popq	%r13
	popq	%r14
	popq	%r15
	popq	%rbp
	retq
	.cfi_endproc

	.p2align	4, 0x90
__ZN42_$LT$$RF$T$u20$as$u20$core..fmt..Debug$GT$3fmt17h97b2d429f6098d50E:
	.cfi_startproc
	pushq	%rbp
	.cfi_def_cfa_offset 16
	.cfi_offset %rbp, -16
	movq	%rsp, %rbp
	.cfi_def_cfa_register %rbp
	pushq	%r14
	pushq	%rbx
	.cfi_offset %rbx, -32
	.cfi_offset %r14, -24
	movq	%rsi, %rbx
	movq	(%rdi), %r14
	movq	%rsi, %rdi
	callq	__ZN4core3fmt9Formatter15debug_lower_hex17h8530fbaeba13f4d9E
	testb	%al, %al
	je	LBB103_1
	movq	%r14, %rdi
	movq	%rbx, %rsi
	popq	%rbx
	popq	%r14
	popq	%rbp
	jmp	__ZN4core3fmt3num53_$LT$impl$u20$core..fmt..LowerHex$u20$for$u20$u64$GT$3fmt17h45355469eb7ddf8bE
LBB103_1:
	movq	%rbx, %rdi
	callq	__ZN4core3fmt9Formatter15debug_upper_hex17hf8fda15ec43a1e68E
	movq	%r14, %rdi
	movq	%rbx, %rsi
	testb	%al, %al
	je	LBB103_4
	popq	%rbx
	popq	%r14
	popq	%rbp
	jmp	__ZN4core3fmt3num53_$LT$impl$u20$core..fmt..UpperHex$u20$for$u20$u64$GT$3fmt17ha26765e3e26c1816E
LBB103_4:
	popq	%rbx
	popq	%r14
	popq	%rbp
	jmp	__ZN4core3fmt3num3imp52_$LT$impl$u20$core..fmt..Display$u20$for$u20$u64$GT$3fmt17hb00db9d5e1e54df6E
	.cfi_endproc

	.p2align	4, 0x90
__ZN42_$LT$$RF$T$u20$as$u20$core..fmt..Debug$GT$3fmt17h97c1e2f1e5b59c00E:
	.cfi_startproc
	pushq	%rbp
	.cfi_def_cfa_offset 16
	.cfi_offset %rbp, -16
	movq	%rsp, %rbp
	.cfi_def_cfa_register %rbp
	pushq	%r15
	pushq	%r14
	pushq	%r13
	pushq	%r12
	pushq	%rbx
	subq	$24, %rsp
	.cfi_offset %rbx, -56
	.cfi_offset %r12, -48
	.cfi_offset %r13, -40
	.cfi_offset %r14, -32
	.cfi_offset %r15, -24
	movq	(%rdi), %rbx
	leaq	l___unnamed_67(%rip), %rdx
	leaq	-64(%rbp), %r15
	movl	$11, %ecx
	movq	%r15, %rdi
	callq	__ZN4core3fmt9Formatter12debug_struct17h985c0158d1fc7193E
	movq	%rbx, -48(%rbp)
	leaq	8(%rbx), %r12
	leaq	24(%rbx), %r13
	leaq	40(%rbx), %r14
	leaq	l___unnamed_175(%rip), %rsi
	leaq	l___unnamed_42(%rip), %r8
	leaq	-48(%rbp), %rcx
	movl	$7, %edx
	movq	%r15, %rdi
	callq	__ZN4core3fmt8builders11DebugStruct5field17h9c15dc155278eed2E
	movq	%r12, -48(%rbp)
	leaq	l___unnamed_16(%rip), %rsi
	leaq	l___unnamed_189(%rip), %r8
	leaq	-48(%rbp), %rcx
	movl	$7, %edx
	movq	%r15, %rdi
	callq	__ZN4core3fmt8builders11DebugStruct5field17h9c15dc155278eed2E
	movq	%r13, -48(%rbp)
	leaq	l___unnamed_69(%rip), %rsi
	leaq	l___unnamed_70(%rip), %r8
	leaq	-48(%rbp), %rcx
	movl	$7, %edx
	movq	%r15, %rdi
	callq	__ZN4core3fmt8builders11DebugStruct5field17h9c15dc155278eed2E
	movq	%r14, -48(%rbp)
	leaq	l___unnamed_190(%rip), %rsi
	leaq	l___unnamed_191(%rip), %r8
	leaq	-48(%rbp), %rcx
	movl	$5, %edx
	movq	%r15, %rdi
	callq	__ZN4core3fmt8builders11DebugStruct5field17h9c15dc155278eed2E
	movq	%r15, %rdi
	callq	__ZN4core3fmt8builders11DebugStruct6finish17h26808393f3fed630E
	addq	$24, %rsp
	popq	%rbx
	popq	%r12
	popq	%r13
	popq	%r14
	popq	%r15
	popq	%rbp
	retq
	.cfi_endproc

	.p2align	4, 0x90
__ZN42_$LT$$RF$T$u20$as$u20$core..fmt..Debug$GT$3fmt17h97cab08e3753d316E:
	.cfi_startproc
	pushq	%rbp
	.cfi_def_cfa_offset 16
	.cfi_offset %rbp, -16
	movq	%rsp, %rbp
	.cfi_def_cfa_register %rbp
	pushq	%r15
	pushq	%r14
	pushq	%r13
	pushq	%r12
	pushq	%rbx
	subq	$24, %rsp
	.cfi_offset %rbx, -56
	.cfi_offset %r12, -48
	.cfi_offset %r13, -40
	.cfi_offset %r14, -32
	.cfi_offset %r15, -24
	movq	(%rdi), %rbx
	leaq	L___unnamed_192(%rip), %rdx
	leaq	-64(%rbp), %r12
	movl	$4, %ecx
	movq	%r12, %rdi
	callq	__ZN4core3fmt9Formatter12debug_struct17h985c0158d1fc7193E
	movq	%rbx, -48(%rbp)
	leaq	4(%rbx), %r14
	leaq	6(%rbx), %r13
	leaq	8(%rbx), %r15
	leaq	l___unnamed_193(%rip), %rsi
	leaq	l___unnamed_43(%rip), %r8
	leaq	-48(%rbp), %rcx
	movl	$5, %edx
	movq	%r12, %rdi
	callq	__ZN4core3fmt8builders11DebugStruct5field17h9c15dc155278eed2E
	movq	%r14, -48(%rbp)
	leaq	l___unnamed_194(%rip), %rsi
	leaq	l___unnamed_147(%rip), %r14
	leaq	-48(%rbp), %rcx
	movl	$5, %edx
	movq	%r12, %rdi
	movq	%r14, %r8
	callq	__ZN4core3fmt8builders11DebugStruct5field17h9c15dc155278eed2E
	movq	%r13, -48(%rbp)
	leaq	l___unnamed_195(%rip), %rsi
	leaq	-48(%rbp), %rcx
	movl	$5, %edx
	movq	%r12, %rdi
	movq	%r14, %r8
	callq	__ZN4core3fmt8builders11DebugStruct5field17h9c15dc155278eed2E
	movq	%r15, -48(%rbp)
	leaq	l___unnamed_196(%rip), %rsi
	leaq	l___unnamed_197(%rip), %r8
	leaq	-48(%rbp), %rcx
	movl	$5, %edx
	movq	%r12, %rdi
	callq	__ZN4core3fmt8builders11DebugStruct5field17h9c15dc155278eed2E
	movq	%r12, %rdi
	callq	__ZN4core3fmt8builders11DebugStruct6finish17h26808393f3fed630E
	addq	$24, %rsp
	popq	%rbx
	popq	%r12
	popq	%r13
	popq	%r14
	popq	%r15
	popq	%rbp
	retq
	.cfi_endproc

	.p2align	4, 0x90
__ZN42_$LT$$RF$T$u20$as$u20$core..fmt..Debug$GT$3fmt17h9a3371986a919c39E:
	.cfi_startproc
	pushq	%rbp
	.cfi_def_cfa_offset 16
	.cfi_offset %rbp, -16
	movq	%rsp, %rbp
	.cfi_def_cfa_register %rbp
	pushq	%r15
	pushq	%r14
	pushq	%rbx
	subq	$24, %rsp
	.cfi_offset %rbx, -40
	.cfi_offset %r14, -32
	.cfi_offset %r15, -24
	movq	(%rdi), %rbx
	leaq	l___unnamed_198(%rip), %rdx
	leaq	-48(%rbp), %r14
	movl	$20, %ecx
	movq	%r14, %rdi
	callq	__ZN4core3fmt9Formatter12debug_struct17h985c0158d1fc7193E
	movq	%rbx, -32(%rbp)
	leaq	16(%rbx), %r15
	addq	$8, %rbx
	leaq	l___unnamed_199(%rip), %rsi
	leaq	l___unnamed_168(%rip), %r8
	leaq	-32(%rbp), %rcx
	movl	$5, %edx
	movq	%r14, %rdi
	callq	__ZN4core3fmt8builders11DebugStruct5field17h9c15dc155278eed2E
	movq	%r15, -32(%rbp)
	leaq	L___unnamed_200(%rip), %rsi
	leaq	l___unnamed_201(%rip), %r8
	leaq	-32(%rbp), %rcx
	movl	$4, %edx
	movq	%r14, %rdi
	callq	__ZN4core3fmt8builders11DebugStruct5field17h9c15dc155278eed2E
	movq	%rbx, -32(%rbp)
	leaq	l___unnamed_175(%rip), %rsi
	leaq	l___unnamed_202(%rip), %r8
	leaq	-32(%rbp), %rcx
	movl	$7, %edx
	movq	%r14, %rdi
	callq	__ZN4core3fmt8builders11DebugStruct5field17h9c15dc155278eed2E
	movq	%r14, %rdi
	callq	__ZN4core3fmt8builders11DebugStruct6finish17h26808393f3fed630E
	addq	$24, %rsp
	popq	%rbx
	popq	%r14
	popq	%r15
	popq	%rbp
	retq
	.cfi_endproc

	.p2align	4, 0x90
__ZN42_$LT$$RF$T$u20$as$u20$core..fmt..Debug$GT$3fmt17h9ece520df9a13c02E:
	.cfi_startproc
	pushq	%rbp
	.cfi_def_cfa_offset 16
	.cfi_offset %rbp, -16
	movq	%rsp, %rbp
	.cfi_def_cfa_register %rbp
	pushq	%r14
	pushq	%rbx
	subq	$32, %rsp
	.cfi_offset %rbx, -32
	.cfi_offset %r14, -24
	movq	(%rdi), %rbx
	leaq	l___unnamed_203(%rip), %rdx
	leaq	-40(%rbp), %r14
	movl	$18, %ecx
	movq	%r14, %rdi
	callq	__ZN4core3fmt9Formatter12debug_struct17h985c0158d1fc7193E
	movq	%rbx, -24(%rbp)
	addq	$8, %rbx
	leaq	L___unnamed_20(%rip), %rsi
	leaq	l___unnamed_177(%rip), %r8
	leaq	-24(%rbp), %rcx
	movl	$4, %edx
	movq	%r14, %rdi
	callq	__ZN4core3fmt8builders11DebugStruct5field17h9c15dc155278eed2E
	movq	%rbx, -24(%rbp)
	leaq	L___unnamed_22(%rip), %rsi
	leaq	l___unnamed_204(%rip), %r8
	leaq	-24(%rbp), %rcx
	movl	$4, %edx
	movq	%r14, %rdi
	callq	__ZN4core3fmt8builders11DebugStruct5field17h9c15dc155278eed2E
	movq	%r14, %rdi
	callq	__ZN4core3fmt8builders11DebugStruct6finish17h26808393f3fed630E
	addq	$32, %rsp
	popq	%rbx
	popq	%r14
	popq	%rbp
	retq
	.cfi_endproc

	.p2align	4, 0x90
__ZN42_$LT$$RF$T$u20$as$u20$core..fmt..Debug$GT$3fmt17h9fc9c532ab2f55aeE:
	.cfi_startproc
	pushq	%rbp
	.cfi_def_cfa_offset 16
	.cfi_offset %rbp, -16
	movq	%rsp, %rbp
	.cfi_def_cfa_register %rbp
	pushq	%r15
	pushq	%r14
	pushq	%rbx
	subq	$24, %rsp
	.cfi_offset %rbx, -40
	.cfi_offset %r14, -32
	.cfi_offset %r15, -24
	movq	(%rdi), %rax
	movq	(%rax), %rbx
	leaq	L___unnamed_205(%rip), %rdx
	leaq	-48(%rbp), %r14
	movl	$16, %ecx
	movq	%r14, %rdi
	callq	__ZN4core3fmt9Formatter12debug_struct17h985c0158d1fc7193E
	movq	%rbx, -32(%rbp)
	leaq	4(%rbx), %r15
	addq	$24, %rbx
	leaq	l___unnamed_86(%rip), %rsi
	leaq	l___unnamed_43(%rip), %r8
	leaq	-32(%rbp), %rcx
	movl	$9, %edx
	movq	%r14, %rdi
	callq	__ZN4core3fmt8builders11DebugStruct5field17h9c15dc155278eed2E
	movq	%r15, -32(%rbp)
	leaq	l___unnamed_87(%rip), %rsi
	leaq	l___unnamed_88(%rip), %r8
	leaq	-32(%rbp), %rcx
	movl	$11, %edx
	movq	%r14, %rdi
	callq	__ZN4core3fmt8builders11DebugStruct5field17h9c15dc155278eed2E
	movq	%rbx, -32(%rbp)
	leaq	l___unnamed_89(%rip), %rsi
	leaq	l___unnamed_206(%rip), %r8
	leaq	-32(%rbp), %rcx
	movl	$15, %edx
	movq	%r14, %rdi
	callq	__ZN4core3fmt8builders11DebugStruct5field17h9c15dc155278eed2E
	movq	%r14, %rdi
	callq	__ZN4core3fmt8builders11DebugStruct6finish17h26808393f3fed630E
	addq	$24, %rsp
	popq	%rbx
	popq	%r14
	popq	%r15
	popq	%rbp
	retq
	.cfi_endproc

	.p2align	4, 0x90
__ZN42_$LT$$RF$T$u20$as$u20$core..fmt..Debug$GT$3fmt17ha02b2adb227c3a27E:
	.cfi_startproc
	pushq	%rbp
	.cfi_def_cfa_offset 16
	.cfi_offset %rbp, -16
	movq	%rsp, %rbp
	.cfi_def_cfa_register %rbp
	pushq	%r15
	pushq	%r14
	pushq	%r13
	pushq	%r12
	pushq	%rbx
	subq	$72, %rsp
	.cfi_offset %rbx, -56
	.cfi_offset %r12, -48
	.cfi_offset %r13, -40
	.cfi_offset %r14, -32
	.cfi_offset %r15, -24
	movq	(%rdi), %rbx
	leaq	l___unnamed_207(%rip), %rdx
	leaq	-112(%rbp), %r12
	movl	$15, %ecx
	movq	%r12, %rdi
	callq	__ZN4core3fmt9Formatter12debug_struct17h985c0158d1fc7193E
	movq	%rbx, -48(%rbp)
	leaq	4(%rbx), %r13
	leaq	8(%rbx), %r15
	leaq	12(%rbx), %rax
	movq	%rax, -56(%rbp)
	leaq	16(%rbx), %rax
	movq	%rax, -64(%rbp)
	leaq	20(%rbx), %rax
	movq	%rax, -72(%rbp)
	leaq	24(%rbx), %rax
	movq	%rax, -80(%rbp)
	leaq	28(%rbx), %rax
	movq	%rax, -88(%rbp)
	leaq	32(%rbx), %rax
	movq	%rax, -96(%rbp)
	leaq	36(%rbx), %rbx
	leaq	l___unnamed_136(%rip), %rsi
	leaq	l___unnamed_33(%rip), %r14
	leaq	-48(%rbp), %rcx
	movl	$7, %edx
	movq	%r12, %rdi
	movq	%r14, %r8
	callq	__ZN4core3fmt8builders11DebugStruct5field17h9c15dc155278eed2E
	movq	%r13, -48(%rbp)
	leaq	l___unnamed_137(%rip), %rsi
	leaq	-48(%rbp), %rcx
	movl	$7, %edx
	movq	%r12, %rdi
	movq	%r14, %r8
	callq	__ZN4core3fmt8builders11DebugStruct5field17h9c15dc155278eed2E
	movq	%r15, -48(%rbp)
	leaq	L___unnamed_138(%rip), %rsi
	leaq	-48(%rbp), %rcx
	movl	$8, %edx
	movq	%r12, %rdi
	movq	%r14, %r8
	callq	__ZN4core3fmt8builders11DebugStruct5field17h9c15dc155278eed2E
	movq	-56(%rbp), %rax
	movq	%rax, -48(%rbp)
	leaq	l___unnamed_139(%rip), %rsi
	leaq	-48(%rbp), %rcx
	movl	$7, %edx
	movq	%r12, %rdi
	movq	%r14, %r8
	callq	__ZN4core3fmt8builders11DebugStruct5field17h9c15dc155278eed2E
	movq	-64(%rbp), %rax
	movq	%rax, -48(%rbp)
	leaq	l___unnamed_140(%rip), %rsi
	leaq	-48(%rbp), %rcx
	movl	$9, %edx
	movq	%r12, %rdi
	movq	%r14, %r8
	callq	__ZN4core3fmt8builders11DebugStruct5field17h9c15dc155278eed2E
	movq	-72(%rbp), %rax
	movq	%rax, -48(%rbp)
	leaq	l___unnamed_141(%rip), %rsi
	leaq	-48(%rbp), %rcx
	movl	$7, %edx
	movq	%r12, %rdi
	movq	%r14, %r8
	callq	__ZN4core3fmt8builders11DebugStruct5field17h9c15dc155278eed2E
	movq	-80(%rbp), %rax
	movq	%rax, -48(%rbp)
	leaq	l___unnamed_142(%rip), %rsi
	leaq	-48(%rbp), %rcx
	movl	$7, %edx
	movq	%r12, %rdi
	movq	%r14, %r8
	callq	__ZN4core3fmt8builders11DebugStruct5field17h9c15dc155278eed2E
	movq	-88(%rbp), %rax
	movq	%rax, -48(%rbp)
	leaq	l___unnamed_143(%rip), %rsi
	leaq	-48(%rbp), %rcx
	movl	$7, %edx
	movq	%r12, %rdi
	movq	%r14, %r8
	callq	__ZN4core3fmt8builders11DebugStruct5field17h9c15dc155278eed2E
	movq	-96(%rbp), %rax
	movq	%rax, -48(%rbp)
	leaq	l___unnamed_144(%rip), %rsi
	leaq	-48(%rbp), %rcx
	movl	$12, %edx
	movq	%r12, %rdi
	movq	%r14, %r8
	callq	__ZN4core3fmt8builders11DebugStruct5field17h9c15dc155278eed2E
	movq	%rbx, -48(%rbp)
	leaq	l___unnamed_145(%rip), %rsi
	leaq	-48(%rbp), %rcx
	movl	$10, %edx
	movq	%r12, %rdi
	movq	%r14, %r8
	callq	__ZN4core3fmt8builders11DebugStruct5field17h9c15dc155278eed2E
	movq	%r12, %rdi
	callq	__ZN4core3fmt8builders11DebugStruct6finish17h26808393f3fed630E
	addq	$72, %rsp
	popq	%rbx
	popq	%r12
	popq	%r13
	popq	%r14
	popq	%r15
	popq	%rbp
	retq
	.cfi_endproc

	.p2align	4, 0x90
__ZN42_$LT$$RF$T$u20$as$u20$core..fmt..Debug$GT$3fmt17ha0da31dc960a39bbE:
	.cfi_startproc
	pushq	%rbp
	.cfi_def_cfa_offset 16
	.cfi_offset %rbp, -16
	movq	%rsp, %rbp
	.cfi_def_cfa_register %rbp
	pushq	%r15
	pushq	%r14
	pushq	%r13
	pushq	%r12
	pushq	%rbx
	subq	$88, %rsp
	.cfi_offset %rbx, -56
	.cfi_offset %r12, -48
	.cfi_offset %r13, -40
	.cfi_offset %r14, -32
	.cfi_offset %r15, -24
	movq	(%rdi), %rax
	movq	(%rax), %rbx
	leaq	l___unnamed_208(%rip), %rdx
	leaq	-128(%rbp), %r14
	movl	$9, %ecx
	movq	%r14, %rdi
	callq	__ZN4core3fmt9Formatter12debug_struct17h985c0158d1fc7193E
	movq	%rbx, -48(%rbp)
	leaq	16(%rbx), %r15
	leaq	32(%rbx), %r12
	leaq	40(%rbx), %r13
	leaq	48(%rbx), %rax
	movq	%rax, -56(%rbp)
	leaq	52(%rbx), %rax
	movq	%rax, -64(%rbp)
	leaq	56(%rbx), %rax
	movq	%rax, -72(%rbp)
	leaq	60(%rbx), %rax
	movq	%rax, -80(%rbp)
	leaq	64(%rbx), %rax
	movq	%rax, -88(%rbp)
	leaq	68(%rbx), %rax
	movq	%rax, -96(%rbp)
	leaq	72(%rbx), %rax
	movq	%rax, -104(%rbp)
	leaq	76(%rbx), %rax
	movq	%rax, -112(%rbp)
	leaq	L___unnamed_103(%rip), %rsi
	leaq	l___unnamed_104(%rip), %rbx
	leaq	-48(%rbp), %rcx
	movl	$8, %edx
	movq	%r14, %rdi
	movq	%rbx, %r8
	callq	__ZN4core3fmt8builders11DebugStruct5field17h9c15dc155278eed2E
	movq	%r15, -48(%rbp)
	leaq	l___unnamed_105(%rip), %rsi
	leaq	-48(%rbp), %rcx
	movl	$7, %edx
	movq	%r14, %rdi
	movq	%rbx, %r8
	callq	__ZN4core3fmt8builders11DebugStruct5field17h9c15dc155278eed2E
	movq	%r12, -48(%rbp)
	leaq	L___unnamed_106(%rip), %rsi
	leaq	l___unnamed_60(%rip), %rbx
	leaq	-48(%rbp), %rcx
	movl	$4, %edx
	movq	%r14, %rdi
	movq	%rbx, %r8
	callq	__ZN4core3fmt8builders11DebugStruct5field17h9c15dc155278eed2E
	movq	%r13, -48(%rbp)
	leaq	L___unnamed_107(%rip), %rsi
	leaq	-48(%rbp), %rcx
	movl	$4, %edx
	movq	%r14, %rdi
	movq	%rbx, %r8
	callq	__ZN4core3fmt8builders11DebugStruct5field17h9c15dc155278eed2E
	movq	-56(%rbp), %rax
	movq	%rax, -48(%rbp)
	leaq	l___unnamed_108(%rip), %rsi
	leaq	l___unnamed_33(%rip), %rbx
	leaq	-48(%rbp), %rcx
	movl	$6, %edx
	movq	%r14, %rdi
	movq	%rbx, %r8
	callq	__ZN4core3fmt8builders11DebugStruct5field17h9c15dc155278eed2E
	movq	-64(%rbp), %rax
	movq	%rax, -48(%rbp)
	leaq	l___unnamed_109(%rip), %rsi
	leaq	-48(%rbp), %rcx
	movl	$5, %edx
	movq	%r14, %rdi
	movq	%rbx, %r8
	callq	__ZN4core3fmt8builders11DebugStruct5field17h9c15dc155278eed2E
	movq	-72(%rbp), %rax
	movq	%rax, -48(%rbp)
	leaq	l___unnamed_110(%rip), %rsi
	leaq	-48(%rbp), %rcx
	movl	$6, %edx
	movq	%r14, %rdi
	movq	%rbx, %r8
	callq	__ZN4core3fmt8builders11DebugStruct5field17h9c15dc155278eed2E
	movq	-80(%rbp), %rax
	movq	%rax, -48(%rbp)
	leaq	l___unnamed_111(%rip), %rsi
	leaq	-48(%rbp), %rcx
	movl	$6, %edx
	movq	%r14, %rdi
	movq	%rbx, %r8
	callq	__ZN4core3fmt8builders11DebugStruct5field17h9c15dc155278eed2E
	movq	-88(%rbp), %rax
	movq	%rax, -48(%rbp)
	leaq	l___unnamed_38(%rip), %rsi
	leaq	-48(%rbp), %rcx
	movl	$5, %edx
	movq	%r14, %rdi
	movq	%rbx, %r8
	callq	__ZN4core3fmt8builders11DebugStruct5field17h9c15dc155278eed2E
	movq	-96(%rbp), %rax
	movq	%rax, -48(%rbp)
	leaq	l___unnamed_112(%rip), %rsi
	leaq	-48(%rbp), %rcx
	movl	$9, %edx
	movq	%r14, %rdi
	movq	%rbx, %r8
	callq	__ZN4core3fmt8builders11DebugStruct5field17h9c15dc155278eed2E
	movq	-104(%rbp), %rax
	movq	%rax, -48(%rbp)
	leaq	l___unnamed_113(%rip), %rsi
	leaq	-48(%rbp), %rcx
	movl	$9, %edx
	movq	%r14, %rdi
	movq	%rbx, %r8
	callq	__ZN4core3fmt8builders11DebugStruct5field17h9c15dc155278eed2E
	movq	-112(%rbp), %rax
	movq	%rax, -48(%rbp)
	leaq	l___unnamed_209(%rip), %rsi
	leaq	-48(%rbp), %rcx
	movl	$9, %edx
	movq	%r14, %rdi
	movq	%rbx, %r8
	callq	__ZN4core3fmt8builders11DebugStruct5field17h9c15dc155278eed2E
	movq	%r14, %rdi
	callq	__ZN4core3fmt8builders11DebugStruct6finish17h26808393f3fed630E
	addq	$88, %rsp
	popq	%rbx
	popq	%r12
	popq	%r13
	popq	%r14
	popq	%r15
	popq	%rbp
	retq
	.cfi_endproc

	.p2align	4, 0x90
__ZN42_$LT$$RF$T$u20$as$u20$core..fmt..Debug$GT$3fmt17ha10feb0d4c2ed7b4E:
	.cfi_startproc
	pushq	%rbp
	.cfi_def_cfa_offset 16
	.cfi_offset %rbp, -16
	movq	%rsp, %rbp
	.cfi_def_cfa_register %rbp
	movq	(%rdi), %rdi
	popq	%rbp
	jmp	__ZN63_$LT$object..common..SymbolKind$u20$as$u20$core..fmt..Debug$GT$3fmt17h794519addadacc99E
	.cfi_endproc

	.p2align	4, 0x90
__ZN42_$LT$$RF$T$u20$as$u20$core..fmt..Debug$GT$3fmt17ha28398dc97197ab0E:
	.cfi_startproc
	pushq	%rbp
	.cfi_def_cfa_offset 16
	.cfi_offset %rbp, -16
	movq	%rsp, %rbp
	.cfi_def_cfa_register %rbp
	pushq	%r15
	pushq	%r14
	pushq	%r13
	pushq	%r12
	pushq	%rbx
	subq	$40, %rsp
	.cfi_offset %rbx, -56
	.cfi_offset %r12, -48
	.cfi_offset %r13, -40
	.cfi_offset %r14, -32
	.cfi_offset %r15, -24
	movq	(%rdi), %rbx
	leaq	208(%rbx), %r14
	leaq	l___unnamed_3(%rip), %rdx
	leaq	-80(%rbp), %r15
	movl	$7, %ecx
	movq	%r15, %rdi
	callq	__ZN4core3fmt9Formatter12debug_struct17h985c0158d1fc7193E
	movq	%r14, -48(%rbp)
	leaq	l___unnamed_4(%rip), %rsi
	leaq	l___unnamed_5(%rip), %r8
	leaq	-48(%rbp), %rcx
	movl	$6, %edx
	movq	%r15, %rdi
	callq	__ZN4core3fmt8builders11DebugStruct5field17h9c15dc155278eed2E
	movq	%rbx, -48(%rbp)
	leaq	16(%rbx), %r14
	leaq	24(%rbx), %r12
	leaq	40(%rbx), %r13
	leaq	72(%rbx), %rax
	movq	%rax, -56(%rbp)
	leaq	96(%rbx), %rax
	movq	%rax, -64(%rbp)
	leaq	152(%rbx), %rbx
	leaq	L___unnamed_6(%rip), %rsi
	leaq	l___unnamed_7(%rip), %r8
	leaq	-48(%rbp), %rcx
	movl	$4, %edx
	movq	%r15, %rdi
	callq	__ZN4core3fmt8builders11DebugStruct5field17h9c15dc155278eed2E
	movq	%r14, -48(%rbp)
	leaq	l___unnamed_8(%rip), %rsi
	leaq	l___unnamed_210(%rip), %r8
	leaq	-48(%rbp), %rcx
	movl	$6, %edx
	movq	%r15, %rdi
	callq	__ZN4core3fmt8builders11DebugStruct5field17h9c15dc155278eed2E
	movq	%r12, -48(%rbp)
	leaq	L___unnamed_10(%rip), %rsi
	leaq	l___unnamed_211(%rip), %r8
	leaq	-48(%rbp), %rcx
	movl	$8, %edx
	movq	%r15, %rdi
	callq	__ZN4core3fmt8builders11DebugStruct5field17h9c15dc155278eed2E
	movq	%r13, -48(%rbp)
	leaq	L___unnamed_12(%rip), %rsi
	leaq	l___unnamed_212(%rip), %r8
	leaq	-48(%rbp), %rcx
	movl	$8, %edx
	movq	%r15, %rdi
	callq	__ZN4core3fmt8builders11DebugStruct5field17h9c15dc155278eed2E
	movq	-56(%rbp), %rax
	movq	%rax, -48(%rbp)
	leaq	l___unnamed_14(%rip), %rsi
	leaq	l___unnamed_15(%rip), %r8
	leaq	-48(%rbp), %rcx
	movl	$11, %edx
	movq	%r15, %rdi
	callq	__ZN4core3fmt8builders11DebugStruct5field17h9c15dc155278eed2E
	movq	-64(%rbp), %rax
	movq	%rax, -48(%rbp)
	leaq	l___unnamed_16(%rip), %rsi
	leaq	l___unnamed_213(%rip), %r14
	leaq	-48(%rbp), %rcx
	movl	$7, %edx
	movq	%r15, %rdi
	movq	%r14, %r8
	callq	__ZN4core3fmt8builders11DebugStruct5field17h9c15dc155278eed2E
	movq	%rbx, -48(%rbp)
	leaq	l___unnamed_18(%rip), %rsi
	leaq	-48(%rbp), %rcx
	movl	$15, %edx
	movq	%r15, %rdi
	movq	%r14, %r8
	callq	__ZN4core3fmt8builders11DebugStruct5field17h9c15dc155278eed2E
	movq	%r15, %rdi
	callq	__ZN4core3fmt8builders11DebugStruct6finish17h26808393f3fed630E
	addq	$40, %rsp
	popq	%rbx
	popq	%r12
	popq	%r13
	popq	%r14
	popq	%r15
	popq	%rbp
	retq
	.cfi_endproc

	.p2align	4, 0x90
__ZN42_$LT$$RF$T$u20$as$u20$core..fmt..Debug$GT$3fmt17ha33e4fc46ecbd540E:
	.cfi_startproc
	pushq	%rbp
	.cfi_def_cfa_offset 16
	.cfi_offset %rbp, -16
	movq	%rsp, %rbp
	.cfi_def_cfa_register %rbp
	pushq	%r14
	pushq	%rbx
	subq	$32, %rsp
	.cfi_offset %rbx, -32
	.cfi_offset %r14, -24
	movq	(%rdi), %rbx
	leaq	l___unnamed_214(%rip), %rdx
	leaq	-40(%rbp), %r14
	movl	$18, %ecx
	movq	%r14, %rdi
	callq	__ZN4core3fmt9Formatter12debug_struct17h985c0158d1fc7193E
	movq	%rbx, -24(%rbp)
	addq	$8, %rbx
	leaq	L___unnamed_20(%rip), %rsi
	leaq	l___unnamed_83(%rip), %r8
	leaq	-24(%rbp), %rcx
	movl	$4, %edx
	movq	%r14, %rdi
	callq	__ZN4core3fmt8builders11DebugStruct5field17h9c15dc155278eed2E
	movq	%rbx, -24(%rbp)
	leaq	L___unnamed_22(%rip), %rsi
	leaq	l___unnamed_215(%rip), %r8
	leaq	-24(%rbp), %rcx
	movl	$4, %edx
	movq	%r14, %rdi
	callq	__ZN4core3fmt8builders11DebugStruct5field17h9c15dc155278eed2E
	movq	%r14, %rdi
	callq	__ZN4core3fmt8builders11DebugStruct6finish17h26808393f3fed630E
	addq	$32, %rsp
	popq	%rbx
	popq	%r14
	popq	%rbp
	retq
	.cfi_endproc

	.p2align	4, 0x90
__ZN42_$LT$$RF$T$u20$as$u20$core..fmt..Debug$GT$3fmt17ha47c40c68e9defabE:
	.cfi_startproc
	pushq	%rbp
	.cfi_def_cfa_offset 16
	.cfi_offset %rbp, -16
	movq	%rsp, %rbp
	.cfi_def_cfa_register %rbp
	pushq	%r14
	pushq	%rbx
	.cfi_offset %rbx, -32
	.cfi_offset %r14, -24
	movq	%rsi, %rbx
	movq	(%rdi), %r14
	movq	%rsi, %rdi
	callq	__ZN4core3fmt9Formatter15debug_lower_hex17h8530fbaeba13f4d9E
	testb	%al, %al
	je	LBB114_1
	movq	%r14, %rdi
	movq	%rbx, %rsi
	popq	%rbx
	popq	%r14
	popq	%rbp
	jmp	__ZN4core3fmt3num55_$LT$impl$u20$core..fmt..LowerHex$u20$for$u20$usize$GT$3fmt17hbf7dc8c1d7fa021dE
LBB114_1:
	movq	%rbx, %rdi
	callq	__ZN4core3fmt9Formatter15debug_upper_hex17hf8fda15ec43a1e68E
	movq	%r14, %rdi
	movq	%rbx, %rsi
	testb	%al, %al
	je	LBB114_4
	popq	%rbx
	popq	%r14
	popq	%rbp
	jmp	__ZN4core3fmt3num55_$LT$impl$u20$core..fmt..UpperHex$u20$for$u20$usize$GT$3fmt17hf20a4f369caf234bE
LBB114_4:
	popq	%rbx
	popq	%r14
	popq	%rbp
	jmp	__ZN4core3fmt3num3imp54_$LT$impl$u20$core..fmt..Display$u20$for$u20$usize$GT$3fmt17h89ce3155a90f2edfE
	.cfi_endproc

	.p2align	4, 0x90
__ZN42_$LT$$RF$T$u20$as$u20$core..fmt..Debug$GT$3fmt17ha6c54a868a69d9e6E:
	.cfi_startproc
	pushq	%rbp
	.cfi_def_cfa_offset 16
	.cfi_offset %rbp, -16
	movq	%rsp, %rbp
	.cfi_def_cfa_register %rbp
	pushq	%r15
	pushq	%r14
	pushq	%r12
	pushq	%rbx
	subq	$32, %rsp
	.cfi_offset %rbx, -48
	.cfi_offset %r12, -40
	.cfi_offset %r14, -32
	.cfi_offset %r15, -24
	movq	(%rdi), %rbx
	leaq	-56(%rbp), %r12
	movq	%r12, %rdi
	callq	__ZN4core3fmt9Formatter10debug_list17hd054f0986422feb9E
	movq	%rbx, -40(%rbp)
	leaq	l___unnamed_25(%rip), %r14
	leaq	-40(%rbp), %r15
	movq	%r12, %rdi
	movq	%r15, %rsi
	movq	%r14, %rdx
	callq	__ZN4core3fmt8builders9DebugList5entry17h5c0dec54538196dfE
	leaq	1(%rbx), %rax
	movq	%rax, -40(%rbp)
	movq	%r12, %rdi
	movq	%r15, %rsi
	movq	%r14, %rdx
	callq	__ZN4core3fmt8builders9DebugList5entry17h5c0dec54538196dfE
	leaq	2(%rbx), %rax
	movq	%rax, -40(%rbp)
	movq	%r12, %rdi
	movq	%r15, %rsi
	movq	%r14, %rdx
	callq	__ZN4core3fmt8builders9DebugList5entry17h5c0dec54538196dfE
	leaq	3(%rbx), %rax
	movq	%rax, -40(%rbp)
	movq	%r12, %rdi
	movq	%r15, %rsi
	movq	%r14, %rdx
	callq	__ZN4core3fmt8builders9DebugList5entry17h5c0dec54538196dfE
	leaq	4(%rbx), %rax
	movq	%rax, -40(%rbp)
	movq	%r12, %rdi
	movq	%r15, %rsi
	movq	%r14, %rdx
	callq	__ZN4core3fmt8builders9DebugList5entry17h5c0dec54538196dfE
	leaq	5(%rbx), %rax
	movq	%rax, -40(%rbp)
	movq	%r12, %rdi
	movq	%r15, %rsi
	movq	%r14, %rdx
	callq	__ZN4core3fmt8builders9DebugList5entry17h5c0dec54538196dfE
	leaq	6(%rbx), %rax
	movq	%rax, -40(%rbp)
	movq	%r12, %rdi
	movq	%r15, %rsi
	movq	%r14, %rdx
	callq	__ZN4core3fmt8builders9DebugList5entry17h5c0dec54538196dfE
	leaq	7(%rbx), %rax
	movq	%rax, -40(%rbp)
	movq	%r12, %rdi
	movq	%r15, %rsi
	movq	%r14, %rdx
	callq	__ZN4core3fmt8builders9DebugList5entry17h5c0dec54538196dfE
	leaq	8(%rbx), %rax
	movq	%rax, -40(%rbp)
	movq	%r12, %rdi
	movq	%r15, %rsi
	movq	%r14, %rdx
	callq	__ZN4core3fmt8builders9DebugList5entry17h5c0dec54538196dfE
	leaq	9(%rbx), %rax
	movq	%rax, -40(%rbp)
	movq	%r12, %rdi
	movq	%r15, %rsi
	movq	%r14, %rdx
	callq	__ZN4core3fmt8builders9DebugList5entry17h5c0dec54538196dfE
	leaq	10(%rbx), %rax
	movq	%rax, -40(%rbp)
	movq	%r12, %rdi
	movq	%r15, %rsi
	movq	%r14, %rdx
	callq	__ZN4core3fmt8builders9DebugList5entry17h5c0dec54538196dfE
	leaq	11(%rbx), %rax
	movq	%rax, -40(%rbp)
	movq	%r12, %rdi
	movq	%r15, %rsi
	movq	%r14, %rdx
	callq	__ZN4core3fmt8builders9DebugList5entry17h5c0dec54538196dfE
	leaq	12(%rbx), %rax
	movq	%rax, -40(%rbp)
	movq	%r12, %rdi
	movq	%r15, %rsi
	movq	%r14, %rdx
	callq	__ZN4core3fmt8builders9DebugList5entry17h5c0dec54538196dfE
	leaq	13(%rbx), %rax
	movq	%rax, -40(%rbp)
	movq	%r12, %rdi
	movq	%r15, %rsi
	movq	%r14, %rdx
	callq	__ZN4core3fmt8builders9DebugList5entry17h5c0dec54538196dfE
	leaq	14(%rbx), %rax
	movq	%rax, -40(%rbp)
	movq	%r12, %rdi
	movq	%r15, %rsi
	movq	%r14, %rdx
	callq	__ZN4core3fmt8builders9DebugList5entry17h5c0dec54538196dfE
	leaq	15(%rbx), %rax
	movq	%rax, -40(%rbp)
	movq	%r12, %rdi
	movq	%r15, %rsi
	movq	%r14, %rdx
	callq	__ZN4core3fmt8builders9DebugList5entry17h5c0dec54538196dfE
	leaq	16(%rbx), %rax
	movq	%rax, -40(%rbp)
	movq	%r12, %rdi
	movq	%r15, %rsi
	movq	%r14, %rdx
	callq	__ZN4core3fmt8builders9DebugList5entry17h5c0dec54538196dfE
	addq	$17, %rbx
	movq	%rbx, -40(%rbp)
	movq	%r12, %rdi
	movq	%r15, %rsi
	movq	%r14, %rdx
	callq	__ZN4core3fmt8builders9DebugList5entry17h5c0dec54538196dfE
	movq	%r12, %rdi
	callq	__ZN4core3fmt8builders9DebugList6finish17h3635bd6af9b1c5a6E
	addq	$32, %rsp
	popq	%rbx
	popq	%r12
	popq	%r14
	popq	%r15
	popq	%rbp
	retq
	.cfi_endproc

	.p2align	4, 0x90
__ZN42_$LT$$RF$T$u20$as$u20$core..fmt..Debug$GT$3fmt17had7b244a13e400c0E:
	.cfi_startproc
	pushq	%rbp
	.cfi_def_cfa_offset 16
	.cfi_offset %rbp, -16
	movq	%rsp, %rbp
	.cfi_def_cfa_register %rbp
	pushq	%r15
	pushq	%r14
	pushq	%r13
	pushq	%r12
	pushq	%rbx
	subq	$40, %rsp
	.cfi_offset %rbx, -56
	.cfi_offset %r12, -48
	.cfi_offset %r13, -40
	.cfi_offset %r14, -32
	.cfi_offset %r15, -24
	movq	(%rdi), %rbx
	leaq	l___unnamed_44(%rip), %rdx
	leaq	-72(%rbp), %r13
	movl	$6, %ecx
	movq	%r13, %rdi
	callq	__ZN4core3fmt9Formatter12debug_struct17h985c0158d1fc7193E
	movq	%rbx, -48(%rbp)
	leaq	8(%rbx), %r14
	leaq	16(%rbx), %r15
	leaq	32(%rbx), %r12
	leaq	48(%rbx), %rax
	movq	%rax, -56(%rbp)
	leaq	80(%rbx), %rbx
	leaq	l___unnamed_45(%rip), %rsi
	leaq	l___unnamed_46(%rip), %r8
	leaq	-48(%rbp), %rcx
	movl	$10, %edx
	movq	%r13, %rdi
	callq	__ZN4core3fmt8builders11DebugStruct5field17h9c15dc155278eed2E
	movq	%r14, -48(%rbp)
	leaq	l___unnamed_47(%rip), %rsi
	leaq	l___unnamed_216(%rip), %r8
	leaq	-48(%rbp), %rcx
	movl	$10, %edx
	movq	%r13, %rdi
	callq	__ZN4core3fmt8builders11DebugStruct5field17h9c15dc155278eed2E
	movq	%r15, -48(%rbp)
	leaq	L___unnamed_49(%rip), %rsi
	leaq	l___unnamed_50(%rip), %r8
	leaq	-48(%rbp), %rcx
	movl	$16, %edx
	movq	%r13, %rdi
	callq	__ZN4core3fmt8builders11DebugStruct5field17h9c15dc155278eed2E
	movq	%r12, -48(%rbp)
	leaq	L___unnamed_12(%rip), %rsi
	leaq	l___unnamed_51(%rip), %r8
	leaq	-48(%rbp), %rcx
	movl	$8, %edx
	movq	%r13, %rdi
	callq	__ZN4core3fmt8builders11DebugStruct5field17h9c15dc155278eed2E
	movq	-56(%rbp), %rax
	movq	%rax, -48(%rbp)
	leaq	l___unnamed_16(%rip), %rsi
	leaq	l___unnamed_52(%rip), %r8
	leaq	-48(%rbp), %rcx
	movl	$7, %edx
	movq	%r13, %rdi
	callq	__ZN4core3fmt8builders11DebugStruct5field17h9c15dc155278eed2E
	movq	%rbx, -48(%rbp)
	leaq	L___unnamed_6(%rip), %rsi
	leaq	l___unnamed_7(%rip), %r8
	leaq	-48(%rbp), %rcx
	movl	$4, %edx
	movq	%r13, %rdi
	callq	__ZN4core3fmt8builders11DebugStruct5field17h9c15dc155278eed2E
	movq	%r13, %rdi
	callq	__ZN4core3fmt8builders11DebugStruct6finish17h26808393f3fed630E
	addq	$40, %rsp
	popq	%rbx
	popq	%r12
	popq	%r13
	popq	%r14
	popq	%r15
	popq	%rbp
	retq
	.cfi_endproc

	.p2align	4, 0x90
__ZN42_$LT$$RF$T$u20$as$u20$core..fmt..Debug$GT$3fmt17hadc535a425301006E:
	.cfi_startproc
	pushq	%rbp
	.cfi_def_cfa_offset 16
	.cfi_offset %rbp, -16
	movq	%rsp, %rbp
	.cfi_def_cfa_register %rbp
	pushq	%r14
	pushq	%rbx
	subq	$32, %rsp
	.cfi_offset %rbx, -32
	.cfi_offset %r14, -24
	movq	(%rdi), %rbx
	leaq	l___unnamed_63(%rip), %rdx
	leaq	-40(%rbp), %r14
	movl	$12, %ecx
	movq	%r14, %rdi
	callq	__ZN4core3fmt9Formatter12debug_struct17h985c0158d1fc7193E
	movq	%rbx, -24(%rbp)
	addq	$8, %rbx
	leaq	L___unnamed_20(%rip), %rsi
	leaq	l___unnamed_129(%rip), %r8
	leaq	-24(%rbp), %rcx
	movl	$4, %edx
	movq	%r14, %rdi
	callq	__ZN4core3fmt8builders11DebugStruct5field17h9c15dc155278eed2E
	movq	%rbx, -24(%rbp)
	leaq	l___unnamed_65(%rip), %rsi
	leaq	l___unnamed_217(%rip), %r8
	leaq	-24(%rbp), %rcx
	movl	$7, %edx
	movq	%r14, %rdi
	callq	__ZN4core3fmt8builders11DebugStruct5field17h9c15dc155278eed2E
	movq	%r14, %rdi
	callq	__ZN4core3fmt8builders11DebugStruct6finish17h26808393f3fed630E
	addq	$32, %rsp
	popq	%rbx
	popq	%r14
	popq	%rbp
	retq
	.cfi_endproc

	.p2align	4, 0x90
__ZN42_$LT$$RF$T$u20$as$u20$core..fmt..Debug$GT$3fmt17hae2ff258422021d6E:
	.cfi_startproc
	pushq	%rbp
	.cfi_def_cfa_offset 16
	.cfi_offset %rbp, -16
	movq	%rsp, %rbp
	.cfi_def_cfa_register %rbp
	pushq	%r15
	pushq	%r14
	pushq	%r13
	pushq	%r12
	pushq	%rbx
	subq	$40, %rsp
	.cfi_offset %rbx, -56
	.cfi_offset %r12, -48
	.cfi_offset %r13, -40
	.cfi_offset %r14, -32
	.cfi_offset %r15, -24
	movq	(%rdi), %rbx
	leaq	l___unnamed_218(%rip), %rdx
	leaq	-80(%rbp), %r15
	movl	$5, %ecx
	movq	%r15, %rdi
	callq	__ZN4core3fmt9Formatter12debug_struct17h985c0158d1fc7193E
	movq	%rbx, -48(%rbp)
	leaq	4(%rbx), %r12
	leaq	8(%rbx), %r13
	leaq	12(%rbx), %rax
	movq	%rax, -56(%rbp)
	leaq	13(%rbx), %rax
	movq	%rax, -64(%rbp)
	leaq	14(%rbx), %rbx
	leaq	l___unnamed_54(%rip), %rsi
	leaq	l___unnamed_33(%rip), %r14
	leaq	-48(%rbp), %rcx
	movl	$7, %edx
	movq	%r15, %rdi
	movq	%r14, %r8
	callq	__ZN4core3fmt8builders11DebugStruct5field17h9c15dc155278eed2E
	movq	%r12, -48(%rbp)
	leaq	L___unnamed_59(%rip), %rsi
	leaq	-48(%rbp), %rcx
	movl	$8, %edx
	movq	%r15, %rdi
	movq	%r14, %r8
	callq	__ZN4core3fmt8builders11DebugStruct5field17h9c15dc155278eed2E
	movq	%r13, -48(%rbp)
	leaq	l___unnamed_61(%rip), %rsi
	leaq	-48(%rbp), %rcx
	movl	$7, %edx
	movq	%r15, %rdi
	movq	%r14, %r8
	callq	__ZN4core3fmt8builders11DebugStruct5field17h9c15dc155278eed2E
	movq	-56(%rbp), %rax
	movq	%rax, -48(%rbp)
	leaq	l___unnamed_55(%rip), %rsi
	leaq	l___unnamed_25(%rip), %r14
	leaq	-48(%rbp), %rcx
	movl	$7, %edx
	movq	%r15, %rdi
	movq	%r14, %r8
	callq	__ZN4core3fmt8builders11DebugStruct5field17h9c15dc155278eed2E
	movq	-64(%rbp), %rax
	movq	%rax, -48(%rbp)
	leaq	L___unnamed_56(%rip), %rsi
	leaq	-48(%rbp), %rcx
	movl	$8, %edx
	movq	%r15, %rdi
	movq	%r14, %r8
	callq	__ZN4core3fmt8builders11DebugStruct5field17h9c15dc155278eed2E
	movq	%rbx, -48(%rbp)
	leaq	L___unnamed_57(%rip), %rsi
	leaq	l___unnamed_58(%rip), %r8
	leaq	-48(%rbp), %rcx
	movl	$8, %edx
	movq	%r15, %rdi
	callq	__ZN4core3fmt8builders11DebugStruct5field17h9c15dc155278eed2E
	movq	%r15, %rdi
	callq	__ZN4core3fmt8builders11DebugStruct6finish17h26808393f3fed630E
	addq	$40, %rsp
	popq	%rbx
	popq	%r12
	popq	%r13
	popq	%r14
	popq	%r15
	popq	%rbp
	retq
	.cfi_endproc

	.p2align	4, 0x90
__ZN42_$LT$$RF$T$u20$as$u20$core..fmt..Debug$GT$3fmt17hae82ac68b33e5648E:
	.cfi_startproc
	pushq	%rbp
	.cfi_def_cfa_offset 16
	.cfi_offset %rbp, -16
	movq	%rsp, %rbp
	.cfi_def_cfa_register %rbp
	movq	(%rdi), %rax
	movq	(%rax), %rdi
	popq	%rbp
	jmp	__ZN63_$LT$object..pe..ImageDosHeader$u20$as$u20$core..fmt..Debug$GT$3fmt17h909ad463bfa5286cE
	.cfi_endproc

	.p2align	4, 0x90
__ZN42_$LT$$RF$T$u20$as$u20$core..fmt..Debug$GT$3fmt17hb1e8ab45663437f7E:
	.cfi_startproc
	pushq	%rbp
	.cfi_def_cfa_offset 16
	.cfi_offset %rbp, -16
	movq	%rsp, %rbp
	.cfi_def_cfa_register %rbp
	pushq	%r15
	pushq	%r14
	pushq	%r13
	pushq	%r12
	pushq	%rbx
	subq	$24, %rsp
	.cfi_offset %rbx, -56
	.cfi_offset %r12, -48
	.cfi_offset %r13, -40
	.cfi_offset %r14, -32
	.cfi_offset %r15, -24
	movq	(%rdi), %r13
	movq	8(%rdi), %rbx
	leaq	-64(%rbp), %rdi
	callq	__ZN4core3fmt9Formatter10debug_list17hd054f0986422feb9E
	testq	%rbx, %rbx
	je	LBB120_3
	shlq	$3, %rbx
	leaq	(%rbx,%rbx,4), %rbx
	leaq	l___unnamed_114(%rip), %r14
	leaq	-64(%rbp), %r15
	leaq	-48(%rbp), %r12
	.p2align	4, 0x90
LBB120_2:
	movq	%r13, -48(%rbp)
	addq	$40, %r13
	movq	%r15, %rdi
	movq	%r12, %rsi
	movq	%r14, %rdx
	callq	__ZN4core3fmt8builders9DebugList5entry17h5c0dec54538196dfE
	addq	$-40, %rbx
	jne	LBB120_2
LBB120_3:
	leaq	-64(%rbp), %rdi
	callq	__ZN4core3fmt8builders9DebugList6finish17h3635bd6af9b1c5a6E
	addq	$24, %rsp
	popq	%rbx
	popq	%r12
	popq	%r13
	popq	%r14
	popq	%r15
	popq	%rbp
	retq
	.cfi_endproc

	.p2align	4, 0x90
__ZN42_$LT$$RF$T$u20$as$u20$core..fmt..Debug$GT$3fmt17hb23f967baad97560E:
	.cfi_startproc
	pushq	%rbp
	.cfi_def_cfa_offset 16
	.cfi_offset %rbp, -16
	movq	%rsp, %rbp
	.cfi_def_cfa_register %rbp
	pushq	%r15
	pushq	%r14
	pushq	%r12
	pushq	%rbx
	subq	$32, %rsp
	.cfi_offset %rbx, -48
	.cfi_offset %r12, -40
	.cfi_offset %r14, -32
	.cfi_offset %r15, -24
	movq	(%rdi), %rbx
	leaq	-56(%rbp), %r12
	movq	%r12, %rdi
	callq	__ZN4core3fmt9Formatter10debug_list17hd054f0986422feb9E
	movq	%rbx, -40(%rbp)
	leaq	l___unnamed_25(%rip), %r14
	leaq	-40(%rbp), %r15
	movq	%r12, %rdi
	movq	%r15, %rsi
	movq	%r14, %rdx
	callq	__ZN4core3fmt8builders9DebugList5entry17h5c0dec54538196dfE
	leaq	1(%rbx), %rax
	movq	%rax, -40(%rbp)
	movq	%r12, %rdi
	movq	%r15, %rsi
	movq	%r14, %rdx
	callq	__ZN4core3fmt8builders9DebugList5entry17h5c0dec54538196dfE
	addq	$2, %rbx
	movq	%rbx, -40(%rbp)
	movq	%r12, %rdi
	movq	%r15, %rsi
	movq	%r14, %rdx
	callq	__ZN4core3fmt8builders9DebugList5entry17h5c0dec54538196dfE
	movq	%r12, %rdi
	callq	__ZN4core3fmt8builders9DebugList6finish17h3635bd6af9b1c5a6E
	addq	$32, %rsp
	popq	%rbx
	popq	%r12
	popq	%r14
	popq	%r15
	popq	%rbp
	retq
	.cfi_endproc

	.p2align	4, 0x90
__ZN42_$LT$$RF$T$u20$as$u20$core..fmt..Debug$GT$3fmt17hb27e4f0a6d9b17c8E:
	.cfi_startproc
	pushq	%rbp
	.cfi_def_cfa_offset 16
	.cfi_offset %rbp, -16
	movq	%rsp, %rbp
	.cfi_def_cfa_register %rbp
	pushq	%r15
	pushq	%r14
	pushq	%r12
	pushq	%rbx
	subq	$32, %rsp
	.cfi_offset %rbx, -48
	.cfi_offset %r12, -40
	.cfi_offset %r14, -32
	.cfi_offset %r15, -24
	movq	(%rdi), %rbx
	leaq	-56(%rbp), %r12
	movq	%r12, %rdi
	callq	__ZN4core3fmt9Formatter10debug_list17hd054f0986422feb9E
	movq	%rbx, -40(%rbp)
	leaq	l___unnamed_25(%rip), %r14
	leaq	-40(%rbp), %r15
	movq	%r12, %rdi
	movq	%r15, %rsi
	movq	%r14, %rdx
	callq	__ZN4core3fmt8builders9DebugList5entry17h5c0dec54538196dfE
	leaq	1(%rbx), %rax
	movq	%rax, -40(%rbp)
	movq	%r12, %rdi
	movq	%r15, %rsi
	movq	%r14, %rdx
	callq	__ZN4core3fmt8builders9DebugList5entry17h5c0dec54538196dfE
	leaq	2(%rbx), %rax
	movq	%rax, -40(%rbp)
	movq	%r12, %rdi
	movq	%r15, %rsi
	movq	%r14, %rdx
	callq	__ZN4core3fmt8builders9DebugList5entry17h5c0dec54538196dfE
	leaq	3(%rbx), %rax
	movq	%rax, -40(%rbp)
	movq	%r12, %rdi
	movq	%r15, %rsi
	movq	%r14, %rdx
	callq	__ZN4core3fmt8builders9DebugList5entry17h5c0dec54538196dfE
	leaq	4(%rbx), %rax
	movq	%rax, -40(%rbp)
	movq	%r12, %rdi
	movq	%r15, %rsi
	movq	%r14, %rdx
	callq	__ZN4core3fmt8builders9DebugList5entry17h5c0dec54538196dfE
	addq	$5, %rbx
	movq	%rbx, -40(%rbp)
	movq	%r12, %rdi
	movq	%r15, %rsi
	movq	%r14, %rdx
	callq	__ZN4core3fmt8builders9DebugList5entry17h5c0dec54538196dfE
	movq	%r12, %rdi
	callq	__ZN4core3fmt8builders9DebugList6finish17h3635bd6af9b1c5a6E
	addq	$32, %rsp
	popq	%rbx
	popq	%r12
	popq	%r14
	popq	%r15
	popq	%rbp
	retq
	.cfi_endproc

	.p2align	4, 0x90
__ZN42_$LT$$RF$T$u20$as$u20$core..fmt..Debug$GT$3fmt17hb2ebcf691dae0245E:
	.cfi_startproc
	pushq	%rbp
	.cfi_def_cfa_offset 16
	.cfi_offset %rbp, -16
	movq	%rsp, %rbp
	.cfi_def_cfa_register %rbp
	pushq	%r15
	pushq	%r14
	pushq	%r13
	pushq	%r12
	pushq	%rbx
	subq	$24, %rsp
	.cfi_offset %rbx, -56
	.cfi_offset %r12, -48
	.cfi_offset %r13, -40
	.cfi_offset %r14, -32
	.cfi_offset %r15, -24
	movq	(%rdi), %rax
	movq	(%rax), %rbx
	leaq	80(%rbx), %r14
	leaq	l___unnamed_123(%rip), %rdx
	leaq	-64(%rbp), %r15
	movl	$9, %ecx
	movq	%r15, %rdi
	callq	__ZN4core3fmt9Formatter12debug_struct17h985c0158d1fc7193E
	movq	%r14, -48(%rbp)
	leaq	l___unnamed_4(%rip), %rsi
	leaq	l___unnamed_5(%rip), %r8
	leaq	-48(%rbp), %rcx
	movl	$6, %edx
	movq	%r15, %rdi
	callq	__ZN4core3fmt8builders11DebugStruct5field17h9c15dc155278eed2E
	movq	%rbx, -48(%rbp)
	leaq	16(%rbx), %r12
	leaq	24(%rbx), %r13
	leaq	48(%rbx), %r14
	leaq	L___unnamed_6(%rip), %rsi
	leaq	l___unnamed_7(%rip), %r8
	leaq	-48(%rbp), %rcx
	movl	$4, %edx
	movq	%r15, %rdi
	callq	__ZN4core3fmt8builders11DebugStruct5field17h9c15dc155278eed2E
	movq	%r12, -48(%rbp)
	leaq	l___unnamed_8(%rip), %rsi
	leaq	l___unnamed_160(%rip), %r8
	leaq	-48(%rbp), %rcx
	movl	$6, %edx
	movq	%r15, %rdi
	callq	__ZN4core3fmt8builders11DebugStruct5field17h9c15dc155278eed2E
	movq	%r13, -48(%rbp)
	leaq	L___unnamed_12(%rip), %rsi
	leaq	l___unnamed_161(%rip), %r8
	leaq	-48(%rbp), %rcx
	movl	$8, %edx
	movq	%r15, %rdi
	callq	__ZN4core3fmt8builders11DebugStruct5field17h9c15dc155278eed2E
	movq	%r14, -48(%rbp)
	leaq	l___unnamed_16(%rip), %rsi
	leaq	l___unnamed_162(%rip), %r8
	leaq	-48(%rbp), %rcx
	movl	$7, %edx
	movq	%r15, %rdi
	callq	__ZN4core3fmt8builders11DebugStruct5field17h9c15dc155278eed2E
	movq	%r15, %rdi
	callq	__ZN4core3fmt8builders11DebugStruct6finish17h26808393f3fed630E
	addq	$24, %rsp
	popq	%rbx
	popq	%r12
	popq	%r13
	popq	%r14
	popq	%r15
	popq	%rbp
	retq
	.cfi_endproc

	.p2align	4, 0x90
__ZN42_$LT$$RF$T$u20$as$u20$core..fmt..Debug$GT$3fmt17hb3e36acd830906baE:
	.cfi_startproc
	pushq	%rbp
	.cfi_def_cfa_offset 16
	.cfi_offset %rbp, -16
	movq	%rsp, %rbp
	.cfi_def_cfa_register %rbp
	pushq	%r14
	pushq	%rbx
	subq	$32, %rsp
	.cfi_offset %rbx, -32
	.cfi_offset %r14, -24
	movq	(%rdi), %rbx
	leaq	l___unnamed_219(%rip), %rdx
	leaq	-40(%rbp), %r14
	movl	$11, %ecx
	movq	%r14, %rdi
	callq	__ZN4core3fmt9Formatter12debug_struct17h985c0158d1fc7193E
	movq	%rbx, -24(%rbp)
	leaq	L___unnamed_6(%rip), %rsi
	leaq	l___unnamed_7(%rip), %r8
	leaq	-24(%rbp), %rcx
	movl	$4, %edx
	movq	%r14, %rdi
	callq	__ZN4core3fmt8builders11DebugStruct5field17h9c15dc155278eed2E
	movq	%r14, %rdi
	callq	__ZN4core3fmt8builders11DebugStruct6finish17h26808393f3fed630E
	addq	$32, %rsp
	popq	%rbx
	popq	%r14
	popq	%rbp
	retq
	.cfi_endproc

	.p2align	4, 0x90
__ZN42_$LT$$RF$T$u20$as$u20$core..fmt..Debug$GT$3fmt17hb763f876255c56d4E:
	.cfi_startproc
	pushq	%rbp
	.cfi_def_cfa_offset 16
	.cfi_offset %rbp, -16
	movq	%rsp, %rbp
	.cfi_def_cfa_register %rbp
	pushq	%r14
	pushq	%rbx
	.cfi_offset %rbx, -32
	.cfi_offset %r14, -24
	movq	%rsi, %rbx
	movq	(%rdi), %r14
	movq	%rsi, %rdi
	callq	__ZN4core3fmt9Formatter15debug_lower_hex17h8530fbaeba13f4d9E
	testb	%al, %al
	je	LBB125_1
	movq	%r14, %rdi
	movq	%rbx, %rsi
	popq	%rbx
	popq	%r14
	popq	%rbp
	jmp	__ZN4core3fmt3num53_$LT$impl$u20$core..fmt..LowerHex$u20$for$u20$u16$GT$3fmt17h4a3e59891cc09bc8E
LBB125_1:
	movq	%rbx, %rdi
	callq	__ZN4core3fmt9Formatter15debug_upper_hex17hf8fda15ec43a1e68E
	movq	%r14, %rdi
	movq	%rbx, %rsi
	testb	%al, %al
	je	LBB125_4
	popq	%rbx
	popq	%r14
	popq	%rbp
	jmp	__ZN4core3fmt3num53_$LT$impl$u20$core..fmt..UpperHex$u20$for$u20$u16$GT$3fmt17h80b29e32979d60cdE
LBB125_4:
	popq	%rbx
	popq	%r14
	popq	%rbp
	jmp	__ZN4core3fmt3num3imp52_$LT$impl$u20$core..fmt..Display$u20$for$u20$u16$GT$3fmt17h7d9582ae70d300cbE
	.cfi_endproc

	.p2align	4, 0x90
__ZN42_$LT$$RF$T$u20$as$u20$core..fmt..Debug$GT$3fmt17hba556c65fddf6566E:
	.cfi_startproc
	pushq	%rbp
	.cfi_def_cfa_offset 16
	.cfi_offset %rbp, -16
	movq	%rsp, %rbp
	.cfi_def_cfa_register %rbp
	pushq	%r14
	pushq	%rbx
	subq	$32, %rsp
	.cfi_offset %rbx, -32
	.cfi_offset %r14, -24
	movq	(%rdi), %rbx
	leaq	l___unnamed_214(%rip), %rdx
	leaq	-40(%rbp), %r14
	movl	$18, %ecx
	movq	%r14, %rdi
	callq	__ZN4core3fmt9Formatter12debug_struct17h985c0158d1fc7193E
	movq	%rbx, -24(%rbp)
	addq	$8, %rbx
	leaq	L___unnamed_20(%rip), %rsi
	leaq	l___unnamed_177(%rip), %r8
	leaq	-24(%rbp), %rcx
	movl	$4, %edx
	movq	%r14, %rdi
	callq	__ZN4core3fmt8builders11DebugStruct5field17h9c15dc155278eed2E
	movq	%rbx, -24(%rbp)
	leaq	L___unnamed_22(%rip), %rsi
	leaq	l___unnamed_220(%rip), %r8
	leaq	-24(%rbp), %rcx
	movl	$4, %edx
	movq	%r14, %rdi
	callq	__ZN4core3fmt8builders11DebugStruct5field17h9c15dc155278eed2E
	movq	%r14, %rdi
	callq	__ZN4core3fmt8builders11DebugStruct6finish17h26808393f3fed630E
	addq	$32, %rsp
	popq	%rbx
	popq	%r14
	popq	%rbp
	retq
	.cfi_endproc

	.p2align	4, 0x90
__ZN42_$LT$$RF$T$u20$as$u20$core..fmt..Debug$GT$3fmt17hbd529b7b5a5bf7bdE:
	.cfi_startproc
	pushq	%rbp
	.cfi_def_cfa_offset 16
	.cfi_offset %rbp, -16
	movq	%rsp, %rbp
	.cfi_def_cfa_register %rbp
	pushq	%r15
	pushq	%r14
	pushq	%r13
	pushq	%r12
	pushq	%rbx
	subq	$24, %rsp
	.cfi_offset %rbx, -56
	.cfi_offset %r12, -48
	.cfi_offset %r13, -40
	.cfi_offset %r14, -32
	.cfi_offset %r15, -24
	movq	(%rdi), %rax
	movq	(%rax), %r13
	movq	8(%rax), %rbx
	leaq	-64(%rbp), %rdi
	callq	__ZN4core3fmt9Formatter10debug_list17hd054f0986422feb9E
	testq	%rbx, %rbx
	je	LBB127_3
	shlq	$3, %rbx
	leaq	(%rbx,%rbx,2), %rbx
	leaq	l___unnamed_221(%rip), %r14
	leaq	-64(%rbp), %r15
	leaq	-48(%rbp), %r12
	.p2align	4, 0x90
LBB127_2:
	movq	%r13, -48(%rbp)
	addq	$24, %r13
	movq	%r15, %rdi
	movq	%r12, %rsi
	movq	%r14, %rdx
	callq	__ZN4core3fmt8builders9DebugList5entry17h5c0dec54538196dfE
	addq	$-24, %rbx
	jne	LBB127_2
LBB127_3:
	leaq	-64(%rbp), %rdi
	callq	__ZN4core3fmt8builders9DebugList6finish17h3635bd6af9b1c5a6E
	addq	$24, %rsp
	popq	%rbx
	popq	%r12
	popq	%r13
	popq	%r14
	popq	%r15
	popq	%rbp
	retq
	.cfi_endproc

	.p2align	4, 0x90
__ZN42_$LT$$RF$T$u20$as$u20$core..fmt..Debug$GT$3fmt17hbdf7a27b0b0035d5E:
	.cfi_startproc
	pushq	%rbp
	.cfi_def_cfa_offset 16
	.cfi_offset %rbp, -16
	movq	%rsp, %rbp
	.cfi_def_cfa_register %rbp
	pushq	%r14
	pushq	%rbx
	subq	$32, %rsp
	.cfi_offset %rbx, -32
	.cfi_offset %r14, -24
	movq	(%rdi), %rbx
	leaq	l___unnamed_222(%rip), %rdx
	leaq	-40(%rbp), %r14
	movl	$17, %ecx
	movq	%r14, %rdi
	callq	__ZN4core3fmt9Formatter12debug_struct17h985c0158d1fc7193E
	movq	%rbx, -24(%rbp)
	addq	$8, %rbx
	leaq	L___unnamed_20(%rip), %rsi
	leaq	l___unnamed_223(%rip), %r8
	leaq	-24(%rbp), %rcx
	movl	$4, %edx
	movq	%r14, %rdi
	callq	__ZN4core3fmt8builders11DebugStruct5field17h9c15dc155278eed2E
	movq	%rbx, -24(%rbp)
	leaq	L___unnamed_22(%rip), %rsi
	leaq	l___unnamed_94(%rip), %r8
	leaq	-24(%rbp), %rcx
	movl	$4, %edx
	movq	%r14, %rdi
	callq	__ZN4core3fmt8builders11DebugStruct5field17h9c15dc155278eed2E
	movq	%r14, %rdi
	callq	__ZN4core3fmt8builders11DebugStruct6finish17h26808393f3fed630E
	addq	$32, %rsp
	popq	%rbx
	popq	%r14
	popq	%rbp
	retq
	.cfi_endproc

	.p2align	4, 0x90
__ZN42_$LT$$RF$T$u20$as$u20$core..fmt..Debug$GT$3fmt17hc15b4086c97cf3baE:
	.cfi_startproc
	pushq	%rbp
	.cfi_def_cfa_offset 16
	.cfi_offset %rbp, -16
	movq	%rsp, %rbp
	.cfi_def_cfa_register %rbp
	pushq	%r15
	pushq	%r14
	pushq	%r13
	pushq	%r12
	pushq	%rbx
	subq	$24, %rsp
	.cfi_offset %rbx, -56
	.cfi_offset %r12, -48
	.cfi_offset %r13, -40
	.cfi_offset %r14, -32
	.cfi_offset %r15, -24
	movq	(%rdi), %rbx
	leaq	l___unnamed_224(%rip), %rdx
	leaq	-64(%rbp), %r14
	movl	$7, %ecx
	movq	%r14, %rdi
	callq	__ZN4core3fmt9Formatter12debug_struct17h985c0158d1fc7193E
	movq	%rbx, -48(%rbp)
	leaq	4(%rbx), %r15
	leaq	5(%rbx), %r12
	leaq	6(%rbx), %r13
	leaq	8(%rbx), %rbx
	leaq	l___unnamed_74(%rip), %rsi
	leaq	l___unnamed_33(%rip), %r8
	leaq	-48(%rbp), %rcx
	movl	$6, %edx
	movq	%r14, %rdi
	callq	__ZN4core3fmt8builders11DebugStruct5field17h9c15dc155278eed2E
	movq	%r15, -48(%rbp)
	leaq	l___unnamed_75(%rip), %rsi
	leaq	l___unnamed_25(%rip), %r15
	leaq	-48(%rbp), %rcx
	movl	$6, %edx
	movq	%r14, %rdi
	movq	%r15, %r8
	callq	__ZN4core3fmt8builders11DebugStruct5field17h9c15dc155278eed2E
	movq	%r12, -48(%rbp)
	leaq	l___unnamed_76(%rip), %rsi
	leaq	-48(%rbp), %rcx
	movl	$6, %edx
	movq	%r14, %rdi
	movq	%r15, %r8
	callq	__ZN4core3fmt8builders11DebugStruct5field17h9c15dc155278eed2E
	movq	%r13, -48(%rbp)
	leaq	l___unnamed_77(%rip), %rsi
	leaq	l___unnamed_58(%rip), %r8
	leaq	-48(%rbp), %rcx
	movl	$6, %edx
	movq	%r14, %rdi
	callq	__ZN4core3fmt8builders11DebugStruct5field17h9c15dc155278eed2E
	movq	%rbx, -48(%rbp)
	leaq	l___unnamed_78(%rip), %rsi
	leaq	-48(%rbp), %rcx
	movl	$7, %edx
	movq	%r14, %rdi
	leaq	l___unnamed_33(%rip), %r8
	callq	__ZN4core3fmt8builders11DebugStruct5field17h9c15dc155278eed2E
	movq	%r14, %rdi
	callq	__ZN4core3fmt8builders11DebugStruct6finish17h26808393f3fed630E
	addq	$24, %rsp
	popq	%rbx
	popq	%r12
	popq	%r13
	popq	%r14
	popq	%r15
	popq	%rbp
	retq
	.cfi_endproc

	.p2align	4, 0x90
__ZN42_$LT$$RF$T$u20$as$u20$core..fmt..Debug$GT$3fmt17hc389db73ac3dba54E:
	.cfi_startproc
	pushq	%rbp
	.cfi_def_cfa_offset 16
	.cfi_offset %rbp, -16
	movq	%rsp, %rbp
	.cfi_def_cfa_register %rbp
	pushq	%r15
	pushq	%r14
	pushq	%r13
	pushq	%r12
	pushq	%rbx
	subq	$24, %rsp
	.cfi_offset %rbx, -56
	.cfi_offset %r12, -48
	.cfi_offset %r13, -40
	.cfi_offset %r14, -32
	.cfi_offset %r15, -24
	movq	(%rdi), %rax
	movq	(%rax), %r13
	movq	8(%rax), %rbx
	leaq	-64(%rbp), %rdi
	callq	__ZN4core3fmt9Formatter10debug_list17hd054f0986422feb9E
	testq	%rbx, %rbx
	je	LBB130_3
	addq	%rbx, %rbx
	leaq	(%rbx,%rbx,8), %rbx
	leaq	l___unnamed_225(%rip), %r14
	leaq	-64(%rbp), %r15
	leaq	-48(%rbp), %r12
	.p2align	4, 0x90
LBB130_2:
	movq	%r13, -48(%rbp)
	addq	$18, %r13
	movq	%r15, %rdi
	movq	%r12, %rsi
	movq	%r14, %rdx
	callq	__ZN4core3fmt8builders9DebugList5entry17h5c0dec54538196dfE
	addq	$-18, %rbx
	jne	LBB130_2
LBB130_3:
	leaq	-64(%rbp), %rdi
	callq	__ZN4core3fmt8builders9DebugList6finish17h3635bd6af9b1c5a6E
	addq	$24, %rsp
	popq	%rbx
	popq	%r12
	popq	%r13
	popq	%r14
	popq	%r15
	popq	%rbp
	retq
	.cfi_endproc

	.p2align	4, 0x90
__ZN42_$LT$$RF$T$u20$as$u20$core..fmt..Debug$GT$3fmt17hc561967510617476E:
	.cfi_startproc
	pushq	%rbp
	.cfi_def_cfa_offset 16
	.cfi_offset %rbp, -16
	movq	%rsp, %rbp
	.cfi_def_cfa_register %rbp
	pushq	%r15
	pushq	%r14
	pushq	%r13
	pushq	%r12
	pushq	%rbx
	subq	$24, %rsp
	.cfi_offset %rbx, -56
	.cfi_offset %r12, -48
	.cfi_offset %r13, -40
	.cfi_offset %r14, -32
	.cfi_offset %r15, -24
	movq	(%rdi), %rbx
	leaq	-64(%rbp), %r12
	movq	%r12, %rdi
	callq	__ZN4core3fmt9Formatter10debug_list17hd054f0986422feb9E
	leaq	2(%rbx), %r13
	movq	%rbx, -48(%rbp)
	leaq	l___unnamed_147(%rip), %r14
	leaq	-48(%rbp), %r15
	movq	%r12, %rdi
	movq	%r15, %rsi
	movq	%r14, %rdx
	callq	__ZN4core3fmt8builders9DebugList5entry17h5c0dec54538196dfE
	movq	%r13, -48(%rbp)
	movq	%r12, %rdi
	movq	%r15, %rsi
	movq	%r14, %rdx
	callq	__ZN4core3fmt8builders9DebugList5entry17h5c0dec54538196dfE
	leaq	4(%rbx), %rax
	addq	$6, %rbx
	movq	%rax, -48(%rbp)
	movq	%r12, %rdi
	movq	%r15, %rsi
	movq	%r14, %rdx
	callq	__ZN4core3fmt8builders9DebugList5entry17h5c0dec54538196dfE
	movq	%rbx, -48(%rbp)
	movq	%r12, %rdi
	movq	%r15, %rsi
	movq	%r14, %rdx
	callq	__ZN4core3fmt8builders9DebugList5entry17h5c0dec54538196dfE
	movq	%r12, %rdi
	callq	__ZN4core3fmt8builders9DebugList6finish17h3635bd6af9b1c5a6E
	addq	$24, %rsp
	popq	%rbx
	popq	%r12
	popq	%r13
	popq	%r14
	popq	%r15
	popq	%rbp
	retq
	.cfi_endproc

	.p2align	4, 0x90
__ZN42_$LT$$RF$T$u20$as$u20$core..fmt..Debug$GT$3fmt17hc61d2187dc43ab77E:
	.cfi_startproc
	pushq	%rbp
	.cfi_def_cfa_offset 16
	.cfi_offset %rbp, -16
	movq	%rsp, %rbp
	.cfi_def_cfa_register %rbp
	pushq	%r15
	pushq	%r14
	pushq	%r13
	pushq	%r12
	pushq	%rbx
	subq	$24, %rsp
	.cfi_offset %rbx, -56
	.cfi_offset %r12, -48
	.cfi_offset %r13, -40
	.cfi_offset %r14, -32
	.cfi_offset %r15, -24
	movq	(%rdi), %rax
	movq	(%rax), %rbx
	movq	8(%rax), %r13
	leaq	-64(%rbp), %rdi
	callq	__ZN4core3fmt9Formatter10debug_list17hd054f0986422feb9E
	testq	%r13, %r13
	je	LBB132_3
	shlq	$4, %r13
	leaq	l___unnamed_226(%rip), %r14
	leaq	-64(%rbp), %r15
	leaq	-48(%rbp), %r12
	.p2align	4, 0x90
LBB132_2:
	movq	%rbx, -48(%rbp)
	addq	$16, %rbx
	movq	%r15, %rdi
	movq	%r12, %rsi
	movq	%r14, %rdx
	callq	__ZN4core3fmt8builders9DebugList5entry17h5c0dec54538196dfE
	addq	$-16, %r13
	jne	LBB132_2
LBB132_3:
	leaq	-64(%rbp), %rdi
	callq	__ZN4core3fmt8builders9DebugList6finish17h3635bd6af9b1c5a6E
	addq	$24, %rsp
	popq	%rbx
	popq	%r12
	popq	%r13
	popq	%r14
	popq	%r15
	popq	%rbp
	retq
	.cfi_endproc

	.p2align	4, 0x90
__ZN42_$LT$$RF$T$u20$as$u20$core..fmt..Debug$GT$3fmt17hc8dbf15066048907E:
	.cfi_startproc
	pushq	%rbp
	.cfi_def_cfa_offset 16
	.cfi_offset %rbp, -16
	movq	%rsp, %rbp
	.cfi_def_cfa_register %rbp
	pushq	%r15
	pushq	%r14
	pushq	%r12
	pushq	%rbx
	subq	$32, %rsp
	.cfi_offset %rbx, -48
	.cfi_offset %r12, -40
	.cfi_offset %r14, -32
	.cfi_offset %r15, -24
	movq	(%rdi), %rbx
	leaq	-56(%rbp), %r12
	movq	%r12, %rdi
	callq	__ZN4core3fmt9Formatter10debug_list17hd054f0986422feb9E
	movq	%rbx, -40(%rbp)
	leaq	l___unnamed_25(%rip), %r14
	leaq	-40(%rbp), %r15
	movq	%r12, %rdi
	movq	%r15, %rsi
	movq	%r14, %rdx
	callq	__ZN4core3fmt8builders9DebugList5entry17h5c0dec54538196dfE
	leaq	1(%rbx), %rax
	movq	%rax, -40(%rbp)
	movq	%r12, %rdi
	movq	%r15, %rsi
	movq	%r14, %rdx
	callq	__ZN4core3fmt8builders9DebugList5entry17h5c0dec54538196dfE
	leaq	2(%rbx), %rax
	movq	%rax, -40(%rbp)
	movq	%r12, %rdi
	movq	%r15, %rsi
	movq	%r14, %rdx
	callq	__ZN4core3fmt8builders9DebugList5entry17h5c0dec54538196dfE
	leaq	3(%rbx), %rax
	movq	%rax, -40(%rbp)
	movq	%r12, %rdi
	movq	%r15, %rsi
	movq	%r14, %rdx
	callq	__ZN4core3fmt8builders9DebugList5entry17h5c0dec54538196dfE
	leaq	4(%rbx), %rax
	movq	%rax, -40(%rbp)
	movq	%r12, %rdi
	movq	%r15, %rsi
	movq	%r14, %rdx
	callq	__ZN4core3fmt8builders9DebugList5entry17h5c0dec54538196dfE
	leaq	5(%rbx), %rax
	movq	%rax, -40(%rbp)
	movq	%r12, %rdi
	movq	%r15, %rsi
	movq	%r14, %rdx
	callq	__ZN4core3fmt8builders9DebugList5entry17h5c0dec54538196dfE
	leaq	6(%rbx), %rax
	movq	%rax, -40(%rbp)
	movq	%r12, %rdi
	movq	%r15, %rsi
	movq	%r14, %rdx
	callq	__ZN4core3fmt8builders9DebugList5entry17h5c0dec54538196dfE
	leaq	7(%rbx), %rax
	movq	%rax, -40(%rbp)
	movq	%r12, %rdi
	movq	%r15, %rsi
	movq	%r14, %rdx
	callq	__ZN4core3fmt8builders9DebugList5entry17h5c0dec54538196dfE
	leaq	8(%rbx), %rax
	movq	%rax, -40(%rbp)
	movq	%r12, %rdi
	movq	%r15, %rsi
	movq	%r14, %rdx
	callq	__ZN4core3fmt8builders9DebugList5entry17h5c0dec54538196dfE
	leaq	9(%rbx), %rax
	movq	%rax, -40(%rbp)
	movq	%r12, %rdi
	movq	%r15, %rsi
	movq	%r14, %rdx
	callq	__ZN4core3fmt8builders9DebugList5entry17h5c0dec54538196dfE
	leaq	10(%rbx), %rax
	movq	%rax, -40(%rbp)
	movq	%r12, %rdi
	movq	%r15, %rsi
	movq	%r14, %rdx
	callq	__ZN4core3fmt8builders9DebugList5entry17h5c0dec54538196dfE
	leaq	11(%rbx), %rax
	movq	%rax, -40(%rbp)
	movq	%r12, %rdi
	movq	%r15, %rsi
	movq	%r14, %rdx
	callq	__ZN4core3fmt8builders9DebugList5entry17h5c0dec54538196dfE
	leaq	12(%rbx), %rax
	movq	%rax, -40(%rbp)
	movq	%r12, %rdi
	movq	%r15, %rsi
	movq	%r14, %rdx
	callq	__ZN4core3fmt8builders9DebugList5entry17h5c0dec54538196dfE
	leaq	13(%rbx), %rax
	movq	%rax, -40(%rbp)
	movq	%r12, %rdi
	movq	%r15, %rsi
	movq	%r14, %rdx
	callq	__ZN4core3fmt8builders9DebugList5entry17h5c0dec54538196dfE
	leaq	14(%rbx), %rax
	movq	%rax, -40(%rbp)
	movq	%r12, %rdi
	movq	%r15, %rsi
	movq	%r14, %rdx
	callq	__ZN4core3fmt8builders9DebugList5entry17h5c0dec54538196dfE
	leaq	15(%rbx), %rax
	movq	%rax, -40(%rbp)
	movq	%r12, %rdi
	movq	%r15, %rsi
	movq	%r14, %rdx
	callq	__ZN4core3fmt8builders9DebugList5entry17h5c0dec54538196dfE
	leaq	16(%rbx), %rax
	movq	%rax, -40(%rbp)
	movq	%r12, %rdi
	movq	%r15, %rsi
	movq	%r14, %rdx
	callq	__ZN4core3fmt8builders9DebugList5entry17h5c0dec54538196dfE
	leaq	17(%rbx), %rax
	movq	%rax, -40(%rbp)
	movq	%r12, %rdi
	movq	%r15, %rsi
	movq	%r14, %rdx
	callq	__ZN4core3fmt8builders9DebugList5entry17h5c0dec54538196dfE
	leaq	18(%rbx), %rax
	movq	%rax, -40(%rbp)
	movq	%r12, %rdi
	movq	%r15, %rsi
	movq	%r14, %rdx
	callq	__ZN4core3fmt8builders9DebugList5entry17h5c0dec54538196dfE
	addq	$19, %rbx
	movq	%rbx, -40(%rbp)
	movq	%r12, %rdi
	movq	%r15, %rsi
	movq	%r14, %rdx
	callq	__ZN4core3fmt8builders9DebugList5entry17h5c0dec54538196dfE
	movq	%r12, %rdi
	callq	__ZN4core3fmt8builders9DebugList6finish17h3635bd6af9b1c5a6E
	addq	$32, %rsp
	popq	%rbx
	popq	%r12
	popq	%r14
	popq	%r15
	popq	%rbp
	retq
	.cfi_endproc

	.p2align	4, 0x90
__ZN42_$LT$$RF$T$u20$as$u20$core..fmt..Debug$GT$3fmt17hca646481e3471157E:
	.cfi_startproc
	pushq	%rbp
	.cfi_def_cfa_offset 16
	.cfi_offset %rbp, -16
	movq	%rsp, %rbp
	.cfi_def_cfa_register %rbp
	movq	(%rdi), %rdi
	popq	%rbp
	jmp	__ZN64_$LT$object..common..SectionKind$u20$as$u20$core..fmt..Debug$GT$3fmt17hb1491be106c87a5eE
	.cfi_endproc

	.p2align	4, 0x90
__ZN42_$LT$$RF$T$u20$as$u20$core..fmt..Debug$GT$3fmt17hca9e5382f96abefeE:
	.cfi_startproc
	pushq	%rbp
	.cfi_def_cfa_offset 16
	.cfi_offset %rbp, -16
	movq	%rsp, %rbp
	.cfi_def_cfa_register %rbp
	pushq	%r15
	pushq	%r14
	pushq	%r13
	pushq	%r12
	pushq	%rbx
	subq	$88, %rsp
	.cfi_offset %rbx, -56
	.cfi_offset %r12, -48
	.cfi_offset %r13, -40
	.cfi_offset %r14, -32
	.cfi_offset %r15, -24
	movq	(%rdi), %rax
	movq	(%rax), %rbx
	leaq	L___unnamed_227(%rip), %rdx
	leaq	-120(%rbp), %r13
	movl	$16, %ecx
	movq	%r13, %rdi
	callq	__ZN4core3fmt9Formatter12debug_struct17h985c0158d1fc7193E
	movq	%rbx, -48(%rbp)
	leaq	4(%rbx), %r15
	leaq	8(%rbx), %r12
	leaq	24(%rbx), %rax
	movq	%rax, -56(%rbp)
	leaq	28(%rbx), %rax
	movq	%rax, -64(%rbp)
	leaq	32(%rbx), %rax
	movq	%rax, -72(%rbp)
	leaq	36(%rbx), %rax
	movq	%rax, -80(%rbp)
	leaq	40(%rbx), %rax
	movq	%rax, -88(%rbp)
	leaq	44(%rbx), %rax
	movq	%rax, -96(%rbp)
	leaq	48(%rbx), %rax
	movq	%rax, -104(%rbp)
	leaq	52(%rbx), %rbx
	leaq	l___unnamed_228(%rip), %rsi
	leaq	l___unnamed_33(%rip), %r14
	leaq	-48(%rbp), %rcx
	movl	$3, %edx
	movq	%r13, %rdi
	movq	%r14, %r8
	callq	__ZN4core3fmt8builders11DebugStruct5field17h9c15dc155278eed2E
	movq	%r15, -48(%rbp)
	leaq	l___unnamed_229(%rip), %rsi
	leaq	-48(%rbp), %rcx
	movl	$7, %edx
	movq	%r13, %rdi
	movq	%r14, %r8
	callq	__ZN4core3fmt8builders11DebugStruct5field17h9c15dc155278eed2E
	movq	%r12, -48(%rbp)
	leaq	l___unnamed_105(%rip), %rsi
	leaq	l___unnamed_104(%rip), %r8
	leaq	-48(%rbp), %rcx
	movl	$7, %edx
	movq	%r13, %rdi
	callq	__ZN4core3fmt8builders11DebugStruct5field17h9c15dc155278eed2E
	movq	-56(%rbp), %rax
	movq	%rax, -48(%rbp)
	leaq	l___unnamed_230(%rip), %rsi
	leaq	-48(%rbp), %rcx
	movl	$6, %edx
	movq	%r13, %rdi
	movq	%r14, %r8
	callq	__ZN4core3fmt8builders11DebugStruct5field17h9c15dc155278eed2E
	movq	-64(%rbp), %rax
	movq	%rax, -48(%rbp)
	leaq	l___unnamed_231(%rip), %rsi
	leaq	-48(%rbp), %rcx
	movl	$6, %edx
	movq	%r13, %rdi
	movq	%r14, %r8
	callq	__ZN4core3fmt8builders11DebugStruct5field17h9c15dc155278eed2E
	movq	-72(%rbp), %rax
	movq	%rax, -48(%rbp)
	leaq	l___unnamed_232(%rip), %rsi
	leaq	-48(%rbp), %rcx
	movl	$7, %edx
	movq	%r13, %rdi
	movq	%r14, %r8
	callq	__ZN4core3fmt8builders11DebugStruct5field17h9c15dc155278eed2E
	movq	-80(%rbp), %rax
	movq	%rax, -48(%rbp)
	leaq	L___unnamed_233(%rip), %rsi
	leaq	-48(%rbp), %rcx
	movl	$8, %edx
	movq	%r13, %rdi
	movq	%r14, %r8
	callq	__ZN4core3fmt8builders11DebugStruct5field17h9c15dc155278eed2E
	movq	-88(%rbp), %rax
	movq	%rax, -48(%rbp)
	leaq	l___unnamed_234(%rip), %rsi
	leaq	-48(%rbp), %rcx
	movl	$7, %edx
	movq	%r13, %rdi
	movq	%r14, %r8
	callq	__ZN4core3fmt8builders11DebugStruct5field17h9c15dc155278eed2E
	movq	-96(%rbp), %rax
	movq	%rax, -48(%rbp)
	leaq	L___unnamed_235(%rip), %rsi
	leaq	-48(%rbp), %rcx
	movl	$8, %edx
	movq	%r13, %rdi
	movq	%r14, %r8
	callq	__ZN4core3fmt8builders11DebugStruct5field17h9c15dc155278eed2E
	movq	-104(%rbp), %rax
	movq	%rax, -48(%rbp)
	leaq	l___unnamed_236(%rip), %rsi
	leaq	-48(%rbp), %rcx
	movl	$6, %edx
	movq	%r13, %rdi
	movq	%r14, %r8
	callq	__ZN4core3fmt8builders11DebugStruct5field17h9c15dc155278eed2E
	movq	%rbx, -48(%rbp)
	leaq	l___unnamed_38(%rip), %rsi
	leaq	-48(%rbp), %rcx
	movl	$5, %edx
	movq	%r13, %rdi
	movq	%r14, %r8
	callq	__ZN4core3fmt8builders11DebugStruct5field17h9c15dc155278eed2E
	movq	%r13, %rdi
	callq	__ZN4core3fmt8builders11DebugStruct6finish17h26808393f3fed630E
	addq	$88, %rsp
	popq	%rbx
	popq	%r12
	popq	%r13
	popq	%r14
	popq	%r15
	popq	%rbp
	retq
	.cfi_endproc

	.p2align	4, 0x90
__ZN42_$LT$$RF$T$u20$as$u20$core..fmt..Debug$GT$3fmt17hcb60b4687d790d4aE:
	.cfi_startproc
	pushq	%rbp
	.cfi_def_cfa_offset 16
	.cfi_offset %rbp, -16
	movq	%rsp, %rbp
	.cfi_def_cfa_register %rbp
	subq	$112, %rsp
	movq	%rsi, %rax
	movq	(%rdi), %rcx
	movq	%rcx, -64(%rbp)
	leaq	1(%rcx), %rdx
	leaq	2(%rcx), %rsi
	leaq	3(%rcx), %rcx
	movq	__ZN4core3fmt3num52_$LT$impl$u20$core..fmt..LowerHex$u20$for$u20$u8$GT$3fmt17h7701faa643a10c55E@GOTPCREL(%rip), %rdi
	movq	%rdi, -56(%rbp)
	movq	%rdx, -48(%rbp)
	movq	%rdi, -40(%rbp)
	movq	%rsi, -32(%rbp)
	movq	%rdi, -24(%rbp)
	movq	%rcx, -16(%rbp)
	movq	%rdi, -8(%rbp)
	leaq	l___unnamed_237(%rip), %rcx
	movq	%rcx, -112(%rbp)
	movq	$5, -104(%rbp)
	movq	$0, -96(%rbp)
	leaq	-64(%rbp), %rcx
	movq	%rcx, -80(%rbp)
	movq	$4, -72(%rbp)
	leaq	-112(%rbp), %rsi
	movq	%rax, %rdi
	callq	__ZN4core3fmt9Formatter9write_fmt17h3dc2bf45afed3069E
	addq	$112, %rsp
	popq	%rbp
	retq
	.cfi_endproc

	.p2align	4, 0x90
__ZN42_$LT$$RF$T$u20$as$u20$core..fmt..Debug$GT$3fmt17hcbc53e14fb64d7b4E:
	.cfi_startproc
	pushq	%rbp
	.cfi_def_cfa_offset 16
	.cfi_offset %rbp, -16
	movq	%rsp, %rbp
	.cfi_def_cfa_register %rbp
	pushq	%r15
	pushq	%r14
	pushq	%r12
	pushq	%rbx
	subq	$32, %rsp
	.cfi_offset %rbx, -48
	.cfi_offset %r12, -40
	.cfi_offset %r14, -32
	.cfi_offset %r15, -24
	movq	(%rdi), %rbx
	leaq	-56(%rbp), %r12
	movq	%r12, %rdi
	callq	__ZN4core3fmt9Formatter10debug_list17hd054f0986422feb9E
	movq	%rbx, -40(%rbp)
	leaq	l___unnamed_25(%rip), %r14
	leaq	-40(%rbp), %r15
	movq	%r12, %rdi
	movq	%r15, %rsi
	movq	%r14, %rdx
	callq	__ZN4core3fmt8builders9DebugList5entry17h5c0dec54538196dfE
	leaq	1(%rbx), %rax
	movq	%rax, -40(%rbp)
	movq	%r12, %rdi
	movq	%r15, %rsi
	movq	%r14, %rdx
	callq	__ZN4core3fmt8builders9DebugList5entry17h5c0dec54538196dfE
	leaq	2(%rbx), %rax
	movq	%rax, -40(%rbp)
	movq	%r12, %rdi
	movq	%r15, %rsi
	movq	%r14, %rdx
	callq	__ZN4core3fmt8builders9DebugList5entry17h5c0dec54538196dfE
	leaq	3(%rbx), %rax
	movq	%rax, -40(%rbp)
	movq	%r12, %rdi
	movq	%r15, %rsi
	movq	%r14, %rdx
	callq	__ZN4core3fmt8builders9DebugList5entry17h5c0dec54538196dfE
	leaq	4(%rbx), %rax
	movq	%rax, -40(%rbp)
	movq	%r12, %rdi
	movq	%r15, %rsi
	movq	%r14, %rdx
	callq	__ZN4core3fmt8builders9DebugList5entry17h5c0dec54538196dfE
	leaq	5(%rbx), %rax
	movq	%rax, -40(%rbp)
	movq	%r12, %rdi
	movq	%r15, %rsi
	movq	%r14, %rdx
	callq	__ZN4core3fmt8builders9DebugList5entry17h5c0dec54538196dfE
	leaq	6(%rbx), %rax
	movq	%rax, -40(%rbp)
	movq	%r12, %rdi
	movq	%r15, %rsi
	movq	%r14, %rdx
	callq	__ZN4core3fmt8builders9DebugList5entry17h5c0dec54538196dfE
	addq	$7, %rbx
	movq	%rbx, -40(%rbp)
	movq	%r12, %rdi
	movq	%r15, %rsi
	movq	%r14, %rdx
	callq	__ZN4core3fmt8builders9DebugList5entry17h5c0dec54538196dfE
	movq	%r12, %rdi
	callq	__ZN4core3fmt8builders9DebugList6finish17h3635bd6af9b1c5a6E
	addq	$32, %rsp
	popq	%rbx
	popq	%r12
	popq	%r14
	popq	%r15
	popq	%rbp
	retq
	.cfi_endproc

	.p2align	4, 0x90
__ZN42_$LT$$RF$T$u20$as$u20$core..fmt..Debug$GT$3fmt17hce4a58fa28dc339eE:
	.cfi_startproc
	pushq	%rbp
	.cfi_def_cfa_offset 16
	.cfi_offset %rbp, -16
	movq	%rsp, %rbp
	.cfi_def_cfa_register %rbp
	movq	(%rdi), %rdi
	popq	%rbp
	jmp	__ZN55_$LT$object..elf..Ident$u20$as$u20$core..fmt..Debug$GT$3fmt17h23b710996d5f9405E
	.cfi_endproc

	.p2align	4, 0x90
__ZN42_$LT$$RF$T$u20$as$u20$core..fmt..Debug$GT$3fmt17hcf6995e801adf652E:
	.cfi_startproc
	pushq	%rbp
	.cfi_def_cfa_offset 16
	.cfi_offset %rbp, -16
	movq	%rsp, %rbp
	.cfi_def_cfa_register %rbp
	pushq	%r14
	pushq	%rbx
	subq	$32, %rsp
	.cfi_offset %rbx, -32
	.cfi_offset %r14, -24
	movq	(%rdi), %rbx
	leaq	l___unnamed_203(%rip), %rdx
	leaq	-40(%rbp), %r14
	movl	$18, %ecx
	movq	%r14, %rdi
	callq	__ZN4core3fmt9Formatter12debug_struct17h985c0158d1fc7193E
	movq	%rbx, -24(%rbp)
	addq	$8, %rbx
	leaq	L___unnamed_20(%rip), %rsi
	leaq	l___unnamed_83(%rip), %r8
	leaq	-24(%rbp), %rcx
	movl	$4, %edx
	movq	%r14, %rdi
	callq	__ZN4core3fmt8builders11DebugStruct5field17h9c15dc155278eed2E
	movq	%rbx, -24(%rbp)
	leaq	L___unnamed_22(%rip), %rsi
	leaq	l___unnamed_238(%rip), %r8
	leaq	-24(%rbp), %rcx
	movl	$4, %edx
	movq	%r14, %rdi
	callq	__ZN4core3fmt8builders11DebugStruct5field17h9c15dc155278eed2E
	movq	%r14, %rdi
	callq	__ZN4core3fmt8builders11DebugStruct6finish17h26808393f3fed630E
	addq	$32, %rsp
	popq	%rbx
	popq	%r14
	popq	%rbp
	retq
	.cfi_endproc

	.p2align	4, 0x90
__ZN42_$LT$$RF$T$u20$as$u20$core..fmt..Debug$GT$3fmt17hd12a65f5783c1285E:
	.cfi_startproc
	pushq	%rbp
	.cfi_def_cfa_offset 16
	.cfi_offset %rbp, -16
	movq	%rsp, %rbp
	.cfi_def_cfa_register %rbp
	pushq	%r14
	pushq	%rbx
	subq	$48, %rsp
	.cfi_offset %rbx, -32
	.cfi_offset %r14, -24
	movq	(%rdi), %rbx
	leaq	L___unnamed_95(%rip), %rdx
	leaq	-56(%rbp), %r14
	movl	$4, %ecx
	movq	%r14, %rdi
	callq	__ZN4core3fmt9Formatter11debug_tuple17h15ca25ad759edd1cE
	movq	(%rbx), %rax
	movq	8(%rbx), %rcx
	subq	%rax, %rcx
	shrq	$6, %rcx
	movq	%rax, -32(%rbp)
	movq	%rcx, -24(%rbp)
	leaq	l___unnamed_239(%rip), %rdx
	leaq	-32(%rbp), %rsi
	movq	%r14, %rdi
	callq	__ZN4core3fmt8builders10DebugTuple5field17hf36121153a94f236E
	movq	%rax, %rdi
	callq	__ZN4core3fmt8builders10DebugTuple6finish17h68acf09c6f6593f2E
	addq	$48, %rsp
	popq	%rbx
	popq	%r14
	popq	%rbp
	retq
	.cfi_endproc

	.p2align	4, 0x90
__ZN42_$LT$$RF$T$u20$as$u20$core..fmt..Debug$GT$3fmt17hd1b869e4112a8ad8E:
	.cfi_startproc
	pushq	%rbp
	.cfi_def_cfa_offset 16
	.cfi_offset %rbp, -16
	movq	%rsp, %rbp
	.cfi_def_cfa_register %rbp
	movq	%rsi, %rdx
	movq	(%rdi), %rax
	movq	8(%rdi), %rsi
	movq	%rax, %rdi
	popq	%rbp
	jmp	__ZN40_$LT$str$u20$as$u20$core..fmt..Debug$GT$3fmt17h2760aab2290546fcE
	.cfi_endproc

	.p2align	4, 0x90
__ZN42_$LT$$RF$T$u20$as$u20$core..fmt..Debug$GT$3fmt17hd269066cf6ebb1d6E:
	.cfi_startproc
	pushq	%rbp
	.cfi_def_cfa_offset 16
	.cfi_offset %rbp, -16
	movq	%rsp, %rbp
	.cfi_def_cfa_register %rbp
	pushq	%r15
	pushq	%r14
	pushq	%r13
	pushq	%r12
	pushq	%rbx
	subq	$24, %rsp
	.cfi_offset %rbx, -56
	.cfi_offset %r12, -48
	.cfi_offset %r13, -40
	.cfi_offset %r14, -32
	.cfi_offset %r15, -24
	movq	(%rdi), %rbx
	leaq	l___unnamed_67(%rip), %rdx
	leaq	-64(%rbp), %r15
	movl	$11, %ecx
	movq	%r15, %rdi
	callq	__ZN4core3fmt9Formatter12debug_struct17h985c0158d1fc7193E
	movq	%rbx, -48(%rbp)
	leaq	8(%rbx), %r12
	leaq	24(%rbx), %r13
	leaq	40(%rbx), %r14
	leaq	l___unnamed_175(%rip), %rsi
	leaq	l___unnamed_42(%rip), %r8
	leaq	-48(%rbp), %rcx
	movl	$7, %edx
	movq	%r15, %rdi
	callq	__ZN4core3fmt8builders11DebugStruct5field17h9c15dc155278eed2E
	movq	%r12, -48(%rbp)
	leaq	l___unnamed_16(%rip), %rsi
	leaq	l___unnamed_240(%rip), %r8
	leaq	-48(%rbp), %rcx
	movl	$7, %edx
	movq	%r15, %rdi
	callq	__ZN4core3fmt8builders11DebugStruct5field17h9c15dc155278eed2E
	movq	%r13, -48(%rbp)
	leaq	l___unnamed_69(%rip), %rsi
	leaq	l___unnamed_70(%rip), %r8
	leaq	-48(%rbp), %rcx
	movl	$7, %edx
	movq	%r15, %rdi
	callq	__ZN4core3fmt8builders11DebugStruct5field17h9c15dc155278eed2E
	movq	%r14, -48(%rbp)
	leaq	l___unnamed_190(%rip), %rsi
	leaq	l___unnamed_191(%rip), %r8
	leaq	-48(%rbp), %rcx
	movl	$5, %edx
	movq	%r15, %rdi
	callq	__ZN4core3fmt8builders11DebugStruct5field17h9c15dc155278eed2E
	movq	%r15, %rdi
	callq	__ZN4core3fmt8builders11DebugStruct6finish17h26808393f3fed630E
	addq	$24, %rsp
	popq	%rbx
	popq	%r12
	popq	%r13
	popq	%r14
	popq	%r15
	popq	%rbp
	retq
	.cfi_endproc

	.p2align	4, 0x90
__ZN42_$LT$$RF$T$u20$as$u20$core..fmt..Debug$GT$3fmt17hd2c9b8b410cbe8d1E:
	.cfi_startproc
	pushq	%rbp
	.cfi_def_cfa_offset 16
	.cfi_offset %rbp, -16
	movq	%rsp, %rbp
	.cfi_def_cfa_register %rbp
	pushq	%r15
	pushq	%r14
	pushq	%r13
	pushq	%r12
	pushq	%rbx
	subq	$104, %rsp
	.cfi_offset %rbx, -56
	.cfi_offset %r12, -48
	.cfi_offset %r13, -40
	.cfi_offset %r14, -32
	.cfi_offset %r15, -24
	movq	(%rdi), %rax
	movq	(%rax), %rbx
	leaq	l___unnamed_241(%rip), %rdx
	leaq	-136(%rbp), %r13
	movl	$12, %ecx
	movq	%r13, %rdi
	callq	__ZN4core3fmt9Formatter12debug_struct17h985c0158d1fc7193E
	movq	%rbx, -48(%rbp)
	leaq	16(%rbx), %r14
	leaq	18(%rbx), %r12
	leaq	20(%rbx), %r15
	leaq	24(%rbx), %rax
	movq	%rax, -56(%rbp)
	leaq	28(%rbx), %rax
	movq	%rax, -64(%rbp)
	leaq	32(%rbx), %rax
	movq	%rax, -72(%rbp)
	leaq	36(%rbx), %rax
	movq	%rax, -80(%rbp)
	leaq	40(%rbx), %rax
	movq	%rax, -88(%rbp)
	leaq	42(%rbx), %rax
	movq	%rax, -96(%rbp)
	leaq	44(%rbx), %rax
	movq	%rax, -104(%rbp)
	leaq	46(%rbx), %rax
	movq	%rax, -112(%rbp)
	leaq	48(%rbx), %rax
	movq	%rax, -120(%rbp)
	leaq	50(%rbx), %rbx
	leaq	l___unnamed_242(%rip), %rsi
	leaq	l___unnamed_243(%rip), %r8
	leaq	-48(%rbp), %rcx
	movl	$7, %edx
	movq	%r13, %rdi
	callq	__ZN4core3fmt8builders11DebugStruct5field17h9c15dc155278eed2E
	movq	%r14, -48(%rbp)
	leaq	l___unnamed_244(%rip), %rsi
	leaq	l___unnamed_58(%rip), %r14
	leaq	-48(%rbp), %rcx
	movl	$6, %edx
	movq	%r13, %rdi
	movq	%r14, %r8
	callq	__ZN4core3fmt8builders11DebugStruct5field17h9c15dc155278eed2E
	movq	%r12, -48(%rbp)
	leaq	l___unnamed_245(%rip), %rsi
	leaq	-48(%rbp), %rcx
	movl	$9, %edx
	movq	%r13, %rdi
	movq	%r14, %r8
	callq	__ZN4core3fmt8builders11DebugStruct5field17h9c15dc155278eed2E
	movq	%r15, -48(%rbp)
	leaq	l___unnamed_246(%rip), %rsi
	leaq	l___unnamed_33(%rip), %r15
	leaq	-48(%rbp), %rcx
	movl	$9, %edx
	movq	%r13, %rdi
	movq	%r15, %r8
	callq	__ZN4core3fmt8builders11DebugStruct5field17h9c15dc155278eed2E
	movq	-56(%rbp), %rax
	movq	%rax, -48(%rbp)
	leaq	l___unnamed_247(%rip), %rsi
	leaq	-48(%rbp), %rcx
	movl	$7, %edx
	movq	%r13, %rdi
	movq	%r15, %r8
	callq	__ZN4core3fmt8builders11DebugStruct5field17h9c15dc155278eed2E
	movq	-64(%rbp), %rax
	movq	%rax, -48(%rbp)
	leaq	l___unnamed_248(%rip), %rsi
	leaq	-48(%rbp), %rcx
	movl	$7, %edx
	movq	%r13, %rdi
	movq	%r15, %r8
	callq	__ZN4core3fmt8builders11DebugStruct5field17h9c15dc155278eed2E
	movq	-72(%rbp), %rax
	movq	%rax, -48(%rbp)
	leaq	l___unnamed_249(%rip), %rsi
	leaq	-48(%rbp), %rcx
	movl	$7, %edx
	movq	%r13, %rdi
	movq	%r15, %r8
	callq	__ZN4core3fmt8builders11DebugStruct5field17h9c15dc155278eed2E
	movq	-80(%rbp), %rax
	movq	%rax, -48(%rbp)
	leaq	l___unnamed_250(%rip), %rsi
	leaq	-48(%rbp), %rcx
	movl	$7, %edx
	movq	%r13, %rdi
	movq	%r15, %r8
	callq	__ZN4core3fmt8builders11DebugStruct5field17h9c15dc155278eed2E
	movq	-88(%rbp), %rax
	movq	%rax, -48(%rbp)
	leaq	L___unnamed_251(%rip), %rsi
	leaq	-48(%rbp), %rcx
	movl	$8, %edx
	movq	%r13, %rdi
	movq	%r14, %r8
	callq	__ZN4core3fmt8builders11DebugStruct5field17h9c15dc155278eed2E
	movq	-96(%rbp), %rax
	movq	%rax, -48(%rbp)
	leaq	l___unnamed_252(%rip), %rsi
	leaq	-48(%rbp), %rcx
	movl	$11, %edx
	movq	%r13, %rdi
	movq	%r14, %r8
	callq	__ZN4core3fmt8builders11DebugStruct5field17h9c15dc155278eed2E
	movq	-104(%rbp), %rax
	movq	%rax, -48(%rbp)
	leaq	l___unnamed_253(%rip), %rsi
	leaq	-48(%rbp), %rcx
	movl	$7, %edx
	movq	%r13, %rdi
	movq	%r14, %r8
	callq	__ZN4core3fmt8builders11DebugStruct5field17h9c15dc155278eed2E
	movq	-112(%rbp), %rax
	movq	%rax, -48(%rbp)
	leaq	l___unnamed_254(%rip), %rsi
	leaq	-48(%rbp), %rcx
	movl	$11, %edx
	movq	%r13, %rdi
	movq	%r14, %r8
	callq	__ZN4core3fmt8builders11DebugStruct5field17h9c15dc155278eed2E
	movq	-120(%rbp), %rax
	movq	%rax, -48(%rbp)
	leaq	l___unnamed_255(%rip), %rsi
	leaq	-48(%rbp), %rcx
	movl	$7, %edx
	movq	%r13, %rdi
	movq	%r14, %r8
	callq	__ZN4core3fmt8builders11DebugStruct5field17h9c15dc155278eed2E
	movq	%rbx, -48(%rbp)
	leaq	l___unnamed_256(%rip), %rsi
	leaq	-48(%rbp), %rcx
	movl	$10, %edx
	movq	%r13, %rdi
	movq	%r14, %r8
	callq	__ZN4core3fmt8builders11DebugStruct5field17h9c15dc155278eed2E
	movq	%r13, %rdi
	callq	__ZN4core3fmt8builders11DebugStruct6finish17h26808393f3fed630E
	addq	$104, %rsp
	popq	%rbx
	popq	%r12
	popq	%r13
	popq	%r14
	popq	%r15
	popq	%rbp
	retq
	.cfi_endproc

	.p2align	4, 0x90
__ZN42_$LT$$RF$T$u20$as$u20$core..fmt..Debug$GT$3fmt17hd5287d87ce5c84dfE:
	.cfi_startproc
	pushq	%rbp
	.cfi_def_cfa_offset 16
	.cfi_offset %rbp, -16
	movq	%rsp, %rbp
	.cfi_def_cfa_register %rbp
	pushq	%r15
	pushq	%r14
	pushq	%rbx
	subq	$24, %rsp
	.cfi_offset %rbx, -40
	.cfi_offset %r14, -32
	.cfi_offset %r15, -24
	movq	(%rdi), %rbx
	leaq	20(%rbx), %r15
	leaq	l___unnamed_257(%rip), %rdx
	leaq	-48(%rbp), %r14
	movl	$24, %ecx
	movq	%r14, %rdi
	callq	__ZN4core3fmt9Formatter12debug_struct17h985c0158d1fc7193E
	movq	%r15, -32(%rbp)
	leaq	l___unnamed_4(%rip), %rsi
	leaq	l___unnamed_5(%rip), %r8
	leaq	-32(%rbp), %rcx
	movl	$6, %edx
	movq	%r14, %rdi
	callq	__ZN4core3fmt8builders11DebugStruct5field17h9c15dc155278eed2E
	movq	%rbx, -32(%rbp)
	addq	$16, %rbx
	leaq	L___unnamed_6(%rip), %rsi
	leaq	l___unnamed_7(%rip), %r8
	leaq	-32(%rbp), %rcx
	movl	$4, %edx
	movq	%r14, %rdi
	callq	__ZN4core3fmt8builders11DebugStruct5field17h9c15dc155278eed2E
	movq	%rbx, -32(%rbp)
	leaq	l___unnamed_36(%rip), %rsi
	leaq	l___unnamed_188(%rip), %r8
	leaq	-32(%rbp), %rcx
	movl	$5, %edx
	movq	%r14, %rdi
	callq	__ZN4core3fmt8builders11DebugStruct5field17h9c15dc155278eed2E
	movq	%r14, %rdi
	callq	__ZN4core3fmt8builders11DebugStruct6finish17h26808393f3fed630E
	addq	$24, %rsp
	popq	%rbx
	popq	%r14
	popq	%r15
	popq	%rbp
	retq
	.cfi_endproc

	.p2align	4, 0x90
__ZN42_$LT$$RF$T$u20$as$u20$core..fmt..Debug$GT$3fmt17hd5dbe0f18a285a3aE:
	.cfi_startproc
	pushq	%rbp
	.cfi_def_cfa_offset 16
	.cfi_offset %rbp, -16
	movq	%rsp, %rbp
	.cfi_def_cfa_register %rbp
	movq	(%rdi), %rdi
	popq	%rbp
	jmp	__ZN64_$LT$object..pe..ImageFileHeader$u20$as$u20$core..fmt..Debug$GT$3fmt17h605d330e64a9dc1dE
	.cfi_endproc

	.p2align	4, 0x90
__ZN42_$LT$$RF$T$u20$as$u20$core..fmt..Debug$GT$3fmt17hd8a6d65413a26715E:
	.cfi_startproc
	pushq	%rbp
	.cfi_def_cfa_offset 16
	.cfi_offset %rbp, -16
	movq	%rsp, %rbp
	.cfi_def_cfa_register %rbp
	pushq	%r14
	pushq	%rbx
	subq	$32, %rsp
	.cfi_offset %rbx, -32
	.cfi_offset %r14, -24
	movq	(%rdi), %rbx
	leaq	l___unnamed_258(%rip), %rdx
	leaq	-48(%rbp), %r14
	movl	$20, %ecx
	movq	%r14, %rdi
	callq	__ZN4core3fmt9Formatter11debug_tuple17h15ca25ad759edd1cE
	movq	%rbx, -24(%rbp)
	leaq	l___unnamed_259(%rip), %rdx
	leaq	-24(%rbp), %rsi
	movq	%r14, %rdi
	callq	__ZN4core3fmt8builders10DebugTuple5field17hf36121153a94f236E
	movq	%r14, %rdi
	callq	__ZN4core3fmt8builders10DebugTuple6finish17h68acf09c6f6593f2E
	addq	$32, %rsp
	popq	%rbx
	popq	%r14
	popq	%rbp
	retq
	.cfi_endproc

	.p2align	4, 0x90
__ZN42_$LT$$RF$T$u20$as$u20$core..fmt..Debug$GT$3fmt17hdab98bfd67f59decE:
	.cfi_startproc
	pushq	%rbp
	.cfi_def_cfa_offset 16
	.cfi_offset %rbp, -16
	movq	%rsp, %rbp
	.cfi_def_cfa_register %rbp
	pushq	%r15
	pushq	%r14
	pushq	%r12
	pushq	%rbx
	subq	$32, %rsp
	.cfi_offset %rbx, -48
	.cfi_offset %r12, -40
	.cfi_offset %r14, -32
	.cfi_offset %r15, -24
	movq	(%rdi), %rbx
	leaq	-56(%rbp), %r12
	movq	%r12, %rdi
	callq	__ZN4core3fmt9Formatter10debug_list17hd054f0986422feb9E
	movq	%rbx, -40(%rbp)
	leaq	l___unnamed_25(%rip), %r14
	leaq	-40(%rbp), %r15
	movq	%r12, %rdi
	movq	%r15, %rsi
	movq	%r14, %rdx
	callq	__ZN4core3fmt8builders9DebugList5entry17h5c0dec54538196dfE
	leaq	1(%rbx), %rax
	movq	%rax, -40(%rbp)
	movq	%r12, %rdi
	movq	%r15, %rsi
	movq	%r14, %rdx
	callq	__ZN4core3fmt8builders9DebugList5entry17h5c0dec54538196dfE
	leaq	2(%rbx), %rax
	movq	%rax, -40(%rbp)
	movq	%r12, %rdi
	movq	%r15, %rsi
	movq	%r14, %rdx
	callq	__ZN4core3fmt8builders9DebugList5entry17h5c0dec54538196dfE
	leaq	3(%rbx), %rax
	movq	%rax, -40(%rbp)
	movq	%r12, %rdi
	movq	%r15, %rsi
	movq	%r14, %rdx
	callq	__ZN4core3fmt8builders9DebugList5entry17h5c0dec54538196dfE
	leaq	4(%rbx), %rax
	movq	%rax, -40(%rbp)
	movq	%r12, %rdi
	movq	%r15, %rsi
	movq	%r14, %rdx
	callq	__ZN4core3fmt8builders9DebugList5entry17h5c0dec54538196dfE
	leaq	5(%rbx), %rax
	movq	%rax, -40(%rbp)
	movq	%r12, %rdi
	movq	%r15, %rsi
	movq	%r14, %rdx
	callq	__ZN4core3fmt8builders9DebugList5entry17h5c0dec54538196dfE
	leaq	6(%rbx), %rax
	movq	%rax, -40(%rbp)
	movq	%r12, %rdi
	movq	%r15, %rsi
	movq	%r14, %rdx
	callq	__ZN4core3fmt8builders9DebugList5entry17h5c0dec54538196dfE
	leaq	7(%rbx), %rax
	movq	%rax, -40(%rbp)
	movq	%r12, %rdi
	movq	%r15, %rsi
	movq	%r14, %rdx
	callq	__ZN4core3fmt8builders9DebugList5entry17h5c0dec54538196dfE
	leaq	8(%rbx), %rax
	movq	%rax, -40(%rbp)
	movq	%r12, %rdi
	movq	%r15, %rsi
	movq	%r14, %rdx
	callq	__ZN4core3fmt8builders9DebugList5entry17h5c0dec54538196dfE
	addq	$9, %rbx
	movq	%rbx, -40(%rbp)
	movq	%r12, %rdi
	movq	%r15, %rsi
	movq	%r14, %rdx
	callq	__ZN4core3fmt8builders9DebugList5entry17h5c0dec54538196dfE
	movq	%r12, %rdi
	callq	__ZN4core3fmt8builders9DebugList6finish17h3635bd6af9b1c5a6E
	addq	$32, %rsp
	popq	%rbx
	popq	%r12
	popq	%r14
	popq	%r15
	popq	%rbp
	retq
	.cfi_endproc

	.p2align	4, 0x90
__ZN42_$LT$$RF$T$u20$as$u20$core..fmt..Debug$GT$3fmt17hdc04eeeb8d5b95b4E:
	.cfi_startproc
	pushq	%rbp
	.cfi_def_cfa_offset 16
	.cfi_offset %rbp, -16
	movq	%rsp, %rbp
	.cfi_def_cfa_register %rbp
	pushq	%r15
	pushq	%r14
	pushq	%r13
	pushq	%r12
	pushq	%rbx
	subq	$104, %rsp
	.cfi_offset %rbx, -56
	.cfi_offset %r12, -48
	.cfi_offset %r13, -40
	.cfi_offset %r14, -32
	.cfi_offset %r15, -24
	movq	(%rdi), %rax
	movq	(%rax), %rbx
	leaq	l___unnamed_260(%rip), %rdx
	leaq	-144(%rbp), %r14
	movl	$12, %ecx
	movq	%r14, %rdi
	callq	__ZN4core3fmt9Formatter12debug_struct17h985c0158d1fc7193E
	movq	%rbx, -48(%rbp)
	leaq	16(%rbx), %r12
	leaq	18(%rbx), %r13
	leaq	20(%rbx), %r15
	leaq	24(%rbx), %rax
	movq	%rax, -56(%rbp)
	leaq	32(%rbx), %rax
	movq	%rax, -64(%rbp)
	leaq	40(%rbx), %rax
	movq	%rax, -72(%rbp)
	leaq	48(%rbx), %rax
	movq	%rax, -80(%rbp)
	leaq	52(%rbx), %rax
	movq	%rax, -88(%rbp)
	leaq	54(%rbx), %rax
	movq	%rax, -96(%rbp)
	leaq	56(%rbx), %rax
	movq	%rax, -104(%rbp)
	leaq	58(%rbx), %rax
	movq	%rax, -112(%rbp)
	leaq	60(%rbx), %rax
	movq	%rax, -120(%rbp)
	leaq	62(%rbx), %rax
	movq	%rax, -128(%rbp)
	leaq	l___unnamed_242(%rip), %rsi
	leaq	l___unnamed_243(%rip), %r8
	leaq	-48(%rbp), %rcx
	movl	$7, %edx
	movq	%r14, %rdi
	callq	__ZN4core3fmt8builders11DebugStruct5field17h9c15dc155278eed2E
	movq	%r12, -48(%rbp)
	leaq	l___unnamed_244(%rip), %rsi
	leaq	l___unnamed_58(%rip), %rbx
	leaq	-48(%rbp), %rcx
	movl	$6, %edx
	movq	%r14, %rdi
	movq	%rbx, %r8
	callq	__ZN4core3fmt8builders11DebugStruct5field17h9c15dc155278eed2E
	movq	%r13, -48(%rbp)
	leaq	l___unnamed_245(%rip), %rsi
	leaq	-48(%rbp), %rcx
	movl	$9, %edx
	movq	%r14, %rdi
	movq	%rbx, %r8
	callq	__ZN4core3fmt8builders11DebugStruct5field17h9c15dc155278eed2E
	movq	%r15, -48(%rbp)
	leaq	l___unnamed_246(%rip), %rsi
	leaq	l___unnamed_33(%rip), %r15
	leaq	-48(%rbp), %rcx
	movl	$9, %edx
	movq	%r14, %rdi
	movq	%r15, %r8
	callq	__ZN4core3fmt8builders11DebugStruct5field17h9c15dc155278eed2E
	movq	-56(%rbp), %rax
	movq	%rax, -48(%rbp)
	leaq	l___unnamed_247(%rip), %rsi
	leaq	l___unnamed_60(%rip), %r12
	leaq	-48(%rbp), %rcx
	movl	$7, %edx
	movq	%r14, %rdi
	movq	%r12, %r8
	callq	__ZN4core3fmt8builders11DebugStruct5field17h9c15dc155278eed2E
	movq	-64(%rbp), %rax
	movq	%rax, -48(%rbp)
	leaq	l___unnamed_248(%rip), %rsi
	leaq	-48(%rbp), %rcx
	movl	$7, %edx
	movq	%r14, %rdi
	movq	%r12, %r8
	callq	__ZN4core3fmt8builders11DebugStruct5field17h9c15dc155278eed2E
	movq	-72(%rbp), %rax
	movq	%rax, -48(%rbp)
	leaq	l___unnamed_249(%rip), %rsi
	leaq	-48(%rbp), %rcx
	movl	$7, %edx
	movq	%r14, %rdi
	movq	%r12, %r8
	callq	__ZN4core3fmt8builders11DebugStruct5field17h9c15dc155278eed2E
	movq	-80(%rbp), %rax
	movq	%rax, -48(%rbp)
	leaq	l___unnamed_250(%rip), %rsi
	leaq	-48(%rbp), %rcx
	movl	$7, %edx
	movq	%r14, %rdi
	movq	%r15, %r8
	callq	__ZN4core3fmt8builders11DebugStruct5field17h9c15dc155278eed2E
	movq	-88(%rbp), %rax
	movq	%rax, -48(%rbp)
	leaq	L___unnamed_251(%rip), %rsi
	leaq	-48(%rbp), %rcx
	movl	$8, %edx
	movq	%r14, %rdi
	movq	%rbx, %r8
	callq	__ZN4core3fmt8builders11DebugStruct5field17h9c15dc155278eed2E
	movq	-96(%rbp), %rax
	movq	%rax, -48(%rbp)
	leaq	l___unnamed_252(%rip), %rsi
	leaq	-48(%rbp), %rcx
	movl	$11, %edx
	movq	%r14, %rdi
	movq	%rbx, %r8
	callq	__ZN4core3fmt8builders11DebugStruct5field17h9c15dc155278eed2E
	movq	-104(%rbp), %rax
	movq	%rax, -48(%rbp)
	leaq	l___unnamed_253(%rip), %rsi
	leaq	-48(%rbp), %rcx
	movl	$7, %edx
	movq	%r14, %rdi
	movq	%rbx, %r8
	callq	__ZN4core3fmt8builders11DebugStruct5field17h9c15dc155278eed2E
	movq	-112(%rbp), %rax
	movq	%rax, -48(%rbp)
	leaq	l___unnamed_254(%rip), %rsi
	leaq	-48(%rbp), %rcx
	movl	$11, %edx
	movq	%r14, %rdi
	movq	%rbx, %r8
	callq	__ZN4core3fmt8builders11DebugStruct5field17h9c15dc155278eed2E
	movq	-120(%rbp), %rax
	movq	%rax, -48(%rbp)
	leaq	l___unnamed_255(%rip), %rsi
	leaq	-48(%rbp), %rcx
	movl	$7, %edx
	movq	%r14, %rdi
	movq	%rbx, %r8
	callq	__ZN4core3fmt8builders11DebugStruct5field17h9c15dc155278eed2E
	movq	-128(%rbp), %rax
	movq	%rax, -48(%rbp)
	leaq	l___unnamed_256(%rip), %rsi
	leaq	-48(%rbp), %rcx
	movl	$10, %edx
	movq	%r14, %rdi
	movq	%rbx, %r8
	callq	__ZN4core3fmt8builders11DebugStruct5field17h9c15dc155278eed2E
	movq	%r14, %rdi
	callq	__ZN4core3fmt8builders11DebugStruct6finish17h26808393f3fed630E
	addq	$104, %rsp
	popq	%rbx
	popq	%r12
	popq	%r13
	popq	%r14
	popq	%r15
	popq	%rbp
	retq
	.cfi_endproc

	.p2align	4, 0x90
__ZN42_$LT$$RF$T$u20$as$u20$core..fmt..Debug$GT$3fmt17hdd7f565aa2625363E:
	.cfi_startproc
	pushq	%rbp
	.cfi_def_cfa_offset 16
	.cfi_offset %rbp, -16
	movq	%rsp, %rbp
	.cfi_def_cfa_register %rbp
	pushq	%r14
	pushq	%rbx
	subq	$32, %rsp
	.cfi_offset %rbx, -32
	.cfi_offset %r14, -24
	movq	(%rdi), %rbx
	leaq	l___unnamed_222(%rip), %rdx
	leaq	-40(%rbp), %r14
	movl	$17, %ecx
	movq	%r14, %rdi
	callq	__ZN4core3fmt9Formatter12debug_struct17h985c0158d1fc7193E
	movq	%rbx, -24(%rbp)
	addq	$8, %rbx
	leaq	L___unnamed_20(%rip), %rsi
	leaq	l___unnamed_21(%rip), %r8
	leaq	-24(%rbp), %rcx
	movl	$4, %edx
	movq	%r14, %rdi
	callq	__ZN4core3fmt8builders11DebugStruct5field17h9c15dc155278eed2E
	movq	%rbx, -24(%rbp)
	leaq	L___unnamed_22(%rip), %rsi
	leaq	l___unnamed_94(%rip), %r8
	leaq	-24(%rbp), %rcx
	movl	$4, %edx
	movq	%r14, %rdi
	callq	__ZN4core3fmt8builders11DebugStruct5field17h9c15dc155278eed2E
	movq	%r14, %rdi
	callq	__ZN4core3fmt8builders11DebugStruct6finish17h26808393f3fed630E
	addq	$32, %rsp
	popq	%rbx
	popq	%r14
	popq	%rbp
	retq
	.cfi_endproc

	.p2align	4, 0x90
__ZN42_$LT$$RF$T$u20$as$u20$core..fmt..Debug$GT$3fmt17hde2781308e0b0938E:
	.cfi_startproc
	pushq	%rbp
	.cfi_def_cfa_offset 16
	.cfi_offset %rbp, -16
	movq	%rsp, %rbp
	.cfi_def_cfa_register %rbp
	pushq	%r14
	pushq	%rbx
	subq	$32, %rsp
	.cfi_offset %rbx, -32
	.cfi_offset %r14, -24
	movq	(%rdi), %rbx
	leaq	l___unnamed_117(%rip), %rdx
	leaq	-40(%rbp), %r14
	movl	$9, %ecx
	movq	%r14, %rdi
	callq	__ZN4core3fmt9Formatter12debug_struct17h985c0158d1fc7193E
	movq	%rbx, -24(%rbp)
	addq	$16, %rbx
	leaq	L___unnamed_22(%rip), %rsi
	leaq	l___unnamed_23(%rip), %r8
	leaq	-24(%rbp), %rcx
	movl	$4, %edx
	movq	%r14, %rdi
	callq	__ZN4core3fmt8builders11DebugStruct5field17h9c15dc155278eed2E
	movq	%rbx, -24(%rbp)
	leaq	l___unnamed_119(%rip), %rsi
	leaq	l___unnamed_42(%rip), %r8
	leaq	-24(%rbp), %rcx
	movl	$5, %edx
	movq	%r14, %rdi
	callq	__ZN4core3fmt8builders11DebugStruct5field17h9c15dc155278eed2E
	movq	%r14, %rdi
	callq	__ZN4core3fmt8builders11DebugStruct6finish17h26808393f3fed630E
	addq	$32, %rsp
	popq	%rbx
	popq	%r14
	popq	%rbp
	retq
	.cfi_endproc

	.p2align	4, 0x90
__ZN42_$LT$$RF$T$u20$as$u20$core..fmt..Debug$GT$3fmt17hdf648b44588a160cE:
	.cfi_startproc
	pushq	%rbp
	.cfi_def_cfa_offset 16
	.cfi_offset %rbp, -16
	movq	%rsp, %rbp
	.cfi_def_cfa_register %rbp
	pushq	%rbx
	subq	$24, %rsp
	.cfi_offset %rbx, -24
	movq	(%rdi), %rax
	cmpb	$1, (%rax)
	jne	LBB151_2
	leaq	-32(%rbp), %rbx
	leaq	l___unnamed_261(%rip), %rdx
	movl	$3, %ecx
	jmp	LBB151_3
LBB151_2:
	leaq	-32(%rbp), %rbx
	leaq	l___unnamed_262(%rip), %rdx
	movl	$6, %ecx
LBB151_3:
	movq	%rbx, %rdi
	callq	__ZN4core3fmt9Formatter11debug_tuple17h15ca25ad759edd1cE
	movq	%rbx, %rdi
	callq	__ZN4core3fmt8builders10DebugTuple6finish17h68acf09c6f6593f2E
	addq	$24, %rsp
	popq	%rbx
	popq	%rbp
	retq
	.cfi_endproc

	.p2align	4, 0x90
__ZN42_$LT$$RF$T$u20$as$u20$core..fmt..Debug$GT$3fmt17he2a3ce9cea6a618eE:
	.cfi_startproc
	pushq	%rbp
	.cfi_def_cfa_offset 16
	.cfi_offset %rbp, -16
	movq	%rsp, %rbp
	.cfi_def_cfa_register %rbp
	pushq	%r14
	pushq	%rbx
	subq	$32, %rsp
	.cfi_offset %rbx, -32
	.cfi_offset %r14, -24
	movq	(%rdi), %rbx
	leaq	l___unnamed_263(%rip), %rdx
	leaq	-40(%rbp), %r14
	movl	$18, %ecx
	movq	%r14, %rdi
	callq	__ZN4core3fmt9Formatter12debug_struct17h985c0158d1fc7193E
	movq	%rbx, -24(%rbp)
	leaq	l___unnamed_14(%rip), %rsi
	leaq	l___unnamed_264(%rip), %r8
	leaq	-24(%rbp), %rcx
	movl	$11, %edx
	movq	%r14, %rdi
	callq	__ZN4core3fmt8builders11DebugStruct5field17h9c15dc155278eed2E
	movq	%r14, %rdi
	callq	__ZN4core3fmt8builders11DebugStruct6finish17h26808393f3fed630E
	addq	$32, %rsp
	popq	%rbx
	popq	%r14
	popq	%rbp
	retq
	.cfi_endproc

	.p2align	4, 0x90
__ZN42_$LT$$RF$T$u20$as$u20$core..fmt..Debug$GT$3fmt17he2c12ab8219a9aa8E:
	.cfi_startproc
	pushq	%rbp
	.cfi_def_cfa_offset 16
	.cfi_offset %rbp, -16
	movq	%rsp, %rbp
	.cfi_def_cfa_register %rbp
	movq	%rsi, %rdx
	movq	(%rdi), %rax
	movq	(%rax), %rdi
	movq	8(%rax), %rsi
	popq	%rbp
	jmp	__ZN40_$LT$str$u20$as$u20$core..fmt..Debug$GT$3fmt17h2760aab2290546fcE
	.cfi_endproc

	.p2align	4, 0x90
__ZN42_$LT$$RF$T$u20$as$u20$core..fmt..Debug$GT$3fmt17he3af49d5fe73fa88E:
	.cfi_startproc
	pushq	%rbp
	.cfi_def_cfa_offset 16
	.cfi_offset %rbp, -16
	movq	%rsp, %rbp
	.cfi_def_cfa_register %rbp
	pushq	%r15
	pushq	%r14
	pushq	%r13
	pushq	%r12
	pushq	%rbx
	subq	$24, %rsp
	.cfi_offset %rbx, -56
	.cfi_offset %r12, -48
	.cfi_offset %r13, -40
	.cfi_offset %r14, -32
	.cfi_offset %r15, -24
	movq	(%rdi), %rax
	movq	(%rax), %rbx
	leaq	80(%rbx), %r14
	leaq	l___unnamed_123(%rip), %rdx
	leaq	-64(%rbp), %r15
	movl	$9, %ecx
	movq	%r15, %rdi
	callq	__ZN4core3fmt9Formatter12debug_struct17h985c0158d1fc7193E
	movq	%r14, -48(%rbp)
	leaq	l___unnamed_4(%rip), %rsi
	leaq	l___unnamed_5(%rip), %r8
	leaq	-48(%rbp), %rcx
	movl	$6, %edx
	movq	%r15, %rdi
	callq	__ZN4core3fmt8builders11DebugStruct5field17h9c15dc155278eed2E
	movq	%rbx, -48(%rbp)
	leaq	16(%rbx), %r12
	leaq	24(%rbx), %r13
	leaq	48(%rbx), %r14
	leaq	L___unnamed_6(%rip), %rsi
	leaq	l___unnamed_7(%rip), %r8
	leaq	-48(%rbp), %rcx
	movl	$4, %edx
	movq	%r15, %rdi
	callq	__ZN4core3fmt8builders11DebugStruct5field17h9c15dc155278eed2E
	movq	%r12, -48(%rbp)
	leaq	l___unnamed_8(%rip), %rsi
	leaq	l___unnamed_124(%rip), %r8
	leaq	-48(%rbp), %rcx
	movl	$6, %edx
	movq	%r15, %rdi
	callq	__ZN4core3fmt8builders11DebugStruct5field17h9c15dc155278eed2E
	movq	%r13, -48(%rbp)
	leaq	L___unnamed_12(%rip), %rsi
	leaq	l___unnamed_125(%rip), %r8
	leaq	-48(%rbp), %rcx
	movl	$8, %edx
	movq	%r15, %rdi
	callq	__ZN4core3fmt8builders11DebugStruct5field17h9c15dc155278eed2E
	movq	%r14, -48(%rbp)
	leaq	l___unnamed_16(%rip), %rsi
	leaq	l___unnamed_126(%rip), %r8
	leaq	-48(%rbp), %rcx
	movl	$7, %edx
	movq	%r15, %rdi
	callq	__ZN4core3fmt8builders11DebugStruct5field17h9c15dc155278eed2E
	movq	%r15, %rdi
	callq	__ZN4core3fmt8builders11DebugStruct6finish17h26808393f3fed630E
	addq	$24, %rsp
	popq	%rbx
	popq	%r12
	popq	%r13
	popq	%r14
	popq	%r15
	popq	%rbp
	retq
	.cfi_endproc

	.p2align	4, 0x90
__ZN42_$LT$$RF$T$u20$as$u20$core..fmt..Debug$GT$3fmt17he71c3477ba95b379E:
	.cfi_startproc
	pushq	%rbp
	.cfi_def_cfa_offset 16
	.cfi_offset %rbp, -16
	movq	%rsp, %rbp
	.cfi_def_cfa_register %rbp
	movq	(%rdi), %rdi
	popq	%rbp
	jmp	__ZN82_$LT$object..read..any..RelocationIteratorInternal$u20$as$u20$core..fmt..Debug$GT$3fmt17hb4d5ac665cba8b55E
	.cfi_endproc

	.p2align	4, 0x90
__ZN42_$LT$$RF$T$u20$as$u20$core..fmt..Debug$GT$3fmt17he7640899bde136f0E:
	.cfi_startproc
	pushq	%rbp
	.cfi_def_cfa_offset 16
	.cfi_offset %rbp, -16
	movq	%rsp, %rbp
	.cfi_def_cfa_register %rbp
	pushq	%rbx
	subq	$24, %rsp
	.cfi_offset %rbx, -24
	leaq	l___unnamed_265(%rip), %rdx
	leaq	-24(%rbp), %rbx
	movl	$18, %ecx
	movq	%rbx, %rdi
	callq	__ZN4core3fmt9Formatter12debug_struct17h985c0158d1fc7193E
	movq	%rbx, %rdi
	callq	__ZN4core3fmt8builders11DebugStruct6finish17h26808393f3fed630E
	addq	$24, %rsp
	popq	%rbx
	popq	%rbp
	retq
	.cfi_endproc

	.p2align	4, 0x90
__ZN42_$LT$$RF$T$u20$as$u20$core..fmt..Debug$GT$3fmt17he89fc533a0e69722E:
	.cfi_startproc
	pushq	%rbp
	.cfi_def_cfa_offset 16
	.cfi_offset %rbp, -16
	movq	%rsp, %rbp
	.cfi_def_cfa_register %rbp
	pushq	%r15
	pushq	%r14
	pushq	%r13
	pushq	%r12
	pushq	%rbx
	subq	$24, %rsp
	.cfi_offset %rbx, -56
	.cfi_offset %r12, -48
	.cfi_offset %r13, -40
	.cfi_offset %r14, -32
	.cfi_offset %r15, -24
	movq	(%rdi), %rax
	movq	(%rax), %rbx
	movq	8(%rax), %r13
	leaq	-64(%rbp), %rdi
	callq	__ZN4core3fmt9Formatter10debug_list17hd054f0986422feb9E
	testq	%r13, %r13
	je	LBB157_3
	shlq	$3, %r13
	leaq	l___unnamed_266(%rip), %r14
	leaq	-64(%rbp), %r15
	leaq	-48(%rbp), %r12
	.p2align	4, 0x90
LBB157_2:
	movq	%rbx, -48(%rbp)
	addq	$8, %rbx
	movq	%r15, %rdi
	movq	%r12, %rsi
	movq	%r14, %rdx
	callq	__ZN4core3fmt8builders9DebugList5entry17h5c0dec54538196dfE
	addq	$-8, %r13
	jne	LBB157_2
LBB157_3:
	leaq	-64(%rbp), %rdi
	callq	__ZN4core3fmt8builders9DebugList6finish17h3635bd6af9b1c5a6E
	addq	$24, %rsp
	popq	%rbx
	popq	%r12
	popq	%r13
	popq	%r14
	popq	%r15
	popq	%rbp
	retq
	.cfi_endproc

	.p2align	4, 0x90
__ZN42_$LT$$RF$T$u20$as$u20$core..fmt..Debug$GT$3fmt17he8a339bf741b4be9E:
	.cfi_startproc
	pushq	%rbp
	.cfi_def_cfa_offset 16
	.cfi_offset %rbp, -16
	movq	%rsp, %rbp
	.cfi_def_cfa_register %rbp
	pushq	%r15
	pushq	%r14
	pushq	%r12
	pushq	%rbx
	subq	$32, %rsp
	.cfi_offset %rbx, -48
	.cfi_offset %r12, -40
	.cfi_offset %r14, -32
	.cfi_offset %r15, -24
	movq	(%rdi), %rbx
	leaq	-56(%rbp), %r12
	movq	%r12, %rdi
	callq	__ZN4core3fmt9Formatter10debug_list17hd054f0986422feb9E
	movq	%rbx, -40(%rbp)
	leaq	l___unnamed_25(%rip), %r14
	leaq	-40(%rbp), %r15
	movq	%r12, %rdi
	movq	%r15, %rsi
	movq	%r14, %rdx
	callq	__ZN4core3fmt8builders9DebugList5entry17h5c0dec54538196dfE
	leaq	1(%rbx), %rax
	movq	%rax, -40(%rbp)
	movq	%r12, %rdi
	movq	%r15, %rsi
	movq	%r14, %rdx
	callq	__ZN4core3fmt8builders9DebugList5entry17h5c0dec54538196dfE
	leaq	2(%rbx), %rax
	movq	%rax, -40(%rbp)
	movq	%r12, %rdi
	movq	%r15, %rsi
	movq	%r14, %rdx
	callq	__ZN4core3fmt8builders9DebugList5entry17h5c0dec54538196dfE
	leaq	3(%rbx), %rax
	movq	%rax, -40(%rbp)
	movq	%r12, %rdi
	movq	%r15, %rsi
	movq	%r14, %rdx
	callq	__ZN4core3fmt8builders9DebugList5entry17h5c0dec54538196dfE
	leaq	4(%rbx), %rax
	movq	%rax, -40(%rbp)
	movq	%r12, %rdi
	movq	%r15, %rsi
	movq	%r14, %rdx
	callq	__ZN4core3fmt8builders9DebugList5entry17h5c0dec54538196dfE
	leaq	5(%rbx), %rax
	movq	%rax, -40(%rbp)
	movq	%r12, %rdi
	movq	%r15, %rsi
	movq	%r14, %rdx
	callq	__ZN4core3fmt8builders9DebugList5entry17h5c0dec54538196dfE
	addq	$6, %rbx
	movq	%rbx, -40(%rbp)
	movq	%r12, %rdi
	movq	%r15, %rsi
	movq	%r14, %rdx
	callq	__ZN4core3fmt8builders9DebugList5entry17h5c0dec54538196dfE
	movq	%r12, %rdi
	callq	__ZN4core3fmt8builders9DebugList6finish17h3635bd6af9b1c5a6E
	addq	$32, %rsp
	popq	%rbx
	popq	%r12
	popq	%r14
	popq	%r15
	popq	%rbp
	retq
	.cfi_endproc

	.p2align	4, 0x90
__ZN42_$LT$$RF$T$u20$as$u20$core..fmt..Debug$GT$3fmt17he9723617618bf771E:
	.cfi_startproc
	pushq	%rbp
	.cfi_def_cfa_offset 16
	.cfi_offset %rbp, -16
	movq	%rsp, %rbp
	.cfi_def_cfa_register %rbp
	pushq	%r15
	pushq	%r14
	pushq	%rbx
	subq	$24, %rsp
	.cfi_offset %rbx, -40
	.cfi_offset %r14, -32
	.cfi_offset %r15, -24
	movq	(%rdi), %rbx
	leaq	l___unnamed_198(%rip), %rdx
	leaq	-48(%rbp), %r14
	movl	$20, %ecx
	movq	%r14, %rdi
	callq	__ZN4core3fmt9Formatter12debug_struct17h985c0158d1fc7193E
	movq	%rbx, -32(%rbp)
	leaq	16(%rbx), %r15
	addq	$8, %rbx
	leaq	l___unnamed_199(%rip), %rsi
	leaq	l___unnamed_168(%rip), %r8
	leaq	-32(%rbp), %rcx
	movl	$5, %edx
	movq	%r14, %rdi
	callq	__ZN4core3fmt8builders11DebugStruct5field17h9c15dc155278eed2E
	movq	%r15, -32(%rbp)
	leaq	L___unnamed_200(%rip), %rsi
	leaq	l___unnamed_201(%rip), %r8
	leaq	-32(%rbp), %rcx
	movl	$4, %edx
	movq	%r14, %rdi
	callq	__ZN4core3fmt8builders11DebugStruct5field17h9c15dc155278eed2E
	movq	%rbx, -32(%rbp)
	leaq	l___unnamed_175(%rip), %rsi
	leaq	l___unnamed_267(%rip), %r8
	leaq	-32(%rbp), %rcx
	movl	$7, %edx
	movq	%r14, %rdi
	callq	__ZN4core3fmt8builders11DebugStruct5field17h9c15dc155278eed2E
	movq	%r14, %rdi
	callq	__ZN4core3fmt8builders11DebugStruct6finish17h26808393f3fed630E
	addq	$24, %rsp
	popq	%rbx
	popq	%r14
	popq	%r15
	popq	%rbp
	retq
	.cfi_endproc

	.p2align	4, 0x90
__ZN42_$LT$$RF$T$u20$as$u20$core..fmt..Debug$GT$3fmt17he9c9ac858a31f264E:
	.cfi_startproc
	pushq	%rbp
	.cfi_def_cfa_offset 16
	.cfi_offset %rbp, -16
	movq	%rsp, %rbp
	.cfi_def_cfa_register %rbp
	movq	(%rdi), %rdi
	popq	%rbp
	jmp	__ZN42_$LT$$RF$T$u20$as$u20$core..fmt..Debug$GT$3fmt17h6611645d3e595682E
	.cfi_endproc

	.p2align	4, 0x90
__ZN42_$LT$$RF$T$u20$as$u20$core..fmt..Debug$GT$3fmt17hf06f31089ffeeecfE:
	.cfi_startproc
	pushq	%rbp
	.cfi_def_cfa_offset 16
	.cfi_offset %rbp, -16
	movq	%rsp, %rbp
	.cfi_def_cfa_register %rbp
	pushq	%r14
	pushq	%rbx
	subq	$32, %rsp
	.cfi_offset %rbx, -32
	.cfi_offset %r14, -24
	movq	(%rdi), %rbx
	leaq	l___unnamed_67(%rip), %rdx
	leaq	-40(%rbp), %r14
	movl	$11, %ecx
	movq	%r14, %rdi
	callq	__ZN4core3fmt9Formatter12debug_struct17h985c0158d1fc7193E
	movq	%rbx, -24(%rbp)
	addq	$16, %rbx
	leaq	l___unnamed_16(%rip), %rsi
	leaq	l___unnamed_268(%rip), %r8
	leaq	-24(%rbp), %rcx
	movl	$7, %edx
	movq	%r14, %rdi
	callq	__ZN4core3fmt8builders11DebugStruct5field17h9c15dc155278eed2E
	movq	%rbx, -24(%rbp)
	leaq	l___unnamed_69(%rip), %rsi
	leaq	l___unnamed_70(%rip), %r8
	leaq	-24(%rbp), %rcx
	movl	$7, %edx
	movq	%r14, %rdi
	callq	__ZN4core3fmt8builders11DebugStruct5field17h9c15dc155278eed2E
	movq	%r14, %rdi
	callq	__ZN4core3fmt8builders11DebugStruct6finish17h26808393f3fed630E
	addq	$32, %rsp
	popq	%rbx
	popq	%r14
	popq	%rbp
	retq
	.cfi_endproc

	.p2align	4, 0x90
__ZN42_$LT$$RF$T$u20$as$u20$core..fmt..Debug$GT$3fmt17hf08b1c56a6856ebeE:
	.cfi_startproc
	pushq	%rbp
	.cfi_def_cfa_offset 16
	.cfi_offset %rbp, -16
	movq	%rsp, %rbp
	.cfi_def_cfa_register %rbp
	pushq	%r14
	pushq	%rbx
	subq	$32, %rsp
	.cfi_offset %rbx, -32
	.cfi_offset %r14, -24
	movq	(%rdi), %rbx
	leaq	l___unnamed_19(%rip), %rdx
	leaq	-40(%rbp), %r14
	movl	$17, %ecx
	movq	%r14, %rdi
	callq	__ZN4core3fmt9Formatter12debug_struct17h985c0158d1fc7193E
	movq	%rbx, -24(%rbp)
	addq	$8, %rbx
	leaq	L___unnamed_20(%rip), %rsi
	leaq	l___unnamed_223(%rip), %r8
	leaq	-24(%rbp), %rcx
	movl	$4, %edx
	movq	%r14, %rdi
	callq	__ZN4core3fmt8builders11DebugStruct5field17h9c15dc155278eed2E
	movq	%rbx, -24(%rbp)
	leaq	L___unnamed_22(%rip), %rsi
	leaq	l___unnamed_23(%rip), %r8
	leaq	-24(%rbp), %rcx
	movl	$4, %edx
	movq	%r14, %rdi
	callq	__ZN4core3fmt8builders11DebugStruct5field17h9c15dc155278eed2E
	movq	%r14, %rdi
	callq	__ZN4core3fmt8builders11DebugStruct6finish17h26808393f3fed630E
	addq	$32, %rsp
	popq	%rbx
	popq	%r14
	popq	%rbp
	retq
	.cfi_endproc

	.p2align	4, 0x90
__ZN42_$LT$$RF$T$u20$as$u20$core..fmt..Debug$GT$3fmt17hf13acc88dd647e84E:
	.cfi_startproc
	pushq	%rbp
	.cfi_def_cfa_offset 16
	.cfi_offset %rbp, -16
	movq	%rsp, %rbp
	.cfi_def_cfa_register %rbp
	movq	(%rdi), %rdi
	popq	%rbp
	jmp	__ZN42_$LT$$RF$T$u20$as$u20$core..fmt..Debug$GT$3fmt17ha28398dc97197ab0E
	.cfi_endproc

	.p2align	4, 0x90
__ZN42_$LT$$RF$T$u20$as$u20$core..fmt..Debug$GT$3fmt17hf2e46b4cdbd1966aE:
	.cfi_startproc
	pushq	%rbp
	.cfi_def_cfa_offset 16
	.cfi_offset %rbp, -16
	movq	%rsp, %rbp
	.cfi_def_cfa_register %rbp
	pushq	%r14
	pushq	%rbx
	subq	$32, %rsp
	.cfi_offset %rbx, -32
	.cfi_offset %r14, -24
	movq	(%rdi), %rbx
	leaq	l___unnamed_269(%rip), %rdx
	leaq	-40(%rbp), %r14
	movl	$11, %ecx
	movq	%r14, %rdi
	callq	__ZN4core3fmt9Formatter12debug_struct17h985c0158d1fc7193E
	movq	%rbx, -24(%rbp)
	addq	$8, %rbx
	leaq	L___unnamed_20(%rip), %rsi
	leaq	l___unnamed_93(%rip), %r8
	leaq	-24(%rbp), %rcx
	movl	$4, %edx
	movq	%r14, %rdi
	callq	__ZN4core3fmt8builders11DebugStruct5field17h9c15dc155278eed2E
	movq	%rbx, -24(%rbp)
	leaq	l___unnamed_175(%rip), %rsi
	leaq	l___unnamed_176(%rip), %r8
	leaq	-24(%rbp), %rcx
	movl	$7, %edx
	movq	%r14, %rdi
	callq	__ZN4core3fmt8builders11DebugStruct5field17h9c15dc155278eed2E
	movq	%r14, %rdi
	callq	__ZN4core3fmt8builders11DebugStruct6finish17h26808393f3fed630E
	addq	$32, %rsp
	popq	%rbx
	popq	%r14
	popq	%rbp
	retq
	.cfi_endproc

	.p2align	4, 0x90
__ZN42_$LT$$RF$T$u20$as$u20$core..fmt..Debug$GT$3fmt17hf5e117d6b4f3c44eE:
	.cfi_startproc
	pushq	%rbp
	.cfi_def_cfa_offset 16
	.cfi_offset %rbp, -16
	movq	%rsp, %rbp
	.cfi_def_cfa_register %rbp
	pushq	%r14
	pushq	%rbx
	subq	$32, %rsp
	.cfi_offset %rbx, -32
	.cfi_offset %r14, -24
	movq	(%rdi), %rbx
	leaq	l___unnamed_174(%rip), %rdx
	leaq	-40(%rbp), %r14
	movl	$9, %ecx
	movq	%r14, %rdi
	callq	__ZN4core3fmt9Formatter12debug_struct17h985c0158d1fc7193E
	movq	%rbx, -24(%rbp)
	addq	$8, %rbx
	leaq	L___unnamed_20(%rip), %rsi
	leaq	l___unnamed_223(%rip), %r8
	leaq	-24(%rbp), %rcx
	movl	$4, %edx
	movq	%r14, %rdi
	callq	__ZN4core3fmt8builders11DebugStruct5field17h9c15dc155278eed2E
	movq	%rbx, -24(%rbp)
	leaq	l___unnamed_175(%rip), %rsi
	leaq	l___unnamed_176(%rip), %r8
	leaq	-24(%rbp), %rcx
	movl	$7, %edx
	movq	%r14, %rdi
	callq	__ZN4core3fmt8builders11DebugStruct5field17h9c15dc155278eed2E
	movq	%r14, %rdi
	callq	__ZN4core3fmt8builders11DebugStruct6finish17h26808393f3fed630E
	addq	$32, %rsp
	popq	%rbx
	popq	%r14
	popq	%rbp
	retq
	.cfi_endproc

	.p2align	4, 0x90
__ZN42_$LT$$RF$T$u20$as$u20$core..fmt..Debug$GT$3fmt17hf702bcf88fd81f00E:
	.cfi_startproc
	pushq	%rbp
	.cfi_def_cfa_offset 16
	.cfi_offset %rbp, -16
	movq	%rsp, %rbp
	.cfi_def_cfa_register %rbp
	pushq	%r15
	pushq	%r14
	pushq	%r13
	pushq	%r12
	pushq	%rbx
	subq	$24, %rsp
	.cfi_offset %rbx, -56
	.cfi_offset %r12, -48
	.cfi_offset %r13, -40
	.cfi_offset %r14, -32
	.cfi_offset %r15, -24
	movq	(%rdi), %rax
	movq	(%rax), %rbx
	movq	8(%rax), %r13
	leaq	-64(%rbp), %rdi
	callq	__ZN4core3fmt9Formatter10debug_list17hd054f0986422feb9E
	testq	%r13, %r13
	je	LBB166_3
	shlq	$4, %r13
	leaq	l___unnamed_270(%rip), %r14
	leaq	-64(%rbp), %r15
	leaq	-48(%rbp), %r12
	.p2align	4, 0x90
LBB166_2:
	movq	%rbx, -48(%rbp)
	addq	$16, %rbx
	movq	%r15, %rdi
	movq	%r12, %rsi
	movq	%r14, %rdx
	callq	__ZN4core3fmt8builders9DebugList5entry17h5c0dec54538196dfE
	addq	$-16, %r13
	jne	LBB166_2
LBB166_3:
	leaq	-64(%rbp), %rdi
	callq	__ZN4core3fmt8builders9DebugList6finish17h3635bd6af9b1c5a6E
	addq	$24, %rsp
	popq	%rbx
	popq	%r12
	popq	%r13
	popq	%r14
	popq	%r15
	popq	%rbp
	retq
	.cfi_endproc

	.p2align	4, 0x90
__ZN42_$LT$$RF$T$u20$as$u20$core..fmt..Debug$GT$3fmt17hf73183be02709de6E:
	.cfi_startproc
	pushq	%rbp
	.cfi_def_cfa_offset 16
	.cfi_offset %rbp, -16
	movq	%rsp, %rbp
	.cfi_def_cfa_register %rbp
	pushq	%r14
	pushq	%rbx
	subq	$32, %rsp
	.cfi_offset %rbx, -32
	.cfi_offset %r14, -24
	movq	(%rdi), %rbx
	leaq	l___unnamed_99(%rip), %rdx
	leaq	-40(%rbp), %r14
	movl	$12, %ecx
	movq	%r14, %rdi
	callq	__ZN4core3fmt9Formatter12debug_struct17h985c0158d1fc7193E
	movq	%rbx, -24(%rbp)
	addq	$16, %rbx
	leaq	L___unnamed_12(%rip), %rsi
	leaq	l___unnamed_271(%rip), %r8
	leaq	-24(%rbp), %rcx
	movl	$8, %edx
	movq	%r14, %rdi
	callq	__ZN4core3fmt8builders11DebugStruct5field17h9c15dc155278eed2E
	movq	%rbx, -24(%rbp)
	leaq	l___unnamed_69(%rip), %rsi
	leaq	l___unnamed_70(%rip), %r8
	leaq	-24(%rbp), %rcx
	movl	$7, %edx
	movq	%r14, %rdi
	callq	__ZN4core3fmt8builders11DebugStruct5field17h9c15dc155278eed2E
	movq	%r14, %rdi
	callq	__ZN4core3fmt8builders11DebugStruct6finish17h26808393f3fed630E
	addq	$32, %rsp
	popq	%rbx
	popq	%r14
	popq	%rbp
	retq
	.cfi_endproc

	.p2align	4, 0x90
__ZN42_$LT$$RF$T$u20$as$u20$core..fmt..Debug$GT$3fmt17hfc403c9c45ddb7d1E:
	.cfi_startproc
	pushq	%rbp
	.cfi_def_cfa_offset 16
	.cfi_offset %rbp, -16
	movq	%rsp, %rbp
	.cfi_def_cfa_register %rbp
	pushq	%r15
	pushq	%r14
	pushq	%r13
	pushq	%r12
	pushq	%rbx
	subq	$88, %rsp
	.cfi_offset %rbx, -56
	.cfi_offset %r12, -48
	.cfi_offset %r13, -40
	.cfi_offset %r14, -32
	.cfi_offset %r15, -24
	movq	(%rdi), %rax
	movq	(%rax), %rbx
	leaq	L___unnamed_272(%rip), %rdx
	leaq	-120(%rbp), %r13
	movl	$16, %ecx
	movq	%r13, %rdi
	callq	__ZN4core3fmt9Formatter12debug_struct17h985c0158d1fc7193E
	movq	%rbx, -48(%rbp)
	leaq	4(%rbx), %r14
	leaq	8(%rbx), %r12
	leaq	24(%rbx), %r15
	leaq	32(%rbx), %rax
	movq	%rax, -56(%rbp)
	leaq	40(%rbx), %rax
	movq	%rax, -64(%rbp)
	leaq	48(%rbx), %rax
	movq	%rax, -72(%rbp)
	leaq	56(%rbx), %rax
	movq	%rax, -80(%rbp)
	leaq	60(%rbx), %rax
	movq	%rax, -88(%rbp)
	leaq	64(%rbx), %rax
	movq	%rax, -96(%rbp)
	leaq	68(%rbx), %rax
	movq	%rax, -104(%rbp)
	leaq	l___unnamed_228(%rip), %rsi
	leaq	l___unnamed_33(%rip), %rbx
	leaq	-48(%rbp), %rcx
	movl	$3, %edx
	movq	%r13, %rdi
	movq	%rbx, %r8
	callq	__ZN4core3fmt8builders11DebugStruct5field17h9c15dc155278eed2E
	movq	%r14, -48(%rbp)
	leaq	l___unnamed_229(%rip), %rsi
	leaq	-48(%rbp), %rcx
	movl	$7, %edx
	movq	%r13, %rdi
	movq	%rbx, %r8
	callq	__ZN4core3fmt8builders11DebugStruct5field17h9c15dc155278eed2E
	movq	%r12, -48(%rbp)
	leaq	l___unnamed_105(%rip), %rsi
	leaq	l___unnamed_104(%rip), %r8
	leaq	-48(%rbp), %rcx
	movl	$7, %edx
	movq	%r13, %rdi
	callq	__ZN4core3fmt8builders11DebugStruct5field17h9c15dc155278eed2E
	movq	%r15, -48(%rbp)
	leaq	l___unnamed_230(%rip), %rsi
	leaq	l___unnamed_60(%rip), %r15
	leaq	-48(%rbp), %rcx
	movl	$6, %edx
	movq	%r13, %rdi
	movq	%r15, %r8
	callq	__ZN4core3fmt8builders11DebugStruct5field17h9c15dc155278eed2E
	movq	-56(%rbp), %rax
	movq	%rax, -48(%rbp)
	leaq	l___unnamed_231(%rip), %rsi
	leaq	-48(%rbp), %rcx
	movl	$6, %edx
	movq	%r13, %rdi
	movq	%r15, %r8
	callq	__ZN4core3fmt8builders11DebugStruct5field17h9c15dc155278eed2E
	movq	-64(%rbp), %rax
	movq	%rax, -48(%rbp)
	leaq	l___unnamed_232(%rip), %rsi
	leaq	-48(%rbp), %rcx
	movl	$7, %edx
	movq	%r13, %rdi
	movq	%r15, %r8
	callq	__ZN4core3fmt8builders11DebugStruct5field17h9c15dc155278eed2E
	movq	-72(%rbp), %rax
	movq	%rax, -48(%rbp)
	leaq	L___unnamed_233(%rip), %rsi
	leaq	-48(%rbp), %rcx
	movl	$8, %edx
	movq	%r13, %rdi
	movq	%r15, %r8
	callq	__ZN4core3fmt8builders11DebugStruct5field17h9c15dc155278eed2E
	movq	-80(%rbp), %rax
	movq	%rax, -48(%rbp)
	leaq	l___unnamed_234(%rip), %rsi
	leaq	-48(%rbp), %rcx
	movl	$7, %edx
	movq	%r13, %rdi
	movq	%rbx, %r8
	callq	__ZN4core3fmt8builders11DebugStruct5field17h9c15dc155278eed2E
	movq	-88(%rbp), %rax
	movq	%rax, -48(%rbp)
	leaq	L___unnamed_235(%rip), %rsi
	leaq	-48(%rbp), %rcx
	movl	$8, %edx
	movq	%r13, %rdi
	movq	%rbx, %r8
	callq	__ZN4core3fmt8builders11DebugStruct5field17h9c15dc155278eed2E
	movq	-96(%rbp), %rax
	movq	%rax, -48(%rbp)
	leaq	l___unnamed_236(%rip), %rsi
	leaq	-48(%rbp), %rcx
	movl	$6, %edx
	movq	%r13, %rdi
	movq	%rbx, %r8
	callq	__ZN4core3fmt8builders11DebugStruct5field17h9c15dc155278eed2E
	movq	-104(%rbp), %rax
	movq	%rax, -48(%rbp)
	leaq	l___unnamed_38(%rip), %rsi
	leaq	-48(%rbp), %rcx
	movl	$5, %edx
	movq	%r13, %rdi
	movq	%rbx, %r8
	callq	__ZN4core3fmt8builders11DebugStruct5field17h9c15dc155278eed2E
	movq	%r13, %rdi
	callq	__ZN4core3fmt8builders11DebugStruct6finish17h26808393f3fed630E
	addq	$88, %rsp
	popq	%rbx
	popq	%r12
	popq	%r13
	popq	%r14
	popq	%r15
	popq	%rbp
	retq
	.cfi_endproc

	.p2align	4, 0x90
__ZN42_$LT$$RF$T$u20$as$u20$core..fmt..Debug$GT$3fmt17hfd74c55cbf38cde4E:
	.cfi_startproc
	pushq	%rbp
	.cfi_def_cfa_offset 16
	.cfi_offset %rbp, -16
	movq	%rsp, %rbp
	.cfi_def_cfa_register %rbp
	pushq	%r15
	pushq	%r14
	pushq	%r13
	pushq	%r12
	pushq	%rbx
	subq	$24, %rsp
	.cfi_offset %rbx, -56
	.cfi_offset %r12, -48
	.cfi_offset %r13, -40
	.cfi_offset %r14, -32
	.cfi_offset %r15, -24
	movq	(%rdi), %r13
	movq	8(%rdi), %rbx
	leaq	-64(%rbp), %rdi
	callq	__ZN4core3fmt9Formatter10debug_list17hd054f0986422feb9E
	testq	%rbx, %rbx
	je	LBB169_3
	shlq	$3, %rbx
	leaq	(%rbx,%rbx,4), %rbx
	leaq	l___unnamed_24(%rip), %r14
	leaq	-64(%rbp), %r15
	leaq	-48(%rbp), %r12
	.p2align	4, 0x90
LBB169_2:
	movq	%r13, -48(%rbp)
	addq	$40, %r13
	movq	%r15, %rdi
	movq	%r12, %rsi
	movq	%r14, %rdx
	callq	__ZN4core3fmt8builders9DebugList5entry17h5c0dec54538196dfE
	addq	$-40, %rbx
	jne	LBB169_2
LBB169_3:
	leaq	-64(%rbp), %rdi
	callq	__ZN4core3fmt8builders9DebugList6finish17h3635bd6af9b1c5a6E
	addq	$24, %rsp
	popq	%rbx
	popq	%r12
	popq	%r13
	popq	%r14
	popq	%r15
	popq	%rbp
	retq
	.cfi_endproc

	.p2align	4, 0x90
__ZN42_$LT$$RF$T$u20$as$u20$core..fmt..Debug$GT$3fmt17hff5140e2f9db8eacE:
	.cfi_startproc
	pushq	%rbp
	.cfi_def_cfa_offset 16
	.cfi_offset %rbp, -16
	movq	%rsp, %rbp
	.cfi_def_cfa_register %rbp
	pushq	%r14
	pushq	%rbx
	subq	$32, %rsp
	.cfi_offset %rbx, -32
	.cfi_offset %r14, -24
	movq	(%rdi), %rax
	cmpq	$1, (%rax)
	leaq	8(%rax), %r14
	leaq	-48(%rbp), %rbx
	jne	LBB170_2
	leaq	l___unnamed_273(%rip), %rdx
	movl	$7, %ecx
	movq	%rbx, %rdi
	callq	__ZN4core3fmt9Formatter11debug_tuple17h15ca25ad759edd1cE
	leaq	-24(%rbp), %rsi
	movq	%r14, -24(%rbp)
	leaq	l___unnamed_168(%rip), %rdx
	jmp	LBB170_3
LBB170_2:
	leaq	l___unnamed_274(%rip), %rdx
	movl	$6, %ecx
	movq	%rbx, %rdi
	callq	__ZN4core3fmt9Formatter11debug_tuple17h15ca25ad759edd1cE
	leaq	-24(%rbp), %rsi
	movq	%r14, -24(%rbp)
	leaq	l___unnamed_275(%rip), %rdx
LBB170_3:
	movq	%rbx, %rdi
	callq	__ZN4core3fmt8builders10DebugTuple5field17hf36121153a94f236E
	movq	%rbx, %rdi
	callq	__ZN4core3fmt8builders10DebugTuple6finish17h68acf09c6f6593f2E
	addq	$32, %rsp
	popq	%rbx
	popq	%r14
	popq	%rbp
	retq
	.cfi_endproc

	.p2align	4, 0x90
__ZN4core3fmt3num50_$LT$impl$u20$core..fmt..Debug$u20$for$u20$u64$GT$3fmt17hd4eb92a08a6fe7c5E:
	.cfi_startproc
	pushq	%rbp
	.cfi_def_cfa_offset 16
	.cfi_offset %rbp, -16
	movq	%rsp, %rbp
	.cfi_def_cfa_register %rbp
	pushq	%r14
	pushq	%rbx
	.cfi_offset %rbx, -32
	.cfi_offset %r14, -24
	movq	%rsi, %rbx
	movq	%rdi, %r14
	movq	%rsi, %rdi
	callq	__ZN4core3fmt9Formatter15debug_lower_hex17h8530fbaeba13f4d9E
	testb	%al, %al
	je	LBB171_1
	movq	%r14, %rdi
	movq	%rbx, %rsi
	popq	%rbx
	popq	%r14
	popq	%rbp
	jmp	__ZN4core3fmt3num53_$LT$impl$u20$core..fmt..LowerHex$u20$for$u20$u64$GT$3fmt17h45355469eb7ddf8bE
LBB171_1:
	movq	%rbx, %rdi
	callq	__ZN4core3fmt9Formatter15debug_upper_hex17hf8fda15ec43a1e68E
	movq	%r14, %rdi
	movq	%rbx, %rsi
	testb	%al, %al
	je	LBB171_4
	popq	%rbx
	popq	%r14
	popq	%rbp
	jmp	__ZN4core3fmt3num53_$LT$impl$u20$core..fmt..UpperHex$u20$for$u20$u64$GT$3fmt17ha26765e3e26c1816E
LBB171_4:
	popq	%rbx
	popq	%r14
	popq	%rbp
	jmp	__ZN4core3fmt3num3imp52_$LT$impl$u20$core..fmt..Display$u20$for$u20$u64$GT$3fmt17hb00db9d5e1e54df6E
	.cfi_endproc

	.p2align	4, 0x90
__ZN4core3ptr13drop_in_place17h0119bec14965032cE:
	.cfi_startproc
	pushq	%rbp
	.cfi_def_cfa_offset 16
	.cfi_offset %rbp, -16
	movq	%rsp, %rbp
	.cfi_def_cfa_register %rbp
	popq	%rbp
	retq
	.cfi_endproc

	.p2align	4, 0x90
__ZN4core3ptr13drop_in_place17h26f5b01ff3be51bfE:
	.cfi_startproc
	pushq	%rbp
	.cfi_def_cfa_offset 16
	.cfi_offset %rbp, -16
	movq	%rsp, %rbp
	.cfi_def_cfa_register %rbp
	movq	8(%rdi), %rax
	testq	%rax, %rax
	je	LBB173_3
	movq	(%rdi), %rdi
	testq	%rdi, %rdi
	je	LBB173_3
	shlq	$3, %rax
	leaq	(%rax,%rax,8), %rsi
	testq	%rsi, %rsi
	je	LBB173_3
	movl	$8, %edx
	popq	%rbp
	jmp	___rust_dealloc
LBB173_3:
	popq	%rbp
	retq
	.cfi_endproc

	.p2align	4, 0x90
__ZN4core3ptr13drop_in_place17h27013a0cf5c9e475E:
	.cfi_startproc
	pushq	%rbp
	.cfi_def_cfa_offset 16
	.cfi_offset %rbp, -16
	movq	%rsp, %rbp
	.cfi_def_cfa_register %rbp
	movq	8(%rdi), %rax
	testq	%rax, %rax
	je	LBB174_3
	movq	(%rdi), %rdi
	testq	%rdi, %rdi
	je	LBB174_3
	shlq	$3, %rax
	leaq	(%rax,%rax,2), %rsi
	testq	%rsi, %rsi
	je	LBB174_3
	movl	$8, %edx
	popq	%rbp
	jmp	___rust_dealloc
LBB174_3:
	popq	%rbp
	retq
	.cfi_endproc

	.p2align	4, 0x90
__ZN4core3ptr13drop_in_place17h4ae62371eedaa2fbE:
	.cfi_startproc
	pushq	%rbp
	.cfi_def_cfa_offset 16
	.cfi_offset %rbp, -16
	movq	%rsp, %rbp
	.cfi_def_cfa_register %rbp
	movq	8(%rdi), %rsi
	testq	%rsi, %rsi
	je	LBB175_3
	movq	(%rdi), %rdi
	testq	%rdi, %rdi
	je	LBB175_3
	shlq	$3, %rsi
	testq	%rsi, %rsi
	je	LBB175_3
	movl	$8, %edx
	popq	%rbp
	jmp	___rust_dealloc
LBB175_3:
	popq	%rbp
	retq
	.cfi_endproc

	.p2align	4, 0x90
__ZN4core3ptr13drop_in_place17hfee615fc8dc4d2c8E:
	.cfi_startproc
	pushq	%rbp
	.cfi_def_cfa_offset 16
	.cfi_offset %rbp, -16
	movq	%rsp, %rbp
	.cfi_def_cfa_register %rbp
	movq	8(%rdi), %rsi
	testq	%rsi, %rsi
	je	LBB176_3
	movq	(%rdi), %rdi
	testq	%rdi, %rdi
	je	LBB176_3
	shlq	$4, %rsi
	je	LBB176_3
	movl	$8, %edx
	popq	%rbp
	jmp	___rust_dealloc
LBB176_3:
	popq	%rbp
	retq
	.cfi_endproc

	.p2align	4, 0x90
__ZN4core3str6traits105_$LT$impl$u20$core..slice..SliceIndex$LT$str$GT$$u20$for$u20$core..ops..range..RangeFrom$LT$usize$GT$$GT$5index28_$u7b$$u7b$closure$u7d$$u7d$17h024857a321dba95dE:
	.cfi_startproc
	pushq	%rbp
	.cfi_def_cfa_offset 16
	.cfi_offset %rbp, -16
	movq	%rsp, %rbp
	.cfi_def_cfa_register %rbp
	movq	(%rdi), %rcx
	movq	8(%rdi), %rdx
	movq	(%rcx), %rax
	movq	8(%rcx), %rsi
	movq	(%rdx), %rdx
	movq	16(%rdi), %rcx
	movq	(%rcx), %rcx
	leaq	l___unnamed_276(%rip), %r8
	movq	%rax, %rdi
	callq	__ZN4core3str16slice_error_fail17h6b29707aec812690E
	.cfi_endproc

	.p2align	4, 0x90
__ZN5alloc3vec12Vec$LT$T$GT$4push17h0595b7536661b1beE:
	.cfi_startproc
	pushq	%rbp
	.cfi_def_cfa_offset 16
	.cfi_offset %rbp, -16
	movq	%rsp, %rbp
	.cfi_def_cfa_register %rbp
	pushq	%r15
	pushq	%r14
	pushq	%r12
	pushq	%rbx
	.cfi_offset %rbx, -48
	.cfi_offset %r12, -40
	.cfi_offset %r14, -32
	.cfi_offset %r15, -24
	movq	%rdx, %r14
	movq	%rsi, %r15
	movq	%rdi, %rbx
	movq	16(%rdi), %rcx
	cmpq	8(%rdi), %rcx
	jne	LBB178_18
	movq	%rcx, %rax
	incq	%rax
	je	LBB178_19
	leaq	(%rcx,%rcx), %rdx
	cmpq	%rax, %rdx
	cmovaq	%rdx, %rax
	movl	$16, %edx
	xorl	%esi, %esi
	mulq	%rdx
	movq	%rax, %r12
	seto	%dl
	setno	%dil
	movq	%rcx, %rax
	testq	%rcx, %rcx
	je	LBB178_4
	movq	(%rbx), %rax
LBB178_4:
	testb	%dl, %dl
	jne	LBB178_19
	testq	%rax, %rax
	je	LBB178_12
	movq	%rcx, %rsi
	shlq	$4, %rsi
	cmpq	%r12, %rsi
	je	LBB178_15
	testq	%rsi, %rsi
	je	LBB178_8
	movl	$8, %edx
	movq	%rax, %rdi
	movq	%r12, %rcx
	callq	___rust_realloc
	testq	%rax, %rax
	jne	LBB178_16
	jmp	LBB178_20
LBB178_12:
	movb	%dil, %sil
	shlq	$3, %rsi
	testq	%r12, %r12
	jne	LBB178_13
	movq	%rsi, %rax
	testq	%rax, %rax
	jne	LBB178_16
	jmp	LBB178_20
LBB178_8:
	testq	%r12, %r12
	je	LBB178_9
	movl	$8, %esi
LBB178_13:
	movq	%r12, %rdi
	callq	___rust_alloc
LBB178_15:
	testq	%rax, %rax
	je	LBB178_20
LBB178_16:
	movq	16(%rbx), %rcx
LBB178_17:
	movq	%rax, (%rbx)
	shrq	$4, %r12
	movq	%r12, 8(%rbx)
LBB178_18:
	movq	(%rbx), %rax
	shlq	$4, %rcx
	movq	%r15, (%rax,%rcx)
	movq	%r14, 8(%rax,%rcx)
	incq	16(%rbx)
	popq	%rbx
	popq	%r12
	popq	%r14
	popq	%r15
	popq	%rbp
	retq
LBB178_9:
	movl	$8, %eax
	jmp	LBB178_17
LBB178_19:
	callq	__ZN5alloc7raw_vec17capacity_overflow17h023f34f5bc34c61fE
LBB178_20:
	movl	$8, %esi
	movq	%r12, %rdi
	callq	__ZN5alloc5alloc18handle_alloc_error17hbc0ab0ed90816c07E
	.cfi_endproc

	.p2align	4, 0x90
__ZN5alloc3vec12Vec$LT$T$GT$7reserve17hb74f5fd2f59f67c6E:
	.cfi_startproc
	pushq	%rbp
	.cfi_def_cfa_offset 16
	.cfi_offset %rbp, -16
	movq	%rsp, %rbp
	.cfi_def_cfa_register %rbp
	pushq	%r14
	pushq	%rbx
	.cfi_offset %rbx, -32
	.cfi_offset %r14, -24
	movq	8(%rdi), %rcx
	movq	16(%rdi), %rax
	movq	%rcx, %rdx
	subq	%rax, %rdx
	cmpq	%rsi, %rdx
	jae	LBB179_17
	addq	%rsi, %rax
	jb	LBB179_18
	movq	%rdi, %rbx
	leaq	(%rcx,%rcx), %rdx
	cmpq	%rax, %rdx
	cmovaq	%rdx, %rax
	movl	$72, %edx
	xorl	%esi, %esi
	mulq	%rdx
	movq	%rax, %r14
	seto	%dl
	setno	%dil
	movq	%rcx, %rax
	testq	%rcx, %rcx
	je	LBB179_4
	movq	(%rbx), %rax
LBB179_4:
	testb	%dl, %dl
	jne	LBB179_18
	testq	%rax, %rax
	je	LBB179_12
	shlq	$3, %rcx
	leaq	(%rcx,%rcx,8), %rsi
	cmpq	%r14, %rsi
	je	LBB179_15
	testq	%rsi, %rsi
	je	LBB179_8
	movl	$8, %edx
	movq	%rax, %rdi
	movq	%r14, %rcx
	callq	___rust_realloc
	testq	%rax, %rax
	jne	LBB179_16
	jmp	LBB179_19
LBB179_12:
	movb	%dil, %sil
	shlq	$3, %rsi
	testq	%r14, %r14
	jne	LBB179_13
	movq	%rsi, %rax
	testq	%rax, %rax
	jne	LBB179_16
	jmp	LBB179_19
LBB179_8:
	testq	%r14, %r14
	je	LBB179_9
	movl	$8, %esi
LBB179_13:
	movq	%r14, %rdi
	callq	___rust_alloc
LBB179_15:
	testq	%rax, %rax
	je	LBB179_19
LBB179_16:
	movq	%rax, (%rbx)
	movabsq	$-2049638230412172401, %rcx
	movq	%r14, %rax
	mulq	%rcx
	shrq	$6, %rdx
	movq	%rdx, 8(%rbx)
LBB179_17:
	popq	%rbx
	popq	%r14
	popq	%rbp
	retq
LBB179_9:
	movl	$8, %eax
	jmp	LBB179_16
LBB179_18:
	callq	__ZN5alloc7raw_vec17capacity_overflow17h023f34f5bc34c61fE
LBB179_19:
	movl	$8, %esi
	movq	%r14, %rdi
	callq	__ZN5alloc5alloc18handle_alloc_error17hbc0ab0ed90816c07E
	.cfi_endproc

	.p2align	4, 0x90
__ZN5alloc7raw_vec19RawVec$LT$T$C$A$GT$11allocate_in28_$u7b$$u7b$closure$u7d$$u7d$17hdad3baa3d48383e5E:
	.cfi_startproc
	pushq	%rbp
	.cfi_def_cfa_offset 16
	.cfi_offset %rbp, -16
	movq	%rsp, %rbp
	.cfi_def_cfa_register %rbp
	callq	__ZN5alloc5alloc18handle_alloc_error17hbc0ab0ed90816c07E
	.cfi_endproc

	.p2align	4, 0x90
__ZN5alloc7raw_vec19RawVec$LT$T$C$A$GT$11allocate_in28_$u7b$$u7b$closure$u7d$$u7d$17he8d7ab312439a758E:
	.cfi_startproc
	pushq	%rbp
	.cfi_def_cfa_offset 16
	.cfi_offset %rbp, -16
	movq	%rsp, %rbp
	.cfi_def_cfa_register %rbp
	callq	__ZN5alloc7raw_vec17capacity_overflow17h023f34f5bc34c61fE
	.cfi_endproc

	.globl	__ZN6object6common12Architecture12address_size17h3568c3da49a47535E
	.p2align	4, 0x90
__ZN6object6common12Architecture12address_size17h3568c3da49a47535E:
	.cfi_startproc
	pushq	%rbp
	.cfi_def_cfa_offset 16
	.cfi_offset %rbp, -16
	movq	%rsp, %rbp
	.cfi_def_cfa_register %rbp
	shll	$3, %edi
	movabsq	$2256215107438601, %rax
	shrxq	%rdi, %rax, %rax
	popq	%rbp
	retq
	.cfi_endproc

	.globl	__ZN6object6common11SectionKind6is_bss17h0aac6d23519712b1E
	.p2align	4, 0x90
__ZN6object6common11SectionKind6is_bss17h0aac6d23519712b1E:
	.cfi_startproc
	pushq	%rbp
	.cfi_def_cfa_offset 16
	.cfi_offset %rbp, -16
	movq	%rsp, %rbp
	.cfi_def_cfa_register %rbp
	addb	$-5, %dil
	cmpb	$3, %dil
	ja	LBB183_2
	andb	$15, %dil
	movb	$11, %al
	movl	%edi, %ecx
	shrb	%cl, %al
	andb	$1, %al
	popq	%rbp
	retq
LBB183_2:
	xorl	%eax, %eax
	popq	%rbp
	retq
	.cfi_endproc

	.globl	__ZN55_$LT$object..pod..Bytes$u20$as$u20$core..fmt..Debug$GT$3fmt17hb4568c21d3b69ea9E
	.p2align	4, 0x90
__ZN55_$LT$object..pod..Bytes$u20$as$u20$core..fmt..Debug$GT$3fmt17hb4568c21d3b69ea9E:
	.cfi_startproc
	pushq	%rbp
	.cfi_def_cfa_offset 16
	.cfi_offset %rbp, -16
	movq	%rsp, %rbp
	.cfi_def_cfa_register %rbp
	movq	%rsi, %rdx
	movq	(%rdi), %rax
	movq	8(%rdi), %rsi
	movq	%rax, %rdi
	popq	%rbp
	jmp	__ZN6object3pod16debug_list_bytes17h00731385b69b8b3dE
	.cfi_endproc

	.globl	__ZN58_$LT$object..pod..BytesMut$u20$as$u20$core..fmt..Debug$GT$3fmt17h5d22029cba5cf4a9E
	.p2align	4, 0x90
__ZN58_$LT$object..pod..BytesMut$u20$as$u20$core..fmt..Debug$GT$3fmt17h5d22029cba5cf4a9E:
	.cfi_startproc
	pushq	%rbp
	.cfi_def_cfa_offset 16
	.cfi_offset %rbp, -16
	movq	%rsp, %rbp
	.cfi_def_cfa_register %rbp
	movq	%rsi, %rdx
	movq	(%rdi), %rax
	movq	16(%rdi), %rsi
	movq	%rax, %rdi
	popq	%rbp
	jmp	__ZN6object3pod16debug_list_bytes17h00731385b69b8b3dE
	.cfi_endproc

	.p2align	4, 0x90
__ZN6object3pod16debug_list_bytes17h00731385b69b8b3dE:
	.cfi_startproc
	pushq	%rbp
	.cfi_def_cfa_offset 16
	.cfi_offset %rbp, -16
	movq	%rsp, %rbp
	.cfi_def_cfa_register %rbp
	pushq	%r14
	pushq	%rbx
	subq	$32, %rsp
	.cfi_offset %rbx, -32
	.cfi_offset %r14, -24
	movq	%rsi, %rbx
	movq	%rdi, %r14
	leaq	-40(%rbp), %rdi
	movq	%rdx, %rsi
	callq	__ZN4core3fmt9Formatter10debug_list17hd054f0986422feb9E
	testq	%rbx, %rbx
	je	LBB186_10
	movb	(%r14), %al
	movb	%al, -24(%rbp)
	leaq	l___unnamed_277(%rip), %rdx
	leaq	-40(%rbp), %rdi
	leaq	-24(%rbp), %rsi
	callq	__ZN4core3fmt8builders9DebugList5entry17h5c0dec54538196dfE
	cmpq	$1, %rbx
	je	LBB186_10
	movb	1(%r14), %al
	movb	%al, -24(%rbp)
	leaq	l___unnamed_277(%rip), %rdx
	leaq	-40(%rbp), %rdi
	leaq	-24(%rbp), %rsi
	callq	__ZN4core3fmt8builders9DebugList5entry17h5c0dec54538196dfE
	cmpq	$2, %rbx
	je	LBB186_10
	movb	2(%r14), %al
	movb	%al, -24(%rbp)
	leaq	l___unnamed_277(%rip), %rdx
	leaq	-40(%rbp), %rdi
	leaq	-24(%rbp), %rsi
	callq	__ZN4core3fmt8builders9DebugList5entry17h5c0dec54538196dfE
	cmpq	$3, %rbx
	je	LBB186_10
	movb	3(%r14), %al
	movb	%al, -24(%rbp)
	leaq	l___unnamed_277(%rip), %rdx
	leaq	-40(%rbp), %rdi
	leaq	-24(%rbp), %rsi
	callq	__ZN4core3fmt8builders9DebugList5entry17h5c0dec54538196dfE
	cmpq	$4, %rbx
	je	LBB186_10
	movb	4(%r14), %al
	movb	%al, -24(%rbp)
	leaq	l___unnamed_277(%rip), %rdx
	leaq	-40(%rbp), %rdi
	leaq	-24(%rbp), %rsi
	callq	__ZN4core3fmt8builders9DebugList5entry17h5c0dec54538196dfE
	cmpq	$5, %rbx
	je	LBB186_10
	movb	5(%r14), %al
	movb	%al, -24(%rbp)
	leaq	l___unnamed_277(%rip), %rdx
	leaq	-40(%rbp), %rdi
	leaq	-24(%rbp), %rsi
	callq	__ZN4core3fmt8builders9DebugList5entry17h5c0dec54538196dfE
	cmpq	$6, %rbx
	je	LBB186_10
	movb	6(%r14), %al
	movb	%al, -24(%rbp)
	leaq	l___unnamed_277(%rip), %rdx
	leaq	-40(%rbp), %rdi
	leaq	-24(%rbp), %rsi
	callq	__ZN4core3fmt8builders9DebugList5entry17h5c0dec54538196dfE
	cmpq	$7, %rbx
	je	LBB186_10
	movb	7(%r14), %al
	movb	%al, -24(%rbp)
	leaq	l___unnamed_277(%rip), %rdx
	leaq	-40(%rbp), %rdi
	leaq	-24(%rbp), %rsi
	callq	__ZN4core3fmt8builders9DebugList5entry17h5c0dec54538196dfE
	cmpq	$9, %rbx
	jb	LBB186_10
	movq	%rbx, -24(%rbp)
	leaq	l___unnamed_278(%rip), %rdx
	leaq	-40(%rbp), %rdi
	leaq	-24(%rbp), %rsi
	callq	__ZN4core3fmt8builders9DebugList5entry17h5c0dec54538196dfE
LBB186_10:
	leaq	-40(%rbp), %rdi
	callq	__ZN4core3fmt8builders9DebugList6finish17h3635bd6af9b1c5a6E
	addq	$32, %rsp
	popq	%rbx
	popq	%r14
	popq	%rbp
	retq
	.cfi_endproc

	.globl	__ZN59_$LT$object..pod..DebugByte$u20$as$u20$core..fmt..Debug$GT$3fmt17h8bfab0bc46ce1671E
	.p2align	4, 0x90
__ZN59_$LT$object..pod..DebugByte$u20$as$u20$core..fmt..Debug$GT$3fmt17h8bfab0bc46ce1671E:
	.cfi_startproc
	pushq	%rbp
	.cfi_def_cfa_offset 16
	.cfi_offset %rbp, -16
	movq	%rsp, %rbp
	.cfi_def_cfa_register %rbp
	subq	$64, %rsp
	movq	%rsi, %rax
	movq	%rdi, -16(%rbp)
	movq	__ZN4core3fmt3num52_$LT$impl$u20$core..fmt..LowerHex$u20$for$u20$u8$GT$3fmt17h7701faa643a10c55E@GOTPCREL(%rip), %rcx
	movq	%rcx, -8(%rbp)
	leaq	l___unnamed_279(%rip), %rcx
	movq	%rcx, -64(%rbp)
	movq	$1, -56(%rbp)
	leaq	l___unnamed_280(%rip), %rcx
	movq	%rcx, -48(%rbp)
	movq	$1, -40(%rbp)
	leaq	-16(%rbp), %rcx
	movq	%rcx, -32(%rbp)
	movq	$1, -24(%rbp)
	leaq	-64(%rbp), %rsi
	movq	%rax, %rdi
	callq	__ZN4core3fmt9Formatter9write_fmt17h3dc2bf45afed3069E
	addq	$64, %rsp
	popq	%rbp
	retq
	.cfi_endproc

	.globl	__ZN58_$LT$object..pod..DebugLen$u20$as$u20$core..fmt..Debug$GT$3fmt17hb1e9cf293c90fe15E
	.p2align	4, 0x90
__ZN58_$LT$object..pod..DebugLen$u20$as$u20$core..fmt..Debug$GT$3fmt17hb1e9cf293c90fe15E:
	.cfi_startproc
	pushq	%rbp
	.cfi_def_cfa_offset 16
	.cfi_offset %rbp, -16
	movq	%rsp, %rbp
	.cfi_def_cfa_register %rbp
	subq	$64, %rsp
	movq	%rsi, %rax
	movq	%rdi, -16(%rbp)
	movq	__ZN4core3fmt3num3imp54_$LT$impl$u20$core..fmt..Display$u20$for$u20$usize$GT$3fmt17h89ce3155a90f2edfE@GOTPCREL(%rip), %rcx
	movq	%rcx, -8(%rbp)
	leaq	l___unnamed_281(%rip), %rcx
	movq	%rcx, -64(%rbp)
	movq	$1, -56(%rbp)
	movq	$0, -48(%rbp)
	leaq	-16(%rbp), %rcx
	movq	%rcx, -32(%rbp)
	movq	$1, -24(%rbp)
	leaq	-64(%rbp), %rsi
	movq	%rax, %rdi
	callq	__ZN4core3fmt9Formatter9write_fmt17h3dc2bf45afed3069E
	addq	$64, %rsp
	popq	%rbp
	retq
	.cfi_endproc

	.globl	__ZN6object4read4util11StringTable3new17hb98dcbdea64dae85E
	.p2align	4, 0x90
__ZN6object4read4util11StringTable3new17hb98dcbdea64dae85E:
	.cfi_startproc
	pushq	%rbp
	.cfi_def_cfa_offset 16
	.cfi_offset %rbp, -16
	movq	%rsp, %rbp
	.cfi_def_cfa_register %rbp
	movq	%rsi, %rdx
	movq	%rdi, %rax
	popq	%rbp
	retq
	.cfi_endproc

	.globl	__ZN6object4read4util11StringTable3get17h20654caf1a37a67bE
	.p2align	4, 0x90
__ZN6object4read4util11StringTable3get17h20654caf1a37a67bE:
	.cfi_startproc
	pushq	%rbp
	.cfi_def_cfa_offset 16
	.cfi_offset %rbp, -16
	movq	%rsp, %rbp
	.cfi_def_cfa_register %rbp
	movq	8(%rdi), %rax
	movl	%esi, %esi
	movq	%rax, %r8
	subq	%rsi, %r8
	jb	LBB190_5
	movq	(%rdi), %rcx
	addq	%rsi, %rcx
	subq	%rax, %rsi
	movq	$-1, %rdi
	xorl	%eax, %eax
	.p2align	4, 0x90
LBB190_2:
	leaq	(%rsi,%rdi), %rdx
	cmpq	$-1, %rdx
	je	LBB190_6
	movzbl	1(%rcx,%rdi), %edx
	incq	%rdi
	testb	%dl, %dl
	jne	LBB190_2
	cmpb	$1, %dl
	movb	$1, %al
	adcb	$0, %al
	movzbl	%al, %eax
	andl	$1, %eax
	leaq	(%rax,%rdi), %rdx
	cmpq	%rdx, %r8
	jae	LBB190_7
LBB190_5:
	xorl	%eax, %eax
LBB190_6:
	popq	%rbp
	retq
LBB190_7:
	addq	%rsi, %rax
	addq	%rdi, %rax
	cmoveq	%rax, %rcx
	movq	%rcx, %rax
	popq	%rbp
	retq
	.cfi_endproc

	.section	__TEXT,__literal16,16byte_literals
	.p2align	4
LCPI191_0:
	.byte	95
	.byte	95
	.byte	103
	.byte	99
	.byte	99
	.byte	95
	.byte	101
	.byte	120
	.byte	99
	.byte	101
	.byte	112
	.byte	116
	.byte	95
	.byte	116
	.byte	97
	.byte	98
	.section	__TEXT,__text,regular,pure_instructions
	.globl	__ZN6object4read3any4File5parse17h71a775fcee2307baE
	.p2align	4, 0x90
__ZN6object4read3any4File5parse17h71a775fcee2307baE:
Lfunc_begin0:
	.cfi_startproc
	.cfi_personality 155, _rust_eh_personality
	.cfi_lsda 16, Lexception0
	pushq	%rbp
	.cfi_def_cfa_offset 16
	.cfi_offset %rbp, -16
	movq	%rsp, %rbp
	.cfi_def_cfa_register %rbp
	pushq	%r15
	pushq	%r14
	pushq	%r13
	pushq	%r12
	pushq	%rbx
	subq	$568, %rsp
	.cfi_offset %rbx, -56
	.cfi_offset %r12, -48
	.cfi_offset %r13, -40
	.cfi_offset %r14, -32
	.cfi_offset %r15, -24
	cmpq	$15, %rdx
	ja	LBB191_2
	leaq	l___unnamed_282(%rip), %rax
	movq	%rax, 8(%rdi)
	movq	$14, 16(%rdi)
	jmp	LBB191_48
LBB191_2:
	movq	%rdx, %r15
	movb	(%rsi), %bl
	movb	1(%rsi), %dl
	movb	2(%rsi), %cl
	movb	3(%rsi), %al
	cmpb	$75, %bl
	jle	LBB191_17
	cmpb	$99, %bl
	jg	LBB191_24
	cmpb	$76, %bl
	je	LBB191_38
	cmpb	$77, %bl
	jne	LBB191_47
	cmpb	$90, %dl
	jne	LBB191_47
	cmpq	$64, %r15
	jb	LBB191_52
	movzwl	(%rsi), %eax
	cmpl	$23117, %eax
	jne	LBB191_52
	movl	60(%rsi), %eax
	movq	%r15, %rdx
	subq	%rax, %rdx
	jb	LBB191_52
	cmpq	$136, %rdx
	jb	LBB191_52
	cmpl	$17744, (%rsi,%rax)
	jne	LBB191_52
	addq	%rsi, %rax
	movzwl	24(%rax), %ecx
	cmpl	$267, %ecx
	je	LBB191_309
	movzwl	%cx, %ecx
	cmpl	$523, %ecx
	jne	LBB191_52
	movzwl	20(%rax), %ebx
	subq	$112, %rbx
	jb	LBB191_310
	addq	$-136, %rdx
	movl	$31, %ecx
	subq	%rbx, %rdx
	jb	LBB191_316
	movq	%rdi, %r8
	movl	132(%rax), %edi
	movq	%rdi, %r9
	leaq	(,%rdi,8), %rdi
	cmpq	%rdi, %rbx
	jb	LBB191_381
	movq	%rbx, %r11
	movq	%rsi, %rbx
	movzwl	6(%rax), %esi
	movq	%rsi, -56(%rbp)
	leaq	(,%rsi,8), %rsi
	leaq	(%rsi,%rsi,4), %rsi
	cmpq	%rdx, %rsi
	ja	LBB191_413
	movq	%r15, %r10
	movl	12(%rax), %ecx
	testq	%rcx, %rcx
	je	LBB191_452
	movq	%rcx, %rdi
	movl	$32, %ecx
	cmpq	%r10, %rdi
	ja	LBB191_427
	movq	%r10, %rdx
	subq	%rdi, %rdx
	movl	16(%rax), %esi
	movq	%rsi, -88(%rbp)
	addq	%rsi, %rsi
	leaq	(%rsi,%rsi,8), %rsi
	subq	%rsi, %rdx
	jb	LBB191_479
	cmpq	$4, %rdx
	jb	LBB191_486
	movq	%rsi, %r14
	addq	%rbx, %rdi
	movq	%rdi, -96(%rbp)
	addq	%rdi, %rsi
	movq	%rsi, -112(%rbp)
	movl	(%rsi), %esi
	movq	%rsi, -64(%rbp)
	cmpq	%rsi, %rdx
	jae	LBB191_453
	jmp	LBB191_496
LBB191_17:
	cmpb	$-50, %bl
	je	LBB191_33
	cmpb	$-49, %bl
	je	LBB191_42
	cmpb	$-2, %bl
	jne	LBB191_47
	cmpb	$-19, %dl
	jne	LBB191_47
	cmpb	$-6, %cl
	jne	LBB191_47
	cmpb	$-50, %al
	je	LBB191_36
	cmpb	$-49, %al
	je	LBB191_45
	jmp	LBB191_47
LBB191_24:
	cmpb	$100, %bl
	je	LBB191_41
	cmpb	$127, %bl
	jne	LBB191_47
	cmpb	$69, %dl
	jne	LBB191_47
	cmpb	$76, %cl
	jne	LBB191_47
	cmpb	$70, %al
	jne	LBB191_47
	movb	4(%rsi), %al
	cmpb	$1, %al
	je	LBB191_63
	cmpb	$2, %al
	jne	LBB191_47
	cmpq	$64, %r15
	movq	%rsi, -48(%rbp)
	movq	%rdi, -160(%rbp)
	jae	LBB191_262
	leaq	l___unnamed_283(%rip), %rax
	movl	$36, %edx
	jmp	LBB191_277
LBB191_33:
	cmpb	$-6, %dl
	jne	LBB191_47
	cmpb	$-19, %cl
	jne	LBB191_47
	cmpb	$-2, %al
	jne	LBB191_47
LBB191_36:
	cmpq	$28, %r15
	jae	LBB191_53
	leaq	l___unnamed_284(%rip), %rbx
	movl	$39, %r13d
	jmp	LBB191_259
LBB191_38:
	cmpb	$1, %dl
	jne	LBB191_47
LBB191_39:
	cmpq	$20, %r15
	jae	LBB191_50
	movl	$42, %edx
	leaq	l___unnamed_285(%rip), %rax
	jmp	LBB191_314
LBB191_41:
	cmpb	$-122, %dl
	je	LBB191_39
	jmp	LBB191_47
LBB191_42:
	cmpb	$-6, %dl
	jne	LBB191_47
	cmpb	$-19, %cl
	jne	LBB191_47
	cmpb	$-2, %al
	jne	LBB191_47
LBB191_45:
	cmpq	$32, %r15
	jae	LBB191_57
	leaq	l___unnamed_284(%rip), %rbx
	movl	$39, %r12d
	jmp	LBB191_261
LBB191_47:
	leaq	l___unnamed_286(%rip), %rax
	movq	%rax, 8(%rdi)
	movq	$18, 16(%rdi)
LBB191_48:
	movq	$1, (%rdi)
LBB191_49:
	movq	%rdi, %rax
	addq	$568, %rsp
	popq	%rbx
	popq	%r12
	popq	%r13
	popq	%r14
	popq	%r15
	popq	%rbp
	vzeroupper
	retq
LBB191_50:
	leaq	-20(%r15), %rdx
	movzwl	16(%rsi), %ecx
	subq	%rcx, %rdx
	jae	LBB191_61
	movl	$33, %edx
	leaq	l___unnamed_287(%rip), %rax
	jmp	LBB191_314
LBB191_52:
	leaq	l___unnamed_288(%rip), %rax
	movq	%rax, 8(%rdi)
	movq	$19, 16(%rdi)
	jmp	LBB191_48
LBB191_53:
	movl	(%rsi), %r12d
	cmpl	$-822415874, %r12d
	je	LBB191_55
	cmpl	$-17958194, %r12d
	jne	LBB191_258
LBB191_55:
	cmpl	$-822415874, %r12d
	movq	$8, -240(%rbp)
	vpxor	%xmm0, %xmm0, %xmm0
	vmovdqu	%xmm0, -232(%rbp)
	movl	20(%rsi), %eax
	movl	%eax, %edx
	bswapl	%edx
	cmovnel	%eax, %edx
	leaq	-28(%r15), %rax
	movl	$8, %r9d
	cmpq	%rdx, %rax
	movq	%r15, -120(%rbp)
	jae	LBB191_68
	leaq	l___unnamed_289(%rip), %rax
	xorl	%r10d, %r10d
	xorl	%r11d, %r11d
	xorl	%ecx, %ecx
	movq	%rcx, -64(%rbp)
	xorl	%ecx, %ecx
	movq	%rcx, -88(%rbp)
	movq	%rax, -112(%rbp)
	movq	%rax, -96(%rbp)
	jmp	LBB191_302
LBB191_57:
	movl	(%rsi), %edx
	cmpl	$-805638658, %edx
	je	LBB191_59
	cmpl	$-17958193, %edx
	jne	LBB191_260
LBB191_59:
	cmpl	$-805638658, %edx
	movq	$8, -240(%rbp)
	vpxor	%xmm0, %xmm0, %xmm0
	vmovdqu	%xmm0, -232(%rbp)
	movl	20(%rsi), %eax
	movl	%eax, %r12d
	bswapl	%r12d
	cmovnel	%eax, %r12d
	leaq	-32(%r15), %rax
	movl	$8, %r9d
	cmpq	%r12, %rax
	movq	%r15, -120(%rbp)
	jae	LBB191_163
	leaq	l___unnamed_289(%rip), %rax
	xorl	%r10d, %r10d
	xorl	%r11d, %r11d
	xorl	%ecx, %ecx
	movq	%rcx, -64(%rbp)
	xorl	%ecx, %ecx
	movq	%rcx, -88(%rbp)
	movq	%rax, -112(%rbp)
	movq	%rax, -96(%rbp)
	jmp	LBB191_304
LBB191_61:
	movq	%rdi, %r8
	movzwl	2(%rsi), %eax
	leaq	(,%rax,8), %rdi
	leaq	(%rdi,%rdi,4), %rdi
	cmpq	%rdx, %rdi
	jbe	LBB191_65
	movl	$31, %edx
	leaq	l___unnamed_290(%rip), %rax
	jmp	LBB191_313
LBB191_63:
	cmpq	$52, %r15
	movq	%rsi, -48(%rbp)
	movq	%rdi, -160(%rbp)
	jae	LBB191_265
	leaq	l___unnamed_283(%rip), %rax
	movl	$36, %edx
	jmp	LBB191_290
LBB191_65:
	movl	8(%rsi), %r9d
	testq	%r9, %r9
	je	LBB191_296
	movl	$32, %edx
	cmpq	%r15, %r9
	jbe	LBB191_299
	leaq	l___unnamed_291(%rip), %rax
	jmp	LBB191_313
LBB191_68:
	cmpl	$-822415874, %r12d
	movl	16(%rsi), %ecx
	movl	%ecx, %eax
	bswapl	%eax
	cmovnel	%ecx, %eax
	xorl	%r10d, %r10d
	leaq	l___unnamed_289(%rip), %rbx
	cmpl	$8, %edx
	movq	%rbx, -112(%rbp)
	jb	LBB191_301
	movl	$0, %r11d
	movl	$0, %ecx
	movq	%rcx, -64(%rbp)
	movl	$0, %ecx
	movq	%rcx, -88(%rbp)
	movq	%rbx, -96(%rbp)
	testl	%eax, %eax
	je	LBB191_302
	movl	%eax, -72(%rbp)
	movq	%rdi, -160(%rbp)
	leaq	28(%rsi), %rcx
	leaq	l___unnamed_289(%rip), %r14
	movl	$8, %edi
	xorl	%r9d, %r9d
	movl	$0, %r10d
	xorl	%r8d, %r8d
	movq	%r14, -96(%rbp)
	movq	%r14, %r11
	xorl	%eax, %eax
	movq	%rax, -64(%rbp)
	movq	%rsi, -48(%rbp)
	movl	%r12d, -128(%rbp)
	jmp	LBB191_71
LBB191_160:
	movq	-80(%rbp), %rdx
	decl	-72(%rbp)
	je	LBB191_162
LBB191_161:
	addq	-144(%rbp), %rcx
	cmpq	$8, %rdx
	jb	LBB191_162
LBB191_71:
	cmpl	$-822415874, %r12d
	movl	4(%rcx), %eax
	movl	%eax, %ebx
	bswapl	%ebx
	cmovnel	%eax, %ebx
	movq	%rbx, -144(%rbp)
	subq	%rbx, %rdx
	jb	LBB191_162
	movq	%rdx, -80(%rbp)
	movl	(%rcx), %edx
	cmpl	$-822415874, %r12d
	movl	%edx, %eax
	bswapl	%eax
	cmovnel	%edx, %eax
	cmpl	$2, %eax
	movq	%rcx, -136(%rbp)
	je	LBB191_152
	cmpl	$1, %eax
	jne	LBB191_160
	movq	-144(%rbp), %rax
	cmpl	$56, %eax
	jb	LBB191_319
	addq	$-56, %rax
	cmpl	$-822415874, %r12d
	movl	48(%rcx), %edx
	movl	%edx, %ebx
	bswapl	%ebx
	cmovnel	%edx, %ebx
	movq	%rbx, %rdx
	shlq	$6, %rdx
	leaq	(%rdx,%rbx,4), %rdx
	cmpq	%rax, %rdx
	ja	LBB191_321
	testq	%rdx, %rdx
	je	LBB191_160
	movq	%r11, -112(%rbp)
	movq	%r8, -88(%rbp)
	leaq	56(%rcx), %r14
	addq	%r14, %rdx
	leaq	72(%rcx), %r12
	movq	%r10, %r15
	movq	%rdx, %r11
	movq	%rdx, -152(%rbp)
	incq	%r15
	jne	LBB191_83
	jmp	LBB191_510
LBB191_78:
	movq	%rsi, %rdi
LBB191_79:
	testq	%rdi, %rdi
	je	LBB191_512
LBB191_80:
	movq	%rdi, -240(%rbp)
	movq	%rbx, %rax
	movabsq	$-6148914691236517205, %rcx
	mulq	%rcx
	movq	%rdx, %r9
	shrq	$4, %r9
	movq	%r9, -232(%rbp)
LBB191_81:
	leaq	(%r10,%r10,2), %rax
	movq	%r15, (%rdi,%rax,8)
	movq	%r14, 8(%rdi,%rax,8)
	movb	%r13b, 16(%rdi,%rax,8)
	movl	-288(%rbp), %edx
	movl	-285(%rbp), %esi
	movl	%edx, 17(%rdi,%rax,8)
	movl	%esi, 20(%rdi,%rax,8)
	movq	%r15, -224(%rbp)
	addq	$68, %r12
	movq	%r15, %r10
	movq	%r8, %r14
	cmpq	%r11, %r8
	je	LBB191_159
	incq	%r15
	je	LBB191_510
LBB191_83:
	leaq	68(%r14), %r8
	leaq	16(%r14), %rax
	xorl	%edx, %edx
	.p2align	4, 0x90
LBB191_84:
	cmpq	$16, %rdx
	je	LBB191_87
	movzbl	(%r12,%rdx), %ebx
	incq	%rdx
	testb	%bl, %bl
	jne	LBB191_84
	cmpb	$1, %bl
	movb	$1, %bl
	adcb	$0, %bl
	movzbl	%bl, %esi
	andl	$1, %esi
