	.section	__TEXT,__text,regular,pure_instructions
	.macosx_version_min 10, 7
	.p2align	4, 0x90
__ZN100_$LT$core..iter..adapters..Filter$LT$I$C$P$GT$$u20$as$u20$core..iter..traits..iterator..Iterator$GT$4next17h011206872f58511bE:
	.cfi_startproc
	pushq	%rbp
	.cfi_def_cfa_offset 16
	.cfi_offset %rbp, -16
	movq	%rsp, %rbp
	.cfi_def_cfa_register %rbp
	pushq	%r15
	pushq	%r14
	pushq	%r13
	pushq	%r12
	pushq	%rbx
	subq	$232, %rsp
	.cfi_offset %rbx, -56
	.cfi_offset %r12, -48
	.cfi_offset %r13, -40
	.cfi_offset %r14, -32
	.cfi_offset %r15, -24
	movq	%rsi, %rbx
	movq	%rdi, %r14
	leaq	-120(%rbp), %r13
	leaq	-160(%rbp), %r15
	movl	$242, %r12d
	jmp	LBB0_2
	.p2align	4, 0x90
LBB0_1:
	cmpq	$6, %rsi
	jne	LBB0_22
LBB0_2:
	movq	64(%rbx), %rdx
	movq	48(%rbx), %rax
	movl	$0, %r11d
	testq	%rax, %rax
	je	LBB0_5
	movl	$0, %r11d
	cmpq	%rdx, 56(%rbx)
	jbe	LBB0_5
	movl	(%rax,%rdx,4), %r10d
	movl	$1, %r11d
LBB0_5:
	cmpq	%rdx, 24(%rbx)
	jbe	LBB0_21
	movq	%rdx, %rcx
	shlq	$4, %rcx
	addq	16(%rbx), %rcx
	leaq	1(%rdx), %rax
	movq	%rax, 64(%rbx)
	movq	(%rbx), %rax
	movb	208(%rax), %al
	testb	%al, %al
	movq	40(%rbx), %rsi
	movl	(%rcx), %edi
	movl	%edi, %r8d
	bswapl	%r8d
	cmovel	%edi, %r8d
	movl	$30, %r9d
	cmpq	%r8, %rsi
	jb	LBB0_7
	subq	%r8, %rsi
	je	LBB0_7
	addq	32(%rbx), %r8
	xorl	%edi, %edi
	.p2align	4, 0x90
LBB0_10:
	cmpb	$0, (%r8,%rdi)
	je	LBB0_14
	incq	%rdi
	cmpq	%rdi, %rsi
	jne	LBB0_10
	.p2align	4, 0x90
LBB0_7:
	xorl	%r8d, %r8d
LBB0_15:
	movzbl	%al, %esi
	movq	%r15, %rdi
	pushq	%r10
	pushq	%r11
	callq	__ZN6object4read3elf6symbol12parse_symbol17h804ff33fefb2ddeeE
	addq	$16, %rsp
	movq	-144(%rbp), %rax
	movq	%rax, -200(%rbp)
	movq	-160(%rbp), %rax
	movq	-152(%rbp), %rcx
	movq	%rcx, -208(%rbp)
	movq	%rax, -216(%rbp)
	movq	-136(%rbp), %rax
	movq	-128(%rbp), %rcx
	movq	(%r13), %rdx
	movq	8(%r13), %rsi
	movq	%rdx, -192(%rbp)
	movq	%rsi, -184(%rbp)
	movq	16(%r13), %rdx
	movq	%rdx, -176(%rbp)
	movb	-96(%rbp), %dl
	movl	25(%r13), %esi
	movl	28(%r13), %edi
	movl	%esi, -56(%rbp)
	movl	%edi, -53(%rbp)
	cmpq	$6, %rcx
	je	LBB0_21
	movq	-216(%rbp), %rsi
	movq	-208(%rbp), %rdi
	movq	%rsi, -160(%rbp)
	movq	%rdi, -152(%rbp)
	movq	-200(%rbp), %rsi
	movq	%rsi, -144(%rbp)
	movq	-192(%rbp), %rsi
	movq	-184(%rbp), %rdi
	movq	%rsi, -88(%rbp)
	movq	%rdi, -80(%rbp)
	movq	-176(%rbp), %rsi
	movq	%rsi, -72(%rbp)
	movl	-56(%rbp), %esi
	movl	-53(%rbp), %edi
	movl	%esi, -48(%rbp)
	movl	%edi, -45(%rbp)
	movl	$6, %esi
	movzbl	%dl, %edi
	btl	%edi, %r12d
	jb	LBB0_1
	cmpq	$2, %rcx
	je	LBB0_1
	cmpq	$4, %rcx
	je	LBB0_1
	testq	%rax, %rax
	je	LBB0_1
	movq	-144(%rbp), %rsi
	movq	%rsi, -248(%rbp)
	movq	-160(%rbp), %rsi
	movq	-152(%rbp), %rdi
	movq	%rdi, -256(%rbp)
	movq	%rsi, -264(%rbp)
	movq	-88(%rbp), %rsi
	movq	-80(%rbp), %rdi
	movq	%rsi, -240(%rbp)
	movq	%rdi, -232(%rbp)
	movq	-72(%rbp), %rsi
	movq	%rsi, -224(%rbp)
	movl	-48(%rbp), %esi
	movl	-45(%rbp), %edi
	movl	%esi, -64(%rbp)
	movl	%edi, -61(%rbp)
	movb	%dl, -41(%rbp)
	movq	%rcx, %rsi
	movq	%rax, -168(%rbp)
	jmp	LBB0_1
LBB0_14:
	movq	%rdi, %r9
	jmp	LBB0_15
LBB0_21:
	movq	$6, 32(%r14)
	jmp	LBB0_23
LBB0_22:
	movq	-248(%rbp), %rax
	movq	%rax, 16(%r14)
	movq	-264(%rbp), %rax
	movq	-256(%rbp), %rcx
	movq	%rcx, 8(%r14)
	movq	%rax, (%r14)
	movq	-240(%rbp), %rax
	movq	-232(%rbp), %rcx
	movq	%rax, -160(%rbp)
	movq	%rcx, -152(%rbp)
	movq	-224(%rbp), %rax
	movq	%rax, -144(%rbp)
	movl	-64(%rbp), %eax
	movl	-61(%rbp), %ecx
	movl	%eax, -88(%rbp)
	movl	%ecx, -85(%rbp)
	movq	-168(%rbp), %rax
	movq	%rax, 24(%r14)
	movq	%rsi, 32(%r14)
	movq	-160(%rbp), %rax
	movq	-152(%rbp), %rcx
	movq	%rax, 40(%r14)
	movq	%rcx, 48(%r14)
	movq	-144(%rbp), %rax
	movq	%rax, 56(%r14)
	movb	-41(%rbp), %al
	movb	%al, 64(%r14)
	movl	-88(%rbp), %eax
	movl	-85(%rbp), %ecx
	movl	%eax, 65(%r14)
	movl	%ecx, 68(%r14)
LBB0_23:
	addq	$232, %rsp
	popq	%rbx
	popq	%r12
	popq	%r13
	popq	%r14
	popq	%r15
	popq	%rbp
	retq
	.cfi_endproc

	.p2align	4, 0x90
__ZN100_$LT$core..iter..adapters..Filter$LT$I$C$P$GT$$u20$as$u20$core..iter..traits..iterator..Iterator$GT$4next17h2a03b11741b16b6cE:
	.cfi_startproc
	pushq	%rbp
	.cfi_def_cfa_offset 16
	.cfi_offset %rbp, -16
	movq	%rsp, %rbp
	.cfi_def_cfa_register %rbp
	pushq	%r15
	pushq	%r14
	pushq	%r13
	pushq	%r12
	pushq	%rbx
	subq	$232, %rsp
	.cfi_offset %rbx, -56
	.cfi_offset %r12, -48
	.cfi_offset %r13, -40
	.cfi_offset %r14, -32
	.cfi_offset %r15, -24
	movq	%rsi, %rbx
	movq	%rdi, %r14
	leaq	-120(%rbp), %r13
	leaq	-160(%rbp), %r15
	movl	$242, %r12d
	jmp	LBB1_2
	.p2align	4, 0x90
LBB1_1:
	cmpq	$6, %rsi
	jne	LBB1_22
LBB1_2:
	movq	64(%rbx), %rdx
	movq	48(%rbx), %rax
	movl	$0, %r11d
	testq	%rax, %rax
	je	LBB1_5
	movl	$0, %r11d
	cmpq	%rdx, 56(%rbx)
	jbe	LBB1_5
	movl	(%rax,%rdx,4), %r10d
	movl	$1, %r11d
LBB1_5:
	cmpq	%rdx, 24(%rbx)
	jbe	LBB1_21
	leaq	(%rdx,%rdx,2), %rcx
	shlq	$3, %rcx
	addq	16(%rbx), %rcx
	leaq	1(%rdx), %rax
	movq	%rax, 64(%rbx)
	movq	(%rbx), %rax
	movb	208(%rax), %al
	testb	%al, %al
	movq	40(%rbx), %rsi
	movl	(%rcx), %edi
	movl	%edi, %r8d
	bswapl	%r8d
	cmovel	%edi, %r8d
	movl	$30, %r9d
	cmpq	%r8, %rsi
	jb	LBB1_7
	subq	%r8, %rsi
	je	LBB1_7
	addq	32(%rbx), %r8
	xorl	%edi, %edi
	.p2align	4, 0x90
LBB1_10:
	cmpb	$0, (%r8,%rdi)
	je	LBB1_14
	incq	%rdi
	cmpq	%rdi, %rsi
	jne	LBB1_10
	.p2align	4, 0x90
LBB1_7:
	xorl	%r8d, %r8d
LBB1_15:
	movzbl	%al, %esi
	movq	%r15, %rdi
	pushq	%r10
	pushq	%r11
	callq	__ZN6object4read3elf6symbol12parse_symbol17hf98e64a2d4fc486bE
	addq	$16, %rsp
	movq	-144(%rbp), %rax
	movq	%rax, -200(%rbp)
	movq	-160(%rbp), %rax
	movq	-152(%rbp), %rcx
	movq	%rcx, -208(%rbp)
	movq	%rax, -216(%rbp)
	movq	-136(%rbp), %rax
	movq	-128(%rbp), %rcx
	movq	(%r13), %rdx
	movq	8(%r13), %rsi
	movq	%rdx, -192(%rbp)
	movq	%rsi, -184(%rbp)
	movq	16(%r13), %rdx
	movq	%rdx, -176(%rbp)
	movb	-96(%rbp), %dl
	movl	25(%r13), %esi
	movl	28(%r13), %edi
	movl	%esi, -56(%rbp)
	movl	%edi, -53(%rbp)
	cmpq	$6, %rcx
	je	LBB1_21
	movq	-216(%rbp), %rsi
	movq	-208(%rbp), %rdi
	movq	%rsi, -160(%rbp)
	movq	%rdi, -152(%rbp)
	movq	-200(%rbp), %rsi
	movq	%rsi, -144(%rbp)
	movq	-192(%rbp), %rsi
	movq	-184(%rbp), %rdi
	movq	%rsi, -88(%rbp)
	movq	%rdi, -80(%rbp)
	movq	-176(%rbp), %rsi
	movq	%rsi, -72(%rbp)
	movl	-56(%rbp), %esi
	movl	-53(%rbp), %edi
	movl	%esi, -48(%rbp)
	movl	%edi, -45(%rbp)
	movl	$6, %esi
	movzbl	%dl, %edi
	btl	%edi, %r12d
	jb	LBB1_1
	cmpq	$2, %rcx
	je	LBB1_1
	cmpq	$4, %rcx
	je	LBB1_1
	testq	%rax, %rax
	je	LBB1_1
	movq	-144(%rbp), %rsi
	movq	%rsi, -248(%rbp)
	movq	-160(%rbp), %rsi
	movq	-152(%rbp), %rdi
	movq	%rdi, -256(%rbp)
	movq	%rsi, -264(%rbp)
	movq	-88(%rbp), %rsi
	movq	-80(%rbp), %rdi
	movq	%rsi, -240(%rbp)
	movq	%rdi, -232(%rbp)
	movq	-72(%rbp), %rsi
	movq	%rsi, -224(%rbp)
	movl	-48(%rbp), %esi
	movl	-45(%rbp), %edi
	movl	%esi, -64(%rbp)
	movl	%edi, -61(%rbp)
	movb	%dl, -41(%rbp)
	movq	%rcx, %rsi
	movq	%rax, -168(%rbp)
	jmp	LBB1_1
LBB1_14:
	movq	%rdi, %r9
	jmp	LBB1_15
LBB1_21:
	movq	$6, 32(%r14)
	jmp	LBB1_23
LBB1_22:
	movq	-248(%rbp), %rax
	movq	%rax, 16(%r14)
	movq	-264(%rbp), %rax
	movq	-256(%rbp), %rcx
	movq	%rcx, 8(%r14)
	movq	%rax, (%r14)
	movq	-240(%rbp), %rax
	movq	-232(%rbp), %rcx
	movq	%rax, -160(%rbp)
	movq	%rcx, -152(%rbp)
	movq	-224(%rbp), %rax
	movq	%rax, -144(%rbp)
	movl	-64(%rbp), %eax
	movl	-61(%rbp), %ecx
	movl	%eax, -88(%rbp)
	movl	%ecx, -85(%rbp)
	movq	-168(%rbp), %rax
	movq	%rax, 24(%r14)
	movq	%rsi, 32(%r14)
	movq	-160(%rbp), %rax
	movq	-152(%rbp), %rcx
	movq	%rax, 40(%r14)
	movq	%rcx, 48(%r14)
	movq	-144(%rbp), %rax
	movq	%rax, 56(%r14)
	movb	-41(%rbp), %al
	movb	%al, 64(%r14)
	movl	-88(%rbp), %eax
	movl	-85(%rbp), %ecx
	movl	%eax, 65(%r14)
	movl	%ecx, 68(%r14)
LBB1_23:
	addq	$232, %rsp
	popq	%rbx
	popq	%r12
	popq	%r13
	popq	%r14
	popq	%r15
	popq	%rbp
	retq
	.cfi_endproc

	.p2align	4, 0x90
__ZN100_$LT$core..iter..adapters..Filter$LT$I$C$P$GT$$u20$as$u20$core..iter..traits..iterator..Iterator$GT$4next17h523d2e7ba2608506E:
	.cfi_startproc
	pushq	%rbp
	.cfi_def_cfa_offset 16
	.cfi_offset %rbp, -16
	movq	%rsp, %rbp
	.cfi_def_cfa_register %rbp
	pushq	%r15
	pushq	%r14
	pushq	%r13
	pushq	%r12
	pushq	%rbx
	subq	$232, %rsp
	.cfi_offset %rbx, -56
	.cfi_offset %r12, -48
	.cfi_offset %r13, -40
	.cfi_offset %r14, -32
	.cfi_offset %r15, -24
	movq	%rsi, %r13
	movq	%rdi, %r14
	movq	(%rsi), %rsi
	movq	8(%r13), %rdx
	cmpq	%rdx, 8(%rsi)
	jbe	LBB2_13
	movq	(%rsi), %rax
	testq	%rax, %rax
	je	LBB2_13
	leaq	(%rdx,%rdx,8), %rcx
	leaq	(%rax,%rcx,2), %rcx
	leaq	-120(%rbp), %r12
	leaq	-160(%rbp), %r15
	movl	$242, %ebx
	.p2align	4, 0x90
LBB2_3:
	leaq	(%rdx,%rdx,8), %rdi
	movzbl	17(%rax,%rdi,2), %eax
	incq	%rax
	addq	%rdx, %rax
	jb	LBB2_15
	movq	%rax, 8(%r13)
	movq	%r15, %rdi
	callq	__ZN6object4read4coff6symbol12parse_symbol17h914f256e0d801d5bE
	movq	-144(%rbp), %rax
	movq	%rax, -200(%rbp)
	movq	-160(%rbp), %rax
	movq	-152(%rbp), %rcx
	movq	%rcx, -208(%rbp)
	movq	%rax, -216(%rbp)
	movq	-136(%rbp), %rax
	movq	-128(%rbp), %rcx
	movq	(%r12), %rdx
	movq	8(%r12), %rsi
	movq	%rdx, -192(%rbp)
	movq	%rsi, -184(%rbp)
	movq	16(%r12), %rdx
	movq	%rdx, -176(%rbp)
	movzbl	-96(%rbp), %edx
	movl	25(%r12), %esi
	movl	28(%r12), %edi
	movl	%esi, -56(%rbp)
	movl	%edi, -53(%rbp)
	cmpq	$6, %rcx
	je	LBB2_13
	movq	-216(%rbp), %rsi
	movq	-208(%rbp), %rdi
	movq	%rsi, -160(%rbp)
	movq	%rdi, -152(%rbp)
	movq	-200(%rbp), %rsi
	movq	%rsi, -144(%rbp)
	movq	-192(%rbp), %rsi
	movq	-184(%rbp), %rdi
	movq	%rsi, -88(%rbp)
	movq	%rdi, -80(%rbp)
	movq	-176(%rbp), %rsi
	movq	%rsi, -72(%rbp)
	movl	-56(%rbp), %esi
	movl	-53(%rbp), %edi
	movl	%esi, -48(%rbp)
	movl	%edi, -45(%rbp)
	movl	$6, %esi
	movzbl	%dl, %edi
	btl	%edi, %ebx
	jae	LBB2_6
LBB2_10:
	cmpq	$6, %rsi
	jne	LBB2_16
	movq	(%r13), %rsi
	movq	8(%r13), %rdx
	cmpq	%rdx, 8(%rsi)
	jbe	LBB2_13
	movq	(%rsi), %rax
	leaq	(%rdx,%rdx,8), %rcx
	leaq	(%rax,%rcx,2), %rcx
	testq	%rax, %rax
	jne	LBB2_3
	jmp	LBB2_13
	.p2align	4, 0x90
LBB2_6:
	cmpq	$2, %rcx
	je	LBB2_10
	cmpq	$4, %rcx
	je	LBB2_10
	testq	%rax, %rax
	je	LBB2_10
	movq	-144(%rbp), %rsi
	movq	%rsi, -248(%rbp)
	movq	-160(%rbp), %rsi
	movq	-152(%rbp), %rdi
	movq	%rdi, -256(%rbp)
	movq	%rsi, -264(%rbp)
	movq	-88(%rbp), %rsi
	movq	-80(%rbp), %rdi
	movq	%rsi, -240(%rbp)
	movq	%rdi, -232(%rbp)
	movq	-72(%rbp), %rsi
	movq	%rsi, -224(%rbp)
	movl	-48(%rbp), %esi
	movl	-45(%rbp), %edi
	movl	%esi, -64(%rbp)
	movl	%edi, -61(%rbp)
	movb	%dl, -41(%rbp)
	movq	%rcx, %rsi
	movq	%rax, -168(%rbp)
	jmp	LBB2_10
LBB2_13:
	movq	$6, 32(%r14)
LBB2_14:
	addq	$232, %rsp
	popq	%rbx
	popq	%r12
	popq	%r13
	popq	%r14
	popq	%r15
	popq	%rbp
	retq
LBB2_16:
	movq	-248(%rbp), %rax
	movq	%rax, 16(%r14)
	movq	-264(%rbp), %rax
	movq	-256(%rbp), %rcx
	movq	%rcx, 8(%r14)
	movq	%rax, (%r14)
	movq	-240(%rbp), %rax
	movq	-232(%rbp), %rcx
	movq	%rax, -160(%rbp)
	movq	%rcx, -152(%rbp)
	movq	-224(%rbp), %rax
	movq	%rax, -144(%rbp)
	movl	-64(%rbp), %eax
	movl	-61(%rbp), %ecx
	movl	%eax, -88(%rbp)
	movl	%ecx, -85(%rbp)
	movq	-168(%rbp), %rax
	movq	%rax, 24(%r14)
	movq	%rsi, 32(%r14)
	movq	-160(%rbp), %rax
	movq	-152(%rbp), %rcx
	movq	%rax, 40(%r14)
	movq	%rcx, 48(%r14)
	movq	-144(%rbp), %rax
	movq	%rax, 56(%r14)
	movb	-41(%rbp), %al
	movb	%al, 64(%r14)
	movl	-88(%rbp), %eax
	movl	-85(%rbp), %ecx
	movl	%eax, 65(%r14)
	movl	%ecx, 68(%r14)
	jmp	LBB2_14
LBB2_15:
	leaq	_str.1(%rip), %rdi
	leaq	l___unnamed_1(%rip), %rdx
	movl	$28, %esi
	callq	__ZN4core9panicking5panic17h383a6b80ea7021aaE
	.cfi_endproc

	.p2align	4, 0x90
__ZN42_$LT$$RF$T$u20$as$u20$core..fmt..Debug$GT$3fmt17h00b767a85c3a9dc4E:
	.cfi_startproc
	pushq	%rbp
	.cfi_def_cfa_offset 16
	.cfi_offset %rbp, -16
	movq	%rsp, %rbp
	.cfi_def_cfa_register %rbp
	pushq	%r14
	pushq	%rbx
	subq	$32, %rsp
	.cfi_offset %rbx, -32
	.cfi_offset %r14, -24
	movq	(%rdi), %rbx
	leaq	l___unnamed_2(%rip), %rdx
	leaq	-48(%rbp), %r14
	movl	$12, %ecx
	movq	%r14, %rdi
	callq	__ZN4core3fmt9Formatter11debug_tuple17h6c448643801d07e8E
	movq	%rbx, -24(%rbp)
	leaq	l___unnamed_3(%rip), %rdx
	leaq	-24(%rbp), %rsi
	movq	%r14, %rdi
	callq	__ZN4core3fmt8builders10DebugTuple5field17hc7b676d0e36b51d9E
	movq	%r14, %rdi
	callq	__ZN4core3fmt8builders10DebugTuple6finish17h9f206806f7096c33E
	addq	$32, %rsp
	popq	%rbx
	popq	%r14
	popq	%rbp
	retq
	.cfi_endproc

	.p2align	4, 0x90
__ZN42_$LT$$RF$T$u20$as$u20$core..fmt..Debug$GT$3fmt17h012e48a1987e3531E:
	.cfi_startproc
	pushq	%rbp
	.cfi_def_cfa_offset 16
	.cfi_offset %rbp, -16
	movq	%rsp, %rbp
	.cfi_def_cfa_register %rbp
	pushq	%r14
	pushq	%rbx
	subq	$32, %rsp
	.cfi_offset %rbx, -32
	.cfi_offset %r14, -24
	movq	(%rdi), %rbx
	leaq	l___unnamed_4(%rip), %rdx
	leaq	-40(%rbp), %r14
	movl	$11, %ecx
	movq	%r14, %rdi
	callq	__ZN4core3fmt9Formatter12debug_struct17ha1a64e91d2a98458E
	movq	%rbx, -24(%rbp)
	addq	$8, %rbx
	leaq	L___unnamed_5(%rip), %rsi
	leaq	l___unnamed_6(%rip), %r8
	leaq	-24(%rbp), %rcx
	movl	$4, %edx
	movq	%r14, %rdi
	callq	__ZN4core3fmt8builders11DebugStruct5field17h6c54d35ac41bb1e6E
	movq	%rbx, -24(%rbp)
	leaq	l___unnamed_7(%rip), %rsi
	leaq	l___unnamed_8(%rip), %r8
	leaq	-24(%rbp), %rcx
	movl	$7, %edx
	movq	%r14, %rdi
	callq	__ZN4core3fmt8builders11DebugStruct5field17h6c54d35ac41bb1e6E
	movq	%r14, %rdi
	callq	__ZN4core3fmt8builders11DebugStruct6finish17h67ed49fd5e81bb24E
	addq	$32, %rsp
	popq	%rbx
	popq	%r14
	popq	%rbp
	retq
	.cfi_endproc

	.p2align	4, 0x90
__ZN42_$LT$$RF$T$u20$as$u20$core..fmt..Debug$GT$3fmt17h013d775def473fd8E:
	.cfi_startproc
	pushq	%rbp
	.cfi_def_cfa_offset 16
	.cfi_offset %rbp, -16
	movq	%rsp, %rbp
	.cfi_def_cfa_register %rbp
	pushq	%r15
	pushq	%r14
	pushq	%r13
	pushq	%r12
	pushq	%rbx
	subq	$24, %rsp
	.cfi_offset %rbx, -56
	.cfi_offset %r12, -48
	.cfi_offset %r13, -40
	.cfi_offset %r14, -32
	.cfi_offset %r15, -24
	movq	(%rdi), %rax
	movq	(%rax), %r13
	movq	8(%rax), %rbx
	leaq	-64(%rbp), %rdi
	callq	__ZN4core3fmt9Formatter10debug_list17h113a4e31f24f00d7E
	testq	%rbx, %rbx
	je	LBB5_3
	shlq	$3, %rbx
	leaq	(%rbx,%rbx,4), %rbx
	leaq	l___unnamed_9(%rip), %r14
	leaq	-64(%rbp), %r15
	leaq	-48(%rbp), %r12
	.p2align	4, 0x90
LBB5_2:
	movq	%r13, -48(%rbp)
	addq	$40, %r13
	movq	%r15, %rdi
	movq	%r12, %rsi
	movq	%r14, %rdx
	callq	__ZN4core3fmt8builders9DebugList5entry17h2dea26f6c644471aE
	addq	$-40, %rbx
	jne	LBB5_2
LBB5_3:
	leaq	-64(%rbp), %rdi
	callq	__ZN4core3fmt8builders9DebugList6finish17h1537bc92ee1acb1cE
	addq	$24, %rsp
	popq	%rbx
	popq	%r12
	popq	%r13
	popq	%r14
	popq	%r15
	popq	%rbp
	retq
	.cfi_endproc

	.p2align	4, 0x90
__ZN42_$LT$$RF$T$u20$as$u20$core..fmt..Debug$GT$3fmt17h067a9b0a0989d97fE:
	.cfi_startproc
	pushq	%rbp
	.cfi_def_cfa_offset 16
	.cfi_offset %rbp, -16
	movq	%rsp, %rbp
	.cfi_def_cfa_register %rbp
	pushq	%r15
	pushq	%r14
	pushq	%r13
	pushq	%r12
	pushq	%rbx
	subq	$24, %rsp
	.cfi_offset %rbx, -56
	.cfi_offset %r12, -48
	.cfi_offset %r13, -40
	.cfi_offset %r14, -32
	.cfi_offset %r15, -24
	movq	(%rdi), %rax
	movq	(%rax), %rbx
	movq	8(%rax), %r13
	leaq	-64(%rbp), %rdi
	callq	__ZN4core3fmt9Formatter10debug_list17h113a4e31f24f00d7E
	testq	%r13, %r13
	je	LBB6_3
	shlq	$3, %r13
	leaq	l___unnamed_10(%rip), %r14
	leaq	-64(%rbp), %r15
	leaq	-48(%rbp), %r12
	.p2align	4, 0x90
LBB6_2:
	movq	%rbx, -48(%rbp)
	addq	$8, %rbx
	movq	%r15, %rdi
	movq	%r12, %rsi
	movq	%r14, %rdx
	callq	__ZN4core3fmt8builders9DebugList5entry17h2dea26f6c644471aE
	addq	$-8, %r13
	jne	LBB6_2
LBB6_3:
	leaq	-64(%rbp), %rdi
	callq	__ZN4core3fmt8builders9DebugList6finish17h1537bc92ee1acb1cE
	addq	$24, %rsp
	popq	%rbx
	popq	%r12
	popq	%r13
	popq	%r14
	popq	%r15
	popq	%rbp
	retq
	.cfi_endproc

	.p2align	4, 0x90
__ZN42_$LT$$RF$T$u20$as$u20$core..fmt..Debug$GT$3fmt17h0c83813eefcb11b4E:
	.cfi_startproc
	pushq	%rbp
	.cfi_def_cfa_offset 16
	.cfi_offset %rbp, -16
	movq	%rsp, %rbp
	.cfi_def_cfa_register %rbp
	movq	%rsi, %rdx
	movq	(%rdi), %rax
	movq	(%rax), %rdi
	movq	8(%rax), %rsi
	popq	%rbp
	jmp	__ZN6object3pod16debug_list_bytes17h74a15a64087ba199E
	.cfi_endproc

	.p2align	4, 0x90
__ZN42_$LT$$RF$T$u20$as$u20$core..fmt..Debug$GT$3fmt17h11280217385f7b44E:
	.cfi_startproc
	pushq	%rbp
	.cfi_def_cfa_offset 16
	.cfi_offset %rbp, -16
	movq	%rsp, %rbp
	.cfi_def_cfa_register %rbp
	pushq	%r15
	pushq	%r14
	pushq	%r13
	pushq	%r12
	pushq	%rbx
	subq	$40, %rsp
	.cfi_offset %rbx, -56
	.cfi_offset %r12, -48
	.cfi_offset %r13, -40
	.cfi_offset %r14, -32
	.cfi_offset %r15, -24
	movq	(%rdi), %rbx
	leaq	-72(%rbp), %r12
	movq	%r12, %rdi
	callq	__ZN4core3fmt9Formatter10debug_list17h113a4e31f24f00d7E
	leaq	1(%rbx), %r13
	movq	%rbx, -48(%rbp)
	leaq	l___unnamed_11(%rip), %r14
	leaq	-48(%rbp), %r15
	movq	%r12, %rdi
	movq	%r15, %rsi
	movq	%r14, %rdx
	callq	__ZN4core3fmt8builders9DebugList5entry17h2dea26f6c644471aE
	leaq	2(%rbx), %rax
	movq	%rax, -56(%rbp)
	movq	%r13, -48(%rbp)
	movq	%r12, %rdi
	movq	%r15, %rsi
	movq	%r14, %rdx
	movq	%r14, %r13
	callq	__ZN4core3fmt8builders9DebugList5entry17h2dea26f6c644471aE
	leaq	3(%rbx), %r14
	movq	-56(%rbp), %rax
	movq	%rax, -48(%rbp)
	movq	%r12, %rdi
	movq	%r15, %rsi
	movq	%r13, %rdx
	callq	__ZN4core3fmt8builders9DebugList5entry17h2dea26f6c644471aE
	leaq	4(%rbx), %rax
	movq	%rax, -56(%rbp)
	movq	%r14, -48(%rbp)
	movq	%r12, %rdi
	movq	%r15, %rsi
	movq	%r13, %rdx
	callq	__ZN4core3fmt8builders9DebugList5entry17h2dea26f6c644471aE
	leaq	5(%rbx), %r14
	movq	-56(%rbp), %rax
	movq	%rax, -48(%rbp)
	movq	%r12, %rdi
	movq	%r15, %rsi
	movq	%r13, %rdx
	callq	__ZN4core3fmt8builders9DebugList5entry17h2dea26f6c644471aE
	leaq	6(%rbx), %rax
	movq	%rax, -56(%rbp)
	movq	%r14, -48(%rbp)
	movq	%r12, %rdi
	movq	%r15, %rsi
	movq	%r13, %rdx
	callq	__ZN4core3fmt8builders9DebugList5entry17h2dea26f6c644471aE
	leaq	7(%rbx), %r14
	movq	-56(%rbp), %rax
	movq	%rax, -48(%rbp)
	movq	%r12, %rdi
	movq	%r15, %rsi
	movq	%r13, %rdx
	callq	__ZN4core3fmt8builders9DebugList5entry17h2dea26f6c644471aE
	leaq	8(%rbx), %rax
	movq	%rax, -56(%rbp)
	movq	%r14, -48(%rbp)
	movq	%r12, %rdi
	movq	%r15, %rsi
	movq	%r13, %rdx
	callq	__ZN4core3fmt8builders9DebugList5entry17h2dea26f6c644471aE
	leaq	9(%rbx), %r14
	movq	-56(%rbp), %rax
	movq	%rax, -48(%rbp)
	movq	%r12, %rdi
	movq	%r15, %rsi
	movq	%r13, %rdx
	callq	__ZN4core3fmt8builders9DebugList5entry17h2dea26f6c644471aE
	leaq	10(%rbx), %rax
	movq	%rax, -56(%rbp)
	movq	%r14, -48(%rbp)
	movq	%r12, %rdi
	movq	%r15, %rsi
	movq	%r13, %rdx
	callq	__ZN4core3fmt8builders9DebugList5entry17h2dea26f6c644471aE
	leaq	11(%rbx), %r14
	movq	-56(%rbp), %rax
	movq	%rax, -48(%rbp)
	movq	%r12, %rdi
	movq	%r15, %rsi
	movq	%r13, %rdx
	callq	__ZN4core3fmt8builders9DebugList5entry17h2dea26f6c644471aE
	leaq	12(%rbx), %rax
	movq	%rax, -56(%rbp)
	movq	%r14, -48(%rbp)
	movq	%r12, %rdi
	movq	%r15, %rsi
	movq	%r13, %rdx
	callq	__ZN4core3fmt8builders9DebugList5entry17h2dea26f6c644471aE
	leaq	13(%rbx), %r14
	movq	-56(%rbp), %rax
	movq	%rax, -48(%rbp)
	movq	%r12, %rdi
	movq	%r15, %rsi
	movq	%r13, %rdx
	callq	__ZN4core3fmt8builders9DebugList5entry17h2dea26f6c644471aE
	leaq	14(%rbx), %rax
	movq	%rax, -56(%rbp)
	movq	%r14, -48(%rbp)
	movq	%r12, %rdi
	movq	%r15, %rsi
	movq	%r13, %rdx
	callq	__ZN4core3fmt8builders9DebugList5entry17h2dea26f6c644471aE
	leaq	15(%rbx), %r14
	movq	-56(%rbp), %rax
	movq	%rax, -48(%rbp)
	movq	%r12, %rdi
	movq	%r15, %rsi
	movq	%r13, %rdx
	callq	__ZN4core3fmt8builders9DebugList5entry17h2dea26f6c644471aE
	leaq	16(%rbx), %rax
	movq	%rax, -56(%rbp)
	movq	%r14, -48(%rbp)
	movq	%r12, %rdi
	movq	%r15, %rsi
	movq	%r13, %rdx
	callq	__ZN4core3fmt8builders9DebugList5entry17h2dea26f6c644471aE
	leaq	17(%rbx), %r14
	movq	-56(%rbp), %rax
	movq	%rax, -48(%rbp)
	movq	%r12, %rdi
	movq	%r15, %rsi
	movq	%r13, %rdx
	callq	__ZN4core3fmt8builders9DebugList5entry17h2dea26f6c644471aE
	movq	%r14, -48(%rbp)
	movq	%r12, %rdi
	movq	%r15, %rsi
	movq	%r13, %rdx
	callq	__ZN4core3fmt8builders9DebugList5entry17h2dea26f6c644471aE
	leaq	18(%rbx), %rax
	addq	$19, %rbx
	movq	%rax, -48(%rbp)
	movq	%r12, %rdi
	movq	%r15, %rsi
	movq	%r13, %rdx
	callq	__ZN4core3fmt8builders9DebugList5entry17h2dea26f6c644471aE
	movq	%rbx, -48(%rbp)
	movq	%r12, %rdi
	movq	%r15, %rsi
	movq	%r13, %rdx
	callq	__ZN4core3fmt8builders9DebugList5entry17h2dea26f6c644471aE
	movq	%r12, %rdi
	callq	__ZN4core3fmt8builders9DebugList6finish17h1537bc92ee1acb1cE
	addq	$40, %rsp
	popq	%rbx
	popq	%r12
	popq	%r13
	popq	%r14
	popq	%r15
	popq	%rbp
	retq
	.cfi_endproc

	.p2align	4, 0x90
__ZN42_$LT$$RF$T$u20$as$u20$core..fmt..Debug$GT$3fmt17h1146d0555eeb893bE:
	.cfi_startproc
	pushq	%rbp
	.cfi_def_cfa_offset 16
	.cfi_offset %rbp, -16
	movq	%rsp, %rbp
	.cfi_def_cfa_register %rbp
	movq	(%rdi), %rdi
	popq	%rbp
	jmp	__ZN78_$LT$object..read..any..SymbolIteratorInternal$u20$as$u20$core..fmt..Debug$GT$3fmt17hb055900c0af30805E
	.cfi_endproc

	.p2align	4, 0x90
__ZN42_$LT$$RF$T$u20$as$u20$core..fmt..Debug$GT$3fmt17h133834bb42cb72fbE:
	.cfi_startproc
	pushq	%rbp
	.cfi_def_cfa_offset 16
	.cfi_offset %rbp, -16
	movq	%rsp, %rbp
	.cfi_def_cfa_register %rbp
	movq	(%rdi), %rdi
	popq	%rbp
	jmp	__ZN63_$LT$object..common..SymbolKind$u20$as$u20$core..fmt..Debug$GT$3fmt17h9e52f9ca61691324E
	.cfi_endproc

	.p2align	4, 0x90
__ZN42_$LT$$RF$T$u20$as$u20$core..fmt..Debug$GT$3fmt17h13882818acf7bc57E:
	.cfi_startproc
	pushq	%rbp
	.cfi_def_cfa_offset 16
	.cfi_offset %rbp, -16
	movq	%rsp, %rbp
	.cfi_def_cfa_register %rbp
	pushq	%r14
	pushq	%rbx
	subq	$32, %rsp
	.cfi_offset %rbx, -32
	.cfi_offset %r14, -24
	movq	(%rdi), %rbx
	leaq	l___unnamed_12(%rip), %rdx
	leaq	-40(%rbp), %r14
	movl	$11, %ecx
	movq	%r14, %rdi
	callq	__ZN4core3fmt9Formatter12debug_struct17ha1a64e91d2a98458E
	movq	%rbx, -24(%rbp)
	addq	$16, %rbx
	leaq	l___unnamed_13(%rip), %rsi
	leaq	l___unnamed_14(%rip), %r8
	leaq	-24(%rbp), %rcx
	movl	$7, %edx
	movq	%r14, %rdi
	callq	__ZN4core3fmt8builders11DebugStruct5field17h6c54d35ac41bb1e6E
	movq	%rbx, -24(%rbp)
	leaq	l___unnamed_15(%rip), %rsi
	leaq	l___unnamed_16(%rip), %r8
	leaq	-24(%rbp), %rcx
	movl	$7, %edx
	movq	%r14, %rdi
	callq	__ZN4core3fmt8builders11DebugStruct5field17h6c54d35ac41bb1e6E
	movq	%r14, %rdi
	callq	__ZN4core3fmt8builders11DebugStruct6finish17h67ed49fd5e81bb24E
	addq	$32, %rsp
	popq	%rbx
	popq	%r14
	popq	%rbp
	retq
	.cfi_endproc

	.p2align	4, 0x90
__ZN42_$LT$$RF$T$u20$as$u20$core..fmt..Debug$GT$3fmt17h1388c89bf16939a6E:
	.cfi_startproc
	pushq	%rbp
	.cfi_def_cfa_offset 16
	.cfi_offset %rbp, -16
	movq	%rsp, %rbp
	.cfi_def_cfa_register %rbp
	pushq	%r15
	pushq	%r14
	pushq	%r13
	pushq	%r12
	pushq	%rbx
	subq	$24, %rsp
	.cfi_offset %rbx, -56
	.cfi_offset %r12, -48
	.cfi_offset %r13, -40
	.cfi_offset %r14, -32
	.cfi_offset %r15, -24
	movq	(%rdi), %rax
	movq	(%rax), %rbx
	leaq	80(%rbx), %r14
	leaq	l___unnamed_17(%rip), %rdx
	leaq	-64(%rbp), %r15
	movl	$9, %ecx
	movq	%r15, %rdi
	callq	__ZN4core3fmt9Formatter12debug_struct17ha1a64e91d2a98458E
	movq	%r14, -48(%rbp)
	leaq	l___unnamed_18(%rip), %rsi
	leaq	l___unnamed_19(%rip), %r8
	leaq	-48(%rbp), %rcx
	movl	$6, %edx
	movq	%r15, %rdi
	callq	__ZN4core3fmt8builders11DebugStruct5field17h6c54d35ac41bb1e6E
	movq	%rbx, -48(%rbp)
	leaq	16(%rbx), %r12
	leaq	24(%rbx), %r13
	leaq	48(%rbx), %r14
	leaq	L___unnamed_20(%rip), %rsi
	leaq	l___unnamed_21(%rip), %r8
	leaq	-48(%rbp), %rcx
	movl	$4, %edx
	movq	%r15, %rdi
	callq	__ZN4core3fmt8builders11DebugStruct5field17h6c54d35ac41bb1e6E
	movq	%r12, -48(%rbp)
	leaq	l___unnamed_22(%rip), %rsi
	leaq	l___unnamed_23(%rip), %r8
	leaq	-48(%rbp), %rcx
	movl	$6, %edx
	movq	%r15, %rdi
	callq	__ZN4core3fmt8builders11DebugStruct5field17h6c54d35ac41bb1e6E
	movq	%r13, -48(%rbp)
	leaq	L___unnamed_24(%rip), %rsi
	leaq	l___unnamed_25(%rip), %r8
	leaq	-48(%rbp), %rcx
	movl	$8, %edx
	movq	%r15, %rdi
	callq	__ZN4core3fmt8builders11DebugStruct5field17h6c54d35ac41bb1e6E
	movq	%r14, -48(%rbp)
	leaq	l___unnamed_13(%rip), %rsi
	leaq	l___unnamed_26(%rip), %r8
	leaq	-48(%rbp), %rcx
	movl	$7, %edx
	movq	%r15, %rdi
	callq	__ZN4core3fmt8builders11DebugStruct5field17h6c54d35ac41bb1e6E
	movq	%r15, %rdi
	callq	__ZN4core3fmt8builders11DebugStruct6finish17h67ed49fd5e81bb24E
	addq	$24, %rsp
	popq	%rbx
	popq	%r12
	popq	%r13
	popq	%r14
	popq	%r15
	popq	%rbp
	retq
	.cfi_endproc

	.p2align	4, 0x90
__ZN42_$LT$$RF$T$u20$as$u20$core..fmt..Debug$GT$3fmt17h140d92e8ae8efb3bE:
	.cfi_startproc
	pushq	%rbp
	.cfi_def_cfa_offset 16
	.cfi_offset %rbp, -16
	movq	%rsp, %rbp
	.cfi_def_cfa_register %rbp
	pushq	%rbx
	subq	$24, %rsp
	.cfi_offset %rbx, -24
	leaq	l___unnamed_27(%rip), %rdx
	leaq	-24(%rbp), %rbx
	movl	$18, %ecx
	movq	%rbx, %rdi
	callq	__ZN4core3fmt9Formatter12debug_struct17ha1a64e91d2a98458E
	movq	%rbx, %rdi
	callq	__ZN4core3fmt8builders11DebugStruct6finish17h67ed49fd5e81bb24E
	addq	$24, %rsp
	popq	%rbx
	popq	%rbp
	retq
	.cfi_endproc

	.p2align	4, 0x90
__ZN42_$LT$$RF$T$u20$as$u20$core..fmt..Debug$GT$3fmt17h16716f1e14020b53E:
	.cfi_startproc
	pushq	%rbp
	.cfi_def_cfa_offset 16
	.cfi_offset %rbp, -16
	movq	%rsp, %rbp
	.cfi_def_cfa_register %rbp
	movq	(%rdi), %rax
	movq	(%rax), %rdi
	popq	%rbp
	jmp	__ZN64_$LT$object..pe..ImageFileHeader$u20$as$u20$core..fmt..Debug$GT$3fmt17h5b6058b2c785bcbeE
	.cfi_endproc

	.p2align	4, 0x90
__ZN42_$LT$$RF$T$u20$as$u20$core..fmt..Debug$GT$3fmt17h19e22dea9cc0068dE:
	.cfi_startproc
	pushq	%rbp
	.cfi_def_cfa_offset 16
	.cfi_offset %rbp, -16
	movq	%rsp, %rbp
	.cfi_def_cfa_register %rbp
	pushq	%rbx
	subq	$24, %rsp
	.cfi_offset %rbx, -24
	leaq	l___unnamed_28(%rip), %rdx
	leaq	-24(%rbp), %rbx
	movl	$17, %ecx
	movq	%rbx, %rdi
	callq	__ZN4core3fmt9Formatter12debug_struct17ha1a64e91d2a98458E
	movq	%rbx, %rdi
	callq	__ZN4core3fmt8builders11DebugStruct6finish17h67ed49fd5e81bb24E
	addq	$24, %rsp
	popq	%rbx
	popq	%rbp
	retq
	.cfi_endproc

	.p2align	4, 0x90
__ZN42_$LT$$RF$T$u20$as$u20$core..fmt..Debug$GT$3fmt17h1a64154660e9e494E:
	.cfi_startproc
	pushq	%rbp
	.cfi_def_cfa_offset 16
	.cfi_offset %rbp, -16
	movq	%rsp, %rbp
	.cfi_def_cfa_register %rbp
	pushq	%r14
	pushq	%rbx
	.cfi_offset %rbx, -32
	.cfi_offset %r14, -24
	movq	%rsi, %rbx
	movq	(%rdi), %r14
	movq	%rsi, %rdi
	callq	__ZN4core3fmt9Formatter15debug_lower_hex17hd07f6fde8d0365dfE
	testb	%al, %al
	je	LBB16_1
	movq	%r14, %rdi
	movq	%rbx, %rsi
	popq	%rbx
	popq	%r14
	popq	%rbp
	jmp	__ZN4core3fmt3num52_$LT$impl$u20$core..fmt..LowerHex$u20$for$u20$i8$GT$3fmt17h5ba2f2472d1b08b3E
LBB16_1:
	movq	%rbx, %rdi
	callq	__ZN4core3fmt9Formatter15debug_upper_hex17hf480c256a9c81c1eE
	movq	%r14, %rdi
	movq	%rbx, %rsi
	testb	%al, %al
	je	LBB16_4
	popq	%rbx
	popq	%r14
	popq	%rbp
	jmp	__ZN4core3fmt3num52_$LT$impl$u20$core..fmt..UpperHex$u20$for$u20$i8$GT$3fmt17h36a1c2413d99c98eE
LBB16_4:
	popq	%rbx
	popq	%r14
	popq	%rbp
	jmp	__ZN4core3fmt3num3imp51_$LT$impl$u20$core..fmt..Display$u20$for$u20$i8$GT$3fmt17hc9fc67837369c997E
	.cfi_endproc

	.p2align	4, 0x90
__ZN42_$LT$$RF$T$u20$as$u20$core..fmt..Debug$GT$3fmt17h1bfb96a27dfdf1ecE:
	.cfi_startproc
	pushq	%rbp
	.cfi_def_cfa_offset 16
	.cfi_offset %rbp, -16
	movq	%rsp, %rbp
	.cfi_def_cfa_register %rbp
	pushq	%r15
	pushq	%r14
	pushq	%rbx
	subq	$24, %rsp
	.cfi_offset %rbx, -40
	.cfi_offset %r14, -32
	.cfi_offset %r15, -24
	movq	(%rdi), %rax
	movq	(%rax), %rbx
	leaq	L___unnamed_29(%rip), %rdx
	leaq	-48(%rbp), %r14
	movl	$16, %ecx
	movq	%r14, %rdi
	callq	__ZN4core3fmt9Formatter12debug_struct17ha1a64e91d2a98458E
	movq	%rbx, -32(%rbp)
	leaq	4(%rbx), %r15
	addq	$24, %rbx
	leaq	l___unnamed_30(%rip), %rsi
	leaq	l___unnamed_31(%rip), %r8
	leaq	-32(%rbp), %rcx
	movl	$9, %edx
	movq	%r14, %rdi
	callq	__ZN4core3fmt8builders11DebugStruct5field17h6c54d35ac41bb1e6E
	movq	%r15, -32(%rbp)
	leaq	l___unnamed_32(%rip), %rsi
	leaq	l___unnamed_33(%rip), %r8
	leaq	-32(%rbp), %rcx
	movl	$11, %edx
	movq	%r14, %rdi
	callq	__ZN4core3fmt8builders11DebugStruct5field17h6c54d35ac41bb1e6E
	movq	%rbx, -32(%rbp)
	leaq	l___unnamed_34(%rip), %rsi
	leaq	l___unnamed_35(%rip), %r8
	leaq	-32(%rbp), %rcx
	movl	$15, %edx
	movq	%r14, %rdi
	callq	__ZN4core3fmt8builders11DebugStruct5field17h6c54d35ac41bb1e6E
	movq	%r14, %rdi
	callq	__ZN4core3fmt8builders11DebugStruct6finish17h67ed49fd5e81bb24E
	addq	$24, %rsp
	popq	%rbx
	popq	%r14
	popq	%r15
	popq	%rbp
	retq
	.cfi_endproc

	.p2align	4, 0x90
__ZN42_$LT$$RF$T$u20$as$u20$core..fmt..Debug$GT$3fmt17h1e78049779d97141E:
	.cfi_startproc
	pushq	%rbp
	.cfi_def_cfa_offset 16
	.cfi_offset %rbp, -16
	movq	%rsp, %rbp
	.cfi_def_cfa_register %rbp
	movq	(%rdi), %rax
	movq	(%rax), %rdi
	popq	%rbp
	jmp	__ZN63_$LT$object..pe..ImageDosHeader$u20$as$u20$core..fmt..Debug$GT$3fmt17h50558c82b2faa766E
	.cfi_endproc

	.p2align	4, 0x90
__ZN42_$LT$$RF$T$u20$as$u20$core..fmt..Debug$GT$3fmt17h1ef88feb9be02510E:
	.cfi_startproc
	pushq	%rbp
	.cfi_def_cfa_offset 16
	.cfi_offset %rbp, -16
	movq	%rsp, %rbp
	.cfi_def_cfa_register %rbp
	movq	(%rdi), %rdi
	popq	%rbp
	jmp	__ZN42_$LT$$RF$T$u20$as$u20$core..fmt..Debug$GT$3fmt17h4a839e4839e96882E
	.cfi_endproc

	.p2align	4, 0x90
__ZN42_$LT$$RF$T$u20$as$u20$core..fmt..Debug$GT$3fmt17h20b44798f7bf8e9cE:
	.cfi_startproc
	pushq	%rbp
	.cfi_def_cfa_offset 16
	.cfi_offset %rbp, -16
	movq	%rsp, %rbp
	.cfi_def_cfa_register %rbp
	pushq	%r15
	pushq	%r14
	pushq	%r13
	pushq	%r12
	pushq	%rbx
	subq	$24, %rsp
	.cfi_offset %rbx, -56
	.cfi_offset %r12, -48
	.cfi_offset %r13, -40
	.cfi_offset %r14, -32
	.cfi_offset %r15, -24
	movq	(%rdi), %rax
	movq	(%rax), %r13
	movq	8(%rax), %rbx
	leaq	-64(%rbp), %rdi
	callq	__ZN4core3fmt9Formatter10debug_list17h113a4e31f24f00d7E
	testq	%rbx, %rbx
	je	LBB20_3
	shlq	$3, %rbx
	leaq	(%rbx,%rbx,4), %rbx
	leaq	l___unnamed_36(%rip), %r14
	leaq	-64(%rbp), %r15
	leaq	-48(%rbp), %r12
	.p2align	4, 0x90
LBB20_2:
	movq	%r13, -48(%rbp)
	addq	$40, %r13
	movq	%r15, %rdi
	movq	%r12, %rsi
	movq	%r14, %rdx
	callq	__ZN4core3fmt8builders9DebugList5entry17h2dea26f6c644471aE
	addq	$-40, %rbx
	jne	LBB20_2
LBB20_3:
	leaq	-64(%rbp), %rdi
	callq	__ZN4core3fmt8builders9DebugList6finish17h1537bc92ee1acb1cE
	addq	$24, %rsp
	popq	%rbx
	popq	%r12
	popq	%r13
	popq	%r14
	popq	%r15
	popq	%rbp
	retq
	.cfi_endproc

	.p2align	4, 0x90
__ZN42_$LT$$RF$T$u20$as$u20$core..fmt..Debug$GT$3fmt17h20b6f121cd1d8c3eE:
	.cfi_startproc
	pushq	%rbp
	.cfi_def_cfa_offset 16
	.cfi_offset %rbp, -16
	movq	%rsp, %rbp
	.cfi_def_cfa_register %rbp
	pushq	%r15
	pushq	%r14
	pushq	%r13
	pushq	%r12
	pushq	%rbx
	subq	$24, %rsp
	.cfi_offset %rbx, -56
	.cfi_offset %r12, -48
	.cfi_offset %r13, -40
	.cfi_offset %r14, -32
	.cfi_offset %r15, -24
	movq	(%rdi), %rbx
	leaq	l___unnamed_12(%rip), %rdx
	leaq	-64(%rbp), %r15
	movl	$11, %ecx
	movq	%r15, %rdi
	callq	__ZN4core3fmt9Formatter12debug_struct17ha1a64e91d2a98458E
	movq	%rbx, -48(%rbp)
	leaq	8(%rbx), %r12
	leaq	24(%rbx), %r13
	leaq	40(%rbx), %r14
	leaq	l___unnamed_7(%rip), %rsi
	leaq	l___unnamed_3(%rip), %r8
	leaq	-48(%rbp), %rcx
	movl	$7, %edx
	movq	%r15, %rdi
	callq	__ZN4core3fmt8builders11DebugStruct5field17h6c54d35ac41bb1e6E
	movq	%r12, -48(%rbp)
	leaq	l___unnamed_13(%rip), %rsi
	leaq	l___unnamed_37(%rip), %r8
	leaq	-48(%rbp), %rcx
	movl	$7, %edx
	movq	%r15, %rdi
	callq	__ZN4core3fmt8builders11DebugStruct5field17h6c54d35ac41bb1e6E
	movq	%r13, -48(%rbp)
	leaq	l___unnamed_15(%rip), %rsi
	leaq	l___unnamed_16(%rip), %r8
	leaq	-48(%rbp), %rcx
	movl	$7, %edx
	movq	%r15, %rdi
	callq	__ZN4core3fmt8builders11DebugStruct5field17h6c54d35ac41bb1e6E
	movq	%r14, -48(%rbp)
	leaq	l___unnamed_38(%rip), %rsi
	leaq	l___unnamed_39(%rip), %r8
	leaq	-48(%rbp), %rcx
	movl	$5, %edx
	movq	%r15, %rdi
	callq	__ZN4core3fmt8builders11DebugStruct5field17h6c54d35ac41bb1e6E
	movq	%r15, %rdi
	callq	__ZN4core3fmt8builders11DebugStruct6finish17h67ed49fd5e81bb24E
	addq	$24, %rsp
	popq	%rbx
	popq	%r12
	popq	%r13
	popq	%r14
	popq	%r15
	popq	%rbp
	retq
	.cfi_endproc

	.p2align	4, 0x90
__ZN42_$LT$$RF$T$u20$as$u20$core..fmt..Debug$GT$3fmt17h21241a06ee584156E:
	.cfi_startproc
	pushq	%rbp
	.cfi_def_cfa_offset 16
	.cfi_offset %rbp, -16
	movq	%rsp, %rbp
	.cfi_def_cfa_register %rbp
	pushq	%rbx
	subq	$24, %rsp
	.cfi_offset %rbx, -24
	leaq	l___unnamed_40(%rip), %rdx
	leaq	-24(%rbp), %rbx
	movl	$19, %ecx
	movq	%rbx, %rdi
	callq	__ZN4core3fmt9Formatter12debug_struct17ha1a64e91d2a98458E
	movq	%rbx, %rdi
	callq	__ZN4core3fmt8builders11DebugStruct6finish17h67ed49fd5e81bb24E
	addq	$24, %rsp
	popq	%rbx
	popq	%rbp
	retq
	.cfi_endproc

	.p2align	4, 0x90
__ZN42_$LT$$RF$T$u20$as$u20$core..fmt..Debug$GT$3fmt17h214ee64add33b195E:
	.cfi_startproc
	pushq	%rbp
	.cfi_def_cfa_offset 16
	.cfi_offset %rbp, -16
	movq	%rsp, %rbp
	.cfi_def_cfa_register %rbp
	pushq	%r15
	pushq	%r14
	pushq	%r13
	pushq	%r12
	pushq	%rbx
	subq	$56, %rsp
	.cfi_offset %rbx, -56
	.cfi_offset %r12, -48
	.cfi_offset %r13, -40
	.cfi_offset %r14, -32
	.cfi_offset %r15, -24
	movq	(%rdi), %rax
	movq	(%rax), %rbx
	leaq	l___unnamed_41(%rip), %rdx
	leaq	-88(%rbp), %r13
	movl	$12, %ecx
	movq	%r13, %rdi
	callq	__ZN4core3fmt9Formatter12debug_struct17ha1a64e91d2a98458E
	movq	%rbx, -48(%rbp)
	leaq	4(%rbx), %r14
	leaq	8(%rbx), %r15
	leaq	12(%rbx), %r12
	leaq	16(%rbx), %rax
	movq	%rax, -56(%rbp)
	leaq	20(%rbx), %rax
	movq	%rax, -64(%rbp)
	leaq	24(%rbx), %rax
	movq	%rax, -72(%rbp)
	leaq	28(%rbx), %rbx
	leaq	l___unnamed_42(%rip), %rsi
	leaq	l___unnamed_43(%rip), %r8
	leaq	-48(%rbp), %rcx
	movl	$5, %edx
	movq	%r13, %rdi
	callq	__ZN4core3fmt8builders11DebugStruct5field17h6c54d35ac41bb1e6E
	movq	%r14, -48(%rbp)
	leaq	l___unnamed_44(%rip), %rsi
	leaq	l___unnamed_45(%rip), %r14
	leaq	-48(%rbp), %rcx
	movl	$7, %edx
	movq	%r13, %rdi
	movq	%r14, %r8
	callq	__ZN4core3fmt8builders11DebugStruct5field17h6c54d35ac41bb1e6E
	movq	%r15, -48(%rbp)
	leaq	l___unnamed_46(%rip), %rsi
	leaq	-48(%rbp), %rcx
	movl	$10, %edx
	movq	%r13, %rdi
	movq	%r14, %r8
	callq	__ZN4core3fmt8builders11DebugStruct5field17h6c54d35ac41bb1e6E
	movq	%r12, -48(%rbp)
	leaq	L___unnamed_47(%rip), %rsi
	leaq	-48(%rbp), %rcx
	movl	$8, %edx
	movq	%r13, %rdi
	movq	%r14, %r8
	callq	__ZN4core3fmt8builders11DebugStruct5field17h6c54d35ac41bb1e6E
	movq	-56(%rbp), %rax
	movq	%rax, -48(%rbp)
	leaq	l___unnamed_48(%rip), %rsi
	leaq	-48(%rbp), %rcx
	movl	$5, %edx
	movq	%r13, %rdi
	movq	%r14, %r8
	callq	__ZN4core3fmt8builders11DebugStruct5field17h6c54d35ac41bb1e6E
	movq	-64(%rbp), %rax
	movq	%rax, -48(%rbp)
	leaq	l___unnamed_49(%rip), %rsi
	leaq	-48(%rbp), %rcx
	movl	$10, %edx
	movq	%r13, %rdi
	movq	%r14, %r8
	callq	__ZN4core3fmt8builders11DebugStruct5field17h6c54d35ac41bb1e6E
	movq	-72(%rbp), %rax
	movq	%rax, -48(%rbp)
	leaq	l___unnamed_50(%rip), %rsi
	leaq	-48(%rbp), %rcx
	movl	$5, %edx
	movq	%r13, %rdi
	movq	%r14, %r8
	callq	__ZN4core3fmt8builders11DebugStruct5field17h6c54d35ac41bb1e6E
	movq	%rbx, -48(%rbp)
	leaq	L___unnamed_51(%rip), %rsi
	leaq	-48(%rbp), %rcx
	movl	$8, %edx
	movq	%r13, %rdi
	movq	%r14, %r8
	callq	__ZN4core3fmt8builders11DebugStruct5field17h6c54d35ac41bb1e6E
	movq	%r13, %rdi
	callq	__ZN4core3fmt8builders11DebugStruct6finish17h67ed49fd5e81bb24E
	addq	$56, %rsp
	popq	%rbx
	popq	%r12
	popq	%r13
	popq	%r14
	popq	%r15
	popq	%rbp
	retq
	.cfi_endproc

	.p2align	4, 0x90
__ZN42_$LT$$RF$T$u20$as$u20$core..fmt..Debug$GT$3fmt17h24d035d51f41860fE:
	.cfi_startproc
	pushq	%rbp
	.cfi_def_cfa_offset 16
	.cfi_offset %rbp, -16
	movq	%rsp, %rbp
	.cfi_def_cfa_register %rbp
	pushq	%r15
	pushq	%r14
	pushq	%r13
	pushq	%r12
	pushq	%rbx
	subq	$24, %rsp
	.cfi_offset %rbx, -56
	.cfi_offset %r12, -48
	.cfi_offset %r13, -40
	.cfi_offset %r14, -32
	.cfi_offset %r15, -24
	movq	(%rdi), %rbx
	leaq	-64(%rbp), %r12
	movq	%r12, %rdi
	callq	__ZN4core3fmt9Formatter10debug_list17h113a4e31f24f00d7E
	leaq	1(%rbx), %r13
	movq	%rbx, -48(%rbp)
	leaq	l___unnamed_11(%rip), %r15
	leaq	-48(%rbp), %rsi
	movq	%r12, %rdi
	movq	%r15, %rdx
	callq	__ZN4core3fmt8builders9DebugList5entry17h2dea26f6c644471aE
	leaq	2(%rbx), %r14
	movq	%r13, -48(%rbp)
	movq	%r12, %rdi
	leaq	-48(%rbp), %rsi
	movq	%r15, %rdx
	callq	__ZN4core3fmt8builders9DebugList5entry17h2dea26f6c644471aE
	leaq	3(%rbx), %r13
	movq	%r14, -48(%rbp)
	movq	%r12, %rdi
	leaq	-48(%rbp), %rsi
	movq	%r15, %rdx
	callq	__ZN4core3fmt8builders9DebugList5entry17h2dea26f6c644471aE
	leaq	4(%rbx), %r14
	movq	%r13, -48(%rbp)
	movq	%r12, %rdi
	leaq	-48(%rbp), %rsi
	movq	%rsi, %r13
	movq	%r15, %rdx
	callq	__ZN4core3fmt8builders9DebugList5entry17h2dea26f6c644471aE
	movq	%r14, -48(%rbp)
	movq	%r12, %rdi
	movq	%r13, %rsi
	movq	%r15, %rdx
	callq	__ZN4core3fmt8builders9DebugList5entry17h2dea26f6c644471aE
	leaq	5(%rbx), %rax
	addq	$6, %rbx
	movq	%rax, -48(%rbp)
	movq	%r12, %rdi
	movq	%r13, %rsi
	movq	%r15, %rdx
	callq	__ZN4core3fmt8builders9DebugList5entry17h2dea26f6c644471aE
	movq	%rbx, -48(%rbp)
	movq	%r12, %rdi
	movq	%r13, %rsi
	movq	%r15, %rdx
	callq	__ZN4core3fmt8builders9DebugList5entry17h2dea26f6c644471aE
	movq	%r12, %rdi
	callq	__ZN4core3fmt8builders9DebugList6finish17h1537bc92ee1acb1cE
	addq	$24, %rsp
	popq	%rbx
	popq	%r12
	popq	%r13
	popq	%r14
	popq	%r15
	popq	%rbp
	retq
	.cfi_endproc

	.p2align	4, 0x90
__ZN42_$LT$$RF$T$u20$as$u20$core..fmt..Debug$GT$3fmt17h251e4eb66507dab6E:
	.cfi_startproc
	pushq	%rbp
	.cfi_def_cfa_offset 16
	.cfi_offset %rbp, -16
	movq	%rsp, %rbp
	.cfi_def_cfa_register %rbp
	pushq	%r14
	pushq	%rbx
	subq	$32, %rsp
	.cfi_offset %rbx, -32
	.cfi_offset %r14, -24
	movq	(%rdi), %rbx
	leaq	l___unnamed_52(%rip), %rdx
	leaq	-40(%rbp), %r14
	movl	$9, %ecx
	movq	%r14, %rdi
	callq	__ZN4core3fmt9Formatter12debug_struct17ha1a64e91d2a98458E
	movq	%rbx, -24(%rbp)
	addq	$16, %rbx
	leaq	L___unnamed_53(%rip), %rsi
	leaq	l___unnamed_54(%rip), %r8
	leaq	-24(%rbp), %rcx
	movl	$4, %edx
	movq	%r14, %rdi
	callq	__ZN4core3fmt8builders11DebugStruct5field17h6c54d35ac41bb1e6E
	movq	%rbx, -24(%rbp)
	leaq	l___unnamed_55(%rip), %rsi
	leaq	l___unnamed_3(%rip), %r8
	leaq	-24(%rbp), %rcx
	movl	$5, %edx
	movq	%r14, %rdi
	callq	__ZN4core3fmt8builders11DebugStruct5field17h6c54d35ac41bb1e6E
	movq	%r14, %rdi
	callq	__ZN4core3fmt8builders11DebugStruct6finish17h67ed49fd5e81bb24E
	addq	$32, %rsp
	popq	%rbx
	popq	%r14
	popq	%rbp
	retq
	.cfi_endproc

	.p2align	4, 0x90
__ZN42_$LT$$RF$T$u20$as$u20$core..fmt..Debug$GT$3fmt17h264cbdbf741e254fE:
	.cfi_startproc
	pushq	%rbp
	.cfi_def_cfa_offset 16
	.cfi_offset %rbp, -16
	movq	%rsp, %rbp
	.cfi_def_cfa_register %rbp
	pushq	%r14
	pushq	%rbx
	subq	$32, %rsp
	.cfi_offset %rbx, -32
	.cfi_offset %r14, -24
	movq	(%rdi), %rbx
	leaq	l___unnamed_56(%rip), %rdx
	leaq	-40(%rbp), %r14
	movl	$10, %ecx
	movq	%r14, %rdi
	callq	__ZN4core3fmt9Formatter12debug_struct17ha1a64e91d2a98458E
	movq	%rbx, -24(%rbp)
	addq	$8, %rbx
	leaq	L___unnamed_5(%rip), %rsi
	leaq	l___unnamed_57(%rip), %r8
	leaq	-24(%rbp), %rcx
	movl	$4, %edx
	movq	%r14, %rdi
	callq	__ZN4core3fmt8builders11DebugStruct5field17h6c54d35ac41bb1e6E
	movq	%rbx, -24(%rbp)
	leaq	l___unnamed_58(%rip), %rsi
	leaq	l___unnamed_59(%rip), %r8
	leaq	-24(%rbp), %rcx
	movl	$7, %edx
	movq	%r14, %rdi
	callq	__ZN4core3fmt8builders11DebugStruct5field17h6c54d35ac41bb1e6E
	movq	%r14, %rdi
	callq	__ZN4core3fmt8builders11DebugStruct6finish17h67ed49fd5e81bb24E
	addq	$32, %rsp
	popq	%rbx
	popq	%r14
	popq	%rbp
	retq
	.cfi_endproc

	.p2align	4, 0x90
__ZN42_$LT$$RF$T$u20$as$u20$core..fmt..Debug$GT$3fmt17h26dc4f1ed34cce3bE:
	.cfi_startproc
	pushq	%rbp
	.cfi_def_cfa_offset 16
	.cfi_offset %rbp, -16
	movq	%rsp, %rbp
	.cfi_def_cfa_register %rbp
	subq	$112, %rsp
	movq	%rsi, %rax
	movq	(%rdi), %rcx
	movq	%rcx, -64(%rbp)
	leaq	1(%rcx), %rdx
	leaq	2(%rcx), %rsi
	leaq	3(%rcx), %rcx
	movq	__ZN4core3fmt3num52_$LT$impl$u20$core..fmt..LowerHex$u20$for$u20$u8$GT$3fmt17h35609b3cfed2e613E@GOTPCREL(%rip), %rdi
	movq	%rdi, -56(%rbp)
	movq	%rdx, -48(%rbp)
	movq	%rdi, -40(%rbp)
	movq	%rsi, -32(%rbp)
	movq	%rdi, -24(%rbp)
	movq	%rcx, -16(%rbp)
	movq	%rdi, -8(%rbp)
	leaq	l___unnamed_60(%rip), %rcx
	movq	%rcx, -112(%rbp)
	movq	$5, -104(%rbp)
	movq	$0, -96(%rbp)
	leaq	-64(%rbp), %rcx
	movq	%rcx, -80(%rbp)
	movq	$4, -72(%rbp)
	leaq	-112(%rbp), %rsi
	movq	%rax, %rdi
	callq	__ZN4core3fmt9Formatter9write_fmt17h742ca6aae87ad23cE
	addq	$112, %rsp
	popq	%rbp
	retq
	.cfi_endproc

	.p2align	4, 0x90
__ZN42_$LT$$RF$T$u20$as$u20$core..fmt..Debug$GT$3fmt17h26f8f6cbe95e404eE:
	.cfi_startproc
	pushq	%rbp
	.cfi_def_cfa_offset 16
	.cfi_offset %rbp, -16
	movq	%rsp, %rbp
	.cfi_def_cfa_register %rbp
	movq	(%rdi), %rdi
	popq	%rbp
	jmp	__ZN71_$LT$object..common..RelocationEncoding$u20$as$u20$core..fmt..Debug$GT$3fmt17h1d26c042626583e1E
	.cfi_endproc

	.p2align	4, 0x90
__ZN42_$LT$$RF$T$u20$as$u20$core..fmt..Debug$GT$3fmt17h27409a44268455f0E:
	.cfi_startproc
	pushq	%rbp
	.cfi_def_cfa_offset 16
	.cfi_offset %rbp, -16
	movq	%rsp, %rbp
	.cfi_def_cfa_register %rbp
	pushq	%r14
	pushq	%rbx
	subq	$32, %rsp
	.cfi_offset %rbx, -32
	.cfi_offset %r14, -24
	movq	(%rdi), %rbx
	leaq	l___unnamed_61(%rip), %rdx
	leaq	-40(%rbp), %r14
	movl	$18, %ecx
	movq	%r14, %rdi
	callq	__ZN4core3fmt9Formatter12debug_struct17ha1a64e91d2a98458E
	movq	%rbx, -24(%rbp)
	leaq	l___unnamed_62(%rip), %rsi
	leaq	l___unnamed_63(%rip), %r8
	leaq	-24(%rbp), %rcx
	movl	$11, %edx
	movq	%r14, %rdi
	callq	__ZN4core3fmt8builders11DebugStruct5field17h6c54d35ac41bb1e6E
	movq	%r14, %rdi
	callq	__ZN4core3fmt8builders11DebugStruct6finish17h67ed49fd5e81bb24E
	addq	$32, %rsp
	popq	%rbx
	popq	%r14
	popq	%rbp
	retq
	.cfi_endproc

	.p2align	4, 0x90
__ZN42_$LT$$RF$T$u20$as$u20$core..fmt..Debug$GT$3fmt17h2774b7e53e501657E:
	.cfi_startproc
	pushq	%rbp
	.cfi_def_cfa_offset 16
	.cfi_offset %rbp, -16
	movq	%rsp, %rbp
	.cfi_def_cfa_register %rbp
	pushq	%r15
	pushq	%r14
	pushq	%r13
	pushq	%r12
	pushq	%rbx
	subq	$56, %rsp
	.cfi_offset %rbx, -56
	.cfi_offset %r12, -48
	.cfi_offset %r13, -40
	.cfi_offset %r14, -32
	.cfi_offset %r15, -24
	movq	(%rdi), %rbx
	leaq	l___unnamed_64(%rip), %rdx
	leaq	-96(%rbp), %r13
	movl	$15, %ecx
	movq	%r13, %rdi
	callq	__ZN4core3fmt9Formatter12debug_struct17ha1a64e91d2a98458E
	movq	%rbx, -48(%rbp)
	leaq	4(%rbx), %r15
	leaq	8(%rbx), %r12
	leaq	16(%rbx), %rax
	movq	%rax, -56(%rbp)
	leaq	24(%rbx), %rax
	movq	%rax, -64(%rbp)
	leaq	32(%rbx), %rax
	movq	%rax, -72(%rbp)
	leaq	40(%rbx), %rax
	movq	%rax, -80(%rbp)
	leaq	48(%rbx), %rbx
	leaq	l___unnamed_65(%rip), %rsi
	leaq	l___unnamed_45(%rip), %r14
	leaq	-48(%rbp), %rcx
	movl	$6, %edx
	movq	%r13, %rdi
	movq	%r14, %r8
	callq	__ZN4core3fmt8builders11DebugStruct5field17h6c54d35ac41bb1e6E
	movq	%r15, -48(%rbp)
	leaq	l___unnamed_66(%rip), %rsi
	leaq	-48(%rbp), %rcx
	movl	$7, %edx
	movq	%r13, %rdi
	movq	%r14, %r8
	callq	__ZN4core3fmt8builders11DebugStruct5field17h6c54d35ac41bb1e6E
	movq	%r12, -48(%rbp)
	leaq	L___unnamed_67(%rip), %rsi
	leaq	l___unnamed_68(%rip), %r14
	leaq	-48(%rbp), %rcx
	movl	$8, %edx
	movq	%r13, %rdi
	movq	%r14, %r8
	callq	__ZN4core3fmt8builders11DebugStruct5field17h6c54d35ac41bb1e6E
	movq	-56(%rbp), %rax
	movq	%rax, -48(%rbp)
	leaq	l___unnamed_69(%rip), %rsi
	leaq	-48(%rbp), %rcx
	movl	$7, %edx
	movq	%r13, %rdi
	movq	%r14, %r8
	callq	__ZN4core3fmt8builders11DebugStruct5field17h6c54d35ac41bb1e6E
	movq	-64(%rbp), %rax
	movq	%rax, -48(%rbp)
	leaq	l___unnamed_70(%rip), %rsi
	leaq	-48(%rbp), %rcx
	movl	$7, %edx
	movq	%r13, %rdi
	movq	%r14, %r8
	callq	__ZN4core3fmt8builders11DebugStruct5field17h6c54d35ac41bb1e6E
	movq	-72(%rbp), %rax
	movq	%rax, -48(%rbp)
	leaq	L___unnamed_71(%rip), %rsi
	leaq	-48(%rbp), %rcx
	movl	$8, %edx
	movq	%r13, %rdi
	movq	%r14, %r8
	callq	__ZN4core3fmt8builders11DebugStruct5field17h6c54d35ac41bb1e6E
	movq	-80(%rbp), %rax
	movq	%rax, -48(%rbp)
	leaq	l___unnamed_72(%rip), %rsi
	leaq	-48(%rbp), %rcx
	movl	$7, %edx
	movq	%r13, %rdi
	movq	%r14, %r8
	callq	__ZN4core3fmt8builders11DebugStruct5field17h6c54d35ac41bb1e6E
	movq	%rbx, -48(%rbp)
	leaq	l___unnamed_73(%rip), %rsi
	leaq	-48(%rbp), %rcx
	movl	$7, %edx
	movq	%r13, %rdi
	movq	%r14, %r8
	callq	__ZN4core3fmt8builders11DebugStruct5field17h6c54d35ac41bb1e6E
	movq	%r13, %rdi
	callq	__ZN4core3fmt8builders11DebugStruct6finish17h67ed49fd5e81bb24E
	addq	$56, %rsp
	popq	%rbx
	popq	%r12
	popq	%r13
	popq	%r14
	popq	%r15
	popq	%rbp
	retq
	.cfi_endproc

	.p2align	4, 0x90
__ZN42_$LT$$RF$T$u20$as$u20$core..fmt..Debug$GT$3fmt17h27a909e939627ec0E:
	.cfi_startproc
	pushq	%rbp
	.cfi_def_cfa_offset 16
	.cfi_offset %rbp, -16
	movq	%rsp, %rbp
	.cfi_def_cfa_register %rbp
	movq	(%rdi), %rdi
	popq	%rbp
	jmp	__ZN82_$LT$object..read..any..RelocationIteratorInternal$u20$as$u20$core..fmt..Debug$GT$3fmt17hbd9659bae44c1502E
	.cfi_endproc

	.p2align	4, 0x90
__ZN42_$LT$$RF$T$u20$as$u20$core..fmt..Debug$GT$3fmt17h281add2542a47211E:
	.cfi_startproc
	pushq	%rbp
	.cfi_def_cfa_offset 16
	.cfi_offset %rbp, -16
	movq	%rsp, %rbp
	.cfi_def_cfa_register %rbp
	pushq	%r15
	pushq	%r14
	pushq	%r13
	pushq	%r12
	pushq	%rbx
	subq	$24, %rsp
	.cfi_offset %rbx, -56
	.cfi_offset %r12, -48
	.cfi_offset %r13, -40
	.cfi_offset %r14, -32
	.cfi_offset %r15, -24
	movq	(%rdi), %rbx
	leaq	l___unnamed_74(%rip), %rdx
	leaq	-64(%rbp), %r13
	movl	$7, %ecx
	movq	%r13, %rdi
	callq	__ZN4core3fmt9Formatter12debug_struct17ha1a64e91d2a98458E
	movq	%rbx, -48(%rbp)
	leaq	4(%rbx), %r14
	leaq	5(%rbx), %r15
	leaq	6(%rbx), %r12
	leaq	8(%rbx), %rbx
	leaq	l___unnamed_75(%rip), %rsi
	leaq	l___unnamed_45(%rip), %r8
	leaq	-48(%rbp), %rcx
	movl	$6, %edx
	movq	%r13, %rdi
	callq	__ZN4core3fmt8builders11DebugStruct5field17h6c54d35ac41bb1e6E
	movq	%r14, -48(%rbp)
	leaq	l___unnamed_76(%rip), %rsi
	leaq	l___unnamed_11(%rip), %r14
	leaq	-48(%rbp), %rcx
	movl	$6, %edx
	movq	%r13, %rdi
	movq	%r14, %r8
	callq	__ZN4core3fmt8builders11DebugStruct5field17h6c54d35ac41bb1e6E
	movq	%r15, -48(%rbp)
	leaq	l___unnamed_77(%rip), %rsi
	leaq	-48(%rbp), %rcx
	movl	$6, %edx
	movq	%r13, %rdi
	movq	%r14, %r8
	callq	__ZN4core3fmt8builders11DebugStruct5field17h6c54d35ac41bb1e6E
	movq	%r12, -48(%rbp)
	leaq	l___unnamed_78(%rip), %rsi
	leaq	l___unnamed_79(%rip), %r8
	leaq	-48(%rbp), %rcx
	movl	$6, %edx
	movq	%r13, %rdi
	callq	__ZN4core3fmt8builders11DebugStruct5field17h6c54d35ac41bb1e6E
	movq	%rbx, -48(%rbp)
	leaq	l___unnamed_80(%rip), %rsi
	leaq	l___unnamed_68(%rip), %r8
	leaq	-48(%rbp), %rcx
	movl	$7, %edx
	movq	%r13, %rdi
	callq	__ZN4core3fmt8builders11DebugStruct5field17h6c54d35ac41bb1e6E
	movq	%r13, %rdi
	callq	__ZN4core3fmt8builders11DebugStruct6finish17h67ed49fd5e81bb24E
	addq	$24, %rsp
	popq	%rbx
	popq	%r12
	popq	%r13
	popq	%r14
	popq	%r15
	popq	%rbp
	retq
	.cfi_endproc

	.p2align	4, 0x90
__ZN42_$LT$$RF$T$u20$as$u20$core..fmt..Debug$GT$3fmt17h2abd9da51caeec07E:
	.cfi_startproc
	pushq	%rbp
	.cfi_def_cfa_offset 16
	.cfi_offset %rbp, -16
	movq	%rsp, %rbp
	.cfi_def_cfa_register %rbp
	pushq	%r15
	pushq	%r14
	pushq	%r13
	pushq	%r12
	pushq	%rbx
	subq	$88, %rsp
	.cfi_offset %rbx, -56
	.cfi_offset %r12, -48
	.cfi_offset %r13, -40
	.cfi_offset %r14, -32
	.cfi_offset %r15, -24
	movq	(%rdi), %rax
	movq	(%rax), %rbx
	leaq	l___unnamed_81(%rip), %rdx
	leaq	-120(%rbp), %r14
	movl	$9, %ecx
	movq	%r14, %rdi
	callq	__ZN4core3fmt9Formatter12debug_struct17ha1a64e91d2a98458E
	movq	%rbx, -48(%rbp)
	leaq	16(%rbx), %r13
	leaq	32(%rbx), %r15
	leaq	36(%rbx), %r12
	leaq	40(%rbx), %rax
	movq	%rax, -56(%rbp)
	leaq	44(%rbx), %rax
	movq	%rax, -64(%rbp)
	leaq	48(%rbx), %rax
	movq	%rax, -72(%rbp)
	leaq	52(%rbx), %rax
	movq	%rax, -80(%rbp)
	leaq	56(%rbx), %rax
	movq	%rax, -88(%rbp)
	leaq	60(%rbx), %rax
	movq	%rax, -96(%rbp)
	leaq	64(%rbx), %rax
	movq	%rax, -104(%rbp)
	leaq	L___unnamed_82(%rip), %rsi
	leaq	l___unnamed_83(%rip), %rbx
	leaq	-48(%rbp), %rcx
	movl	$8, %edx
	movq	%r14, %rdi
	movq	%rbx, %r8
	callq	__ZN4core3fmt8builders11DebugStruct5field17h6c54d35ac41bb1e6E
	movq	%r13, -48(%rbp)
	leaq	l___unnamed_84(%rip), %rsi
	leaq	-48(%rbp), %rcx
	movl	$7, %edx
	movq	%r14, %rdi
	movq	%rbx, %r8
	callq	__ZN4core3fmt8builders11DebugStruct5field17h6c54d35ac41bb1e6E
	movq	%r15, -48(%rbp)
	leaq	L___unnamed_85(%rip), %rsi
	leaq	l___unnamed_45(%rip), %rbx
	leaq	-48(%rbp), %rcx
	movl	$4, %edx
	movq	%r14, %rdi
	movq	%rbx, %r8
	callq	__ZN4core3fmt8builders11DebugStruct5field17h6c54d35ac41bb1e6E
	movq	%r12, -48(%rbp)
	leaq	L___unnamed_86(%rip), %rsi
	leaq	-48(%rbp), %rcx
	movl	$4, %edx
	movq	%r14, %rdi
	movq	%rbx, %r8
	callq	__ZN4core3fmt8builders11DebugStruct5field17h6c54d35ac41bb1e6E
	movq	-56(%rbp), %rax
	movq	%rax, -48(%rbp)
	leaq	l___unnamed_87(%rip), %rsi
	leaq	-48(%rbp), %rcx
	movl	$6, %edx
	movq	%r14, %rdi
	movq	%rbx, %r8
	callq	__ZN4core3fmt8builders11DebugStruct5field17h6c54d35ac41bb1e6E
	movq	-64(%rbp), %rax
	movq	%rax, -48(%rbp)
	leaq	l___unnamed_88(%rip), %rsi
	leaq	-48(%rbp), %rcx
	movl	$5, %edx
	movq	%r14, %rdi
	movq	%rbx, %r8
	callq	__ZN4core3fmt8builders11DebugStruct5field17h6c54d35ac41bb1e6E
	movq	-72(%rbp), %rax
	movq	%rax, -48(%rbp)
	leaq	l___unnamed_89(%rip), %rsi
	leaq	-48(%rbp), %rcx
	movl	$6, %edx
	movq	%r14, %rdi
	movq	%rbx, %r8
	callq	__ZN4core3fmt8builders11DebugStruct5field17h6c54d35ac41bb1e6E
	movq	-80(%rbp), %rax
	movq	%rax, -48(%rbp)
	leaq	l___unnamed_90(%rip), %rsi
	leaq	-48(%rbp), %rcx
	movl	$6, %edx
	movq	%r14, %rdi
	movq	%rbx, %r8
	callq	__ZN4core3fmt8builders11DebugStruct5field17h6c54d35ac41bb1e6E
	movq	-88(%rbp), %rax
	movq	%rax, -48(%rbp)
	leaq	l___unnamed_50(%rip), %rsi
	leaq	-48(%rbp), %rcx
	movl	$5, %edx
	movq	%r14, %rdi
	movq	%rbx, %r8
	callq	__ZN4core3fmt8builders11DebugStruct5field17h6c54d35ac41bb1e6E
	movq	-96(%rbp), %rax
	movq	%rax, -48(%rbp)
	leaq	l___unnamed_91(%rip), %rsi
	leaq	-48(%rbp), %rcx
	movl	$9, %edx
	movq	%r14, %rdi
	movq	%rbx, %r8
	callq	__ZN4core3fmt8builders11DebugStruct5field17h6c54d35ac41bb1e6E
	movq	-104(%rbp), %rax
	movq	%rax, -48(%rbp)
	leaq	l___unnamed_92(%rip), %rsi
	leaq	-48(%rbp), %rcx
	movl	$9, %edx
	movq	%r14, %rdi
	movq	%rbx, %r8
	callq	__ZN4core3fmt8builders11DebugStruct5field17h6c54d35ac41bb1e6E
	movq	%r14, %rdi
	callq	__ZN4core3fmt8builders11DebugStruct6finish17h67ed49fd5e81bb24E
	addq	$88, %rsp
	popq	%rbx
	popq	%r12
	popq	%r13
	popq	%r14
	popq	%r15
	popq	%rbp
	retq
	.cfi_endproc

	.p2align	4, 0x90
__ZN42_$LT$$RF$T$u20$as$u20$core..fmt..Debug$GT$3fmt17h2c4d088af216406dE:
	.cfi_startproc
	pushq	%rbp
	.cfi_def_cfa_offset 16
	.cfi_offset %rbp, -16
	movq	%rsp, %rbp
	.cfi_def_cfa_register %rbp
	pushq	%rbx
	subq	$24, %rsp
	.cfi_offset %rbx, -24
	movq	(%rdi), %rax
	movzbl	(%rax), %eax
	testq	%rax, %rax
	je	LBB34_4
	cmpl	$1, %eax
	je	LBB34_5
	leaq	L___unnamed_93(%rip), %rdx
	jmp	LBB34_3
LBB34_4:
	leaq	L___unnamed_94(%rip), %rdx
LBB34_3:
	leaq	-32(%rbp), %rbx
	movl	$4, %ecx
	jmp	LBB34_6
LBB34_5:
	leaq	l___unnamed_95(%rip), %rdx
	leaq	-32(%rbp), %rbx
	movl	$7, %ecx
LBB34_6:
	movq	%rbx, %rdi
	callq	__ZN4core3fmt9Formatter11debug_tuple17h6c448643801d07e8E
	movq	%rbx, %rdi
	callq	__ZN4core3fmt8builders10DebugTuple6finish17h9f206806f7096c33E
	addq	$24, %rsp
	popq	%rbx
	popq	%rbp
	retq
	.cfi_endproc

	.p2align	4, 0x90
__ZN42_$LT$$RF$T$u20$as$u20$core..fmt..Debug$GT$3fmt17h2ccf1a8c688c0bc2E:
	.cfi_startproc
	pushq	%rbp
	.cfi_def_cfa_offset 16
	.cfi_offset %rbp, -16
	movq	%rsp, %rbp
	.cfi_def_cfa_register %rbp
	pushq	%r15
	pushq	%r14
	pushq	%rbx
	subq	$24, %rsp
	.cfi_offset %rbx, -40
	.cfi_offset %r14, -32
	.cfi_offset %r15, -24
	movq	(%rdi), %rbx
	leaq	l___unnamed_96(%rip), %rdx
	leaq	-48(%rbp), %r14
	movl	$20, %ecx
	movq	%r14, %rdi
	callq	__ZN4core3fmt9Formatter12debug_struct17ha1a64e91d2a98458E
	movq	%rbx, -32(%rbp)
	leaq	16(%rbx), %r15
	addq	$8, %rbx
	leaq	l___unnamed_97(%rip), %rsi
	leaq	l___unnamed_98(%rip), %r8
	leaq	-32(%rbp), %rcx
	movl	$5, %edx
	movq	%r14, %rdi
	callq	__ZN4core3fmt8builders11DebugStruct5field17h6c54d35ac41bb1e6E
	movq	%r15, -32(%rbp)
	leaq	L___unnamed_99(%rip), %rsi
	leaq	l___unnamed_100(%rip), %r8
	leaq	-32(%rbp), %rcx
	movl	$4, %edx
	movq	%r14, %rdi
	callq	__ZN4core3fmt8builders11DebugStruct5field17h6c54d35ac41bb1e6E
	movq	%rbx, -32(%rbp)
	leaq	l___unnamed_7(%rip), %rsi
	leaq	l___unnamed_101(%rip), %r8
	leaq	-32(%rbp), %rcx
	movl	$7, %edx
	movq	%r14, %rdi
	callq	__ZN4core3fmt8builders11DebugStruct5field17h6c54d35ac41bb1e6E
	movq	%r14, %rdi
	callq	__ZN4core3fmt8builders11DebugStruct6finish17h67ed49fd5e81bb24E
	addq	$24, %rsp
	popq	%rbx
	popq	%r14
	popq	%r15
	popq	%rbp
	retq
	.cfi_endproc

	.p2align	4, 0x90
__ZN42_$LT$$RF$T$u20$as$u20$core..fmt..Debug$GT$3fmt17h2da9589e39b1d092E:
	.cfi_startproc
	pushq	%rbp
	.cfi_def_cfa_offset 16
	.cfi_offset %rbp, -16
	movq	%rsp, %rbp
	.cfi_def_cfa_register %rbp
	movq	(%rdi), %rdi
	popq	%rbp
	jmp	__ZN68_$LT$object..read..any..FileInternal$u20$as$u20$core..fmt..Debug$GT$3fmt17h3c62d3e5603b4e13E
	.cfi_endproc

	.p2align	4, 0x90
__ZN42_$LT$$RF$T$u20$as$u20$core..fmt..Debug$GT$3fmt17h2eb85bdfe55bf37bE:
	.cfi_startproc
	pushq	%rbp
	.cfi_def_cfa_offset 16
	.cfi_offset %rbp, -16
	movq	%rsp, %rbp
	.cfi_def_cfa_register %rbp
	pushq	%r14
	pushq	%rbx
	subq	$32, %rsp
	.cfi_offset %rbx, -32
	.cfi_offset %r14, -24
	movq	(%rdi), %rbx
	leaq	l___unnamed_12(%rip), %rdx
	leaq	-40(%rbp), %r14
	movl	$11, %ecx
	movq	%r14, %rdi
	callq	__ZN4core3fmt9Formatter12debug_struct17ha1a64e91d2a98458E
	movq	%rbx, -24(%rbp)
	addq	$16, %rbx
	leaq	l___unnamed_13(%rip), %rsi
	leaq	l___unnamed_102(%rip), %r8
	leaq	-24(%rbp), %rcx
	movl	$7, %edx
	movq	%r14, %rdi
	callq	__ZN4core3fmt8builders11DebugStruct5field17h6c54d35ac41bb1e6E
	movq	%rbx, -24(%rbp)
	leaq	l___unnamed_15(%rip), %rsi
	leaq	l___unnamed_16(%rip), %r8
	leaq	-24(%rbp), %rcx
	movl	$7, %edx
	movq	%r14, %rdi
	callq	__ZN4core3fmt8builders11DebugStruct5field17h6c54d35ac41bb1e6E
	movq	%r14, %rdi
	callq	__ZN4core3fmt8builders11DebugStruct6finish17h67ed49fd5e81bb24E
	addq	$32, %rsp
	popq	%rbx
	popq	%r14
	popq	%rbp
	retq
	.cfi_endproc

	.p2align	4, 0x90
__ZN42_$LT$$RF$T$u20$as$u20$core..fmt..Debug$GT$3fmt17h300e6f047cc6435cE:
	.cfi_startproc
	pushq	%rbp
	.cfi_def_cfa_offset 16
	.cfi_offset %rbp, -16
	movq	%rsp, %rbp
	.cfi_def_cfa_register %rbp
	movq	(%rdi), %rdi
	popq	%rbp
	jmp	__ZN79_$LT$object..read..any..SegmentIteratorInternal$u20$as$u20$core..fmt..Debug$GT$3fmt17h6c3904a6ca2d446fE
	.cfi_endproc

	.p2align	4, 0x90
__ZN42_$LT$$RF$T$u20$as$u20$core..fmt..Debug$GT$3fmt17h3208b5ccc1520ccbE:
	.cfi_startproc
	pushq	%rbp
	.cfi_def_cfa_offset 16
	.cfi_offset %rbp, -16
	movq	%rsp, %rbp
	.cfi_def_cfa_register %rbp
	pushq	%r15
	pushq	%r14
	pushq	%r13
	pushq	%r12
	pushq	%rbx
	subq	$24, %rsp
	.cfi_offset %rbx, -56
	.cfi_offset %r12, -48
	.cfi_offset %r13, -40
	.cfi_offset %r14, -32
	.cfi_offset %r15, -24
	movq	(%rdi), %rbx
	leaq	-64(%rbp), %r12
	movq	%r12, %rdi
	callq	__ZN4core3fmt9Formatter10debug_list17h113a4e31f24f00d7E
	leaq	1(%rbx), %r13
	movq	%rbx, -48(%rbp)
	leaq	l___unnamed_11(%rip), %r15
	leaq	-48(%rbp), %rsi
	movq	%r12, %rdi
	movq	%r15, %rdx
	callq	__ZN4core3fmt8builders9DebugList5entry17h2dea26f6c644471aE
	leaq	2(%rbx), %r14
	movq	%r13, -48(%rbp)
	movq	%r12, %rdi
	leaq	-48(%rbp), %rsi
	movq	%r15, %rdx
	callq	__ZN4core3fmt8builders9DebugList5entry17h2dea26f6c644471aE
	leaq	3(%rbx), %r13
	movq	%r14, -48(%rbp)
	movq	%r12, %rdi
	leaq	-48(%rbp), %rsi
	movq	%r15, %rdx
	callq	__ZN4core3fmt8builders9DebugList5entry17h2dea26f6c644471aE
	leaq	4(%rbx), %r14
	movq	%r13, -48(%rbp)
	movq	%r12, %rdi
	leaq	-48(%rbp), %rsi
	movq	%r15, %rdx
	callq	__ZN4core3fmt8builders9DebugList5entry17h2dea26f6c644471aE
	leaq	5(%rbx), %r13
	movq	%r14, -48(%rbp)
	movq	%r12, %rdi
	leaq	-48(%rbp), %rsi
	movq	%rsi, %r14
	movq	%r15, %rdx
	callq	__ZN4core3fmt8builders9DebugList5entry17h2dea26f6c644471aE
	movq	%r13, -48(%rbp)
	movq	%r12, %rdi
	movq	%r14, %rsi
	movq	%r15, %rdx
	callq	__ZN4core3fmt8builders9DebugList5entry17h2dea26f6c644471aE
	leaq	6(%rbx), %rax
	addq	$7, %rbx
	movq	%rax, -48(%rbp)
	movq	%r12, %rdi
	movq	%r14, %rsi
	movq	%r15, %rdx
	callq	__ZN4core3fmt8builders9DebugList5entry17h2dea26f6c644471aE
	movq	%rbx, -48(%rbp)
	movq	%r12, %rdi
	movq	%r14, %rsi
	movq	%r15, %rdx
	callq	__ZN4core3fmt8builders9DebugList5entry17h2dea26f6c644471aE
	movq	%r12, %rdi
	callq	__ZN4core3fmt8builders9DebugList6finish17h1537bc92ee1acb1cE
	addq	$24, %rsp
	popq	%rbx
	popq	%r12
	popq	%r13
	popq	%r14
	popq	%r15
	popq	%rbp
	retq
	.cfi_endproc

	.p2align	4, 0x90
__ZN42_$LT$$RF$T$u20$as$u20$core..fmt..Debug$GT$3fmt17h3321a691ed882fc3E:
	.cfi_startproc
	pushq	%rbp
	.cfi_def_cfa_offset 16
	.cfi_offset %rbp, -16
	movq	%rsp, %rbp
	.cfi_def_cfa_register %rbp
	pushq	%r15
	pushq	%r14
	pushq	%r13
	pushq	%r12
	pushq	%rbx
	subq	$24, %rsp
	.cfi_offset %rbx, -56
	.cfi_offset %r12, -48
	.cfi_offset %r13, -40
	.cfi_offset %r14, -32
	.cfi_offset %r15, -24
	movq	(%rdi), %rbx
	leaq	-64(%rbp), %r12
	movq	%r12, %rdi
	callq	__ZN4core3fmt9Formatter10debug_list17h113a4e31f24f00d7E
	leaq	4(%rbx), %r13
	movq	%rbx, -48(%rbp)
	leaq	l___unnamed_31(%rip), %r14
	leaq	-48(%rbp), %r15
	movq	%r12, %rdi
	movq	%r15, %rsi
	movq	%r14, %rdx
	callq	__ZN4core3fmt8builders9DebugList5entry17h2dea26f6c644471aE
	movq	%r13, -48(%rbp)
	movq	%r12, %rdi
	movq	%r15, %rsi
	movq	%r14, %rdx
	callq	__ZN4core3fmt8builders9DebugList5entry17h2dea26f6c644471aE
	leaq	8(%rbx), %rax
	addq	$12, %rbx
	movq	%rax, -48(%rbp)
	movq	%r12, %rdi
	movq	%r15, %rsi
	movq	%r14, %rdx
	callq	__ZN4core3fmt8builders9DebugList5entry17h2dea26f6c644471aE
	movq	%rbx, -48(%rbp)
	movq	%r12, %rdi
	movq	%r15, %rsi
	movq	%r14, %rdx
	callq	__ZN4core3fmt8builders9DebugList5entry17h2dea26f6c644471aE
	movq	%r12, %rdi
	callq	__ZN4core3fmt8builders9DebugList6finish17h1537bc92ee1acb1cE
	addq	$24, %rsp
	popq	%rbx
	popq	%r12
	popq	%r13
	popq	%r14
	popq	%r15
	popq	%rbp
	retq
	.cfi_endproc

	.p2align	4, 0x90
__ZN42_$LT$$RF$T$u20$as$u20$core..fmt..Debug$GT$3fmt17h33322ab10dbc9158E:
	.cfi_startproc
	pushq	%rbp
	.cfi_def_cfa_offset 16
	.cfi_offset %rbp, -16
	movq	%rsp, %rbp
	.cfi_def_cfa_register %rbp
	movq	(%rdi), %rdi
	popq	%rbp
	jmp	__ZN42_$LT$$RF$T$u20$as$u20$core..fmt..Debug$GT$3fmt17he022cb0328e724bdE
	.cfi_endproc

	.p2align	4, 0x90
__ZN42_$LT$$RF$T$u20$as$u20$core..fmt..Debug$GT$3fmt17h335276234407d7edE:
	.cfi_startproc
	pushq	%rbp
	.cfi_def_cfa_offset 16
	.cfi_offset %rbp, -16
	movq	%rsp, %rbp
	.cfi_def_cfa_register %rbp
	pushq	%r14
	pushq	%rbx
	subq	$32, %rsp
	.cfi_offset %rbx, -32
	.cfi_offset %r14, -24
	movq	(%rdi), %rbx
	leaq	l___unnamed_103(%rip), %rdx
	leaq	-40(%rbp), %r14
	movl	$12, %ecx
	movq	%r14, %rdi
	callq	__ZN4core3fmt9Formatter12debug_struct17ha1a64e91d2a98458E
	movq	%rbx, -24(%rbp)
	leaq	L___unnamed_24(%rip), %rsi
	leaq	l___unnamed_104(%rip), %r8
	leaq	-24(%rbp), %rcx
	movl	$8, %edx
	movq	%r14, %rdi
	callq	__ZN4core3fmt8builders11DebugStruct5field17h6c54d35ac41bb1e6E
	movq	%r14, %rdi
	callq	__ZN4core3fmt8builders11DebugStruct6finish17h67ed49fd5e81bb24E
	addq	$32, %rsp
	popq	%rbx
	popq	%r14
	popq	%rbp
	retq
	.cfi_endproc

	.p2align	4, 0x90
__ZN42_$LT$$RF$T$u20$as$u20$core..fmt..Debug$GT$3fmt17h33a6b7017f0932d3E:
	.cfi_startproc
	pushq	%rbp
	.cfi_def_cfa_offset 16
	.cfi_offset %rbp, -16
	movq	%rsp, %rbp
	.cfi_def_cfa_register %rbp
	pushq	%r15
	pushq	%r14
	pushq	%r13
	pushq	%r12
	pushq	%rbx
	subq	$24, %rsp
	.cfi_offset %rbx, -56
	.cfi_offset %r12, -48
	.cfi_offset %r13, -40
	.cfi_offset %r14, -32
	.cfi_offset %r15, -24
	movq	(%rdi), %rbx
	leaq	80(%rbx), %r14
	leaq	l___unnamed_17(%rip), %rdx
	leaq	-64(%rbp), %r15
	movl	$9, %ecx
	movq	%r15, %rdi
	callq	__ZN4core3fmt9Formatter12debug_struct17ha1a64e91d2a98458E
	movq	%r14, -48(%rbp)
	leaq	l___unnamed_18(%rip), %rsi
	leaq	l___unnamed_19(%rip), %r8
	leaq	-48(%rbp), %rcx
	movl	$6, %edx
	movq	%r15, %rdi
	callq	__ZN4core3fmt8builders11DebugStruct5field17h6c54d35ac41bb1e6E
	movq	%rbx, -48(%rbp)
	leaq	16(%rbx), %r12
	leaq	24(%rbx), %r13
	leaq	48(%rbx), %r14
	leaq	L___unnamed_20(%rip), %rsi
	leaq	l___unnamed_21(%rip), %r8
	leaq	-48(%rbp), %rcx
	movl	$4, %edx
	movq	%r15, %rdi
	callq	__ZN4core3fmt8builders11DebugStruct5field17h6c54d35ac41bb1e6E
	movq	%r12, -48(%rbp)
	leaq	l___unnamed_22(%rip), %rsi
	leaq	l___unnamed_105(%rip), %r8
	leaq	-48(%rbp), %rcx
	movl	$6, %edx
	movq	%r15, %rdi
	callq	__ZN4core3fmt8builders11DebugStruct5field17h6c54d35ac41bb1e6E
	movq	%r13, -48(%rbp)
	leaq	L___unnamed_24(%rip), %rsi
	leaq	l___unnamed_106(%rip), %r8
	leaq	-48(%rbp), %rcx
	movl	$8, %edx
	movq	%r15, %rdi
	callq	__ZN4core3fmt8builders11DebugStruct5field17h6c54d35ac41bb1e6E
	movq	%r14, -48(%rbp)
	leaq	l___unnamed_13(%rip), %rsi
	leaq	l___unnamed_107(%rip), %r8
	leaq	-48(%rbp), %rcx
	movl	$7, %edx
	movq	%r15, %rdi
	callq	__ZN4core3fmt8builders11DebugStruct5field17h6c54d35ac41bb1e6E
	movq	%r15, %rdi
	callq	__ZN4core3fmt8builders11DebugStruct6finish17h67ed49fd5e81bb24E
	addq	$24, %rsp
	popq	%rbx
	popq	%r12
	popq	%r13
	popq	%r14
	popq	%r15
	popq	%rbp
	retq
	.cfi_endproc

	.p2align	4, 0x90
__ZN42_$LT$$RF$T$u20$as$u20$core..fmt..Debug$GT$3fmt17h35ab30518e2fd05dE:
	.cfi_startproc
	pushq	%rbp
	.cfi_def_cfa_offset 16
	.cfi_offset %rbp, -16
	movq	%rsp, %rbp
	.cfi_def_cfa_register %rbp
	pushq	%r15
	pushq	%r14
	pushq	%r13
	pushq	%r12
	pushq	%rbx
	subq	$24, %rsp
	.cfi_offset %rbx, -56
	.cfi_offset %r12, -48
	.cfi_offset %r13, -40
	.cfi_offset %r14, -32
	.cfi_offset %r15, -24
	movq	(%rdi), %rax
	movq	(%rax), %rbx
	movq	8(%rax), %r13
	leaq	-64(%rbp), %rdi
	callq	__ZN4core3fmt9Formatter10debug_list17h113a4e31f24f00d7E
	testq	%r13, %r13
	je	LBB44_3
	leaq	l___unnamed_11(%rip), %r14
	leaq	-64(%rbp), %r15
	leaq	-48(%rbp), %r12
	.p2align	4, 0x90
LBB44_2:
	movq	%rbx, -48(%rbp)
	incq	%rbx
	movq	%r15, %rdi
	movq	%r12, %rsi
	movq	%r14, %rdx
	callq	__ZN4core3fmt8builders9DebugList5entry17h2dea26f6c644471aE
	decq	%r13
	jne	LBB44_2
LBB44_3:
	leaq	-64(%rbp), %rdi
	callq	__ZN4core3fmt8builders9DebugList6finish17h1537bc92ee1acb1cE
	addq	$24, %rsp
	popq	%rbx
	popq	%r12
	popq	%r13
	popq	%r14
	popq	%r15
	popq	%rbp
	retq
	.cfi_endproc

	.p2align	4, 0x90
__ZN42_$LT$$RF$T$u20$as$u20$core..fmt..Debug$GT$3fmt17h35db8df3c5ab15e2E:
	.cfi_startproc
	pushq	%rbp
	.cfi_def_cfa_offset 16
	.cfi_offset %rbp, -16
	movq	%rsp, %rbp
	.cfi_def_cfa_register %rbp
	pushq	%r15
	pushq	%r14
	pushq	%r13
	pushq	%r12
	pushq	%rbx
	subq	$88, %rsp
	.cfi_offset %rbx, -56
	.cfi_offset %r12, -48
	.cfi_offset %r13, -40
	.cfi_offset %r14, -32
	.cfi_offset %r15, -24
	movq	(%rdi), %rax
	movq	(%rax), %rbx
	leaq	L___unnamed_108(%rip), %rdx
	leaq	-120(%rbp), %r13
	movl	$16, %ecx
	movq	%r13, %rdi
	callq	__ZN4core3fmt9Formatter12debug_struct17ha1a64e91d2a98458E
	movq	%rbx, -48(%rbp)
	leaq	4(%rbx), %r15
	leaq	8(%rbx), %r12
	leaq	24(%rbx), %rax
	movq	%rax, -56(%rbp)
	leaq	28(%rbx), %rax
	movq	%rax, -64(%rbp)
	leaq	32(%rbx), %rax
	movq	%rax, -72(%rbp)
	leaq	36(%rbx), %rax
	movq	%rax, -80(%rbp)
	leaq	40(%rbx), %rax
	movq	%rax, -88(%rbp)
	leaq	44(%rbx), %rax
	movq	%rax, -96(%rbp)
	leaq	48(%rbx), %rax
	movq	%rax, -104(%rbp)
	leaq	52(%rbx), %rbx
	leaq	l___unnamed_109(%rip), %rsi
	leaq	l___unnamed_45(%rip), %r14
	leaq	-48(%rbp), %rcx
	movl	$3, %edx
	movq	%r13, %rdi
	movq	%r14, %r8
	callq	__ZN4core3fmt8builders11DebugStruct5field17h6c54d35ac41bb1e6E
	movq	%r15, -48(%rbp)
	leaq	l___unnamed_110(%rip), %rsi
	leaq	-48(%rbp), %rcx
	movl	$7, %edx
	movq	%r13, %rdi
	movq	%r14, %r8
	callq	__ZN4core3fmt8builders11DebugStruct5field17h6c54d35ac41bb1e6E
	movq	%r12, -48(%rbp)
	leaq	l___unnamed_84(%rip), %rsi
	leaq	l___unnamed_83(%rip), %r8
	leaq	-48(%rbp), %rcx
	movl	$7, %edx
	movq	%r13, %rdi
	callq	__ZN4core3fmt8builders11DebugStruct5field17h6c54d35ac41bb1e6E
	movq	-56(%rbp), %rax
	movq	%rax, -48(%rbp)
	leaq	l___unnamed_111(%rip), %rsi
	leaq	-48(%rbp), %rcx
	movl	$6, %edx
	movq	%r13, %rdi
	movq	%r14, %r8
	callq	__ZN4core3fmt8builders11DebugStruct5field17h6c54d35ac41bb1e6E
	movq	-64(%rbp), %rax
	movq	%rax, -48(%rbp)
	leaq	l___unnamed_112(%rip), %rsi
	leaq	-48(%rbp), %rcx
	movl	$6, %edx
	movq	%r13, %rdi
	movq	%r14, %r8
	callq	__ZN4core3fmt8builders11DebugStruct5field17h6c54d35ac41bb1e6E
	movq	-72(%rbp), %rax
	movq	%rax, -48(%rbp)
	leaq	l___unnamed_113(%rip), %rsi
	leaq	-48(%rbp), %rcx
	movl	$7, %edx
	movq	%r13, %rdi
	movq	%r14, %r8
	callq	__ZN4core3fmt8builders11DebugStruct5field17h6c54d35ac41bb1e6E
	movq	-80(%rbp), %rax
	movq	%rax, -48(%rbp)
	leaq	L___unnamed_114(%rip), %rsi
	leaq	-48(%rbp), %rcx
	movl	$8, %edx
	movq	%r13, %rdi
	movq	%r14, %r8
	callq	__ZN4core3fmt8builders11DebugStruct5field17h6c54d35ac41bb1e6E
	movq	-88(%rbp), %rax
	movq	%rax, -48(%rbp)
	leaq	l___unnamed_115(%rip), %rsi
	leaq	-48(%rbp), %rcx
	movl	$7, %edx
	movq	%r13, %rdi
	movq	%r14, %r8
	callq	__ZN4core3fmt8builders11DebugStruct5field17h6c54d35ac41bb1e6E
	movq	-96(%rbp), %rax
	movq	%rax, -48(%rbp)
	leaq	L___unnamed_116(%rip), %rsi
	leaq	-48(%rbp), %rcx
	movl	$8, %edx
	movq	%r13, %rdi
	movq	%r14, %r8
	callq	__ZN4core3fmt8builders11DebugStruct5field17h6c54d35ac41bb1e6E
	movq	-104(%rbp), %rax
	movq	%rax, -48(%rbp)
	leaq	l___unnamed_117(%rip), %rsi
	leaq	-48(%rbp), %rcx
	movl	$6, %edx
	movq	%r13, %rdi
	movq	%r14, %r8
	callq	__ZN4core3fmt8builders11DebugStruct5field17h6c54d35ac41bb1e6E
	movq	%rbx, -48(%rbp)
	leaq	l___unnamed_50(%rip), %rsi
	leaq	-48(%rbp), %rcx
	movl	$5, %edx
	movq	%r13, %rdi
	movq	%r14, %r8
	callq	__ZN4core3fmt8builders11DebugStruct5field17h6c54d35ac41bb1e6E
	movq	%r13, %rdi
	callq	__ZN4core3fmt8builders11DebugStruct6finish17h67ed49fd5e81bb24E
	addq	$88, %rsp
	popq	%rbx
	popq	%r12
	popq	%r13
	popq	%r14
	popq	%r15
	popq	%rbp
	retq
	.cfi_endproc

	.p2align	4, 0x90
__ZN42_$LT$$RF$T$u20$as$u20$core..fmt..Debug$GT$3fmt17h36fa51ffcbc3da20E:
	.cfi_startproc
	pushq	%rbp
	.cfi_def_cfa_offset 16
	.cfi_offset %rbp, -16
	movq	%rsp, %rbp
	.cfi_def_cfa_register %rbp
	pushq	%r15
	pushq	%r14
	pushq	%r13
	pushq	%r12
	pushq	%rbx
	subq	$24, %rsp
	.cfi_offset %rbx, -56
	.cfi_offset %r12, -48
	.cfi_offset %r13, -40
	.cfi_offset %r14, -32
	.cfi_offset %r15, -24
	movq	(%rdi), %rbx
	leaq	-64(%rbp), %r12
	movq	%r12, %rdi
	callq	__ZN4core3fmt9Formatter10debug_list17h113a4e31f24f00d7E
	leaq	1(%rbx), %r13
	movq	%rbx, -48(%rbp)
	leaq	l___unnamed_11(%rip), %rdx
	leaq	-48(%rbp), %r15
	movq	%r12, %rdi
	movq	%r15, %rsi
	callq	__ZN4core3fmt8builders9DebugList5entry17h2dea26f6c644471aE
	leaq	2(%rbx), %r14
	movq	%r13, -48(%rbp)
	movq	%r12, %rdi
	movq	%r15, %rsi
	leaq	l___unnamed_11(%rip), %rdx
	callq	__ZN4core3fmt8builders9DebugList5entry17h2dea26f6c644471aE
	leaq	3(%rbx), %r13
	movq	%r14, -48(%rbp)
	movq	%r12, %rdi
	movq	%r15, %rsi
	leaq	l___unnamed_11(%rip), %r14
	movq	%r14, %rdx
	callq	__ZN4core3fmt8builders9DebugList5entry17h2dea26f6c644471aE
	movq	%r13, -48(%rbp)
	movq	%r12, %rdi
	movq	%r15, %rsi
	movq	%r14, %rdx
	callq	__ZN4core3fmt8builders9DebugList5entry17h2dea26f6c644471aE
	leaq	4(%rbx), %rax
	addq	$5, %rbx
	movq	%rax, -48(%rbp)
	movq	%r12, %rdi
	movq	%r15, %rsi
	movq	%r14, %rdx
	callq	__ZN4core3fmt8builders9DebugList5entry17h2dea26f6c644471aE
	movq	%rbx, -48(%rbp)
	movq	%r12, %rdi
	movq	%r15, %rsi
	movq	%r14, %rdx
	callq	__ZN4core3fmt8builders9DebugList5entry17h2dea26f6c644471aE
	movq	%r12, %rdi
	callq	__ZN4core3fmt8builders9DebugList6finish17h1537bc92ee1acb1cE
	addq	$24, %rsp
	popq	%rbx
	popq	%r12
	popq	%r13
	popq	%r14
	popq	%r15
	popq	%rbp
	retq
	.cfi_endproc

	.p2align	4, 0x90
__ZN42_$LT$$RF$T$u20$as$u20$core..fmt..Debug$GT$3fmt17h37f2f3915799e917E:
	.cfi_startproc
	pushq	%rbp
	.cfi_def_cfa_offset 16
	.cfi_offset %rbp, -16
	movq	%rsp, %rbp
	.cfi_def_cfa_register %rbp
	pushq	%r14
	pushq	%rbx
	subq	$32, %rsp
	.cfi_offset %rbx, -32
	.cfi_offset %r14, -24
	movq	(%rdi), %rbx
	leaq	l___unnamed_52(%rip), %rdx
	leaq	-40(%rbp), %r14
	movl	$9, %ecx
	movq	%r14, %rdi
	callq	__ZN4core3fmt9Formatter12debug_struct17ha1a64e91d2a98458E
	movq	%rbx, -24(%rbp)
	addq	$16, %rbx
	leaq	L___unnamed_53(%rip), %rsi
	leaq	l___unnamed_118(%rip), %r8
	leaq	-24(%rbp), %rcx
	movl	$4, %edx
	movq	%r14, %rdi
	callq	__ZN4core3fmt8builders11DebugStruct5field17h6c54d35ac41bb1e6E
	movq	%rbx, -24(%rbp)
	leaq	l___unnamed_55(%rip), %rsi
	leaq	l___unnamed_3(%rip), %r8
	leaq	-24(%rbp), %rcx
	movl	$5, %edx
	movq	%r14, %rdi
	callq	__ZN4core3fmt8builders11DebugStruct5field17h6c54d35ac41bb1e6E
	movq	%r14, %rdi
	callq	__ZN4core3fmt8builders11DebugStruct6finish17h67ed49fd5e81bb24E
	addq	$32, %rsp
	popq	%rbx
	popq	%r14
	popq	%rbp
	retq
	.cfi_endproc

	.p2align	4, 0x90
__ZN42_$LT$$RF$T$u20$as$u20$core..fmt..Debug$GT$3fmt17h387ac0aa4a870603E:
	.cfi_startproc
	pushq	%rbp
	.cfi_def_cfa_offset 16
	.cfi_offset %rbp, -16
	movq	%rsp, %rbp
	.cfi_def_cfa_register %rbp
	pushq	%r15
	pushq	%r14
	pushq	%r13
	pushq	%r12
	pushq	%rbx
	subq	$24, %rsp
	.cfi_offset %rbx, -56
	.cfi_offset %r12, -48
	.cfi_offset %r13, -40
	.cfi_offset %r14, -32
	.cfi_offset %r15, -24
	movq	(%rdi), %rbx
	movq	8(%rdi), %r13
	leaq	-64(%rbp), %rdi
	callq	__ZN4core3fmt9Formatter10debug_list17h113a4e31f24f00d7E
	testq	%r13, %r13
	je	LBB48_3
	shlq	$5, %r13
	leaq	l___unnamed_119(%rip), %r14
	leaq	-64(%rbp), %r15
	leaq	-48(%rbp), %r12
	.p2align	4, 0x90
LBB48_2:
	movq	%rbx, -48(%rbp)
	addq	$32, %rbx
	movq	%r15, %rdi
	movq	%r12, %rsi
	movq	%r14, %rdx
	callq	__ZN4core3fmt8builders9DebugList5entry17h2dea26f6c644471aE
	addq	$-32, %r13
	jne	LBB48_2
LBB48_3:
	leaq	-64(%rbp), %rdi
	callq	__ZN4core3fmt8builders9DebugList6finish17h1537bc92ee1acb1cE
	addq	$24, %rsp
	popq	%rbx
	popq	%r12
	popq	%r13
	popq	%r14
	popq	%r15
	popq	%rbp
	retq
	.cfi_endproc

	.p2align	4, 0x90
__ZN42_$LT$$RF$T$u20$as$u20$core..fmt..Debug$GT$3fmt17h3a62d839550e65b0E:
	.cfi_startproc
	pushq	%rbp
	.cfi_def_cfa_offset 16
	.cfi_offset %rbp, -16
	movq	%rsp, %rbp
	.cfi_def_cfa_register %rbp
	pushq	%r15
	pushq	%r14
	pushq	%rbx
	subq	$24, %rsp
	.cfi_offset %rbx, -40
	.cfi_offset %r14, -32
	.cfi_offset %r15, -24
	movq	(%rdi), %rbx
	leaq	l___unnamed_96(%rip), %rdx
	leaq	-48(%rbp), %r14
	movl	$20, %ecx
	movq	%r14, %rdi
	callq	__ZN4core3fmt9Formatter12debug_struct17ha1a64e91d2a98458E
	movq	%rbx, -32(%rbp)
	leaq	16(%rbx), %r15
	addq	$8, %rbx
	leaq	l___unnamed_97(%rip), %rsi
	leaq	l___unnamed_98(%rip), %r8
	leaq	-32(%rbp), %rcx
	movl	$5, %edx
	movq	%r14, %rdi
	callq	__ZN4core3fmt8builders11DebugStruct5field17h6c54d35ac41bb1e6E
	movq	%r15, -32(%rbp)
	leaq	L___unnamed_99(%rip), %rsi
	leaq	l___unnamed_100(%rip), %r8
	leaq	-32(%rbp), %rcx
	movl	$4, %edx
	movq	%r14, %rdi
	callq	__ZN4core3fmt8builders11DebugStruct5field17h6c54d35ac41bb1e6E
	movq	%rbx, -32(%rbp)
	leaq	l___unnamed_7(%rip), %rsi
	leaq	l___unnamed_120(%rip), %r8
	leaq	-32(%rbp), %rcx
	movl	$7, %edx
	movq	%r14, %rdi
	callq	__ZN4core3fmt8builders11DebugStruct5field17h6c54d35ac41bb1e6E
	movq	%r14, %rdi
	callq	__ZN4core3fmt8builders11DebugStruct6finish17h67ed49fd5e81bb24E
	addq	$24, %rsp
	popq	%rbx
	popq	%r14
	popq	%r15
	popq	%rbp
	retq
	.cfi_endproc

	.p2align	4, 0x90
__ZN42_$LT$$RF$T$u20$as$u20$core..fmt..Debug$GT$3fmt17h3b56a4768047b31eE:
	.cfi_startproc
	pushq	%rbp
	.cfi_def_cfa_offset 16
	.cfi_offset %rbp, -16
	movq	%rsp, %rbp
	.cfi_def_cfa_register %rbp
	pushq	%r14
	pushq	%rbx
	subq	$32, %rsp
	.cfi_offset %rbx, -32
	.cfi_offset %r14, -24
	movq	(%rdi), %rbx
	leaq	l___unnamed_12(%rip), %rdx
	leaq	-40(%rbp), %r14
	movl	$11, %ecx
	movq	%r14, %rdi
	callq	__ZN4core3fmt9Formatter12debug_struct17ha1a64e91d2a98458E
	movq	%rbx, -24(%rbp)
	addq	$16, %rbx
	leaq	l___unnamed_13(%rip), %rsi
	leaq	l___unnamed_121(%rip), %r8
	leaq	-24(%rbp), %rcx
	movl	$7, %edx
	movq	%r14, %rdi
	callq	__ZN4core3fmt8builders11DebugStruct5field17h6c54d35ac41bb1e6E
	movq	%rbx, -24(%rbp)
	leaq	l___unnamed_15(%rip), %rsi
	leaq	l___unnamed_16(%rip), %r8
	leaq	-24(%rbp), %rcx
	movl	$7, %edx
	movq	%r14, %rdi
	callq	__ZN4core3fmt8builders11DebugStruct5field17h6c54d35ac41bb1e6E
	movq	%r14, %rdi
	callq	__ZN4core3fmt8builders11DebugStruct6finish17h67ed49fd5e81bb24E
	addq	$32, %rsp
	popq	%rbx
	popq	%r14
	popq	%rbp
	retq
	.cfi_endproc

	.p2align	4, 0x90
__ZN42_$LT$$RF$T$u20$as$u20$core..fmt..Debug$GT$3fmt17h3bbcf186dc99e490E:
	.cfi_startproc
	pushq	%rbp
	.cfi_def_cfa_offset 16
	.cfi_offset %rbp, -16
	movq	%rsp, %rbp
	.cfi_def_cfa_register %rbp
	pushq	%r15
	pushq	%r14
	pushq	%r13
	pushq	%r12
	pushq	%rbx
	subq	$24, %rsp
	.cfi_offset %rbx, -56
	.cfi_offset %r12, -48
	.cfi_offset %r13, -40
	.cfi_offset %r14, -32
	.cfi_offset %r15, -24
	movq	(%rdi), %rax
	movq	(%rax), %rbx
	movq	8(%rax), %r13
	leaq	-64(%rbp), %rdi
	callq	__ZN4core3fmt9Formatter10debug_list17h113a4e31f24f00d7E
	testq	%r13, %r13
	je	LBB51_3
	shlq	$2, %r13
	leaq	l___unnamed_122(%rip), %r14
	leaq	-64(%rbp), %r15
	leaq	-48(%rbp), %r12
	.p2align	4, 0x90
LBB51_2:
	movq	%rbx, -48(%rbp)
	addq	$4, %rbx
	movq	%r15, %rdi
	movq	%r12, %rsi
	movq	%r14, %rdx
	callq	__ZN4core3fmt8builders9DebugList5entry17h2dea26f6c644471aE
	addq	$-4, %r13
	jne	LBB51_2
LBB51_3:
	leaq	-64(%rbp), %rdi
	callq	__ZN4core3fmt8builders9DebugList6finish17h1537bc92ee1acb1cE
	addq	$24, %rsp
	popq	%rbx
	popq	%r12
	popq	%r13
	popq	%r14
	popq	%r15
	popq	%rbp
	retq
	.cfi_endproc

	.p2align	4, 0x90
__ZN42_$LT$$RF$T$u20$as$u20$core..fmt..Debug$GT$3fmt17h3f6ec91e3f97f905E:
	.cfi_startproc
	pushq	%rbp
	.cfi_def_cfa_offset 16
	.cfi_offset %rbp, -16
	movq	%rsp, %rbp
	.cfi_def_cfa_register %rbp
	pushq	%r14
	pushq	%rbx
	subq	$32, %rsp
	.cfi_offset %rbx, -32
	.cfi_offset %r14, -24
	movq	(%rdi), %rbx
	leaq	L___unnamed_123(%rip), %rdx
	leaq	-48(%rbp), %r14
	movl	$16, %ecx
	movq	%r14, %rdi
	callq	__ZN4core3fmt9Formatter11debug_tuple17h6c448643801d07e8E
	movq	%rbx, -24(%rbp)
	leaq	l___unnamed_124(%rip), %rdx
	leaq	-24(%rbp), %rsi
	movq	%r14, %rdi
	callq	__ZN4core3fmt8builders10DebugTuple5field17hc7b676d0e36b51d9E
	movq	%r14, %rdi
	callq	__ZN4core3fmt8builders10DebugTuple6finish17h9f206806f7096c33E
	addq	$32, %rsp
	popq	%rbx
	popq	%r14
	popq	%rbp
	retq
	.cfi_endproc

	.p2align	4, 0x90
__ZN42_$LT$$RF$T$u20$as$u20$core..fmt..Debug$GT$3fmt17h415a6d76fb45e0e9E:
	.cfi_startproc
	pushq	%rbp
	.cfi_def_cfa_offset 16
	.cfi_offset %rbp, -16
	movq	%rsp, %rbp
	.cfi_def_cfa_register %rbp
	pushq	%r15
	pushq	%r14
	pushq	%r13
	pushq	%r12
	pushq	%rbx
	subq	$24, %rsp
	.cfi_offset %rbx, -56
	.cfi_offset %r12, -48
	.cfi_offset %r13, -40
	.cfi_offset %r14, -32
	.cfi_offset %r15, -24
	movq	(%rdi), %rax
	movq	(%rax), %rbx
	movq	8(%rax), %r13
	leaq	-64(%rbp), %rdi
	callq	__ZN4core3fmt9Formatter10debug_list17h113a4e31f24f00d7E
	testq	%r13, %r13
	je	LBB53_3
	shlq	$4, %r13
	leaq	l___unnamed_125(%rip), %r14
	leaq	-64(%rbp), %r15
	leaq	-48(%rbp), %r12
	.p2align	4, 0x90
LBB53_2:
	movq	%rbx, -48(%rbp)
	addq	$16, %rbx
	movq	%r15, %rdi
	movq	%r12, %rsi
	movq	%r14, %rdx
	callq	__ZN4core3fmt8builders9DebugList5entry17h2dea26f6c644471aE
	addq	$-16, %r13
	jne	LBB53_2
LBB53_3:
	leaq	-64(%rbp), %rdi
	callq	__ZN4core3fmt8builders9DebugList6finish17h1537bc92ee1acb1cE
	addq	$24, %rsp
	popq	%rbx
	popq	%r12
	popq	%r13
	popq	%r14
	popq	%r15
	popq	%rbp
	retq
	.cfi_endproc

	.p2align	4, 0x90
__ZN42_$LT$$RF$T$u20$as$u20$core..fmt..Debug$GT$3fmt17h437a18c35be558aeE:
	.cfi_startproc
	pushq	%rbp
	.cfi_def_cfa_offset 16
	.cfi_offset %rbp, -16
	movq	%rsp, %rbp
	.cfi_def_cfa_register %rbp
	pushq	%rbx
	subq	$24, %rsp
	.cfi_offset %rbx, -24
	leaq	l___unnamed_126(%rip), %rdx
	leaq	-24(%rbp), %rbx
	movl	$23, %ecx
	movq	%rbx, %rdi
	callq	__ZN4core3fmt9Formatter12debug_struct17ha1a64e91d2a98458E
	movq	%rbx, %rdi
	callq	__ZN4core3fmt8builders11DebugStruct6finish17h67ed49fd5e81bb24E
	addq	$24, %rsp
	popq	%rbx
	popq	%rbp
	retq
	.cfi_endproc

	.p2align	4, 0x90
__ZN42_$LT$$RF$T$u20$as$u20$core..fmt..Debug$GT$3fmt17h444b67b5b50b7967E:
	.cfi_startproc
	pushq	%rbp
	.cfi_def_cfa_offset 16
	.cfi_offset %rbp, -16
	movq	%rsp, %rbp
	.cfi_def_cfa_register %rbp
	pushq	%r14
	pushq	%rbx
	subq	$32, %rsp
	.cfi_offset %rbx, -32
	.cfi_offset %r14, -24
	movq	(%rdi), %rbx
	leaq	l___unnamed_127(%rip), %rdx
	leaq	-40(%rbp), %r14
	movl	$17, %ecx
	movq	%r14, %rdi
	callq	__ZN4core3fmt9Formatter12debug_struct17ha1a64e91d2a98458E
	movq	%rbx, -24(%rbp)
	addq	$8, %rbx
	leaq	L___unnamed_5(%rip), %rsi
	leaq	l___unnamed_128(%rip), %r8
	leaq	-24(%rbp), %rcx
	movl	$4, %edx
	movq	%r14, %rdi
	callq	__ZN4core3fmt8builders11DebugStruct5field17h6c54d35ac41bb1e6E
	movq	%rbx, -24(%rbp)
	leaq	L___unnamed_53(%rip), %rsi
	leaq	l___unnamed_129(%rip), %r8
	leaq	-24(%rbp), %rcx
	movl	$4, %edx
	movq	%r14, %rdi
	callq	__ZN4core3fmt8builders11DebugStruct5field17h6c54d35ac41bb1e6E
	movq	%r14, %rdi
	callq	__ZN4core3fmt8builders11DebugStruct6finish17h67ed49fd5e81bb24E
	addq	$32, %rsp
	popq	%rbx
	popq	%r14
	popq	%rbp
	retq
	.cfi_endproc

	.p2align	4, 0x90
__ZN42_$LT$$RF$T$u20$as$u20$core..fmt..Debug$GT$3fmt17h4a839e4839e96882E:
	.cfi_startproc
	pushq	%rbp
	.cfi_def_cfa_offset 16
	.cfi_offset %rbp, -16
	movq	%rsp, %rbp
	.cfi_def_cfa_register %rbp
	pushq	%r15
	pushq	%r14
	pushq	%r13
	pushq	%r12
	pushq	%rbx
	subq	$40, %rsp
	.cfi_offset %rbx, -56
	.cfi_offset %r12, -48
	.cfi_offset %r13, -40
	.cfi_offset %r14, -32
	.cfi_offset %r15, -24
	movq	(%rdi), %rbx
	leaq	l___unnamed_130(%rip), %rdx
	leaq	-72(%rbp), %r13
	movl	$6, %ecx
	movq	%r13, %rdi
	callq	__ZN4core3fmt9Formatter12debug_struct17ha1a64e91d2a98458E
	movq	%rbx, -48(%rbp)
	leaq	8(%rbx), %r14
	leaq	16(%rbx), %r15
	leaq	32(%rbx), %r12
	leaq	48(%rbx), %rax
	movq	%rax, -56(%rbp)
	leaq	80(%rbx), %rbx
	leaq	l___unnamed_131(%rip), %rsi
	leaq	l___unnamed_132(%rip), %r8
	leaq	-48(%rbp), %rcx
	movl	$10, %edx
	movq	%r13, %rdi
	callq	__ZN4core3fmt8builders11DebugStruct5field17h6c54d35ac41bb1e6E
	movq	%r14, -48(%rbp)
	leaq	l___unnamed_133(%rip), %rsi
	leaq	l___unnamed_134(%rip), %r8
	leaq	-48(%rbp), %rcx
	movl	$10, %edx
	movq	%r13, %rdi
	callq	__ZN4core3fmt8builders11DebugStruct5field17h6c54d35ac41bb1e6E
	movq	%r15, -48(%rbp)
	leaq	L___unnamed_135(%rip), %rsi
	leaq	l___unnamed_136(%rip), %r8
	leaq	-48(%rbp), %rcx
	movl	$16, %edx
	movq	%r13, %rdi
	callq	__ZN4core3fmt8builders11DebugStruct5field17h6c54d35ac41bb1e6E
	movq	%r12, -48(%rbp)
	leaq	L___unnamed_24(%rip), %rsi
	leaq	l___unnamed_137(%rip), %r8
	leaq	-48(%rbp), %rcx
	movl	$8, %edx
	movq	%r13, %rdi
	callq	__ZN4core3fmt8builders11DebugStruct5field17h6c54d35ac41bb1e6E
	movq	-56(%rbp), %rax
	movq	%rax, -48(%rbp)
	leaq	l___unnamed_13(%rip), %rsi
	leaq	l___unnamed_138(%rip), %r8
	leaq	-48(%rbp), %rcx
	movl	$7, %edx
	movq	%r13, %rdi
	callq	__ZN4core3fmt8builders11DebugStruct5field17h6c54d35ac41bb1e6E
	movq	%rbx, -48(%rbp)
	leaq	L___unnamed_20(%rip), %rsi
	leaq	l___unnamed_21(%rip), %r8
	leaq	-48(%rbp), %rcx
	movl	$4, %edx
	movq	%r13, %rdi
	callq	__ZN4core3fmt8builders11DebugStruct5field17h6c54d35ac41bb1e6E
	movq	%r13, %rdi
	callq	__ZN4core3fmt8builders11DebugStruct6finish17h67ed49fd5e81bb24E
	addq	$40, %rsp
	popq	%rbx
	popq	%r12
	popq	%r13
	popq	%r14
	popq	%r15
	popq	%rbp
	retq
	.cfi_endproc

	.p2align	4, 0x90
__ZN42_$LT$$RF$T$u20$as$u20$core..fmt..Debug$GT$3fmt17h4b5d37dfb7822ebfE:
	.cfi_startproc
	pushq	%rbp
	.cfi_def_cfa_offset 16
	.cfi_offset %rbp, -16
	movq	%rsp, %rbp
	.cfi_def_cfa_register %rbp
	movq	(%rdi), %rdi
	popq	%rbp
	jmp	__ZN64_$LT$object..common..SectionKind$u20$as$u20$core..fmt..Debug$GT$3fmt17heaa31494f6adcc40E
	.cfi_endproc

	.p2align	4, 0x90
__ZN42_$LT$$RF$T$u20$as$u20$core..fmt..Debug$GT$3fmt17h4ea5d40a17fb1ce2E:
	.cfi_startproc
	pushq	%rbp
	.cfi_def_cfa_offset 16
	.cfi_offset %rbp, -16
	movq	%rsp, %rbp
	.cfi_def_cfa_register %rbp
	pushq	%r15
	pushq	%r14
	pushq	%r13
	pushq	%r12
	pushq	%rbx
	subq	$72, %rsp
	.cfi_offset %rbx, -56
	.cfi_offset %r12, -48
	.cfi_offset %r13, -40
	.cfi_offset %r14, -32
	.cfi_offset %r15, -24
	movq	(%rdi), %rbx
	leaq	l___unnamed_139(%rip), %rdx
	leaq	-112(%rbp), %r12
	movl	$15, %ecx
	movq	%r12, %rdi
	callq	__ZN4core3fmt9Formatter12debug_struct17ha1a64e91d2a98458E
	movq	%rbx, -48(%rbp)
	leaq	4(%rbx), %r13
	leaq	8(%rbx), %r15
	leaq	12(%rbx), %rax
	movq	%rax, -56(%rbp)
	leaq	16(%rbx), %rax
	movq	%rax, -64(%rbp)
	leaq	20(%rbx), %rax
	movq	%rax, -72(%rbp)
	leaq	24(%rbx), %rax
	movq	%rax, -80(%rbp)
	leaq	28(%rbx), %rax
	movq	%rax, -88(%rbp)
	leaq	32(%rbx), %rax
	movq	%rax, -96(%rbp)
	leaq	36(%rbx), %rbx
	leaq	l___unnamed_140(%rip), %rsi
	leaq	l___unnamed_45(%rip), %r14
	leaq	-48(%rbp), %rcx
	movl	$7, %edx
	movq	%r12, %rdi
	movq	%r14, %r8
	callq	__ZN4core3fmt8builders11DebugStruct5field17h6c54d35ac41bb1e6E
	movq	%r13, -48(%rbp)
	leaq	l___unnamed_141(%rip), %rsi
	leaq	-48(%rbp), %rcx
	movl	$7, %edx
	movq	%r12, %rdi
	movq	%r14, %r8
	callq	__ZN4core3fmt8builders11DebugStruct5field17h6c54d35ac41bb1e6E
	movq	%r15, -48(%rbp)
	leaq	L___unnamed_142(%rip), %rsi
	leaq	-48(%rbp), %rcx
	movl	$8, %edx
	movq	%r12, %rdi
	movq	%r14, %r8
	callq	__ZN4core3fmt8builders11DebugStruct5field17h6c54d35ac41bb1e6E
	movq	-56(%rbp), %rax
	movq	%rax, -48(%rbp)
	leaq	l___unnamed_143(%rip), %rsi
	leaq	-48(%rbp), %rcx
	movl	$7, %edx
	movq	%r12, %rdi
	movq	%r14, %r8
	callq	__ZN4core3fmt8builders11DebugStruct5field17h6c54d35ac41bb1e6E
	movq	-64(%rbp), %rax
	movq	%rax, -48(%rbp)
	leaq	l___unnamed_144(%rip), %rsi
	leaq	-48(%rbp), %rcx
	movl	$9, %edx
	movq	%r12, %rdi
	movq	%r14, %r8
	callq	__ZN4core3fmt8builders11DebugStruct5field17h6c54d35ac41bb1e6E
	movq	-72(%rbp), %rax
	movq	%rax, -48(%rbp)
	leaq	l___unnamed_145(%rip), %rsi
	leaq	-48(%rbp), %rcx
	movl	$7, %edx
	movq	%r12, %rdi
	movq	%r14, %r8
	callq	__ZN4core3fmt8builders11DebugStruct5field17h6c54d35ac41bb1e6E
	movq	-80(%rbp), %rax
	movq	%rax, -48(%rbp)
	leaq	l___unnamed_146(%rip), %rsi
	leaq	-48(%rbp), %rcx
	movl	$7, %edx
	movq	%r12, %rdi
	movq	%r14, %r8
	callq	__ZN4core3fmt8builders11DebugStruct5field17h6c54d35ac41bb1e6E
	movq	-88(%rbp), %rax
	movq	%rax, -48(%rbp)
	leaq	l___unnamed_147(%rip), %rsi
	leaq	-48(%rbp), %rcx
	movl	$7, %edx
	movq	%r12, %rdi
	movq	%r14, %r8
	callq	__ZN4core3fmt8builders11DebugStruct5field17h6c54d35ac41bb1e6E
	movq	-96(%rbp), %rax
	movq	%rax, -48(%rbp)
	leaq	l___unnamed_148(%rip), %rsi
	leaq	-48(%rbp), %rcx
	movl	$12, %edx
	movq	%r12, %rdi
	movq	%r14, %r8
	callq	__ZN4core3fmt8builders11DebugStruct5field17h6c54d35ac41bb1e6E
	movq	%rbx, -48(%rbp)
	leaq	l___unnamed_149(%rip), %rsi
	leaq	-48(%rbp), %rcx
	movl	$10, %edx
	movq	%r12, %rdi
	movq	%r14, %r8
	callq	__ZN4core3fmt8builders11DebugStruct5field17h6c54d35ac41bb1e6E
	movq	%r12, %rdi
	callq	__ZN4core3fmt8builders11DebugStruct6finish17h67ed49fd5e81bb24E
	addq	$72, %rsp
	popq	%rbx
	popq	%r12
	popq	%r13
	popq	%r14
	popq	%r15
	popq	%rbp
	retq
	.cfi_endproc

	.p2align	4, 0x90
__ZN42_$LT$$RF$T$u20$as$u20$core..fmt..Debug$GT$3fmt17h4ebdd0601888e201E:
	.cfi_startproc
	pushq	%rbp
	.cfi_def_cfa_offset 16
	.cfi_offset %rbp, -16
	movq	%rsp, %rbp
	.cfi_def_cfa_register %rbp
	pushq	%r15
	pushq	%r14
	pushq	%r13
	pushq	%r12
	pushq	%rbx
	subq	$24, %rsp
	.cfi_offset %rbx, -56
	.cfi_offset %r12, -48
	.cfi_offset %r13, -40
	.cfi_offset %r14, -32
	.cfi_offset %r15, -24
	movq	(%rdi), %rbx
	leaq	L___unnamed_150(%rip), %rdx
	leaq	-64(%rbp), %r12
	movl	$4, %ecx
	movq	%r12, %rdi
	callq	__ZN4core3fmt9Formatter12debug_struct17ha1a64e91d2a98458E
	movq	%rbx, -48(%rbp)
	leaq	4(%rbx), %r14
	leaq	6(%rbx), %r13
	leaq	8(%rbx), %r15
	leaq	l___unnamed_151(%rip), %rsi
	leaq	l___unnamed_31(%rip), %r8
	leaq	-48(%rbp), %rcx
	movl	$5, %edx
	movq	%r12, %rdi
	callq	__ZN4core3fmt8builders11DebugStruct5field17h6c54d35ac41bb1e6E
	movq	%r14, -48(%rbp)
	leaq	l___unnamed_152(%rip), %rsi
	leaq	l___unnamed_153(%rip), %r14
	leaq	-48(%rbp), %rcx
	movl	$5, %edx
	movq	%r12, %rdi
	movq	%r14, %r8
	callq	__ZN4core3fmt8builders11DebugStruct5field17h6c54d35ac41bb1e6E
	movq	%r13, -48(%rbp)
	leaq	l___unnamed_154(%rip), %rsi
	leaq	-48(%rbp), %rcx
	movl	$5, %edx
	movq	%r12, %rdi
	movq	%r14, %r8
	callq	__ZN4core3fmt8builders11DebugStruct5field17h6c54d35ac41bb1e6E
	movq	%r15, -48(%rbp)
	leaq	l___unnamed_155(%rip), %rsi
	leaq	l___unnamed_156(%rip), %r8
	leaq	-48(%rbp), %rcx
	movl	$5, %edx
	movq	%r12, %rdi
	callq	__ZN4core3fmt8builders11DebugStruct5field17h6c54d35ac41bb1e6E
	movq	%r12, %rdi
	callq	__ZN4core3fmt8builders11DebugStruct6finish17h67ed49fd5e81bb24E
	addq	$24, %rsp
	popq	%rbx
	popq	%r12
	popq	%r13
	popq	%r14
	popq	%r15
	popq	%rbp
	retq
	.cfi_endproc

	.p2align	4, 0x90
__ZN42_$LT$$RF$T$u20$as$u20$core..fmt..Debug$GT$3fmt17h4f26c74e16830e81E:
	.cfi_startproc
	pushq	%rbp
	.cfi_def_cfa_offset 16
	.cfi_offset %rbp, -16
	movq	%rsp, %rbp
	.cfi_def_cfa_register %rbp
	pushq	%r14
	pushq	%rbx
	subq	$32, %rsp
	.cfi_offset %rbx, -32
	.cfi_offset %r14, -24
	movq	(%rdi), %rbx
	leaq	l___unnamed_157(%rip), %rdx
	leaq	-40(%rbp), %r14
	movl	$17, %ecx
	movq	%r14, %rdi
	callq	__ZN4core3fmt9Formatter12debug_struct17ha1a64e91d2a98458E
	movq	%rbx, -24(%rbp)
	addq	$8, %rbx
	leaq	L___unnamed_5(%rip), %rsi
	leaq	l___unnamed_128(%rip), %r8
	leaq	-24(%rbp), %rcx
	movl	$4, %edx
	movq	%r14, %rdi
	callq	__ZN4core3fmt8builders11DebugStruct5field17h6c54d35ac41bb1e6E
	movq	%rbx, -24(%rbp)
	leaq	L___unnamed_53(%rip), %rsi
	leaq	l___unnamed_118(%rip), %r8
	leaq	-24(%rbp), %rcx
	movl	$4, %edx
	movq	%r14, %rdi
	callq	__ZN4core3fmt8builders11DebugStruct5field17h6c54d35ac41bb1e6E
	movq	%r14, %rdi
	callq	__ZN4core3fmt8builders11DebugStruct6finish17h67ed49fd5e81bb24E
	addq	$32, %rsp
	popq	%rbx
	popq	%r14
	popq	%rbp
	retq
	.cfi_endproc

	.p2align	4, 0x90
__ZN42_$LT$$RF$T$u20$as$u20$core..fmt..Debug$GT$3fmt17h4ff36344dcf2e11cE:
	.cfi_startproc
	pushq	%rbp
	.cfi_def_cfa_offset 16
	.cfi_offset %rbp, -16
	movq	%rsp, %rbp
	.cfi_def_cfa_register %rbp
	pushq	%r14
	pushq	%rbx
	subq	$32, %rsp
	.cfi_offset %rbx, -32
	.cfi_offset %r14, -24
	movq	(%rdi), %rbx
	cmpq	$0, (%rbx)
	je	LBB61_2
	leaq	L___unnamed_158(%rip), %rdx
	leaq	-48(%rbp), %r14
	movl	$4, %ecx
	movq	%r14, %rdi
	callq	__ZN4core3fmt9Formatter11debug_tuple17h6c448643801d07e8E
	movq	%rbx, -24(%rbp)
	leaq	l___unnamed_159(%rip), %rdx
	leaq	-24(%rbp), %rsi
	movq	%r14, %rdi
	callq	__ZN4core3fmt8builders10DebugTuple5field17hc7b676d0e36b51d9E
	movq	%r14, %rdi
	jmp	LBB61_3
LBB61_2:
	leaq	L___unnamed_94(%rip), %rdx
	leaq	-48(%rbp), %rbx
	movl	$4, %ecx
	movq	%rbx, %rdi
	callq	__ZN4core3fmt9Formatter11debug_tuple17h6c448643801d07e8E
	movq	%rbx, %rdi
LBB61_3:
	callq	__ZN4core3fmt8builders10DebugTuple6finish17h9f206806f7096c33E
	addq	$32, %rsp
	popq	%rbx
	popq	%r14
	popq	%rbp
	retq
	.cfi_endproc

	.p2align	4, 0x90
__ZN42_$LT$$RF$T$u20$as$u20$core..fmt..Debug$GT$3fmt17h554a67bfdd02d377E:
	.cfi_startproc
	pushq	%rbp
	.cfi_def_cfa_offset 16
	.cfi_offset %rbp, -16
	movq	%rsp, %rbp
	.cfi_def_cfa_register %rbp
	pushq	%r14
	pushq	%rbx
	subq	$32, %rsp
	.cfi_offset %rbx, -32
	.cfi_offset %r14, -24
	movq	(%rdi), %rbx
	leaq	l___unnamed_160(%rip), %rdx
	leaq	-40(%rbp), %r14
	movl	$18, %ecx
	movq	%r14, %rdi
	callq	__ZN4core3fmt9Formatter12debug_struct17ha1a64e91d2a98458E
	movq	%rbx, -24(%rbp)
	addq	$8, %rbx
	leaq	L___unnamed_5(%rip), %rsi
	leaq	l___unnamed_161(%rip), %r8
	leaq	-24(%rbp), %rcx
	movl	$4, %edx
	movq	%r14, %rdi
	callq	__ZN4core3fmt8builders11DebugStruct5field17h6c54d35ac41bb1e6E
	movq	%rbx, -24(%rbp)
	leaq	L___unnamed_53(%rip), %rsi
	leaq	l___unnamed_162(%rip), %r8
	leaq	-24(%rbp), %rcx
	movl	$4, %edx
	movq	%r14, %rdi
	callq	__ZN4core3fmt8builders11DebugStruct5field17h6c54d35ac41bb1e6E
	movq	%r14, %rdi
	callq	__ZN4core3fmt8builders11DebugStruct6finish17h67ed49fd5e81bb24E
	addq	$32, %rsp
	popq	%rbx
	popq	%r14
	popq	%rbp
	retq
	.cfi_endproc

	.p2align	4, 0x90
__ZN42_$LT$$RF$T$u20$as$u20$core..fmt..Debug$GT$3fmt17h5570d1eb49705037E:
	.cfi_startproc
	pushq	%rbp
	.cfi_def_cfa_offset 16
	.cfi_offset %rbp, -16
	movq	%rsp, %rbp
	.cfi_def_cfa_register %rbp
	pushq	%r15
	pushq	%r14
	pushq	%r13
	pushq	%r12
	pushq	%rbx
	subq	$40, %rsp
	.cfi_offset %rbx, -56
	.cfi_offset %r12, -48
	.cfi_offset %r13, -40
	.cfi_offset %r14, -32
	.cfi_offset %r15, -24
	movq	(%rdi), %rbx
	leaq	-72(%rbp), %r12
	movq	%r12, %rdi
	callq	__ZN4core3fmt9Formatter10debug_list17h113a4e31f24f00d7E
	leaq	1(%rbx), %rax
	movq	%rax, -56(%rbp)
	movq	%rbx, -48(%rbp)
	leaq	l___unnamed_11(%rip), %r14
	leaq	-48(%rbp), %r15
	movq	%r12, %rdi
	movq	%r15, %rsi
	movq	%r14, %rdx
	callq	__ZN4core3fmt8builders9DebugList5entry17h2dea26f6c644471aE
	leaq	2(%rbx), %r13
	movq	-56(%rbp), %rax
	movq	%rax, -48(%rbp)
	movq	%r12, %rdi
	movq	%r15, %rsi
	movq	%r14, %rdx
	movq	%r14, %r15
	callq	__ZN4core3fmt8builders9DebugList5entry17h2dea26f6c644471aE
	leaq	3(%rbx), %r14
	movq	%r13, -48(%rbp)
	movq	%r12, %rdi
	leaq	-48(%rbp), %rsi
	movq	%r15, %rdx
	callq	__ZN4core3fmt8builders9DebugList5entry17h2dea26f6c644471aE
	leaq	4(%rbx), %r13
	movq	%r14, -48(%rbp)
	movq	%r12, %rdi
	leaq	-48(%rbp), %rsi
	movq	%r15, %rdx
	callq	__ZN4core3fmt8builders9DebugList5entry17h2dea26f6c644471aE
	leaq	5(%rbx), %r14
	movq	%r13, -48(%rbp)
	movq	%r12, %rdi
	leaq	-48(%rbp), %rsi
	movq	%r15, %rdx
	callq	__ZN4core3fmt8builders9DebugList5entry17h2dea26f6c644471aE
	leaq	6(%rbx), %r13
	movq	%r14, -48(%rbp)
	movq	%r12, %rdi
	leaq	-48(%rbp), %rsi
	movq	%r15, %rdx
	callq	__ZN4core3fmt8builders9DebugList5entry17h2dea26f6c644471aE
	leaq	7(%rbx), %r14
	movq	%r13, -48(%rbp)
	movq	%r12, %rdi
	leaq	-48(%rbp), %rsi
	movq	%r15, %rdx
	callq	__ZN4core3fmt8builders9DebugList5entry17h2dea26f6c644471aE
	leaq	8(%rbx), %r13
	movq	%r14, -48(%rbp)
	movq	%r12, %rdi
	leaq	-48(%rbp), %rsi
	movq	%r15, %rdx
	callq	__ZN4core3fmt8builders9DebugList5entry17h2dea26f6c644471aE
	leaq	9(%rbx), %r14
	movq	%r13, -48(%rbp)
	movq	%r12, %rdi
	leaq	-48(%rbp), %rsi
	movq	%rsi, %r13
	movq	%r15, %rdx
	callq	__ZN4core3fmt8builders9DebugList5entry17h2dea26f6c644471aE
	movq	%r14, -48(%rbp)
	movq	%r12, %rdi
	movq	%r13, %rsi
	movq	%r15, %rdx
	callq	__ZN4core3fmt8builders9DebugList5entry17h2dea26f6c644471aE
	leaq	10(%rbx), %rax
	addq	$11, %rbx
	movq	%rax, -48(%rbp)
	movq	%r12, %rdi
	movq	%r13, %rsi
	movq	%r15, %rdx
	callq	__ZN4core3fmt8builders9DebugList5entry17h2dea26f6c644471aE
	movq	%rbx, -48(%rbp)
	movq	%r12, %rdi
	movq	%r13, %rsi
	movq	%r15, %rdx
	callq	__ZN4core3fmt8builders9DebugList5entry17h2dea26f6c644471aE
	movq	%r12, %rdi
	callq	__ZN4core3fmt8builders9DebugList6finish17h1537bc92ee1acb1cE
	addq	$40, %rsp
	popq	%rbx
	popq	%r12
	popq	%r13
	popq	%r14
	popq	%r15
	popq	%rbp
	retq
	.cfi_endproc

	.p2align	4, 0x90
__ZN42_$LT$$RF$T$u20$as$u20$core..fmt..Debug$GT$3fmt17h55b6b13a6a256de6E:
	.cfi_startproc
	pushq	%rbp
	.cfi_def_cfa_offset 16
	.cfi_offset %rbp, -16
	movq	%rsp, %rbp
	.cfi_def_cfa_register %rbp
	pushq	%r14
	pushq	%rbx
	subq	$32, %rsp
	.cfi_offset %rbx, -32
	.cfi_offset %r14, -24
	movq	(%rdi), %rbx
	leaq	l___unnamed_163(%rip), %rdx
	leaq	-40(%rbp), %r14
	movl	$9, %ecx
	movq	%r14, %rdi
	callq	__ZN4core3fmt9Formatter12debug_struct17ha1a64e91d2a98458E
	movq	%rbx, -24(%rbp)
	addq	$8, %rbx
	leaq	L___unnamed_5(%rip), %rsi
	leaq	l___unnamed_164(%rip), %r8
	leaq	-24(%rbp), %rcx
	movl	$4, %edx
	movq	%r14, %rdi
	callq	__ZN4core3fmt8builders11DebugStruct5field17h6c54d35ac41bb1e6E
	movq	%rbx, -24(%rbp)
	leaq	l___unnamed_7(%rip), %rsi
	leaq	l___unnamed_8(%rip), %r8
	leaq	-24(%rbp), %rcx
	movl	$7, %edx
	movq	%r14, %rdi
	callq	__ZN4core3fmt8builders11DebugStruct5field17h6c54d35ac41bb1e6E
	movq	%r14, %rdi
	callq	__ZN4core3fmt8builders11DebugStruct6finish17h67ed49fd5e81bb24E
	addq	$32, %rsp
	popq	%rbx
	popq	%r14
	popq	%rbp
	retq
	.cfi_endproc

	.p2align	4, 0x90
__ZN42_$LT$$RF$T$u20$as$u20$core..fmt..Debug$GT$3fmt17h566e037a48685230E:
	.cfi_startproc
	pushq	%rbp
	.cfi_def_cfa_offset 16
	.cfi_offset %rbp, -16
	movq	%rsp, %rbp
	.cfi_def_cfa_register %rbp
	pushq	%r14
	pushq	%rbx
	subq	$48, %rsp
	.cfi_offset %rbx, -32
	.cfi_offset %r14, -24
	movq	(%rdi), %rbx
	leaq	L___unnamed_165(%rip), %rdx
	leaq	-56(%rbp), %r14
	movl	$4, %ecx
	movq	%r14, %rdi
	callq	__ZN4core3fmt9Formatter11debug_tuple17h6c448643801d07e8E
	movq	(%rbx), %rcx
	movq	8(%rbx), %rax
	subq	%rcx, %rax
	shrq	$3, %rax
	movabsq	$2635249153387078803, %rdx
	mulq	%rdx
	movq	%rcx, -32(%rbp)
	movq	%rdx, -24(%rbp)
	leaq	l___unnamed_166(%rip), %rdx
	leaq	-32(%rbp), %rsi
	movq	%r14, %rdi
	callq	__ZN4core3fmt8builders10DebugTuple5field17hc7b676d0e36b51d9E
	movq	%rax, %rdi
	callq	__ZN4core3fmt8builders10DebugTuple6finish17h9f206806f7096c33E
	addq	$48, %rsp
	popq	%rbx
	popq	%r14
	popq	%rbp
	retq
	.cfi_endproc

	.p2align	4, 0x90
__ZN42_$LT$$RF$T$u20$as$u20$core..fmt..Debug$GT$3fmt17h571bee1596469ccfE:
	.cfi_startproc
	pushq	%rbp
	.cfi_def_cfa_offset 16
	.cfi_offset %rbp, -16
	movq	%rsp, %rbp
	.cfi_def_cfa_register %rbp
	movq	(%rdi), %rdi
	popq	%rbp
	jmp	__ZN57_$LT$object..read..Symbol$u20$as$u20$core..fmt..Debug$GT$3fmt17h4255d6821682bedbE
	.cfi_endproc

	.p2align	4, 0x90
__ZN42_$LT$$RF$T$u20$as$u20$core..fmt..Debug$GT$3fmt17h578b722e298f3cfaE:
	.cfi_startproc
	pushq	%rbp
	.cfi_def_cfa_offset 16
	.cfi_offset %rbp, -16
	movq	%rsp, %rbp
	.cfi_def_cfa_register %rbp
	pushq	%r15
	pushq	%r14
	pushq	%r13
	pushq	%r12
	pushq	%rbx
	subq	$24, %rsp
	.cfi_offset %rbx, -56
	.cfi_offset %r12, -48
	.cfi_offset %r13, -40
	.cfi_offset %r14, -32
	.cfi_offset %r15, -24
	movq	(%rdi), %rax
	movq	(%rax), %r13
	movq	16(%rax), %rbx
	leaq	-64(%rbp), %rdi
	callq	__ZN4core3fmt9Formatter10debug_list17h113a4e31f24f00d7E
	testq	%rbx, %rbx
	je	LBB67_3
	shlq	$3, %rbx
	leaq	(%rbx,%rbx,2), %rbx
	leaq	l___unnamed_167(%rip), %r14
	leaq	-64(%rbp), %r15
	leaq	-48(%rbp), %r12
	.p2align	4, 0x90
LBB67_2:
	movq	%r13, -48(%rbp)
	addq	$24, %r13
	movq	%r15, %rdi
	movq	%r12, %rsi
	movq	%r14, %rdx
	callq	__ZN4core3fmt8builders9DebugList5entry17h2dea26f6c644471aE
	addq	$-24, %rbx
	jne	LBB67_2
LBB67_3:
	leaq	-64(%rbp), %rdi
	callq	__ZN4core3fmt8builders9DebugList6finish17h1537bc92ee1acb1cE
	addq	$24, %rsp
	popq	%rbx
	popq	%r12
	popq	%r13
	popq	%r14
	popq	%r15
	popq	%rbp
	retq
	.cfi_endproc

	.p2align	4, 0x90
__ZN42_$LT$$RF$T$u20$as$u20$core..fmt..Debug$GT$3fmt17h5d1bf7c86fecf4d2E:
	.cfi_startproc
	pushq	%rbp
	.cfi_def_cfa_offset 16
	.cfi_offset %rbp, -16
	movq	%rsp, %rbp
	.cfi_def_cfa_register %rbp
	pushq	%r14
	pushq	%rbx
	.cfi_offset %rbx, -32
	.cfi_offset %r14, -24
	movq	%rsi, %rbx
	movq	(%rdi), %r14
	movq	%rsi, %rdi
	callq	__ZN4core3fmt9Formatter15debug_lower_hex17hd07f6fde8d0365dfE
	testb	%al, %al
	je	LBB68_1
	movq	%r14, %rdi
	movq	%rbx, %rsi
	popq	%rbx
	popq	%r14
	popq	%rbp
	jmp	__ZN4core3fmt3num55_$LT$impl$u20$core..fmt..LowerHex$u20$for$u20$usize$GT$3fmt17hc47c170655f2f8b1E
LBB68_1:
	movq	%rbx, %rdi
	callq	__ZN4core3fmt9Formatter15debug_upper_hex17hf480c256a9c81c1eE
	movq	%r14, %rdi
	movq	%rbx, %rsi
	testb	%al, %al
	je	LBB68_4
	popq	%rbx
	popq	%r14
	popq	%rbp
	jmp	__ZN4core3fmt3num55_$LT$impl$u20$core..fmt..UpperHex$u20$for$u20$usize$GT$3fmt17he5a77a1ce12f6c22E
LBB68_4:
	popq	%rbx
	popq	%r14
	popq	%rbp
	jmp	__ZN4core3fmt3num3imp54_$LT$impl$u20$core..fmt..Display$u20$for$u20$usize$GT$3fmt17h12ea2856299c9b06E
	.cfi_endproc

	.p2align	4, 0x90
__ZN42_$LT$$RF$T$u20$as$u20$core..fmt..Debug$GT$3fmt17h5dfbe156b651facfE:
	.cfi_startproc
	pushq	%rbp
	.cfi_def_cfa_offset 16
	.cfi_offset %rbp, -16
	movq	%rsp, %rbp
	.cfi_def_cfa_register %rbp
	subq	$80, %rsp
	movq	%rsi, %rax
	movq	(%rdi), %rcx
	movq	%rcx, -32(%rbp)
	incq	%rcx
	movq	__ZN4core3fmt3num52_$LT$impl$u20$core..fmt..LowerHex$u20$for$u20$u8$GT$3fmt17h35609b3cfed2e613E@GOTPCREL(%rip), %rdx
	movq	%rdx, -24(%rbp)
	movq	%rcx, -16(%rbp)
	movq	%rdx, -8(%rbp)
	leaq	l___unnamed_168(%rip), %rcx
	movq	%rcx, -80(%rbp)
	movq	$3, -72(%rbp)
	movq	$0, -64(%rbp)
	leaq	-32(%rbp), %rcx
	movq	%rcx, -48(%rbp)
	movq	$2, -40(%rbp)
	leaq	-80(%rbp), %rsi
	movq	%rax, %rdi
	callq	__ZN4core3fmt9Formatter9write_fmt17h742ca6aae87ad23cE
	addq	$80, %rsp
	popq	%rbp
	retq
	.cfi_endproc

	.p2align	4, 0x90
__ZN42_$LT$$RF$T$u20$as$u20$core..fmt..Debug$GT$3fmt17h5ea2eb8cd6ebcfb4E:
	.cfi_startproc
	pushq	%rbp
	.cfi_def_cfa_offset 16
	.cfi_offset %rbp, -16
	movq	%rsp, %rbp
	.cfi_def_cfa_register %rbp
	pushq	%r14
	pushq	%rbx
	subq	$48, %rsp
	.cfi_offset %rbx, -32
	.cfi_offset %r14, -24
	movq	(%rdi), %rbx
	leaq	L___unnamed_165(%rip), %rdx
	leaq	-56(%rbp), %r14
	movl	$4, %ecx
	movq	%r14, %rdi
	callq	__ZN4core3fmt9Formatter11debug_tuple17h6c448643801d07e8E
	movq	(%rbx), %rax
	movq	8(%rbx), %rcx
	subq	%rax, %rcx
	shrq	$6, %rcx
	movq	%rax, -32(%rbp)
	movq	%rcx, -24(%rbp)
	leaq	l___unnamed_169(%rip), %rdx
	leaq	-32(%rbp), %rsi
	movq	%r14, %rdi
	callq	__ZN4core3fmt8builders10DebugTuple5field17hc7b676d0e36b51d9E
	movq	%rax, %rdi
	callq	__ZN4core3fmt8builders10DebugTuple6finish17h9f206806f7096c33E
	addq	$48, %rsp
	popq	%rbx
	popq	%r14
	popq	%rbp
	retq
	.cfi_endproc

	.p2align	4, 0x90
__ZN42_$LT$$RF$T$u20$as$u20$core..fmt..Debug$GT$3fmt17h5ec2663da098c4a4E:
	.cfi_startproc
	pushq	%rbp
	.cfi_def_cfa_offset 16
	.cfi_offset %rbp, -16
	movq	%rsp, %rbp
	.cfi_def_cfa_register %rbp
	pushq	%r15
	pushq	%r14
	pushq	%r13
	pushq	%r12
	pushq	%rbx
	subq	$24, %rsp
	.cfi_offset %rbx, -56
	.cfi_offset %r12, -48
	.cfi_offset %r13, -40
	.cfi_offset %r14, -32
	.cfi_offset %r15, -24
	movq	(%rdi), %rbx
	leaq	-64(%rbp), %r12
	movq	%r12, %rdi
	callq	__ZN4core3fmt9Formatter10debug_list17h113a4e31f24f00d7E
	leaq	2(%rbx), %r13
	movq	%rbx, -48(%rbp)
	leaq	l___unnamed_153(%rip), %r14
	leaq	-48(%rbp), %r15
	movq	%r12, %rdi
	movq	%r15, %rsi
	movq	%r14, %rdx
	callq	__ZN4core3fmt8builders9DebugList5entry17h2dea26f6c644471aE
	movq	%r13, -48(%rbp)
	movq	%r12, %rdi
	movq	%r15, %rsi
	movq	%r14, %rdx
	callq	__ZN4core3fmt8builders9DebugList5entry17h2dea26f6c644471aE
	leaq	4(%rbx), %rax
	addq	$6, %rbx
	movq	%rax, -48(%rbp)
	movq	%r12, %rdi
	movq	%r15, %rsi
	movq	%r14, %rdx
	callq	__ZN4core3fmt8builders9DebugList5entry17h2dea26f6c644471aE
	movq	%rbx, -48(%rbp)
	movq	%r12, %rdi
	movq	%r15, %rsi
	movq	%r14, %rdx
	callq	__ZN4core3fmt8builders9DebugList5entry17h2dea26f6c644471aE
	movq	%r12, %rdi
	callq	__ZN4core3fmt8builders9DebugList6finish17h1537bc92ee1acb1cE
	addq	$24, %rsp
	popq	%rbx
	popq	%r12
	popq	%r13
	popq	%r14
	popq	%r15
	popq	%rbp
	retq
	.cfi_endproc

	.p2align	4, 0x90
__ZN42_$LT$$RF$T$u20$as$u20$core..fmt..Debug$GT$3fmt17h5ed00e1924189938E:
	.cfi_startproc
	pushq	%rbp
	.cfi_def_cfa_offset 16
	.cfi_offset %rbp, -16
	movq	%rsp, %rbp
	.cfi_def_cfa_register %rbp
	pushq	%r15
	pushq	%r14
	pushq	%r13
	pushq	%r12
	pushq	%rbx
	subq	$40, %rsp
	.cfi_offset %rbx, -56
	.cfi_offset %r12, -48
	.cfi_offset %r13, -40
	.cfi_offset %r14, -32
	.cfi_offset %r15, -24
	movq	(%rdi), %rax
	movq	(%rax), %rbx
	leaq	l___unnamed_170(%rip), %rdx
	leaq	-80(%rbp), %r12
	movl	$12, %ecx
	movq	%r12, %rdi
	callq	__ZN4core3fmt9Formatter12debug_struct17ha1a64e91d2a98458E
	movq	%rbx, -48(%rbp)
	leaq	4(%rbx), %r14
	leaq	8(%rbx), %r13
	leaq	12(%rbx), %r15
	leaq	16(%rbx), %rax
	movq	%rax, -56(%rbp)
	leaq	20(%rbx), %rax
	movq	%rax, -64(%rbp)
	leaq	24(%rbx), %rbx
	leaq	l___unnamed_42(%rip), %rsi
	leaq	l___unnamed_43(%rip), %r8
	leaq	-48(%rbp), %rcx
	movl	$5, %edx
	movq	%r12, %rdi
	callq	__ZN4core3fmt8builders11DebugStruct5field17h6c54d35ac41bb1e6E
	movq	%r14, -48(%rbp)
	leaq	l___unnamed_44(%rip), %rsi
	leaq	l___unnamed_45(%rip), %r14
	leaq	-48(%rbp), %rcx
	movl	$7, %edx
	movq	%r12, %rdi
	movq	%r14, %r8
	callq	__ZN4core3fmt8builders11DebugStruct5field17h6c54d35ac41bb1e6E
	movq	%r13, -48(%rbp)
	leaq	l___unnamed_46(%rip), %rsi
	leaq	-48(%rbp), %rcx
	movl	$10, %edx
	movq	%r12, %rdi
	movq	%r14, %r8
	callq	__ZN4core3fmt8builders11DebugStruct5field17h6c54d35ac41bb1e6E
	movq	%r15, -48(%rbp)
	leaq	L___unnamed_47(%rip), %rsi
	leaq	-48(%rbp), %rcx
	movl	$8, %edx
	movq	%r12, %rdi
	movq	%r14, %r8
	callq	__ZN4core3fmt8builders11DebugStruct5field17h6c54d35ac41bb1e6E
	movq	-56(%rbp), %rax
	movq	%rax, -48(%rbp)
	leaq	l___unnamed_48(%rip), %rsi
	leaq	-48(%rbp), %rcx
	movl	$5, %edx
	movq	%r12, %rdi
	movq	%r14, %r8
	callq	__ZN4core3fmt8builders11DebugStruct5field17h6c54d35ac41bb1e6E
	movq	-64(%rbp), %rax
	movq	%rax, -48(%rbp)
	leaq	l___unnamed_49(%rip), %rsi
	leaq	-48(%rbp), %rcx
	movl	$10, %edx
	movq	%r12, %rdi
	movq	%r14, %r8
	callq	__ZN4core3fmt8builders11DebugStruct5field17h6c54d35ac41bb1e6E
	movq	%rbx, -48(%rbp)
	leaq	l___unnamed_50(%rip), %rsi
	leaq	-48(%rbp), %rcx
	movl	$5, %edx
	movq	%r12, %rdi
	movq	%r14, %r8
	callq	__ZN4core3fmt8builders11DebugStruct5field17h6c54d35ac41bb1e6E
	movq	%r12, %rdi
	callq	__ZN4core3fmt8builders11DebugStruct6finish17h67ed49fd5e81bb24E
	addq	$40, %rsp
	popq	%rbx
	popq	%r12
	popq	%r13
	popq	%r14
	popq	%r15
	popq	%rbp
	retq
	.cfi_endproc

	.p2align	4, 0x90
__ZN42_$LT$$RF$T$u20$as$u20$core..fmt..Debug$GT$3fmt17h5fd86c6e01843688E:
	.cfi_startproc
	pushq	%rbp
	.cfi_def_cfa_offset 16
	.cfi_offset %rbp, -16
	movq	%rsp, %rbp
	.cfi_def_cfa_register %rbp
	pushq	%r15
	pushq	%r14
	pushq	%r13
	pushq	%r12
	pushq	%rbx
	subq	$40, %rsp
	.cfi_offset %rbx, -56
	.cfi_offset %r12, -48
	.cfi_offset %r13, -40
	.cfi_offset %r14, -32
	.cfi_offset %r15, -24
	movq	(%rdi), %rbx
	leaq	208(%rbx), %r14
	leaq	l___unnamed_171(%rip), %rdx
	leaq	-80(%rbp), %r15
	movl	$7, %ecx
	movq	%r15, %rdi
	callq	__ZN4core3fmt9Formatter12debug_struct17ha1a64e91d2a98458E
	movq	%r14, -48(%rbp)
	leaq	l___unnamed_18(%rip), %rsi
	leaq	l___unnamed_19(%rip), %r8
	leaq	-48(%rbp), %rcx
	movl	$6, %edx
	movq	%r15, %rdi
	callq	__ZN4core3fmt8builders11DebugStruct5field17h6c54d35ac41bb1e6E
	movq	%rbx, -48(%rbp)
	leaq	16(%rbx), %r14
	leaq	24(%rbx), %r12
	leaq	40(%rbx), %r13
	leaq	72(%rbx), %rax
	movq	%rax, -56(%rbp)
	leaq	96(%rbx), %rax
	movq	%rax, -64(%rbp)
	leaq	152(%rbx), %rbx
	leaq	L___unnamed_20(%rip), %rsi
	leaq	l___unnamed_21(%rip), %r8
	leaq	-48(%rbp), %rcx
	movl	$4, %edx
	movq	%r15, %rdi
	callq	__ZN4core3fmt8builders11DebugStruct5field17h6c54d35ac41bb1e6E
	movq	%r14, -48(%rbp)
	leaq	l___unnamed_22(%rip), %rsi
	leaq	l___unnamed_172(%rip), %r8
	leaq	-48(%rbp), %rcx
	movl	$6, %edx
	movq	%r15, %rdi
	callq	__ZN4core3fmt8builders11DebugStruct5field17h6c54d35ac41bb1e6E
	movq	%r12, -48(%rbp)
	leaq	L___unnamed_173(%rip), %rsi
	leaq	l___unnamed_174(%rip), %r8
	leaq	-48(%rbp), %rcx
	movl	$8, %edx
	movq	%r15, %rdi
	callq	__ZN4core3fmt8builders11DebugStruct5field17h6c54d35ac41bb1e6E
	movq	%r13, -48(%rbp)
	leaq	L___unnamed_24(%rip), %rsi
	leaq	l___unnamed_175(%rip), %r8
	leaq	-48(%rbp), %rcx
	movl	$8, %edx
	movq	%r15, %rdi
	callq	__ZN4core3fmt8builders11DebugStruct5field17h6c54d35ac41bb1e6E
	movq	-56(%rbp), %rax
	movq	%rax, -48(%rbp)
	leaq	l___unnamed_62(%rip), %rsi
	leaq	l___unnamed_176(%rip), %r8
	leaq	-48(%rbp), %rcx
	movl	$11, %edx
	movq	%r15, %rdi
	callq	__ZN4core3fmt8builders11DebugStruct5field17h6c54d35ac41bb1e6E
	movq	-64(%rbp), %rax
	movq	%rax, -48(%rbp)
	leaq	l___unnamed_13(%rip), %rsi
	leaq	l___unnamed_177(%rip), %r14
	leaq	-48(%rbp), %rcx
	movl	$7, %edx
	movq	%r15, %rdi
	movq	%r14, %r8
	callq	__ZN4core3fmt8builders11DebugStruct5field17h6c54d35ac41bb1e6E
	movq	%rbx, -48(%rbp)
	leaq	l___unnamed_178(%rip), %rsi
	leaq	-48(%rbp), %rcx
	movl	$15, %edx
	movq	%r15, %rdi
	movq	%r14, %r8
	callq	__ZN4core3fmt8builders11DebugStruct5field17h6c54d35ac41bb1e6E
	movq	%r15, %rdi
	callq	__ZN4core3fmt8builders11DebugStruct6finish17h67ed49fd5e81bb24E
	addq	$40, %rsp
	popq	%rbx
	popq	%r12
	popq	%r13
	popq	%r14
	popq	%r15
	popq	%rbp
	retq
	.cfi_endproc

	.p2align	4, 0x90
__ZN42_$LT$$RF$T$u20$as$u20$core..fmt..Debug$GT$3fmt17h61d4c1674a6cfc3aE:
	.cfi_startproc
	pushq	%rbp
	.cfi_def_cfa_offset 16
	.cfi_offset %rbp, -16
	movq	%rsp, %rbp
	.cfi_def_cfa_register %rbp
	pushq	%r15
	pushq	%r14
	pushq	%r13
	pushq	%r12
	pushq	%rbx
	subq	$24, %rsp
	.cfi_offset %rbx, -56
	.cfi_offset %r12, -48
	.cfi_offset %r13, -40
	.cfi_offset %r14, -32
	.cfi_offset %r15, -24
	movq	(%rdi), %rbx
	leaq	80(%rbx), %r14
	leaq	l___unnamed_17(%rip), %rdx
	leaq	-64(%rbp), %r15
	movl	$9, %ecx
	movq	%r15, %rdi
	callq	__ZN4core3fmt9Formatter12debug_struct17ha1a64e91d2a98458E
	movq	%r14, -48(%rbp)
	leaq	l___unnamed_18(%rip), %rsi
	leaq	l___unnamed_19(%rip), %r8
	leaq	-48(%rbp), %rcx
	movl	$6, %edx
	movq	%r15, %rdi
	callq	__ZN4core3fmt8builders11DebugStruct5field17h6c54d35ac41bb1e6E
	movq	%rbx, -48(%rbp)
	leaq	16(%rbx), %r12
	leaq	24(%rbx), %r13
	leaq	48(%rbx), %r14
	leaq	L___unnamed_20(%rip), %rsi
	leaq	l___unnamed_21(%rip), %r8
	leaq	-48(%rbp), %rcx
	movl	$4, %edx
	movq	%r15, %rdi
	callq	__ZN4core3fmt8builders11DebugStruct5field17h6c54d35ac41bb1e6E
	movq	%r12, -48(%rbp)
	leaq	l___unnamed_22(%rip), %rsi
	leaq	l___unnamed_23(%rip), %r8
	leaq	-48(%rbp), %rcx
	movl	$6, %edx
	movq	%r15, %rdi
	callq	__ZN4core3fmt8builders11DebugStruct5field17h6c54d35ac41bb1e6E
	movq	%r13, -48(%rbp)
	leaq	L___unnamed_24(%rip), %rsi
	leaq	l___unnamed_25(%rip), %r8
	leaq	-48(%rbp), %rcx
	movl	$8, %edx
	movq	%r15, %rdi
	callq	__ZN4core3fmt8builders11DebugStruct5field17h6c54d35ac41bb1e6E
	movq	%r14, -48(%rbp)
	leaq	l___unnamed_13(%rip), %rsi
	leaq	l___unnamed_26(%rip), %r8
	leaq	-48(%rbp), %rcx
	movl	$7, %edx
	movq	%r15, %rdi
	callq	__ZN4core3fmt8builders11DebugStruct5field17h6c54d35ac41bb1e6E
	movq	%r15, %rdi
	callq	__ZN4core3fmt8builders11DebugStruct6finish17h67ed49fd5e81bb24E
	addq	$24, %rsp
	popq	%rbx
	popq	%r12
	popq	%r13
	popq	%r14
	popq	%r15
	popq	%rbp
	retq
	.cfi_endproc

	.p2align	4, 0x90
__ZN42_$LT$$RF$T$u20$as$u20$core..fmt..Debug$GT$3fmt17h62704b5ad2c624baE:
	.cfi_startproc
	pushq	%rbp
	.cfi_def_cfa_offset 16
	.cfi_offset %rbp, -16
	movq	%rsp, %rbp
	.cfi_def_cfa_register %rbp
	subq	$112, %rsp
	movq	%rsi, %rax
	movq	(%rdi), %rcx
	movq	%rcx, -64(%rbp)
	leaq	1(%rcx), %rdx
	leaq	2(%rcx), %rsi
	leaq	3(%rcx), %rcx
	movq	__ZN4core3fmt3num52_$LT$impl$u20$core..fmt..LowerHex$u20$for$u20$u8$GT$3fmt17h35609b3cfed2e613E@GOTPCREL(%rip), %rdi
	movq	%rdi, -56(%rbp)
	movq	%rdx, -48(%rbp)
	movq	%rdi, -40(%rbp)
	movq	%rsi, -32(%rbp)
	movq	%rdi, -24(%rbp)
	movq	%rcx, -16(%rbp)
	movq	%rdi, -8(%rbp)
	leaq	l___unnamed_179(%rip), %rcx
	movq	%rcx, -112(%rbp)
	movq	$5, -104(%rbp)
	movq	$0, -96(%rbp)
	leaq	-64(%rbp), %rcx
	movq	%rcx, -80(%rbp)
	movq	$4, -72(%rbp)
	leaq	-112(%rbp), %rsi
	movq	%rax, %rdi
	callq	__ZN4core3fmt9Formatter9write_fmt17h742ca6aae87ad23cE
	addq	$112, %rsp
	popq	%rbp
	retq
	.cfi_endproc

	.p2align	4, 0x90
__ZN42_$LT$$RF$T$u20$as$u20$core..fmt..Debug$GT$3fmt17h62c36b43d1b0fba6E:
	.cfi_startproc
	pushq	%rbp
	.cfi_def_cfa_offset 16
	.cfi_offset %rbp, -16
	movq	%rsp, %rbp
	.cfi_def_cfa_register %rbp
	pushq	%rbx
	subq	$24, %rsp
	.cfi_offset %rbx, -24
	leaq	l___unnamed_180(%rip), %rdx
	leaq	-24(%rbp), %rbx
	movl	$20, %ecx
	movq	%rbx, %rdi
	callq	__ZN4core3fmt9Formatter12debug_struct17ha1a64e91d2a98458E
	movq	%rbx, %rdi
	callq	__ZN4core3fmt8builders11DebugStruct6finish17h67ed49fd5e81bb24E
	addq	$24, %rsp
	popq	%rbx
	popq	%rbp
	retq
	.cfi_endproc

	.p2align	4, 0x90
__ZN42_$LT$$RF$T$u20$as$u20$core..fmt..Debug$GT$3fmt17h6500d25c0b9b9b5dE:
	.cfi_startproc
	pushq	%rbp
	.cfi_def_cfa_offset 16
	.cfi_offset %rbp, -16
	movq	%rsp, %rbp
	.cfi_def_cfa_register %rbp
	pushq	%r15
	pushq	%r14
	pushq	%r13
	pushq	%r12
	pushq	%rbx
	subq	$24, %rsp
	.cfi_offset %rbx, -56
	.cfi_offset %r12, -48
	.cfi_offset %r13, -40
	.cfi_offset %r14, -32
	.cfi_offset %r15, -24
	movq	(%rdi), %rax
	movq	(%rax), %rbx
	leaq	80(%rbx), %r14
	leaq	l___unnamed_17(%rip), %rdx
	leaq	-64(%rbp), %r15
	movl	$9, %ecx
	movq	%r15, %rdi
	callq	__ZN4core3fmt9Formatter12debug_struct17ha1a64e91d2a98458E
	movq	%r14, -48(%rbp)
	leaq	l___unnamed_18(%rip), %rsi
	leaq	l___unnamed_19(%rip), %r8
	leaq	-48(%rbp), %rcx
	movl	$6, %edx
	movq	%r15, %rdi
	callq	__ZN4core3fmt8builders11DebugStruct5field17h6c54d35ac41bb1e6E
	movq	%rbx, -48(%rbp)
	leaq	16(%rbx), %r12
	leaq	24(%rbx), %r13
	leaq	48(%rbx), %r14
	leaq	L___unnamed_20(%rip), %rsi
	leaq	l___unnamed_21(%rip), %r8
	leaq	-48(%rbp), %rcx
	movl	$4, %edx
	movq	%r15, %rdi
	callq	__ZN4core3fmt8builders11DebugStruct5field17h6c54d35ac41bb1e6E
	movq	%r12, -48(%rbp)
	leaq	l___unnamed_22(%rip), %rsi
	leaq	l___unnamed_105(%rip), %r8
	leaq	-48(%rbp), %rcx
	movl	$6, %edx
	movq	%r15, %rdi
	callq	__ZN4core3fmt8builders11DebugStruct5field17h6c54d35ac41bb1e6E
	movq	%r13, -48(%rbp)
	leaq	L___unnamed_24(%rip), %rsi
	leaq	l___unnamed_106(%rip), %r8
	leaq	-48(%rbp), %rcx
	movl	$8, %edx
	movq	%r15, %rdi
	callq	__ZN4core3fmt8builders11DebugStruct5field17h6c54d35ac41bb1e6E
	movq	%r14, -48(%rbp)
	leaq	l___unnamed_13(%rip), %rsi
	leaq	l___unnamed_107(%rip), %r8
	leaq	-48(%rbp), %rcx
	movl	$7, %edx
	movq	%r15, %rdi
	callq	__ZN4core3fmt8builders11DebugStruct5field17h6c54d35ac41bb1e6E
	movq	%r15, %rdi
	callq	__ZN4core3fmt8builders11DebugStruct6finish17h67ed49fd5e81bb24E
	addq	$24, %rsp
	popq	%rbx
	popq	%r12
	popq	%r13
	popq	%r14
	popq	%r15
	popq	%rbp
	retq
	.cfi_endproc

	.p2align	4, 0x90
__ZN42_$LT$$RF$T$u20$as$u20$core..fmt..Debug$GT$3fmt17h664ea42ec823334eE:
	.cfi_startproc
	pushq	%rbp
	.cfi_def_cfa_offset 16
	.cfi_offset %rbp, -16
	movq	%rsp, %rbp
	.cfi_def_cfa_register %rbp
	pushq	%r14
	pushq	%rbx
	subq	$48, %rsp
	.cfi_offset %rbx, -32
	.cfi_offset %r14, -24
	movq	(%rdi), %rbx
	leaq	L___unnamed_165(%rip), %rdx
	leaq	-56(%rbp), %r14
	movl	$4, %ecx
	movq	%r14, %rdi
	callq	__ZN4core3fmt9Formatter11debug_tuple17h6c448643801d07e8E
	movq	(%rbx), %rcx
	movq	8(%rbx), %rax
	subq	%rcx, %rax
	movabsq	$-3689348814741910323, %rdx
	mulq	%rdx
	shrq	$5, %rdx
	movq	%rcx, -32(%rbp)
	movq	%rdx, -24(%rbp)
	leaq	l___unnamed_181(%rip), %rdx
	leaq	-32(%rbp), %rsi
	movq	%r14, %rdi
	callq	__ZN4core3fmt8builders10DebugTuple5field17hc7b676d0e36b51d9E
	movq	%rax, %rdi
	callq	__ZN4core3fmt8builders10DebugTuple6finish17h9f206806f7096c33E
	addq	$48, %rsp
	popq	%rbx
	popq	%r14
	popq	%rbp
	retq
	.cfi_endproc

	.p2align	4, 0x90
__ZN42_$LT$$RF$T$u20$as$u20$core..fmt..Debug$GT$3fmt17h696421ff02278d65E:
	.cfi_startproc
	pushq	%rbp
	.cfi_def_cfa_offset 16
	.cfi_offset %rbp, -16
	movq	%rsp, %rbp
	.cfi_def_cfa_register %rbp
	pushq	%rbx
	subq	$24, %rsp
	.cfi_offset %rbx, -24
	leaq	l___unnamed_182(%rip), %rdx
	leaq	-24(%rbp), %rbx
	movl	$21, %ecx
	movq	%rbx, %rdi
	callq	__ZN4core3fmt9Formatter12debug_struct17ha1a64e91d2a98458E
	movq	%rbx, %rdi
	callq	__ZN4core3fmt8builders11DebugStruct6finish17h67ed49fd5e81bb24E
	addq	$24, %rsp
	popq	%rbx
	popq	%rbp
	retq
	.cfi_endproc

	.p2align	4, 0x90
__ZN42_$LT$$RF$T$u20$as$u20$core..fmt..Debug$GT$3fmt17h69926c2c7633ac89E:
	.cfi_startproc
	pushq	%rbp
	.cfi_def_cfa_offset 16
	.cfi_offset %rbp, -16
	movq	%rsp, %rbp
	.cfi_def_cfa_register %rbp
	subq	$176, %rsp
	movq	%rsi, %r8
	movq	(%rdi), %rcx
	movq	%rcx, -128(%rbp)
	leaq	1(%rcx), %rdx
	leaq	2(%rcx), %rsi
	leaq	3(%rcx), %rdi
	leaq	4(%rcx), %rax
	leaq	5(%rcx), %r9
	leaq	6(%rcx), %r10
	leaq	7(%rcx), %r11
	movq	__ZN4core3fmt3num52_$LT$impl$u20$core..fmt..LowerHex$u20$for$u20$u8$GT$3fmt17h35609b3cfed2e613E@GOTPCREL(%rip), %rcx
	movq	%rcx, -120(%rbp)
	movq	%rdx, -112(%rbp)
	movq	%rcx, -104(%rbp)
	movq	%rsi, -96(%rbp)
	movq	%rcx, -88(%rbp)
	movq	%rdi, -80(%rbp)
	movq	%rcx, -72(%rbp)
	movq	%rax, -64(%rbp)
	movq	%rcx, -56(%rbp)
	movq	%r9, -48(%rbp)
	movq	%rcx, -40(%rbp)
	movq	%r10, -32(%rbp)
	movq	%rcx, -24(%rbp)
	movq	%r11, -16(%rbp)
	movq	%rcx, -8(%rbp)
	leaq	l___unnamed_183(%rip), %rax
	movq	%rax, -176(%rbp)
	movq	$9, -168(%rbp)
	movq	$0, -160(%rbp)
	leaq	-128(%rbp), %rax
	movq	%rax, -144(%rbp)
	movq	$8, -136(%rbp)
	leaq	-176(%rbp), %rsi
	movq	%r8, %rdi
	callq	__ZN4core3fmt9Formatter9write_fmt17h742ca6aae87ad23cE
	addq	$176, %rsp
	popq	%rbp
	retq
	.cfi_endproc

	.p2align	4, 0x90
__ZN42_$LT$$RF$T$u20$as$u20$core..fmt..Debug$GT$3fmt17h6998958c8cfb6fb6E:
	.cfi_startproc
	pushq	%rbp
	.cfi_def_cfa_offset 16
	.cfi_offset %rbp, -16
	movq	%rsp, %rbp
	.cfi_def_cfa_register %rbp
	pushq	%r15
	pushq	%r14
	pushq	%r13
	pushq	%r12
	pushq	%rbx
	subq	$40, %rsp
	.cfi_offset %rbx, -56
	.cfi_offset %r12, -48
	.cfi_offset %r13, -40
	.cfi_offset %r14, -32
	.cfi_offset %r15, -24
	movq	(%rdi), %rbx
	leaq	-72(%rbp), %r12
	movq	%r12, %rdi
	callq	__ZN4core3fmt9Formatter10debug_list17h113a4e31f24f00d7E
	leaq	1(%rbx), %r13
	movq	%rbx, -48(%rbp)
	leaq	l___unnamed_11(%rip), %r14
	leaq	-48(%rbp), %r15
	movq	%r12, %rdi
	movq	%r15, %rsi
	movq	%r14, %rdx
	callq	__ZN4core3fmt8builders9DebugList5entry17h2dea26f6c644471aE
	leaq	2(%rbx), %rax
	movq	%rax, -56(%rbp)
	movq	%r13, -48(%rbp)
	movq	%r12, %rdi
	movq	%r15, %rsi
	movq	%r15, %r13
	movq	%r14, %rdx
	movq	%r14, %r15
	callq	__ZN4core3fmt8builders9DebugList5entry17h2dea26f6c644471aE
	leaq	3(%rbx), %r14
	movq	-56(%rbp), %rax
	movq	%rax, -48(%rbp)
	movq	%r12, %rdi
	movq	%r13, %rsi
	movq	%r15, %rdx
	callq	__ZN4core3fmt8builders9DebugList5entry17h2dea26f6c644471aE
	leaq	4(%rbx), %rax
	movq	%rax, -56(%rbp)
	movq	%r14, -48(%rbp)
	movq	%r12, %rdi
	movq	%r13, %rsi
	movq	%r15, %rdx
	callq	__ZN4core3fmt8builders9DebugList5entry17h2dea26f6c644471aE
	leaq	5(%rbx), %r14
	movq	-56(%rbp), %rax
	movq	%rax, -48(%rbp)
	movq	%r12, %rdi
	movq	%r13, %rsi
	movq	%r15, %rdx
	callq	__ZN4core3fmt8builders9DebugList5entry17h2dea26f6c644471aE
	leaq	6(%rbx), %rax
	movq	%rax, -56(%rbp)
	movq	%r14, -48(%rbp)
	movq	%r12, %rdi
	movq	%r13, %rsi
	movq	%r15, %rdx
	callq	__ZN4core3fmt8builders9DebugList5entry17h2dea26f6c644471aE
	leaq	7(%rbx), %r14
	movq	-56(%rbp), %rax
	movq	%rax, -48(%rbp)
	movq	%r12, %rdi
	movq	%r13, %rsi
	movq	%r15, %rdx
	callq	__ZN4core3fmt8builders9DebugList5entry17h2dea26f6c644471aE
	leaq	8(%rbx), %rax
	movq	%rax, -56(%rbp)
	movq	%r14, -48(%rbp)
	movq	%r12, %rdi
	movq	%r13, %rsi
	movq	%r15, %rdx
	callq	__ZN4core3fmt8builders9DebugList5entry17h2dea26f6c644471aE
	leaq	9(%rbx), %r14
	movq	-56(%rbp), %rax
	movq	%rax, -48(%rbp)
	movq	%r12, %rdi
	movq	%r13, %rsi
	movq	%r15, %rdx
	callq	__ZN4core3fmt8builders9DebugList5entry17h2dea26f6c644471aE
	leaq	10(%rbx), %rax
	movq	%rax, -56(%rbp)
	movq	%r14, -48(%rbp)
	movq	%r12, %rdi
	movq	%r13, %rsi
	movq	%r15, %rdx
	callq	__ZN4core3fmt8builders9DebugList5entry17h2dea26f6c644471aE
	leaq	11(%rbx), %r14
	movq	-56(%rbp), %rax
	movq	%rax, -48(%rbp)
	movq	%r12, %rdi
	movq	%r13, %rsi
	movq	%r15, %rdx
	callq	__ZN4core3fmt8builders9DebugList5entry17h2dea26f6c644471aE
	leaq	12(%rbx), %rax
	movq	%rax, -56(%rbp)
	movq	%r14, -48(%rbp)
	movq	%r12, %rdi
	movq	%r13, %rsi
	movq	%r15, %rdx
	callq	__ZN4core3fmt8builders9DebugList5entry17h2dea26f6c644471aE
	leaq	13(%rbx), %r14
	movq	-56(%rbp), %rax
	movq	%rax, -48(%rbp)
	movq	%r12, %rdi
	movq	%r13, %rsi
	movq	%r15, %rdx
	callq	__ZN4core3fmt8builders9DebugList5entry17h2dea26f6c644471aE
	movq	%r14, -48(%rbp)
	movq	%r12, %rdi
	movq	%r13, %rsi
	movq	%r15, %rdx
	callq	__ZN4core3fmt8builders9DebugList5entry17h2dea26f6c644471aE
	leaq	14(%rbx), %rax
	addq	$15, %rbx
	movq	%rax, -48(%rbp)
	movq	%r12, %rdi
	movq	%r13, %rsi
	movq	%r15, %rdx
	callq	__ZN4core3fmt8builders9DebugList5entry17h2dea26f6c644471aE
	movq	%rbx, -48(%rbp)
	movq	%r12, %rdi
	movq	%r13, %rsi
	movq	%r15, %rdx
	callq	__ZN4core3fmt8builders9DebugList5entry17h2dea26f6c644471aE
	movq	%r12, %rdi
	callq	__ZN4core3fmt8builders9DebugList6finish17h1537bc92ee1acb1cE
	addq	$40, %rsp
	popq	%rbx
	popq	%r12
	popq	%r13
	popq	%r14
	popq	%r15
	popq	%rbp
	retq
	.cfi_endproc

	.p2align	4, 0x90
__ZN42_$LT$$RF$T$u20$as$u20$core..fmt..Debug$GT$3fmt17h69e768c8dec61c04E:
	.cfi_startproc
	pushq	%rbp
	.cfi_def_cfa_offset 16
	.cfi_offset %rbp, -16
	movq	%rsp, %rbp
	.cfi_def_cfa_register %rbp
	pushq	%r14
	pushq	%rbx
	subq	$32, %rsp
	.cfi_offset %rbx, -32
	.cfi_offset %r14, -24
	movq	(%rdi), %rbx
	leaq	l___unnamed_184(%rip), %rdx
	leaq	-40(%rbp), %r14
	movl	$12, %ecx
	movq	%r14, %rdi
	callq	__ZN4core3fmt9Formatter12debug_struct17ha1a64e91d2a98458E
	movq	%rbx, -24(%rbp)
	addq	$8, %rbx
	leaq	L___unnamed_5(%rip), %rsi
	leaq	l___unnamed_185(%rip), %r8
	leaq	-24(%rbp), %rcx
	movl	$4, %edx
	movq	%r14, %rdi
	callq	__ZN4core3fmt8builders11DebugStruct5field17h6c54d35ac41bb1e6E
	movq	%rbx, -24(%rbp)
	leaq	l___unnamed_58(%rip), %rsi
	leaq	l___unnamed_186(%rip), %r8
	leaq	-24(%rbp), %rcx
	movl	$7, %edx
	movq	%r14, %rdi
	callq	__ZN4core3fmt8builders11DebugStruct5field17h6c54d35ac41bb1e6E
	movq	%r14, %rdi
	callq	__ZN4core3fmt8builders11DebugStruct6finish17h67ed49fd5e81bb24E
	addq	$32, %rsp
	popq	%rbx
	popq	%r14
	popq	%rbp
	retq
	.cfi_endproc

	.p2align	4, 0x90
__ZN42_$LT$$RF$T$u20$as$u20$core..fmt..Debug$GT$3fmt17h6a57daacd083d42dE:
	.cfi_startproc
	pushq	%rbp
	.cfi_def_cfa_offset 16
	.cfi_offset %rbp, -16
	movq	%rsp, %rbp
	.cfi_def_cfa_register %rbp
	pushq	%r15
	pushq	%r14
	pushq	%r13
	pushq	%r12
	pushq	%rbx
	subq	$24, %rsp
	.cfi_offset %rbx, -56
	.cfi_offset %r12, -48
	.cfi_offset %r13, -40
	.cfi_offset %r14, -32
	.cfi_offset %r15, -24
	movq	(%rdi), %rax
	movq	(%rax), %r13
	movq	8(%rax), %rbx
	leaq	-64(%rbp), %rdi
	callq	__ZN4core3fmt9Formatter10debug_list17h113a4e31f24f00d7E
	testq	%rbx, %rbx
	je	LBB83_3
	addq	%rbx, %rbx
	leaq	(%rbx,%rbx,8), %rbx
	leaq	l___unnamed_187(%rip), %r14
	leaq	-64(%rbp), %r15
	leaq	-48(%rbp), %r12
	.p2align	4, 0x90
LBB83_2:
	movq	%r13, -48(%rbp)
	addq	$18, %r13
	movq	%r15, %rdi
	movq	%r12, %rsi
	movq	%r14, %rdx
	callq	__ZN4core3fmt8builders9DebugList5entry17h2dea26f6c644471aE
	addq	$-18, %rbx
	jne	LBB83_2
LBB83_3:
	leaq	-64(%rbp), %rdi
	callq	__ZN4core3fmt8builders9DebugList6finish17h1537bc92ee1acb1cE
	addq	$24, %rsp
	popq	%rbx
	popq	%r12
	popq	%r13
	popq	%r14
	popq	%r15
	popq	%rbp
	retq
	.cfi_endproc

	.p2align	4, 0x90
__ZN42_$LT$$RF$T$u20$as$u20$core..fmt..Debug$GT$3fmt17h6d440dd4cc16a3c1E:
	.cfi_startproc
	pushq	%rbp
	.cfi_def_cfa_offset 16
	.cfi_offset %rbp, -16
	movq	%rsp, %rbp
	.cfi_def_cfa_register %rbp
	pushq	%r14
	pushq	%rbx
	subq	$32, %rsp
	.cfi_offset %rbx, -32
	.cfi_offset %r14, -24
	movq	(%rdi), %rax
	cmpl	$1, (%rax)
	leaq	8(%rax), %rbx
	jne	LBB84_2
	leaq	l___unnamed_188(%rip), %rdx
	leaq	-48(%rbp), %r14
	movl	$7, %ecx
	movq	%r14, %rdi
	callq	__ZN4core3fmt9Formatter11debug_tuple17h6c448643801d07e8E
	movq	%rbx, -24(%rbp)
	leaq	l___unnamed_98(%rip), %rdx
	jmp	LBB84_3
LBB84_2:
	leaq	l___unnamed_189(%rip), %rdx
	leaq	-48(%rbp), %r14
	movl	$6, %ecx
	movq	%r14, %rdi
	callq	__ZN4core3fmt9Formatter11debug_tuple17h6c448643801d07e8E
	movq	%rbx, -24(%rbp)
	leaq	l___unnamed_190(%rip), %rdx
LBB84_3:
	leaq	-24(%rbp), %rsi
	movq	%r14, %rdi
	callq	__ZN4core3fmt8builders10DebugTuple5field17hc7b676d0e36b51d9E
	movq	%r14, %rdi
	callq	__ZN4core3fmt8builders10DebugTuple6finish17h9f206806f7096c33E
	addq	$32, %rsp
	popq	%rbx
	popq	%r14
	popq	%rbp
	retq
	.cfi_endproc

	.p2align	4, 0x90
__ZN42_$LT$$RF$T$u20$as$u20$core..fmt..Debug$GT$3fmt17h6d98e6f09ca478f9E:
	.cfi_startproc
	pushq	%rbp
	.cfi_def_cfa_offset 16
	.cfi_offset %rbp, -16
	movq	%rsp, %rbp
	.cfi_def_cfa_register %rbp
	pushq	%rbx
	subq	$24, %rsp
	.cfi_offset %rbx, -24
	movq	(%rdi), %rax
	cmpb	$1, (%rax)
	jne	LBB85_2
	leaq	l___unnamed_191(%rip), %rdx
	leaq	-32(%rbp), %rbx
	movl	$3, %ecx
	jmp	LBB85_3
LBB85_2:
	leaq	l___unnamed_192(%rip), %rdx
	leaq	-32(%rbp), %rbx
	movl	$6, %ecx
LBB85_3:
	movq	%rbx, %rdi
	callq	__ZN4core3fmt9Formatter11debug_tuple17h6c448643801d07e8E
	movq	%rbx, %rdi
	callq	__ZN4core3fmt8builders10DebugTuple6finish17h9f206806f7096c33E
	addq	$24, %rsp
	popq	%rbx
	popq	%rbp
	retq
	.cfi_endproc

	.p2align	4, 0x90
__ZN42_$LT$$RF$T$u20$as$u20$core..fmt..Debug$GT$3fmt17h6eb54fbe3a787dffE:
	.cfi_startproc
	pushq	%rbp
	.cfi_def_cfa_offset 16
	.cfi_offset %rbp, -16
	movq	%rsp, %rbp
	.cfi_def_cfa_register %rbp
	movq	(%rdi), %rdi
	popq	%rbp
	jmp	__ZN55_$LT$object..elf..Ident$u20$as$u20$core..fmt..Debug$GT$3fmt17h4f439102b1849a79E
	.cfi_endproc

	.p2align	4, 0x90
__ZN42_$LT$$RF$T$u20$as$u20$core..fmt..Debug$GT$3fmt17h703ca1e567135607E:
	.cfi_startproc
	pushq	%rbp
	.cfi_def_cfa_offset 16
	.cfi_offset %rbp, -16
	movq	%rsp, %rbp
	.cfi_def_cfa_register %rbp
	pushq	%r15
	pushq	%r14
	pushq	%r13
	pushq	%r12
	pushq	%rbx
	subq	$104, %rsp
	.cfi_offset %rbx, -56
	.cfi_offset %r12, -48
	.cfi_offset %r13, -40
	.cfi_offset %r14, -32
	.cfi_offset %r15, -24
	movq	(%rdi), %rax
	movq	(%rax), %rbx
	leaq	l___unnamed_193(%rip), %rdx
	leaq	-144(%rbp), %r14
	movl	$12, %ecx
	movq	%r14, %rdi
	callq	__ZN4core3fmt9Formatter12debug_struct17ha1a64e91d2a98458E
	movq	%rbx, -48(%rbp)
	leaq	16(%rbx), %r12
	leaq	18(%rbx), %r13
	leaq	20(%rbx), %r15
	leaq	24(%rbx), %rax
	movq	%rax, -56(%rbp)
	leaq	32(%rbx), %rax
	movq	%rax, -64(%rbp)
	leaq	40(%rbx), %rax
	movq	%rax, -72(%rbp)
	leaq	48(%rbx), %rax
	movq	%rax, -80(%rbp)
	leaq	52(%rbx), %rax
	movq	%rax, -88(%rbp)
	leaq	54(%rbx), %rax
	movq	%rax, -96(%rbp)
	leaq	56(%rbx), %rax
	movq	%rax, -104(%rbp)
	leaq	58(%rbx), %rax
	movq	%rax, -112(%rbp)
	leaq	60(%rbx), %rax
	movq	%rax, -120(%rbp)
	leaq	62(%rbx), %rax
	movq	%rax, -128(%rbp)
	leaq	l___unnamed_194(%rip), %rsi
	leaq	l___unnamed_195(%rip), %r8
	leaq	-48(%rbp), %rcx
	movl	$7, %edx
	movq	%r14, %rdi
	callq	__ZN4core3fmt8builders11DebugStruct5field17h6c54d35ac41bb1e6E
	movq	%r12, -48(%rbp)
	leaq	l___unnamed_196(%rip), %rsi
	leaq	l___unnamed_79(%rip), %rbx
	leaq	-48(%rbp), %rcx
	movl	$6, %edx
	movq	%r14, %rdi
	movq	%rbx, %r8
	callq	__ZN4core3fmt8builders11DebugStruct5field17h6c54d35ac41bb1e6E
	movq	%r13, -48(%rbp)
	leaq	l___unnamed_197(%rip), %rsi
	leaq	-48(%rbp), %rcx
	movl	$9, %edx
	movq	%r14, %rdi
	movq	%rbx, %r8
	callq	__ZN4core3fmt8builders11DebugStruct5field17h6c54d35ac41bb1e6E
	movq	%r15, -48(%rbp)
	leaq	l___unnamed_198(%rip), %rsi
	leaq	l___unnamed_45(%rip), %r15
	leaq	-48(%rbp), %rcx
	movl	$9, %edx
	movq	%r14, %rdi
	movq	%r15, %r8
	callq	__ZN4core3fmt8builders11DebugStruct5field17h6c54d35ac41bb1e6E
	movq	-56(%rbp), %rax
	movq	%rax, -48(%rbp)
	leaq	l___unnamed_199(%rip), %rsi
	leaq	l___unnamed_68(%rip), %r12
	leaq	-48(%rbp), %rcx
	movl	$7, %edx
	movq	%r14, %rdi
	movq	%r12, %r8
	callq	__ZN4core3fmt8builders11DebugStruct5field17h6c54d35ac41bb1e6E
	movq	-64(%rbp), %rax
	movq	%rax, -48(%rbp)
	leaq	l___unnamed_200(%rip), %rsi
	leaq	-48(%rbp), %rcx
	movl	$7, %edx
	movq	%r14, %rdi
	movq	%r12, %r8
	callq	__ZN4core3fmt8builders11DebugStruct5field17h6c54d35ac41bb1e6E
	movq	-72(%rbp), %rax
	movq	%rax, -48(%rbp)
	leaq	l___unnamed_201(%rip), %rsi
	leaq	-48(%rbp), %rcx
	movl	$7, %edx
	movq	%r14, %rdi
	movq	%r12, %r8
	callq	__ZN4core3fmt8builders11DebugStruct5field17h6c54d35ac41bb1e6E
	movq	-80(%rbp), %rax
	movq	%rax, -48(%rbp)
	leaq	l___unnamed_202(%rip), %rsi
	leaq	-48(%rbp), %rcx
	movl	$7, %edx
	movq	%r14, %rdi
	movq	%r15, %r8
	callq	__ZN4core3fmt8builders11DebugStruct5field17h6c54d35ac41bb1e6E
	movq	-88(%rbp), %rax
	movq	%rax, -48(%rbp)
	leaq	L___unnamed_203(%rip), %rsi
	leaq	-48(%rbp), %rcx
	movl	$8, %edx
	movq	%r14, %rdi
	movq	%rbx, %r8
	callq	__ZN4core3fmt8builders11DebugStruct5field17h6c54d35ac41bb1e6E
	movq	-96(%rbp), %rax
	movq	%rax, -48(%rbp)
	leaq	l___unnamed_204(%rip), %rsi
	leaq	-48(%rbp), %rcx
	movl	$11, %edx
	movq	%r14, %rdi
	movq	%rbx, %r8
	callq	__ZN4core3fmt8builders11DebugStruct5field17h6c54d35ac41bb1e6E
	movq	-104(%rbp), %rax
	movq	%rax, -48(%rbp)
	leaq	l___unnamed_205(%rip), %rsi
	leaq	-48(%rbp), %rcx
	movl	$7, %edx
	movq	%r14, %rdi
	movq	%rbx, %r8
	callq	__ZN4core3fmt8builders11DebugStruct5field17h6c54d35ac41bb1e6E
	movq	-112(%rbp), %rax
	movq	%rax, -48(%rbp)
	leaq	l___unnamed_206(%rip), %rsi
	leaq	-48(%rbp), %rcx
	movl	$11, %edx
	movq	%r14, %rdi
	movq	%rbx, %r8
	callq	__ZN4core3fmt8builders11DebugStruct5field17h6c54d35ac41bb1e6E
	movq	-120(%rbp), %rax
	movq	%rax, -48(%rbp)
	leaq	l___unnamed_207(%rip), %rsi
	leaq	-48(%rbp), %rcx
	movl	$7, %edx
	movq	%r14, %rdi
	movq	%rbx, %r8
	callq	__ZN4core3fmt8builders11DebugStruct5field17h6c54d35ac41bb1e6E
	movq	-128(%rbp), %rax
	movq	%rax, -48(%rbp)
	leaq	l___unnamed_208(%rip), %rsi
	leaq	-48(%rbp), %rcx
	movl	$10, %edx
	movq	%r14, %rdi
	movq	%rbx, %r8
	callq	__ZN4core3fmt8builders11DebugStruct5field17h6c54d35ac41bb1e6E
	movq	%r14, %rdi
	callq	__ZN4core3fmt8builders11DebugStruct6finish17h67ed49fd5e81bb24E
	addq	$104, %rsp
	popq	%rbx
	popq	%r12
	popq	%r13
	popq	%r14
	popq	%r15
	popq	%rbp
	retq
	.cfi_endproc

	.p2align	4, 0x90
__ZN42_$LT$$RF$T$u20$as$u20$core..fmt..Debug$GT$3fmt17h7217c62a69965fdfE:
	.cfi_startproc
	pushq	%rbp
	.cfi_def_cfa_offset 16
	.cfi_offset %rbp, -16
	movq	%rsp, %rbp
	.cfi_def_cfa_register %rbp
	pushq	%r15
	pushq	%r14
	pushq	%rbx
	subq	$24, %rsp
	.cfi_offset %rbx, -40
	.cfi_offset %r14, -32
	.cfi_offset %r15, -24
	movq	(%rdi), %rbx
	leaq	l___unnamed_209(%rip), %rdx
	leaq	-48(%rbp), %r15
	movl	$18, %ecx
	movq	%r15, %rdi
	callq	__ZN4core3fmt9Formatter12debug_struct17ha1a64e91d2a98458E
	movq	%rbx, -32(%rbp)
	addq	$4, %rbx
	leaq	l___unnamed_210(%rip), %rsi
	leaq	l___unnamed_31(%rip), %r14
	leaq	-32(%rbp), %rcx
	movl	$15, %edx
	movq	%r15, %rdi
	movq	%r14, %r8
	callq	__ZN4core3fmt8builders11DebugStruct5field17h6c54d35ac41bb1e6E
	movq	%rbx, -32(%rbp)
	leaq	L___unnamed_86(%rip), %rsi
	leaq	-32(%rbp), %rcx
	movl	$4, %edx
	movq	%r15, %rdi
	movq	%r14, %r8
	callq	__ZN4core3fmt8builders11DebugStruct5field17h6c54d35ac41bb1e6E
	movq	%r15, %rdi
	callq	__ZN4core3fmt8builders11DebugStruct6finish17h67ed49fd5e81bb24E
	addq	$24, %rsp
	popq	%rbx
	popq	%r14
	popq	%r15
	popq	%rbp
	retq
	.cfi_endproc

	.p2align	4, 0x90
__ZN42_$LT$$RF$T$u20$as$u20$core..fmt..Debug$GT$3fmt17h7230d8b2b5e4e779E:
	.cfi_startproc
	pushq	%rbp
	.cfi_def_cfa_offset 16
	.cfi_offset %rbp, -16
	movq	%rsp, %rbp
	.cfi_def_cfa_register %rbp
	pushq	%r15
	pushq	%r14
	pushq	%r13
	pushq	%r12
	pushq	%rbx
	subq	$24, %rsp
	.cfi_offset %rbx, -56
	.cfi_offset %r12, -48
	.cfi_offset %r13, -40
	.cfi_offset %r14, -32
	.cfi_offset %r15, -24
	movq	(%rdi), %rbx
	leaq	-64(%rbp), %r12
	movq	%r12, %rdi
	callq	__ZN4core3fmt9Formatter10debug_list17h113a4e31f24f00d7E
	leaq	2(%rbx), %r13
	movq	%rbx, -48(%rbp)
	leaq	l___unnamed_153(%rip), %r15
	leaq	-48(%rbp), %rsi
	movq	%r12, %rdi
	movq	%r15, %rdx
	callq	__ZN4core3fmt8builders9DebugList5entry17h2dea26f6c644471aE
	leaq	4(%rbx), %r14
	movq	%r13, -48(%rbp)
	movq	%r12, %rdi
	leaq	-48(%rbp), %rsi
	movq	%r15, %rdx
	callq	__ZN4core3fmt8builders9DebugList5entry17h2dea26f6c644471aE
	leaq	6(%rbx), %r13
	movq	%r14, -48(%rbp)
	movq	%r12, %rdi
	leaq	-48(%rbp), %rsi
	movq	%r15, %rdx
	callq	__ZN4core3fmt8builders9DebugList5entry17h2dea26f6c644471aE
	leaq	8(%rbx), %r14
	movq	%r13, -48(%rbp)
	movq	%r12, %rdi
	leaq	-48(%rbp), %rsi
	movq	%r15, %rdx
	callq	__ZN4core3fmt8builders9DebugList5entry17h2dea26f6c644471aE
	leaq	10(%rbx), %r13
	movq	%r14, -48(%rbp)
	movq	%r12, %rdi
	leaq	-48(%rbp), %rsi
	movq	%r15, %rdx
	callq	__ZN4core3fmt8builders9DebugList5entry17h2dea26f6c644471aE
	leaq	12(%rbx), %r14
	movq	%r13, -48(%rbp)
	movq	%r12, %rdi
	leaq	-48(%rbp), %rsi
	movq	%r15, %rdx
	callq	__ZN4core3fmt8builders9DebugList5entry17h2dea26f6c644471aE
	leaq	14(%rbx), %r13
	movq	%r14, -48(%rbp)
	movq	%r12, %rdi
	leaq	-48(%rbp), %rsi
	movq	%rsi, %r14
	movq	%r15, %rdx
	callq	__ZN4core3fmt8builders9DebugList5entry17h2dea26f6c644471aE
	movq	%r13, -48(%rbp)
	movq	%r12, %rdi
	movq	%r14, %rsi
	movq	%r15, %rdx
	callq	__ZN4core3fmt8builders9DebugList5entry17h2dea26f6c644471aE
	leaq	16(%rbx), %rax
	addq	$18, %rbx
	movq	%rax, -48(%rbp)
	movq	%r12, %rdi
	movq	%r14, %rsi
	movq	%r15, %rdx
	callq	__ZN4core3fmt8builders9DebugList5entry17h2dea26f6c644471aE
	movq	%rbx, -48(%rbp)
	movq	%r12, %rdi
	movq	%r14, %rsi
	movq	%r15, %rdx
	callq	__ZN4core3fmt8builders9DebugList5entry17h2dea26f6c644471aE
	movq	%r12, %rdi
	callq	__ZN4core3fmt8builders9DebugList6finish17h1537bc92ee1acb1cE
	addq	$24, %rsp
	popq	%rbx
	popq	%r12
	popq	%r13
	popq	%r14
	popq	%r15
	popq	%rbp
	retq
	.cfi_endproc

	.p2align	4, 0x90
__ZN42_$LT$$RF$T$u20$as$u20$core..fmt..Debug$GT$3fmt17h7279fb6d84292716E:
	.cfi_startproc
	pushq	%rbp
	.cfi_def_cfa_offset 16
	.cfi_offset %rbp, -16
	movq	%rsp, %rbp
	.cfi_def_cfa_register %rbp
	pushq	%r15
	pushq	%r14
	pushq	%r13
	pushq	%r12
	pushq	%rbx
	subq	$24, %rsp
	.cfi_offset %rbx, -56
	.cfi_offset %r12, -48
	.cfi_offset %r13, -40
	.cfi_offset %r14, -32
	.cfi_offset %r15, -24
	movq	(%rdi), %rbx
	leaq	l___unnamed_211(%rip), %rdx
	leaq	-64(%rbp), %r14
	movl	$7, %ecx
	movq	%r14, %rdi
	callq	__ZN4core3fmt9Formatter12debug_struct17ha1a64e91d2a98458E
	movq	%rbx, -48(%rbp)
	leaq	4(%rbx), %r15
	leaq	5(%rbx), %r12
	leaq	6(%rbx), %r13
	leaq	8(%rbx), %rbx
	leaq	l___unnamed_75(%rip), %rsi
	leaq	l___unnamed_45(%rip), %r8
	leaq	-48(%rbp), %rcx
	movl	$6, %edx
	movq	%r14, %rdi
	callq	__ZN4core3fmt8builders11DebugStruct5field17h6c54d35ac41bb1e6E
	movq	%r15, -48(%rbp)
	leaq	l___unnamed_76(%rip), %rsi
	leaq	l___unnamed_11(%rip), %r15
	leaq	-48(%rbp), %rcx
	movl	$6, %edx
	movq	%r14, %rdi
	movq	%r15, %r8
	callq	__ZN4core3fmt8builders11DebugStruct5field17h6c54d35ac41bb1e6E
	movq	%r12, -48(%rbp)
	leaq	l___unnamed_77(%rip), %rsi
	leaq	-48(%rbp), %rcx
	movl	$6, %edx
	movq	%r14, %rdi
	movq	%r15, %r8
	callq	__ZN4core3fmt8builders11DebugStruct5field17h6c54d35ac41bb1e6E
	movq	%r13, -48(%rbp)
	leaq	l___unnamed_78(%rip), %rsi
	leaq	l___unnamed_79(%rip), %r8
	leaq	-48(%rbp), %rcx
	movl	$6, %edx
	movq	%r14, %rdi
	callq	__ZN4core3fmt8builders11DebugStruct5field17h6c54d35ac41bb1e6E
	movq	%rbx, -48(%rbp)
	leaq	l___unnamed_80(%rip), %rsi
	leaq	-48(%rbp), %rcx
	movl	$7, %edx
	movq	%r14, %rdi
	leaq	l___unnamed_45(%rip), %r8
	callq	__ZN4core3fmt8builders11DebugStruct5field17h6c54d35ac41bb1e6E
	movq	%r14, %rdi
	callq	__ZN4core3fmt8builders11DebugStruct6finish17h67ed49fd5e81bb24E
	addq	$24, %rsp
	popq	%rbx
	popq	%r12
	popq	%r13
	popq	%r14
	popq	%r15
	popq	%rbp
	retq
	.cfi_endproc

	.p2align	4, 0x90
__ZN42_$LT$$RF$T$u20$as$u20$core..fmt..Debug$GT$3fmt17h72a785defa859be3E:
	.cfi_startproc
	pushq	%rbp
	.cfi_def_cfa_offset 16
	.cfi_offset %rbp, -16
	movq	%rsp, %rbp
	.cfi_def_cfa_register %rbp
	pushq	%r15
	pushq	%r14
	pushq	%r13
	pushq	%r12
	pushq	%rbx
	subq	$24, %rsp
	.cfi_offset %rbx, -56
	.cfi_offset %r12, -48
	.cfi_offset %r13, -40
	.cfi_offset %r14, -32
	.cfi_offset %r15, -24
	movq	(%rdi), %rbx
	leaq	l___unnamed_212(%rip), %rdx
	leaq	-64(%rbp), %r12
	movl	$28, %ecx
	movq	%r12, %rdi
	callq	__ZN4core3fmt9Formatter12debug_struct17ha1a64e91d2a98458E
	movq	%rbx, -48(%rbp)
	leaq	2(%rbx), %r13
	leaq	4(%rbx), %r15
	addq	$8, %rbx
	leaq	l___unnamed_50(%rip), %rsi
	leaq	l___unnamed_153(%rip), %r14
	leaq	-48(%rbp), %rcx
	movl	$5, %edx
	movq	%r12, %rdi
	movq	%r14, %r8
	callq	__ZN4core3fmt8builders11DebugStruct5field17h6c54d35ac41bb1e6E
	movq	%r13, -48(%rbp)
	leaq	l___unnamed_213(%rip), %rsi
	leaq	-48(%rbp), %rcx
	movl	$7, %edx
	movq	%r12, %rdi
	movq	%r14, %r8
	callq	__ZN4core3fmt8builders11DebugStruct5field17h6c54d35ac41bb1e6E
	movq	%r15, -48(%rbp)
	leaq	l___unnamed_214(%rip), %rsi
	leaq	l___unnamed_31(%rip), %r14
	leaq	-48(%rbp), %rcx
	movl	$14, %edx
	movq	%r12, %rdi
	movq	%r14, %r8
	callq	__ZN4core3fmt8builders11DebugStruct5field17h6c54d35ac41bb1e6E
	movq	%rbx, -48(%rbp)
	leaq	L___unnamed_51(%rip), %rsi
	leaq	-48(%rbp), %rcx
	movl	$8, %edx
	movq	%r12, %rdi
	movq	%r14, %r8
	callq	__ZN4core3fmt8builders11DebugStruct5field17h6c54d35ac41bb1e6E
	movq	%r12, %rdi
	callq	__ZN4core3fmt8builders11DebugStruct6finish17h67ed49fd5e81bb24E
	addq	$24, %rsp
	popq	%rbx
	popq	%r12
	popq	%r13
	popq	%r14
	popq	%r15
	popq	%rbp
	retq
	.cfi_endproc

	.p2align	4, 0x90
__ZN42_$LT$$RF$T$u20$as$u20$core..fmt..Debug$GT$3fmt17h7319faffa95f9bbfE:
	.cfi_startproc
	pushq	%rbp
	.cfi_def_cfa_offset 16
	.cfi_offset %rbp, -16
	movq	%rsp, %rbp
	.cfi_def_cfa_register %rbp
	pushq	%r15
	pushq	%r14
	pushq	%r13
	pushq	%r12
	pushq	%rbx
	subq	$24, %rsp
	.cfi_offset %rbx, -56
	.cfi_offset %r12, -48
	.cfi_offset %r13, -40
	.cfi_offset %r14, -32
	.cfi_offset %r15, -24
	movq	(%rdi), %rax
	movq	(%rax), %rbx
	leaq	L___unnamed_215(%rip), %rdx
	leaq	-64(%rbp), %r15
	movl	$8, %ecx
	movq	%r15, %rdi
	callq	__ZN4core3fmt9Formatter12debug_struct17ha1a64e91d2a98458E
	movq	%rbx, -48(%rbp)
	leaq	8(%rbx), %r12
	leaq	24(%rbx), %r13
	leaq	56(%rbx), %r14
	leaq	l___unnamed_22(%rip), %rsi
	leaq	l___unnamed_216(%rip), %r8
	leaq	-48(%rbp), %rcx
	movl	$6, %edx
	movq	%r15, %rdi
	callq	__ZN4core3fmt8builders11DebugStruct5field17h6c54d35ac41bb1e6E
	movq	%r12, -48(%rbp)
	leaq	L___unnamed_24(%rip), %rsi
	leaq	l___unnamed_137(%rip), %r8
	leaq	-48(%rbp), %rcx
	movl	$8, %edx
	movq	%r15, %rdi
	callq	__ZN4core3fmt8builders11DebugStruct5field17h6c54d35ac41bb1e6E
	movq	%r13, -48(%rbp)
	leaq	l___unnamed_13(%rip), %rsi
	leaq	l___unnamed_138(%rip), %r8
	leaq	-48(%rbp), %rcx
	movl	$7, %edx
	movq	%r15, %rdi
	callq	__ZN4core3fmt8builders11DebugStruct5field17h6c54d35ac41bb1e6E
	movq	%r14, -48(%rbp)
	leaq	L___unnamed_20(%rip), %rsi
	leaq	l___unnamed_21(%rip), %r8
	leaq	-48(%rbp), %rcx
	movl	$4, %edx
	movq	%r15, %rdi
	callq	__ZN4core3fmt8builders11DebugStruct5field17h6c54d35ac41bb1e6E
	movq	%r15, %rdi
	callq	__ZN4core3fmt8builders11DebugStruct6finish17h67ed49fd5e81bb24E
	addq	$24, %rsp
	popq	%rbx
	popq	%r12
	popq	%r13
	popq	%r14
	popq	%r15
	popq	%rbp
	retq
	.cfi_endproc

	.p2align	4, 0x90
__ZN42_$LT$$RF$T$u20$as$u20$core..fmt..Debug$GT$3fmt17h73ec0479032dc463E:
	.cfi_startproc
	pushq	%rbp
	.cfi_def_cfa_offset 16
	.cfi_offset %rbp, -16
	movq	%rsp, %rbp
	.cfi_def_cfa_register %rbp
	movq	(%rdi), %rdi
	popq	%rbp
	jmp	__ZN43_$LT$bool$u20$as$u20$core..fmt..Display$GT$3fmt17hd78396651a24cfbbE
	.cfi_endproc

	.p2align	4, 0x90
__ZN42_$LT$$RF$T$u20$as$u20$core..fmt..Debug$GT$3fmt17h76cf01b8d0922ee4E:
	.cfi_startproc
	pushq	%rbp
	.cfi_def_cfa_offset 16
	.cfi_offset %rbp, -16
	movq	%rsp, %rbp
	.cfi_def_cfa_register %rbp
	pushq	%r14
	pushq	%rbx
	.cfi_offset %rbx, -32
	.cfi_offset %r14, -24
	movq	%rsi, %rbx
	movq	(%rdi), %r14
	movq	%rsi, %rdi
	callq	__ZN4core3fmt9Formatter15debug_lower_hex17hd07f6fde8d0365dfE
	testb	%al, %al
	je	LBB94_1
	movq	%r14, %rdi
	movq	%rbx, %rsi
	popq	%rbx
	popq	%r14
	popq	%rbp
	jmp	__ZN4core3fmt3num52_$LT$impl$u20$core..fmt..LowerHex$u20$for$u20$u8$GT$3fmt17h35609b3cfed2e613E
LBB94_1:
	movq	%rbx, %rdi
	callq	__ZN4core3fmt9Formatter15debug_upper_hex17hf480c256a9c81c1eE
	movq	%r14, %rdi
	movq	%rbx, %rsi
	testb	%al, %al
	je	LBB94_4
	popq	%rbx
	popq	%r14
	popq	%rbp
	jmp	__ZN4core3fmt3num52_$LT$impl$u20$core..fmt..UpperHex$u20$for$u20$u8$GT$3fmt17hdec4e64a988d6129E
LBB94_4:
	popq	%rbx
	popq	%r14
	popq	%rbp
	jmp	__ZN4core3fmt3num3imp51_$LT$impl$u20$core..fmt..Display$u20$for$u20$u8$GT$3fmt17hac49effbf87f075dE
	.cfi_endproc

	.p2align	4, 0x90
__ZN42_$LT$$RF$T$u20$as$u20$core..fmt..Debug$GT$3fmt17h7f516eb378c773c5E:
	.cfi_startproc
	pushq	%rbp
	.cfi_def_cfa_offset 16
	.cfi_offset %rbp, -16
	movq	%rsp, %rbp
	.cfi_def_cfa_register %rbp
	pushq	%r14
	pushq	%rbx
	subq	$32, %rsp
	.cfi_offset %rbx, -32
	.cfi_offset %r14, -24
	movq	(%rdi), %rbx
	leaq	l___unnamed_217(%rip), %rdx
	leaq	-40(%rbp), %r14
	movl	$19, %ecx
	movq	%r14, %rdi
	callq	__ZN4core3fmt9Formatter12debug_struct17ha1a64e91d2a98458E
	movq	%rbx, -24(%rbp)
	addq	$8, %rbx
	leaq	L___unnamed_5(%rip), %rsi
	leaq	l___unnamed_6(%rip), %r8
	leaq	-24(%rbp), %rcx
	movl	$4, %edx
	movq	%r14, %rdi
	callq	__ZN4core3fmt8builders11DebugStruct5field17h6c54d35ac41bb1e6E
	movq	%rbx, -24(%rbp)
	leaq	L___unnamed_53(%rip), %rsi
	leaq	l___unnamed_129(%rip), %r8
	leaq	-24(%rbp), %rcx
	movl	$4, %edx
	movq	%r14, %rdi
	callq	__ZN4core3fmt8builders11DebugStruct5field17h6c54d35ac41bb1e6E
	movq	%r14, %rdi
	callq	__ZN4core3fmt8builders11DebugStruct6finish17h67ed49fd5e81bb24E
	addq	$32, %rsp
	popq	%rbx
	popq	%r14
	popq	%rbp
	retq
	.cfi_endproc

	.p2align	4, 0x90
__ZN42_$LT$$RF$T$u20$as$u20$core..fmt..Debug$GT$3fmt17h80161fe2a0e4afffE:
	.cfi_startproc
	pushq	%rbp
	.cfi_def_cfa_offset 16
	.cfi_offset %rbp, -16
	movq	%rsp, %rbp
	.cfi_def_cfa_register %rbp
	movq	(%rdi), %rdi
	popq	%rbp
	jmp	__ZN67_$LT$object..common..RelocationKind$u20$as$u20$core..fmt..Debug$GT$3fmt17hbab228f56347cdddE
	.cfi_endproc

	.p2align	4, 0x90
__ZN42_$LT$$RF$T$u20$as$u20$core..fmt..Debug$GT$3fmt17h81362abc93cf2e1dE:
	.cfi_startproc
	pushq	%rbp
	.cfi_def_cfa_offset 16
	.cfi_offset %rbp, -16
	movq	%rsp, %rbp
	.cfi_def_cfa_register %rbp
	pushq	%r14
	pushq	%rbx
	subq	$32, %rsp
	.cfi_offset %rbx, -32
	.cfi_offset %r14, -24
	movq	(%rdi), %rbx
	leaq	l___unnamed_160(%rip), %rdx
	leaq	-40(%rbp), %r14
	movl	$18, %ecx
	movq	%r14, %rdi
	callq	__ZN4core3fmt9Formatter12debug_struct17ha1a64e91d2a98458E
	movq	%rbx, -24(%rbp)
	addq	$8, %rbx
	leaq	L___unnamed_5(%rip), %rsi
	leaq	l___unnamed_57(%rip), %r8
	leaq	-24(%rbp), %rcx
	movl	$4, %edx
	movq	%r14, %rdi
	callq	__ZN4core3fmt8builders11DebugStruct5field17h6c54d35ac41bb1e6E
	movq	%rbx, -24(%rbp)
	leaq	L___unnamed_53(%rip), %rsi
	leaq	l___unnamed_218(%rip), %r8
	leaq	-24(%rbp), %rcx
	movl	$4, %edx
	movq	%r14, %rdi
	callq	__ZN4core3fmt8builders11DebugStruct5field17h6c54d35ac41bb1e6E
	movq	%r14, %rdi
	callq	__ZN4core3fmt8builders11DebugStruct6finish17h67ed49fd5e81bb24E
	addq	$32, %rsp
	popq	%rbx
	popq	%r14
	popq	%rbp
	retq
	.cfi_endproc

	.p2align	4, 0x90
__ZN42_$LT$$RF$T$u20$as$u20$core..fmt..Debug$GT$3fmt17h818b7256a25910caE:
	.cfi_startproc
	pushq	%rbp
	.cfi_def_cfa_offset 16
	.cfi_offset %rbp, -16
	movq	%rsp, %rbp
	.cfi_def_cfa_register %rbp
	pushq	%r14
	pushq	%rbx
	subq	$32, %rsp
	.cfi_offset %rbx, -32
	.cfi_offset %r14, -24
	movq	(%rdi), %rbx
	leaq	l___unnamed_157(%rip), %rdx
	leaq	-40(%rbp), %r14
	movl	$17, %ecx
	movq	%r14, %rdi
	callq	__ZN4core3fmt9Formatter12debug_struct17ha1a64e91d2a98458E
	movq	%rbx, -24(%rbp)
	addq	$8, %rbx
	leaq	L___unnamed_5(%rip), %rsi
	leaq	l___unnamed_164(%rip), %r8
	leaq	-24(%rbp), %rcx
	movl	$4, %edx
	movq	%r14, %rdi
	callq	__ZN4core3fmt8builders11DebugStruct5field17h6c54d35ac41bb1e6E
	movq	%rbx, -24(%rbp)
	leaq	L___unnamed_53(%rip), %rsi
	leaq	l___unnamed_118(%rip), %r8
	leaq	-24(%rbp), %rcx
	movl	$4, %edx
	movq	%r14, %rdi
	callq	__ZN4core3fmt8builders11DebugStruct5field17h6c54d35ac41bb1e6E
	movq	%r14, %rdi
	callq	__ZN4core3fmt8builders11DebugStruct6finish17h67ed49fd5e81bb24E
	addq	$32, %rsp
	popq	%rbx
	popq	%r14
	popq	%rbp
	retq
	.cfi_endproc

	.p2align	4, 0x90
__ZN42_$LT$$RF$T$u20$as$u20$core..fmt..Debug$GT$3fmt17h81c20fd9bc045b07E:
	.cfi_startproc
	pushq	%rbp
	.cfi_def_cfa_offset 16
	.cfi_offset %rbp, -16
	movq	%rsp, %rbp
	.cfi_def_cfa_register %rbp
	pushq	%r14
	pushq	%rbx
	.cfi_offset %rbx, -32
	.cfi_offset %r14, -24
	movq	%rsi, %rbx
	movq	(%rdi), %r14
	movq	%rsi, %rdi
	callq	__ZN4core3fmt9Formatter15debug_lower_hex17hd07f6fde8d0365dfE
	testb	%al, %al
	je	LBB99_1
	movq	%r14, %rdi
	movq	%rbx, %rsi
	popq	%rbx
	popq	%r14
	popq	%rbp
	jmp	__ZN4core3fmt3num53_$LT$impl$u20$core..fmt..LowerHex$u20$for$u20$u16$GT$3fmt17h7067c16dc119bdc6E
LBB99_1:
	movq	%rbx, %rdi
	callq	__ZN4core3fmt9Formatter15debug_upper_hex17hf480c256a9c81c1eE
	movq	%r14, %rdi
	movq	%rbx, %rsi
	testb	%al, %al
	je	LBB99_4
	popq	%rbx
	popq	%r14
	popq	%rbp
	jmp	__ZN4core3fmt3num53_$LT$impl$u20$core..fmt..UpperHex$u20$for$u20$u16$GT$3fmt17hb4f6c786d08c2f96E
LBB99_4:
	popq	%rbx
	popq	%r14
	popq	%rbp
	jmp	__ZN4core3fmt3num3imp52_$LT$impl$u20$core..fmt..Display$u20$for$u20$u16$GT$3fmt17h5ce1a50c193bc52eE
	.cfi_endproc

	.p2align	4, 0x90
__ZN42_$LT$$RF$T$u20$as$u20$core..fmt..Debug$GT$3fmt17h852c41f6ae1a1ad8E:
	.cfi_startproc
	pushq	%rbp
	.cfi_def_cfa_offset 16
	.cfi_offset %rbp, -16
	movq	%rsp, %rbp
	.cfi_def_cfa_register %rbp
	pushq	%r15
	pushq	%r14
	pushq	%rbx
	subq	$24, %rsp
	.cfi_offset %rbx, -40
	.cfi_offset %r14, -32
	.cfi_offset %r15, -24
	movq	(%rdi), %rax
	movq	(%rax), %rbx
	leaq	L___unnamed_219(%rip), %rdx
	leaq	-48(%rbp), %r14
	movl	$16, %ecx
	movq	%r14, %rdi
	callq	__ZN4core3fmt9Formatter12debug_struct17ha1a64e91d2a98458E
	movq	%rbx, -32(%rbp)
	leaq	4(%rbx), %r15
	addq	$24, %rbx
	leaq	l___unnamed_30(%rip), %rsi
	leaq	l___unnamed_31(%rip), %r8
	leaq	-32(%rbp), %rcx
	movl	$9, %edx
	movq	%r14, %rdi
	callq	__ZN4core3fmt8builders11DebugStruct5field17h6c54d35ac41bb1e6E
	movq	%r15, -32(%rbp)
	leaq	l___unnamed_32(%rip), %rsi
	leaq	l___unnamed_33(%rip), %r8
	leaq	-32(%rbp), %rcx
	movl	$11, %edx
	movq	%r14, %rdi
	callq	__ZN4core3fmt8builders11DebugStruct5field17h6c54d35ac41bb1e6E
	movq	%rbx, -32(%rbp)
	leaq	l___unnamed_34(%rip), %rsi
	leaq	l___unnamed_220(%rip), %r8
	leaq	-32(%rbp), %rcx
	movl	$15, %edx
	movq	%r14, %rdi
	callq	__ZN4core3fmt8builders11DebugStruct5field17h6c54d35ac41bb1e6E
	movq	%r14, %rdi
	callq	__ZN4core3fmt8builders11DebugStruct6finish17h67ed49fd5e81bb24E
	addq	$24, %rsp
	popq	%rbx
	popq	%r14
	popq	%r15
	popq	%rbp
	retq
	.cfi_endproc

	.p2align	4, 0x90
__ZN42_$LT$$RF$T$u20$as$u20$core..fmt..Debug$GT$3fmt17h86426ce64659683cE:
	.cfi_startproc
	pushq	%rbp
	.cfi_def_cfa_offset 16
	.cfi_offset %rbp, -16
	movq	%rsp, %rbp
	.cfi_def_cfa_register %rbp
	movq	(%rdi), %rdi
	popq	%rbp
	jmp	__ZN64_$LT$object..common..SymbolScope$u20$as$u20$core..fmt..Debug$GT$3fmt17hd48b32b4eba45311E
	.cfi_endproc

	.p2align	4, 0x90
__ZN42_$LT$$RF$T$u20$as$u20$core..fmt..Debug$GT$3fmt17h8728b0129c666f46E:
	.cfi_startproc
	pushq	%rbp
	.cfi_def_cfa_offset 16
	.cfi_offset %rbp, -16
	movq	%rsp, %rbp
	.cfi_def_cfa_register %rbp
	pushq	%r14
	pushq	%rbx
	subq	$32, %rsp
	.cfi_offset %rbx, -32
	.cfi_offset %r14, -24
	movq	(%rdi), %rbx
	leaq	l___unnamed_103(%rip), %rdx
	leaq	-40(%rbp), %r14
	movl	$12, %ecx
	movq	%r14, %rdi
	callq	__ZN4core3fmt9Formatter12debug_struct17ha1a64e91d2a98458E
	movq	%rbx, -24(%rbp)
	addq	$16, %rbx
	leaq	L___unnamed_24(%rip), %rsi
	leaq	l___unnamed_221(%rip), %r8
	leaq	-24(%rbp), %rcx
	movl	$8, %edx
	movq	%r14, %rdi
	callq	__ZN4core3fmt8builders11DebugStruct5field17h6c54d35ac41bb1e6E
	movq	%rbx, -24(%rbp)
	leaq	l___unnamed_15(%rip), %rsi
	leaq	l___unnamed_16(%rip), %r8
	leaq	-24(%rbp), %rcx
	movl	$7, %edx
	movq	%r14, %rdi
	callq	__ZN4core3fmt8builders11DebugStruct5field17h6c54d35ac41bb1e6E
	movq	%r14, %rdi
	callq	__ZN4core3fmt8builders11DebugStruct6finish17h67ed49fd5e81bb24E
	addq	$32, %rsp
	popq	%rbx
	popq	%r14
	popq	%rbp
	retq
	.cfi_endproc

	.p2align	4, 0x90
__ZN42_$LT$$RF$T$u20$as$u20$core..fmt..Debug$GT$3fmt17h877b4b817eec2e4cE:
	.cfi_startproc
	pushq	%rbp
	.cfi_def_cfa_offset 16
	.cfi_offset %rbp, -16
	movq	%rsp, %rbp
	.cfi_def_cfa_register %rbp
	pushq	%r14
	pushq	%rbx
	subq	$48, %rsp
	.cfi_offset %rbx, -32
	.cfi_offset %r14, -24
	movq	(%rdi), %rbx
	leaq	L___unnamed_165(%rip), %rdx
	leaq	-56(%rbp), %r14
	movl	$4, %ecx
	movq	%r14, %rdi
	callq	__ZN4core3fmt9Formatter11debug_tuple17h6c448643801d07e8E
	movq	(%rbx), %rax
	movq	8(%rbx), %rcx
	subq	%rax, %rcx
	shrq	$5, %rcx
	movq	%rax, -32(%rbp)
	movq	%rcx, -24(%rbp)
	leaq	l___unnamed_222(%rip), %rdx
	leaq	-32(%rbp), %rsi
	movq	%r14, %rdi
	callq	__ZN4core3fmt8builders10DebugTuple5field17hc7b676d0e36b51d9E
	movq	%rax, %rdi
	callq	__ZN4core3fmt8builders10DebugTuple6finish17h9f206806f7096c33E
	addq	$48, %rsp
	popq	%rbx
	popq	%r14
	popq	%rbp
	retq
	.cfi_endproc

	.p2align	4, 0x90
__ZN42_$LT$$RF$T$u20$as$u20$core..fmt..Debug$GT$3fmt17h8957cdf4dd465daeE:
	.cfi_startproc
	pushq	%rbp
	.cfi_def_cfa_offset 16
	.cfi_offset %rbp, -16
	movq	%rsp, %rbp
	.cfi_def_cfa_register %rbp
	movq	(%rdi), %rdi
	popq	%rbp
	jmp	__ZN70_$LT$object..pe..ImageOptionalHeader64$u20$as$u20$core..fmt..Debug$GT$3fmt17h29df0aeb66b9f40cE
	.cfi_endproc

	.p2align	4, 0x90
__ZN42_$LT$$RF$T$u20$as$u20$core..fmt..Debug$GT$3fmt17h8c591ddcc5989a6cE:
	.cfi_startproc
	pushq	%rbp
	.cfi_def_cfa_offset 16
	.cfi_offset %rbp, -16
	movq	%rsp, %rbp
	.cfi_def_cfa_register %rbp
	pushq	%r15
	pushq	%r14
	pushq	%r13
	pushq	%r12
	pushq	%rbx
	subq	$24, %rsp
	.cfi_offset %rbx, -56
	.cfi_offset %r12, -48
	.cfi_offset %r13, -40
	.cfi_offset %r14, -32
	.cfi_offset %r15, -24
	movq	(%rdi), %rbx
	leaq	L___unnamed_215(%rip), %rdx
	leaq	-64(%rbp), %r15
	movl	$8, %ecx
	movq	%r15, %rdi
	callq	__ZN4core3fmt9Formatter12debug_struct17ha1a64e91d2a98458E
	movq	%rbx, -48(%rbp)
	leaq	8(%rbx), %r12
	leaq	24(%rbx), %r13
	leaq	56(%rbx), %r14
	leaq	l___unnamed_22(%rip), %rsi
	leaq	l___unnamed_216(%rip), %r8
	leaq	-48(%rbp), %rcx
	movl	$6, %edx
	movq	%r15, %rdi
	callq	__ZN4core3fmt8builders11DebugStruct5field17h6c54d35ac41bb1e6E
	movq	%r12, -48(%rbp)
	leaq	L___unnamed_24(%rip), %rsi
	leaq	l___unnamed_137(%rip), %r8
	leaq	-48(%rbp), %rcx
	movl	$8, %edx
	movq	%r15, %rdi
	callq	__ZN4core3fmt8builders11DebugStruct5field17h6c54d35ac41bb1e6E
	movq	%r13, -48(%rbp)
	leaq	l___unnamed_13(%rip), %rsi
	leaq	l___unnamed_138(%rip), %r8
	leaq	-48(%rbp), %rcx
	movl	$7, %edx
	movq	%r15, %rdi
	callq	__ZN4core3fmt8builders11DebugStruct5field17h6c54d35ac41bb1e6E
	movq	%r14, -48(%rbp)
	leaq	L___unnamed_20(%rip), %rsi
	leaq	l___unnamed_21(%rip), %r8
	leaq	-48(%rbp), %rcx
	movl	$4, %edx
	movq	%r15, %rdi
	callq	__ZN4core3fmt8builders11DebugStruct5field17h6c54d35ac41bb1e6E
	movq	%r15, %rdi
	callq	__ZN4core3fmt8builders11DebugStruct6finish17h67ed49fd5e81bb24E
	addq	$24, %rsp
	popq	%rbx
	popq	%r12
	popq	%r13
	popq	%r14
	popq	%r15
	popq	%rbp
	retq
	.cfi_endproc

	.p2align	4, 0x90
__ZN42_$LT$$RF$T$u20$as$u20$core..fmt..Debug$GT$3fmt17h900ed11d5cf9572aE:
	.cfi_startproc
	pushq	%rbp
	.cfi_def_cfa_offset 16
	.cfi_offset %rbp, -16
	movq	%rsp, %rbp
	.cfi_def_cfa_register %rbp
	pushq	%r14
	pushq	%rbx
	subq	$32, %rsp
	.cfi_offset %rbx, -32
	.cfi_offset %r14, -24
	movq	(%rdi), %rbx
	leaq	l___unnamed_56(%rip), %rdx
	leaq	-40(%rbp), %r14
	movl	$10, %ecx
	movq	%r14, %rdi
	callq	__ZN4core3fmt9Formatter12debug_struct17ha1a64e91d2a98458E
	movq	%rbx, -24(%rbp)
	addq	$8, %rbx
	leaq	L___unnamed_5(%rip), %rsi
	leaq	l___unnamed_161(%rip), %r8
	leaq	-24(%rbp), %rcx
	movl	$4, %edx
	movq	%r14, %rdi
	callq	__ZN4core3fmt8builders11DebugStruct5field17h6c54d35ac41bb1e6E
	movq	%rbx, -24(%rbp)
	leaq	l___unnamed_58(%rip), %rsi
	leaq	l___unnamed_223(%rip), %r8
	leaq	-24(%rbp), %rcx
	movl	$7, %edx
	movq	%r14, %rdi
	callq	__ZN4core3fmt8builders11DebugStruct5field17h6c54d35ac41bb1e6E
	movq	%r14, %rdi
	callq	__ZN4core3fmt8builders11DebugStruct6finish17h67ed49fd5e81bb24E
	addq	$32, %rsp
	popq	%rbx
	popq	%r14
	popq	%rbp
	retq
	.cfi_endproc

	.p2align	4, 0x90
__ZN42_$LT$$RF$T$u20$as$u20$core..fmt..Debug$GT$3fmt17h91b0bf6a04e06815E:
	.cfi_startproc
	pushq	%rbp
	.cfi_def_cfa_offset 16
	.cfi_offset %rbp, -16
	movq	%rsp, %rbp
	.cfi_def_cfa_register %rbp
	movq	(%rdi), %rdi
	popq	%rbp
	jmp	__ZN79_$LT$object..read..any..SectionIteratorInternal$u20$as$u20$core..fmt..Debug$GT$3fmt17hac8f34f01e94c7f2E
	.cfi_endproc

	.p2align	4, 0x90
__ZN42_$LT$$RF$T$u20$as$u20$core..fmt..Debug$GT$3fmt17h924499289c7cab61E:
	.cfi_startproc
	pushq	%rbp
	.cfi_def_cfa_offset 16
	.cfi_offset %rbp, -16
	movq	%rsp, %rbp
	.cfi_def_cfa_register %rbp
	pushq	%r15
	pushq	%r14
	pushq	%r12
	pushq	%rbx
	subq	$32, %rsp
	.cfi_offset %rbx, -48
	.cfi_offset %r12, -40
	.cfi_offset %r14, -32
	.cfi_offset %r15, -24
	movq	(%rdi), %rbx
	leaq	-56(%rbp), %r12
	movq	%r12, %rdi
	callq	__ZN4core3fmt9Formatter10debug_list17h113a4e31f24f00d7E
	movq	%rbx, -40(%rbp)
	addq	$4, %rbx
	leaq	l___unnamed_31(%rip), %r14
	leaq	-40(%rbp), %r15
	movq	%r12, %rdi
	movq	%r15, %rsi
	movq	%r14, %rdx
	callq	__ZN4core3fmt8builders9DebugList5entry17h2dea26f6c644471aE
	movq	%rbx, -40(%rbp)
	movq	%r12, %rdi
	movq	%r15, %rsi
	movq	%r14, %rdx
	callq	__ZN4core3fmt8builders9DebugList5entry17h2dea26f6c644471aE
	movq	%r12, %rdi
	callq	__ZN4core3fmt8builders9DebugList6finish17h1537bc92ee1acb1cE
	addq	$32, %rsp
	popq	%rbx
	popq	%r12
	popq	%r14
	popq	%r15
	popq	%rbp
	retq
	.cfi_endproc

	.p2align	4, 0x90
__ZN42_$LT$$RF$T$u20$as$u20$core..fmt..Debug$GT$3fmt17h96feb97cacc1aad1E:
	.cfi_startproc
	pushq	%rbp
	.cfi_def_cfa_offset 16
	.cfi_offset %rbp, -16
	movq	%rsp, %rbp
	.cfi_def_cfa_register %rbp
	pushq	%r14
	pushq	%rbx
	.cfi_offset %rbx, -32
	.cfi_offset %r14, -24
	movq	%rsi, %rbx
	movq	(%rdi), %r14
	movq	%rsi, %rdi
	callq	__ZN4core3fmt9Formatter15debug_lower_hex17hd07f6fde8d0365dfE
	testb	%al, %al
	je	LBB109_1
	movq	%r14, %rdi
	movq	%rbx, %rsi
	popq	%rbx
	popq	%r14
	popq	%rbp
	jmp	__ZN4core3fmt3num53_$LT$impl$u20$core..fmt..LowerHex$u20$for$u20$u64$GT$3fmt17hb1b2554e6a6ce90cE
LBB109_1:
	movq	%rbx, %rdi
	callq	__ZN4core3fmt9Formatter15debug_upper_hex17hf480c256a9c81c1eE
	movq	%r14, %rdi
	movq	%rbx, %rsi
	testb	%al, %al
	je	LBB109_4
	popq	%rbx
	popq	%r14
	popq	%rbp
	jmp	__ZN4core3fmt3num53_$LT$impl$u20$core..fmt..UpperHex$u20$for$u20$u64$GT$3fmt17h67a4ddf8c7fd5f2bE
LBB109_4:
	popq	%rbx
	popq	%r14
	popq	%rbp
	jmp	__ZN4core3fmt3num3imp52_$LT$impl$u20$core..fmt..Display$u20$for$u20$u64$GT$3fmt17h3230c9bc78e30ed1E
	.cfi_endproc

	.p2align	4, 0x90
__ZN42_$LT$$RF$T$u20$as$u20$core..fmt..Debug$GT$3fmt17h987f70ebd73c9bc4E:
	.cfi_startproc
	pushq	%rbp
	.cfi_def_cfa_offset 16
	.cfi_offset %rbp, -16
	movq	%rsp, %rbp
	.cfi_def_cfa_register %rbp
	pushq	%r14
	pushq	%rbx
	subq	$32, %rsp
	.cfi_offset %rbx, -32
	.cfi_offset %r14, -24
	movq	(%rdi), %rbx
	leaq	l___unnamed_224(%rip), %rdx
	leaq	-40(%rbp), %r14
	movl	$18, %ecx
	movq	%r14, %rdi
	callq	__ZN4core3fmt9Formatter12debug_struct17ha1a64e91d2a98458E
	movq	%rbx, -24(%rbp)
	addq	$8, %rbx
	leaq	L___unnamed_5(%rip), %rsi
	leaq	l___unnamed_57(%rip), %r8
	leaq	-24(%rbp), %rcx
	movl	$4, %edx
	movq	%r14, %rdi
	callq	__ZN4core3fmt8builders11DebugStruct5field17h6c54d35ac41bb1e6E
	movq	%rbx, -24(%rbp)
	leaq	L___unnamed_53(%rip), %rsi
	leaq	l___unnamed_225(%rip), %r8
	leaq	-24(%rbp), %rcx
	movl	$4, %edx
	movq	%r14, %rdi
	callq	__ZN4core3fmt8builders11DebugStruct5field17h6c54d35ac41bb1e6E
	movq	%r14, %rdi
	callq	__ZN4core3fmt8builders11DebugStruct6finish17h67ed49fd5e81bb24E
	addq	$32, %rsp
	popq	%rbx
	popq	%r14
	popq	%rbp
	retq
	.cfi_endproc

	.p2align	4, 0x90
__ZN42_$LT$$RF$T$u20$as$u20$core..fmt..Debug$GT$3fmt17h9af639740040dd67E:
	.cfi_startproc
	pushq	%rbp
	.cfi_def_cfa_offset 16
	.cfi_offset %rbp, -16
	movq	%rsp, %rbp
	.cfi_def_cfa_register %rbp
	pushq	%r14
	pushq	%rbx
	.cfi_offset %rbx, -32
	.cfi_offset %r14, -24
	movq	%rsi, %rbx
	movq	(%rdi), %r14
	movq	%rsi, %rdi
	callq	__ZN4core3fmt9Formatter15debug_lower_hex17hd07f6fde8d0365dfE
	testb	%al, %al
	je	LBB111_1
	movq	%r14, %rdi
	movq	%rbx, %rsi
	popq	%rbx
	popq	%r14
	popq	%rbp
	jmp	__ZN4core3fmt3num53_$LT$impl$u20$core..fmt..LowerHex$u20$for$u20$i64$GT$3fmt17h4ef40751c6de7de0E
LBB111_1:
	movq	%rbx, %rdi
	callq	__ZN4core3fmt9Formatter15debug_upper_hex17hf480c256a9c81c1eE
	movq	%r14, %rdi
	movq	%rbx, %rsi
	testb	%al, %al
	je	LBB111_4
	popq	%rbx
	popq	%r14
	popq	%rbp
	jmp	__ZN4core3fmt3num53_$LT$impl$u20$core..fmt..UpperHex$u20$for$u20$i64$GT$3fmt17h98e190490afbae54E
LBB111_4:
	popq	%rbx
	popq	%r14
	popq	%rbp
	jmp	__ZN4core3fmt3num3imp52_$LT$impl$u20$core..fmt..Display$u20$for$u20$i64$GT$3fmt17h310ed6661e8c983fE
	.cfi_endproc

	.p2align	4, 0x90
__ZN42_$LT$$RF$T$u20$as$u20$core..fmt..Debug$GT$3fmt17h9af9d43ec286e18aE:
	.cfi_startproc
	pushq	%rbp
	.cfi_def_cfa_offset 16
	.cfi_offset %rbp, -16
	movq	%rsp, %rbp
	.cfi_def_cfa_register %rbp
	movq	(%rdi), %rdi
	popq	%rbp
	jmp	__ZN42_$LT$$RF$T$u20$as$u20$core..fmt..Debug$GT$3fmt17h5fd86c6e01843688E
	.cfi_endproc

	.p2align	4, 0x90
__ZN42_$LT$$RF$T$u20$as$u20$core..fmt..Debug$GT$3fmt17h9b320f7b8e8441a4E:
	.cfi_startproc
	pushq	%rbp
	.cfi_def_cfa_offset 16
	.cfi_offset %rbp, -16
	movq	%rsp, %rbp
	.cfi_def_cfa_register %rbp
	pushq	%r14
	pushq	%rbx
	subq	$48, %rsp
	.cfi_offset %rbx, -32
	.cfi_offset %r14, -24
	movq	(%rdi), %rbx
	leaq	L___unnamed_165(%rip), %rdx
	leaq	-56(%rbp), %r14
	movl	$4, %ecx
	movq	%r14, %rdi
	callq	__ZN4core3fmt9Formatter11debug_tuple17h6c448643801d07e8E
	movq	(%rbx), %rcx
	movq	8(%rbx), %rax
	subq	%rcx, %rax
	movabsq	$-3689348814741910323, %rdx
	mulq	%rdx
	shrq	$5, %rdx
	movq	%rcx, -32(%rbp)
	movq	%rdx, -24(%rbp)
	leaq	l___unnamed_226(%rip), %rdx
	leaq	-32(%rbp), %rsi
	movq	%r14, %rdi
	callq	__ZN4core3fmt8builders10DebugTuple5field17hc7b676d0e36b51d9E
	movq	%rax, %rdi
	callq	__ZN4core3fmt8builders10DebugTuple6finish17h9f206806f7096c33E
	addq	$48, %rsp
	popq	%rbx
	popq	%r14
	popq	%rbp
	retq
	.cfi_endproc

	.p2align	4, 0x90
__ZN42_$LT$$RF$T$u20$as$u20$core..fmt..Debug$GT$3fmt17h9bdcf8c6b16fbdc3E:
	.cfi_startproc
	pushq	%rbp
	.cfi_def_cfa_offset 16
	.cfi_offset %rbp, -16
	movq	%rsp, %rbp
	.cfi_def_cfa_register %rbp
	pushq	%r14
	pushq	%rbx
	subq	$32, %rsp
	.cfi_offset %rbx, -32
	.cfi_offset %r14, -24
	movq	(%rdi), %rbx
	leaq	l___unnamed_227(%rip), %rdx
	leaq	-40(%rbp), %r14
	movl	$20, %ecx
	movq	%r14, %rdi
	callq	__ZN4core3fmt9Formatter12debug_struct17ha1a64e91d2a98458E
	movq	%rbx, -24(%rbp)
	addq	$8, %rbx
	leaq	L___unnamed_5(%rip), %rsi
	leaq	l___unnamed_185(%rip), %r8
	leaq	-24(%rbp), %rcx
	movl	$4, %edx
	movq	%r14, %rdi
	callq	__ZN4core3fmt8builders11DebugStruct5field17h6c54d35ac41bb1e6E
	movq	%rbx, -24(%rbp)
	leaq	L___unnamed_228(%rip), %rsi
	leaq	l___unnamed_229(%rip), %r8
	leaq	-24(%rbp), %rcx
	movl	$8, %edx
	movq	%r14, %rdi
	callq	__ZN4core3fmt8builders11DebugStruct5field17h6c54d35ac41bb1e6E
	movq	%r14, %rdi
	callq	__ZN4core3fmt8builders11DebugStruct6finish17h67ed49fd5e81bb24E
	addq	$32, %rsp
	popq	%rbx
	popq	%r14
	popq	%rbp
	retq
	.cfi_endproc

	.p2align	4, 0x90
__ZN42_$LT$$RF$T$u20$as$u20$core..fmt..Debug$GT$3fmt17h9cf3a03d2df3ff6eE:
	.cfi_startproc
	pushq	%rbp
	.cfi_def_cfa_offset 16
	.cfi_offset %rbp, -16
	movq	%rsp, %rbp
	.cfi_def_cfa_register %rbp
	pushq	%r15
	pushq	%r14
	pushq	%r13
	pushq	%r12
	pushq	%rbx
	subq	$40, %rsp
	.cfi_offset %rbx, -56
	.cfi_offset %r12, -48
	.cfi_offset %r13, -40
	.cfi_offset %r14, -32
	.cfi_offset %r15, -24
	movq	(%rdi), %rbx
	leaq	l___unnamed_230(%rip), %rdx
	leaq	-80(%rbp), %r15
	movl	$5, %ecx
	movq	%r15, %rdi
	callq	__ZN4core3fmt9Formatter12debug_struct17ha1a64e91d2a98458E
	movq	%rbx, -48(%rbp)
	leaq	4(%rbx), %r12
	leaq	8(%rbx), %r13
	leaq	12(%rbx), %rax
	movq	%rax, -56(%rbp)
	leaq	13(%rbx), %rax
	movq	%rax, -64(%rbp)
	leaq	14(%rbx), %rbx
	leaq	l___unnamed_231(%rip), %rsi
	leaq	l___unnamed_45(%rip), %r14
	leaq	-48(%rbp), %rcx
	movl	$7, %edx
	movq	%r15, %rdi
	movq	%r14, %r8
	callq	__ZN4core3fmt8builders11DebugStruct5field17h6c54d35ac41bb1e6E
	movq	%r12, -48(%rbp)
	leaq	L___unnamed_232(%rip), %rsi
	leaq	-48(%rbp), %rcx
	movl	$8, %edx
	movq	%r15, %rdi
	movq	%r14, %r8
	callq	__ZN4core3fmt8builders11DebugStruct5field17h6c54d35ac41bb1e6E
	movq	%r13, -48(%rbp)
	leaq	l___unnamed_233(%rip), %rsi
	leaq	-48(%rbp), %rcx
	movl	$7, %edx
	movq	%r15, %rdi
	movq	%r14, %r8
	callq	__ZN4core3fmt8builders11DebugStruct5field17h6c54d35ac41bb1e6E
	movq	-56(%rbp), %rax
	movq	%rax, -48(%rbp)
	leaq	l___unnamed_234(%rip), %rsi
	leaq	l___unnamed_11(%rip), %r14
	leaq	-48(%rbp), %rcx
	movl	$7, %edx
	movq	%r15, %rdi
	movq	%r14, %r8
	callq	__ZN4core3fmt8builders11DebugStruct5field17h6c54d35ac41bb1e6E
	movq	-64(%rbp), %rax
	movq	%rax, -48(%rbp)
	leaq	L___unnamed_235(%rip), %rsi
	leaq	-48(%rbp), %rcx
	movl	$8, %edx
	movq	%r15, %rdi
	movq	%r14, %r8
	callq	__ZN4core3fmt8builders11DebugStruct5field17h6c54d35ac41bb1e6E
	movq	%rbx, -48(%rbp)
	leaq	L___unnamed_236(%rip), %rsi
	leaq	l___unnamed_79(%rip), %r8
	leaq	-48(%rbp), %rcx
	movl	$8, %edx
	movq	%r15, %rdi
	callq	__ZN4core3fmt8builders11DebugStruct5field17h6c54d35ac41bb1e6E
	movq	%r15, %rdi
	callq	__ZN4core3fmt8builders11DebugStruct6finish17h67ed49fd5e81bb24E
	addq	$40, %rsp
	popq	%rbx
	popq	%r12
	popq	%r13
	popq	%r14
	popq	%r15
	popq	%rbp
	retq
	.cfi_endproc

	.p2align	4, 0x90
__ZN42_$LT$$RF$T$u20$as$u20$core..fmt..Debug$GT$3fmt17h9da8bd2383ac07ecE:
	.cfi_startproc
	pushq	%rbp
	.cfi_def_cfa_offset 16
	.cfi_offset %rbp, -16
	movq	%rsp, %rbp
	.cfi_def_cfa_register %rbp
	pushq	%r14
	pushq	%rbx
	.cfi_offset %rbx, -32
	.cfi_offset %r14, -24
	movq	%rsi, %rbx
	movq	(%rdi), %r14
	movq	%rsi, %rdi
	callq	__ZN4core3fmt9Formatter15debug_lower_hex17hd07f6fde8d0365dfE
	testb	%al, %al
	je	LBB116_1
	movq	%r14, %rdi
	movq	%rbx, %rsi
	popq	%rbx
	popq	%r14
	popq	%rbp
	jmp	__ZN4core3fmt3num53_$LT$impl$u20$core..fmt..LowerHex$u20$for$u20$u32$GT$3fmt17h019ba2b9dd60d385E
LBB116_1:
	movq	%rbx, %rdi
	callq	__ZN4core3fmt9Formatter15debug_upper_hex17hf480c256a9c81c1eE
	movq	%r14, %rdi
	movq	%rbx, %rsi
	testb	%al, %al
	je	LBB116_4
	popq	%rbx
	popq	%r14
	popq	%rbp
	jmp	__ZN4core3fmt3num53_$LT$impl$u20$core..fmt..UpperHex$u20$for$u20$u32$GT$3fmt17h7bd10b5f3c9584f1E
LBB116_4:
	popq	%rbx
	popq	%r14
	popq	%rbp
	jmp	__ZN4core3fmt3num3imp52_$LT$impl$u20$core..fmt..Display$u20$for$u20$u32$GT$3fmt17hb70882cf65fd1a66E
	.cfi_endproc

	.p2align	4, 0x90
__ZN42_$LT$$RF$T$u20$as$u20$core..fmt..Debug$GT$3fmt17ha19c422154e256e0E:
	.cfi_startproc
	pushq	%rbp
	.cfi_def_cfa_offset 16
	.cfi_offset %rbp, -16
	movq	%rsp, %rbp
	.cfi_def_cfa_register %rbp
	pushq	%r15
	pushq	%r14
	pushq	%r12
	pushq	%rbx
	subq	$32, %rsp
	.cfi_offset %rbx, -48
	.cfi_offset %r12, -40
	.cfi_offset %r14, -32
	.cfi_offset %r15, -24
	movq	(%rdi), %rbx
	leaq	-56(%rbp), %r12
	movq	%r12, %rdi
	callq	__ZN4core3fmt9Formatter10debug_list17h113a4e31f24f00d7E
	movq	%rbx, -40(%rbp)
	leaq	l___unnamed_11(%rip), %r14
	leaq	-40(%rbp), %r15
	movq	%r12, %rdi
	movq	%r15, %rsi
	movq	%r14, %rdx
	callq	__ZN4core3fmt8builders9DebugList5entry17h2dea26f6c644471aE
	leaq	1(%rbx), %rax
	addq	$2, %rbx
	movq	%rax, -40(%rbp)
	movq	%r12, %rdi
	movq	%r15, %rsi
	movq	%r14, %rdx
	callq	__ZN4core3fmt8builders9DebugList5entry17h2dea26f6c644471aE
	movq	%rbx, -40(%rbp)
	movq	%r12, %rdi
	movq	%r15, %rsi
	movq	%r14, %rdx
	callq	__ZN4core3fmt8builders9DebugList5entry17h2dea26f6c644471aE
	movq	%r12, %rdi
	callq	__ZN4core3fmt8builders9DebugList6finish17h1537bc92ee1acb1cE
	addq	$32, %rsp
	popq	%rbx
	popq	%r12
	popq	%r14
	popq	%r15
	popq	%rbp
	retq
	.cfi_endproc

	.p2align	4, 0x90
__ZN42_$LT$$RF$T$u20$as$u20$core..fmt..Debug$GT$3fmt17ha1b63ea7bf7a4635E:
	.cfi_startproc
	pushq	%rbp
	.cfi_def_cfa_offset 16
	.cfi_offset %rbp, -16
	movq	%rsp, %rbp
	.cfi_def_cfa_register %rbp
	pushq	%r15
	pushq	%r14
	pushq	%r13
	pushq	%r12
	pushq	%rbx
	subq	$24, %rsp
	.cfi_offset %rbx, -56
	.cfi_offset %r12, -48
	.cfi_offset %r13, -40
	.cfi_offset %r14, -32
	.cfi_offset %r15, -24
	movq	(%rdi), %rax
	movq	(%rax), %r13
	movq	8(%rax), %rbx
	leaq	-64(%rbp), %rdi
	callq	__ZN4core3fmt9Formatter10debug_list17h113a4e31f24f00d7E
	testq	%rbx, %rbx
	je	LBB118_3
	shlq	$2, %rbx
	leaq	(%rbx,%rbx,2), %rbx
	leaq	l___unnamed_237(%rip), %r14
	leaq	-64(%rbp), %r15
	leaq	-48(%rbp), %r12
	.p2align	4, 0x90
LBB118_2:
	movq	%r13, -48(%rbp)
	addq	$12, %r13
	movq	%r15, %rdi
	movq	%r12, %rsi
	movq	%r14, %rdx
	callq	__ZN4core3fmt8builders9DebugList5entry17h2dea26f6c644471aE
	addq	$-12, %rbx
	jne	LBB118_2
LBB118_3:
	leaq	-64(%rbp), %rdi
	callq	__ZN4core3fmt8builders9DebugList6finish17h1537bc92ee1acb1cE
	addq	$24, %rsp
	popq	%rbx
	popq	%r12
	popq	%r13
	popq	%r14
	popq	%r15
	popq	%rbp
	retq
	.cfi_endproc

	.p2align	4, 0x90
__ZN42_$LT$$RF$T$u20$as$u20$core..fmt..Debug$GT$3fmt17ha2c539589fe648ffE:
	.cfi_startproc
	pushq	%rbp
	.cfi_def_cfa_offset 16
	.cfi_offset %rbp, -16
	movq	%rsp, %rbp
	.cfi_def_cfa_register %rbp
	pushq	%r15
	pushq	%r14
	pushq	%r13
	pushq	%r12
	pushq	%rbx
	subq	$24, %rsp
	.cfi_offset %rbx, -56
	.cfi_offset %r12, -48
	.cfi_offset %r13, -40
	.cfi_offset %r14, -32
	.cfi_offset %r15, -24
	movq	(%rdi), %rax
	movq	(%rax), %rbx
	movq	8(%rax), %r13
	leaq	-64(%rbp), %rdi
	callq	__ZN4core3fmt9Formatter10debug_list17h113a4e31f24f00d7E
	testq	%r13, %r13
	je	LBB119_3
	shlq	$5, %r13
	leaq	l___unnamed_119(%rip), %r14
	leaq	-64(%rbp), %r15
	leaq	-48(%rbp), %r12
	.p2align	4, 0x90
LBB119_2:
	movq	%rbx, -48(%rbp)
	addq	$32, %rbx
	movq	%r15, %rdi
	movq	%r12, %rsi
	movq	%r14, %rdx
	callq	__ZN4core3fmt8builders9DebugList5entry17h2dea26f6c644471aE
	addq	$-32, %r13
	jne	LBB119_2
LBB119_3:
	leaq	-64(%rbp), %rdi
	callq	__ZN4core3fmt8builders9DebugList6finish17h1537bc92ee1acb1cE
	addq	$24, %rsp
	popq	%rbx
	popq	%r12
	popq	%r13
	popq	%r14
	popq	%r15
	popq	%rbp
	retq
	.cfi_endproc

	.p2align	4, 0x90
__ZN42_$LT$$RF$T$u20$as$u20$core..fmt..Debug$GT$3fmt17ha5207c96e3c1c2efE:
	.cfi_startproc
	pushq	%rbp
	.cfi_def_cfa_offset 16
	.cfi_offset %rbp, -16
	movq	%rsp, %rbp
	.cfi_def_cfa_register %rbp
	pushq	%r15
	pushq	%r14
	pushq	%r13
	pushq	%r12
	pushq	%rbx
	subq	$88, %rsp
	.cfi_offset %rbx, -56
	.cfi_offset %r12, -48
	.cfi_offset %r13, -40
	.cfi_offset %r14, -32
	.cfi_offset %r15, -24
	movq	(%rdi), %rax
	movq	(%rax), %rbx
	leaq	L___unnamed_238(%rip), %rdx
	leaq	-120(%rbp), %r13
	movl	$16, %ecx
	movq	%r13, %rdi
	callq	__ZN4core3fmt9Formatter12debug_struct17ha1a64e91d2a98458E
	movq	%rbx, -48(%rbp)
	leaq	4(%rbx), %r14
	leaq	8(%rbx), %r12
	leaq	24(%rbx), %r15
	leaq	32(%rbx), %rax
	movq	%rax, -56(%rbp)
	leaq	40(%rbx), %rax
	movq	%rax, -64(%rbp)
	leaq	48(%rbx), %rax
	movq	%rax, -72(%rbp)
	leaq	56(%rbx), %rax
	movq	%rax, -80(%rbp)
	leaq	60(%rbx), %rax
	movq	%rax, -88(%rbp)
	leaq	64(%rbx), %rax
	movq	%rax, -96(%rbp)
	leaq	68(%rbx), %rax
	movq	%rax, -104(%rbp)
	leaq	l___unnamed_109(%rip), %rsi
	leaq	l___unnamed_45(%rip), %rbx
	leaq	-48(%rbp), %rcx
	movl	$3, %edx
	movq	%r13, %rdi
	movq	%rbx, %r8
	callq	__ZN4core3fmt8builders11DebugStruct5field17h6c54d35ac41bb1e6E
	movq	%r14, -48(%rbp)
	leaq	l___unnamed_110(%rip), %rsi
	leaq	-48(%rbp), %rcx
	movl	$7, %edx
	movq	%r13, %rdi
	movq	%rbx, %r8
	callq	__ZN4core3fmt8builders11DebugStruct5field17h6c54d35ac41bb1e6E
	movq	%r12, -48(%rbp)
	leaq	l___unnamed_84(%rip), %rsi
	leaq	l___unnamed_83(%rip), %r8
	leaq	-48(%rbp), %rcx
	movl	$7, %edx
	movq	%r13, %rdi
	callq	__ZN4core3fmt8builders11DebugStruct5field17h6c54d35ac41bb1e6E
	movq	%r15, -48(%rbp)
	leaq	l___unnamed_111(%rip), %rsi
	leaq	l___unnamed_68(%rip), %r15
	leaq	-48(%rbp), %rcx
	movl	$6, %edx
	movq	%r13, %rdi
	movq	%r15, %r8
	callq	__ZN4core3fmt8builders11DebugStruct5field17h6c54d35ac41bb1e6E
	movq	-56(%rbp), %rax
	movq	%rax, -48(%rbp)
	leaq	l___unnamed_112(%rip), %rsi
	leaq	-48(%rbp), %rcx
	movl	$6, %edx
	movq	%r13, %rdi
	movq	%r15, %r8
	callq	__ZN4core3fmt8builders11DebugStruct5field17h6c54d35ac41bb1e6E
	movq	-64(%rbp), %rax
	movq	%rax, -48(%rbp)
	leaq	l___unnamed_113(%rip), %rsi
	leaq	-48(%rbp), %rcx
	movl	$7, %edx
	movq	%r13, %rdi
	movq	%r15, %r8
	callq	__ZN4core3fmt8builders11DebugStruct5field17h6c54d35ac41bb1e6E
	movq	-72(%rbp), %rax
	movq	%rax, -48(%rbp)
	leaq	L___unnamed_114(%rip), %rsi
	leaq	-48(%rbp), %rcx
	movl	$8, %edx
	movq	%r13, %rdi
	movq	%r15, %r8
	callq	__ZN4core3fmt8builders11DebugStruct5field17h6c54d35ac41bb1e6E
	movq	-80(%rbp), %rax
	movq	%rax, -48(%rbp)
	leaq	l___unnamed_115(%rip), %rsi
	leaq	-48(%rbp), %rcx
	movl	$7, %edx
	movq	%r13, %rdi
	movq	%rbx, %r8
	callq	__ZN4core3fmt8builders11DebugStruct5field17h6c54d35ac41bb1e6E
	movq	-88(%rbp), %rax
	movq	%rax, -48(%rbp)
	leaq	L___unnamed_116(%rip), %rsi
	leaq	-48(%rbp), %rcx
	movl	$8, %edx
	movq	%r13, %rdi
	movq	%rbx, %r8
	callq	__ZN4core3fmt8builders11DebugStruct5field17h6c54d35ac41bb1e6E
	movq	-96(%rbp), %rax
	movq	%rax, -48(%rbp)
	leaq	l___unnamed_117(%rip), %rsi
	leaq	-48(%rbp), %rcx
	movl	$6, %edx
	movq	%r13, %rdi
	movq	%rbx, %r8
	callq	__ZN4core3fmt8builders11DebugStruct5field17h6c54d35ac41bb1e6E
	movq	-104(%rbp), %rax
	movq	%rax, -48(%rbp)
	leaq	l___unnamed_50(%rip), %rsi
	leaq	-48(%rbp), %rcx
	movl	$5, %edx
	movq	%r13, %rdi
	movq	%rbx, %r8
	callq	__ZN4core3fmt8builders11DebugStruct5field17h6c54d35ac41bb1e6E
	movq	%r13, %rdi
	callq	__ZN4core3fmt8builders11DebugStruct6finish17h67ed49fd5e81bb24E
	addq	$88, %rsp
	popq	%rbx
	popq	%r12
	popq	%r13
	popq	%r14
	popq	%r15
	popq	%rbp
	retq
	.cfi_endproc

	.p2align	4, 0x90
__ZN42_$LT$$RF$T$u20$as$u20$core..fmt..Debug$GT$3fmt17ha77c3f274691708bE:
	.cfi_startproc
	pushq	%rbp
	.cfi_def_cfa_offset 16
	.cfi_offset %rbp, -16
	movq	%rsp, %rbp
	.cfi_def_cfa_register %rbp
	pushq	%r15
	pushq	%r14
	pushq	%r13
	pushq	%r12
	pushq	%rbx
	subq	$24, %rsp
	.cfi_offset %rbx, -56
	.cfi_offset %r12, -48
	.cfi_offset %r13, -40
	.cfi_offset %r14, -32
	.cfi_offset %r15, -24
	movq	(%rdi), %rax
	movq	(%rax), %r13
	movq	8(%rax), %rbx
	leaq	-64(%rbp), %rdi
	callq	__ZN4core3fmt9Formatter10debug_list17h113a4e31f24f00d7E
	testq	%rbx, %rbx
	je	LBB121_3
	imulq	$56, %rbx, %rbx
	leaq	l___unnamed_239(%rip), %r14
	leaq	-64(%rbp), %r15
	leaq	-48(%rbp), %r12
	.p2align	4, 0x90
LBB121_2:
	movq	%r13, -48(%rbp)
	addq	$56, %r13
	movq	%r15, %rdi
	movq	%r12, %rsi
	movq	%r14, %rdx
	callq	__ZN4core3fmt8builders9DebugList5entry17h2dea26f6c644471aE
	addq	$-56, %rbx
	jne	LBB121_2
LBB121_3:
	leaq	-64(%rbp), %rdi
	callq	__ZN4core3fmt8builders9DebugList6finish17h1537bc92ee1acb1cE
	addq	$24, %rsp
	popq	%rbx
	popq	%r12
	popq	%r13
	popq	%r14
	popq	%r15
	popq	%rbp
	retq
	.cfi_endproc

	.p2align	4, 0x90
__ZN42_$LT$$RF$T$u20$as$u20$core..fmt..Debug$GT$3fmt17ha811718fb7a11a12E:
	.cfi_startproc
	pushq	%rbp
	.cfi_def_cfa_offset 16
	.cfi_offset %rbp, -16
	movq	%rsp, %rbp
	.cfi_def_cfa_register %rbp
	pushq	%r15
	pushq	%r14
	pushq	%r13
	pushq	%r12
	pushq	%rbx
	subq	$88, %rsp
	.cfi_offset %rbx, -56
	.cfi_offset %r12, -48
	.cfi_offset %r13, -40
	.cfi_offset %r14, -32
	.cfi_offset %r15, -24
	movq	(%rdi), %rax
	movq	(%rax), %rbx
	leaq	l___unnamed_240(%rip), %rdx
	leaq	-128(%rbp), %r14
	movl	$9, %ecx
	movq	%r14, %rdi
	callq	__ZN4core3fmt9Formatter12debug_struct17ha1a64e91d2a98458E
	movq	%rbx, -48(%rbp)
	leaq	16(%rbx), %r15
	leaq	32(%rbx), %r12
	leaq	40(%rbx), %r13
	leaq	48(%rbx), %rax
	movq	%rax, -56(%rbp)
	leaq	52(%rbx), %rax
	movq	%rax, -64(%rbp)
	leaq	56(%rbx), %rax
	movq	%rax, -72(%rbp)
	leaq	60(%rbx), %rax
	movq	%rax, -80(%rbp)
	leaq	64(%rbx), %rax
	movq	%rax, -88(%rbp)
	leaq	68(%rbx), %rax
	movq	%rax, -96(%rbp)
	leaq	72(%rbx), %rax
	movq	%rax, -104(%rbp)
	leaq	76(%rbx), %rax
	movq	%rax, -112(%rbp)
	leaq	L___unnamed_82(%rip), %rsi
	leaq	l___unnamed_83(%rip), %rbx
	leaq	-48(%rbp), %rcx
	movl	$8, %edx
	movq	%r14, %rdi
	movq	%rbx, %r8
	callq	__ZN4core3fmt8builders11DebugStruct5field17h6c54d35ac41bb1e6E
	movq	%r15, -48(%rbp)
	leaq	l___unnamed_84(%rip), %rsi
	leaq	-48(%rbp), %rcx
	movl	$7, %edx
	movq	%r14, %rdi
	movq	%rbx, %r8
	callq	__ZN4core3fmt8builders11DebugStruct5field17h6c54d35ac41bb1e6E
	movq	%r12, -48(%rbp)
	leaq	L___unnamed_85(%rip), %rsi
	leaq	l___unnamed_68(%rip), %rbx
	leaq	-48(%rbp), %rcx
	movl	$4, %edx
	movq	%r14, %rdi
	movq	%rbx, %r8
	callq	__ZN4core3fmt8builders11DebugStruct5field17h6c54d35ac41bb1e6E
	movq	%r13, -48(%rbp)
	leaq	L___unnamed_86(%rip), %rsi
	leaq	-48(%rbp), %rcx
	movl	$4, %edx
	movq	%r14, %rdi
	movq	%rbx, %r8
	callq	__ZN4core3fmt8builders11DebugStruct5field17h6c54d35ac41bb1e6E
	movq	-56(%rbp), %rax
	movq	%rax, -48(%rbp)
	leaq	l___unnamed_87(%rip), %rsi
	leaq	l___unnamed_45(%rip), %rbx
	leaq	-48(%rbp), %rcx
	movl	$6, %edx
	movq	%r14, %rdi
	movq	%rbx, %r8
	callq	__ZN4core3fmt8builders11DebugStruct5field17h6c54d35ac41bb1e6E
	movq	-64(%rbp), %rax
	movq	%rax, -48(%rbp)
	leaq	l___unnamed_88(%rip), %rsi
	leaq	-48(%rbp), %rcx
	movl	$5, %edx
	movq	%r14, %rdi
	movq	%rbx, %r8
	callq	__ZN4core3fmt8builders11DebugStruct5field17h6c54d35ac41bb1e6E
	movq	-72(%rbp), %rax
	movq	%rax, -48(%rbp)
	leaq	l___unnamed_89(%rip), %rsi
	leaq	-48(%rbp), %rcx
	movl	$6, %edx
	movq	%r14, %rdi
	movq	%rbx, %r8
	callq	__ZN4core3fmt8builders11DebugStruct5field17h6c54d35ac41bb1e6E
	movq	-80(%rbp), %rax
	movq	%rax, -48(%rbp)
	leaq	l___unnamed_90(%rip), %rsi
	leaq	-48(%rbp), %rcx
	movl	$6, %edx
	movq	%r14, %rdi
	movq	%rbx, %r8
	callq	__ZN4core3fmt8builders11DebugStruct5field17h6c54d35ac41bb1e6E
	movq	-88(%rbp), %rax
	movq	%rax, -48(%rbp)
	leaq	l___unnamed_50(%rip), %rsi
	leaq	-48(%rbp), %rcx
	movl	$5, %edx
	movq	%r14, %rdi
	movq	%rbx, %r8
	callq	__ZN4core3fmt8builders11DebugStruct5field17h6c54d35ac41bb1e6E
	movq	-96(%rbp), %rax
	movq	%rax, -48(%rbp)
	leaq	l___unnamed_91(%rip), %rsi
	leaq	-48(%rbp), %rcx
	movl	$9, %edx
	movq	%r14, %rdi
	movq	%rbx, %r8
	callq	__ZN4core3fmt8builders11DebugStruct5field17h6c54d35ac41bb1e6E
	movq	-104(%rbp), %rax
	movq	%rax, -48(%rbp)
	leaq	l___unnamed_92(%rip), %rsi
	leaq	-48(%rbp), %rcx
	movl	$9, %edx
	movq	%r14, %rdi
	movq	%rbx, %r8
	callq	__ZN4core3fmt8builders11DebugStruct5field17h6c54d35ac41bb1e6E
	movq	-112(%rbp), %rax
	movq	%rax, -48(%rbp)
	leaq	l___unnamed_241(%rip), %rsi
	leaq	-48(%rbp), %rcx
	movl	$9, %edx
	movq	%r14, %rdi
	movq	%rbx, %r8
	callq	__ZN4core3fmt8builders11DebugStruct5field17h6c54d35ac41bb1e6E
	movq	%r14, %rdi
	callq	__ZN4core3fmt8builders11DebugStruct6finish17h67ed49fd5e81bb24E
	addq	$88, %rsp
	popq	%rbx
	popq	%r12
	popq	%r13
	popq	%r14
	popq	%r15
	popq	%rbp
	retq
	.cfi_endproc

	.p2align	4, 0x90
__ZN42_$LT$$RF$T$u20$as$u20$core..fmt..Debug$GT$3fmt17ha8ae07beee77a210E:
	.cfi_startproc
	pushq	%rbp
	.cfi_def_cfa_offset 16
	.cfi_offset %rbp, -16
	movq	%rsp, %rbp
	.cfi_def_cfa_register %rbp
	movq	(%rdi), %rdi
	popq	%rbp
	jmp	__ZN42_$LT$$RF$T$u20$as$u20$core..fmt..Debug$GT$3fmt17h2774b7e53e501657E
	.cfi_endproc

	.p2align	4, 0x90
__ZN42_$LT$$RF$T$u20$as$u20$core..fmt..Debug$GT$3fmt17haef0a2e753737a05E:
	.cfi_startproc
	pushq	%rbp
	.cfi_def_cfa_offset 16
	.cfi_offset %rbp, -16
	movq	%rsp, %rbp
	.cfi_def_cfa_register %rbp
	pushq	%r14
	pushq	%rbx
	subq	$32, %rsp
	.cfi_offset %rbx, -32
	.cfi_offset %r14, -24
	movq	(%rdi), %rbx
	leaq	l___unnamed_163(%rip), %rdx
	leaq	-40(%rbp), %r14
	movl	$9, %ecx
	movq	%r14, %rdi
	callq	__ZN4core3fmt9Formatter12debug_struct17ha1a64e91d2a98458E
	movq	%rbx, -24(%rbp)
	addq	$8, %rbx
	leaq	L___unnamed_5(%rip), %rsi
	leaq	l___unnamed_128(%rip), %r8
	leaq	-24(%rbp), %rcx
	movl	$4, %edx
	movq	%r14, %rdi
	callq	__ZN4core3fmt8builders11DebugStruct5field17h6c54d35ac41bb1e6E
	movq	%rbx, -24(%rbp)
	leaq	l___unnamed_7(%rip), %rsi
	leaq	l___unnamed_8(%rip), %r8
	leaq	-24(%rbp), %rcx
	movl	$7, %edx
	movq	%r14, %rdi
	callq	__ZN4core3fmt8builders11DebugStruct5field17h6c54d35ac41bb1e6E
	movq	%r14, %rdi
	callq	__ZN4core3fmt8builders11DebugStruct6finish17h67ed49fd5e81bb24E
	addq	$32, %rsp
	popq	%rbx
	popq	%r14
	popq	%rbp
	retq
	.cfi_endproc

	.p2align	4, 0x90
__ZN42_$LT$$RF$T$u20$as$u20$core..fmt..Debug$GT$3fmt17haf0985b6d3abee85E:
	.cfi_startproc
	pushq	%rbp
	.cfi_def_cfa_offset 16
	.cfi_offset %rbp, -16
	movq	%rsp, %rbp
	.cfi_def_cfa_register %rbp
	pushq	%rbx
	subq	$24, %rsp
	.cfi_offset %rbx, -24
	leaq	l___unnamed_242(%rip), %rdx
	leaq	-24(%rbp), %rbx
	movl	$22, %ecx
	movq	%rbx, %rdi
	callq	__ZN4core3fmt9Formatter12debug_struct17ha1a64e91d2a98458E
	movq	%rbx, %rdi
	callq	__ZN4core3fmt8builders11DebugStruct6finish17h67ed49fd5e81bb24E
	addq	$24, %rsp
	popq	%rbx
	popq	%rbp
	retq
	.cfi_endproc

	.p2align	4, 0x90
__ZN42_$LT$$RF$T$u20$as$u20$core..fmt..Debug$GT$3fmt17haf1306a63fe724bdE:
	.cfi_startproc
	pushq	%rbp
	.cfi_def_cfa_offset 16
	.cfi_offset %rbp, -16
	movq	%rsp, %rbp
	.cfi_def_cfa_register %rbp
	pushq	%r14
	pushq	%rbx
	subq	$32, %rsp
	.cfi_offset %rbx, -32
	.cfi_offset %r14, -24
	movq	(%rdi), %rbx
	leaq	l___unnamed_243(%rip), %rdx
	leaq	-48(%rbp), %r14
	movl	$11, %ecx
	movq	%r14, %rdi
	callq	__ZN4core3fmt9Formatter11debug_tuple17h6c448643801d07e8E
	movq	%rbx, -24(%rbp)
	leaq	l___unnamed_3(%rip), %rdx
	leaq	-24(%rbp), %rsi
	movq	%r14, %rdi
	callq	__ZN4core3fmt8builders10DebugTuple5field17hc7b676d0e36b51d9E
	movq	%r14, %rdi
	callq	__ZN4core3fmt8builders10DebugTuple6finish17h9f206806f7096c33E
	addq	$32, %rsp
	popq	%rbx
	popq	%r14
	popq	%rbp
	retq
	.cfi_endproc

	.p2align	4, 0x90
__ZN42_$LT$$RF$T$u20$as$u20$core..fmt..Debug$GT$3fmt17haf6843eec86b951fE:
	.cfi_startproc
	pushq	%rbp
	.cfi_def_cfa_offset 16
	.cfi_offset %rbp, -16
	movq	%rsp, %rbp
	.cfi_def_cfa_register %rbp
	movq	(%rdi), %rdi
	popq	%rbp
	jmp	__ZN64_$LT$object..pe..ImageFileHeader$u20$as$u20$core..fmt..Debug$GT$3fmt17h5b6058b2c785bcbeE
	.cfi_endproc

	.p2align	4, 0x90
__ZN42_$LT$$RF$T$u20$as$u20$core..fmt..Debug$GT$3fmt17hb83afec31c272da7E:
	.cfi_startproc
	pushq	%rbp
	.cfi_def_cfa_offset 16
	.cfi_offset %rbp, -16
	movq	%rsp, %rbp
	.cfi_def_cfa_register %rbp
	pushq	%r15
	pushq	%r14
	pushq	%r13
	pushq	%r12
	pushq	%rbx
	subq	$24, %rsp
	.cfi_offset %rbx, -56
	.cfi_offset %r12, -48
	.cfi_offset %r13, -40
	.cfi_offset %r14, -32
	.cfi_offset %r15, -24
	movq	(%rdi), %r13
	movq	8(%rdi), %rbx
	leaq	-64(%rbp), %rdi
	callq	__ZN4core3fmt9Formatter10debug_list17h113a4e31f24f00d7E
	testq	%rbx, %rbx
	je	LBB128_3
	shlq	$3, %rbx
	leaq	(%rbx,%rbx,4), %rbx
	leaq	l___unnamed_9(%rip), %r14
	leaq	-64(%rbp), %r15
	leaq	-48(%rbp), %r12
	.p2align	4, 0x90
LBB128_2:
	movq	%r13, -48(%rbp)
	addq	$40, %r13
	movq	%r15, %rdi
	movq	%r12, %rsi
	movq	%r14, %rdx
	callq	__ZN4core3fmt8builders9DebugList5entry17h2dea26f6c644471aE
	addq	$-40, %rbx
	jne	LBB128_2
LBB128_3:
	leaq	-64(%rbp), %rdi
	callq	__ZN4core3fmt8builders9DebugList6finish17h1537bc92ee1acb1cE
	addq	$24, %rsp
	popq	%rbx
	popq	%r12
	popq	%r13
	popq	%r14
	popq	%r15
	popq	%rbp
	retq
	.cfi_endproc

	.p2align	4, 0x90
__ZN42_$LT$$RF$T$u20$as$u20$core..fmt..Debug$GT$3fmt17hb9b5e0b7031fc20eE:
	.cfi_startproc
	pushq	%rbp
	.cfi_def_cfa_offset 16
	.cfi_offset %rbp, -16
	movq	%rsp, %rbp
	.cfi_def_cfa_register %rbp
	movq	%rsi, %rdi
	leaq	l___unnamed_244(%rip), %rsi
	movl	$11, %edx
	popq	%rbp
	jmp	__ZN4core3fmt9Formatter3pad17h426409b23b74b394E
	.cfi_endproc

	.p2align	4, 0x90
__ZN42_$LT$$RF$T$u20$as$u20$core..fmt..Debug$GT$3fmt17hbb4b1da289f92ad1E:
	.cfi_startproc
	pushq	%rbp
	.cfi_def_cfa_offset 16
	.cfi_offset %rbp, -16
	movq	%rsp, %rbp
	.cfi_def_cfa_register %rbp
	pushq	%r14
	pushq	%rbx
	subq	$32, %rsp
	.cfi_offset %rbx, -32
	.cfi_offset %r14, -24
	movq	(%rdi), %rbx
	leaq	l___unnamed_184(%rip), %rdx
	leaq	-40(%rbp), %r14
	movl	$12, %ecx
	movq	%r14, %rdi
	callq	__ZN4core3fmt9Formatter12debug_struct17ha1a64e91d2a98458E
	movq	%rbx, -24(%rbp)
	addq	$8, %rbx
	leaq	L___unnamed_5(%rip), %rsi
	leaq	l___unnamed_245(%rip), %r8
	leaq	-24(%rbp), %rcx
	movl	$4, %edx
	movq	%r14, %rdi
	callq	__ZN4core3fmt8builders11DebugStruct5field17h6c54d35ac41bb1e6E
	movq	%rbx, -24(%rbp)
	leaq	l___unnamed_58(%rip), %rsi
	leaq	l___unnamed_246(%rip), %r8
	leaq	-24(%rbp), %rcx
	movl	$7, %edx
	movq	%r14, %rdi
	callq	__ZN4core3fmt8builders11DebugStruct5field17h6c54d35ac41bb1e6E
	movq	%r14, %rdi
	callq	__ZN4core3fmt8builders11DebugStruct6finish17h67ed49fd5e81bb24E
	addq	$32, %rsp
	popq	%rbx
	popq	%r14
	popq	%rbp
	retq
	.cfi_endproc

	.p2align	4, 0x90
__ZN42_$LT$$RF$T$u20$as$u20$core..fmt..Debug$GT$3fmt17hc39ad69b3774ca78E:
	.cfi_startproc
	pushq	%rbp
	.cfi_def_cfa_offset 16
	.cfi_offset %rbp, -16
	movq	%rsp, %rbp
	.cfi_def_cfa_register %rbp
	movq	(%rdi), %rdi
	popq	%rbp
	jmp	__ZN67_$LT$object..pe..ImageSectionHeader$u20$as$u20$core..fmt..Debug$GT$3fmt17hd87fe0a02ba4b856E
	.cfi_endproc

	.p2align	4, 0x90
__ZN42_$LT$$RF$T$u20$as$u20$core..fmt..Debug$GT$3fmt17hc48d9671d01ccf25E:
	.cfi_startproc
	pushq	%rbp
	.cfi_def_cfa_offset 16
	.cfi_offset %rbp, -16
	movq	%rsp, %rbp
	.cfi_def_cfa_register %rbp
	pushq	%r15
	pushq	%r14
	pushq	%r13
	pushq	%r12
	pushq	%rbx
	subq	$40, %rsp
	.cfi_offset %rbx, -56
	.cfi_offset %r12, -48
	.cfi_offset %r13, -40
	.cfi_offset %r14, -32
	.cfi_offset %r15, -24
	movq	(%rdi), %rbx
	leaq	-72(%rbp), %r12
	movq	%r12, %rdi
	callq	__ZN4core3fmt9Formatter10debug_list17h113a4e31f24f00d7E
	leaq	1(%rbx), %r13
	movq	%rbx, -48(%rbp)
	leaq	l___unnamed_11(%rip), %r14
	leaq	-48(%rbp), %r15
	movq	%r12, %rdi
	movq	%r15, %rsi
	movq	%r14, %rdx
	callq	__ZN4core3fmt8builders9DebugList5entry17h2dea26f6c644471aE
	leaq	2(%rbx), %rax
	movq	%rax, -56(%rbp)
	movq	%r13, -48(%rbp)
	movq	%r12, %rdi
	movq	%r15, %rsi
	movq	%r14, %rdx
	movq	%r14, %r13
	callq	__ZN4core3fmt8builders9DebugList5entry17h2dea26f6c644471aE
	leaq	3(%rbx), %r14
	movq	-56(%rbp), %rax
	movq	%rax, -48(%rbp)
	movq	%r12, %rdi
	movq	%r15, %rsi
	movq	%r13, %rdx
	callq	__ZN4core3fmt8builders9DebugList5entry17h2dea26f6c644471aE
	leaq	4(%rbx), %rax
	movq	%rax, -56(%rbp)
	movq	%r14, -48(%rbp)
	movq	%r12, %rdi
	movq	%r15, %rsi
	movq	%r13, %rdx
	callq	__ZN4core3fmt8builders9DebugList5entry17h2dea26f6c644471aE
	leaq	5(%rbx), %r14
	movq	-56(%rbp), %rax
	movq	%rax, -48(%rbp)
	movq	%r12, %rdi
	movq	%r15, %rsi
	movq	%r13, %rdx
	callq	__ZN4core3fmt8builders9DebugList5entry17h2dea26f6c644471aE
	leaq	6(%rbx), %rax
	movq	%rax, -56(%rbp)
	movq	%r14, -48(%rbp)
	movq	%r12, %rdi
	movq	%r15, %rsi
	movq	%r13, %rdx
	callq	__ZN4core3fmt8builders9DebugList5entry17h2dea26f6c644471aE
	leaq	7(%rbx), %r14
	movq	-56(%rbp), %rax
	movq	%rax, -48(%rbp)
	movq	%r12, %rdi
	movq	%r15, %rsi
	movq	%r13, %rdx
	callq	__ZN4core3fmt8builders9DebugList5entry17h2dea26f6c644471aE
	leaq	8(%rbx), %rax
	movq	%rax, -56(%rbp)
	movq	%r14, -48(%rbp)
	movq	%r12, %rdi
	movq	%r15, %rsi
	movq	%r13, %rdx
	callq	__ZN4core3fmt8builders9DebugList5entry17h2dea26f6c644471aE
	leaq	9(%rbx), %r14
	movq	-56(%rbp), %rax
	movq	%rax, -48(%rbp)
	movq	%r12, %rdi
	movq	%r15, %rsi
	movq	%r13, %rdx
	callq	__ZN4core3fmt8builders9DebugList5entry17h2dea26f6c644471aE
	leaq	10(%rbx), %rax
	movq	%rax, -56(%rbp)
	movq	%r14, -48(%rbp)
	movq	%r12, %rdi
	movq	%r15, %rsi
	movq	%r13, %rdx
	callq	__ZN4core3fmt8builders9DebugList5entry17h2dea26f6c644471aE
	leaq	11(%rbx), %r14
	movq	-56(%rbp), %rax
	movq	%rax, -48(%rbp)
	movq	%r12, %rdi
	movq	%r15, %rsi
	movq	%r13, %rdx
	callq	__ZN4core3fmt8builders9DebugList5entry17h2dea26f6c644471aE
	leaq	12(%rbx), %rax
	movq	%rax, -56(%rbp)
	movq	%r14, -48(%rbp)
	movq	%r12, %rdi
	movq	%r15, %rsi
	movq	%r13, %rdx
	callq	__ZN4core3fmt8builders9DebugList5entry17h2dea26f6c644471aE
	leaq	13(%rbx), %r14
	movq	-56(%rbp), %rax
	movq	%rax, -48(%rbp)
	movq	%r12, %rdi
	movq	%r15, %rsi
	movq	%r13, %rdx
	callq	__ZN4core3fmt8builders9DebugList5entry17h2dea26f6c644471aE
	leaq	14(%rbx), %rax
	movq	%rax, -56(%rbp)
	movq	%r14, -48(%rbp)
	movq	%r12, %rdi
	movq	%r15, %rsi
	movq	%r13, %rdx
	callq	__ZN4core3fmt8builders9DebugList5entry17h2dea26f6c644471aE
	leaq	15(%rbx), %r14
	movq	-56(%rbp), %rax
	movq	%rax, -48(%rbp)
	movq	%r12, %rdi
	movq	%r15, %rsi
	movq	%r13, %rdx
	callq	__ZN4core3fmt8builders9DebugList5entry17h2dea26f6c644471aE
	movq	%r14, -48(%rbp)
	movq	%r12, %rdi
	movq	%r15, %rsi
	movq	%r13, %rdx
	callq	__ZN4core3fmt8builders9DebugList5entry17h2dea26f6c644471aE
	leaq	16(%rbx), %rax
	addq	$17, %rbx
	movq	%rax, -48(%rbp)
	movq	%r12, %rdi
	movq	%r15, %rsi
	movq	%r13, %rdx
	callq	__ZN4core3fmt8builders9DebugList5entry17h2dea26f6c644471aE
	movq	%rbx, -48(%rbp)
	movq	%r12, %rdi
	movq	%r15, %rsi
	movq	%r13, %rdx
	callq	__ZN4core3fmt8builders9DebugList5entry17h2dea26f6c644471aE
	movq	%r12, %rdi
	callq	__ZN4core3fmt8builders9DebugList6finish17h1537bc92ee1acb1cE
	addq	$40, %rsp
	popq	%rbx
	popq	%r12
	popq	%r13
	popq	%r14
	popq	%r15
	popq	%rbp
	retq
	.cfi_endproc

	.p2align	4, 0x90
__ZN42_$LT$$RF$T$u20$as$u20$core..fmt..Debug$GT$3fmt17hc76910f5490ba698E:
	.cfi_startproc
	pushq	%rbp
	.cfi_def_cfa_offset 16
	.cfi_offset %rbp, -16
	movq	%rsp, %rbp
	.cfi_def_cfa_register %rbp
	pushq	%r15
	pushq	%r14
	pushq	%r13
	pushq	%r12
	pushq	%rbx
	subq	$24, %rsp
	.cfi_offset %rbx, -56
	.cfi_offset %r12, -48
	.cfi_offset %r13, -40
	.cfi_offset %r14, -32
	.cfi_offset %r15, -24
	movq	(%rdi), %rbx
	leaq	-64(%rbp), %r12
	movq	%r12, %rdi
	callq	__ZN4core3fmt9Formatter10debug_list17h113a4e31f24f00d7E
	leaq	1(%rbx), %r13
	movq	%rbx, -48(%rbp)
	leaq	l___unnamed_11(%rip), %r15
	leaq	-48(%rbp), %rsi
	movq	%r12, %rdi
	movq	%r15, %rdx
	callq	__ZN4core3fmt8builders9DebugList5entry17h2dea26f6c644471aE
	leaq	2(%rbx), %r14
	movq	%r13, -48(%rbp)
	movq	%r12, %rdi
	leaq	-48(%rbp), %rsi
	movq	%r15, %rdx
	callq	__ZN4core3fmt8builders9DebugList5entry17h2dea26f6c644471aE
	leaq	3(%rbx), %r13
	movq	%r14, -48(%rbp)
	movq	%r12, %rdi
	leaq	-48(%rbp), %rsi
	movq	%r15, %rdx
	callq	__ZN4core3fmt8builders9DebugList5entry17h2dea26f6c644471aE
	leaq	4(%rbx), %r14
	movq	%r13, -48(%rbp)
	movq	%r12, %rdi
	leaq	-48(%rbp), %rsi
	movq	%r15, %rdx
	callq	__ZN4core3fmt8builders9DebugList5entry17h2dea26f6c644471aE
	leaq	5(%rbx), %r13
	movq	%r14, -48(%rbp)
	movq	%r12, %rdi
	leaq	-48(%rbp), %rsi
	movq	%r15, %rdx
	callq	__ZN4core3fmt8builders9DebugList5entry17h2dea26f6c644471aE
	leaq	6(%rbx), %r14
	movq	%r13, -48(%rbp)
	movq	%r12, %rdi
	leaq	-48(%rbp), %rsi
	movq	%r15, %rdx
	callq	__ZN4core3fmt8builders9DebugList5entry17h2dea26f6c644471aE
	leaq	7(%rbx), %r13
	movq	%r14, -48(%rbp)
	movq	%r12, %rdi
	leaq	-48(%rbp), %rsi
	movq	%rsi, %r14
	movq	%r15, %rdx
	callq	__ZN4core3fmt8builders9DebugList5entry17h2dea26f6c644471aE
	movq	%r13, -48(%rbp)
	movq	%r12, %rdi
	movq	%r14, %rsi
	movq	%r15, %rdx
	callq	__ZN4core3fmt8builders9DebugList5entry17h2dea26f6c644471aE
	leaq	8(%rbx), %rax
	addq	$9, %rbx
	movq	%rax, -48(%rbp)
	movq	%r12, %rdi
	movq	%r14, %rsi
	movq	%r15, %rdx
	callq	__ZN4core3fmt8builders9DebugList5entry17h2dea26f6c644471aE
	movq	%rbx, -48(%rbp)
	movq	%r12, %rdi
	movq	%r14, %rsi
	movq	%r15, %rdx
	callq	__ZN4core3fmt8builders9DebugList5entry17h2dea26f6c644471aE
	movq	%r12, %rdi
	callq	__ZN4core3fmt8builders9DebugList6finish17h1537bc92ee1acb1cE
	addq	$24, %rsp
	popq	%rbx
	popq	%r12
	popq	%r13
	popq	%r14
	popq	%r15
	popq	%rbp
	retq
	.cfi_endproc

	.p2align	4, 0x90
__ZN42_$LT$$RF$T$u20$as$u20$core..fmt..Debug$GT$3fmt17hc852cdfa7865b835E:
	.cfi_startproc
	pushq	%rbp
	.cfi_def_cfa_offset 16
	.cfi_offset %rbp, -16
	movq	%rsp, %rbp
	.cfi_def_cfa_register %rbp
	movq	(%rdi), %rdi
	popq	%rbp
	jmp	__ZN42_$LT$$RF$T$u20$as$u20$core..fmt..Debug$GT$3fmt17he4b6d1aad7a5f687E
	.cfi_endproc

	.p2align	4, 0x90
__ZN42_$LT$$RF$T$u20$as$u20$core..fmt..Debug$GT$3fmt17hc959a4b017b01a80E:
	.cfi_startproc
	pushq	%rbp
	.cfi_def_cfa_offset 16
	.cfi_offset %rbp, -16
	movq	%rsp, %rbp
	.cfi_def_cfa_register %rbp
	movq	(%rdi), %rax
	movq	(%rax), %rdi
	popq	%rbp
	jmp	__ZN67_$LT$object..pe..ImageSectionHeader$u20$as$u20$core..fmt..Debug$GT$3fmt17hd87fe0a02ba4b856E
	.cfi_endproc

	.p2align	4, 0x90
__ZN42_$LT$$RF$T$u20$as$u20$core..fmt..Debug$GT$3fmt17hc9a1e7cdff68bfbfE:
	.cfi_startproc
	pushq	%rbp
	.cfi_def_cfa_offset 16
	.cfi_offset %rbp, -16
	movq	%rsp, %rbp
	.cfi_def_cfa_register %rbp
	pushq	%r15
	pushq	%r14
	pushq	%r13
	pushq	%r12
	pushq	%rbx
	subq	$24, %rsp
	.cfi_offset %rbx, -56
	.cfi_offset %r12, -48
	.cfi_offset %r13, -40
	.cfi_offset %r14, -32
	.cfi_offset %r15, -24
	movq	(%rdi), %rax
	movq	(%rax), %rbx
	movq	8(%rax), %r13
	leaq	-64(%rbp), %rdi
	callq	__ZN4core3fmt9Formatter10debug_list17h113a4e31f24f00d7E
	testq	%r13, %r13
	je	LBB136_3
	shlq	$4, %r13
	leaq	l___unnamed_247(%rip), %r14
	leaq	-64(%rbp), %r15
	leaq	-48(%rbp), %r12
	.p2align	4, 0x90
LBB136_2:
	movq	%rbx, -48(%rbp)
	addq	$16, %rbx
	movq	%r15, %rdi
	movq	%r12, %rsi
	movq	%r14, %rdx
	callq	__ZN4core3fmt8builders9DebugList5entry17h2dea26f6c644471aE
	addq	$-16, %r13
	jne	LBB136_2
LBB136_3:
	leaq	-64(%rbp), %rdi
	callq	__ZN4core3fmt8builders9DebugList6finish17h1537bc92ee1acb1cE
	addq	$24, %rsp
	popq	%rbx
	popq	%r12
	popq	%r13
	popq	%r14
	popq	%r15
	popq	%rbp
	retq
	.cfi_endproc

	.p2align	4, 0x90
__ZN42_$LT$$RF$T$u20$as$u20$core..fmt..Debug$GT$3fmt17hcc04aabb1f44950fE:
	.cfi_startproc
	pushq	%rbp
	.cfi_def_cfa_offset 16
	.cfi_offset %rbp, -16
	movq	%rsp, %rbp
	.cfi_def_cfa_register %rbp
	pushq	%r15
	pushq	%r14
	pushq	%r13
	pushq	%r12
	pushq	%rbx
	subq	$24, %rsp
	.cfi_offset %rbx, -56
	.cfi_offset %r12, -48
	.cfi_offset %r13, -40
	.cfi_offset %r14, -32
	.cfi_offset %r15, -24
	movq	(%rdi), %r13
	movq	8(%rdi), %rbx
	leaq	-64(%rbp), %rdi
	callq	__ZN4core3fmt9Formatter10debug_list17h113a4e31f24f00d7E
	testq	%rbx, %rbx
	je	LBB137_3
	imulq	$56, %rbx, %rbx
	leaq	l___unnamed_239(%rip), %r14
	leaq	-64(%rbp), %r15
	leaq	-48(%rbp), %r12
	.p2align	4, 0x90
LBB137_2:
	movq	%r13, -48(%rbp)
	addq	$56, %r13
	movq	%r15, %rdi
	movq	%r12, %rsi
	movq	%r14, %rdx
	callq	__ZN4core3fmt8builders9DebugList5entry17h2dea26f6c644471aE
	addq	$-56, %rbx
	jne	LBB137_2
LBB137_3:
	leaq	-64(%rbp), %rdi
	callq	__ZN4core3fmt8builders9DebugList6finish17h1537bc92ee1acb1cE
	addq	$24, %rsp
	popq	%rbx
	popq	%r12
	popq	%r13
	popq	%r14
	popq	%r15
	popq	%rbp
	retq
	.cfi_endproc

	.p2align	4, 0x90
__ZN42_$LT$$RF$T$u20$as$u20$core..fmt..Debug$GT$3fmt17hccd6c3cbc3c4eb9eE:
	.cfi_startproc
	pushq	%rbp
	.cfi_def_cfa_offset 16
	.cfi_offset %rbp, -16
	movq	%rsp, %rbp
	.cfi_def_cfa_register %rbp
	pushq	%r15
	pushq	%r14
	pushq	%r13
	pushq	%r12
	pushq	%rbx
	subq	$40, %rsp
	.cfi_offset %rbx, -56
	.cfi_offset %r12, -48
	.cfi_offset %r13, -40
	.cfi_offset %r14, -32
	.cfi_offset %r15, -24
	movq	(%rdi), %rbx
	leaq	l___unnamed_248(%rip), %rdx
	leaq	-72(%rbp), %r15
	movl	$5, %ecx
	movq	%r15, %rdi
	callq	__ZN4core3fmt9Formatter12debug_struct17ha1a64e91d2a98458E
	movq	%rbx, -48(%rbp)
	leaq	4(%rbx), %r14
	leaq	5(%rbx), %r12
	leaq	6(%rbx), %r13
	leaq	8(%rbx), %rax
	movq	%rax, -56(%rbp)
	leaq	16(%rbx), %rbx
	leaq	l___unnamed_231(%rip), %rsi
	leaq	l___unnamed_45(%rip), %r8
	leaq	-48(%rbp), %rcx
	movl	$7, %edx
	movq	%r15, %rdi
	callq	__ZN4core3fmt8builders11DebugStruct5field17h6c54d35ac41bb1e6E
	movq	%r14, -48(%rbp)
	leaq	l___unnamed_234(%rip), %rsi
	leaq	l___unnamed_11(%rip), %r14
	leaq	-48(%rbp), %rcx
	movl	$7, %edx
	movq	%r15, %rdi
	movq	%r14, %r8
	callq	__ZN4core3fmt8builders11DebugStruct5field17h6c54d35ac41bb1e6E
	movq	%r12, -48(%rbp)
	leaq	L___unnamed_235(%rip), %rsi
	leaq	-48(%rbp), %rcx
	movl	$8, %edx
	movq	%r15, %rdi
	movq	%r14, %r8
	callq	__ZN4core3fmt8builders11DebugStruct5field17h6c54d35ac41bb1e6E
	movq	%r13, -48(%rbp)
	leaq	L___unnamed_236(%rip), %rsi
	leaq	l___unnamed_79(%rip), %r8
	leaq	-48(%rbp), %rcx
	movl	$8, %edx
	movq	%r15, %rdi
	callq	__ZN4core3fmt8builders11DebugStruct5field17h6c54d35ac41bb1e6E
	movq	-56(%rbp), %rax
	movq	%rax, -48(%rbp)
	leaq	L___unnamed_232(%rip), %rsi
	leaq	l___unnamed_68(%rip), %r14
	leaq	-48(%rbp), %rcx
	movl	$8, %edx
	movq	%r15, %rdi
	movq	%r14, %r8
	callq	__ZN4core3fmt8builders11DebugStruct5field17h6c54d35ac41bb1e6E
	movq	%rbx, -48(%rbp)
	leaq	l___unnamed_233(%rip), %rsi
	leaq	-48(%rbp), %rcx
	movl	$7, %edx
	movq	%r15, %rdi
	movq	%r14, %r8
	callq	__ZN4core3fmt8builders11DebugStruct5field17h6c54d35ac41bb1e6E
	movq	%r15, %rdi
	callq	__ZN4core3fmt8builders11DebugStruct6finish17h67ed49fd5e81bb24E
	addq	$40, %rsp
	popq	%rbx
	popq	%r12
	popq	%r13
	popq	%r14
	popq	%r15
	popq	%rbp
	retq
	.cfi_endproc

	.p2align	4, 0x90
__ZN42_$LT$$RF$T$u20$as$u20$core..fmt..Debug$GT$3fmt17hcdea83159063cf99E:
	.cfi_startproc
	pushq	%rbp
	.cfi_def_cfa_offset 16
	.cfi_offset %rbp, -16
	movq	%rsp, %rbp
	.cfi_def_cfa_register %rbp
	pushq	%r14
	pushq	%rbx
	subq	$32, %rsp
	.cfi_offset %rbx, -32
	.cfi_offset %r14, -24
	movq	(%rdi), %rbx
	leaq	l___unnamed_103(%rip), %rdx
	leaq	-40(%rbp), %r14
	movl	$12, %ecx
	movq	%r14, %rdi
	callq	__ZN4core3fmt9Formatter12debug_struct17ha1a64e91d2a98458E
	movq	%rbx, -24(%rbp)
	addq	$16, %rbx
	leaq	L___unnamed_24(%rip), %rsi
	leaq	l___unnamed_249(%rip), %r8
	leaq	-24(%rbp), %rcx
	movl	$8, %edx
	movq	%r14, %rdi
	callq	__ZN4core3fmt8builders11DebugStruct5field17h6c54d35ac41bb1e6E
	movq	%rbx, -24(%rbp)
	leaq	l___unnamed_15(%rip), %rsi
	leaq	l___unnamed_16(%rip), %r8
	leaq	-24(%rbp), %rcx
	movl	$7, %edx
	movq	%r14, %rdi
	callq	__ZN4core3fmt8builders11DebugStruct5field17h6c54d35ac41bb1e6E
	movq	%r14, %rdi
	callq	__ZN4core3fmt8builders11DebugStruct6finish17h67ed49fd5e81bb24E
	addq	$32, %rsp
	popq	%rbx
	popq	%r14
	popq	%rbp
	retq
	.cfi_endproc

	.p2align	4, 0x90
__ZN42_$LT$$RF$T$u20$as$u20$core..fmt..Debug$GT$3fmt17hcf4bba5d89a72155E:
	.cfi_startproc
	pushq	%rbp
	.cfi_def_cfa_offset 16
	.cfi_offset %rbp, -16
	movq	%rsp, %rbp
	.cfi_def_cfa_register %rbp
	pushq	%r14
	pushq	%rbx
	subq	$32, %rsp
	.cfi_offset %rbx, -32
	.cfi_offset %r14, -24
	movq	(%rdi), %rbx
	leaq	l___unnamed_250(%rip), %rdx
	leaq	-48(%rbp), %r14
	movl	$20, %ecx
	movq	%r14, %rdi
	callq	__ZN4core3fmt9Formatter11debug_tuple17h6c448643801d07e8E
	movq	%rbx, -24(%rbp)
	leaq	l___unnamed_251(%rip), %rdx
	leaq	-24(%rbp), %rsi
	movq	%r14, %rdi
	callq	__ZN4core3fmt8builders10DebugTuple5field17hc7b676d0e36b51d9E
	movq	%r14, %rdi
	callq	__ZN4core3fmt8builders10DebugTuple6finish17h9f206806f7096c33E
	addq	$32, %rsp
	popq	%rbx
	popq	%r14
	popq	%rbp
	retq
	.cfi_endproc

	.p2align	4, 0x90
__ZN42_$LT$$RF$T$u20$as$u20$core..fmt..Debug$GT$3fmt17hd272770eaab099beE:
	.cfi_startproc
	pushq	%rbp
	.cfi_def_cfa_offset 16
	.cfi_offset %rbp, -16
	movq	%rsp, %rbp
	.cfi_def_cfa_register %rbp
	pushq	%r14
	pushq	%rbx
	subq	$32, %rsp
	.cfi_offset %rbx, -32
	.cfi_offset %r14, -24
	movq	(%rdi), %rbx
	leaq	l___unnamed_52(%rip), %rdx
	leaq	-40(%rbp), %r14
	movl	$9, %ecx
	movq	%r14, %rdi
	callq	__ZN4core3fmt9Formatter12debug_struct17ha1a64e91d2a98458E
	movq	%rbx, -24(%rbp)
	addq	$16, %rbx
	leaq	L___unnamed_53(%rip), %rsi
	leaq	l___unnamed_252(%rip), %r8
	leaq	-24(%rbp), %rcx
	movl	$4, %edx
	movq	%r14, %rdi
	callq	__ZN4core3fmt8builders11DebugStruct5field17h6c54d35ac41bb1e6E
	movq	%rbx, -24(%rbp)
	leaq	l___unnamed_55(%rip), %rsi
	leaq	l___unnamed_3(%rip), %r8
	leaq	-24(%rbp), %rcx
	movl	$5, %edx
	movq	%r14, %rdi
	callq	__ZN4core3fmt8builders11DebugStruct5field17h6c54d35ac41bb1e6E
	movq	%r14, %rdi
	callq	__ZN4core3fmt8builders11DebugStruct6finish17h67ed49fd5e81bb24E
	addq	$32, %rsp
	popq	%rbx
	popq	%r14
	popq	%rbp
	retq
	.cfi_endproc

	.p2align	4, 0x90
__ZN42_$LT$$RF$T$u20$as$u20$core..fmt..Debug$GT$3fmt17hd2b0438d4ee35777E:
	.cfi_startproc
	pushq	%rbp
	.cfi_def_cfa_offset 16
	.cfi_offset %rbp, -16
	movq	%rsp, %rbp
	.cfi_def_cfa_register %rbp
	movq	(%rdi), %rdi
	popq	%rbp
	jmp	__ZN42_$LT$$RF$T$u20$as$u20$core..fmt..Debug$GT$3fmt17he1801c040fcc5afdE
	.cfi_endproc

	.p2align	4, 0x90
__ZN42_$LT$$RF$T$u20$as$u20$core..fmt..Debug$GT$3fmt17hd34dd5c646b54cbeE:
	.cfi_startproc
	pushq	%rbp
	.cfi_def_cfa_offset 16
	.cfi_offset %rbp, -16
	movq	%rsp, %rbp
	.cfi_def_cfa_register %rbp
	pushq	%r15
	pushq	%r14
	pushq	%r13
	pushq	%r12
	pushq	%rbx
	subq	$24, %rsp
	.cfi_offset %rbx, -56
	.cfi_offset %r12, -48
	.cfi_offset %r13, -40
	.cfi_offset %r14, -32
	.cfi_offset %r15, -24
	movq	(%rdi), %r13
	movq	8(%rdi), %rbx
	leaq	-64(%rbp), %rdi
	callq	__ZN4core3fmt9Formatter10debug_list17h113a4e31f24f00d7E
	testq	%rbx, %rbx
	je	LBB143_3
	shlq	$3, %rbx
	leaq	(%rbx,%rbx,4), %rbx
	leaq	l___unnamed_36(%rip), %r14
	leaq	-64(%rbp), %r15
	leaq	-48(%rbp), %r12
	.p2align	4, 0x90
LBB143_2:
	movq	%r13, -48(%rbp)
	addq	$40, %r13
	movq	%r15, %rdi
	movq	%r12, %rsi
	movq	%r14, %rdx
	callq	__ZN4core3fmt8builders9DebugList5entry17h2dea26f6c644471aE
	addq	$-40, %rbx
	jne	LBB143_2
LBB143_3:
	leaq	-64(%rbp), %rdi
	callq	__ZN4core3fmt8builders9DebugList6finish17h1537bc92ee1acb1cE
	addq	$24, %rsp
	popq	%rbx
	popq	%r12
	popq	%r13
	popq	%r14
	popq	%r15
	popq	%rbp
	retq
	.cfi_endproc

	.p2align	4, 0x90
__ZN42_$LT$$RF$T$u20$as$u20$core..fmt..Debug$GT$3fmt17hd4058bb5b5adacc0E:
	.cfi_startproc
	pushq	%rbp
	.cfi_def_cfa_offset 16
	.cfi_offset %rbp, -16
	movq	%rsp, %rbp
	.cfi_def_cfa_register %rbp
	pushq	%r15
	pushq	%r14
	pushq	%r13
	pushq	%r12
	pushq	%rbx
	subq	$24, %rsp
	.cfi_offset %rbx, -56
	.cfi_offset %r12, -48
	.cfi_offset %r13, -40
	.cfi_offset %r14, -32
	.cfi_offset %r15, -24
	movq	(%rdi), %rbx
	movq	8(%rdi), %r13
	leaq	-64(%rbp), %rdi
	callq	__ZN4core3fmt9Formatter10debug_list17h113a4e31f24f00d7E
	testq	%r13, %r13
	je	LBB144_3
	shlq	$6, %r13
	leaq	l___unnamed_253(%rip), %r14
	leaq	-64(%rbp), %r15
	leaq	-48(%rbp), %r12
	.p2align	4, 0x90
LBB144_2:
	movq	%rbx, -48(%rbp)
	addq	$64, %rbx
	movq	%r15, %rdi
	movq	%r12, %rsi
	movq	%r14, %rdx
	callq	__ZN4core3fmt8builders9DebugList5entry17h2dea26f6c644471aE
	addq	$-64, %r13
	jne	LBB144_2
LBB144_3:
	leaq	-64(%rbp), %rdi
	callq	__ZN4core3fmt8builders9DebugList6finish17h1537bc92ee1acb1cE
	addq	$24, %rsp
	popq	%rbx
	popq	%r12
	popq	%r13
	popq	%r14
	popq	%r15
	popq	%rbp
	retq
	.cfi_endproc

	.p2align	4, 0x90
__ZN42_$LT$$RF$T$u20$as$u20$core..fmt..Debug$GT$3fmt17hd448d90c0b1ac8e3E:
	.cfi_startproc
	pushq	%rbp
	.cfi_def_cfa_offset 16
	.cfi_offset %rbp, -16
	movq	%rsp, %rbp
	.cfi_def_cfa_register %rbp
	pushq	%r14
	pushq	%rbx
	subq	$32, %rsp
	.cfi_offset %rbx, -32
	.cfi_offset %r14, -24
	movq	(%rdi), %rbx
	leaq	l___unnamed_224(%rip), %rdx
	leaq	-40(%rbp), %r14
	movl	$18, %ecx
	movq	%r14, %rdi
	callq	__ZN4core3fmt9Formatter12debug_struct17ha1a64e91d2a98458E
	movq	%rbx, -24(%rbp)
	addq	$8, %rbx
	leaq	L___unnamed_5(%rip), %rsi
	leaq	l___unnamed_161(%rip), %r8
	leaq	-24(%rbp), %rcx
	movl	$4, %edx
	movq	%r14, %rdi
	callq	__ZN4core3fmt8builders11DebugStruct5field17h6c54d35ac41bb1e6E
	movq	%rbx, -24(%rbp)
	leaq	L___unnamed_53(%rip), %rsi
	leaq	l___unnamed_254(%rip), %r8
	leaq	-24(%rbp), %rcx
	movl	$4, %edx
	movq	%r14, %rdi
	callq	__ZN4core3fmt8builders11DebugStruct5field17h6c54d35ac41bb1e6E
	movq	%r14, %rdi
	callq	__ZN4core3fmt8builders11DebugStruct6finish17h67ed49fd5e81bb24E
	addq	$32, %rsp
	popq	%rbx
	popq	%r14
	popq	%rbp
	retq
	.cfi_endproc

	.p2align	4, 0x90
__ZN42_$LT$$RF$T$u20$as$u20$core..fmt..Debug$GT$3fmt17hd4f5bfd16a974a8eE:
	.cfi_startproc
	pushq	%rbp
	.cfi_def_cfa_offset 16
	.cfi_offset %rbp, -16
	movq	%rsp, %rbp
	.cfi_def_cfa_register %rbp
	pushq	%r15
	pushq	%r14
	pushq	%r13
	pushq	%r12
	pushq	%rbx
	subq	$72, %rsp
	.cfi_offset %rbx, -56
	.cfi_offset %r12, -48
	.cfi_offset %r13, -40
	.cfi_offset %r14, -32
	.cfi_offset %r15, -24
	movq	(%rdi), %rbx
	leaq	l___unnamed_255(%rip), %rdx
	leaq	-112(%rbp), %r14
	movl	$15, %ecx
	movq	%r14, %rdi
	callq	__ZN4core3fmt9Formatter12debug_struct17ha1a64e91d2a98458E
	movq	%rbx, -48(%rbp)
	leaq	4(%rbx), %r15
	leaq	8(%rbx), %r13
	leaq	16(%rbx), %r12
	leaq	24(%rbx), %rax
	movq	%rax, -56(%rbp)
	leaq	32(%rbx), %rax
	movq	%rax, -64(%rbp)
	leaq	40(%rbx), %rax
	movq	%rax, -72(%rbp)
	leaq	44(%rbx), %rax
	movq	%rax, -80(%rbp)
	leaq	48(%rbx), %rax
	movq	%rax, -88(%rbp)
	leaq	56(%rbx), %rax
	movq	%rax, -96(%rbp)
	leaq	l___unnamed_140(%rip), %rsi
	leaq	l___unnamed_45(%rip), %rbx
	leaq	-48(%rbp), %rcx
	movl	$7, %edx
	movq	%r14, %rdi
	movq	%rbx, %r8
	callq	__ZN4core3fmt8builders11DebugStruct5field17h6c54d35ac41bb1e6E
	movq	%r15, -48(%rbp)
	leaq	l___unnamed_141(%rip), %rsi
	leaq	-48(%rbp), %rcx
	movl	$7, %edx
	movq	%r14, %rdi
	movq	%rbx, %r8
	callq	__ZN4core3fmt8builders11DebugStruct5field17h6c54d35ac41bb1e6E
	movq	%r13, -48(%rbp)
	leaq	L___unnamed_142(%rip), %rsi
	leaq	l___unnamed_68(%rip), %r15
	leaq	-48(%rbp), %rcx
	movl	$8, %edx
	movq	%r14, %rdi
	movq	%r15, %r8
	callq	__ZN4core3fmt8builders11DebugStruct5field17h6c54d35ac41bb1e6E
	movq	%r12, -48(%rbp)
	leaq	l___unnamed_143(%rip), %rsi
	leaq	-48(%rbp), %rcx
	movl	$7, %edx
	movq	%r14, %rdi
	movq	%r15, %r8
	callq	__ZN4core3fmt8builders11DebugStruct5field17h6c54d35ac41bb1e6E
	movq	-56(%rbp), %rax
	movq	%rax, -48(%rbp)
	leaq	l___unnamed_144(%rip), %rsi
	leaq	-48(%rbp), %rcx
	movl	$9, %edx
	movq	%r14, %rdi
	movq	%r15, %r8
	callq	__ZN4core3fmt8builders11DebugStruct5field17h6c54d35ac41bb1e6E
	movq	-64(%rbp), %rax
	movq	%rax, -48(%rbp)
	leaq	l___unnamed_145(%rip), %rsi
	leaq	-48(%rbp), %rcx
	movl	$7, %edx
	movq	%r14, %rdi
	movq	%r15, %r8
	callq	__ZN4core3fmt8builders11DebugStruct5field17h6c54d35ac41bb1e6E
	movq	-72(%rbp), %rax
	movq	%rax, -48(%rbp)
	leaq	l___unnamed_146(%rip), %rsi
	leaq	-48(%rbp), %rcx
	movl	$7, %edx
	movq	%r14, %rdi
	movq	%rbx, %r8
	callq	__ZN4core3fmt8builders11DebugStruct5field17h6c54d35ac41bb1e6E
	movq	-80(%rbp), %rax
	movq	%rax, -48(%rbp)
	leaq	l___unnamed_147(%rip), %rsi
	leaq	-48(%rbp), %rcx
	movl	$7, %edx
	movq	%r14, %rdi
	movq	%rbx, %r8
	callq	__ZN4core3fmt8builders11DebugStruct5field17h6c54d35ac41bb1e6E
	movq	-88(%rbp), %rax
	movq	%rax, -48(%rbp)
	leaq	l___unnamed_148(%rip), %rsi
	leaq	-48(%rbp), %rcx
	movl	$12, %edx
	movq	%r14, %rdi
	movq	%r15, %r8
	callq	__ZN4core3fmt8builders11DebugStruct5field17h6c54d35ac41bb1e6E
	movq	-96(%rbp), %rax
	movq	%rax, -48(%rbp)
	leaq	l___unnamed_149(%rip), %rsi
	leaq	-48(%rbp), %rcx
	movl	$10, %edx
	movq	%r14, %rdi
	movq	%r15, %r8
	callq	__ZN4core3fmt8builders11DebugStruct5field17h6c54d35ac41bb1e6E
	movq	%r14, %rdi
	callq	__ZN4core3fmt8builders11DebugStruct6finish17h67ed49fd5e81bb24E
	addq	$72, %rsp
	popq	%rbx
	popq	%r12
	popq	%r13
	popq	%r14
	popq	%r15
	popq	%rbp
	retq
	.cfi_endproc

	.p2align	4, 0x90
__ZN42_$LT$$RF$T$u20$as$u20$core..fmt..Debug$GT$3fmt17hd5779ddab18f8a15E:
	.cfi_startproc
	pushq	%rbp
	.cfi_def_cfa_offset 16
	.cfi_offset %rbp, -16
	movq	%rsp, %rbp
	.cfi_def_cfa_register %rbp
	movq	%rsi, %rdx
	movq	(%rdi), %rax
	movq	8(%rdi), %rsi
	movq	%rax, %rdi
	popq	%rbp
	jmp	__ZN40_$LT$str$u20$as$u20$core..fmt..Debug$GT$3fmt17h5b42b6f497bd434cE
	.cfi_endproc

	.p2align	4, 0x90
__ZN42_$LT$$RF$T$u20$as$u20$core..fmt..Debug$GT$3fmt17hd72796611320c40fE:
	.cfi_startproc
	pushq	%rbp
	.cfi_def_cfa_offset 16
	.cfi_offset %rbp, -16
	movq	%rsp, %rbp
	.cfi_def_cfa_register %rbp
	pushq	%r15
	pushq	%r14
	pushq	%rbx
	subq	$24, %rsp
	.cfi_offset %rbx, -40
	.cfi_offset %r14, -32
	.cfi_offset %r15, -24
	movq	(%rdi), %rbx
	leaq	20(%rbx), %r15
	leaq	l___unnamed_256(%rip), %rdx
	leaq	-48(%rbp), %r14
	movl	$24, %ecx
	movq	%r14, %rdi
	callq	__ZN4core3fmt9Formatter12debug_struct17ha1a64e91d2a98458E
	movq	%r15, -32(%rbp)
	leaq	l___unnamed_18(%rip), %rsi
	leaq	l___unnamed_19(%rip), %r8
	leaq	-32(%rbp), %rcx
	movl	$6, %edx
	movq	%r14, %rdi
	callq	__ZN4core3fmt8builders11DebugStruct5field17h6c54d35ac41bb1e6E
	movq	%rbx, -32(%rbp)
	addq	$16, %rbx
	leaq	L___unnamed_20(%rip), %rsi
	leaq	l___unnamed_21(%rip), %r8
	leaq	-32(%rbp), %rcx
	movl	$4, %edx
	movq	%r14, %rdi
	callq	__ZN4core3fmt8builders11DebugStruct5field17h6c54d35ac41bb1e6E
	movq	%rbx, -32(%rbp)
	leaq	l___unnamed_48(%rip), %rsi
	leaq	l___unnamed_122(%rip), %r8
	leaq	-32(%rbp), %rcx
	movl	$5, %edx
	movq	%r14, %rdi
	callq	__ZN4core3fmt8builders11DebugStruct5field17h6c54d35ac41bb1e6E
	movq	%r14, %rdi
	callq	__ZN4core3fmt8builders11DebugStruct6finish17h67ed49fd5e81bb24E
	addq	$24, %rsp
	popq	%rbx
	popq	%r14
	popq	%r15
	popq	%rbp
	retq
	.cfi_endproc

	.p2align	4, 0x90
__ZN42_$LT$$RF$T$u20$as$u20$core..fmt..Debug$GT$3fmt17hd9eeee270cccd211E:
	.cfi_startproc
	pushq	%rbp
	.cfi_def_cfa_offset 16
	.cfi_offset %rbp, -16
	movq	%rsp, %rbp
	.cfi_def_cfa_register %rbp
	pushq	%r14
	pushq	%rbx
	subq	$32, %rsp
	.cfi_offset %rbx, -32
	.cfi_offset %r14, -24
	movq	(%rdi), %rbx
	leaq	l___unnamed_257(%rip), %rdx
	leaq	-40(%rbp), %r14
	movl	$19, %ecx
	movq	%r14, %rdi
	callq	__ZN4core3fmt9Formatter12debug_struct17ha1a64e91d2a98458E
	movq	%rbx, -24(%rbp)
	addq	$8, %rbx
	leaq	L___unnamed_5(%rip), %rsi
	leaq	l___unnamed_6(%rip), %r8
	leaq	-24(%rbp), %rcx
	movl	$4, %edx
	movq	%r14, %rdi
	callq	__ZN4core3fmt8builders11DebugStruct5field17h6c54d35ac41bb1e6E
	movq	%rbx, -24(%rbp)
	leaq	L___unnamed_53(%rip), %rsi
	leaq	l___unnamed_118(%rip), %r8
	leaq	-24(%rbp), %rcx
	movl	$4, %edx
	movq	%r14, %rdi
	callq	__ZN4core3fmt8builders11DebugStruct5field17h6c54d35ac41bb1e6E
	movq	%r14, %rdi
	callq	__ZN4core3fmt8builders11DebugStruct6finish17h67ed49fd5e81bb24E
	addq	$32, %rsp
	popq	%rbx
	popq	%r14
	popq	%rbp
	retq
	.cfi_endproc

	.p2align	4, 0x90
__ZN42_$LT$$RF$T$u20$as$u20$core..fmt..Debug$GT$3fmt17hdaa9cb457d843d59E:
	.cfi_startproc
	pushq	%rbp
	.cfi_def_cfa_offset 16
	.cfi_offset %rbp, -16
	movq	%rsp, %rbp
	.cfi_def_cfa_register %rbp
	pushq	%r15
	pushq	%r14
	pushq	%r13
	pushq	%r12
	pushq	%rbx
	subq	$24, %rsp
	.cfi_offset %rbx, -56
	.cfi_offset %r12, -48
	.cfi_offset %r13, -40
	.cfi_offset %r14, -32
	.cfi_offset %r15, -24
	movq	(%rdi), %rax
	movq	(%rax), %rbx
	movq	16(%rax), %r13
	leaq	-64(%rbp), %rdi
	callq	__ZN4core3fmt9Formatter10debug_list17h113a4e31f24f00d7E
	testq	%r13, %r13
	je	LBB150_3
	shlq	$3, %r13
	leaq	l___unnamed_3(%rip), %r14
	leaq	-64(%rbp), %r15
	leaq	-48(%rbp), %r12
	.p2align	4, 0x90
LBB150_2:
	movq	%rbx, -48(%rbp)
	addq	$8, %rbx
	movq	%r15, %rdi
	movq	%r12, %rsi
	movq	%r14, %rdx
	callq	__ZN4core3fmt8builders9DebugList5entry17h2dea26f6c644471aE
	addq	$-8, %r13
	jne	LBB150_2
LBB150_3:
	leaq	-64(%rbp), %rdi
	callq	__ZN4core3fmt8builders9DebugList6finish17h1537bc92ee1acb1cE
	addq	$24, %rsp
	popq	%rbx
	popq	%r12
	popq	%r13
	popq	%r14
	popq	%r15
	popq	%rbp
	retq
	.cfi_endproc

	.p2align	4, 0x90
__ZN42_$LT$$RF$T$u20$as$u20$core..fmt..Debug$GT$3fmt17hdb9c16793aacabc8E:
	.cfi_startproc
	pushq	%rbp
	.cfi_def_cfa_offset 16
	.cfi_offset %rbp, -16
	movq	%rsp, %rbp
	.cfi_def_cfa_register %rbp
	movq	(%rdi), %rdi
	popq	%rbp
	jmp	__ZN71_$LT$object..pe..ImageRomOptionalHeader$u20$as$u20$core..fmt..Debug$GT$3fmt17ha866f1914d9a0227E
	.cfi_endproc

	.p2align	4, 0x90
__ZN42_$LT$$RF$T$u20$as$u20$core..fmt..Debug$GT$3fmt17hdf904079c7809a6bE:
	.cfi_startproc
	pushq	%rbp
	.cfi_def_cfa_offset 16
	.cfi_offset %rbp, -16
	movq	%rsp, %rbp
	.cfi_def_cfa_register %rbp
	pushq	%r15
	pushq	%r14
	pushq	%r13
	pushq	%r12
	pushq	%rbx
	subq	$40, %rsp
	.cfi_offset %rbx, -56
	.cfi_offset %r12, -48
	.cfi_offset %r13, -40
	.cfi_offset %r14, -32
	.cfi_offset %r15, -24
	movq	(%rdi), %rbx
	leaq	-80(%rbp), %r12
	movq	%r12, %rdi
	callq	__ZN4core3fmt9Formatter10debug_list17h113a4e31f24f00d7E
	leaq	1(%rbx), %rax
	movq	%rax, -56(%rbp)
	movq	%rbx, -48(%rbp)
	leaq	l___unnamed_11(%rip), %r14
	leaq	-48(%rbp), %r15
	movq	%r12, %rdi
	movq	%r15, %rsi
	movq	%r14, %rdx
	callq	__ZN4core3fmt8builders9DebugList5entry17h2dea26f6c644471aE
	leaq	2(%rbx), %r13
	movq	-56(%rbp), %rax
	movq	%rax, -48(%rbp)
	movq	%r12, %rdi
	movq	%r15, %rsi
	movq	%r14, %rdx
	callq	__ZN4core3fmt8builders9DebugList5entry17h2dea26f6c644471aE
	leaq	3(%rbx), %rax
	movq	%rax, -56(%rbp)
	movq	%r13, -48(%rbp)
	movq	%r12, %rdi
	movq	%r15, %rsi
	movq	%r14, %rdx
	callq	__ZN4core3fmt8builders9DebugList5entry17h2dea26f6c644471aE
	leaq	4(%rbx), %r13
	movq	-56(%rbp), %rax
	movq	%rax, -48(%rbp)
	movq	%r12, %rdi
	movq	%r15, %rsi
	movq	%r14, %rdx
	callq	__ZN4core3fmt8builders9DebugList5entry17h2dea26f6c644471aE
	leaq	5(%rbx), %rax
	movq	%rax, -56(%rbp)
	movq	%r13, -48(%rbp)
	movq	%r12, %rdi
	movq	%r15, %rsi
	movq	%r14, %rdx
	callq	__ZN4core3fmt8builders9DebugList5entry17h2dea26f6c644471aE
	leaq	6(%rbx), %r13
	movq	-56(%rbp), %rax
	movq	%rax, -48(%rbp)
	movq	%r12, %rdi
	movq	%r15, %rsi
	movq	%r14, %rdx
	callq	__ZN4core3fmt8builders9DebugList5entry17h2dea26f6c644471aE
	leaq	7(%rbx), %rax
	movq	%rax, -56(%rbp)
	movq	%r13, -48(%rbp)
	movq	%r12, %rdi
	movq	%r15, %rsi
	movq	%r14, %rdx
	callq	__ZN4core3fmt8builders9DebugList5entry17h2dea26f6c644471aE
	leaq	8(%rbx), %r13
	movq	-56(%rbp), %rax
	movq	%rax, -48(%rbp)
	movq	%r12, %rdi
	movq	%r15, %rsi
	movq	%r14, %rdx
	callq	__ZN4core3fmt8builders9DebugList5entry17h2dea26f6c644471aE
	leaq	9(%rbx), %rax
	movq	%rax, -56(%rbp)
	movq	%r13, -48(%rbp)
	movq	%r12, %rdi
	movq	%r15, %rsi
	movq	%r14, %rdx
	callq	__ZN4core3fmt8builders9DebugList5entry17h2dea26f6c644471aE
	leaq	10(%rbx), %r13
	movq	-56(%rbp), %rax
	movq	%rax, -48(%rbp)
	movq	%r12, %rdi
	movq	%r15, %rsi
	movq	%r14, %rdx
	callq	__ZN4core3fmt8builders9DebugList5entry17h2dea26f6c644471aE
	leaq	11(%rbx), %rax
	movq	%rax, -56(%rbp)
	movq	%r13, -48(%rbp)
	movq	%r12, %rdi
	movq	%r15, %rsi
	movq	%r14, %rdx
	callq	__ZN4core3fmt8builders9DebugList5entry17h2dea26f6c644471aE
	leaq	12(%rbx), %r13
	movq	-56(%rbp), %rax
	movq	%rax, -48(%rbp)
	movq	%r12, %rdi
	movq	%r15, %rsi
	movq	%r14, %rdx
	callq	__ZN4core3fmt8builders9DebugList5entry17h2dea26f6c644471aE
	leaq	13(%rbx), %rax
	movq	%rax, -56(%rbp)
	movq	%r13, -48(%rbp)
	movq	%r12, %rdi
	movq	%r15, %rsi
	movq	%r14, %rdx
	callq	__ZN4core3fmt8builders9DebugList5entry17h2dea26f6c644471aE
	leaq	14(%rbx), %r13
	movq	-56(%rbp), %rax
	movq	%rax, -48(%rbp)
	movq	%r12, %rdi
	movq	%r15, %rsi
	movq	%r14, %rdx
	callq	__ZN4core3fmt8builders9DebugList5entry17h2dea26f6c644471aE
	leaq	15(%rbx), %rax
	movq	%rax, -56(%rbp)
	movq	%r13, -48(%rbp)
	movq	%r12, %rdi
	movq	%r15, %rsi
	movq	%r14, %rdx
	callq	__ZN4core3fmt8builders9DebugList5entry17h2dea26f6c644471aE
	leaq	16(%rbx), %r13
	movq	-56(%rbp), %rax
	movq	%rax, -48(%rbp)
	movq	%r12, %rdi
	movq	%r15, %rsi
	movq	%r14, %rdx
	callq	__ZN4core3fmt8builders9DebugList5entry17h2dea26f6c644471aE
	leaq	17(%rbx), %rax
	movq	%rax, -56(%rbp)
	movq	%r13, -48(%rbp)
	movq	%r12, %rdi
	movq	%r15, %rsi
	movq	%r14, %rdx
	callq	__ZN4core3fmt8builders9DebugList5entry17h2dea26f6c644471aE
	leaq	18(%rbx), %r13
	movq	-56(%rbp), %rax
	movq	%rax, -48(%rbp)
	movq	%r12, %rdi
	movq	%r15, %rsi
	movq	%r14, %rdx
	callq	__ZN4core3fmt8builders9DebugList5entry17h2dea26f6c644471aE
	leaq	19(%rbx), %rax
	movq	%rax, -56(%rbp)
	movq	%r13, -48(%rbp)
	movq	%r12, %rdi
	movq	%r15, %rsi
	movq	%r14, %rdx
	callq	__ZN4core3fmt8builders9DebugList5entry17h2dea26f6c644471aE
	leaq	20(%rbx), %r13
	movq	-56(%rbp), %rax
	movq	%rax, -48(%rbp)
	movq	%r12, %rdi
	movq	%r15, %rsi
	movq	%r14, %rdx
	callq	__ZN4core3fmt8builders9DebugList5entry17h2dea26f6c644471aE
	leaq	21(%rbx), %rax
	movq	%rax, -56(%rbp)
	movq	%r13, -48(%rbp)
	movq	%r12, %rdi
	movq	%r15, %rsi
	movq	%r14, %rdx
	callq	__ZN4core3fmt8builders9DebugList5entry17h2dea26f6c644471aE
	leaq	22(%rbx), %r13
	movq	-56(%rbp), %rax
	movq	%rax, -48(%rbp)
	movq	%r12, %rdi
	movq	%r15, %rsi
	movq	%r14, %rdx
	callq	__ZN4core3fmt8builders9DebugList5entry17h2dea26f6c644471aE
	leaq	23(%rbx), %rax
	movq	%rax, -56(%rbp)
	movq	%r13, -48(%rbp)
	movq	%r12, %rdi
	movq	%r15, %rsi
	movq	%r14, %rdx
	callq	__ZN4core3fmt8builders9DebugList5entry17h2dea26f6c644471aE
	leaq	24(%rbx), %r13
	movq	-56(%rbp), %rax
	movq	%rax, -48(%rbp)
	movq	%r12, %rdi
	movq	%r15, %rsi
	movq	%r14, %rdx
	callq	__ZN4core3fmt8builders9DebugList5entry17h2dea26f6c644471aE
	leaq	25(%rbx), %rax
	movq	%rax, -56(%rbp)
	movq	%r13, -48(%rbp)
	movq	%r12, %rdi
	movq	%r15, %rsi
	movq	%r14, %rdx
	callq	__ZN4core3fmt8builders9DebugList5entry17h2dea26f6c644471aE
	leaq	26(%rbx), %r13
	movq	-56(%rbp), %rax
	movq	%rax, -48(%rbp)
	movq	%r12, %rdi
	movq	%r15, %rsi
	movq	%r14, %rdx
	callq	__ZN4core3fmt8builders9DebugList5entry17h2dea26f6c644471aE
	leaq	27(%rbx), %rax
	movq	%rax, -56(%rbp)
	movq	%r13, -48(%rbp)
	movq	%r12, %rdi
	movq	%r15, %rsi
	movq	%r14, %rdx
	callq	__ZN4core3fmt8builders9DebugList5entry17h2dea26f6c644471aE
	leaq	28(%rbx), %rax
	movq	%rax, -64(%rbp)
	movq	-56(%rbp), %rax
	movq	%rax, -48(%rbp)
	movq	%r12, %rdi
	movq	%r15, %rsi
	movq	%r14, %rdx
	callq	__ZN4core3fmt8builders9DebugList5entry17h2dea26f6c644471aE
	leaq	29(%rbx), %r13
	movq	-64(%rbp), %rax
	movq	%rax, -48(%rbp)
	movq	%r12, %rdi
	movq	%r15, %rsi
	movq	%r14, %rdx
	callq	__ZN4core3fmt8builders9DebugList5entry17h2dea26f6c644471aE
	movq	%r13, -48(%rbp)
	movq	%r12, %rdi
	movq	%r15, %rsi
	movq	%r14, %rdx
	callq	__ZN4core3fmt8builders9DebugList5entry17h2dea26f6c644471aE
	leaq	30(%rbx), %rax
	addq	$31, %rbx
	movq	%rax, -48(%rbp)
	movq	%r12, %rdi
	movq	%r15, %rsi
	movq	%r14, %rdx
	callq	__ZN4core3fmt8builders9DebugList5entry17h2dea26f6c644471aE
	movq	%rbx, -48(%rbp)
	movq	%r12, %rdi
	movq	%r15, %rsi
	movq	%r14, %rdx
	callq	__ZN4core3fmt8builders9DebugList5entry17h2dea26f6c644471aE
	movq	%r12, %rdi
	callq	__ZN4core3fmt8builders9DebugList6finish17h1537bc92ee1acb1cE
	addq	$40, %rsp
	popq	%rbx
	popq	%r12
	popq	%r13
	popq	%r14
	popq	%r15
	popq	%rbp
	retq
	.cfi_endproc

	.p2align	4, 0x90
__ZN42_$LT$$RF$T$u20$as$u20$core..fmt..Debug$GT$3fmt17he022cb0328e724bdE:
	.cfi_startproc
	pushq	%rbp
	.cfi_def_cfa_offset 16
	.cfi_offset %rbp, -16
	movq	%rsp, %rbp
	.cfi_def_cfa_register %rbp
	pushq	%r15
	pushq	%r14
	pushq	%r13
	pushq	%r12
	pushq	%rbx
	subq	$56, %rsp
	.cfi_offset %rbx, -56
	.cfi_offset %r12, -48
	.cfi_offset %r13, -40
	.cfi_offset %r14, -32
	.cfi_offset %r15, -24
	movq	(%rdi), %rbx
	leaq	l___unnamed_258(%rip), %rdx
	leaq	-96(%rbp), %r13
	movl	$15, %ecx
	movq	%r13, %rdi
	callq	__ZN4core3fmt9Formatter12debug_struct17ha1a64e91d2a98458E
	movq	%rbx, -48(%rbp)
	leaq	4(%rbx), %r15
	leaq	8(%rbx), %r12
	leaq	12(%rbx), %rax
	movq	%rax, -56(%rbp)
	leaq	16(%rbx), %rax
	movq	%rax, -64(%rbp)
	leaq	20(%rbx), %rax
	movq	%rax, -72(%rbp)
	leaq	24(%rbx), %rax
	movq	%rax, -80(%rbp)
	leaq	28(%rbx), %rbx
	leaq	l___unnamed_65(%rip), %rsi
	leaq	l___unnamed_45(%rip), %r14
	leaq	-48(%rbp), %rcx
	movl	$6, %edx
	movq	%r13, %rdi
	movq	%r14, %r8
	callq	__ZN4core3fmt8builders11DebugStruct5field17h6c54d35ac41bb1e6E
	movq	%r15, -48(%rbp)
	leaq	L___unnamed_67(%rip), %rsi
	leaq	-48(%rbp), %rcx
	movl	$8, %edx
	movq	%r13, %rdi
	movq	%r14, %r8
	callq	__ZN4core3fmt8builders11DebugStruct5field17h6c54d35ac41bb1e6E
	movq	%r12, -48(%rbp)
	leaq	l___unnamed_69(%rip), %rsi
	leaq	-48(%rbp), %rcx
	movl	$7, %edx
	movq	%r13, %rdi
	movq	%r14, %r8
	callq	__ZN4core3fmt8builders11DebugStruct5field17h6c54d35ac41bb1e6E
	movq	-56(%rbp), %rax
	movq	%rax, -48(%rbp)
	leaq	l___unnamed_70(%rip), %rsi
	leaq	-48(%rbp), %rcx
	movl	$7, %edx
	movq	%r13, %rdi
	movq	%r14, %r8
	callq	__ZN4core3fmt8builders11DebugStruct5field17h6c54d35ac41bb1e6E
	movq	-64(%rbp), %rax
	movq	%rax, -48(%rbp)
	leaq	L___unnamed_71(%rip), %rsi
	leaq	-48(%rbp), %rcx
	movl	$8, %edx
	movq	%r13, %rdi
	movq	%r14, %r8
	callq	__ZN4core3fmt8builders11DebugStruct5field17h6c54d35ac41bb1e6E
	movq	-72(%rbp), %rax
	movq	%rax, -48(%rbp)
	leaq	l___unnamed_72(%rip), %rsi
	leaq	-48(%rbp), %rcx
	movl	$7, %edx
	movq	%r13, %rdi
	movq	%r14, %r8
	callq	__ZN4core3fmt8builders11DebugStruct5field17h6c54d35ac41bb1e6E
	movq	-80(%rbp), %rax
	movq	%rax, -48(%rbp)
	leaq	l___unnamed_66(%rip), %rsi
	leaq	-48(%rbp), %rcx
	movl	$7, %edx
	movq	%r13, %rdi
	movq	%r14, %r8
	callq	__ZN4core3fmt8builders11DebugStruct5field17h6c54d35ac41bb1e6E
	movq	%rbx, -48(%rbp)
	leaq	l___unnamed_73(%rip), %rsi
	leaq	-48(%rbp), %rcx
	movl	$7, %edx
	movq	%r13, %rdi
	movq	%r14, %r8
	callq	__ZN4core3fmt8builders11DebugStruct5field17h6c54d35ac41bb1e6E
	movq	%r13, %rdi
	callq	__ZN4core3fmt8builders11DebugStruct6finish17h67ed49fd5e81bb24E
	addq	$56, %rsp
	popq	%rbx
	popq	%r12
	popq	%r13
	popq	%r14
	popq	%r15
	popq	%rbp
	retq
	.cfi_endproc

	.p2align	4, 0x90
__ZN42_$LT$$RF$T$u20$as$u20$core..fmt..Debug$GT$3fmt17he062869bc6a9a745E:
	.cfi_startproc
	pushq	%rbp
	.cfi_def_cfa_offset 16
	.cfi_offset %rbp, -16
	movq	%rsp, %rbp
	.cfi_def_cfa_register %rbp
	pushq	%r14
	pushq	%rbx
	subq	$32, %rsp
	.cfi_offset %rbx, -32
	.cfi_offset %r14, -24
	movq	(%rdi), %rbx
	leaq	l___unnamed_259(%rip), %rdx
	leaq	-40(%rbp), %r14
	movl	$11, %ecx
	movq	%r14, %rdi
	callq	__ZN4core3fmt9Formatter12debug_struct17ha1a64e91d2a98458E
	movq	%rbx, -24(%rbp)
	leaq	L___unnamed_20(%rip), %rsi
	leaq	l___unnamed_21(%rip), %r8
	leaq	-24(%rbp), %rcx
	movl	$4, %edx
	movq	%r14, %rdi
	callq	__ZN4core3fmt8builders11DebugStruct5field17h6c54d35ac41bb1e6E
	movq	%r14, %rdi
	callq	__ZN4core3fmt8builders11DebugStruct6finish17h67ed49fd5e81bb24E
	addq	$32, %rsp
	popq	%rbx
	popq	%r14
	popq	%rbp
	retq
	.cfi_endproc

	.p2align	4, 0x90
__ZN42_$LT$$RF$T$u20$as$u20$core..fmt..Debug$GT$3fmt17he1801c040fcc5afdE:
	.cfi_startproc
	pushq	%rbp
	.cfi_def_cfa_offset 16
	.cfi_offset %rbp, -16
	movq	%rsp, %rbp
	.cfi_def_cfa_register %rbp
	pushq	%r15
	pushq	%r14
	pushq	%r13
	pushq	%r12
	pushq	%rbx
	subq	$40, %rsp
	.cfi_offset %rbx, -56
	.cfi_offset %r12, -48
	.cfi_offset %r13, -40
	.cfi_offset %r14, -32
	.cfi_offset %r15, -24
	movq	(%rdi), %rbx
	leaq	l___unnamed_130(%rip), %rdx
	leaq	-72(%rbp), %r13
	movl	$6, %ecx
	movq	%r13, %rdi
	callq	__ZN4core3fmt9Formatter12debug_struct17ha1a64e91d2a98458E
	movq	%rbx, -48(%rbp)
	leaq	8(%rbx), %r14
	leaq	16(%rbx), %r15
	leaq	32(%rbx), %r12
	leaq	48(%rbx), %rax
	movq	%rax, -56(%rbp)
	leaq	80(%rbx), %rbx
	leaq	l___unnamed_131(%rip), %rsi
	leaq	l___unnamed_132(%rip), %r8
	leaq	-48(%rbp), %rcx
	movl	$10, %edx
	movq	%r13, %rdi
	callq	__ZN4core3fmt8builders11DebugStruct5field17h6c54d35ac41bb1e6E
	movq	%r14, -48(%rbp)
	leaq	l___unnamed_133(%rip), %rsi
	leaq	l___unnamed_260(%rip), %r8
	leaq	-48(%rbp), %rcx
	movl	$10, %edx
	movq	%r13, %rdi
	callq	__ZN4core3fmt8builders11DebugStruct5field17h6c54d35ac41bb1e6E
	movq	%r15, -48(%rbp)
	leaq	L___unnamed_135(%rip), %rsi
	leaq	l___unnamed_136(%rip), %r8
	leaq	-48(%rbp), %rcx
	movl	$16, %edx
	movq	%r13, %rdi
	callq	__ZN4core3fmt8builders11DebugStruct5field17h6c54d35ac41bb1e6E
	movq	%r12, -48(%rbp)
	leaq	L___unnamed_24(%rip), %rsi
	leaq	l___unnamed_137(%rip), %r8
	leaq	-48(%rbp), %rcx
	movl	$8, %edx
	movq	%r13, %rdi
	callq	__ZN4core3fmt8builders11DebugStruct5field17h6c54d35ac41bb1e6E
	movq	-56(%rbp), %rax
	movq	%rax, -48(%rbp)
	leaq	l___unnamed_13(%rip), %rsi
	leaq	l___unnamed_138(%rip), %r8
	leaq	-48(%rbp), %rcx
	movl	$7, %edx
	movq	%r13, %rdi
	callq	__ZN4core3fmt8builders11DebugStruct5field17h6c54d35ac41bb1e6E
	movq	%rbx, -48(%rbp)
	leaq	L___unnamed_20(%rip), %rsi
	leaq	l___unnamed_21(%rip), %r8
	leaq	-48(%rbp), %rcx
	movl	$4, %edx
	movq	%r13, %rdi
	callq	__ZN4core3fmt8builders11DebugStruct5field17h6c54d35ac41bb1e6E
	movq	%r13, %rdi
	callq	__ZN4core3fmt8builders11DebugStruct6finish17h67ed49fd5e81bb24E
	addq	$40, %rsp
	popq	%rbx
	popq	%r12
	popq	%r13
	popq	%r14
	popq	%r15
	popq	%rbp
	retq
	.cfi_endproc

	.p2align	4, 0x90
__ZN42_$LT$$RF$T$u20$as$u20$core..fmt..Debug$GT$3fmt17he2df0ec55b3192bcE:
	.cfi_startproc
	pushq	%rbp
	.cfi_def_cfa_offset 16
	.cfi_offset %rbp, -16
	movq	%rsp, %rbp
	.cfi_def_cfa_register %rbp
	pushq	%r14
	pushq	%rbx
	subq	$32, %rsp
	.cfi_offset %rbx, -32
	.cfi_offset %r14, -24
	movq	(%rdi), %rbx
	leaq	l___unnamed_227(%rip), %rdx
	leaq	-40(%rbp), %r14
	movl	$20, %ecx
	movq	%r14, %rdi
	callq	__ZN4core3fmt9Formatter12debug_struct17ha1a64e91d2a98458E
	movq	%rbx, -24(%rbp)
	addq	$8, %rbx
	leaq	L___unnamed_5(%rip), %rsi
	leaq	l___unnamed_245(%rip), %r8
	leaq	-24(%rbp), %rcx
	movl	$4, %edx
	movq	%r14, %rdi
	callq	__ZN4core3fmt8builders11DebugStruct5field17h6c54d35ac41bb1e6E
	movq	%rbx, -24(%rbp)
	leaq	L___unnamed_228(%rip), %rsi
	leaq	l___unnamed_229(%rip), %r8
	leaq	-24(%rbp), %rcx
	movl	$8, %edx
	movq	%r14, %rdi
	callq	__ZN4core3fmt8builders11DebugStruct5field17h6c54d35ac41bb1e6E
	movq	%r14, %rdi
	callq	__ZN4core3fmt8builders11DebugStruct6finish17h67ed49fd5e81bb24E
	addq	$32, %rsp
	popq	%rbx
	popq	%r14
	popq	%rbp
	retq
	.cfi_endproc

	.p2align	4, 0x90
__ZN42_$LT$$RF$T$u20$as$u20$core..fmt..Debug$GT$3fmt17he32441cc2f6b5ee6E:
	.cfi_startproc
	pushq	%rbp
	.cfi_def_cfa_offset 16
	.cfi_offset %rbp, -16
	movq	%rsp, %rbp
	.cfi_def_cfa_register %rbp
	pushq	%r15
	pushq	%r14
	pushq	%rbx
	subq	$40, %rsp
	.cfi_offset %rbx, -40
	.cfi_offset %r14, -32
	.cfi_offset %r15, -24
	movq	(%rdi), %rbx
	movzbl	(%rbx), %eax
	leaq	LJTI157_0(%rip), %rcx
	movslq	(%rcx,%rax,4), %rax
	addq	%rcx, %rax
	jmpq	*%rax
LBB157_2:
	leaq	L___unnamed_94(%rip), %rdx
	leaq	-56(%rbp), %rbx
	movl	$4, %ecx
	movq	%rbx, %rdi
	callq	__ZN4core3fmt9Formatter11debug_tuple17h6c448643801d07e8E
	movq	%rbx, %rdi
	callq	__ZN4core3fmt8builders10DebugTuple6finish17h9f206806f7096c33E
	jmp	LBB157_7
LBB157_4:
	addq	$2, %rbx
	leaq	l___unnamed_261(%rip), %rdx
	leaq	-56(%rbp), %r14
	movl	$5, %ecx
	movq	%r14, %rdi
	callq	__ZN4core3fmt9Formatter12debug_struct17ha1a64e91d2a98458E
	movq	%rbx, -32(%rbp)
	leaq	l___unnamed_78(%rip), %rsi
	leaq	l___unnamed_262(%rip), %r8
	leaq	-32(%rbp), %rcx
	movl	$6, %edx
	jmp	LBB157_5
LBB157_1:
	leaq	1(%rbx), %r15
	addq	$8, %rbx
	leaq	l___unnamed_263(%rip), %rdx
	leaq	-56(%rbp), %r14
	movl	$11, %ecx
	movq	%r14, %rdi
	callq	__ZN4core3fmt9Formatter12debug_struct17ha1a64e91d2a98458E
	movq	%r15, -32(%rbp)
	leaq	l___unnamed_264(%rip), %rsi
	leaq	l___unnamed_11(%rip), %r8
	leaq	-32(%rbp), %rcx
	movl	$9, %edx
	movq	%r14, %rdi
	callq	__ZN4core3fmt8builders11DebugStruct5field17h6c54d35ac41bb1e6E
	movq	%rbx, -32(%rbp)
	leaq	l___unnamed_265(%rip), %rsi
	leaq	l___unnamed_98(%rip), %r8
	leaq	-32(%rbp), %rcx
	movl	$19, %edx
LBB157_5:
	movq	%r14, %rdi
	callq	__ZN4core3fmt8builders11DebugStruct5field17h6c54d35ac41bb1e6E
	movq	%r14, %rdi
	jmp	LBB157_6
LBB157_3:
	leaq	1(%rbx), %r14
	addq	$2, %rbx
	leaq	l___unnamed_266(%rip), %rdx
	leaq	-56(%rbp), %r15
	movl	$3, %ecx
	movq	%r15, %rdi
	callq	__ZN4core3fmt9Formatter12debug_struct17ha1a64e91d2a98458E
	movq	%r14, -32(%rbp)
	leaq	l___unnamed_234(%rip), %rsi
	leaq	l___unnamed_11(%rip), %r14
	leaq	-32(%rbp), %rcx
	movl	$7, %edx
	movq	%r15, %rdi
	movq	%r14, %r8
	callq	__ZN4core3fmt8builders11DebugStruct5field17h6c54d35ac41bb1e6E
	movq	%rbx, -32(%rbp)
	leaq	L___unnamed_235(%rip), %rsi
	leaq	-32(%rbp), %rcx
	movl	$8, %edx
	movq	%r15, %rdi
	movq	%r14, %r8
	callq	__ZN4core3fmt8builders11DebugStruct5field17h6c54d35ac41bb1e6E
	movq	%r15, %rdi
LBB157_6:
	callq	__ZN4core3fmt8builders11DebugStruct6finish17h67ed49fd5e81bb24E
LBB157_7:
	addq	$40, %rsp
	popq	%rbx
	popq	%r14
	popq	%r15
	popq	%rbp
	retq
	.cfi_endproc
	.p2align	2, 0x90
	.data_region jt32
.set L157_0_set_2, LBB157_2-LJTI157_0
.set L157_0_set_3, LBB157_3-LJTI157_0
.set L157_0_set_4, LBB157_4-LJTI157_0
.set L157_0_set_1, LBB157_1-LJTI157_0
LJTI157_0:
	.long	L157_0_set_2
	.long	L157_0_set_3
	.long	L157_0_set_4
	.long	L157_0_set_1
	.end_data_region

	.p2align	4, 0x90
__ZN42_$LT$$RF$T$u20$as$u20$core..fmt..Debug$GT$3fmt17he39240099a6a0428E:
	.cfi_startproc
	pushq	%rbp
	.cfi_def_cfa_offset 16
	.cfi_offset %rbp, -16
	movq	%rsp, %rbp
	.cfi_def_cfa_register %rbp
	pushq	%r15
	pushq	%r14
	pushq	%r13
	pushq	%r12
	pushq	%rbx
	subq	$24, %rsp
	.cfi_offset %rbx, -56
	.cfi_offset %r12, -48
	.cfi_offset %r13, -40
	.cfi_offset %r14, -32
	.cfi_offset %r15, -24
	movq	(%rdi), %rax
	movq	(%rax), %r13
	movq	8(%rax), %rbx
	leaq	-64(%rbp), %rdi
	callq	__ZN4core3fmt9Formatter10debug_list17h113a4e31f24f00d7E
	testq	%rbx, %rbx
	je	LBB158_3
	shlq	$3, %rbx
	leaq	(%rbx,%rbx,2), %rbx
	leaq	l___unnamed_267(%rip), %r14
	leaq	-64(%rbp), %r15
	leaq	-48(%rbp), %r12
	.p2align	4, 0x90
LBB158_2:
	movq	%r13, -48(%rbp)
	addq	$24, %r13
	movq	%r15, %rdi
	movq	%r12, %rsi
	movq	%r14, %rdx
	callq	__ZN4core3fmt8builders9DebugList5entry17h2dea26f6c644471aE
	addq	$-24, %rbx
	jne	LBB158_2
LBB158_3:
	leaq	-64(%rbp), %rdi
	callq	__ZN4core3fmt8builders9DebugList6finish17h1537bc92ee1acb1cE
	addq	$24, %rsp
	popq	%rbx
	popq	%r12
	popq	%r13
	popq	%r14
	popq	%r15
	popq	%rbp
	retq
	.cfi_endproc

	.p2align	4, 0x90
__ZN42_$LT$$RF$T$u20$as$u20$core..fmt..Debug$GT$3fmt17he4a67929dea1d788E:
	.cfi_startproc
	pushq	%rbp
	.cfi_def_cfa_offset 16
	.cfi_offset %rbp, -16
	movq	%rsp, %rbp
	.cfi_def_cfa_register %rbp
	pushq	%r15
	pushq	%r14
	pushq	%r13
	pushq	%r12
	pushq	%rbx
	subq	$24, %rsp
	.cfi_offset %rbx, -56
	.cfi_offset %r12, -48
	.cfi_offset %r13, -40
	.cfi_offset %r14, -32
	.cfi_offset %r15, -24
	movq	(%rdi), %rbx
	leaq	l___unnamed_12(%rip), %rdx
	leaq	-64(%rbp), %r15
	movl	$11, %ecx
	movq	%r15, %rdi
	callq	__ZN4core3fmt9Formatter12debug_struct17ha1a64e91d2a98458E
	movq	%rbx, -48(%rbp)
	leaq	8(%rbx), %r12
	leaq	24(%rbx), %r13
	leaq	40(%rbx), %r14
	leaq	l___unnamed_7(%rip), %rsi
	leaq	l___unnamed_3(%rip), %r8
	leaq	-48(%rbp), %rcx
	movl	$7, %edx
	movq	%r15, %rdi
	callq	__ZN4core3fmt8builders11DebugStruct5field17h6c54d35ac41bb1e6E
	movq	%r12, -48(%rbp)
	leaq	l___unnamed_13(%rip), %rsi
	leaq	l___unnamed_268(%rip), %r8
	leaq	-48(%rbp), %rcx
	movl	$7, %edx
	movq	%r15, %rdi
	callq	__ZN4core3fmt8builders11DebugStruct5field17h6c54d35ac41bb1e6E
	movq	%r13, -48(%rbp)
	leaq	l___unnamed_15(%rip), %rsi
	leaq	l___unnamed_16(%rip), %r8
	leaq	-48(%rbp), %rcx
	movl	$7, %edx
	movq	%r15, %rdi
	callq	__ZN4core3fmt8builders11DebugStruct5field17h6c54d35ac41bb1e6E
	movq	%r14, -48(%rbp)
	leaq	l___unnamed_38(%rip), %rsi
	leaq	l___unnamed_39(%rip), %r8
	leaq	-48(%rbp), %rcx
	movl	$5, %edx
	movq	%r15, %rdi
	callq	__ZN4core3fmt8builders11DebugStruct5field17h6c54d35ac41bb1e6E
	movq	%r15, %rdi
	callq	__ZN4core3fmt8builders11DebugStruct6finish17h67ed49fd5e81bb24E
	addq	$24, %rsp
	popq	%rbx
	popq	%r12
	popq	%r13
	popq	%r14
	popq	%r15
	popq	%rbp
	retq
	.cfi_endproc

	.p2align	4, 0x90
__ZN42_$LT$$RF$T$u20$as$u20$core..fmt..Debug$GT$3fmt17he4b6d1aad7a5f687E:
	.cfi_startproc
	pushq	%rbp
	.cfi_def_cfa_offset 16
	.cfi_offset %rbp, -16
	movq	%rsp, %rbp
	.cfi_def_cfa_register %rbp
	pushq	%r15
	pushq	%r14
	pushq	%r13
	pushq	%r12
	pushq	%rbx
	subq	$40, %rsp
	.cfi_offset %rbx, -56
	.cfi_offset %r12, -48
	.cfi_offset %r13, -40
	.cfi_offset %r14, -32
	.cfi_offset %r15, -24
	movq	(%rdi), %rbx
	leaq	208(%rbx), %r14
	leaq	l___unnamed_171(%rip), %rdx
	leaq	-80(%rbp), %r15
	movl	$7, %ecx
	movq	%r15, %rdi
	callq	__ZN4core3fmt9Formatter12debug_struct17ha1a64e91d2a98458E
	movq	%r14, -48(%rbp)
	leaq	l___unnamed_18(%rip), %rsi
	leaq	l___unnamed_19(%rip), %r8
	leaq	-48(%rbp), %rcx
	movl	$6, %edx
	movq	%r15, %rdi
	callq	__ZN4core3fmt8builders11DebugStruct5field17h6c54d35ac41bb1e6E
	movq	%rbx, -48(%rbp)
	leaq	16(%rbx), %r14
	leaq	24(%rbx), %r12
	leaq	40(%rbx), %r13
	leaq	72(%rbx), %rax
	movq	%rax, -56(%rbp)
	leaq	96(%rbx), %rax
	movq	%rax, -64(%rbp)
	leaq	152(%rbx), %rbx
	leaq	L___unnamed_20(%rip), %rsi
	leaq	l___unnamed_21(%rip), %r8
	leaq	-48(%rbp), %rcx
	movl	$4, %edx
	movq	%r15, %rdi
	callq	__ZN4core3fmt8builders11DebugStruct5field17h6c54d35ac41bb1e6E
	movq	%r14, -48(%rbp)
	leaq	l___unnamed_22(%rip), %rsi
	leaq	l___unnamed_269(%rip), %r8
	leaq	-48(%rbp), %rcx
	movl	$6, %edx
	movq	%r15, %rdi
	callq	__ZN4core3fmt8builders11DebugStruct5field17h6c54d35ac41bb1e6E
	movq	%r12, -48(%rbp)
	leaq	L___unnamed_173(%rip), %rsi
	leaq	l___unnamed_270(%rip), %r8
	leaq	-48(%rbp), %rcx
	movl	$8, %edx
	movq	%r15, %rdi
	callq	__ZN4core3fmt8builders11DebugStruct5field17h6c54d35ac41bb1e6E
	movq	%r13, -48(%rbp)
	leaq	L___unnamed_24(%rip), %rsi
	leaq	l___unnamed_271(%rip), %r8
	leaq	-48(%rbp), %rcx
	movl	$8, %edx
	movq	%r15, %rdi
	callq	__ZN4core3fmt8builders11DebugStruct5field17h6c54d35ac41bb1e6E
	movq	-56(%rbp), %rax
	movq	%rax, -48(%rbp)
	leaq	l___unnamed_62(%rip), %rsi
	leaq	l___unnamed_176(%rip), %r8
	leaq	-48(%rbp), %rcx
	movl	$11, %edx
	movq	%r15, %rdi
	callq	__ZN4core3fmt8builders11DebugStruct5field17h6c54d35ac41bb1e6E
	movq	-64(%rbp), %rax
	movq	%rax, -48(%rbp)
	leaq	l___unnamed_13(%rip), %rsi
	leaq	l___unnamed_272(%rip), %r14
	leaq	-48(%rbp), %rcx
	movl	$7, %edx
	movq	%r15, %rdi
	movq	%r14, %r8
	callq	__ZN4core3fmt8builders11DebugStruct5field17h6c54d35ac41bb1e6E
	movq	%rbx, -48(%rbp)
	leaq	l___unnamed_178(%rip), %rsi
	leaq	-48(%rbp), %rcx
	movl	$15, %edx
	movq	%r15, %rdi
	movq	%r14, %r8
	callq	__ZN4core3fmt8builders11DebugStruct5field17h6c54d35ac41bb1e6E
	movq	%r15, %rdi
	callq	__ZN4core3fmt8builders11DebugStruct6finish17h67ed49fd5e81bb24E
	addq	$40, %rsp
	popq	%rbx
	popq	%r12
	popq	%r13
	popq	%r14
	popq	%r15
	popq	%rbp
	retq
	.cfi_endproc

	.p2align	4, 0x90
__ZN42_$LT$$RF$T$u20$as$u20$core..fmt..Debug$GT$3fmt17he5d958a081e82277E:
	.cfi_startproc
	pushq	%rbp
	.cfi_def_cfa_offset 16
	.cfi_offset %rbp, -16
	movq	%rsp, %rbp
	.cfi_def_cfa_register %rbp
	pushq	%r15
	pushq	%r14
	pushq	%r13
	pushq	%r12
	pushq	%rbx
	subq	$24, %rsp
	.cfi_offset %rbx, -56
	.cfi_offset %r12, -48
	.cfi_offset %r13, -40
	.cfi_offset %r14, -32
	.cfi_offset %r15, -24
	movq	(%rdi), %rax
	movq	(%rax), %r13
	movq	16(%rax), %rbx
	leaq	-64(%rbp), %rdi
	callq	__ZN4core3fmt9Formatter10debug_list17h113a4e31f24f00d7E
	testq	%rbx, %rbx
	je	LBB161_3
	shlq	$3, %rbx
	leaq	(%rbx,%rbx,8), %rbx
	leaq	l___unnamed_273(%rip), %r14
	leaq	-64(%rbp), %r15
	leaq	-48(%rbp), %r12
	.p2align	4, 0x90
LBB161_2:
	movq	%r13, -48(%rbp)
	addq	$72, %r13
	movq	%r15, %rdi
	movq	%r12, %rsi
	movq	%r14, %rdx
	callq	__ZN4core3fmt8builders9DebugList5entry17h2dea26f6c644471aE
	addq	$-72, %rbx
	jne	LBB161_2
LBB161_3:
	leaq	-64(%rbp), %rdi
	callq	__ZN4core3fmt8builders9DebugList6finish17h1537bc92ee1acb1cE
	addq	$24, %rsp
	popq	%rbx
	popq	%r12
	popq	%r13
	popq	%r14
	popq	%r15
	popq	%rbp
	retq
	.cfi_endproc

	.p2align	4, 0x90
__ZN42_$LT$$RF$T$u20$as$u20$core..fmt..Debug$GT$3fmt17hee909e9a263622e0E:
	.cfi_startproc
	pushq	%rbp
	.cfi_def_cfa_offset 16
	.cfi_offset %rbp, -16
	movq	%rsp, %rbp
	.cfi_def_cfa_register %rbp
	pushq	%r15
	pushq	%r14
	pushq	%r13
	pushq	%r12
	pushq	%rbx
	subq	$24, %rsp
	.cfi_offset %rbx, -56
	.cfi_offset %r12, -48
	.cfi_offset %r13, -40
	.cfi_offset %r14, -32
	.cfi_offset %r15, -24
	movq	(%rdi), %rbx
	leaq	-64(%rbp), %r12
	movq	%r12, %rdi
	callq	__ZN4core3fmt9Formatter10debug_list17h113a4e31f24f00d7E
	leaq	1(%rbx), %r13
	movq	%rbx, -48(%rbp)
	leaq	l___unnamed_11(%rip), %r14
	leaq	-48(%rbp), %r15
	movq	%r12, %rdi
	movq	%r15, %rsi
	movq	%r14, %rdx
	callq	__ZN4core3fmt8builders9DebugList5entry17h2dea26f6c644471aE
	movq	%r13, -48(%rbp)
	movq	%r12, %rdi
	movq	%r15, %rsi
	movq	%r14, %rdx
	callq	__ZN4core3fmt8builders9DebugList5entry17h2dea26f6c644471aE
	leaq	2(%rbx), %rax
	addq	$3, %rbx
	movq	%rax, -48(%rbp)
	movq	%r12, %rdi
	movq	%r15, %rsi
	movq	%r14, %rdx
	callq	__ZN4core3fmt8builders9DebugList5entry17h2dea26f6c644471aE
	movq	%rbx, -48(%rbp)
	movq	%r12, %rdi
	movq	%r15, %rsi
	movq	%r14, %rdx
	callq	__ZN4core3fmt8builders9DebugList5entry17h2dea26f6c644471aE
	movq	%r12, %rdi
	callq	__ZN4core3fmt8builders9DebugList6finish17h1537bc92ee1acb1cE
	addq	$24, %rsp
	popq	%rbx
	popq	%r12
	popq	%r13
	popq	%r14
	popq	%r15
	popq	%rbp
	retq
	.cfi_endproc

	.p2align	4, 0x90
__ZN42_$LT$$RF$T$u20$as$u20$core..fmt..Debug$GT$3fmt17hef5620c530d06c1eE:
	.cfi_startproc
	pushq	%rbp
	.cfi_def_cfa_offset 16
	.cfi_offset %rbp, -16
	movq	%rsp, %rbp
	.cfi_def_cfa_register %rbp
	pushq	%r14
	pushq	%rbx
	subq	$32, %rsp
	.cfi_offset %rbx, -32
	.cfi_offset %r14, -24
	movq	(%rdi), %rbx
	leaq	l___unnamed_127(%rip), %rdx
	leaq	-40(%rbp), %r14
	movl	$17, %ecx
	movq	%r14, %rdi
	callq	__ZN4core3fmt9Formatter12debug_struct17ha1a64e91d2a98458E
	movq	%rbx, -24(%rbp)
	addq	$8, %rbx
	leaq	L___unnamed_5(%rip), %rsi
	leaq	l___unnamed_164(%rip), %r8
	leaq	-24(%rbp), %rcx
	movl	$4, %edx
	movq	%r14, %rdi
	callq	__ZN4core3fmt8builders11DebugStruct5field17h6c54d35ac41bb1e6E
	movq	%rbx, -24(%rbp)
	leaq	L___unnamed_53(%rip), %rsi
	leaq	l___unnamed_129(%rip), %r8
	leaq	-24(%rbp), %rcx
	movl	$4, %edx
	movq	%r14, %rdi
	callq	__ZN4core3fmt8builders11DebugStruct5field17h6c54d35ac41bb1e6E
	movq	%r14, %rdi
	callq	__ZN4core3fmt8builders11DebugStruct6finish17h67ed49fd5e81bb24E
	addq	$32, %rsp
	popq	%rbx
	popq	%r14
	popq	%rbp
	retq
	.cfi_endproc

	.p2align	4, 0x90
__ZN42_$LT$$RF$T$u20$as$u20$core..fmt..Debug$GT$3fmt17hf0ea99c3bdb6e96dE:
	.cfi_startproc
	pushq	%rbp
	.cfi_def_cfa_offset 16
	.cfi_offset %rbp, -16
	movq	%rsp, %rbp
	.cfi_def_cfa_register %rbp
	pushq	%r15
	pushq	%r14
	pushq	%r12
	pushq	%rbx
	subq	$32, %rsp
	.cfi_offset %rbx, -48
	.cfi_offset %r12, -40
	.cfi_offset %r14, -32
	.cfi_offset %r15, -24
	movq	(%rdi), %rbx
	leaq	-56(%rbp), %r12
	movq	%r12, %rdi
	callq	__ZN4core3fmt9Formatter10debug_list17h113a4e31f24f00d7E
	movq	%rbx, -40(%rbp)
	incq	%rbx
	leaq	l___unnamed_11(%rip), %r14
	leaq	-40(%rbp), %r15
	movq	%r12, %rdi
	movq	%r15, %rsi
	movq	%r14, %rdx
	callq	__ZN4core3fmt8builders9DebugList5entry17h2dea26f6c644471aE
	movq	%rbx, -40(%rbp)
	movq	%r12, %rdi
	movq	%r15, %rsi
	movq	%r14, %rdx
	callq	__ZN4core3fmt8builders9DebugList5entry17h2dea26f6c644471aE
	movq	%r12, %rdi
	callq	__ZN4core3fmt8builders9DebugList6finish17h1537bc92ee1acb1cE
	addq	$32, %rsp
	popq	%rbx
	popq	%r12
	popq	%r14
	popq	%r15
	popq	%rbp
	retq
	.cfi_endproc

	.p2align	4, 0x90
__ZN42_$LT$$RF$T$u20$as$u20$core..fmt..Debug$GT$3fmt17hf13441166cdab0acE:
	.cfi_startproc
	pushq	%rbp
	.cfi_def_cfa_offset 16
	.cfi_offset %rbp, -16
	movq	%rsp, %rbp
	.cfi_def_cfa_register %rbp
	movq	%rsi, %rdx
	movq	(%rdi), %rax
	movq	(%rax), %rdi
	movq	8(%rax), %rsi
	popq	%rbp
	jmp	__ZN40_$LT$str$u20$as$u20$core..fmt..Debug$GT$3fmt17h5b42b6f497bd434cE
	.cfi_endproc

	.p2align	4, 0x90
__ZN42_$LT$$RF$T$u20$as$u20$core..fmt..Debug$GT$3fmt17hf18cbee1e49f1e36E:
	.cfi_startproc
	pushq	%rbp
	.cfi_def_cfa_offset 16
	.cfi_offset %rbp, -16
	movq	%rsp, %rbp
	.cfi_def_cfa_register %rbp
	pushq	%r15
	pushq	%r14
	pushq	%r13
	pushq	%r12
	pushq	%rbx
	subq	$104, %rsp
	.cfi_offset %rbx, -56
	.cfi_offset %r12, -48
	.cfi_offset %r13, -40
	.cfi_offset %r14, -32
	.cfi_offset %r15, -24
	movq	(%rdi), %rax
	movq	(%rax), %rbx
	leaq	l___unnamed_274(%rip), %rdx
	leaq	-136(%rbp), %r13
	movl	$12, %ecx
	movq	%r13, %rdi
	callq	__ZN4core3fmt9Formatter12debug_struct17ha1a64e91d2a98458E
	movq	%rbx, -48(%rbp)
	leaq	16(%rbx), %r14
	leaq	18(%rbx), %r12
	leaq	20(%rbx), %r15
	leaq	24(%rbx), %rax
	movq	%rax, -56(%rbp)
	leaq	28(%rbx), %rax
	movq	%rax, -64(%rbp)
	leaq	32(%rbx), %rax
	movq	%rax, -72(%rbp)
	leaq	36(%rbx), %rax
	movq	%rax, -80(%rbp)
	leaq	40(%rbx), %rax
	movq	%rax, -88(%rbp)
	leaq	42(%rbx), %rax
	movq	%rax, -96(%rbp)
	leaq	44(%rbx), %rax
	movq	%rax, -104(%rbp)
	leaq	46(%rbx), %rax
	movq	%rax, -112(%rbp)
	leaq	48(%rbx), %rax
	movq	%rax, -120(%rbp)
	leaq	50(%rbx), %rbx
	leaq	l___unnamed_194(%rip), %rsi
	leaq	l___unnamed_195(%rip), %r8
	leaq	-48(%rbp), %rcx
	movl	$7, %edx
	movq	%r13, %rdi
	callq	__ZN4core3fmt8builders11DebugStruct5field17h6c54d35ac41bb1e6E
	movq	%r14, -48(%rbp)
	leaq	l___unnamed_196(%rip), %rsi
	leaq	l___unnamed_79(%rip), %r14
	leaq	-48(%rbp), %rcx
	movl	$6, %edx
	movq	%r13, %rdi
	movq	%r14, %r8
	callq	__ZN4core3fmt8builders11DebugStruct5field17h6c54d35ac41bb1e6E
	movq	%r12, -48(%rbp)
	leaq	l___unnamed_197(%rip), %rsi
	leaq	-48(%rbp), %rcx
	movl	$9, %edx
	movq	%r13, %rdi
	movq	%r14, %r8
	callq	__ZN4core3fmt8builders11DebugStruct5field17h6c54d35ac41bb1e6E
	movq	%r15, -48(%rbp)
	leaq	l___unnamed_198(%rip), %rsi
	leaq	l___unnamed_45(%rip), %r15
	leaq	-48(%rbp), %rcx
	movl	$9, %edx
	movq	%r13, %rdi
	movq	%r15, %r8
	callq	__ZN4core3fmt8builders11DebugStruct5field17h6c54d35ac41bb1e6E
	movq	-56(%rbp), %rax
	movq	%rax, -48(%rbp)
	leaq	l___unnamed_199(%rip), %rsi
	leaq	-48(%rbp), %rcx
	movl	$7, %edx
	movq	%r13, %rdi
	movq	%r15, %r8
	callq	__ZN4core3fmt8builders11DebugStruct5field17h6c54d35ac41bb1e6E
	movq	-64(%rbp), %rax
	movq	%rax, -48(%rbp)
	leaq	l___unnamed_200(%rip), %rsi
	leaq	-48(%rbp), %rcx
	movl	$7, %edx
	movq	%r13, %rdi
	movq	%r15, %r8
	callq	__ZN4core3fmt8builders11DebugStruct5field17h6c54d35ac41bb1e6E
	movq	-72(%rbp), %rax
	movq	%rax, -48(%rbp)
	leaq	l___unnamed_201(%rip), %rsi
	leaq	-48(%rbp), %rcx
	movl	$7, %edx
	movq	%r13, %rdi
	movq	%r15, %r8
	callq	__ZN4core3fmt8builders11DebugStruct5field17h6c54d35ac41bb1e6E
	movq	-80(%rbp), %rax
	movq	%rax, -48(%rbp)
	leaq	l___unnamed_202(%rip), %rsi
	leaq	-48(%rbp), %rcx
	movl	$7, %edx
	movq	%r13, %rdi
	movq	%r15, %r8
	callq	__ZN4core3fmt8builders11DebugStruct5field17h6c54d35ac41bb1e6E
	movq	-88(%rbp), %rax
	movq	%rax, -48(%rbp)
	leaq	L___unnamed_203(%rip), %rsi
	leaq	-48(%rbp), %rcx
	movl	$8, %edx
	movq	%r13, %rdi
	movq	%r14, %r8
	callq	__ZN4core3fmt8builders11DebugStruct5field17h6c54d35ac41bb1e6E
	movq	-96(%rbp), %rax
	movq	%rax, -48(%rbp)
	leaq	l___unnamed_204(%rip), %rsi
	leaq	-48(%rbp), %rcx
	movl	$11, %edx
	movq	%r13, %rdi
	movq	%r14, %r8
	callq	__ZN4core3fmt8builders11DebugStruct5field17h6c54d35ac41bb1e6E
	movq	-104(%rbp), %rax
	movq	%rax, -48(%rbp)
	leaq	l___unnamed_205(%rip), %rsi
	leaq	-48(%rbp), %rcx
	movl	$7, %edx
	movq	%r13, %rdi
	movq	%r14, %r8
	callq	__ZN4core3fmt8builders11DebugStruct5field17h6c54d35ac41bb1e6E
	movq	-112(%rbp), %rax
	movq	%rax, -48(%rbp)
	leaq	l___unnamed_206(%rip), %rsi
	leaq	-48(%rbp), %rcx
	movl	$11, %edx
	movq	%r13, %rdi
	movq	%r14, %r8
	callq	__ZN4core3fmt8builders11DebugStruct5field17h6c54d35ac41bb1e6E
	movq	-120(%rbp), %rax
	movq	%rax, -48(%rbp)
	leaq	l___unnamed_207(%rip), %rsi
	leaq	-48(%rbp), %rcx
	movl	$7, %edx
	movq	%r13, %rdi
	movq	%r14, %r8
	callq	__ZN4core3fmt8builders11DebugStruct5field17h6c54d35ac41bb1e6E
	movq	%rbx, -48(%rbp)
	leaq	l___unnamed_208(%rip), %rsi
	leaq	-48(%rbp), %rcx
	movl	$10, %edx
	movq	%r13, %rdi
	movq	%r14, %r8
	callq	__ZN4core3fmt8builders11DebugStruct5field17h6c54d35ac41bb1e6E
	movq	%r13, %rdi
	callq	__ZN4core3fmt8builders11DebugStruct6finish17h67ed49fd5e81bb24E
	addq	$104, %rsp
	popq	%rbx
	popq	%r12
	popq	%r13
	popq	%r14
	popq	%r15
	popq	%rbp
	retq
	.cfi_endproc

	.p2align	4, 0x90
__ZN42_$LT$$RF$T$u20$as$u20$core..fmt..Debug$GT$3fmt17hf6ce83d99a73211bE:
	.cfi_startproc
	pushq	%rbp
	.cfi_def_cfa_offset 16
	.cfi_offset %rbp, -16
	movq	%rsp, %rbp
	.cfi_def_cfa_register %rbp
	movq	(%rdi), %rdi
	popq	%rbp
	jmp	__ZN70_$LT$object..pe..ImageOptionalHeader32$u20$as$u20$core..fmt..Debug$GT$3fmt17ha4080609be3c0114E
	.cfi_endproc

	.p2align	4, 0x90
__ZN42_$LT$$RF$T$u20$as$u20$core..fmt..Debug$GT$3fmt17hfe0c8bcc003cb260E:
	.cfi_startproc
	pushq	%rbp
	.cfi_def_cfa_offset 16
	.cfi_offset %rbp, -16
	movq	%rsp, %rbp
	.cfi_def_cfa_register %rbp
	pushq	%r15
	pushq	%r14
	pushq	%r13
	pushq	%r12
	pushq	%rbx
	subq	$24, %rsp
	.cfi_offset %rbx, -56
	.cfi_offset %r12, -48
	.cfi_offset %r13, -40
	.cfi_offset %r14, -32
	.cfi_offset %r15, -24
	movq	(%rdi), %rax
	movq	(%rax), %rbx
	movq	8(%rax), %r13
	leaq	-64(%rbp), %rdi
	callq	__ZN4core3fmt9Formatter10debug_list17h113a4e31f24f00d7E
	testq	%r13, %r13
	je	LBB168_3
	shlq	$6, %r13
	leaq	l___unnamed_253(%rip), %r14
	leaq	-64(%rbp), %r15
	leaq	-48(%rbp), %r12
	.p2align	4, 0x90
LBB168_2:
	movq	%rbx, -48(%rbp)
	addq	$64, %rbx
	movq	%r15, %rdi
	movq	%r12, %rsi
	movq	%r14, %rdx
	callq	__ZN4core3fmt8builders9DebugList5entry17h2dea26f6c644471aE
	addq	$-64, %r13
	jne	LBB168_2
LBB168_3:
	leaq	-64(%rbp), %rdi
	callq	__ZN4core3fmt8builders9DebugList6finish17h1537bc92ee1acb1cE
	addq	$24, %rsp
	popq	%rbx
	popq	%r12
	popq	%r13
	popq	%r14
	popq	%r15
	popq	%rbp
	retq
	.cfi_endproc

	.p2align	4, 0x90
__ZN42_$LT$$RF$T$u20$as$u20$core..fmt..Debug$GT$3fmt17hfe4ee9843fba93f8E:
	.cfi_startproc
	pushq	%rbp
	.cfi_def_cfa_offset 16
	.cfi_offset %rbp, -16
	movq	%rsp, %rbp
	.cfi_def_cfa_register %rbp
	movq	(%rdi), %rdi
	popq	%rbp
	jmp	__ZN64_$LT$object..read..SymbolSection$u20$as$u20$core..fmt..Debug$GT$3fmt17hc3a0cdb6371728e1E
	.cfi_endproc

	.p2align	4, 0x90
__ZN42_$LT$$RF$T$u20$as$u20$core..fmt..Debug$GT$3fmt17hfff6abdb31ccc383E:
	.cfi_startproc
	pushq	%rbp
	.cfi_def_cfa_offset 16
	.cfi_offset %rbp, -16
	movq	%rsp, %rbp
	.cfi_def_cfa_register %rbp
	pushq	%r15
	pushq	%r14
	pushq	%r13
	pushq	%r12
	pushq	%rbx
	subq	$24, %rsp
	.cfi_offset %rbx, -56
	.cfi_offset %r12, -48
	.cfi_offset %r13, -40
	.cfi_offset %r14, -32
	.cfi_offset %r15, -24
	movq	(%rdi), %rax
	movq	(%rax), %r13
	movq	16(%rax), %rbx
	leaq	-64(%rbp), %rdi
	callq	__ZN4core3fmt9Formatter10debug_list17h113a4e31f24f00d7E
	testq	%rbx, %rbx
	je	LBB170_3
	shlq	$3, %rbx
	leaq	(%rbx,%rbx,2), %rbx
	leaq	l___unnamed_275(%rip), %r14
	leaq	-64(%rbp), %r15
	leaq	-48(%rbp), %r12
	.p2align	4, 0x90
LBB170_2:
	movq	%r13, -48(%rbp)
	addq	$24, %r13
	movq	%r15, %rdi
	movq	%r12, %rsi
	movq	%r14, %rdx
	callq	__ZN4core3fmt8builders9DebugList5entry17h2dea26f6c644471aE
	addq	$-24, %rbx
	jne	LBB170_2
LBB170_3:
	leaq	-64(%rbp), %rdi
	callq	__ZN4core3fmt8builders9DebugList6finish17h1537bc92ee1acb1cE
	addq	$24, %rsp
	popq	%rbx
	popq	%r12
	popq	%r13
	popq	%r14
	popq	%r15
	popq	%rbp
	retq
	.cfi_endproc

	.p2align	4, 0x90
__ZN4core3fmt3num50_$LT$impl$u20$core..fmt..Debug$u20$for$u20$u64$GT$3fmt17h9426c7d34eed7bd6E:
	.cfi_startproc
	pushq	%rbp
	.cfi_def_cfa_offset 16
	.cfi_offset %rbp, -16
	movq	%rsp, %rbp
	.cfi_def_cfa_register %rbp
	pushq	%r14
	pushq	%rbx
	.cfi_offset %rbx, -32
	.cfi_offset %r14, -24
	movq	%rsi, %rbx
	movq	%rdi, %r14
	movq	%rsi, %rdi
	callq	__ZN4core3fmt9Formatter15debug_lower_hex17hd07f6fde8d0365dfE
	testb	%al, %al
	je	LBB171_1
	movq	%r14, %rdi
	movq	%rbx, %rsi
	popq	%rbx
	popq	%r14
	popq	%rbp
	jmp	__ZN4core3fmt3num53_$LT$impl$u20$core..fmt..LowerHex$u20$for$u20$u64$GT$3fmt17hb1b2554e6a6ce90cE
LBB171_1:
	movq	%rbx, %rdi
	callq	__ZN4core3fmt9Formatter15debug_upper_hex17hf480c256a9c81c1eE
	movq	%r14, %rdi
	movq	%rbx, %rsi
	testb	%al, %al
	je	LBB171_4
	popq	%rbx
	popq	%r14
	popq	%rbp
	jmp	__ZN4core3fmt3num53_$LT$impl$u20$core..fmt..UpperHex$u20$for$u20$u64$GT$3fmt17h67a4ddf8c7fd5f2bE
LBB171_4:
	popq	%rbx
	popq	%r14
	popq	%rbp
	jmp	__ZN4core3fmt3num3imp52_$LT$impl$u20$core..fmt..Display$u20$for$u20$u64$GT$3fmt17h3230c9bc78e30ed1E
	.cfi_endproc

	.p2align	4, 0x90
__ZN4core3ptr13drop_in_place17h031bab22813f3922E:
	.cfi_startproc
	pushq	%rbp
	.cfi_def_cfa_offset 16
	.cfi_offset %rbp, -16
	movq	%rsp, %rbp
	.cfi_def_cfa_register %rbp
	popq	%rbp
	retq
	.cfi_endproc

	.p2align	4, 0x90
__ZN4core3ptr13drop_in_place17h537e2a39cdb26dfbE:
	.cfi_startproc
	pushq	%rbp
	.cfi_def_cfa_offset 16
	.cfi_offset %rbp, -16
	movq	%rsp, %rbp
	.cfi_def_cfa_register %rbp
	movq	8(%rdi), %rsi
	testq	%rsi, %rsi
	je	LBB173_3
	movq	(%rdi), %rdi
	testq	%rdi, %rdi
	je	LBB173_3
	shlq	$3, %rsi
	testq	%rsi, %rsi
	je	LBB173_3
	movl	$8, %edx
	popq	%rbp
	jmp	___rust_dealloc
LBB173_3:
	popq	%rbp
	retq
	.cfi_endproc

	.p2align	4, 0x90
__ZN4core3ptr13drop_in_place17h7f44b6ba276fbdd6E:
	.cfi_startproc
	pushq	%rbp
	.cfi_def_cfa_offset 16
	.cfi_offset %rbp, -16
	movq	%rsp, %rbp
	.cfi_def_cfa_register %rbp
	movq	8(%rdi), %rsi
	testq	%rsi, %rsi
	je	LBB174_3
	movq	(%rdi), %rdi
	testq	%rdi, %rdi
	je	LBB174_3
	shlq	$4, %rsi
	je	LBB174_3
	movl	$8, %edx
	popq	%rbp
	jmp	___rust_dealloc
LBB174_3:
	popq	%rbp
	retq
	.cfi_endproc

	.p2align	4, 0x90
__ZN4core3ptr13drop_in_place17haede4ed3cd3b7800E:
	.cfi_startproc
	pushq	%rbp
	.cfi_def_cfa_offset 16
	.cfi_offset %rbp, -16
	movq	%rsp, %rbp
	.cfi_def_cfa_register %rbp
	movq	8(%rdi), %rax
	testq	%rax, %rax
	je	LBB175_3
	movq	(%rdi), %rdi
	testq	%rdi, %rdi
	je	LBB175_3
	shlq	$3, %rax
	leaq	(%rax,%rax,2), %rsi
	testq	%rsi, %rsi
	je	LBB175_3
	movl	$8, %edx
	popq	%rbp
	jmp	___rust_dealloc
LBB175_3:
	popq	%rbp
	retq
	.cfi_endproc

	.p2align	4, 0x90
__ZN4core3ptr13drop_in_place17he95f78498be815eeE:
	.cfi_startproc
	pushq	%rbp
	.cfi_def_cfa_offset 16
	.cfi_offset %rbp, -16
	movq	%rsp, %rbp
	.cfi_def_cfa_register %rbp
	movq	8(%rdi), %rax
	testq	%rax, %rax
	je	LBB176_3
	movq	(%rdi), %rdi
	testq	%rdi, %rdi
	je	LBB176_3
	shlq	$3, %rax
	leaq	(%rax,%rax,8), %rsi
	testq	%rsi, %rsi
	je	LBB176_3
	movl	$8, %edx
	popq	%rbp
	jmp	___rust_dealloc
LBB176_3:
	popq	%rbp
	retq
	.cfi_endproc

	.p2align	4, 0x90
__ZN4core3str6traits105_$LT$impl$u20$core..slice..SliceIndex$LT$str$GT$$u20$for$u20$core..ops..range..RangeFrom$LT$usize$GT$$GT$5index28_$u7b$$u7b$closure$u7d$$u7d$17h3566fb946412188cE:
	.cfi_startproc
	pushq	%rbp
	.cfi_def_cfa_offset 16
	.cfi_offset %rbp, -16
	movq	%rsp, %rbp
	.cfi_def_cfa_register %rbp
	movq	(%rdi), %rcx
	movq	8(%rdi), %rdx
	movq	(%rcx), %rax
	movq	8(%rcx), %rsi
	movq	(%rdx), %rdx
	movq	16(%rdi), %rcx
	movq	(%rcx), %rcx
	leaq	l___unnamed_276(%rip), %r8
	movq	%rax, %rdi
	callq	__ZN4core3str16slice_error_fail17ha125059561e5ce66E
	.cfi_endproc

	.p2align	4, 0x90
__ZN5alloc3vec12Vec$LT$T$GT$4push17h5fb4c59b2c92fe62E:
	.cfi_startproc
	pushq	%rbp
	.cfi_def_cfa_offset 16
	.cfi_offset %rbp, -16
	movq	%rsp, %rbp
	.cfi_def_cfa_register %rbp
	pushq	%r15
	pushq	%r14
	pushq	%r12
	pushq	%rbx
	.cfi_offset %rbx, -48
	.cfi_offset %r12, -40
	.cfi_offset %r14, -32
	.cfi_offset %r15, -24
	movq	%rdx, %r14
	movq	%rsi, %r15
	movq	%rdi, %rbx
	movq	16(%rdi), %rcx
	cmpq	8(%rdi), %rcx
	jne	LBB178_18
	movq	%rcx, %rdx
	incq	%rdx
	je	LBB178_19
	leaq	(%rcx,%rcx), %rax
	cmpq	%rdx, %rax
	cmovaq	%rax, %rdx
	cmpq	$4, %rdx
	movl	$4, %eax
	cmovaq	%rdx, %rax
	movl	$16, %edx
	xorl	%esi, %esi
	mulq	%rdx
	movq	%rax, %r12
	seto	%dl
	setno	%dil
	movq	%rcx, %rax
	testq	%rcx, %rcx
	je	LBB178_4
	movq	(%rbx), %rax
LBB178_4:
	testb	%dl, %dl
	jne	LBB178_19
	testq	%rax, %rax
	je	LBB178_6
	movq	%rcx, %rsi
	shlq	$4, %rsi
	cmpq	%r12, %rsi
	je	LBB178_15
	testq	%rsi, %rsi
	je	LBB178_11
	movl	$8, %edx
	movq	%rax, %rdi
	movq	%r12, %rcx
	callq	___rust_realloc
	jmp	LBB178_15
LBB178_6:
	movb	%dil, %sil
	shlq	$3, %rsi
	testq	%r12, %r12
	jne	LBB178_7
	movq	%rsi, %rax
	jmp	LBB178_15
LBB178_11:
	testq	%r12, %r12
	je	LBB178_12
	movl	$8, %esi
LBB178_7:
	movq	%r12, %rdi
	callq	___rust_alloc
LBB178_15:
	testq	%rax, %rax
	je	LBB178_20
	movq	16(%rbx), %rcx
LBB178_17:
	movq	%rax, (%rbx)
	shrq	$4, %r12
	movq	%r12, 8(%rbx)
LBB178_18:
	movq	(%rbx), %rax
	shlq	$4, %rcx
	movq	%r15, (%rax,%rcx)
	movq	%r14, 8(%rax,%rcx)
	incq	16(%rbx)
	popq	%rbx
	popq	%r12
	popq	%r14
	popq	%r15
	popq	%rbp
	retq
LBB178_12:
	movl	$8, %eax
	jmp	LBB178_17
LBB178_19:
	callq	__ZN5alloc7raw_vec17capacity_overflow17h7526b10e27579d59E
LBB178_20:
	movl	$8, %esi
	movq	%r12, %rdi
	callq	__ZN5alloc5alloc18handle_alloc_error17h28974197717b8939E
	.cfi_endproc

	.p2align	4, 0x90
__ZN5alloc3vec12Vec$LT$T$GT$7reserve17h6ec8df7f0079da19E:
	.cfi_startproc
	pushq	%rbp
	.cfi_def_cfa_offset 16
	.cfi_offset %rbp, -16
	movq	%rsp, %rbp
	.cfi_def_cfa_register %rbp
	pushq	%r14
	pushq	%rbx
	.cfi_offset %rbx, -32
	.cfi_offset %r14, -24
	movq	8(%rdi), %rcx
	movq	16(%rdi), %rdx
	movq	%rcx, %rax
	subq	%rdx, %rax
	cmpq	%rsi, %rax
	jae	LBB179_17
	addq	%rsi, %rdx
	jb	LBB179_18
	movq	%rdi, %rbx
	leaq	(%rcx,%rcx), %rax
	cmpq	%rdx, %rax
	cmovaq	%rax, %rdx
	cmpq	$4, %rdx
	movl	$4, %eax
	cmovaq	%rdx, %rax
	movl	$72, %edx
	xorl	%esi, %esi
	mulq	%rdx
	movq	%rax, %r14
	seto	%dl
	setno	%dil
	movq	%rcx, %rax
	testq	%rcx, %rcx
	je	LBB179_4
	movq	(%rbx), %rax
LBB179_4:
	testb	%dl, %dl
	jne	LBB179_18
	testq	%rax, %rax
	je	LBB179_6
	shlq	$3, %rcx
	leaq	(%rcx,%rcx,8), %rsi
	cmpq	%r14, %rsi
	je	LBB179_15
	testq	%rsi, %rsi
	je	LBB179_11
	movl	$8, %edx
	movq	%rax, %rdi
	movq	%r14, %rcx
	callq	___rust_realloc
	jmp	LBB179_15
LBB179_6:
	movb	%dil, %sil
	shlq	$3, %rsi
	testq	%r14, %r14
	jne	LBB179_7
	movq	%rsi, %rax
	jmp	LBB179_15
LBB179_11:
	testq	%r14, %r14
	je	LBB179_12
	movl	$8, %esi
LBB179_7:
	movq	%r14, %rdi
	callq	___rust_alloc
LBB179_15:
	testq	%rax, %rax
	je	LBB179_19
LBB179_16:
	movq	%rax, (%rbx)
	movabsq	$-2049638230412172401, %rcx
	movq	%r14, %rax
	mulq	%rcx
	shrq	$6, %rdx
	movq	%rdx, 8(%rbx)
LBB179_17:
	popq	%rbx
	popq	%r14
	popq	%rbp
	retq
LBB179_12:
	movl	$8, %eax
	jmp	LBB179_16
LBB179_18:
	callq	__ZN5alloc7raw_vec17capacity_overflow17h7526b10e27579d59E
LBB179_19:
	movl	$8, %esi
	movq	%r14, %rdi
	callq	__ZN5alloc5alloc18handle_alloc_error17h28974197717b8939E
	.cfi_endproc

	.globl	__ZN6object6common12Architecture12address_size17hac8fd0b9039dca23E
	.p2align	4, 0x90
__ZN6object6common12Architecture12address_size17hac8fd0b9039dca23E:
	.cfi_startproc
	pushq	%rbp
	.cfi_def_cfa_offset 16
	.cfi_offset %rbp, -16
	movq	%rsp, %rbp
	.cfi_def_cfa_register %rbp
	leal	(,%rdi,8), %ecx
	movabsq	$2256215107438601, %rax
	shrq	%cl, %rax
	popq	%rbp
	retq
	.cfi_endproc

	.globl	__ZN6object6common11SectionKind6is_bss17h8285deb526c91cf8E
	.p2align	4, 0x90
__ZN6object6common11SectionKind6is_bss17h8285deb526c91cf8E:
	.cfi_startproc
	pushq	%rbp
	.cfi_def_cfa_offset 16
	.cfi_offset %rbp, -16
	movq	%rsp, %rbp
	.cfi_def_cfa_register %rbp
	addb	$-5, %dil
	cmpb	$3, %dil
	ja	LBB181_2
	andb	$15, %dil
	movb	$11, %al
	movl	%edi, %ecx
	shrb	%cl, %al
	andb	$1, %al
	popq	%rbp
	retq
LBB181_2:
	xorl	%eax, %eax
	popq	%rbp
	retq
	.cfi_endproc

	.globl	__ZN55_$LT$object..pod..Bytes$u20$as$u20$core..fmt..Debug$GT$3fmt17h9527cab37bc16268E
	.p2align	4, 0x90
__ZN55_$LT$object..pod..Bytes$u20$as$u20$core..fmt..Debug$GT$3fmt17h9527cab37bc16268E:
	.cfi_startproc
	pushq	%rbp
	.cfi_def_cfa_offset 16
	.cfi_offset %rbp, -16
	movq	%rsp, %rbp
	.cfi_def_cfa_register %rbp
	movq	%rsi, %rdx
	movq	(%rdi), %rax
	movq	8(%rdi), %rsi
	movq	%rax, %rdi
	popq	%rbp
	jmp	__ZN6object3pod16debug_list_bytes17h74a15a64087ba199E
	.cfi_endproc

	.globl	__ZN58_$LT$object..pod..BytesMut$u20$as$u20$core..fmt..Debug$GT$3fmt17h0893b17502fa91aaE
	.p2align	4, 0x90
__ZN58_$LT$object..pod..BytesMut$u20$as$u20$core..fmt..Debug$GT$3fmt17h0893b17502fa91aaE:
	.cfi_startproc
	pushq	%rbp
	.cfi_def_cfa_offset 16
	.cfi_offset %rbp, -16
	movq	%rsp, %rbp
	.cfi_def_cfa_register %rbp
	movq	%rsi, %rdx
	movq	(%rdi), %rax
	movq	16(%rdi), %rsi
	movq	%rax, %rdi
	popq	%rbp
	jmp	__ZN6object3pod16debug_list_bytes17h74a15a64087ba199E
	.cfi_endproc

	.p2align	4, 0x90
__ZN6object3pod16debug_list_bytes17h74a15a64087ba199E:
	.cfi_startproc
	pushq	%rbp
	.cfi_def_cfa_offset 16
	.cfi_offset %rbp, -16
	movq	%rsp, %rbp
	.cfi_def_cfa_register %rbp
	pushq	%r14
	pushq	%rbx
	subq	$32, %rsp
	.cfi_offset %rbx, -32
	.cfi_offset %r14, -24
	movq	%rsi, %rbx
	movq	%rdi, %r14
	leaq	-40(%rbp), %rdi
	movq	%rdx, %rsi
	callq	__ZN4core3fmt9Formatter10debug_list17h113a4e31f24f00d7E
	testq	%rbx, %rbx
	je	LBB184_10
	movb	(%r14), %al
	movb	%al, -24(%rbp)
	leaq	l___unnamed_277(%rip), %rdx
	leaq	-40(%rbp), %rdi
	leaq	-24(%rbp), %rsi
	callq	__ZN4core3fmt8builders9DebugList5entry17h2dea26f6c644471aE
	cmpq	$1, %rbx
	je	LBB184_10
	movb	1(%r14), %al
	movb	%al, -24(%rbp)
	leaq	l___unnamed_277(%rip), %rdx
	leaq	-40(%rbp), %rdi
	leaq	-24(%rbp), %rsi
	callq	__ZN4core3fmt8builders9DebugList5entry17h2dea26f6c644471aE
	cmpq	$2, %rbx
	je	LBB184_10
	movb	2(%r14), %al
	movb	%al, -24(%rbp)
	leaq	l___unnamed_277(%rip), %rdx
	leaq	-40(%rbp), %rdi
	leaq	-24(%rbp), %rsi
	callq	__ZN4core3fmt8builders9DebugList5entry17h2dea26f6c644471aE
	cmpq	$3, %rbx
	je	LBB184_10
	movb	3(%r14), %al
	movb	%al, -24(%rbp)
	leaq	l___unnamed_277(%rip), %rdx
	leaq	-40(%rbp), %rdi
	leaq	-24(%rbp), %rsi
	callq	__ZN4core3fmt8builders9DebugList5entry17h2dea26f6c644471aE
	cmpq	$4, %rbx
	je	LBB184_10
	movb	4(%r14), %al
	movb	%al, -24(%rbp)
	leaq	l___unnamed_277(%rip), %rdx
	leaq	-40(%rbp), %rdi
	leaq	-24(%rbp), %rsi
	callq	__ZN4core3fmt8builders9DebugList5entry17h2dea26f6c644471aE
	cmpq	$5, %rbx
	je	LBB184_10
	movb	5(%r14), %al
	movb	%al, -24(%rbp)
	leaq	l___unnamed_277(%rip), %rdx
	leaq	-40(%rbp), %rdi
	leaq	-24(%rbp), %rsi
	callq	__ZN4core3fmt8builders9DebugList5entry17h2dea26f6c644471aE
	cmpq	$6, %rbx
	je	LBB184_10
	movb	6(%r14), %al
	movb	%al, -24(%rbp)
	leaq	l___unnamed_277(%rip), %rdx
	leaq	-40(%rbp), %rdi
	leaq	-24(%rbp), %rsi
	callq	__ZN4core3fmt8builders9DebugList5entry17h2dea26f6c644471aE
	cmpq	$7, %rbx
	je	LBB184_10
	movb	7(%r14), %al
	movb	%al, -24(%rbp)
	leaq	l___unnamed_277(%rip), %rdx
	leaq	-40(%rbp), %rdi
	leaq	-24(%rbp), %rsi
	callq	__ZN4core3fmt8builders9DebugList5entry17h2dea26f6c644471aE
	cmpq	$9, %rbx
	jb	LBB184_10
	movq	%rbx, -24(%rbp)
	leaq	l___unnamed_278(%rip), %rdx
	leaq	-40(%rbp), %rdi
	leaq	-24(%rbp), %rsi
	callq	__ZN4core3fmt8builders9DebugList5entry17h2dea26f6c644471aE
LBB184_10:
	leaq	-40(%rbp), %rdi
	callq	__ZN4core3fmt8builders9DebugList6finish17h1537bc92ee1acb1cE
	addq	$32, %rsp
	popq	%rbx
	popq	%r14
	popq	%rbp
	retq
	.cfi_endproc

	.globl	__ZN59_$LT$object..pod..DebugByte$u20$as$u20$core..fmt..Debug$GT$3fmt17h889b7975ece1f326E
	.p2align	4, 0x90
__ZN59_$LT$object..pod..DebugByte$u20$as$u20$core..fmt..Debug$GT$3fmt17h889b7975ece1f326E:
	.cfi_startproc
	pushq	%rbp
	.cfi_def_cfa_offset 16
	.cfi_offset %rbp, -16
	movq	%rsp, %rbp
	.cfi_def_cfa_register %rbp
	subq	$64, %rsp
	movq	%rsi, %rax
	movq	%rdi, -16(%rbp)
	movq	__ZN4core3fmt3num52_$LT$impl$u20$core..fmt..LowerHex$u20$for$u20$u8$GT$3fmt17h35609b3cfed2e613E@GOTPCREL(%rip), %rcx
	movq	%rcx, -8(%rbp)
	leaq	l___unnamed_279(%rip), %rcx
	movq	%rcx, -64(%rbp)
	movq	$1, -56(%rbp)
	leaq	l___unnamed_280(%rip), %rcx
	movq	%rcx, -48(%rbp)
	movq	$1, -40(%rbp)
	leaq	-16(%rbp), %rcx
	movq	%rcx, -32(%rbp)
	movq	$1, -24(%rbp)
	leaq	-64(%rbp), %rsi
	movq	%rax, %rdi
	callq	__ZN4core3fmt9Formatter9write_fmt17h742ca6aae87ad23cE
	addq	$64, %rsp
	popq	%rbp
	retq
	.cfi_endproc

	.globl	__ZN58_$LT$object..pod..DebugLen$u20$as$u20$core..fmt..Debug$GT$3fmt17h85719c0681e03b94E
	.p2align	4, 0x90
__ZN58_$LT$object..pod..DebugLen$u20$as$u20$core..fmt..Debug$GT$3fmt17h85719c0681e03b94E:
	.cfi_startproc
	pushq	%rbp
	.cfi_def_cfa_offset 16
	.cfi_offset %rbp, -16
	movq	%rsp, %rbp
	.cfi_def_cfa_register %rbp
	subq	$64, %rsp
	movq	%rsi, %rax
	movq	%rdi, -16(%rbp)
	movq	__ZN4core3fmt3num3imp54_$LT$impl$u20$core..fmt..Display$u20$for$u20$usize$GT$3fmt17h12ea2856299c9b06E@GOTPCREL(%rip), %rcx
	movq	%rcx, -8(%rbp)
	leaq	l___unnamed_281(%rip), %rcx
	movq	%rcx, -64(%rbp)
	movq	$1, -56(%rbp)
	movq	$0, -48(%rbp)
	leaq	-16(%rbp), %rcx
	movq	%rcx, -32(%rbp)
	movq	$1, -24(%rbp)
	leaq	-64(%rbp), %rsi
	movq	%rax, %rdi
	callq	__ZN4core3fmt9Formatter9write_fmt17h742ca6aae87ad23cE
	addq	$64, %rsp
	popq	%rbp
	retq
	.cfi_endproc

	.globl	__ZN6object4read4util11StringTable3new17h3898d6802be7b83cE
	.p2align	4, 0x90
__ZN6object4read4util11StringTable3new17h3898d6802be7b83cE:
	.cfi_startproc
	pushq	%rbp
	.cfi_def_cfa_offset 16
	.cfi_offset %rbp, -16
	movq	%rsp, %rbp
	.cfi_def_cfa_register %rbp
	movq	%rsi, %rdx
	movq	%rdi, %rax
	popq	%rbp
	retq
	.cfi_endproc

	.globl	__ZN6object4read4util11StringTable3get17h65cea829fc3988aaE
	.p2align	4, 0x90
__ZN6object4read4util11StringTable3get17h65cea829fc3988aaE:
	.cfi_startproc
	pushq	%rbp
	.cfi_def_cfa_offset 16
	.cfi_offset %rbp, -16
	movq	%rsp, %rbp
	.cfi_def_cfa_register %rbp
	movq	8(%rdi), %rcx
	movl	%esi, %esi
	cmpq	%rsi, %rcx
	jb	LBB188_1
	subq	%rsi, %rcx
	je	LBB188_1
	addq	(%rdi), %rsi
	xorl	%eax, %eax
	xorl	%edx, %edx
	.p2align	4, 0x90
LBB188_4:
	cmpb	$0, (%rsi,%rdx)
	je	LBB188_7
	incq	%rdx
	cmpq	%rdx, %rcx
	jne	LBB188_4
	popq	%rbp
	retq
LBB188_7:
	cmpq	%rdx, %rcx
	jae	LBB188_8
LBB188_1:
	xorl	%eax, %eax
	popq	%rbp
	retq
LBB188_8:
	xorl	%eax, %eax
	cmpq	%rdx, %rcx
	cmoveq	%rax, %rsi
	movq	%rsi, %rax
	popq	%rbp
	retq
	.cfi_endproc

	.section	__TEXT,__literal16,16byte_literals
	.p2align	4
LCPI189_0:
	.byte	95
	.byte	95
	.byte	103
	.byte	99
	.byte	99
	.byte	95
	.byte	101
	.byte	120
	.byte	99
	.byte	101
	.byte	112
	.byte	116
	.byte	95
	.byte	116
	.byte	97
	.byte	98
	.section	__TEXT,__text,regular,pure_instructions
	.globl	__ZN6object4read3any4File5parse17h8d6bdc091a42c48fE
	.p2align	4, 0x90
__ZN6object4read3any4File5parse17h8d6bdc091a42c48fE:
Lfunc_begin0:
	.cfi_startproc
	.cfi_personality 155, _rust_eh_personality
	.cfi_lsda 16, Lexception0
	pushq	%rbp
	.cfi_def_cfa_offset 16
	.cfi_offset %rbp, -16
	movq	%rsp, %rbp
	.cfi_def_cfa_register %rbp
	pushq	%r15
	pushq	%r14
	pushq	%r13
	pushq	%r12
	pushq	%rbx
	subq	$648, %rsp
	.cfi_offset %rbx, -56
	.cfi_offset %r12, -48
	.cfi_offset %r13, -40
	.cfi_offset %r14, -32
	.cfi_offset %r15, -24
	cmpq	$15, %rdx
	ja	LBB189_2
	leaq	l___unnamed_282(%rip), %rax
	movq	%rax, 8(%rdi)
	movq	$14, 16(%rdi)
	jmp	LBB189_54
LBB189_2:
	movq	%rdx, %r8
	movq	%rsi, %r13
	movb	(%rsi), %bl
	movb	1(%rsi), %dl
	movb	2(%rsi), %cl
	movb	3(%rsi), %al
	cmpb	$75, %bl
	jle	LBB189_17
	cmpb	$99, %bl
	jg	LBB189_24
	cmpb	$76, %bl
	je	LBB189_44
	cmpb	$77, %bl
	jne	LBB189_53
	cmpb	$90, %dl
	jne	LBB189_53
	cmpq	$64, %r8
	jb	LBB189_58
	movzwl	(%r13), %eax
	cmpl	$23117, %eax
	jne	LBB189_58
	movl	60(%r13), %eax
	movq	%r8, %rdx
	subq	%rax, %rdx
	jb	LBB189_58
	cmpq	$136, %rdx
	jb	LBB189_58
	cmpl	$17744, (%r13,%rax)
	jne	LBB189_58
	addq	%r13, %rax
	movzwl	24(%rax), %ecx
	cmpl	$267, %ecx
	je	LBB189_405
	movzwl	%cx, %ecx
	cmpl	$523, %ecx
	jne	LBB189_58
	movzwl	20(%rax), %ecx
	subq	$112, %rcx
	jb	LBB189_406
	addq	$-136, %rdx
	movl	$31, %r9d
	subq	%rcx, %rdx
	jb	LBB189_413
	movl	132(%rax), %ebx
	leaq	(,%rbx,8), %rsi
	cmpq	%rsi, %rcx
	jb	LBB189_462
	movq	%rbx, -56(%rbp)
	movzwl	6(%rax), %esi
	movq	%rsi, %r15
	leaq	(,%rsi,8), %rsi
	leaq	(%rsi,%rsi,4), %rsi
	cmpq	%rdx, %rsi
	ja	LBB189_500
	movq	%rcx, %r11
	movl	12(%rax), %ecx
	testq	%rcx, %rcx
	je	LBB189_548
	movq	%rcx, %rbx
	movl	$32, %r9d
	cmpq	%r8, %rcx
	ja	LBB189_523
	movq	%r8, %rdx
	subq	%rbx, %rdx
	movl	16(%rax), %esi
	movq	%rsi, -104(%rbp)
	addq	%rsi, %rsi
	leaq	(%rsi,%rsi,8), %rsi
	subq	%rsi, %rdx
	jb	LBB189_580
	cmpq	$4, %rdx
	jb	LBB189_587
	movq	%rsi, %rcx
	movq	%rbx, %rsi
	addq	%r13, %rsi
	movq	%rcx, %rbx
	movq	%rsi, -232(%rbp)
	addq	%rsi, %rbx
	movq	%rbx, -96(%rbp)
	movl	(%rbx), %esi
	movq	%rsi, %rcx
	cmpq	%rsi, %rdx
	jae	LBB189_549
	jmp	LBB189_598
LBB189_17:
	cmpb	$-50, %bl
	je	LBB189_33
	cmpb	$-49, %bl
	je	LBB189_48
	cmpb	$-2, %bl
	jne	LBB189_53
	cmpb	$-19, %dl
	jne	LBB189_53
	cmpb	$-6, %cl
	jne	LBB189_53
	cmpb	$-50, %al
	je	LBB189_36
	cmpb	$-49, %al
	je	LBB189_51
	jmp	LBB189_53
LBB189_24:
	cmpb	$100, %bl
	je	LBB189_45
	cmpb	$127, %bl
	jne	LBB189_53
	cmpb	$69, %dl
	jne	LBB189_53
	cmpb	$76, %cl
	jne	LBB189_53
	cmpb	$70, %al
	jne	LBB189_53
	movb	4(%r13), %al
	cmpb	$1, %al
	je	LBB189_69
	cmpb	$2, %al
	jne	LBB189_53
	cmpq	$64, %r8
	jae	LBB189_372
	leaq	l___unnamed_283(%rip), %r10
	movl	$36, %edx
	jmp	LBB189_387
LBB189_33:
	cmpb	$-6, %dl
	jne	LBB189_53
	cmpb	$-19, %cl
	jne	LBB189_53
	cmpb	$-2, %al
	jne	LBB189_53
LBB189_36:
	cmpq	$28, %r8
	jb	LBB189_52
	movl	(%r13), %ecx
	cmpl	$-822415874, %ecx
	je	LBB189_39
	cmpl	$-17958194, %ecx
	jne	LBB189_67
LBB189_39:
	cmpl	$-822415874, %ecx
	movq	$8, -224(%rbp)
	movq	$0, -216(%rbp)
	movl	20(%r13), %eax
	movl	%eax, %edx
	bswapl	%edx
	cmovnel	%eax, %edx
	movq	$0, -208(%rbp)
	leaq	-28(%r8), %rax
	movl	$8, %ebx
	cmpq	%rdx, %rax
	jae	LBB189_74
	leaq	l___unnamed_284(%rip), %r15
	xorl	%r9d, %r9d
LBB189_41:
	xorl	%eax, %eax
	xorl	%r10d, %r10d
	xorl	%r11d, %r11d
	movq	%r15, %r14
LBB189_42:
	movq	%rbx, -56(%rbp)
	movq	%r10, -88(%rbp)
	xorl	%edx, %edx
	cmpl	$-822415874, %ecx
	sete	%dl
	movl	$3, %esi
	jmp	LBB189_43
LBB189_44:
	cmpb	$1, %dl
	je	LBB189_46
	jmp	LBB189_53
LBB189_45:
	cmpb	$-122, %dl
	jne	LBB189_53
LBB189_46:
	cmpq	$20, %r8
	jae	LBB189_56
	movl	$42, %edx
	leaq	l___unnamed_285(%rip), %rax
	jmp	LBB189_410
LBB189_48:
	cmpb	$-6, %dl
	jne	LBB189_53
	cmpb	$-19, %cl
	jne	LBB189_53
	cmpb	$-2, %al
	jne	LBB189_53
LBB189_51:
	cmpq	$32, %r8
	jae	LBB189_59
LBB189_52:
	leaq	l___unnamed_286(%rip), %r14
	movl	$39, %ebx
	jmp	LBB189_68
LBB189_53:
	leaq	l___unnamed_287(%rip), %rax
	movq	%rax, 8(%rdi)
	movq	$18, 16(%rdi)
LBB189_54:
	movq	$1, (%rdi)
LBB189_55:
	movq	%rdi, %rax
	addq	$648, %rsp
	popq	%rbx
	popq	%r12
	popq	%r13
	popq	%r14
	popq	%r15
	popq	%rbp
	retq
LBB189_56:
	leaq	-20(%r8), %rdx
	movzwl	16(%r13), %ecx
	subq	%rcx, %rdx
	jae	LBB189_65
	movl	$33, %edx
	leaq	l___unnamed_288(%rip), %rax
	jmp	LBB189_410
LBB189_58:
	leaq	l___unnamed_289(%rip), %rax
	movq	%rax, 8(%rdi)
	movq	$19, 16(%rdi)
	jmp	LBB189_54
LBB189_59:
	movl	(%r13), %ecx
	cmpl	$-805638658, %ecx
	je	LBB189_61
	cmpl	$-17958193, %ecx
	jne	LBB189_67
LBB189_61:
	cmpl	$-805638658, %ecx
	movq	$8, -224(%rbp)
	movq	$0, -216(%rbp)
	movl	20(%r13), %eax
	movl	%eax, %edx
	bswapl	%edx
	cmovnel	%eax, %edx
	movq	$0, -208(%rbp)
	leaq	-32(%r8), %rax
	movl	$8, %ebx
	cmpq	%rdx, %rax
	jae	LBB189_223
	leaq	l___unnamed_284(%rip), %r15
	xorl	%r9d, %r9d
LBB189_63:
	xorl	%eax, %eax
	xorl	%r10d, %r10d
	xorl	%r11d, %r11d
	movq	%r15, %r14
LBB189_64:
	movq	%rbx, -56(%rbp)
	movq	%r10, -88(%rbp)
	xorl	%edx, %edx
	cmpl	$-805638658, %ecx
	sete	%dl
	movl	$4, %esi
LBB189_43:
	movq	%r13, %r10
	jmp	LBB189_511
LBB189_65:
	movzwl	2(%r13), %r10d
	leaq	(,%r10,8), %rsi
	leaq	(%rsi,%rsi,4), %rsi
	cmpq	%rdx, %rsi
	jbe	LBB189_71
	movl	$31, %edx
	leaq	l___unnamed_290(%rip), %rax
	jmp	LBB189_410
LBB189_67:
	leaq	l___unnamed_291(%rip), %r14
	movl	$25, %ebx
LBB189_68:
	movq	%r14, 8(%rdi)
	movq	%rbx, 16(%rdi)
	jmp	LBB189_54
LBB189_69:
	cmpq	$52, %r8
	jae	LBB189_375
	leaq	l___unnamed_283(%rip), %r10
	movl	$36, %edx
	jmp	LBB189_506
LBB189_71:
	movl	8(%r13), %esi
	testq	%rsi, %rsi
	je	LBB189_399
	movl	$32, %edx
	cmpq	%r8, %rsi
	jbe	LBB189_401
	leaq	l___unnamed_292(%rip), %rax
	jmp	LBB189_410
LBB189_74:
	cmpl	$-822415874, %ecx
	movl	16(%r13), %eax
	movl	%eax, %esi
	bswapl	%esi
	cmovnel	%eax, %esi
	xorl	%r9d, %r9d
	leaq	l___unnamed_284(%rip), %r15
	cmpl	$8, %edx
	jb	LBB189_41
	movl	$0, %eax
	movl	$0, %r10d
	movl	$0, %r11d
	movq	%r15, %r14
	movl	%esi, -268(%rbp)
	testl	%esi, %esi
	je	LBB189_42
	movl	%ecx, -72(%rbp)
	movq	%rdi, -80(%rbp)
	leaq	28(%r13), %r12
	leaq	l___unnamed_284(%rip), %r14
	movl	$8, %edi
	xorl	%ecx, %ecx
	movl	$0, %r9d
	xorl	%r11d, %r11d
	movq	%r14, %r15
	xorl	%r10d, %r10d
	movq	%r13, -448(%rbp)
	movq	%r8, -152(%rbp)
LBB189_77:
	movl	-72(%rbp), %esi
	cmpl	$-822415874, %esi
	movl	4(%r12), %eax
	movl	%eax, %ebx
	bswapl	%ebx
	cmovnel	%eax, %ebx
	movq	%rbx, -160(%rbp)
	subq	%rbx, %rdx
	movq	%rdx, -256(%rbp)
	jb	LBB189_222
	movl	(%r12), %edx
	cmpl	$-822415874, %esi
