	.section	__TEXT,__text,regular,pure_instructions
	.macosx_version_min 10, 7
	.p2align	4, 0x90
__ZN44_$LT$$RF$T$u20$as$u20$core..fmt..Display$GT$3fmt17h9c65b393f47bc8cdE:
	.cfi_startproc
	pushq	%rbp
	.cfi_def_cfa_offset 16
	.cfi_offset %rbp, -16
	movq	%rsp, %rbp
	.cfi_def_cfa_register %rbp
	movq	%rsi, %rdx
	movq	(%rdi), %rax
	movq	8(%rdi), %rsi
	movq	%rax, %rdi
	popq	%rbp
	jmp	__ZN42_$LT$str$u20$as$u20$core..fmt..Display$GT$3fmt17h6768afae62e94f93E
	.cfi_endproc

	.globl	__ZN57_$LT$optional..OptionBool$u20$as$u20$core..fmt..Debug$GT$3fmt17h5e82ce723ca9a459E
	.p2align	4, 0x90
__ZN57_$LT$optional..OptionBool$u20$as$u20$core..fmt..Debug$GT$3fmt17h5e82ce723ca9a459E:
	.cfi_startproc
	pushq	%rbp
	.cfi_def_cfa_offset 16
	.cfi_offset %rbp, -16
	movq	%rsp, %rbp
	.cfi_def_cfa_register %rbp
	subq	$80, %rsp
	movq	%rsi, %rax
	movzbl	(%rdi), %ecx
	testq	%rcx, %rcx
	je	LBB1_3
	cmpl	$1, %ecx
	je	LBB1_4
	leaq	L___unnamed_1(%rip), %rcx
	movq	%rcx, -16(%rbp)
	movl	$4, %ecx
	jmp	LBB1_5
LBB1_3:
	leaq	l___unnamed_2(%rip), %rcx
	movq	%rcx, -16(%rbp)
	movl	$10, %ecx
	jmp	LBB1_5
LBB1_4:
	leaq	l___unnamed_3(%rip), %rcx
	movq	%rcx, -16(%rbp)
	movl	$11, %ecx
LBB1_5:
	movq	%rcx, -8(%rbp)
	leaq	-16(%rbp), %rcx
	movq	%rcx, -32(%rbp)
	leaq	__ZN44_$LT$$RF$T$u20$as$u20$core..fmt..Display$GT$3fmt17h9c65b393f47bc8cdE(%rip), %rcx
	movq	%rcx, -24(%rbp)
	leaq	__ZN8optional18OB_EMPTY_SLICE_REF17hf22121dd267a8220E(%rip), %rcx
	movq	%rcx, -80(%rbp)
	movq	$1, -72(%rbp)
	movq	$0, -64(%rbp)
	leaq	-32(%rbp), %rcx
	movq	%rcx, -48(%rbp)
	movq	$1, -40(%rbp)
	leaq	-80(%rbp), %rsi
	movq	%rax, %rdi
	callq	__ZN4core3fmt9Formatter9write_fmt17h742ca6aae87ad23cE
	addq	$80, %rsp
	popq	%rbp
	retq
	.cfi_endproc

	.globl	__ZN38_$LT$i8$u20$as$u20$optional..OptEq$GT$6opt_eq17h7d6437972c3da0abE
	.p2align	4, 0x90
__ZN38_$LT$i8$u20$as$u20$optional..OptEq$GT$6opt_eq17h7d6437972c3da0abE:
	.cfi_startproc
	pushq	%rbp
	.cfi_def_cfa_offset 16
	.cfi_offset %rbp, -16
	movq	%rsp, %rbp
	.cfi_def_cfa_register %rbp
	movb	(%rdi), %al
	cmpb	(%rsi), %al
	sete	%al
	popq	%rbp
	retq
	.cfi_endproc

	.globl	__ZN39_$LT$i16$u20$as$u20$optional..OptEq$GT$6opt_eq17h450e8ee500d038f7E
	.p2align	4, 0x90
__ZN39_$LT$i16$u20$as$u20$optional..OptEq$GT$6opt_eq17h450e8ee500d038f7E:
	.cfi_startproc
	pushq	%rbp
	.cfi_def_cfa_offset 16
	.cfi_offset %rbp, -16
	movq	%rsp, %rbp
	.cfi_def_cfa_register %rbp
	movzwl	(%rdi), %eax
	cmpw	(%rsi), %ax
	sete	%al
	popq	%rbp
	retq
	.cfi_endproc

	.globl	__ZN39_$LT$i32$u20$as$u20$optional..OptEq$GT$6opt_eq17h0ad494b73ce69c40E
	.p2align	4, 0x90
__ZN39_$LT$i32$u20$as$u20$optional..OptEq$GT$6opt_eq17h0ad494b73ce69c40E:
	.cfi_startproc
	pushq	%rbp
	.cfi_def_cfa_offset 16
	.cfi_offset %rbp, -16
	movq	%rsp, %rbp
	.cfi_def_cfa_register %rbp
	movl	(%rdi), %eax
	cmpl	(%rsi), %eax
	sete	%al
	popq	%rbp
	retq
	.cfi_endproc

	.globl	__ZN39_$LT$i64$u20$as$u20$optional..OptEq$GT$6opt_eq17h9f551e86814aeffeE
	.p2align	4, 0x90
__ZN39_$LT$i64$u20$as$u20$optional..OptEq$GT$6opt_eq17h9f551e86814aeffeE:
	.cfi_startproc
	pushq	%rbp
	.cfi_def_cfa_offset 16
	.cfi_offset %rbp, -16
	movq	%rsp, %rbp
	.cfi_def_cfa_register %rbp
	movq	(%rdi), %rax
	cmpq	(%rsi), %rax
	sete	%al
	popq	%rbp
	retq
	.cfi_endproc

	.globl	__ZN39_$LT$f32$u20$as$u20$optional..OptEq$GT$6opt_eq17h7f6d7a0168301beaE
	.p2align	4, 0x90
__ZN39_$LT$f32$u20$as$u20$optional..OptEq$GT$6opt_eq17h7f6d7a0168301beaE:
	.cfi_startproc
	pushq	%rbp
	.cfi_def_cfa_offset 16
	.cfi_offset %rbp, -16
	movq	%rsp, %rbp
	.cfi_def_cfa_register %rbp
	movss	(%rdi), %xmm0
	movss	(%rsi), %xmm1
	xorl	%eax, %eax
	ucomiss	%xmm1, %xmm1
	setp	%al
	cmpeqss	%xmm0, %xmm1
	movd	%xmm1, %ecx
	andl	$1, %ecx
	ucomiss	%xmm0, %xmm0
	cmovnpl	%ecx, %eax
	popq	%rbp
	retq
	.cfi_endproc

	.globl	__ZN39_$LT$f64$u20$as$u20$optional..OptEq$GT$6opt_eq17hc59a149e47d61accE
	.p2align	4, 0x90
__ZN39_$LT$f64$u20$as$u20$optional..OptEq$GT$6opt_eq17hc59a149e47d61accE:
	.cfi_startproc
	pushq	%rbp
	.cfi_def_cfa_offset 16
	.cfi_offset %rbp, -16
	movq	%rsp, %rbp
	.cfi_def_cfa_register %rbp
	movsd	(%rdi), %xmm0
	movsd	(%rsi), %xmm1
	xorl	%eax, %eax
	ucomisd	%xmm1, %xmm1
	setp	%al
	cmpeqsd	%xmm0, %xmm1
	movq	%xmm1, %rcx
	andl	$1, %ecx
	ucomisd	%xmm0, %xmm0
	cmovnpl	%ecx, %eax
	popq	%rbp
	retq
	.cfi_endproc

	.globl	__ZN39_$LT$u8$u20$as$u20$optional..OptOrd$GT$7opt_cmp17h672f82c04470cb22E
	.p2align	4, 0x90
__ZN39_$LT$u8$u20$as$u20$optional..OptOrd$GT$7opt_cmp17h672f82c04470cb22E:
	.cfi_startproc
	pushq	%rbp
	.cfi_def_cfa_offset 16
	.cfi_offset %rbp, -16
	movq	%rsp, %rbp
	.cfi_def_cfa_register %rbp
	movb	(%rdi), %cl
	movb	(%rsi), %al
	cmpb	$-1, %cl
	je	LBB8_3
	cmpb	$-1, %al
	je	LBB8_2
	xorl	%edx, %edx
	cmpb	%al, %cl
	setne	%dl
	movl	$255, %eax
	cmovael	%edx, %eax
	popq	%rbp
	retq
LBB8_3:
	cmpb	$-1, %al
	sete	%al
	decb	%al
	popq	%rbp
	retq
LBB8_2:
	movb	$1, %al
	popq	%rbp
	retq
	.cfi_endproc

	.globl	__ZN40_$LT$u16$u20$as$u20$optional..OptOrd$GT$7opt_cmp17haa2ce5755f4b956fE
	.p2align	4, 0x90
__ZN40_$LT$u16$u20$as$u20$optional..OptOrd$GT$7opt_cmp17haa2ce5755f4b956fE:
	.cfi_startproc
	pushq	%rbp
	.cfi_def_cfa_offset 16
	.cfi_offset %rbp, -16
	movq	%rsp, %rbp
	.cfi_def_cfa_register %rbp
	movzwl	(%rdi), %ecx
	movzwl	(%rsi), %eax
	cmpw	$-1, %cx
	je	LBB9_3
	cmpw	$-1, %ax
	je	LBB9_2
	xorl	%edx, %edx
	cmpw	%ax, %cx
	setne	%dl
	movl	$255, %eax
	cmovael	%edx, %eax
	popq	%rbp
	retq
LBB9_3:
	cmpw	$-1, %ax
	sete	%al
	decb	%al
	popq	%rbp
	retq
LBB9_2:
	movb	$1, %al
	popq	%rbp
	retq
	.cfi_endproc

	.globl	__ZN40_$LT$u32$u20$as$u20$optional..OptOrd$GT$7opt_cmp17he36ee160930cdf66E
	.p2align	4, 0x90
__ZN40_$LT$u32$u20$as$u20$optional..OptOrd$GT$7opt_cmp17he36ee160930cdf66E:
	.cfi_startproc
	pushq	%rbp
	.cfi_def_cfa_offset 16
	.cfi_offset %rbp, -16
	movq	%rsp, %rbp
	.cfi_def_cfa_register %rbp
	movl	(%rdi), %ecx
	movl	(%rsi), %eax
	cmpl	$-1, %ecx
	je	LBB10_3
	cmpl	$-1, %eax
	je	LBB10_2
	xorl	%edx, %edx
	cmpl	%eax, %ecx
	setne	%dl
	movl	$255, %eax
	cmovael	%edx, %eax
	popq	%rbp
	retq
LBB10_3:
	cmpl	$-1, %eax
	sete	%al
	decb	%al
	popq	%rbp
	retq
LBB10_2:
	movb	$1, %al
	popq	%rbp
	retq
	.cfi_endproc

	.globl	__ZN40_$LT$u64$u20$as$u20$optional..OptOrd$GT$7opt_cmp17h93d28fbe07d1a7b9E
	.p2align	4, 0x90
__ZN40_$LT$u64$u20$as$u20$optional..OptOrd$GT$7opt_cmp17h93d28fbe07d1a7b9E:
	.cfi_startproc
	pushq	%rbp
	.cfi_def_cfa_offset 16
	.cfi_offset %rbp, -16
	movq	%rsp, %rbp
	.cfi_def_cfa_register %rbp
	movq	(%rdi), %rcx
	movq	(%rsi), %rax
	cmpq	$-1, %rcx
	je	LBB11_3
	cmpq	$-1, %rax
	je	LBB11_2
	xorl	%edx, %edx
	cmpq	%rax, %rcx
	setne	%dl
	movl	$255, %eax
	cmovael	%edx, %eax
	popq	%rbp
	retq
LBB11_3:
	cmpq	$-1, %rax
	sete	%al
	decb	%al
	popq	%rbp
	retq
LBB11_2:
	movb	$1, %al
	popq	%rbp
	retq
	.cfi_endproc

	.globl	__ZN39_$LT$i8$u20$as$u20$optional..OptOrd$GT$7opt_cmp17hb6c0a4576cf9954cE
	.p2align	4, 0x90
__ZN39_$LT$i8$u20$as$u20$optional..OptOrd$GT$7opt_cmp17hb6c0a4576cf9954cE:
	.cfi_startproc
	pushq	%rbp
	.cfi_def_cfa_offset 16
	.cfi_offset %rbp, -16
	movq	%rsp, %rbp
	.cfi_def_cfa_register %rbp
	movb	(%rdi), %al
	xorl	%ecx, %ecx
	cmpb	(%rsi), %al
	setne	%cl
	movl	$255, %eax
	cmovgel	%ecx, %eax
	popq	%rbp
	retq
	.cfi_endproc

	.globl	__ZN40_$LT$i16$u20$as$u20$optional..OptOrd$GT$7opt_cmp17hce8af5c432d465a7E
	.p2align	4, 0x90
__ZN40_$LT$i16$u20$as$u20$optional..OptOrd$GT$7opt_cmp17hce8af5c432d465a7E:
	.cfi_startproc
	pushq	%rbp
	.cfi_def_cfa_offset 16
	.cfi_offset %rbp, -16
	movq	%rsp, %rbp
	.cfi_def_cfa_register %rbp
	movzwl	(%rdi), %eax
	xorl	%ecx, %ecx
	cmpw	(%rsi), %ax
	setne	%cl
	movl	$255, %eax
	cmovgel	%ecx, %eax
	popq	%rbp
	retq
	.cfi_endproc

	.globl	__ZN40_$LT$i32$u20$as$u20$optional..OptOrd$GT$7opt_cmp17h2bbbd4e8c081db44E
	.p2align	4, 0x90
__ZN40_$LT$i32$u20$as$u20$optional..OptOrd$GT$7opt_cmp17h2bbbd4e8c081db44E:
	.cfi_startproc
	pushq	%rbp
	.cfi_def_cfa_offset 16
	.cfi_offset %rbp, -16
	movq	%rsp, %rbp
	.cfi_def_cfa_register %rbp
	movl	(%rdi), %eax
	xorl	%ecx, %ecx
	cmpl	(%rsi), %eax
	setne	%cl
	movl	$255, %eax
	cmovgel	%ecx, %eax
	popq	%rbp
	retq
	.cfi_endproc

	.globl	__ZN40_$LT$i64$u20$as$u20$optional..OptOrd$GT$7opt_cmp17h226feff3ce52fce4E
	.p2align	4, 0x90
__ZN40_$LT$i64$u20$as$u20$optional..OptOrd$GT$7opt_cmp17h226feff3ce52fce4E:
	.cfi_startproc
	pushq	%rbp
	.cfi_def_cfa_offset 16
	.cfi_offset %rbp, -16
	movq	%rsp, %rbp
	.cfi_def_cfa_register %rbp
	movq	(%rdi), %rax
	xorl	%ecx, %ecx
	cmpq	(%rsi), %rax
	setne	%cl
	movl	$255, %eax
	cmovgel	%ecx, %eax
	popq	%rbp
	retq
	.cfi_endproc

	.globl	__ZN40_$LT$f32$u20$as$u20$optional..OptOrd$GT$7opt_cmp17hf667e08a511dfd84E
	.p2align	4, 0x90
__ZN40_$LT$f32$u20$as$u20$optional..OptOrd$GT$7opt_cmp17hf667e08a511dfd84E:
	.cfi_startproc
	pushq	%rbp
	.cfi_def_cfa_offset 16
	.cfi_offset %rbp, -16
	movq	%rsp, %rbp
	.cfi_def_cfa_register %rbp
	movss	(%rdi), %xmm1
	movss	(%rsi), %xmm0
	ucomiss	%xmm1, %xmm1
	jp	LBB16_5
	ucomiss	%xmm0, %xmm0
	jp	LBB16_2
	ucomiss	%xmm0, %xmm1
	setae	%al
	movb	$2, %cl
	subb	%al, %cl
	decb	%al
	ucomiss	%xmm1, %xmm0
	movzbl	%al, %edx
	movzbl	%cl, %eax
	cmovael	%edx, %eax
	cmpb	$2, %al
	je	LBB16_4
	popq	%rbp
	retq
LBB16_5:
	ucomiss	%xmm0, %xmm0
	setp	%al
	decb	%al
	popq	%rbp
	retq
LBB16_2:
	movb	$1, %al
	popq	%rbp
	retq
LBB16_4:
	leaq	l___unnamed_4(%rip), %rdi
	leaq	l___unnamed_5(%rip), %rdx
	movl	$43, %esi
	callq	__ZN4core9panicking5panic17h383a6b80ea7021aaE
	.cfi_endproc

	.globl	__ZN40_$LT$f64$u20$as$u20$optional..OptOrd$GT$7opt_cmp17hf81c3e8098aff52bE
	.p2align	4, 0x90
__ZN40_$LT$f64$u20$as$u20$optional..OptOrd$GT$7opt_cmp17hf81c3e8098aff52bE:
	.cfi_startproc
	pushq	%rbp
	.cfi_def_cfa_offset 16
	.cfi_offset %rbp, -16
	movq	%rsp, %rbp
	.cfi_def_cfa_register %rbp
	movsd	(%rdi), %xmm1
	movsd	(%rsi), %xmm0
	ucomisd	%xmm1, %xmm1
	jp	LBB17_5
	ucomisd	%xmm0, %xmm0
	jp	LBB17_2
	ucomisd	%xmm0, %xmm1
	setae	%al
	movb	$2, %cl
	subb	%al, %cl
	decb	%al
	ucomisd	%xmm1, %xmm0
	movzbl	%al, %edx
	movzbl	%cl, %eax
	cmovael	%edx, %eax
	cmpb	$2, %al
	je	LBB17_4
	popq	%rbp
	retq
LBB17_5:
	ucomisd	%xmm0, %xmm0
	setp	%al
	decb	%al
	popq	%rbp
	retq
LBB17_2:
	movb	$1, %al
	popq	%rbp
	retq
LBB17_4:
	leaq	l___unnamed_4(%rip), %rdi
	leaq	l___unnamed_5(%rip), %rdx
	movl	$43, %esi
	callq	__ZN4core9panicking5panic17h383a6b80ea7021aaE
	.cfi_endproc

	.globl	__ZN41_$LT$char$u20$as$u20$optional..OptOrd$GT$7opt_cmp17h1e9416f27eeb20ddE
	.p2align	4, 0x90
__ZN41_$LT$char$u20$as$u20$optional..OptOrd$GT$7opt_cmp17h1e9416f27eeb20ddE:
	.cfi_startproc
	pushq	%rbp
	.cfi_def_cfa_offset 16
	.cfi_offset %rbp, -16
	movq	%rsp, %rbp
	.cfi_def_cfa_register %rbp
	movl	(%rdi), %ecx
	movl	(%rsi), %eax
	testl	%ecx, %ecx
	je	LBB18_3
	testl	%eax, %eax
	je	LBB18_2
	xorl	%edx, %edx
	cmpl	%eax, %ecx
	setne	%dl
	movl	$255, %eax
	cmovael	%edx, %eax
	popq	%rbp
	retq
LBB18_3:
	negl	%eax
	sbbb	%al, %al
	popq	%rbp
	retq
LBB18_2:
	movb	$1, %al
	popq	%rbp
	retq
	.cfi_endproc

	.section	__TEXT,__const
l___unnamed_4:
	.ascii	"called `Option::unwrap()` on a `None` value"

__ZN8optional13OB_TRUE_SLICE17h294b43e3a29d647fE:
	.byte	1

__ZN8optional14OB_FALSE_SLICE17h0462b242eac07126E:
	.space	1

	.section	__DATA,__const
	.globl	__ZN8optional17OB_TRUE_SLICE_REF17h6af7e7f75006b9deE
	.p2align	3
__ZN8optional17OB_TRUE_SLICE_REF17h6af7e7f75006b9deE:
	.quad	__ZN8optional13OB_TRUE_SLICE17h294b43e3a29d647fE
	.asciz	"\001\000\000\000\000\000\000"

	.globl	__ZN8optional18OB_FALSE_SLICE_REF17h7f732ab91f0beb51E
	.p2align	3
__ZN8optional18OB_FALSE_SLICE_REF17h7f732ab91f0beb51E:
	.quad	__ZN8optional14OB_FALSE_SLICE17h0462b242eac07126E
	.asciz	"\001\000\000\000\000\000\000"

	.globl	__ZN8optional18OB_EMPTY_SLICE_REF17hf22121dd267a8220E
	.p2align	3
__ZN8optional18OB_EMPTY_SLICE_REF17hf22121dd267a8220E:
	.quad	l___unnamed_6
	.space	8

	.section	__TEXT,__const
l___unnamed_6:
	.byte	0

	.section	__TEXT,__literal4,4byte_literals
L___unnamed_1:
	.ascii	"None"

	.section	__TEXT,__const
l___unnamed_3:
	.ascii	"Some(false)"

l___unnamed_2:
	.ascii	"Some(true)"

l___unnamed_7:
	.ascii	"/Users/yingyuhang/.cargo/registry/src/github.com-1ecc6299db9ec823/optional-0.5.0/src/lib.rs"

	.section	__DATA,__const
	.p2align	3
l___unnamed_5:
	.quad	l___unnamed_7
	.asciz	"[\000\000\000\000\000\000\000{\004\000\000\032\000\000"

	.globl	__ZN42_$LT$isize$u20$as$u20$optional..OptOrd$GT$7opt_cmp17h0fb7640e47f70fb6E
.set __ZN42_$LT$isize$u20$as$u20$optional..OptOrd$GT$7opt_cmp17h0fb7640e47f70fb6E, __ZN40_$LT$i64$u20$as$u20$optional..OptOrd$GT$7opt_cmp17h226feff3ce52fce4E
	.globl	__ZN41_$LT$usize$u20$as$u20$optional..OptEq$GT$6opt_eq17he1774e09a864cba8E
.set __ZN41_$LT$usize$u20$as$u20$optional..OptEq$GT$6opt_eq17he1774e09a864cba8E, __ZN39_$LT$i64$u20$as$u20$optional..OptEq$GT$6opt_eq17h9f551e86814aeffeE
	.globl	__ZN38_$LT$u8$u20$as$u20$optional..OptEq$GT$6opt_eq17hb645fa7a0bd261beE
.set __ZN38_$LT$u8$u20$as$u20$optional..OptEq$GT$6opt_eq17hb645fa7a0bd261beE, __ZN38_$LT$i8$u20$as$u20$optional..OptEq$GT$6opt_eq17h7d6437972c3da0abE
	.globl	__ZN39_$LT$u16$u20$as$u20$optional..OptEq$GT$6opt_eq17heaf34a3878b372d1E
.set __ZN39_$LT$u16$u20$as$u20$optional..OptEq$GT$6opt_eq17heaf34a3878b372d1E, __ZN39_$LT$i16$u20$as$u20$optional..OptEq$GT$6opt_eq17h450e8ee500d038f7E
	.globl	__ZN39_$LT$u32$u20$as$u20$optional..OptEq$GT$6opt_eq17hb9c80d9b9799ee3fE
.set __ZN39_$LT$u32$u20$as$u20$optional..OptEq$GT$6opt_eq17hb9c80d9b9799ee3fE, __ZN39_$LT$i32$u20$as$u20$optional..OptEq$GT$6opt_eq17h0ad494b73ce69c40E
	.globl	__ZN39_$LT$u64$u20$as$u20$optional..OptEq$GT$6opt_eq17h4e069c1a46bad941E
.set __ZN39_$LT$u64$u20$as$u20$optional..OptEq$GT$6opt_eq17h4e069c1a46bad941E, __ZN39_$LT$i64$u20$as$u20$optional..OptEq$GT$6opt_eq17h9f551e86814aeffeE
	.globl	__ZN41_$LT$isize$u20$as$u20$optional..OptEq$GT$6opt_eq17h8aaebc2431151c98E
.set __ZN41_$LT$isize$u20$as$u20$optional..OptEq$GT$6opt_eq17h8aaebc2431151c98E, __ZN39_$LT$i64$u20$as$u20$optional..OptEq$GT$6opt_eq17h9f551e86814aeffeE
	.globl	__ZN40_$LT$char$u20$as$u20$optional..OptEq$GT$6opt_eq17h2115bbbea6ac0f21E
.set __ZN40_$LT$char$u20$as$u20$optional..OptEq$GT$6opt_eq17h2115bbbea6ac0f21E, __ZN39_$LT$i32$u20$as$u20$optional..OptEq$GT$6opt_eq17h0ad494b73ce69c40E
	.globl	__ZN42_$LT$usize$u20$as$u20$optional..OptOrd$GT$7opt_cmp17h4fd39f1c806aaec4E
.set __ZN42_$LT$usize$u20$as$u20$optional..OptOrd$GT$7opt_cmp17h4fd39f1c806aaec4E, __ZN40_$LT$u64$u20$as$u20$optional..OptOrd$GT$7opt_cmp17h93d28fbe07d1a7b9E
.subsections_via_symbols
