	.section	__TEXT,__text,regular,pure_instructions
	.macosx_version_min 10, 7
	.p2align	4, 0x90
__ZN44_$LT$$RF$T$u20$as$u20$core..fmt..Display$GT$3fmt17h50ac1916d68fee72E:
	.cfi_startproc
	pushq	%rbp
	.cfi_def_cfa_offset 16
	.cfi_offset %rbp, -16
	movq	%rsp, %rbp
	.cfi_def_cfa_register %rbp
	movq	%rsi, %rdx
	movq	(%rdi), %rax
	movq	8(%rdi), %rsi
	movq	%rax, %rdi
	popq	%rbp
	jmp	__ZN42_$LT$str$u20$as$u20$core..fmt..Display$GT$3fmt17h6768afae62e94f93E
	.cfi_endproc

	.globl	__ZN68_$LT$packed_simd..masks..m8$u20$as$u20$packed_simd..sealed..Mask$GT$4test17hc07fc40eed0d424dE
	.p2align	4, 0x90
__ZN68_$LT$packed_simd..masks..m8$u20$as$u20$packed_simd..sealed..Mask$GT$4test17hc07fc40eed0d424dE:
	.cfi_startproc
	pushq	%rbp
	.cfi_def_cfa_offset 16
	.cfi_offset %rbp, -16
	movq	%rsp, %rbp
	.cfi_def_cfa_register %rbp
	cmpb	$0, (%rdi)
	setne	%al
	popq	%rbp
	retq
	.cfi_endproc

	.globl	__ZN69_$LT$packed_simd..masks..m16$u20$as$u20$packed_simd..sealed..Mask$GT$4test17h2b919029fc05fe36E
	.p2align	4, 0x90
__ZN69_$LT$packed_simd..masks..m16$u20$as$u20$packed_simd..sealed..Mask$GT$4test17h2b919029fc05fe36E:
	.cfi_startproc
	pushq	%rbp
	.cfi_def_cfa_offset 16
	.cfi_offset %rbp, -16
	movq	%rsp, %rbp
	.cfi_def_cfa_register %rbp
	cmpw	$0, (%rdi)
	setne	%al
	popq	%rbp
	retq
	.cfi_endproc

	.globl	__ZN69_$LT$packed_simd..masks..m32$u20$as$u20$packed_simd..sealed..Mask$GT$4test17ha330f64c640719d6E
	.p2align	4, 0x90
__ZN69_$LT$packed_simd..masks..m32$u20$as$u20$packed_simd..sealed..Mask$GT$4test17ha330f64c640719d6E:
	.cfi_startproc
	pushq	%rbp
	.cfi_def_cfa_offset 16
	.cfi_offset %rbp, -16
	movq	%rsp, %rbp
	.cfi_def_cfa_register %rbp
	cmpl	$0, (%rdi)
	setne	%al
	popq	%rbp
	retq
	.cfi_endproc

	.globl	__ZN69_$LT$packed_simd..masks..m64$u20$as$u20$packed_simd..sealed..Mask$GT$4test17h4a6aacba1da5d9b0E
	.p2align	4, 0x90
__ZN69_$LT$packed_simd..masks..m64$u20$as$u20$packed_simd..sealed..Mask$GT$4test17h4a6aacba1da5d9b0E:
	.cfi_startproc
	pushq	%rbp
	.cfi_def_cfa_offset 16
	.cfi_offset %rbp, -16
	movq	%rsp, %rbp
	.cfi_def_cfa_register %rbp
	cmpq	$0, (%rdi)
	setne	%al
	popq	%rbp
	retq
	.cfi_endproc

	.globl	__ZN70_$LT$packed_simd..masks..m128$u20$as$u20$packed_simd..sealed..Mask$GT$4test17hc1b2e0f4d0159757E
	.p2align	4, 0x90
__ZN70_$LT$packed_simd..masks..m128$u20$as$u20$packed_simd..sealed..Mask$GT$4test17hc1b2e0f4d0159757E:
	.cfi_startproc
	pushq	%rbp
	.cfi_def_cfa_offset 16
	.cfi_offset %rbp, -16
	movq	%rsp, %rbp
	.cfi_def_cfa_register %rbp
	movq	(%rdi), %rax
	orq	8(%rdi), %rax
	setne	%al
	popq	%rbp
	retq
	.cfi_endproc

	.globl	__ZN11packed_simd3v1695_$LT$impl$u20$core..fmt..Debug$u20$for$u20$packed_simd..Simd$LT$$u5b$i8$u3b$$u20$2$u5d$$GT$$GT$3fmt17h0973b30cdf8417c6E
	.p2align	4, 0x90
__ZN11packed_simd3v1695_$LT$impl$u20$core..fmt..Debug$u20$for$u20$packed_simd..Simd$LT$$u5b$i8$u3b$$u20$2$u5d$$GT$$GT$3fmt17h0973b30cdf8417c6E:
	.cfi_startproc
	pushq	%rbp
	.cfi_def_cfa_offset 16
	.cfi_offset %rbp, -16
	movq	%rsp, %rbp
	.cfi_def_cfa_register %rbp
	pushq	%r15
	pushq	%r14
	pushq	%rbx
	subq	$104, %rsp
	.cfi_offset %rbx, -40
	.cfi_offset %r14, -32
	.cfi_offset %r15, -24
	movq	%rsi, %r15
	movq	%rdi, %rbx
	leaq	l___unnamed_1(%rip), %rax
	movq	%rax, -88(%rbp)
	leaq	__ZN44_$LT$$RF$T$u20$as$u20$core..fmt..Display$GT$3fmt17h50ac1916d68fee72E(%rip), %rax
	movq	%rax, -80(%rbp)
	leaq	l___unnamed_2(%rip), %rax
	movq	%rax, -72(%rbp)
	movq	$2, -64(%rbp)
	movq	$0, -56(%rbp)
	leaq	-88(%rbp), %rax
	movq	%rax, -40(%rbp)
	movq	$1, -32(%rbp)
	leaq	-72(%rbp), %rsi
	movq	%r15, %rdi
	callq	__ZN4core3fmt9Formatter9write_fmt17h742ca6aae87ad23cE
	movb	$1, %r14b
	testb	%al, %al
	jne	LBB6_12
	movzwl	(%rbx), %eax
	movd	%eax, %xmm0
	movdqa	%xmm0, -112(%rbp)
	movdqa	%xmm0, -128(%rbp)
	movb	-128(%rbp), %al
	movb	%al, -72(%rbp)
	movq	%r15, %rdi
	callq	__ZN4core3fmt9Formatter15debug_lower_hex17hd07f6fde8d0365dfE
	testb	%al, %al
	je	LBB6_2
	leaq	-72(%rbp), %rdi
	movq	%r15, %rsi
	callq	__ZN4core3fmt3num52_$LT$impl$u20$core..fmt..LowerHex$u20$for$u20$i8$GT$3fmt17h5ba2f2472d1b08b3E
	testb	%al, %al
	je	LBB6_6
	jmp	LBB6_12
LBB6_2:
	movq	%r15, %rdi
	callq	__ZN4core3fmt9Formatter15debug_upper_hex17hf480c256a9c81c1eE
	leaq	-72(%rbp), %rdi
	movq	%r15, %rsi
	testb	%al, %al
	je	LBB6_4
	callq	__ZN4core3fmt3num52_$LT$impl$u20$core..fmt..UpperHex$u20$for$u20$i8$GT$3fmt17h36a1c2413d99c98eE
	testb	%al, %al
	je	LBB6_6
	jmp	LBB6_12
LBB6_4:
	callq	__ZN4core3fmt3num3imp51_$LT$impl$u20$core..fmt..Display$u20$for$u20$i8$GT$3fmt17hc9fc67837369c997E
	testb	%al, %al
	jne	LBB6_12
LBB6_6:
	leaq	l___unnamed_3(%rip), %rax
	movq	%rax, -72(%rbp)
	movq	$1, -64(%rbp)
	movq	$0, -56(%rbp)
	leaq	l___unnamed_4(%rip), %rbx
	movq	%rbx, -40(%rbp)
	movq	$0, -32(%rbp)
	leaq	-72(%rbp), %rsi
	movq	%r15, %rdi
	callq	__ZN4core3fmt9Formatter9write_fmt17h742ca6aae87ad23cE
	testb	%al, %al
	jne	LBB6_12
	movdqa	-112(%rbp), %xmm0
	movd	%xmm0, %eax
	movb	%ah, -72(%rbp)
	movq	%r15, %rdi
	callq	__ZN4core3fmt9Formatter15debug_lower_hex17hd07f6fde8d0365dfE
	testb	%al, %al
	je	LBB6_8
	leaq	-72(%rbp), %rdi
	movq	%r15, %rsi
	callq	__ZN4core3fmt3num52_$LT$impl$u20$core..fmt..LowerHex$u20$for$u20$i8$GT$3fmt17h5ba2f2472d1b08b3E
	jmp	LBB6_10
LBB6_8:
	movq	%r15, %rdi
	callq	__ZN4core3fmt9Formatter15debug_upper_hex17hf480c256a9c81c1eE
	leaq	-72(%rbp), %rdi
	movq	%r15, %rsi
	testb	%al, %al
	je	LBB6_9
	callq	__ZN4core3fmt3num52_$LT$impl$u20$core..fmt..UpperHex$u20$for$u20$i8$GT$3fmt17h36a1c2413d99c98eE
	jmp	LBB6_10
LBB6_9:
	callq	__ZN4core3fmt3num3imp51_$LT$impl$u20$core..fmt..Display$u20$for$u20$i8$GT$3fmt17hc9fc67837369c997E
LBB6_10:
	testb	%al, %al
	jne	LBB6_12
	leaq	l___unnamed_5(%rip), %rax
	movq	%rax, -72(%rbp)
	movq	$1, -64(%rbp)
	movq	$0, -56(%rbp)
	movq	%rbx, -40(%rbp)
	movq	$0, -32(%rbp)
	leaq	-72(%rbp), %rsi
	movq	%r15, %rdi
	callq	__ZN4core3fmt9Formatter9write_fmt17h742ca6aae87ad23cE
	movl	%eax, %r14d
LBB6_12:
	movl	%r14d, %eax
	addq	$104, %rsp
	popq	%rbx
	popq	%r14
	popq	%r15
	popq	%rbp
	retq
	.cfi_endproc

	.globl	__ZN11packed_simd3v1698_$LT$impl$u20$core..fmt..LowerHex$u20$for$u20$packed_simd..Simd$LT$$u5b$i8$u3b$$u20$2$u5d$$GT$$GT$3fmt17hdc0a7c43612bbbc5E
	.p2align	4, 0x90
__ZN11packed_simd3v1698_$LT$impl$u20$core..fmt..LowerHex$u20$for$u20$packed_simd..Simd$LT$$u5b$i8$u3b$$u20$2$u5d$$GT$$GT$3fmt17hdc0a7c43612bbbc5E:
	.cfi_startproc
	pushq	%rbp
	.cfi_def_cfa_offset 16
	.cfi_offset %rbp, -16
	movq	%rsp, %rbp
	.cfi_def_cfa_register %rbp
	pushq	%r15
	pushq	%r14
	pushq	%r13
	pushq	%r12
	pushq	%rbx
	subq	$104, %rsp
	.cfi_offset %rbx, -56
	.cfi_offset %r12, -48
	.cfi_offset %r13, -40
	.cfi_offset %r14, -32
	.cfi_offset %r15, -24
	movq	%rsi, %rbx
	movq	%rdi, %r15
	leaq	l___unnamed_1(%rip), %rax
	movq	%rax, -104(%rbp)
	leaq	__ZN44_$LT$$RF$T$u20$as$u20$core..fmt..Display$GT$3fmt17h50ac1916d68fee72E(%rip), %rax
	movq	%rax, -96(%rbp)
	leaq	l___unnamed_2(%rip), %rax
	movq	%rax, -88(%rbp)
	movq	$2, -80(%rbp)
	movq	$0, -72(%rbp)
	leaq	-104(%rbp), %rax
	movq	%rax, -56(%rbp)
	movq	$1, -48(%rbp)
	leaq	-88(%rbp), %rsi
	movq	%rbx, %rdi
	callq	__ZN4core3fmt9Formatter9write_fmt17h742ca6aae87ad23cE
	movb	$1, %cl
	testb	%al, %al
	jne	LBB7_9
	movzwl	(%r15), %eax
	movd	%eax, %xmm0
	movdqa	%xmm0, -128(%rbp)
	xorl	%r14d, %r14d
	leaq	-88(%rbp), %r15
	leaq	l___unnamed_3(%rip), %r13
	jmp	LBB7_3
	.p2align	4, 0x90
LBB7_2:
	movdqa	-128(%rbp), %xmm0
	movdqa	%xmm0, -144(%rbp)
	leaq	1(%r14), %r12
	andl	$15, %r14d
	movzbl	-144(%rbp,%r14), %eax
	movb	%al, -88(%rbp)
	movq	%r15, %rdi
	movq	%rbx, %rsi
	callq	__ZN4core3fmt3num52_$LT$impl$u20$core..fmt..LowerHex$u20$for$u20$i8$GT$3fmt17h5ba2f2472d1b08b3E
	movq	%r12, %r14
	testb	%al, %al
	jne	LBB7_8
LBB7_3:
	cmpq	$2, %r14
	je	LBB7_7
	testq	%r14, %r14
	je	LBB7_2
	movq	%r13, -88(%rbp)
	movq	$1, -80(%rbp)
	movq	$0, -72(%rbp)
	leaq	l___unnamed_4(%rip), %rax
	movq	%rax, -56(%rbp)
	movq	$0, -48(%rbp)
	movq	%rbx, %rdi
	movq	%r15, %rsi
	callq	__ZN4core3fmt9Formatter9write_fmt17h742ca6aae87ad23cE
	testb	%al, %al
	je	LBB7_2
LBB7_8:
	movb	$1, %cl
	jmp	LBB7_9
LBB7_7:
	leaq	l___unnamed_5(%rip), %rax
	movq	%rax, -88(%rbp)
	movq	$1, -80(%rbp)
	movq	$0, -72(%rbp)
	leaq	l___unnamed_4(%rip), %rax
	movq	%rax, -56(%rbp)
	movq	$0, -48(%rbp)
	leaq	-88(%rbp), %rsi
	movq	%rbx, %rdi
	callq	__ZN4core3fmt9Formatter9write_fmt17h742ca6aae87ad23cE
	movl	%eax, %ecx
LBB7_9:
	movl	%ecx, %eax
	addq	$104, %rsp
	popq	%rbx
	popq	%r12
	popq	%r13
	popq	%r14
	popq	%r15
	popq	%rbp
	retq
	.cfi_endproc

	.globl	__ZN11packed_simd3v1698_$LT$impl$u20$core..fmt..UpperHex$u20$for$u20$packed_simd..Simd$LT$$u5b$i8$u3b$$u20$2$u5d$$GT$$GT$3fmt17h3b479038a85a5dd9E
	.p2align	4, 0x90
__ZN11packed_simd3v1698_$LT$impl$u20$core..fmt..UpperHex$u20$for$u20$packed_simd..Simd$LT$$u5b$i8$u3b$$u20$2$u5d$$GT$$GT$3fmt17h3b479038a85a5dd9E:
	.cfi_startproc
	pushq	%rbp
	.cfi_def_cfa_offset 16
	.cfi_offset %rbp, -16
	movq	%rsp, %rbp
	.cfi_def_cfa_register %rbp
	pushq	%r15
	pushq	%r14
	pushq	%r13
	pushq	%r12
	pushq	%rbx
	subq	$104, %rsp
	.cfi_offset %rbx, -56
	.cfi_offset %r12, -48
	.cfi_offset %r13, -40
	.cfi_offset %r14, -32
	.cfi_offset %r15, -24
	movq	%rsi, %rbx
	movq	%rdi, %r15
	leaq	l___unnamed_1(%rip), %rax
	movq	%rax, -104(%rbp)
	leaq	__ZN44_$LT$$RF$T$u20$as$u20$core..fmt..Display$GT$3fmt17h50ac1916d68fee72E(%rip), %rax
	movq	%rax, -96(%rbp)
	leaq	l___unnamed_2(%rip), %rax
	movq	%rax, -88(%rbp)
	movq	$2, -80(%rbp)
	movq	$0, -72(%rbp)
	leaq	-104(%rbp), %rax
	movq	%rax, -56(%rbp)
	movq	$1, -48(%rbp)
	leaq	-88(%rbp), %rsi
	movq	%rbx, %rdi
	callq	__ZN4core3fmt9Formatter9write_fmt17h742ca6aae87ad23cE
	movb	$1, %cl
	testb	%al, %al
	jne	LBB8_9
	movzwl	(%r15), %eax
	movd	%eax, %xmm0
	movdqa	%xmm0, -128(%rbp)
	xorl	%r14d, %r14d
	leaq	-88(%rbp), %r15
	leaq	l___unnamed_3(%rip), %r13
	jmp	LBB8_3
	.p2align	4, 0x90
LBB8_2:
	movdqa	-128(%rbp), %xmm0
	movdqa	%xmm0, -144(%rbp)
	leaq	1(%r14), %r12
	andl	$15, %r14d
	movzbl	-144(%rbp,%r14), %eax
	movb	%al, -88(%rbp)
	movq	%r15, %rdi
	movq	%rbx, %rsi
	callq	__ZN4core3fmt3num52_$LT$impl$u20$core..fmt..UpperHex$u20$for$u20$i8$GT$3fmt17h36a1c2413d99c98eE
	movq	%r12, %r14
	testb	%al, %al
	jne	LBB8_8
LBB8_3:
	cmpq	$2, %r14
	je	LBB8_7
	testq	%r14, %r14
	je	LBB8_2
	movq	%r13, -88(%rbp)
	movq	$1, -80(%rbp)
	movq	$0, -72(%rbp)
	leaq	l___unnamed_4(%rip), %rax
	movq	%rax, -56(%rbp)
	movq	$0, -48(%rbp)
	movq	%rbx, %rdi
	movq	%r15, %rsi
	callq	__ZN4core3fmt9Formatter9write_fmt17h742ca6aae87ad23cE
	testb	%al, %al
	je	LBB8_2
LBB8_8:
	movb	$1, %cl
	jmp	LBB8_9
LBB8_7:
	leaq	l___unnamed_5(%rip), %rax
	movq	%rax, -88(%rbp)
	movq	$1, -80(%rbp)
	movq	$0, -72(%rbp)
	leaq	l___unnamed_4(%rip), %rax
	movq	%rax, -56(%rbp)
	movq	$0, -48(%rbp)
	leaq	-88(%rbp), %rsi
	movq	%rbx, %rdi
	callq	__ZN4core3fmt9Formatter9write_fmt17h742ca6aae87ad23cE
	movl	%eax, %ecx
LBB8_9:
	movl	%ecx, %eax
	addq	$104, %rsp
	popq	%rbx
	popq	%r12
	popq	%r13
	popq	%r14
	popq	%r15
	popq	%rbp
	retq
	.cfi_endproc

	.globl	__ZN11packed_simd3v1695_$LT$impl$u20$core..fmt..Octal$u20$for$u20$packed_simd..Simd$LT$$u5b$i8$u3b$$u20$2$u5d$$GT$$GT$3fmt17hb012cd77924ba52aE
	.p2align	4, 0x90
__ZN11packed_simd3v1695_$LT$impl$u20$core..fmt..Octal$u20$for$u20$packed_simd..Simd$LT$$u5b$i8$u3b$$u20$2$u5d$$GT$$GT$3fmt17hb012cd77924ba52aE:
	.cfi_startproc
	pushq	%rbp
	.cfi_def_cfa_offset 16
	.cfi_offset %rbp, -16
	movq	%rsp, %rbp
	.cfi_def_cfa_register %rbp
	pushq	%r15
	pushq	%r14
	pushq	%r13
	pushq	%r12
	pushq	%rbx
	subq	$104, %rsp
	.cfi_offset %rbx, -56
	.cfi_offset %r12, -48
	.cfi_offset %r13, -40
	.cfi_offset %r14, -32
	.cfi_offset %r15, -24
	movq	%rsi, %rbx
	movq	%rdi, %r15
	leaq	l___unnamed_1(%rip), %rax
	movq	%rax, -104(%rbp)
	leaq	__ZN44_$LT$$RF$T$u20$as$u20$core..fmt..Display$GT$3fmt17h50ac1916d68fee72E(%rip), %rax
	movq	%rax, -96(%rbp)
	leaq	l___unnamed_2(%rip), %rax
	movq	%rax, -88(%rbp)
	movq	$2, -80(%rbp)
	movq	$0, -72(%rbp)
	leaq	-104(%rbp), %rax
	movq	%rax, -56(%rbp)
	movq	$1, -48(%rbp)
	leaq	-88(%rbp), %rsi
	movq	%rbx, %rdi
	callq	__ZN4core3fmt9Formatter9write_fmt17h742ca6aae87ad23cE
	movb	$1, %cl
	testb	%al, %al
	jne	LBB9_9
	movzwl	(%r15), %eax
	movd	%eax, %xmm0
	movdqa	%xmm0, -128(%rbp)
	xorl	%r14d, %r14d
	leaq	-88(%rbp), %r15
	leaq	l___unnamed_3(%rip), %r13
	jmp	LBB9_3
	.p2align	4, 0x90
LBB9_2:
	movdqa	-128(%rbp), %xmm0
	movdqa	%xmm0, -144(%rbp)
	leaq	1(%r14), %r12
	andl	$15, %r14d
	movzbl	-144(%rbp,%r14), %eax
	movb	%al, -88(%rbp)
	movq	%r15, %rdi
	movq	%rbx, %rsi
	callq	__ZN4core3fmt3num49_$LT$impl$u20$core..fmt..Octal$u20$for$u20$i8$GT$3fmt17h22bc4fdd4bc3127cE
	movq	%r12, %r14
	testb	%al, %al
	jne	LBB9_8
LBB9_3:
	cmpq	$2, %r14
	je	LBB9_7
	testq	%r14, %r14
	je	LBB9_2
	movq	%r13, -88(%rbp)
	movq	$1, -80(%rbp)
	movq	$0, -72(%rbp)
	leaq	l___unnamed_4(%rip), %rax
	movq	%rax, -56(%rbp)
	movq	$0, -48(%rbp)
	movq	%rbx, %rdi
	movq	%r15, %rsi
	callq	__ZN4core3fmt9Formatter9write_fmt17h742ca6aae87ad23cE
	testb	%al, %al
	je	LBB9_2
LBB9_8:
	movb	$1, %cl
	jmp	LBB9_9
LBB9_7:
	leaq	l___unnamed_5(%rip), %rax
	movq	%rax, -88(%rbp)
	movq	$1, -80(%rbp)
	movq	$0, -72(%rbp)
	leaq	l___unnamed_4(%rip), %rax
	movq	%rax, -56(%rbp)
	movq	$0, -48(%rbp)
	leaq	-88(%rbp), %rsi
	movq	%rbx, %rdi
	callq	__ZN4core3fmt9Formatter9write_fmt17h742ca6aae87ad23cE
	movl	%eax, %ecx
LBB9_9:
	movl	%ecx, %eax
	addq	$104, %rsp
	popq	%rbx
	popq	%r12
	popq	%r13
	popq	%r14
	popq	%r15
	popq	%rbp
	retq
	.cfi_endproc

	.globl	__ZN11packed_simd3v1696_$LT$impl$u20$core..fmt..Binary$u20$for$u20$packed_simd..Simd$LT$$u5b$i8$u3b$$u20$2$u5d$$GT$$GT$3fmt17hf73827e99d7eb22dE
	.p2align	4, 0x90
__ZN11packed_simd3v1696_$LT$impl$u20$core..fmt..Binary$u20$for$u20$packed_simd..Simd$LT$$u5b$i8$u3b$$u20$2$u5d$$GT$$GT$3fmt17hf73827e99d7eb22dE:
	.cfi_startproc
	pushq	%rbp
	.cfi_def_cfa_offset 16
	.cfi_offset %rbp, -16
	movq	%rsp, %rbp
	.cfi_def_cfa_register %rbp
	pushq	%r15
	pushq	%r14
	pushq	%r13
	pushq	%r12
	pushq	%rbx
	subq	$104, %rsp
	.cfi_offset %rbx, -56
	.cfi_offset %r12, -48
	.cfi_offset %r13, -40
	.cfi_offset %r14, -32
	.cfi_offset %r15, -24
	movq	%rsi, %rbx
	movq	%rdi, %r15
	leaq	l___unnamed_1(%rip), %rax
	movq	%rax, -104(%rbp)
	leaq	__ZN44_$LT$$RF$T$u20$as$u20$core..fmt..Display$GT$3fmt17h50ac1916d68fee72E(%rip), %rax
	movq	%rax, -96(%rbp)
	leaq	l___unnamed_2(%rip), %rax
	movq	%rax, -88(%rbp)
	movq	$2, -80(%rbp)
	movq	$0, -72(%rbp)
	leaq	-104(%rbp), %rax
	movq	%rax, -56(%rbp)
	movq	$1, -48(%rbp)
	leaq	-88(%rbp), %rsi
	movq	%rbx, %rdi
	callq	__ZN4core3fmt9Formatter9write_fmt17h742ca6aae87ad23cE
	movb	$1, %cl
	testb	%al, %al
	jne	LBB10_9
	movzwl	(%r15), %eax
	movd	%eax, %xmm0
	movdqa	%xmm0, -128(%rbp)
	xorl	%r14d, %r14d
	leaq	-88(%rbp), %r15
	leaq	l___unnamed_3(%rip), %r13
	jmp	LBB10_3
	.p2align	4, 0x90
LBB10_2:
	movdqa	-128(%rbp), %xmm0
	movdqa	%xmm0, -144(%rbp)
	leaq	1(%r14), %r12
	andl	$15, %r14d
	movzbl	-144(%rbp,%r14), %eax
	movb	%al, -88(%rbp)
	movq	%r15, %rdi
	movq	%rbx, %rsi
	callq	__ZN4core3fmt3num50_$LT$impl$u20$core..fmt..Binary$u20$for$u20$i8$GT$3fmt17h99e877cd09afbddeE
	movq	%r12, %r14
	testb	%al, %al
	jne	LBB10_8
LBB10_3:
	cmpq	$2, %r14
	je	LBB10_7
	testq	%r14, %r14
	je	LBB10_2
	movq	%r13, -88(%rbp)
	movq	$1, -80(%rbp)
	movq	$0, -72(%rbp)
	leaq	l___unnamed_4(%rip), %rax
	movq	%rax, -56(%rbp)
	movq	$0, -48(%rbp)
	movq	%rbx, %rdi
	movq	%r15, %rsi
	callq	__ZN4core3fmt9Formatter9write_fmt17h742ca6aae87ad23cE
	testb	%al, %al
	je	LBB10_2
LBB10_8:
	movb	$1, %cl
	jmp	LBB10_9
LBB10_7:
	leaq	l___unnamed_5(%rip), %rax
	movq	%rax, -88(%rbp)
	movq	$1, -80(%rbp)
	movq	$0, -72(%rbp)
	leaq	l___unnamed_4(%rip), %rax
	movq	%rax, -56(%rbp)
	movq	$0, -48(%rbp)
	leaq	-88(%rbp), %rsi
	movq	%rbx, %rdi
	callq	__ZN4core3fmt9Formatter9write_fmt17h742ca6aae87ad23cE
	movl	%eax, %ecx
LBB10_9:
	movl	%ecx, %eax
	addq	$104, %rsp
	popq	%rbx
	popq	%r12
	popq	%r13
	popq	%r14
	popq	%r15
	popq	%rbp
	retq
	.cfi_endproc

	.globl	__ZN11packed_simd3v1695_$LT$impl$u20$core..fmt..Debug$u20$for$u20$packed_simd..Simd$LT$$u5b$u8$u3b$$u20$2$u5d$$GT$$GT$3fmt17h97ce5da91dbcf03eE
	.p2align	4, 0x90
__ZN11packed_simd3v1695_$LT$impl$u20$core..fmt..Debug$u20$for$u20$packed_simd..Simd$LT$$u5b$u8$u3b$$u20$2$u5d$$GT$$GT$3fmt17h97ce5da91dbcf03eE:
	.cfi_startproc
	pushq	%rbp
	.cfi_def_cfa_offset 16
	.cfi_offset %rbp, -16
	movq	%rsp, %rbp
	.cfi_def_cfa_register %rbp
	pushq	%r15
	pushq	%r14
	pushq	%rbx
	subq	$104, %rsp
	.cfi_offset %rbx, -40
	.cfi_offset %r14, -32
	.cfi_offset %r15, -24
	movq	%rsi, %r15
	movq	%rdi, %rbx
	leaq	l___unnamed_6(%rip), %rax
	movq	%rax, -88(%rbp)
	leaq	__ZN44_$LT$$RF$T$u20$as$u20$core..fmt..Display$GT$3fmt17h50ac1916d68fee72E(%rip), %rax
	movq	%rax, -80(%rbp)
	leaq	l___unnamed_2(%rip), %rax
	movq	%rax, -72(%rbp)
	movq	$2, -64(%rbp)
	movq	$0, -56(%rbp)
	leaq	-88(%rbp), %rax
	movq	%rax, -40(%rbp)
	movq	$1, -32(%rbp)
	leaq	-72(%rbp), %rsi
	movq	%r15, %rdi
	callq	__ZN4core3fmt9Formatter9write_fmt17h742ca6aae87ad23cE
	movb	$1, %r14b
	testb	%al, %al
	jne	LBB11_12
	movzwl	(%rbx), %eax
	movd	%eax, %xmm0
	movdqa	%xmm0, -112(%rbp)
	movdqa	%xmm0, -128(%rbp)
	movb	-128(%rbp), %al
	movb	%al, -72(%rbp)
	movq	%r15, %rdi
	callq	__ZN4core3fmt9Formatter15debug_lower_hex17hd07f6fde8d0365dfE
	testb	%al, %al
	je	LBB11_2
	leaq	-72(%rbp), %rdi
	movq	%r15, %rsi
	callq	__ZN4core3fmt3num52_$LT$impl$u20$core..fmt..LowerHex$u20$for$u20$u8$GT$3fmt17h35609b3cfed2e613E
	testb	%al, %al
	je	LBB11_6
	jmp	LBB11_12
LBB11_2:
	movq	%r15, %rdi
	callq	__ZN4core3fmt9Formatter15debug_upper_hex17hf480c256a9c81c1eE
	leaq	-72(%rbp), %rdi
	movq	%r15, %rsi
	testb	%al, %al
	je	LBB11_4
	callq	__ZN4core3fmt3num52_$LT$impl$u20$core..fmt..UpperHex$u20$for$u20$u8$GT$3fmt17hdec4e64a988d6129E
	testb	%al, %al
	je	LBB11_6
	jmp	LBB11_12
LBB11_4:
	callq	__ZN4core3fmt3num3imp51_$LT$impl$u20$core..fmt..Display$u20$for$u20$u8$GT$3fmt17hac49effbf87f075dE
	testb	%al, %al
	jne	LBB11_12
LBB11_6:
	leaq	l___unnamed_3(%rip), %rax
	movq	%rax, -72(%rbp)
	movq	$1, -64(%rbp)
	movq	$0, -56(%rbp)
	leaq	l___unnamed_4(%rip), %rbx
	movq	%rbx, -40(%rbp)
	movq	$0, -32(%rbp)
	leaq	-72(%rbp), %rsi
	movq	%r15, %rdi
	callq	__ZN4core3fmt9Formatter9write_fmt17h742ca6aae87ad23cE
	testb	%al, %al
	jne	LBB11_12
	movdqa	-112(%rbp), %xmm0
	movd	%xmm0, %eax
	movb	%ah, -72(%rbp)
	movq	%r15, %rdi
	callq	__ZN4core3fmt9Formatter15debug_lower_hex17hd07f6fde8d0365dfE
	testb	%al, %al
	je	LBB11_8
	leaq	-72(%rbp), %rdi
	movq	%r15, %rsi
	callq	__ZN4core3fmt3num52_$LT$impl$u20$core..fmt..LowerHex$u20$for$u20$u8$GT$3fmt17h35609b3cfed2e613E
	jmp	LBB11_10
LBB11_8:
	movq	%r15, %rdi
	callq	__ZN4core3fmt9Formatter15debug_upper_hex17hf480c256a9c81c1eE
	leaq	-72(%rbp), %rdi
	movq	%r15, %rsi
	testb	%al, %al
	je	LBB11_9
	callq	__ZN4core3fmt3num52_$LT$impl$u20$core..fmt..UpperHex$u20$for$u20$u8$GT$3fmt17hdec4e64a988d6129E
	jmp	LBB11_10
LBB11_9:
	callq	__ZN4core3fmt3num3imp51_$LT$impl$u20$core..fmt..Display$u20$for$u20$u8$GT$3fmt17hac49effbf87f075dE
LBB11_10:
	testb	%al, %al
	jne	LBB11_12
	leaq	l___unnamed_5(%rip), %rax
	movq	%rax, -72(%rbp)
	movq	$1, -64(%rbp)
	movq	$0, -56(%rbp)
	movq	%rbx, -40(%rbp)
	movq	$0, -32(%rbp)
	leaq	-72(%rbp), %rsi
	movq	%r15, %rdi
	callq	__ZN4core3fmt9Formatter9write_fmt17h742ca6aae87ad23cE
	movl	%eax, %r14d
LBB11_12:
	movl	%r14d, %eax
	addq	$104, %rsp
	popq	%rbx
	popq	%r14
	popq	%r15
	popq	%rbp
	retq
	.cfi_endproc

	.globl	__ZN11packed_simd3v1698_$LT$impl$u20$core..fmt..LowerHex$u20$for$u20$packed_simd..Simd$LT$$u5b$u8$u3b$$u20$2$u5d$$GT$$GT$3fmt17h906202093748b951E
	.p2align	4, 0x90
__ZN11packed_simd3v1698_$LT$impl$u20$core..fmt..LowerHex$u20$for$u20$packed_simd..Simd$LT$$u5b$u8$u3b$$u20$2$u5d$$GT$$GT$3fmt17h906202093748b951E:
	.cfi_startproc
	pushq	%rbp
	.cfi_def_cfa_offset 16
	.cfi_offset %rbp, -16
	movq	%rsp, %rbp
	.cfi_def_cfa_register %rbp
	pushq	%r15
	pushq	%r14
	pushq	%r13
	pushq	%r12
	pushq	%rbx
	subq	$104, %rsp
	.cfi_offset %rbx, -56
	.cfi_offset %r12, -48
	.cfi_offset %r13, -40
	.cfi_offset %r14, -32
	.cfi_offset %r15, -24
	movq	%rsi, %rbx
	movq	%rdi, %r15
	leaq	l___unnamed_6(%rip), %rax
	movq	%rax, -104(%rbp)
	leaq	__ZN44_$LT$$RF$T$u20$as$u20$core..fmt..Display$GT$3fmt17h50ac1916d68fee72E(%rip), %rax
	movq	%rax, -96(%rbp)
	leaq	l___unnamed_2(%rip), %rax
	movq	%rax, -88(%rbp)
	movq	$2, -80(%rbp)
	movq	$0, -72(%rbp)
	leaq	-104(%rbp), %rax
	movq	%rax, -56(%rbp)
	movq	$1, -48(%rbp)
	leaq	-88(%rbp), %rsi
	movq	%rbx, %rdi
	callq	__ZN4core3fmt9Formatter9write_fmt17h742ca6aae87ad23cE
	movb	$1, %cl
	testb	%al, %al
	jne	LBB12_9
	movzwl	(%r15), %eax
	movd	%eax, %xmm0
	movdqa	%xmm0, -128(%rbp)
	xorl	%r14d, %r14d
	leaq	-88(%rbp), %r15
	leaq	l___unnamed_3(%rip), %r13
	jmp	LBB12_3
	.p2align	4, 0x90
LBB12_2:
	movdqa	-128(%rbp), %xmm0
	movdqa	%xmm0, -144(%rbp)
	leaq	1(%r14), %r12
	andl	$15, %r14d
	movzbl	-144(%rbp,%r14), %eax
	movb	%al, -88(%rbp)
	movq	%r15, %rdi
	movq	%rbx, %rsi
	callq	__ZN4core3fmt3num52_$LT$impl$u20$core..fmt..LowerHex$u20$for$u20$u8$GT$3fmt17h35609b3cfed2e613E
	movq	%r12, %r14
	testb	%al, %al
	jne	LBB12_8
LBB12_3:
	cmpq	$2, %r14
	je	LBB12_7
	testq	%r14, %r14
	je	LBB12_2
	movq	%r13, -88(%rbp)
	movq	$1, -80(%rbp)
	movq	$0, -72(%rbp)
	leaq	l___unnamed_4(%rip), %rax
	movq	%rax, -56(%rbp)
	movq	$0, -48(%rbp)
	movq	%rbx, %rdi
	movq	%r15, %rsi
	callq	__ZN4core3fmt9Formatter9write_fmt17h742ca6aae87ad23cE
	testb	%al, %al
	je	LBB12_2
LBB12_8:
	movb	$1, %cl
	jmp	LBB12_9
LBB12_7:
	leaq	l___unnamed_5(%rip), %rax
	movq	%rax, -88(%rbp)
	movq	$1, -80(%rbp)
	movq	$0, -72(%rbp)
	leaq	l___unnamed_4(%rip), %rax
	movq	%rax, -56(%rbp)
	movq	$0, -48(%rbp)
	leaq	-88(%rbp), %rsi
	movq	%rbx, %rdi
	callq	__ZN4core3fmt9Formatter9write_fmt17h742ca6aae87ad23cE
	movl	%eax, %ecx
LBB12_9:
	movl	%ecx, %eax
	addq	$104, %rsp
	popq	%rbx
	popq	%r12
	popq	%r13
	popq	%r14
	popq	%r15
	popq	%rbp
	retq
	.cfi_endproc

	.globl	__ZN11packed_simd3v1698_$LT$impl$u20$core..fmt..UpperHex$u20$for$u20$packed_simd..Simd$LT$$u5b$u8$u3b$$u20$2$u5d$$GT$$GT$3fmt17h50e4aa5dccbadebcE
	.p2align	4, 0x90
__ZN11packed_simd3v1698_$LT$impl$u20$core..fmt..UpperHex$u20$for$u20$packed_simd..Simd$LT$$u5b$u8$u3b$$u20$2$u5d$$GT$$GT$3fmt17h50e4aa5dccbadebcE:
	.cfi_startproc
	pushq	%rbp
	.cfi_def_cfa_offset 16
	.cfi_offset %rbp, -16
	movq	%rsp, %rbp
	.cfi_def_cfa_register %rbp
	pushq	%r15
	pushq	%r14
	pushq	%r13
	pushq	%r12
	pushq	%rbx
	subq	$104, %rsp
	.cfi_offset %rbx, -56
	.cfi_offset %r12, -48
	.cfi_offset %r13, -40
	.cfi_offset %r14, -32
	.cfi_offset %r15, -24
	movq	%rsi, %rbx
	movq	%rdi, %r15
	leaq	l___unnamed_6(%rip), %rax
	movq	%rax, -104(%rbp)
	leaq	__ZN44_$LT$$RF$T$u20$as$u20$core..fmt..Display$GT$3fmt17h50ac1916d68fee72E(%rip), %rax
	movq	%rax, -96(%rbp)
	leaq	l___unnamed_2(%rip), %rax
	movq	%rax, -88(%rbp)
	movq	$2, -80(%rbp)
	movq	$0, -72(%rbp)
	leaq	-104(%rbp), %rax
	movq	%rax, -56(%rbp)
	movq	$1, -48(%rbp)
	leaq	-88(%rbp), %rsi
	movq	%rbx, %rdi
	callq	__ZN4core3fmt9Formatter9write_fmt17h742ca6aae87ad23cE
	movb	$1, %cl
	testb	%al, %al
	jne	LBB13_9
	movzwl	(%r15), %eax
	movd	%eax, %xmm0
	movdqa	%xmm0, -128(%rbp)
	xorl	%r14d, %r14d
	leaq	-88(%rbp), %r15
	leaq	l___unnamed_3(%rip), %r13
	jmp	LBB13_3
	.p2align	4, 0x90
LBB13_2:
	movdqa	-128(%rbp), %xmm0
	movdqa	%xmm0, -144(%rbp)
	leaq	1(%r14), %r12
	andl	$15, %r14d
	movzbl	-144(%rbp,%r14), %eax
	movb	%al, -88(%rbp)
	movq	%r15, %rdi
	movq	%rbx, %rsi
	callq	__ZN4core3fmt3num52_$LT$impl$u20$core..fmt..UpperHex$u20$for$u20$u8$GT$3fmt17hdec4e64a988d6129E
	movq	%r12, %r14
	testb	%al, %al
	jne	LBB13_8
LBB13_3:
	cmpq	$2, %r14
	je	LBB13_7
	testq	%r14, %r14
	je	LBB13_2
	movq	%r13, -88(%rbp)
	movq	$1, -80(%rbp)
	movq	$0, -72(%rbp)
	leaq	l___unnamed_4(%rip), %rax
	movq	%rax, -56(%rbp)
	movq	$0, -48(%rbp)
	movq	%rbx, %rdi
	movq	%r15, %rsi
	callq	__ZN4core3fmt9Formatter9write_fmt17h742ca6aae87ad23cE
	testb	%al, %al
	je	LBB13_2
LBB13_8:
	movb	$1, %cl
	jmp	LBB13_9
LBB13_7:
	leaq	l___unnamed_5(%rip), %rax
	movq	%rax, -88(%rbp)
	movq	$1, -80(%rbp)
	movq	$0, -72(%rbp)
	leaq	l___unnamed_4(%rip), %rax
	movq	%rax, -56(%rbp)
	movq	$0, -48(%rbp)
	leaq	-88(%rbp), %rsi
	movq	%rbx, %rdi
	callq	__ZN4core3fmt9Formatter9write_fmt17h742ca6aae87ad23cE
	movl	%eax, %ecx
LBB13_9:
	movl	%ecx, %eax
	addq	$104, %rsp
	popq	%rbx
	popq	%r12
	popq	%r13
	popq	%r14
	popq	%r15
	popq	%rbp
	retq
	.cfi_endproc

	.globl	__ZN11packed_simd3v1695_$LT$impl$u20$core..fmt..Octal$u20$for$u20$packed_simd..Simd$LT$$u5b$u8$u3b$$u20$2$u5d$$GT$$GT$3fmt17h7da2e2d37e10c20eE
	.p2align	4, 0x90
__ZN11packed_simd3v1695_$LT$impl$u20$core..fmt..Octal$u20$for$u20$packed_simd..Simd$LT$$u5b$u8$u3b$$u20$2$u5d$$GT$$GT$3fmt17h7da2e2d37e10c20eE:
	.cfi_startproc
	pushq	%rbp
	.cfi_def_cfa_offset 16
	.cfi_offset %rbp, -16
	movq	%rsp, %rbp
	.cfi_def_cfa_register %rbp
	pushq	%r15
	pushq	%r14
	pushq	%r13
	pushq	%r12
	pushq	%rbx
	subq	$104, %rsp
	.cfi_offset %rbx, -56
	.cfi_offset %r12, -48
	.cfi_offset %r13, -40
	.cfi_offset %r14, -32
	.cfi_offset %r15, -24
	movq	%rsi, %rbx
	movq	%rdi, %r15
	leaq	l___unnamed_6(%rip), %rax
	movq	%rax, -104(%rbp)
	leaq	__ZN44_$LT$$RF$T$u20$as$u20$core..fmt..Display$GT$3fmt17h50ac1916d68fee72E(%rip), %rax
	movq	%rax, -96(%rbp)
	leaq	l___unnamed_2(%rip), %rax
	movq	%rax, -88(%rbp)
	movq	$2, -80(%rbp)
	movq	$0, -72(%rbp)
	leaq	-104(%rbp), %rax
	movq	%rax, -56(%rbp)
	movq	$1, -48(%rbp)
	leaq	-88(%rbp), %rsi
	movq	%rbx, %rdi
	callq	__ZN4core3fmt9Formatter9write_fmt17h742ca6aae87ad23cE
	movb	$1, %cl
	testb	%al, %al
	jne	LBB14_9
	movzwl	(%r15), %eax
	movd	%eax, %xmm0
	movdqa	%xmm0, -128(%rbp)
	xorl	%r14d, %r14d
	leaq	-88(%rbp), %r15
	leaq	l___unnamed_3(%rip), %r13
	jmp	LBB14_3
	.p2align	4, 0x90
LBB14_2:
	movdqa	-128(%rbp), %xmm0
	movdqa	%xmm0, -144(%rbp)
	leaq	1(%r14), %r12
	andl	$15, %r14d
	movzbl	-144(%rbp,%r14), %eax
	movb	%al, -88(%rbp)
	movq	%r15, %rdi
	movq	%rbx, %rsi
	callq	__ZN4core3fmt3num49_$LT$impl$u20$core..fmt..Octal$u20$for$u20$u8$GT$3fmt17hf7600dd9a4d32e44E
	movq	%r12, %r14
	testb	%al, %al
	jne	LBB14_8
LBB14_3:
	cmpq	$2, %r14
	je	LBB14_7
	testq	%r14, %r14
	je	LBB14_2
	movq	%r13, -88(%rbp)
	movq	$1, -80(%rbp)
	movq	$0, -72(%rbp)
	leaq	l___unnamed_4(%rip), %rax
	movq	%rax, -56(%rbp)
	movq	$0, -48(%rbp)
	movq	%rbx, %rdi
	movq	%r15, %rsi
	callq	__ZN4core3fmt9Formatter9write_fmt17h742ca6aae87ad23cE
	testb	%al, %al
	je	LBB14_2
LBB14_8:
	movb	$1, %cl
	jmp	LBB14_9
LBB14_7:
	leaq	l___unnamed_5(%rip), %rax
	movq	%rax, -88(%rbp)
	movq	$1, -80(%rbp)
	movq	$0, -72(%rbp)
	leaq	l___unnamed_4(%rip), %rax
	movq	%rax, -56(%rbp)
	movq	$0, -48(%rbp)
	leaq	-88(%rbp), %rsi
	movq	%rbx, %rdi
	callq	__ZN4core3fmt9Formatter9write_fmt17h742ca6aae87ad23cE
	movl	%eax, %ecx
LBB14_9:
	movl	%ecx, %eax
	addq	$104, %rsp
	popq	%rbx
	popq	%r12
	popq	%r13
	popq	%r14
	popq	%r15
	popq	%rbp
	retq
	.cfi_endproc

	.globl	__ZN11packed_simd3v1696_$LT$impl$u20$core..fmt..Binary$u20$for$u20$packed_simd..Simd$LT$$u5b$u8$u3b$$u20$2$u5d$$GT$$GT$3fmt17h00f9bad73ac1ff1eE
	.p2align	4, 0x90
__ZN11packed_simd3v1696_$LT$impl$u20$core..fmt..Binary$u20$for$u20$packed_simd..Simd$LT$$u5b$u8$u3b$$u20$2$u5d$$GT$$GT$3fmt17h00f9bad73ac1ff1eE:
	.cfi_startproc
	pushq	%rbp
	.cfi_def_cfa_offset 16
	.cfi_offset %rbp, -16
	movq	%rsp, %rbp
	.cfi_def_cfa_register %rbp
	pushq	%r15
	pushq	%r14
	pushq	%r13
	pushq	%r12
	pushq	%rbx
	subq	$104, %rsp
	.cfi_offset %rbx, -56
	.cfi_offset %r12, -48
	.cfi_offset %r13, -40
	.cfi_offset %r14, -32
	.cfi_offset %r15, -24
	movq	%rsi, %rbx
	movq	%rdi, %r15
	leaq	l___unnamed_6(%rip), %rax
	movq	%rax, -104(%rbp)
	leaq	__ZN44_$LT$$RF$T$u20$as$u20$core..fmt..Display$GT$3fmt17h50ac1916d68fee72E(%rip), %rax
	movq	%rax, -96(%rbp)
	leaq	l___unnamed_2(%rip), %rax
	movq	%rax, -88(%rbp)
	movq	$2, -80(%rbp)
	movq	$0, -72(%rbp)
	leaq	-104(%rbp), %rax
	movq	%rax, -56(%rbp)
	movq	$1, -48(%rbp)
	leaq	-88(%rbp), %rsi
	movq	%rbx, %rdi
	callq	__ZN4core3fmt9Formatter9write_fmt17h742ca6aae87ad23cE
	movb	$1, %cl
	testb	%al, %al
	jne	LBB15_9
	movzwl	(%r15), %eax
	movd	%eax, %xmm0
	movdqa	%xmm0, -128(%rbp)
	xorl	%r14d, %r14d
	leaq	-88(%rbp), %r15
	leaq	l___unnamed_3(%rip), %r13
	jmp	LBB15_3
	.p2align	4, 0x90
LBB15_2:
	movdqa	-128(%rbp), %xmm0
	movdqa	%xmm0, -144(%rbp)
	leaq	1(%r14), %r12
	andl	$15, %r14d
	movzbl	-144(%rbp,%r14), %eax
	movb	%al, -88(%rbp)
	movq	%r15, %rdi
	movq	%rbx, %rsi
	callq	__ZN4core3fmt3num50_$LT$impl$u20$core..fmt..Binary$u20$for$u20$u8$GT$3fmt17h34ba181458cacf9cE
	movq	%r12, %r14
	testb	%al, %al
	jne	LBB15_8
LBB15_3:
	cmpq	$2, %r14
	je	LBB15_7
	testq	%r14, %r14
	je	LBB15_2
	movq	%r13, -88(%rbp)
	movq	$1, -80(%rbp)
	movq	$0, -72(%rbp)
	leaq	l___unnamed_4(%rip), %rax
	movq	%rax, -56(%rbp)
	movq	$0, -48(%rbp)
	movq	%rbx, %rdi
	movq	%r15, %rsi
	callq	__ZN4core3fmt9Formatter9write_fmt17h742ca6aae87ad23cE
	testb	%al, %al
	je	LBB15_2
LBB15_8:
	movb	$1, %cl
	jmp	LBB15_9
LBB15_7:
	leaq	l___unnamed_5(%rip), %rax
	movq	%rax, -88(%rbp)
	movq	$1, -80(%rbp)
	movq	$0, -72(%rbp)
	leaq	l___unnamed_4(%rip), %rax
	movq	%rax, -56(%rbp)
	movq	$0, -48(%rbp)
	leaq	-88(%rbp), %rsi
	movq	%rbx, %rdi
	callq	__ZN4core3fmt9Formatter9write_fmt17h742ca6aae87ad23cE
	movl	%eax, %ecx
LBB15_9:
	movl	%ecx, %eax
	addq	$104, %rsp
	popq	%rbx
	popq	%r12
	popq	%r13
	popq	%r14
	popq	%r15
	popq	%rbp
	retq
	.cfi_endproc

	.globl	__ZN11packed_simd3v16115_$LT$impl$u20$core..fmt..Debug$u20$for$u20$packed_simd..Simd$LT$$u5b$packed_simd..masks..m8$u3b$$u20$2$u5d$$GT$$GT$3fmt17h4d720a6fc3d03bb8E
	.p2align	4, 0x90
__ZN11packed_simd3v16115_$LT$impl$u20$core..fmt..Debug$u20$for$u20$packed_simd..Simd$LT$$u5b$packed_simd..masks..m8$u3b$$u20$2$u5d$$GT$$GT$3fmt17h4d720a6fc3d03bb8E:
	.cfi_startproc
	pushq	%rbp
	.cfi_def_cfa_offset 16
	.cfi_offset %rbp, -16
	movq	%rsp, %rbp
	.cfi_def_cfa_register %rbp
	pushq	%r15
	pushq	%r14
	pushq	%r13
	pushq	%r12
	pushq	%rbx
	subq	$104, %rsp
	.cfi_offset %rbx, -56
	.cfi_offset %r12, -48
	.cfi_offset %r13, -40
	.cfi_offset %r14, -32
	.cfi_offset %r15, -24
	movq	%rsi, %rbx
	movq	%rdi, %r15
	leaq	l___unnamed_7(%rip), %rax
	movq	%rax, -104(%rbp)
	leaq	__ZN44_$LT$$RF$T$u20$as$u20$core..fmt..Display$GT$3fmt17h50ac1916d68fee72E(%rip), %rax
	movq	%rax, -96(%rbp)
	leaq	l___unnamed_2(%rip), %rax
	movq	%rax, -88(%rbp)
	movq	$2, -80(%rbp)
	movq	$0, -72(%rbp)
	leaq	-104(%rbp), %rax
	movq	%rax, -56(%rbp)
	movq	$1, -48(%rbp)
	leaq	-88(%rbp), %rsi
	movq	%rbx, %rdi
	callq	__ZN4core3fmt9Formatter9write_fmt17h742ca6aae87ad23cE
	movb	$1, %cl
	testb	%al, %al
	jne	LBB16_9
	movzwl	(%r15), %eax
	movd	%eax, %xmm0
	movdqa	%xmm0, -128(%rbp)
	xorl	%r14d, %r14d
	leaq	-88(%rbp), %r15
	leaq	l___unnamed_3(%rip), %r13
	jmp	LBB16_3
	.p2align	4, 0x90
LBB16_2:
	movdqa	-128(%rbp), %xmm0
	movdqa	%xmm0, -144(%rbp)
	leaq	1(%r14), %r12
	andl	$15, %r14d
	cmpb	$0, -144(%rbp,%r14)
	setne	-88(%rbp)
	movq	%r15, %rdi
	movq	%rbx, %rsi
	callq	__ZN43_$LT$bool$u20$as$u20$core..fmt..Display$GT$3fmt17hd78396651a24cfbbE
	movq	%r12, %r14
	testb	%al, %al
	jne	LBB16_8
LBB16_3:
	cmpq	$2, %r14
	je	LBB16_7
	testq	%r14, %r14
	je	LBB16_2
	movq	%r13, -88(%rbp)
	movq	$1, -80(%rbp)
	movq	$0, -72(%rbp)
	leaq	l___unnamed_4(%rip), %rax
	movq	%rax, -56(%rbp)
	movq	$0, -48(%rbp)
	movq	%rbx, %rdi
	movq	%r15, %rsi
	callq	__ZN4core3fmt9Formatter9write_fmt17h742ca6aae87ad23cE
	testb	%al, %al
	je	LBB16_2
LBB16_8:
	movb	$1, %cl
	jmp	LBB16_9
LBB16_7:
	leaq	l___unnamed_5(%rip), %rax
	movq	%rax, -88(%rbp)
	movq	$1, -80(%rbp)
	movq	$0, -72(%rbp)
	leaq	l___unnamed_4(%rip), %rax
	movq	%rax, -56(%rbp)
	movq	$0, -48(%rbp)
	leaq	-88(%rbp), %rsi
	movq	%rbx, %rdi
	callq	__ZN4core3fmt9Formatter9write_fmt17h742ca6aae87ad23cE
	movl	%eax, %ecx
LBB16_9:
	movl	%ecx, %eax
	addq	$104, %rsp
	popq	%rbx
	popq	%r12
	popq	%r13
	popq	%r14
	popq	%r15
	popq	%rbp
	retq
	.cfi_endproc

	.globl	__ZN11packed_simd3v3295_$LT$impl$u20$core..fmt..Debug$u20$for$u20$packed_simd..Simd$LT$$u5b$i8$u3b$$u20$4$u5d$$GT$$GT$3fmt17h0b8527bd45386889E
	.p2align	4, 0x90
__ZN11packed_simd3v3295_$LT$impl$u20$core..fmt..Debug$u20$for$u20$packed_simd..Simd$LT$$u5b$i8$u3b$$u20$4$u5d$$GT$$GT$3fmt17h0b8527bd45386889E:
	.cfi_startproc
	pushq	%rbp
	.cfi_def_cfa_offset 16
	.cfi_offset %rbp, -16
	movq	%rsp, %rbp
	.cfi_def_cfa_register %rbp
	pushq	%r15
	pushq	%r14
	pushq	%r13
	pushq	%r12
	pushq	%rbx
	subq	$104, %rsp
	.cfi_offset %rbx, -56
	.cfi_offset %r12, -48
	.cfi_offset %r13, -40
	.cfi_offset %r14, -32
	.cfi_offset %r15, -24
	movq	%rsi, %r15
	movq	%rdi, %rbx
	leaq	l___unnamed_8(%rip), %rax
	movq	%rax, -104(%rbp)
	leaq	__ZN44_$LT$$RF$T$u20$as$u20$core..fmt..Display$GT$3fmt17h50ac1916d68fee72E(%rip), %rax
	movq	%rax, -96(%rbp)
	leaq	l___unnamed_2(%rip), %rax
	movq	%rax, -88(%rbp)
	movq	$2, -80(%rbp)
	movq	$0, -72(%rbp)
	leaq	-104(%rbp), %rax
	movq	%rax, -56(%rbp)
	movq	$1, -48(%rbp)
	leaq	-88(%rbp), %rsi
	movq	%r15, %rdi
	callq	__ZN4core3fmt9Formatter9write_fmt17h742ca6aae87ad23cE
	movb	$1, %r14b
	testb	%al, %al
	jne	LBB17_22
	movd	(%rbx), %xmm0
	movdqa	%xmm0, -128(%rbp)
	movdqa	%xmm0, -144(%rbp)
	movb	-144(%rbp), %al
	movb	%al, -88(%rbp)
	movq	%r15, %rdi
	callq	__ZN4core3fmt9Formatter15debug_lower_hex17hd07f6fde8d0365dfE
	testb	%al, %al
	je	LBB17_2
	leaq	-88(%rbp), %rdi
	movq	%r15, %rsi
	callq	__ZN4core3fmt3num52_$LT$impl$u20$core..fmt..LowerHex$u20$for$u20$i8$GT$3fmt17h5ba2f2472d1b08b3E
	testb	%al, %al
	je	LBB17_6
	jmp	LBB17_22
LBB17_2:
	movq	%r15, %rdi
	callq	__ZN4core3fmt9Formatter15debug_upper_hex17hf480c256a9c81c1eE
	leaq	-88(%rbp), %rdi
	movq	%r15, %rsi
	testb	%al, %al
	je	LBB17_4
	callq	__ZN4core3fmt3num52_$LT$impl$u20$core..fmt..UpperHex$u20$for$u20$i8$GT$3fmt17h36a1c2413d99c98eE
	testb	%al, %al
	je	LBB17_6
	jmp	LBB17_22
LBB17_4:
	callq	__ZN4core3fmt3num3imp51_$LT$impl$u20$core..fmt..Display$u20$for$u20$i8$GT$3fmt17hc9fc67837369c997E
	testb	%al, %al
	jne	LBB17_22
LBB17_6:
	leaq	l___unnamed_3(%rip), %r13
	movq	%r13, -88(%rbp)
	movq	$1, -80(%rbp)
	movq	$0, -72(%rbp)
	leaq	l___unnamed_4(%rip), %r12
	movq	%r12, -56(%rbp)
	movq	$0, -48(%rbp)
	leaq	-88(%rbp), %rsi
	movq	%r15, %rdi
	callq	__ZN4core3fmt9Formatter9write_fmt17h742ca6aae87ad23cE
	testb	%al, %al
	jne	LBB17_22
	movdqa	-128(%rbp), %xmm0
	movd	%xmm0, %ebx
	movb	%bh, -88(%rbp)
	movq	%r15, %rdi
	callq	__ZN4core3fmt9Formatter15debug_lower_hex17hd07f6fde8d0365dfE
	testb	%al, %al
	je	LBB17_8
	leaq	-88(%rbp), %rdi
	movq	%r15, %rsi
	callq	__ZN4core3fmt3num52_$LT$impl$u20$core..fmt..LowerHex$u20$for$u20$i8$GT$3fmt17h5ba2f2472d1b08b3E
	jmp	LBB17_10
LBB17_8:
	movq	%r15, %rdi
	callq	__ZN4core3fmt9Formatter15debug_upper_hex17hf480c256a9c81c1eE
	leaq	-88(%rbp), %rdi
	movq	%r15, %rsi
	testb	%al, %al
	je	LBB17_9
	callq	__ZN4core3fmt3num52_$LT$impl$u20$core..fmt..UpperHex$u20$for$u20$i8$GT$3fmt17h36a1c2413d99c98eE
	jmp	LBB17_10
LBB17_9:
	callq	__ZN4core3fmt3num3imp51_$LT$impl$u20$core..fmt..Display$u20$for$u20$i8$GT$3fmt17hc9fc67837369c997E
LBB17_10:
	testb	%al, %al
	jne	LBB17_22
	movq	%r13, -88(%rbp)
	movq	$1, -80(%rbp)
	movq	$0, -72(%rbp)
	movq	%r12, -56(%rbp)
	movq	$0, -48(%rbp)
	leaq	-88(%rbp), %rsi
	movq	%r15, %rdi
	callq	__ZN4core3fmt9Formatter9write_fmt17h742ca6aae87ad23cE
	testb	%al, %al
	jne	LBB17_22
	movl	%ebx, %eax
	shrl	$16, %eax
	movb	%al, -88(%rbp)
	movq	%r15, %rdi
	callq	__ZN4core3fmt9Formatter15debug_lower_hex17hd07f6fde8d0365dfE
	testb	%al, %al
	je	LBB17_13
	leaq	-88(%rbp), %rdi
	movq	%r15, %rsi
	callq	__ZN4core3fmt3num52_$LT$impl$u20$core..fmt..LowerHex$u20$for$u20$i8$GT$3fmt17h5ba2f2472d1b08b3E
	jmp	LBB17_15
LBB17_13:
	movq	%r15, %rdi
	callq	__ZN4core3fmt9Formatter15debug_upper_hex17hf480c256a9c81c1eE
	leaq	-88(%rbp), %rdi
	movq	%r15, %rsi
	testb	%al, %al
	je	LBB17_14
	callq	__ZN4core3fmt3num52_$LT$impl$u20$core..fmt..UpperHex$u20$for$u20$i8$GT$3fmt17h36a1c2413d99c98eE
	jmp	LBB17_15
LBB17_14:
	callq	__ZN4core3fmt3num3imp51_$LT$impl$u20$core..fmt..Display$u20$for$u20$i8$GT$3fmt17hc9fc67837369c997E
LBB17_15:
	testb	%al, %al
	jne	LBB17_22
	movq	%r13, -88(%rbp)
	movq	$1, -80(%rbp)
	movq	$0, -72(%rbp)
	movq	%r12, -56(%rbp)
	movq	$0, -48(%rbp)
	leaq	-88(%rbp), %rsi
	movq	%r15, %rdi
	callq	__ZN4core3fmt9Formatter9write_fmt17h742ca6aae87ad23cE
	testb	%al, %al
	jne	LBB17_22
	shrl	$24, %ebx
	movb	%bl, -88(%rbp)
	movq	%r15, %rdi
	callq	__ZN4core3fmt9Formatter15debug_lower_hex17hd07f6fde8d0365dfE
	testb	%al, %al
	je	LBB17_18
	leaq	-88(%rbp), %rdi
	movq	%r15, %rsi
	callq	__ZN4core3fmt3num52_$LT$impl$u20$core..fmt..LowerHex$u20$for$u20$i8$GT$3fmt17h5ba2f2472d1b08b3E
	jmp	LBB17_20
LBB17_18:
	movq	%r15, %rdi
	callq	__ZN4core3fmt9Formatter15debug_upper_hex17hf480c256a9c81c1eE
	leaq	-88(%rbp), %rdi
	movq	%r15, %rsi
	testb	%al, %al
	je	LBB17_19
	callq	__ZN4core3fmt3num52_$LT$impl$u20$core..fmt..UpperHex$u20$for$u20$i8$GT$3fmt17h36a1c2413d99c98eE
	jmp	LBB17_20
LBB17_19:
	callq	__ZN4core3fmt3num3imp51_$LT$impl$u20$core..fmt..Display$u20$for$u20$i8$GT$3fmt17hc9fc67837369c997E
LBB17_20:
	testb	%al, %al
	jne	LBB17_22
	leaq	l___unnamed_5(%rip), %rax
	movq	%rax, -88(%rbp)
	movq	$1, -80(%rbp)
	movq	$0, -72(%rbp)
	movq	%r12, -56(%rbp)
	movq	$0, -48(%rbp)
	leaq	-88(%rbp), %rsi
	movq	%r15, %rdi
	callq	__ZN4core3fmt9Formatter9write_fmt17h742ca6aae87ad23cE
	movl	%eax, %r14d
LBB17_22:
	movl	%r14d, %eax
	addq	$104, %rsp
	popq	%rbx
	popq	%r12
	popq	%r13
	popq	%r14
	popq	%r15
	popq	%rbp
	retq
	.cfi_endproc

	.globl	__ZN11packed_simd3v3298_$LT$impl$u20$core..fmt..LowerHex$u20$for$u20$packed_simd..Simd$LT$$u5b$i8$u3b$$u20$4$u5d$$GT$$GT$3fmt17h036e762c4f49543aE
	.p2align	4, 0x90
__ZN11packed_simd3v3298_$LT$impl$u20$core..fmt..LowerHex$u20$for$u20$packed_simd..Simd$LT$$u5b$i8$u3b$$u20$4$u5d$$GT$$GT$3fmt17h036e762c4f49543aE:
	.cfi_startproc
	pushq	%rbp
	.cfi_def_cfa_offset 16
	.cfi_offset %rbp, -16
	movq	%rsp, %rbp
	.cfi_def_cfa_register %rbp
	pushq	%r15
	pushq	%r14
	pushq	%r13
	pushq	%r12
	pushq	%rbx
	subq	$104, %rsp
	.cfi_offset %rbx, -56
	.cfi_offset %r12, -48
	.cfi_offset %r13, -40
	.cfi_offset %r14, -32
	.cfi_offset %r15, -24
	movq	%rsi, %rbx
	movq	%rdi, %r15
	leaq	l___unnamed_8(%rip), %rax
	movq	%rax, -104(%rbp)
	leaq	__ZN44_$LT$$RF$T$u20$as$u20$core..fmt..Display$GT$3fmt17h50ac1916d68fee72E(%rip), %rax
	movq	%rax, -96(%rbp)
	leaq	l___unnamed_2(%rip), %rax
	movq	%rax, -88(%rbp)
	movq	$2, -80(%rbp)
	movq	$0, -72(%rbp)
	leaq	-104(%rbp), %rax
	movq	%rax, -56(%rbp)
	movq	$1, -48(%rbp)
	leaq	-88(%rbp), %rsi
	movq	%rbx, %rdi
	callq	__ZN4core3fmt9Formatter9write_fmt17h742ca6aae87ad23cE
	movb	$1, %cl
	testb	%al, %al
	jne	LBB18_9
	movss	(%r15), %xmm0
	movaps	%xmm0, -128(%rbp)
	xorl	%r14d, %r14d
	leaq	-88(%rbp), %r15
	leaq	l___unnamed_3(%rip), %r13
	jmp	LBB18_3
	.p2align	4, 0x90
LBB18_2:
	movaps	-128(%rbp), %xmm0
	movaps	%xmm0, -144(%rbp)
	leaq	1(%r14), %r12
	andl	$15, %r14d
	movzbl	-144(%rbp,%r14), %eax
	movb	%al, -88(%rbp)
	movq	%r15, %rdi
	movq	%rbx, %rsi
	callq	__ZN4core3fmt3num52_$LT$impl$u20$core..fmt..LowerHex$u20$for$u20$i8$GT$3fmt17h5ba2f2472d1b08b3E
	movq	%r12, %r14
	testb	%al, %al
	jne	LBB18_8
LBB18_3:
	cmpq	$4, %r14
	je	LBB18_7
	testq	%r14, %r14
	je	LBB18_2
	movq	%r13, -88(%rbp)
	movq	$1, -80(%rbp)
	movq	$0, -72(%rbp)
	leaq	l___unnamed_4(%rip), %rax
	movq	%rax, -56(%rbp)
	movq	$0, -48(%rbp)
	movq	%rbx, %rdi
	movq	%r15, %rsi
	callq	__ZN4core3fmt9Formatter9write_fmt17h742ca6aae87ad23cE
	testb	%al, %al
	je	LBB18_2
LBB18_8:
	movb	$1, %cl
	jmp	LBB18_9
LBB18_7:
	leaq	l___unnamed_5(%rip), %rax
	movq	%rax, -88(%rbp)
	movq	$1, -80(%rbp)
	movq	$0, -72(%rbp)
	leaq	l___unnamed_4(%rip), %rax
	movq	%rax, -56(%rbp)
	movq	$0, -48(%rbp)
	leaq	-88(%rbp), %rsi
	movq	%rbx, %rdi
	callq	__ZN4core3fmt9Formatter9write_fmt17h742ca6aae87ad23cE
	movl	%eax, %ecx
LBB18_9:
	movl	%ecx, %eax
	addq	$104, %rsp
	popq	%rbx
	popq	%r12
	popq	%r13
	popq	%r14
	popq	%r15
	popq	%rbp
	retq
	.cfi_endproc

	.globl	__ZN11packed_simd3v3298_$LT$impl$u20$core..fmt..UpperHex$u20$for$u20$packed_simd..Simd$LT$$u5b$i8$u3b$$u20$4$u5d$$GT$$GT$3fmt17hb00b899a50e33ab8E
	.p2align	4, 0x90
__ZN11packed_simd3v3298_$LT$impl$u20$core..fmt..UpperHex$u20$for$u20$packed_simd..Simd$LT$$u5b$i8$u3b$$u20$4$u5d$$GT$$GT$3fmt17hb00b899a50e33ab8E:
	.cfi_startproc
	pushq	%rbp
	.cfi_def_cfa_offset 16
	.cfi_offset %rbp, -16
	movq	%rsp, %rbp
	.cfi_def_cfa_register %rbp
	pushq	%r15
	pushq	%r14
	pushq	%r13
	pushq	%r12
	pushq	%rbx
	subq	$104, %rsp
	.cfi_offset %rbx, -56
	.cfi_offset %r12, -48
	.cfi_offset %r13, -40
	.cfi_offset %r14, -32
	.cfi_offset %r15, -24
	movq	%rsi, %rbx
	movq	%rdi, %r15
	leaq	l___unnamed_8(%rip), %rax
	movq	%rax, -104(%rbp)
	leaq	__ZN44_$LT$$RF$T$u20$as$u20$core..fmt..Display$GT$3fmt17h50ac1916d68fee72E(%rip), %rax
	movq	%rax, -96(%rbp)
	leaq	l___unnamed_2(%rip), %rax
	movq	%rax, -88(%rbp)
	movq	$2, -80(%rbp)
	movq	$0, -72(%rbp)
	leaq	-104(%rbp), %rax
	movq	%rax, -56(%rbp)
	movq	$1, -48(%rbp)
	leaq	-88(%rbp), %rsi
	movq	%rbx, %rdi
	callq	__ZN4core3fmt9Formatter9write_fmt17h742ca6aae87ad23cE
	movb	$1, %cl
	testb	%al, %al
	jne	LBB19_9
	movss	(%r15), %xmm0
	movaps	%xmm0, -128(%rbp)
	xorl	%r14d, %r14d
	leaq	-88(%rbp), %r15
	leaq	l___unnamed_3(%rip), %r13
	jmp	LBB19_3
	.p2align	4, 0x90
LBB19_2:
	movaps	-128(%rbp), %xmm0
	movaps	%xmm0, -144(%rbp)
	leaq	1(%r14), %r12
	andl	$15, %r14d
	movzbl	-144(%rbp,%r14), %eax
	movb	%al, -88(%rbp)
	movq	%r15, %rdi
	movq	%rbx, %rsi
	callq	__ZN4core3fmt3num52_$LT$impl$u20$core..fmt..UpperHex$u20$for$u20$i8$GT$3fmt17h36a1c2413d99c98eE
	movq	%r12, %r14
	testb	%al, %al
	jne	LBB19_8
LBB19_3:
	cmpq	$4, %r14
	je	LBB19_7
	testq	%r14, %r14
	je	LBB19_2
	movq	%r13, -88(%rbp)
	movq	$1, -80(%rbp)
	movq	$0, -72(%rbp)
	leaq	l___unnamed_4(%rip), %rax
	movq	%rax, -56(%rbp)
	movq	$0, -48(%rbp)
	movq	%rbx, %rdi
	movq	%r15, %rsi
	callq	__ZN4core3fmt9Formatter9write_fmt17h742ca6aae87ad23cE
	testb	%al, %al
	je	LBB19_2
LBB19_8:
	movb	$1, %cl
	jmp	LBB19_9
LBB19_7:
	leaq	l___unnamed_5(%rip), %rax
	movq	%rax, -88(%rbp)
	movq	$1, -80(%rbp)
	movq	$0, -72(%rbp)
	leaq	l___unnamed_4(%rip), %rax
	movq	%rax, -56(%rbp)
	movq	$0, -48(%rbp)
	leaq	-88(%rbp), %rsi
	movq	%rbx, %rdi
	callq	__ZN4core3fmt9Formatter9write_fmt17h742ca6aae87ad23cE
	movl	%eax, %ecx
LBB19_9:
	movl	%ecx, %eax
	addq	$104, %rsp
	popq	%rbx
	popq	%r12
	popq	%r13
	popq	%r14
	popq	%r15
	popq	%rbp
	retq
	.cfi_endproc

	.globl	__ZN11packed_simd3v3295_$LT$impl$u20$core..fmt..Octal$u20$for$u20$packed_simd..Simd$LT$$u5b$i8$u3b$$u20$4$u5d$$GT$$GT$3fmt17hdcce8a9747390527E
	.p2align	4, 0x90
__ZN11packed_simd3v3295_$LT$impl$u20$core..fmt..Octal$u20$for$u20$packed_simd..Simd$LT$$u5b$i8$u3b$$u20$4$u5d$$GT$$GT$3fmt17hdcce8a9747390527E:
	.cfi_startproc
	pushq	%rbp
	.cfi_def_cfa_offset 16
	.cfi_offset %rbp, -16
	movq	%rsp, %rbp
	.cfi_def_cfa_register %rbp
	pushq	%r15
	pushq	%r14
	pushq	%r13
	pushq	%r12
	pushq	%rbx
	subq	$104, %rsp
	.cfi_offset %rbx, -56
	.cfi_offset %r12, -48
	.cfi_offset %r13, -40
	.cfi_offset %r14, -32
	.cfi_offset %r15, -24
	movq	%rsi, %rbx
	movq	%rdi, %r15
	leaq	l___unnamed_8(%rip), %rax
	movq	%rax, -104(%rbp)
	leaq	__ZN44_$LT$$RF$T$u20$as$u20$core..fmt..Display$GT$3fmt17h50ac1916d68fee72E(%rip), %rax
	movq	%rax, -96(%rbp)
	leaq	l___unnamed_2(%rip), %rax
	movq	%rax, -88(%rbp)
	movq	$2, -80(%rbp)
	movq	$0, -72(%rbp)
	leaq	-104(%rbp), %rax
	movq	%rax, -56(%rbp)
	movq	$1, -48(%rbp)
	leaq	-88(%rbp), %rsi
	movq	%rbx, %rdi
	callq	__ZN4core3fmt9Formatter9write_fmt17h742ca6aae87ad23cE
	movb	$1, %cl
	testb	%al, %al
	jne	LBB20_9
	movss	(%r15), %xmm0
	movaps	%xmm0, -128(%rbp)
	xorl	%r14d, %r14d
	leaq	-88(%rbp), %r15
	leaq	l___unnamed_3(%rip), %r13
	jmp	LBB20_3
	.p2align	4, 0x90
LBB20_2:
	movaps	-128(%rbp), %xmm0
	movaps	%xmm0, -144(%rbp)
	leaq	1(%r14), %r12
	andl	$15, %r14d
	movzbl	-144(%rbp,%r14), %eax
	movb	%al, -88(%rbp)
	movq	%r15, %rdi
	movq	%rbx, %rsi
	callq	__ZN4core3fmt3num49_$LT$impl$u20$core..fmt..Octal$u20$for$u20$i8$GT$3fmt17h22bc4fdd4bc3127cE
	movq	%r12, %r14
	testb	%al, %al
	jne	LBB20_8
LBB20_3:
	cmpq	$4, %r14
	je	LBB20_7
	testq	%r14, %r14
	je	LBB20_2
	movq	%r13, -88(%rbp)
	movq	$1, -80(%rbp)
	movq	$0, -72(%rbp)
	leaq	l___unnamed_4(%rip), %rax
	movq	%rax, -56(%rbp)
	movq	$0, -48(%rbp)
	movq	%rbx, %rdi
	movq	%r15, %rsi
	callq	__ZN4core3fmt9Formatter9write_fmt17h742ca6aae87ad23cE
	testb	%al, %al
	je	LBB20_2
LBB20_8:
	movb	$1, %cl
	jmp	LBB20_9
LBB20_7:
	leaq	l___unnamed_5(%rip), %rax
	movq	%rax, -88(%rbp)
	movq	$1, -80(%rbp)
	movq	$0, -72(%rbp)
	leaq	l___unnamed_4(%rip), %rax
	movq	%rax, -56(%rbp)
	movq	$0, -48(%rbp)
	leaq	-88(%rbp), %rsi
	movq	%rbx, %rdi
	callq	__ZN4core3fmt9Formatter9write_fmt17h742ca6aae87ad23cE
	movl	%eax, %ecx
LBB20_9:
	movl	%ecx, %eax
	addq	$104, %rsp
	popq	%rbx
	popq	%r12
	popq	%r13
	popq	%r14
	popq	%r15
	popq	%rbp
	retq
	.cfi_endproc

	.globl	__ZN11packed_simd3v3296_$LT$impl$u20$core..fmt..Binary$u20$for$u20$packed_simd..Simd$LT$$u5b$i8$u3b$$u20$4$u5d$$GT$$GT$3fmt17h8d322b825c218965E
	.p2align	4, 0x90
__ZN11packed_simd3v3296_$LT$impl$u20$core..fmt..Binary$u20$for$u20$packed_simd..Simd$LT$$u5b$i8$u3b$$u20$4$u5d$$GT$$GT$3fmt17h8d322b825c218965E:
	.cfi_startproc
	pushq	%rbp
	.cfi_def_cfa_offset 16
	.cfi_offset %rbp, -16
	movq	%rsp, %rbp
	.cfi_def_cfa_register %rbp
	pushq	%r15
	pushq	%r14
	pushq	%r13
	pushq	%r12
	pushq	%rbx
	subq	$104, %rsp
	.cfi_offset %rbx, -56
	.cfi_offset %r12, -48
	.cfi_offset %r13, -40
	.cfi_offset %r14, -32
	.cfi_offset %r15, -24
	movq	%rsi, %rbx
	movq	%rdi, %r15
	leaq	l___unnamed_8(%rip), %rax
	movq	%rax, -104(%rbp)
	leaq	__ZN44_$LT$$RF$T$u20$as$u20$core..fmt..Display$GT$3fmt17h50ac1916d68fee72E(%rip), %rax
	movq	%rax, -96(%rbp)
	leaq	l___unnamed_2(%rip), %rax
	movq	%rax, -88(%rbp)
	movq	$2, -80(%rbp)
	movq	$0, -72(%rbp)
	leaq	-104(%rbp), %rax
	movq	%rax, -56(%rbp)
	movq	$1, -48(%rbp)
	leaq	-88(%rbp), %rsi
	movq	%rbx, %rdi
	callq	__ZN4core3fmt9Formatter9write_fmt17h742ca6aae87ad23cE
	movb	$1, %cl
	testb	%al, %al
	jne	LBB21_9
	movss	(%r15), %xmm0
	movaps	%xmm0, -128(%rbp)
	xorl	%r14d, %r14d
	leaq	-88(%rbp), %r15
	leaq	l___unnamed_3(%rip), %r13
	jmp	LBB21_3
	.p2align	4, 0x90
LBB21_2:
	movaps	-128(%rbp), %xmm0
	movaps	%xmm0, -144(%rbp)
	leaq	1(%r14), %r12
	andl	$15, %r14d
	movzbl	-144(%rbp,%r14), %eax
	movb	%al, -88(%rbp)
	movq	%r15, %rdi
	movq	%rbx, %rsi
	callq	__ZN4core3fmt3num50_$LT$impl$u20$core..fmt..Binary$u20$for$u20$i8$GT$3fmt17h99e877cd09afbddeE
	movq	%r12, %r14
	testb	%al, %al
	jne	LBB21_8
LBB21_3:
	cmpq	$4, %r14
	je	LBB21_7
	testq	%r14, %r14
	je	LBB21_2
	movq	%r13, -88(%rbp)
	movq	$1, -80(%rbp)
	movq	$0, -72(%rbp)
	leaq	l___unnamed_4(%rip), %rax
	movq	%rax, -56(%rbp)
	movq	$0, -48(%rbp)
	movq	%rbx, %rdi
	movq	%r15, %rsi
	callq	__ZN4core3fmt9Formatter9write_fmt17h742ca6aae87ad23cE
	testb	%al, %al
	je	LBB21_2
LBB21_8:
	movb	$1, %cl
	jmp	LBB21_9
LBB21_7:
	leaq	l___unnamed_5(%rip), %rax
	movq	%rax, -88(%rbp)
	movq	$1, -80(%rbp)
	movq	$0, -72(%rbp)
	leaq	l___unnamed_4(%rip), %rax
	movq	%rax, -56(%rbp)
	movq	$0, -48(%rbp)
	leaq	-88(%rbp), %rsi
	movq	%rbx, %rdi
	callq	__ZN4core3fmt9Formatter9write_fmt17h742ca6aae87ad23cE
	movl	%eax, %ecx
LBB21_9:
	movl	%ecx, %eax
	addq	$104, %rsp
	popq	%rbx
	popq	%r12
	popq	%r13
	popq	%r14
	popq	%r15
	popq	%rbp
	retq
	.cfi_endproc

	.globl	__ZN11packed_simd3v3295_$LT$impl$u20$core..fmt..Debug$u20$for$u20$packed_simd..Simd$LT$$u5b$u8$u3b$$u20$4$u5d$$GT$$GT$3fmt17h150a626d4ffdc32bE
	.p2align	4, 0x90
__ZN11packed_simd3v3295_$LT$impl$u20$core..fmt..Debug$u20$for$u20$packed_simd..Simd$LT$$u5b$u8$u3b$$u20$4$u5d$$GT$$GT$3fmt17h150a626d4ffdc32bE:
	.cfi_startproc
	pushq	%rbp
	.cfi_def_cfa_offset 16
	.cfi_offset %rbp, -16
	movq	%rsp, %rbp
	.cfi_def_cfa_register %rbp
	pushq	%r15
	pushq	%r14
	pushq	%r13
	pushq	%r12
	pushq	%rbx
	subq	$104, %rsp
	.cfi_offset %rbx, -56
	.cfi_offset %r12, -48
	.cfi_offset %r13, -40
	.cfi_offset %r14, -32
	.cfi_offset %r15, -24
	movq	%rsi, %r15
	movq	%rdi, %rbx
	leaq	l___unnamed_9(%rip), %rax
	movq	%rax, -104(%rbp)
	leaq	__ZN44_$LT$$RF$T$u20$as$u20$core..fmt..Display$GT$3fmt17h50ac1916d68fee72E(%rip), %rax
	movq	%rax, -96(%rbp)
	leaq	l___unnamed_2(%rip), %rax
	movq	%rax, -88(%rbp)
	movq	$2, -80(%rbp)
	movq	$0, -72(%rbp)
	leaq	-104(%rbp), %rax
	movq	%rax, -56(%rbp)
	movq	$1, -48(%rbp)
	leaq	-88(%rbp), %rsi
	movq	%r15, %rdi
	callq	__ZN4core3fmt9Formatter9write_fmt17h742ca6aae87ad23cE
	movb	$1, %r14b
	testb	%al, %al
	jne	LBB22_22
	movd	(%rbx), %xmm0
	movdqa	%xmm0, -128(%rbp)
	movdqa	%xmm0, -144(%rbp)
	movb	-144(%rbp), %al
	movb	%al, -88(%rbp)
	movq	%r15, %rdi
	callq	__ZN4core3fmt9Formatter15debug_lower_hex17hd07f6fde8d0365dfE
	testb	%al, %al
	je	LBB22_2
	leaq	-88(%rbp), %rdi
	movq	%r15, %rsi
	callq	__ZN4core3fmt3num52_$LT$impl$u20$core..fmt..LowerHex$u20$for$u20$u8$GT$3fmt17h35609b3cfed2e613E
	testb	%al, %al
	je	LBB22_6
	jmp	LBB22_22
LBB22_2:
	movq	%r15, %rdi
	callq	__ZN4core3fmt9Formatter15debug_upper_hex17hf480c256a9c81c1eE
	leaq	-88(%rbp), %rdi
	movq	%r15, %rsi
	testb	%al, %al
	je	LBB22_4
	callq	__ZN4core3fmt3num52_$LT$impl$u20$core..fmt..UpperHex$u20$for$u20$u8$GT$3fmt17hdec4e64a988d6129E
	testb	%al, %al
	je	LBB22_6
	jmp	LBB22_22
LBB22_4:
	callq	__ZN4core3fmt3num3imp51_$LT$impl$u20$core..fmt..Display$u20$for$u20$u8$GT$3fmt17hac49effbf87f075dE
	testb	%al, %al
	jne	LBB22_22
LBB22_6:
	leaq	l___unnamed_3(%rip), %r13
	movq	%r13, -88(%rbp)
	movq	$1, -80(%rbp)
	movq	$0, -72(%rbp)
	leaq	l___unnamed_4(%rip), %r12
	movq	%r12, -56(%rbp)
	movq	$0, -48(%rbp)
	leaq	-88(%rbp), %rsi
	movq	%r15, %rdi
	callq	__ZN4core3fmt9Formatter9write_fmt17h742ca6aae87ad23cE
	testb	%al, %al
	jne	LBB22_22
	movdqa	-128(%rbp), %xmm0
	movd	%xmm0, %ebx
	movb	%bh, -88(%rbp)
	movq	%r15, %rdi
	callq	__ZN4core3fmt9Formatter15debug_lower_hex17hd07f6fde8d0365dfE
	testb	%al, %al
	je	LBB22_8
	leaq	-88(%rbp), %rdi
	movq	%r15, %rsi
	callq	__ZN4core3fmt3num52_$LT$impl$u20$core..fmt..LowerHex$u20$for$u20$u8$GT$3fmt17h35609b3cfed2e613E
	jmp	LBB22_10
LBB22_8:
	movq	%r15, %rdi
	callq	__ZN4core3fmt9Formatter15debug_upper_hex17hf480c256a9c81c1eE
	leaq	-88(%rbp), %rdi
	movq	%r15, %rsi
	testb	%al, %al
	je	LBB22_9
	callq	__ZN4core3fmt3num52_$LT$impl$u20$core..fmt..UpperHex$u20$for$u20$u8$GT$3fmt17hdec4e64a988d6129E
	jmp	LBB22_10
LBB22_9:
	callq	__ZN4core3fmt3num3imp51_$LT$impl$u20$core..fmt..Display$u20$for$u20$u8$GT$3fmt17hac49effbf87f075dE
LBB22_10:
	testb	%al, %al
	jne	LBB22_22
	movq	%r13, -88(%rbp)
	movq	$1, -80(%rbp)
	movq	$0, -72(%rbp)
	movq	%r12, -56(%rbp)
	movq	$0, -48(%rbp)
	leaq	-88(%rbp), %rsi
	movq	%r15, %rdi
	callq	__ZN4core3fmt9Formatter9write_fmt17h742ca6aae87ad23cE
	testb	%al, %al
	jne	LBB22_22
	movl	%ebx, %eax
	shrl	$16, %eax
	movb	%al, -88(%rbp)
	movq	%r15, %rdi
	callq	__ZN4core3fmt9Formatter15debug_lower_hex17hd07f6fde8d0365dfE
	testb	%al, %al
	je	LBB22_13
	leaq	-88(%rbp), %rdi
	movq	%r15, %rsi
	callq	__ZN4core3fmt3num52_$LT$impl$u20$core..fmt..LowerHex$u20$for$u20$u8$GT$3fmt17h35609b3cfed2e613E
	jmp	LBB22_15
LBB22_13:
	movq	%r15, %rdi
	callq	__ZN4core3fmt9Formatter15debug_upper_hex17hf480c256a9c81c1eE
	leaq	-88(%rbp), %rdi
	movq	%r15, %rsi
	testb	%al, %al
	je	LBB22_14
	callq	__ZN4core3fmt3num52_$LT$impl$u20$core..fmt..UpperHex$u20$for$u20$u8$GT$3fmt17hdec4e64a988d6129E
	jmp	LBB22_15
LBB22_14:
	callq	__ZN4core3fmt3num3imp51_$LT$impl$u20$core..fmt..Display$u20$for$u20$u8$GT$3fmt17hac49effbf87f075dE
LBB22_15:
	testb	%al, %al
	jne	LBB22_22
	movq	%r13, -88(%rbp)
	movq	$1, -80(%rbp)
	movq	$0, -72(%rbp)
	movq	%r12, -56(%rbp)
	movq	$0, -48(%rbp)
	leaq	-88(%rbp), %rsi
	movq	%r15, %rdi
	callq	__ZN4core3fmt9Formatter9write_fmt17h742ca6aae87ad23cE
	testb	%al, %al
	jne	LBB22_22
	shrl	$24, %ebx
	movb	%bl, -88(%rbp)
	movq	%r15, %rdi
	callq	__ZN4core3fmt9Formatter15debug_lower_hex17hd07f6fde8d0365dfE
	testb	%al, %al
	je	LBB22_18
	leaq	-88(%rbp), %rdi
	movq	%r15, %rsi
	callq	__ZN4core3fmt3num52_$LT$impl$u20$core..fmt..LowerHex$u20$for$u20$u8$GT$3fmt17h35609b3cfed2e613E
	jmp	LBB22_20
LBB22_18:
	movq	%r15, %rdi
	callq	__ZN4core3fmt9Formatter15debug_upper_hex17hf480c256a9c81c1eE
	leaq	-88(%rbp), %rdi
	movq	%r15, %rsi
	testb	%al, %al
	je	LBB22_19
	callq	__ZN4core3fmt3num52_$LT$impl$u20$core..fmt..UpperHex$u20$for$u20$u8$GT$3fmt17hdec4e64a988d6129E
	jmp	LBB22_20
LBB22_19:
	callq	__ZN4core3fmt3num3imp51_$LT$impl$u20$core..fmt..Display$u20$for$u20$u8$GT$3fmt17hac49effbf87f075dE
LBB22_20:
	testb	%al, %al
	jne	LBB22_22
	leaq	l___unnamed_5(%rip), %rax
	movq	%rax, -88(%rbp)
	movq	$1, -80(%rbp)
	movq	$0, -72(%rbp)
	movq	%r12, -56(%rbp)
	movq	$0, -48(%rbp)
	leaq	-88(%rbp), %rsi
	movq	%r15, %rdi
	callq	__ZN4core3fmt9Formatter9write_fmt17h742ca6aae87ad23cE
	movl	%eax, %r14d
LBB22_22:
	movl	%r14d, %eax
	addq	$104, %rsp
	popq	%rbx
	popq	%r12
	popq	%r13
	popq	%r14
	popq	%r15
	popq	%rbp
	retq
	.cfi_endproc

	.globl	__ZN11packed_simd3v3298_$LT$impl$u20$core..fmt..LowerHex$u20$for$u20$packed_simd..Simd$LT$$u5b$u8$u3b$$u20$4$u5d$$GT$$GT$3fmt17hf4a1ff82cd448143E
	.p2align	4, 0x90
__ZN11packed_simd3v3298_$LT$impl$u20$core..fmt..LowerHex$u20$for$u20$packed_simd..Simd$LT$$u5b$u8$u3b$$u20$4$u5d$$GT$$GT$3fmt17hf4a1ff82cd448143E:
	.cfi_startproc
	pushq	%rbp
	.cfi_def_cfa_offset 16
	.cfi_offset %rbp, -16
	movq	%rsp, %rbp
	.cfi_def_cfa_register %rbp
	pushq	%r15
	pushq	%r14
	pushq	%r13
	pushq	%r12
	pushq	%rbx
	subq	$104, %rsp
	.cfi_offset %rbx, -56
	.cfi_offset %r12, -48
	.cfi_offset %r13, -40
	.cfi_offset %r14, -32
	.cfi_offset %r15, -24
	movq	%rsi, %rbx
	movq	%rdi, %r15
	leaq	l___unnamed_9(%rip), %rax
	movq	%rax, -104(%rbp)
	leaq	__ZN44_$LT$$RF$T$u20$as$u20$core..fmt..Display$GT$3fmt17h50ac1916d68fee72E(%rip), %rax
	movq	%rax, -96(%rbp)
	leaq	l___unnamed_2(%rip), %rax
	movq	%rax, -88(%rbp)
	movq	$2, -80(%rbp)
	movq	$0, -72(%rbp)
	leaq	-104(%rbp), %rax
	movq	%rax, -56(%rbp)
	movq	$1, -48(%rbp)
	leaq	-88(%rbp), %rsi
	movq	%rbx, %rdi
	callq	__ZN4core3fmt9Formatter9write_fmt17h742ca6aae87ad23cE
	movb	$1, %cl
	testb	%al, %al
	jne	LBB23_9
	movss	(%r15), %xmm0
	movaps	%xmm0, -128(%rbp)
	xorl	%r14d, %r14d
	leaq	-88(%rbp), %r15
	leaq	l___unnamed_3(%rip), %r13
	jmp	LBB23_3
	.p2align	4, 0x90
LBB23_2:
	movaps	-128(%rbp), %xmm0
	movaps	%xmm0, -144(%rbp)
	leaq	1(%r14), %r12
	andl	$15, %r14d
	movzbl	-144(%rbp,%r14), %eax
	movb	%al, -88(%rbp)
	movq	%r15, %rdi
	movq	%rbx, %rsi
	callq	__ZN4core3fmt3num52_$LT$impl$u20$core..fmt..LowerHex$u20$for$u20$u8$GT$3fmt17h35609b3cfed2e613E
	movq	%r12, %r14
	testb	%al, %al
	jne	LBB23_8
LBB23_3:
	cmpq	$4, %r14
	je	LBB23_7
	testq	%r14, %r14
	je	LBB23_2
	movq	%r13, -88(%rbp)
	movq	$1, -80(%rbp)
	movq	$0, -72(%rbp)
	leaq	l___unnamed_4(%rip), %rax
	movq	%rax, -56(%rbp)
	movq	$0, -48(%rbp)
	movq	%rbx, %rdi
	movq	%r15, %rsi
	callq	__ZN4core3fmt9Formatter9write_fmt17h742ca6aae87ad23cE
	testb	%al, %al
	je	LBB23_2
LBB23_8:
	movb	$1, %cl
	jmp	LBB23_9
LBB23_7:
	leaq	l___unnamed_5(%rip), %rax
	movq	%rax, -88(%rbp)
	movq	$1, -80(%rbp)
	movq	$0, -72(%rbp)
	leaq	l___unnamed_4(%rip), %rax
	movq	%rax, -56(%rbp)
	movq	$0, -48(%rbp)
	leaq	-88(%rbp), %rsi
	movq	%rbx, %rdi
	callq	__ZN4core3fmt9Formatter9write_fmt17h742ca6aae87ad23cE
	movl	%eax, %ecx
LBB23_9:
	movl	%ecx, %eax
	addq	$104, %rsp
	popq	%rbx
	popq	%r12
	popq	%r13
	popq	%r14
	popq	%r15
	popq	%rbp
	retq
	.cfi_endproc

	.globl	__ZN11packed_simd3v3298_$LT$impl$u20$core..fmt..UpperHex$u20$for$u20$packed_simd..Simd$LT$$u5b$u8$u3b$$u20$4$u5d$$GT$$GT$3fmt17h958e38a4757c7776E
	.p2align	4, 0x90
__ZN11packed_simd3v3298_$LT$impl$u20$core..fmt..UpperHex$u20$for$u20$packed_simd..Simd$LT$$u5b$u8$u3b$$u20$4$u5d$$GT$$GT$3fmt17h958e38a4757c7776E:
	.cfi_startproc
	pushq	%rbp
	.cfi_def_cfa_offset 16
	.cfi_offset %rbp, -16
	movq	%rsp, %rbp
	.cfi_def_cfa_register %rbp
	pushq	%r15
	pushq	%r14
	pushq	%r13
	pushq	%r12
	pushq	%rbx
	subq	$104, %rsp
	.cfi_offset %rbx, -56
	.cfi_offset %r12, -48
	.cfi_offset %r13, -40
	.cfi_offset %r14, -32
	.cfi_offset %r15, -24
	movq	%rsi, %rbx
	movq	%rdi, %r15
	leaq	l___unnamed_9(%rip), %rax
	movq	%rax, -104(%rbp)
	leaq	__ZN44_$LT$$RF$T$u20$as$u20$core..fmt..Display$GT$3fmt17h50ac1916d68fee72E(%rip), %rax
	movq	%rax, -96(%rbp)
	leaq	l___unnamed_2(%rip), %rax
	movq	%rax, -88(%rbp)
	movq	$2, -80(%rbp)
	movq	$0, -72(%rbp)
	leaq	-104(%rbp), %rax
	movq	%rax, -56(%rbp)
	movq	$1, -48(%rbp)
	leaq	-88(%rbp), %rsi
	movq	%rbx, %rdi
	callq	__ZN4core3fmt9Formatter9write_fmt17h742ca6aae87ad23cE
	movb	$1, %cl
	testb	%al, %al
	jne	LBB24_9
	movss	(%r15), %xmm0
	movaps	%xmm0, -128(%rbp)
	xorl	%r14d, %r14d
	leaq	-88(%rbp), %r15
	leaq	l___unnamed_3(%rip), %r13
	jmp	LBB24_3
	.p2align	4, 0x90
LBB24_2:
	movaps	-128(%rbp), %xmm0
	movaps	%xmm0, -144(%rbp)
	leaq	1(%r14), %r12
	andl	$15, %r14d
	movzbl	-144(%rbp,%r14), %eax
	movb	%al, -88(%rbp)
	movq	%r15, %rdi
	movq	%rbx, %rsi
	callq	__ZN4core3fmt3num52_$LT$impl$u20$core..fmt..UpperHex$u20$for$u20$u8$GT$3fmt17hdec4e64a988d6129E
	movq	%r12, %r14
	testb	%al, %al
	jne	LBB24_8
LBB24_3:
	cmpq	$4, %r14
	je	LBB24_7
	testq	%r14, %r14
	je	LBB24_2
	movq	%r13, -88(%rbp)
	movq	$1, -80(%rbp)
	movq	$0, -72(%rbp)
	leaq	l___unnamed_4(%rip), %rax
	movq	%rax, -56(%rbp)
	movq	$0, -48(%rbp)
	movq	%rbx, %rdi
	movq	%r15, %rsi
	callq	__ZN4core3fmt9Formatter9write_fmt17h742ca6aae87ad23cE
	testb	%al, %al
	je	LBB24_2
LBB24_8:
	movb	$1, %cl
	jmp	LBB24_9
LBB24_7:
	leaq	l___unnamed_5(%rip), %rax
	movq	%rax, -88(%rbp)
	movq	$1, -80(%rbp)
	movq	$0, -72(%rbp)
	leaq	l___unnamed_4(%rip), %rax
	movq	%rax, -56(%rbp)
	movq	$0, -48(%rbp)
	leaq	-88(%rbp), %rsi
	movq	%rbx, %rdi
	callq	__ZN4core3fmt9Formatter9write_fmt17h742ca6aae87ad23cE
	movl	%eax, %ecx
LBB24_9:
	movl	%ecx, %eax
	addq	$104, %rsp
	popq	%rbx
	popq	%r12
	popq	%r13
	popq	%r14
	popq	%r15
	popq	%rbp
	retq
	.cfi_endproc

	.globl	__ZN11packed_simd3v3295_$LT$impl$u20$core..fmt..Octal$u20$for$u20$packed_simd..Simd$LT$$u5b$u8$u3b$$u20$4$u5d$$GT$$GT$3fmt17h2bf91dae29d02864E
	.p2align	4, 0x90
__ZN11packed_simd3v3295_$LT$impl$u20$core..fmt..Octal$u20$for$u20$packed_simd..Simd$LT$$u5b$u8$u3b$$u20$4$u5d$$GT$$GT$3fmt17h2bf91dae29d02864E:
	.cfi_startproc
	pushq	%rbp
	.cfi_def_cfa_offset 16
	.cfi_offset %rbp, -16
	movq	%rsp, %rbp
	.cfi_def_cfa_register %rbp
	pushq	%r15
	pushq	%r14
	pushq	%r13
	pushq	%r12
	pushq	%rbx
	subq	$104, %rsp
	.cfi_offset %rbx, -56
	.cfi_offset %r12, -48
	.cfi_offset %r13, -40
	.cfi_offset %r14, -32
	.cfi_offset %r15, -24
	movq	%rsi, %rbx
	movq	%rdi, %r15
	leaq	l___unnamed_9(%rip), %rax
	movq	%rax, -104(%rbp)
	leaq	__ZN44_$LT$$RF$T$u20$as$u20$core..fmt..Display$GT$3fmt17h50ac1916d68fee72E(%rip), %rax
	movq	%rax, -96(%rbp)
	leaq	l___unnamed_2(%rip), %rax
	movq	%rax, -88(%rbp)
	movq	$2, -80(%rbp)
	movq	$0, -72(%rbp)
	leaq	-104(%rbp), %rax
	movq	%rax, -56(%rbp)
	movq	$1, -48(%rbp)
	leaq	-88(%rbp), %rsi
	movq	%rbx, %rdi
	callq	__ZN4core3fmt9Formatter9write_fmt17h742ca6aae87ad23cE
	movb	$1, %cl
	testb	%al, %al
	jne	LBB25_9
	movss	(%r15), %xmm0
	movaps	%xmm0, -128(%rbp)
	xorl	%r14d, %r14d
	leaq	-88(%rbp), %r15
	leaq	l___unnamed_3(%rip), %r13
	jmp	LBB25_3
	.p2align	4, 0x90
LBB25_2:
	movaps	-128(%rbp), %xmm0
	movaps	%xmm0, -144(%rbp)
	leaq	1(%r14), %r12
	andl	$15, %r14d
	movzbl	-144(%rbp,%r14), %eax
	movb	%al, -88(%rbp)
	movq	%r15, %rdi
	movq	%rbx, %rsi
	callq	__ZN4core3fmt3num49_$LT$impl$u20$core..fmt..Octal$u20$for$u20$u8$GT$3fmt17hf7600dd9a4d32e44E
	movq	%r12, %r14
	testb	%al, %al
	jne	LBB25_8
LBB25_3:
	cmpq	$4, %r14
	je	LBB25_7
	testq	%r14, %r14
	je	LBB25_2
	movq	%r13, -88(%rbp)
	movq	$1, -80(%rbp)
	movq	$0, -72(%rbp)
	leaq	l___unnamed_4(%rip), %rax
	movq	%rax, -56(%rbp)
	movq	$0, -48(%rbp)
	movq	%rbx, %rdi
	movq	%r15, %rsi
	callq	__ZN4core3fmt9Formatter9write_fmt17h742ca6aae87ad23cE
	testb	%al, %al
	je	LBB25_2
LBB25_8:
	movb	$1, %cl
	jmp	LBB25_9
LBB25_7:
	leaq	l___unnamed_5(%rip), %rax
	movq	%rax, -88(%rbp)
	movq	$1, -80(%rbp)
	movq	$0, -72(%rbp)
	leaq	l___unnamed_4(%rip), %rax
	movq	%rax, -56(%rbp)
	movq	$0, -48(%rbp)
	leaq	-88(%rbp), %rsi
	movq	%rbx, %rdi
	callq	__ZN4core3fmt9Formatter9write_fmt17h742ca6aae87ad23cE
	movl	%eax, %ecx
LBB25_9:
	movl	%ecx, %eax
	addq	$104, %rsp
	popq	%rbx
	popq	%r12
	popq	%r13
	popq	%r14
	popq	%r15
	popq	%rbp
	retq
	.cfi_endproc

	.globl	__ZN11packed_simd3v3296_$LT$impl$u20$core..fmt..Binary$u20$for$u20$packed_simd..Simd$LT$$u5b$u8$u3b$$u20$4$u5d$$GT$$GT$3fmt17hd1066dac45a2ecc1E
	.p2align	4, 0x90
__ZN11packed_simd3v3296_$LT$impl$u20$core..fmt..Binary$u20$for$u20$packed_simd..Simd$LT$$u5b$u8$u3b$$u20$4$u5d$$GT$$GT$3fmt17hd1066dac45a2ecc1E:
	.cfi_startproc
	pushq	%rbp
	.cfi_def_cfa_offset 16
	.cfi_offset %rbp, -16
	movq	%rsp, %rbp
	.cfi_def_cfa_register %rbp
	pushq	%r15
	pushq	%r14
	pushq	%r13
	pushq	%r12
	pushq	%rbx
	subq	$104, %rsp
	.cfi_offset %rbx, -56
	.cfi_offset %r12, -48
	.cfi_offset %r13, -40
	.cfi_offset %r14, -32
	.cfi_offset %r15, -24
	movq	%rsi, %rbx
	movq	%rdi, %r15
	leaq	l___unnamed_9(%rip), %rax
	movq	%rax, -104(%rbp)
	leaq	__ZN44_$LT$$RF$T$u20$as$u20$core..fmt..Display$GT$3fmt17h50ac1916d68fee72E(%rip), %rax
	movq	%rax, -96(%rbp)
	leaq	l___unnamed_2(%rip), %rax
	movq	%rax, -88(%rbp)
	movq	$2, -80(%rbp)
	movq	$0, -72(%rbp)
	leaq	-104(%rbp), %rax
	movq	%rax, -56(%rbp)
	movq	$1, -48(%rbp)
	leaq	-88(%rbp), %rsi
	movq	%rbx, %rdi
	callq	__ZN4core3fmt9Formatter9write_fmt17h742ca6aae87ad23cE
	movb	$1, %cl
	testb	%al, %al
	jne	LBB26_9
	movss	(%r15), %xmm0
	movaps	%xmm0, -128(%rbp)
	xorl	%r14d, %r14d
	leaq	-88(%rbp), %r15
	leaq	l___unnamed_3(%rip), %r13
	jmp	LBB26_3
	.p2align	4, 0x90
LBB26_2:
	movaps	-128(%rbp), %xmm0
	movaps	%xmm0, -144(%rbp)
	leaq	1(%r14), %r12
	andl	$15, %r14d
	movzbl	-144(%rbp,%r14), %eax
	movb	%al, -88(%rbp)
	movq	%r15, %rdi
	movq	%rbx, %rsi
	callq	__ZN4core3fmt3num50_$LT$impl$u20$core..fmt..Binary$u20$for$u20$u8$GT$3fmt17h34ba181458cacf9cE
	movq	%r12, %r14
	testb	%al, %al
	jne	LBB26_8
LBB26_3:
	cmpq	$4, %r14
	je	LBB26_7
	testq	%r14, %r14
	je	LBB26_2
	movq	%r13, -88(%rbp)
	movq	$1, -80(%rbp)
	movq	$0, -72(%rbp)
	leaq	l___unnamed_4(%rip), %rax
	movq	%rax, -56(%rbp)
	movq	$0, -48(%rbp)
	movq	%rbx, %rdi
	movq	%r15, %rsi
	callq	__ZN4core3fmt9Formatter9write_fmt17h742ca6aae87ad23cE
	testb	%al, %al
	je	LBB26_2
LBB26_8:
	movb	$1, %cl
	jmp	LBB26_9
LBB26_7:
	leaq	l___unnamed_5(%rip), %rax
	movq	%rax, -88(%rbp)
	movq	$1, -80(%rbp)
	movq	$0, -72(%rbp)
	leaq	l___unnamed_4(%rip), %rax
	movq	%rax, -56(%rbp)
	movq	$0, -48(%rbp)
	leaq	-88(%rbp), %rsi
	movq	%rbx, %rdi
	callq	__ZN4core3fmt9Formatter9write_fmt17h742ca6aae87ad23cE
	movl	%eax, %ecx
LBB26_9:
	movl	%ecx, %eax
	addq	$104, %rsp
	popq	%rbx
	popq	%r12
	popq	%r13
	popq	%r14
	popq	%r15
	popq	%rbp
	retq
	.cfi_endproc

	.globl	__ZN11packed_simd3v32115_$LT$impl$u20$core..fmt..Debug$u20$for$u20$packed_simd..Simd$LT$$u5b$packed_simd..masks..m8$u3b$$u20$4$u5d$$GT$$GT$3fmt17h98a26bb1c9304014E
	.p2align	4, 0x90
__ZN11packed_simd3v32115_$LT$impl$u20$core..fmt..Debug$u20$for$u20$packed_simd..Simd$LT$$u5b$packed_simd..masks..m8$u3b$$u20$4$u5d$$GT$$GT$3fmt17h98a26bb1c9304014E:
	.cfi_startproc
	pushq	%rbp
	.cfi_def_cfa_offset 16
	.cfi_offset %rbp, -16
	movq	%rsp, %rbp
	.cfi_def_cfa_register %rbp
	pushq	%r15
	pushq	%r14
	pushq	%r13
	pushq	%r12
	pushq	%rbx
	subq	$104, %rsp
	.cfi_offset %rbx, -56
	.cfi_offset %r12, -48
	.cfi_offset %r13, -40
	.cfi_offset %r14, -32
	.cfi_offset %r15, -24
	movq	%rsi, %rbx
	movq	%rdi, %r15
	leaq	l___unnamed_10(%rip), %rax
	movq	%rax, -104(%rbp)
	leaq	__ZN44_$LT$$RF$T$u20$as$u20$core..fmt..Display$GT$3fmt17h50ac1916d68fee72E(%rip), %rax
	movq	%rax, -96(%rbp)
	leaq	l___unnamed_2(%rip), %rax
	movq	%rax, -88(%rbp)
	movq	$2, -80(%rbp)
	movq	$0, -72(%rbp)
	leaq	-104(%rbp), %rax
	movq	%rax, -56(%rbp)
	movq	$1, -48(%rbp)
	leaq	-88(%rbp), %rsi
	movq	%rbx, %rdi
	callq	__ZN4core3fmt9Formatter9write_fmt17h742ca6aae87ad23cE
	movb	$1, %cl
	testb	%al, %al
	jne	LBB27_9
	movss	(%r15), %xmm0
	movaps	%xmm0, -128(%rbp)
	xorl	%r14d, %r14d
	leaq	-88(%rbp), %r15
	leaq	l___unnamed_3(%rip), %r13
	jmp	LBB27_3
	.p2align	4, 0x90
LBB27_2:
	movaps	-128(%rbp), %xmm0
	movaps	%xmm0, -144(%rbp)
	leaq	1(%r14), %r12
	andl	$15, %r14d
	cmpb	$0, -144(%rbp,%r14)
	setne	-88(%rbp)
	movq	%r15, %rdi
	movq	%rbx, %rsi
	callq	__ZN43_$LT$bool$u20$as$u20$core..fmt..Display$GT$3fmt17hd78396651a24cfbbE
	movq	%r12, %r14
	testb	%al, %al
	jne	LBB27_8
LBB27_3:
	cmpq	$4, %r14
	je	LBB27_7
	testq	%r14, %r14
	je	LBB27_2
	movq	%r13, -88(%rbp)
	movq	$1, -80(%rbp)
	movq	$0, -72(%rbp)
	leaq	l___unnamed_4(%rip), %rax
	movq	%rax, -56(%rbp)
	movq	$0, -48(%rbp)
	movq	%rbx, %rdi
	movq	%r15, %rsi
	callq	__ZN4core3fmt9Formatter9write_fmt17h742ca6aae87ad23cE
	testb	%al, %al
	je	LBB27_2
LBB27_8:
	movb	$1, %cl
	jmp	LBB27_9
LBB27_7:
	leaq	l___unnamed_5(%rip), %rax
	movq	%rax, -88(%rbp)
	movq	$1, -80(%rbp)
	movq	$0, -72(%rbp)
	leaq	l___unnamed_4(%rip), %rax
	movq	%rax, -56(%rbp)
	movq	$0, -48(%rbp)
	leaq	-88(%rbp), %rsi
	movq	%rbx, %rdi
	callq	__ZN4core3fmt9Formatter9write_fmt17h742ca6aae87ad23cE
	movl	%eax, %ecx
LBB27_9:
	movl	%ecx, %eax
	addq	$104, %rsp
	popq	%rbx
	popq	%r12
	popq	%r13
	popq	%r14
	popq	%r15
	popq	%rbp
	retq
	.cfi_endproc

	.globl	__ZN11packed_simd3v3296_$LT$impl$u20$core..fmt..Debug$u20$for$u20$packed_simd..Simd$LT$$u5b$i16$u3b$$u20$2$u5d$$GT$$GT$3fmt17hc0f2efdb559d4234E
	.p2align	4, 0x90
__ZN11packed_simd3v3296_$LT$impl$u20$core..fmt..Debug$u20$for$u20$packed_simd..Simd$LT$$u5b$i16$u3b$$u20$2$u5d$$GT$$GT$3fmt17hc0f2efdb559d4234E:
	.cfi_startproc
	pushq	%rbp
	.cfi_def_cfa_offset 16
	.cfi_offset %rbp, -16
	movq	%rsp, %rbp
	.cfi_def_cfa_register %rbp
	pushq	%r15
	pushq	%r14
	pushq	%r12
	pushq	%rbx
	subq	$64, %rsp
	.cfi_offset %rbx, -48
	.cfi_offset %r12, -40
	.cfi_offset %r14, -32
	.cfi_offset %r15, -24
	movq	%rsi, %r15
	movq	%rdi, %rbx
	leaq	l___unnamed_11(%rip), %rax
	movq	%rax, -96(%rbp)
	leaq	__ZN44_$LT$$RF$T$u20$as$u20$core..fmt..Display$GT$3fmt17h50ac1916d68fee72E(%rip), %rax
	movq	%rax, -88(%rbp)
	leaq	l___unnamed_2(%rip), %rax
	movq	%rax, -80(%rbp)
	movq	$2, -72(%rbp)
	movq	$0, -64(%rbp)
	leaq	-96(%rbp), %rax
	movq	%rax, -48(%rbp)
	movq	$1, -40(%rbp)
	leaq	-80(%rbp), %rsi
	movq	%r15, %rdi
	callq	__ZN4core3fmt9Formatter9write_fmt17h742ca6aae87ad23cE
	movb	$1, %r14b
	testb	%al, %al
	jne	LBB28_12
	movl	(%rbx), %ebx
	movw	%bx, -80(%rbp)
	movq	%r15, %rdi
	callq	__ZN4core3fmt9Formatter15debug_lower_hex17hd07f6fde8d0365dfE
	testb	%al, %al
	je	LBB28_2
	leaq	-80(%rbp), %rdi
	movq	%r15, %rsi
	callq	__ZN4core3fmt3num53_$LT$impl$u20$core..fmt..LowerHex$u20$for$u20$i16$GT$3fmt17h7236122704e16c86E
	testb	%al, %al
	je	LBB28_6
	jmp	LBB28_12
LBB28_2:
	movq	%r15, %rdi
	callq	__ZN4core3fmt9Formatter15debug_upper_hex17hf480c256a9c81c1eE
	leaq	-80(%rbp), %rdi
	movq	%r15, %rsi
	testb	%al, %al
	je	LBB28_4
	callq	__ZN4core3fmt3num53_$LT$impl$u20$core..fmt..UpperHex$u20$for$u20$i16$GT$3fmt17hf50bc938a2a1e02bE
	testb	%al, %al
	je	LBB28_6
	jmp	LBB28_12
LBB28_4:
	callq	__ZN4core3fmt3num3imp52_$LT$impl$u20$core..fmt..Display$u20$for$u20$i16$GT$3fmt17h7c7135e52a8bf68aE
	testb	%al, %al
	jne	LBB28_12
LBB28_6:
	leaq	l___unnamed_3(%rip), %rax
	movq	%rax, -80(%rbp)
	movq	$1, -72(%rbp)
	movq	$0, -64(%rbp)
	leaq	l___unnamed_4(%rip), %r12
	movq	%r12, -48(%rbp)
	movq	$0, -40(%rbp)
	leaq	-80(%rbp), %rsi
	movq	%r15, %rdi
	callq	__ZN4core3fmt9Formatter9write_fmt17h742ca6aae87ad23cE
	testb	%al, %al
	jne	LBB28_12
	movd	%ebx, %xmm0
	pextrw	$1, %xmm0, %eax
	movw	%ax, -80(%rbp)
	movq	%r15, %rdi
	callq	__ZN4core3fmt9Formatter15debug_lower_hex17hd07f6fde8d0365dfE
	testb	%al, %al
	je	LBB28_8
	leaq	-80(%rbp), %rdi
	movq	%r15, %rsi
	callq	__ZN4core3fmt3num53_$LT$impl$u20$core..fmt..LowerHex$u20$for$u20$i16$GT$3fmt17h7236122704e16c86E
	jmp	LBB28_10
LBB28_8:
	movq	%r15, %rdi
	callq	__ZN4core3fmt9Formatter15debug_upper_hex17hf480c256a9c81c1eE
	leaq	-80(%rbp), %rdi
	movq	%r15, %rsi
	testb	%al, %al
	je	LBB28_9
	callq	__ZN4core3fmt3num53_$LT$impl$u20$core..fmt..UpperHex$u20$for$u20$i16$GT$3fmt17hf50bc938a2a1e02bE
	jmp	LBB28_10
LBB28_9:
	callq	__ZN4core3fmt3num3imp52_$LT$impl$u20$core..fmt..Display$u20$for$u20$i16$GT$3fmt17h7c7135e52a8bf68aE
LBB28_10:
	testb	%al, %al
	jne	LBB28_12
	leaq	l___unnamed_5(%rip), %rax
	movq	%rax, -80(%rbp)
	movq	$1, -72(%rbp)
	movq	$0, -64(%rbp)
	movq	%r12, -48(%rbp)
	movq	$0, -40(%rbp)
	leaq	-80(%rbp), %rsi
	movq	%r15, %rdi
	callq	__ZN4core3fmt9Formatter9write_fmt17h742ca6aae87ad23cE
	movl	%eax, %r14d
LBB28_12:
	movl	%r14d, %eax
	addq	$64, %rsp
	popq	%rbx
	popq	%r12
	popq	%r14
	popq	%r15
	popq	%rbp
	retq
	.cfi_endproc

	.globl	__ZN11packed_simd3v3299_$LT$impl$u20$core..fmt..LowerHex$u20$for$u20$packed_simd..Simd$LT$$u5b$i16$u3b$$u20$2$u5d$$GT$$GT$3fmt17h7ac99e5d93859618E
	.p2align	4, 0x90
__ZN11packed_simd3v3299_$LT$impl$u20$core..fmt..LowerHex$u20$for$u20$packed_simd..Simd$LT$$u5b$i16$u3b$$u20$2$u5d$$GT$$GT$3fmt17h7ac99e5d93859618E:
	.cfi_startproc
	pushq	%rbp
	.cfi_def_cfa_offset 16
	.cfi_offset %rbp, -16
	movq	%rsp, %rbp
	.cfi_def_cfa_register %rbp
	pushq	%r15
	pushq	%r14
	pushq	%r13
	pushq	%r12
	pushq	%rbx
	subq	$104, %rsp
	.cfi_offset %rbx, -56
	.cfi_offset %r12, -48
	.cfi_offset %r13, -40
	.cfi_offset %r14, -32
	.cfi_offset %r15, -24
	movq	%rsi, %rbx
	movq	%rdi, %r15
	leaq	l___unnamed_11(%rip), %rax
	movq	%rax, -104(%rbp)
	leaq	__ZN44_$LT$$RF$T$u20$as$u20$core..fmt..Display$GT$3fmt17h50ac1916d68fee72E(%rip), %rax
	movq	%rax, -96(%rbp)
	leaq	l___unnamed_2(%rip), %rax
	movq	%rax, -88(%rbp)
	movq	$2, -80(%rbp)
	movq	$0, -72(%rbp)
	leaq	-104(%rbp), %rax
	movq	%rax, -56(%rbp)
	movq	$1, -48(%rbp)
	leaq	-88(%rbp), %rsi
	movq	%rbx, %rdi
	callq	__ZN4core3fmt9Formatter9write_fmt17h742ca6aae87ad23cE
	movb	$1, %cl
	testb	%al, %al
	jne	LBB29_9
	movss	(%r15), %xmm0
	movaps	%xmm0, -128(%rbp)
	xorl	%r14d, %r14d
	leaq	-88(%rbp), %r15
	leaq	l___unnamed_3(%rip), %r13
	jmp	LBB29_3
	.p2align	4, 0x90
LBB29_2:
	movaps	-128(%rbp), %xmm0
	movaps	%xmm0, -144(%rbp)
	leaq	1(%r14), %r12
	andl	$7, %r14d
	movzwl	-144(%rbp,%r14,2), %eax
	movw	%ax, -88(%rbp)
	movq	%r15, %rdi
	movq	%rbx, %rsi
	callq	__ZN4core3fmt3num53_$LT$impl$u20$core..fmt..LowerHex$u20$for$u20$i16$GT$3fmt17h7236122704e16c86E
	movq	%r12, %r14
	testb	%al, %al
	jne	LBB29_8
LBB29_3:
	cmpq	$2, %r14
	je	LBB29_7
	testq	%r14, %r14
	je	LBB29_2
	movq	%r13, -88(%rbp)
	movq	$1, -80(%rbp)
	movq	$0, -72(%rbp)
	leaq	l___unnamed_4(%rip), %rax
	movq	%rax, -56(%rbp)
	movq	$0, -48(%rbp)
	movq	%rbx, %rdi
	movq	%r15, %rsi
	callq	__ZN4core3fmt9Formatter9write_fmt17h742ca6aae87ad23cE
	testb	%al, %al
	je	LBB29_2
LBB29_8:
	movb	$1, %cl
	jmp	LBB29_9
LBB29_7:
	leaq	l___unnamed_5(%rip), %rax
	movq	%rax, -88(%rbp)
	movq	$1, -80(%rbp)
	movq	$0, -72(%rbp)
	leaq	l___unnamed_4(%rip), %rax
	movq	%rax, -56(%rbp)
	movq	$0, -48(%rbp)
	leaq	-88(%rbp), %rsi
	movq	%rbx, %rdi
	callq	__ZN4core3fmt9Formatter9write_fmt17h742ca6aae87ad23cE
	movl	%eax, %ecx
LBB29_9:
	movl	%ecx, %eax
	addq	$104, %rsp
	popq	%rbx
	popq	%r12
	popq	%r13
	popq	%r14
	popq	%r15
	popq	%rbp
	retq
	.cfi_endproc

	.globl	__ZN11packed_simd3v3299_$LT$impl$u20$core..fmt..UpperHex$u20$for$u20$packed_simd..Simd$LT$$u5b$i16$u3b$$u20$2$u5d$$GT$$GT$3fmt17ha29416ebe3a2bc99E
	.p2align	4, 0x90
__ZN11packed_simd3v3299_$LT$impl$u20$core..fmt..UpperHex$u20$for$u20$packed_simd..Simd$LT$$u5b$i16$u3b$$u20$2$u5d$$GT$$GT$3fmt17ha29416ebe3a2bc99E:
	.cfi_startproc
	pushq	%rbp
	.cfi_def_cfa_offset 16
	.cfi_offset %rbp, -16
	movq	%rsp, %rbp
	.cfi_def_cfa_register %rbp
	pushq	%r15
	pushq	%r14
	pushq	%r13
	pushq	%r12
	pushq	%rbx
	subq	$104, %rsp
	.cfi_offset %rbx, -56
	.cfi_offset %r12, -48
	.cfi_offset %r13, -40
	.cfi_offset %r14, -32
	.cfi_offset %r15, -24
	movq	%rsi, %rbx
	movq	%rdi, %r15
	leaq	l___unnamed_11(%rip), %rax
	movq	%rax, -104(%rbp)
	leaq	__ZN44_$LT$$RF$T$u20$as$u20$core..fmt..Display$GT$3fmt17h50ac1916d68fee72E(%rip), %rax
	movq	%rax, -96(%rbp)
	leaq	l___unnamed_2(%rip), %rax
	movq	%rax, -88(%rbp)
	movq	$2, -80(%rbp)
	movq	$0, -72(%rbp)
	leaq	-104(%rbp), %rax
	movq	%rax, -56(%rbp)
	movq	$1, -48(%rbp)
	leaq	-88(%rbp), %rsi
	movq	%rbx, %rdi
	callq	__ZN4core3fmt9Formatter9write_fmt17h742ca6aae87ad23cE
	movb	$1, %cl
	testb	%al, %al
	jne	LBB30_9
	movss	(%r15), %xmm0
	movaps	%xmm0, -128(%rbp)
	xorl	%r14d, %r14d
	leaq	-88(%rbp), %r15
	leaq	l___unnamed_3(%rip), %r13
	jmp	LBB30_3
	.p2align	4, 0x90
LBB30_2:
	movaps	-128(%rbp), %xmm0
	movaps	%xmm0, -144(%rbp)
	leaq	1(%r14), %r12
	andl	$7, %r14d
	movzwl	-144(%rbp,%r14,2), %eax
	movw	%ax, -88(%rbp)
	movq	%r15, %rdi
	movq	%rbx, %rsi
	callq	__ZN4core3fmt3num53_$LT$impl$u20$core..fmt..UpperHex$u20$for$u20$i16$GT$3fmt17hf50bc938a2a1e02bE
	movq	%r12, %r14
	testb	%al, %al
	jne	LBB30_8
LBB30_3:
	cmpq	$2, %r14
	je	LBB30_7
	testq	%r14, %r14
	je	LBB30_2
	movq	%r13, -88(%rbp)
	movq	$1, -80(%rbp)
	movq	$0, -72(%rbp)
	leaq	l___unnamed_4(%rip), %rax
	movq	%rax, -56(%rbp)
	movq	$0, -48(%rbp)
	movq	%rbx, %rdi
	movq	%r15, %rsi
	callq	__ZN4core3fmt9Formatter9write_fmt17h742ca6aae87ad23cE
	testb	%al, %al
	je	LBB30_2
LBB30_8:
	movb	$1, %cl
	jmp	LBB30_9
LBB30_7:
	leaq	l___unnamed_5(%rip), %rax
	movq	%rax, -88(%rbp)
	movq	$1, -80(%rbp)
	movq	$0, -72(%rbp)
	leaq	l___unnamed_4(%rip), %rax
	movq	%rax, -56(%rbp)
	movq	$0, -48(%rbp)
	leaq	-88(%rbp), %rsi
	movq	%rbx, %rdi
	callq	__ZN4core3fmt9Formatter9write_fmt17h742ca6aae87ad23cE
	movl	%eax, %ecx
LBB30_9:
	movl	%ecx, %eax
	addq	$104, %rsp
	popq	%rbx
	popq	%r12
	popq	%r13
	popq	%r14
	popq	%r15
	popq	%rbp
	retq
	.cfi_endproc

	.globl	__ZN11packed_simd3v3296_$LT$impl$u20$core..fmt..Octal$u20$for$u20$packed_simd..Simd$LT$$u5b$i16$u3b$$u20$2$u5d$$GT$$GT$3fmt17ha773af2c571e7f10E
	.p2align	4, 0x90
__ZN11packed_simd3v3296_$LT$impl$u20$core..fmt..Octal$u20$for$u20$packed_simd..Simd$LT$$u5b$i16$u3b$$u20$2$u5d$$GT$$GT$3fmt17ha773af2c571e7f10E:
	.cfi_startproc
	pushq	%rbp
	.cfi_def_cfa_offset 16
	.cfi_offset %rbp, -16
	movq	%rsp, %rbp
	.cfi_def_cfa_register %rbp
	pushq	%r15
	pushq	%r14
	pushq	%r13
	pushq	%r12
	pushq	%rbx
	subq	$104, %rsp
	.cfi_offset %rbx, -56
	.cfi_offset %r12, -48
	.cfi_offset %r13, -40
	.cfi_offset %r14, -32
	.cfi_offset %r15, -24
	movq	%rsi, %rbx
	movq	%rdi, %r15
	leaq	l___unnamed_11(%rip), %rax
	movq	%rax, -104(%rbp)
	leaq	__ZN44_$LT$$RF$T$u20$as$u20$core..fmt..Display$GT$3fmt17h50ac1916d68fee72E(%rip), %rax
	movq	%rax, -96(%rbp)
	leaq	l___unnamed_2(%rip), %rax
	movq	%rax, -88(%rbp)
	movq	$2, -80(%rbp)
	movq	$0, -72(%rbp)
	leaq	-104(%rbp), %rax
	movq	%rax, -56(%rbp)
	movq	$1, -48(%rbp)
	leaq	-88(%rbp), %rsi
	movq	%rbx, %rdi
	callq	__ZN4core3fmt9Formatter9write_fmt17h742ca6aae87ad23cE
	movb	$1, %cl
	testb	%al, %al
	jne	LBB31_9
	movss	(%r15), %xmm0
	movaps	%xmm0, -128(%rbp)
	xorl	%r14d, %r14d
	leaq	-88(%rbp), %r15
	leaq	l___unnamed_3(%rip), %r13
	jmp	LBB31_3
	.p2align	4, 0x90
LBB31_2:
	movaps	-128(%rbp), %xmm0
	movaps	%xmm0, -144(%rbp)
	leaq	1(%r14), %r12
	andl	$7, %r14d
	movzwl	-144(%rbp,%r14,2), %eax
	movw	%ax, -88(%rbp)
	movq	%r15, %rdi
	movq	%rbx, %rsi
	callq	__ZN4core3fmt3num50_$LT$impl$u20$core..fmt..Octal$u20$for$u20$i16$GT$3fmt17ha0034911fbd4500eE
	movq	%r12, %r14
	testb	%al, %al
	jne	LBB31_8
LBB31_3:
	cmpq	$2, %r14
	je	LBB31_7
	testq	%r14, %r14
	je	LBB31_2
	movq	%r13, -88(%rbp)
	movq	$1, -80(%rbp)
	movq	$0, -72(%rbp)
	leaq	l___unnamed_4(%rip), %rax
	movq	%rax, -56(%rbp)
	movq	$0, -48(%rbp)
	movq	%rbx, %rdi
	movq	%r15, %rsi
	callq	__ZN4core3fmt9Formatter9write_fmt17h742ca6aae87ad23cE
	testb	%al, %al
	je	LBB31_2
LBB31_8:
	movb	$1, %cl
	jmp	LBB31_9
LBB31_7:
	leaq	l___unnamed_5(%rip), %rax
	movq	%rax, -88(%rbp)
	movq	$1, -80(%rbp)
	movq	$0, -72(%rbp)
	leaq	l___unnamed_4(%rip), %rax
	movq	%rax, -56(%rbp)
	movq	$0, -48(%rbp)
	leaq	-88(%rbp), %rsi
	movq	%rbx, %rdi
	callq	__ZN4core3fmt9Formatter9write_fmt17h742ca6aae87ad23cE
	movl	%eax, %ecx
LBB31_9:
	movl	%ecx, %eax
	addq	$104, %rsp
	popq	%rbx
	popq	%r12
	popq	%r13
	popq	%r14
	popq	%r15
	popq	%rbp
	retq
	.cfi_endproc

	.globl	__ZN11packed_simd3v3297_$LT$impl$u20$core..fmt..Binary$u20$for$u20$packed_simd..Simd$LT$$u5b$i16$u3b$$u20$2$u5d$$GT$$GT$3fmt17ha4f8e12b1b019282E
	.p2align	4, 0x90
__ZN11packed_simd3v3297_$LT$impl$u20$core..fmt..Binary$u20$for$u20$packed_simd..Simd$LT$$u5b$i16$u3b$$u20$2$u5d$$GT$$GT$3fmt17ha4f8e12b1b019282E:
	.cfi_startproc
	pushq	%rbp
	.cfi_def_cfa_offset 16
	.cfi_offset %rbp, -16
	movq	%rsp, %rbp
	.cfi_def_cfa_register %rbp
	pushq	%r15
	pushq	%r14
	pushq	%r13
	pushq	%r12
	pushq	%rbx
	subq	$104, %rsp
	.cfi_offset %rbx, -56
	.cfi_offset %r12, -48
	.cfi_offset %r13, -40
	.cfi_offset %r14, -32
	.cfi_offset %r15, -24
	movq	%rsi, %rbx
	movq	%rdi, %r15
	leaq	l___unnamed_11(%rip), %rax
	movq	%rax, -104(%rbp)
	leaq	__ZN44_$LT$$RF$T$u20$as$u20$core..fmt..Display$GT$3fmt17h50ac1916d68fee72E(%rip), %rax
	movq	%rax, -96(%rbp)
	leaq	l___unnamed_2(%rip), %rax
	movq	%rax, -88(%rbp)
	movq	$2, -80(%rbp)
	movq	$0, -72(%rbp)
	leaq	-104(%rbp), %rax
	movq	%rax, -56(%rbp)
	movq	$1, -48(%rbp)
	leaq	-88(%rbp), %rsi
	movq	%rbx, %rdi
	callq	__ZN4core3fmt9Formatter9write_fmt17h742ca6aae87ad23cE
	movb	$1, %cl
	testb	%al, %al
	jne	LBB32_9
	movss	(%r15), %xmm0
	movaps	%xmm0, -128(%rbp)
	xorl	%r14d, %r14d
	leaq	-88(%rbp), %r15
	leaq	l___unnamed_3(%rip), %r13
	jmp	LBB32_3
	.p2align	4, 0x90
LBB32_2:
	movaps	-128(%rbp), %xmm0
	movaps	%xmm0, -144(%rbp)
	leaq	1(%r14), %r12
	andl	$7, %r14d
	movzwl	-144(%rbp,%r14,2), %eax
	movw	%ax, -88(%rbp)
	movq	%r15, %rdi
	movq	%rbx, %rsi
	callq	__ZN4core3fmt3num51_$LT$impl$u20$core..fmt..Binary$u20$for$u20$i16$GT$3fmt17hd0d6ed80e6addc96E
	movq	%r12, %r14
	testb	%al, %al
	jne	LBB32_8
LBB32_3:
	cmpq	$2, %r14
	je	LBB32_7
	testq	%r14, %r14
	je	LBB32_2
	movq	%r13, -88(%rbp)
	movq	$1, -80(%rbp)
	movq	$0, -72(%rbp)
	leaq	l___unnamed_4(%rip), %rax
	movq	%rax, -56(%rbp)
	movq	$0, -48(%rbp)
	movq	%rbx, %rdi
	movq	%r15, %rsi
	callq	__ZN4core3fmt9Formatter9write_fmt17h742ca6aae87ad23cE
	testb	%al, %al
	je	LBB32_2
LBB32_8:
	movb	$1, %cl
	jmp	LBB32_9
LBB32_7:
	leaq	l___unnamed_5(%rip), %rax
	movq	%rax, -88(%rbp)
	movq	$1, -80(%rbp)
	movq	$0, -72(%rbp)
	leaq	l___unnamed_4(%rip), %rax
	movq	%rax, -56(%rbp)
	movq	$0, -48(%rbp)
	leaq	-88(%rbp), %rsi
	movq	%rbx, %rdi
	callq	__ZN4core3fmt9Formatter9write_fmt17h742ca6aae87ad23cE
	movl	%eax, %ecx
LBB32_9:
	movl	%ecx, %eax
	addq	$104, %rsp
	popq	%rbx
	popq	%r12
	popq	%r13
	popq	%r14
	popq	%r15
	popq	%rbp
	retq
	.cfi_endproc

	.globl	__ZN11packed_simd3v3296_$LT$impl$u20$core..fmt..Debug$u20$for$u20$packed_simd..Simd$LT$$u5b$u16$u3b$$u20$2$u5d$$GT$$GT$3fmt17h5420171b23a001b6E
	.p2align	4, 0x90
__ZN11packed_simd3v3296_$LT$impl$u20$core..fmt..Debug$u20$for$u20$packed_simd..Simd$LT$$u5b$u16$u3b$$u20$2$u5d$$GT$$GT$3fmt17h5420171b23a001b6E:
	.cfi_startproc
	pushq	%rbp
	.cfi_def_cfa_offset 16
	.cfi_offset %rbp, -16
	movq	%rsp, %rbp
	.cfi_def_cfa_register %rbp
	pushq	%r15
	pushq	%r14
	pushq	%r12
	pushq	%rbx
	subq	$64, %rsp
	.cfi_offset %rbx, -48
	.cfi_offset %r12, -40
	.cfi_offset %r14, -32
	.cfi_offset %r15, -24
	movq	%rsi, %r15
	movq	%rdi, %rbx
	leaq	l___unnamed_12(%rip), %rax
	movq	%rax, -96(%rbp)
	leaq	__ZN44_$LT$$RF$T$u20$as$u20$core..fmt..Display$GT$3fmt17h50ac1916d68fee72E(%rip), %rax
	movq	%rax, -88(%rbp)
	leaq	l___unnamed_2(%rip), %rax
	movq	%rax, -80(%rbp)
	movq	$2, -72(%rbp)
	movq	$0, -64(%rbp)
	leaq	-96(%rbp), %rax
	movq	%rax, -48(%rbp)
	movq	$1, -40(%rbp)
	leaq	-80(%rbp), %rsi
	movq	%r15, %rdi
	callq	__ZN4core3fmt9Formatter9write_fmt17h742ca6aae87ad23cE
	movb	$1, %r14b
	testb	%al, %al
	jne	LBB33_12
	movl	(%rbx), %ebx
	movw	%bx, -80(%rbp)
	movq	%r15, %rdi
	callq	__ZN4core3fmt9Formatter15debug_lower_hex17hd07f6fde8d0365dfE
	testb	%al, %al
	je	LBB33_2
	leaq	-80(%rbp), %rdi
	movq	%r15, %rsi
	callq	__ZN4core3fmt3num53_$LT$impl$u20$core..fmt..LowerHex$u20$for$u20$u16$GT$3fmt17h7067c16dc119bdc6E
	testb	%al, %al
	je	LBB33_6
	jmp	LBB33_12
LBB33_2:
	movq	%r15, %rdi
	callq	__ZN4core3fmt9Formatter15debug_upper_hex17hf480c256a9c81c1eE
	leaq	-80(%rbp), %rdi
	movq	%r15, %rsi
	testb	%al, %al
	je	LBB33_4
	callq	__ZN4core3fmt3num53_$LT$impl$u20$core..fmt..UpperHex$u20$for$u20$u16$GT$3fmt17hb4f6c786d08c2f96E
	testb	%al, %al
	je	LBB33_6
	jmp	LBB33_12
LBB33_4:
	callq	__ZN4core3fmt3num3imp52_$LT$impl$u20$core..fmt..Display$u20$for$u20$u16$GT$3fmt17h5ce1a50c193bc52eE
	testb	%al, %al
	jne	LBB33_12
LBB33_6:
	leaq	l___unnamed_3(%rip), %rax
	movq	%rax, -80(%rbp)
	movq	$1, -72(%rbp)
	movq	$0, -64(%rbp)
	leaq	l___unnamed_4(%rip), %r12
	movq	%r12, -48(%rbp)
	movq	$0, -40(%rbp)
	leaq	-80(%rbp), %rsi
	movq	%r15, %rdi
	callq	__ZN4core3fmt9Formatter9write_fmt17h742ca6aae87ad23cE
	testb	%al, %al
	jne	LBB33_12
	movd	%ebx, %xmm0
	pextrw	$1, %xmm0, %eax
	movw	%ax, -80(%rbp)
	movq	%r15, %rdi
	callq	__ZN4core3fmt9Formatter15debug_lower_hex17hd07f6fde8d0365dfE
	testb	%al, %al
	je	LBB33_8
	leaq	-80(%rbp), %rdi
	movq	%r15, %rsi
	callq	__ZN4core3fmt3num53_$LT$impl$u20$core..fmt..LowerHex$u20$for$u20$u16$GT$3fmt17h7067c16dc119bdc6E
	jmp	LBB33_10
LBB33_8:
	movq	%r15, %rdi
	callq	__ZN4core3fmt9Formatter15debug_upper_hex17hf480c256a9c81c1eE
	leaq	-80(%rbp), %rdi
	movq	%r15, %rsi
	testb	%al, %al
	je	LBB33_9
	callq	__ZN4core3fmt3num53_$LT$impl$u20$core..fmt..UpperHex$u20$for$u20$u16$GT$3fmt17hb4f6c786d08c2f96E
	jmp	LBB33_10
LBB33_9:
	callq	__ZN4core3fmt3num3imp52_$LT$impl$u20$core..fmt..Display$u20$for$u20$u16$GT$3fmt17h5ce1a50c193bc52eE
LBB33_10:
	testb	%al, %al
	jne	LBB33_12
	leaq	l___unnamed_5(%rip), %rax
	movq	%rax, -80(%rbp)
	movq	$1, -72(%rbp)
	movq	$0, -64(%rbp)
	movq	%r12, -48(%rbp)
	movq	$0, -40(%rbp)
	leaq	-80(%rbp), %rsi
	movq	%r15, %rdi
	callq	__ZN4core3fmt9Formatter9write_fmt17h742ca6aae87ad23cE
	movl	%eax, %r14d
LBB33_12:
	movl	%r14d, %eax
	addq	$64, %rsp
	popq	%rbx
	popq	%r12
	popq	%r14
	popq	%r15
	popq	%rbp
	retq
	.cfi_endproc

	.globl	__ZN11packed_simd3v3299_$LT$impl$u20$core..fmt..LowerHex$u20$for$u20$packed_simd..Simd$LT$$u5b$u16$u3b$$u20$2$u5d$$GT$$GT$3fmt17h05d2a06a100f6cdcE
	.p2align	4, 0x90
__ZN11packed_simd3v3299_$LT$impl$u20$core..fmt..LowerHex$u20$for$u20$packed_simd..Simd$LT$$u5b$u16$u3b$$u20$2$u5d$$GT$$GT$3fmt17h05d2a06a100f6cdcE:
	.cfi_startproc
	pushq	%rbp
	.cfi_def_cfa_offset 16
	.cfi_offset %rbp, -16
	movq	%rsp, %rbp
	.cfi_def_cfa_register %rbp
	pushq	%r15
	pushq	%r14
	pushq	%r13
	pushq	%r12
	pushq	%rbx
	subq	$104, %rsp
	.cfi_offset %rbx, -56
	.cfi_offset %r12, -48
	.cfi_offset %r13, -40
	.cfi_offset %r14, -32
	.cfi_offset %r15, -24
	movq	%rsi, %rbx
	movq	%rdi, %r15
	leaq	l___unnamed_12(%rip), %rax
	movq	%rax, -104(%rbp)
	leaq	__ZN44_$LT$$RF$T$u20$as$u20$core..fmt..Display$GT$3fmt17h50ac1916d68fee72E(%rip), %rax
	movq	%rax, -96(%rbp)
	leaq	l___unnamed_2(%rip), %rax
	movq	%rax, -88(%rbp)
	movq	$2, -80(%rbp)
	movq	$0, -72(%rbp)
	leaq	-104(%rbp), %rax
	movq	%rax, -56(%rbp)
	movq	$1, -48(%rbp)
	leaq	-88(%rbp), %rsi
	movq	%rbx, %rdi
	callq	__ZN4core3fmt9Formatter9write_fmt17h742ca6aae87ad23cE
	movb	$1, %cl
	testb	%al, %al
	jne	LBB34_9
	movss	(%r15), %xmm0
	movaps	%xmm0, -128(%rbp)
	xorl	%r14d, %r14d
	leaq	-88(%rbp), %r15
	leaq	l___unnamed_3(%rip), %r13
	jmp	LBB34_3
	.p2align	4, 0x90
LBB34_2:
	movaps	-128(%rbp), %xmm0
	movaps	%xmm0, -144(%rbp)
	leaq	1(%r14), %r12
	andl	$7, %r14d
	movzwl	-144(%rbp,%r14,2), %eax
	movw	%ax, -88(%rbp)
	movq	%r15, %rdi
	movq	%rbx, %rsi
	callq	__ZN4core3fmt3num53_$LT$impl$u20$core..fmt..LowerHex$u20$for$u20$u16$GT$3fmt17h7067c16dc119bdc6E
	movq	%r12, %r14
	testb	%al, %al
	jne	LBB34_8
LBB34_3:
	cmpq	$2, %r14
	je	LBB34_7
	testq	%r14, %r14
	je	LBB34_2
	movq	%r13, -88(%rbp)
	movq	$1, -80(%rbp)
	movq	$0, -72(%rbp)
	leaq	l___unnamed_4(%rip), %rax
	movq	%rax, -56(%rbp)
	movq	$0, -48(%rbp)
	movq	%rbx, %rdi
	movq	%r15, %rsi
	callq	__ZN4core3fmt9Formatter9write_fmt17h742ca6aae87ad23cE
	testb	%al, %al
	je	LBB34_2
LBB34_8:
	movb	$1, %cl
	jmp	LBB34_9
LBB34_7:
	leaq	l___unnamed_5(%rip), %rax
	movq	%rax, -88(%rbp)
	movq	$1, -80(%rbp)
	movq	$0, -72(%rbp)
	leaq	l___unnamed_4(%rip), %rax
	movq	%rax, -56(%rbp)
	movq	$0, -48(%rbp)
	leaq	-88(%rbp), %rsi
	movq	%rbx, %rdi
	callq	__ZN4core3fmt9Formatter9write_fmt17h742ca6aae87ad23cE
	movl	%eax, %ecx
LBB34_9:
	movl	%ecx, %eax
	addq	$104, %rsp
	popq	%rbx
	popq	%r12
	popq	%r13
	popq	%r14
	popq	%r15
	popq	%rbp
	retq
	.cfi_endproc

	.globl	__ZN11packed_simd3v3299_$LT$impl$u20$core..fmt..UpperHex$u20$for$u20$packed_simd..Simd$LT$$u5b$u16$u3b$$u20$2$u5d$$GT$$GT$3fmt17h772fd5a0600626d7E
	.p2align	4, 0x90
__ZN11packed_simd3v3299_$LT$impl$u20$core..fmt..UpperHex$u20$for$u20$packed_simd..Simd$LT$$u5b$u16$u3b$$u20$2$u5d$$GT$$GT$3fmt17h772fd5a0600626d7E:
	.cfi_startproc
	pushq	%rbp
	.cfi_def_cfa_offset 16
	.cfi_offset %rbp, -16
	movq	%rsp, %rbp
	.cfi_def_cfa_register %rbp
	pushq	%r15
	pushq	%r14
	pushq	%r13
	pushq	%r12
	pushq	%rbx
	subq	$104, %rsp
	.cfi_offset %rbx, -56
	.cfi_offset %r12, -48
	.cfi_offset %r13, -40
	.cfi_offset %r14, -32
	.cfi_offset %r15, -24
	movq	%rsi, %rbx
	movq	%rdi, %r15
	leaq	l___unnamed_12(%rip), %rax
	movq	%rax, -104(%rbp)
	leaq	__ZN44_$LT$$RF$T$u20$as$u20$core..fmt..Display$GT$3fmt17h50ac1916d68fee72E(%rip), %rax
	movq	%rax, -96(%rbp)
	leaq	l___unnamed_2(%rip), %rax
	movq	%rax, -88(%rbp)
	movq	$2, -80(%rbp)
	movq	$0, -72(%rbp)
	leaq	-104(%rbp), %rax
	movq	%rax, -56(%rbp)
	movq	$1, -48(%rbp)
	leaq	-88(%rbp), %rsi
	movq	%rbx, %rdi
	callq	__ZN4core3fmt9Formatter9write_fmt17h742ca6aae87ad23cE
	movb	$1, %cl
	testb	%al, %al
	jne	LBB35_9
	movss	(%r15), %xmm0
	movaps	%xmm0, -128(%rbp)
	xorl	%r14d, %r14d
	leaq	-88(%rbp), %r15
	leaq	l___unnamed_3(%rip), %r13
	jmp	LBB35_3
	.p2align	4, 0x90
LBB35_2:
	movaps	-128(%rbp), %xmm0
	movaps	%xmm0, -144(%rbp)
	leaq	1(%r14), %r12
	andl	$7, %r14d
	movzwl	-144(%rbp,%r14,2), %eax
	movw	%ax, -88(%rbp)
	movq	%r15, %rdi
	movq	%rbx, %rsi
	callq	__ZN4core3fmt3num53_$LT$impl$u20$core..fmt..UpperHex$u20$for$u20$u16$GT$3fmt17hb4f6c786d08c2f96E
	movq	%r12, %r14
	testb	%al, %al
	jne	LBB35_8
LBB35_3:
	cmpq	$2, %r14
	je	LBB35_7
	testq	%r14, %r14
	je	LBB35_2
	movq	%r13, -88(%rbp)
	movq	$1, -80(%rbp)
	movq	$0, -72(%rbp)
	leaq	l___unnamed_4(%rip), %rax
	movq	%rax, -56(%rbp)
	movq	$0, -48(%rbp)
	movq	%rbx, %rdi
	movq	%r15, %rsi
	callq	__ZN4core3fmt9Formatter9write_fmt17h742ca6aae87ad23cE
	testb	%al, %al
	je	LBB35_2
LBB35_8:
	movb	$1, %cl
	jmp	LBB35_9
LBB35_7:
	leaq	l___unnamed_5(%rip), %rax
	movq	%rax, -88(%rbp)
	movq	$1, -80(%rbp)
	movq	$0, -72(%rbp)
	leaq	l___unnamed_4(%rip), %rax
	movq	%rax, -56(%rbp)
	movq	$0, -48(%rbp)
	leaq	-88(%rbp), %rsi
	movq	%rbx, %rdi
	callq	__ZN4core3fmt9Formatter9write_fmt17h742ca6aae87ad23cE
	movl	%eax, %ecx
LBB35_9:
	movl	%ecx, %eax
	addq	$104, %rsp
	popq	%rbx
	popq	%r12
	popq	%r13
	popq	%r14
	popq	%r15
	popq	%rbp
	retq
	.cfi_endproc

	.globl	__ZN11packed_simd3v3296_$LT$impl$u20$core..fmt..Octal$u20$for$u20$packed_simd..Simd$LT$$u5b$u16$u3b$$u20$2$u5d$$GT$$GT$3fmt17h1a62a71c0901215aE
	.p2align	4, 0x90
__ZN11packed_simd3v3296_$LT$impl$u20$core..fmt..Octal$u20$for$u20$packed_simd..Simd$LT$$u5b$u16$u3b$$u20$2$u5d$$GT$$GT$3fmt17h1a62a71c0901215aE:
	.cfi_startproc
	pushq	%rbp
	.cfi_def_cfa_offset 16
	.cfi_offset %rbp, -16
	movq	%rsp, %rbp
	.cfi_def_cfa_register %rbp
	pushq	%r15
	pushq	%r14
	pushq	%r13
	pushq	%r12
	pushq	%rbx
	subq	$104, %rsp
	.cfi_offset %rbx, -56
	.cfi_offset %r12, -48
	.cfi_offset %r13, -40
	.cfi_offset %r14, -32
	.cfi_offset %r15, -24
	movq	%rsi, %rbx
	movq	%rdi, %r15
	leaq	l___unnamed_12(%rip), %rax
	movq	%rax, -104(%rbp)
	leaq	__ZN44_$LT$$RF$T$u20$as$u20$core..fmt..Display$GT$3fmt17h50ac1916d68fee72E(%rip), %rax
	movq	%rax, -96(%rbp)
	leaq	l___unnamed_2(%rip), %rax
	movq	%rax, -88(%rbp)
	movq	$2, -80(%rbp)
	movq	$0, -72(%rbp)
	leaq	-104(%rbp), %rax
	movq	%rax, -56(%rbp)
	movq	$1, -48(%rbp)
	leaq	-88(%rbp), %rsi
	movq	%rbx, %rdi
	callq	__ZN4core3fmt9Formatter9write_fmt17h742ca6aae87ad23cE
	movb	$1, %cl
	testb	%al, %al
	jne	LBB36_9
	movss	(%r15), %xmm0
	movaps	%xmm0, -128(%rbp)
	xorl	%r14d, %r14d
	leaq	-88(%rbp), %r15
	leaq	l___unnamed_3(%rip), %r13
	jmp	LBB36_3
	.p2align	4, 0x90
LBB36_2:
	movaps	-128(%rbp), %xmm0
	movaps	%xmm0, -144(%rbp)
	leaq	1(%r14), %r12
	andl	$7, %r14d
	movzwl	-144(%rbp,%r14,2), %eax
	movw	%ax, -88(%rbp)
	movq	%r15, %rdi
	movq	%rbx, %rsi
	callq	__ZN4core3fmt3num50_$LT$impl$u20$core..fmt..Octal$u20$for$u20$u16$GT$3fmt17hff248c9a64dcd3c7E
	movq	%r12, %r14
	testb	%al, %al
	jne	LBB36_8
LBB36_3:
	cmpq	$2, %r14
	je	LBB36_7
	testq	%r14, %r14
	je	LBB36_2
	movq	%r13, -88(%rbp)
	movq	$1, -80(%rbp)
	movq	$0, -72(%rbp)
	leaq	l___unnamed_4(%rip), %rax
	movq	%rax, -56(%rbp)
	movq	$0, -48(%rbp)
	movq	%rbx, %rdi
	movq	%r15, %rsi
	callq	__ZN4core3fmt9Formatter9write_fmt17h742ca6aae87ad23cE
	testb	%al, %al
	je	LBB36_2
LBB36_8:
	movb	$1, %cl
	jmp	LBB36_9
LBB36_7:
	leaq	l___unnamed_5(%rip), %rax
	movq	%rax, -88(%rbp)
	movq	$1, -80(%rbp)
	movq	$0, -72(%rbp)
	leaq	l___unnamed_4(%rip), %rax
	movq	%rax, -56(%rbp)
	movq	$0, -48(%rbp)
	leaq	-88(%rbp), %rsi
	movq	%rbx, %rdi
	callq	__ZN4core3fmt9Formatter9write_fmt17h742ca6aae87ad23cE
	movl	%eax, %ecx
LBB36_9:
	movl	%ecx, %eax
	addq	$104, %rsp
	popq	%rbx
	popq	%r12
	popq	%r13
	popq	%r14
	popq	%r15
	popq	%rbp
	retq
	.cfi_endproc

	.globl	__ZN11packed_simd3v3297_$LT$impl$u20$core..fmt..Binary$u20$for$u20$packed_simd..Simd$LT$$u5b$u16$u3b$$u20$2$u5d$$GT$$GT$3fmt17hdcab72a5e5771f2bE
	.p2align	4, 0x90
__ZN11packed_simd3v3297_$LT$impl$u20$core..fmt..Binary$u20$for$u20$packed_simd..Simd$LT$$u5b$u16$u3b$$u20$2$u5d$$GT$$GT$3fmt17hdcab72a5e5771f2bE:
	.cfi_startproc
	pushq	%rbp
	.cfi_def_cfa_offset 16
	.cfi_offset %rbp, -16
	movq	%rsp, %rbp
	.cfi_def_cfa_register %rbp
	pushq	%r15
	pushq	%r14
	pushq	%r13
	pushq	%r12
	pushq	%rbx
	subq	$104, %rsp
	.cfi_offset %rbx, -56
	.cfi_offset %r12, -48
	.cfi_offset %r13, -40
	.cfi_offset %r14, -32
	.cfi_offset %r15, -24
	movq	%rsi, %rbx
	movq	%rdi, %r15
	leaq	l___unnamed_12(%rip), %rax
	movq	%rax, -104(%rbp)
	leaq	__ZN44_$LT$$RF$T$u20$as$u20$core..fmt..Display$GT$3fmt17h50ac1916d68fee72E(%rip), %rax
	movq	%rax, -96(%rbp)
	leaq	l___unnamed_2(%rip), %rax
	movq	%rax, -88(%rbp)
	movq	$2, -80(%rbp)
	movq	$0, -72(%rbp)
	leaq	-104(%rbp), %rax
	movq	%rax, -56(%rbp)
	movq	$1, -48(%rbp)
	leaq	-88(%rbp), %rsi
	movq	%rbx, %rdi
	callq	__ZN4core3fmt9Formatter9write_fmt17h742ca6aae87ad23cE
	movb	$1, %cl
	testb	%al, %al
	jne	LBB37_9
	movss	(%r15), %xmm0
	movaps	%xmm0, -128(%rbp)
	xorl	%r14d, %r14d
	leaq	-88(%rbp), %r15
	leaq	l___unnamed_3(%rip), %r13
	jmp	LBB37_3
	.p2align	4, 0x90
LBB37_2:
	movaps	-128(%rbp), %xmm0
	movaps	%xmm0, -144(%rbp)
	leaq	1(%r14), %r12
	andl	$7, %r14d
	movzwl	-144(%rbp,%r14,2), %eax
	movw	%ax, -88(%rbp)
	movq	%r15, %rdi
	movq	%rbx, %rsi
	callq	__ZN4core3fmt3num51_$LT$impl$u20$core..fmt..Binary$u20$for$u20$u16$GT$3fmt17h8f2cc3cce809fb58E
	movq	%r12, %r14
	testb	%al, %al
	jne	LBB37_8
LBB37_3:
	cmpq	$2, %r14
	je	LBB37_7
	testq	%r14, %r14
	je	LBB37_2
	movq	%r13, -88(%rbp)
	movq	$1, -80(%rbp)
	movq	$0, -72(%rbp)
	leaq	l___unnamed_4(%rip), %rax
	movq	%rax, -56(%rbp)
	movq	$0, -48(%rbp)
	movq	%rbx, %rdi
	movq	%r15, %rsi
	callq	__ZN4core3fmt9Formatter9write_fmt17h742ca6aae87ad23cE
	testb	%al, %al
	je	LBB37_2
LBB37_8:
	movb	$1, %cl
	jmp	LBB37_9
LBB37_7:
	leaq	l___unnamed_5(%rip), %rax
	movq	%rax, -88(%rbp)
	movq	$1, -80(%rbp)
	movq	$0, -72(%rbp)
	leaq	l___unnamed_4(%rip), %rax
	movq	%rax, -56(%rbp)
	movq	$0, -48(%rbp)
	leaq	-88(%rbp), %rsi
	movq	%rbx, %rdi
	callq	__ZN4core3fmt9Formatter9write_fmt17h742ca6aae87ad23cE
	movl	%eax, %ecx
LBB37_9:
	movl	%ecx, %eax
	addq	$104, %rsp
	popq	%rbx
	popq	%r12
	popq	%r13
	popq	%r14
	popq	%r15
	popq	%rbp
	retq
	.cfi_endproc

	.globl	__ZN11packed_simd3v32116_$LT$impl$u20$core..fmt..Debug$u20$for$u20$packed_simd..Simd$LT$$u5b$packed_simd..masks..m16$u3b$$u20$2$u5d$$GT$$GT$3fmt17h7cb1de68467ab793E
	.p2align	4, 0x90
__ZN11packed_simd3v32116_$LT$impl$u20$core..fmt..Debug$u20$for$u20$packed_simd..Simd$LT$$u5b$packed_simd..masks..m16$u3b$$u20$2$u5d$$GT$$GT$3fmt17h7cb1de68467ab793E:
	.cfi_startproc
	pushq	%rbp
	.cfi_def_cfa_offset 16
	.cfi_offset %rbp, -16
	movq	%rsp, %rbp
	.cfi_def_cfa_register %rbp
	pushq	%r15
	pushq	%r14
	pushq	%r13
	pushq	%r12
	pushq	%rbx
	subq	$104, %rsp
	.cfi_offset %rbx, -56
	.cfi_offset %r12, -48
	.cfi_offset %r13, -40
	.cfi_offset %r14, -32
	.cfi_offset %r15, -24
	movq	%rsi, %rbx
	movq	%rdi, %r15
	leaq	l___unnamed_13(%rip), %rax
	movq	%rax, -104(%rbp)
	leaq	__ZN44_$LT$$RF$T$u20$as$u20$core..fmt..Display$GT$3fmt17h50ac1916d68fee72E(%rip), %rax
	movq	%rax, -96(%rbp)
	leaq	l___unnamed_2(%rip), %rax
	movq	%rax, -88(%rbp)
	movq	$2, -80(%rbp)
	movq	$0, -72(%rbp)
	leaq	-104(%rbp), %rax
	movq	%rax, -56(%rbp)
	movq	$1, -48(%rbp)
	leaq	-88(%rbp), %rsi
	movq	%rbx, %rdi
	callq	__ZN4core3fmt9Formatter9write_fmt17h742ca6aae87ad23cE
	movb	$1, %cl
	testb	%al, %al
	jne	LBB38_9
	movss	(%r15), %xmm0
	movaps	%xmm0, -128(%rbp)
	xorl	%r14d, %r14d
	leaq	-88(%rbp), %r15
	leaq	l___unnamed_3(%rip), %r13
	jmp	LBB38_3
	.p2align	4, 0x90
LBB38_2:
	movaps	-128(%rbp), %xmm0
	movaps	%xmm0, -144(%rbp)
	leaq	1(%r14), %r12
	andl	$7, %r14d
	cmpw	$0, -144(%rbp,%r14,2)
	setne	-88(%rbp)
	movq	%r15, %rdi
	movq	%rbx, %rsi
	callq	__ZN43_$LT$bool$u20$as$u20$core..fmt..Display$GT$3fmt17hd78396651a24cfbbE
	movq	%r12, %r14
	testb	%al, %al
	jne	LBB38_8
LBB38_3:
	cmpq	$2, %r14
	je	LBB38_7
	testq	%r14, %r14
	je	LBB38_2
	movq	%r13, -88(%rbp)
	movq	$1, -80(%rbp)
	movq	$0, -72(%rbp)
	leaq	l___unnamed_4(%rip), %rax
	movq	%rax, -56(%rbp)
	movq	$0, -48(%rbp)
	movq	%rbx, %rdi
	movq	%r15, %rsi
	callq	__ZN4core3fmt9Formatter9write_fmt17h742ca6aae87ad23cE
	testb	%al, %al
	je	LBB38_2
LBB38_8:
	movb	$1, %cl
	jmp	LBB38_9
LBB38_7:
	leaq	l___unnamed_5(%rip), %rax
	movq	%rax, -88(%rbp)
	movq	$1, -80(%rbp)
	movq	$0, -72(%rbp)
	leaq	l___unnamed_4(%rip), %rax
	movq	%rax, -56(%rbp)
	movq	$0, -48(%rbp)
	leaq	-88(%rbp), %rsi
	movq	%rbx, %rdi
	callq	__ZN4core3fmt9Formatter9write_fmt17h742ca6aae87ad23cE
	movl	%eax, %ecx
LBB38_9:
	movl	%ecx, %eax
	addq	$104, %rsp
	popq	%rbx
	popq	%r12
	popq	%r13
	popq	%r14
	popq	%r15
	popq	%rbp
	retq
	.cfi_endproc

	.globl	__ZN11packed_simd3v6495_$LT$impl$u20$core..fmt..Debug$u20$for$u20$packed_simd..Simd$LT$$u5b$i8$u3b$$u20$8$u5d$$GT$$GT$3fmt17h91badb5d400237f6E
	.p2align	4, 0x90
__ZN11packed_simd3v6495_$LT$impl$u20$core..fmt..Debug$u20$for$u20$packed_simd..Simd$LT$$u5b$i8$u3b$$u20$8$u5d$$GT$$GT$3fmt17h91badb5d400237f6E:
	.cfi_startproc
	pushq	%rbp
	.cfi_def_cfa_offset 16
	.cfi_offset %rbp, -16
	movq	%rsp, %rbp
	.cfi_def_cfa_register %rbp
	pushq	%r15
	pushq	%r14
	pushq	%r13
	pushq	%r12
	pushq	%rbx
	subq	$104, %rsp
	.cfi_offset %rbx, -56
	.cfi_offset %r12, -48
	.cfi_offset %r13, -40
	.cfi_offset %r14, -32
	.cfi_offset %r15, -24
	movq	%rsi, %r15
	movq	%rdi, %rbx
	leaq	l___unnamed_14(%rip), %rax
	movq	%rax, -128(%rbp)
	leaq	__ZN44_$LT$$RF$T$u20$as$u20$core..fmt..Display$GT$3fmt17h50ac1916d68fee72E(%rip), %rax
	movq	%rax, -120(%rbp)
	leaq	l___unnamed_2(%rip), %rax
	movq	%rax, -88(%rbp)
	movq	$2, -80(%rbp)
	movq	$0, -72(%rbp)
	leaq	-128(%rbp), %rax
	movq	%rax, -56(%rbp)
	movq	$1, -48(%rbp)
	leaq	-88(%rbp), %rsi
	movq	%r15, %rdi
	callq	__ZN4core3fmt9Formatter9write_fmt17h742ca6aae87ad23cE
	movb	$1, %r14b
	testb	%al, %al
	jne	LBB39_42
	movq	(%rbx), %xmm0
	movdqa	%xmm0, -112(%rbp)
	movdqa	%xmm0, -144(%rbp)
	movb	-144(%rbp), %al
	movb	%al, -88(%rbp)
	movq	%r15, %rdi
	callq	__ZN4core3fmt9Formatter15debug_lower_hex17hd07f6fde8d0365dfE
	testb	%al, %al
	je	LBB39_2
	leaq	-88(%rbp), %rdi
	movq	%r15, %rsi
	callq	__ZN4core3fmt3num52_$LT$impl$u20$core..fmt..LowerHex$u20$for$u20$i8$GT$3fmt17h5ba2f2472d1b08b3E
	testb	%al, %al
	je	LBB39_6
	jmp	LBB39_42
LBB39_2:
	movq	%r15, %rdi
	callq	__ZN4core3fmt9Formatter15debug_upper_hex17hf480c256a9c81c1eE
	leaq	-88(%rbp), %rdi
	movq	%r15, %rsi
	testb	%al, %al
	je	LBB39_4
	callq	__ZN4core3fmt3num52_$LT$impl$u20$core..fmt..UpperHex$u20$for$u20$i8$GT$3fmt17h36a1c2413d99c98eE
	testb	%al, %al
	je	LBB39_6
	jmp	LBB39_42
LBB39_4:
	callq	__ZN4core3fmt3num3imp51_$LT$impl$u20$core..fmt..Display$u20$for$u20$i8$GT$3fmt17hc9fc67837369c997E
	testb	%al, %al
	jne	LBB39_42
LBB39_6:
	leaq	l___unnamed_3(%rip), %r13
	movq	%r13, -88(%rbp)
	movq	$1, -80(%rbp)
	movq	$0, -72(%rbp)
	leaq	l___unnamed_4(%rip), %r12
	movq	%r12, -56(%rbp)
	movq	$0, -48(%rbp)
	leaq	-88(%rbp), %rsi
	movq	%r15, %rdi
	callq	__ZN4core3fmt9Formatter9write_fmt17h742ca6aae87ad23cE
	testb	%al, %al
	jne	LBB39_42
	movdqa	-112(%rbp), %xmm0
	movd	%xmm0, %ebx
	movb	%bh, -88(%rbp)
	movq	%r15, %rdi
	callq	__ZN4core3fmt9Formatter15debug_lower_hex17hd07f6fde8d0365dfE
	testb	%al, %al
	je	LBB39_8
	leaq	-88(%rbp), %rdi
	movq	%r15, %rsi
	callq	__ZN4core3fmt3num52_$LT$impl$u20$core..fmt..LowerHex$u20$for$u20$i8$GT$3fmt17h5ba2f2472d1b08b3E
	jmp	LBB39_10
LBB39_8:
	movq	%r15, %rdi
	callq	__ZN4core3fmt9Formatter15debug_upper_hex17hf480c256a9c81c1eE
	leaq	-88(%rbp), %rdi
	movq	%r15, %rsi
	testb	%al, %al
	je	LBB39_9
	callq	__ZN4core3fmt3num52_$LT$impl$u20$core..fmt..UpperHex$u20$for$u20$i8$GT$3fmt17h36a1c2413d99c98eE
	jmp	LBB39_10
LBB39_9:
	callq	__ZN4core3fmt3num3imp51_$LT$impl$u20$core..fmt..Display$u20$for$u20$i8$GT$3fmt17hc9fc67837369c997E
LBB39_10:
	testb	%al, %al
	jne	LBB39_42
	movq	%r13, -88(%rbp)
	movq	$1, -80(%rbp)
	movq	$0, -72(%rbp)
	movq	%r12, -56(%rbp)
	movq	$0, -48(%rbp)
	leaq	-88(%rbp), %rsi
	movq	%r15, %rdi
	callq	__ZN4core3fmt9Formatter9write_fmt17h742ca6aae87ad23cE
	testb	%al, %al
	jne	LBB39_42
	movl	%ebx, %eax
	shrl	$16, %eax
	movb	%al, -88(%rbp)
	movq	%r15, %rdi
	callq	__ZN4core3fmt9Formatter15debug_lower_hex17hd07f6fde8d0365dfE
	testb	%al, %al
	je	LBB39_13
	leaq	-88(%rbp), %rdi
	movq	%r15, %rsi
	callq	__ZN4core3fmt3num52_$LT$impl$u20$core..fmt..LowerHex$u20$for$u20$i8$GT$3fmt17h5ba2f2472d1b08b3E
	jmp	LBB39_15
LBB39_13:
	movq	%r15, %rdi
	callq	__ZN4core3fmt9Formatter15debug_upper_hex17hf480c256a9c81c1eE
	leaq	-88(%rbp), %rdi
	movq	%r15, %rsi
	testb	%al, %al
	je	LBB39_14
	callq	__ZN4core3fmt3num52_$LT$impl$u20$core..fmt..UpperHex$u20$for$u20$i8$GT$3fmt17h36a1c2413d99c98eE
	jmp	LBB39_15
LBB39_14:
	callq	__ZN4core3fmt3num3imp51_$LT$impl$u20$core..fmt..Display$u20$for$u20$i8$GT$3fmt17hc9fc67837369c997E
LBB39_15:
	testb	%al, %al
	jne	LBB39_42
	movq	%r13, -88(%rbp)
	movq	$1, -80(%rbp)
	movq	$0, -72(%rbp)
	movq	%r12, -56(%rbp)
	movq	$0, -48(%rbp)
	leaq	-88(%rbp), %rsi
	movq	%r15, %rdi
	callq	__ZN4core3fmt9Formatter9write_fmt17h742ca6aae87ad23cE
	testb	%al, %al
	jne	LBB39_42
	shrl	$24, %ebx
	movb	%bl, -88(%rbp)
	movq	%r15, %rdi
	callq	__ZN4core3fmt9Formatter15debug_lower_hex17hd07f6fde8d0365dfE
	testb	%al, %al
	je	LBB39_18
	leaq	-88(%rbp), %rdi
	movq	%r15, %rsi
	callq	__ZN4core3fmt3num52_$LT$impl$u20$core..fmt..LowerHex$u20$for$u20$i8$GT$3fmt17h5ba2f2472d1b08b3E
	jmp	LBB39_20
LBB39_18:
	movq	%r15, %rdi
	callq	__ZN4core3fmt9Formatter15debug_upper_hex17hf480c256a9c81c1eE
	leaq	-88(%rbp), %rdi
	movq	%r15, %rsi
	testb	%al, %al
	je	LBB39_19
	callq	__ZN4core3fmt3num52_$LT$impl$u20$core..fmt..UpperHex$u20$for$u20$i8$GT$3fmt17h36a1c2413d99c98eE
	jmp	LBB39_20
LBB39_19:
	callq	__ZN4core3fmt3num3imp51_$LT$impl$u20$core..fmt..Display$u20$for$u20$i8$GT$3fmt17hc9fc67837369c997E
LBB39_20:
	testb	%al, %al
	jne	LBB39_42
	movq	%r13, -88(%rbp)
	movq	$1, -80(%rbp)
	movq	$0, -72(%rbp)
	movq	%r12, -56(%rbp)
	movq	$0, -48(%rbp)
	leaq	-88(%rbp), %rsi
	movq	%r15, %rdi
	callq	__ZN4core3fmt9Formatter9write_fmt17h742ca6aae87ad23cE
	testb	%al, %al
	jne	LBB39_42
	movdqa	-112(%rbp), %xmm0
	pextrw	$2, %xmm0, %ebx
	movb	%bl, -88(%rbp)
	movq	%r15, %rdi
	callq	__ZN4core3fmt9Formatter15debug_lower_hex17hd07f6fde8d0365dfE
	testb	%al, %al
	je	LBB39_23
	leaq	-88(%rbp), %rdi
	movq	%r15, %rsi
	callq	__ZN4core3fmt3num52_$LT$impl$u20$core..fmt..LowerHex$u20$for$u20$i8$GT$3fmt17h5ba2f2472d1b08b3E
	jmp	LBB39_25
LBB39_23:
	movq	%r15, %rdi
	callq	__ZN4core3fmt9Formatter15debug_upper_hex17hf480c256a9c81c1eE
	leaq	-88(%rbp), %rdi
	movq	%r15, %rsi
	testb	%al, %al
	je	LBB39_24
	callq	__ZN4core3fmt3num52_$LT$impl$u20$core..fmt..UpperHex$u20$for$u20$i8$GT$3fmt17h36a1c2413d99c98eE
	jmp	LBB39_25
LBB39_24:
	callq	__ZN4core3fmt3num3imp51_$LT$impl$u20$core..fmt..Display$u20$for$u20$i8$GT$3fmt17hc9fc67837369c997E
LBB39_25:
	testb	%al, %al
	jne	LBB39_42
	movq	%r13, -88(%rbp)
	movq	$1, -80(%rbp)
	movq	$0, -72(%rbp)
	movq	%r12, -56(%rbp)
	movq	$0, -48(%rbp)
	leaq	-88(%rbp), %rsi
	movq	%r15, %rdi
	callq	__ZN4core3fmt9Formatter9write_fmt17h742ca6aae87ad23cE
	testb	%al, %al
	jne	LBB39_42
	movb	%bh, -88(%rbp)
	movq	%r15, %rdi
	callq	__ZN4core3fmt9Formatter15debug_lower_hex17hd07f6fde8d0365dfE
	testb	%al, %al
	je	LBB39_28
	leaq	-88(%rbp), %rdi
	movq	%r15, %rsi
	callq	__ZN4core3fmt3num52_$LT$impl$u20$core..fmt..LowerHex$u20$for$u20$i8$GT$3fmt17h5ba2f2472d1b08b3E
	jmp	LBB39_30
LBB39_28:
	movq	%r15, %rdi
	callq	__ZN4core3fmt9Formatter15debug_upper_hex17hf480c256a9c81c1eE
	leaq	-88(%rbp), %rdi
	movq	%r15, %rsi
	testb	%al, %al
	je	LBB39_29
	callq	__ZN4core3fmt3num52_$LT$impl$u20$core..fmt..UpperHex$u20$for$u20$i8$GT$3fmt17h36a1c2413d99c98eE
	jmp	LBB39_30
LBB39_29:
	callq	__ZN4core3fmt3num3imp51_$LT$impl$u20$core..fmt..Display$u20$for$u20$i8$GT$3fmt17hc9fc67837369c997E
LBB39_30:
	testb	%al, %al
	jne	LBB39_42
	movq	%r13, -88(%rbp)
	movq	$1, -80(%rbp)
	movq	$0, -72(%rbp)
	movq	%r12, -56(%rbp)
	movq	$0, -48(%rbp)
	leaq	-88(%rbp), %rsi
	movq	%r15, %rdi
	callq	__ZN4core3fmt9Formatter9write_fmt17h742ca6aae87ad23cE
	testb	%al, %al
	jne	LBB39_42
	movdqa	-112(%rbp), %xmm0
	pextrw	$3, %xmm0, %ebx
	movb	%bl, -88(%rbp)
	movq	%r15, %rdi
	callq	__ZN4core3fmt9Formatter15debug_lower_hex17hd07f6fde8d0365dfE
	testb	%al, %al
	je	LBB39_33
	leaq	-88(%rbp), %rdi
	movq	%r15, %rsi
	callq	__ZN4core3fmt3num52_$LT$impl$u20$core..fmt..LowerHex$u20$for$u20$i8$GT$3fmt17h5ba2f2472d1b08b3E
	jmp	LBB39_35
LBB39_33:
	movq	%r15, %rdi
	callq	__ZN4core3fmt9Formatter15debug_upper_hex17hf480c256a9c81c1eE
	leaq	-88(%rbp), %rdi
	movq	%r15, %rsi
	testb	%al, %al
	je	LBB39_34
	callq	__ZN4core3fmt3num52_$LT$impl$u20$core..fmt..UpperHex$u20$for$u20$i8$GT$3fmt17h36a1c2413d99c98eE
	jmp	LBB39_35
LBB39_34:
	callq	__ZN4core3fmt3num3imp51_$LT$impl$u20$core..fmt..Display$u20$for$u20$i8$GT$3fmt17hc9fc67837369c997E
LBB39_35:
	testb	%al, %al
	jne	LBB39_42
	movq	%r13, -88(%rbp)
	movq	$1, -80(%rbp)
	movq	$0, -72(%rbp)
	movq	%r12, -56(%rbp)
	movq	$0, -48(%rbp)
	leaq	-88(%rbp), %rsi
	movq	%r15, %rdi
	callq	__ZN4core3fmt9Formatter9write_fmt17h742ca6aae87ad23cE
	testb	%al, %al
	jne	LBB39_42
	movb	%bh, -88(%rbp)
	movq	%r15, %rdi
	callq	__ZN4core3fmt9Formatter15debug_lower_hex17hd07f6fde8d0365dfE
	testb	%al, %al
	je	LBB39_38
	leaq	-88(%rbp), %rdi
	movq	%r15, %rsi
	callq	__ZN4core3fmt3num52_$LT$impl$u20$core..fmt..LowerHex$u20$for$u20$i8$GT$3fmt17h5ba2f2472d1b08b3E
	jmp	LBB39_40
LBB39_38:
	movq	%r15, %rdi
	callq	__ZN4core3fmt9Formatter15debug_upper_hex17hf480c256a9c81c1eE
	leaq	-88(%rbp), %rdi
	movq	%r15, %rsi
	testb	%al, %al
	je	LBB39_39
	callq	__ZN4core3fmt3num52_$LT$impl$u20$core..fmt..UpperHex$u20$for$u20$i8$GT$3fmt17h36a1c2413d99c98eE
	jmp	LBB39_40
LBB39_39:
	callq	__ZN4core3fmt3num3imp51_$LT$impl$u20$core..fmt..Display$u20$for$u20$i8$GT$3fmt17hc9fc67837369c997E
LBB39_40:
	testb	%al, %al
	jne	LBB39_42
	leaq	l___unnamed_5(%rip), %rax
	movq	%rax, -88(%rbp)
	movq	$1, -80(%rbp)
	movq	$0, -72(%rbp)
	movq	%r12, -56(%rbp)
	movq	$0, -48(%rbp)
	leaq	-88(%rbp), %rsi
	movq	%r15, %rdi
	callq	__ZN4core3fmt9Formatter9write_fmt17h742ca6aae87ad23cE
	movl	%eax, %r14d
LBB39_42:
	movl	%r14d, %eax
	addq	$104, %rsp
	popq	%rbx
	popq	%r12
	popq	%r13
	popq	%r14
	popq	%r15
	popq	%rbp
	retq
	.cfi_endproc

	.globl	__ZN11packed_simd3v6498_$LT$impl$u20$core..fmt..LowerHex$u20$for$u20$packed_simd..Simd$LT$$u5b$i8$u3b$$u20$8$u5d$$GT$$GT$3fmt17h583689942bb16f21E
	.p2align	4, 0x90
__ZN11packed_simd3v6498_$LT$impl$u20$core..fmt..LowerHex$u20$for$u20$packed_simd..Simd$LT$$u5b$i8$u3b$$u20$8$u5d$$GT$$GT$3fmt17h583689942bb16f21E:
	.cfi_startproc
	pushq	%rbp
	.cfi_def_cfa_offset 16
	.cfi_offset %rbp, -16
	movq	%rsp, %rbp
	.cfi_def_cfa_register %rbp
	pushq	%r15
	pushq	%r14
	pushq	%r13
	pushq	%r12
	pushq	%rbx
	subq	$104, %rsp
	.cfi_offset %rbx, -56
	.cfi_offset %r12, -48
	.cfi_offset %r13, -40
	.cfi_offset %r14, -32
	.cfi_offset %r15, -24
	movq	%rsi, %rbx
	movq	%rdi, %r15
	leaq	l___unnamed_14(%rip), %rax
	movq	%rax, -104(%rbp)
	leaq	__ZN44_$LT$$RF$T$u20$as$u20$core..fmt..Display$GT$3fmt17h50ac1916d68fee72E(%rip), %rax
	movq	%rax, -96(%rbp)
	leaq	l___unnamed_2(%rip), %rax
	movq	%rax, -88(%rbp)
	movq	$2, -80(%rbp)
	movq	$0, -72(%rbp)
	leaq	-104(%rbp), %rax
	movq	%rax, -56(%rbp)
	movq	$1, -48(%rbp)
	leaq	-88(%rbp), %rsi
	movq	%rbx, %rdi
	callq	__ZN4core3fmt9Formatter9write_fmt17h742ca6aae87ad23cE
	movb	$1, %cl
	testb	%al, %al
	jne	LBB40_9
	movsd	(%r15), %xmm0
	movaps	%xmm0, -128(%rbp)
	xorl	%r14d, %r14d
	leaq	-88(%rbp), %r15
	leaq	l___unnamed_3(%rip), %r13
	jmp	LBB40_3
	.p2align	4, 0x90
LBB40_2:
	movaps	-128(%rbp), %xmm0
	movaps	%xmm0, -144(%rbp)
	leaq	1(%r14), %r12
	andl	$15, %r14d
	movzbl	-144(%rbp,%r14), %eax
	movb	%al, -88(%rbp)
	movq	%r15, %rdi
	movq	%rbx, %rsi
	callq	__ZN4core3fmt3num52_$LT$impl$u20$core..fmt..LowerHex$u20$for$u20$i8$GT$3fmt17h5ba2f2472d1b08b3E
	movq	%r12, %r14
	testb	%al, %al
	jne	LBB40_8
LBB40_3:
	cmpq	$8, %r14
	je	LBB40_7
	testq	%r14, %r14
	je	LBB40_2
	movq	%r13, -88(%rbp)
	movq	$1, -80(%rbp)
	movq	$0, -72(%rbp)
	leaq	l___unnamed_4(%rip), %rax
	movq	%rax, -56(%rbp)
	movq	$0, -48(%rbp)
	movq	%rbx, %rdi
	movq	%r15, %rsi
	callq	__ZN4core3fmt9Formatter9write_fmt17h742ca6aae87ad23cE
	testb	%al, %al
	je	LBB40_2
LBB40_8:
	movb	$1, %cl
	jmp	LBB40_9
LBB40_7:
	leaq	l___unnamed_5(%rip), %rax
	movq	%rax, -88(%rbp)
	movq	$1, -80(%rbp)
	movq	$0, -72(%rbp)
	leaq	l___unnamed_4(%rip), %rax
	movq	%rax, -56(%rbp)
	movq	$0, -48(%rbp)
	leaq	-88(%rbp), %rsi
	movq	%rbx, %rdi
	callq	__ZN4core3fmt9Formatter9write_fmt17h742ca6aae87ad23cE
	movl	%eax, %ecx
LBB40_9:
	movl	%ecx, %eax
	addq	$104, %rsp
	popq	%rbx
	popq	%r12
	popq	%r13
	popq	%r14
	popq	%r15
	popq	%rbp
	retq
	.cfi_endproc

	.globl	__ZN11packed_simd3v6498_$LT$impl$u20$core..fmt..UpperHex$u20$for$u20$packed_simd..Simd$LT$$u5b$i8$u3b$$u20$8$u5d$$GT$$GT$3fmt17hd6c192e0cee17970E
	.p2align	4, 0x90
__ZN11packed_simd3v6498_$LT$impl$u20$core..fmt..UpperHex$u20$for$u20$packed_simd..Simd$LT$$u5b$i8$u3b$$u20$8$u5d$$GT$$GT$3fmt17hd6c192e0cee17970E:
	.cfi_startproc
	pushq	%rbp
	.cfi_def_cfa_offset 16
	.cfi_offset %rbp, -16
	movq	%rsp, %rbp
	.cfi_def_cfa_register %rbp
	pushq	%r15
	pushq	%r14
	pushq	%r13
	pushq	%r12
	pushq	%rbx
	subq	$104, %rsp
	.cfi_offset %rbx, -56
	.cfi_offset %r12, -48
	.cfi_offset %r13, -40
	.cfi_offset %r14, -32
	.cfi_offset %r15, -24
	movq	%rsi, %rbx
	movq	%rdi, %r15
	leaq	l___unnamed_14(%rip), %rax
	movq	%rax, -104(%rbp)
	leaq	__ZN44_$LT$$RF$T$u20$as$u20$core..fmt..Display$GT$3fmt17h50ac1916d68fee72E(%rip), %rax
	movq	%rax, -96(%rbp)
	leaq	l___unnamed_2(%rip), %rax
	movq	%rax, -88(%rbp)
	movq	$2, -80(%rbp)
	movq	$0, -72(%rbp)
	leaq	-104(%rbp), %rax
	movq	%rax, -56(%rbp)
	movq	$1, -48(%rbp)
	leaq	-88(%rbp), %rsi
	movq	%rbx, %rdi
	callq	__ZN4core3fmt9Formatter9write_fmt17h742ca6aae87ad23cE
	movb	$1, %cl
	testb	%al, %al
	jne	LBB41_9
	movsd	(%r15), %xmm0
	movaps	%xmm0, -128(%rbp)
	xorl	%r14d, %r14d
	leaq	-88(%rbp), %r15
	leaq	l___unnamed_3(%rip), %r13
	jmp	LBB41_3
	.p2align	4, 0x90
LBB41_2:
	movaps	-128(%rbp), %xmm0
	movaps	%xmm0, -144(%rbp)
	leaq	1(%r14), %r12
	andl	$15, %r14d
	movzbl	-144(%rbp,%r14), %eax
	movb	%al, -88(%rbp)
	movq	%r15, %rdi
	movq	%rbx, %rsi
	callq	__ZN4core3fmt3num52_$LT$impl$u20$core..fmt..UpperHex$u20$for$u20$i8$GT$3fmt17h36a1c2413d99c98eE
	movq	%r12, %r14
	testb	%al, %al
	jne	LBB41_8
LBB41_3:
	cmpq	$8, %r14
	je	LBB41_7
	testq	%r14, %r14
	je	LBB41_2
	movq	%r13, -88(%rbp)
	movq	$1, -80(%rbp)
	movq	$0, -72(%rbp)
	leaq	l___unnamed_4(%rip), %rax
	movq	%rax, -56(%rbp)
	movq	$0, -48(%rbp)
	movq	%rbx, %rdi
	movq	%r15, %rsi
	callq	__ZN4core3fmt9Formatter9write_fmt17h742ca6aae87ad23cE
	testb	%al, %al
	je	LBB41_2
LBB41_8:
	movb	$1, %cl
	jmp	LBB41_9
LBB41_7:
	leaq	l___unnamed_5(%rip), %rax
	movq	%rax, -88(%rbp)
	movq	$1, -80(%rbp)
	movq	$0, -72(%rbp)
	leaq	l___unnamed_4(%rip), %rax
	movq	%rax, -56(%rbp)
	movq	$0, -48(%rbp)
	leaq	-88(%rbp), %rsi
	movq	%rbx, %rdi
	callq	__ZN4core3fmt9Formatter9write_fmt17h742ca6aae87ad23cE
	movl	%eax, %ecx
LBB41_9:
	movl	%ecx, %eax
	addq	$104, %rsp
	popq	%rbx
	popq	%r12
	popq	%r13
	popq	%r14
	popq	%r15
	popq	%rbp
	retq
	.cfi_endproc

	.globl	__ZN11packed_simd3v6495_$LT$impl$u20$core..fmt..Octal$u20$for$u20$packed_simd..Simd$LT$$u5b$i8$u3b$$u20$8$u5d$$GT$$GT$3fmt17hedee955397ead04bE
	.p2align	4, 0x90
__ZN11packed_simd3v6495_$LT$impl$u20$core..fmt..Octal$u20$for$u20$packed_simd..Simd$LT$$u5b$i8$u3b$$u20$8$u5d$$GT$$GT$3fmt17hedee955397ead04bE:
	.cfi_startproc
	pushq	%rbp
	.cfi_def_cfa_offset 16
	.cfi_offset %rbp, -16
	movq	%rsp, %rbp
	.cfi_def_cfa_register %rbp
	pushq	%r15
	pushq	%r14
	pushq	%r13
	pushq	%r12
	pushq	%rbx
	subq	$104, %rsp
	.cfi_offset %rbx, -56
	.cfi_offset %r12, -48
	.cfi_offset %r13, -40
	.cfi_offset %r14, -32
	.cfi_offset %r15, -24
	movq	%rsi, %rbx
	movq	%rdi, %r15
	leaq	l___unnamed_14(%rip), %rax
	movq	%rax, -104(%rbp)
	leaq	__ZN44_$LT$$RF$T$u20$as$u20$core..fmt..Display$GT$3fmt17h50ac1916d68fee72E(%rip), %rax
	movq	%rax, -96(%rbp)
	leaq	l___unnamed_2(%rip), %rax
	movq	%rax, -88(%rbp)
	movq	$2, -80(%rbp)
	movq	$0, -72(%rbp)
	leaq	-104(%rbp), %rax
	movq	%rax, -56(%rbp)
	movq	$1, -48(%rbp)
	leaq	-88(%rbp), %rsi
	movq	%rbx, %rdi
	callq	__ZN4core3fmt9Formatter9write_fmt17h742ca6aae87ad23cE
	movb	$1, %cl
	testb	%al, %al
	jne	LBB42_9
	movsd	(%r15), %xmm0
	movaps	%xmm0, -128(%rbp)
	xorl	%r14d, %r14d
	leaq	-88(%rbp), %r15
	leaq	l___unnamed_3(%rip), %r13
	jmp	LBB42_3
	.p2align	4, 0x90
LBB42_2:
	movaps	-128(%rbp), %xmm0
	movaps	%xmm0, -144(%rbp)
	leaq	1(%r14), %r12
	andl	$15, %r14d
	movzbl	-144(%rbp,%r14), %eax
	movb	%al, -88(%rbp)
	movq	%r15, %rdi
	movq	%rbx, %rsi
	callq	__ZN4core3fmt3num49_$LT$impl$u20$core..fmt..Octal$u20$for$u20$i8$GT$3fmt17h22bc4fdd4bc3127cE
	movq	%r12, %r14
	testb	%al, %al
	jne	LBB42_8
LBB42_3:
	cmpq	$8, %r14
	je	LBB42_7
	testq	%r14, %r14
	je	LBB42_2
	movq	%r13, -88(%rbp)
	movq	$1, -80(%rbp)
	movq	$0, -72(%rbp)
	leaq	l___unnamed_4(%rip), %rax
	movq	%rax, -56(%rbp)
	movq	$0, -48(%rbp)
	movq	%rbx, %rdi
	movq	%r15, %rsi
	callq	__ZN4core3fmt9Formatter9write_fmt17h742ca6aae87ad23cE
	testb	%al, %al
	je	LBB42_2
LBB42_8:
	movb	$1, %cl
	jmp	LBB42_9
LBB42_7:
	leaq	l___unnamed_5(%rip), %rax
	movq	%rax, -88(%rbp)
	movq	$1, -80(%rbp)
	movq	$0, -72(%rbp)
	leaq	l___unnamed_4(%rip), %rax
	movq	%rax, -56(%rbp)
	movq	$0, -48(%rbp)
	leaq	-88(%rbp), %rsi
	movq	%rbx, %rdi
	callq	__ZN4core3fmt9Formatter9write_fmt17h742ca6aae87ad23cE
	movl	%eax, %ecx
LBB42_9:
	movl	%ecx, %eax
	addq	$104, %rsp
	popq	%rbx
	popq	%r12
	popq	%r13
	popq	%r14
	popq	%r15
	popq	%rbp
	retq
	.cfi_endproc

	.globl	__ZN11packed_simd3v6496_$LT$impl$u20$core..fmt..Binary$u20$for$u20$packed_simd..Simd$LT$$u5b$i8$u3b$$u20$8$u5d$$GT$$GT$3fmt17h5dcaf35eaed9eb42E
	.p2align	4, 0x90
__ZN11packed_simd3v6496_$LT$impl$u20$core..fmt..Binary$u20$for$u20$packed_simd..Simd$LT$$u5b$i8$u3b$$u20$8$u5d$$GT$$GT$3fmt17h5dcaf35eaed9eb42E:
	.cfi_startproc
	pushq	%rbp
	.cfi_def_cfa_offset 16
	.cfi_offset %rbp, -16
	movq	%rsp, %rbp
	.cfi_def_cfa_register %rbp
	pushq	%r15
	pushq	%r14
	pushq	%r13
	pushq	%r12
	pushq	%rbx
	subq	$104, %rsp
	.cfi_offset %rbx, -56
	.cfi_offset %r12, -48
	.cfi_offset %r13, -40
	.cfi_offset %r14, -32
	.cfi_offset %r15, -24
	movq	%rsi, %rbx
	movq	%rdi, %r15
	leaq	l___unnamed_14(%rip), %rax
	movq	%rax, -104(%rbp)
	leaq	__ZN44_$LT$$RF$T$u20$as$u20$core..fmt..Display$GT$3fmt17h50ac1916d68fee72E(%rip), %rax
	movq	%rax, -96(%rbp)
	leaq	l___unnamed_2(%rip), %rax
	movq	%rax, -88(%rbp)
	movq	$2, -80(%rbp)
	movq	$0, -72(%rbp)
	leaq	-104(%rbp), %rax
	movq	%rax, -56(%rbp)
	movq	$1, -48(%rbp)
	leaq	-88(%rbp), %rsi
	movq	%rbx, %rdi
	callq	__ZN4core3fmt9Formatter9write_fmt17h742ca6aae87ad23cE
	movb	$1, %cl
	testb	%al, %al
	jne	LBB43_9
	movsd	(%r15), %xmm0
	movaps	%xmm0, -128(%rbp)
	xorl	%r14d, %r14d
	leaq	-88(%rbp), %r15
	leaq	l___unnamed_3(%rip), %r13
	jmp	LBB43_3
	.p2align	4, 0x90
LBB43_2:
	movaps	-128(%rbp), %xmm0
	movaps	%xmm0, -144(%rbp)
	leaq	1(%r14), %r12
	andl	$15, %r14d
	movzbl	-144(%rbp,%r14), %eax
	movb	%al, -88(%rbp)
	movq	%r15, %rdi
	movq	%rbx, %rsi
	callq	__ZN4core3fmt3num50_$LT$impl$u20$core..fmt..Binary$u20$for$u20$i8$GT$3fmt17h99e877cd09afbddeE
	movq	%r12, %r14
	testb	%al, %al
	jne	LBB43_8
LBB43_3:
	cmpq	$8, %r14
	je	LBB43_7
	testq	%r14, %r14
	je	LBB43_2
	movq	%r13, -88(%rbp)
	movq	$1, -80(%rbp)
	movq	$0, -72(%rbp)
	leaq	l___unnamed_4(%rip), %rax
	movq	%rax, -56(%rbp)
	movq	$0, -48(%rbp)
	movq	%rbx, %rdi
	movq	%r15, %rsi
	callq	__ZN4core3fmt9Formatter9write_fmt17h742ca6aae87ad23cE
	testb	%al, %al
	je	LBB43_2
LBB43_8:
	movb	$1, %cl
	jmp	LBB43_9
LBB43_7:
	leaq	l___unnamed_5(%rip), %rax
	movq	%rax, -88(%rbp)
	movq	$1, -80(%rbp)
	movq	$0, -72(%rbp)
	leaq	l___unnamed_4(%rip), %rax
	movq	%rax, -56(%rbp)
	movq	$0, -48(%rbp)
	leaq	-88(%rbp), %rsi
	movq	%rbx, %rdi
	callq	__ZN4core3fmt9Formatter9write_fmt17h742ca6aae87ad23cE
	movl	%eax, %ecx
LBB43_9:
	movl	%ecx, %eax
	addq	$104, %rsp
	popq	%rbx
	popq	%r12
	popq	%r13
	popq	%r14
	popq	%r15
	popq	%rbp
	retq
	.cfi_endproc

	.globl	__ZN11packed_simd3v6495_$LT$impl$u20$core..fmt..Debug$u20$for$u20$packed_simd..Simd$LT$$u5b$u8$u3b$$u20$8$u5d$$GT$$GT$3fmt17h5bad0ac2394c37dbE
	.p2align	4, 0x90
__ZN11packed_simd3v6495_$LT$impl$u20$core..fmt..Debug$u20$for$u20$packed_simd..Simd$LT$$u5b$u8$u3b$$u20$8$u5d$$GT$$GT$3fmt17h5bad0ac2394c37dbE:
	.cfi_startproc
	pushq	%rbp
	.cfi_def_cfa_offset 16
	.cfi_offset %rbp, -16
	movq	%rsp, %rbp
	.cfi_def_cfa_register %rbp
	pushq	%r15
	pushq	%r14
	pushq	%r13
	pushq	%r12
	pushq	%rbx
	subq	$104, %rsp
	.cfi_offset %rbx, -56
	.cfi_offset %r12, -48
	.cfi_offset %r13, -40
	.cfi_offset %r14, -32
	.cfi_offset %r15, -24
	movq	%rsi, %r15
	movq	%rdi, %rbx
	leaq	l___unnamed_15(%rip), %rax
	movq	%rax, -128(%rbp)
	leaq	__ZN44_$LT$$RF$T$u20$as$u20$core..fmt..Display$GT$3fmt17h50ac1916d68fee72E(%rip), %rax
	movq	%rax, -120(%rbp)
	leaq	l___unnamed_2(%rip), %rax
	movq	%rax, -88(%rbp)
	movq	$2, -80(%rbp)
	movq	$0, -72(%rbp)
	leaq	-128(%rbp), %rax
	movq	%rax, -56(%rbp)
	movq	$1, -48(%rbp)
	leaq	-88(%rbp), %rsi
	movq	%r15, %rdi
	callq	__ZN4core3fmt9Formatter9write_fmt17h742ca6aae87ad23cE
	movb	$1, %r14b
	testb	%al, %al
	jne	LBB44_42
	movq	(%rbx), %xmm0
	movdqa	%xmm0, -112(%rbp)
	movdqa	%xmm0, -144(%rbp)
	movb	-144(%rbp), %al
	movb	%al, -88(%rbp)
	movq	%r15, %rdi
	callq	__ZN4core3fmt9Formatter15debug_lower_hex17hd07f6fde8d0365dfE
	testb	%al, %al
	je	LBB44_2
	leaq	-88(%rbp), %rdi
	movq	%r15, %rsi
	callq	__ZN4core3fmt3num52_$LT$impl$u20$core..fmt..LowerHex$u20$for$u20$u8$GT$3fmt17h35609b3cfed2e613E
	testb	%al, %al
	je	LBB44_6
	jmp	LBB44_42
LBB44_2:
	movq	%r15, %rdi
	callq	__ZN4core3fmt9Formatter15debug_upper_hex17hf480c256a9c81c1eE
	leaq	-88(%rbp), %rdi
	movq	%r15, %rsi
	testb	%al, %al
	je	LBB44_4
	callq	__ZN4core3fmt3num52_$LT$impl$u20$core..fmt..UpperHex$u20$for$u20$u8$GT$3fmt17hdec4e64a988d6129E
	testb	%al, %al
	je	LBB44_6
	jmp	LBB44_42
LBB44_4:
	callq	__ZN4core3fmt3num3imp51_$LT$impl$u20$core..fmt..Display$u20$for$u20$u8$GT$3fmt17hac49effbf87f075dE
	testb	%al, %al
	jne	LBB44_42
LBB44_6:
	leaq	l___unnamed_3(%rip), %r13
	movq	%r13, -88(%rbp)
	movq	$1, -80(%rbp)
	movq	$0, -72(%rbp)
	leaq	l___unnamed_4(%rip), %r12
	movq	%r12, -56(%rbp)
	movq	$0, -48(%rbp)
	leaq	-88(%rbp), %rsi
	movq	%r15, %rdi
	callq	__ZN4core3fmt9Formatter9write_fmt17h742ca6aae87ad23cE
	testb	%al, %al
	jne	LBB44_42
	movdqa	-112(%rbp), %xmm0
	movd	%xmm0, %ebx
	movb	%bh, -88(%rbp)
	movq	%r15, %rdi
	callq	__ZN4core3fmt9Formatter15debug_lower_hex17hd07f6fde8d0365dfE
	testb	%al, %al
	je	LBB44_8
	leaq	-88(%rbp), %rdi
	movq	%r15, %rsi
	callq	__ZN4core3fmt3num52_$LT$impl$u20$core..fmt..LowerHex$u20$for$u20$u8$GT$3fmt17h35609b3cfed2e613E
	jmp	LBB44_10
LBB44_8:
	movq	%r15, %rdi
	callq	__ZN4core3fmt9Formatter15debug_upper_hex17hf480c256a9c81c1eE
	leaq	-88(%rbp), %rdi
	movq	%r15, %rsi
	testb	%al, %al
	je	LBB44_9
	callq	__ZN4core3fmt3num52_$LT$impl$u20$core..fmt..UpperHex$u20$for$u20$u8$GT$3fmt17hdec4e64a988d6129E
	jmp	LBB44_10
LBB44_9:
	callq	__ZN4core3fmt3num3imp51_$LT$impl$u20$core..fmt..Display$u20$for$u20$u8$GT$3fmt17hac49effbf87f075dE
LBB44_10:
	testb	%al, %al
	jne	LBB44_42
	movq	%r13, -88(%rbp)
	movq	$1, -80(%rbp)
	movq	$0, -72(%rbp)
	movq	%r12, -56(%rbp)
	movq	$0, -48(%rbp)
	leaq	-88(%rbp), %rsi
	movq	%r15, %rdi
	callq	__ZN4core3fmt9Formatter9write_fmt17h742ca6aae87ad23cE
	testb	%al, %al
	jne	LBB44_42
	movl	%ebx, %eax
	shrl	$16, %eax
	movb	%al, -88(%rbp)
	movq	%r15, %rdi
	callq	__ZN4core3fmt9Formatter15debug_lower_hex17hd07f6fde8d0365dfE
	testb	%al, %al
	je	LBB44_13
	leaq	-88(%rbp), %rdi
	movq	%r15, %rsi
	callq	__ZN4core3fmt3num52_$LT$impl$u20$core..fmt..LowerHex$u20$for$u20$u8$GT$3fmt17h35609b3cfed2e613E
	jmp	LBB44_15
LBB44_13:
	movq	%r15, %rdi
	callq	__ZN4core3fmt9Formatter15debug_upper_hex17hf480c256a9c81c1eE
	leaq	-88(%rbp), %rdi
	movq	%r15, %rsi
	testb	%al, %al
	je	LBB44_14
	callq	__ZN4core3fmt3num52_$LT$impl$u20$core..fmt..UpperHex$u20$for$u20$u8$GT$3fmt17hdec4e64a988d6129E
	jmp	LBB44_15
LBB44_14:
	callq	__ZN4core3fmt3num3imp51_$LT$impl$u20$core..fmt..Display$u20$for$u20$u8$GT$3fmt17hac49effbf87f075dE
LBB44_15:
	testb	%al, %al
	jne	LBB44_42
	movq	%r13, -88(%rbp)
	movq	$1, -80(%rbp)
	movq	$0, -72(%rbp)
	movq	%r12, -56(%rbp)
	movq	$0, -48(%rbp)
	leaq	-88(%rbp), %rsi
	movq	%r15, %rdi
	callq	__ZN4core3fmt9Formatter9write_fmt17h742ca6aae87ad23cE
	testb	%al, %al
	jne	LBB44_42
	shrl	$24, %ebx
	movb	%bl, -88(%rbp)
	movq	%r15, %rdi
	callq	__ZN4core3fmt9Formatter15debug_lower_hex17hd07f6fde8d0365dfE
	testb	%al, %al
	je	LBB44_18
	leaq	-88(%rbp), %rdi
	movq	%r15, %rsi
	callq	__ZN4core3fmt3num52_$LT$impl$u20$core..fmt..LowerHex$u20$for$u20$u8$GT$3fmt17h35609b3cfed2e613E
	jmp	LBB44_20
LBB44_18:
	movq	%r15, %rdi
	callq	__ZN4core3fmt9Formatter15debug_upper_hex17hf480c256a9c81c1eE
	leaq	-88(%rbp), %rdi
	movq	%r15, %rsi
	testb	%al, %al
	je	LBB44_19
	callq	__ZN4core3fmt3num52_$LT$impl$u20$core..fmt..UpperHex$u20$for$u20$u8$GT$3fmt17hdec4e64a988d6129E
	jmp	LBB44_20
LBB44_19:
	callq	__ZN4core3fmt3num3imp51_$LT$impl$u20$core..fmt..Display$u20$for$u20$u8$GT$3fmt17hac49effbf87f075dE
LBB44_20:
	testb	%al, %al
	jne	LBB44_42
	movq	%r13, -88(%rbp)
	movq	$1, -80(%rbp)
	movq	$0, -72(%rbp)
	movq	%r12, -56(%rbp)
	movq	$0, -48(%rbp)
	leaq	-88(%rbp), %rsi
	movq	%r15, %rdi
	callq	__ZN4core3fmt9Formatter9write_fmt17h742ca6aae87ad23cE
	testb	%al, %al
	jne	LBB44_42
	movdqa	-112(%rbp), %xmm0
	pextrw	$2, %xmm0, %ebx
	movb	%bl, -88(%rbp)
	movq	%r15, %rdi
	callq	__ZN4core3fmt9Formatter15debug_lower_hex17hd07f6fde8d0365dfE
	testb	%al, %al
	je	LBB44_23
	leaq	-88(%rbp), %rdi
	movq	%r15, %rsi
	callq	__ZN4core3fmt3num52_$LT$impl$u20$core..fmt..LowerHex$u20$for$u20$u8$GT$3fmt17h35609b3cfed2e613E
	jmp	LBB44_25
LBB44_23:
	movq	%r15, %rdi
	callq	__ZN4core3fmt9Formatter15debug_upper_hex17hf480c256a9c81c1eE
	leaq	-88(%rbp), %rdi
	movq	%r15, %rsi
	testb	%al, %al
	je	LBB44_24
	callq	__ZN4core3fmt3num52_$LT$impl$u20$core..fmt..UpperHex$u20$for$u20$u8$GT$3fmt17hdec4e64a988d6129E
	jmp	LBB44_25
LBB44_24:
	callq	__ZN4core3fmt3num3imp51_$LT$impl$u20$core..fmt..Display$u20$for$u20$u8$GT$3fmt17hac49effbf87f075dE
LBB44_25:
	testb	%al, %al
	jne	LBB44_42
	movq	%r13, -88(%rbp)
	movq	$1, -80(%rbp)
	movq	$0, -72(%rbp)
	movq	%r12, -56(%rbp)
	movq	$0, -48(%rbp)
	leaq	-88(%rbp), %rsi
	movq	%r15, %rdi
	callq	__ZN4core3fmt9Formatter9write_fmt17h742ca6aae87ad23cE
	testb	%al, %al
	jne	LBB44_42
	movb	%bh, -88(%rbp)
	movq	%r15, %rdi
	callq	__ZN4core3fmt9Formatter15debug_lower_hex17hd07f6fde8d0365dfE
	testb	%al, %al
	je	LBB44_28
	leaq	-88(%rbp), %rdi
	movq	%r15, %rsi
	callq	__ZN4core3fmt3num52_$LT$impl$u20$core..fmt..LowerHex$u20$for$u20$u8$GT$3fmt17h35609b3cfed2e613E
	jmp	LBB44_30
LBB44_28:
	movq	%r15, %rdi
	callq	__ZN4core3fmt9Formatter15debug_upper_hex17hf480c256a9c81c1eE
	leaq	-88(%rbp), %rdi
	movq	%r15, %rsi
	testb	%al, %al
	je	LBB44_29
	callq	__ZN4core3fmt3num52_$LT$impl$u20$core..fmt..UpperHex$u20$for$u20$u8$GT$3fmt17hdec4e64a988d6129E
	jmp	LBB44_30
LBB44_29:
	callq	__ZN4core3fmt3num3imp51_$LT$impl$u20$core..fmt..Display$u20$for$u20$u8$GT$3fmt17hac49effbf87f075dE
LBB44_30:
	testb	%al, %al
	jne	LBB44_42
	movq	%r13, -88(%rbp)
	movq	$1, -80(%rbp)
	movq	$0, -72(%rbp)
	movq	%r12, -56(%rbp)
	movq	$0, -48(%rbp)
	leaq	-88(%rbp), %rsi
	movq	%r15, %rdi
	callq	__ZN4core3fmt9Formatter9write_fmt17h742ca6aae87ad23cE
	testb	%al, %al
	jne	LBB44_42
	movdqa	-112(%rbp), %xmm0
	pextrw	$3, %xmm0, %ebx
	movb	%bl, -88(%rbp)
	movq	%r15, %rdi
	callq	__ZN4core3fmt9Formatter15debug_lower_hex17hd07f6fde8d0365dfE
	testb	%al, %al
	je	LBB44_33
	leaq	-88(%rbp), %rdi
	movq	%r15, %rsi
	callq	__ZN4core3fmt3num52_$LT$impl$u20$core..fmt..LowerHex$u20$for$u20$u8$GT$3fmt17h35609b3cfed2e613E
	jmp	LBB44_35
LBB44_33:
	movq	%r15, %rdi
	callq	__ZN4core3fmt9Formatter15debug_upper_hex17hf480c256a9c81c1eE
	leaq	-88(%rbp), %rdi
	movq	%r15, %rsi
	testb	%al, %al
	je	LBB44_34
	callq	__ZN4core3fmt3num52_$LT$impl$u20$core..fmt..UpperHex$u20$for$u20$u8$GT$3fmt17hdec4e64a988d6129E
	jmp	LBB44_35
LBB44_34:
	callq	__ZN4core3fmt3num3imp51_$LT$impl$u20$core..fmt..Display$u20$for$u20$u8$GT$3fmt17hac49effbf87f075dE
LBB44_35:
	testb	%al, %al
	jne	LBB44_42
	movq	%r13, -88(%rbp)
	movq	$1, -80(%rbp)
	movq	$0, -72(%rbp)
	movq	%r12, -56(%rbp)
	movq	$0, -48(%rbp)
	leaq	-88(%rbp), %rsi
	movq	%r15, %rdi
	callq	__ZN4core3fmt9Formatter9write_fmt17h742ca6aae87ad23cE
	testb	%al, %al
	jne	LBB44_42
	movb	%bh, -88(%rbp)
	movq	%r15, %rdi
	callq	__ZN4core3fmt9Formatter15debug_lower_hex17hd07f6fde8d0365dfE
	testb	%al, %al
	je	LBB44_38
	leaq	-88(%rbp), %rdi
	movq	%r15, %rsi
	callq	__ZN4core3fmt3num52_$LT$impl$u20$core..fmt..LowerHex$u20$for$u20$u8$GT$3fmt17h35609b3cfed2e613E
	jmp	LBB44_40
LBB44_38:
	movq	%r15, %rdi
	callq	__ZN4core3fmt9Formatter15debug_upper_hex17hf480c256a9c81c1eE
	leaq	-88(%rbp), %rdi
	movq	%r15, %rsi
	testb	%al, %al
	je	LBB44_39
	callq	__ZN4core3fmt3num52_$LT$impl$u20$core..fmt..UpperHex$u20$for$u20$u8$GT$3fmt17hdec4e64a988d6129E
	jmp	LBB44_40
LBB44_39:
	callq	__ZN4core3fmt3num3imp51_$LT$impl$u20$core..fmt..Display$u20$for$u20$u8$GT$3fmt17hac49effbf87f075dE
LBB44_40:
	testb	%al, %al
	jne	LBB44_42
	leaq	l___unnamed_5(%rip), %rax
	movq	%rax, -88(%rbp)
	movq	$1, -80(%rbp)
	movq	$0, -72(%rbp)
	movq	%r12, -56(%rbp)
	movq	$0, -48(%rbp)
	leaq	-88(%rbp), %rsi
	movq	%r15, %rdi
	callq	__ZN4core3fmt9Formatter9write_fmt17h742ca6aae87ad23cE
	movl	%eax, %r14d
LBB44_42:
	movl	%r14d, %eax
	addq	$104, %rsp
	popq	%rbx
	popq	%r12
	popq	%r13
	popq	%r14
	popq	%r15
	popq	%rbp
	retq
	.cfi_endproc

	.globl	__ZN11packed_simd3v6498_$LT$impl$u20$core..fmt..LowerHex$u20$for$u20$packed_simd..Simd$LT$$u5b$u8$u3b$$u20$8$u5d$$GT$$GT$3fmt17h32075529ba23b7f9E
	.p2align	4, 0x90
__ZN11packed_simd3v6498_$LT$impl$u20$core..fmt..LowerHex$u20$for$u20$packed_simd..Simd$LT$$u5b$u8$u3b$$u20$8$u5d$$GT$$GT$3fmt17h32075529ba23b7f9E:
	.cfi_startproc
	pushq	%rbp
	.cfi_def_cfa_offset 16
	.cfi_offset %rbp, -16
	movq	%rsp, %rbp
	.cfi_def_cfa_register %rbp
	pushq	%r15
	pushq	%r14
	pushq	%r13
	pushq	%r12
	pushq	%rbx
	subq	$104, %rsp
	.cfi_offset %rbx, -56
	.cfi_offset %r12, -48
	.cfi_offset %r13, -40
	.cfi_offset %r14, -32
	.cfi_offset %r15, -24
	movq	%rsi, %rbx
	movq	%rdi, %r15
	leaq	l___unnamed_15(%rip), %rax
	movq	%rax, -104(%rbp)
	leaq	__ZN44_$LT$$RF$T$u20$as$u20$core..fmt..Display$GT$3fmt17h50ac1916d68fee72E(%rip), %rax
	movq	%rax, -96(%rbp)
	leaq	l___unnamed_2(%rip), %rax
	movq	%rax, -88(%rbp)
	movq	$2, -80(%rbp)
	movq	$0, -72(%rbp)
	leaq	-104(%rbp), %rax
	movq	%rax, -56(%rbp)
	movq	$1, -48(%rbp)
	leaq	-88(%rbp), %rsi
	movq	%rbx, %rdi
	callq	__ZN4core3fmt9Formatter9write_fmt17h742ca6aae87ad23cE
	movb	$1, %cl
	testb	%al, %al
	jne	LBB45_9
	movsd	(%r15), %xmm0
	movaps	%xmm0, -128(%rbp)
	xorl	%r14d, %r14d
	leaq	-88(%rbp), %r15
	leaq	l___unnamed_3(%rip), %r13
	jmp	LBB45_3
	.p2align	4, 0x90
LBB45_2:
	movaps	-128(%rbp), %xmm0
	movaps	%xmm0, -144(%rbp)
	leaq	1(%r14), %r12
	andl	$15, %r14d
	movzbl	-144(%rbp,%r14), %eax
	movb	%al, -88(%rbp)
	movq	%r15, %rdi
	movq	%rbx, %rsi
	callq	__ZN4core3fmt3num52_$LT$impl$u20$core..fmt..LowerHex$u20$for$u20$u8$GT$3fmt17h35609b3cfed2e613E
	movq	%r12, %r14
	testb	%al, %al
	jne	LBB45_8
LBB45_3:
	cmpq	$8, %r14
	je	LBB45_7
	testq	%r14, %r14
	je	LBB45_2
	movq	%r13, -88(%rbp)
	movq	$1, -80(%rbp)
	movq	$0, -72(%rbp)
	leaq	l___unnamed_4(%rip), %rax
	movq	%rax, -56(%rbp)
	movq	$0, -48(%rbp)
	movq	%rbx, %rdi
	movq	%r15, %rsi
	callq	__ZN4core3fmt9Formatter9write_fmt17h742ca6aae87ad23cE
	testb	%al, %al
	je	LBB45_2
LBB45_8:
	movb	$1, %cl
	jmp	LBB45_9
LBB45_7:
	leaq	l___unnamed_5(%rip), %rax
	movq	%rax, -88(%rbp)
	movq	$1, -80(%rbp)
	movq	$0, -72(%rbp)
	leaq	l___unnamed_4(%rip), %rax
	movq	%rax, -56(%rbp)
	movq	$0, -48(%rbp)
	leaq	-88(%rbp), %rsi
	movq	%rbx, %rdi
	callq	__ZN4core3fmt9Formatter9write_fmt17h742ca6aae87ad23cE
	movl	%eax, %ecx
LBB45_9:
	movl	%ecx, %eax
	addq	$104, %rsp
	popq	%rbx
	popq	%r12
	popq	%r13
	popq	%r14
	popq	%r15
	popq	%rbp
	retq
	.cfi_endproc

	.globl	__ZN11packed_simd3v6498_$LT$impl$u20$core..fmt..UpperHex$u20$for$u20$packed_simd..Simd$LT$$u5b$u8$u3b$$u20$8$u5d$$GT$$GT$3fmt17h2a45b516427aee3fE
	.p2align	4, 0x90
__ZN11packed_simd3v6498_$LT$impl$u20$core..fmt..UpperHex$u20$for$u20$packed_simd..Simd$LT$$u5b$u8$u3b$$u20$8$u5d$$GT$$GT$3fmt17h2a45b516427aee3fE:
	.cfi_startproc
	pushq	%rbp
	.cfi_def_cfa_offset 16
	.cfi_offset %rbp, -16
	movq	%rsp, %rbp
	.cfi_def_cfa_register %rbp
	pushq	%r15
	pushq	%r14
	pushq	%r13
	pushq	%r12
	pushq	%rbx
	subq	$104, %rsp
	.cfi_offset %rbx, -56
	.cfi_offset %r12, -48
	.cfi_offset %r13, -40
	.cfi_offset %r14, -32
	.cfi_offset %r15, -24
	movq	%rsi, %rbx
	movq	%rdi, %r15
	leaq	l___unnamed_15(%rip), %rax
	movq	%rax, -104(%rbp)
	leaq	__ZN44_$LT$$RF$T$u20$as$u20$core..fmt..Display$GT$3fmt17h50ac1916d68fee72E(%rip), %rax
	movq	%rax, -96(%rbp)
	leaq	l___unnamed_2(%rip), %rax
	movq	%rax, -88(%rbp)
	movq	$2, -80(%rbp)
	movq	$0, -72(%rbp)
	leaq	-104(%rbp), %rax
	movq	%rax, -56(%rbp)
	movq	$1, -48(%rbp)
	leaq	-88(%rbp), %rsi
	movq	%rbx, %rdi
	callq	__ZN4core3fmt9Formatter9write_fmt17h742ca6aae87ad23cE
	movb	$1, %cl
	testb	%al, %al
	jne	LBB46_9
	movsd	(%r15), %xmm0
	movaps	%xmm0, -128(%rbp)
	xorl	%r14d, %r14d
	leaq	-88(%rbp), %r15
	leaq	l___unnamed_3(%rip), %r13
	jmp	LBB46_3
	.p2align	4, 0x90
LBB46_2:
	movaps	-128(%rbp), %xmm0
	movaps	%xmm0, -144(%rbp)
	leaq	1(%r14), %r12
	andl	$15, %r14d
	movzbl	-144(%rbp,%r14), %eax
	movb	%al, -88(%rbp)
	movq	%r15, %rdi
	movq	%rbx, %rsi
	callq	__ZN4core3fmt3num52_$LT$impl$u20$core..fmt..UpperHex$u20$for$u20$u8$GT$3fmt17hdec4e64a988d6129E
	movq	%r12, %r14
	testb	%al, %al
	jne	LBB46_8
LBB46_3:
	cmpq	$8, %r14
	je	LBB46_7
	testq	%r14, %r14
	je	LBB46_2
	movq	%r13, -88(%rbp)
	movq	$1, -80(%rbp)
	movq	$0, -72(%rbp)
	leaq	l___unnamed_4(%rip), %rax
	movq	%rax, -56(%rbp)
	movq	$0, -48(%rbp)
	movq	%rbx, %rdi
	movq	%r15, %rsi
	callq	__ZN4core3fmt9Formatter9write_fmt17h742ca6aae87ad23cE
	testb	%al, %al
	je	LBB46_2
LBB46_8:
	movb	$1, %cl
	jmp	LBB46_9
LBB46_7:
	leaq	l___unnamed_5(%rip), %rax
	movq	%rax, -88(%rbp)
	movq	$1, -80(%rbp)
	movq	$0, -72(%rbp)
	leaq	l___unnamed_4(%rip), %rax
	movq	%rax, -56(%rbp)
	movq	$0, -48(%rbp)
	leaq	-88(%rbp), %rsi
	movq	%rbx, %rdi
	callq	__ZN4core3fmt9Formatter9write_fmt17h742ca6aae87ad23cE
	movl	%eax, %ecx
LBB46_9:
	movl	%ecx, %eax
	addq	$104, %rsp
	popq	%rbx
	popq	%r12
	popq	%r13
	popq	%r14
	popq	%r15
	popq	%rbp
	retq
	.cfi_endproc

	.globl	__ZN11packed_simd3v6495_$LT$impl$u20$core..fmt..Octal$u20$for$u20$packed_simd..Simd$LT$$u5b$u8$u3b$$u20$8$u5d$$GT$$GT$3fmt17hb0bd3b9a7da8ce09E
	.p2align	4, 0x90
__ZN11packed_simd3v6495_$LT$impl$u20$core..fmt..Octal$u20$for$u20$packed_simd..Simd$LT$$u5b$u8$u3b$$u20$8$u5d$$GT$$GT$3fmt17hb0bd3b9a7da8ce09E:
	.cfi_startproc
	pushq	%rbp
	.cfi_def_cfa_offset 16
	.cfi_offset %rbp, -16
	movq	%rsp, %rbp
	.cfi_def_cfa_register %rbp
	pushq	%r15
	pushq	%r14
	pushq	%r13
	pushq	%r12
	pushq	%rbx
	subq	$104, %rsp
	.cfi_offset %rbx, -56
	.cfi_offset %r12, -48
	.cfi_offset %r13, -40
	.cfi_offset %r14, -32
	.cfi_offset %r15, -24
	movq	%rsi, %rbx
	movq	%rdi, %r15
	leaq	l___unnamed_15(%rip), %rax
	movq	%rax, -104(%rbp)
	leaq	__ZN44_$LT$$RF$T$u20$as$u20$core..fmt..Display$GT$3fmt17h50ac1916d68fee72E(%rip), %rax
	movq	%rax, -96(%rbp)
	leaq	l___unnamed_2(%rip), %rax
	movq	%rax, -88(%rbp)
	movq	$2, -80(%rbp)
	movq	$0, -72(%rbp)
	leaq	-104(%rbp), %rax
	movq	%rax, -56(%rbp)
	movq	$1, -48(%rbp)
	leaq	-88(%rbp), %rsi
	movq	%rbx, %rdi
	callq	__ZN4core3fmt9Formatter9write_fmt17h742ca6aae87ad23cE
	movb	$1, %cl
	testb	%al, %al
	jne	LBB47_9
	movsd	(%r15), %xmm0
	movaps	%xmm0, -128(%rbp)
	xorl	%r14d, %r14d
	leaq	-88(%rbp), %r15
	leaq	l___unnamed_3(%rip), %r13
	jmp	LBB47_3
	.p2align	4, 0x90
LBB47_2:
	movaps	-128(%rbp), %xmm0
	movaps	%xmm0, -144(%rbp)
	leaq	1(%r14), %r12
	andl	$15, %r14d
	movzbl	-144(%rbp,%r14), %eax
	movb	%al, -88(%rbp)
	movq	%r15, %rdi
	movq	%rbx, %rsi
	callq	__ZN4core3fmt3num49_$LT$impl$u20$core..fmt..Octal$u20$for$u20$u8$GT$3fmt17hf7600dd9a4d32e44E
	movq	%r12, %r14
	testb	%al, %al
	jne	LBB47_8
LBB47_3:
	cmpq	$8, %r14
	je	LBB47_7
	testq	%r14, %r14
	je	LBB47_2
	movq	%r13, -88(%rbp)
	movq	$1, -80(%rbp)
	movq	$0, -72(%rbp)
	leaq	l___unnamed_4(%rip), %rax
	movq	%rax, -56(%rbp)
	movq	$0, -48(%rbp)
	movq	%rbx, %rdi
	movq	%r15, %rsi
	callq	__ZN4core3fmt9Formatter9write_fmt17h742ca6aae87ad23cE
	testb	%al, %al
	je	LBB47_2
LBB47_8:
	movb	$1, %cl
	jmp	LBB47_9
LBB47_7:
	leaq	l___unnamed_5(%rip), %rax
	movq	%rax, -88(%rbp)
	movq	$1, -80(%rbp)
	movq	$0, -72(%rbp)
	leaq	l___unnamed_4(%rip), %rax
	movq	%rax, -56(%rbp)
	movq	$0, -48(%rbp)
	leaq	-88(%rbp), %rsi
	movq	%rbx, %rdi
	callq	__ZN4core3fmt9Formatter9write_fmt17h742ca6aae87ad23cE
	movl	%eax, %ecx
LBB47_9:
	movl	%ecx, %eax
	addq	$104, %rsp
	popq	%rbx
	popq	%r12
	popq	%r13
	popq	%r14
	popq	%r15
	popq	%rbp
	retq
	.cfi_endproc

	.globl	__ZN11packed_simd3v6496_$LT$impl$u20$core..fmt..Binary$u20$for$u20$packed_simd..Simd$LT$$u5b$u8$u3b$$u20$8$u5d$$GT$$GT$3fmt17h3653c25022913d7eE
	.p2align	4, 0x90
__ZN11packed_simd3v6496_$LT$impl$u20$core..fmt..Binary$u20$for$u20$packed_simd..Simd$LT$$u5b$u8$u3b$$u20$8$u5d$$GT$$GT$3fmt17h3653c25022913d7eE:
	.cfi_startproc
	pushq	%rbp
	.cfi_def_cfa_offset 16
	.cfi_offset %rbp, -16
	movq	%rsp, %rbp
	.cfi_def_cfa_register %rbp
	pushq	%r15
	pushq	%r14
	pushq	%r13
	pushq	%r12
	pushq	%rbx
	subq	$104, %rsp
	.cfi_offset %rbx, -56
	.cfi_offset %r12, -48
	.cfi_offset %r13, -40
	.cfi_offset %r14, -32
	.cfi_offset %r15, -24
	movq	%rsi, %rbx
	movq	%rdi, %r15
	leaq	l___unnamed_15(%rip), %rax
	movq	%rax, -104(%rbp)
	leaq	__ZN44_$LT$$RF$T$u20$as$u20$core..fmt..Display$GT$3fmt17h50ac1916d68fee72E(%rip), %rax
	movq	%rax, -96(%rbp)
	leaq	l___unnamed_2(%rip), %rax
	movq	%rax, -88(%rbp)
	movq	$2, -80(%rbp)
	movq	$0, -72(%rbp)
	leaq	-104(%rbp), %rax
	movq	%rax, -56(%rbp)
	movq	$1, -48(%rbp)
	leaq	-88(%rbp), %rsi
	movq	%rbx, %rdi
	callq	__ZN4core3fmt9Formatter9write_fmt17h742ca6aae87ad23cE
	movb	$1, %cl
	testb	%al, %al
	jne	LBB48_9
	movsd	(%r15), %xmm0
	movaps	%xmm0, -128(%rbp)
	xorl	%r14d, %r14d
	leaq	-88(%rbp), %r15
	leaq	l___unnamed_3(%rip), %r13
	jmp	LBB48_3
	.p2align	4, 0x90
LBB48_2:
	movaps	-128(%rbp), %xmm0
	movaps	%xmm0, -144(%rbp)
	leaq	1(%r14), %r12
	andl	$15, %r14d
	movzbl	-144(%rbp,%r14), %eax
	movb	%al, -88(%rbp)
	movq	%r15, %rdi
	movq	%rbx, %rsi
	callq	__ZN4core3fmt3num50_$LT$impl$u20$core..fmt..Binary$u20$for$u20$u8$GT$3fmt17h34ba181458cacf9cE
	movq	%r12, %r14
	testb	%al, %al
	jne	LBB48_8
LBB48_3:
	cmpq	$8, %r14
	je	LBB48_7
	testq	%r14, %r14
	je	LBB48_2
	movq	%r13, -88(%rbp)
	movq	$1, -80(%rbp)
	movq	$0, -72(%rbp)
	leaq	l___unnamed_4(%rip), %rax
	movq	%rax, -56(%rbp)
	movq	$0, -48(%rbp)
	movq	%rbx, %rdi
	movq	%r15, %rsi
	callq	__ZN4core3fmt9Formatter9write_fmt17h742ca6aae87ad23cE
	testb	%al, %al
	je	LBB48_2
LBB48_8:
	movb	$1, %cl
	jmp	LBB48_9
LBB48_7:
	leaq	l___unnamed_5(%rip), %rax
	movq	%rax, -88(%rbp)
	movq	$1, -80(%rbp)
	movq	$0, -72(%rbp)
	leaq	l___unnamed_4(%rip), %rax
	movq	%rax, -56(%rbp)
	movq	$0, -48(%rbp)
	leaq	-88(%rbp), %rsi
	movq	%rbx, %rdi
	callq	__ZN4core3fmt9Formatter9write_fmt17h742ca6aae87ad23cE
	movl	%eax, %ecx
LBB48_9:
	movl	%ecx, %eax
	addq	$104, %rsp
	popq	%rbx
	popq	%r12
	popq	%r13
	popq	%r14
	popq	%r15
	popq	%rbp
	retq
	.cfi_endproc

	.globl	__ZN11packed_simd3v64115_$LT$impl$u20$core..fmt..Debug$u20$for$u20$packed_simd..Simd$LT$$u5b$packed_simd..masks..m8$u3b$$u20$8$u5d$$GT$$GT$3fmt17hb172c80bf15ea53aE
	.p2align	4, 0x90
__ZN11packed_simd3v64115_$LT$impl$u20$core..fmt..Debug$u20$for$u20$packed_simd..Simd$LT$$u5b$packed_simd..masks..m8$u3b$$u20$8$u5d$$GT$$GT$3fmt17hb172c80bf15ea53aE:
	.cfi_startproc
	pushq	%rbp
	.cfi_def_cfa_offset 16
	.cfi_offset %rbp, -16
	movq	%rsp, %rbp
	.cfi_def_cfa_register %rbp
	pushq	%r15
	pushq	%r14
	pushq	%r13
	pushq	%r12
	pushq	%rbx
	subq	$104, %rsp
	.cfi_offset %rbx, -56
	.cfi_offset %r12, -48
	.cfi_offset %r13, -40
	.cfi_offset %r14, -32
	.cfi_offset %r15, -24
	movq	%rsi, %rbx
	movq	%rdi, %r15
	leaq	l___unnamed_16(%rip), %rax
	movq	%rax, -104(%rbp)
	leaq	__ZN44_$LT$$RF$T$u20$as$u20$core..fmt..Display$GT$3fmt17h50ac1916d68fee72E(%rip), %rax
	movq	%rax, -96(%rbp)
	leaq	l___unnamed_2(%rip), %rax
	movq	%rax, -88(%rbp)
	movq	$2, -80(%rbp)
	movq	$0, -72(%rbp)
	leaq	-104(%rbp), %rax
	movq	%rax, -56(%rbp)
	movq	$1, -48(%rbp)
	leaq	-88(%rbp), %rsi
	movq	%rbx, %rdi
	callq	__ZN4core3fmt9Formatter9write_fmt17h742ca6aae87ad23cE
	movb	$1, %cl
	testb	%al, %al
	jne	LBB49_9
	movsd	(%r15), %xmm0
	movaps	%xmm0, -128(%rbp)
	xorl	%r14d, %r14d
	leaq	-88(%rbp), %r15
	leaq	l___unnamed_3(%rip), %r13
	jmp	LBB49_3
	.p2align	4, 0x90
LBB49_2:
	movaps	-128(%rbp), %xmm0
	movaps	%xmm0, -144(%rbp)
	leaq	1(%r14), %r12
	andl	$15, %r14d
	cmpb	$0, -144(%rbp,%r14)
	setne	-88(%rbp)
	movq	%r15, %rdi
	movq	%rbx, %rsi
	callq	__ZN43_$LT$bool$u20$as$u20$core..fmt..Display$GT$3fmt17hd78396651a24cfbbE
	movq	%r12, %r14
	testb	%al, %al
	jne	LBB49_8
LBB49_3:
	cmpq	$8, %r14
	je	LBB49_7
	testq	%r14, %r14
	je	LBB49_2
	movq	%r13, -88(%rbp)
	movq	$1, -80(%rbp)
	movq	$0, -72(%rbp)
	leaq	l___unnamed_4(%rip), %rax
	movq	%rax, -56(%rbp)
	movq	$0, -48(%rbp)
	movq	%rbx, %rdi
	movq	%r15, %rsi
	callq	__ZN4core3fmt9Formatter9write_fmt17h742ca6aae87ad23cE
	testb	%al, %al
	je	LBB49_2
LBB49_8:
	movb	$1, %cl
	jmp	LBB49_9
LBB49_7:
	leaq	l___unnamed_5(%rip), %rax
	movq	%rax, -88(%rbp)
	movq	$1, -80(%rbp)
	movq	$0, -72(%rbp)
	leaq	l___unnamed_4(%rip), %rax
	movq	%rax, -56(%rbp)
	movq	$0, -48(%rbp)
	leaq	-88(%rbp), %rsi
	movq	%rbx, %rdi
	callq	__ZN4core3fmt9Formatter9write_fmt17h742ca6aae87ad23cE
	movl	%eax, %ecx
LBB49_9:
	movl	%ecx, %eax
	addq	$104, %rsp
	popq	%rbx
	popq	%r12
	popq	%r13
	popq	%r14
	popq	%r15
	popq	%rbp
	retq
	.cfi_endproc

	.globl	__ZN11packed_simd3v6496_$LT$impl$u20$core..fmt..Debug$u20$for$u20$packed_simd..Simd$LT$$u5b$i16$u3b$$u20$4$u5d$$GT$$GT$3fmt17h141beeb745e482b6E
	.p2align	4, 0x90
__ZN11packed_simd3v6496_$LT$impl$u20$core..fmt..Debug$u20$for$u20$packed_simd..Simd$LT$$u5b$i16$u3b$$u20$4$u5d$$GT$$GT$3fmt17h141beeb745e482b6E:
	.cfi_startproc
	pushq	%rbp
	.cfi_def_cfa_offset 16
	.cfi_offset %rbp, -16
	movq	%rsp, %rbp
	.cfi_def_cfa_register %rbp
	pushq	%r15
	pushq	%r14
	pushq	%r13
	pushq	%r12
	pushq	%rbx
	subq	$88, %rsp
	.cfi_offset %rbx, -56
	.cfi_offset %r12, -48
	.cfi_offset %r13, -40
	.cfi_offset %r14, -32
	.cfi_offset %r15, -24
	movq	%rsi, %r15
	movq	%rdi, %rbx
	leaq	l___unnamed_17(%rip), %rax
	movq	%rax, -128(%rbp)
	leaq	__ZN44_$LT$$RF$T$u20$as$u20$core..fmt..Display$GT$3fmt17h50ac1916d68fee72E(%rip), %rax
	movq	%rax, -120(%rbp)
	leaq	l___unnamed_2(%rip), %rax
	movq	%rax, -88(%rbp)
	movq	$2, -80(%rbp)
	movq	$0, -72(%rbp)
	leaq	-128(%rbp), %rax
	movq	%rax, -56(%rbp)
	movq	$1, -48(%rbp)
	leaq	-88(%rbp), %rsi
	movq	%r15, %rdi
	callq	__ZN4core3fmt9Formatter9write_fmt17h742ca6aae87ad23cE
	movb	$1, %r14b
	testb	%al, %al
	jne	LBB50_22
	movq	(%rbx), %rbx
	movw	%bx, -88(%rbp)
	movq	%r15, %rdi
	callq	__ZN4core3fmt9Formatter15debug_lower_hex17hd07f6fde8d0365dfE
	testb	%al, %al
	je	LBB50_2
	leaq	-88(%rbp), %rdi
	movq	%r15, %rsi
	callq	__ZN4core3fmt3num53_$LT$impl$u20$core..fmt..LowerHex$u20$for$u20$i16$GT$3fmt17h7236122704e16c86E
	testb	%al, %al
	je	LBB50_6
	jmp	LBB50_22
LBB50_2:
	movq	%r15, %rdi
	callq	__ZN4core3fmt9Formatter15debug_upper_hex17hf480c256a9c81c1eE
	leaq	-88(%rbp), %rdi
	movq	%r15, %rsi
	testb	%al, %al
	je	LBB50_4
	callq	__ZN4core3fmt3num53_$LT$impl$u20$core..fmt..UpperHex$u20$for$u20$i16$GT$3fmt17hf50bc938a2a1e02bE
	testb	%al, %al
	je	LBB50_6
	jmp	LBB50_22
LBB50_4:
	callq	__ZN4core3fmt3num3imp52_$LT$impl$u20$core..fmt..Display$u20$for$u20$i16$GT$3fmt17h7c7135e52a8bf68aE
	testb	%al, %al
	jne	LBB50_22
LBB50_6:
	leaq	l___unnamed_3(%rip), %r13
	movq	%r13, -88(%rbp)
	movq	$1, -80(%rbp)
	movq	$0, -72(%rbp)
	leaq	l___unnamed_4(%rip), %r12
	movq	%r12, -56(%rbp)
	movq	$0, -48(%rbp)
	leaq	-88(%rbp), %rsi
	movq	%r15, %rdi
	callq	__ZN4core3fmt9Formatter9write_fmt17h742ca6aae87ad23cE
	testb	%al, %al
	jne	LBB50_22
	movq	%rbx, %xmm0
	movdqa	%xmm0, -112(%rbp)
	pextrw	$1, %xmm0, %eax
	movw	%ax, -88(%rbp)
	movq	%r15, %rdi
	callq	__ZN4core3fmt9Formatter15debug_lower_hex17hd07f6fde8d0365dfE
	testb	%al, %al
	je	LBB50_8
	leaq	-88(%rbp), %rdi
	movq	%r15, %rsi
	callq	__ZN4core3fmt3num53_$LT$impl$u20$core..fmt..LowerHex$u20$for$u20$i16$GT$3fmt17h7236122704e16c86E
	jmp	LBB50_10
LBB50_8:
	movq	%r15, %rdi
	callq	__ZN4core3fmt9Formatter15debug_upper_hex17hf480c256a9c81c1eE
	leaq	-88(%rbp), %rdi
	movq	%r15, %rsi
	testb	%al, %al
	je	LBB50_9
	callq	__ZN4core3fmt3num53_$LT$impl$u20$core..fmt..UpperHex$u20$for$u20$i16$GT$3fmt17hf50bc938a2a1e02bE
	jmp	LBB50_10
LBB50_9:
	callq	__ZN4core3fmt3num3imp52_$LT$impl$u20$core..fmt..Display$u20$for$u20$i16$GT$3fmt17h7c7135e52a8bf68aE
LBB50_10:
	testb	%al, %al
	jne	LBB50_22
	movq	%r13, -88(%rbp)
	movq	$1, -80(%rbp)
	movq	$0, -72(%rbp)
	movq	%r12, -56(%rbp)
	movq	$0, -48(%rbp)
	leaq	-88(%rbp), %rsi
	movq	%r15, %rdi
	callq	__ZN4core3fmt9Formatter9write_fmt17h742ca6aae87ad23cE
	testb	%al, %al
	jne	LBB50_22
	movdqa	-112(%rbp), %xmm0
	pextrw	$2, %xmm0, %eax
	movw	%ax, -88(%rbp)
	movq	%r15, %rdi
	callq	__ZN4core3fmt9Formatter15debug_lower_hex17hd07f6fde8d0365dfE
	testb	%al, %al
	je	LBB50_13
	leaq	-88(%rbp), %rdi
	movq	%r15, %rsi
	callq	__ZN4core3fmt3num53_$LT$impl$u20$core..fmt..LowerHex$u20$for$u20$i16$GT$3fmt17h7236122704e16c86E
	jmp	LBB50_15
LBB50_13:
	movq	%r15, %rdi
	callq	__ZN4core3fmt9Formatter15debug_upper_hex17hf480c256a9c81c1eE
	leaq	-88(%rbp), %rdi
	movq	%r15, %rsi
	testb	%al, %al
	je	LBB50_14
	callq	__ZN4core3fmt3num53_$LT$impl$u20$core..fmt..UpperHex$u20$for$u20$i16$GT$3fmt17hf50bc938a2a1e02bE
	jmp	LBB50_15
LBB50_14:
	callq	__ZN4core3fmt3num3imp52_$LT$impl$u20$core..fmt..Display$u20$for$u20$i16$GT$3fmt17h7c7135e52a8bf68aE
LBB50_15:
	testb	%al, %al
	jne	LBB50_22
	movq	%r13, -88(%rbp)
	movq	$1, -80(%rbp)
	movq	$0, -72(%rbp)
	movq	%r12, -56(%rbp)
	movq	$0, -48(%rbp)
	leaq	-88(%rbp), %rsi
	movq	%r15, %rdi
	callq	__ZN4core3fmt9Formatter9write_fmt17h742ca6aae87ad23cE
	testb	%al, %al
	jne	LBB50_22
	movdqa	-112(%rbp), %xmm0
	pextrw	$3, %xmm0, %eax
	movw	%ax, -88(%rbp)
	movq	%r15, %rdi
	callq	__ZN4core3fmt9Formatter15debug_lower_hex17hd07f6fde8d0365dfE
	testb	%al, %al
	je	LBB50_18
	leaq	-88(%rbp), %rdi
	movq	%r15, %rsi
	callq	__ZN4core3fmt3num53_$LT$impl$u20$core..fmt..LowerHex$u20$for$u20$i16$GT$3fmt17h7236122704e16c86E
	jmp	LBB50_20
LBB50_18:
	movq	%r15, %rdi
	callq	__ZN4core3fmt9Formatter15debug_upper_hex17hf480c256a9c81c1eE
	leaq	-88(%rbp), %rdi
	movq	%r15, %rsi
	testb	%al, %al
	je	LBB50_19
	callq	__ZN4core3fmt3num53_$LT$impl$u20$core..fmt..UpperHex$u20$for$u20$i16$GT$3fmt17hf50bc938a2a1e02bE
	jmp	LBB50_20
LBB50_19:
	callq	__ZN4core3fmt3num3imp52_$LT$impl$u20$core..fmt..Display$u20$for$u20$i16$GT$3fmt17h7c7135e52a8bf68aE
LBB50_20:
	testb	%al, %al
	jne	LBB50_22
	leaq	l___unnamed_5(%rip), %rax
	movq	%rax, -88(%rbp)
	movq	$1, -80(%rbp)
	movq	$0, -72(%rbp)
	movq	%r12, -56(%rbp)
	movq	$0, -48(%rbp)
	leaq	-88(%rbp), %rsi
	movq	%r15, %rdi
	callq	__ZN4core3fmt9Formatter9write_fmt17h742ca6aae87ad23cE
	movl	%eax, %r14d
LBB50_22:
	movl	%r14d, %eax
	addq	$88, %rsp
	popq	%rbx
	popq	%r12
	popq	%r13
	popq	%r14
	popq	%r15
	popq	%rbp
	retq
	.cfi_endproc

	.globl	__ZN11packed_simd3v6499_$LT$impl$u20$core..fmt..LowerHex$u20$for$u20$packed_simd..Simd$LT$$u5b$i16$u3b$$u20$4$u5d$$GT$$GT$3fmt17he76215f6681f60d9E
	.p2align	4, 0x90
__ZN11packed_simd3v6499_$LT$impl$u20$core..fmt..LowerHex$u20$for$u20$packed_simd..Simd$LT$$u5b$i16$u3b$$u20$4$u5d$$GT$$GT$3fmt17he76215f6681f60d9E:
	.cfi_startproc
	pushq	%rbp
	.cfi_def_cfa_offset 16
	.cfi_offset %rbp, -16
	movq	%rsp, %rbp
	.cfi_def_cfa_register %rbp
	pushq	%r15
	pushq	%r14
	pushq	%r13
	pushq	%r12
	pushq	%rbx
	subq	$104, %rsp
	.cfi_offset %rbx, -56
	.cfi_offset %r12, -48
	.cfi_offset %r13, -40
	.cfi_offset %r14, -32
	.cfi_offset %r15, -24
	movq	%rsi, %rbx
	movq	%rdi, %r15
	leaq	l___unnamed_17(%rip), %rax
	movq	%rax, -104(%rbp)
	leaq	__ZN44_$LT$$RF$T$u20$as$u20$core..fmt..Display$GT$3fmt17h50ac1916d68fee72E(%rip), %rax
	movq	%rax, -96(%rbp)
	leaq	l___unnamed_2(%rip), %rax
	movq	%rax, -88(%rbp)
	movq	$2, -80(%rbp)
	movq	$0, -72(%rbp)
	leaq	-104(%rbp), %rax
	movq	%rax, -56(%rbp)
	movq	$1, -48(%rbp)
	leaq	-88(%rbp), %rsi
	movq	%rbx, %rdi
	callq	__ZN4core3fmt9Formatter9write_fmt17h742ca6aae87ad23cE
	movb	$1, %cl
	testb	%al, %al
	jne	LBB51_9
	movsd	(%r15), %xmm0
	movaps	%xmm0, -128(%rbp)
	xorl	%r14d, %r14d
	leaq	-88(%rbp), %r15
	leaq	l___unnamed_3(%rip), %r13
	jmp	LBB51_3
	.p2align	4, 0x90
LBB51_2:
	movaps	-128(%rbp), %xmm0
	movaps	%xmm0, -144(%rbp)
	leaq	1(%r14), %r12
	andl	$7, %r14d
	movzwl	-144(%rbp,%r14,2), %eax
	movw	%ax, -88(%rbp)
	movq	%r15, %rdi
	movq	%rbx, %rsi
	callq	__ZN4core3fmt3num53_$LT$impl$u20$core..fmt..LowerHex$u20$for$u20$i16$GT$3fmt17h7236122704e16c86E
	movq	%r12, %r14
	testb	%al, %al
	jne	LBB51_8
LBB51_3:
	cmpq	$4, %r14
	je	LBB51_7
	testq	%r14, %r14
	je	LBB51_2
	movq	%r13, -88(%rbp)
	movq	$1, -80(%rbp)
	movq	$0, -72(%rbp)
	leaq	l___unnamed_4(%rip), %rax
	movq	%rax, -56(%rbp)
	movq	$0, -48(%rbp)
	movq	%rbx, %rdi
	movq	%r15, %rsi
	callq	__ZN4core3fmt9Formatter9write_fmt17h742ca6aae87ad23cE
	testb	%al, %al
	je	LBB51_2
LBB51_8:
	movb	$1, %cl
	jmp	LBB51_9
LBB51_7:
	leaq	l___unnamed_5(%rip), %rax
	movq	%rax, -88(%rbp)
	movq	$1, -80(%rbp)
	movq	$0, -72(%rbp)
	leaq	l___unnamed_4(%rip), %rax
	movq	%rax, -56(%rbp)
	movq	$0, -48(%rbp)
	leaq	-88(%rbp), %rsi
	movq	%rbx, %rdi
	callq	__ZN4core3fmt9Formatter9write_fmt17h742ca6aae87ad23cE
	movl	%eax, %ecx
LBB51_9:
	movl	%ecx, %eax
	addq	$104, %rsp
	popq	%rbx
	popq	%r12
	popq	%r13
	popq	%r14
	popq	%r15
	popq	%rbp
	retq
	.cfi_endproc

	.globl	__ZN11packed_simd3v6499_$LT$impl$u20$core..fmt..UpperHex$u20$for$u20$packed_simd..Simd$LT$$u5b$i16$u3b$$u20$4$u5d$$GT$$GT$3fmt17h441aa48aac332696E
	.p2align	4, 0x90
__ZN11packed_simd3v6499_$LT$impl$u20$core..fmt..UpperHex$u20$for$u20$packed_simd..Simd$LT$$u5b$i16$u3b$$u20$4$u5d$$GT$$GT$3fmt17h441aa48aac332696E:
	.cfi_startproc
	pushq	%rbp
	.cfi_def_cfa_offset 16
	.cfi_offset %rbp, -16
	movq	%rsp, %rbp
	.cfi_def_cfa_register %rbp
	pushq	%r15
	pushq	%r14
	pushq	%r13
	pushq	%r12
	pushq	%rbx
	subq	$104, %rsp
	.cfi_offset %rbx, -56
	.cfi_offset %r12, -48
	.cfi_offset %r13, -40
	.cfi_offset %r14, -32
	.cfi_offset %r15, -24
	movq	%rsi, %rbx
	movq	%rdi, %r15
	leaq	l___unnamed_17(%rip), %rax
	movq	%rax, -104(%rbp)
	leaq	__ZN44_$LT$$RF$T$u20$as$u20$core..fmt..Display$GT$3fmt17h50ac1916d68fee72E(%rip), %rax
	movq	%rax, -96(%rbp)
	leaq	l___unnamed_2(%rip), %rax
	movq	%rax, -88(%rbp)
	movq	$2, -80(%rbp)
	movq	$0, -72(%rbp)
	leaq	-104(%rbp), %rax
	movq	%rax, -56(%rbp)
	movq	$1, -48(%rbp)
	leaq	-88(%rbp), %rsi
	movq	%rbx, %rdi
	callq	__ZN4core3fmt9Formatter9write_fmt17h742ca6aae87ad23cE
	movb	$1, %cl
	testb	%al, %al
	jne	LBB52_9
	movsd	(%r15), %xmm0
	movaps	%xmm0, -128(%rbp)
	xorl	%r14d, %r14d
	leaq	-88(%rbp), %r15
	leaq	l___unnamed_3(%rip), %r13
	jmp	LBB52_3
	.p2align	4, 0x90
LBB52_2:
	movaps	-128(%rbp), %xmm0
	movaps	%xmm0, -144(%rbp)
	leaq	1(%r14), %r12
	andl	$7, %r14d
	movzwl	-144(%rbp,%r14,2), %eax
	movw	%ax, -88(%rbp)
	movq	%r15, %rdi
	movq	%rbx, %rsi
	callq	__ZN4core3fmt3num53_$LT$impl$u20$core..fmt..UpperHex$u20$for$u20$i16$GT$3fmt17hf50bc938a2a1e02bE
	movq	%r12, %r14
	testb	%al, %al
	jne	LBB52_8
LBB52_3:
	cmpq	$4, %r14
	je	LBB52_7
	testq	%r14, %r14
	je	LBB52_2
	movq	%r13, -88(%rbp)
	movq	$1, -80(%rbp)
	movq	$0, -72(%rbp)
	leaq	l___unnamed_4(%rip), %rax
	movq	%rax, -56(%rbp)
	movq	$0, -48(%rbp)
	movq	%rbx, %rdi
	movq	%r15, %rsi
	callq	__ZN4core3fmt9Formatter9write_fmt17h742ca6aae87ad23cE
	testb	%al, %al
	je	LBB52_2
LBB52_8:
	movb	$1, %cl
	jmp	LBB52_9
LBB52_7:
	leaq	l___unnamed_5(%rip), %rax
	movq	%rax, -88(%rbp)
	movq	$1, -80(%rbp)
	movq	$0, -72(%rbp)
	leaq	l___unnamed_4(%rip), %rax
	movq	%rax, -56(%rbp)
	movq	$0, -48(%rbp)
	leaq	-88(%rbp), %rsi
	movq	%rbx, %rdi
	callq	__ZN4core3fmt9Formatter9write_fmt17h742ca6aae87ad23cE
	movl	%eax, %ecx
LBB52_9:
	movl	%ecx, %eax
	addq	$104, %rsp
	popq	%rbx
	popq	%r12
	popq	%r13
	popq	%r14
	popq	%r15
	popq	%rbp
	retq
	.cfi_endproc

	.globl	__ZN11packed_simd3v6496_$LT$impl$u20$core..fmt..Octal$u20$for$u20$packed_simd..Simd$LT$$u5b$i16$u3b$$u20$4$u5d$$GT$$GT$3fmt17h3e572d84bfc945eaE
	.p2align	4, 0x90
__ZN11packed_simd3v6496_$LT$impl$u20$core..fmt..Octal$u20$for$u20$packed_simd..Simd$LT$$u5b$i16$u3b$$u20$4$u5d$$GT$$GT$3fmt17h3e572d84bfc945eaE:
	.cfi_startproc
	pushq	%rbp
	.cfi_def_cfa_offset 16
	.cfi_offset %rbp, -16
	movq	%rsp, %rbp
	.cfi_def_cfa_register %rbp
	pushq	%r15
	pushq	%r14
	pushq	%r13
	pushq	%r12
	pushq	%rbx
	subq	$104, %rsp
	.cfi_offset %rbx, -56
	.cfi_offset %r12, -48
	.cfi_offset %r13, -40
	.cfi_offset %r14, -32
	.cfi_offset %r15, -24
	movq	%rsi, %rbx
	movq	%rdi, %r15
	leaq	l___unnamed_17(%rip), %rax
	movq	%rax, -104(%rbp)
	leaq	__ZN44_$LT$$RF$T$u20$as$u20$core..fmt..Display$GT$3fmt17h50ac1916d68fee72E(%rip), %rax
	movq	%rax, -96(%rbp)
	leaq	l___unnamed_2(%rip), %rax
	movq	%rax, -88(%rbp)
	movq	$2, -80(%rbp)
	movq	$0, -72(%rbp)
	leaq	-104(%rbp), %rax
	movq	%rax, -56(%rbp)
	movq	$1, -48(%rbp)
	leaq	-88(%rbp), %rsi
	movq	%rbx, %rdi
	callq	__ZN4core3fmt9Formatter9write_fmt17h742ca6aae87ad23cE
	movb	$1, %cl
	testb	%al, %al
	jne	LBB53_9
	movsd	(%r15), %xmm0
	movaps	%xmm0, -128(%rbp)
	xorl	%r14d, %r14d
	leaq	-88(%rbp), %r15
	leaq	l___unnamed_3(%rip), %r13
	jmp	LBB53_3
	.p2align	4, 0x90
LBB53_2:
	movaps	-128(%rbp), %xmm0
	movaps	%xmm0, -144(%rbp)
	leaq	1(%r14), %r12
	andl	$7, %r14d
	movzwl	-144(%rbp,%r14,2), %eax
	movw	%ax, -88(%rbp)
	movq	%r15, %rdi
	movq	%rbx, %rsi
	callq	__ZN4core3fmt3num50_$LT$impl$u20$core..fmt..Octal$u20$for$u20$i16$GT$3fmt17ha0034911fbd4500eE
	movq	%r12, %r14
	testb	%al, %al
	jne	LBB53_8
LBB53_3:
	cmpq	$4, %r14
	je	LBB53_7
	testq	%r14, %r14
	je	LBB53_2
	movq	%r13, -88(%rbp)
	movq	$1, -80(%rbp)
	movq	$0, -72(%rbp)
	leaq	l___unnamed_4(%rip), %rax
	movq	%rax, -56(%rbp)
	movq	$0, -48(%rbp)
	movq	%rbx, %rdi
	movq	%r15, %rsi
	callq	__ZN4core3fmt9Formatter9write_fmt17h742ca6aae87ad23cE
	testb	%al, %al
	je	LBB53_2
LBB53_8:
	movb	$1, %cl
	jmp	LBB53_9
LBB53_7:
	leaq	l___unnamed_5(%rip), %rax
	movq	%rax, -88(%rbp)
	movq	$1, -80(%rbp)
	movq	$0, -72(%rbp)
	leaq	l___unnamed_4(%rip), %rax
	movq	%rax, -56(%rbp)
	movq	$0, -48(%rbp)
	leaq	-88(%rbp), %rsi
	movq	%rbx, %rdi
	callq	__ZN4core3fmt9Formatter9write_fmt17h742ca6aae87ad23cE
	movl	%eax, %ecx
LBB53_9:
	movl	%ecx, %eax
	addq	$104, %rsp
	popq	%rbx
	popq	%r12
	popq	%r13
	popq	%r14
	popq	%r15
	popq	%rbp
	retq
	.cfi_endproc

	.globl	__ZN11packed_simd3v6497_$LT$impl$u20$core..fmt..Binary$u20$for$u20$packed_simd..Simd$LT$$u5b$i16$u3b$$u20$4$u5d$$GT$$GT$3fmt17h7f5a07b07689bbe0E
	.p2align	4, 0x90
__ZN11packed_simd3v6497_$LT$impl$u20$core..fmt..Binary$u20$for$u20$packed_simd..Simd$LT$$u5b$i16$u3b$$u20$4$u5d$$GT$$GT$3fmt17h7f5a07b07689bbe0E:
	.cfi_startproc
	pushq	%rbp
	.cfi_def_cfa_offset 16
	.cfi_offset %rbp, -16
	movq	%rsp, %rbp
	.cfi_def_cfa_register %rbp
	pushq	%r15
	pushq	%r14
	pushq	%r13
	pushq	%r12
	pushq	%rbx
	subq	$104, %rsp
	.cfi_offset %rbx, -56
	.cfi_offset %r12, -48
	.cfi_offset %r13, -40
	.cfi_offset %r14, -32
	.cfi_offset %r15, -24
	movq	%rsi, %rbx
	movq	%rdi, %r15
	leaq	l___unnamed_17(%rip), %rax
	movq	%rax, -104(%rbp)
	leaq	__ZN44_$LT$$RF$T$u20$as$u20$core..fmt..Display$GT$3fmt17h50ac1916d68fee72E(%rip), %rax
	movq	%rax, -96(%rbp)
	leaq	l___unnamed_2(%rip), %rax
	movq	%rax, -88(%rbp)
	movq	$2, -80(%rbp)
	movq	$0, -72(%rbp)
	leaq	-104(%rbp), %rax
	movq	%rax, -56(%rbp)
	movq	$1, -48(%rbp)
	leaq	-88(%rbp), %rsi
	movq	%rbx, %rdi
	callq	__ZN4core3fmt9Formatter9write_fmt17h742ca6aae87ad23cE
	movb	$1, %cl
	testb	%al, %al
	jne	LBB54_9
	movsd	(%r15), %xmm0
	movaps	%xmm0, -128(%rbp)
	xorl	%r14d, %r14d
	leaq	-88(%rbp), %r15
	leaq	l___unnamed_3(%rip), %r13
	jmp	LBB54_3
	.p2align	4, 0x90
LBB54_2:
	movaps	-128(%rbp), %xmm0
	movaps	%xmm0, -144(%rbp)
	leaq	1(%r14), %r12
	andl	$7, %r14d
	movzwl	-144(%rbp,%r14,2), %eax
	movw	%ax, -88(%rbp)
	movq	%r15, %rdi
	movq	%rbx, %rsi
	callq	__ZN4core3fmt3num51_$LT$impl$u20$core..fmt..Binary$u20$for$u20$i16$GT$3fmt17hd0d6ed80e6addc96E
	movq	%r12, %r14
	testb	%al, %al
	jne	LBB54_8
LBB54_3:
	cmpq	$4, %r14
	je	LBB54_7
	testq	%r14, %r14
	je	LBB54_2
	movq	%r13, -88(%rbp)
	movq	$1, -80(%rbp)
	movq	$0, -72(%rbp)
	leaq	l___unnamed_4(%rip), %rax
	movq	%rax, -56(%rbp)
	movq	$0, -48(%rbp)
	movq	%rbx, %rdi
	movq	%r15, %rsi
	callq	__ZN4core3fmt9Formatter9write_fmt17h742ca6aae87ad23cE
	testb	%al, %al
	je	LBB54_2
LBB54_8:
	movb	$1, %cl
	jmp	LBB54_9
LBB54_7:
	leaq	l___unnamed_5(%rip), %rax
	movq	%rax, -88(%rbp)
	movq	$1, -80(%rbp)
	movq	$0, -72(%rbp)
	leaq	l___unnamed_4(%rip), %rax
	movq	%rax, -56(%rbp)
	movq	$0, -48(%rbp)
	leaq	-88(%rbp), %rsi
	movq	%rbx, %rdi
	callq	__ZN4core3fmt9Formatter9write_fmt17h742ca6aae87ad23cE
	movl	%eax, %ecx
LBB54_9:
	movl	%ecx, %eax
	addq	$104, %rsp
	popq	%rbx
	popq	%r12
	popq	%r13
	popq	%r14
	popq	%r15
	popq	%rbp
	retq
	.cfi_endproc

	.globl	__ZN11packed_simd3v6496_$LT$impl$u20$core..fmt..Debug$u20$for$u20$packed_simd..Simd$LT$$u5b$u16$u3b$$u20$4$u5d$$GT$$GT$3fmt17h14e43bc6c2a22950E
	.p2align	4, 0x90
__ZN11packed_simd3v6496_$LT$impl$u20$core..fmt..Debug$u20$for$u20$packed_simd..Simd$LT$$u5b$u16$u3b$$u20$4$u5d$$GT$$GT$3fmt17h14e43bc6c2a22950E:
	.cfi_startproc
	pushq	%rbp
	.cfi_def_cfa_offset 16
	.cfi_offset %rbp, -16
	movq	%rsp, %rbp
	.cfi_def_cfa_register %rbp
	pushq	%r15
	pushq	%r14
	pushq	%r13
	pushq	%r12
	pushq	%rbx
	subq	$88, %rsp
	.cfi_offset %rbx, -56
	.cfi_offset %r12, -48
	.cfi_offset %r13, -40
	.cfi_offset %r14, -32
	.cfi_offset %r15, -24
	movq	%rsi, %r15
	movq	%rdi, %rbx
	leaq	l___unnamed_18(%rip), %rax
	movq	%rax, -128(%rbp)
	leaq	__ZN44_$LT$$RF$T$u20$as$u20$core..fmt..Display$GT$3fmt17h50ac1916d68fee72E(%rip), %rax
	movq	%rax, -120(%rbp)
	leaq	l___unnamed_2(%rip), %rax
	movq	%rax, -88(%rbp)
	movq	$2, -80(%rbp)
	movq	$0, -72(%rbp)
	leaq	-128(%rbp), %rax
	movq	%rax, -56(%rbp)
	movq	$1, -48(%rbp)
	leaq	-88(%rbp), %rsi
	movq	%r15, %rdi
	callq	__ZN4core3fmt9Formatter9write_fmt17h742ca6aae87ad23cE
	movb	$1, %r14b
	testb	%al, %al
	jne	LBB55_22
	movq	(%rbx), %rbx
	movw	%bx, -88(%rbp)
	movq	%r15, %rdi
	callq	__ZN4core3fmt9Formatter15debug_lower_hex17hd07f6fde8d0365dfE
	testb	%al, %al
	je	LBB55_2
	leaq	-88(%rbp), %rdi
	movq	%r15, %rsi
	callq	__ZN4core3fmt3num53_$LT$impl$u20$core..fmt..LowerHex$u20$for$u20$u16$GT$3fmt17h7067c16dc119bdc6E
	testb	%al, %al
	je	LBB55_6
	jmp	LBB55_22
LBB55_2:
	movq	%r15, %rdi
	callq	__ZN4core3fmt9Formatter15debug_upper_hex17hf480c256a9c81c1eE
	leaq	-88(%rbp), %rdi
	movq	%r15, %rsi
	testb	%al, %al
	je	LBB55_4
	callq	__ZN4core3fmt3num53_$LT$impl$u20$core..fmt..UpperHex$u20$for$u20$u16$GT$3fmt17hb4f6c786d08c2f96E
	testb	%al, %al
	je	LBB55_6
	jmp	LBB55_22
LBB55_4:
	callq	__ZN4core3fmt3num3imp52_$LT$impl$u20$core..fmt..Display$u20$for$u20$u16$GT$3fmt17h5ce1a50c193bc52eE
	testb	%al, %al
	jne	LBB55_22
LBB55_6:
	leaq	l___unnamed_3(%rip), %r13
	movq	%r13, -88(%rbp)
	movq	$1, -80(%rbp)
	movq	$0, -72(%rbp)
	leaq	l___unnamed_4(%rip), %r12
	movq	%r12, -56(%rbp)
	movq	$0, -48(%rbp)
	leaq	-88(%rbp), %rsi
	movq	%r15, %rdi
	callq	__ZN4core3fmt9Formatter9write_fmt17h742ca6aae87ad23cE
	testb	%al, %al
	jne	LBB55_22
	movq	%rbx, %xmm0
	movdqa	%xmm0, -112(%rbp)
	pextrw	$1, %xmm0, %eax
	movw	%ax, -88(%rbp)
	movq	%r15, %rdi
	callq	__ZN4core3fmt9Formatter15debug_lower_hex17hd07f6fde8d0365dfE
	testb	%al, %al
	je	LBB55_8
	leaq	-88(%rbp), %rdi
	movq	%r15, %rsi
	callq	__ZN4core3fmt3num53_$LT$impl$u20$core..fmt..LowerHex$u20$for$u20$u16$GT$3fmt17h7067c16dc119bdc6E
	jmp	LBB55_10
LBB55_8:
	movq	%r15, %rdi
	callq	__ZN4core3fmt9Formatter15debug_upper_hex17hf480c256a9c81c1eE
	leaq	-88(%rbp), %rdi
	movq	%r15, %rsi
	testb	%al, %al
	je	LBB55_9
	callq	__ZN4core3fmt3num53_$LT$impl$u20$core..fmt..UpperHex$u20$for$u20$u16$GT$3fmt17hb4f6c786d08c2f96E
	jmp	LBB55_10
LBB55_9:
	callq	__ZN4core3fmt3num3imp52_$LT$impl$u20$core..fmt..Display$u20$for$u20$u16$GT$3fmt17h5ce1a50c193bc52eE
LBB55_10:
	testb	%al, %al
	jne	LBB55_22
	movq	%r13, -88(%rbp)
	movq	$1, -80(%rbp)
	movq	$0, -72(%rbp)
	movq	%r12, -56(%rbp)
	movq	$0, -48(%rbp)
	leaq	-88(%rbp), %rsi
	movq	%r15, %rdi
	callq	__ZN4core3fmt9Formatter9write_fmt17h742ca6aae87ad23cE
	testb	%al, %al
	jne	LBB55_22
	movdqa	-112(%rbp), %xmm0
	pextrw	$2, %xmm0, %eax
	movw	%ax, -88(%rbp)
	movq	%r15, %rdi
	callq	__ZN4core3fmt9Formatter15debug_lower_hex17hd07f6fde8d0365dfE
	testb	%al, %al
	je	LBB55_13
	leaq	-88(%rbp), %rdi
	movq	%r15, %rsi
	callq	__ZN4core3fmt3num53_$LT$impl$u20$core..fmt..LowerHex$u20$for$u20$u16$GT$3fmt17h7067c16dc119bdc6E
	jmp	LBB55_15
LBB55_13:
	movq	%r15, %rdi
	callq	__ZN4core3fmt9Formatter15debug_upper_hex17hf480c256a9c81c1eE
	leaq	-88(%rbp), %rdi
	movq	%r15, %rsi
	testb	%al, %al
	je	LBB55_14
	callq	__ZN4core3fmt3num53_$LT$impl$u20$core..fmt..UpperHex$u20$for$u20$u16$GT$3fmt17hb4f6c786d08c2f96E
	jmp	LBB55_15
LBB55_14:
	callq	__ZN4core3fmt3num3imp52_$LT$impl$u20$core..fmt..Display$u20$for$u20$u16$GT$3fmt17h5ce1a50c193bc52eE
LBB55_15:
	testb	%al, %al
	jne	LBB55_22
	movq	%r13, -88(%rbp)
	movq	$1, -80(%rbp)
	movq	$0, -72(%rbp)
	movq	%r12, -56(%rbp)
	movq	$0, -48(%rbp)
	leaq	-88(%rbp), %rsi
	movq	%r15, %rdi
	callq	__ZN4core3fmt9Formatter9write_fmt17h742ca6aae87ad23cE
	testb	%al, %al
	jne	LBB55_22
	movdqa	-112(%rbp), %xmm0
	pextrw	$3, %xmm0, %eax
	movw	%ax, -88(%rbp)
	movq	%r15, %rdi
	callq	__ZN4core3fmt9Formatter15debug_lower_hex17hd07f6fde8d0365dfE
	testb	%al, %al
	je	LBB55_18
	leaq	-88(%rbp), %rdi
	movq	%r15, %rsi
	callq	__ZN4core3fmt3num53_$LT$impl$u20$core..fmt..LowerHex$u20$for$u20$u16$GT$3fmt17h7067c16dc119bdc6E
	jmp	LBB55_20
LBB55_18:
	movq	%r15, %rdi
	callq	__ZN4core3fmt9Formatter15debug_upper_hex17hf480c256a9c81c1eE
	leaq	-88(%rbp), %rdi
	movq	%r15, %rsi
	testb	%al, %al
	je	LBB55_19
	callq	__ZN4core3fmt3num53_$LT$impl$u20$core..fmt..UpperHex$u20$for$u20$u16$GT$3fmt17hb4f6c786d08c2f96E
	jmp	LBB55_20
LBB55_19:
	callq	__ZN4core3fmt3num3imp52_$LT$impl$u20$core..fmt..Display$u20$for$u20$u16$GT$3fmt17h5ce1a50c193bc52eE
LBB55_20:
	testb	%al, %al
	jne	LBB55_22
	leaq	l___unnamed_5(%rip), %rax
	movq	%rax, -88(%rbp)
	movq	$1, -80(%rbp)
	movq	$0, -72(%rbp)
	movq	%r12, -56(%rbp)
	movq	$0, -48(%rbp)
	leaq	-88(%rbp), %rsi
	movq	%r15, %rdi
	callq	__ZN4core3fmt9Formatter9write_fmt17h742ca6aae87ad23cE
	movl	%eax, %r14d
LBB55_22:
	movl	%r14d, %eax
	addq	$88, %rsp
	popq	%rbx
	popq	%r12
	popq	%r13
	popq	%r14
	popq	%r15
	popq	%rbp
	retq
	.cfi_endproc

	.globl	__ZN11packed_simd3v6499_$LT$impl$u20$core..fmt..LowerHex$u20$for$u20$packed_simd..Simd$LT$$u5b$u16$u3b$$u20$4$u5d$$GT$$GT$3fmt17h64edd3555794e901E
	.p2align	4, 0x90
__ZN11packed_simd3v6499_$LT$impl$u20$core..fmt..LowerHex$u20$for$u20$packed_simd..Simd$LT$$u5b$u16$u3b$$u20$4$u5d$$GT$$GT$3fmt17h64edd3555794e901E:
	.cfi_startproc
	pushq	%rbp
	.cfi_def_cfa_offset 16
	.cfi_offset %rbp, -16
	movq	%rsp, %rbp
	.cfi_def_cfa_register %rbp
	pushq	%r15
	pushq	%r14
	pushq	%r13
	pushq	%r12
	pushq	%rbx
	subq	$104, %rsp
	.cfi_offset %rbx, -56
	.cfi_offset %r12, -48
	.cfi_offset %r13, -40
	.cfi_offset %r14, -32
	.cfi_offset %r15, -24
	movq	%rsi, %rbx
	movq	%rdi, %r15
	leaq	l___unnamed_18(%rip), %rax
	movq	%rax, -104(%rbp)
	leaq	__ZN44_$LT$$RF$T$u20$as$u20$core..fmt..Display$GT$3fmt17h50ac1916d68fee72E(%rip), %rax
	movq	%rax, -96(%rbp)
	leaq	l___unnamed_2(%rip), %rax
	movq	%rax, -88(%rbp)
	movq	$2, -80(%rbp)
	movq	$0, -72(%rbp)
	leaq	-104(%rbp), %rax
	movq	%rax, -56(%rbp)
	movq	$1, -48(%rbp)
	leaq	-88(%rbp), %rsi
	movq	%rbx, %rdi
	callq	__ZN4core3fmt9Formatter9write_fmt17h742ca6aae87ad23cE
	movb	$1, %cl
	testb	%al, %al
	jne	LBB56_9
	movsd	(%r15), %xmm0
	movaps	%xmm0, -128(%rbp)
	xorl	%r14d, %r14d
	leaq	-88(%rbp), %r15
	leaq	l___unnamed_3(%rip), %r13
	jmp	LBB56_3
	.p2align	4, 0x90
LBB56_2:
	movaps	-128(%rbp), %xmm0
	movaps	%xmm0, -144(%rbp)
	leaq	1(%r14), %r12
	andl	$7, %r14d
	movzwl	-144(%rbp,%r14,2), %eax
	movw	%ax, -88(%rbp)
	movq	%r15, %rdi
	movq	%rbx, %rsi
	callq	__ZN4core3fmt3num53_$LT$impl$u20$core..fmt..LowerHex$u20$for$u20$u16$GT$3fmt17h7067c16dc119bdc6E
	movq	%r12, %r14
	testb	%al, %al
	jne	LBB56_8
LBB56_3:
	cmpq	$4, %r14
	je	LBB56_7
	testq	%r14, %r14
	je	LBB56_2
	movq	%r13, -88(%rbp)
	movq	$1, -80(%rbp)
	movq	$0, -72(%rbp)
	leaq	l___unnamed_4(%rip), %rax
	movq	%rax, -56(%rbp)
	movq	$0, -48(%rbp)
	movq	%rbx, %rdi
	movq	%r15, %rsi
	callq	__ZN4core3fmt9Formatter9write_fmt17h742ca6aae87ad23cE
	testb	%al, %al
	je	LBB56_2
LBB56_8:
	movb	$1, %cl
	jmp	LBB56_9
LBB56_7:
	leaq	l___unnamed_5(%rip), %rax
	movq	%rax, -88(%rbp)
	movq	$1, -80(%rbp)
	movq	$0, -72(%rbp)
	leaq	l___unnamed_4(%rip), %rax
	movq	%rax, -56(%rbp)
	movq	$0, -48(%rbp)
	leaq	-88(%rbp), %rsi
	movq	%rbx, %rdi
	callq	__ZN4core3fmt9Formatter9write_fmt17h742ca6aae87ad23cE
	movl	%eax, %ecx
LBB56_9:
	movl	%ecx, %eax
	addq	$104, %rsp
	popq	%rbx
	popq	%r12
	popq	%r13
	popq	%r14
	popq	%r15
	popq	%rbp
	retq
	.cfi_endproc

	.globl	__ZN11packed_simd3v6499_$LT$impl$u20$core..fmt..UpperHex$u20$for$u20$packed_simd..Simd$LT$$u5b$u16$u3b$$u20$4$u5d$$GT$$GT$3fmt17hc14159acd993d37dE
	.p2align	4, 0x90
__ZN11packed_simd3v6499_$LT$impl$u20$core..fmt..UpperHex$u20$for$u20$packed_simd..Simd$LT$$u5b$u16$u3b$$u20$4$u5d$$GT$$GT$3fmt17hc14159acd993d37dE:
	.cfi_startproc
	pushq	%rbp
	.cfi_def_cfa_offset 16
	.cfi_offset %rbp, -16
	movq	%rsp, %rbp
	.cfi_def_cfa_register %rbp
	pushq	%r15
	pushq	%r14
	pushq	%r13
	pushq	%r12
	pushq	%rbx
	subq	$104, %rsp
	.cfi_offset %rbx, -56
	.cfi_offset %r12, -48
	.cfi_offset %r13, -40
	.cfi_offset %r14, -32
	.cfi_offset %r15, -24
	movq	%rsi, %rbx
	movq	%rdi, %r15
	leaq	l___unnamed_18(%rip), %rax
	movq	%rax, -104(%rbp)
	leaq	__ZN44_$LT$$RF$T$u20$as$u20$core..fmt..Display$GT$3fmt17h50ac1916d68fee72E(%rip), %rax
	movq	%rax, -96(%rbp)
	leaq	l___unnamed_2(%rip), %rax
	movq	%rax, -88(%rbp)
	movq	$2, -80(%rbp)
	movq	$0, -72(%rbp)
	leaq	-104(%rbp), %rax
	movq	%rax, -56(%rbp)
	movq	$1, -48(%rbp)
	leaq	-88(%rbp), %rsi
	movq	%rbx, %rdi
	callq	__ZN4core3fmt9Formatter9write_fmt17h742ca6aae87ad23cE
	movb	$1, %cl
	testb	%al, %al
	jne	LBB57_9
	movsd	(%r15), %xmm0
	movaps	%xmm0, -128(%rbp)
	xorl	%r14d, %r14d
	leaq	-88(%rbp), %r15
	leaq	l___unnamed_3(%rip), %r13
	jmp	LBB57_3
	.p2align	4, 0x90
LBB57_2:
	movaps	-128(%rbp), %xmm0
	movaps	%xmm0, -144(%rbp)
	leaq	1(%r14), %r12
	andl	$7, %r14d
	movzwl	-144(%rbp,%r14,2), %eax
	movw	%ax, -88(%rbp)
	movq	%r15, %rdi
	movq	%rbx, %rsi
	callq	__ZN4core3fmt3num53_$LT$impl$u20$core..fmt..UpperHex$u20$for$u20$u16$GT$3fmt17hb4f6c786d08c2f96E
	movq	%r12, %r14
	testb	%al, %al
	jne	LBB57_8
LBB57_3:
	cmpq	$4, %r14
	je	LBB57_7
	testq	%r14, %r14
	je	LBB57_2
	movq	%r13, -88(%rbp)
	movq	$1, -80(%rbp)
	movq	$0, -72(%rbp)
	leaq	l___unnamed_4(%rip), %rax
	movq	%rax, -56(%rbp)
	movq	$0, -48(%rbp)
	movq	%rbx, %rdi
	movq	%r15, %rsi
	callq	__ZN4core3fmt9Formatter9write_fmt17h742ca6aae87ad23cE
	testb	%al, %al
	je	LBB57_2
LBB57_8:
	movb	$1, %cl
	jmp	LBB57_9
LBB57_7:
	leaq	l___unnamed_5(%rip), %rax
	movq	%rax, -88(%rbp)
	movq	$1, -80(%rbp)
	movq	$0, -72(%rbp)
	leaq	l___unnamed_4(%rip), %rax
	movq	%rax, -56(%rbp)
	movq	$0, -48(%rbp)
	leaq	-88(%rbp), %rsi
	movq	%rbx, %rdi
	callq	__ZN4core3fmt9Formatter9write_fmt17h742ca6aae87ad23cE
	movl	%eax, %ecx
LBB57_9:
	movl	%ecx, %eax
	addq	$104, %rsp
	popq	%rbx
	popq	%r12
	popq	%r13
	popq	%r14
	popq	%r15
	popq	%rbp
	retq
	.cfi_endproc

	.globl	__ZN11packed_simd3v6496_$LT$impl$u20$core..fmt..Octal$u20$for$u20$packed_simd..Simd$LT$$u5b$u16$u3b$$u20$4$u5d$$GT$$GT$3fmt17h1f878f788e2bda21E
	.p2align	4, 0x90
__ZN11packed_simd3v6496_$LT$impl$u20$core..fmt..Octal$u20$for$u20$packed_simd..Simd$LT$$u5b$u16$u3b$$u20$4$u5d$$GT$$GT$3fmt17h1f878f788e2bda21E:
	.cfi_startproc
	pushq	%rbp
	.cfi_def_cfa_offset 16
	.cfi_offset %rbp, -16
	movq	%rsp, %rbp
	.cfi_def_cfa_register %rbp
	pushq	%r15
	pushq	%r14
	pushq	%r13
	pushq	%r12
	pushq	%rbx
	subq	$104, %rsp
	.cfi_offset %rbx, -56
	.cfi_offset %r12, -48
	.cfi_offset %r13, -40
	.cfi_offset %r14, -32
	.cfi_offset %r15, -24
	movq	%rsi, %rbx
	movq	%rdi, %r15
	leaq	l___unnamed_18(%rip), %rax
	movq	%rax, -104(%rbp)
	leaq	__ZN44_$LT$$RF$T$u20$as$u20$core..fmt..Display$GT$3fmt17h50ac1916d68fee72E(%rip), %rax
	movq	%rax, -96(%rbp)
	leaq	l___unnamed_2(%rip), %rax
	movq	%rax, -88(%rbp)
	movq	$2, -80(%rbp)
	movq	$0, -72(%rbp)
	leaq	-104(%rbp), %rax
	movq	%rax, -56(%rbp)
	movq	$1, -48(%rbp)
	leaq	-88(%rbp), %rsi
	movq	%rbx, %rdi
	callq	__ZN4core3fmt9Formatter9write_fmt17h742ca6aae87ad23cE
	movb	$1, %cl
	testb	%al, %al
	jne	LBB58_9
	movsd	(%r15), %xmm0
	movaps	%xmm0, -128(%rbp)
	xorl	%r14d, %r14d
	leaq	-88(%rbp), %r15
	leaq	l___unnamed_3(%rip), %r13
	jmp	LBB58_3
	.p2align	4, 0x90
LBB58_2:
	movaps	-128(%rbp), %xmm0
	movaps	%xmm0, -144(%rbp)
	leaq	1(%r14), %r12
	andl	$7, %r14d
	movzwl	-144(%rbp,%r14,2), %eax
	movw	%ax, -88(%rbp)
	movq	%r15, %rdi
	movq	%rbx, %rsi
	callq	__ZN4core3fmt3num50_$LT$impl$u20$core..fmt..Octal$u20$for$u20$u16$GT$3fmt17hff248c9a64dcd3c7E
	movq	%r12, %r14
	testb	%al, %al
	jne	LBB58_8
LBB58_3:
	cmpq	$4, %r14
	je	LBB58_7
	testq	%r14, %r14
	je	LBB58_2
	movq	%r13, -88(%rbp)
	movq	$1, -80(%rbp)
	movq	$0, -72(%rbp)
	leaq	l___unnamed_4(%rip), %rax
	movq	%rax, -56(%rbp)
	movq	$0, -48(%rbp)
	movq	%rbx, %rdi
	movq	%r15, %rsi
	callq	__ZN4core3fmt9Formatter9write_fmt17h742ca6aae87ad23cE
	testb	%al, %al
	je	LBB58_2
LBB58_8:
	movb	$1, %cl
	jmp	LBB58_9
LBB58_7:
	leaq	l___unnamed_5(%rip), %rax
	movq	%rax, -88(%rbp)
	movq	$1, -80(%rbp)
	movq	$0, -72(%rbp)
	leaq	l___unnamed_4(%rip), %rax
	movq	%rax, -56(%rbp)
	movq	$0, -48(%rbp)
	leaq	-88(%rbp), %rsi
	movq	%rbx, %rdi
	callq	__ZN4core3fmt9Formatter9write_fmt17h742ca6aae87ad23cE
	movl	%eax, %ecx
LBB58_9:
	movl	%ecx, %eax
	addq	$104, %rsp
	popq	%rbx
	popq	%r12
	popq	%r13
	popq	%r14
	popq	%r15
	popq	%rbp
	retq
	.cfi_endproc

	.globl	__ZN11packed_simd3v6497_$LT$impl$u20$core..fmt..Binary$u20$for$u20$packed_simd..Simd$LT$$u5b$u16$u3b$$u20$4$u5d$$GT$$GT$3fmt17h9b99f7f9577aeb46E
	.p2align	4, 0x90
__ZN11packed_simd3v6497_$LT$impl$u20$core..fmt..Binary$u20$for$u20$packed_simd..Simd$LT$$u5b$u16$u3b$$u20$4$u5d$$GT$$GT$3fmt17h9b99f7f9577aeb46E:
	.cfi_startproc
	pushq	%rbp
	.cfi_def_cfa_offset 16
	.cfi_offset %rbp, -16
	movq	%rsp, %rbp
	.cfi_def_cfa_register %rbp
	pushq	%r15
	pushq	%r14
	pushq	%r13
	pushq	%r12
	pushq	%rbx
	subq	$104, %rsp
	.cfi_offset %rbx, -56
	.cfi_offset %r12, -48
	.cfi_offset %r13, -40
	.cfi_offset %r14, -32
	.cfi_offset %r15, -24
	movq	%rsi, %rbx
	movq	%rdi, %r15
	leaq	l___unnamed_18(%rip), %rax
	movq	%rax, -104(%rbp)
	leaq	__ZN44_$LT$$RF$T$u20$as$u20$core..fmt..Display$GT$3fmt17h50ac1916d68fee72E(%rip), %rax
	movq	%rax, -96(%rbp)
	leaq	l___unnamed_2(%rip), %rax
	movq	%rax, -88(%rbp)
	movq	$2, -80(%rbp)
	movq	$0, -72(%rbp)
	leaq	-104(%rbp), %rax
	movq	%rax, -56(%rbp)
	movq	$1, -48(%rbp)
	leaq	-88(%rbp), %rsi
	movq	%rbx, %rdi
	callq	__ZN4core3fmt9Formatter9write_fmt17h742ca6aae87ad23cE
	movb	$1, %cl
	testb	%al, %al
	jne	LBB59_9
	movsd	(%r15), %xmm0
	movaps	%xmm0, -128(%rbp)
	xorl	%r14d, %r14d
	leaq	-88(%rbp), %r15
	leaq	l___unnamed_3(%rip), %r13
	jmp	LBB59_3
	.p2align	4, 0x90
LBB59_2:
	movaps	-128(%rbp), %xmm0
	movaps	%xmm0, -144(%rbp)
	leaq	1(%r14), %r12
	andl	$7, %r14d
	movzwl	-144(%rbp,%r14,2), %eax
	movw	%ax, -88(%rbp)
	movq	%r15, %rdi
	movq	%rbx, %rsi
	callq	__ZN4core3fmt3num51_$LT$impl$u20$core..fmt..Binary$u20$for$u20$u16$GT$3fmt17h8f2cc3cce809fb58E
	movq	%r12, %r14
	testb	%al, %al
	jne	LBB59_8
LBB59_3:
	cmpq	$4, %r14
	je	LBB59_7
	testq	%r14, %r14
	je	LBB59_2
	movq	%r13, -88(%rbp)
	movq	$1, -80(%rbp)
	movq	$0, -72(%rbp)
	leaq	l___unnamed_4(%rip), %rax
	movq	%rax, -56(%rbp)
	movq	$0, -48(%rbp)
	movq	%rbx, %rdi
	movq	%r15, %rsi
	callq	__ZN4core3fmt9Formatter9write_fmt17h742ca6aae87ad23cE
	testb	%al, %al
	je	LBB59_2
LBB59_8:
	movb	$1, %cl
	jmp	LBB59_9
LBB59_7:
	leaq	l___unnamed_5(%rip), %rax
	movq	%rax, -88(%rbp)
	movq	$1, -80(%rbp)
	movq	$0, -72(%rbp)
	leaq	l___unnamed_4(%rip), %rax
	movq	%rax, -56(%rbp)
	movq	$0, -48(%rbp)
	leaq	-88(%rbp), %rsi
	movq	%rbx, %rdi
	callq	__ZN4core3fmt9Formatter9write_fmt17h742ca6aae87ad23cE
	movl	%eax, %ecx
LBB59_9:
	movl	%ecx, %eax
	addq	$104, %rsp
	popq	%rbx
	popq	%r12
	popq	%r13
	popq	%r14
	popq	%r15
	popq	%rbp
	retq
	.cfi_endproc

	.globl	__ZN11packed_simd3v64116_$LT$impl$u20$core..fmt..Debug$u20$for$u20$packed_simd..Simd$LT$$u5b$packed_simd..masks..m16$u3b$$u20$4$u5d$$GT$$GT$3fmt17h89af2d3b98783af3E
	.p2align	4, 0x90
__ZN11packed_simd3v64116_$LT$impl$u20$core..fmt..Debug$u20$for$u20$packed_simd..Simd$LT$$u5b$packed_simd..masks..m16$u3b$$u20$4$u5d$$GT$$GT$3fmt17h89af2d3b98783af3E:
	.cfi_startproc
	pushq	%rbp
	.cfi_def_cfa_offset 16
	.cfi_offset %rbp, -16
	movq	%rsp, %rbp
	.cfi_def_cfa_register %rbp
	pushq	%r15
	pushq	%r14
	pushq	%r13
	pushq	%r12
	pushq	%rbx
	subq	$104, %rsp
	.cfi_offset %rbx, -56
	.cfi_offset %r12, -48
	.cfi_offset %r13, -40
	.cfi_offset %r14, -32
	.cfi_offset %r15, -24
	movq	%rsi, %rbx
	movq	%rdi, %r15
	leaq	l___unnamed_19(%rip), %rax
	movq	%rax, -104(%rbp)
	leaq	__ZN44_$LT$$RF$T$u20$as$u20$core..fmt..Display$GT$3fmt17h50ac1916d68fee72E(%rip), %rax
	movq	%rax, -96(%rbp)
	leaq	l___unnamed_2(%rip), %rax
	movq	%rax, -88(%rbp)
	movq	$2, -80(%rbp)
	movq	$0, -72(%rbp)
	leaq	-104(%rbp), %rax
	movq	%rax, -56(%rbp)
	movq	$1, -48(%rbp)
	leaq	-88(%rbp), %rsi
	movq	%rbx, %rdi
	callq	__ZN4core3fmt9Formatter9write_fmt17h742ca6aae87ad23cE
	movb	$1, %cl
	testb	%al, %al
	jne	LBB60_9
	movsd	(%r15), %xmm0
	movaps	%xmm0, -128(%rbp)
	xorl	%r14d, %r14d
	leaq	-88(%rbp), %r15
	leaq	l___unnamed_3(%rip), %r13
	jmp	LBB60_3
	.p2align	4, 0x90
LBB60_2:
	movaps	-128(%rbp), %xmm0
	movaps	%xmm0, -144(%rbp)
	leaq	1(%r14), %r12
	andl	$7, %r14d
	cmpw	$0, -144(%rbp,%r14,2)
	setne	-88(%rbp)
	movq	%r15, %rdi
	movq	%rbx, %rsi
	callq	__ZN43_$LT$bool$u20$as$u20$core..fmt..Display$GT$3fmt17hd78396651a24cfbbE
	movq	%r12, %r14
	testb	%al, %al
	jne	LBB60_8
LBB60_3:
	cmpq	$4, %r14
	je	LBB60_7
	testq	%r14, %r14
	je	LBB60_2
	movq	%r13, -88(%rbp)
	movq	$1, -80(%rbp)
	movq	$0, -72(%rbp)
	leaq	l___unnamed_4(%rip), %rax
	movq	%rax, -56(%rbp)
	movq	$0, -48(%rbp)
	movq	%rbx, %rdi
	movq	%r15, %rsi
	callq	__ZN4core3fmt9Formatter9write_fmt17h742ca6aae87ad23cE
	testb	%al, %al
	je	LBB60_2
LBB60_8:
	movb	$1, %cl
	jmp	LBB60_9
LBB60_7:
	leaq	l___unnamed_5(%rip), %rax
	movq	%rax, -88(%rbp)
	movq	$1, -80(%rbp)
	movq	$0, -72(%rbp)
	leaq	l___unnamed_4(%rip), %rax
	movq	%rax, -56(%rbp)
	movq	$0, -48(%rbp)
	leaq	-88(%rbp), %rsi
	movq	%rbx, %rdi
	callq	__ZN4core3fmt9Formatter9write_fmt17h742ca6aae87ad23cE
	movl	%eax, %ecx
LBB60_9:
	movl	%ecx, %eax
	addq	$104, %rsp
	popq	%rbx
	popq	%r12
	popq	%r13
	popq	%r14
	popq	%r15
	popq	%rbp
	retq
	.cfi_endproc

	.globl	__ZN11packed_simd3v6496_$LT$impl$u20$core..fmt..Debug$u20$for$u20$packed_simd..Simd$LT$$u5b$i32$u3b$$u20$2$u5d$$GT$$GT$3fmt17hc2018d37e4fba3efE
	.p2align	4, 0x90
__ZN11packed_simd3v6496_$LT$impl$u20$core..fmt..Debug$u20$for$u20$packed_simd..Simd$LT$$u5b$i32$u3b$$u20$2$u5d$$GT$$GT$3fmt17hc2018d37e4fba3efE:
	.cfi_startproc
	pushq	%rbp
	.cfi_def_cfa_offset 16
	.cfi_offset %rbp, -16
	movq	%rsp, %rbp
	.cfi_def_cfa_register %rbp
	pushq	%r15
	pushq	%r14
	pushq	%rbx
	subq	$88, %rsp
	.cfi_offset %rbx, -40
	.cfi_offset %r14, -32
	.cfi_offset %r15, -24
	movq	%rsi, %r15
	movq	%rdi, %rbx
	leaq	l___unnamed_20(%rip), %rax
	movq	%rax, -88(%rbp)
	leaq	__ZN44_$LT$$RF$T$u20$as$u20$core..fmt..Display$GT$3fmt17h50ac1916d68fee72E(%rip), %rax
	movq	%rax, -80(%rbp)
	leaq	l___unnamed_2(%rip), %rax
	movq	%rax, -72(%rbp)
	movq	$2, -64(%rbp)
	movq	$0, -56(%rbp)
	leaq	-88(%rbp), %rax
	movq	%rax, -40(%rbp)
	movq	$1, -32(%rbp)
	leaq	-72(%rbp), %rsi
	movq	%r15, %rdi
	callq	__ZN4core3fmt9Formatter9write_fmt17h742ca6aae87ad23cE
	movb	$1, %r14b
	testb	%al, %al
	jne	LBB61_12
	movq	(%rbx), %xmm0
	movdqa	%xmm0, -112(%rbp)
	movd	%xmm0, -72(%rbp)
	movq	%r15, %rdi
	callq	__ZN4core3fmt9Formatter15debug_lower_hex17hd07f6fde8d0365dfE
	testb	%al, %al
	je	LBB61_2
	leaq	-72(%rbp), %rdi
	movq	%r15, %rsi
	callq	__ZN4core3fmt3num53_$LT$impl$u20$core..fmt..LowerHex$u20$for$u20$i32$GT$3fmt17hb7ffbd061f7948a2E
	testb	%al, %al
	je	LBB61_6
	jmp	LBB61_12
LBB61_2:
	movq	%r15, %rdi
	callq	__ZN4core3fmt9Formatter15debug_upper_hex17hf480c256a9c81c1eE
	leaq	-72(%rbp), %rdi
	movq	%r15, %rsi
	testb	%al, %al
	je	LBB61_4
	callq	__ZN4core3fmt3num53_$LT$impl$u20$core..fmt..UpperHex$u20$for$u20$i32$GT$3fmt17hbb8d8cd7e36208d7E
	testb	%al, %al
	je	LBB61_6
	jmp	LBB61_12
LBB61_4:
	callq	__ZN4core3fmt3num3imp52_$LT$impl$u20$core..fmt..Display$u20$for$u20$i32$GT$3fmt17h00ed7ff77f9da654E
	testb	%al, %al
	jne	LBB61_12
LBB61_6:
	leaq	l___unnamed_3(%rip), %rax
	movq	%rax, -72(%rbp)
	movq	$1, -64(%rbp)
	movq	$0, -56(%rbp)
	leaq	l___unnamed_4(%rip), %rbx
	movq	%rbx, -40(%rbp)
	movq	$0, -32(%rbp)
	leaq	-72(%rbp), %rsi
	movq	%r15, %rdi
	callq	__ZN4core3fmt9Formatter9write_fmt17h742ca6aae87ad23cE
	testb	%al, %al
	jne	LBB61_12
	pshufd	$229, -112(%rbp), %xmm0
	movd	%xmm0, -72(%rbp)
	movq	%r15, %rdi
	callq	__ZN4core3fmt9Formatter15debug_lower_hex17hd07f6fde8d0365dfE
	testb	%al, %al
	je	LBB61_8
	leaq	-72(%rbp), %rdi
	movq	%r15, %rsi
	callq	__ZN4core3fmt3num53_$LT$impl$u20$core..fmt..LowerHex$u20$for$u20$i32$GT$3fmt17hb7ffbd061f7948a2E
	jmp	LBB61_10
LBB61_8:
	movq	%r15, %rdi
	callq	__ZN4core3fmt9Formatter15debug_upper_hex17hf480c256a9c81c1eE
	leaq	-72(%rbp), %rdi
	movq	%r15, %rsi
	testb	%al, %al
	je	LBB61_9
	callq	__ZN4core3fmt3num53_$LT$impl$u20$core..fmt..UpperHex$u20$for$u20$i32$GT$3fmt17hbb8d8cd7e36208d7E
	jmp	LBB61_10
LBB61_9:
	callq	__ZN4core3fmt3num3imp52_$LT$impl$u20$core..fmt..Display$u20$for$u20$i32$GT$3fmt17h00ed7ff77f9da654E
LBB61_10:
	testb	%al, %al
	jne	LBB61_12
	leaq	l___unnamed_5(%rip), %rax
	movq	%rax, -72(%rbp)
	movq	$1, -64(%rbp)
	movq	$0, -56(%rbp)
	movq	%rbx, -40(%rbp)
	movq	$0, -32(%rbp)
	leaq	-72(%rbp), %rsi
	movq	%r15, %rdi
	callq	__ZN4core3fmt9Formatter9write_fmt17h742ca6aae87ad23cE
	movl	%eax, %r14d
LBB61_12:
	movl	%r14d, %eax
	addq	$88, %rsp
	popq	%rbx
	popq	%r14
	popq	%r15
	popq	%rbp
	retq
	.cfi_endproc

	.globl	__ZN11packed_simd3v6499_$LT$impl$u20$core..fmt..LowerHex$u20$for$u20$packed_simd..Simd$LT$$u5b$i32$u3b$$u20$2$u5d$$GT$$GT$3fmt17hd2f18ef13b5b41f9E
	.p2align	4, 0x90
__ZN11packed_simd3v6499_$LT$impl$u20$core..fmt..LowerHex$u20$for$u20$packed_simd..Simd$LT$$u5b$i32$u3b$$u20$2$u5d$$GT$$GT$3fmt17hd2f18ef13b5b41f9E:
	.cfi_startproc
	pushq	%rbp
	.cfi_def_cfa_offset 16
	.cfi_offset %rbp, -16
	movq	%rsp, %rbp
	.cfi_def_cfa_register %rbp
	pushq	%r15
	pushq	%r14
	pushq	%r13
	pushq	%r12
	pushq	%rbx
	subq	$104, %rsp
	.cfi_offset %rbx, -56
	.cfi_offset %r12, -48
	.cfi_offset %r13, -40
	.cfi_offset %r14, -32
	.cfi_offset %r15, -24
	movq	%rsi, %rbx
	movq	%rdi, %r15
	leaq	l___unnamed_20(%rip), %rax
	movq	%rax, -104(%rbp)
	leaq	__ZN44_$LT$$RF$T$u20$as$u20$core..fmt..Display$GT$3fmt17h50ac1916d68fee72E(%rip), %rax
	movq	%rax, -96(%rbp)
	leaq	l___unnamed_2(%rip), %rax
	movq	%rax, -88(%rbp)
	movq	$2, -80(%rbp)
	movq	$0, -72(%rbp)
	leaq	-104(%rbp), %rax
	movq	%rax, -56(%rbp)
	movq	$1, -48(%rbp)
	leaq	-88(%rbp), %rsi
	movq	%rbx, %rdi
	callq	__ZN4core3fmt9Formatter9write_fmt17h742ca6aae87ad23cE
	movb	$1, %cl
	testb	%al, %al
	jne	LBB62_9
	movsd	(%r15), %xmm0
	movaps	%xmm0, -128(%rbp)
	xorl	%r14d, %r14d
	leaq	-88(%rbp), %r15
	leaq	l___unnamed_3(%rip), %r13
	jmp	LBB62_3
	.p2align	4, 0x90
LBB62_2:
	movaps	-128(%rbp), %xmm0
	movaps	%xmm0, -144(%rbp)
	leaq	1(%r14), %r12
	andl	$3, %r14d
	movl	-144(%rbp,%r14,4), %eax
	movl	%eax, -88(%rbp)
	movq	%r15, %rdi
	movq	%rbx, %rsi
	callq	__ZN4core3fmt3num53_$LT$impl$u20$core..fmt..LowerHex$u20$for$u20$i32$GT$3fmt17hb7ffbd061f7948a2E
	movq	%r12, %r14
	testb	%al, %al
	jne	LBB62_8
LBB62_3:
	cmpq	$2, %r14
	je	LBB62_7
	testq	%r14, %r14
	je	LBB62_2
	movq	%r13, -88(%rbp)
	movq	$1, -80(%rbp)
	movq	$0, -72(%rbp)
	leaq	l___unnamed_4(%rip), %rax
	movq	%rax, -56(%rbp)
	movq	$0, -48(%rbp)
	movq	%rbx, %rdi
	movq	%r15, %rsi
	callq	__ZN4core3fmt9Formatter9write_fmt17h742ca6aae87ad23cE
	testb	%al, %al
	je	LBB62_2
LBB62_8:
	movb	$1, %cl
	jmp	LBB62_9
LBB62_7:
	leaq	l___unnamed_5(%rip), %rax
	movq	%rax, -88(%rbp)
	movq	$1, -80(%rbp)
	movq	$0, -72(%rbp)
	leaq	l___unnamed_4(%rip), %rax
	movq	%rax, -56(%rbp)
	movq	$0, -48(%rbp)
	leaq	-88(%rbp), %rsi
	movq	%rbx, %rdi
	callq	__ZN4core3fmt9Formatter9write_fmt17h742ca6aae87ad23cE
	movl	%eax, %ecx
LBB62_9:
	movl	%ecx, %eax
	addq	$104, %rsp
	popq	%rbx
	popq	%r12
	popq	%r13
	popq	%r14
	popq	%r15
	popq	%rbp
	retq
	.cfi_endproc

	.globl	__ZN11packed_simd3v6499_$LT$impl$u20$core..fmt..UpperHex$u20$for$u20$packed_simd..Simd$LT$$u5b$i32$u3b$$u20$2$u5d$$GT$$GT$3fmt17hb8108b6764ea8c01E
	.p2align	4, 0x90
__ZN11packed_simd3v6499_$LT$impl$u20$core..fmt..UpperHex$u20$for$u20$packed_simd..Simd$LT$$u5b$i32$u3b$$u20$2$u5d$$GT$$GT$3fmt17hb8108b6764ea8c01E:
	.cfi_startproc
	pushq	%rbp
	.cfi_def_cfa_offset 16
	.cfi_offset %rbp, -16
	movq	%rsp, %rbp
	.cfi_def_cfa_register %rbp
	pushq	%r15
	pushq	%r14
	pushq	%r13
	pushq	%r12
	pushq	%rbx
	subq	$104, %rsp
	.cfi_offset %rbx, -56
	.cfi_offset %r12, -48
	.cfi_offset %r13, -40
	.cfi_offset %r14, -32
	.cfi_offset %r15, -24
	movq	%rsi, %rbx
	movq	%rdi, %r15
	leaq	l___unnamed_20(%rip), %rax
	movq	%rax, -104(%rbp)
	leaq	__ZN44_$LT$$RF$T$u20$as$u20$core..fmt..Display$GT$3fmt17h50ac1916d68fee72E(%rip), %rax
	movq	%rax, -96(%rbp)
	leaq	l___unnamed_2(%rip), %rax
	movq	%rax, -88(%rbp)
	movq	$2, -80(%rbp)
	movq	$0, -72(%rbp)
	leaq	-104(%rbp), %rax
	movq	%rax, -56(%rbp)
	movq	$1, -48(%rbp)
	leaq	-88(%rbp), %rsi
	movq	%rbx, %rdi
	callq	__ZN4core3fmt9Formatter9write_fmt17h742ca6aae87ad23cE
	movb	$1, %cl
	testb	%al, %al
	jne	LBB63_9
	movsd	(%r15), %xmm0
	movaps	%xmm0, -128(%rbp)
	xorl	%r14d, %r14d
	leaq	-88(%rbp), %r15
	leaq	l___unnamed_3(%rip), %r13
	jmp	LBB63_3
	.p2align	4, 0x90
LBB63_2:
	movaps	-128(%rbp), %xmm0
	movaps	%xmm0, -144(%rbp)
	leaq	1(%r14), %r12
	andl	$3, %r14d
	movl	-144(%rbp,%r14,4), %eax
	movl	%eax, -88(%rbp)
	movq	%r15, %rdi
	movq	%rbx, %rsi
	callq	__ZN4core3fmt3num53_$LT$impl$u20$core..fmt..UpperHex$u20$for$u20$i32$GT$3fmt17hbb8d8cd7e36208d7E
	movq	%r12, %r14
	testb	%al, %al
	jne	LBB63_8
LBB63_3:
	cmpq	$2, %r14
	je	LBB63_7
	testq	%r14, %r14
	je	LBB63_2
	movq	%r13, -88(%rbp)
	movq	$1, -80(%rbp)
	movq	$0, -72(%rbp)
	leaq	l___unnamed_4(%rip), %rax
	movq	%rax, -56(%rbp)
	movq	$0, -48(%rbp)
	movq	%rbx, %rdi
	movq	%r15, %rsi
	callq	__ZN4core3fmt9Formatter9write_fmt17h742ca6aae87ad23cE
	testb	%al, %al
	je	LBB63_2
LBB63_8:
	movb	$1, %cl
	jmp	LBB63_9
LBB63_7:
	leaq	l___unnamed_5(%rip), %rax
	movq	%rax, -88(%rbp)
	movq	$1, -80(%rbp)
	movq	$0, -72(%rbp)
	leaq	l___unnamed_4(%rip), %rax
	movq	%rax, -56(%rbp)
	movq	$0, -48(%rbp)
	leaq	-88(%rbp), %rsi
	movq	%rbx, %rdi
	callq	__ZN4core3fmt9Formatter9write_fmt17h742ca6aae87ad23cE
	movl	%eax, %ecx
LBB63_9:
	movl	%ecx, %eax
	addq	$104, %rsp
	popq	%rbx
	popq	%r12
	popq	%r13
	popq	%r14
	popq	%r15
	popq	%rbp
	retq
	.cfi_endproc

	.globl	__ZN11packed_simd3v6496_$LT$impl$u20$core..fmt..Octal$u20$for$u20$packed_simd..Simd$LT$$u5b$i32$u3b$$u20$2$u5d$$GT$$GT$3fmt17h430789d273bcb083E
	.p2align	4, 0x90
__ZN11packed_simd3v6496_$LT$impl$u20$core..fmt..Octal$u20$for$u20$packed_simd..Simd$LT$$u5b$i32$u3b$$u20$2$u5d$$GT$$GT$3fmt17h430789d273bcb083E:
	.cfi_startproc
	pushq	%rbp
	.cfi_def_cfa_offset 16
	.cfi_offset %rbp, -16
	movq	%rsp, %rbp
	.cfi_def_cfa_register %rbp
	pushq	%r15
	pushq	%r14
	pushq	%r13
	pushq	%r12
	pushq	%rbx
	subq	$104, %rsp
	.cfi_offset %rbx, -56
	.cfi_offset %r12, -48
	.cfi_offset %r13, -40
	.cfi_offset %r14, -32
	.cfi_offset %r15, -24
	movq	%rsi, %rbx
	movq	%rdi, %r15
	leaq	l___unnamed_20(%rip), %rax
	movq	%rax, -104(%rbp)
	leaq	__ZN44_$LT$$RF$T$u20$as$u20$core..fmt..Display$GT$3fmt17h50ac1916d68fee72E(%rip), %rax
	movq	%rax, -96(%rbp)
	leaq	l___unnamed_2(%rip), %rax
	movq	%rax, -88(%rbp)
	movq	$2, -80(%rbp)
	movq	$0, -72(%rbp)
	leaq	-104(%rbp), %rax
	movq	%rax, -56(%rbp)
	movq	$1, -48(%rbp)
	leaq	-88(%rbp), %rsi
	movq	%rbx, %rdi
	callq	__ZN4core3fmt9Formatter9write_fmt17h742ca6aae87ad23cE
	movb	$1, %cl
	testb	%al, %al
	jne	LBB64_9
	movsd	(%r15), %xmm0
	movaps	%xmm0, -128(%rbp)
	xorl	%r14d, %r14d
	leaq	-88(%rbp), %r15
	leaq	l___unnamed_3(%rip), %r13
	jmp	LBB64_3
	.p2align	4, 0x90
LBB64_2:
	movaps	-128(%rbp), %xmm0
	movaps	%xmm0, -144(%rbp)
	leaq	1(%r14), %r12
	andl	$3, %r14d
	movl	-144(%rbp,%r14,4), %eax
	movl	%eax, -88(%rbp)
	movq	%r15, %rdi
	movq	%rbx, %rsi
	callq	__ZN4core3fmt3num50_$LT$impl$u20$core..fmt..Octal$u20$for$u20$i32$GT$3fmt17hacb618861fa6ae75E
	movq	%r12, %r14
	testb	%al, %al
	jne	LBB64_8
LBB64_3:
	cmpq	$2, %r14
	je	LBB64_7
	testq	%r14, %r14
	je	LBB64_2
	movq	%r13, -88(%rbp)
	movq	$1, -80(%rbp)
	movq	$0, -72(%rbp)
	leaq	l___unnamed_4(%rip), %rax
	movq	%rax, -56(%rbp)
	movq	$0, -48(%rbp)
	movq	%rbx, %rdi
	movq	%r15, %rsi
	callq	__ZN4core3fmt9Formatter9write_fmt17h742ca6aae87ad23cE
	testb	%al, %al
	je	LBB64_2
LBB64_8:
	movb	$1, %cl
	jmp	LBB64_9
LBB64_7:
	leaq	l___unnamed_5(%rip), %rax
	movq	%rax, -88(%rbp)
	movq	$1, -80(%rbp)
	movq	$0, -72(%rbp)
	leaq	l___unnamed_4(%rip), %rax
	movq	%rax, -56(%rbp)
	movq	$0, -48(%rbp)
	leaq	-88(%rbp), %rsi
	movq	%rbx, %rdi
	callq	__ZN4core3fmt9Formatter9write_fmt17h742ca6aae87ad23cE
	movl	%eax, %ecx
LBB64_9:
	movl	%ecx, %eax
	addq	$104, %rsp
	popq	%rbx
	popq	%r12
	popq	%r13
	popq	%r14
	popq	%r15
	popq	%rbp
	retq
	.cfi_endproc

	.globl	__ZN11packed_simd3v6497_$LT$impl$u20$core..fmt..Binary$u20$for$u20$packed_simd..Simd$LT$$u5b$i32$u3b$$u20$2$u5d$$GT$$GT$3fmt17h87168515ba50cf3bE
	.p2align	4, 0x90
__ZN11packed_simd3v6497_$LT$impl$u20$core..fmt..Binary$u20$for$u20$packed_simd..Simd$LT$$u5b$i32$u3b$$u20$2$u5d$$GT$$GT$3fmt17h87168515ba50cf3bE:
	.cfi_startproc
	pushq	%rbp
	.cfi_def_cfa_offset 16
	.cfi_offset %rbp, -16
	movq	%rsp, %rbp
	.cfi_def_cfa_register %rbp
	pushq	%r15
	pushq	%r14
	pushq	%r13
	pushq	%r12
	pushq	%rbx
	subq	$104, %rsp
	.cfi_offset %rbx, -56
	.cfi_offset %r12, -48
	.cfi_offset %r13, -40
	.cfi_offset %r14, -32
	.cfi_offset %r15, -24
	movq	%rsi, %rbx
	movq	%rdi, %r15
	leaq	l___unnamed_20(%rip), %rax
	movq	%rax, -104(%rbp)
	leaq	__ZN44_$LT$$RF$T$u20$as$u20$core..fmt..Display$GT$3fmt17h50ac1916d68fee72E(%rip), %rax
	movq	%rax, -96(%rbp)
	leaq	l___unnamed_2(%rip), %rax
	movq	%rax, -88(%rbp)
	movq	$2, -80(%rbp)
	movq	$0, -72(%rbp)
	leaq	-104(%rbp), %rax
	movq	%rax, -56(%rbp)
	movq	$1, -48(%rbp)
	leaq	-88(%rbp), %rsi
	movq	%rbx, %rdi
	callq	__ZN4core3fmt9Formatter9write_fmt17h742ca6aae87ad23cE
	movb	$1, %cl
	testb	%al, %al
	jne	LBB65_9
	movsd	(%r15), %xmm0
	movaps	%xmm0, -128(%rbp)
	xorl	%r14d, %r14d
	leaq	-88(%rbp), %r15
	leaq	l___unnamed_3(%rip), %r13
	jmp	LBB65_3
	.p2align	4, 0x90
LBB65_2:
	movaps	-128(%rbp), %xmm0
	movaps	%xmm0, -144(%rbp)
	leaq	1(%r14), %r12
	andl	$3, %r14d
	movl	-144(%rbp,%r14,4), %eax
	movl	%eax, -88(%rbp)
	movq	%r15, %rdi
	movq	%rbx, %rsi
	callq	__ZN4core3fmt3num51_$LT$impl$u20$core..fmt..Binary$u20$for$u20$i32$GT$3fmt17h7b899db2942c8b1cE
	movq	%r12, %r14
	testb	%al, %al
	jne	LBB65_8
LBB65_3:
	cmpq	$2, %r14
	je	LBB65_7
	testq	%r14, %r14
	je	LBB65_2
	movq	%r13, -88(%rbp)
	movq	$1, -80(%rbp)
	movq	$0, -72(%rbp)
	leaq	l___unnamed_4(%rip), %rax
	movq	%rax, -56(%rbp)
	movq	$0, -48(%rbp)
	movq	%rbx, %rdi
	movq	%r15, %rsi
	callq	__ZN4core3fmt9Formatter9write_fmt17h742ca6aae87ad23cE
	testb	%al, %al
	je	LBB65_2
LBB65_8:
	movb	$1, %cl
	jmp	LBB65_9
LBB65_7:
	leaq	l___unnamed_5(%rip), %rax
	movq	%rax, -88(%rbp)
	movq	$1, -80(%rbp)
	movq	$0, -72(%rbp)
	leaq	l___unnamed_4(%rip), %rax
	movq	%rax, -56(%rbp)
	movq	$0, -48(%rbp)
	leaq	-88(%rbp), %rsi
	movq	%rbx, %rdi
	callq	__ZN4core3fmt9Formatter9write_fmt17h742ca6aae87ad23cE
	movl	%eax, %ecx
LBB65_9:
	movl	%ecx, %eax
	addq	$104, %rsp
	popq	%rbx
	popq	%r12
	popq	%r13
	popq	%r14
	popq	%r15
	popq	%rbp
	retq
	.cfi_endproc

	.globl	__ZN11packed_simd3v6496_$LT$impl$u20$core..fmt..Debug$u20$for$u20$packed_simd..Simd$LT$$u5b$u32$u3b$$u20$2$u5d$$GT$$GT$3fmt17h77b467cd9546ef13E
	.p2align	4, 0x90
__ZN11packed_simd3v6496_$LT$impl$u20$core..fmt..Debug$u20$for$u20$packed_simd..Simd$LT$$u5b$u32$u3b$$u20$2$u5d$$GT$$GT$3fmt17h77b467cd9546ef13E:
	.cfi_startproc
	pushq	%rbp
	.cfi_def_cfa_offset 16
	.cfi_offset %rbp, -16
	movq	%rsp, %rbp
	.cfi_def_cfa_register %rbp
	pushq	%r15
	pushq	%r14
	pushq	%rbx
	subq	$88, %rsp
	.cfi_offset %rbx, -40
	.cfi_offset %r14, -32
	.cfi_offset %r15, -24
	movq	%rsi, %r15
	movq	%rdi, %rbx
	leaq	l___unnamed_21(%rip), %rax
	movq	%rax, -88(%rbp)
	leaq	__ZN44_$LT$$RF$T$u20$as$u20$core..fmt..Display$GT$3fmt17h50ac1916d68fee72E(%rip), %rax
	movq	%rax, -80(%rbp)
	leaq	l___unnamed_2(%rip), %rax
	movq	%rax, -72(%rbp)
	movq	$2, -64(%rbp)
	movq	$0, -56(%rbp)
	leaq	-88(%rbp), %rax
	movq	%rax, -40(%rbp)
	movq	$1, -32(%rbp)
	leaq	-72(%rbp), %rsi
	movq	%r15, %rdi
	callq	__ZN4core3fmt9Formatter9write_fmt17h742ca6aae87ad23cE
	movb	$1, %r14b
	testb	%al, %al
	jne	LBB66_12
	movq	(%rbx), %xmm0
	movdqa	%xmm0, -112(%rbp)
	movd	%xmm0, -72(%rbp)
	movq	%r15, %rdi
	callq	__ZN4core3fmt9Formatter15debug_lower_hex17hd07f6fde8d0365dfE
	testb	%al, %al
	je	LBB66_2
	leaq	-72(%rbp), %rdi
	movq	%r15, %rsi
	callq	__ZN4core3fmt3num53_$LT$impl$u20$core..fmt..LowerHex$u20$for$u20$u32$GT$3fmt17h019ba2b9dd60d385E
	testb	%al, %al
	je	LBB66_6
	jmp	LBB66_12
LBB66_2:
	movq	%r15, %rdi
	callq	__ZN4core3fmt9Formatter15debug_upper_hex17hf480c256a9c81c1eE
	leaq	-72(%rbp), %rdi
	movq	%r15, %rsi
	testb	%al, %al
	je	LBB66_4
	callq	__ZN4core3fmt3num53_$LT$impl$u20$core..fmt..UpperHex$u20$for$u20$u32$GT$3fmt17h7bd10b5f3c9584f1E
	testb	%al, %al
	je	LBB66_6
	jmp	LBB66_12
LBB66_4:
	callq	__ZN4core3fmt3num3imp52_$LT$impl$u20$core..fmt..Display$u20$for$u20$u32$GT$3fmt17hb70882cf65fd1a66E
	testb	%al, %al
	jne	LBB66_12
LBB66_6:
	leaq	l___unnamed_3(%rip), %rax
	movq	%rax, -72(%rbp)
	movq	$1, -64(%rbp)
	movq	$0, -56(%rbp)
	leaq	l___unnamed_4(%rip), %rbx
	movq	%rbx, -40(%rbp)
	movq	$0, -32(%rbp)
	leaq	-72(%rbp), %rsi
	movq	%r15, %rdi
	callq	__ZN4core3fmt9Formatter9write_fmt17h742ca6aae87ad23cE
	testb	%al, %al
	jne	LBB66_12
	pshufd	$229, -112(%rbp), %xmm0
	movd	%xmm0, -72(%rbp)
	movq	%r15, %rdi
	callq	__ZN4core3fmt9Formatter15debug_lower_hex17hd07f6fde8d0365dfE
	testb	%al, %al
	je	LBB66_8
	leaq	-72(%rbp), %rdi
	movq	%r15, %rsi
	callq	__ZN4core3fmt3num53_$LT$impl$u20$core..fmt..LowerHex$u20$for$u20$u32$GT$3fmt17h019ba2b9dd60d385E
	jmp	LBB66_10
LBB66_8:
	movq	%r15, %rdi
	callq	__ZN4core3fmt9Formatter15debug_upper_hex17hf480c256a9c81c1eE
	leaq	-72(%rbp), %rdi
	movq	%r15, %rsi
	testb	%al, %al
	je	LBB66_9
	callq	__ZN4core3fmt3num53_$LT$impl$u20$core..fmt..UpperHex$u20$for$u20$u32$GT$3fmt17h7bd10b5f3c9584f1E
	jmp	LBB66_10
LBB66_9:
	callq	__ZN4core3fmt3num3imp52_$LT$impl$u20$core..fmt..Display$u20$for$u20$u32$GT$3fmt17hb70882cf65fd1a66E
LBB66_10:
	testb	%al, %al
	jne	LBB66_12
	leaq	l___unnamed_5(%rip), %rax
	movq	%rax, -72(%rbp)
	movq	$1, -64(%rbp)
	movq	$0, -56(%rbp)
	movq	%rbx, -40(%rbp)
	movq	$0, -32(%rbp)
	leaq	-72(%rbp), %rsi
	movq	%r15, %rdi
	callq	__ZN4core3fmt9Formatter9write_fmt17h742ca6aae87ad23cE
	movl	%eax, %r14d
LBB66_12:
	movl	%r14d, %eax
	addq	$88, %rsp
	popq	%rbx
	popq	%r14
	popq	%r15
	popq	%rbp
	retq
	.cfi_endproc

	.globl	__ZN11packed_simd3v6499_$LT$impl$u20$core..fmt..LowerHex$u20$for$u20$packed_simd..Simd$LT$$u5b$u32$u3b$$u20$2$u5d$$GT$$GT$3fmt17h6b735a5287e36e40E
	.p2align	4, 0x90
__ZN11packed_simd3v6499_$LT$impl$u20$core..fmt..LowerHex$u20$for$u20$packed_simd..Simd$LT$$u5b$u32$u3b$$u20$2$u5d$$GT$$GT$3fmt17h6b735a5287e36e40E:
	.cfi_startproc
	pushq	%rbp
	.cfi_def_cfa_offset 16
	.cfi_offset %rbp, -16
	movq	%rsp, %rbp
	.cfi_def_cfa_register %rbp
	pushq	%r15
	pushq	%r14
	pushq	%r13
	pushq	%r12
	pushq	%rbx
	subq	$104, %rsp
	.cfi_offset %rbx, -56
	.cfi_offset %r12, -48
	.cfi_offset %r13, -40
	.cfi_offset %r14, -32
	.cfi_offset %r15, -24
	movq	%rsi, %rbx
	movq	%rdi, %r15
	leaq	l___unnamed_21(%rip), %rax
	movq	%rax, -104(%rbp)
	leaq	__ZN44_$LT$$RF$T$u20$as$u20$core..fmt..Display$GT$3fmt17h50ac1916d68fee72E(%rip), %rax
	movq	%rax, -96(%rbp)
	leaq	l___unnamed_2(%rip), %rax
	movq	%rax, -88(%rbp)
	movq	$2, -80(%rbp)
	movq	$0, -72(%rbp)
	leaq	-104(%rbp), %rax
	movq	%rax, -56(%rbp)
	movq	$1, -48(%rbp)
	leaq	-88(%rbp), %rsi
	movq	%rbx, %rdi
	callq	__ZN4core3fmt9Formatter9write_fmt17h742ca6aae87ad23cE
	movb	$1, %cl
	testb	%al, %al
	jne	LBB67_9
	movsd	(%r15), %xmm0
	movaps	%xmm0, -128(%rbp)
	xorl	%r14d, %r14d
	leaq	-88(%rbp), %r15
	leaq	l___unnamed_3(%rip), %r13
	jmp	LBB67_3
	.p2align	4, 0x90
LBB67_2:
	movaps	-128(%rbp), %xmm0
	movaps	%xmm0, -144(%rbp)
	leaq	1(%r14), %r12
	andl	$3, %r14d
	movl	-144(%rbp,%r14,4), %eax
	movl	%eax, -88(%rbp)
	movq	%r15, %rdi
	movq	%rbx, %rsi
	callq	__ZN4core3fmt3num53_$LT$impl$u20$core..fmt..LowerHex$u20$for$u20$u32$GT$3fmt17h019ba2b9dd60d385E
	movq	%r12, %r14
	testb	%al, %al
	jne	LBB67_8
LBB67_3:
	cmpq	$2, %r14
	je	LBB67_7
	testq	%r14, %r14
	je	LBB67_2
	movq	%r13, -88(%rbp)
	movq	$1, -80(%rbp)
	movq	$0, -72(%rbp)
	leaq	l___unnamed_4(%rip), %rax
	movq	%rax, -56(%rbp)
	movq	$0, -48(%rbp)
	movq	%rbx, %rdi
	movq	%r15, %rsi
	callq	__ZN4core3fmt9Formatter9write_fmt17h742ca6aae87ad23cE
	testb	%al, %al
	je	LBB67_2
LBB67_8:
	movb	$1, %cl
	jmp	LBB67_9
LBB67_7:
	leaq	l___unnamed_5(%rip), %rax
	movq	%rax, -88(%rbp)
	movq	$1, -80(%rbp)
	movq	$0, -72(%rbp)
	leaq	l___unnamed_4(%rip), %rax
	movq	%rax, -56(%rbp)
	movq	$0, -48(%rbp)
	leaq	-88(%rbp), %rsi
	movq	%rbx, %rdi
	callq	__ZN4core3fmt9Formatter9write_fmt17h742ca6aae87ad23cE
	movl	%eax, %ecx
LBB67_9:
	movl	%ecx, %eax
	addq	$104, %rsp
	popq	%rbx
	popq	%r12
	popq	%r13
	popq	%r14
	popq	%r15
	popq	%rbp
	retq
	.cfi_endproc

	.globl	__ZN11packed_simd3v6499_$LT$impl$u20$core..fmt..UpperHex$u20$for$u20$packed_simd..Simd$LT$$u5b$u32$u3b$$u20$2$u5d$$GT$$GT$3fmt17h617f136a4bcad732E
	.p2align	4, 0x90
__ZN11packed_simd3v6499_$LT$impl$u20$core..fmt..UpperHex$u20$for$u20$packed_simd..Simd$LT$$u5b$u32$u3b$$u20$2$u5d$$GT$$GT$3fmt17h617f136a4bcad732E:
	.cfi_startproc
	pushq	%rbp
	.cfi_def_cfa_offset 16
	.cfi_offset %rbp, -16
	movq	%rsp, %rbp
	.cfi_def_cfa_register %rbp
	pushq	%r15
	pushq	%r14
	pushq	%r13
	pushq	%r12
	pushq	%rbx
	subq	$104, %rsp
	.cfi_offset %rbx, -56
	.cfi_offset %r12, -48
	.cfi_offset %r13, -40
	.cfi_offset %r14, -32
	.cfi_offset %r15, -24
	movq	%rsi, %rbx
	movq	%rdi, %r15
	leaq	l___unnamed_21(%rip), %rax
	movq	%rax, -104(%rbp)
	leaq	__ZN44_$LT$$RF$T$u20$as$u20$core..fmt..Display$GT$3fmt17h50ac1916d68fee72E(%rip), %rax
	movq	%rax, -96(%rbp)
	leaq	l___unnamed_2(%rip), %rax
	movq	%rax, -88(%rbp)
	movq	$2, -80(%rbp)
	movq	$0, -72(%rbp)
	leaq	-104(%rbp), %rax
	movq	%rax, -56(%rbp)
	movq	$1, -48(%rbp)
	leaq	-88(%rbp), %rsi
	movq	%rbx, %rdi
	callq	__ZN4core3fmt9Formatter9write_fmt17h742ca6aae87ad23cE
	movb	$1, %cl
	testb	%al, %al
	jne	LBB68_9
	movsd	(%r15), %xmm0
	movaps	%xmm0, -128(%rbp)
	xorl	%r14d, %r14d
	leaq	-88(%rbp), %r15
	leaq	l___unnamed_3(%rip), %r13
	jmp	LBB68_3
	.p2align	4, 0x90
LBB68_2:
	movaps	-128(%rbp), %xmm0
	movaps	%xmm0, -144(%rbp)
	leaq	1(%r14), %r12
	andl	$3, %r14d
	movl	-144(%rbp,%r14,4), %eax
	movl	%eax, -88(%rbp)
	movq	%r15, %rdi
	movq	%rbx, %rsi
	callq	__ZN4core3fmt3num53_$LT$impl$u20$core..fmt..UpperHex$u20$for$u20$u32$GT$3fmt17h7bd10b5f3c9584f1E
	movq	%r12, %r14
	testb	%al, %al
	jne	LBB68_8
LBB68_3:
	cmpq	$2, %r14
	je	LBB68_7
	testq	%r14, %r14
	je	LBB68_2
	movq	%r13, -88(%rbp)
	movq	$1, -80(%rbp)
	movq	$0, -72(%rbp)
	leaq	l___unnamed_4(%rip), %rax
	movq	%rax, -56(%rbp)
	movq	$0, -48(%rbp)
	movq	%rbx, %rdi
	movq	%r15, %rsi
	callq	__ZN4core3fmt9Formatter9write_fmt17h742ca6aae87ad23cE
	testb	%al, %al
	je	LBB68_2
LBB68_8:
	movb	$1, %cl
	jmp	LBB68_9
LBB68_7:
	leaq	l___unnamed_5(%rip), %rax
	movq	%rax, -88(%rbp)
	movq	$1, -80(%rbp)
	movq	$0, -72(%rbp)
	leaq	l___unnamed_4(%rip), %rax
	movq	%rax, -56(%rbp)
	movq	$0, -48(%rbp)
	leaq	-88(%rbp), %rsi
	movq	%rbx, %rdi
	callq	__ZN4core3fmt9Formatter9write_fmt17h742ca6aae87ad23cE
	movl	%eax, %ecx
LBB68_9:
	movl	%ecx, %eax
	addq	$104, %rsp
	popq	%rbx
	popq	%r12
	popq	%r13
	popq	%r14
	popq	%r15
	popq	%rbp
	retq
	.cfi_endproc

	.globl	__ZN11packed_simd3v6496_$LT$impl$u20$core..fmt..Octal$u20$for$u20$packed_simd..Simd$LT$$u5b$u32$u3b$$u20$2$u5d$$GT$$GT$3fmt17h73f8da3d94ca1864E
	.p2align	4, 0x90
__ZN11packed_simd3v6496_$LT$impl$u20$core..fmt..Octal$u20$for$u20$packed_simd..Simd$LT$$u5b$u32$u3b$$u20$2$u5d$$GT$$GT$3fmt17h73f8da3d94ca1864E:
	.cfi_startproc
	pushq	%rbp
	.cfi_def_cfa_offset 16
	.cfi_offset %rbp, -16
	movq	%rsp, %rbp
	.cfi_def_cfa_register %rbp
	pushq	%r15
	pushq	%r14
	pushq	%r13
	pushq	%r12
	pushq	%rbx
	subq	$104, %rsp
	.cfi_offset %rbx, -56
	.cfi_offset %r12, -48
	.cfi_offset %r13, -40
	.cfi_offset %r14, -32
	.cfi_offset %r15, -24
	movq	%rsi, %rbx
	movq	%rdi, %r15
	leaq	l___unnamed_21(%rip), %rax
	movq	%rax, -104(%rbp)
	leaq	__ZN44_$LT$$RF$T$u20$as$u20$core..fmt..Display$GT$3fmt17h50ac1916d68fee72E(%rip), %rax
	movq	%rax, -96(%rbp)
	leaq	l___unnamed_2(%rip), %rax
	movq	%rax, -88(%rbp)
	movq	$2, -80(%rbp)
	movq	$0, -72(%rbp)
	leaq	-104(%rbp), %rax
	movq	%rax, -56(%rbp)
	movq	$1, -48(%rbp)
	leaq	-88(%rbp), %rsi
	movq	%rbx, %rdi
	callq	__ZN4core3fmt9Formatter9write_fmt17h742ca6aae87ad23cE
	movb	$1, %cl
	testb	%al, %al
	jne	LBB69_9
	movsd	(%r15), %xmm0
	movaps	%xmm0, -128(%rbp)
	xorl	%r14d, %r14d
	leaq	-88(%rbp), %r15
	leaq	l___unnamed_3(%rip), %r13
	jmp	LBB69_3
	.p2align	4, 0x90
LBB69_2:
	movaps	-128(%rbp), %xmm0
	movaps	%xmm0, -144(%rbp)
	leaq	1(%r14), %r12
	andl	$3, %r14d
	movl	-144(%rbp,%r14,4), %eax
	movl	%eax, -88(%rbp)
	movq	%r15, %rdi
	movq	%rbx, %rsi
	callq	__ZN4core3fmt3num50_$LT$impl$u20$core..fmt..Octal$u20$for$u20$u32$GT$3fmt17hd579135e6fb890dfE
	movq	%r12, %r14
	testb	%al, %al
	jne	LBB69_8
LBB69_3:
	cmpq	$2, %r14
	je	LBB69_7
	testq	%r14, %r14
	je	LBB69_2
	movq	%r13, -88(%rbp)
	movq	$1, -80(%rbp)
	movq	$0, -72(%rbp)
	leaq	l___unnamed_4(%rip), %rax
	movq	%rax, -56(%rbp)
	movq	$0, -48(%rbp)
	movq	%rbx, %rdi
	movq	%r15, %rsi
	callq	__ZN4core3fmt9Formatter9write_fmt17h742ca6aae87ad23cE
	testb	%al, %al
	je	LBB69_2
LBB69_8:
	movb	$1, %cl
	jmp	LBB69_9
LBB69_7:
	leaq	l___unnamed_5(%rip), %rax
	movq	%rax, -88(%rbp)
	movq	$1, -80(%rbp)
	movq	$0, -72(%rbp)
	leaq	l___unnamed_4(%rip), %rax
	movq	%rax, -56(%rbp)
	movq	$0, -48(%rbp)
	leaq	-88(%rbp), %rsi
	movq	%rbx, %rdi
	callq	__ZN4core3fmt9Formatter9write_fmt17h742ca6aae87ad23cE
	movl	%eax, %ecx
LBB69_9:
	movl	%ecx, %eax
	addq	$104, %rsp
	popq	%rbx
	popq	%r12
	popq	%r13
	popq	%r14
	popq	%r15
	popq	%rbp
	retq
	.cfi_endproc

	.globl	__ZN11packed_simd3v6497_$LT$impl$u20$core..fmt..Binary$u20$for$u20$packed_simd..Simd$LT$$u5b$u32$u3b$$u20$2$u5d$$GT$$GT$3fmt17h1d737ef792748c44E
	.p2align	4, 0x90
__ZN11packed_simd3v6497_$LT$impl$u20$core..fmt..Binary$u20$for$u20$packed_simd..Simd$LT$$u5b$u32$u3b$$u20$2$u5d$$GT$$GT$3fmt17h1d737ef792748c44E:
	.cfi_startproc
	pushq	%rbp
	.cfi_def_cfa_offset 16
	.cfi_offset %rbp, -16
	movq	%rsp, %rbp
	.cfi_def_cfa_register %rbp
	pushq	%r15
	pushq	%r14
	pushq	%r13
	pushq	%r12
	pushq	%rbx
	subq	$104, %rsp
	.cfi_offset %rbx, -56
	.cfi_offset %r12, -48
	.cfi_offset %r13, -40
	.cfi_offset %r14, -32
	.cfi_offset %r15, -24
	movq	%rsi, %rbx
	movq	%rdi, %r15
	leaq	l___unnamed_21(%rip), %rax
	movq	%rax, -104(%rbp)
	leaq	__ZN44_$LT$$RF$T$u20$as$u20$core..fmt..Display$GT$3fmt17h50ac1916d68fee72E(%rip), %rax
	movq	%rax, -96(%rbp)
	leaq	l___unnamed_2(%rip), %rax
	movq	%rax, -88(%rbp)
	movq	$2, -80(%rbp)
	movq	$0, -72(%rbp)
	leaq	-104(%rbp), %rax
	movq	%rax, -56(%rbp)
	movq	$1, -48(%rbp)
	leaq	-88(%rbp), %rsi
	movq	%rbx, %rdi
	callq	__ZN4core3fmt9Formatter9write_fmt17h742ca6aae87ad23cE
	movb	$1, %cl
	testb	%al, %al
	jne	LBB70_9
	movsd	(%r15), %xmm0
	movaps	%xmm0, -128(%rbp)
	xorl	%r14d, %r14d
	leaq	-88(%rbp), %r15
	leaq	l___unnamed_3(%rip), %r13
	jmp	LBB70_3
	.p2align	4, 0x90
LBB70_2:
	movaps	-128(%rbp), %xmm0
	movaps	%xmm0, -144(%rbp)
	leaq	1(%r14), %r12
	andl	$3, %r14d
	movl	-144(%rbp,%r14,4), %eax
	movl	%eax, -88(%rbp)
	movq	%r15, %rdi
	movq	%rbx, %rsi
	callq	__ZN4core3fmt3num51_$LT$impl$u20$core..fmt..Binary$u20$for$u20$u32$GT$3fmt17h6dfa1239c95462bbE
	movq	%r12, %r14
	testb	%al, %al
	jne	LBB70_8
LBB70_3:
	cmpq	$2, %r14
	je	LBB70_7
	testq	%r14, %r14
	je	LBB70_2
	movq	%r13, -88(%rbp)
	movq	$1, -80(%rbp)
	movq	$0, -72(%rbp)
	leaq	l___unnamed_4(%rip), %rax
	movq	%rax, -56(%rbp)
	movq	$0, -48(%rbp)
	movq	%rbx, %rdi
	movq	%r15, %rsi
	callq	__ZN4core3fmt9Formatter9write_fmt17h742ca6aae87ad23cE
	testb	%al, %al
	je	LBB70_2
LBB70_8:
	movb	$1, %cl
	jmp	LBB70_9
LBB70_7:
	leaq	l___unnamed_5(%rip), %rax
	movq	%rax, -88(%rbp)
	movq	$1, -80(%rbp)
	movq	$0, -72(%rbp)
	leaq	l___unnamed_4(%rip), %rax
	movq	%rax, -56(%rbp)
	movq	$0, -48(%rbp)
	leaq	-88(%rbp), %rsi
	movq	%rbx, %rdi
	callq	__ZN4core3fmt9Formatter9write_fmt17h742ca6aae87ad23cE
	movl	%eax, %ecx
LBB70_9:
	movl	%ecx, %eax
	addq	$104, %rsp
	popq	%rbx
	popq	%r12
	popq	%r13
	popq	%r14
	popq	%r15
	popq	%rbp
	retq
	.cfi_endproc

	.globl	__ZN11packed_simd3v64116_$LT$impl$u20$core..fmt..Debug$u20$for$u20$packed_simd..Simd$LT$$u5b$packed_simd..masks..m32$u3b$$u20$2$u5d$$GT$$GT$3fmt17hb64124370e9fb278E
	.p2align	4, 0x90
__ZN11packed_simd3v64116_$LT$impl$u20$core..fmt..Debug$u20$for$u20$packed_simd..Simd$LT$$u5b$packed_simd..masks..m32$u3b$$u20$2$u5d$$GT$$GT$3fmt17hb64124370e9fb278E:
	.cfi_startproc
	pushq	%rbp
	.cfi_def_cfa_offset 16
	.cfi_offset %rbp, -16
	movq	%rsp, %rbp
	.cfi_def_cfa_register %rbp
	pushq	%r15
	pushq	%r14
	pushq	%r13
	pushq	%r12
	pushq	%rbx
	subq	$104, %rsp
	.cfi_offset %rbx, -56
	.cfi_offset %r12, -48
	.cfi_offset %r13, -40
	.cfi_offset %r14, -32
	.cfi_offset %r15, -24
	movq	%rsi, %rbx
	movq	%rdi, %r15
	leaq	l___unnamed_22(%rip), %rax
	movq	%rax, -104(%rbp)
	leaq	__ZN44_$LT$$RF$T$u20$as$u20$core..fmt..Display$GT$3fmt17h50ac1916d68fee72E(%rip), %rax
	movq	%rax, -96(%rbp)
	leaq	l___unnamed_2(%rip), %rax
	movq	%rax, -88(%rbp)
	movq	$2, -80(%rbp)
	movq	$0, -72(%rbp)
	leaq	-104(%rbp), %rax
	movq	%rax, -56(%rbp)
	movq	$1, -48(%rbp)
	leaq	-88(%rbp), %rsi
	movq	%rbx, %rdi
	callq	__ZN4core3fmt9Formatter9write_fmt17h742ca6aae87ad23cE
	movb	$1, %cl
	testb	%al, %al
	jne	LBB71_9
	movsd	(%r15), %xmm0
	movaps	%xmm0, -128(%rbp)
	xorl	%r14d, %r14d
	leaq	-88(%rbp), %r15
	leaq	l___unnamed_3(%rip), %r13
	jmp	LBB71_3
	.p2align	4, 0x90
LBB71_2:
	movaps	-128(%rbp), %xmm0
	movaps	%xmm0, -144(%rbp)
	leaq	1(%r14), %r12
	andl	$3, %r14d
	cmpl	$0, -144(%rbp,%r14,4)
	setne	-88(%rbp)
	movq	%r15, %rdi
	movq	%rbx, %rsi
	callq	__ZN43_$LT$bool$u20$as$u20$core..fmt..Display$GT$3fmt17hd78396651a24cfbbE
	movq	%r12, %r14
	testb	%al, %al
	jne	LBB71_8
LBB71_3:
	cmpq	$2, %r14
	je	LBB71_7
	testq	%r14, %r14
	je	LBB71_2
	movq	%r13, -88(%rbp)
	movq	$1, -80(%rbp)
	movq	$0, -72(%rbp)
	leaq	l___unnamed_4(%rip), %rax
	movq	%rax, -56(%rbp)
	movq	$0, -48(%rbp)
	movq	%rbx, %rdi
	movq	%r15, %rsi
	callq	__ZN4core3fmt9Formatter9write_fmt17h742ca6aae87ad23cE
	testb	%al, %al
	je	LBB71_2
LBB71_8:
	movb	$1, %cl
	jmp	LBB71_9
LBB71_7:
	leaq	l___unnamed_5(%rip), %rax
	movq	%rax, -88(%rbp)
	movq	$1, -80(%rbp)
	movq	$0, -72(%rbp)
	leaq	l___unnamed_4(%rip), %rax
	movq	%rax, -56(%rbp)
	movq	$0, -48(%rbp)
	leaq	-88(%rbp), %rsi
	movq	%rbx, %rdi
	callq	__ZN4core3fmt9Formatter9write_fmt17h742ca6aae87ad23cE
	movl	%eax, %ecx
LBB71_9:
	movl	%ecx, %eax
	addq	$104, %rsp
	popq	%rbx
	popq	%r12
	popq	%r13
	popq	%r14
	popq	%r15
	popq	%rbp
	retq
	.cfi_endproc

	.globl	__ZN11packed_simd3v6496_$LT$impl$u20$core..fmt..Debug$u20$for$u20$packed_simd..Simd$LT$$u5b$f32$u3b$$u20$2$u5d$$GT$$GT$3fmt17hbba4c870588a99f3E
	.p2align	4, 0x90
__ZN11packed_simd3v6496_$LT$impl$u20$core..fmt..Debug$u20$for$u20$packed_simd..Simd$LT$$u5b$f32$u3b$$u20$2$u5d$$GT$$GT$3fmt17hbba4c870588a99f3E:
	.cfi_startproc
	pushq	%rbp
	.cfi_def_cfa_offset 16
	.cfi_offset %rbp, -16
	movq	%rsp, %rbp
	.cfi_def_cfa_register %rbp
	pushq	%r15
	pushq	%r14
	pushq	%r13
	pushq	%r12
	pushq	%rbx
	subq	$104, %rsp
	.cfi_offset %rbx, -56
	.cfi_offset %r12, -48
	.cfi_offset %r13, -40
	.cfi_offset %r14, -32
	.cfi_offset %r15, -24
	movq	%rsi, %rbx
	movq	%rdi, %r15
	leaq	l___unnamed_23(%rip), %rax
	movq	%rax, -104(%rbp)
	leaq	__ZN44_$LT$$RF$T$u20$as$u20$core..fmt..Display$GT$3fmt17h50ac1916d68fee72E(%rip), %rax
	movq	%rax, -96(%rbp)
	leaq	l___unnamed_2(%rip), %rax
	movq	%rax, -88(%rbp)
	movq	$2, -80(%rbp)
	movq	$0, -72(%rbp)
	leaq	-104(%rbp), %rax
	movq	%rax, -56(%rbp)
	movq	$1, -48(%rbp)
	leaq	-88(%rbp), %rsi
	movq	%rbx, %rdi
	callq	__ZN4core3fmt9Formatter9write_fmt17h742ca6aae87ad23cE
	movb	$1, %cl
	testb	%al, %al
	jne	LBB72_9
	movsd	(%r15), %xmm0
	movaps	%xmm0, -128(%rbp)
	xorl	%r14d, %r14d
	leaq	-88(%rbp), %r15
	leaq	l___unnamed_3(%rip), %r13
	jmp	LBB72_3
	.p2align	4, 0x90
LBB72_2:
	movaps	-128(%rbp), %xmm0
	movaps	%xmm0, -144(%rbp)
	leaq	1(%r14), %r12
	andl	$3, %r14d
	movss	-144(%rbp,%r14,4), %xmm0
	movss	%xmm0, -88(%rbp)
	movq	%r15, %rdi
	movq	%rbx, %rsi
	callq	__ZN4core3fmt5float50_$LT$impl$u20$core..fmt..Debug$u20$for$u20$f32$GT$3fmt17ha9420faa99d1b790E
	movq	%r12, %r14
	testb	%al, %al
	jne	LBB72_8
LBB72_3:
	cmpq	$2, %r14
	je	LBB72_7
	testq	%r14, %r14
	je	LBB72_2
	movq	%r13, -88(%rbp)
	movq	$1, -80(%rbp)
	movq	$0, -72(%rbp)
	leaq	l___unnamed_4(%rip), %rax
	movq	%rax, -56(%rbp)
	movq	$0, -48(%rbp)
	movq	%rbx, %rdi
	movq	%r15, %rsi
	callq	__ZN4core3fmt9Formatter9write_fmt17h742ca6aae87ad23cE
	testb	%al, %al
	je	LBB72_2
LBB72_8:
	movb	$1, %cl
	jmp	LBB72_9
LBB72_7:
	leaq	l___unnamed_5(%rip), %rax
	movq	%rax, -88(%rbp)
	movq	$1, -80(%rbp)
	movq	$0, -72(%rbp)
	leaq	l___unnamed_4(%rip), %rax
	movq	%rax, -56(%rbp)
	movq	$0, -48(%rbp)
	leaq	-88(%rbp), %rsi
	movq	%rbx, %rdi
	callq	__ZN4core3fmt9Formatter9write_fmt17h742ca6aae87ad23cE
	movl	%eax, %ecx
LBB72_9:
	movl	%ecx, %eax
	addq	$104, %rsp
	popq	%rbx
	popq	%r12
	popq	%r13
	popq	%r14
	popq	%r15
	popq	%rbp
	retq
	.cfi_endproc

	.globl	__ZN11packed_simd4v12896_$LT$impl$u20$core..fmt..Debug$u20$for$u20$packed_simd..Simd$LT$$u5b$i8$u3b$$u20$16$u5d$$GT$$GT$3fmt17h6ced89dca46871b1E
	.p2align	4, 0x90
__ZN11packed_simd4v12896_$LT$impl$u20$core..fmt..Debug$u20$for$u20$packed_simd..Simd$LT$$u5b$i8$u3b$$u20$16$u5d$$GT$$GT$3fmt17h6ced89dca46871b1E:
	.cfi_startproc
	pushq	%rbp
	.cfi_def_cfa_offset 16
	.cfi_offset %rbp, -16
	movq	%rsp, %rbp
	.cfi_def_cfa_register %rbp
	pushq	%r15
	pushq	%r14
	pushq	%r13
	pushq	%r12
	pushq	%rbx
	subq	$104, %rsp
	.cfi_offset %rbx, -56
	.cfi_offset %r12, -48
	.cfi_offset %r13, -40
	.cfi_offset %r14, -32
	.cfi_offset %r15, -24
	movq	%rsi, %r13
	movq	%rdi, %r15
	leaq	l___unnamed_24(%rip), %rax
	movq	%rax, -104(%rbp)
	leaq	__ZN44_$LT$$RF$T$u20$as$u20$core..fmt..Display$GT$3fmt17h50ac1916d68fee72E(%rip), %rax
	movq	%rax, -96(%rbp)
	leaq	l___unnamed_2(%rip), %rax
	movq	%rax, -88(%rbp)
	movq	$2, -80(%rbp)
	movq	$0, -72(%rbp)
	leaq	-104(%rbp), %rax
	movq	%rax, -56(%rbp)
	movq	$1, -48(%rbp)
	leaq	-88(%rbp), %rsi
	movq	%r13, %rdi
	callq	__ZN4core3fmt9Formatter9write_fmt17h742ca6aae87ad23cE
	movb	$1, %cl
	testb	%al, %al
	jne	LBB73_13
	movaps	(%r15), %xmm0
	movaps	%xmm0, -128(%rbp)
	xorl	%ebx, %ebx
	leaq	-88(%rbp), %r15
	leaq	l___unnamed_3(%rip), %r14
	leaq	l___unnamed_4(%rip), %r12
	jmp	LBB73_2
	.p2align	4, 0x90
LBB73_5:
	movq	%r15, %rdi
	movq	%r13, %rsi
	callq	__ZN4core3fmt3num52_$LT$impl$u20$core..fmt..LowerHex$u20$for$u20$i8$GT$3fmt17h5ba2f2472d1b08b3E
	testb	%al, %al
	jne	LBB73_12
LBB73_9:
	incq	%rbx
	cmpq	$16, %rbx
	je	LBB73_10
LBB73_2:
	testq	%rbx, %rbx
	je	LBB73_4
	movq	%r14, -88(%rbp)
	movq	$1, -80(%rbp)
	movq	$0, -72(%rbp)
	movq	%r12, -56(%rbp)
	movq	$0, -48(%rbp)
	movq	%r13, %rdi
	movq	%r15, %rsi
	callq	__ZN4core3fmt9Formatter9write_fmt17h742ca6aae87ad23cE
	testb	%al, %al
	jne	LBB73_12
LBB73_4:
	movaps	-128(%rbp), %xmm0
	movaps	%xmm0, -144(%rbp)
	movl	%ebx, %eax
	andl	$15, %eax
	movzbl	-144(%rbp,%rax), %eax
	movb	%al, -88(%rbp)
	movq	%r13, %rdi
	callq	__ZN4core3fmt9Formatter15debug_lower_hex17hd07f6fde8d0365dfE
	testb	%al, %al
	jne	LBB73_5
	movq	%r13, %rdi
	callq	__ZN4core3fmt9Formatter15debug_upper_hex17hf480c256a9c81c1eE
	movq	%r15, %rdi
	movq	%r13, %rsi
	testb	%al, %al
	je	LBB73_8
	callq	__ZN4core3fmt3num52_$LT$impl$u20$core..fmt..UpperHex$u20$for$u20$i8$GT$3fmt17h36a1c2413d99c98eE
	testb	%al, %al
	je	LBB73_9
	jmp	LBB73_12
	.p2align	4, 0x90
LBB73_8:
	callq	__ZN4core3fmt3num3imp51_$LT$impl$u20$core..fmt..Display$u20$for$u20$i8$GT$3fmt17hc9fc67837369c997E
	testb	%al, %al
	je	LBB73_9
LBB73_12:
	movb	$1, %cl
	jmp	LBB73_13
LBB73_10:
	leaq	l___unnamed_5(%rip), %rax
	movq	%rax, -88(%rbp)
	movq	$1, -80(%rbp)
	movq	$0, -72(%rbp)
	movq	%r12, -56(%rbp)
	movq	$0, -48(%rbp)
	leaq	-88(%rbp), %rsi
	movq	%r13, %rdi
	callq	__ZN4core3fmt9Formatter9write_fmt17h742ca6aae87ad23cE
	movl	%eax, %ecx
LBB73_13:
	movl	%ecx, %eax
	addq	$104, %rsp
	popq	%rbx
	popq	%r12
	popq	%r13
	popq	%r14
	popq	%r15
	popq	%rbp
	retq
	.cfi_endproc

	.globl	__ZN11packed_simd4v12899_$LT$impl$u20$core..fmt..LowerHex$u20$for$u20$packed_simd..Simd$LT$$u5b$i8$u3b$$u20$16$u5d$$GT$$GT$3fmt17hfcdf9d50365b1c60E
	.p2align	4, 0x90
__ZN11packed_simd4v12899_$LT$impl$u20$core..fmt..LowerHex$u20$for$u20$packed_simd..Simd$LT$$u5b$i8$u3b$$u20$16$u5d$$GT$$GT$3fmt17hfcdf9d50365b1c60E:
	.cfi_startproc
	pushq	%rbp
	.cfi_def_cfa_offset 16
	.cfi_offset %rbp, -16
	movq	%rsp, %rbp
	.cfi_def_cfa_register %rbp
	pushq	%r15
	pushq	%r14
	pushq	%r13
	pushq	%r12
	pushq	%rbx
	subq	$104, %rsp
	.cfi_offset %rbx, -56
	.cfi_offset %r12, -48
	.cfi_offset %r13, -40
	.cfi_offset %r14, -32
	.cfi_offset %r15, -24
	movq	%rsi, %rbx
	movq	%rdi, %r15
	leaq	l___unnamed_24(%rip), %rax
	movq	%rax, -104(%rbp)
	leaq	__ZN44_$LT$$RF$T$u20$as$u20$core..fmt..Display$GT$3fmt17h50ac1916d68fee72E(%rip), %rax
	movq	%rax, -96(%rbp)
	leaq	l___unnamed_2(%rip), %rax
	movq	%rax, -88(%rbp)
	movq	$2, -80(%rbp)
	movq	$0, -72(%rbp)
	leaq	-104(%rbp), %rax
	movq	%rax, -56(%rbp)
	movq	$1, -48(%rbp)
	leaq	-88(%rbp), %rsi
	movq	%rbx, %rdi
	callq	__ZN4core3fmt9Formatter9write_fmt17h742ca6aae87ad23cE
	movb	$1, %cl
	testb	%al, %al
	jne	LBB74_9
	movaps	(%r15), %xmm0
	movaps	%xmm0, -128(%rbp)
	xorl	%r14d, %r14d
	leaq	-88(%rbp), %r15
	leaq	l___unnamed_3(%rip), %r13
	jmp	LBB74_3
	.p2align	4, 0x90
LBB74_2:
	movaps	-128(%rbp), %xmm0
	movaps	%xmm0, -144(%rbp)
	leaq	1(%r14), %r12
	andl	$15, %r14d
	movzbl	-144(%rbp,%r14), %eax
	movb	%al, -88(%rbp)
	movq	%r15, %rdi
	movq	%rbx, %rsi
	callq	__ZN4core3fmt3num52_$LT$impl$u20$core..fmt..LowerHex$u20$for$u20$i8$GT$3fmt17h5ba2f2472d1b08b3E
	movq	%r12, %r14
	testb	%al, %al
	jne	LBB74_8
LBB74_3:
	cmpq	$16, %r14
	je	LBB74_7
	testq	%r14, %r14
	je	LBB74_2
	movq	%r13, -88(%rbp)
	movq	$1, -80(%rbp)
	movq	$0, -72(%rbp)
	leaq	l___unnamed_4(%rip), %rax
	movq	%rax, -56(%rbp)
	movq	$0, -48(%rbp)
	movq	%rbx, %rdi
	movq	%r15, %rsi
	callq	__ZN4core3fmt9Formatter9write_fmt17h742ca6aae87ad23cE
	testb	%al, %al
	je	LBB74_2
LBB74_8:
	movb	$1, %cl
	jmp	LBB74_9
LBB74_7:
	leaq	l___unnamed_5(%rip), %rax
	movq	%rax, -88(%rbp)
	movq	$1, -80(%rbp)
	movq	$0, -72(%rbp)
	leaq	l___unnamed_4(%rip), %rax
	movq	%rax, -56(%rbp)
	movq	$0, -48(%rbp)
	leaq	-88(%rbp), %rsi
	movq	%rbx, %rdi
	callq	__ZN4core3fmt9Formatter9write_fmt17h742ca6aae87ad23cE
	movl	%eax, %ecx
LBB74_9:
	movl	%ecx, %eax
	addq	$104, %rsp
	popq	%rbx
	popq	%r12
	popq	%r13
	popq	%r14
	popq	%r15
	popq	%rbp
	retq
	.cfi_endproc

	.globl	__ZN11packed_simd4v12899_$LT$impl$u20$core..fmt..UpperHex$u20$for$u20$packed_simd..Simd$LT$$u5b$i8$u3b$$u20$16$u5d$$GT$$GT$3fmt17h89be189d92acd077E
	.p2align	4, 0x90
__ZN11packed_simd4v12899_$LT$impl$u20$core..fmt..UpperHex$u20$for$u20$packed_simd..Simd$LT$$u5b$i8$u3b$$u20$16$u5d$$GT$$GT$3fmt17h89be189d92acd077E:
	.cfi_startproc
	pushq	%rbp
	.cfi_def_cfa_offset 16
	.cfi_offset %rbp, -16
	movq	%rsp, %rbp
	.cfi_def_cfa_register %rbp
	pushq	%r15
	pushq	%r14
	pushq	%r13
	pushq	%r12
	pushq	%rbx
	subq	$104, %rsp
	.cfi_offset %rbx, -56
	.cfi_offset %r12, -48
	.cfi_offset %r13, -40
	.cfi_offset %r14, -32
	.cfi_offset %r15, -24
	movq	%rsi, %rbx
	movq	%rdi, %r15
	leaq	l___unnamed_24(%rip), %rax
	movq	%rax, -104(%rbp)
	leaq	__ZN44_$LT$$RF$T$u20$as$u20$core..fmt..Display$GT$3fmt17h50ac1916d68fee72E(%rip), %rax
	movq	%rax, -96(%rbp)
	leaq	l___unnamed_2(%rip), %rax
	movq	%rax, -88(%rbp)
	movq	$2, -80(%rbp)
	movq	$0, -72(%rbp)
	leaq	-104(%rbp), %rax
	movq	%rax, -56(%rbp)
	movq	$1, -48(%rbp)
	leaq	-88(%rbp), %rsi
	movq	%rbx, %rdi
	callq	__ZN4core3fmt9Formatter9write_fmt17h742ca6aae87ad23cE
	movb	$1, %cl
	testb	%al, %al
	jne	LBB75_9
	movaps	(%r15), %xmm0
	movaps	%xmm0, -128(%rbp)
	xorl	%r14d, %r14d
	leaq	-88(%rbp), %r15
	leaq	l___unnamed_3(%rip), %r13
	jmp	LBB75_3
	.p2align	4, 0x90
LBB75_2:
	movaps	-128(%rbp), %xmm0
	movaps	%xmm0, -144(%rbp)
	leaq	1(%r14), %r12
	andl	$15, %r14d
	movzbl	-144(%rbp,%r14), %eax
	movb	%al, -88(%rbp)
	movq	%r15, %rdi
	movq	%rbx, %rsi
	callq	__ZN4core3fmt3num52_$LT$impl$u20$core..fmt..UpperHex$u20$for$u20$i8$GT$3fmt17h36a1c2413d99c98eE
	movq	%r12, %r14
	testb	%al, %al
	jne	LBB75_8
LBB75_3:
	cmpq	$16, %r14
	je	LBB75_7
	testq	%r14, %r14
	je	LBB75_2
	movq	%r13, -88(%rbp)
	movq	$1, -80(%rbp)
	movq	$0, -72(%rbp)
	leaq	l___unnamed_4(%rip), %rax
	movq	%rax, -56(%rbp)
	movq	$0, -48(%rbp)
	movq	%rbx, %rdi
	movq	%r15, %rsi
	callq	__ZN4core3fmt9Formatter9write_fmt17h742ca6aae87ad23cE
	testb	%al, %al
	je	LBB75_2
LBB75_8:
	movb	$1, %cl
	jmp	LBB75_9
LBB75_7:
	leaq	l___unnamed_5(%rip), %rax
	movq	%rax, -88(%rbp)
	movq	$1, -80(%rbp)
	movq	$0, -72(%rbp)
	leaq	l___unnamed_4(%rip), %rax
	movq	%rax, -56(%rbp)
	movq	$0, -48(%rbp)
	leaq	-88(%rbp), %rsi
	movq	%rbx, %rdi
	callq	__ZN4core3fmt9Formatter9write_fmt17h742ca6aae87ad23cE
	movl	%eax, %ecx
LBB75_9:
	movl	%ecx, %eax
	addq	$104, %rsp
	popq	%rbx
	popq	%r12
	popq	%r13
	popq	%r14
	popq	%r15
	popq	%rbp
	retq
	.cfi_endproc

	.globl	__ZN11packed_simd4v12896_$LT$impl$u20$core..fmt..Octal$u20$for$u20$packed_simd..Simd$LT$$u5b$i8$u3b$$u20$16$u5d$$GT$$GT$3fmt17ha1eb355c826191e6E
	.p2align	4, 0x90
__ZN11packed_simd4v12896_$LT$impl$u20$core..fmt..Octal$u20$for$u20$packed_simd..Simd$LT$$u5b$i8$u3b$$u20$16$u5d$$GT$$GT$3fmt17ha1eb355c826191e6E:
	.cfi_startproc
	pushq	%rbp
	.cfi_def_cfa_offset 16
	.cfi_offset %rbp, -16
	movq	%rsp, %rbp
	.cfi_def_cfa_register %rbp
	pushq	%r15
	pushq	%r14
	pushq	%r13
	pushq	%r12
	pushq	%rbx
	subq	$104, %rsp
	.cfi_offset %rbx, -56
	.cfi_offset %r12, -48
	.cfi_offset %r13, -40
	.cfi_offset %r14, -32
	.cfi_offset %r15, -24
	movq	%rsi, %rbx
	movq	%rdi, %r15
	leaq	l___unnamed_24(%rip), %rax
	movq	%rax, -104(%rbp)
	leaq	__ZN44_$LT$$RF$T$u20$as$u20$core..fmt..Display$GT$3fmt17h50ac1916d68fee72E(%rip), %rax
	movq	%rax, -96(%rbp)
	leaq	l___unnamed_2(%rip), %rax
	movq	%rax, -88(%rbp)
	movq	$2, -80(%rbp)
	movq	$0, -72(%rbp)
	leaq	-104(%rbp), %rax
	movq	%rax, -56(%rbp)
	movq	$1, -48(%rbp)
	leaq	-88(%rbp), %rsi
	movq	%rbx, %rdi
	callq	__ZN4core3fmt9Formatter9write_fmt17h742ca6aae87ad23cE
	movb	$1, %cl
	testb	%al, %al
	jne	LBB76_9
	movaps	(%r15), %xmm0
	movaps	%xmm0, -128(%rbp)
	xorl	%r14d, %r14d
	leaq	-88(%rbp), %r15
	leaq	l___unnamed_3(%rip), %r13
	jmp	LBB76_3
	.p2align	4, 0x90
LBB76_2:
	movaps	-128(%rbp), %xmm0
	movaps	%xmm0, -144(%rbp)
	leaq	1(%r14), %r12
	andl	$15, %r14d
	movzbl	-144(%rbp,%r14), %eax
	movb	%al, -88(%rbp)
	movq	%r15, %rdi
	movq	%rbx, %rsi
	callq	__ZN4core3fmt3num49_$LT$impl$u20$core..fmt..Octal$u20$for$u20$i8$GT$3fmt17h22bc4fdd4bc3127cE
	movq	%r12, %r14
	testb	%al, %al
	jne	LBB76_8
LBB76_3:
	cmpq	$16, %r14
	je	LBB76_7
	testq	%r14, %r14
	je	LBB76_2
	movq	%r13, -88(%rbp)
	movq	$1, -80(%rbp)
	movq	$0, -72(%rbp)
	leaq	l___unnamed_4(%rip), %rax
	movq	%rax, -56(%rbp)
	movq	$0, -48(%rbp)
	movq	%rbx, %rdi
	movq	%r15, %rsi
	callq	__ZN4core3fmt9Formatter9write_fmt17h742ca6aae87ad23cE
	testb	%al, %al
	je	LBB76_2
LBB76_8:
	movb	$1, %cl
	jmp	LBB76_9
LBB76_7:
	leaq	l___unnamed_5(%rip), %rax
	movq	%rax, -88(%rbp)
	movq	$1, -80(%rbp)
	movq	$0, -72(%rbp)
	leaq	l___unnamed_4(%rip), %rax
	movq	%rax, -56(%rbp)
	movq	$0, -48(%rbp)
	leaq	-88(%rbp), %rsi
	movq	%rbx, %rdi
	callq	__ZN4core3fmt9Formatter9write_fmt17h742ca6aae87ad23cE
	movl	%eax, %ecx
LBB76_9:
	movl	%ecx, %eax
	addq	$104, %rsp
	popq	%rbx
	popq	%r12
	popq	%r13
	popq	%r14
	popq	%r15
	popq	%rbp
	retq
	.cfi_endproc

	.globl	__ZN11packed_simd4v12897_$LT$impl$u20$core..fmt..Binary$u20$for$u20$packed_simd..Simd$LT$$u5b$i8$u3b$$u20$16$u5d$$GT$$GT$3fmt17h2e8d82eb9f63839cE
	.p2align	4, 0x90
__ZN11packed_simd4v12897_$LT$impl$u20$core..fmt..Binary$u20$for$u20$packed_simd..Simd$LT$$u5b$i8$u3b$$u20$16$u5d$$GT$$GT$3fmt17h2e8d82eb9f63839cE:
	.cfi_startproc
	pushq	%rbp
	.cfi_def_cfa_offset 16
	.cfi_offset %rbp, -16
	movq	%rsp, %rbp
	.cfi_def_cfa_register %rbp
	pushq	%r15
	pushq	%r14
	pushq	%r13
	pushq	%r12
	pushq	%rbx
	subq	$104, %rsp
	.cfi_offset %rbx, -56
	.cfi_offset %r12, -48
	.cfi_offset %r13, -40
	.cfi_offset %r14, -32
	.cfi_offset %r15, -24
	movq	%rsi, %rbx
	movq	%rdi, %r15
	leaq	l___unnamed_24(%rip), %rax
	movq	%rax, -104(%rbp)
	leaq	__ZN44_$LT$$RF$T$u20$as$u20$core..fmt..Display$GT$3fmt17h50ac1916d68fee72E(%rip), %rax
	movq	%rax, -96(%rbp)
	leaq	l___unnamed_2(%rip), %rax
	movq	%rax, -88(%rbp)
	movq	$2, -80(%rbp)
	movq	$0, -72(%rbp)
	leaq	-104(%rbp), %rax
	movq	%rax, -56(%rbp)
	movq	$1, -48(%rbp)
	leaq	-88(%rbp), %rsi
	movq	%rbx, %rdi
	callq	__ZN4core3fmt9Formatter9write_fmt17h742ca6aae87ad23cE
	movb	$1, %cl
	testb	%al, %al
	jne	LBB77_9
	movaps	(%r15), %xmm0
	movaps	%xmm0, -128(%rbp)
	xorl	%r14d, %r14d
	leaq	-88(%rbp), %r15
	leaq	l___unnamed_3(%rip), %r13
	jmp	LBB77_3
	.p2align	4, 0x90
LBB77_2:
	movaps	-128(%rbp), %xmm0
	movaps	%xmm0, -144(%rbp)
	leaq	1(%r14), %r12
	andl	$15, %r14d
	movzbl	-144(%rbp,%r14), %eax
	movb	%al, -88(%rbp)
	movq	%r15, %rdi
	movq	%rbx, %rsi
	callq	__ZN4core3fmt3num50_$LT$impl$u20$core..fmt..Binary$u20$for$u20$i8$GT$3fmt17h99e877cd09afbddeE
	movq	%r12, %r14
	testb	%al, %al
	jne	LBB77_8
LBB77_3:
	cmpq	$16, %r14
	je	LBB77_7
	testq	%r14, %r14
	je	LBB77_2
	movq	%r13, -88(%rbp)
	movq	$1, -80(%rbp)
	movq	$0, -72(%rbp)
	leaq	l___unnamed_4(%rip), %rax
	movq	%rax, -56(%rbp)
	movq	$0, -48(%rbp)
	movq	%rbx, %rdi
	movq	%r15, %rsi
	callq	__ZN4core3fmt9Formatter9write_fmt17h742ca6aae87ad23cE
	testb	%al, %al
	je	LBB77_2
LBB77_8:
	movb	$1, %cl
	jmp	LBB77_9
LBB77_7:
	leaq	l___unnamed_5(%rip), %rax
	movq	%rax, -88(%rbp)
	movq	$1, -80(%rbp)
	movq	$0, -72(%rbp)
	leaq	l___unnamed_4(%rip), %rax
	movq	%rax, -56(%rbp)
	movq	$0, -48(%rbp)
	leaq	-88(%rbp), %rsi
	movq	%rbx, %rdi
	callq	__ZN4core3fmt9Formatter9write_fmt17h742ca6aae87ad23cE
	movl	%eax, %ecx
LBB77_9:
	movl	%ecx, %eax
	addq	$104, %rsp
	popq	%rbx
	popq	%r12
	popq	%r13
	popq	%r14
	popq	%r15
	popq	%rbp
	retq
	.cfi_endproc

	.globl	__ZN11packed_simd4v12896_$LT$impl$u20$core..fmt..Debug$u20$for$u20$packed_simd..Simd$LT$$u5b$u8$u3b$$u20$16$u5d$$GT$$GT$3fmt17h8694a527601f1d40E
	.p2align	4, 0x90
__ZN11packed_simd4v12896_$LT$impl$u20$core..fmt..Debug$u20$for$u20$packed_simd..Simd$LT$$u5b$u8$u3b$$u20$16$u5d$$GT$$GT$3fmt17h8694a527601f1d40E:
	.cfi_startproc
	pushq	%rbp
	.cfi_def_cfa_offset 16
	.cfi_offset %rbp, -16
	movq	%rsp, %rbp
	.cfi_def_cfa_register %rbp
	pushq	%r15
	pushq	%r14
	pushq	%r13
	pushq	%r12
	pushq	%rbx
	subq	$104, %rsp
	.cfi_offset %rbx, -56
	.cfi_offset %r12, -48
	.cfi_offset %r13, -40
	.cfi_offset %r14, -32
	.cfi_offset %r15, -24
	movq	%rsi, %r13
	movq	%rdi, %r15
	leaq	l___unnamed_25(%rip), %rax
	movq	%rax, -104(%rbp)
	leaq	__ZN44_$LT$$RF$T$u20$as$u20$core..fmt..Display$GT$3fmt17h50ac1916d68fee72E(%rip), %rax
	movq	%rax, -96(%rbp)
	leaq	l___unnamed_2(%rip), %rax
	movq	%rax, -88(%rbp)
	movq	$2, -80(%rbp)
	movq	$0, -72(%rbp)
	leaq	-104(%rbp), %rax
	movq	%rax, -56(%rbp)
	movq	$1, -48(%rbp)
	leaq	-88(%rbp), %rsi
	movq	%r13, %rdi
	callq	__ZN4core3fmt9Formatter9write_fmt17h742ca6aae87ad23cE
	movb	$1, %cl
	testb	%al, %al
	jne	LBB78_13
	movaps	(%r15), %xmm0
	movaps	%xmm0, -128(%rbp)
	xorl	%ebx, %ebx
	leaq	-88(%rbp), %r15
	leaq	l___unnamed_3(%rip), %r14
	leaq	l___unnamed_4(%rip), %r12
	jmp	LBB78_2
	.p2align	4, 0x90
LBB78_5:
	movq	%r15, %rdi
	movq	%r13, %rsi
	callq	__ZN4core3fmt3num52_$LT$impl$u20$core..fmt..LowerHex$u20$for$u20$u8$GT$3fmt17h35609b3cfed2e613E
	testb	%al, %al
	jne	LBB78_12
LBB78_9:
	incq	%rbx
	cmpq	$16, %rbx
	je	LBB78_10
LBB78_2:
	testq	%rbx, %rbx
	je	LBB78_4
	movq	%r14, -88(%rbp)
	movq	$1, -80(%rbp)
	movq	$0, -72(%rbp)
	movq	%r12, -56(%rbp)
	movq	$0, -48(%rbp)
	movq	%r13, %rdi
	movq	%r15, %rsi
	callq	__ZN4core3fmt9Formatter9write_fmt17h742ca6aae87ad23cE
	testb	%al, %al
	jne	LBB78_12
LBB78_4:
	movaps	-128(%rbp), %xmm0
	movaps	%xmm0, -144(%rbp)
	movl	%ebx, %eax
	andl	$15, %eax
	movzbl	-144(%rbp,%rax), %eax
	movb	%al, -88(%rbp)
	movq	%r13, %rdi
	callq	__ZN4core3fmt9Formatter15debug_lower_hex17hd07f6fde8d0365dfE
	testb	%al, %al
	jne	LBB78_5
	movq	%r13, %rdi
	callq	__ZN4core3fmt9Formatter15debug_upper_hex17hf480c256a9c81c1eE
	movq	%r15, %rdi
	movq	%r13, %rsi
	testb	%al, %al
	je	LBB78_8
	callq	__ZN4core3fmt3num52_$LT$impl$u20$core..fmt..UpperHex$u20$for$u20$u8$GT$3fmt17hdec4e64a988d6129E
	testb	%al, %al
	je	LBB78_9
	jmp	LBB78_12
	.p2align	4, 0x90
LBB78_8:
	callq	__ZN4core3fmt3num3imp51_$LT$impl$u20$core..fmt..Display$u20$for$u20$u8$GT$3fmt17hac49effbf87f075dE
	testb	%al, %al
	je	LBB78_9
LBB78_12:
	movb	$1, %cl
	jmp	LBB78_13
LBB78_10:
	leaq	l___unnamed_5(%rip), %rax
	movq	%rax, -88(%rbp)
	movq	$1, -80(%rbp)
	movq	$0, -72(%rbp)
	movq	%r12, -56(%rbp)
	movq	$0, -48(%rbp)
	leaq	-88(%rbp), %rsi
	movq	%r13, %rdi
	callq	__ZN4core3fmt9Formatter9write_fmt17h742ca6aae87ad23cE
	movl	%eax, %ecx
LBB78_13:
	movl	%ecx, %eax
	addq	$104, %rsp
	popq	%rbx
	popq	%r12
	popq	%r13
	popq	%r14
	popq	%r15
	popq	%rbp
	retq
	.cfi_endproc

	.globl	__ZN11packed_simd4v12899_$LT$impl$u20$core..fmt..LowerHex$u20$for$u20$packed_simd..Simd$LT$$u5b$u8$u3b$$u20$16$u5d$$GT$$GT$3fmt17h9c5879d1b29b8917E
	.p2align	4, 0x90
__ZN11packed_simd4v12899_$LT$impl$u20$core..fmt..LowerHex$u20$for$u20$packed_simd..Simd$LT$$u5b$u8$u3b$$u20$16$u5d$$GT$$GT$3fmt17h9c5879d1b29b8917E:
	.cfi_startproc
	pushq	%rbp
	.cfi_def_cfa_offset 16
	.cfi_offset %rbp, -16
	movq	%rsp, %rbp
	.cfi_def_cfa_register %rbp
	pushq	%r15
	pushq	%r14
	pushq	%r13
	pushq	%r12
	pushq	%rbx
	subq	$104, %rsp
	.cfi_offset %rbx, -56
	.cfi_offset %r12, -48
	.cfi_offset %r13, -40
	.cfi_offset %r14, -32
	.cfi_offset %r15, -24
	movq	%rsi, %rbx
	movq	%rdi, %r15
	leaq	l___unnamed_25(%rip), %rax
	movq	%rax, -104(%rbp)
	leaq	__ZN44_$LT$$RF$T$u20$as$u20$core..fmt..Display$GT$3fmt17h50ac1916d68fee72E(%rip), %rax
	movq	%rax, -96(%rbp)
	leaq	l___unnamed_2(%rip), %rax
	movq	%rax, -88(%rbp)
	movq	$2, -80(%rbp)
	movq	$0, -72(%rbp)
	leaq	-104(%rbp), %rax
	movq	%rax, -56(%rbp)
	movq	$1, -48(%rbp)
	leaq	-88(%rbp), %rsi
	movq	%rbx, %rdi
	callq	__ZN4core3fmt9Formatter9write_fmt17h742ca6aae87ad23cE
	movb	$1, %cl
	testb	%al, %al
	jne	LBB79_9
	movaps	(%r15), %xmm0
	movaps	%xmm0, -128(%rbp)
	xorl	%r14d, %r14d
	leaq	-88(%rbp), %r15
	leaq	l___unnamed_3(%rip), %r13
	jmp	LBB79_3
	.p2align	4, 0x90
LBB79_2:
	movaps	-128(%rbp), %xmm0
	movaps	%xmm0, -144(%rbp)
	leaq	1(%r14), %r12
	andl	$15, %r14d
	movzbl	-144(%rbp,%r14), %eax
	movb	%al, -88(%rbp)
	movq	%r15, %rdi
	movq	%rbx, %rsi
	callq	__ZN4core3fmt3num52_$LT$impl$u20$core..fmt..LowerHex$u20$for$u20$u8$GT$3fmt17h35609b3cfed2e613E
	movq	%r12, %r14
	testb	%al, %al
	jne	LBB79_8
LBB79_3:
	cmpq	$16, %r14
	je	LBB79_7
	testq	%r14, %r14
	je	LBB79_2
	movq	%r13, -88(%rbp)
	movq	$1, -80(%rbp)
	movq	$0, -72(%rbp)
	leaq	l___unnamed_4(%rip), %rax
	movq	%rax, -56(%rbp)
	movq	$0, -48(%rbp)
	movq	%rbx, %rdi
	movq	%r15, %rsi
	callq	__ZN4core3fmt9Formatter9write_fmt17h742ca6aae87ad23cE
	testb	%al, %al
	je	LBB79_2
LBB79_8:
	movb	$1, %cl
	jmp	LBB79_9
LBB79_7:
	leaq	l___unnamed_5(%rip), %rax
	movq	%rax, -88(%rbp)
	movq	$1, -80(%rbp)
	movq	$0, -72(%rbp)
	leaq	l___unnamed_4(%rip), %rax
	movq	%rax, -56(%rbp)
	movq	$0, -48(%rbp)
	leaq	-88(%rbp), %rsi
	movq	%rbx, %rdi
	callq	__ZN4core3fmt9Formatter9write_fmt17h742ca6aae87ad23cE
	movl	%eax, %ecx
LBB79_9:
	movl	%ecx, %eax
	addq	$104, %rsp
	popq	%rbx
	popq	%r12
	popq	%r13
	popq	%r14
	popq	%r15
	popq	%rbp
	retq
	.cfi_endproc

	.globl	__ZN11packed_simd4v12899_$LT$impl$u20$core..fmt..UpperHex$u20$for$u20$packed_simd..Simd$LT$$u5b$u8$u3b$$u20$16$u5d$$GT$$GT$3fmt17h3681f2e2948bb51bE
	.p2align	4, 0x90
__ZN11packed_simd4v12899_$LT$impl$u20$core..fmt..UpperHex$u20$for$u20$packed_simd..Simd$LT$$u5b$u8$u3b$$u20$16$u5d$$GT$$GT$3fmt17h3681f2e2948bb51bE:
	.cfi_startproc
	pushq	%rbp
	.cfi_def_cfa_offset 16
	.cfi_offset %rbp, -16
	movq	%rsp, %rbp
	.cfi_def_cfa_register %rbp
	pushq	%r15
	pushq	%r14
	pushq	%r13
	pushq	%r12
	pushq	%rbx
	subq	$104, %rsp
	.cfi_offset %rbx, -56
	.cfi_offset %r12, -48
	.cfi_offset %r13, -40
	.cfi_offset %r14, -32
	.cfi_offset %r15, -24
	movq	%rsi, %rbx
	movq	%rdi, %r15
	leaq	l___unnamed_25(%rip), %rax
	movq	%rax, -104(%rbp)
	leaq	__ZN44_$LT$$RF$T$u20$as$u20$core..fmt..Display$GT$3fmt17h50ac1916d68fee72E(%rip), %rax
	movq	%rax, -96(%rbp)
	leaq	l___unnamed_2(%rip), %rax
	movq	%rax, -88(%rbp)
	movq	$2, -80(%rbp)
	movq	$0, -72(%rbp)
	leaq	-104(%rbp), %rax
	movq	%rax, -56(%rbp)
	movq	$1, -48(%rbp)
	leaq	-88(%rbp), %rsi
	movq	%rbx, %rdi
	callq	__ZN4core3fmt9Formatter9write_fmt17h742ca6aae87ad23cE
	movb	$1, %cl
	testb	%al, %al
	jne	LBB80_9
	movaps	(%r15), %xmm0
	movaps	%xmm0, -128(%rbp)
	xorl	%r14d, %r14d
	leaq	-88(%rbp), %r15
	leaq	l___unnamed_3(%rip), %r13
	jmp	LBB80_3
	.p2align	4, 0x90
LBB80_2:
	movaps	-128(%rbp), %xmm0
	movaps	%xmm0, -144(%rbp)
	leaq	1(%r14), %r12
	andl	$15, %r14d
	movzbl	-144(%rbp,%r14), %eax
	movb	%al, -88(%rbp)
	movq	%r15, %rdi
	movq	%rbx, %rsi
	callq	__ZN4core3fmt3num52_$LT$impl$u20$core..fmt..UpperHex$u20$for$u20$u8$GT$3fmt17hdec4e64a988d6129E
	movq	%r12, %r14
	testb	%al, %al
	jne	LBB80_8
LBB80_3:
	cmpq	$16, %r14
	je	LBB80_7
	testq	%r14, %r14
	je	LBB80_2
	movq	%r13, -88(%rbp)
	movq	$1, -80(%rbp)
	movq	$0, -72(%rbp)
	leaq	l___unnamed_4(%rip), %rax
	movq	%rax, -56(%rbp)
	movq	$0, -48(%rbp)
	movq	%rbx, %rdi
	movq	%r15, %rsi
	callq	__ZN4core3fmt9Formatter9write_fmt17h742ca6aae87ad23cE
	testb	%al, %al
	je	LBB80_2
LBB80_8:
	movb	$1, %cl
	jmp	LBB80_9
LBB80_7:
	leaq	l___unnamed_5(%rip), %rax
	movq	%rax, -88(%rbp)
	movq	$1, -80(%rbp)
	movq	$0, -72(%rbp)
	leaq	l___unnamed_4(%rip), %rax
	movq	%rax, -56(%rbp)
	movq	$0, -48(%rbp)
	leaq	-88(%rbp), %rsi
	movq	%rbx, %rdi
	callq	__ZN4core3fmt9Formatter9write_fmt17h742ca6aae87ad23cE
	movl	%eax, %ecx
LBB80_9:
	movl	%ecx, %eax
	addq	$104, %rsp
	popq	%rbx
	popq	%r12
	popq	%r13
	popq	%r14
	popq	%r15
	popq	%rbp
	retq
	.cfi_endproc

	.globl	__ZN11packed_simd4v12896_$LT$impl$u20$core..fmt..Octal$u20$for$u20$packed_simd..Simd$LT$$u5b$u8$u3b$$u20$16$u5d$$GT$$GT$3fmt17hac0c1bb3d9d357b8E
	.p2align	4, 0x90
__ZN11packed_simd4v12896_$LT$impl$u20$core..fmt..Octal$u20$for$u20$packed_simd..Simd$LT$$u5b$u8$u3b$$u20$16$u5d$$GT$$GT$3fmt17hac0c1bb3d9d357b8E:
	.cfi_startproc
	pushq	%rbp
	.cfi_def_cfa_offset 16
	.cfi_offset %rbp, -16
	movq	%rsp, %rbp
	.cfi_def_cfa_register %rbp
	pushq	%r15
	pushq	%r14
	pushq	%r13
	pushq	%r12
	pushq	%rbx
	subq	$104, %rsp
	.cfi_offset %rbx, -56
	.cfi_offset %r12, -48
	.cfi_offset %r13, -40
	.cfi_offset %r14, -32
	.cfi_offset %r15, -24
	movq	%rsi, %rbx
	movq	%rdi, %r15
	leaq	l___unnamed_25(%rip), %rax
	movq	%rax, -104(%rbp)
	leaq	__ZN44_$LT$$RF$T$u20$as$u20$core..fmt..Display$GT$3fmt17h50ac1916d68fee72E(%rip), %rax
	movq	%rax, -96(%rbp)
	leaq	l___unnamed_2(%rip), %rax
	movq	%rax, -88(%rbp)
	movq	$2, -80(%rbp)
	movq	$0, -72(%rbp)
	leaq	-104(%rbp), %rax
	movq	%rax, -56(%rbp)
	movq	$1, -48(%rbp)
	leaq	-88(%rbp), %rsi
	movq	%rbx, %rdi
	callq	__ZN4core3fmt9Formatter9write_fmt17h742ca6aae87ad23cE
	movb	$1, %cl
	testb	%al, %al
	jne	LBB81_9
	movaps	(%r15), %xmm0
	movaps	%xmm0, -128(%rbp)
	xorl	%r14d, %r14d
	leaq	-88(%rbp), %r15
	leaq	l___unnamed_3(%rip), %r13
	jmp	LBB81_3
	.p2align	4, 0x90
LBB81_2:
	movaps	-128(%rbp), %xmm0
	movaps	%xmm0, -144(%rbp)
	leaq	1(%r14), %r12
	andl	$15, %r14d
	movzbl	-144(%rbp,%r14), %eax
	movb	%al, -88(%rbp)
	movq	%r15, %rdi
	movq	%rbx, %rsi
	callq	__ZN4core3fmt3num49_$LT$impl$u20$core..fmt..Octal$u20$for$u20$u8$GT$3fmt17hf7600dd9a4d32e44E
	movq	%r12, %r14
	testb	%al, %al
	jne	LBB81_8
LBB81_3:
	cmpq	$16, %r14
	je	LBB81_7
	testq	%r14, %r14
	je	LBB81_2
	movq	%r13, -88(%rbp)
	movq	$1, -80(%rbp)
	movq	$0, -72(%rbp)
	leaq	l___unnamed_4(%rip), %rax
	movq	%rax, -56(%rbp)
	movq	$0, -48(%rbp)
	movq	%rbx, %rdi
	movq	%r15, %rsi
	callq	__ZN4core3fmt9Formatter9write_fmt17h742ca6aae87ad23cE
	testb	%al, %al
	je	LBB81_2
LBB81_8:
	movb	$1, %cl
	jmp	LBB81_9
LBB81_7:
	leaq	l___unnamed_5(%rip), %rax
	movq	%rax, -88(%rbp)
	movq	$1, -80(%rbp)
	movq	$0, -72(%rbp)
	leaq	l___unnamed_4(%rip), %rax
	movq	%rax, -56(%rbp)
	movq	$0, -48(%rbp)
	leaq	-88(%rbp), %rsi
	movq	%rbx, %rdi
	callq	__ZN4core3fmt9Formatter9write_fmt17h742ca6aae87ad23cE
	movl	%eax, %ecx
LBB81_9:
	movl	%ecx, %eax
	addq	$104, %rsp
	popq	%rbx
	popq	%r12
	popq	%r13
	popq	%r14
	popq	%r15
	popq	%rbp
	retq
	.cfi_endproc

	.globl	__ZN11packed_simd4v12897_$LT$impl$u20$core..fmt..Binary$u20$for$u20$packed_simd..Simd$LT$$u5b$u8$u3b$$u20$16$u5d$$GT$$GT$3fmt17hc9485adf40af18d1E
	.p2align	4, 0x90
__ZN11packed_simd4v12897_$LT$impl$u20$core..fmt..Binary$u20$for$u20$packed_simd..Simd$LT$$u5b$u8$u3b$$u20$16$u5d$$GT$$GT$3fmt17hc9485adf40af18d1E:
	.cfi_startproc
	pushq	%rbp
	.cfi_def_cfa_offset 16
	.cfi_offset %rbp, -16
	movq	%rsp, %rbp
	.cfi_def_cfa_register %rbp
	pushq	%r15
	pushq	%r14
	pushq	%r13
	pushq	%r12
	pushq	%rbx
	subq	$104, %rsp
	.cfi_offset %rbx, -56
	.cfi_offset %r12, -48
	.cfi_offset %r13, -40
	.cfi_offset %r14, -32
	.cfi_offset %r15, -24
	movq	%rsi, %rbx
	movq	%rdi, %r15
	leaq	l___unnamed_25(%rip), %rax
	movq	%rax, -104(%rbp)
	leaq	__ZN44_$LT$$RF$T$u20$as$u20$core..fmt..Display$GT$3fmt17h50ac1916d68fee72E(%rip), %rax
	movq	%rax, -96(%rbp)
	leaq	l___unnamed_2(%rip), %rax
	movq	%rax, -88(%rbp)
	movq	$2, -80(%rbp)
	movq	$0, -72(%rbp)
	leaq	-104(%rbp), %rax
	movq	%rax, -56(%rbp)
	movq	$1, -48(%rbp)
	leaq	-88(%rbp), %rsi
	movq	%rbx, %rdi
	callq	__ZN4core3fmt9Formatter9write_fmt17h742ca6aae87ad23cE
	movb	$1, %cl
	testb	%al, %al
	jne	LBB82_9
	movaps	(%r15), %xmm0
	movaps	%xmm0, -128(%rbp)
	xorl	%r14d, %r14d
	leaq	-88(%rbp), %r15
	leaq	l___unnamed_3(%rip), %r13
	jmp	LBB82_3
	.p2align	4, 0x90
LBB82_2:
	movaps	-128(%rbp), %xmm0
	movaps	%xmm0, -144(%rbp)
	leaq	1(%r14), %r12
	andl	$15, %r14d
	movzbl	-144(%rbp,%r14), %eax
	movb	%al, -88(%rbp)
	movq	%r15, %rdi
	movq	%rbx, %rsi
	callq	__ZN4core3fmt3num50_$LT$impl$u20$core..fmt..Binary$u20$for$u20$u8$GT$3fmt17h34ba181458cacf9cE
	movq	%r12, %r14
	testb	%al, %al
	jne	LBB82_8
LBB82_3:
	cmpq	$16, %r14
	je	LBB82_7
	testq	%r14, %r14
	je	LBB82_2
	movq	%r13, -88(%rbp)
	movq	$1, -80(%rbp)
	movq	$0, -72(%rbp)
	leaq	l___unnamed_4(%rip), %rax
	movq	%rax, -56(%rbp)
	movq	$0, -48(%rbp)
	movq	%rbx, %rdi
	movq	%r15, %rsi
	callq	__ZN4core3fmt9Formatter9write_fmt17h742ca6aae87ad23cE
	testb	%al, %al
	je	LBB82_2
LBB82_8:
	movb	$1, %cl
	jmp	LBB82_9
LBB82_7:
	leaq	l___unnamed_5(%rip), %rax
	movq	%rax, -88(%rbp)
	movq	$1, -80(%rbp)
	movq	$0, -72(%rbp)
	leaq	l___unnamed_4(%rip), %rax
	movq	%rax, -56(%rbp)
	movq	$0, -48(%rbp)
	leaq	-88(%rbp), %rsi
	movq	%rbx, %rdi
	callq	__ZN4core3fmt9Formatter9write_fmt17h742ca6aae87ad23cE
	movl	%eax, %ecx
LBB82_9:
	movl	%ecx, %eax
	addq	$104, %rsp
	popq	%rbx
	popq	%r12
	popq	%r13
	popq	%r14
	popq	%r15
	popq	%rbp
	retq
	.cfi_endproc

	.globl	__ZN11packed_simd4v128116_$LT$impl$u20$core..fmt..Debug$u20$for$u20$packed_simd..Simd$LT$$u5b$packed_simd..masks..m8$u3b$$u20$16$u5d$$GT$$GT$3fmt17hda8c78fb930a51feE
	.p2align	4, 0x90
__ZN11packed_simd4v128116_$LT$impl$u20$core..fmt..Debug$u20$for$u20$packed_simd..Simd$LT$$u5b$packed_simd..masks..m8$u3b$$u20$16$u5d$$GT$$GT$3fmt17hda8c78fb930a51feE:
	.cfi_startproc
	pushq	%rbp
	.cfi_def_cfa_offset 16
	.cfi_offset %rbp, -16
	movq	%rsp, %rbp
	.cfi_def_cfa_register %rbp
	pushq	%r15
	pushq	%r14
	pushq	%r13
	pushq	%r12
	pushq	%rbx
	subq	$104, %rsp
	.cfi_offset %rbx, -56
	.cfi_offset %r12, -48
	.cfi_offset %r13, -40
	.cfi_offset %r14, -32
	.cfi_offset %r15, -24
	movq	%rsi, %rbx
	movq	%rdi, %r15
	leaq	l___unnamed_26(%rip), %rax
	movq	%rax, -104(%rbp)
	leaq	__ZN44_$LT$$RF$T$u20$as$u20$core..fmt..Display$GT$3fmt17h50ac1916d68fee72E(%rip), %rax
	movq	%rax, -96(%rbp)
	leaq	l___unnamed_2(%rip), %rax
	movq	%rax, -88(%rbp)
	movq	$2, -80(%rbp)
	movq	$0, -72(%rbp)
	leaq	-104(%rbp), %rax
	movq	%rax, -56(%rbp)
	movq	$1, -48(%rbp)
	leaq	-88(%rbp), %rsi
	movq	%rbx, %rdi
	callq	__ZN4core3fmt9Formatter9write_fmt17h742ca6aae87ad23cE
	movb	$1, %cl
	testb	%al, %al
	jne	LBB83_9
	movaps	(%r15), %xmm0
	movaps	%xmm0, -128(%rbp)
	xorl	%r14d, %r14d
	leaq	-88(%rbp), %r15
	leaq	l___unnamed_3(%rip), %r13
	jmp	LBB83_3
	.p2align	4, 0x90
LBB83_2:
	movaps	-128(%rbp), %xmm0
	movaps	%xmm0, -144(%rbp)
	leaq	1(%r14), %r12
	andl	$15, %r14d
	cmpb	$0, -144(%rbp,%r14)
	setne	-88(%rbp)
	movq	%r15, %rdi
	movq	%rbx, %rsi
	callq	__ZN43_$LT$bool$u20$as$u20$core..fmt..Display$GT$3fmt17hd78396651a24cfbbE
	movq	%r12, %r14
	testb	%al, %al
	jne	LBB83_8
LBB83_3:
	cmpq	$16, %r14
	je	LBB83_7
	testq	%r14, %r14
	je	LBB83_2
	movq	%r13, -88(%rbp)
	movq	$1, -80(%rbp)
	movq	$0, -72(%rbp)
	leaq	l___unnamed_4(%rip), %rax
	movq	%rax, -56(%rbp)
	movq	$0, -48(%rbp)
	movq	%rbx, %rdi
	movq	%r15, %rsi
	callq	__ZN4core3fmt9Formatter9write_fmt17h742ca6aae87ad23cE
	testb	%al, %al
	je	LBB83_2
LBB83_8:
	movb	$1, %cl
	jmp	LBB83_9
LBB83_7:
	leaq	l___unnamed_5(%rip), %rax
	movq	%rax, -88(%rbp)
	movq	$1, -80(%rbp)
	movq	$0, -72(%rbp)
	leaq	l___unnamed_4(%rip), %rax
	movq	%rax, -56(%rbp)
	movq	$0, -48(%rbp)
	leaq	-88(%rbp), %rsi
	movq	%rbx, %rdi
	callq	__ZN4core3fmt9Formatter9write_fmt17h742ca6aae87ad23cE
	movl	%eax, %ecx
LBB83_9:
	movl	%ecx, %eax
	addq	$104, %rsp
	popq	%rbx
	popq	%r12
	popq	%r13
	popq	%r14
	popq	%r15
	popq	%rbp
	retq
	.cfi_endproc

	.globl	__ZN11packed_simd4v12896_$LT$impl$u20$core..fmt..Debug$u20$for$u20$packed_simd..Simd$LT$$u5b$i16$u3b$$u20$8$u5d$$GT$$GT$3fmt17h41ef3e24e19d76aeE
	.p2align	4, 0x90
__ZN11packed_simd4v12896_$LT$impl$u20$core..fmt..Debug$u20$for$u20$packed_simd..Simd$LT$$u5b$i16$u3b$$u20$8$u5d$$GT$$GT$3fmt17h41ef3e24e19d76aeE:
	.cfi_startproc
	pushq	%rbp
	.cfi_def_cfa_offset 16
	.cfi_offset %rbp, -16
	movq	%rsp, %rbp
	.cfi_def_cfa_register %rbp
	pushq	%r15
	pushq	%r14
	pushq	%r12
	pushq	%rbx
	subq	$80, %rsp
	.cfi_offset %rbx, -48
	.cfi_offset %r12, -40
	.cfi_offset %r14, -32
	.cfi_offset %r15, -24
	movq	%rsi, %r15
	movq	%rdi, %rbx
	leaq	l___unnamed_27(%rip), %rax
	movq	%rax, -112(%rbp)
	leaq	__ZN44_$LT$$RF$T$u20$as$u20$core..fmt..Display$GT$3fmt17h50ac1916d68fee72E(%rip), %rax
	movq	%rax, -104(%rbp)
	leaq	l___unnamed_2(%rip), %rax
	movq	%rax, -80(%rbp)
	movq	$2, -72(%rbp)
	movq	$0, -64(%rbp)
	leaq	-112(%rbp), %rax
	movq	%rax, -48(%rbp)
	movq	$1, -40(%rbp)
	leaq	-80(%rbp), %rsi
	movq	%r15, %rdi
	callq	__ZN4core3fmt9Formatter9write_fmt17h742ca6aae87ad23cE
	movb	$1, %r14b
	testb	%al, %al
	jne	LBB84_42
	movdqa	(%rbx), %xmm0
	movdqa	%xmm0, -96(%rbp)
	movd	%xmm0, %eax
	movw	%ax, -80(%rbp)
	movq	%r15, %rdi
	callq	__ZN4core3fmt9Formatter15debug_lower_hex17hd07f6fde8d0365dfE
	testb	%al, %al
	je	LBB84_2
	leaq	-80(%rbp), %rdi
	movq	%r15, %rsi
	callq	__ZN4core3fmt3num53_$LT$impl$u20$core..fmt..LowerHex$u20$for$u20$i16$GT$3fmt17h7236122704e16c86E
	testb	%al, %al
	je	LBB84_6
	jmp	LBB84_42
LBB84_2:
	movq	%r15, %rdi
	callq	__ZN4core3fmt9Formatter15debug_upper_hex17hf480c256a9c81c1eE
	leaq	-80(%rbp), %rdi
	movq	%r15, %rsi
	testb	%al, %al
	je	LBB84_4
	callq	__ZN4core3fmt3num53_$LT$impl$u20$core..fmt..UpperHex$u20$for$u20$i16$GT$3fmt17hf50bc938a2a1e02bE
	testb	%al, %al
	je	LBB84_6
	jmp	LBB84_42
LBB84_4:
	callq	__ZN4core3fmt3num3imp52_$LT$impl$u20$core..fmt..Display$u20$for$u20$i16$GT$3fmt17h7c7135e52a8bf68aE
	testb	%al, %al
	jne	LBB84_42
LBB84_6:
	leaq	l___unnamed_3(%rip), %rbx
	movq	%rbx, -80(%rbp)
	movq	$1, -72(%rbp)
	movq	$0, -64(%rbp)
	leaq	l___unnamed_4(%rip), %r12
	movq	%r12, -48(%rbp)
	movq	$0, -40(%rbp)
	leaq	-80(%rbp), %rsi
	movq	%r15, %rdi
	callq	__ZN4core3fmt9Formatter9write_fmt17h742ca6aae87ad23cE
	testb	%al, %al
	jne	LBB84_42
	movdqa	-96(%rbp), %xmm0
	pextrw	$1, %xmm0, %eax
	movw	%ax, -80(%rbp)
	movq	%r15, %rdi
	callq	__ZN4core3fmt9Formatter15debug_lower_hex17hd07f6fde8d0365dfE
	testb	%al, %al
	je	LBB84_8
	leaq	-80(%rbp), %rdi
	movq	%r15, %rsi
	callq	__ZN4core3fmt3num53_$LT$impl$u20$core..fmt..LowerHex$u20$for$u20$i16$GT$3fmt17h7236122704e16c86E
	jmp	LBB84_10
LBB84_8:
	movq	%r15, %rdi
	callq	__ZN4core3fmt9Formatter15debug_upper_hex17hf480c256a9c81c1eE
	leaq	-80(%rbp), %rdi
	movq	%r15, %rsi
	testb	%al, %al
	je	LBB84_9
	callq	__ZN4core3fmt3num53_$LT$impl$u20$core..fmt..UpperHex$u20$for$u20$i16$GT$3fmt17hf50bc938a2a1e02bE
	jmp	LBB84_10
LBB84_9:
	callq	__ZN4core3fmt3num3imp52_$LT$impl$u20$core..fmt..Display$u20$for$u20$i16$GT$3fmt17h7c7135e52a8bf68aE
LBB84_10:
	testb	%al, %al
	jne	LBB84_42
	movq	%rbx, -80(%rbp)
	movq	$1, -72(%rbp)
	movq	$0, -64(%rbp)
	movq	%r12, -48(%rbp)
	movq	$0, -40(%rbp)
	leaq	-80(%rbp), %rsi
	movq	%r15, %rdi
	callq	__ZN4core3fmt9Formatter9write_fmt17h742ca6aae87ad23cE
	testb	%al, %al
	jne	LBB84_42
	movdqa	-96(%rbp), %xmm0
	pextrw	$2, %xmm0, %eax
	movw	%ax, -80(%rbp)
	movq	%r15, %rdi
	callq	__ZN4core3fmt9Formatter15debug_lower_hex17hd07f6fde8d0365dfE
	testb	%al, %al
	je	LBB84_13
	leaq	-80(%rbp), %rdi
	movq	%r15, %rsi
	callq	__ZN4core3fmt3num53_$LT$impl$u20$core..fmt..LowerHex$u20$for$u20$i16$GT$3fmt17h7236122704e16c86E
	jmp	LBB84_15
LBB84_13:
	movq	%r15, %rdi
	callq	__ZN4core3fmt9Formatter15debug_upper_hex17hf480c256a9c81c1eE
	leaq	-80(%rbp), %rdi
	movq	%r15, %rsi
	testb	%al, %al
	je	LBB84_14
	callq	__ZN4core3fmt3num53_$LT$impl$u20$core..fmt..UpperHex$u20$for$u20$i16$GT$3fmt17hf50bc938a2a1e02bE
	jmp	LBB84_15
LBB84_14:
	callq	__ZN4core3fmt3num3imp52_$LT$impl$u20$core..fmt..Display$u20$for$u20$i16$GT$3fmt17h7c7135e52a8bf68aE
LBB84_15:
	testb	%al, %al
	jne	LBB84_42
	movq	%rbx, -80(%rbp)
	movq	$1, -72(%rbp)
	movq	$0, -64(%rbp)
	movq	%r12, -48(%rbp)
	movq	$0, -40(%rbp)
	leaq	-80(%rbp), %rsi
	movq	%r15, %rdi
	callq	__ZN4core3fmt9Formatter9write_fmt17h742ca6aae87ad23cE
	testb	%al, %al
	jne	LBB84_42
	movdqa	-96(%rbp), %xmm0
	pextrw	$3, %xmm0, %eax
	movw	%ax, -80(%rbp)
	movq	%r15, %rdi
	callq	__ZN4core3fmt9Formatter15debug_lower_hex17hd07f6fde8d0365dfE
	testb	%al, %al
	je	LBB84_18
	leaq	-80(%rbp), %rdi
	movq	%r15, %rsi
	callq	__ZN4core3fmt3num53_$LT$impl$u20$core..fmt..LowerHex$u20$for$u20$i16$GT$3fmt17h7236122704e16c86E
	jmp	LBB84_20
LBB84_18:
	movq	%r15, %rdi
	callq	__ZN4core3fmt9Formatter15debug_upper_hex17hf480c256a9c81c1eE
	leaq	-80(%rbp), %rdi
	movq	%r15, %rsi
	testb	%al, %al
	je	LBB84_19
	callq	__ZN4core3fmt3num53_$LT$impl$u20$core..fmt..UpperHex$u20$for$u20$i16$GT$3fmt17hf50bc938a2a1e02bE
	jmp	LBB84_20
LBB84_19:
	callq	__ZN4core3fmt3num3imp52_$LT$impl$u20$core..fmt..Display$u20$for$u20$i16$GT$3fmt17h7c7135e52a8bf68aE
LBB84_20:
	testb	%al, %al
	jne	LBB84_42
	movq	%rbx, -80(%rbp)
	movq	$1, -72(%rbp)
	movq	$0, -64(%rbp)
	movq	%r12, -48(%rbp)
	movq	$0, -40(%rbp)
	leaq	-80(%rbp), %rsi
	movq	%r15, %rdi
	callq	__ZN4core3fmt9Formatter9write_fmt17h742ca6aae87ad23cE
	testb	%al, %al
	jne	LBB84_42
	movdqa	-96(%rbp), %xmm0
	pextrw	$4, %xmm0, %eax
	movw	%ax, -80(%rbp)
	movq	%r15, %rdi
	callq	__ZN4core3fmt9Formatter15debug_lower_hex17hd07f6fde8d0365dfE
	testb	%al, %al
	je	LBB84_23
	leaq	-80(%rbp), %rdi
	movq	%r15, %rsi
	callq	__ZN4core3fmt3num53_$LT$impl$u20$core..fmt..LowerHex$u20$for$u20$i16$GT$3fmt17h7236122704e16c86E
	jmp	LBB84_25
LBB84_23:
	movq	%r15, %rdi
	callq	__ZN4core3fmt9Formatter15debug_upper_hex17hf480c256a9c81c1eE
	leaq	-80(%rbp), %rdi
	movq	%r15, %rsi
	testb	%al, %al
	je	LBB84_24
	callq	__ZN4core3fmt3num53_$LT$impl$u20$core..fmt..UpperHex$u20$for$u20$i16$GT$3fmt17hf50bc938a2a1e02bE
	jmp	LBB84_25
LBB84_24:
	callq	__ZN4core3fmt3num3imp52_$LT$impl$u20$core..fmt..Display$u20$for$u20$i16$GT$3fmt17h7c7135e52a8bf68aE
LBB84_25:
	testb	%al, %al
	jne	LBB84_42
	movq	%rbx, -80(%rbp)
	movq	$1, -72(%rbp)
	movq	$0, -64(%rbp)
	movq	%r12, -48(%rbp)
	movq	$0, -40(%rbp)
	leaq	-80(%rbp), %rsi
	movq	%r15, %rdi
	callq	__ZN4core3fmt9Formatter9write_fmt17h742ca6aae87ad23cE
	testb	%al, %al
	jne	LBB84_42
	movdqa	-96(%rbp), %xmm0
	pextrw	$5, %xmm0, %eax
	movw	%ax, -80(%rbp)
	movq	%r15, %rdi
	callq	__ZN4core3fmt9Formatter15debug_lower_hex17hd07f6fde8d0365dfE
	testb	%al, %al
	je	LBB84_28
	leaq	-80(%rbp), %rdi
	movq	%r15, %rsi
	callq	__ZN4core3fmt3num53_$LT$impl$u20$core..fmt..LowerHex$u20$for$u20$i16$GT$3fmt17h7236122704e16c86E
	jmp	LBB84_30
LBB84_28:
	movq	%r15, %rdi
	callq	__ZN4core3fmt9Formatter15debug_upper_hex17hf480c256a9c81c1eE
	leaq	-80(%rbp), %rdi
	movq	%r15, %rsi
	testb	%al, %al
	je	LBB84_29
	callq	__ZN4core3fmt3num53_$LT$impl$u20$core..fmt..UpperHex$u20$for$u20$i16$GT$3fmt17hf50bc938a2a1e02bE
	jmp	LBB84_30
LBB84_29:
	callq	__ZN4core3fmt3num3imp52_$LT$impl$u20$core..fmt..Display$u20$for$u20$i16$GT$3fmt17h7c7135e52a8bf68aE
LBB84_30:
	testb	%al, %al
	jne	LBB84_42
	movq	%rbx, -80(%rbp)
	movq	$1, -72(%rbp)
	movq	$0, -64(%rbp)
	movq	%r12, -48(%rbp)
	movq	$0, -40(%rbp)
	leaq	-80(%rbp), %rsi
	movq	%r15, %rdi
	callq	__ZN4core3fmt9Formatter9write_fmt17h742ca6aae87ad23cE
	testb	%al, %al
	jne	LBB84_42
	movdqa	-96(%rbp), %xmm0
	pextrw	$6, %xmm0, %eax
	movw	%ax, -80(%rbp)
	movq	%r15, %rdi
	callq	__ZN4core3fmt9Formatter15debug_lower_hex17hd07f6fde8d0365dfE
	testb	%al, %al
	je	LBB84_33
	leaq	-80(%rbp), %rdi
	movq	%r15, %rsi
	callq	__ZN4core3fmt3num53_$LT$impl$u20$core..fmt..LowerHex$u20$for$u20$i16$GT$3fmt17h7236122704e16c86E
	jmp	LBB84_35
LBB84_33:
	movq	%r15, %rdi
	callq	__ZN4core3fmt9Formatter15debug_upper_hex17hf480c256a9c81c1eE
	leaq	-80(%rbp), %rdi
	movq	%r15, %rsi
	testb	%al, %al
	je	LBB84_34
	callq	__ZN4core3fmt3num53_$LT$impl$u20$core..fmt..UpperHex$u20$for$u20$i16$GT$3fmt17hf50bc938a2a1e02bE
	jmp	LBB84_35
LBB84_34:
	callq	__ZN4core3fmt3num3imp52_$LT$impl$u20$core..fmt..Display$u20$for$u20$i16$GT$3fmt17h7c7135e52a8bf68aE
LBB84_35:
	testb	%al, %al
	jne	LBB84_42
	movq	%rbx, -80(%rbp)
	movq	$1, -72(%rbp)
	movq	$0, -64(%rbp)
	movq	%r12, -48(%rbp)
	movq	$0, -40(%rbp)
	leaq	-80(%rbp), %rsi
	movq	%r15, %rdi
	callq	__ZN4core3fmt9Formatter9write_fmt17h742ca6aae87ad23cE
	testb	%al, %al
	jne	LBB84_42
	movdqa	-96(%rbp), %xmm0
	pextrw	$7, %xmm0, %eax
	movw	%ax, -80(%rbp)
	movq	%r15, %rdi
	callq	__ZN4core3fmt9Formatter15debug_lower_hex17hd07f6fde8d0365dfE
	testb	%al, %al
	je	LBB84_38
	leaq	-80(%rbp), %rdi
	movq	%r15, %rsi
	callq	__ZN4core3fmt3num53_$LT$impl$u20$core..fmt..LowerHex$u20$for$u20$i16$GT$3fmt17h7236122704e16c86E
	jmp	LBB84_40
LBB84_38:
	movq	%r15, %rdi
	callq	__ZN4core3fmt9Formatter15debug_upper_hex17hf480c256a9c81c1eE
	leaq	-80(%rbp), %rdi
	movq	%r15, %rsi
	testb	%al, %al
	je	LBB84_39
	callq	__ZN4core3fmt3num53_$LT$impl$u20$core..fmt..UpperHex$u20$for$u20$i16$GT$3fmt17hf50bc938a2a1e02bE
	jmp	LBB84_40
LBB84_39:
	callq	__ZN4core3fmt3num3imp52_$LT$impl$u20$core..fmt..Display$u20$for$u20$i16$GT$3fmt17h7c7135e52a8bf68aE
LBB84_40:
	testb	%al, %al
	jne	LBB84_42
	leaq	l___unnamed_5(%rip), %rax
	movq	%rax, -80(%rbp)
	movq	$1, -72(%rbp)
	movq	$0, -64(%rbp)
	movq	%r12, -48(%rbp)
	movq	$0, -40(%rbp)
	leaq	-80(%rbp), %rsi
	movq	%r15, %rdi
	callq	__ZN4core3fmt9Formatter9write_fmt17h742ca6aae87ad23cE
	movl	%eax, %r14d
LBB84_42:
	movl	%r14d, %eax
	addq	$80, %rsp
	popq	%rbx
	popq	%r12
	popq	%r14
	popq	%r15
	popq	%rbp
	retq
	.cfi_endproc

	.globl	__ZN11packed_simd4v12899_$LT$impl$u20$core..fmt..LowerHex$u20$for$u20$packed_simd..Simd$LT$$u5b$i16$u3b$$u20$8$u5d$$GT$$GT$3fmt17hbd055039a4b63140E
	.p2align	4, 0x90
__ZN11packed_simd4v12899_$LT$impl$u20$core..fmt..LowerHex$u20$for$u20$packed_simd..Simd$LT$$u5b$i16$u3b$$u20$8$u5d$$GT$$GT$3fmt17hbd055039a4b63140E:
	.cfi_startproc
	pushq	%rbp
	.cfi_def_cfa_offset 16
	.cfi_offset %rbp, -16
	movq	%rsp, %rbp
	.cfi_def_cfa_register %rbp
	pushq	%r15
	pushq	%r14
	pushq	%r13
	pushq	%r12
	pushq	%rbx
	subq	$104, %rsp
	.cfi_offset %rbx, -56
	.cfi_offset %r12, -48
	.cfi_offset %r13, -40
	.cfi_offset %r14, -32
	.cfi_offset %r15, -24
	movq	%rsi, %rbx
	movq	%rdi, %r15
	leaq	l___unnamed_27(%rip), %rax
	movq	%rax, -104(%rbp)
	leaq	__ZN44_$LT$$RF$T$u20$as$u20$core..fmt..Display$GT$3fmt17h50ac1916d68fee72E(%rip), %rax
	movq	%rax, -96(%rbp)
	leaq	l___unnamed_2(%rip), %rax
	movq	%rax, -88(%rbp)
	movq	$2, -80(%rbp)
	movq	$0, -72(%rbp)
	leaq	-104(%rbp), %rax
	movq	%rax, -56(%rbp)
	movq	$1, -48(%rbp)
	leaq	-88(%rbp), %rsi
	movq	%rbx, %rdi
	callq	__ZN4core3fmt9Formatter9write_fmt17h742ca6aae87ad23cE
	movb	$1, %cl
	testb	%al, %al
	jne	LBB85_9
	movaps	(%r15), %xmm0
	movaps	%xmm0, -128(%rbp)
	xorl	%r14d, %r14d
	leaq	-88(%rbp), %r15
	leaq	l___unnamed_3(%rip), %r13
	jmp	LBB85_3
	.p2align	4, 0x90
LBB85_2:
	movaps	-128(%rbp), %xmm0
	movaps	%xmm0, -144(%rbp)
	leaq	1(%r14), %r12
	andl	$7, %r14d
	movzwl	-144(%rbp,%r14,2), %eax
	movw	%ax, -88(%rbp)
	movq	%r15, %rdi
	movq	%rbx, %rsi
	callq	__ZN4core3fmt3num53_$LT$impl$u20$core..fmt..LowerHex$u20$for$u20$i16$GT$3fmt17h7236122704e16c86E
	movq	%r12, %r14
	testb	%al, %al
	jne	LBB85_8
LBB85_3:
	cmpq	$8, %r14
	je	LBB85_7
	testq	%r14, %r14
	je	LBB85_2
	movq	%r13, -88(%rbp)
	movq	$1, -80(%rbp)
	movq	$0, -72(%rbp)
	leaq	l___unnamed_4(%rip), %rax
	movq	%rax, -56(%rbp)
	movq	$0, -48(%rbp)
	movq	%rbx, %rdi
	movq	%r15, %rsi
	callq	__ZN4core3fmt9Formatter9write_fmt17h742ca6aae87ad23cE
	testb	%al, %al
	je	LBB85_2
LBB85_8:
	movb	$1, %cl
	jmp	LBB85_9
LBB85_7:
	leaq	l___unnamed_5(%rip), %rax
	movq	%rax, -88(%rbp)
	movq	$1, -80(%rbp)
	movq	$0, -72(%rbp)
	leaq	l___unnamed_4(%rip), %rax
	movq	%rax, -56(%rbp)
	movq	$0, -48(%rbp)
	leaq	-88(%rbp), %rsi
	movq	%rbx, %rdi
	callq	__ZN4core3fmt9Formatter9write_fmt17h742ca6aae87ad23cE
	movl	%eax, %ecx
LBB85_9:
	movl	%ecx, %eax
	addq	$104, %rsp
	popq	%rbx
	popq	%r12
	popq	%r13
	popq	%r14
	popq	%r15
	popq	%rbp
	retq
	.cfi_endproc

	.globl	__ZN11packed_simd4v12899_$LT$impl$u20$core..fmt..UpperHex$u20$for$u20$packed_simd..Simd$LT$$u5b$i16$u3b$$u20$8$u5d$$GT$$GT$3fmt17h8362847c8689094eE
	.p2align	4, 0x90
__ZN11packed_simd4v12899_$LT$impl$u20$core..fmt..UpperHex$u20$for$u20$packed_simd..Simd$LT$$u5b$i16$u3b$$u20$8$u5d$$GT$$GT$3fmt17h8362847c8689094eE:
	.cfi_startproc
	pushq	%rbp
	.cfi_def_cfa_offset 16
	.cfi_offset %rbp, -16
	movq	%rsp, %rbp
	.cfi_def_cfa_register %rbp
	pushq	%r15
	pushq	%r14
	pushq	%r13
	pushq	%r12
	pushq	%rbx
	subq	$104, %rsp
	.cfi_offset %rbx, -56
	.cfi_offset %r12, -48
	.cfi_offset %r13, -40
	.cfi_offset %r14, -32
	.cfi_offset %r15, -24
	movq	%rsi, %rbx
	movq	%rdi, %r15
	leaq	l___unnamed_27(%rip), %rax
	movq	%rax, -104(%rbp)
	leaq	__ZN44_$LT$$RF$T$u20$as$u20$core..fmt..Display$GT$3fmt17h50ac1916d68fee72E(%rip), %rax
	movq	%rax, -96(%rbp)
	leaq	l___unnamed_2(%rip), %rax
	movq	%rax, -88(%rbp)
	movq	$2, -80(%rbp)
	movq	$0, -72(%rbp)
	leaq	-104(%rbp), %rax
	movq	%rax, -56(%rbp)
	movq	$1, -48(%rbp)
	leaq	-88(%rbp), %rsi
	movq	%rbx, %rdi
	callq	__ZN4core3fmt9Formatter9write_fmt17h742ca6aae87ad23cE
	movb	$1, %cl
	testb	%al, %al
	jne	LBB86_9
	movaps	(%r15), %xmm0
	movaps	%xmm0, -128(%rbp)
	xorl	%r14d, %r14d
	leaq	-88(%rbp), %r15
	leaq	l___unnamed_3(%rip), %r13
	jmp	LBB86_3
	.p2align	4, 0x90
LBB86_2:
	movaps	-128(%rbp), %xmm0
	movaps	%xmm0, -144(%rbp)
	leaq	1(%r14), %r12
	andl	$7, %r14d
	movzwl	-144(%rbp,%r14,2), %eax
	movw	%ax, -88(%rbp)
	movq	%r15, %rdi
	movq	%rbx, %rsi
	callq	__ZN4core3fmt3num53_$LT$impl$u20$core..fmt..UpperHex$u20$for$u20$i16$GT$3fmt17hf50bc938a2a1e02bE
	movq	%r12, %r14
	testb	%al, %al
	jne	LBB86_8
LBB86_3:
	cmpq	$8, %r14
	je	LBB86_7
	testq	%r14, %r14
	je	LBB86_2
	movq	%r13, -88(%rbp)
	movq	$1, -80(%rbp)
	movq	$0, -72(%rbp)
	leaq	l___unnamed_4(%rip), %rax
	movq	%rax, -56(%rbp)
	movq	$0, -48(%rbp)
	movq	%rbx, %rdi
	movq	%r15, %rsi
	callq	__ZN4core3fmt9Formatter9write_fmt17h742ca6aae87ad23cE
	testb	%al, %al
	je	LBB86_2
LBB86_8:
	movb	$1, %cl
	jmp	LBB86_9
LBB86_7:
	leaq	l___unnamed_5(%rip), %rax
	movq	%rax, -88(%rbp)
	movq	$1, -80(%rbp)
	movq	$0, -72(%rbp)
	leaq	l___unnamed_4(%rip), %rax
	movq	%rax, -56(%rbp)
	movq	$0, -48(%rbp)
	leaq	-88(%rbp), %rsi
	movq	%rbx, %rdi
	callq	__ZN4core3fmt9Formatter9write_fmt17h742ca6aae87ad23cE
	movl	%eax, %ecx
LBB86_9:
	movl	%ecx, %eax
	addq	$104, %rsp
	popq	%rbx
	popq	%r12
	popq	%r13
	popq	%r14
	popq	%r15
	popq	%rbp
	retq
	.cfi_endproc

	.globl	__ZN11packed_simd4v12896_$LT$impl$u20$core..fmt..Octal$u20$for$u20$packed_simd..Simd$LT$$u5b$i16$u3b$$u20$8$u5d$$GT$$GT$3fmt17h62a4f1a63098a66eE
	.p2align	4, 0x90
__ZN11packed_simd4v12896_$LT$impl$u20$core..fmt..Octal$u20$for$u20$packed_simd..Simd$LT$$u5b$i16$u3b$$u20$8$u5d$$GT$$GT$3fmt17h62a4f1a63098a66eE:
	.cfi_startproc
	pushq	%rbp
	.cfi_def_cfa_offset 16
	.cfi_offset %rbp, -16
	movq	%rsp, %rbp
	.cfi_def_cfa_register %rbp
	pushq	%r15
	pushq	%r14
	pushq	%r13
	pushq	%r12
	pushq	%rbx
	subq	$104, %rsp
	.cfi_offset %rbx, -56
	.cfi_offset %r12, -48
	.cfi_offset %r13, -40
	.cfi_offset %r14, -32
	.cfi_offset %r15, -24
	movq	%rsi, %rbx
	movq	%rdi, %r15
	leaq	l___unnamed_27(%rip), %rax
	movq	%rax, -104(%rbp)
	leaq	__ZN44_$LT$$RF$T$u20$as$u20$core..fmt..Display$GT$3fmt17h50ac1916d68fee72E(%rip), %rax
	movq	%rax, -96(%rbp)
	leaq	l___unnamed_2(%rip), %rax
	movq	%rax, -88(%rbp)
	movq	$2, -80(%rbp)
	movq	$0, -72(%rbp)
	leaq	-104(%rbp), %rax
	movq	%rax, -56(%rbp)
	movq	$1, -48(%rbp)
	leaq	-88(%rbp), %rsi
	movq	%rbx, %rdi
	callq	__ZN4core3fmt9Formatter9write_fmt17h742ca6aae87ad23cE
	movb	$1, %cl
	testb	%al, %al
	jne	LBB87_9
	movaps	(%r15), %xmm0
	movaps	%xmm0, -128(%rbp)
	xorl	%r14d, %r14d
	leaq	-88(%rbp), %r15
	leaq	l___unnamed_3(%rip), %r13
	jmp	LBB87_3
	.p2align	4, 0x90
LBB87_2:
	movaps	-128(%rbp), %xmm0
	movaps	%xmm0, -144(%rbp)
	leaq	1(%r14), %r12
	andl	$7, %r14d
	movzwl	-144(%rbp,%r14,2), %eax
	movw	%ax, -88(%rbp)
	movq	%r15, %rdi
	movq	%rbx, %rsi
	callq	__ZN4core3fmt3num50_$LT$impl$u20$core..fmt..Octal$u20$for$u20$i16$GT$3fmt17ha0034911fbd4500eE
	movq	%r12, %r14
	testb	%al, %al
	jne	LBB87_8
LBB87_3:
	cmpq	$8, %r14
	je	LBB87_7
	testq	%r14, %r14
	je	LBB87_2
	movq	%r13, -88(%rbp)
	movq	$1, -80(%rbp)
	movq	$0, -72(%rbp)
	leaq	l___unnamed_4(%rip), %rax
	movq	%rax, -56(%rbp)
	movq	$0, -48(%rbp)
	movq	%rbx, %rdi
	movq	%r15, %rsi
	callq	__ZN4core3fmt9Formatter9write_fmt17h742ca6aae87ad23cE
	testb	%al, %al
	je	LBB87_2
LBB87_8:
	movb	$1, %cl
	jmp	LBB87_9
LBB87_7:
	leaq	l___unnamed_5(%rip), %rax
	movq	%rax, -88(%rbp)
	movq	$1, -80(%rbp)
	movq	$0, -72(%rbp)
	leaq	l___unnamed_4(%rip), %rax
	movq	%rax, -56(%rbp)
	movq	$0, -48(%rbp)
	leaq	-88(%rbp), %rsi
	movq	%rbx, %rdi
	callq	__ZN4core3fmt9Formatter9write_fmt17h742ca6aae87ad23cE
	movl	%eax, %ecx
LBB87_9:
	movl	%ecx, %eax
	addq	$104, %rsp
	popq	%rbx
	popq	%r12
	popq	%r13
	popq	%r14
	popq	%r15
	popq	%rbp
	retq
	.cfi_endproc

	.globl	__ZN11packed_simd4v12897_$LT$impl$u20$core..fmt..Binary$u20$for$u20$packed_simd..Simd$LT$$u5b$i16$u3b$$u20$8$u5d$$GT$$GT$3fmt17h427f7addf7816bbdE
	.p2align	4, 0x90
__ZN11packed_simd4v12897_$LT$impl$u20$core..fmt..Binary$u20$for$u20$packed_simd..Simd$LT$$u5b$i16$u3b$$u20$8$u5d$$GT$$GT$3fmt17h427f7addf7816bbdE:
	.cfi_startproc
	pushq	%rbp
	.cfi_def_cfa_offset 16
	.cfi_offset %rbp, -16
	movq	%rsp, %rbp
	.cfi_def_cfa_register %rbp
	pushq	%r15
	pushq	%r14
	pushq	%r13
	pushq	%r12
	pushq	%rbx
	subq	$104, %rsp
	.cfi_offset %rbx, -56
	.cfi_offset %r12, -48
	.cfi_offset %r13, -40
	.cfi_offset %r14, -32
	.cfi_offset %r15, -24
	movq	%rsi, %rbx
	movq	%rdi, %r15
	leaq	l___unnamed_27(%rip), %rax
	movq	%rax, -104(%rbp)
	leaq	__ZN44_$LT$$RF$T$u20$as$u20$core..fmt..Display$GT$3fmt17h50ac1916d68fee72E(%rip), %rax
	movq	%rax, -96(%rbp)
	leaq	l___unnamed_2(%rip), %rax
	movq	%rax, -88(%rbp)
	movq	$2, -80(%rbp)
	movq	$0, -72(%rbp)
	leaq	-104(%rbp), %rax
	movq	%rax, -56(%rbp)
	movq	$1, -48(%rbp)
	leaq	-88(%rbp), %rsi
	movq	%rbx, %rdi
	callq	__ZN4core3fmt9Formatter9write_fmt17h742ca6aae87ad23cE
	movb	$1, %cl
	testb	%al, %al
	jne	LBB88_9
	movaps	(%r15), %xmm0
	movaps	%xmm0, -128(%rbp)
	xorl	%r14d, %r14d
	leaq	-88(%rbp), %r15
	leaq	l___unnamed_3(%rip), %r13
	jmp	LBB88_3
	.p2align	4, 0x90
LBB88_2:
	movaps	-128(%rbp), %xmm0
	movaps	%xmm0, -144(%rbp)
	leaq	1(%r14), %r12
	andl	$7, %r14d
	movzwl	-144(%rbp,%r14,2), %eax
	movw	%ax, -88(%rbp)
	movq	%r15, %rdi
	movq	%rbx, %rsi
	callq	__ZN4core3fmt3num51_$LT$impl$u20$core..fmt..Binary$u20$for$u20$i16$GT$3fmt17hd0d6ed80e6addc96E
	movq	%r12, %r14
	testb	%al, %al
	jne	LBB88_8
LBB88_3:
	cmpq	$8, %r14
	je	LBB88_7
	testq	%r14, %r14
	je	LBB88_2
	movq	%r13, -88(%rbp)
	movq	$1, -80(%rbp)
	movq	$0, -72(%rbp)
	leaq	l___unnamed_4(%rip), %rax
	movq	%rax, -56(%rbp)
	movq	$0, -48(%rbp)
	movq	%rbx, %rdi
	movq	%r15, %rsi
	callq	__ZN4core3fmt9Formatter9write_fmt17h742ca6aae87ad23cE
	testb	%al, %al
	je	LBB88_2
LBB88_8:
	movb	$1, %cl
	jmp	LBB88_9
LBB88_7:
	leaq	l___unnamed_5(%rip), %rax
	movq	%rax, -88(%rbp)
	movq	$1, -80(%rbp)
	movq	$0, -72(%rbp)
	leaq	l___unnamed_4(%rip), %rax
	movq	%rax, -56(%rbp)
	movq	$0, -48(%rbp)
	leaq	-88(%rbp), %rsi
	movq	%rbx, %rdi
	callq	__ZN4core3fmt9Formatter9write_fmt17h742ca6aae87ad23cE
	movl	%eax, %ecx
LBB88_9:
	movl	%ecx, %eax
	addq	$104, %rsp
	popq	%rbx
	popq	%r12
	popq	%r13
	popq	%r14
	popq	%r15
	popq	%rbp
	retq
	.cfi_endproc

	.globl	__ZN11packed_simd4v12896_$LT$impl$u20$core..fmt..Debug$u20$for$u20$packed_simd..Simd$LT$$u5b$u16$u3b$$u20$8$u5d$$GT$$GT$3fmt17hd169d5d012fe1ae1E
	.p2align	4, 0x90
__ZN11packed_simd4v12896_$LT$impl$u20$core..fmt..Debug$u20$for$u20$packed_simd..Simd$LT$$u5b$u16$u3b$$u20$8$u5d$$GT$$GT$3fmt17hd169d5d012fe1ae1E:
	.cfi_startproc
	pushq	%rbp
	.cfi_def_cfa_offset 16
	.cfi_offset %rbp, -16
	movq	%rsp, %rbp
	.cfi_def_cfa_register %rbp
	pushq	%r15
	pushq	%r14
	pushq	%r12
	pushq	%rbx
	subq	$80, %rsp
	.cfi_offset %rbx, -48
	.cfi_offset %r12, -40
	.cfi_offset %r14, -32
	.cfi_offset %r15, -24
	movq	%rsi, %r15
	movq	%rdi, %rbx
	leaq	l___unnamed_28(%rip), %rax
	movq	%rax, -112(%rbp)
	leaq	__ZN44_$LT$$RF$T$u20$as$u20$core..fmt..Display$GT$3fmt17h50ac1916d68fee72E(%rip), %rax
	movq	%rax, -104(%rbp)
	leaq	l___unnamed_2(%rip), %rax
	movq	%rax, -80(%rbp)
	movq	$2, -72(%rbp)
	movq	$0, -64(%rbp)
	leaq	-112(%rbp), %rax
	movq	%rax, -48(%rbp)
	movq	$1, -40(%rbp)
	leaq	-80(%rbp), %rsi
	movq	%r15, %rdi
	callq	__ZN4core3fmt9Formatter9write_fmt17h742ca6aae87ad23cE
	movb	$1, %r14b
	testb	%al, %al
	jne	LBB89_42
	movdqa	(%rbx), %xmm0
	movdqa	%xmm0, -96(%rbp)
	movd	%xmm0, %eax
	movw	%ax, -80(%rbp)
	movq	%r15, %rdi
	callq	__ZN4core3fmt9Formatter15debug_lower_hex17hd07f6fde8d0365dfE
	testb	%al, %al
	je	LBB89_2
	leaq	-80(%rbp), %rdi
	movq	%r15, %rsi
	callq	__ZN4core3fmt3num53_$LT$impl$u20$core..fmt..LowerHex$u20$for$u20$u16$GT$3fmt17h7067c16dc119bdc6E
	testb	%al, %al
	je	LBB89_6
	jmp	LBB89_42
LBB89_2:
	movq	%r15, %rdi
	callq	__ZN4core3fmt9Formatter15debug_upper_hex17hf480c256a9c81c1eE
	leaq	-80(%rbp), %rdi
	movq	%r15, %rsi
	testb	%al, %al
	je	LBB89_4
	callq	__ZN4core3fmt3num53_$LT$impl$u20$core..fmt..UpperHex$u20$for$u20$u16$GT$3fmt17hb4f6c786d08c2f96E
	testb	%al, %al
	je	LBB89_6
	jmp	LBB89_42
LBB89_4:
	callq	__ZN4core3fmt3num3imp52_$LT$impl$u20$core..fmt..Display$u20$for$u20$u16$GT$3fmt17h5ce1a50c193bc52eE
	testb	%al, %al
	jne	LBB89_42
LBB89_6:
	leaq	l___unnamed_3(%rip), %rbx
	movq	%rbx, -80(%rbp)
	movq	$1, -72(%rbp)
	movq	$0, -64(%rbp)
	leaq	l___unnamed_4(%rip), %r12
	movq	%r12, -48(%rbp)
	movq	$0, -40(%rbp)
	leaq	-80(%rbp), %rsi
	movq	%r15, %rdi
	callq	__ZN4core3fmt9Formatter9write_fmt17h742ca6aae87ad23cE
	testb	%al, %al
	jne	LBB89_42
	movdqa	-96(%rbp), %xmm0
	pextrw	$1, %xmm0, %eax
	movw	%ax, -80(%rbp)
	movq	%r15, %rdi
	callq	__ZN4core3fmt9Formatter15debug_lower_hex17hd07f6fde8d0365dfE
	testb	%al, %al
	je	LBB89_8
	leaq	-80(%rbp), %rdi
	movq	%r15, %rsi
	callq	__ZN4core3fmt3num53_$LT$impl$u20$core..fmt..LowerHex$u20$for$u20$u16$GT$3fmt17h7067c16dc119bdc6E
	jmp	LBB89_10
LBB89_8:
	movq	%r15, %rdi
	callq	__ZN4core3fmt9Formatter15debug_upper_hex17hf480c256a9c81c1eE
	leaq	-80(%rbp), %rdi
	movq	%r15, %rsi
	testb	%al, %al
	je	LBB89_9
	callq	__ZN4core3fmt3num53_$LT$impl$u20$core..fmt..UpperHex$u20$for$u20$u16$GT$3fmt17hb4f6c786d08c2f96E
	jmp	LBB89_10
LBB89_9:
	callq	__ZN4core3fmt3num3imp52_$LT$impl$u20$core..fmt..Display$u20$for$u20$u16$GT$3fmt17h5ce1a50c193bc52eE
LBB89_10:
	testb	%al, %al
	jne	LBB89_42
	movq	%rbx, -80(%rbp)
	movq	$1, -72(%rbp)
	movq	$0, -64(%rbp)
	movq	%r12, -48(%rbp)
	movq	$0, -40(%rbp)
	leaq	-80(%rbp), %rsi
	movq	%r15, %rdi
	callq	__ZN4core3fmt9Formatter9write_fmt17h742ca6aae87ad23cE
	testb	%al, %al
	jne	LBB89_42
	movdqa	-96(%rbp), %xmm0
	pextrw	$2, %xmm0, %eax
	movw	%ax, -80(%rbp)
	movq	%r15, %rdi
	callq	__ZN4core3fmt9Formatter15debug_lower_hex17hd07f6fde8d0365dfE
	testb	%al, %al
	je	LBB89_13
	leaq	-80(%rbp), %rdi
	movq	%r15, %rsi
	callq	__ZN4core3fmt3num53_$LT$impl$u20$core..fmt..LowerHex$u20$for$u20$u16$GT$3fmt17h7067c16dc119bdc6E
	jmp	LBB89_15
LBB89_13:
	movq	%r15, %rdi
	callq	__ZN4core3fmt9Formatter15debug_upper_hex17hf480c256a9c81c1eE
	leaq	-80(%rbp), %rdi
	movq	%r15, %rsi
	testb	%al, %al
	je	LBB89_14
	callq	__ZN4core3fmt3num53_$LT$impl$u20$core..fmt..UpperHex$u20$for$u20$u16$GT$3fmt17hb4f6c786d08c2f96E
	jmp	LBB89_15
LBB89_14:
	callq	__ZN4core3fmt3num3imp52_$LT$impl$u20$core..fmt..Display$u20$for$u20$u16$GT$3fmt17h5ce1a50c193bc52eE
LBB89_15:
	testb	%al, %al
	jne	LBB89_42
	movq	%rbx, -80(%rbp)
	movq	$1, -72(%rbp)
	movq	$0, -64(%rbp)
	movq	%r12, -48(%rbp)
	movq	$0, -40(%rbp)
	leaq	-80(%rbp), %rsi
	movq	%r15, %rdi
	callq	__ZN4core3fmt9Formatter9write_fmt17h742ca6aae87ad23cE
	testb	%al, %al
	jne	LBB89_42
	movdqa	-96(%rbp), %xmm0
	pextrw	$3, %xmm0, %eax
	movw	%ax, -80(%rbp)
	movq	%r15, %rdi
	callq	__ZN4core3fmt9Formatter15debug_lower_hex17hd07f6fde8d0365dfE
	testb	%al, %al
	je	LBB89_18
	leaq	-80(%rbp), %rdi
	movq	%r15, %rsi
	callq	__ZN4core3fmt3num53_$LT$impl$u20$core..fmt..LowerHex$u20$for$u20$u16$GT$3fmt17h7067c16dc119bdc6E
	jmp	LBB89_20
LBB89_18:
	movq	%r15, %rdi
	callq	__ZN4core3fmt9Formatter15debug_upper_hex17hf480c256a9c81c1eE
	leaq	-80(%rbp), %rdi
	movq	%r15, %rsi
	testb	%al, %al
	je	LBB89_19
	callq	__ZN4core3fmt3num53_$LT$impl$u20$core..fmt..UpperHex$u20$for$u20$u16$GT$3fmt17hb4f6c786d08c2f96E
	jmp	LBB89_20
LBB89_19:
	callq	__ZN4core3fmt3num3imp52_$LT$impl$u20$core..fmt..Display$u20$for$u20$u16$GT$3fmt17h5ce1a50c193bc52eE
LBB89_20:
	testb	%al, %al
	jne	LBB89_42
	movq	%rbx, -80(%rbp)
	movq	$1, -72(%rbp)
	movq	$0, -64(%rbp)
	movq	%r12, -48(%rbp)
	movq	$0, -40(%rbp)
	leaq	-80(%rbp), %rsi
	movq	%r15, %rdi
	callq	__ZN4core3fmt9Formatter9write_fmt17h742ca6aae87ad23cE
	testb	%al, %al
	jne	LBB89_42
	movdqa	-96(%rbp), %xmm0
	pextrw	$4, %xmm0, %eax
	movw	%ax, -80(%rbp)
	movq	%r15, %rdi
	callq	__ZN4core3fmt9Formatter15debug_lower_hex17hd07f6fde8d0365dfE
	testb	%al, %al
	je	LBB89_23
	leaq	-80(%rbp), %rdi
	movq	%r15, %rsi
	callq	__ZN4core3fmt3num53_$LT$impl$u20$core..fmt..LowerHex$u20$for$u20$u16$GT$3fmt17h7067c16dc119bdc6E
	jmp	LBB89_25
LBB89_23:
	movq	%r15, %rdi
	callq	__ZN4core3fmt9Formatter15debug_upper_hex17hf480c256a9c81c1eE
	leaq	-80(%rbp), %rdi
	movq	%r15, %rsi
	testb	%al, %al
	je	LBB89_24
	callq	__ZN4core3fmt3num53_$LT$impl$u20$core..fmt..UpperHex$u20$for$u20$u16$GT$3fmt17hb4f6c786d08c2f96E
	jmp	LBB89_25
LBB89_24:
	callq	__ZN4core3fmt3num3imp52_$LT$impl$u20$core..fmt..Display$u20$for$u20$u16$GT$3fmt17h5ce1a50c193bc52eE
LBB89_25:
	testb	%al, %al
	jne	LBB89_42
	movq	%rbx, -80(%rbp)
	movq	$1, -72(%rbp)
	movq	$0, -64(%rbp)
	movq	%r12, -48(%rbp)
	movq	$0, -40(%rbp)
	leaq	-80(%rbp), %rsi
	movq	%r15, %rdi
	callq	__ZN4core3fmt9Formatter9write_fmt17h742ca6aae87ad23cE
	testb	%al, %al
	jne	LBB89_42
	movdqa	-96(%rbp), %xmm0
	pextrw	$5, %xmm0, %eax
	movw	%ax, -80(%rbp)
	movq	%r15, %rdi
	callq	__ZN4core3fmt9Formatter15debug_lower_hex17hd07f6fde8d0365dfE
	testb	%al, %al
	je	LBB89_28
	leaq	-80(%rbp), %rdi
	movq	%r15, %rsi
	callq	__ZN4core3fmt3num53_$LT$impl$u20$core..fmt..LowerHex$u20$for$u20$u16$GT$3fmt17h7067c16dc119bdc6E
	jmp	LBB89_30
LBB89_28:
	movq	%r15, %rdi
	callq	__ZN4core3fmt9Formatter15debug_upper_hex17hf480c256a9c81c1eE
	leaq	-80(%rbp), %rdi
	movq	%r15, %rsi
	testb	%al, %al
	je	LBB89_29
	callq	__ZN4core3fmt3num53_$LT$impl$u20$core..fmt..UpperHex$u20$for$u20$u16$GT$3fmt17hb4f6c786d08c2f96E
	jmp	LBB89_30
LBB89_29:
	callq	__ZN4core3fmt3num3imp52_$LT$impl$u20$core..fmt..Display$u20$for$u20$u16$GT$3fmt17h5ce1a50c193bc52eE
LBB89_30:
	testb	%al, %al
	jne	LBB89_42
	movq	%rbx, -80(%rbp)
	movq	$1, -72(%rbp)
	movq	$0, -64(%rbp)
	movq	%r12, -48(%rbp)
	movq	$0, -40(%rbp)
	leaq	-80(%rbp), %rsi
	movq	%r15, %rdi
	callq	__ZN4core3fmt9Formatter9write_fmt17h742ca6aae87ad23cE
	testb	%al, %al
	jne	LBB89_42
	movdqa	-96(%rbp), %xmm0
	pextrw	$6, %xmm0, %eax
	movw	%ax, -80(%rbp)
	movq	%r15, %rdi
	callq	__ZN4core3fmt9Formatter15debug_lower_hex17hd07f6fde8d0365dfE
	testb	%al, %al
	je	LBB89_33
	leaq	-80(%rbp), %rdi
	movq	%r15, %rsi
	callq	__ZN4core3fmt3num53_$LT$impl$u20$core..fmt..LowerHex$u20$for$u20$u16$GT$3fmt17h7067c16dc119bdc6E
	jmp	LBB89_35
LBB89_33:
	movq	%r15, %rdi
	callq	__ZN4core3fmt9Formatter15debug_upper_hex17hf480c256a9c81c1eE
	leaq	-80(%rbp), %rdi
	movq	%r15, %rsi
	testb	%al, %al
	je	LBB89_34
