	.section	__TEXT,__text,regular,pure_instructions
	.macosx_version_min 10, 7
	.intel_syntax noprefix
	.p2align	4, 0x90
__ZN44_$LT$$RF$T$u20$as$u20$core..fmt..Display$GT$3fmt17he911d2ba7c50bb69E:
	.cfi_startproc
	push	rbp
	.cfi_def_cfa_offset 16
	.cfi_offset rbp, -16
	mov	rbp, rsp
	.cfi_def_cfa_register rbp
	mov	rdx, rsi
	mov	rax, qword ptr [rdi]
	mov	rsi, qword ptr [rdi + 8]
	mov	rdi, rax
	pop	rbp
	jmp	__ZN42_$LT$str$u20$as$u20$core..fmt..Display$GT$3fmt17hd4dee1c1c4ccf892E
	.cfi_endproc

	.globl	__ZN68_$LT$packed_simd..masks..m8$u20$as$u20$packed_simd..sealed..Mask$GT$4test17h1f7d4feed59fb263E
	.p2align	4, 0x90
__ZN68_$LT$packed_simd..masks..m8$u20$as$u20$packed_simd..sealed..Mask$GT$4test17h1f7d4feed59fb263E:
	.cfi_startproc
	push	rbp
	.cfi_def_cfa_offset 16
	.cfi_offset rbp, -16
	mov	rbp, rsp
	.cfi_def_cfa_register rbp
	cmp	byte ptr [rdi], 0
	setne	al
	pop	rbp
	ret
	.cfi_endproc

	.globl	__ZN69_$LT$packed_simd..masks..m16$u20$as$u20$packed_simd..sealed..Mask$GT$4test17h8626c12aa2d6f9abE
	.p2align	4, 0x90
__ZN69_$LT$packed_simd..masks..m16$u20$as$u20$packed_simd..sealed..Mask$GT$4test17h8626c12aa2d6f9abE:
	.cfi_startproc
	push	rbp
	.cfi_def_cfa_offset 16
	.cfi_offset rbp, -16
	mov	rbp, rsp
	.cfi_def_cfa_register rbp
	cmp	word ptr [rdi], 0
	setne	al
	pop	rbp
	ret
	.cfi_endproc

	.globl	__ZN69_$LT$packed_simd..masks..m32$u20$as$u20$packed_simd..sealed..Mask$GT$4test17h38089a60288b1a9eE
	.p2align	4, 0x90
__ZN69_$LT$packed_simd..masks..m32$u20$as$u20$packed_simd..sealed..Mask$GT$4test17h38089a60288b1a9eE:
	.cfi_startproc
	push	rbp
	.cfi_def_cfa_offset 16
	.cfi_offset rbp, -16
	mov	rbp, rsp
	.cfi_def_cfa_register rbp
	cmp	dword ptr [rdi], 0
	setne	al
	pop	rbp
	ret
	.cfi_endproc

	.globl	__ZN69_$LT$packed_simd..masks..m64$u20$as$u20$packed_simd..sealed..Mask$GT$4test17hdc843ba41988f55aE
	.p2align	4, 0x90
__ZN69_$LT$packed_simd..masks..m64$u20$as$u20$packed_simd..sealed..Mask$GT$4test17hdc843ba41988f55aE:
	.cfi_startproc
	push	rbp
	.cfi_def_cfa_offset 16
	.cfi_offset rbp, -16
	mov	rbp, rsp
	.cfi_def_cfa_register rbp
	cmp	qword ptr [rdi], 0
	setne	al
	pop	rbp
	ret
	.cfi_endproc

	.globl	__ZN70_$LT$packed_simd..masks..m128$u20$as$u20$packed_simd..sealed..Mask$GT$4test17h533e8c392f4174e0E
	.p2align	4, 0x90
__ZN70_$LT$packed_simd..masks..m128$u20$as$u20$packed_simd..sealed..Mask$GT$4test17h533e8c392f4174e0E:
	.cfi_startproc
	push	rbp
	.cfi_def_cfa_offset 16
	.cfi_offset rbp, -16
	mov	rbp, rsp
	.cfi_def_cfa_register rbp
	mov	rax, qword ptr [rdi]
	or	rax, qword ptr [rdi + 8]
	setne	al
	pop	rbp
	ret
	.cfi_endproc

	.section	__TEXT,__literal16,16byte_literals
	.p2align	4
LCPI6_0:
	.byte	0
	.byte	128
	.byte	128
	.byte	128
	.byte	128
	.byte	128
	.byte	128
	.byte	128
	.byte	1
	.byte	128
	.byte	128
	.byte	128
	.byte	128
	.byte	128
	.byte	128
	.byte	128
	.section	__TEXT,__text,regular,pure_instructions
	.globl	__ZN11packed_simd3v1695_$LT$impl$u20$core..fmt..Debug$u20$for$u20$packed_simd..Simd$LT$$u5b$i8$u3b$$u20$2$u5d$$GT$$GT$3fmt17he85eca3165a80e3cE
	.p2align	4, 0x90
__ZN11packed_simd3v1695_$LT$impl$u20$core..fmt..Debug$u20$for$u20$packed_simd..Simd$LT$$u5b$i8$u3b$$u20$2$u5d$$GT$$GT$3fmt17he85eca3165a80e3cE:
	.cfi_startproc
	push	rbp
	.cfi_def_cfa_offset 16
	.cfi_offset rbp, -16
	mov	rbp, rsp
	.cfi_def_cfa_register rbp
	push	r15
	push	r14
	push	rbx
	sub	rsp, 104
	.cfi_offset rbx, -40
	.cfi_offset r14, -32
	.cfi_offset r15, -24
	mov	r15, rsi
	mov	rbx, rdi
	lea	rax, [rip + __ZN44_$LT$$RF$T$u20$as$u20$core..fmt..Display$GT$3fmt17he911d2ba7c50bb69E]
	movq	xmm0, rax
	lea	rax, [rip + l___unnamed_1]
	movq	xmm1, rax
	punpcklqdq	xmm1, xmm0
	movdqa	xmmword ptr [rbp - 128], xmm1
	lea	rax, [rip + l___unnamed_2]
	mov	qword ptr [rbp - 72], rax
	mov	qword ptr [rbp - 64], 2
	mov	qword ptr [rbp - 56], 0
	lea	rax, [rbp - 128]
	mov	qword ptr [rbp - 40], rax
	mov	qword ptr [rbp - 32], 1
	lea	rsi, [rbp - 72]
	mov	rdi, r15
	call	__ZN4core3fmt9Formatter9write_fmt17h3dc2bf45afed3069E
	mov	r14b, 1
	test	al, al
	jne	LBB6_12
	movzx	eax, word ptr [rbx]
	movd	xmm0, eax
	pshufb	xmm0, xmmword ptr [rip + LCPI6_0]
	movdqa	xmmword ptr [rbp - 96], xmm0
	movdqa	xmmword ptr [rbp - 112], xmm0
	mov	al, byte ptr [rbp - 112]
	mov	byte ptr [rbp - 72], al
	mov	rdi, r15
	call	__ZN4core3fmt9Formatter15debug_lower_hex17h8530fbaeba13f4d9E
	test	al, al
	je	LBB6_2
	lea	rdi, [rbp - 72]
	mov	rsi, r15
	call	__ZN4core3fmt3num52_$LT$impl$u20$core..fmt..LowerHex$u20$for$u20$i8$GT$3fmt17h7f7e9f270a5d54c2E
	test	al, al
	je	LBB6_6
	jmp	LBB6_12
LBB6_2:
	mov	rdi, r15
	call	__ZN4core3fmt9Formatter15debug_upper_hex17hf8fda15ec43a1e68E
	lea	rdi, [rbp - 72]
	mov	rsi, r15
	test	al, al
	je	LBB6_4
	call	__ZN4core3fmt3num52_$LT$impl$u20$core..fmt..UpperHex$u20$for$u20$i8$GT$3fmt17hd41115610f011194E
	test	al, al
	je	LBB6_6
	jmp	LBB6_12
LBB6_4:
	call	__ZN4core3fmt3num3imp51_$LT$impl$u20$core..fmt..Display$u20$for$u20$i8$GT$3fmt17hc80f24a4257c3563E
	test	al, al
	jne	LBB6_12
LBB6_6:
	lea	rax, [rip + l___unnamed_3]
	mov	qword ptr [rbp - 72], rax
	mov	qword ptr [rbp - 64], 1
	mov	qword ptr [rbp - 56], 0
	lea	rbx, [rip + l___unnamed_4]
	mov	qword ptr [rbp - 40], rbx
	mov	qword ptr [rbp - 32], 0
	lea	rsi, [rbp - 72]
	mov	rdi, r15
	call	__ZN4core3fmt9Formatter9write_fmt17h3dc2bf45afed3069E
	test	al, al
	jne	LBB6_12
	movdqa	xmm0, xmmword ptr [rbp - 96]
	pextrw	eax, xmm0, 4
	mov	byte ptr [rbp - 72], al
	mov	rdi, r15
	call	__ZN4core3fmt9Formatter15debug_lower_hex17h8530fbaeba13f4d9E
	test	al, al
	je	LBB6_8
	lea	rdi, [rbp - 72]
	mov	rsi, r15
	call	__ZN4core3fmt3num52_$LT$impl$u20$core..fmt..LowerHex$u20$for$u20$i8$GT$3fmt17h7f7e9f270a5d54c2E
	test	al, al
	jne	LBB6_12
LBB6_11:
	lea	rax, [rip + l___unnamed_5]
	mov	qword ptr [rbp - 72], rax
	mov	qword ptr [rbp - 64], 1
	mov	qword ptr [rbp - 56], 0
	mov	qword ptr [rbp - 40], rbx
	mov	qword ptr [rbp - 32], 0
	lea	rsi, [rbp - 72]
	mov	rdi, r15
	call	__ZN4core3fmt9Formatter9write_fmt17h3dc2bf45afed3069E
	mov	r14d, eax
LBB6_12:
	mov	eax, r14d
	add	rsp, 104
	pop	rbx
	pop	r14
	pop	r15
	pop	rbp
	ret
LBB6_8:
	mov	rdi, r15
	call	__ZN4core3fmt9Formatter15debug_upper_hex17hf8fda15ec43a1e68E
	lea	rdi, [rbp - 72]
	mov	rsi, r15
	test	al, al
	je	LBB6_9
	call	__ZN4core3fmt3num52_$LT$impl$u20$core..fmt..UpperHex$u20$for$u20$i8$GT$3fmt17hd41115610f011194E
	test	al, al
	je	LBB6_11
	jmp	LBB6_12
LBB6_9:
	call	__ZN4core3fmt3num3imp51_$LT$impl$u20$core..fmt..Display$u20$for$u20$i8$GT$3fmt17hc80f24a4257c3563E
	test	al, al
	je	LBB6_11
	jmp	LBB6_12
	.cfi_endproc

	.section	__TEXT,__literal16,16byte_literals
	.p2align	4
LCPI7_0:
	.byte	0
	.byte	128
	.byte	128
	.byte	128
	.byte	128
	.byte	128
	.byte	128
	.byte	128
	.byte	1
	.byte	128
	.byte	128
	.byte	128
	.byte	128
	.byte	128
	.byte	128
	.byte	128
	.section	__TEXT,__text,regular,pure_instructions
	.globl	__ZN11packed_simd3v1698_$LT$impl$u20$core..fmt..LowerHex$u20$for$u20$packed_simd..Simd$LT$$u5b$i8$u3b$$u20$2$u5d$$GT$$GT$3fmt17h1ec27900c3f212daE
	.p2align	4, 0x90
__ZN11packed_simd3v1698_$LT$impl$u20$core..fmt..LowerHex$u20$for$u20$packed_simd..Simd$LT$$u5b$i8$u3b$$u20$2$u5d$$GT$$GT$3fmt17h1ec27900c3f212daE:
	.cfi_startproc
	push	rbp
	.cfi_def_cfa_offset 16
	.cfi_offset rbp, -16
	mov	rbp, rsp
	.cfi_def_cfa_register rbp
	push	r15
	push	r14
	push	r13
	push	r12
	push	rbx
	sub	rsp, 104
	.cfi_offset rbx, -56
	.cfi_offset r12, -48
	.cfi_offset r13, -40
	.cfi_offset r14, -32
	.cfi_offset r15, -24
	mov	rbx, rsi
	mov	r15, rdi
	lea	rax, [rip + __ZN44_$LT$$RF$T$u20$as$u20$core..fmt..Display$GT$3fmt17he911d2ba7c50bb69E]
	movq	xmm0, rax
	lea	rax, [rip + l___unnamed_1]
	movq	xmm1, rax
	punpcklqdq	xmm1, xmm0
	movdqa	xmmword ptr [rbp - 144], xmm1
	lea	rax, [rip + l___unnamed_2]
	mov	qword ptr [rbp - 88], rax
	mov	qword ptr [rbp - 80], 2
	mov	qword ptr [rbp - 72], 0
	lea	rax, [rbp - 144]
	mov	qword ptr [rbp - 56], rax
	mov	qword ptr [rbp - 48], 1
	lea	rsi, [rbp - 88]
	mov	rdi, rbx
	call	__ZN4core3fmt9Formatter9write_fmt17h3dc2bf45afed3069E
	mov	cl, 1
	test	al, al
	jne	LBB7_8
	movzx	eax, word ptr [r15]
	movd	xmm0, eax
	pshufb	xmm0, xmmword ptr [rip + LCPI7_0]
	movdqa	xmmword ptr [rbp - 112], xmm0
	xor	r14d, r14d
	lea	r15, [rbp - 88]
	lea	r13, [rip + l___unnamed_3]
	cmp	r14, 2
	jne	LBB7_4
	jmp	LBB7_3
	.p2align	4, 0x90
LBB7_6:
	movdqa	xmm0, xmmword ptr [rbp - 112]
	movdqa	xmmword ptr [rbp - 128], xmm0
	lea	r12, [r14 + 1]
	and	r14d, 1
	movzx	eax, byte ptr [rbp + 8*r14 - 128]
	mov	byte ptr [rbp - 88], al
	mov	rdi, r15
	mov	rsi, rbx
	call	__ZN4core3fmt3num52_$LT$impl$u20$core..fmt..LowerHex$u20$for$u20$i8$GT$3fmt17h7f7e9f270a5d54c2E
	mov	r14, r12
	test	al, al
	jne	LBB7_7
	cmp	r14, 2
	je	LBB7_3
LBB7_4:
	test	r14, r14
	je	LBB7_6
	mov	qword ptr [rbp - 88], r13
	mov	qword ptr [rbp - 80], 1
	mov	qword ptr [rbp - 72], 0
	lea	rax, [rip + l___unnamed_4]
	mov	qword ptr [rbp - 56], rax
	mov	qword ptr [rbp - 48], 0
	mov	rdi, rbx
	mov	rsi, r15
	call	__ZN4core3fmt9Formatter9write_fmt17h3dc2bf45afed3069E
	test	al, al
	je	LBB7_6
LBB7_7:
	mov	cl, 1
	jmp	LBB7_8
LBB7_3:
	lea	rax, [rip + l___unnamed_5]
	mov	qword ptr [rbp - 88], rax
	mov	qword ptr [rbp - 80], 1
	mov	qword ptr [rbp - 72], 0
	lea	rax, [rip + l___unnamed_4]
	mov	qword ptr [rbp - 56], rax
	mov	qword ptr [rbp - 48], 0
	lea	rsi, [rbp - 88]
	mov	rdi, rbx
	call	__ZN4core3fmt9Formatter9write_fmt17h3dc2bf45afed3069E
	mov	ecx, eax
LBB7_8:
	mov	eax, ecx
	add	rsp, 104
	pop	rbx
	pop	r12
	pop	r13
	pop	r14
	pop	r15
	pop	rbp
	ret
	.cfi_endproc

	.section	__TEXT,__literal16,16byte_literals
	.p2align	4
LCPI8_0:
	.byte	0
	.byte	128
	.byte	128
	.byte	128
	.byte	128
	.byte	128
	.byte	128
	.byte	128
	.byte	1
	.byte	128
	.byte	128
	.byte	128
	.byte	128
	.byte	128
	.byte	128
	.byte	128
	.section	__TEXT,__text,regular,pure_instructions
	.globl	__ZN11packed_simd3v1698_$LT$impl$u20$core..fmt..UpperHex$u20$for$u20$packed_simd..Simd$LT$$u5b$i8$u3b$$u20$2$u5d$$GT$$GT$3fmt17he3fd9a8dcb818e28E
	.p2align	4, 0x90
__ZN11packed_simd3v1698_$LT$impl$u20$core..fmt..UpperHex$u20$for$u20$packed_simd..Simd$LT$$u5b$i8$u3b$$u20$2$u5d$$GT$$GT$3fmt17he3fd9a8dcb818e28E:
	.cfi_startproc
	push	rbp
	.cfi_def_cfa_offset 16
	.cfi_offset rbp, -16
	mov	rbp, rsp
	.cfi_def_cfa_register rbp
	push	r15
	push	r14
	push	r13
	push	r12
	push	rbx
	sub	rsp, 104
	.cfi_offset rbx, -56
	.cfi_offset r12, -48
	.cfi_offset r13, -40
	.cfi_offset r14, -32
	.cfi_offset r15, -24
	mov	rbx, rsi
	mov	r15, rdi
	lea	rax, [rip + __ZN44_$LT$$RF$T$u20$as$u20$core..fmt..Display$GT$3fmt17he911d2ba7c50bb69E]
	movq	xmm0, rax
	lea	rax, [rip + l___unnamed_1]
	movq	xmm1, rax
	punpcklqdq	xmm1, xmm0
	movdqa	xmmword ptr [rbp - 144], xmm1
	lea	rax, [rip + l___unnamed_2]
	mov	qword ptr [rbp - 88], rax
	mov	qword ptr [rbp - 80], 2
	mov	qword ptr [rbp - 72], 0
	lea	rax, [rbp - 144]
	mov	qword ptr [rbp - 56], rax
	mov	qword ptr [rbp - 48], 1
	lea	rsi, [rbp - 88]
	mov	rdi, rbx
	call	__ZN4core3fmt9Formatter9write_fmt17h3dc2bf45afed3069E
	mov	cl, 1
	test	al, al
	jne	LBB8_8
	movzx	eax, word ptr [r15]
	movd	xmm0, eax
	pshufb	xmm0, xmmword ptr [rip + LCPI8_0]
	movdqa	xmmword ptr [rbp - 112], xmm0
	xor	r14d, r14d
	lea	r15, [rbp - 88]
	lea	r13, [rip + l___unnamed_3]
	cmp	r14, 2
	jne	LBB8_4
	jmp	LBB8_3
	.p2align	4, 0x90
LBB8_6:
	movdqa	xmm0, xmmword ptr [rbp - 112]
	movdqa	xmmword ptr [rbp - 128], xmm0
	lea	r12, [r14 + 1]
	and	r14d, 1
	movzx	eax, byte ptr [rbp + 8*r14 - 128]
	mov	byte ptr [rbp - 88], al
	mov	rdi, r15
	mov	rsi, rbx
	call	__ZN4core3fmt3num52_$LT$impl$u20$core..fmt..UpperHex$u20$for$u20$i8$GT$3fmt17hd41115610f011194E
	mov	r14, r12
	test	al, al
	jne	LBB8_7
	cmp	r14, 2
	je	LBB8_3
LBB8_4:
	test	r14, r14
	je	LBB8_6
	mov	qword ptr [rbp - 88], r13
	mov	qword ptr [rbp - 80], 1
	mov	qword ptr [rbp - 72], 0
	lea	rax, [rip + l___unnamed_4]
	mov	qword ptr [rbp - 56], rax
	mov	qword ptr [rbp - 48], 0
	mov	rdi, rbx
	mov	rsi, r15
	call	__ZN4core3fmt9Formatter9write_fmt17h3dc2bf45afed3069E
	test	al, al
	je	LBB8_6
LBB8_7:
	mov	cl, 1
	jmp	LBB8_8
LBB8_3:
	lea	rax, [rip + l___unnamed_5]
	mov	qword ptr [rbp - 88], rax
	mov	qword ptr [rbp - 80], 1
	mov	qword ptr [rbp - 72], 0
	lea	rax, [rip + l___unnamed_4]
	mov	qword ptr [rbp - 56], rax
	mov	qword ptr [rbp - 48], 0
	lea	rsi, [rbp - 88]
	mov	rdi, rbx
	call	__ZN4core3fmt9Formatter9write_fmt17h3dc2bf45afed3069E
	mov	ecx, eax
LBB8_8:
	mov	eax, ecx
	add	rsp, 104
	pop	rbx
	pop	r12
	pop	r13
	pop	r14
	pop	r15
	pop	rbp
	ret
	.cfi_endproc

	.section	__TEXT,__literal16,16byte_literals
	.p2align	4
LCPI9_0:
	.byte	0
	.byte	128
	.byte	128
	.byte	128
	.byte	128
	.byte	128
	.byte	128
	.byte	128
	.byte	1
	.byte	128
	.byte	128
	.byte	128
	.byte	128
	.byte	128
	.byte	128
	.byte	128
	.section	__TEXT,__text,regular,pure_instructions
	.globl	__ZN11packed_simd3v1695_$LT$impl$u20$core..fmt..Octal$u20$for$u20$packed_simd..Simd$LT$$u5b$i8$u3b$$u20$2$u5d$$GT$$GT$3fmt17h1fd438eae7d7aaedE
	.p2align	4, 0x90
__ZN11packed_simd3v1695_$LT$impl$u20$core..fmt..Octal$u20$for$u20$packed_simd..Simd$LT$$u5b$i8$u3b$$u20$2$u5d$$GT$$GT$3fmt17h1fd438eae7d7aaedE:
	.cfi_startproc
	push	rbp
	.cfi_def_cfa_offset 16
	.cfi_offset rbp, -16
	mov	rbp, rsp
	.cfi_def_cfa_register rbp
	push	r15
	push	r14
	push	r13
	push	r12
	push	rbx
	sub	rsp, 104
	.cfi_offset rbx, -56
	.cfi_offset r12, -48
	.cfi_offset r13, -40
	.cfi_offset r14, -32
	.cfi_offset r15, -24
	mov	rbx, rsi
	mov	r15, rdi
	lea	rax, [rip + __ZN44_$LT$$RF$T$u20$as$u20$core..fmt..Display$GT$3fmt17he911d2ba7c50bb69E]
	movq	xmm0, rax
	lea	rax, [rip + l___unnamed_1]
	movq	xmm1, rax
	punpcklqdq	xmm1, xmm0
	movdqa	xmmword ptr [rbp - 144], xmm1
	lea	rax, [rip + l___unnamed_2]
	mov	qword ptr [rbp - 88], rax
	mov	qword ptr [rbp - 80], 2
	mov	qword ptr [rbp - 72], 0
	lea	rax, [rbp - 144]
	mov	qword ptr [rbp - 56], rax
	mov	qword ptr [rbp - 48], 1
	lea	rsi, [rbp - 88]
	mov	rdi, rbx
	call	__ZN4core3fmt9Formatter9write_fmt17h3dc2bf45afed3069E
	mov	cl, 1
	test	al, al
	jne	LBB9_8
	movzx	eax, word ptr [r15]
	movd	xmm0, eax
	pshufb	xmm0, xmmword ptr [rip + LCPI9_0]
	movdqa	xmmword ptr [rbp - 112], xmm0
	xor	r14d, r14d
	lea	r15, [rbp - 88]
	lea	r13, [rip + l___unnamed_3]
	cmp	r14, 2
	jne	LBB9_4
	jmp	LBB9_3
	.p2align	4, 0x90
LBB9_6:
	movdqa	xmm0, xmmword ptr [rbp - 112]
	movdqa	xmmword ptr [rbp - 128], xmm0
	lea	r12, [r14 + 1]
	and	r14d, 1
	movzx	eax, byte ptr [rbp + 8*r14 - 128]
	mov	byte ptr [rbp - 88], al
	mov	rdi, r15
	mov	rsi, rbx
	call	__ZN4core3fmt3num49_$LT$impl$u20$core..fmt..Octal$u20$for$u20$i8$GT$3fmt17h29cc81c11127ecd6E
	mov	r14, r12
	test	al, al
	jne	LBB9_7
	cmp	r14, 2
	je	LBB9_3
LBB9_4:
	test	r14, r14
	je	LBB9_6
	mov	qword ptr [rbp - 88], r13
	mov	qword ptr [rbp - 80], 1
	mov	qword ptr [rbp - 72], 0
	lea	rax, [rip + l___unnamed_4]
	mov	qword ptr [rbp - 56], rax
	mov	qword ptr [rbp - 48], 0
	mov	rdi, rbx
	mov	rsi, r15
	call	__ZN4core3fmt9Formatter9write_fmt17h3dc2bf45afed3069E
	test	al, al
	je	LBB9_6
LBB9_7:
	mov	cl, 1
	jmp	LBB9_8
LBB9_3:
	lea	rax, [rip + l___unnamed_5]
	mov	qword ptr [rbp - 88], rax
	mov	qword ptr [rbp - 80], 1
	mov	qword ptr [rbp - 72], 0
	lea	rax, [rip + l___unnamed_4]
	mov	qword ptr [rbp - 56], rax
	mov	qword ptr [rbp - 48], 0
	lea	rsi, [rbp - 88]
	mov	rdi, rbx
	call	__ZN4core3fmt9Formatter9write_fmt17h3dc2bf45afed3069E
	mov	ecx, eax
LBB9_8:
	mov	eax, ecx
	add	rsp, 104
	pop	rbx
	pop	r12
	pop	r13
	pop	r14
	pop	r15
	pop	rbp
	ret
	.cfi_endproc

	.section	__TEXT,__literal16,16byte_literals
	.p2align	4
LCPI10_0:
	.byte	0
	.byte	128
	.byte	128
	.byte	128
	.byte	128
	.byte	128
	.byte	128
	.byte	128
	.byte	1
	.byte	128
	.byte	128
	.byte	128
	.byte	128
	.byte	128
	.byte	128
	.byte	128
	.section	__TEXT,__text,regular,pure_instructions
	.globl	__ZN11packed_simd3v1696_$LT$impl$u20$core..fmt..Binary$u20$for$u20$packed_simd..Simd$LT$$u5b$i8$u3b$$u20$2$u5d$$GT$$GT$3fmt17h94cfa4fd04fc2cffE
	.p2align	4, 0x90
__ZN11packed_simd3v1696_$LT$impl$u20$core..fmt..Binary$u20$for$u20$packed_simd..Simd$LT$$u5b$i8$u3b$$u20$2$u5d$$GT$$GT$3fmt17h94cfa4fd04fc2cffE:
	.cfi_startproc
	push	rbp
	.cfi_def_cfa_offset 16
	.cfi_offset rbp, -16
	mov	rbp, rsp
	.cfi_def_cfa_register rbp
	push	r15
	push	r14
	push	r13
	push	r12
	push	rbx
	sub	rsp, 104
	.cfi_offset rbx, -56
	.cfi_offset r12, -48
	.cfi_offset r13, -40
	.cfi_offset r14, -32
	.cfi_offset r15, -24
	mov	rbx, rsi
	mov	r15, rdi
	lea	rax, [rip + __ZN44_$LT$$RF$T$u20$as$u20$core..fmt..Display$GT$3fmt17he911d2ba7c50bb69E]
	movq	xmm0, rax
	lea	rax, [rip + l___unnamed_1]
	movq	xmm1, rax
	punpcklqdq	xmm1, xmm0
	movdqa	xmmword ptr [rbp - 144], xmm1
	lea	rax, [rip + l___unnamed_2]
	mov	qword ptr [rbp - 88], rax
	mov	qword ptr [rbp - 80], 2
	mov	qword ptr [rbp - 72], 0
	lea	rax, [rbp - 144]
	mov	qword ptr [rbp - 56], rax
	mov	qword ptr [rbp - 48], 1
	lea	rsi, [rbp - 88]
	mov	rdi, rbx
	call	__ZN4core3fmt9Formatter9write_fmt17h3dc2bf45afed3069E
	mov	cl, 1
	test	al, al
	jne	LBB10_8
	movzx	eax, word ptr [r15]
	movd	xmm0, eax
	pshufb	xmm0, xmmword ptr [rip + LCPI10_0]
	movdqa	xmmword ptr [rbp - 112], xmm0
	xor	r14d, r14d
	lea	r15, [rbp - 88]
	lea	r13, [rip + l___unnamed_3]
	cmp	r14, 2
	jne	LBB10_4
	jmp	LBB10_3
	.p2align	4, 0x90
LBB10_6:
	movdqa	xmm0, xmmword ptr [rbp - 112]
	movdqa	xmmword ptr [rbp - 128], xmm0
	lea	r12, [r14 + 1]
	and	r14d, 1
	movzx	eax, byte ptr [rbp + 8*r14 - 128]
	mov	byte ptr [rbp - 88], al
	mov	rdi, r15
	mov	rsi, rbx
	call	__ZN4core3fmt3num50_$LT$impl$u20$core..fmt..Binary$u20$for$u20$i8$GT$3fmt17h6b85acc99cf4b968E
	mov	r14, r12
	test	al, al
	jne	LBB10_7
	cmp	r14, 2
	je	LBB10_3
LBB10_4:
	test	r14, r14
	je	LBB10_6
	mov	qword ptr [rbp - 88], r13
	mov	qword ptr [rbp - 80], 1
	mov	qword ptr [rbp - 72], 0
	lea	rax, [rip + l___unnamed_4]
	mov	qword ptr [rbp - 56], rax
	mov	qword ptr [rbp - 48], 0
	mov	rdi, rbx
	mov	rsi, r15
	call	__ZN4core3fmt9Formatter9write_fmt17h3dc2bf45afed3069E
	test	al, al
	je	LBB10_6
LBB10_7:
	mov	cl, 1
	jmp	LBB10_8
LBB10_3:
	lea	rax, [rip + l___unnamed_5]
	mov	qword ptr [rbp - 88], rax
	mov	qword ptr [rbp - 80], 1
	mov	qword ptr [rbp - 72], 0
	lea	rax, [rip + l___unnamed_4]
	mov	qword ptr [rbp - 56], rax
	mov	qword ptr [rbp - 48], 0
	lea	rsi, [rbp - 88]
	mov	rdi, rbx
	call	__ZN4core3fmt9Formatter9write_fmt17h3dc2bf45afed3069E
	mov	ecx, eax
LBB10_8:
	mov	eax, ecx
	add	rsp, 104
	pop	rbx
	pop	r12
	pop	r13
	pop	r14
	pop	r15
	pop	rbp
	ret
	.cfi_endproc

	.section	__TEXT,__literal16,16byte_literals
	.p2align	4
LCPI11_0:
	.byte	0
	.byte	128
	.byte	128
	.byte	128
	.byte	128
	.byte	128
	.byte	128
	.byte	128
	.byte	1
	.byte	128
	.byte	128
	.byte	128
	.byte	128
	.byte	128
	.byte	128
	.byte	128
	.section	__TEXT,__text,regular,pure_instructions
	.globl	__ZN11packed_simd3v1695_$LT$impl$u20$core..fmt..Debug$u20$for$u20$packed_simd..Simd$LT$$u5b$u8$u3b$$u20$2$u5d$$GT$$GT$3fmt17hbae48cdb19340187E
	.p2align	4, 0x90
__ZN11packed_simd3v1695_$LT$impl$u20$core..fmt..Debug$u20$for$u20$packed_simd..Simd$LT$$u5b$u8$u3b$$u20$2$u5d$$GT$$GT$3fmt17hbae48cdb19340187E:
	.cfi_startproc
	push	rbp
	.cfi_def_cfa_offset 16
	.cfi_offset rbp, -16
	mov	rbp, rsp
	.cfi_def_cfa_register rbp
	push	r15
	push	r14
	push	rbx
	sub	rsp, 104
	.cfi_offset rbx, -40
	.cfi_offset r14, -32
	.cfi_offset r15, -24
	mov	r15, rsi
	mov	rbx, rdi
	lea	rax, [rip + __ZN44_$LT$$RF$T$u20$as$u20$core..fmt..Display$GT$3fmt17he911d2ba7c50bb69E]
	movq	xmm0, rax
	lea	rax, [rip + l___unnamed_6]
	movq	xmm1, rax
	punpcklqdq	xmm1, xmm0
	movdqa	xmmword ptr [rbp - 128], xmm1
	lea	rax, [rip + l___unnamed_2]
	mov	qword ptr [rbp - 72], rax
	mov	qword ptr [rbp - 64], 2
	mov	qword ptr [rbp - 56], 0
	lea	rax, [rbp - 128]
	mov	qword ptr [rbp - 40], rax
	mov	qword ptr [rbp - 32], 1
	lea	rsi, [rbp - 72]
	mov	rdi, r15
	call	__ZN4core3fmt9Formatter9write_fmt17h3dc2bf45afed3069E
	mov	r14b, 1
	test	al, al
	jne	LBB11_12
	movzx	eax, word ptr [rbx]
	movd	xmm0, eax
	pshufb	xmm0, xmmword ptr [rip + LCPI11_0]
	movdqa	xmmword ptr [rbp - 96], xmm0
	movdqa	xmmword ptr [rbp - 112], xmm0
	mov	al, byte ptr [rbp - 112]
	mov	byte ptr [rbp - 72], al
	mov	rdi, r15
	call	__ZN4core3fmt9Formatter15debug_lower_hex17h8530fbaeba13f4d9E
	test	al, al
	je	LBB11_2
	lea	rdi, [rbp - 72]
	mov	rsi, r15
	call	__ZN4core3fmt3num52_$LT$impl$u20$core..fmt..LowerHex$u20$for$u20$u8$GT$3fmt17h7701faa643a10c55E
	test	al, al
	je	LBB11_6
	jmp	LBB11_12
LBB11_2:
	mov	rdi, r15
	call	__ZN4core3fmt9Formatter15debug_upper_hex17hf8fda15ec43a1e68E
	lea	rdi, [rbp - 72]
	mov	rsi, r15
	test	al, al
	je	LBB11_4
	call	__ZN4core3fmt3num52_$LT$impl$u20$core..fmt..UpperHex$u20$for$u20$u8$GT$3fmt17ha797e73a900719d8E
	test	al, al
	je	LBB11_6
	jmp	LBB11_12
LBB11_4:
	call	__ZN4core3fmt3num3imp51_$LT$impl$u20$core..fmt..Display$u20$for$u20$u8$GT$3fmt17h0e89df114e53d66dE
	test	al, al
	jne	LBB11_12
LBB11_6:
	lea	rax, [rip + l___unnamed_3]
	mov	qword ptr [rbp - 72], rax
	mov	qword ptr [rbp - 64], 1
	mov	qword ptr [rbp - 56], 0
	lea	rbx, [rip + l___unnamed_4]
	mov	qword ptr [rbp - 40], rbx
	mov	qword ptr [rbp - 32], 0
	lea	rsi, [rbp - 72]
	mov	rdi, r15
	call	__ZN4core3fmt9Formatter9write_fmt17h3dc2bf45afed3069E
	test	al, al
	jne	LBB11_12
	movdqa	xmm0, xmmword ptr [rbp - 96]
	pextrw	eax, xmm0, 4
	mov	byte ptr [rbp - 72], al
	mov	rdi, r15
	call	__ZN4core3fmt9Formatter15debug_lower_hex17h8530fbaeba13f4d9E
	test	al, al
	je	LBB11_8
	lea	rdi, [rbp - 72]
	mov	rsi, r15
	call	__ZN4core3fmt3num52_$LT$impl$u20$core..fmt..LowerHex$u20$for$u20$u8$GT$3fmt17h7701faa643a10c55E
	test	al, al
	jne	LBB11_12
LBB11_11:
	lea	rax, [rip + l___unnamed_5]
	mov	qword ptr [rbp - 72], rax
	mov	qword ptr [rbp - 64], 1
	mov	qword ptr [rbp - 56], 0
	mov	qword ptr [rbp - 40], rbx
	mov	qword ptr [rbp - 32], 0
	lea	rsi, [rbp - 72]
	mov	rdi, r15
	call	__ZN4core3fmt9Formatter9write_fmt17h3dc2bf45afed3069E
	mov	r14d, eax
LBB11_12:
	mov	eax, r14d
	add	rsp, 104
	pop	rbx
	pop	r14
	pop	r15
	pop	rbp
	ret
LBB11_8:
	mov	rdi, r15
	call	__ZN4core3fmt9Formatter15debug_upper_hex17hf8fda15ec43a1e68E
	lea	rdi, [rbp - 72]
	mov	rsi, r15
	test	al, al
	je	LBB11_9
	call	__ZN4core3fmt3num52_$LT$impl$u20$core..fmt..UpperHex$u20$for$u20$u8$GT$3fmt17ha797e73a900719d8E
	test	al, al
	je	LBB11_11
	jmp	LBB11_12
LBB11_9:
	call	__ZN4core3fmt3num3imp51_$LT$impl$u20$core..fmt..Display$u20$for$u20$u8$GT$3fmt17h0e89df114e53d66dE
	test	al, al
	je	LBB11_11
	jmp	LBB11_12
	.cfi_endproc

	.section	__TEXT,__literal16,16byte_literals
	.p2align	4
LCPI12_0:
	.byte	0
	.byte	128
	.byte	128
	.byte	128
	.byte	128
	.byte	128
	.byte	128
	.byte	128
	.byte	1
	.byte	128
	.byte	128
	.byte	128
	.byte	128
	.byte	128
	.byte	128
	.byte	128
	.section	__TEXT,__text,regular,pure_instructions
	.globl	__ZN11packed_simd3v1698_$LT$impl$u20$core..fmt..LowerHex$u20$for$u20$packed_simd..Simd$LT$$u5b$u8$u3b$$u20$2$u5d$$GT$$GT$3fmt17h99f5ef2ffeb0ed6bE
	.p2align	4, 0x90
__ZN11packed_simd3v1698_$LT$impl$u20$core..fmt..LowerHex$u20$for$u20$packed_simd..Simd$LT$$u5b$u8$u3b$$u20$2$u5d$$GT$$GT$3fmt17h99f5ef2ffeb0ed6bE:
	.cfi_startproc
	push	rbp
	.cfi_def_cfa_offset 16
	.cfi_offset rbp, -16
	mov	rbp, rsp
	.cfi_def_cfa_register rbp
	push	r15
	push	r14
	push	r13
	push	r12
	push	rbx
	sub	rsp, 104
	.cfi_offset rbx, -56
	.cfi_offset r12, -48
	.cfi_offset r13, -40
	.cfi_offset r14, -32
	.cfi_offset r15, -24
	mov	rbx, rsi
	mov	r15, rdi
	lea	rax, [rip + __ZN44_$LT$$RF$T$u20$as$u20$core..fmt..Display$GT$3fmt17he911d2ba7c50bb69E]
	movq	xmm0, rax
	lea	rax, [rip + l___unnamed_6]
	movq	xmm1, rax
	punpcklqdq	xmm1, xmm0
	movdqa	xmmword ptr [rbp - 144], xmm1
	lea	rax, [rip + l___unnamed_2]
	mov	qword ptr [rbp - 88], rax
	mov	qword ptr [rbp - 80], 2
	mov	qword ptr [rbp - 72], 0
	lea	rax, [rbp - 144]
	mov	qword ptr [rbp - 56], rax
	mov	qword ptr [rbp - 48], 1
	lea	rsi, [rbp - 88]
	mov	rdi, rbx
	call	__ZN4core3fmt9Formatter9write_fmt17h3dc2bf45afed3069E
	mov	cl, 1
	test	al, al
	jne	LBB12_8
	movzx	eax, word ptr [r15]
	movd	xmm0, eax
	pshufb	xmm0, xmmword ptr [rip + LCPI12_0]
	movdqa	xmmword ptr [rbp - 112], xmm0
	xor	r14d, r14d
	lea	r15, [rbp - 88]
	lea	r13, [rip + l___unnamed_3]
	cmp	r14, 2
	jne	LBB12_4
	jmp	LBB12_3
	.p2align	4, 0x90
LBB12_6:
	movdqa	xmm0, xmmword ptr [rbp - 112]
	movdqa	xmmword ptr [rbp - 128], xmm0
	lea	r12, [r14 + 1]
	and	r14d, 1
	movzx	eax, byte ptr [rbp + 8*r14 - 128]
	mov	byte ptr [rbp - 88], al
	mov	rdi, r15
	mov	rsi, rbx
	call	__ZN4core3fmt3num52_$LT$impl$u20$core..fmt..LowerHex$u20$for$u20$u8$GT$3fmt17h7701faa643a10c55E
	mov	r14, r12
	test	al, al
	jne	LBB12_7
	cmp	r14, 2
	je	LBB12_3
LBB12_4:
	test	r14, r14
	je	LBB12_6
	mov	qword ptr [rbp - 88], r13
	mov	qword ptr [rbp - 80], 1
	mov	qword ptr [rbp - 72], 0
	lea	rax, [rip + l___unnamed_4]
	mov	qword ptr [rbp - 56], rax
	mov	qword ptr [rbp - 48], 0
	mov	rdi, rbx
	mov	rsi, r15
	call	__ZN4core3fmt9Formatter9write_fmt17h3dc2bf45afed3069E
	test	al, al
	je	LBB12_6
LBB12_7:
	mov	cl, 1
	jmp	LBB12_8
LBB12_3:
	lea	rax, [rip + l___unnamed_5]
	mov	qword ptr [rbp - 88], rax
	mov	qword ptr [rbp - 80], 1
	mov	qword ptr [rbp - 72], 0
	lea	rax, [rip + l___unnamed_4]
	mov	qword ptr [rbp - 56], rax
	mov	qword ptr [rbp - 48], 0
	lea	rsi, [rbp - 88]
	mov	rdi, rbx
	call	__ZN4core3fmt9Formatter9write_fmt17h3dc2bf45afed3069E
	mov	ecx, eax
LBB12_8:
	mov	eax, ecx
	add	rsp, 104
	pop	rbx
	pop	r12
	pop	r13
	pop	r14
	pop	r15
	pop	rbp
	ret
	.cfi_endproc

	.section	__TEXT,__literal16,16byte_literals
	.p2align	4
LCPI13_0:
	.byte	0
	.byte	128
	.byte	128
	.byte	128
	.byte	128
	.byte	128
	.byte	128
	.byte	128
	.byte	1
	.byte	128
	.byte	128
	.byte	128
	.byte	128
	.byte	128
	.byte	128
	.byte	128
	.section	__TEXT,__text,regular,pure_instructions
	.globl	__ZN11packed_simd3v1698_$LT$impl$u20$core..fmt..UpperHex$u20$for$u20$packed_simd..Simd$LT$$u5b$u8$u3b$$u20$2$u5d$$GT$$GT$3fmt17h2792fd04bd2237bfE
	.p2align	4, 0x90
__ZN11packed_simd3v1698_$LT$impl$u20$core..fmt..UpperHex$u20$for$u20$packed_simd..Simd$LT$$u5b$u8$u3b$$u20$2$u5d$$GT$$GT$3fmt17h2792fd04bd2237bfE:
	.cfi_startproc
	push	rbp
	.cfi_def_cfa_offset 16
	.cfi_offset rbp, -16
	mov	rbp, rsp
	.cfi_def_cfa_register rbp
	push	r15
	push	r14
	push	r13
	push	r12
	push	rbx
	sub	rsp, 104
	.cfi_offset rbx, -56
	.cfi_offset r12, -48
	.cfi_offset r13, -40
	.cfi_offset r14, -32
	.cfi_offset r15, -24
	mov	rbx, rsi
	mov	r15, rdi
	lea	rax, [rip + __ZN44_$LT$$RF$T$u20$as$u20$core..fmt..Display$GT$3fmt17he911d2ba7c50bb69E]
	movq	xmm0, rax
	lea	rax, [rip + l___unnamed_6]
	movq	xmm1, rax
	punpcklqdq	xmm1, xmm0
	movdqa	xmmword ptr [rbp - 144], xmm1
	lea	rax, [rip + l___unnamed_2]
	mov	qword ptr [rbp - 88], rax
	mov	qword ptr [rbp - 80], 2
	mov	qword ptr [rbp - 72], 0
	lea	rax, [rbp - 144]
	mov	qword ptr [rbp - 56], rax
	mov	qword ptr [rbp - 48], 1
	lea	rsi, [rbp - 88]
	mov	rdi, rbx
	call	__ZN4core3fmt9Formatter9write_fmt17h3dc2bf45afed3069E
	mov	cl, 1
	test	al, al
	jne	LBB13_8
	movzx	eax, word ptr [r15]
	movd	xmm0, eax
	pshufb	xmm0, xmmword ptr [rip + LCPI13_0]
	movdqa	xmmword ptr [rbp - 112], xmm0
	xor	r14d, r14d
	lea	r15, [rbp - 88]
	lea	r13, [rip + l___unnamed_3]
	cmp	r14, 2
	jne	LBB13_4
	jmp	LBB13_3
	.p2align	4, 0x90
LBB13_6:
	movdqa	xmm0, xmmword ptr [rbp - 112]
	movdqa	xmmword ptr [rbp - 128], xmm0
	lea	r12, [r14 + 1]
	and	r14d, 1
	movzx	eax, byte ptr [rbp + 8*r14 - 128]
	mov	byte ptr [rbp - 88], al
	mov	rdi, r15
	mov	rsi, rbx
	call	__ZN4core3fmt3num52_$LT$impl$u20$core..fmt..UpperHex$u20$for$u20$u8$GT$3fmt17ha797e73a900719d8E
	mov	r14, r12
	test	al, al
	jne	LBB13_7
	cmp	r14, 2
	je	LBB13_3
LBB13_4:
	test	r14, r14
	je	LBB13_6
	mov	qword ptr [rbp - 88], r13
	mov	qword ptr [rbp - 80], 1
	mov	qword ptr [rbp - 72], 0
	lea	rax, [rip + l___unnamed_4]
	mov	qword ptr [rbp - 56], rax
	mov	qword ptr [rbp - 48], 0
	mov	rdi, rbx
	mov	rsi, r15
	call	__ZN4core3fmt9Formatter9write_fmt17h3dc2bf45afed3069E
	test	al, al
	je	LBB13_6
LBB13_7:
	mov	cl, 1
	jmp	LBB13_8
LBB13_3:
	lea	rax, [rip + l___unnamed_5]
	mov	qword ptr [rbp - 88], rax
	mov	qword ptr [rbp - 80], 1
	mov	qword ptr [rbp - 72], 0
	lea	rax, [rip + l___unnamed_4]
	mov	qword ptr [rbp - 56], rax
	mov	qword ptr [rbp - 48], 0
	lea	rsi, [rbp - 88]
	mov	rdi, rbx
	call	__ZN4core3fmt9Formatter9write_fmt17h3dc2bf45afed3069E
	mov	ecx, eax
LBB13_8:
	mov	eax, ecx
	add	rsp, 104
	pop	rbx
	pop	r12
	pop	r13
	pop	r14
	pop	r15
	pop	rbp
	ret
	.cfi_endproc

	.section	__TEXT,__literal16,16byte_literals
	.p2align	4
LCPI14_0:
	.byte	0
	.byte	128
	.byte	128
	.byte	128
	.byte	128
	.byte	128
	.byte	128
	.byte	128
	.byte	1
	.byte	128
	.byte	128
	.byte	128
	.byte	128
	.byte	128
	.byte	128
	.byte	128
	.section	__TEXT,__text,regular,pure_instructions
	.globl	__ZN11packed_simd3v1695_$LT$impl$u20$core..fmt..Octal$u20$for$u20$packed_simd..Simd$LT$$u5b$u8$u3b$$u20$2$u5d$$GT$$GT$3fmt17h21227136e499527fE
	.p2align	4, 0x90
__ZN11packed_simd3v1695_$LT$impl$u20$core..fmt..Octal$u20$for$u20$packed_simd..Simd$LT$$u5b$u8$u3b$$u20$2$u5d$$GT$$GT$3fmt17h21227136e499527fE:
	.cfi_startproc
	push	rbp
	.cfi_def_cfa_offset 16
	.cfi_offset rbp, -16
	mov	rbp, rsp
	.cfi_def_cfa_register rbp
	push	r15
	push	r14
	push	r13
	push	r12
	push	rbx
	sub	rsp, 104
	.cfi_offset rbx, -56
	.cfi_offset r12, -48
	.cfi_offset r13, -40
	.cfi_offset r14, -32
	.cfi_offset r15, -24
	mov	rbx, rsi
	mov	r15, rdi
	lea	rax, [rip + __ZN44_$LT$$RF$T$u20$as$u20$core..fmt..Display$GT$3fmt17he911d2ba7c50bb69E]
	movq	xmm0, rax
	lea	rax, [rip + l___unnamed_6]
	movq	xmm1, rax
	punpcklqdq	xmm1, xmm0
	movdqa	xmmword ptr [rbp - 144], xmm1
	lea	rax, [rip + l___unnamed_2]
	mov	qword ptr [rbp - 88], rax
	mov	qword ptr [rbp - 80], 2
	mov	qword ptr [rbp - 72], 0
	lea	rax, [rbp - 144]
	mov	qword ptr [rbp - 56], rax
	mov	qword ptr [rbp - 48], 1
	lea	rsi, [rbp - 88]
	mov	rdi, rbx
	call	__ZN4core3fmt9Formatter9write_fmt17h3dc2bf45afed3069E
	mov	cl, 1
	test	al, al
	jne	LBB14_8
	movzx	eax, word ptr [r15]
	movd	xmm0, eax
	pshufb	xmm0, xmmword ptr [rip + LCPI14_0]
	movdqa	xmmword ptr [rbp - 112], xmm0
	xor	r14d, r14d
	lea	r15, [rbp - 88]
	lea	r13, [rip + l___unnamed_3]
	cmp	r14, 2
	jne	LBB14_4
	jmp	LBB14_3
	.p2align	4, 0x90
LBB14_6:
	movdqa	xmm0, xmmword ptr [rbp - 112]
	movdqa	xmmword ptr [rbp - 128], xmm0
	lea	r12, [r14 + 1]
	and	r14d, 1
	movzx	eax, byte ptr [rbp + 8*r14 - 128]
	mov	byte ptr [rbp - 88], al
	mov	rdi, r15
	mov	rsi, rbx
	call	__ZN4core3fmt3num49_$LT$impl$u20$core..fmt..Octal$u20$for$u20$u8$GT$3fmt17hc6b20516a790ff98E
	mov	r14, r12
	test	al, al
	jne	LBB14_7
	cmp	r14, 2
	je	LBB14_3
LBB14_4:
	test	r14, r14
	je	LBB14_6
	mov	qword ptr [rbp - 88], r13
	mov	qword ptr [rbp - 80], 1
	mov	qword ptr [rbp - 72], 0
	lea	rax, [rip + l___unnamed_4]
	mov	qword ptr [rbp - 56], rax
	mov	qword ptr [rbp - 48], 0
	mov	rdi, rbx
	mov	rsi, r15
	call	__ZN4core3fmt9Formatter9write_fmt17h3dc2bf45afed3069E
	test	al, al
	je	LBB14_6
LBB14_7:
	mov	cl, 1
	jmp	LBB14_8
LBB14_3:
	lea	rax, [rip + l___unnamed_5]
	mov	qword ptr [rbp - 88], rax
	mov	qword ptr [rbp - 80], 1
	mov	qword ptr [rbp - 72], 0
	lea	rax, [rip + l___unnamed_4]
	mov	qword ptr [rbp - 56], rax
	mov	qword ptr [rbp - 48], 0
	lea	rsi, [rbp - 88]
	mov	rdi, rbx
	call	__ZN4core3fmt9Formatter9write_fmt17h3dc2bf45afed3069E
	mov	ecx, eax
LBB14_8:
	mov	eax, ecx
	add	rsp, 104
	pop	rbx
	pop	r12
	pop	r13
	pop	r14
	pop	r15
	pop	rbp
	ret
	.cfi_endproc

	.section	__TEXT,__literal16,16byte_literals
	.p2align	4
LCPI15_0:
	.byte	0
	.byte	128
	.byte	128
	.byte	128
	.byte	128
	.byte	128
	.byte	128
	.byte	128
	.byte	1
	.byte	128
	.byte	128
	.byte	128
	.byte	128
	.byte	128
	.byte	128
	.byte	128
	.section	__TEXT,__text,regular,pure_instructions
	.globl	__ZN11packed_simd3v1696_$LT$impl$u20$core..fmt..Binary$u20$for$u20$packed_simd..Simd$LT$$u5b$u8$u3b$$u20$2$u5d$$GT$$GT$3fmt17hb20e8b9c35208c78E
	.p2align	4, 0x90
__ZN11packed_simd3v1696_$LT$impl$u20$core..fmt..Binary$u20$for$u20$packed_simd..Simd$LT$$u5b$u8$u3b$$u20$2$u5d$$GT$$GT$3fmt17hb20e8b9c35208c78E:
	.cfi_startproc
	push	rbp
	.cfi_def_cfa_offset 16
	.cfi_offset rbp, -16
	mov	rbp, rsp
	.cfi_def_cfa_register rbp
	push	r15
	push	r14
	push	r13
	push	r12
	push	rbx
	sub	rsp, 104
	.cfi_offset rbx, -56
	.cfi_offset r12, -48
	.cfi_offset r13, -40
	.cfi_offset r14, -32
	.cfi_offset r15, -24
	mov	rbx, rsi
	mov	r15, rdi
	lea	rax, [rip + __ZN44_$LT$$RF$T$u20$as$u20$core..fmt..Display$GT$3fmt17he911d2ba7c50bb69E]
	movq	xmm0, rax
	lea	rax, [rip + l___unnamed_6]
	movq	xmm1, rax
	punpcklqdq	xmm1, xmm0
	movdqa	xmmword ptr [rbp - 144], xmm1
	lea	rax, [rip + l___unnamed_2]
	mov	qword ptr [rbp - 88], rax
	mov	qword ptr [rbp - 80], 2
	mov	qword ptr [rbp - 72], 0
	lea	rax, [rbp - 144]
	mov	qword ptr [rbp - 56], rax
	mov	qword ptr [rbp - 48], 1
	lea	rsi, [rbp - 88]
	mov	rdi, rbx
	call	__ZN4core3fmt9Formatter9write_fmt17h3dc2bf45afed3069E
	mov	cl, 1
	test	al, al
	jne	LBB15_8
	movzx	eax, word ptr [r15]
	movd	xmm0, eax
	pshufb	xmm0, xmmword ptr [rip + LCPI15_0]
	movdqa	xmmword ptr [rbp - 112], xmm0
	xor	r14d, r14d
	lea	r15, [rbp - 88]
	lea	r13, [rip + l___unnamed_3]
	cmp	r14, 2
	jne	LBB15_4
	jmp	LBB15_3
	.p2align	4, 0x90
LBB15_6:
	movdqa	xmm0, xmmword ptr [rbp - 112]
	movdqa	xmmword ptr [rbp - 128], xmm0
	lea	r12, [r14 + 1]
	and	r14d, 1
	movzx	eax, byte ptr [rbp + 8*r14 - 128]
	mov	byte ptr [rbp - 88], al
	mov	rdi, r15
	mov	rsi, rbx
	call	__ZN4core3fmt3num50_$LT$impl$u20$core..fmt..Binary$u20$for$u20$u8$GT$3fmt17h27b26a79078c499fE
	mov	r14, r12
	test	al, al
	jne	LBB15_7
	cmp	r14, 2
	je	LBB15_3
LBB15_4:
	test	r14, r14
	je	LBB15_6
	mov	qword ptr [rbp - 88], r13
	mov	qword ptr [rbp - 80], 1
	mov	qword ptr [rbp - 72], 0
	lea	rax, [rip + l___unnamed_4]
	mov	qword ptr [rbp - 56], rax
	mov	qword ptr [rbp - 48], 0
	mov	rdi, rbx
	mov	rsi, r15
	call	__ZN4core3fmt9Formatter9write_fmt17h3dc2bf45afed3069E
	test	al, al
	je	LBB15_6
LBB15_7:
	mov	cl, 1
	jmp	LBB15_8
LBB15_3:
	lea	rax, [rip + l___unnamed_5]
	mov	qword ptr [rbp - 88], rax
	mov	qword ptr [rbp - 80], 1
	mov	qword ptr [rbp - 72], 0
	lea	rax, [rip + l___unnamed_4]
	mov	qword ptr [rbp - 56], rax
	mov	qword ptr [rbp - 48], 0
	lea	rsi, [rbp - 88]
	mov	rdi, rbx
	call	__ZN4core3fmt9Formatter9write_fmt17h3dc2bf45afed3069E
	mov	ecx, eax
LBB15_8:
	mov	eax, ecx
	add	rsp, 104
	pop	rbx
	pop	r12
	pop	r13
	pop	r14
	pop	r15
	pop	rbp
	ret
	.cfi_endproc

	.section	__TEXT,__literal16,16byte_literals
	.p2align	4
LCPI16_0:
	.byte	0
	.byte	128
	.byte	128
	.byte	128
	.byte	128
	.byte	128
	.byte	128
	.byte	128
	.byte	1
	.byte	128
	.byte	128
	.byte	128
	.byte	128
	.byte	128
	.byte	128
	.byte	128
	.section	__TEXT,__text,regular,pure_instructions
	.globl	__ZN11packed_simd3v16115_$LT$impl$u20$core..fmt..Debug$u20$for$u20$packed_simd..Simd$LT$$u5b$packed_simd..masks..m8$u3b$$u20$2$u5d$$GT$$GT$3fmt17hf12bc9dbe359af22E
	.p2align	4, 0x90
__ZN11packed_simd3v16115_$LT$impl$u20$core..fmt..Debug$u20$for$u20$packed_simd..Simd$LT$$u5b$packed_simd..masks..m8$u3b$$u20$2$u5d$$GT$$GT$3fmt17hf12bc9dbe359af22E:
	.cfi_startproc
	push	rbp
	.cfi_def_cfa_offset 16
	.cfi_offset rbp, -16
	mov	rbp, rsp
	.cfi_def_cfa_register rbp
	push	r15
	push	r14
	push	r13
	push	r12
	push	rbx
	sub	rsp, 104
	.cfi_offset rbx, -56
	.cfi_offset r12, -48
	.cfi_offset r13, -40
	.cfi_offset r14, -32
	.cfi_offset r15, -24
	mov	rbx, rsi
	mov	r15, rdi
	lea	rax, [rip + __ZN44_$LT$$RF$T$u20$as$u20$core..fmt..Display$GT$3fmt17he911d2ba7c50bb69E]
	movq	xmm0, rax
	lea	rax, [rip + l___unnamed_7]
	movq	xmm1, rax
	punpcklqdq	xmm1, xmm0
	movdqa	xmmword ptr [rbp - 144], xmm1
	lea	rax, [rip + l___unnamed_2]
	mov	qword ptr [rbp - 88], rax
	mov	qword ptr [rbp - 80], 2
	mov	qword ptr [rbp - 72], 0
	lea	rax, [rbp - 144]
	mov	qword ptr [rbp - 56], rax
	mov	qword ptr [rbp - 48], 1
	lea	rsi, [rbp - 88]
	mov	rdi, rbx
	call	__ZN4core3fmt9Formatter9write_fmt17h3dc2bf45afed3069E
	mov	cl, 1
	test	al, al
	jne	LBB16_8
	movzx	eax, word ptr [r15]
	movd	xmm0, eax
	pshufb	xmm0, xmmword ptr [rip + LCPI16_0]
	movdqa	xmmword ptr [rbp - 112], xmm0
	xor	r14d, r14d
	lea	r15, [rbp - 88]
	lea	r13, [rip + l___unnamed_3]
	cmp	r14, 2
	jne	LBB16_4
	jmp	LBB16_3
	.p2align	4, 0x90
LBB16_6:
	movdqa	xmm0, xmmword ptr [rbp - 112]
	movdqa	xmmword ptr [rbp - 128], xmm0
	lea	r12, [r14 + 1]
	and	r14d, 1
	cmp	byte ptr [rbp + 8*r14 - 128], 0
	setne	byte ptr [rbp - 88]
	mov	rdi, r15
	mov	rsi, rbx
	call	__ZN43_$LT$bool$u20$as$u20$core..fmt..Display$GT$3fmt17hf36463fa8b480ab4E
	mov	r14, r12
	test	al, al
	jne	LBB16_7
	cmp	r14, 2
	je	LBB16_3
LBB16_4:
	test	r14, r14
	je	LBB16_6
	mov	qword ptr [rbp - 88], r13
	mov	qword ptr [rbp - 80], 1
	mov	qword ptr [rbp - 72], 0
	lea	rax, [rip + l___unnamed_4]
	mov	qword ptr [rbp - 56], rax
	mov	qword ptr [rbp - 48], 0
	mov	rdi, rbx
	mov	rsi, r15
	call	__ZN4core3fmt9Formatter9write_fmt17h3dc2bf45afed3069E
	test	al, al
	je	LBB16_6
LBB16_7:
	mov	cl, 1
	jmp	LBB16_8
LBB16_3:
	lea	rax, [rip + l___unnamed_5]
	mov	qword ptr [rbp - 88], rax
	mov	qword ptr [rbp - 80], 1
	mov	qword ptr [rbp - 72], 0
	lea	rax, [rip + l___unnamed_4]
	mov	qword ptr [rbp - 56], rax
	mov	qword ptr [rbp - 48], 0
	lea	rsi, [rbp - 88]
	mov	rdi, rbx
	call	__ZN4core3fmt9Formatter9write_fmt17h3dc2bf45afed3069E
	mov	ecx, eax
LBB16_8:
	mov	eax, ecx
	add	rsp, 104
	pop	rbx
	pop	r12
	pop	r13
	pop	r14
	pop	r15
	pop	rbp
	ret
	.cfi_endproc

	.globl	__ZN11packed_simd3v3295_$LT$impl$u20$core..fmt..Debug$u20$for$u20$packed_simd..Simd$LT$$u5b$i8$u3b$$u20$4$u5d$$GT$$GT$3fmt17hc9e3fc25f5fb4c40E
	.p2align	4, 0x90
__ZN11packed_simd3v3295_$LT$impl$u20$core..fmt..Debug$u20$for$u20$packed_simd..Simd$LT$$u5b$i8$u3b$$u20$4$u5d$$GT$$GT$3fmt17hc9e3fc25f5fb4c40E:
	.cfi_startproc
	push	rbp
	.cfi_def_cfa_offset 16
	.cfi_offset rbp, -16
	mov	rbp, rsp
	.cfi_def_cfa_register rbp
	push	r15
	push	r14
	push	r12
	push	rbx
	sub	rsp, 96
	.cfi_offset rbx, -48
	.cfi_offset r12, -40
	.cfi_offset r14, -32
	.cfi_offset r15, -24
	mov	r15, rsi
	mov	rbx, rdi
	lea	rax, [rip + __ZN44_$LT$$RF$T$u20$as$u20$core..fmt..Display$GT$3fmt17he911d2ba7c50bb69E]
	movq	xmm0, rax
	lea	rax, [rip + l___unnamed_8]
	movq	xmm1, rax
	punpcklqdq	xmm1, xmm0
	movdqa	xmmword ptr [rbp - 128], xmm1
	lea	rax, [rip + l___unnamed_2]
	mov	qword ptr [rbp - 80], rax
	mov	qword ptr [rbp - 72], 2
	mov	qword ptr [rbp - 64], 0
	lea	rax, [rbp - 128]
	mov	qword ptr [rbp - 48], rax
	mov	qword ptr [rbp - 40], 1
	lea	rsi, [rbp - 80]
	mov	rdi, r15
	call	__ZN4core3fmt9Formatter9write_fmt17h3dc2bf45afed3069E
	mov	r14b, 1
	test	al, al
	jne	LBB17_22
	movd	xmm0, dword ptr [rbx]
	punpcklbw	xmm0, xmm0
	punpcklwd	xmm0, xmm0
	movdqa	xmmword ptr [rbp - 96], xmm0
	movdqa	xmmword ptr [rbp - 112], xmm0
	mov	al, byte ptr [rbp - 112]
	mov	byte ptr [rbp - 80], al
	mov	rdi, r15
	call	__ZN4core3fmt9Formatter15debug_lower_hex17h8530fbaeba13f4d9E
	test	al, al
	je	LBB17_2
	lea	rdi, [rbp - 80]
	mov	rsi, r15
	call	__ZN4core3fmt3num52_$LT$impl$u20$core..fmt..LowerHex$u20$for$u20$i8$GT$3fmt17h7f7e9f270a5d54c2E
	test	al, al
	je	LBB17_6
	jmp	LBB17_22
LBB17_2:
	mov	rdi, r15
	call	__ZN4core3fmt9Formatter15debug_upper_hex17hf8fda15ec43a1e68E
	lea	rdi, [rbp - 80]
	mov	rsi, r15
	test	al, al
	je	LBB17_4
	call	__ZN4core3fmt3num52_$LT$impl$u20$core..fmt..UpperHex$u20$for$u20$i8$GT$3fmt17hd41115610f011194E
	test	al, al
	je	LBB17_6
	jmp	LBB17_22
LBB17_4:
	call	__ZN4core3fmt3num3imp51_$LT$impl$u20$core..fmt..Display$u20$for$u20$i8$GT$3fmt17hc80f24a4257c3563E
	test	al, al
	jne	LBB17_22
LBB17_6:
	lea	rbx, [rip + l___unnamed_3]
	mov	qword ptr [rbp - 80], rbx
	mov	qword ptr [rbp - 72], 1
	mov	qword ptr [rbp - 64], 0
	lea	r12, [rip + l___unnamed_4]
	mov	qword ptr [rbp - 48], r12
	mov	qword ptr [rbp - 40], 0
	lea	rsi, [rbp - 80]
	mov	rdi, r15
	call	__ZN4core3fmt9Formatter9write_fmt17h3dc2bf45afed3069E
	test	al, al
	jne	LBB17_22
	movdqa	xmm0, xmmword ptr [rbp - 96]
	pextrw	eax, xmm0, 2
	mov	byte ptr [rbp - 80], al
	mov	rdi, r15
	call	__ZN4core3fmt9Formatter15debug_lower_hex17h8530fbaeba13f4d9E
	test	al, al
	je	LBB17_8
	lea	rdi, [rbp - 80]
	mov	rsi, r15
	call	__ZN4core3fmt3num52_$LT$impl$u20$core..fmt..LowerHex$u20$for$u20$i8$GT$3fmt17h7f7e9f270a5d54c2E
	test	al, al
	je	LBB17_11
	jmp	LBB17_22
LBB17_8:
	mov	rdi, r15
	call	__ZN4core3fmt9Formatter15debug_upper_hex17hf8fda15ec43a1e68E
	lea	rdi, [rbp - 80]
	mov	rsi, r15
	test	al, al
	je	LBB17_9
	call	__ZN4core3fmt3num52_$LT$impl$u20$core..fmt..UpperHex$u20$for$u20$i8$GT$3fmt17hd41115610f011194E
	test	al, al
	je	LBB17_11
	jmp	LBB17_22
LBB17_9:
	call	__ZN4core3fmt3num3imp51_$LT$impl$u20$core..fmt..Display$u20$for$u20$i8$GT$3fmt17hc80f24a4257c3563E
	test	al, al
	jne	LBB17_22
LBB17_11:
	mov	qword ptr [rbp - 80], rbx
	mov	qword ptr [rbp - 72], 1
	mov	qword ptr [rbp - 64], 0
	mov	qword ptr [rbp - 48], r12
	mov	qword ptr [rbp - 40], 0
	lea	rsi, [rbp - 80]
	mov	rdi, r15
	call	__ZN4core3fmt9Formatter9write_fmt17h3dc2bf45afed3069E
	test	al, al
	jne	LBB17_22
	movdqa	xmm0, xmmword ptr [rbp - 96]
	pextrw	eax, xmm0, 4
	mov	byte ptr [rbp - 80], al
	mov	rdi, r15
	call	__ZN4core3fmt9Formatter15debug_lower_hex17h8530fbaeba13f4d9E
	test	al, al
	je	LBB17_13
	lea	rdi, [rbp - 80]
	mov	rsi, r15
	call	__ZN4core3fmt3num52_$LT$impl$u20$core..fmt..LowerHex$u20$for$u20$i8$GT$3fmt17h7f7e9f270a5d54c2E
	test	al, al
	je	LBB17_16
	jmp	LBB17_22
LBB17_13:
	mov	rdi, r15
	call	__ZN4core3fmt9Formatter15debug_upper_hex17hf8fda15ec43a1e68E
	lea	rdi, [rbp - 80]
	mov	rsi, r15
	test	al, al
	je	LBB17_14
	call	__ZN4core3fmt3num52_$LT$impl$u20$core..fmt..UpperHex$u20$for$u20$i8$GT$3fmt17hd41115610f011194E
	test	al, al
	je	LBB17_16
	jmp	LBB17_22
LBB17_14:
	call	__ZN4core3fmt3num3imp51_$LT$impl$u20$core..fmt..Display$u20$for$u20$i8$GT$3fmt17hc80f24a4257c3563E
	test	al, al
	jne	LBB17_22
LBB17_16:
	mov	qword ptr [rbp - 80], rbx
	mov	qword ptr [rbp - 72], 1
	mov	qword ptr [rbp - 64], 0
	mov	qword ptr [rbp - 48], r12
	mov	qword ptr [rbp - 40], 0
	lea	rsi, [rbp - 80]
	mov	rdi, r15
	call	__ZN4core3fmt9Formatter9write_fmt17h3dc2bf45afed3069E
	test	al, al
	jne	LBB17_22
	movdqa	xmm0, xmmword ptr [rbp - 96]
	pextrw	eax, xmm0, 6
	mov	byte ptr [rbp - 80], al
	mov	rdi, r15
	call	__ZN4core3fmt9Formatter15debug_lower_hex17h8530fbaeba13f4d9E
	test	al, al
	je	LBB17_18
	lea	rdi, [rbp - 80]
	mov	rsi, r15
	call	__ZN4core3fmt3num52_$LT$impl$u20$core..fmt..LowerHex$u20$for$u20$i8$GT$3fmt17h7f7e9f270a5d54c2E
	test	al, al
	je	LBB17_21
	jmp	LBB17_22
LBB17_18:
	mov	rdi, r15
	call	__ZN4core3fmt9Formatter15debug_upper_hex17hf8fda15ec43a1e68E
	lea	rdi, [rbp - 80]
	mov	rsi, r15
	test	al, al
	je	LBB17_19
	call	__ZN4core3fmt3num52_$LT$impl$u20$core..fmt..UpperHex$u20$for$u20$i8$GT$3fmt17hd41115610f011194E
	test	al, al
	je	LBB17_21
	jmp	LBB17_22
LBB17_19:
	call	__ZN4core3fmt3num3imp51_$LT$impl$u20$core..fmt..Display$u20$for$u20$i8$GT$3fmt17hc80f24a4257c3563E
	test	al, al
	jne	LBB17_22
LBB17_21:
	lea	rax, [rip + l___unnamed_5]
	mov	qword ptr [rbp - 80], rax
	mov	qword ptr [rbp - 72], 1
	mov	qword ptr [rbp - 64], 0
	mov	qword ptr [rbp - 48], r12
	mov	qword ptr [rbp - 40], 0
	lea	rsi, [rbp - 80]
	mov	rdi, r15
	call	__ZN4core3fmt9Formatter9write_fmt17h3dc2bf45afed3069E
	mov	r14d, eax
LBB17_22:
	mov	eax, r14d
	add	rsp, 96
	pop	rbx
	pop	r12
	pop	r14
	pop	r15
	pop	rbp
	ret
	.cfi_endproc

	.globl	__ZN11packed_simd3v3298_$LT$impl$u20$core..fmt..LowerHex$u20$for$u20$packed_simd..Simd$LT$$u5b$i8$u3b$$u20$4$u5d$$GT$$GT$3fmt17ha58b68d3e692d684E
	.p2align	4, 0x90
__ZN11packed_simd3v3298_$LT$impl$u20$core..fmt..LowerHex$u20$for$u20$packed_simd..Simd$LT$$u5b$i8$u3b$$u20$4$u5d$$GT$$GT$3fmt17ha58b68d3e692d684E:
	.cfi_startproc
	push	rbp
	.cfi_def_cfa_offset 16
	.cfi_offset rbp, -16
	mov	rbp, rsp
	.cfi_def_cfa_register rbp
	push	r15
	push	r14
	push	r13
	push	r12
	push	rbx
	sub	rsp, 104
	.cfi_offset rbx, -56
	.cfi_offset r12, -48
	.cfi_offset r13, -40
	.cfi_offset r14, -32
	.cfi_offset r15, -24
	mov	rbx, rsi
	mov	r15, rdi
	lea	rax, [rip + __ZN44_$LT$$RF$T$u20$as$u20$core..fmt..Display$GT$3fmt17he911d2ba7c50bb69E]
	movq	xmm0, rax
	lea	rax, [rip + l___unnamed_8]
	movq	xmm1, rax
	punpcklqdq	xmm1, xmm0
	movdqa	xmmword ptr [rbp - 144], xmm1
	lea	rax, [rip + l___unnamed_2]
	mov	qword ptr [rbp - 88], rax
	mov	qword ptr [rbp - 80], 2
	mov	qword ptr [rbp - 72], 0
	lea	rax, [rbp - 144]
	mov	qword ptr [rbp - 56], rax
	mov	qword ptr [rbp - 48], 1
	lea	rsi, [rbp - 88]
	mov	rdi, rbx
	call	__ZN4core3fmt9Formatter9write_fmt17h3dc2bf45afed3069E
	mov	cl, 1
	test	al, al
	jne	LBB18_8
	movd	xmm0, dword ptr [r15]
	punpcklbw	xmm0, xmm0
	punpcklwd	xmm0, xmm0
	movdqa	xmmword ptr [rbp - 112], xmm0
	xor	r14d, r14d
	lea	r15, [rbp - 88]
	lea	r13, [rip + l___unnamed_3]
	cmp	r14, 4
	jne	LBB18_4
	jmp	LBB18_3
	.p2align	4, 0x90
LBB18_6:
	movdqa	xmm0, xmmword ptr [rbp - 112]
	movdqa	xmmword ptr [rbp - 128], xmm0
	lea	r12, [r14 + 1]
	and	r14d, 3
	movzx	eax, byte ptr [rbp + 4*r14 - 128]
	mov	byte ptr [rbp - 88], al
	mov	rdi, r15
	mov	rsi, rbx
	call	__ZN4core3fmt3num52_$LT$impl$u20$core..fmt..LowerHex$u20$for$u20$i8$GT$3fmt17h7f7e9f270a5d54c2E
	mov	r14, r12
	test	al, al
	jne	LBB18_7
	cmp	r14, 4
	je	LBB18_3
LBB18_4:
	test	r14, r14
	je	LBB18_6
	mov	qword ptr [rbp - 88], r13
	mov	qword ptr [rbp - 80], 1
	mov	qword ptr [rbp - 72], 0
	lea	rax, [rip + l___unnamed_4]
	mov	qword ptr [rbp - 56], rax
	mov	qword ptr [rbp - 48], 0
	mov	rdi, rbx
	mov	rsi, r15
	call	__ZN4core3fmt9Formatter9write_fmt17h3dc2bf45afed3069E
	test	al, al
	je	LBB18_6
LBB18_7:
	mov	cl, 1
	jmp	LBB18_8
LBB18_3:
	lea	rax, [rip + l___unnamed_5]
	mov	qword ptr [rbp - 88], rax
	mov	qword ptr [rbp - 80], 1
	mov	qword ptr [rbp - 72], 0
	lea	rax, [rip + l___unnamed_4]
	mov	qword ptr [rbp - 56], rax
	mov	qword ptr [rbp - 48], 0
	lea	rsi, [rbp - 88]
	mov	rdi, rbx
	call	__ZN4core3fmt9Formatter9write_fmt17h3dc2bf45afed3069E
	mov	ecx, eax
LBB18_8:
	mov	eax, ecx
	add	rsp, 104
	pop	rbx
	pop	r12
	pop	r13
	pop	r14
	pop	r15
	pop	rbp
	ret
	.cfi_endproc

	.globl	__ZN11packed_simd3v3298_$LT$impl$u20$core..fmt..UpperHex$u20$for$u20$packed_simd..Simd$LT$$u5b$i8$u3b$$u20$4$u5d$$GT$$GT$3fmt17h7852ab6b46ba53fdE
	.p2align	4, 0x90
__ZN11packed_simd3v3298_$LT$impl$u20$core..fmt..UpperHex$u20$for$u20$packed_simd..Simd$LT$$u5b$i8$u3b$$u20$4$u5d$$GT$$GT$3fmt17h7852ab6b46ba53fdE:
	.cfi_startproc
	push	rbp
	.cfi_def_cfa_offset 16
	.cfi_offset rbp, -16
	mov	rbp, rsp
	.cfi_def_cfa_register rbp
	push	r15
	push	r14
	push	r13
	push	r12
	push	rbx
	sub	rsp, 104
	.cfi_offset rbx, -56
	.cfi_offset r12, -48
	.cfi_offset r13, -40
	.cfi_offset r14, -32
	.cfi_offset r15, -24
	mov	rbx, rsi
	mov	r15, rdi
	lea	rax, [rip + __ZN44_$LT$$RF$T$u20$as$u20$core..fmt..Display$GT$3fmt17he911d2ba7c50bb69E]
	movq	xmm0, rax
	lea	rax, [rip + l___unnamed_8]
	movq	xmm1, rax
	punpcklqdq	xmm1, xmm0
	movdqa	xmmword ptr [rbp - 144], xmm1
	lea	rax, [rip + l___unnamed_2]
	mov	qword ptr [rbp - 88], rax
	mov	qword ptr [rbp - 80], 2
	mov	qword ptr [rbp - 72], 0
	lea	rax, [rbp - 144]
	mov	qword ptr [rbp - 56], rax
	mov	qword ptr [rbp - 48], 1
	lea	rsi, [rbp - 88]
	mov	rdi, rbx
	call	__ZN4core3fmt9Formatter9write_fmt17h3dc2bf45afed3069E
	mov	cl, 1
	test	al, al
	jne	LBB19_8
	movd	xmm0, dword ptr [r15]
	punpcklbw	xmm0, xmm0
	punpcklwd	xmm0, xmm0
	movdqa	xmmword ptr [rbp - 112], xmm0
	xor	r14d, r14d
	lea	r15, [rbp - 88]
	lea	r13, [rip + l___unnamed_3]
	cmp	r14, 4
	jne	LBB19_4
	jmp	LBB19_3
	.p2align	4, 0x90
LBB19_6:
	movdqa	xmm0, xmmword ptr [rbp - 112]
	movdqa	xmmword ptr [rbp - 128], xmm0
	lea	r12, [r14 + 1]
	and	r14d, 3
	movzx	eax, byte ptr [rbp + 4*r14 - 128]
	mov	byte ptr [rbp - 88], al
	mov	rdi, r15
	mov	rsi, rbx
	call	__ZN4core3fmt3num52_$LT$impl$u20$core..fmt..UpperHex$u20$for$u20$i8$GT$3fmt17hd41115610f011194E
	mov	r14, r12
	test	al, al
	jne	LBB19_7
	cmp	r14, 4
	je	LBB19_3
LBB19_4:
	test	r14, r14
	je	LBB19_6
	mov	qword ptr [rbp - 88], r13
	mov	qword ptr [rbp - 80], 1
	mov	qword ptr [rbp - 72], 0
	lea	rax, [rip + l___unnamed_4]
	mov	qword ptr [rbp - 56], rax
	mov	qword ptr [rbp - 48], 0
	mov	rdi, rbx
	mov	rsi, r15
	call	__ZN4core3fmt9Formatter9write_fmt17h3dc2bf45afed3069E
	test	al, al
	je	LBB19_6
LBB19_7:
	mov	cl, 1
	jmp	LBB19_8
LBB19_3:
	lea	rax, [rip + l___unnamed_5]
	mov	qword ptr [rbp - 88], rax
	mov	qword ptr [rbp - 80], 1
	mov	qword ptr [rbp - 72], 0
	lea	rax, [rip + l___unnamed_4]
	mov	qword ptr [rbp - 56], rax
	mov	qword ptr [rbp - 48], 0
	lea	rsi, [rbp - 88]
	mov	rdi, rbx
	call	__ZN4core3fmt9Formatter9write_fmt17h3dc2bf45afed3069E
	mov	ecx, eax
LBB19_8:
	mov	eax, ecx
	add	rsp, 104
	pop	rbx
	pop	r12
	pop	r13
	pop	r14
	pop	r15
	pop	rbp
	ret
	.cfi_endproc

	.globl	__ZN11packed_simd3v3295_$LT$impl$u20$core..fmt..Octal$u20$for$u20$packed_simd..Simd$LT$$u5b$i8$u3b$$u20$4$u5d$$GT$$GT$3fmt17h96fd8268140eafdfE
	.p2align	4, 0x90
__ZN11packed_simd3v3295_$LT$impl$u20$core..fmt..Octal$u20$for$u20$packed_simd..Simd$LT$$u5b$i8$u3b$$u20$4$u5d$$GT$$GT$3fmt17h96fd8268140eafdfE:
	.cfi_startproc
	push	rbp
	.cfi_def_cfa_offset 16
	.cfi_offset rbp, -16
	mov	rbp, rsp
	.cfi_def_cfa_register rbp
	push	r15
	push	r14
	push	r13
	push	r12
	push	rbx
	sub	rsp, 104
	.cfi_offset rbx, -56
	.cfi_offset r12, -48
	.cfi_offset r13, -40
	.cfi_offset r14, -32
	.cfi_offset r15, -24
	mov	rbx, rsi
	mov	r15, rdi
	lea	rax, [rip + __ZN44_$LT$$RF$T$u20$as$u20$core..fmt..Display$GT$3fmt17he911d2ba7c50bb69E]
	movq	xmm0, rax
	lea	rax, [rip + l___unnamed_8]
	movq	xmm1, rax
	punpcklqdq	xmm1, xmm0
	movdqa	xmmword ptr [rbp - 144], xmm1
	lea	rax, [rip + l___unnamed_2]
	mov	qword ptr [rbp - 88], rax
	mov	qword ptr [rbp - 80], 2
	mov	qword ptr [rbp - 72], 0
	lea	rax, [rbp - 144]
	mov	qword ptr [rbp - 56], rax
	mov	qword ptr [rbp - 48], 1
	lea	rsi, [rbp - 88]
	mov	rdi, rbx
	call	__ZN4core3fmt9Formatter9write_fmt17h3dc2bf45afed3069E
	mov	cl, 1
	test	al, al
	jne	LBB20_8
	movd	xmm0, dword ptr [r15]
	punpcklbw	xmm0, xmm0
	punpcklwd	xmm0, xmm0
	movdqa	xmmword ptr [rbp - 112], xmm0
	xor	r14d, r14d
	lea	r15, [rbp - 88]
	lea	r13, [rip + l___unnamed_3]
	cmp	r14, 4
	jne	LBB20_4
	jmp	LBB20_3
	.p2align	4, 0x90
LBB20_6:
	movdqa	xmm0, xmmword ptr [rbp - 112]
	movdqa	xmmword ptr [rbp - 128], xmm0
	lea	r12, [r14 + 1]
	and	r14d, 3
	movzx	eax, byte ptr [rbp + 4*r14 - 128]
	mov	byte ptr [rbp - 88], al
	mov	rdi, r15
	mov	rsi, rbx
	call	__ZN4core3fmt3num49_$LT$impl$u20$core..fmt..Octal$u20$for$u20$i8$GT$3fmt17h29cc81c11127ecd6E
	mov	r14, r12
	test	al, al
	jne	LBB20_7
	cmp	r14, 4
	je	LBB20_3
LBB20_4:
	test	r14, r14
	je	LBB20_6
	mov	qword ptr [rbp - 88], r13
	mov	qword ptr [rbp - 80], 1
	mov	qword ptr [rbp - 72], 0
	lea	rax, [rip + l___unnamed_4]
	mov	qword ptr [rbp - 56], rax
	mov	qword ptr [rbp - 48], 0
	mov	rdi, rbx
	mov	rsi, r15
	call	__ZN4core3fmt9Formatter9write_fmt17h3dc2bf45afed3069E
	test	al, al
	je	LBB20_6
LBB20_7:
	mov	cl, 1
	jmp	LBB20_8
LBB20_3:
	lea	rax, [rip + l___unnamed_5]
	mov	qword ptr [rbp - 88], rax
	mov	qword ptr [rbp - 80], 1
	mov	qword ptr [rbp - 72], 0
	lea	rax, [rip + l___unnamed_4]
	mov	qword ptr [rbp - 56], rax
	mov	qword ptr [rbp - 48], 0
	lea	rsi, [rbp - 88]
	mov	rdi, rbx
	call	__ZN4core3fmt9Formatter9write_fmt17h3dc2bf45afed3069E
	mov	ecx, eax
LBB20_8:
	mov	eax, ecx
	add	rsp, 104
	pop	rbx
	pop	r12
	pop	r13
	pop	r14
	pop	r15
	pop	rbp
	ret
	.cfi_endproc

	.globl	__ZN11packed_simd3v3296_$LT$impl$u20$core..fmt..Binary$u20$for$u20$packed_simd..Simd$LT$$u5b$i8$u3b$$u20$4$u5d$$GT$$GT$3fmt17h2ee7d3077f60f769E
	.p2align	4, 0x90
__ZN11packed_simd3v3296_$LT$impl$u20$core..fmt..Binary$u20$for$u20$packed_simd..Simd$LT$$u5b$i8$u3b$$u20$4$u5d$$GT$$GT$3fmt17h2ee7d3077f60f769E:
	.cfi_startproc
	push	rbp
	.cfi_def_cfa_offset 16
	.cfi_offset rbp, -16
	mov	rbp, rsp
	.cfi_def_cfa_register rbp
	push	r15
	push	r14
	push	r13
	push	r12
	push	rbx
	sub	rsp, 104
	.cfi_offset rbx, -56
	.cfi_offset r12, -48
	.cfi_offset r13, -40
	.cfi_offset r14, -32
	.cfi_offset r15, -24
	mov	rbx, rsi
	mov	r15, rdi
	lea	rax, [rip + __ZN44_$LT$$RF$T$u20$as$u20$core..fmt..Display$GT$3fmt17he911d2ba7c50bb69E]
	movq	xmm0, rax
	lea	rax, [rip + l___unnamed_8]
	movq	xmm1, rax
	punpcklqdq	xmm1, xmm0
	movdqa	xmmword ptr [rbp - 144], xmm1
	lea	rax, [rip + l___unnamed_2]
	mov	qword ptr [rbp - 88], rax
	mov	qword ptr [rbp - 80], 2
	mov	qword ptr [rbp - 72], 0
	lea	rax, [rbp - 144]
	mov	qword ptr [rbp - 56], rax
	mov	qword ptr [rbp - 48], 1
	lea	rsi, [rbp - 88]
	mov	rdi, rbx
	call	__ZN4core3fmt9Formatter9write_fmt17h3dc2bf45afed3069E
	mov	cl, 1
	test	al, al
	jne	LBB21_8
	movd	xmm0, dword ptr [r15]
	punpcklbw	xmm0, xmm0
	punpcklwd	xmm0, xmm0
	movdqa	xmmword ptr [rbp - 112], xmm0
	xor	r14d, r14d
	lea	r15, [rbp - 88]
	lea	r13, [rip + l___unnamed_3]
	cmp	r14, 4
	jne	LBB21_4
	jmp	LBB21_3
	.p2align	4, 0x90
LBB21_6:
	movdqa	xmm0, xmmword ptr [rbp - 112]
	movdqa	xmmword ptr [rbp - 128], xmm0
	lea	r12, [r14 + 1]
	and	r14d, 3
	movzx	eax, byte ptr [rbp + 4*r14 - 128]
	mov	byte ptr [rbp - 88], al
	mov	rdi, r15
	mov	rsi, rbx
	call	__ZN4core3fmt3num50_$LT$impl$u20$core..fmt..Binary$u20$for$u20$i8$GT$3fmt17h6b85acc99cf4b968E
	mov	r14, r12
	test	al, al
	jne	LBB21_7
	cmp	r14, 4
	je	LBB21_3
LBB21_4:
	test	r14, r14
	je	LBB21_6
	mov	qword ptr [rbp - 88], r13
	mov	qword ptr [rbp - 80], 1
	mov	qword ptr [rbp - 72], 0
	lea	rax, [rip + l___unnamed_4]
	mov	qword ptr [rbp - 56], rax
	mov	qword ptr [rbp - 48], 0
	mov	rdi, rbx
	mov	rsi, r15
	call	__ZN4core3fmt9Formatter9write_fmt17h3dc2bf45afed3069E
	test	al, al
	je	LBB21_6
LBB21_7:
	mov	cl, 1
	jmp	LBB21_8
LBB21_3:
	lea	rax, [rip + l___unnamed_5]
	mov	qword ptr [rbp - 88], rax
	mov	qword ptr [rbp - 80], 1
	mov	qword ptr [rbp - 72], 0
	lea	rax, [rip + l___unnamed_4]
	mov	qword ptr [rbp - 56], rax
	mov	qword ptr [rbp - 48], 0
	lea	rsi, [rbp - 88]
	mov	rdi, rbx
	call	__ZN4core3fmt9Formatter9write_fmt17h3dc2bf45afed3069E
	mov	ecx, eax
LBB21_8:
	mov	eax, ecx
	add	rsp, 104
	pop	rbx
	pop	r12
	pop	r13
	pop	r14
	pop	r15
	pop	rbp
	ret
	.cfi_endproc

	.globl	__ZN11packed_simd3v3295_$LT$impl$u20$core..fmt..Debug$u20$for$u20$packed_simd..Simd$LT$$u5b$u8$u3b$$u20$4$u5d$$GT$$GT$3fmt17h04fea5ca5120a65eE
	.p2align	4, 0x90
__ZN11packed_simd3v3295_$LT$impl$u20$core..fmt..Debug$u20$for$u20$packed_simd..Simd$LT$$u5b$u8$u3b$$u20$4$u5d$$GT$$GT$3fmt17h04fea5ca5120a65eE:
	.cfi_startproc
	push	rbp
	.cfi_def_cfa_offset 16
	.cfi_offset rbp, -16
	mov	rbp, rsp
	.cfi_def_cfa_register rbp
	push	r15
	push	r14
	push	r12
	push	rbx
	sub	rsp, 96
	.cfi_offset rbx, -48
	.cfi_offset r12, -40
	.cfi_offset r14, -32
	.cfi_offset r15, -24
	mov	r15, rsi
	mov	rbx, rdi
	lea	rax, [rip + __ZN44_$LT$$RF$T$u20$as$u20$core..fmt..Display$GT$3fmt17he911d2ba7c50bb69E]
	movq	xmm0, rax
	lea	rax, [rip + l___unnamed_9]
	movq	xmm1, rax
	punpcklqdq	xmm1, xmm0
	movdqa	xmmword ptr [rbp - 128], xmm1
	lea	rax, [rip + l___unnamed_2]
	mov	qword ptr [rbp - 80], rax
	mov	qword ptr [rbp - 72], 2
	mov	qword ptr [rbp - 64], 0
	lea	rax, [rbp - 128]
	mov	qword ptr [rbp - 48], rax
	mov	qword ptr [rbp - 40], 1
	lea	rsi, [rbp - 80]
	mov	rdi, r15
	call	__ZN4core3fmt9Formatter9write_fmt17h3dc2bf45afed3069E
	mov	r14b, 1
	test	al, al
	jne	LBB22_22
	movd	xmm0, dword ptr [rbx]
	punpcklbw	xmm0, xmm0
	punpcklwd	xmm0, xmm0
	movdqa	xmmword ptr [rbp - 96], xmm0
	movdqa	xmmword ptr [rbp - 112], xmm0
	mov	al, byte ptr [rbp - 112]
	mov	byte ptr [rbp - 80], al
	mov	rdi, r15
	call	__ZN4core3fmt9Formatter15debug_lower_hex17h8530fbaeba13f4d9E
	test	al, al
	je	LBB22_2
	lea	rdi, [rbp - 80]
	mov	rsi, r15
	call	__ZN4core3fmt3num52_$LT$impl$u20$core..fmt..LowerHex$u20$for$u20$u8$GT$3fmt17h7701faa643a10c55E
	test	al, al
	je	LBB22_6
	jmp	LBB22_22
LBB22_2:
	mov	rdi, r15
	call	__ZN4core3fmt9Formatter15debug_upper_hex17hf8fda15ec43a1e68E
	lea	rdi, [rbp - 80]
	mov	rsi, r15
	test	al, al
	je	LBB22_4
	call	__ZN4core3fmt3num52_$LT$impl$u20$core..fmt..UpperHex$u20$for$u20$u8$GT$3fmt17ha797e73a900719d8E
	test	al, al
	je	LBB22_6
	jmp	LBB22_22
LBB22_4:
	call	__ZN4core3fmt3num3imp51_$LT$impl$u20$core..fmt..Display$u20$for$u20$u8$GT$3fmt17h0e89df114e53d66dE
	test	al, al
	jne	LBB22_22
LBB22_6:
	lea	rbx, [rip + l___unnamed_3]
	mov	qword ptr [rbp - 80], rbx
	mov	qword ptr [rbp - 72], 1
	mov	qword ptr [rbp - 64], 0
	lea	r12, [rip + l___unnamed_4]
	mov	qword ptr [rbp - 48], r12
	mov	qword ptr [rbp - 40], 0
	lea	rsi, [rbp - 80]
	mov	rdi, r15
	call	__ZN4core3fmt9Formatter9write_fmt17h3dc2bf45afed3069E
	test	al, al
	jne	LBB22_22
	movdqa	xmm0, xmmword ptr [rbp - 96]
	pextrw	eax, xmm0, 2
	mov	byte ptr [rbp - 80], al
	mov	rdi, r15
	call	__ZN4core3fmt9Formatter15debug_lower_hex17h8530fbaeba13f4d9E
	test	al, al
	je	LBB22_8
	lea	rdi, [rbp - 80]
	mov	rsi, r15
	call	__ZN4core3fmt3num52_$LT$impl$u20$core..fmt..LowerHex$u20$for$u20$u8$GT$3fmt17h7701faa643a10c55E
	test	al, al
	je	LBB22_11
	jmp	LBB22_22
LBB22_8:
	mov	rdi, r15
	call	__ZN4core3fmt9Formatter15debug_upper_hex17hf8fda15ec43a1e68E
	lea	rdi, [rbp - 80]
	mov	rsi, r15
	test	al, al
	je	LBB22_9
	call	__ZN4core3fmt3num52_$LT$impl$u20$core..fmt..UpperHex$u20$for$u20$u8$GT$3fmt17ha797e73a900719d8E
	test	al, al
	je	LBB22_11
	jmp	LBB22_22
LBB22_9:
	call	__ZN4core3fmt3num3imp51_$LT$impl$u20$core..fmt..Display$u20$for$u20$u8$GT$3fmt17h0e89df114e53d66dE
	test	al, al
	jne	LBB22_22
LBB22_11:
	mov	qword ptr [rbp - 80], rbx
	mov	qword ptr [rbp - 72], 1
	mov	qword ptr [rbp - 64], 0
	mov	qword ptr [rbp - 48], r12
	mov	qword ptr [rbp - 40], 0
	lea	rsi, [rbp - 80]
	mov	rdi, r15
	call	__ZN4core3fmt9Formatter9write_fmt17h3dc2bf45afed3069E
	test	al, al
	jne	LBB22_22
	movdqa	xmm0, xmmword ptr [rbp - 96]
	pextrw	eax, xmm0, 4
	mov	byte ptr [rbp - 80], al
	mov	rdi, r15
	call	__ZN4core3fmt9Formatter15debug_lower_hex17h8530fbaeba13f4d9E
	test	al, al
	je	LBB22_13
	lea	rdi, [rbp - 80]
	mov	rsi, r15
	call	__ZN4core3fmt3num52_$LT$impl$u20$core..fmt..LowerHex$u20$for$u20$u8$GT$3fmt17h7701faa643a10c55E
	test	al, al
	je	LBB22_16
	jmp	LBB22_22
LBB22_13:
	mov	rdi, r15
	call	__ZN4core3fmt9Formatter15debug_upper_hex17hf8fda15ec43a1e68E
	lea	rdi, [rbp - 80]
	mov	rsi, r15
	test	al, al
	je	LBB22_14
	call	__ZN4core3fmt3num52_$LT$impl$u20$core..fmt..UpperHex$u20$for$u20$u8$GT$3fmt17ha797e73a900719d8E
	test	al, al
	je	LBB22_16
	jmp	LBB22_22
LBB22_14:
	call	__ZN4core3fmt3num3imp51_$LT$impl$u20$core..fmt..Display$u20$for$u20$u8$GT$3fmt17h0e89df114e53d66dE
	test	al, al
	jne	LBB22_22
LBB22_16:
	mov	qword ptr [rbp - 80], rbx
	mov	qword ptr [rbp - 72], 1
	mov	qword ptr [rbp - 64], 0
	mov	qword ptr [rbp - 48], r12
	mov	qword ptr [rbp - 40], 0
	lea	rsi, [rbp - 80]
	mov	rdi, r15
	call	__ZN4core3fmt9Formatter9write_fmt17h3dc2bf45afed3069E
	test	al, al
	jne	LBB22_22
	movdqa	xmm0, xmmword ptr [rbp - 96]
	pextrw	eax, xmm0, 6
	mov	byte ptr [rbp - 80], al
	mov	rdi, r15
	call	__ZN4core3fmt9Formatter15debug_lower_hex17h8530fbaeba13f4d9E
	test	al, al
	je	LBB22_18
	lea	rdi, [rbp - 80]
	mov	rsi, r15
	call	__ZN4core3fmt3num52_$LT$impl$u20$core..fmt..LowerHex$u20$for$u20$u8$GT$3fmt17h7701faa643a10c55E
	test	al, al
	je	LBB22_21
	jmp	LBB22_22
LBB22_18:
	mov	rdi, r15
	call	__ZN4core3fmt9Formatter15debug_upper_hex17hf8fda15ec43a1e68E
	lea	rdi, [rbp - 80]
	mov	rsi, r15
	test	al, al
	je	LBB22_19
	call	__ZN4core3fmt3num52_$LT$impl$u20$core..fmt..UpperHex$u20$for$u20$u8$GT$3fmt17ha797e73a900719d8E
	test	al, al
	je	LBB22_21
	jmp	LBB22_22
LBB22_19:
	call	__ZN4core3fmt3num3imp51_$LT$impl$u20$core..fmt..Display$u20$for$u20$u8$GT$3fmt17h0e89df114e53d66dE
	test	al, al
	jne	LBB22_22
LBB22_21:
	lea	rax, [rip + l___unnamed_5]
	mov	qword ptr [rbp - 80], rax
	mov	qword ptr [rbp - 72], 1
	mov	qword ptr [rbp - 64], 0
	mov	qword ptr [rbp - 48], r12
	mov	qword ptr [rbp - 40], 0
	lea	rsi, [rbp - 80]
	mov	rdi, r15
	call	__ZN4core3fmt9Formatter9write_fmt17h3dc2bf45afed3069E
	mov	r14d, eax
LBB22_22:
	mov	eax, r14d
	add	rsp, 96
	pop	rbx
	pop	r12
	pop	r14
	pop	r15
	pop	rbp
	ret
	.cfi_endproc

	.globl	__ZN11packed_simd3v3298_$LT$impl$u20$core..fmt..LowerHex$u20$for$u20$packed_simd..Simd$LT$$u5b$u8$u3b$$u20$4$u5d$$GT$$GT$3fmt17ha6e8811ef09a1e16E
	.p2align	4, 0x90
__ZN11packed_simd3v3298_$LT$impl$u20$core..fmt..LowerHex$u20$for$u20$packed_simd..Simd$LT$$u5b$u8$u3b$$u20$4$u5d$$GT$$GT$3fmt17ha6e8811ef09a1e16E:
	.cfi_startproc
	push	rbp
	.cfi_def_cfa_offset 16
	.cfi_offset rbp, -16
	mov	rbp, rsp
	.cfi_def_cfa_register rbp
	push	r15
	push	r14
	push	r13
	push	r12
	push	rbx
	sub	rsp, 104
	.cfi_offset rbx, -56
	.cfi_offset r12, -48
	.cfi_offset r13, -40
	.cfi_offset r14, -32
	.cfi_offset r15, -24
	mov	rbx, rsi
	mov	r15, rdi
	lea	rax, [rip + __ZN44_$LT$$RF$T$u20$as$u20$core..fmt..Display$GT$3fmt17he911d2ba7c50bb69E]
	movq	xmm0, rax
	lea	rax, [rip + l___unnamed_9]
	movq	xmm1, rax
	punpcklqdq	xmm1, xmm0
	movdqa	xmmword ptr [rbp - 144], xmm1
	lea	rax, [rip + l___unnamed_2]
	mov	qword ptr [rbp - 88], rax
	mov	qword ptr [rbp - 80], 2
	mov	qword ptr [rbp - 72], 0
	lea	rax, [rbp - 144]
	mov	qword ptr [rbp - 56], rax
	mov	qword ptr [rbp - 48], 1
	lea	rsi, [rbp - 88]
	mov	rdi, rbx
	call	__ZN4core3fmt9Formatter9write_fmt17h3dc2bf45afed3069E
	mov	cl, 1
	test	al, al
	jne	LBB23_8
	movd	xmm0, dword ptr [r15]
	punpcklbw	xmm0, xmm0
	punpcklwd	xmm0, xmm0
	movdqa	xmmword ptr [rbp - 112], xmm0
	xor	r14d, r14d
	lea	r15, [rbp - 88]
	lea	r13, [rip + l___unnamed_3]
	cmp	r14, 4
	jne	LBB23_4
	jmp	LBB23_3
	.p2align	4, 0x90
LBB23_6:
	movdqa	xmm0, xmmword ptr [rbp - 112]
	movdqa	xmmword ptr [rbp - 128], xmm0
	lea	r12, [r14 + 1]
	and	r14d, 3
	movzx	eax, byte ptr [rbp + 4*r14 - 128]
	mov	byte ptr [rbp - 88], al
	mov	rdi, r15
	mov	rsi, rbx
	call	__ZN4core3fmt3num52_$LT$impl$u20$core..fmt..LowerHex$u20$for$u20$u8$GT$3fmt17h7701faa643a10c55E
	mov	r14, r12
	test	al, al
	jne	LBB23_7
	cmp	r14, 4
	je	LBB23_3
LBB23_4:
	test	r14, r14
	je	LBB23_6
	mov	qword ptr [rbp - 88], r13
	mov	qword ptr [rbp - 80], 1
	mov	qword ptr [rbp - 72], 0
	lea	rax, [rip + l___unnamed_4]
	mov	qword ptr [rbp - 56], rax
	mov	qword ptr [rbp - 48], 0
	mov	rdi, rbx
	mov	rsi, r15
	call	__ZN4core3fmt9Formatter9write_fmt17h3dc2bf45afed3069E
	test	al, al
	je	LBB23_6
LBB23_7:
	mov	cl, 1
	jmp	LBB23_8
LBB23_3:
	lea	rax, [rip + l___unnamed_5]
	mov	qword ptr [rbp - 88], rax
	mov	qword ptr [rbp - 80], 1
	mov	qword ptr [rbp - 72], 0
	lea	rax, [rip + l___unnamed_4]
	mov	qword ptr [rbp - 56], rax
	mov	qword ptr [rbp - 48], 0
	lea	rsi, [rbp - 88]
	mov	rdi, rbx
	call	__ZN4core3fmt9Formatter9write_fmt17h3dc2bf45afed3069E
	mov	ecx, eax
LBB23_8:
	mov	eax, ecx
	add	rsp, 104
	pop	rbx
	pop	r12
	pop	r13
	pop	r14
	pop	r15
	pop	rbp
	ret
	.cfi_endproc

	.globl	__ZN11packed_simd3v3298_$LT$impl$u20$core..fmt..UpperHex$u20$for$u20$packed_simd..Simd$LT$$u5b$u8$u3b$$u20$4$u5d$$GT$$GT$3fmt17hf0a11b4d5dd17b86E
	.p2align	4, 0x90
__ZN11packed_simd3v3298_$LT$impl$u20$core..fmt..UpperHex$u20$for$u20$packed_simd..Simd$LT$$u5b$u8$u3b$$u20$4$u5d$$GT$$GT$3fmt17hf0a11b4d5dd17b86E:
	.cfi_startproc
	push	rbp
	.cfi_def_cfa_offset 16
	.cfi_offset rbp, -16
	mov	rbp, rsp
	.cfi_def_cfa_register rbp
	push	r15
	push	r14
	push	r13
	push	r12
	push	rbx
	sub	rsp, 104
	.cfi_offset rbx, -56
	.cfi_offset r12, -48
	.cfi_offset r13, -40
	.cfi_offset r14, -32
	.cfi_offset r15, -24
	mov	rbx, rsi
	mov	r15, rdi
	lea	rax, [rip + __ZN44_$LT$$RF$T$u20$as$u20$core..fmt..Display$GT$3fmt17he911d2ba7c50bb69E]
	movq	xmm0, rax
	lea	rax, [rip + l___unnamed_9]
	movq	xmm1, rax
	punpcklqdq	xmm1, xmm0
	movdqa	xmmword ptr [rbp - 144], xmm1
	lea	rax, [rip + l___unnamed_2]
	mov	qword ptr [rbp - 88], rax
	mov	qword ptr [rbp - 80], 2
	mov	qword ptr [rbp - 72], 0
	lea	rax, [rbp - 144]
	mov	qword ptr [rbp - 56], rax
	mov	qword ptr [rbp - 48], 1
	lea	rsi, [rbp - 88]
	mov	rdi, rbx
	call	__ZN4core3fmt9Formatter9write_fmt17h3dc2bf45afed3069E
	mov	cl, 1
	test	al, al
	jne	LBB24_8
	movd	xmm0, dword ptr [r15]
	punpcklbw	xmm0, xmm0
	punpcklwd	xmm0, xmm0
	movdqa	xmmword ptr [rbp - 112], xmm0
	xor	r14d, r14d
	lea	r15, [rbp - 88]
	lea	r13, [rip + l___unnamed_3]
	cmp	r14, 4
	jne	LBB24_4
	jmp	LBB24_3
	.p2align	4, 0x90
LBB24_6:
	movdqa	xmm0, xmmword ptr [rbp - 112]
	movdqa	xmmword ptr [rbp - 128], xmm0
	lea	r12, [r14 + 1]
	and	r14d, 3
	movzx	eax, byte ptr [rbp + 4*r14 - 128]
	mov	byte ptr [rbp - 88], al
	mov	rdi, r15
	mov	rsi, rbx
	call	__ZN4core3fmt3num52_$LT$impl$u20$core..fmt..UpperHex$u20$for$u20$u8$GT$3fmt17ha797e73a900719d8E
	mov	r14, r12
	test	al, al
	jne	LBB24_7
	cmp	r14, 4
	je	LBB24_3
LBB24_4:
	test	r14, r14
	je	LBB24_6
	mov	qword ptr [rbp - 88], r13
	mov	qword ptr [rbp - 80], 1
	mov	qword ptr [rbp - 72], 0
	lea	rax, [rip + l___unnamed_4]
	mov	qword ptr [rbp - 56], rax
	mov	qword ptr [rbp - 48], 0
	mov	rdi, rbx
	mov	rsi, r15
	call	__ZN4core3fmt9Formatter9write_fmt17h3dc2bf45afed3069E
	test	al, al
	je	LBB24_6
LBB24_7:
	mov	cl, 1
	jmp	LBB24_8
LBB24_3:
	lea	rax, [rip + l___unnamed_5]
	mov	qword ptr [rbp - 88], rax
	mov	qword ptr [rbp - 80], 1
	mov	qword ptr [rbp - 72], 0
	lea	rax, [rip + l___unnamed_4]
	mov	qword ptr [rbp - 56], rax
	mov	qword ptr [rbp - 48], 0
	lea	rsi, [rbp - 88]
	mov	rdi, rbx
	call	__ZN4core3fmt9Formatter9write_fmt17h3dc2bf45afed3069E
	mov	ecx, eax
LBB24_8:
	mov	eax, ecx
	add	rsp, 104
	pop	rbx
	pop	r12
	pop	r13
	pop	r14
	pop	r15
	pop	rbp
	ret
	.cfi_endproc

	.globl	__ZN11packed_simd3v3295_$LT$impl$u20$core..fmt..Octal$u20$for$u20$packed_simd..Simd$LT$$u5b$u8$u3b$$u20$4$u5d$$GT$$GT$3fmt17h395ccafe4946b3d2E
	.p2align	4, 0x90
__ZN11packed_simd3v3295_$LT$impl$u20$core..fmt..Octal$u20$for$u20$packed_simd..Simd$LT$$u5b$u8$u3b$$u20$4$u5d$$GT$$GT$3fmt17h395ccafe4946b3d2E:
	.cfi_startproc
	push	rbp
	.cfi_def_cfa_offset 16
	.cfi_offset rbp, -16
	mov	rbp, rsp
	.cfi_def_cfa_register rbp
	push	r15
	push	r14
	push	r13
	push	r12
	push	rbx
	sub	rsp, 104
	.cfi_offset rbx, -56
	.cfi_offset r12, -48
	.cfi_offset r13, -40
	.cfi_offset r14, -32
	.cfi_offset r15, -24
	mov	rbx, rsi
	mov	r15, rdi
	lea	rax, [rip + __ZN44_$LT$$RF$T$u20$as$u20$core..fmt..Display$GT$3fmt17he911d2ba7c50bb69E]
	movq	xmm0, rax
	lea	rax, [rip + l___unnamed_9]
	movq	xmm1, rax
	punpcklqdq	xmm1, xmm0
	movdqa	xmmword ptr [rbp - 144], xmm1
	lea	rax, [rip + l___unnamed_2]
	mov	qword ptr [rbp - 88], rax
	mov	qword ptr [rbp - 80], 2
	mov	qword ptr [rbp - 72], 0
	lea	rax, [rbp - 144]
	mov	qword ptr [rbp - 56], rax
	mov	qword ptr [rbp - 48], 1
	lea	rsi, [rbp - 88]
	mov	rdi, rbx
	call	__ZN4core3fmt9Formatter9write_fmt17h3dc2bf45afed3069E
	mov	cl, 1
	test	al, al
	jne	LBB25_8
	movd	xmm0, dword ptr [r15]
	punpcklbw	xmm0, xmm0
	punpcklwd	xmm0, xmm0
	movdqa	xmmword ptr [rbp - 112], xmm0
	xor	r14d, r14d
	lea	r15, [rbp - 88]
	lea	r13, [rip + l___unnamed_3]
	cmp	r14, 4
	jne	LBB25_4
	jmp	LBB25_3
	.p2align	4, 0x90
LBB25_6:
	movdqa	xmm0, xmmword ptr [rbp - 112]
	movdqa	xmmword ptr [rbp - 128], xmm0
	lea	r12, [r14 + 1]
	and	r14d, 3
	movzx	eax, byte ptr [rbp + 4*r14 - 128]
	mov	byte ptr [rbp - 88], al
	mov	rdi, r15
	mov	rsi, rbx
	call	__ZN4core3fmt3num49_$LT$impl$u20$core..fmt..Octal$u20$for$u20$u8$GT$3fmt17hc6b20516a790ff98E
	mov	r14, r12
	test	al, al
	jne	LBB25_7
	cmp	r14, 4
	je	LBB25_3
LBB25_4:
	test	r14, r14
	je	LBB25_6
	mov	qword ptr [rbp - 88], r13
	mov	qword ptr [rbp - 80], 1
	mov	qword ptr [rbp - 72], 0
	lea	rax, [rip + l___unnamed_4]
	mov	qword ptr [rbp - 56], rax
	mov	qword ptr [rbp - 48], 0
	mov	rdi, rbx
	mov	rsi, r15
	call	__ZN4core3fmt9Formatter9write_fmt17h3dc2bf45afed3069E
	test	al, al
	je	LBB25_6
LBB25_7:
	mov	cl, 1
	jmp	LBB25_8
LBB25_3:
	lea	rax, [rip + l___unnamed_5]
	mov	qword ptr [rbp - 88], rax
	mov	qword ptr [rbp - 80], 1
	mov	qword ptr [rbp - 72], 0
	lea	rax, [rip + l___unnamed_4]
	mov	qword ptr [rbp - 56], rax
	mov	qword ptr [rbp - 48], 0
	lea	rsi, [rbp - 88]
	mov	rdi, rbx
	call	__ZN4core3fmt9Formatter9write_fmt17h3dc2bf45afed3069E
	mov	ecx, eax
LBB25_8:
	mov	eax, ecx
	add	rsp, 104
	pop	rbx
	pop	r12
	pop	r13
	pop	r14
	pop	r15
	pop	rbp
	ret
	.cfi_endproc

	.globl	__ZN11packed_simd3v3296_$LT$impl$u20$core..fmt..Binary$u20$for$u20$packed_simd..Simd$LT$$u5b$u8$u3b$$u20$4$u5d$$GT$$GT$3fmt17h2e6c60e941edcd50E
	.p2align	4, 0x90
__ZN11packed_simd3v3296_$LT$impl$u20$core..fmt..Binary$u20$for$u20$packed_simd..Simd$LT$$u5b$u8$u3b$$u20$4$u5d$$GT$$GT$3fmt17h2e6c60e941edcd50E:
	.cfi_startproc
	push	rbp
	.cfi_def_cfa_offset 16
	.cfi_offset rbp, -16
	mov	rbp, rsp
	.cfi_def_cfa_register rbp
	push	r15
	push	r14
	push	r13
	push	r12
	push	rbx
	sub	rsp, 104
	.cfi_offset rbx, -56
	.cfi_offset r12, -48
	.cfi_offset r13, -40
	.cfi_offset r14, -32
	.cfi_offset r15, -24
	mov	rbx, rsi
	mov	r15, rdi
	lea	rax, [rip + __ZN44_$LT$$RF$T$u20$as$u20$core..fmt..Display$GT$3fmt17he911d2ba7c50bb69E]
	movq	xmm0, rax
	lea	rax, [rip + l___unnamed_9]
	movq	xmm1, rax
	punpcklqdq	xmm1, xmm0
	movdqa	xmmword ptr [rbp - 144], xmm1
	lea	rax, [rip + l___unnamed_2]
	mov	qword ptr [rbp - 88], rax
	mov	qword ptr [rbp - 80], 2
	mov	qword ptr [rbp - 72], 0
	lea	rax, [rbp - 144]
	mov	qword ptr [rbp - 56], rax
	mov	qword ptr [rbp - 48], 1
	lea	rsi, [rbp - 88]
	mov	rdi, rbx
	call	__ZN4core3fmt9Formatter9write_fmt17h3dc2bf45afed3069E
	mov	cl, 1
	test	al, al
	jne	LBB26_8
	movd	xmm0, dword ptr [r15]
	punpcklbw	xmm0, xmm0
	punpcklwd	xmm0, xmm0
	movdqa	xmmword ptr [rbp - 112], xmm0
	xor	r14d, r14d
	lea	r15, [rbp - 88]
	lea	r13, [rip + l___unnamed_3]
	cmp	r14, 4
	jne	LBB26_4
	jmp	LBB26_3
	.p2align	4, 0x90
LBB26_6:
	movdqa	xmm0, xmmword ptr [rbp - 112]
	movdqa	xmmword ptr [rbp - 128], xmm0
	lea	r12, [r14 + 1]
	and	r14d, 3
	movzx	eax, byte ptr [rbp + 4*r14 - 128]
	mov	byte ptr [rbp - 88], al
	mov	rdi, r15
	mov	rsi, rbx
	call	__ZN4core3fmt3num50_$LT$impl$u20$core..fmt..Binary$u20$for$u20$u8$GT$3fmt17h27b26a79078c499fE
	mov	r14, r12
	test	al, al
	jne	LBB26_7
	cmp	r14, 4
	je	LBB26_3
LBB26_4:
	test	r14, r14
	je	LBB26_6
	mov	qword ptr [rbp - 88], r13
	mov	qword ptr [rbp - 80], 1
	mov	qword ptr [rbp - 72], 0
	lea	rax, [rip + l___unnamed_4]
	mov	qword ptr [rbp - 56], rax
	mov	qword ptr [rbp - 48], 0
	mov	rdi, rbx
	mov	rsi, r15
	call	__ZN4core3fmt9Formatter9write_fmt17h3dc2bf45afed3069E
	test	al, al
	je	LBB26_6
LBB26_7:
	mov	cl, 1
	jmp	LBB26_8
LBB26_3:
	lea	rax, [rip + l___unnamed_5]
	mov	qword ptr [rbp - 88], rax
	mov	qword ptr [rbp - 80], 1
	mov	qword ptr [rbp - 72], 0
	lea	rax, [rip + l___unnamed_4]
	mov	qword ptr [rbp - 56], rax
	mov	qword ptr [rbp - 48], 0
	lea	rsi, [rbp - 88]
	mov	rdi, rbx
	call	__ZN4core3fmt9Formatter9write_fmt17h3dc2bf45afed3069E
	mov	ecx, eax
LBB26_8:
	mov	eax, ecx
	add	rsp, 104
	pop	rbx
	pop	r12
	pop	r13
	pop	r14
	pop	r15
	pop	rbp
	ret
	.cfi_endproc

	.globl	__ZN11packed_simd3v32115_$LT$impl$u20$core..fmt..Debug$u20$for$u20$packed_simd..Simd$LT$$u5b$packed_simd..masks..m8$u3b$$u20$4$u5d$$GT$$GT$3fmt17hc99f7042bead3b5aE
	.p2align	4, 0x90
__ZN11packed_simd3v32115_$LT$impl$u20$core..fmt..Debug$u20$for$u20$packed_simd..Simd$LT$$u5b$packed_simd..masks..m8$u3b$$u20$4$u5d$$GT$$GT$3fmt17hc99f7042bead3b5aE:
	.cfi_startproc
	push	rbp
	.cfi_def_cfa_offset 16
	.cfi_offset rbp, -16
	mov	rbp, rsp
	.cfi_def_cfa_register rbp
	push	r15
	push	r14
	push	r13
	push	r12
	push	rbx
	sub	rsp, 104
	.cfi_offset rbx, -56
	.cfi_offset r12, -48
	.cfi_offset r13, -40
	.cfi_offset r14, -32
	.cfi_offset r15, -24
	mov	rbx, rsi
	mov	r15, rdi
	lea	rax, [rip + __ZN44_$LT$$RF$T$u20$as$u20$core..fmt..Display$GT$3fmt17he911d2ba7c50bb69E]
	movq	xmm0, rax
	lea	rax, [rip + l___unnamed_10]
	movq	xmm1, rax
	punpcklqdq	xmm1, xmm0
	movdqa	xmmword ptr [rbp - 144], xmm1
	lea	rax, [rip + l___unnamed_2]
	mov	qword ptr [rbp - 88], rax
	mov	qword ptr [rbp - 80], 2
	mov	qword ptr [rbp - 72], 0
	lea	rax, [rbp - 144]
	mov	qword ptr [rbp - 56], rax
	mov	qword ptr [rbp - 48], 1
	lea	rsi, [rbp - 88]
	mov	rdi, rbx
	call	__ZN4core3fmt9Formatter9write_fmt17h3dc2bf45afed3069E
	mov	cl, 1
	test	al, al
	jne	LBB27_8
	movd	xmm0, dword ptr [r15]
	punpcklbw	xmm0, xmm0
	punpcklwd	xmm0, xmm0
	movdqa	xmmword ptr [rbp - 112], xmm0
	xor	r14d, r14d
	lea	r15, [rbp - 88]
	lea	r13, [rip + l___unnamed_3]
	cmp	r14, 4
	jne	LBB27_4
	jmp	LBB27_3
	.p2align	4, 0x90
LBB27_6:
	movdqa	xmm0, xmmword ptr [rbp - 112]
	movdqa	xmmword ptr [rbp - 128], xmm0
	lea	r12, [r14 + 1]
	and	r14d, 3
	cmp	byte ptr [rbp + 4*r14 - 128], 0
	setne	byte ptr [rbp - 88]
	mov	rdi, r15
	mov	rsi, rbx
	call	__ZN43_$LT$bool$u20$as$u20$core..fmt..Display$GT$3fmt17hf36463fa8b480ab4E
	mov	r14, r12
	test	al, al
	jne	LBB27_7
	cmp	r14, 4
	je	LBB27_3
LBB27_4:
	test	r14, r14
	je	LBB27_6
	mov	qword ptr [rbp - 88], r13
	mov	qword ptr [rbp - 80], 1
	mov	qword ptr [rbp - 72], 0
	lea	rax, [rip + l___unnamed_4]
	mov	qword ptr [rbp - 56], rax
	mov	qword ptr [rbp - 48], 0
	mov	rdi, rbx
	mov	rsi, r15
	call	__ZN4core3fmt9Formatter9write_fmt17h3dc2bf45afed3069E
	test	al, al
	je	LBB27_6
LBB27_7:
	mov	cl, 1
	jmp	LBB27_8
LBB27_3:
	lea	rax, [rip + l___unnamed_5]
	mov	qword ptr [rbp - 88], rax
	mov	qword ptr [rbp - 80], 1
	mov	qword ptr [rbp - 72], 0
	lea	rax, [rip + l___unnamed_4]
	mov	qword ptr [rbp - 56], rax
	mov	qword ptr [rbp - 48], 0
	lea	rsi, [rbp - 88]
	mov	rdi, rbx
	call	__ZN4core3fmt9Formatter9write_fmt17h3dc2bf45afed3069E
	mov	ecx, eax
LBB27_8:
	mov	eax, ecx
	add	rsp, 104
	pop	rbx
	pop	r12
	pop	r13
	pop	r14
	pop	r15
	pop	rbp
	ret
	.cfi_endproc

	.globl	__ZN11packed_simd3v3296_$LT$impl$u20$core..fmt..Debug$u20$for$u20$packed_simd..Simd$LT$$u5b$i16$u3b$$u20$2$u5d$$GT$$GT$3fmt17hbc7e3f8b40f03a51E
	.p2align	4, 0x90
__ZN11packed_simd3v3296_$LT$impl$u20$core..fmt..Debug$u20$for$u20$packed_simd..Simd$LT$$u5b$i16$u3b$$u20$2$u5d$$GT$$GT$3fmt17hbc7e3f8b40f03a51E:
	.cfi_startproc
	push	rbp
	.cfi_def_cfa_offset 16
	.cfi_offset rbp, -16
	mov	rbp, rsp
	.cfi_def_cfa_register rbp
	push	r15
	push	r14
	push	rbx
	sub	rsp, 88
	.cfi_offset rbx, -40
	.cfi_offset r14, -32
	.cfi_offset r15, -24
	mov	r15, rsi
	mov	rbx, rdi
	lea	rax, [rip + __ZN44_$LT$$RF$T$u20$as$u20$core..fmt..Display$GT$3fmt17he911d2ba7c50bb69E]
	movq	xmm0, rax
	lea	rax, [rip + l___unnamed_11]
	movq	xmm1, rax
	punpcklqdq	xmm1, xmm0
	movdqa	xmmword ptr [rbp - 112], xmm1
	lea	rax, [rip + l___unnamed_2]
	mov	qword ptr [rbp - 72], rax
	mov	qword ptr [rbp - 64], 2
	mov	qword ptr [rbp - 56], 0
	lea	rax, [rbp - 112]
	mov	qword ptr [rbp - 40], rax
	mov	qword ptr [rbp - 32], 1
	lea	rsi, [rbp - 72]
	mov	rdi, r15
	call	__ZN4core3fmt9Formatter9write_fmt17h3dc2bf45afed3069E
	mov	r14b, 1
	test	al, al
	jne	LBB28_12
	movd	xmm0, dword ptr [rbx]
	movdqa	xmmword ptr [rbp - 96], xmm0
	pextrw	eax, xmm0, 0
	mov	word ptr [rbp - 72], ax
	mov	rdi, r15
	call	__ZN4core3fmt9Formatter15debug_lower_hex17h8530fbaeba13f4d9E
	test	al, al
	je	LBB28_2
	lea	rdi, [rbp - 72]
	mov	rsi, r15
	call	__ZN4core3fmt3num53_$LT$impl$u20$core..fmt..LowerHex$u20$for$u20$i16$GT$3fmt17h3f851141fadcf5dbE
	test	al, al
	je	LBB28_6
	jmp	LBB28_12
LBB28_2:
	mov	rdi, r15
	call	__ZN4core3fmt9Formatter15debug_upper_hex17hf8fda15ec43a1e68E
	lea	rdi, [rbp - 72]
	mov	rsi, r15
	test	al, al
	je	LBB28_4
	call	__ZN4core3fmt3num53_$LT$impl$u20$core..fmt..UpperHex$u20$for$u20$i16$GT$3fmt17h68fce712c402f58aE
	test	al, al
	je	LBB28_6
	jmp	LBB28_12
LBB28_4:
	call	__ZN4core3fmt3num3imp52_$LT$impl$u20$core..fmt..Display$u20$for$u20$i16$GT$3fmt17h3a2fa6e453c65d3eE
	test	al, al
	jne	LBB28_12
LBB28_6:
	lea	rax, [rip + l___unnamed_3]
	mov	qword ptr [rbp - 72], rax
	mov	qword ptr [rbp - 64], 1
	mov	qword ptr [rbp - 56], 0
	lea	rbx, [rip + l___unnamed_4]
	mov	qword ptr [rbp - 40], rbx
	mov	qword ptr [rbp - 32], 0
	lea	rsi, [rbp - 72]
	mov	rdi, r15
	call	__ZN4core3fmt9Formatter9write_fmt17h3dc2bf45afed3069E
	test	al, al
	jne	LBB28_12
	pshufd	xmm0, xmmword ptr [rbp - 96], 196
	pshufhw	xmm0, xmm0, 229
	pextrw	eax, xmm0, 4
	mov	word ptr [rbp - 72], ax
	mov	rdi, r15
	call	__ZN4core3fmt9Formatter15debug_lower_hex17h8530fbaeba13f4d9E
	test	al, al
	je	LBB28_8
	lea	rdi, [rbp - 72]
	mov	rsi, r15
	call	__ZN4core3fmt3num53_$LT$impl$u20$core..fmt..LowerHex$u20$for$u20$i16$GT$3fmt17h3f851141fadcf5dbE
	test	al, al
	jne	LBB28_12
LBB28_11:
	lea	rax, [rip + l___unnamed_5]
	mov	qword ptr [rbp - 72], rax
	mov	qword ptr [rbp - 64], 1
	mov	qword ptr [rbp - 56], 0
	mov	qword ptr [rbp - 40], rbx
	mov	qword ptr [rbp - 32], 0
	lea	rsi, [rbp - 72]
	mov	rdi, r15
	call	__ZN4core3fmt9Formatter9write_fmt17h3dc2bf45afed3069E
	mov	r14d, eax
LBB28_12:
	mov	eax, r14d
	add	rsp, 88
	pop	rbx
	pop	r14
	pop	r15
	pop	rbp
	ret
LBB28_8:
	mov	rdi, r15
	call	__ZN4core3fmt9Formatter15debug_upper_hex17hf8fda15ec43a1e68E
	lea	rdi, [rbp - 72]
	mov	rsi, r15
	test	al, al
	je	LBB28_9
	call	__ZN4core3fmt3num53_$LT$impl$u20$core..fmt..UpperHex$u20$for$u20$i16$GT$3fmt17h68fce712c402f58aE
	test	al, al
	je	LBB28_11
	jmp	LBB28_12
LBB28_9:
	call	__ZN4core3fmt3num3imp52_$LT$impl$u20$core..fmt..Display$u20$for$u20$i16$GT$3fmt17h3a2fa6e453c65d3eE
	test	al, al
	je	LBB28_11
	jmp	LBB28_12
	.cfi_endproc

	.globl	__ZN11packed_simd3v3299_$LT$impl$u20$core..fmt..LowerHex$u20$for$u20$packed_simd..Simd$LT$$u5b$i16$u3b$$u20$2$u5d$$GT$$GT$3fmt17h68925452e3e15014E
	.p2align	4, 0x90
__ZN11packed_simd3v3299_$LT$impl$u20$core..fmt..LowerHex$u20$for$u20$packed_simd..Simd$LT$$u5b$i16$u3b$$u20$2$u5d$$GT$$GT$3fmt17h68925452e3e15014E:
	.cfi_startproc
	push	rbp
	.cfi_def_cfa_offset 16
	.cfi_offset rbp, -16
	mov	rbp, rsp
	.cfi_def_cfa_register rbp
	push	r15
	push	r14
	push	r13
	push	r12
	push	rbx
	sub	rsp, 104
	.cfi_offset rbx, -56
	.cfi_offset r12, -48
	.cfi_offset r13, -40
	.cfi_offset r14, -32
	.cfi_offset r15, -24
	mov	rbx, rsi
	mov	r15, rdi
	lea	rax, [rip + __ZN44_$LT$$RF$T$u20$as$u20$core..fmt..Display$GT$3fmt17he911d2ba7c50bb69E]
	movq	xmm0, rax
	lea	rax, [rip + l___unnamed_11]
	movq	xmm1, rax
	punpcklqdq	xmm1, xmm0
	movdqa	xmmword ptr [rbp - 144], xmm1
	lea	rax, [rip + l___unnamed_2]
	mov	qword ptr [rbp - 88], rax
	mov	qword ptr [rbp - 80], 2
	mov	qword ptr [rbp - 72], 0
	lea	rax, [rbp - 144]
	mov	qword ptr [rbp - 56], rax
	mov	qword ptr [rbp - 48], 1
	lea	rsi, [rbp - 88]
	mov	rdi, rbx
	call	__ZN4core3fmt9Formatter9write_fmt17h3dc2bf45afed3069E
	mov	cl, 1
	test	al, al
	jne	LBB29_8
	movd	xmm0, dword ptr [r15]
	pshufd	xmm0, xmm0, 196
	pshufhw	xmm0, xmm0, 229
	movdqa	xmmword ptr [rbp - 112], xmm0
	xor	r14d, r14d
	lea	r15, [rbp - 88]
	lea	r13, [rip + l___unnamed_3]
	cmp	r14, 2
	jne	LBB29_4
	jmp	LBB29_3
	.p2align	4, 0x90
LBB29_6:
	movdqa	xmm0, xmmword ptr [rbp - 112]
	movdqa	xmmword ptr [rbp - 128], xmm0
	lea	r12, [r14 + 1]
	and	r14d, 1
	mov	rax, qword ptr [rbp + 8*r14 - 128]
	mov	word ptr [rbp - 88], ax
	mov	rdi, r15
	mov	rsi, rbx
	call	__ZN4core3fmt3num53_$LT$impl$u20$core..fmt..LowerHex$u20$for$u20$i16$GT$3fmt17h3f851141fadcf5dbE
	mov	r14, r12
	test	al, al
	jne	LBB29_7
	cmp	r14, 2
	je	LBB29_3
LBB29_4:
	test	r14, r14
	je	LBB29_6
	mov	qword ptr [rbp - 88], r13
	mov	qword ptr [rbp - 80], 1
	mov	qword ptr [rbp - 72], 0
	lea	rax, [rip + l___unnamed_4]
	mov	qword ptr [rbp - 56], rax
	mov	qword ptr [rbp - 48], 0
	mov	rdi, rbx
	mov	rsi, r15
	call	__ZN4core3fmt9Formatter9write_fmt17h3dc2bf45afed3069E
	test	al, al
	je	LBB29_6
LBB29_7:
	mov	cl, 1
	jmp	LBB29_8
LBB29_3:
	lea	rax, [rip + l___unnamed_5]
	mov	qword ptr [rbp - 88], rax
	mov	qword ptr [rbp - 80], 1
	mov	qword ptr [rbp - 72], 0
	lea	rax, [rip + l___unnamed_4]
	mov	qword ptr [rbp - 56], rax
	mov	qword ptr [rbp - 48], 0
	lea	rsi, [rbp - 88]
	mov	rdi, rbx
	call	__ZN4core3fmt9Formatter9write_fmt17h3dc2bf45afed3069E
	mov	ecx, eax
LBB29_8:
	mov	eax, ecx
	add	rsp, 104
	pop	rbx
	pop	r12
	pop	r13
	pop	r14
	pop	r15
	pop	rbp
	ret
	.cfi_endproc

	.globl	__ZN11packed_simd3v3299_$LT$impl$u20$core..fmt..UpperHex$u20$for$u20$packed_simd..Simd$LT$$u5b$i16$u3b$$u20$2$u5d$$GT$$GT$3fmt17h60d6077249517c14E
	.p2align	4, 0x90
__ZN11packed_simd3v3299_$LT$impl$u20$core..fmt..UpperHex$u20$for$u20$packed_simd..Simd$LT$$u5b$i16$u3b$$u20$2$u5d$$GT$$GT$3fmt17h60d6077249517c14E:
	.cfi_startproc
	push	rbp
	.cfi_def_cfa_offset 16
	.cfi_offset rbp, -16
	mov	rbp, rsp
	.cfi_def_cfa_register rbp
	push	r15
	push	r14
	push	r13
	push	r12
	push	rbx
	sub	rsp, 104
	.cfi_offset rbx, -56
	.cfi_offset r12, -48
	.cfi_offset r13, -40
	.cfi_offset r14, -32
	.cfi_offset r15, -24
	mov	rbx, rsi
	mov	r15, rdi
	lea	rax, [rip + __ZN44_$LT$$RF$T$u20$as$u20$core..fmt..Display$GT$3fmt17he911d2ba7c50bb69E]
	movq	xmm0, rax
	lea	rax, [rip + l___unnamed_11]
	movq	xmm1, rax
	punpcklqdq	xmm1, xmm0
	movdqa	xmmword ptr [rbp - 144], xmm1
	lea	rax, [rip + l___unnamed_2]
	mov	qword ptr [rbp - 88], rax
	mov	qword ptr [rbp - 80], 2
	mov	qword ptr [rbp - 72], 0
	lea	rax, [rbp - 144]
	mov	qword ptr [rbp - 56], rax
	mov	qword ptr [rbp - 48], 1
	lea	rsi, [rbp - 88]
	mov	rdi, rbx
	call	__ZN4core3fmt9Formatter9write_fmt17h3dc2bf45afed3069E
	mov	cl, 1
	test	al, al
	jne	LBB30_8
	movd	xmm0, dword ptr [r15]
	pshufd	xmm0, xmm0, 196
	pshufhw	xmm0, xmm0, 229
	movdqa	xmmword ptr [rbp - 112], xmm0
	xor	r14d, r14d
	lea	r15, [rbp - 88]
	lea	r13, [rip + l___unnamed_3]
	cmp	r14, 2
	jne	LBB30_4
	jmp	LBB30_3
	.p2align	4, 0x90
LBB30_6:
	movdqa	xmm0, xmmword ptr [rbp - 112]
	movdqa	xmmword ptr [rbp - 128], xmm0
	lea	r12, [r14 + 1]
	and	r14d, 1
	mov	rax, qword ptr [rbp + 8*r14 - 128]
	mov	word ptr [rbp - 88], ax
	mov	rdi, r15
	mov	rsi, rbx
	call	__ZN4core3fmt3num53_$LT$impl$u20$core..fmt..UpperHex$u20$for$u20$i16$GT$3fmt17h68fce712c402f58aE
	mov	r14, r12
	test	al, al
	jne	LBB30_7
	cmp	r14, 2
	je	LBB30_3
LBB30_4:
	test	r14, r14
	je	LBB30_6
	mov	qword ptr [rbp - 88], r13
	mov	qword ptr [rbp - 80], 1
	mov	qword ptr [rbp - 72], 0
	lea	rax, [rip + l___unnamed_4]
	mov	qword ptr [rbp - 56], rax
	mov	qword ptr [rbp - 48], 0
	mov	rdi, rbx
	mov	rsi, r15
	call	__ZN4core3fmt9Formatter9write_fmt17h3dc2bf45afed3069E
	test	al, al
	je	LBB30_6
LBB30_7:
	mov	cl, 1
	jmp	LBB30_8
LBB30_3:
	lea	rax, [rip + l___unnamed_5]
	mov	qword ptr [rbp - 88], rax
	mov	qword ptr [rbp - 80], 1
	mov	qword ptr [rbp - 72], 0
	lea	rax, [rip + l___unnamed_4]
	mov	qword ptr [rbp - 56], rax
	mov	qword ptr [rbp - 48], 0
	lea	rsi, [rbp - 88]
	mov	rdi, rbx
	call	__ZN4core3fmt9Formatter9write_fmt17h3dc2bf45afed3069E
	mov	ecx, eax
LBB30_8:
	mov	eax, ecx
	add	rsp, 104
	pop	rbx
	pop	r12
	pop	r13
	pop	r14
	pop	r15
	pop	rbp
	ret
	.cfi_endproc

	.globl	__ZN11packed_simd3v3296_$LT$impl$u20$core..fmt..Octal$u20$for$u20$packed_simd..Simd$LT$$u5b$i16$u3b$$u20$2$u5d$$GT$$GT$3fmt17h1adaf1a58059dea5E
	.p2align	4, 0x90
__ZN11packed_simd3v3296_$LT$impl$u20$core..fmt..Octal$u20$for$u20$packed_simd..Simd$LT$$u5b$i16$u3b$$u20$2$u5d$$GT$$GT$3fmt17h1adaf1a58059dea5E:
	.cfi_startproc
	push	rbp
	.cfi_def_cfa_offset 16
	.cfi_offset rbp, -16
	mov	rbp, rsp
	.cfi_def_cfa_register rbp
	push	r15
	push	r14
	push	r13
	push	r12
	push	rbx
	sub	rsp, 104
	.cfi_offset rbx, -56
	.cfi_offset r12, -48
	.cfi_offset r13, -40
	.cfi_offset r14, -32
	.cfi_offset r15, -24
	mov	rbx, rsi
	mov	r15, rdi
	lea	rax, [rip + __ZN44_$LT$$RF$T$u20$as$u20$core..fmt..Display$GT$3fmt17he911d2ba7c50bb69E]
	movq	xmm0, rax
	lea	rax, [rip + l___unnamed_11]
	movq	xmm1, rax
	punpcklqdq	xmm1, xmm0
	movdqa	xmmword ptr [rbp - 144], xmm1
	lea	rax, [rip + l___unnamed_2]
	mov	qword ptr [rbp - 88], rax
	mov	qword ptr [rbp - 80], 2
	mov	qword ptr [rbp - 72], 0
	lea	rax, [rbp - 144]
	mov	qword ptr [rbp - 56], rax
	mov	qword ptr [rbp - 48], 1
	lea	rsi, [rbp - 88]
	mov	rdi, rbx
	call	__ZN4core3fmt9Formatter9write_fmt17h3dc2bf45afed3069E
	mov	cl, 1
	test	al, al
	jne	LBB31_8
	movd	xmm0, dword ptr [r15]
	pshufd	xmm0, xmm0, 196
	pshufhw	xmm0, xmm0, 229
	movdqa	xmmword ptr [rbp - 112], xmm0
	xor	r14d, r14d
	lea	r15, [rbp - 88]
	lea	r13, [rip + l___unnamed_3]
	cmp	r14, 2
	jne	LBB31_4
	jmp	LBB31_3
	.p2align	4, 0x90
LBB31_6:
	movdqa	xmm0, xmmword ptr [rbp - 112]
	movdqa	xmmword ptr [rbp - 128], xmm0
	lea	r12, [r14 + 1]
	and	r14d, 1
	mov	rax, qword ptr [rbp + 8*r14 - 128]
	mov	word ptr [rbp - 88], ax
	mov	rdi, r15
	mov	rsi, rbx
	call	__ZN4core3fmt3num50_$LT$impl$u20$core..fmt..Octal$u20$for$u20$i16$GT$3fmt17h1b3cb6f95e755604E
	mov	r14, r12
	test	al, al
	jne	LBB31_7
	cmp	r14, 2
	je	LBB31_3
LBB31_4:
	test	r14, r14
	je	LBB31_6
	mov	qword ptr [rbp - 88], r13
	mov	qword ptr [rbp - 80], 1
	mov	qword ptr [rbp - 72], 0
	lea	rax, [rip + l___unnamed_4]
	mov	qword ptr [rbp - 56], rax
	mov	qword ptr [rbp - 48], 0
	mov	rdi, rbx
	mov	rsi, r15
	call	__ZN4core3fmt9Formatter9write_fmt17h3dc2bf45afed3069E
	test	al, al
	je	LBB31_6
LBB31_7:
	mov	cl, 1
	jmp	LBB31_8
LBB31_3:
	lea	rax, [rip + l___unnamed_5]
	mov	qword ptr [rbp - 88], rax
	mov	qword ptr [rbp - 80], 1
	mov	qword ptr [rbp - 72], 0
	lea	rax, [rip + l___unnamed_4]
	mov	qword ptr [rbp - 56], rax
	mov	qword ptr [rbp - 48], 0
	lea	rsi, [rbp - 88]
	mov	rdi, rbx
	call	__ZN4core3fmt9Formatter9write_fmt17h3dc2bf45afed3069E
	mov	ecx, eax
LBB31_8:
	mov	eax, ecx
	add	rsp, 104
	pop	rbx
	pop	r12
	pop	r13
	pop	r14
	pop	r15
	pop	rbp
	ret
	.cfi_endproc

	.globl	__ZN11packed_simd3v3297_$LT$impl$u20$core..fmt..Binary$u20$for$u20$packed_simd..Simd$LT$$u5b$i16$u3b$$u20$2$u5d$$GT$$GT$3fmt17h011f30c8626a7574E
	.p2align	4, 0x90
__ZN11packed_simd3v3297_$LT$impl$u20$core..fmt..Binary$u20$for$u20$packed_simd..Simd$LT$$u5b$i16$u3b$$u20$2$u5d$$GT$$GT$3fmt17h011f30c8626a7574E:
	.cfi_startproc
	push	rbp
	.cfi_def_cfa_offset 16
	.cfi_offset rbp, -16
	mov	rbp, rsp
	.cfi_def_cfa_register rbp
	push	r15
	push	r14
	push	r13
	push	r12
	push	rbx
	sub	rsp, 104
	.cfi_offset rbx, -56
	.cfi_offset r12, -48
	.cfi_offset r13, -40
	.cfi_offset r14, -32
	.cfi_offset r15, -24
	mov	rbx, rsi
	mov	r15, rdi
	lea	rax, [rip + __ZN44_$LT$$RF$T$u20$as$u20$core..fmt..Display$GT$3fmt17he911d2ba7c50bb69E]
	movq	xmm0, rax
	lea	rax, [rip + l___unnamed_11]
	movq	xmm1, rax
	punpcklqdq	xmm1, xmm0
	movdqa	xmmword ptr [rbp - 144], xmm1
	lea	rax, [rip + l___unnamed_2]
	mov	qword ptr [rbp - 88], rax
	mov	qword ptr [rbp - 80], 2
	mov	qword ptr [rbp - 72], 0
	lea	rax, [rbp - 144]
	mov	qword ptr [rbp - 56], rax
	mov	qword ptr [rbp - 48], 1
	lea	rsi, [rbp - 88]
	mov	rdi, rbx
	call	__ZN4core3fmt9Formatter9write_fmt17h3dc2bf45afed3069E
	mov	cl, 1
	test	al, al
	jne	LBB32_8
	movd	xmm0, dword ptr [r15]
	pshufd	xmm0, xmm0, 196
	pshufhw	xmm0, xmm0, 229
	movdqa	xmmword ptr [rbp - 112], xmm0
	xor	r14d, r14d
	lea	r15, [rbp - 88]
	lea	r13, [rip + l___unnamed_3]
	cmp	r14, 2
	jne	LBB32_4
	jmp	LBB32_3
	.p2align	4, 0x90
LBB32_6:
	movdqa	xmm0, xmmword ptr [rbp - 112]
	movdqa	xmmword ptr [rbp - 128], xmm0
	lea	r12, [r14 + 1]
	and	r14d, 1
	mov	rax, qword ptr [rbp + 8*r14 - 128]
	mov	word ptr [rbp - 88], ax
	mov	rdi, r15
	mov	rsi, rbx
	call	__ZN4core3fmt3num51_$LT$impl$u20$core..fmt..Binary$u20$for$u20$i16$GT$3fmt17hbda9d5cd00305b44E
	mov	r14, r12
	test	al, al
	jne	LBB32_7
	cmp	r14, 2
	je	LBB32_3
LBB32_4:
	test	r14, r14
	je	LBB32_6
	mov	qword ptr [rbp - 88], r13
	mov	qword ptr [rbp - 80], 1
	mov	qword ptr [rbp - 72], 0
	lea	rax, [rip + l___unnamed_4]
	mov	qword ptr [rbp - 56], rax
	mov	qword ptr [rbp - 48], 0
	mov	rdi, rbx
	mov	rsi, r15
	call	__ZN4core3fmt9Formatter9write_fmt17h3dc2bf45afed3069E
	test	al, al
	je	LBB32_6
LBB32_7:
	mov	cl, 1
	jmp	LBB32_8
LBB32_3:
	lea	rax, [rip + l___unnamed_5]
	mov	qword ptr [rbp - 88], rax
	mov	qword ptr [rbp - 80], 1
	mov	qword ptr [rbp - 72], 0
	lea	rax, [rip + l___unnamed_4]
	mov	qword ptr [rbp - 56], rax
	mov	qword ptr [rbp - 48], 0
	lea	rsi, [rbp - 88]
	mov	rdi, rbx
	call	__ZN4core3fmt9Formatter9write_fmt17h3dc2bf45afed3069E
	mov	ecx, eax
LBB32_8:
	mov	eax, ecx
	add	rsp, 104
	pop	rbx
	pop	r12
	pop	r13
	pop	r14
	pop	r15
	pop	rbp
	ret
	.cfi_endproc

	.globl	__ZN11packed_simd3v3296_$LT$impl$u20$core..fmt..Debug$u20$for$u20$packed_simd..Simd$LT$$u5b$u16$u3b$$u20$2$u5d$$GT$$GT$3fmt17h36ac8f1dff6e85ceE
	.p2align	4, 0x90
__ZN11packed_simd3v3296_$LT$impl$u20$core..fmt..Debug$u20$for$u20$packed_simd..Simd$LT$$u5b$u16$u3b$$u20$2$u5d$$GT$$GT$3fmt17h36ac8f1dff6e85ceE:
	.cfi_startproc
	push	rbp
	.cfi_def_cfa_offset 16
	.cfi_offset rbp, -16
	mov	rbp, rsp
	.cfi_def_cfa_register rbp
	push	r15
	push	r14
	push	rbx
	sub	rsp, 88
	.cfi_offset rbx, -40
	.cfi_offset r14, -32
	.cfi_offset r15, -24
	mov	r15, rsi
	mov	rbx, rdi
	lea	rax, [rip + __ZN44_$LT$$RF$T$u20$as$u20$core..fmt..Display$GT$3fmt17he911d2ba7c50bb69E]
	movq	xmm0, rax
	lea	rax, [rip + l___unnamed_12]
	movq	xmm1, rax
	punpcklqdq	xmm1, xmm0
	movdqa	xmmword ptr [rbp - 112], xmm1
	lea	rax, [rip + l___unnamed_2]
	mov	qword ptr [rbp - 72], rax
	mov	qword ptr [rbp - 64], 2
	mov	qword ptr [rbp - 56], 0
	lea	rax, [rbp - 112]
	mov	qword ptr [rbp - 40], rax
	mov	qword ptr [rbp - 32], 1
	lea	rsi, [rbp - 72]
	mov	rdi, r15
	call	__ZN4core3fmt9Formatter9write_fmt17h3dc2bf45afed3069E
	mov	r14b, 1
	test	al, al
	jne	LBB33_12
	movd	xmm0, dword ptr [rbx]
	movdqa	xmmword ptr [rbp - 96], xmm0
	pextrw	eax, xmm0, 0
	mov	word ptr [rbp - 72], ax
	mov	rdi, r15
	call	__ZN4core3fmt9Formatter15debug_lower_hex17h8530fbaeba13f4d9E
	test	al, al
	je	LBB33_2
	lea	rdi, [rbp - 72]
	mov	rsi, r15
	call	__ZN4core3fmt3num53_$LT$impl$u20$core..fmt..LowerHex$u20$for$u20$u16$GT$3fmt17h4a3e59891cc09bc8E
	test	al, al
	je	LBB33_6
	jmp	LBB33_12
LBB33_2:
	mov	rdi, r15
	call	__ZN4core3fmt9Formatter15debug_upper_hex17hf8fda15ec43a1e68E
	lea	rdi, [rbp - 72]
	mov	rsi, r15
	test	al, al
	je	LBB33_4
	call	__ZN4core3fmt3num53_$LT$impl$u20$core..fmt..UpperHex$u20$for$u20$u16$GT$3fmt17h80b29e32979d60cdE
	test	al, al
	je	LBB33_6
	jmp	LBB33_12
LBB33_4:
	call	__ZN4core3fmt3num3imp52_$LT$impl$u20$core..fmt..Display$u20$for$u20$u16$GT$3fmt17h7d9582ae70d300cbE
	test	al, al
	jne	LBB33_12
LBB33_6:
	lea	rax, [rip + l___unnamed_3]
	mov	qword ptr [rbp - 72], rax
	mov	qword ptr [rbp - 64], 1
	mov	qword ptr [rbp - 56], 0
	lea	rbx, [rip + l___unnamed_4]
	mov	qword ptr [rbp - 40], rbx
	mov	qword ptr [rbp - 32], 0
	lea	rsi, [rbp - 72]
	mov	rdi, r15
	call	__ZN4core3fmt9Formatter9write_fmt17h3dc2bf45afed3069E
	test	al, al
	jne	LBB33_12
	pshufd	xmm0, xmmword ptr [rbp - 96], 196
	pshufhw	xmm0, xmm0, 229
	pextrw	eax, xmm0, 4
	mov	word ptr [rbp - 72], ax
	mov	rdi, r15
	call	__ZN4core3fmt9Formatter15debug_lower_hex17h8530fbaeba13f4d9E
	test	al, al
	je	LBB33_8
	lea	rdi, [rbp - 72]
	mov	rsi, r15
	call	__ZN4core3fmt3num53_$LT$impl$u20$core..fmt..LowerHex$u20$for$u20$u16$GT$3fmt17h4a3e59891cc09bc8E
	test	al, al
	jne	LBB33_12
LBB33_11:
	lea	rax, [rip + l___unnamed_5]
	mov	qword ptr [rbp - 72], rax
	mov	qword ptr [rbp - 64], 1
	mov	qword ptr [rbp - 56], 0
	mov	qword ptr [rbp - 40], rbx
	mov	qword ptr [rbp - 32], 0
	lea	rsi, [rbp - 72]
	mov	rdi, r15
	call	__ZN4core3fmt9Formatter9write_fmt17h3dc2bf45afed3069E
	mov	r14d, eax
LBB33_12:
	mov	eax, r14d
	add	rsp, 88
	pop	rbx
	pop	r14
	pop	r15
	pop	rbp
	ret
LBB33_8:
	mov	rdi, r15
	call	__ZN4core3fmt9Formatter15debug_upper_hex17hf8fda15ec43a1e68E
	lea	rdi, [rbp - 72]
	mov	rsi, r15
	test	al, al
	je	LBB33_9
	call	__ZN4core3fmt3num53_$LT$impl$u20$core..fmt..UpperHex$u20$for$u20$u16$GT$3fmt17h80b29e32979d60cdE
	test	al, al
	je	LBB33_11
	jmp	LBB33_12
LBB33_9:
	call	__ZN4core3fmt3num3imp52_$LT$impl$u20$core..fmt..Display$u20$for$u20$u16$GT$3fmt17h7d9582ae70d300cbE
	test	al, al
	je	LBB33_11
	jmp	LBB33_12
	.cfi_endproc

	.globl	__ZN11packed_simd3v3299_$LT$impl$u20$core..fmt..LowerHex$u20$for$u20$packed_simd..Simd$LT$$u5b$u16$u3b$$u20$2$u5d$$GT$$GT$3fmt17hba6cedd7bfc0dd87E
	.p2align	4, 0x90
__ZN11packed_simd3v3299_$LT$impl$u20$core..fmt..LowerHex$u20$for$u20$packed_simd..Simd$LT$$u5b$u16$u3b$$u20$2$u5d$$GT$$GT$3fmt17hba6cedd7bfc0dd87E:
	.cfi_startproc
	push	rbp
	.cfi_def_cfa_offset 16
	.cfi_offset rbp, -16
	mov	rbp, rsp
	.cfi_def_cfa_register rbp
	push	r15
	push	r14
	push	r13
	push	r12
	push	rbx
	sub	rsp, 104
	.cfi_offset rbx, -56
	.cfi_offset r12, -48
	.cfi_offset r13, -40
	.cfi_offset r14, -32
	.cfi_offset r15, -24
	mov	rbx, rsi
	mov	r15, rdi
	lea	rax, [rip + __ZN44_$LT$$RF$T$u20$as$u20$core..fmt..Display$GT$3fmt17he911d2ba7c50bb69E]
	movq	xmm0, rax
	lea	rax, [rip + l___unnamed_12]
	movq	xmm1, rax
	punpcklqdq	xmm1, xmm0
	movdqa	xmmword ptr [rbp - 144], xmm1
	lea	rax, [rip + l___unnamed_2]
	mov	qword ptr [rbp - 88], rax
	mov	qword ptr [rbp - 80], 2
	mov	qword ptr [rbp - 72], 0
	lea	rax, [rbp - 144]
	mov	qword ptr [rbp - 56], rax
	mov	qword ptr [rbp - 48], 1
	lea	rsi, [rbp - 88]
	mov	rdi, rbx
	call	__ZN4core3fmt9Formatter9write_fmt17h3dc2bf45afed3069E
	mov	cl, 1
	test	al, al
	jne	LBB34_8
	movd	xmm0, dword ptr [r15]
	pshufd	xmm0, xmm0, 196
	pshufhw	xmm0, xmm0, 229
	movdqa	xmmword ptr [rbp - 112], xmm0
	xor	r14d, r14d
	lea	r15, [rbp - 88]
	lea	r13, [rip + l___unnamed_3]
	cmp	r14, 2
	jne	LBB34_4
	jmp	LBB34_3
	.p2align	4, 0x90
LBB34_6:
	movdqa	xmm0, xmmword ptr [rbp - 112]
	movdqa	xmmword ptr [rbp - 128], xmm0
	lea	r12, [r14 + 1]
	and	r14d, 1
	mov	rax, qword ptr [rbp + 8*r14 - 128]
	mov	word ptr [rbp - 88], ax
	mov	rdi, r15
	mov	rsi, rbx
	call	__ZN4core3fmt3num53_$LT$impl$u20$core..fmt..LowerHex$u20$for$u20$u16$GT$3fmt17h4a3e59891cc09bc8E
	mov	r14, r12
	test	al, al
	jne	LBB34_7
	cmp	r14, 2
	je	LBB34_3
LBB34_4:
	test	r14, r14
	je	LBB34_6
	mov	qword ptr [rbp - 88], r13
	mov	qword ptr [rbp - 80], 1
	mov	qword ptr [rbp - 72], 0
	lea	rax, [rip + l___unnamed_4]
	mov	qword ptr [rbp - 56], rax
	mov	qword ptr [rbp - 48], 0
	mov	rdi, rbx
	mov	rsi, r15
	call	__ZN4core3fmt9Formatter9write_fmt17h3dc2bf45afed3069E
	test	al, al
	je	LBB34_6
LBB34_7:
	mov	cl, 1
	jmp	LBB34_8
LBB34_3:
	lea	rax, [rip + l___unnamed_5]
	mov	qword ptr [rbp - 88], rax
	mov	qword ptr [rbp - 80], 1
	mov	qword ptr [rbp - 72], 0
	lea	rax, [rip + l___unnamed_4]
	mov	qword ptr [rbp - 56], rax
	mov	qword ptr [rbp - 48], 0
	lea	rsi, [rbp - 88]
	mov	rdi, rbx
	call	__ZN4core3fmt9Formatter9write_fmt17h3dc2bf45afed3069E
	mov	ecx, eax
LBB34_8:
	mov	eax, ecx
	add	rsp, 104
	pop	rbx
	pop	r12
	pop	r13
	pop	r14
	pop	r15
	pop	rbp
	ret
	.cfi_endproc

	.globl	__ZN11packed_simd3v3299_$LT$impl$u20$core..fmt..UpperHex$u20$for$u20$packed_simd..Simd$LT$$u5b$u16$u3b$$u20$2$u5d$$GT$$GT$3fmt17haff2fb19ed5bf9f7E
	.p2align	4, 0x90
__ZN11packed_simd3v3299_$LT$impl$u20$core..fmt..UpperHex$u20$for$u20$packed_simd..Simd$LT$$u5b$u16$u3b$$u20$2$u5d$$GT$$GT$3fmt17haff2fb19ed5bf9f7E:
	.cfi_startproc
	push	rbp
	.cfi_def_cfa_offset 16
	.cfi_offset rbp, -16
	mov	rbp, rsp
	.cfi_def_cfa_register rbp
	push	r15
	push	r14
	push	r13
	push	r12
	push	rbx
	sub	rsp, 104
	.cfi_offset rbx, -56
	.cfi_offset r12, -48
	.cfi_offset r13, -40
	.cfi_offset r14, -32
	.cfi_offset r15, -24
	mov	rbx, rsi
	mov	r15, rdi
	lea	rax, [rip + __ZN44_$LT$$RF$T$u20$as$u20$core..fmt..Display$GT$3fmt17he911d2ba7c50bb69E]
	movq	xmm0, rax
	lea	rax, [rip + l___unnamed_12]
	movq	xmm1, rax
	punpcklqdq	xmm1, xmm0
	movdqa	xmmword ptr [rbp - 144], xmm1
	lea	rax, [rip + l___unnamed_2]
	mov	qword ptr [rbp - 88], rax
	mov	qword ptr [rbp - 80], 2
	mov	qword ptr [rbp - 72], 0
	lea	rax, [rbp - 144]
	mov	qword ptr [rbp - 56], rax
	mov	qword ptr [rbp - 48], 1
	lea	rsi, [rbp - 88]
	mov	rdi, rbx
	call	__ZN4core3fmt9Formatter9write_fmt17h3dc2bf45afed3069E
	mov	cl, 1
	test	al, al
	jne	LBB35_8
	movd	xmm0, dword ptr [r15]
	pshufd	xmm0, xmm0, 196
	pshufhw	xmm0, xmm0, 229
	movdqa	xmmword ptr [rbp - 112], xmm0
	xor	r14d, r14d
	lea	r15, [rbp - 88]
	lea	r13, [rip + l___unnamed_3]
	cmp	r14, 2
	jne	LBB35_4
	jmp	LBB35_3
	.p2align	4, 0x90
LBB35_6:
	movdqa	xmm0, xmmword ptr [rbp - 112]
	movdqa	xmmword ptr [rbp - 128], xmm0
	lea	r12, [r14 + 1]
	and	r14d, 1
	mov	rax, qword ptr [rbp + 8*r14 - 128]
	mov	word ptr [rbp - 88], ax
	mov	rdi, r15
	mov	rsi, rbx
	call	__ZN4core3fmt3num53_$LT$impl$u20$core..fmt..UpperHex$u20$for$u20$u16$GT$3fmt17h80b29e32979d60cdE
	mov	r14, r12
	test	al, al
	jne	LBB35_7
	cmp	r14, 2
	je	LBB35_3
LBB35_4:
	test	r14, r14
	je	LBB35_6
	mov	qword ptr [rbp - 88], r13
	mov	qword ptr [rbp - 80], 1
	mov	qword ptr [rbp - 72], 0
	lea	rax, [rip + l___unnamed_4]
	mov	qword ptr [rbp - 56], rax
	mov	qword ptr [rbp - 48], 0
	mov	rdi, rbx
	mov	rsi, r15
	call	__ZN4core3fmt9Formatter9write_fmt17h3dc2bf45afed3069E
	test	al, al
	je	LBB35_6
LBB35_7:
	mov	cl, 1
	jmp	LBB35_8
LBB35_3:
	lea	rax, [rip + l___unnamed_5]
	mov	qword ptr [rbp - 88], rax
	mov	qword ptr [rbp - 80], 1
	mov	qword ptr [rbp - 72], 0
	lea	rax, [rip + l___unnamed_4]
	mov	qword ptr [rbp - 56], rax
	mov	qword ptr [rbp - 48], 0
	lea	rsi, [rbp - 88]
	mov	rdi, rbx
	call	__ZN4core3fmt9Formatter9write_fmt17h3dc2bf45afed3069E
	mov	ecx, eax
LBB35_8:
	mov	eax, ecx
	add	rsp, 104
	pop	rbx
	pop	r12
	pop	r13
	pop	r14
	pop	r15
	pop	rbp
	ret
	.cfi_endproc

	.globl	__ZN11packed_simd3v3296_$LT$impl$u20$core..fmt..Octal$u20$for$u20$packed_simd..Simd$LT$$u5b$u16$u3b$$u20$2$u5d$$GT$$GT$3fmt17h6c4e35cac593f6f5E
	.p2align	4, 0x90
__ZN11packed_simd3v3296_$LT$impl$u20$core..fmt..Octal$u20$for$u20$packed_simd..Simd$LT$$u5b$u16$u3b$$u20$2$u5d$$GT$$GT$3fmt17h6c4e35cac593f6f5E:
	.cfi_startproc
	push	rbp
	.cfi_def_cfa_offset 16
	.cfi_offset rbp, -16
	mov	rbp, rsp
	.cfi_def_cfa_register rbp
	push	r15
	push	r14
	push	r13
	push	r12
	push	rbx
	sub	rsp, 104
	.cfi_offset rbx, -56
	.cfi_offset r12, -48
	.cfi_offset r13, -40
	.cfi_offset r14, -32
	.cfi_offset r15, -24
	mov	rbx, rsi
	mov	r15, rdi
	lea	rax, [rip + __ZN44_$LT$$RF$T$u20$as$u20$core..fmt..Display$GT$3fmt17he911d2ba7c50bb69E]
	movq	xmm0, rax
	lea	rax, [rip + l___unnamed_12]
	movq	xmm1, rax
	punpcklqdq	xmm1, xmm0
	movdqa	xmmword ptr [rbp - 144], xmm1
	lea	rax, [rip + l___unnamed_2]
	mov	qword ptr [rbp - 88], rax
	mov	qword ptr [rbp - 80], 2
	mov	qword ptr [rbp - 72], 0
	lea	rax, [rbp - 144]
	mov	qword ptr [rbp - 56], rax
	mov	qword ptr [rbp - 48], 1
	lea	rsi, [rbp - 88]
	mov	rdi, rbx
	call	__ZN4core3fmt9Formatter9write_fmt17h3dc2bf45afed3069E
	mov	cl, 1
	test	al, al
	jne	LBB36_8
	movd	xmm0, dword ptr [r15]
	pshufd	xmm0, xmm0, 196
	pshufhw	xmm0, xmm0, 229
	movdqa	xmmword ptr [rbp - 112], xmm0
	xor	r14d, r14d
	lea	r15, [rbp - 88]
	lea	r13, [rip + l___unnamed_3]
	cmp	r14, 2
	jne	LBB36_4
	jmp	LBB36_3
	.p2align	4, 0x90
LBB36_6:
	movdqa	xmm0, xmmword ptr [rbp - 112]
	movdqa	xmmword ptr [rbp - 128], xmm0
	lea	r12, [r14 + 1]
	and	r14d, 1
	mov	rax, qword ptr [rbp + 8*r14 - 128]
	mov	word ptr [rbp - 88], ax
	mov	rdi, r15
	mov	rsi, rbx
	call	__ZN4core3fmt3num50_$LT$impl$u20$core..fmt..Octal$u20$for$u20$u16$GT$3fmt17h2ec0c79ba216a7ebE
	mov	r14, r12
	test	al, al
	jne	LBB36_7
	cmp	r14, 2
	je	LBB36_3
LBB36_4:
	test	r14, r14
	je	LBB36_6
	mov	qword ptr [rbp - 88], r13
	mov	qword ptr [rbp - 80], 1
	mov	qword ptr [rbp - 72], 0
	lea	rax, [rip + l___unnamed_4]
	mov	qword ptr [rbp - 56], rax
	mov	qword ptr [rbp - 48], 0
	mov	rdi, rbx
	mov	rsi, r15
	call	__ZN4core3fmt9Formatter9write_fmt17h3dc2bf45afed3069E
	test	al, al
	je	LBB36_6
LBB36_7:
	mov	cl, 1
	jmp	LBB36_8
LBB36_3:
	lea	rax, [rip + l___unnamed_5]
	mov	qword ptr [rbp - 88], rax
	mov	qword ptr [rbp - 80], 1
	mov	qword ptr [rbp - 72], 0
	lea	rax, [rip + l___unnamed_4]
	mov	qword ptr [rbp - 56], rax
	mov	qword ptr [rbp - 48], 0
	lea	rsi, [rbp - 88]
	mov	rdi, rbx
	call	__ZN4core3fmt9Formatter9write_fmt17h3dc2bf45afed3069E
	mov	ecx, eax
LBB36_8:
	mov	eax, ecx
	add	rsp, 104
	pop	rbx
	pop	r12
	pop	r13
	pop	r14
	pop	r15
	pop	rbp
	ret
	.cfi_endproc

	.globl	__ZN11packed_simd3v3297_$LT$impl$u20$core..fmt..Binary$u20$for$u20$packed_simd..Simd$LT$$u5b$u16$u3b$$u20$2$u5d$$GT$$GT$3fmt17h831dc316e7c2bf06E
	.p2align	4, 0x90
__ZN11packed_simd3v3297_$LT$impl$u20$core..fmt..Binary$u20$for$u20$packed_simd..Simd$LT$$u5b$u16$u3b$$u20$2$u5d$$GT$$GT$3fmt17h831dc316e7c2bf06E:
	.cfi_startproc
	push	rbp
	.cfi_def_cfa_offset 16
	.cfi_offset rbp, -16
	mov	rbp, rsp
	.cfi_def_cfa_register rbp
	push	r15
	push	r14
	push	r13
	push	r12
	push	rbx
	sub	rsp, 104
	.cfi_offset rbx, -56
	.cfi_offset r12, -48
	.cfi_offset r13, -40
	.cfi_offset r14, -32
	.cfi_offset r15, -24
	mov	rbx, rsi
	mov	r15, rdi
	lea	rax, [rip + __ZN44_$LT$$RF$T$u20$as$u20$core..fmt..Display$GT$3fmt17he911d2ba7c50bb69E]
	movq	xmm0, rax
	lea	rax, [rip + l___unnamed_12]
	movq	xmm1, rax
	punpcklqdq	xmm1, xmm0
	movdqa	xmmword ptr [rbp - 144], xmm1
	lea	rax, [rip + l___unnamed_2]
	mov	qword ptr [rbp - 88], rax
	mov	qword ptr [rbp - 80], 2
	mov	qword ptr [rbp - 72], 0
	lea	rax, [rbp - 144]
	mov	qword ptr [rbp - 56], rax
	mov	qword ptr [rbp - 48], 1
	lea	rsi, [rbp - 88]
	mov	rdi, rbx
	call	__ZN4core3fmt9Formatter9write_fmt17h3dc2bf45afed3069E
	mov	cl, 1
	test	al, al
	jne	LBB37_8
	movd	xmm0, dword ptr [r15]
	pshufd	xmm0, xmm0, 196
	pshufhw	xmm0, xmm0, 229
	movdqa	xmmword ptr [rbp - 112], xmm0
	xor	r14d, r14d
	lea	r15, [rbp - 88]
	lea	r13, [rip + l___unnamed_3]
	cmp	r14, 2
	jne	LBB37_4
	jmp	LBB37_3
	.p2align	4, 0x90
LBB37_6:
	movdqa	xmm0, xmmword ptr [rbp - 112]
	movdqa	xmmword ptr [rbp - 128], xmm0
	lea	r12, [r14 + 1]
	and	r14d, 1
	mov	rax, qword ptr [rbp + 8*r14 - 128]
	mov	word ptr [rbp - 88], ax
	mov	rdi, r15
	mov	rsi, rbx
	call	__ZN4core3fmt3num51_$LT$impl$u20$core..fmt..Binary$u20$for$u20$u16$GT$3fmt17hc8b19066ea81d36bE
	mov	r14, r12
	test	al, al
	jne	LBB37_7
	cmp	r14, 2
	je	LBB37_3
LBB37_4:
	test	r14, r14
	je	LBB37_6
	mov	qword ptr [rbp - 88], r13
	mov	qword ptr [rbp - 80], 1
	mov	qword ptr [rbp - 72], 0
	lea	rax, [rip + l___unnamed_4]
	mov	qword ptr [rbp - 56], rax
	mov	qword ptr [rbp - 48], 0
	mov	rdi, rbx
	mov	rsi, r15
	call	__ZN4core3fmt9Formatter9write_fmt17h3dc2bf45afed3069E
	test	al, al
	je	LBB37_6
LBB37_7:
	mov	cl, 1
	jmp	LBB37_8
LBB37_3:
	lea	rax, [rip + l___unnamed_5]
	mov	qword ptr [rbp - 88], rax
	mov	qword ptr [rbp - 80], 1
	mov	qword ptr [rbp - 72], 0
	lea	rax, [rip + l___unnamed_4]
	mov	qword ptr [rbp - 56], rax
	mov	qword ptr [rbp - 48], 0
	lea	rsi, [rbp - 88]
	mov	rdi, rbx
	call	__ZN4core3fmt9Formatter9write_fmt17h3dc2bf45afed3069E
	mov	ecx, eax
LBB37_8:
	mov	eax, ecx
	add	rsp, 104
	pop	rbx
	pop	r12
	pop	r13
	pop	r14
	pop	r15
	pop	rbp
	ret
	.cfi_endproc

	.globl	__ZN11packed_simd3v32116_$LT$impl$u20$core..fmt..Debug$u20$for$u20$packed_simd..Simd$LT$$u5b$packed_simd..masks..m16$u3b$$u20$2$u5d$$GT$$GT$3fmt17h68c5a7d91721f0a0E
	.p2align	4, 0x90
__ZN11packed_simd3v32116_$LT$impl$u20$core..fmt..Debug$u20$for$u20$packed_simd..Simd$LT$$u5b$packed_simd..masks..m16$u3b$$u20$2$u5d$$GT$$GT$3fmt17h68c5a7d91721f0a0E:
	.cfi_startproc
	push	rbp
	.cfi_def_cfa_offset 16
	.cfi_offset rbp, -16
	mov	rbp, rsp
	.cfi_def_cfa_register rbp
	push	r15
	push	r14
	push	r13
	push	r12
	push	rbx
	sub	rsp, 104
	.cfi_offset rbx, -56
	.cfi_offset r12, -48
	.cfi_offset r13, -40
	.cfi_offset r14, -32
	.cfi_offset r15, -24
	mov	rbx, rsi
	mov	r15, rdi
	lea	rax, [rip + __ZN44_$LT$$RF$T$u20$as$u20$core..fmt..Display$GT$3fmt17he911d2ba7c50bb69E]
	movq	xmm0, rax
	lea	rax, [rip + l___unnamed_13]
	movq	xmm1, rax
	punpcklqdq	xmm1, xmm0
	movdqa	xmmword ptr [rbp - 144], xmm1
	lea	rax, [rip + l___unnamed_2]
	mov	qword ptr [rbp - 88], rax
	mov	qword ptr [rbp - 80], 2
	mov	qword ptr [rbp - 72], 0
	lea	rax, [rbp - 144]
	mov	qword ptr [rbp - 56], rax
	mov	qword ptr [rbp - 48], 1
	lea	rsi, [rbp - 88]
	mov	rdi, rbx
	call	__ZN4core3fmt9Formatter9write_fmt17h3dc2bf45afed3069E
	mov	cl, 1
	test	al, al
	jne	LBB38_8
	movd	xmm0, dword ptr [r15]
	pshufd	xmm0, xmm0, 196
	pshufhw	xmm0, xmm0, 229
	movdqa	xmmword ptr [rbp - 112], xmm0
	xor	r14d, r14d
	lea	r15, [rbp - 88]
	lea	r13, [rip + l___unnamed_3]
	cmp	r14, 2
	jne	LBB38_4
	jmp	LBB38_3
	.p2align	4, 0x90
LBB38_6:
	movdqa	xmm0, xmmword ptr [rbp - 112]
	movdqa	xmmword ptr [rbp - 128], xmm0
	lea	r12, [r14 + 1]
	and	r14d, 1
	mov	rax, qword ptr [rbp + 8*r14 - 128]
	test	ax, ax
	setne	byte ptr [rbp - 88]
	mov	rdi, r15
	mov	rsi, rbx
	call	__ZN43_$LT$bool$u20$as$u20$core..fmt..Display$GT$3fmt17hf36463fa8b480ab4E
	mov	r14, r12
	test	al, al
	jne	LBB38_7
	cmp	r14, 2
	je	LBB38_3
LBB38_4:
	test	r14, r14
	je	LBB38_6
	mov	qword ptr [rbp - 88], r13
	mov	qword ptr [rbp - 80], 1
	mov	qword ptr [rbp - 72], 0
	lea	rax, [rip + l___unnamed_4]
	mov	qword ptr [rbp - 56], rax
	mov	qword ptr [rbp - 48], 0
	mov	rdi, rbx
	mov	rsi, r15
	call	__ZN4core3fmt9Formatter9write_fmt17h3dc2bf45afed3069E
	test	al, al
	je	LBB38_6
LBB38_7:
	mov	cl, 1
	jmp	LBB38_8
LBB38_3:
	lea	rax, [rip + l___unnamed_5]
	mov	qword ptr [rbp - 88], rax
	mov	qword ptr [rbp - 80], 1
	mov	qword ptr [rbp - 72], 0
	lea	rax, [rip + l___unnamed_4]
	mov	qword ptr [rbp - 56], rax
	mov	qword ptr [rbp - 48], 0
	lea	rsi, [rbp - 88]
	mov	rdi, rbx
	call	__ZN4core3fmt9Formatter9write_fmt17h3dc2bf45afed3069E
	mov	ecx, eax
LBB38_8:
	mov	eax, ecx
	add	rsp, 104
	pop	rbx
	pop	r12
	pop	r13
	pop	r14
	pop	r15
	pop	rbp
	ret
	.cfi_endproc

	.globl	__ZN11packed_simd3v6495_$LT$impl$u20$core..fmt..Debug$u20$for$u20$packed_simd..Simd$LT$$u5b$i8$u3b$$u20$8$u5d$$GT$$GT$3fmt17h95aa19bc7e8c55edE
	.p2align	4, 0x90
__ZN11packed_simd3v6495_$LT$impl$u20$core..fmt..Debug$u20$for$u20$packed_simd..Simd$LT$$u5b$i8$u3b$$u20$8$u5d$$GT$$GT$3fmt17h95aa19bc7e8c55edE:
	.cfi_startproc
	push	rbp
	.cfi_def_cfa_offset 16
	.cfi_offset rbp, -16
	mov	rbp, rsp
	.cfi_def_cfa_register rbp
	push	r15
	push	r14
	push	r12
	push	rbx
	sub	rsp, 96
	.cfi_offset rbx, -48
	.cfi_offset r12, -40
	.cfi_offset r14, -32
	.cfi_offset r15, -24
	mov	r15, rsi
	mov	rbx, rdi
	lea	rax, [rip + __ZN44_$LT$$RF$T$u20$as$u20$core..fmt..Display$GT$3fmt17he911d2ba7c50bb69E]
	movq	xmm0, rax
	lea	rax, [rip + l___unnamed_14]
	movq	xmm1, rax
	punpcklqdq	xmm1, xmm0
	movdqa	xmmword ptr [rbp - 128], xmm1
	lea	rax, [rip + l___unnamed_2]
	mov	qword ptr [rbp - 80], rax
	mov	qword ptr [rbp - 72], 2
	mov	qword ptr [rbp - 64], 0
	lea	rax, [rbp - 128]
	mov	qword ptr [rbp - 48], rax
	mov	qword ptr [rbp - 40], 1
	lea	rsi, [rbp - 80]
	mov	rdi, r15
	call	__ZN4core3fmt9Formatter9write_fmt17h3dc2bf45afed3069E
	mov	r14b, 1
	test	al, al
	jne	LBB39_42
	movq	xmm0, qword ptr [rbx]
	punpcklbw	xmm0, xmm0
	movdqa	xmmword ptr [rbp - 96], xmm0
	movdqa	xmmword ptr [rbp - 112], xmm0
	mov	al, byte ptr [rbp - 112]
	mov	byte ptr [rbp - 80], al
	mov	rdi, r15
	call	__ZN4core3fmt9Formatter15debug_lower_hex17h8530fbaeba13f4d9E
	test	al, al
	je	LBB39_2
	lea	rdi, [rbp - 80]
	mov	rsi, r15
	call	__ZN4core3fmt3num52_$LT$impl$u20$core..fmt..LowerHex$u20$for$u20$i8$GT$3fmt17h7f7e9f270a5d54c2E
	test	al, al
	je	LBB39_6
	jmp	LBB39_42
LBB39_2:
	mov	rdi, r15
	call	__ZN4core3fmt9Formatter15debug_upper_hex17hf8fda15ec43a1e68E
	lea	rdi, [rbp - 80]
	mov	rsi, r15
	test	al, al
	je	LBB39_4
	call	__ZN4core3fmt3num52_$LT$impl$u20$core..fmt..UpperHex$u20$for$u20$i8$GT$3fmt17hd41115610f011194E
	test	al, al
	je	LBB39_6
	jmp	LBB39_42
LBB39_4:
	call	__ZN4core3fmt3num3imp51_$LT$impl$u20$core..fmt..Display$u20$for$u20$i8$GT$3fmt17hc80f24a4257c3563E
	test	al, al
	jne	LBB39_42
LBB39_6:
	lea	rbx, [rip + l___unnamed_3]
	mov	qword ptr [rbp - 80], rbx
	mov	qword ptr [rbp - 72], 1
	mov	qword ptr [rbp - 64], 0
	lea	r12, [rip + l___unnamed_4]
	mov	qword ptr [rbp - 48], r12
	mov	qword ptr [rbp - 40], 0
	lea	rsi, [rbp - 80]
	mov	rdi, r15
	call	__ZN4core3fmt9Formatter9write_fmt17h3dc2bf45afed3069E
	test	al, al
	jne	LBB39_42
	movdqa	xmm0, xmmword ptr [rbp - 96]
	movd	eax, xmm0
	shr	eax, 16
	mov	byte ptr [rbp - 80], al
	mov	rdi, r15
	call	__ZN4core3fmt9Formatter15debug_lower_hex17h8530fbaeba13f4d9E
	test	al, al
	je	LBB39_8
	lea	rdi, [rbp - 80]
	mov	rsi, r15
	call	__ZN4core3fmt3num52_$LT$impl$u20$core..fmt..LowerHex$u20$for$u20$i8$GT$3fmt17h7f7e9f270a5d54c2E
	test	al, al
	je	LBB39_11
	jmp	LBB39_42
LBB39_8:
	mov	rdi, r15
	call	__ZN4core3fmt9Formatter15debug_upper_hex17hf8fda15ec43a1e68E
	lea	rdi, [rbp - 80]
	mov	rsi, r15
	test	al, al
	je	LBB39_9
	call	__ZN4core3fmt3num52_$LT$impl$u20$core..fmt..UpperHex$u20$for$u20$i8$GT$3fmt17hd41115610f011194E
	test	al, al
	je	LBB39_11
	jmp	LBB39_42
LBB39_9:
	call	__ZN4core3fmt3num3imp51_$LT$impl$u20$core..fmt..Display$u20$for$u20$i8$GT$3fmt17hc80f24a4257c3563E
	test	al, al
	jne	LBB39_42
LBB39_11:
	mov	qword ptr [rbp - 80], rbx
	mov	qword ptr [rbp - 72], 1
	mov	qword ptr [rbp - 64], 0
	mov	qword ptr [rbp - 48], r12
	mov	qword ptr [rbp - 40], 0
	lea	rsi, [rbp - 80]
	mov	rdi, r15
	call	__ZN4core3fmt9Formatter9write_fmt17h3dc2bf45afed3069E
	test	al, al
	jne	LBB39_42
	movdqa	xmm0, xmmword ptr [rbp - 96]
	pextrw	eax, xmm0, 2
	mov	byte ptr [rbp - 80], al
	mov	rdi, r15
	call	__ZN4core3fmt9Formatter15debug_lower_hex17h8530fbaeba13f4d9E
	test	al, al
	je	LBB39_13
	lea	rdi, [rbp - 80]
	mov	rsi, r15
	call	__ZN4core3fmt3num52_$LT$impl$u20$core..fmt..LowerHex$u20$for$u20$i8$GT$3fmt17h7f7e9f270a5d54c2E
	test	al, al
	je	LBB39_16
	jmp	LBB39_42
LBB39_13:
	mov	rdi, r15
	call	__ZN4core3fmt9Formatter15debug_upper_hex17hf8fda15ec43a1e68E
	lea	rdi, [rbp - 80]
	mov	rsi, r15
	test	al, al
	je	LBB39_14
	call	__ZN4core3fmt3num52_$LT$impl$u20$core..fmt..UpperHex$u20$for$u20$i8$GT$3fmt17hd41115610f011194E
	test	al, al
	je	LBB39_16
	jmp	LBB39_42
LBB39_14:
	call	__ZN4core3fmt3num3imp51_$LT$impl$u20$core..fmt..Display$u20$for$u20$i8$GT$3fmt17hc80f24a4257c3563E
	test	al, al
	jne	LBB39_42
LBB39_16:
	mov	qword ptr [rbp - 80], rbx
	mov	qword ptr [rbp - 72], 1
	mov	qword ptr [rbp - 64], 0
	mov	qword ptr [rbp - 48], r12
	mov	qword ptr [rbp - 40], 0
	lea	rsi, [rbp - 80]
	mov	rdi, r15
	call	__ZN4core3fmt9Formatter9write_fmt17h3dc2bf45afed3069E
	test	al, al
	jne	LBB39_42
	movdqa	xmm0, xmmword ptr [rbp - 96]
	pextrw	eax, xmm0, 3
	mov	byte ptr [rbp - 80], al
	mov	rdi, r15
	call	__ZN4core3fmt9Formatter15debug_lower_hex17h8530fbaeba13f4d9E
	test	al, al
	je	LBB39_18
	lea	rdi, [rbp - 80]
	mov	rsi, r15
	call	__ZN4core3fmt3num52_$LT$impl$u20$core..fmt..LowerHex$u20$for$u20$i8$GT$3fmt17h7f7e9f270a5d54c2E
	test	al, al
	je	LBB39_21
	jmp	LBB39_42
LBB39_18:
	mov	rdi, r15
	call	__ZN4core3fmt9Formatter15debug_upper_hex17hf8fda15ec43a1e68E
	lea	rdi, [rbp - 80]
	mov	rsi, r15
	test	al, al
	je	LBB39_19
	call	__ZN4core3fmt3num52_$LT$impl$u20$core..fmt..UpperHex$u20$for$u20$i8$GT$3fmt17hd41115610f011194E
	test	al, al
	je	LBB39_21
	jmp	LBB39_42
LBB39_19:
	call	__ZN4core3fmt3num3imp51_$LT$impl$u20$core..fmt..Display$u20$for$u20$i8$GT$3fmt17hc80f24a4257c3563E
	test	al, al
	jne	LBB39_42
LBB39_21:
	mov	qword ptr [rbp - 80], rbx
	mov	qword ptr [rbp - 72], 1
	mov	qword ptr [rbp - 64], 0
	mov	qword ptr [rbp - 48], r12
	mov	qword ptr [rbp - 40], 0
	lea	rsi, [rbp - 80]
	mov	rdi, r15
	call	__ZN4core3fmt9Formatter9write_fmt17h3dc2bf45afed3069E
	test	al, al
	jne	LBB39_42
	movdqa	xmm0, xmmword ptr [rbp - 96]
	pextrw	eax, xmm0, 4
	mov	byte ptr [rbp - 80], al
	mov	rdi, r15
	call	__ZN4core3fmt9Formatter15debug_lower_hex17h8530fbaeba13f4d9E
	test	al, al
	je	LBB39_23
	lea	rdi, [rbp - 80]
	mov	rsi, r15
	call	__ZN4core3fmt3num52_$LT$impl$u20$core..fmt..LowerHex$u20$for$u20$i8$GT$3fmt17h7f7e9f270a5d54c2E
	test	al, al
	je	LBB39_26
	jmp	LBB39_42
LBB39_23:
	mov	rdi, r15
	call	__ZN4core3fmt9Formatter15debug_upper_hex17hf8fda15ec43a1e68E
	lea	rdi, [rbp - 80]
	mov	rsi, r15
	test	al, al
	je	LBB39_24
	call	__ZN4core3fmt3num52_$LT$impl$u20$core..fmt..UpperHex$u20$for$u20$i8$GT$3fmt17hd41115610f011194E
	test	al, al
	je	LBB39_26
	jmp	LBB39_42
LBB39_24:
	call	__ZN4core3fmt3num3imp51_$LT$impl$u20$core..fmt..Display$u20$for$u20$i8$GT$3fmt17hc80f24a4257c3563E
	test	al, al
	jne	LBB39_42
LBB39_26:
	mov	qword ptr [rbp - 80], rbx
	mov	qword ptr [rbp - 72], 1
	mov	qword ptr [rbp - 64], 0
	mov	qword ptr [rbp - 48], r12
	mov	qword ptr [rbp - 40], 0
	lea	rsi, [rbp - 80]
	mov	rdi, r15
	call	__ZN4core3fmt9Formatter9write_fmt17h3dc2bf45afed3069E
	test	al, al
	jne	LBB39_42
	movdqa	xmm0, xmmword ptr [rbp - 96]
	pextrw	eax, xmm0, 5
	mov	byte ptr [rbp - 80], al
	mov	rdi, r15
	call	__ZN4core3fmt9Formatter15debug_lower_hex17h8530fbaeba13f4d9E
	test	al, al
	je	LBB39_28
	lea	rdi, [rbp - 80]
	mov	rsi, r15
	call	__ZN4core3fmt3num52_$LT$impl$u20$core..fmt..LowerHex$u20$for$u20$i8$GT$3fmt17h7f7e9f270a5d54c2E
	test	al, al
	je	LBB39_31
	jmp	LBB39_42
LBB39_28:
	mov	rdi, r15
	call	__ZN4core3fmt9Formatter15debug_upper_hex17hf8fda15ec43a1e68E
	lea	rdi, [rbp - 80]
	mov	rsi, r15
	test	al, al
	je	LBB39_29
	call	__ZN4core3fmt3num52_$LT$impl$u20$core..fmt..UpperHex$u20$for$u20$i8$GT$3fmt17hd41115610f011194E
	test	al, al
	je	LBB39_31
	jmp	LBB39_42
LBB39_29:
	call	__ZN4core3fmt3num3imp51_$LT$impl$u20$core..fmt..Display$u20$for$u20$i8$GT$3fmt17hc80f24a4257c3563E
	test	al, al
	jne	LBB39_42
LBB39_31:
	mov	qword ptr [rbp - 80], rbx
	mov	qword ptr [rbp - 72], 1
	mov	qword ptr [rbp - 64], 0
	mov	qword ptr [rbp - 48], r12
	mov	qword ptr [rbp - 40], 0
	lea	rsi, [rbp - 80]
	mov	rdi, r15
	call	__ZN4core3fmt9Formatter9write_fmt17h3dc2bf45afed3069E
	test	al, al
	jne	LBB39_42
	movdqa	xmm0, xmmword ptr [rbp - 96]
	pextrw	eax, xmm0, 6
	mov	byte ptr [rbp - 80], al
	mov	rdi, r15
	call	__ZN4core3fmt9Formatter15debug_lower_hex17h8530fbaeba13f4d9E
	test	al, al
	je	LBB39_33
	lea	rdi, [rbp - 80]
	mov	rsi, r15
	call	__ZN4core3fmt3num52_$LT$impl$u20$core..fmt..LowerHex$u20$for$u20$i8$GT$3fmt17h7f7e9f270a5d54c2E
	test	al, al
	je	LBB39_36
	jmp	LBB39_42
LBB39_33:
	mov	rdi, r15
	call	__ZN4core3fmt9Formatter15debug_upper_hex17hf8fda15ec43a1e68E
	lea	rdi, [rbp - 80]
	mov	rsi, r15
	test	al, al
	je	LBB39_34
	call	__ZN4core3fmt3num52_$LT$impl$u20$core..fmt..UpperHex$u20$for$u20$i8$GT$3fmt17hd41115610f011194E
	test	al, al
	je	LBB39_36
	jmp	LBB39_42
LBB39_34:
	call	__ZN4core3fmt3num3imp51_$LT$impl$u20$core..fmt..Display$u20$for$u20$i8$GT$3fmt17hc80f24a4257c3563E
	test	al, al
	jne	LBB39_42
LBB39_36:
	mov	qword ptr [rbp - 80], rbx
	mov	qword ptr [rbp - 72], 1
	mov	qword ptr [rbp - 64], 0
	mov	qword ptr [rbp - 48], r12
	mov	qword ptr [rbp - 40], 0
	lea	rsi, [rbp - 80]
	mov	rdi, r15
	call	__ZN4core3fmt9Formatter9write_fmt17h3dc2bf45afed3069E
	test	al, al
	jne	LBB39_42
	movdqa	xmm0, xmmword ptr [rbp - 96]
	pextrw	eax, xmm0, 7
	mov	byte ptr [rbp - 80], al
	mov	rdi, r15
	call	__ZN4core3fmt9Formatter15debug_lower_hex17h8530fbaeba13f4d9E
	test	al, al
	je	LBB39_38
	lea	rdi, [rbp - 80]
	mov	rsi, r15
	call	__ZN4core3fmt3num52_$LT$impl$u20$core..fmt..LowerHex$u20$for$u20$i8$GT$3fmt17h7f7e9f270a5d54c2E
	test	al, al
	je	LBB39_41
	jmp	LBB39_42
LBB39_38:
	mov	rdi, r15
	call	__ZN4core3fmt9Formatter15debug_upper_hex17hf8fda15ec43a1e68E
	lea	rdi, [rbp - 80]
	mov	rsi, r15
	test	al, al
	je	LBB39_39
	call	__ZN4core3fmt3num52_$LT$impl$u20$core..fmt..UpperHex$u20$for$u20$i8$GT$3fmt17hd41115610f011194E
	test	al, al
	je	LBB39_41
	jmp	LBB39_42
LBB39_39:
	call	__ZN4core3fmt3num3imp51_$LT$impl$u20$core..fmt..Display$u20$for$u20$i8$GT$3fmt17hc80f24a4257c3563E
	test	al, al
	jne	LBB39_42
LBB39_41:
	lea	rax, [rip + l___unnamed_5]
	mov	qword ptr [rbp - 80], rax
	mov	qword ptr [rbp - 72], 1
	mov	qword ptr [rbp - 64], 0
	mov	qword ptr [rbp - 48], r12
	mov	qword ptr [rbp - 40], 0
	lea	rsi, [rbp - 80]
	mov	rdi, r15
	call	__ZN4core3fmt9Formatter9write_fmt17h3dc2bf45afed3069E
	mov	r14d, eax
LBB39_42:
	mov	eax, r14d
	add	rsp, 96
	pop	rbx
	pop	r12
	pop	r14
	pop	r15
	pop	rbp
	ret
	.cfi_endproc

	.globl	__ZN11packed_simd3v6498_$LT$impl$u20$core..fmt..LowerHex$u20$for$u20$packed_simd..Simd$LT$$u5b$i8$u3b$$u20$8$u5d$$GT$$GT$3fmt17hf7b0303f9c464675E
	.p2align	4, 0x90
__ZN11packed_simd3v6498_$LT$impl$u20$core..fmt..LowerHex$u20$for$u20$packed_simd..Simd$LT$$u5b$i8$u3b$$u20$8$u5d$$GT$$GT$3fmt17hf7b0303f9c464675E:
	.cfi_startproc
	push	rbp
	.cfi_def_cfa_offset 16
	.cfi_offset rbp, -16
	mov	rbp, rsp
	.cfi_def_cfa_register rbp
	push	r15
	push	r14
	push	r13
	push	r12
	push	rbx
	sub	rsp, 104
	.cfi_offset rbx, -56
	.cfi_offset r12, -48
	.cfi_offset r13, -40
	.cfi_offset r14, -32
	.cfi_offset r15, -24
	mov	rbx, rsi
	mov	r15, rdi
	lea	rax, [rip + __ZN44_$LT$$RF$T$u20$as$u20$core..fmt..Display$GT$3fmt17he911d2ba7c50bb69E]
	movq	xmm0, rax
	lea	rax, [rip + l___unnamed_14]
	movq	xmm1, rax
	punpcklqdq	xmm1, xmm0
	movdqa	xmmword ptr [rbp - 144], xmm1
	lea	rax, [rip + l___unnamed_2]
	mov	qword ptr [rbp - 88], rax
	mov	qword ptr [rbp - 80], 2
	mov	qword ptr [rbp - 72], 0
	lea	rax, [rbp - 144]
	mov	qword ptr [rbp - 56], rax
	mov	qword ptr [rbp - 48], 1
	lea	rsi, [rbp - 88]
	mov	rdi, rbx
	call	__ZN4core3fmt9Formatter9write_fmt17h3dc2bf45afed3069E
	mov	cl, 1
	test	al, al
	jne	LBB40_8
	movq	xmm0, qword ptr [r15]
	punpcklbw	xmm0, xmm0
	movdqa	xmmword ptr [rbp - 112], xmm0
	xor	r14d, r14d
	lea	r15, [rbp - 88]
	lea	r13, [rip + l___unnamed_3]
	cmp	r14, 8
	jne	LBB40_4
	jmp	LBB40_3
	.p2align	4, 0x90
LBB40_6:
	movdqa	xmm0, xmmword ptr [rbp - 112]
	movdqa	xmmword ptr [rbp - 128], xmm0
	lea	r12, [r14 + 1]
	and	r14d, 7
	movzx	eax, byte ptr [rbp + 2*r14 - 128]
	mov	byte ptr [rbp - 88], al
	mov	rdi, r15
	mov	rsi, rbx
	call	__ZN4core3fmt3num52_$LT$impl$u20$core..fmt..LowerHex$u20$for$u20$i8$GT$3fmt17h7f7e9f270a5d54c2E
	mov	r14, r12
	test	al, al
	jne	LBB40_7
	cmp	r14, 8
	je	LBB40_3
LBB40_4:
	test	r14, r14
	je	LBB40_6
	mov	qword ptr [rbp - 88], r13
	mov	qword ptr [rbp - 80], 1
	mov	qword ptr [rbp - 72], 0
	lea	rax, [rip + l___unnamed_4]
	mov	qword ptr [rbp - 56], rax
	mov	qword ptr [rbp - 48], 0
	mov	rdi, rbx
	mov	rsi, r15
	call	__ZN4core3fmt9Formatter9write_fmt17h3dc2bf45afed3069E
	test	al, al
	je	LBB40_6
LBB40_7:
	mov	cl, 1
	jmp	LBB40_8
LBB40_3:
	lea	rax, [rip + l___unnamed_5]
	mov	qword ptr [rbp - 88], rax
	mov	qword ptr [rbp - 80], 1
	mov	qword ptr [rbp - 72], 0
	lea	rax, [rip + l___unnamed_4]
	mov	qword ptr [rbp - 56], rax
	mov	qword ptr [rbp - 48], 0
	lea	rsi, [rbp - 88]
	mov	rdi, rbx
	call	__ZN4core3fmt9Formatter9write_fmt17h3dc2bf45afed3069E
	mov	ecx, eax
LBB40_8:
	mov	eax, ecx
	add	rsp, 104
	pop	rbx
	pop	r12
	pop	r13
	pop	r14
	pop	r15
	pop	rbp
	ret
	.cfi_endproc

	.globl	__ZN11packed_simd3v6498_$LT$impl$u20$core..fmt..UpperHex$u20$for$u20$packed_simd..Simd$LT$$u5b$i8$u3b$$u20$8$u5d$$GT$$GT$3fmt17h53f660eb5da83089E
	.p2align	4, 0x90
__ZN11packed_simd3v6498_$LT$impl$u20$core..fmt..UpperHex$u20$for$u20$packed_simd..Simd$LT$$u5b$i8$u3b$$u20$8$u5d$$GT$$GT$3fmt17h53f660eb5da83089E:
	.cfi_startproc
	push	rbp
	.cfi_def_cfa_offset 16
	.cfi_offset rbp, -16
	mov	rbp, rsp
	.cfi_def_cfa_register rbp
	push	r15
	push	r14
	push	r13
	push	r12
	push	rbx
	sub	rsp, 104
	.cfi_offset rbx, -56
	.cfi_offset r12, -48
	.cfi_offset r13, -40
	.cfi_offset r14, -32
	.cfi_offset r15, -24
	mov	rbx, rsi
	mov	r15, rdi
	lea	rax, [rip + __ZN44_$LT$$RF$T$u20$as$u20$core..fmt..Display$GT$3fmt17he911d2ba7c50bb69E]
	movq	xmm0, rax
	lea	rax, [rip + l___unnamed_14]
	movq	xmm1, rax
	punpcklqdq	xmm1, xmm0
	movdqa	xmmword ptr [rbp - 144], xmm1
	lea	rax, [rip + l___unnamed_2]
	mov	qword ptr [rbp - 88], rax
	mov	qword ptr [rbp - 80], 2
	mov	qword ptr [rbp - 72], 0
	lea	rax, [rbp - 144]
	mov	qword ptr [rbp - 56], rax
	mov	qword ptr [rbp - 48], 1
	lea	rsi, [rbp - 88]
	mov	rdi, rbx
	call	__ZN4core3fmt9Formatter9write_fmt17h3dc2bf45afed3069E
	mov	cl, 1
	test	al, al
	jne	LBB41_8
	movq	xmm0, qword ptr [r15]
	punpcklbw	xmm0, xmm0
	movdqa	xmmword ptr [rbp - 112], xmm0
	xor	r14d, r14d
	lea	r15, [rbp - 88]
	lea	r13, [rip + l___unnamed_3]
	cmp	r14, 8
	jne	LBB41_4
	jmp	LBB41_3
	.p2align	4, 0x90
LBB41_6:
	movdqa	xmm0, xmmword ptr [rbp - 112]
	movdqa	xmmword ptr [rbp - 128], xmm0
	lea	r12, [r14 + 1]
	and	r14d, 7
	movzx	eax, byte ptr [rbp + 2*r14 - 128]
	mov	byte ptr [rbp - 88], al
	mov	rdi, r15
	mov	rsi, rbx
	call	__ZN4core3fmt3num52_$LT$impl$u20$core..fmt..UpperHex$u20$for$u20$i8$GT$3fmt17hd41115610f011194E
	mov	r14, r12
	test	al, al
	jne	LBB41_7
	cmp	r14, 8
	je	LBB41_3
LBB41_4:
	test	r14, r14
	je	LBB41_6
	mov	qword ptr [rbp - 88], r13
	mov	qword ptr [rbp - 80], 1
	mov	qword ptr [rbp - 72], 0
	lea	rax, [rip + l___unnamed_4]
	mov	qword ptr [rbp - 56], rax
	mov	qword ptr [rbp - 48], 0
	mov	rdi, rbx
	mov	rsi, r15
	call	__ZN4core3fmt9Formatter9write_fmt17h3dc2bf45afed3069E
	test	al, al
	je	LBB41_6
LBB41_7:
	mov	cl, 1
	jmp	LBB41_8
LBB41_3:
	lea	rax, [rip + l___unnamed_5]
	mov	qword ptr [rbp - 88], rax
	mov	qword ptr [rbp - 80], 1
	mov	qword ptr [rbp - 72], 0
	lea	rax, [rip + l___unnamed_4]
	mov	qword ptr [rbp - 56], rax
	mov	qword ptr [rbp - 48], 0
	lea	rsi, [rbp - 88]
	mov	rdi, rbx
	call	__ZN4core3fmt9Formatter9write_fmt17h3dc2bf45afed3069E
	mov	ecx, eax
LBB41_8:
	mov	eax, ecx
	add	rsp, 104
	pop	rbx
	pop	r12
	pop	r13
	pop	r14
	pop	r15
	pop	rbp
	ret
	.cfi_endproc

	.globl	__ZN11packed_simd3v6495_$LT$impl$u20$core..fmt..Octal$u20$for$u20$packed_simd..Simd$LT$$u5b$i8$u3b$$u20$8$u5d$$GT$$GT$3fmt17h5cb29ebe3c097454E
	.p2align	4, 0x90
__ZN11packed_simd3v6495_$LT$impl$u20$core..fmt..Octal$u20$for$u20$packed_simd..Simd$LT$$u5b$i8$u3b$$u20$8$u5d$$GT$$GT$3fmt17h5cb29ebe3c097454E:
	.cfi_startproc
	push	rbp
	.cfi_def_cfa_offset 16
	.cfi_offset rbp, -16
	mov	rbp, rsp
	.cfi_def_cfa_register rbp
	push	r15
	push	r14
	push	r13
	push	r12
	push	rbx
	sub	rsp, 104
	.cfi_offset rbx, -56
	.cfi_offset r12, -48
	.cfi_offset r13, -40
	.cfi_offset r14, -32
	.cfi_offset r15, -24
	mov	rbx, rsi
	mov	r15, rdi
	lea	rax, [rip + __ZN44_$LT$$RF$T$u20$as$u20$core..fmt..Display$GT$3fmt17he911d2ba7c50bb69E]
	movq	xmm0, rax
	lea	rax, [rip + l___unnamed_14]
	movq	xmm1, rax
	punpcklqdq	xmm1, xmm0
	movdqa	xmmword ptr [rbp - 144], xmm1
	lea	rax, [rip + l___unnamed_2]
	mov	qword ptr [rbp - 88], rax
	mov	qword ptr [rbp - 80], 2
	mov	qword ptr [rbp - 72], 0
	lea	rax, [rbp - 144]
	mov	qword ptr [rbp - 56], rax
	mov	qword ptr [rbp - 48], 1
	lea	rsi, [rbp - 88]
	mov	rdi, rbx
	call	__ZN4core3fmt9Formatter9write_fmt17h3dc2bf45afed3069E
	mov	cl, 1
	test	al, al
	jne	LBB42_8
	movq	xmm0, qword ptr [r15]
	punpcklbw	xmm0, xmm0
	movdqa	xmmword ptr [rbp - 112], xmm0
	xor	r14d, r14d
	lea	r15, [rbp - 88]
	lea	r13, [rip + l___unnamed_3]
	cmp	r14, 8
	jne	LBB42_4
	jmp	LBB42_3
	.p2align	4, 0x90
LBB42_6:
	movdqa	xmm0, xmmword ptr [rbp - 112]
	movdqa	xmmword ptr [rbp - 128], xmm0
	lea	r12, [r14 + 1]
	and	r14d, 7
	movzx	eax, byte ptr [rbp + 2*r14 - 128]
	mov	byte ptr [rbp - 88], al
	mov	rdi, r15
	mov	rsi, rbx
	call	__ZN4core3fmt3num49_$LT$impl$u20$core..fmt..Octal$u20$for$u20$i8$GT$3fmt17h29cc81c11127ecd6E
	mov	r14, r12
	test	al, al
	jne	LBB42_7
	cmp	r14, 8
	je	LBB42_3
LBB42_4:
	test	r14, r14
	je	LBB42_6
	mov	qword ptr [rbp - 88], r13
	mov	qword ptr [rbp - 80], 1
	mov	qword ptr [rbp - 72], 0
	lea	rax, [rip + l___unnamed_4]
	mov	qword ptr [rbp - 56], rax
	mov	qword ptr [rbp - 48], 0
	mov	rdi, rbx
	mov	rsi, r15
	call	__ZN4core3fmt9Formatter9write_fmt17h3dc2bf45afed3069E
	test	al, al
	je	LBB42_6
LBB42_7:
	mov	cl, 1
	jmp	LBB42_8
LBB42_3:
	lea	rax, [rip + l___unnamed_5]
	mov	qword ptr [rbp - 88], rax
	mov	qword ptr [rbp - 80], 1
	mov	qword ptr [rbp - 72], 0
	lea	rax, [rip + l___unnamed_4]
	mov	qword ptr [rbp - 56], rax
	mov	qword ptr [rbp - 48], 0
	lea	rsi, [rbp - 88]
	mov	rdi, rbx
	call	__ZN4core3fmt9Formatter9write_fmt17h3dc2bf45afed3069E
	mov	ecx, eax
LBB42_8:
	mov	eax, ecx
	add	rsp, 104
	pop	rbx
	pop	r12
	pop	r13
	pop	r14
	pop	r15
	pop	rbp
	ret
	.cfi_endproc

	.globl	__ZN11packed_simd3v6496_$LT$impl$u20$core..fmt..Binary$u20$for$u20$packed_simd..Simd$LT$$u5b$i8$u3b$$u20$8$u5d$$GT$$GT$3fmt17h3bbc7c999c8c298eE
	.p2align	4, 0x90
__ZN11packed_simd3v6496_$LT$impl$u20$core..fmt..Binary$u20$for$u20$packed_simd..Simd$LT$$u5b$i8$u3b$$u20$8$u5d$$GT$$GT$3fmt17h3bbc7c999c8c298eE:
	.cfi_startproc
	push	rbp
	.cfi_def_cfa_offset 16
	.cfi_offset rbp, -16
	mov	rbp, rsp
	.cfi_def_cfa_register rbp
	push	r15
	push	r14
	push	r13
	push	r12
	push	rbx
	sub	rsp, 104
	.cfi_offset rbx, -56
	.cfi_offset r12, -48
	.cfi_offset r13, -40
	.cfi_offset r14, -32
	.cfi_offset r15, -24
	mov	rbx, rsi
	mov	r15, rdi
	lea	rax, [rip + __ZN44_$LT$$RF$T$u20$as$u20$core..fmt..Display$GT$3fmt17he911d2ba7c50bb69E]
	movq	xmm0, rax
	lea	rax, [rip + l___unnamed_14]
	movq	xmm1, rax
	punpcklqdq	xmm1, xmm0
	movdqa	xmmword ptr [rbp - 144], xmm1
	lea	rax, [rip + l___unnamed_2]
	mov	qword ptr [rbp - 88], rax
	mov	qword ptr [rbp - 80], 2
	mov	qword ptr [rbp - 72], 0
	lea	rax, [rbp - 144]
	mov	qword ptr [rbp - 56], rax
	mov	qword ptr [rbp - 48], 1
	lea	rsi, [rbp - 88]
	mov	rdi, rbx
	call	__ZN4core3fmt9Formatter9write_fmt17h3dc2bf45afed3069E
	mov	cl, 1
	test	al, al
	jne	LBB43_8
	movq	xmm0, qword ptr [r15]
	punpcklbw	xmm0, xmm0
	movdqa	xmmword ptr [rbp - 112], xmm0
	xor	r14d, r14d
	lea	r15, [rbp - 88]
	lea	r13, [rip + l___unnamed_3]
	cmp	r14, 8
	jne	LBB43_4
	jmp	LBB43_3
	.p2align	4, 0x90
LBB43_6:
	movdqa	xmm0, xmmword ptr [rbp - 112]
	movdqa	xmmword ptr [rbp - 128], xmm0
	lea	r12, [r14 + 1]
	and	r14d, 7
	movzx	eax, byte ptr [rbp + 2*r14 - 128]
	mov	byte ptr [rbp - 88], al
	mov	rdi, r15
	mov	rsi, rbx
	call	__ZN4core3fmt3num50_$LT$impl$u20$core..fmt..Binary$u20$for$u20$i8$GT$3fmt17h6b85acc99cf4b968E
	mov	r14, r12
	test	al, al
	jne	LBB43_7
	cmp	r14, 8
	je	LBB43_3
LBB43_4:
	test	r14, r14
	je	LBB43_6
	mov	qword ptr [rbp - 88], r13
	mov	qword ptr [rbp - 80], 1
	mov	qword ptr [rbp - 72], 0
	lea	rax, [rip + l___unnamed_4]
	mov	qword ptr [rbp - 56], rax
	mov	qword ptr [rbp - 48], 0
	mov	rdi, rbx
	mov	rsi, r15
	call	__ZN4core3fmt9Formatter9write_fmt17h3dc2bf45afed3069E
	test	al, al
	je	LBB43_6
LBB43_7:
	mov	cl, 1
	jmp	LBB43_8
LBB43_3:
	lea	rax, [rip + l___unnamed_5]
	mov	qword ptr [rbp - 88], rax
	mov	qword ptr [rbp - 80], 1
	mov	qword ptr [rbp - 72], 0
	lea	rax, [rip + l___unnamed_4]
	mov	qword ptr [rbp - 56], rax
	mov	qword ptr [rbp - 48], 0
	lea	rsi, [rbp - 88]
	mov	rdi, rbx
	call	__ZN4core3fmt9Formatter9write_fmt17h3dc2bf45afed3069E
	mov	ecx, eax
LBB43_8:
	mov	eax, ecx
	add	rsp, 104
	pop	rbx
	pop	r12
	pop	r13
	pop	r14
	pop	r15
	pop	rbp
	ret
	.cfi_endproc

	.globl	__ZN11packed_simd3v6495_$LT$impl$u20$core..fmt..Debug$u20$for$u20$packed_simd..Simd$LT$$u5b$u8$u3b$$u20$8$u5d$$GT$$GT$3fmt17h38a1fdd7ac4fb596E
	.p2align	4, 0x90
__ZN11packed_simd3v6495_$LT$impl$u20$core..fmt..Debug$u20$for$u20$packed_simd..Simd$LT$$u5b$u8$u3b$$u20$8$u5d$$GT$$GT$3fmt17h38a1fdd7ac4fb596E:
	.cfi_startproc
	push	rbp
	.cfi_def_cfa_offset 16
	.cfi_offset rbp, -16
	mov	rbp, rsp
	.cfi_def_cfa_register rbp
	push	r15
	push	r14
	push	r12
	push	rbx
	sub	rsp, 96
	.cfi_offset rbx, -48
	.cfi_offset r12, -40
	.cfi_offset r14, -32
	.cfi_offset r15, -24
	mov	r15, rsi
	mov	rbx, rdi
	lea	rax, [rip + __ZN44_$LT$$RF$T$u20$as$u20$core..fmt..Display$GT$3fmt17he911d2ba7c50bb69E]
	movq	xmm0, rax
	lea	rax, [rip + l___unnamed_15]
	movq	xmm1, rax
	punpcklqdq	xmm1, xmm0
	movdqa	xmmword ptr [rbp - 128], xmm1
	lea	rax, [rip + l___unnamed_2]
	mov	qword ptr [rbp - 80], rax
	mov	qword ptr [rbp - 72], 2
	mov	qword ptr [rbp - 64], 0
	lea	rax, [rbp - 128]
	mov	qword ptr [rbp - 48], rax
	mov	qword ptr [rbp - 40], 1
	lea	rsi, [rbp - 80]
	mov	rdi, r15
	call	__ZN4core3fmt9Formatter9write_fmt17h3dc2bf45afed3069E
	mov	r14b, 1
	test	al, al
	jne	LBB44_42
	movq	xmm0, qword ptr [rbx]
	punpcklbw	xmm0, xmm0
	movdqa	xmmword ptr [rbp - 96], xmm0
	movdqa	xmmword ptr [rbp - 112], xmm0
	mov	al, byte ptr [rbp - 112]
	mov	byte ptr [rbp - 80], al
	mov	rdi, r15
	call	__ZN4core3fmt9Formatter15debug_lower_hex17h8530fbaeba13f4d9E
	test	al, al
	je	LBB44_2
	lea	rdi, [rbp - 80]
	mov	rsi, r15
	call	__ZN4core3fmt3num52_$LT$impl$u20$core..fmt..LowerHex$u20$for$u20$u8$GT$3fmt17h7701faa643a10c55E
	test	al, al
	je	LBB44_6
	jmp	LBB44_42
LBB44_2:
	mov	rdi, r15
	call	__ZN4core3fmt9Formatter15debug_upper_hex17hf8fda15ec43a1e68E
	lea	rdi, [rbp - 80]
	mov	rsi, r15
	test	al, al
	je	LBB44_4
	call	__ZN4core3fmt3num52_$LT$impl$u20$core..fmt..UpperHex$u20$for$u20$u8$GT$3fmt17ha797e73a900719d8E
	test	al, al
	je	LBB44_6
	jmp	LBB44_42
LBB44_4:
	call	__ZN4core3fmt3num3imp51_$LT$impl$u20$core..fmt..Display$u20$for$u20$u8$GT$3fmt17h0e89df114e53d66dE
	test	al, al
	jne	LBB44_42
LBB44_6:
	lea	rbx, [rip + l___unnamed_3]
	mov	qword ptr [rbp - 80], rbx
	mov	qword ptr [rbp - 72], 1
	mov	qword ptr [rbp - 64], 0
	lea	r12, [rip + l___unnamed_4]
	mov	qword ptr [rbp - 48], r12
	mov	qword ptr [rbp - 40], 0
	lea	rsi, [rbp - 80]
	mov	rdi, r15
	call	__ZN4core3fmt9Formatter9write_fmt17h3dc2bf45afed3069E
	test	al, al
	jne	LBB44_42
	movdqa	xmm0, xmmword ptr [rbp - 96]
	movd	eax, xmm0
	shr	eax, 16
	mov	byte ptr [rbp - 80], al
	mov	rdi, r15
	call	__ZN4core3fmt9Formatter15debug_lower_hex17h8530fbaeba13f4d9E
	test	al, al
	je	LBB44_8
	lea	rdi, [rbp - 80]
	mov	rsi, r15
	call	__ZN4core3fmt3num52_$LT$impl$u20$core..fmt..LowerHex$u20$for$u20$u8$GT$3fmt17h7701faa643a10c55E
	test	al, al
	je	LBB44_11
	jmp	LBB44_42
LBB44_8:
	mov	rdi, r15
	call	__ZN4core3fmt9Formatter15debug_upper_hex17hf8fda15ec43a1e68E
	lea	rdi, [rbp - 80]
	mov	rsi, r15
	test	al, al
	je	LBB44_9
	call	__ZN4core3fmt3num52_$LT$impl$u20$core..fmt..UpperHex$u20$for$u20$u8$GT$3fmt17ha797e73a900719d8E
	test	al, al
	je	LBB44_11
	jmp	LBB44_42
LBB44_9:
	call	__ZN4core3fmt3num3imp51_$LT$impl$u20$core..fmt..Display$u20$for$u20$u8$GT$3fmt17h0e89df114e53d66dE
	test	al, al
	jne	LBB44_42
LBB44_11:
	mov	qword ptr [rbp - 80], rbx
	mov	qword ptr [rbp - 72], 1
	mov	qword ptr [rbp - 64], 0
	mov	qword ptr [rbp - 48], r12
	mov	qword ptr [rbp - 40], 0
	lea	rsi, [rbp - 80]
	mov	rdi, r15
	call	__ZN4core3fmt9Formatter9write_fmt17h3dc2bf45afed3069E
	test	al, al
	jne	LBB44_42
	movdqa	xmm0, xmmword ptr [rbp - 96]
	pextrw	eax, xmm0, 2
	mov	byte ptr [rbp - 80], al
	mov	rdi, r15
	call	__ZN4core3fmt9Formatter15debug_lower_hex17h8530fbaeba13f4d9E
	test	al, al
	je	LBB44_13
	lea	rdi, [rbp - 80]
	mov	rsi, r15
	call	__ZN4core3fmt3num52_$LT$impl$u20$core..fmt..LowerHex$u20$for$u20$u8$GT$3fmt17h7701faa643a10c55E
	test	al, al
	je	LBB44_16
	jmp	LBB44_42
LBB44_13:
	mov	rdi, r15
	call	__ZN4core3fmt9Formatter15debug_upper_hex17hf8fda15ec43a1e68E
	lea	rdi, [rbp - 80]
	mov	rsi, r15
	test	al, al
	je	LBB44_14
	call	__ZN4core3fmt3num52_$LT$impl$u20$core..fmt..UpperHex$u20$for$u20$u8$GT$3fmt17ha797e73a900719d8E
	test	al, al
	je	LBB44_16
	jmp	LBB44_42
LBB44_14:
	call	__ZN4core3fmt3num3imp51_$LT$impl$u20$core..fmt..Display$u20$for$u20$u8$GT$3fmt17h0e89df114e53d66dE
	test	al, al
	jne	LBB44_42
LBB44_16:
	mov	qword ptr [rbp - 80], rbx
	mov	qword ptr [rbp - 72], 1
	mov	qword ptr [rbp - 64], 0
	mov	qword ptr [rbp - 48], r12
	mov	qword ptr [rbp - 40], 0
	lea	rsi, [rbp - 80]
	mov	rdi, r15
	call	__ZN4core3fmt9Formatter9write_fmt17h3dc2bf45afed3069E
	test	al, al
	jne	LBB44_42
	movdqa	xmm0, xmmword ptr [rbp - 96]
	pextrw	eax, xmm0, 3
	mov	byte ptr [rbp - 80], al
	mov	rdi, r15
	call	__ZN4core3fmt9Formatter15debug_lower_hex17h8530fbaeba13f4d9E
	test	al, al
	je	LBB44_18
	lea	rdi, [rbp - 80]
	mov	rsi, r15
	call	__ZN4core3fmt3num52_$LT$impl$u20$core..fmt..LowerHex$u20$for$u20$u8$GT$3fmt17h7701faa643a10c55E
	test	al, al
	je	LBB44_21
	jmp	LBB44_42
LBB44_18:
	mov	rdi, r15
	call	__ZN4core3fmt9Formatter15debug_upper_hex17hf8fda15ec43a1e68E
	lea	rdi, [rbp - 80]
	mov	rsi, r15
	test	al, al
	je	LBB44_19
	call	__ZN4core3fmt3num52_$LT$impl$u20$core..fmt..UpperHex$u20$for$u20$u8$GT$3fmt17ha797e73a900719d8E
	test	al, al
	je	LBB44_21
	jmp	LBB44_42
LBB44_19:
	call	__ZN4core3fmt3num3imp51_$LT$impl$u20$core..fmt..Display$u20$for$u20$u8$GT$3fmt17h0e89df114e53d66dE
	test	al, al
	jne	LBB44_42
LBB44_21:
	mov	qword ptr [rbp - 80], rbx
	mov	qword ptr [rbp - 72], 1
	mov	qword ptr [rbp - 64], 0
	mov	qword ptr [rbp - 48], r12
	mov	qword ptr [rbp - 40], 0
	lea	rsi, [rbp - 80]
	mov	rdi, r15
	call	__ZN4core3fmt9Formatter9write_fmt17h3dc2bf45afed3069E
	test	al, al
	jne	LBB44_42
	movdqa	xmm0, xmmword ptr [rbp - 96]
	pextrw	eax, xmm0, 4
	mov	byte ptr [rbp - 80], al
	mov	rdi, r15
	call	__ZN4core3fmt9Formatter15debug_lower_hex17h8530fbaeba13f4d9E
	test	al, al
	je	LBB44_23
	lea	rdi, [rbp - 80]
	mov	rsi, r15
	call	__ZN4core3fmt3num52_$LT$impl$u20$core..fmt..LowerHex$u20$for$u20$u8$GT$3fmt17h7701faa643a10c55E
	test	al, al
	je	LBB44_26
	jmp	LBB44_42
LBB44_23:
	mov	rdi, r15
	call	__ZN4core3fmt9Formatter15debug_upper_hex17hf8fda15ec43a1e68E
	lea	rdi, [rbp - 80]
	mov	rsi, r15
	test	al, al
	je	LBB44_24
	call	__ZN4core3fmt3num52_$LT$impl$u20$core..fmt..UpperHex$u20$for$u20$u8$GT$3fmt17ha797e73a900719d8E
	test	al, al
	je	LBB44_26
	jmp	LBB44_42
LBB44_24:
	call	__ZN4core3fmt3num3imp51_$LT$impl$u20$core..fmt..Display$u20$for$u20$u8$GT$3fmt17h0e89df114e53d66dE
	test	al, al
	jne	LBB44_42
LBB44_26:
	mov	qword ptr [rbp - 80], rbx
	mov	qword ptr [rbp - 72], 1
	mov	qword ptr [rbp - 64], 0
	mov	qword ptr [rbp - 48], r12
	mov	qword ptr [rbp - 40], 0
	lea	rsi, [rbp - 80]
	mov	rdi, r15
	call	__ZN4core3fmt9Formatter9write_fmt17h3dc2bf45afed3069E
	test	al, al
	jne	LBB44_42
	movdqa	xmm0, xmmword ptr [rbp - 96]
	pextrw	eax, xmm0, 5
	mov	byte ptr [rbp - 80], al
	mov	rdi, r15
	call	__ZN4core3fmt9Formatter15debug_lower_hex17h8530fbaeba13f4d9E
	test	al, al
	je	LBB44_28
	lea	rdi, [rbp - 80]
	mov	rsi, r15
	call	__ZN4core3fmt3num52_$LT$impl$u20$core..fmt..LowerHex$u20$for$u20$u8$GT$3fmt17h7701faa643a10c55E
	test	al, al
	je	LBB44_31
	jmp	LBB44_42
LBB44_28:
	mov	rdi, r15
	call	__ZN4core3fmt9Formatter15debug_upper_hex17hf8fda15ec43a1e68E
	lea	rdi, [rbp - 80]
	mov	rsi, r15
	test	al, al
	je	LBB44_29
	call	__ZN4core3fmt3num52_$LT$impl$u20$core..fmt..UpperHex$u20$for$u20$u8$GT$3fmt17ha797e73a900719d8E
	test	al, al
	je	LBB44_31
	jmp	LBB44_42
LBB44_29:
	call	__ZN4core3fmt3num3imp51_$LT$impl$u20$core..fmt..Display$u20$for$u20$u8$GT$3fmt17h0e89df114e53d66dE
	test	al, al
	jne	LBB44_42
LBB44_31:
	mov	qword ptr [rbp - 80], rbx
	mov	qword ptr [rbp - 72], 1
	mov	qword ptr [rbp - 64], 0
	mov	qword ptr [rbp - 48], r12
	mov	qword ptr [rbp - 40], 0
	lea	rsi, [rbp - 80]
	mov	rdi, r15
	call	__ZN4core3fmt9Formatter9write_fmt17h3dc2bf45afed3069E
	test	al, al
	jne	LBB44_42
	movdqa	xmm0, xmmword ptr [rbp - 96]
	pextrw	eax, xmm0, 6
	mov	byte ptr [rbp - 80], al
	mov	rdi, r15
	call	__ZN4core3fmt9Formatter15debug_lower_hex17h8530fbaeba13f4d9E
	test	al, al
	je	LBB44_33
	lea	rdi, [rbp - 80]
	mov	rsi, r15
	call	__ZN4core3fmt3num52_$LT$impl$u20$core..fmt..LowerHex$u20$for$u20$u8$GT$3fmt17h7701faa643a10c55E
	test	al, al
	je	LBB44_36
	jmp	LBB44_42
LBB44_33:
	mov	rdi, r15
	call	__ZN4core3fmt9Formatter15debug_upper_hex17hf8fda15ec43a1e68E
	lea	rdi, [rbp - 80]
	mov	rsi, r15
	test	al, al
	je	LBB44_34
	call	__ZN4core3fmt3num52_$LT$impl$u20$core..fmt..UpperHex$u20$for$u20$u8$GT$3fmt17ha797e73a900719d8E
	test	al, al
	je	LBB44_36
	jmp	LBB44_42
LBB44_34:
	call	__ZN4core3fmt3num3imp51_$LT$impl$u20$core..fmt..Display$u20$for$u20$u8$GT$3fmt17h0e89df114e53d66dE
	test	al, al
	jne	LBB44_42
LBB44_36:
	mov	qword ptr [rbp - 80], rbx
	mov	qword ptr [rbp - 72], 1
	mov	qword ptr [rbp - 64], 0
	mov	qword ptr [rbp - 48], r12
	mov	qword ptr [rbp - 40], 0
	lea	rsi, [rbp - 80]
	mov	rdi, r15
	call	__ZN4core3fmt9Formatter9write_fmt17h3dc2bf45afed3069E
	test	al, al
	jne	LBB44_42
	movdqa	xmm0, xmmword ptr [rbp - 96]
	pextrw	eax, xmm0, 7
	mov	byte ptr [rbp - 80], al
	mov	rdi, r15
	call	__ZN4core3fmt9Formatter15debug_lower_hex17h8530fbaeba13f4d9E
	test	al, al
	je	LBB44_38
	lea	rdi, [rbp - 80]
	mov	rsi, r15
	call	__ZN4core3fmt3num52_$LT$impl$u20$core..fmt..LowerHex$u20$for$u20$u8$GT$3fmt17h7701faa643a10c55E
	test	al, al
	je	LBB44_41
	jmp	LBB44_42
LBB44_38:
	mov	rdi, r15
	call	__ZN4core3fmt9Formatter15debug_upper_hex17hf8fda15ec43a1e68E
	lea	rdi, [rbp - 80]
	mov	rsi, r15
	test	al, al
	je	LBB44_39
	call	__ZN4core3fmt3num52_$LT$impl$u20$core..fmt..UpperHex$u20$for$u20$u8$GT$3fmt17ha797e73a900719d8E
	test	al, al
	je	LBB44_41
	jmp	LBB44_42
LBB44_39:
	call	__ZN4core3fmt3num3imp51_$LT$impl$u20$core..fmt..Display$u20$for$u20$u8$GT$3fmt17h0e89df114e53d66dE
	test	al, al
	jne	LBB44_42
LBB44_41:
	lea	rax, [rip + l___unnamed_5]
	mov	qword ptr [rbp - 80], rax
	mov	qword ptr [rbp - 72], 1
	mov	qword ptr [rbp - 64], 0
	mov	qword ptr [rbp - 48], r12
	mov	qword ptr [rbp - 40], 0
	lea	rsi, [rbp - 80]
	mov	rdi, r15
	call	__ZN4core3fmt9Formatter9write_fmt17h3dc2bf45afed3069E
	mov	r14d, eax
LBB44_42:
	mov	eax, r14d
	add	rsp, 96
	pop	rbx
	pop	r12
	pop	r14
	pop	r15
	pop	rbp
	ret
	.cfi_endproc

	.globl	__ZN11packed_simd3v6498_$LT$impl$u20$core..fmt..LowerHex$u20$for$u20$packed_simd..Simd$LT$$u5b$u8$u3b$$u20$8$u5d$$GT$$GT$3fmt17ha8981bd3d24e2560E
	.p2align	4, 0x90
__ZN11packed_simd3v6498_$LT$impl$u20$core..fmt..LowerHex$u20$for$u20$packed_simd..Simd$LT$$u5b$u8$u3b$$u20$8$u5d$$GT$$GT$3fmt17ha8981bd3d24e2560E:
	.cfi_startproc
	push	rbp
	.cfi_def_cfa_offset 16
	.cfi_offset rbp, -16
	mov	rbp, rsp
	.cfi_def_cfa_register rbp
	push	r15
	push	r14
	push	r13
	push	r12
	push	rbx
	sub	rsp, 104
	.cfi_offset rbx, -56
	.cfi_offset r12, -48
	.cfi_offset r13, -40
	.cfi_offset r14, -32
	.cfi_offset r15, -24
	mov	rbx, rsi
	mov	r15, rdi
	lea	rax, [rip + __ZN44_$LT$$RF$T$u20$as$u20$core..fmt..Display$GT$3fmt17he911d2ba7c50bb69E]
	movq	xmm0, rax
	lea	rax, [rip + l___unnamed_15]
	movq	xmm1, rax
	punpcklqdq	xmm1, xmm0
	movdqa	xmmword ptr [rbp - 144], xmm1
	lea	rax, [rip + l___unnamed_2]
	mov	qword ptr [rbp - 88], rax
	mov	qword ptr [rbp - 80], 2
	mov	qword ptr [rbp - 72], 0
	lea	rax, [rbp - 144]
	mov	qword ptr [rbp - 56], rax
	mov	qword ptr [rbp - 48], 1
	lea	rsi, [rbp - 88]
	mov	rdi, rbx
	call	__ZN4core3fmt9Formatter9write_fmt17h3dc2bf45afed3069E
	mov	cl, 1
	test	al, al
	jne	LBB45_8
	movq	xmm0, qword ptr [r15]
	punpcklbw	xmm0, xmm0
	movdqa	xmmword ptr [rbp - 112], xmm0
	xor	r14d, r14d
	lea	r15, [rbp - 88]
	lea	r13, [rip + l___unnamed_3]
	cmp	r14, 8
	jne	LBB45_4
	jmp	LBB45_3
	.p2align	4, 0x90
LBB45_6:
	movdqa	xmm0, xmmword ptr [rbp - 112]
	movdqa	xmmword ptr [rbp - 128], xmm0
	lea	r12, [r14 + 1]
	and	r14d, 7
	movzx	eax, byte ptr [rbp + 2*r14 - 128]
	mov	byte ptr [rbp - 88], al
	mov	rdi, r15
	mov	rsi, rbx
	call	__ZN4core3fmt3num52_$LT$impl$u20$core..fmt..LowerHex$u20$for$u20$u8$GT$3fmt17h7701faa643a10c55E
	mov	r14, r12
	test	al, al
	jne	LBB45_7
	cmp	r14, 8
	je	LBB45_3
LBB45_4:
	test	r14, r14
	je	LBB45_6
	mov	qword ptr [rbp - 88], r13
	mov	qword ptr [rbp - 80], 1
	mov	qword ptr [rbp - 72], 0
	lea	rax, [rip + l___unnamed_4]
	mov	qword ptr [rbp - 56], rax
	mov	qword ptr [rbp - 48], 0
	mov	rdi, rbx
	mov	rsi, r15
	call	__ZN4core3fmt9Formatter9write_fmt17h3dc2bf45afed3069E
	test	al, al
	je	LBB45_6
LBB45_7:
	mov	cl, 1
	jmp	LBB45_8
LBB45_3:
	lea	rax, [rip + l___unnamed_5]
	mov	qword ptr [rbp - 88], rax
	mov	qword ptr [rbp - 80], 1
	mov	qword ptr [rbp - 72], 0
	lea	rax, [rip + l___unnamed_4]
	mov	qword ptr [rbp - 56], rax
	mov	qword ptr [rbp - 48], 0
	lea	rsi, [rbp - 88]
	mov	rdi, rbx
	call	__ZN4core3fmt9Formatter9write_fmt17h3dc2bf45afed3069E
	mov	ecx, eax
LBB45_8:
	mov	eax, ecx
	add	rsp, 104
	pop	rbx
	pop	r12
	pop	r13
	pop	r14
	pop	r15
	pop	rbp
	ret
	.cfi_endproc

	.globl	__ZN11packed_simd3v6498_$LT$impl$u20$core..fmt..UpperHex$u20$for$u20$packed_simd..Simd$LT$$u5b$u8$u3b$$u20$8$u5d$$GT$$GT$3fmt17hc77d8641a9d522fcE
	.p2align	4, 0x90
__ZN11packed_simd3v6498_$LT$impl$u20$core..fmt..UpperHex$u20$for$u20$packed_simd..Simd$LT$$u5b$u8$u3b$$u20$8$u5d$$GT$$GT$3fmt17hc77d8641a9d522fcE:
	.cfi_startproc
	push	rbp
	.cfi_def_cfa_offset 16
	.cfi_offset rbp, -16
	mov	rbp, rsp
	.cfi_def_cfa_register rbp
	push	r15
	push	r14
	push	r13
	push	r12
	push	rbx
	sub	rsp, 104
	.cfi_offset rbx, -56
	.cfi_offset r12, -48
	.cfi_offset r13, -40
	.cfi_offset r14, -32
	.cfi_offset r15, -24
	mov	rbx, rsi
	mov	r15, rdi
	lea	rax, [rip + __ZN44_$LT$$RF$T$u20$as$u20$core..fmt..Display$GT$3fmt17he911d2ba7c50bb69E]
	movq	xmm0, rax
	lea	rax, [rip + l___unnamed_15]
	movq	xmm1, rax
	punpcklqdq	xmm1, xmm0
	movdqa	xmmword ptr [rbp - 144], xmm1
	lea	rax, [rip + l___unnamed_2]
	mov	qword ptr [rbp - 88], rax
	mov	qword ptr [rbp - 80], 2
	mov	qword ptr [rbp - 72], 0
	lea	rax, [rbp - 144]
	mov	qword ptr [rbp - 56], rax
	mov	qword ptr [rbp - 48], 1
	lea	rsi, [rbp - 88]
	mov	rdi, rbx
	call	__ZN4core3fmt9Formatter9write_fmt17h3dc2bf45afed3069E
	mov	cl, 1
	test	al, al
	jne	LBB46_8
	movq	xmm0, qword ptr [r15]
	punpcklbw	xmm0, xmm0
	movdqa	xmmword ptr [rbp - 112], xmm0
	xor	r14d, r14d
	lea	r15, [rbp - 88]
	lea	r13, [rip + l___unnamed_3]
	cmp	r14, 8
	jne	LBB46_4
	jmp	LBB46_3
	.p2align	4, 0x90
LBB46_6:
	movdqa	xmm0, xmmword ptr [rbp - 112]
	movdqa	xmmword ptr [rbp - 128], xmm0
	lea	r12, [r14 + 1]
	and	r14d, 7
	movzx	eax, byte ptr [rbp + 2*r14 - 128]
	mov	byte ptr [rbp - 88], al
	mov	rdi, r15
	mov	rsi, rbx
	call	__ZN4core3fmt3num52_$LT$impl$u20$core..fmt..UpperHex$u20$for$u20$u8$GT$3fmt17ha797e73a900719d8E
	mov	r14, r12
	test	al, al
	jne	LBB46_7
	cmp	r14, 8
	je	LBB46_3
LBB46_4:
	test	r14, r14
	je	LBB46_6
	mov	qword ptr [rbp - 88], r13
	mov	qword ptr [rbp - 80], 1
	mov	qword ptr [rbp - 72], 0
	lea	rax, [rip + l___unnamed_4]
	mov	qword ptr [rbp - 56], rax
	mov	qword ptr [rbp - 48], 0
	mov	rdi, rbx
	mov	rsi, r15
	call	__ZN4core3fmt9Formatter9write_fmt17h3dc2bf45afed3069E
	test	al, al
	je	LBB46_6
LBB46_7:
	mov	cl, 1
	jmp	LBB46_8
LBB46_3:
	lea	rax, [rip + l___unnamed_5]
	mov	qword ptr [rbp - 88], rax
	mov	qword ptr [rbp - 80], 1
	mov	qword ptr [rbp - 72], 0
	lea	rax, [rip + l___unnamed_4]
	mov	qword ptr [rbp - 56], rax
	mov	qword ptr [rbp - 48], 0
	lea	rsi, [rbp - 88]
	mov	rdi, rbx
	call	__ZN4core3fmt9Formatter9write_fmt17h3dc2bf45afed3069E
	mov	ecx, eax
LBB46_8:
	mov	eax, ecx
	add	rsp, 104
	pop	rbx
	pop	r12
	pop	r13
	pop	r14
	pop	r15
	pop	rbp
	ret
	.cfi_endproc

	.globl	__ZN11packed_simd3v6495_$LT$impl$u20$core..fmt..Octal$u20$for$u20$packed_simd..Simd$LT$$u5b$u8$u3b$$u20$8$u5d$$GT$$GT$3fmt17h2f87275e6153cb1bE
	.p2align	4, 0x90
__ZN11packed_simd3v6495_$LT$impl$u20$core..fmt..Octal$u20$for$u20$packed_simd..Simd$LT$$u5b$u8$u3b$$u20$8$u5d$$GT$$GT$3fmt17h2f87275e6153cb1bE:
	.cfi_startproc
	push	rbp
	.cfi_def_cfa_offset 16
	.cfi_offset rbp, -16
	mov	rbp, rsp
	.cfi_def_cfa_register rbp
	push	r15
	push	r14
	push	r13
	push	r12
	push	rbx
	sub	rsp, 104
	.cfi_offset rbx, -56
	.cfi_offset r12, -48
	.cfi_offset r13, -40
	.cfi_offset r14, -32
	.cfi_offset r15, -24
	mov	rbx, rsi
	mov	r15, rdi
	lea	rax, [rip + __ZN44_$LT$$RF$T$u20$as$u20$core..fmt..Display$GT$3fmt17he911d2ba7c50bb69E]
	movq	xmm0, rax
	lea	rax, [rip + l___unnamed_15]
	movq	xmm1, rax
	punpcklqdq	xmm1, xmm0
	movdqa	xmmword ptr [rbp - 144], xmm1
	lea	rax, [rip + l___unnamed_2]
	mov	qword ptr [rbp - 88], rax
	mov	qword ptr [rbp - 80], 2
	mov	qword ptr [rbp - 72], 0
	lea	rax, [rbp - 144]
	mov	qword ptr [rbp - 56], rax
	mov	qword ptr [rbp - 48], 1
	lea	rsi, [rbp - 88]
	mov	rdi, rbx
	call	__ZN4core3fmt9Formatter9write_fmt17h3dc2bf45afed3069E
	mov	cl, 1
	test	al, al
	jne	LBB47_8
	movq	xmm0, qword ptr [r15]
	punpcklbw	xmm0, xmm0
	movdqa	xmmword ptr [rbp - 112], xmm0
	xor	r14d, r14d
	lea	r15, [rbp - 88]
	lea	r13, [rip + l___unnamed_3]
	cmp	r14, 8
	jne	LBB47_4
	jmp	LBB47_3
	.p2align	4, 0x90
LBB47_6:
	movdqa	xmm0, xmmword ptr [rbp - 112]
	movdqa	xmmword ptr [rbp - 128], xmm0
	lea	r12, [r14 + 1]
	and	r14d, 7
	movzx	eax, byte ptr [rbp + 2*r14 - 128]
	mov	byte ptr [rbp - 88], al
	mov	rdi, r15
	mov	rsi, rbx
	call	__ZN4core3fmt3num49_$LT$impl$u20$core..fmt..Octal$u20$for$u20$u8$GT$3fmt17hc6b20516a790ff98E
	mov	r14, r12
	test	al, al
	jne	LBB47_7
	cmp	r14, 8
	je	LBB47_3
LBB47_4:
	test	r14, r14
	je	LBB47_6
	mov	qword ptr [rbp - 88], r13
	mov	qword ptr [rbp - 80], 1
	mov	qword ptr [rbp - 72], 0
	lea	rax, [rip + l___unnamed_4]
	mov	qword ptr [rbp - 56], rax
	mov	qword ptr [rbp - 48], 0
	mov	rdi, rbx
	mov	rsi, r15
	call	__ZN4core3fmt9Formatter9write_fmt17h3dc2bf45afed3069E
	test	al, al
	je	LBB47_6
LBB47_7:
	mov	cl, 1
	jmp	LBB47_8
LBB47_3:
	lea	rax, [rip + l___unnamed_5]
	mov	qword ptr [rbp - 88], rax
	mov	qword ptr [rbp - 80], 1
	mov	qword ptr [rbp - 72], 0
	lea	rax, [rip + l___unnamed_4]
	mov	qword ptr [rbp - 56], rax
	mov	qword ptr [rbp - 48], 0
	lea	rsi, [rbp - 88]
	mov	rdi, rbx
	call	__ZN4core3fmt9Formatter9write_fmt17h3dc2bf45afed3069E
	mov	ecx, eax
LBB47_8:
	mov	eax, ecx
	add	rsp, 104
	pop	rbx
	pop	r12
	pop	r13
	pop	r14
	pop	r15
	pop	rbp
	ret
	.cfi_endproc

	.globl	__ZN11packed_simd3v6496_$LT$impl$u20$core..fmt..Binary$u20$for$u20$packed_simd..Simd$LT$$u5b$u8$u3b$$u20$8$u5d$$GT$$GT$3fmt17h37bbd879e167f711E
	.p2align	4, 0x90
__ZN11packed_simd3v6496_$LT$impl$u20$core..fmt..Binary$u20$for$u20$packed_simd..Simd$LT$$u5b$u8$u3b$$u20$8$u5d$$GT$$GT$3fmt17h37bbd879e167f711E:
	.cfi_startproc
	push	rbp
	.cfi_def_cfa_offset 16
	.cfi_offset rbp, -16
	mov	rbp, rsp
	.cfi_def_cfa_register rbp
	push	r15
	push	r14
	push	r13
	push	r12
	push	rbx
	sub	rsp, 104
	.cfi_offset rbx, -56
	.cfi_offset r12, -48
	.cfi_offset r13, -40
	.cfi_offset r14, -32
	.cfi_offset r15, -24
	mov	rbx, rsi
	mov	r15, rdi
	lea	rax, [rip + __ZN44_$LT$$RF$T$u20$as$u20$core..fmt..Display$GT$3fmt17he911d2ba7c50bb69E]
	movq	xmm0, rax
	lea	rax, [rip + l___unnamed_15]
	movq	xmm1, rax
	punpcklqdq	xmm1, xmm0
	movdqa	xmmword ptr [rbp - 144], xmm1
	lea	rax, [rip + l___unnamed_2]
	mov	qword ptr [rbp - 88], rax
	mov	qword ptr [rbp - 80], 2
	mov	qword ptr [rbp - 72], 0
	lea	rax, [rbp - 144]
	mov	qword ptr [rbp - 56], rax
	mov	qword ptr [rbp - 48], 1
	lea	rsi, [rbp - 88]
	mov	rdi, rbx
	call	__ZN4core3fmt9Formatter9write_fmt17h3dc2bf45afed3069E
	mov	cl, 1
	test	al, al
	jne	LBB48_8
	movq	xmm0, qword ptr [r15]
	punpcklbw	xmm0, xmm0
	movdqa	xmmword ptr [rbp - 112], xmm0
	xor	r14d, r14d
	lea	r15, [rbp - 88]
	lea	r13, [rip + l___unnamed_3]
	cmp	r14, 8
	jne	LBB48_4
	jmp	LBB48_3
	.p2align	4, 0x90
LBB48_6:
	movdqa	xmm0, xmmword ptr [rbp - 112]
	movdqa	xmmword ptr [rbp - 128], xmm0
	lea	r12, [r14 + 1]
	and	r14d, 7
	movzx	eax, byte ptr [rbp + 2*r14 - 128]
	mov	byte ptr [rbp - 88], al
	mov	rdi, r15
	mov	rsi, rbx
	call	__ZN4core3fmt3num50_$LT$impl$u20$core..fmt..Binary$u20$for$u20$u8$GT$3fmt17h27b26a79078c499fE
	mov	r14, r12
	test	al, al
	jne	LBB48_7
	cmp	r14, 8
	je	LBB48_3
LBB48_4:
	test	r14, r14
	je	LBB48_6
	mov	qword ptr [rbp - 88], r13
	mov	qword ptr [rbp - 80], 1
	mov	qword ptr [rbp - 72], 0
	lea	rax, [rip + l___unnamed_4]
	mov	qword ptr [rbp - 56], rax
	mov	qword ptr [rbp - 48], 0
	mov	rdi, rbx
	mov	rsi, r15
	call	__ZN4core3fmt9Formatter9write_fmt17h3dc2bf45afed3069E
	test	al, al
	je	LBB48_6
LBB48_7:
	mov	cl, 1
	jmp	LBB48_8
LBB48_3:
	lea	rax, [rip + l___unnamed_5]
	mov	qword ptr [rbp - 88], rax
	mov	qword ptr [rbp - 80], 1
	mov	qword ptr [rbp - 72], 0
	lea	rax, [rip + l___unnamed_4]
	mov	qword ptr [rbp - 56], rax
	mov	qword ptr [rbp - 48], 0
	lea	rsi, [rbp - 88]
	mov	rdi, rbx
	call	__ZN4core3fmt9Formatter9write_fmt17h3dc2bf45afed3069E
	mov	ecx, eax
LBB48_8:
	mov	eax, ecx
	add	rsp, 104
	pop	rbx
	pop	r12
	pop	r13
	pop	r14
	pop	r15
	pop	rbp
	ret
	.cfi_endproc

	.globl	__ZN11packed_simd3v64115_$LT$impl$u20$core..fmt..Debug$u20$for$u20$packed_simd..Simd$LT$$u5b$packed_simd..masks..m8$u3b$$u20$8$u5d$$GT$$GT$3fmt17h351c3de943380c89E
	.p2align	4, 0x90
__ZN11packed_simd3v64115_$LT$impl$u20$core..fmt..Debug$u20$for$u20$packed_simd..Simd$LT$$u5b$packed_simd..masks..m8$u3b$$u20$8$u5d$$GT$$GT$3fmt17h351c3de943380c89E:
	.cfi_startproc
	push	rbp
	.cfi_def_cfa_offset 16
	.cfi_offset rbp, -16
	mov	rbp, rsp
	.cfi_def_cfa_register rbp
	push	r15
	push	r14
	push	r13
	push	r12
	push	rbx
	sub	rsp, 104
	.cfi_offset rbx, -56
	.cfi_offset r12, -48
	.cfi_offset r13, -40
	.cfi_offset r14, -32
	.cfi_offset r15, -24
	mov	rbx, rsi
	mov	r15, rdi
	lea	rax, [rip + __ZN44_$LT$$RF$T$u20$as$u20$core..fmt..Display$GT$3fmt17he911d2ba7c50bb69E]
	movq	xmm0, rax
	lea	rax, [rip + l___unnamed_16]
	movq	xmm1, rax
	punpcklqdq	xmm1, xmm0
	movdqa	xmmword ptr [rbp - 144], xmm1
	lea	rax, [rip + l___unnamed_2]
	mov	qword ptr [rbp - 88], rax
	mov	qword ptr [rbp - 80], 2
	mov	qword ptr [rbp - 72], 0
	lea	rax, [rbp - 144]
	mov	qword ptr [rbp - 56], rax
	mov	qword ptr [rbp - 48], 1
	lea	rsi, [rbp - 88]
	mov	rdi, rbx
	call	__ZN4core3fmt9Formatter9write_fmt17h3dc2bf45afed3069E
	mov	cl, 1
	test	al, al
	jne	LBB49_8
	movq	xmm0, qword ptr [r15]
	punpcklbw	xmm0, xmm0
	movdqa	xmmword ptr [rbp - 112], xmm0
	xor	r14d, r14d
	lea	r15, [rbp - 88]
	lea	r13, [rip + l___unnamed_3]
	cmp	r14, 8
	jne	LBB49_4
	jmp	LBB49_3
	.p2align	4, 0x90
LBB49_6:
	movdqa	xmm0, xmmword ptr [rbp - 112]
	movdqa	xmmword ptr [rbp - 128], xmm0
	lea	r12, [r14 + 1]
	and	r14d, 7
	cmp	byte ptr [rbp + 2*r14 - 128], 0
	setne	byte ptr [rbp - 88]
	mov	rdi, r15
	mov	rsi, rbx
	call	__ZN43_$LT$bool$u20$as$u20$core..fmt..Display$GT$3fmt17hf36463fa8b480ab4E
	mov	r14, r12
	test	al, al
	jne	LBB49_7
	cmp	r14, 8
	je	LBB49_3
LBB49_4:
	test	r14, r14
	je	LBB49_6
	mov	qword ptr [rbp - 88], r13
	mov	qword ptr [rbp - 80], 1
	mov	qword ptr [rbp - 72], 0
	lea	rax, [rip + l___unnamed_4]
	mov	qword ptr [rbp - 56], rax
	mov	qword ptr [rbp - 48], 0
	mov	rdi, rbx
	mov	rsi, r15
	call	__ZN4core3fmt9Formatter9write_fmt17h3dc2bf45afed3069E
	test	al, al
	je	LBB49_6
LBB49_7:
	mov	cl, 1
	jmp	LBB49_8
LBB49_3:
	lea	rax, [rip + l___unnamed_5]
	mov	qword ptr [rbp - 88], rax
	mov	qword ptr [rbp - 80], 1
	mov	qword ptr [rbp - 72], 0
	lea	rax, [rip + l___unnamed_4]
	mov	qword ptr [rbp - 56], rax
	mov	qword ptr [rbp - 48], 0
	lea	rsi, [rbp - 88]
	mov	rdi, rbx
	call	__ZN4core3fmt9Formatter9write_fmt17h3dc2bf45afed3069E
	mov	ecx, eax
LBB49_8:
	mov	eax, ecx
	add	rsp, 104
	pop	rbx
	pop	r12
	pop	r13
	pop	r14
	pop	r15
	pop	rbp
	ret
	.cfi_endproc

	.globl	__ZN11packed_simd3v6496_$LT$impl$u20$core..fmt..Debug$u20$for$u20$packed_simd..Simd$LT$$u5b$i16$u3b$$u20$4$u5d$$GT$$GT$3fmt17h8d46995298585b07E
	.p2align	4, 0x90
__ZN11packed_simd3v6496_$LT$impl$u20$core..fmt..Debug$u20$for$u20$packed_simd..Simd$LT$$u5b$i16$u3b$$u20$4$u5d$$GT$$GT$3fmt17h8d46995298585b07E:
	.cfi_startproc
	push	rbp
	.cfi_def_cfa_offset 16
	.cfi_offset rbp, -16
	mov	rbp, rsp
	.cfi_def_cfa_register rbp
	push	r15
	push	r14
	push	r12
	push	rbx
	sub	rsp, 80
	.cfi_offset rbx, -48
	.cfi_offset r12, -40
	.cfi_offset r14, -32
	.cfi_offset r15, -24
	mov	r15, rsi
	mov	rbx, rdi
	lea	rax, [rip + __ZN44_$LT$$RF$T$u20$as$u20$core..fmt..Display$GT$3fmt17he911d2ba7c50bb69E]
	movq	xmm0, rax
	lea	rax, [rip + l___unnamed_17]
	movq	xmm1, rax
	punpcklqdq	xmm1, xmm0
	movdqa	xmmword ptr [rbp - 112], xmm1
	lea	rax, [rip + l___unnamed_2]
	mov	qword ptr [rbp - 80], rax
	mov	qword ptr [rbp - 72], 2
	mov	qword ptr [rbp - 64], 0
	lea	rax, [rbp - 112]
	mov	qword ptr [rbp - 48], rax
	mov	qword ptr [rbp - 40], 1
	lea	rsi, [rbp - 80]
	mov	rdi, r15
	call	__ZN4core3fmt9Formatter9write_fmt17h3dc2bf45afed3069E
	mov	r14b, 1
	test	al, al
	jne	LBB50_22
	movq	xmm0, qword ptr [rbx]
	movdqa	xmmword ptr [rbp - 96], xmm0
	pextrw	eax, xmm0, 0
	mov	word ptr [rbp - 80], ax
	mov	rdi, r15
	call	__ZN4core3fmt9Formatter15debug_lower_hex17h8530fbaeba13f4d9E
	test	al, al
	je	LBB50_2
	lea	rdi, [rbp - 80]
	mov	rsi, r15
	call	__ZN4core3fmt3num53_$LT$impl$u20$core..fmt..LowerHex$u20$for$u20$i16$GT$3fmt17h3f851141fadcf5dbE
	test	al, al
	je	LBB50_6
	jmp	LBB50_22
LBB50_2:
	mov	rdi, r15
	call	__ZN4core3fmt9Formatter15debug_upper_hex17hf8fda15ec43a1e68E
	lea	rdi, [rbp - 80]
	mov	rsi, r15
	test	al, al
	je	LBB50_4
	call	__ZN4core3fmt3num53_$LT$impl$u20$core..fmt..UpperHex$u20$for$u20$i16$GT$3fmt17h68fce712c402f58aE
	test	al, al
	je	LBB50_6
	jmp	LBB50_22
LBB50_4:
	call	__ZN4core3fmt3num3imp52_$LT$impl$u20$core..fmt..Display$u20$for$u20$i16$GT$3fmt17h3a2fa6e453c65d3eE
	test	al, al
	jne	LBB50_22
LBB50_6:
	lea	rbx, [rip + l___unnamed_3]
	mov	qword ptr [rbp - 80], rbx
	mov	qword ptr [rbp - 72], 1
	mov	qword ptr [rbp - 64], 0
	lea	r12, [rip + l___unnamed_4]
	mov	qword ptr [rbp - 48], r12
	mov	qword ptr [rbp - 40], 0
	lea	rsi, [rbp - 80]
	mov	rdi, r15
	call	__ZN4core3fmt9Formatter9write_fmt17h3dc2bf45afed3069E
	test	al, al
	jne	LBB50_22
	movdqa	xmm0, xmmword ptr [rbp - 96]
	punpcklwd	xmm0, xmm0
	movdqa	xmmword ptr [rbp - 96], xmm0
	pextrw	eax, xmm0, 2
	mov	word ptr [rbp - 80], ax
	mov	rdi, r15
	call	__ZN4core3fmt9Formatter15debug_lower_hex17h8530fbaeba13f4d9E
	test	al, al
	je	LBB50_8
	lea	rdi, [rbp - 80]
	mov	rsi, r15
	call	__ZN4core3fmt3num53_$LT$impl$u20$core..fmt..LowerHex$u20$for$u20$i16$GT$3fmt17h3f851141fadcf5dbE
	test	al, al
	je	LBB50_11
	jmp	LBB50_22
LBB50_8:
	mov	rdi, r15
	call	__ZN4core3fmt9Formatter15debug_upper_hex17hf8fda15ec43a1e68E
	lea	rdi, [rbp - 80]
	mov	rsi, r15
	test	al, al
	je	LBB50_9
	call	__ZN4core3fmt3num53_$LT$impl$u20$core..fmt..UpperHex$u20$for$u20$i16$GT$3fmt17h68fce712c402f58aE
	test	al, al
	je	LBB50_11
	jmp	LBB50_22
LBB50_9:
	call	__ZN4core3fmt3num3imp52_$LT$impl$u20$core..fmt..Display$u20$for$u20$i16$GT$3fmt17h3a2fa6e453c65d3eE
	test	al, al
	jne	LBB50_22
LBB50_11:
	mov	qword ptr [rbp - 80], rbx
	mov	qword ptr [rbp - 72], 1
	mov	qword ptr [rbp - 64], 0
	mov	qword ptr [rbp - 48], r12
	mov	qword ptr [rbp - 40], 0
	lea	rsi, [rbp - 80]
	mov	rdi, r15
	call	__ZN4core3fmt9Formatter9write_fmt17h3dc2bf45afed3069E
	test	al, al
	jne	LBB50_22
	movdqa	xmm0, xmmword ptr [rbp - 96]
	pextrw	eax, xmm0, 4
	mov	word ptr [rbp - 80], ax
	mov	rdi, r15
	call	__ZN4core3fmt9Formatter15debug_lower_hex17h8530fbaeba13f4d9E
	test	al, al
	je	LBB50_13
	lea	rdi, [rbp - 80]
	mov	rsi, r15
	call	__ZN4core3fmt3num53_$LT$impl$u20$core..fmt..LowerHex$u20$for$u20$i16$GT$3fmt17h3f851141fadcf5dbE
	test	al, al
	je	LBB50_16
	jmp	LBB50_22
LBB50_13:
	mov	rdi, r15
	call	__ZN4core3fmt9Formatter15debug_upper_hex17hf8fda15ec43a1e68E
	lea	rdi, [rbp - 80]
	mov	rsi, r15
	test	al, al
	je	LBB50_14
	call	__ZN4core3fmt3num53_$LT$impl$u20$core..fmt..UpperHex$u20$for$u20$i16$GT$3fmt17h68fce712c402f58aE
	test	al, al
	je	LBB50_16
	jmp	LBB50_22
LBB50_14:
	call	__ZN4core3fmt3num3imp52_$LT$impl$u20$core..fmt..Display$u20$for$u20$i16$GT$3fmt17h3a2fa6e453c65d3eE
	test	al, al
	jne	LBB50_22
LBB50_16:
	mov	qword ptr [rbp - 80], rbx
	mov	qword ptr [rbp - 72], 1
	mov	qword ptr [rbp - 64], 0
	mov	qword ptr [rbp - 48], r12
	mov	qword ptr [rbp - 40], 0
	lea	rsi, [rbp - 80]
	mov	rdi, r15
	call	__ZN4core3fmt9Formatter9write_fmt17h3dc2bf45afed3069E
	test	al, al
	jne	LBB50_22
	movdqa	xmm0, xmmword ptr [rbp - 96]
	pextrw	eax, xmm0, 6
	mov	word ptr [rbp - 80], ax
	mov	rdi, r15
	call	__ZN4core3fmt9Formatter15debug_lower_hex17h8530fbaeba13f4d9E
	test	al, al
	je	LBB50_18
	lea	rdi, [rbp - 80]
	mov	rsi, r15
	call	__ZN4core3fmt3num53_$LT$impl$u20$core..fmt..LowerHex$u20$for$u20$i16$GT$3fmt17h3f851141fadcf5dbE
	test	al, al
	je	LBB50_21
	jmp	LBB50_22
LBB50_18:
	mov	rdi, r15
	call	__ZN4core3fmt9Formatter15debug_upper_hex17hf8fda15ec43a1e68E
	lea	rdi, [rbp - 80]
	mov	rsi, r15
	test	al, al
	je	LBB50_19
	call	__ZN4core3fmt3num53_$LT$impl$u20$core..fmt..UpperHex$u20$for$u20$i16$GT$3fmt17h68fce712c402f58aE
	test	al, al
	je	LBB50_21
	jmp	LBB50_22
LBB50_19:
	call	__ZN4core3fmt3num3imp52_$LT$impl$u20$core..fmt..Display$u20$for$u20$i16$GT$3fmt17h3a2fa6e453c65d3eE
	test	al, al
	jne	LBB50_22
LBB50_21:
	lea	rax, [rip + l___unnamed_5]
	mov	qword ptr [rbp - 80], rax
	mov	qword ptr [rbp - 72], 1
	mov	qword ptr [rbp - 64], 0
	mov	qword ptr [rbp - 48], r12
	mov	qword ptr [rbp - 40], 0
	lea	rsi, [rbp - 80]
	mov	rdi, r15
	call	__ZN4core3fmt9Formatter9write_fmt17h3dc2bf45afed3069E
	mov	r14d, eax
LBB50_22:
	mov	eax, r14d
	add	rsp, 80
	pop	rbx
	pop	r12
	pop	r14
	pop	r15
	pop	rbp
	ret
	.cfi_endproc

	.globl	__ZN11packed_simd3v6499_$LT$impl$u20$core..fmt..LowerHex$u20$for$u20$packed_simd..Simd$LT$$u5b$i16$u3b$$u20$4$u5d$$GT$$GT$3fmt17he5221f2c7260d45dE
	.p2align	4, 0x90
__ZN11packed_simd3v6499_$LT$impl$u20$core..fmt..LowerHex$u20$for$u20$packed_simd..Simd$LT$$u5b$i16$u3b$$u20$4$u5d$$GT$$GT$3fmt17he5221f2c7260d45dE:
	.cfi_startproc
	push	rbp
	.cfi_def_cfa_offset 16
	.cfi_offset rbp, -16
	mov	rbp, rsp
	.cfi_def_cfa_register rbp
	push	r15
	push	r14
	push	r13
	push	r12
	push	rbx
	sub	rsp, 104
	.cfi_offset rbx, -56
	.cfi_offset r12, -48
	.cfi_offset r13, -40
	.cfi_offset r14, -32
	.cfi_offset r15, -24
	mov	rbx, rsi
	mov	r15, rdi
	lea	rax, [rip + __ZN44_$LT$$RF$T$u20$as$u20$core..fmt..Display$GT$3fmt17he911d2ba7c50bb69E]
	movq	xmm0, rax
	lea	rax, [rip + l___unnamed_17]
	movq	xmm1, rax
	punpcklqdq	xmm1, xmm0
	movdqa	xmmword ptr [rbp - 144], xmm1
	lea	rax, [rip + l___unnamed_2]
	mov	qword ptr [rbp - 88], rax
	mov	qword ptr [rbp - 80], 2
	mov	qword ptr [rbp - 72], 0
	lea	rax, [rbp - 144]
	mov	qword ptr [rbp - 56], rax
	mov	qword ptr [rbp - 48], 1
	lea	rsi, [rbp - 88]
	mov	rdi, rbx
	call	__ZN4core3fmt9Formatter9write_fmt17h3dc2bf45afed3069E
	mov	cl, 1
	test	al, al
	jne	LBB51_8
	movq	xmm0, qword ptr [r15]
	punpcklwd	xmm0, xmm0
	movdqa	xmmword ptr [rbp - 112], xmm0
	xor	r14d, r14d
	lea	r15, [rbp - 88]
	lea	r13, [rip + l___unnamed_3]
	cmp	r14, 4
	jne	LBB51_4
	jmp	LBB51_3
	.p2align	4, 0x90
LBB51_6:
	movdqa	xmm0, xmmword ptr [rbp - 112]
	movdqa	xmmword ptr [rbp - 128], xmm0
	lea	r12, [r14 + 1]
	and	r14d, 3
	mov	eax, dword ptr [rbp + 4*r14 - 128]
	mov	word ptr [rbp - 88], ax
	mov	rdi, r15
	mov	rsi, rbx
	call	__ZN4core3fmt3num53_$LT$impl$u20$core..fmt..LowerHex$u20$for$u20$i16$GT$3fmt17h3f851141fadcf5dbE
	mov	r14, r12
	test	al, al
	jne	LBB51_7
	cmp	r14, 4
	je	LBB51_3
LBB51_4:
	test	r14, r14
	je	LBB51_6
	mov	qword ptr [rbp - 88], r13
	mov	qword ptr [rbp - 80], 1
	mov	qword ptr [rbp - 72], 0
	lea	rax, [rip + l___unnamed_4]
	mov	qword ptr [rbp - 56], rax
	mov	qword ptr [rbp - 48], 0
	mov	rdi, rbx
	mov	rsi, r15
	call	__ZN4core3fmt9Formatter9write_fmt17h3dc2bf45afed3069E
	test	al, al
	je	LBB51_6
LBB51_7:
	mov	cl, 1
	jmp	LBB51_8
LBB51_3:
	lea	rax, [rip + l___unnamed_5]
	mov	qword ptr [rbp - 88], rax
	mov	qword ptr [rbp - 80], 1
	mov	qword ptr [rbp - 72], 0
	lea	rax, [rip + l___unnamed_4]
	mov	qword ptr [rbp - 56], rax
	mov	qword ptr [rbp - 48], 0
	lea	rsi, [rbp - 88]
	mov	rdi, rbx
	call	__ZN4core3fmt9Formatter9write_fmt17h3dc2bf45afed3069E
	mov	ecx, eax
LBB51_8:
	mov	eax, ecx
	add	rsp, 104
	pop	rbx
	pop	r12
	pop	r13
	pop	r14
	pop	r15
	pop	rbp
	ret
	.cfi_endproc

	.globl	__ZN11packed_simd3v6499_$LT$impl$u20$core..fmt..UpperHex$u20$for$u20$packed_simd..Simd$LT$$u5b$i16$u3b$$u20$4$u5d$$GT$$GT$3fmt17h7bcabf9a02fd2a00E
	.p2align	4, 0x90
__ZN11packed_simd3v6499_$LT$impl$u20$core..fmt..UpperHex$u20$for$u20$packed_simd..Simd$LT$$u5b$i16$u3b$$u20$4$u5d$$GT$$GT$3fmt17h7bcabf9a02fd2a00E:
	.cfi_startproc
	push	rbp
	.cfi_def_cfa_offset 16
	.cfi_offset rbp, -16
	mov	rbp, rsp
	.cfi_def_cfa_register rbp
	push	r15
	push	r14
	push	r13
	push	r12
	push	rbx
	sub	rsp, 104
	.cfi_offset rbx, -56
	.cfi_offset r12, -48
	.cfi_offset r13, -40
	.cfi_offset r14, -32
	.cfi_offset r15, -24
	mov	rbx, rsi
	mov	r15, rdi
	lea	rax, [rip + __ZN44_$LT$$RF$T$u20$as$u20$core..fmt..Display$GT$3fmt17he911d2ba7c50bb69E]
	movq	xmm0, rax
	lea	rax, [rip + l___unnamed_17]
	movq	xmm1, rax
	punpcklqdq	xmm1, xmm0
	movdqa	xmmword ptr [rbp - 144], xmm1
	lea	rax, [rip + l___unnamed_2]
	mov	qword ptr [rbp - 88], rax
	mov	qword ptr [rbp - 80], 2
	mov	qword ptr [rbp - 72], 0
	lea	rax, [rbp - 144]
	mov	qword ptr [rbp - 56], rax
	mov	qword ptr [rbp - 48], 1
	lea	rsi, [rbp - 88]
	mov	rdi, rbx
	call	__ZN4core3fmt9Formatter9write_fmt17h3dc2bf45afed3069E
	mov	cl, 1
	test	al, al
	jne	LBB52_8
	movq	xmm0, qword ptr [r15]
	punpcklwd	xmm0, xmm0
	movdqa	xmmword ptr [rbp - 112], xmm0
	xor	r14d, r14d
	lea	r15, [rbp - 88]
	lea	r13, [rip + l___unnamed_3]
	cmp	r14, 4
	jne	LBB52_4
	jmp	LBB52_3
	.p2align	4, 0x90
LBB52_6:
	movdqa	xmm0, xmmword ptr [rbp - 112]
	movdqa	xmmword ptr [rbp - 128], xmm0
	lea	r12, [r14 + 1]
	and	r14d, 3
	mov	eax, dword ptr [rbp + 4*r14 - 128]
	mov	word ptr [rbp - 88], ax
	mov	rdi, r15
	mov	rsi, rbx
	call	__ZN4core3fmt3num53_$LT$impl$u20$core..fmt..UpperHex$u20$for$u20$i16$GT$3fmt17h68fce712c402f58aE
	mov	r14, r12
	test	al, al
	jne	LBB52_7
	cmp	r14, 4
	je	LBB52_3
LBB52_4:
	test	r14, r14
	je	LBB52_6
	mov	qword ptr [rbp - 88], r13
	mov	qword ptr [rbp - 80], 1
	mov	qword ptr [rbp - 72], 0
	lea	rax, [rip + l___unnamed_4]
	mov	qword ptr [rbp - 56], rax
	mov	qword ptr [rbp - 48], 0
	mov	rdi, rbx
	mov	rsi, r15
	call	__ZN4core3fmt9Formatter9write_fmt17h3dc2bf45afed3069E
	test	al, al
	je	LBB52_6
LBB52_7:
	mov	cl, 1
	jmp	LBB52_8
LBB52_3:
	lea	rax, [rip + l___unnamed_5]
	mov	qword ptr [rbp - 88], rax
	mov	qword ptr [rbp - 80], 1
	mov	qword ptr [rbp - 72], 0
	lea	rax, [rip + l___unnamed_4]
	mov	qword ptr [rbp - 56], rax
	mov	qword ptr [rbp - 48], 0
	lea	rsi, [rbp - 88]
	mov	rdi, rbx
	call	__ZN4core3fmt9Formatter9write_fmt17h3dc2bf45afed3069E
	mov	ecx, eax
LBB52_8:
	mov	eax, ecx
	add	rsp, 104
	pop	rbx
	pop	r12
	pop	r13
	pop	r14
	pop	r15
	pop	rbp
	ret
	.cfi_endproc

	.globl	__ZN11packed_simd3v6496_$LT$impl$u20$core..fmt..Octal$u20$for$u20$packed_simd..Simd$LT$$u5b$i16$u3b$$u20$4$u5d$$GT$$GT$3fmt17hba7e338c87b268cbE
	.p2align	4, 0x90
__ZN11packed_simd3v6496_$LT$impl$u20$core..fmt..Octal$u20$for$u20$packed_simd..Simd$LT$$u5b$i16$u3b$$u20$4$u5d$$GT$$GT$3fmt17hba7e338c87b268cbE:
	.cfi_startproc
	push	rbp
	.cfi_def_cfa_offset 16
	.cfi_offset rbp, -16
	mov	rbp, rsp
	.cfi_def_cfa_register rbp
	push	r15
	push	r14
	push	r13
	push	r12
	push	rbx
	sub	rsp, 104
	.cfi_offset rbx, -56
	.cfi_offset r12, -48
	.cfi_offset r13, -40
	.cfi_offset r14, -32
	.cfi_offset r15, -24
	mov	rbx, rsi
	mov	r15, rdi
	lea	rax, [rip + __ZN44_$LT$$RF$T$u20$as$u20$core..fmt..Display$GT$3fmt17he911d2ba7c50bb69E]
	movq	xmm0, rax
	lea	rax, [rip + l___unnamed_17]
	movq	xmm1, rax
	punpcklqdq	xmm1, xmm0
	movdqa	xmmword ptr [rbp - 144], xmm1
	lea	rax, [rip + l___unnamed_2]
	mov	qword ptr [rbp - 88], rax
	mov	qword ptr [rbp - 80], 2
	mov	qword ptr [rbp - 72], 0
	lea	rax, [rbp - 144]
	mov	qword ptr [rbp - 56], rax
	mov	qword ptr [rbp - 48], 1
	lea	rsi, [rbp - 88]
	mov	rdi, rbx
	call	__ZN4core3fmt9Formatter9write_fmt17h3dc2bf45afed3069E
	mov	cl, 1
	test	al, al
	jne	LBB53_8
	movq	xmm0, qword ptr [r15]
	punpcklwd	xmm0, xmm0
	movdqa	xmmword ptr [rbp - 112], xmm0
	xor	r14d, r14d
	lea	r15, [rbp - 88]
	lea	r13, [rip + l___unnamed_3]
	cmp	r14, 4
	jne	LBB53_4
	jmp	LBB53_3
	.p2align	4, 0x90
LBB53_6:
	movdqa	xmm0, xmmword ptr [rbp - 112]
	movdqa	xmmword ptr [rbp - 128], xmm0
	lea	r12, [r14 + 1]
	and	r14d, 3
	mov	eax, dword ptr [rbp + 4*r14 - 128]
	mov	word ptr [rbp - 88], ax
	mov	rdi, r15
	mov	rsi, rbx
	call	__ZN4core3fmt3num50_$LT$impl$u20$core..fmt..Octal$u20$for$u20$i16$GT$3fmt17h1b3cb6f95e755604E
	mov	r14, r12
	test	al, al
	jne	LBB53_7
	cmp	r14, 4
	je	LBB53_3
LBB53_4:
	test	r14, r14
	je	LBB53_6
	mov	qword ptr [rbp - 88], r13
	mov	qword ptr [rbp - 80], 1
	mov	qword ptr [rbp - 72], 0
	lea	rax, [rip + l___unnamed_4]
	mov	qword ptr [rbp - 56], rax
	mov	qword ptr [rbp - 48], 0
	mov	rdi, rbx
	mov	rsi, r15
	call	__ZN4core3fmt9Formatter9write_fmt17h3dc2bf45afed3069E
	test	al, al
	je	LBB53_6
LBB53_7:
	mov	cl, 1
	jmp	LBB53_8
LBB53_3:
	lea	rax, [rip + l___unnamed_5]
	mov	qword ptr [rbp - 88], rax
	mov	qword ptr [rbp - 80], 1
	mov	qword ptr [rbp - 72], 0
	lea	rax, [rip + l___unnamed_4]
	mov	qword ptr [rbp - 56], rax
	mov	qword ptr [rbp - 48], 0
	lea	rsi, [rbp - 88]
	mov	rdi, rbx
	call	__ZN4core3fmt9Formatter9write_fmt17h3dc2bf45afed3069E
	mov	ecx, eax
LBB53_8:
	mov	eax, ecx
	add	rsp, 104
	pop	rbx
	pop	r12
	pop	r13
	pop	r14
	pop	r15
	pop	rbp
	ret
	.cfi_endproc

	.globl	__ZN11packed_simd3v6497_$LT$impl$u20$core..fmt..Binary$u20$for$u20$packed_simd..Simd$LT$$u5b$i16$u3b$$u20$4$u5d$$GT$$GT$3fmt17hfb9fadc834cc2dabE
	.p2align	4, 0x90
__ZN11packed_simd3v6497_$LT$impl$u20$core..fmt..Binary$u20$for$u20$packed_simd..Simd$LT$$u5b$i16$u3b$$u20$4$u5d$$GT$$GT$3fmt17hfb9fadc834cc2dabE:
	.cfi_startproc
	push	rbp
	.cfi_def_cfa_offset 16
	.cfi_offset rbp, -16
	mov	rbp, rsp
	.cfi_def_cfa_register rbp
	push	r15
	push	r14
	push	r13
	push	r12
	push	rbx
	sub	rsp, 104
	.cfi_offset rbx, -56
	.cfi_offset r12, -48
	.cfi_offset r13, -40
	.cfi_offset r14, -32
	.cfi_offset r15, -24
	mov	rbx, rsi
	mov	r15, rdi
	lea	rax, [rip + __ZN44_$LT$$RF$T$u20$as$u20$core..fmt..Display$GT$3fmt17he911d2ba7c50bb69E]
	movq	xmm0, rax
	lea	rax, [rip + l___unnamed_17]
	movq	xmm1, rax
	punpcklqdq	xmm1, xmm0
	movdqa	xmmword ptr [rbp - 144], xmm1
	lea	rax, [rip + l___unnamed_2]
	mov	qword ptr [rbp - 88], rax
	mov	qword ptr [rbp - 80], 2
	mov	qword ptr [rbp - 72], 0
	lea	rax, [rbp - 144]
	mov	qword ptr [rbp - 56], rax
	mov	qword ptr [rbp - 48], 1
	lea	rsi, [rbp - 88]
	mov	rdi, rbx
	call	__ZN4core3fmt9Formatter9write_fmt17h3dc2bf45afed3069E
	mov	cl, 1
	test	al, al
	jne	LBB54_8
	movq	xmm0, qword ptr [r15]
	punpcklwd	xmm0, xmm0
	movdqa	xmmword ptr [rbp - 112], xmm0
	xor	r14d, r14d
	lea	r15, [rbp - 88]
	lea	r13, [rip + l___unnamed_3]
	cmp	r14, 4
	jne	LBB54_4
	jmp	LBB54_3
	.p2align	4, 0x90
LBB54_6:
	movdqa	xmm0, xmmword ptr [rbp - 112]
	movdqa	xmmword ptr [rbp - 128], xmm0
	lea	r12, [r14 + 1]
	and	r14d, 3
	mov	eax, dword ptr [rbp + 4*r14 - 128]
	mov	word ptr [rbp - 88], ax
	mov	rdi, r15
	mov	rsi, rbx
	call	__ZN4core3fmt3num51_$LT$impl$u20$core..fmt..Binary$u20$for$u20$i16$GT$3fmt17hbda9d5cd00305b44E
	mov	r14, r12
	test	al, al
	jne	LBB54_7
	cmp	r14, 4
	je	LBB54_3
LBB54_4:
	test	r14, r14
	je	LBB54_6
	mov	qword ptr [rbp - 88], r13
	mov	qword ptr [rbp - 80], 1
	mov	qword ptr [rbp - 72], 0
	lea	rax, [rip + l___unnamed_4]
	mov	qword ptr [rbp - 56], rax
	mov	qword ptr [rbp - 48], 0
	mov	rdi, rbx
	mov	rsi, r15
	call	__ZN4core3fmt9Formatter9write_fmt17h3dc2bf45afed3069E
	test	al, al
	je	LBB54_6
LBB54_7:
	mov	cl, 1
	jmp	LBB54_8
LBB54_3:
	lea	rax, [rip + l___unnamed_5]
	mov	qword ptr [rbp - 88], rax
	mov	qword ptr [rbp - 80], 1
	mov	qword ptr [rbp - 72], 0
	lea	rax, [rip + l___unnamed_4]
	mov	qword ptr [rbp - 56], rax
	mov	qword ptr [rbp - 48], 0
	lea	rsi, [rbp - 88]
	mov	rdi, rbx
	call	__ZN4core3fmt9Formatter9write_fmt17h3dc2bf45afed3069E
	mov	ecx, eax
LBB54_8:
	mov	eax, ecx
	add	rsp, 104
	pop	rbx
	pop	r12
	pop	r13
	pop	r14
	pop	r15
	pop	rbp
	ret
	.cfi_endproc

	.globl	__ZN11packed_simd3v6496_$LT$impl$u20$core..fmt..Debug$u20$for$u20$packed_simd..Simd$LT$$u5b$u16$u3b$$u20$4$u5d$$GT$$GT$3fmt17h60cbea31a709a0c9E
	.p2align	4, 0x90
__ZN11packed_simd3v6496_$LT$impl$u20$core..fmt..Debug$u20$for$u20$packed_simd..Simd$LT$$u5b$u16$u3b$$u20$4$u5d$$GT$$GT$3fmt17h60cbea31a709a0c9E:
	.cfi_startproc
	push	rbp
	.cfi_def_cfa_offset 16
	.cfi_offset rbp, -16
	mov	rbp, rsp
	.cfi_def_cfa_register rbp
	push	r15
	push	r14
	push	r12
	push	rbx
	sub	rsp, 80
	.cfi_offset rbx, -48
	.cfi_offset r12, -40
	.cfi_offset r14, -32
	.cfi_offset r15, -24
	mov	r15, rsi
	mov	rbx, rdi
	lea	rax, [rip + __ZN44_$LT$$RF$T$u20$as$u20$core..fmt..Display$GT$3fmt17he911d2ba7c50bb69E]
	movq	xmm0, rax
	lea	rax, [rip + l___unnamed_18]
	movq	xmm1, rax
	punpcklqdq	xmm1, xmm0
	movdqa	xmmword ptr [rbp - 112], xmm1
	lea	rax, [rip + l___unnamed_2]
	mov	qword ptr [rbp - 80], rax
	mov	qword ptr [rbp - 72], 2
	mov	qword ptr [rbp - 64], 0
	lea	rax, [rbp - 112]
	mov	qword ptr [rbp - 48], rax
	mov	qword ptr [rbp - 40], 1
	lea	rsi, [rbp - 80]
	mov	rdi, r15
	call	__ZN4core3fmt9Formatter9write_fmt17h3dc2bf45afed3069E
	mov	r14b, 1
	test	al, al
	jne	LBB55_22
	movq	xmm0, qword ptr [rbx]
	movdqa	xmmword ptr [rbp - 96], xmm0
	pextrw	eax, xmm0, 0
	mov	word ptr [rbp - 80], ax
	mov	rdi, r15
	call	__ZN4core3fmt9Formatter15debug_lower_hex17h8530fbaeba13f4d9E
	test	al, al
	je	LBB55_2
	lea	rdi, [rbp - 80]
	mov	rsi, r15
	call	__ZN4core3fmt3num53_$LT$impl$u20$core..fmt..LowerHex$u20$for$u20$u16$GT$3fmt17h4a3e59891cc09bc8E
	test	al, al
	je	LBB55_6
	jmp	LBB55_22
LBB55_2:
	mov	rdi, r15
	call	__ZN4core3fmt9Formatter15debug_upper_hex17hf8fda15ec43a1e68E
	lea	rdi, [rbp - 80]
	mov	rsi, r15
	test	al, al
	je	LBB55_4
	call	__ZN4core3fmt3num53_$LT$impl$u20$core..fmt..UpperHex$u20$for$u20$u16$GT$3fmt17h80b29e32979d60cdE
	test	al, al
	je	LBB55_6
	jmp	LBB55_22
LBB55_4:
	call	__ZN4core3fmt3num3imp52_$LT$impl$u20$core..fmt..Display$u20$for$u20$u16$GT$3fmt17h7d9582ae70d300cbE
	test	al, al
	jne	LBB55_22
LBB55_6:
	lea	rbx, [rip + l___unnamed_3]
	mov	qword ptr [rbp - 80], rbx
	mov	qword ptr [rbp - 72], 1
	mov	qword ptr [rbp - 64], 0
	lea	r12, [rip + l___unnamed_4]
	mov	qword ptr [rbp - 48], r12
	mov	qword ptr [rbp - 40], 0
	lea	rsi, [rbp - 80]
	mov	rdi, r15
	call	__ZN4core3fmt9Formatter9write_fmt17h3dc2bf45afed3069E
	test	al, al
	jne	LBB55_22
	movdqa	xmm0, xmmword ptr [rbp - 96]
	punpcklwd	xmm0, xmm0
	movdqa	xmmword ptr [rbp - 96], xmm0
	pextrw	eax, xmm0, 2
	mov	word ptr [rbp - 80], ax
	mov	rdi, r15
	call	__ZN4core3fmt9Formatter15debug_lower_hex17h8530fbaeba13f4d9E
	test	al, al
	je	LBB55_8
	lea	rdi, [rbp - 80]
	mov	rsi, r15
	call	__ZN4core3fmt3num53_$LT$impl$u20$core..fmt..LowerHex$u20$for$u20$u16$GT$3fmt17h4a3e59891cc09bc8E
	test	al, al
	je	LBB55_11
	jmp	LBB55_22
LBB55_8:
	mov	rdi, r15
	call	__ZN4core3fmt9Formatter15debug_upper_hex17hf8fda15ec43a1e68E
	lea	rdi, [rbp - 80]
	mov	rsi, r15
	test	al, al
	je	LBB55_9
	call	__ZN4core3fmt3num53_$LT$impl$u20$core..fmt..UpperHex$u20$for$u20$u16$GT$3fmt17h80b29e32979d60cdE
	test	al, al
	je	LBB55_11
	jmp	LBB55_22
LBB55_9:
	call	__ZN4core3fmt3num3imp52_$LT$impl$u20$core..fmt..Display$u20$for$u20$u16$GT$3fmt17h7d9582ae70d300cbE
	test	al, al
	jne	LBB55_22
LBB55_11:
	mov	qword ptr [rbp - 80], rbx
	mov	qword ptr [rbp - 72], 1
	mov	qword ptr [rbp - 64], 0
	mov	qword ptr [rbp - 48], r12
	mov	qword ptr [rbp - 40], 0
	lea	rsi, [rbp - 80]
	mov	rdi, r15
	call	__ZN4core3fmt9Formatter9write_fmt17h3dc2bf45afed3069E
	test	al, al
	jne	LBB55_22
	movdqa	xmm0, xmmword ptr [rbp - 96]
	pextrw	eax, xmm0, 4
	mov	word ptr [rbp - 80], ax
	mov	rdi, r15
	call	__ZN4core3fmt9Formatter15debug_lower_hex17h8530fbaeba13f4d9E
	test	al, al
	je	LBB55_13
	lea	rdi, [rbp - 80]
	mov	rsi, r15
	call	__ZN4core3fmt3num53_$LT$impl$u20$core..fmt..LowerHex$u20$for$u20$u16$GT$3fmt17h4a3e59891cc09bc8E
	test	al, al
	je	LBB55_16
	jmp	LBB55_22
LBB55_13:
	mov	rdi, r15
	call	__ZN4core3fmt9Formatter15debug_upper_hex17hf8fda15ec43a1e68E
	lea	rdi, [rbp - 80]
	mov	rsi, r15
	test	al, al
	je	LBB55_14
	call	__ZN4core3fmt3num53_$LT$impl$u20$core..fmt..UpperHex$u20$for$u20$u16$GT$3fmt17h80b29e32979d60cdE
	test	al, al
	je	LBB55_16
	jmp	LBB55_22
LBB55_14:
	call	__ZN4core3fmt3num3imp52_$LT$impl$u20$core..fmt..Display$u20$for$u20$u16$GT$3fmt17h7d9582ae70d300cbE
	test	al, al
	jne	LBB55_22
LBB55_16:
	mov	qword ptr [rbp - 80], rbx
	mov	qword ptr [rbp - 72], 1
	mov	qword ptr [rbp - 64], 0
	mov	qword ptr [rbp - 48], r12
	mov	qword ptr [rbp - 40], 0
	lea	rsi, [rbp - 80]
	mov	rdi, r15
	call	__ZN4core3fmt9Formatter9write_fmt17h3dc2bf45afed3069E
	test	al, al
	jne	LBB55_22
	movdqa	xmm0, xmmword ptr [rbp - 96]
	pextrw	eax, xmm0, 6
	mov	word ptr [rbp - 80], ax
	mov	rdi, r15
	call	__ZN4core3fmt9Formatter15debug_lower_hex17h8530fbaeba13f4d9E
	test	al, al
	je	LBB55_18
	lea	rdi, [rbp - 80]
	mov	rsi, r15
	call	__ZN4core3fmt3num53_$LT$impl$u20$core..fmt..LowerHex$u20$for$u20$u16$GT$3fmt17h4a3e59891cc09bc8E
	test	al, al
	je	LBB55_21
	jmp	LBB55_22
LBB55_18:
	mov	rdi, r15
	call	__ZN4core3fmt9Formatter15debug_upper_hex17hf8fda15ec43a1e68E
	lea	rdi, [rbp - 80]
	mov	rsi, r15
	test	al, al
	je	LBB55_19
	call	__ZN4core3fmt3num53_$LT$impl$u20$core..fmt..UpperHex$u20$for$u20$u16$GT$3fmt17h80b29e32979d60cdE
	test	al, al
	je	LBB55_21
	jmp	LBB55_22
LBB55_19:
	call	__ZN4core3fmt3num3imp52_$LT$impl$u20$core..fmt..Display$u20$for$u20$u16$GT$3fmt17h7d9582ae70d300cbE
	test	al, al
	jne	LBB55_22
LBB55_21:
	lea	rax, [rip + l___unnamed_5]
	mov	qword ptr [rbp - 80], rax
	mov	qword ptr [rbp - 72], 1
	mov	qword ptr [rbp - 64], 0
	mov	qword ptr [rbp - 48], r12
	mov	qword ptr [rbp - 40], 0
	lea	rsi, [rbp - 80]
	mov	rdi, r15
	call	__ZN4core3fmt9Formatter9write_fmt17h3dc2bf45afed3069E
	mov	r14d, eax
LBB55_22:
	mov	eax, r14d
	add	rsp, 80
	pop	rbx
	pop	r12
	pop	r14
	pop	r15
	pop	rbp
	ret
	.cfi_endproc

	.globl	__ZN11packed_simd3v6499_$LT$impl$u20$core..fmt..LowerHex$u20$for$u20$packed_simd..Simd$LT$$u5b$u16$u3b$$u20$4$u5d$$GT$$GT$3fmt17h9112c2d9126b1412E
	.p2align	4, 0x90
__ZN11packed_simd3v6499_$LT$impl$u20$core..fmt..LowerHex$u20$for$u20$packed_simd..Simd$LT$$u5b$u16$u3b$$u20$4$u5d$$GT$$GT$3fmt17h9112c2d9126b1412E:
	.cfi_startproc
	push	rbp
	.cfi_def_cfa_offset 16
	.cfi_offset rbp, -16
	mov	rbp, rsp
	.cfi_def_cfa_register rbp
	push	r15
	push	r14
	push	r13
	push	r12
	push	rbx
	sub	rsp, 104
	.cfi_offset rbx, -56
	.cfi_offset r12, -48
	.cfi_offset r13, -40
	.cfi_offset r14, -32
	.cfi_offset r15, -24
	mov	rbx, rsi
	mov	r15, rdi
	lea	rax, [rip + __ZN44_$LT$$RF$T$u20$as$u20$core..fmt..Display$GT$3fmt17he911d2ba7c50bb69E]
	movq	xmm0, rax
	lea	rax, [rip + l___unnamed_18]
	movq	xmm1, rax
	punpcklqdq	xmm1, xmm0
	movdqa	xmmword ptr [rbp - 144], xmm1
	lea	rax, [rip + l___unnamed_2]
	mov	qword ptr [rbp - 88], rax
	mov	qword ptr [rbp - 80], 2
	mov	qword ptr [rbp - 72], 0
	lea	rax, [rbp - 144]
	mov	qword ptr [rbp - 56], rax
	mov	qword ptr [rbp - 48], 1
	lea	rsi, [rbp - 88]
	mov	rdi, rbx
	call	__ZN4core3fmt9Formatter9write_fmt17h3dc2bf45afed3069E
	mov	cl, 1
	test	al, al
	jne	LBB56_8
	movq	xmm0, qword ptr [r15]
	punpcklwd	xmm0, xmm0
	movdqa	xmmword ptr [rbp - 112], xmm0
	xor	r14d, r14d
	lea	r15, [rbp - 88]
	lea	r13, [rip + l___unnamed_3]
	cmp	r14, 4
	jne	LBB56_4
	jmp	LBB56_3
	.p2align	4, 0x90
LBB56_6:
	movdqa	xmm0, xmmword ptr [rbp - 112]
	movdqa	xmmword ptr [rbp - 128], xmm0
	lea	r12, [r14 + 1]
	and	r14d, 3
	mov	eax, dword ptr [rbp + 4*r14 - 128]
	mov	word ptr [rbp - 88], ax
	mov	rdi, r15
	mov	rsi, rbx
	call	__ZN4core3fmt3num53_$LT$impl$u20$core..fmt..LowerHex$u20$for$u20$u16$GT$3fmt17h4a3e59891cc09bc8E
	mov	r14, r12
	test	al, al
	jne	LBB56_7
	cmp	r14, 4
	je	LBB56_3
LBB56_4:
	test	r14, r14
	je	LBB56_6
	mov	qword ptr [rbp - 88], r13
	mov	qword ptr [rbp - 80], 1
	mov	qword ptr [rbp - 72], 0
	lea	rax, [rip + l___unnamed_4]
	mov	qword ptr [rbp - 56], rax
	mov	qword ptr [rbp - 48], 0
	mov	rdi, rbx
	mov	rsi, r15
	call	__ZN4core3fmt9Formatter9write_fmt17h3dc2bf45afed3069E
	test	al, al
	je	LBB56_6
LBB56_7:
	mov	cl, 1
	jmp	LBB56_8
LBB56_3:
	lea	rax, [rip + l___unnamed_5]
	mov	qword ptr [rbp - 88], rax
	mov	qword ptr [rbp - 80], 1
	mov	qword ptr [rbp - 72], 0
	lea	rax, [rip + l___unnamed_4]
	mov	qword ptr [rbp - 56], rax
	mov	qword ptr [rbp - 48], 0
	lea	rsi, [rbp - 88]
	mov	rdi, rbx
	call	__ZN4core3fmt9Formatter9write_fmt17h3dc2bf45afed3069E
	mov	ecx, eax
LBB56_8:
	mov	eax, ecx
	add	rsp, 104
	pop	rbx
	pop	r12
	pop	r13
	pop	r14
	pop	r15
	pop	rbp
	ret
	.cfi_endproc

	.globl	__ZN11packed_simd3v6499_$LT$impl$u20$core..fmt..UpperHex$u20$for$u20$packed_simd..Simd$LT$$u5b$u16$u3b$$u20$4$u5d$$GT$$GT$3fmt17hd69eb2d8343cc9c8E
	.p2align	4, 0x90
__ZN11packed_simd3v6499_$LT$impl$u20$core..fmt..UpperHex$u20$for$u20$packed_simd..Simd$LT$$u5b$u16$u3b$$u20$4$u5d$$GT$$GT$3fmt17hd69eb2d8343cc9c8E:
	.cfi_startproc
	push	rbp
	.cfi_def_cfa_offset 16
	.cfi_offset rbp, -16
	mov	rbp, rsp
	.cfi_def_cfa_register rbp
	push	r15
	push	r14
	push	r13
	push	r12
	push	rbx
	sub	rsp, 104
	.cfi_offset rbx, -56
	.cfi_offset r12, -48
	.cfi_offset r13, -40
	.cfi_offset r14, -32
	.cfi_offset r15, -24
	mov	rbx, rsi
	mov	r15, rdi
	lea	rax, [rip + __ZN44_$LT$$RF$T$u20$as$u20$core..fmt..Display$GT$3fmt17he911d2ba7c50bb69E]
	movq	xmm0, rax
	lea	rax, [rip + l___unnamed_18]
	movq	xmm1, rax
	punpcklqdq	xmm1, xmm0
	movdqa	xmmword ptr [rbp - 144], xmm1
	lea	rax, [rip + l___unnamed_2]
	mov	qword ptr [rbp - 88], rax
	mov	qword ptr [rbp - 80], 2
	mov	qword ptr [rbp - 72], 0
	lea	rax, [rbp - 144]
	mov	qword ptr [rbp - 56], rax
	mov	qword ptr [rbp - 48], 1
	lea	rsi, [rbp - 88]
	mov	rdi, rbx
	call	__ZN4core3fmt9Formatter9write_fmt17h3dc2bf45afed3069E
	mov	cl, 1
	test	al, al
	jne	LBB57_8
	movq	xmm0, qword ptr [r15]
	punpcklwd	xmm0, xmm0
	movdqa	xmmword ptr [rbp - 112], xmm0
	xor	r14d, r14d
	lea	r15, [rbp - 88]
	lea	r13, [rip + l___unnamed_3]
	cmp	r14, 4
	jne	LBB57_4
	jmp	LBB57_3
	.p2align	4, 0x90
LBB57_6:
	movdqa	xmm0, xmmword ptr [rbp - 112]
	movdqa	xmmword ptr [rbp - 128], xmm0
	lea	r12, [r14 + 1]
	and	r14d, 3
	mov	eax, dword ptr [rbp + 4*r14 - 128]
	mov	word ptr [rbp - 88], ax
	mov	rdi, r15
	mov	rsi, rbx
	call	__ZN4core3fmt3num53_$LT$impl$u20$core..fmt..UpperHex$u20$for$u20$u16$GT$3fmt17h80b29e32979d60cdE
	mov	r14, r12
	test	al, al
	jne	LBB57_7
	cmp	r14, 4
	je	LBB57_3
LBB57_4:
	test	r14, r14
	je	LBB57_6
	mov	qword ptr [rbp - 88], r13
	mov	qword ptr [rbp - 80], 1
	mov	qword ptr [rbp - 72], 0
	lea	rax, [rip + l___unnamed_4]
	mov	qword ptr [rbp - 56], rax
	mov	qword ptr [rbp - 48], 0
	mov	rdi, rbx
	mov	rsi, r15
	call	__ZN4core3fmt9Formatter9write_fmt17h3dc2bf45afed3069E
	test	al, al
	je	LBB57_6
LBB57_7:
	mov	cl, 1
	jmp	LBB57_8
LBB57_3:
	lea	rax, [rip + l___unnamed_5]
	mov	qword ptr [rbp - 88], rax
	mov	qword ptr [rbp - 80], 1
	mov	qword ptr [rbp - 72], 0
	lea	rax, [rip + l___unnamed_4]
	mov	qword ptr [rbp - 56], rax
	mov	qword ptr [rbp - 48], 0
	lea	rsi, [rbp - 88]
	mov	rdi, rbx
	call	__ZN4core3fmt9Formatter9write_fmt17h3dc2bf45afed3069E
	mov	ecx, eax
LBB57_8:
	mov	eax, ecx
	add	rsp, 104
	pop	rbx
	pop	r12
	pop	r13
	pop	r14
	pop	r15
	pop	rbp
	ret
	.cfi_endproc

	.globl	__ZN11packed_simd3v6496_$LT$impl$u20$core..fmt..Octal$u20$for$u20$packed_simd..Simd$LT$$u5b$u16$u3b$$u20$4$u5d$$GT$$GT$3fmt17h6b3ce1ed20b425f3E
	.p2align	4, 0x90
__ZN11packed_simd3v6496_$LT$impl$u20$core..fmt..Octal$u20$for$u20$packed_simd..Simd$LT$$u5b$u16$u3b$$u20$4$u5d$$GT$$GT$3fmt17h6b3ce1ed20b425f3E:
	.cfi_startproc
	push	rbp
	.cfi_def_cfa_offset 16
	.cfi_offset rbp, -16
	mov	rbp, rsp
	.cfi_def_cfa_register rbp
	push	r15
	push	r14
	push	r13
	push	r12
	push	rbx
	sub	rsp, 104
	.cfi_offset rbx, -56
	.cfi_offset r12, -48
	.cfi_offset r13, -40
	.cfi_offset r14, -32
	.cfi_offset r15, -24
	mov	rbx, rsi
	mov	r15, rdi
	lea	rax, [rip + __ZN44_$LT$$RF$T$u20$as$u20$core..fmt..Display$GT$3fmt17he911d2ba7c50bb69E]
	movq	xmm0, rax
	lea	rax, [rip + l___unnamed_18]
	movq	xmm1, rax
	punpcklqdq	xmm1, xmm0
	movdqa	xmmword ptr [rbp - 144], xmm1
	lea	rax, [rip + l___unnamed_2]
	mov	qword ptr [rbp - 88], rax
	mov	qword ptr [rbp - 80], 2
	mov	qword ptr [rbp - 72], 0
	lea	rax, [rbp - 144]
	mov	qword ptr [rbp - 56], rax
	mov	qword ptr [rbp - 48], 1
	lea	rsi, [rbp - 88]
	mov	rdi, rbx
	call	__ZN4core3fmt9Formatter9write_fmt17h3dc2bf45afed3069E
	mov	cl, 1
	test	al, al
	jne	LBB58_8
	movq	xmm0, qword ptr [r15]
	punpcklwd	xmm0, xmm0
	movdqa	xmmword ptr [rbp - 112], xmm0
	xor	r14d, r14d
	lea	r15, [rbp - 88]
	lea	r13, [rip + l___unnamed_3]
	cmp	r14, 4
	jne	LBB58_4
	jmp	LBB58_3
	.p2align	4, 0x90
LBB58_6:
	movdqa	xmm0, xmmword ptr [rbp - 112]
	movdqa	xmmword ptr [rbp - 128], xmm0
	lea	r12, [r14 + 1]
	and	r14d, 3
	mov	eax, dword ptr [rbp + 4*r14 - 128]
	mov	word ptr [rbp - 88], ax
	mov	rdi, r15
	mov	rsi, rbx
	call	__ZN4core3fmt3num50_$LT$impl$u20$core..fmt..Octal$u20$for$u20$u16$GT$3fmt17h2ec0c79ba216a7ebE
	mov	r14, r12
	test	al, al
	jne	LBB58_7
	cmp	r14, 4
	je	LBB58_3
LBB58_4:
	test	r14, r14
	je	LBB58_6
	mov	qword ptr [rbp - 88], r13
	mov	qword ptr [rbp - 80], 1
	mov	qword ptr [rbp - 72], 0
	lea	rax, [rip + l___unnamed_4]
	mov	qword ptr [rbp - 56], rax
	mov	qword ptr [rbp - 48], 0
	mov	rdi, rbx
	mov	rsi, r15
	call	__ZN4core3fmt9Formatter9write_fmt17h3dc2bf45afed3069E
	test	al, al
	je	LBB58_6
LBB58_7:
	mov	cl, 1
	jmp	LBB58_8
LBB58_3:
	lea	rax, [rip + l___unnamed_5]
	mov	qword ptr [rbp - 88], rax
	mov	qword ptr [rbp - 80], 1
	mov	qword ptr [rbp - 72], 0
	lea	rax, [rip + l___unnamed_4]
	mov	qword ptr [rbp - 56], rax
	mov	qword ptr [rbp - 48], 0
	lea	rsi, [rbp - 88]
	mov	rdi, rbx
	call	__ZN4core3fmt9Formatter9write_fmt17h3dc2bf45afed3069E
	mov	ecx, eax
LBB58_8:
	mov	eax, ecx
	add	rsp, 104
	pop	rbx
	pop	r12
	pop	r13
	pop	r14
	pop	r15
	pop	rbp
	ret
	.cfi_endproc

	.globl	__ZN11packed_simd3v6497_$LT$impl$u20$core..fmt..Binary$u20$for$u20$packed_simd..Simd$LT$$u5b$u16$u3b$$u20$4$u5d$$GT$$GT$3fmt17h3d631c972215a862E
	.p2align	4, 0x90
__ZN11packed_simd3v6497_$LT$impl$u20$core..fmt..Binary$u20$for$u20$packed_simd..Simd$LT$$u5b$u16$u3b$$u20$4$u5d$$GT$$GT$3fmt17h3d631c972215a862E:
	.cfi_startproc
	push	rbp
	.cfi_def_cfa_offset 16
	.cfi_offset rbp, -16
	mov	rbp, rsp
	.cfi_def_cfa_register rbp
	push	r15
	push	r14
	push	r13
	push	r12
	push	rbx
	sub	rsp, 104
	.cfi_offset rbx, -56
	.cfi_offset r12, -48
	.cfi_offset r13, -40
	.cfi_offset r14, -32
	.cfi_offset r15, -24
	mov	rbx, rsi
	mov	r15, rdi
	lea	rax, [rip + __ZN44_$LT$$RF$T$u20$as$u20$core..fmt..Display$GT$3fmt17he911d2ba7c50bb69E]
	movq	xmm0, rax
	lea	rax, [rip + l___unnamed_18]
	movq	xmm1, rax
	punpcklqdq	xmm1, xmm0
	movdqa	xmmword ptr [rbp - 144], xmm1
	lea	rax, [rip + l___unnamed_2]
	mov	qword ptr [rbp - 88], rax
	mov	qword ptr [rbp - 80], 2
	mov	qword ptr [rbp - 72], 0
	lea	rax, [rbp - 144]
	mov	qword ptr [rbp - 56], rax
	mov	qword ptr [rbp - 48], 1
	lea	rsi, [rbp - 88]
	mov	rdi, rbx
	call	__ZN4core3fmt9Formatter9write_fmt17h3dc2bf45afed3069E
	mov	cl, 1
	test	al, al
	jne	LBB59_8
	movq	xmm0, qword ptr [r15]
	punpcklwd	xmm0, xmm0
	movdqa	xmmword ptr [rbp - 112], xmm0
	xor	r14d, r14d
	lea	r15, [rbp - 88]
	lea	r13, [rip + l___unnamed_3]
	cmp	r14, 4
	jne	LBB59_4
	jmp	LBB59_3
	.p2align	4, 0x90
LBB59_6:
	movdqa	xmm0, xmmword ptr [rbp - 112]
	movdqa	xmmword ptr [rbp - 128], xmm0
	lea	r12, [r14 + 1]
	and	r14d, 3
	mov	eax, dword ptr [rbp + 4*r14 - 128]
	mov	word ptr [rbp - 88], ax
	mov	rdi, r15
	mov	rsi, rbx
	call	__ZN4core3fmt3num51_$LT$impl$u20$core..fmt..Binary$u20$for$u20$u16$GT$3fmt17hc8b19066ea81d36bE
	mov	r14, r12
	test	al, al
	jne	LBB59_7
	cmp	r14, 4
	je	LBB59_3
LBB59_4:
	test	r14, r14
	je	LBB59_6
	mov	qword ptr [rbp - 88], r13
	mov	qword ptr [rbp - 80], 1
	mov	qword ptr [rbp - 72], 0
	lea	rax, [rip + l___unnamed_4]
	mov	qword ptr [rbp - 56], rax
	mov	qword ptr [rbp - 48], 0
	mov	rdi, rbx
	mov	rsi, r15
	call	__ZN4core3fmt9Formatter9write_fmt17h3dc2bf45afed3069E
	test	al, al
	je	LBB59_6
LBB59_7:
	mov	cl, 1
	jmp	LBB59_8
LBB59_3:
	lea	rax, [rip + l___unnamed_5]
	mov	qword ptr [rbp - 88], rax
	mov	qword ptr [rbp - 80], 1
	mov	qword ptr [rbp - 72], 0
	lea	rax, [rip + l___unnamed_4]
	mov	qword ptr [rbp - 56], rax
	mov	qword ptr [rbp - 48], 0
	lea	rsi, [rbp - 88]
	mov	rdi, rbx
	call	__ZN4core3fmt9Formatter9write_fmt17h3dc2bf45afed3069E
	mov	ecx, eax
LBB59_8:
	mov	eax, ecx
	add	rsp, 104
	pop	rbx
	pop	r12
	pop	r13
	pop	r14
	pop	r15
	pop	rbp
	ret
	.cfi_endproc

	.globl	__ZN11packed_simd3v64116_$LT$impl$u20$core..fmt..Debug$u20$for$u20$packed_simd..Simd$LT$$u5b$packed_simd..masks..m16$u3b$$u20$4$u5d$$GT$$GT$3fmt17h1c404c2d20f96f68E
	.p2align	4, 0x90
__ZN11packed_simd3v64116_$LT$impl$u20$core..fmt..Debug$u20$for$u20$packed_simd..Simd$LT$$u5b$packed_simd..masks..m16$u3b$$u20$4$u5d$$GT$$GT$3fmt17h1c404c2d20f96f68E:
	.cfi_startproc
	push	rbp
	.cfi_def_cfa_offset 16
	.cfi_offset rbp, -16
	mov	rbp, rsp
	.cfi_def_cfa_register rbp
	push	r15
	push	r14
	push	r13
	push	r12
	push	rbx
	sub	rsp, 104
	.cfi_offset rbx, -56
	.cfi_offset r12, -48
	.cfi_offset r13, -40
	.cfi_offset r14, -32
	.cfi_offset r15, -24
	mov	rbx, rsi
	mov	r15, rdi
	lea	rax, [rip + __ZN44_$LT$$RF$T$u20$as$u20$core..fmt..Display$GT$3fmt17he911d2ba7c50bb69E]
	movq	xmm0, rax
	lea	rax, [rip + l___unnamed_19]
	movq	xmm1, rax
	punpcklqdq	xmm1, xmm0
	movdqa	xmmword ptr [rbp - 144], xmm1
	lea	rax, [rip + l___unnamed_2]
	mov	qword ptr [rbp - 88], rax
	mov	qword ptr [rbp - 80], 2
	mov	qword ptr [rbp - 72], 0
	lea	rax, [rbp - 144]
	mov	qword ptr [rbp - 56], rax
	mov	qword ptr [rbp - 48], 1
	lea	rsi, [rbp - 88]
	mov	rdi, rbx
	call	__ZN4core3fmt9Formatter9write_fmt17h3dc2bf45afed3069E
	mov	cl, 1
	test	al, al
	jne	LBB60_8
	movq	xmm0, qword ptr [r15]
	punpcklwd	xmm0, xmm0
	movdqa	xmmword ptr [rbp - 112], xmm0
	xor	r14d, r14d
	lea	r15, [rbp - 88]
	lea	r13, [rip + l___unnamed_3]
	cmp	r14, 4
	jne	LBB60_4
	jmp	LBB60_3
	.p2align	4, 0x90
LBB60_6:
	movdqa	xmm0, xmmword ptr [rbp - 112]
	movdqa	xmmword ptr [rbp - 128], xmm0
	lea	r12, [r14 + 1]
	and	r14d, 3
	mov	eax, dword ptr [rbp + 4*r14 - 128]
	test	ax, ax
	setne	byte ptr [rbp - 88]
	mov	rdi, r15
	mov	rsi, rbx
	call	__ZN43_$LT$bool$u20$as$u20$core..fmt..Display$GT$3fmt17hf36463fa8b480ab4E
	mov	r14, r12
	test	al, al
	jne	LBB60_7
	cmp	r14, 4
	je	LBB60_3
LBB60_4:
	test	r14, r14
	je	LBB60_6
	mov	qword ptr [rbp - 88], r13
	mov	qword ptr [rbp - 80], 1
	mov	qword ptr [rbp - 72], 0
	lea	rax, [rip + l___unnamed_4]
	mov	qword ptr [rbp - 56], rax
	mov	qword ptr [rbp - 48], 0
	mov	rdi, rbx
	mov	rsi, r15
	call	__ZN4core3fmt9Formatter9write_fmt17h3dc2bf45afed3069E
	test	al, al
	je	LBB60_6
LBB60_7:
	mov	cl, 1
	jmp	LBB60_8
LBB60_3:
	lea	rax, [rip + l___unnamed_5]
	mov	qword ptr [rbp - 88], rax
	mov	qword ptr [rbp - 80], 1
	mov	qword ptr [rbp - 72], 0
	lea	rax, [rip + l___unnamed_4]
	mov	qword ptr [rbp - 56], rax
	mov	qword ptr [rbp - 48], 0
	lea	rsi, [rbp - 88]
	mov	rdi, rbx
	call	__ZN4core3fmt9Formatter9write_fmt17h3dc2bf45afed3069E
	mov	ecx, eax
LBB60_8:
	mov	eax, ecx
	add	rsp, 104
	pop	rbx
	pop	r12
	pop	r13
	pop	r14
	pop	r15
	pop	rbp
	ret
	.cfi_endproc

	.globl	__ZN11packed_simd3v6496_$LT$impl$u20$core..fmt..Debug$u20$for$u20$packed_simd..Simd$LT$$u5b$i32$u3b$$u20$2$u5d$$GT$$GT$3fmt17h6646ce1e90d314cbE
	.p2align	4, 0x90
__ZN11packed_simd3v6496_$LT$impl$u20$core..fmt..Debug$u20$for$u20$packed_simd..Simd$LT$$u5b$i32$u3b$$u20$2$u5d$$GT$$GT$3fmt17h6646ce1e90d314cbE:
	.cfi_startproc
	push	rbp
	.cfi_def_cfa_offset 16
	.cfi_offset rbp, -16
	mov	rbp, rsp
	.cfi_def_cfa_register rbp
	push	r15
	push	r14
	push	rbx
	sub	rsp, 88
	.cfi_offset rbx, -40
	.cfi_offset r14, -32
	.cfi_offset r15, -24
	mov	r15, rsi
	mov	rbx, rdi
	lea	rax, [rip + __ZN44_$LT$$RF$T$u20$as$u20$core..fmt..Display$GT$3fmt17he911d2ba7c50bb69E]
	movq	xmm0, rax
	lea	rax, [rip + l___unnamed_20]
	movq	xmm1, rax
	punpcklqdq	xmm1, xmm0
	movdqa	xmmword ptr [rbp - 112], xmm1
	lea	rax, [rip + l___unnamed_2]
	mov	qword ptr [rbp - 72], rax
	mov	qword ptr [rbp - 64], 2
	mov	qword ptr [rbp - 56], 0
	lea	rax, [rbp - 112]
	mov	qword ptr [rbp - 40], rax
	mov	qword ptr [rbp - 32], 1
	lea	rsi, [rbp - 72]
	mov	rdi, r15
	call	__ZN4core3fmt9Formatter9write_fmt17h3dc2bf45afed3069E
	mov	r14b, 1
	test	al, al
	jne	LBB61_12
	movq	xmm0, qword ptr [rbx]
	movdqa	xmmword ptr [rbp - 96], xmm0
	movd	dword ptr [rbp - 72], xmm0
	mov	rdi, r15
	call	__ZN4core3fmt9Formatter15debug_lower_hex17h8530fbaeba13f4d9E
	test	al, al
	je	LBB61_2
	lea	rdi, [rbp - 72]
	mov	rsi, r15
	call	__ZN4core3fmt3num53_$LT$impl$u20$core..fmt..LowerHex$u20$for$u20$i32$GT$3fmt17h45ae8797392b15d4E
	test	al, al
	je	LBB61_6
	jmp	LBB61_12
LBB61_2:
	mov	rdi, r15
	call	__ZN4core3fmt9Formatter15debug_upper_hex17hf8fda15ec43a1e68E
	lea	rdi, [rbp - 72]
	mov	rsi, r15
	test	al, al
	je	LBB61_4
	call	__ZN4core3fmt3num53_$LT$impl$u20$core..fmt..UpperHex$u20$for$u20$i32$GT$3fmt17h7218a38926162563E
	test	al, al
	je	LBB61_6
	jmp	LBB61_12
LBB61_4:
	call	__ZN4core3fmt3num3imp52_$LT$impl$u20$core..fmt..Display$u20$for$u20$i32$GT$3fmt17he2ccc2060d52a2ceE
	test	al, al
	jne	LBB61_12
LBB61_6:
	lea	rax, [rip + l___unnamed_3]
	mov	qword ptr [rbp - 72], rax
	mov	qword ptr [rbp - 64], 1
	mov	qword ptr [rbp - 56], 0
	lea	rbx, [rip + l___unnamed_4]
	mov	qword ptr [rbp - 40], rbx
	mov	qword ptr [rbp - 32], 0
	lea	rsi, [rbp - 72]
	mov	rdi, r15
	call	__ZN4core3fmt9Formatter9write_fmt17h3dc2bf45afed3069E
	test	al, al
	jne	LBB61_12
	pshufd	xmm0, xmmword ptr [rbp - 96], 212
	pshufd	xmm0, xmm0, 78
	movd	dword ptr [rbp - 72], xmm0
	mov	rdi, r15
	call	__ZN4core3fmt9Formatter15debug_lower_hex17h8530fbaeba13f4d9E
	test	al, al
	je	LBB61_8
	lea	rdi, [rbp - 72]
	mov	rsi, r15
	call	__ZN4core3fmt3num53_$LT$impl$u20$core..fmt..LowerHex$u20$for$u20$i32$GT$3fmt17h45ae8797392b15d4E
	test	al, al
	jne	LBB61_12
LBB61_11:
	lea	rax, [rip + l___unnamed_5]
	mov	qword ptr [rbp - 72], rax
	mov	qword ptr [rbp - 64], 1
	mov	qword ptr [rbp - 56], 0
	mov	qword ptr [rbp - 40], rbx
	mov	qword ptr [rbp - 32], 0
	lea	rsi, [rbp - 72]
	mov	rdi, r15
	call	__ZN4core3fmt9Formatter9write_fmt17h3dc2bf45afed3069E
	mov	r14d, eax
LBB61_12:
	mov	eax, r14d
	add	rsp, 88
	pop	rbx
	pop	r14
	pop	r15
	pop	rbp
	ret
LBB61_8:
	mov	rdi, r15
	call	__ZN4core3fmt9Formatter15debug_upper_hex17hf8fda15ec43a1e68E
	lea	rdi, [rbp - 72]
	mov	rsi, r15
	test	al, al
	je	LBB61_9
	call	__ZN4core3fmt3num53_$LT$impl$u20$core..fmt..UpperHex$u20$for$u20$i32$GT$3fmt17h7218a38926162563E
	test	al, al
	je	LBB61_11
	jmp	LBB61_12
LBB61_9:
	call	__ZN4core3fmt3num3imp52_$LT$impl$u20$core..fmt..Display$u20$for$u20$i32$GT$3fmt17he2ccc2060d52a2ceE
	test	al, al
	je	LBB61_11
	jmp	LBB61_12
	.cfi_endproc

	.globl	__ZN11packed_simd3v6499_$LT$impl$u20$core..fmt..LowerHex$u20$for$u20$packed_simd..Simd$LT$$u5b$i32$u3b$$u20$2$u5d$$GT$$GT$3fmt17h776cb71ea968555aE
	.p2align	4, 0x90
__ZN11packed_simd3v6499_$LT$impl$u20$core..fmt..LowerHex$u20$for$u20$packed_simd..Simd$LT$$u5b$i32$u3b$$u20$2$u5d$$GT$$GT$3fmt17h776cb71ea968555aE:
	.cfi_startproc
	push	rbp
	.cfi_def_cfa_offset 16
	.cfi_offset rbp, -16
	mov	rbp, rsp
	.cfi_def_cfa_register rbp
	push	r15
	push	r14
	push	r13
	push	r12
	push	rbx
	sub	rsp, 104
	.cfi_offset rbx, -56
	.cfi_offset r12, -48
	.cfi_offset r13, -40
	.cfi_offset r14, -32
	.cfi_offset r15, -24
	mov	rbx, rsi
	mov	r15, rdi
	lea	rax, [rip + __ZN44_$LT$$RF$T$u20$as$u20$core..fmt..Display$GT$3fmt17he911d2ba7c50bb69E]
	movq	xmm0, rax
	lea	rax, [rip + l___unnamed_20]
	movq	xmm1, rax
	punpcklqdq	xmm1, xmm0
	movdqa	xmmword ptr [rbp - 144], xmm1
	lea	rax, [rip + l___unnamed_2]
	mov	qword ptr [rbp - 88], rax
	mov	qword ptr [rbp - 80], 2
	mov	qword ptr [rbp - 72], 0
	lea	rax, [rbp - 144]
	mov	qword ptr [rbp - 56], rax
	mov	qword ptr [rbp - 48], 1
	lea	rsi, [rbp - 88]
	mov	rdi, rbx
	call	__ZN4core3fmt9Formatter9write_fmt17h3dc2bf45afed3069E
	mov	cl, 1
	test	al, al
	jne	LBB62_8
	movq	xmm0, qword ptr [r15]
	pshufd	xmm0, xmm0, 212
	movdqa	xmmword ptr [rbp - 112], xmm0
	xor	r14d, r14d
	lea	r15, [rbp - 88]
	lea	r13, [rip + l___unnamed_3]
	cmp	r14, 2
	jne	LBB62_4
	jmp	LBB62_3
	.p2align	4, 0x90
LBB62_6:
	movdqa	xmm0, xmmword ptr [rbp - 112]
	movdqa	xmmword ptr [rbp - 128], xmm0
	lea	r12, [r14 + 1]
	and	r14d, 1
	mov	eax, dword ptr [rbp + 8*r14 - 128]
	mov	dword ptr [rbp - 88], eax
	mov	rdi, r15
	mov	rsi, rbx
	call	__ZN4core3fmt3num53_$LT$impl$u20$core..fmt..LowerHex$u20$for$u20$i32$GT$3fmt17h45ae8797392b15d4E
	mov	r14, r12
	test	al, al
	jne	LBB62_7
	cmp	r14, 2
	je	LBB62_3
LBB62_4:
	test	r14, r14
	je	LBB62_6
	mov	qword ptr [rbp - 88], r13
	mov	qword ptr [rbp - 80], 1
	mov	qword ptr [rbp - 72], 0
	lea	rax, [rip + l___unnamed_4]
	mov	qword ptr [rbp - 56], rax
	mov	qword ptr [rbp - 48], 0
	mov	rdi, rbx
	mov	rsi, r15
	call	__ZN4core3fmt9Formatter9write_fmt17h3dc2bf45afed3069E
	test	al, al
	je	LBB62_6
LBB62_7:
	mov	cl, 1
	jmp	LBB62_8
LBB62_3:
	lea	rax, [rip + l___unnamed_5]
	mov	qword ptr [rbp - 88], rax
	mov	qword ptr [rbp - 80], 1
	mov	qword ptr [rbp - 72], 0
	lea	rax, [rip + l___unnamed_4]
	mov	qword ptr [rbp - 56], rax
	mov	qword ptr [rbp - 48], 0
	lea	rsi, [rbp - 88]
	mov	rdi, rbx
	call	__ZN4core3fmt9Formatter9write_fmt17h3dc2bf45afed3069E
	mov	ecx, eax
LBB62_8:
	mov	eax, ecx
	add	rsp, 104
	pop	rbx
	pop	r12
	pop	r13
	pop	r14
	pop	r15
	pop	rbp
	ret
	.cfi_endproc

	.globl	__ZN11packed_simd3v6499_$LT$impl$u20$core..fmt..UpperHex$u20$for$u20$packed_simd..Simd$LT$$u5b$i32$u3b$$u20$2$u5d$$GT$$GT$3fmt17h881e0056d061b68dE
	.p2align	4, 0x90
__ZN11packed_simd3v6499_$LT$impl$u20$core..fmt..UpperHex$u20$for$u20$packed_simd..Simd$LT$$u5b$i32$u3b$$u20$2$u5d$$GT$$GT$3fmt17h881e0056d061b68dE:
	.cfi_startproc
	push	rbp
	.cfi_def_cfa_offset 16
	.cfi_offset rbp, -16
	mov	rbp, rsp
	.cfi_def_cfa_register rbp
	push	r15
	push	r14
	push	r13
	push	r12
	push	rbx
	sub	rsp, 104
	.cfi_offset rbx, -56
	.cfi_offset r12, -48
	.cfi_offset r13, -40
	.cfi_offset r14, -32
	.cfi_offset r15, -24
	mov	rbx, rsi
	mov	r15, rdi
	lea	rax, [rip + __ZN44_$LT$$RF$T$u20$as$u20$core..fmt..Display$GT$3fmt17he911d2ba7c50bb69E]
	movq	xmm0, rax
	lea	rax, [rip + l___unnamed_20]
	movq	xmm1, rax
	punpcklqdq	xmm1, xmm0
	movdqa	xmmword ptr [rbp - 144], xmm1
	lea	rax, [rip + l___unnamed_2]
	mov	qword ptr [rbp - 88], rax
	mov	qword ptr [rbp - 80], 2
	mov	qword ptr [rbp - 72], 0
	lea	rax, [rbp - 144]
	mov	qword ptr [rbp - 56], rax
	mov	qword ptr [rbp - 48], 1
	lea	rsi, [rbp - 88]
	mov	rdi, rbx
	call	__ZN4core3fmt9Formatter9write_fmt17h3dc2bf45afed3069E
	mov	cl, 1
	test	al, al
	jne	LBB63_8
	movq	xmm0, qword ptr [r15]
	pshufd	xmm0, xmm0, 212
	movdqa	xmmword ptr [rbp - 112], xmm0
	xor	r14d, r14d
	lea	r15, [rbp - 88]
	lea	r13, [rip + l___unnamed_3]
	cmp	r14, 2
	jne	LBB63_4
	jmp	LBB63_3
	.p2align	4, 0x90
LBB63_6:
	movdqa	xmm0, xmmword ptr [rbp - 112]
	movdqa	xmmword ptr [rbp - 128], xmm0
	lea	r12, [r14 + 1]
	and	r14d, 1
	mov	eax, dword ptr [rbp + 8*r14 - 128]
	mov	dword ptr [rbp - 88], eax
	mov	rdi, r15
	mov	rsi, rbx
	call	__ZN4core3fmt3num53_$LT$impl$u20$core..fmt..UpperHex$u20$for$u20$i32$GT$3fmt17h7218a38926162563E
	mov	r14, r12
	test	al, al
	jne	LBB63_7
	cmp	r14, 2
	je	LBB63_3
LBB63_4:
	test	r14, r14
	je	LBB63_6
	mov	qword ptr [rbp - 88], r13
	mov	qword ptr [rbp - 80], 1
	mov	qword ptr [rbp - 72], 0
	lea	rax, [rip + l___unnamed_4]
	mov	qword ptr [rbp - 56], rax
	mov	qword ptr [rbp - 48], 0
	mov	rdi, rbx
	mov	rsi, r15
	call	__ZN4core3fmt9Formatter9write_fmt17h3dc2bf45afed3069E
	test	al, al
	je	LBB63_6
LBB63_7:
	mov	cl, 1
	jmp	LBB63_8
LBB63_3:
	lea	rax, [rip + l___unnamed_5]
	mov	qword ptr [rbp - 88], rax
	mov	qword ptr [rbp - 80], 1
	mov	qword ptr [rbp - 72], 0
	lea	rax, [rip + l___unnamed_4]
	mov	qword ptr [rbp - 56], rax
	mov	qword ptr [rbp - 48], 0
	lea	rsi, [rbp - 88]
	mov	rdi, rbx
	call	__ZN4core3fmt9Formatter9write_fmt17h3dc2bf45afed3069E
	mov	ecx, eax
LBB63_8:
	mov	eax, ecx
	add	rsp, 104
	pop	rbx
	pop	r12
	pop	r13
	pop	r14
	pop	r15
	pop	rbp
	ret
	.cfi_endproc

	.globl	__ZN11packed_simd3v6496_$LT$impl$u20$core..fmt..Octal$u20$for$u20$packed_simd..Simd$LT$$u5b$i32$u3b$$u20$2$u5d$$GT$$GT$3fmt17hf1ec6c44965dd345E
	.p2align	4, 0x90
__ZN11packed_simd3v6496_$LT$impl$u20$core..fmt..Octal$u20$for$u20$packed_simd..Simd$LT$$u5b$i32$u3b$$u20$2$u5d$$GT$$GT$3fmt17hf1ec6c44965dd345E:
	.cfi_startproc
	push	rbp
	.cfi_def_cfa_offset 16
	.cfi_offset rbp, -16
	mov	rbp, rsp
	.cfi_def_cfa_register rbp
	push	r15
	push	r14
	push	r13
	push	r12
	push	rbx
	sub	rsp, 104
	.cfi_offset rbx, -56
	.cfi_offset r12, -48
	.cfi_offset r13, -40
	.cfi_offset r14, -32
	.cfi_offset r15, -24
	mov	rbx, rsi
	mov	r15, rdi
	lea	rax, [rip + __ZN44_$LT$$RF$T$u20$as$u20$core..fmt..Display$GT$3fmt17he911d2ba7c50bb69E]
	movq	xmm0, rax
	lea	rax, [rip + l___unnamed_20]
	movq	xmm1, rax
	punpcklqdq	xmm1, xmm0
	movdqa	xmmword ptr [rbp - 144], xmm1
	lea	rax, [rip + l___unnamed_2]
	mov	qword ptr [rbp - 88], rax
	mov	qword ptr [rbp - 80], 2
	mov	qword ptr [rbp - 72], 0
	lea	rax, [rbp - 144]
	mov	qword ptr [rbp - 56], rax
	mov	qword ptr [rbp - 48], 1
	lea	rsi, [rbp - 88]
	mov	rdi, rbx
	call	__ZN4core3fmt9Formatter9write_fmt17h3dc2bf45afed3069E
	mov	cl, 1
	test	al, al
	jne	LBB64_8
	movq	xmm0, qword ptr [r15]
	pshufd	xmm0, xmm0, 212
	movdqa	xmmword ptr [rbp - 112], xmm0
	xor	r14d, r14d
	lea	r15, [rbp - 88]
	lea	r13, [rip + l___unnamed_3]
	cmp	r14, 2
	jne	LBB64_4
	jmp	LBB64_3
	.p2align	4, 0x90
LBB64_6:
	movdqa	xmm0, xmmword ptr [rbp - 112]
	movdqa	xmmword ptr [rbp - 128], xmm0
	lea	r12, [r14 + 1]
	and	r14d, 1
	mov	eax, dword ptr [rbp + 8*r14 - 128]
	mov	dword ptr [rbp - 88], eax
	mov	rdi, r15
	mov	rsi, rbx
	call	__ZN4core3fmt3num50_$LT$impl$u20$core..fmt..Octal$u20$for$u20$i32$GT$3fmt17hb51310b4177e3f85E
	mov	r14, r12
	test	al, al
	jne	LBB64_7
	cmp	r14, 2
	je	LBB64_3
LBB64_4:
	test	r14, r14
	je	LBB64_6
	mov	qword ptr [rbp - 88], r13
	mov	qword ptr [rbp - 80], 1
	mov	qword ptr [rbp - 72], 0
	lea	rax, [rip + l___unnamed_4]
	mov	qword ptr [rbp - 56], rax
	mov	qword ptr [rbp - 48], 0
	mov	rdi, rbx
	mov	rsi, r15
	call	__ZN4core3fmt9Formatter9write_fmt17h3dc2bf45afed3069E
	test	al, al
	je	LBB64_6
LBB64_7:
	mov	cl, 1
	jmp	LBB64_8
LBB64_3:
	lea	rax, [rip + l___unnamed_5]
	mov	qword ptr [rbp - 88], rax
	mov	qword ptr [rbp - 80], 1
	mov	qword ptr [rbp - 72], 0
	lea	rax, [rip + l___unnamed_4]
	mov	qword ptr [rbp - 56], rax
	mov	qword ptr [rbp - 48], 0
	lea	rsi, [rbp - 88]
	mov	rdi, rbx
	call	__ZN4core3fmt9Formatter9write_fmt17h3dc2bf45afed3069E
	mov	ecx, eax
LBB64_8:
	mov	eax, ecx
	add	rsp, 104
	pop	rbx
	pop	r12
	pop	r13
	pop	r14
	pop	r15
	pop	rbp
	ret
	.cfi_endproc

	.globl	__ZN11packed_simd3v6497_$LT$impl$u20$core..fmt..Binary$u20$for$u20$packed_simd..Simd$LT$$u5b$i32$u3b$$u20$2$u5d$$GT$$GT$3fmt17hd9cfbb69b3bf438aE
	.p2align	4, 0x90
__ZN11packed_simd3v6497_$LT$impl$u20$core..fmt..Binary$u20$for$u20$packed_simd..Simd$LT$$u5b$i32$u3b$$u20$2$u5d$$GT$$GT$3fmt17hd9cfbb69b3bf438aE:
	.cfi_startproc
	push	rbp
	.cfi_def_cfa_offset 16
	.cfi_offset rbp, -16
	mov	rbp, rsp
	.cfi_def_cfa_register rbp
	push	r15
	push	r14
	push	r13
	push	r12
	push	rbx
	sub	rsp, 104
	.cfi_offset rbx, -56
	.cfi_offset r12, -48
	.cfi_offset r13, -40
	.cfi_offset r14, -32
	.cfi_offset r15, -24
	mov	rbx, rsi
	mov	r15, rdi
	lea	rax, [rip + __ZN44_$LT$$RF$T$u20$as$u20$core..fmt..Display$GT$3fmt17he911d2ba7c50bb69E]
	movq	xmm0, rax
	lea	rax, [rip + l___unnamed_20]
	movq	xmm1, rax
	punpcklqdq	xmm1, xmm0
	movdqa	xmmword ptr [rbp - 144], xmm1
	lea	rax, [rip + l___unnamed_2]
	mov	qword ptr [rbp - 88], rax
	mov	qword ptr [rbp - 80], 2
	mov	qword ptr [rbp - 72], 0
	lea	rax, [rbp - 144]
	mov	qword ptr [rbp - 56], rax
	mov	qword ptr [rbp - 48], 1
	lea	rsi, [rbp - 88]
	mov	rdi, rbx
	call	__ZN4core3fmt9Formatter9write_fmt17h3dc2bf45afed3069E
	mov	cl, 1
	test	al, al
	jne	LBB65_8
	movq	xmm0, qword ptr [r15]
	pshufd	xmm0, xmm0, 212
	movdqa	xmmword ptr [rbp - 112], xmm0
	xor	r14d, r14d
	lea	r15, [rbp - 88]
	lea	r13, [rip + l___unnamed_3]
	cmp	r14, 2
	jne	LBB65_4
	jmp	LBB65_3
	.p2align	4, 0x90
LBB65_6:
	movdqa	xmm0, xmmword ptr [rbp - 112]
	movdqa	xmmword ptr [rbp - 128], xmm0
	lea	r12, [r14 + 1]
	and	r14d, 1
	mov	eax, dword ptr [rbp + 8*r14 - 128]
	mov	dword ptr [rbp - 88], eax
	mov	rdi, r15
	mov	rsi, rbx
	call	__ZN4core3fmt3num51_$LT$impl$u20$core..fmt..Binary$u20$for$u20$i32$GT$3fmt17hdfe307474c154344E
	mov	r14, r12
	test	al, al
	jne	LBB65_7
	cmp	r14, 2
	je	LBB65_3
LBB65_4:
	test	r14, r14
	je	LBB65_6
	mov	qword ptr [rbp - 88], r13
	mov	qword ptr [rbp - 80], 1
	mov	qword ptr [rbp - 72], 0
	lea	rax, [rip + l___unnamed_4]
	mov	qword ptr [rbp - 56], rax
	mov	qword ptr [rbp - 48], 0
	mov	rdi, rbx
	mov	rsi, r15
	call	__ZN4core3fmt9Formatter9write_fmt17h3dc2bf45afed3069E
	test	al, al
	je	LBB65_6
LBB65_7:
	mov	cl, 1
	jmp	LBB65_8
LBB65_3:
	lea	rax, [rip + l___unnamed_5]
	mov	qword ptr [rbp - 88], rax
	mov	qword ptr [rbp - 80], 1
	mov	qword ptr [rbp - 72], 0
	lea	rax, [rip + l___unnamed_4]
	mov	qword ptr [rbp - 56], rax
	mov	qword ptr [rbp - 48], 0
	lea	rsi, [rbp - 88]
	mov	rdi, rbx
	call	__ZN4core3fmt9Formatter9write_fmt17h3dc2bf45afed3069E
	mov	ecx, eax
LBB65_8:
	mov	eax, ecx
	add	rsp, 104
	pop	rbx
	pop	r12
	pop	r13
	pop	r14
	pop	r15
	pop	rbp
	ret
	.cfi_endproc

	.globl	__ZN11packed_simd3v6496_$LT$impl$u20$core..fmt..Debug$u20$for$u20$packed_simd..Simd$LT$$u5b$u32$u3b$$u20$2$u5d$$GT$$GT$3fmt17h343e29a33c1308a7E
	.p2align	4, 0x90
__ZN11packed_simd3v6496_$LT$impl$u20$core..fmt..Debug$u20$for$u20$packed_simd..Simd$LT$$u5b$u32$u3b$$u20$2$u5d$$GT$$GT$3fmt17h343e29a33c1308a7E:
	.cfi_startproc
	push	rbp
	.cfi_def_cfa_offset 16
	.cfi_offset rbp, -16
	mov	rbp, rsp
	.cfi_def_cfa_register rbp
	push	r15
	push	r14
	push	rbx
	sub	rsp, 88
	.cfi_offset rbx, -40
	.cfi_offset r14, -32
	.cfi_offset r15, -24
	mov	r15, rsi
	mov	rbx, rdi
	lea	rax, [rip + __ZN44_$LT$$RF$T$u20$as$u20$core..fmt..Display$GT$3fmt17he911d2ba7c50bb69E]
	movq	xmm0, rax
	lea	rax, [rip + l___unnamed_21]
	movq	xmm1, rax
	punpcklqdq	xmm1, xmm0
	movdqa	xmmword ptr [rbp - 112], xmm1
	lea	rax, [rip + l___unnamed_2]
	mov	qword ptr [rbp - 72], rax
	mov	qword ptr [rbp - 64], 2
	mov	qword ptr [rbp - 56], 0
	lea	rax, [rbp - 112]
	mov	qword ptr [rbp - 40], rax
	mov	qword ptr [rbp - 32], 1
	lea	rsi, [rbp - 72]
	mov	rdi, r15
	call	__ZN4core3fmt9Formatter9write_fmt17h3dc2bf45afed3069E
	mov	r14b, 1
	test	al, al
	jne	LBB66_12
	movq	xmm0, qword ptr [rbx]
	movdqa	xmmword ptr [rbp - 96], xmm0
	movd	dword ptr [rbp - 72], xmm0
	mov	rdi, r15
	call	__ZN4core3fmt9Formatter15debug_lower_hex17h8530fbaeba13f4d9E
	test	al, al
	je	LBB66_2
	lea	rdi, [rbp - 72]
	mov	rsi, r15
	call	__ZN4core3fmt3num53_$LT$impl$u20$core..fmt..LowerHex$u20$for$u20$u32$GT$3fmt17h6f8627d2574097eeE
	test	al, al
	je	LBB66_6
	jmp	LBB66_12
LBB66_2:
	mov	rdi, r15
	call	__ZN4core3fmt9Formatter15debug_upper_hex17hf8fda15ec43a1e68E
	lea	rdi, [rbp - 72]
	mov	rsi, r15
	test	al, al
	je	LBB66_4
	call	__ZN4core3fmt3num53_$LT$impl$u20$core..fmt..UpperHex$u20$for$u20$u32$GT$3fmt17hfea5795b8018329eE
	test	al, al
	je	LBB66_6
	jmp	LBB66_12
LBB66_4:
	call	__ZN4core3fmt3num3imp52_$LT$impl$u20$core..fmt..Display$u20$for$u20$u32$GT$3fmt17h8cb3163b2d7e102aE
	test	al, al
	jne	LBB66_12
LBB66_6:
	lea	rax, [rip + l___unnamed_3]
	mov	qword ptr [rbp - 72], rax
	mov	qword ptr [rbp - 64], 1
	mov	qword ptr [rbp - 56], 0
	lea	rbx, [rip + l___unnamed_4]
	mov	qword ptr [rbp - 40], rbx
	mov	qword ptr [rbp - 32], 0
	lea	rsi, [rbp - 72]
	mov	rdi, r15
	call	__ZN4core3fmt9Formatter9write_fmt17h3dc2bf45afed3069E
	test	al, al
	jne	LBB66_12
	pshufd	xmm0, xmmword ptr [rbp - 96], 212
	pshufd	xmm0, xmm0, 78
	movd	dword ptr [rbp - 72], xmm0
	mov	rdi, r15
	call	__ZN4core3fmt9Formatter15debug_lower_hex17h8530fbaeba13f4d9E
	test	al, al
	je	LBB66_8
	lea	rdi, [rbp - 72]
	mov	rsi, r15
	call	__ZN4core3fmt3num53_$LT$impl$u20$core..fmt..LowerHex$u20$for$u20$u32$GT$3fmt17h6f8627d2574097eeE
	test	al, al
	jne	LBB66_12
LBB66_11:
	lea	rax, [rip + l___unnamed_5]
	mov	qword ptr [rbp - 72], rax
	mov	qword ptr [rbp - 64], 1
	mov	qword ptr [rbp - 56], 0
	mov	qword ptr [rbp - 40], rbx
	mov	qword ptr [rbp - 32], 0
	lea	rsi, [rbp - 72]
	mov	rdi, r15
	call	__ZN4core3fmt9Formatter9write_fmt17h3dc2bf45afed3069E
	mov	r14d, eax
LBB66_12:
	mov	eax, r14d
	add	rsp, 88
	pop	rbx
	pop	r14
	pop	r15
	pop	rbp
	ret
LBB66_8:
	mov	rdi, r15
	call	__ZN4core3fmt9Formatter15debug_upper_hex17hf8fda15ec43a1e68E
	lea	rdi, [rbp - 72]
	mov	rsi, r15
	test	al, al
	je	LBB66_9
	call	__ZN4core3fmt3num53_$LT$impl$u20$core..fmt..UpperHex$u20$for$u20$u32$GT$3fmt17hfea5795b8018329eE
	test	al, al
	je	LBB66_11
	jmp	LBB66_12
LBB66_9:
	call	__ZN4core3fmt3num3imp52_$LT$impl$u20$core..fmt..Display$u20$for$u20$u32$GT$3fmt17h8cb3163b2d7e102aE
	test	al, al
	je	LBB66_11
	jmp	LBB66_12
	.cfi_endproc

	.globl	__ZN11packed_simd3v6499_$LT$impl$u20$core..fmt..LowerHex$u20$for$u20$packed_simd..Simd$LT$$u5b$u32$u3b$$u20$2$u5d$$GT$$GT$3fmt17hb71963bab15a9ef1E
	.p2align	4, 0x90
__ZN11packed_simd3v6499_$LT$impl$u20$core..fmt..LowerHex$u20$for$u20$packed_simd..Simd$LT$$u5b$u32$u3b$$u20$2$u5d$$GT$$GT$3fmt17hb71963bab15a9ef1E:
	.cfi_startproc
	push	rbp
	.cfi_def_cfa_offset 16
	.cfi_offset rbp, -16
	mov	rbp, rsp
	.cfi_def_cfa_register rbp
	push	r15
	push	r14
	push	r13
	push	r12
	push	rbx
	sub	rsp, 104
	.cfi_offset rbx, -56
	.cfi_offset r12, -48
	.cfi_offset r13, -40
	.cfi_offset r14, -32
	.cfi_offset r15, -24
	mov	rbx, rsi
	mov	r15, rdi
	lea	rax, [rip + __ZN44_$LT$$RF$T$u20$as$u20$core..fmt..Display$GT$3fmt17he911d2ba7c50bb69E]
	movq	xmm0, rax
	lea	rax, [rip + l___unnamed_21]
	movq	xmm1, rax
	punpcklqdq	xmm1, xmm0
	movdqa	xmmword ptr [rbp - 144], xmm1
	lea	rax, [rip + l___unnamed_2]
	mov	qword ptr [rbp - 88], rax
	mov	qword ptr [rbp - 80], 2
	mov	qword ptr [rbp - 72], 0
	lea	rax, [rbp - 144]
	mov	qword ptr [rbp - 56], rax
	mov	qword ptr [rbp - 48], 1
	lea	rsi, [rbp - 88]
	mov	rdi, rbx
	call	__ZN4core3fmt9Formatter9write_fmt17h3dc2bf45afed3069E
	mov	cl, 1
	test	al, al
	jne	LBB67_8
	movq	xmm0, qword ptr [r15]
	pshufd	xmm0, xmm0, 212
	movdqa	xmmword ptr [rbp - 112], xmm0
	xor	r14d, r14d
	lea	r15, [rbp - 88]
	lea	r13, [rip + l___unnamed_3]
	cmp	r14, 2
	jne	LBB67_4
	jmp	LBB67_3
	.p2align	4, 0x90
LBB67_6:
	movdqa	xmm0, xmmword ptr [rbp - 112]
	movdqa	xmmword ptr [rbp - 128], xmm0
	lea	r12, [r14 + 1]
	and	r14d, 1
	mov	eax, dword ptr [rbp + 8*r14 - 128]
	mov	dword ptr [rbp - 88], eax
	mov	rdi, r15
	mov	rsi, rbx
	call	__ZN4core3fmt3num53_$LT$impl$u20$core..fmt..LowerHex$u20$for$u20$u32$GT$3fmt17h6f8627d2574097eeE
	mov	r14, r12
	test	al, al
	jne	LBB67_7
	cmp	r14, 2
	je	LBB67_3
LBB67_4:
	test	r14, r14
	je	LBB67_6
	mov	qword ptr [rbp - 88], r13
	mov	qword ptr [rbp - 80], 1
	mov	qword ptr [rbp - 72], 0
	lea	rax, [rip + l___unnamed_4]
	mov	qword ptr [rbp - 56], rax
	mov	qword ptr [rbp - 48], 0
	mov	rdi, rbx
	mov	rsi, r15
	call	__ZN4core3fmt9Formatter9write_fmt17h3dc2bf45afed3069E
	test	al, al
	je	LBB67_6
LBB67_7:
	mov	cl, 1
	jmp	LBB67_8
LBB67_3:
	lea	rax, [rip + l___unnamed_5]
	mov	qword ptr [rbp - 88], rax
	mov	qword ptr [rbp - 80], 1
	mov	qword ptr [rbp - 72], 0
	lea	rax, [rip + l___unnamed_4]
	mov	qword ptr [rbp - 56], rax
	mov	qword ptr [rbp - 48], 0
	lea	rsi, [rbp - 88]
	mov	rdi, rbx
	call	__ZN4core3fmt9Formatter9write_fmt17h3dc2bf45afed3069E
	mov	ecx, eax
LBB67_8:
	mov	eax, ecx
	add	rsp, 104
	pop	rbx
	pop	r12
	pop	r13
	pop	r14
	pop	r15
	pop	rbp
	ret
	.cfi_endproc

	.globl	__ZN11packed_simd3v6499_$LT$impl$u20$core..fmt..UpperHex$u20$for$u20$packed_simd..Simd$LT$$u5b$u32$u3b$$u20$2$u5d$$GT$$GT$3fmt17h461999fdc4b8f70bE
	.p2align	4, 0x90
__ZN11packed_simd3v6499_$LT$impl$u20$core..fmt..UpperHex$u20$for$u20$packed_simd..Simd$LT$$u5b$u32$u3b$$u20$2$u5d$$GT$$GT$3fmt17h461999fdc4b8f70bE:
	.cfi_startproc
	push	rbp
	.cfi_def_cfa_offset 16
	.cfi_offset rbp, -16
	mov	rbp, rsp
	.cfi_def_cfa_register rbp
	push	r15
	push	r14
	push	r13
	push	r12
	push	rbx
	sub	rsp, 104
	.cfi_offset rbx, -56
	.cfi_offset r12, -48
	.cfi_offset r13, -40
	.cfi_offset r14, -32
	.cfi_offset r15, -24
	mov	rbx, rsi
	mov	r15, rdi
	lea	rax, [rip + __ZN44_$LT$$RF$T$u20$as$u20$core..fmt..Display$GT$3fmt17he911d2ba7c50bb69E]
	movq	xmm0, rax
	lea	rax, [rip + l___unnamed_21]
	movq	xmm1, rax
	punpcklqdq	xmm1, xmm0
	movdqa	xmmword ptr [rbp - 144], xmm1
	lea	rax, [rip + l___unnamed_2]
	mov	qword ptr [rbp - 88], rax
	mov	qword ptr [rbp - 80], 2
	mov	qword ptr [rbp - 72], 0
	lea	rax, [rbp - 144]
	mov	qword ptr [rbp - 56], rax
	mov	qword ptr [rbp - 48], 1
	lea	rsi, [rbp - 88]
	mov	rdi, rbx
	call	__ZN4core3fmt9Formatter9write_fmt17h3dc2bf45afed3069E
	mov	cl, 1
	test	al, al
	jne	LBB68_8
	movq	xmm0, qword ptr [r15]
	pshufd	xmm0, xmm0, 212
	movdqa	xmmword ptr [rbp - 112], xmm0
	xor	r14d, r14d
	lea	r15, [rbp - 88]
	lea	r13, [rip + l___unnamed_3]
	cmp	r14, 2
	jne	LBB68_4
	jmp	LBB68_3
	.p2align	4, 0x90
LBB68_6:
	movdqa	xmm0, xmmword ptr [rbp - 112]
	movdqa	xmmword ptr [rbp - 128], xmm0
	lea	r12, [r14 + 1]
	and	r14d, 1
	mov	eax, dword ptr [rbp + 8*r14 - 128]
	mov	dword ptr [rbp - 88], eax
	mov	rdi, r15
	mov	rsi, rbx
	call	__ZN4core3fmt3num53_$LT$impl$u20$core..fmt..UpperHex$u20$for$u20$u32$GT$3fmt17hfea5795b8018329eE
	mov	r14, r12
	test	al, al
	jne	LBB68_7
	cmp	r14, 2
	je	LBB68_3
LBB68_4:
	test	r14, r14
	je	LBB68_6
	mov	qword ptr [rbp - 88], r13
	mov	qword ptr [rbp - 80], 1
	mov	qword ptr [rbp - 72], 0
	lea	rax, [rip + l___unnamed_4]
	mov	qword ptr [rbp - 56], rax
	mov	qword ptr [rbp - 48], 0
	mov	rdi, rbx
	mov	rsi, r15
	call	__ZN4core3fmt9Formatter9write_fmt17h3dc2bf45afed3069E
	test	al, al
	je	LBB68_6
LBB68_7:
	mov	cl, 1
	jmp	LBB68_8
LBB68_3:
	lea	rax, [rip + l___unnamed_5]
	mov	qword ptr [rbp - 88], rax
	mov	qword ptr [rbp - 80], 1
	mov	qword ptr [rbp - 72], 0
	lea	rax, [rip + l___unnamed_4]
	mov	qword ptr [rbp - 56], rax
	mov	qword ptr [rbp - 48], 0
	lea	rsi, [rbp - 88]
	mov	rdi, rbx
	call	__ZN4core3fmt9Formatter9write_fmt17h3dc2bf45afed3069E
	mov	ecx, eax
LBB68_8:
	mov	eax, ecx
	add	rsp, 104
	pop	rbx
	pop	r12
	pop	r13
	pop	r14
	pop	r15
	pop	rbp
	ret
	.cfi_endproc

	.globl	__ZN11packed_simd3v6496_$LT$impl$u20$core..fmt..Octal$u20$for$u20$packed_simd..Simd$LT$$u5b$u32$u3b$$u20$2$u5d$$GT$$GT$3fmt17h82a6b3b757cf560aE
	.p2align	4, 0x90
__ZN11packed_simd3v6496_$LT$impl$u20$core..fmt..Octal$u20$for$u20$packed_simd..Simd$LT$$u5b$u32$u3b$$u20$2$u5d$$GT$$GT$3fmt17h82a6b3b757cf560aE:
	.cfi_startproc
	push	rbp
	.cfi_def_cfa_offset 16
	.cfi_offset rbp, -16
	mov	rbp, rsp
	.cfi_def_cfa_register rbp
	push	r15
	push	r14
	push	r13
	push	r12
	push	rbx
	sub	rsp, 104
	.cfi_offset rbx, -56
	.cfi_offset r12, -48
	.cfi_offset r13, -40
	.cfi_offset r14, -32
	.cfi_offset r15, -24
	mov	rbx, rsi
	mov	r15, rdi
	lea	rax, [rip + __ZN44_$LT$$RF$T$u20$as$u20$core..fmt..Display$GT$3fmt17he911d2ba7c50bb69E]
	movq	xmm0, rax
	lea	rax, [rip + l___unnamed_21]
	movq	xmm1, rax
	punpcklqdq	xmm1, xmm0
	movdqa	xmmword ptr [rbp - 144], xmm1
	lea	rax, [rip + l___unnamed_2]
	mov	qword ptr [rbp - 88], rax
	mov	qword ptr [rbp - 80], 2
	mov	qword ptr [rbp - 72], 0
	lea	rax, [rbp - 144]
	mov	qword ptr [rbp - 56], rax
	mov	qword ptr [rbp - 48], 1
	lea	rsi, [rbp - 88]
	mov	rdi, rbx
	call	__ZN4core3fmt9Formatter9write_fmt17h3dc2bf45afed3069E
	mov	cl, 1
	test	al, al
	jne	LBB69_8
	movq	xmm0, qword ptr [r15]
	pshufd	xmm0, xmm0, 212
	movdqa	xmmword ptr [rbp - 112], xmm0
	xor	r14d, r14d
	lea	r15, [rbp - 88]
	lea	r13, [rip + l___unnamed_3]
	cmp	r14, 2
	jne	LBB69_4
	jmp	LBB69_3
	.p2align	4, 0x90
LBB69_6:
	movdqa	xmm0, xmmword ptr [rbp - 112]
	movdqa	xmmword ptr [rbp - 128], xmm0
	lea	r12, [r14 + 1]
	and	r14d, 1
	mov	eax, dword ptr [rbp + 8*r14 - 128]
	mov	dword ptr [rbp - 88], eax
	mov	rdi, r15
	mov	rsi, rbx
	call	__ZN4core3fmt3num50_$LT$impl$u20$core..fmt..Octal$u20$for$u20$u32$GT$3fmt17h566d7b24e308b3adE
	mov	r14, r12
	test	al, al
	jne	LBB69_7
	cmp	r14, 2
	je	LBB69_3
LBB69_4:
	test	r14, r14
	je	LBB69_6
	mov	qword ptr [rbp - 88], r13
	mov	qword ptr [rbp - 80], 1
	mov	qword ptr [rbp - 72], 0
	lea	rax, [rip + l___unnamed_4]
	mov	qword ptr [rbp - 56], rax
	mov	qword ptr [rbp - 48], 0
	mov	rdi, rbx
	mov	rsi, r15
	call	__ZN4core3fmt9Formatter9write_fmt17h3dc2bf45afed3069E
	test	al, al
	je	LBB69_6
LBB69_7:
	mov	cl, 1
	jmp	LBB69_8
LBB69_3:
	lea	rax, [rip + l___unnamed_5]
	mov	qword ptr [rbp - 88], rax
	mov	qword ptr [rbp - 80], 1
	mov	qword ptr [rbp - 72], 0
	lea	rax, [rip + l___unnamed_4]
	mov	qword ptr [rbp - 56], rax
	mov	qword ptr [rbp - 48], 0
	lea	rsi, [rbp - 88]
	mov	rdi, rbx
	call	__ZN4core3fmt9Formatter9write_fmt17h3dc2bf45afed3069E
	mov	ecx, eax
LBB69_8:
	mov	eax, ecx
	add	rsp, 104
	pop	rbx
	pop	r12
	pop	r13
	pop	r14
	pop	r15
	pop	rbp
	ret
	.cfi_endproc

	.globl	__ZN11packed_simd3v6497_$LT$impl$u20$core..fmt..Binary$u20$for$u20$packed_simd..Simd$LT$$u5b$u32$u3b$$u20$2$u5d$$GT$$GT$3fmt17h6b749592d7c810d7E
	.p2align	4, 0x90
__ZN11packed_simd3v6497_$LT$impl$u20$core..fmt..Binary$u20$for$u20$packed_simd..Simd$LT$$u5b$u32$u3b$$u20$2$u5d$$GT$$GT$3fmt17h6b749592d7c810d7E:
	.cfi_startproc
	push	rbp
	.cfi_def_cfa_offset 16
	.cfi_offset rbp, -16
	mov	rbp, rsp
	.cfi_def_cfa_register rbp
	push	r15
	push	r14
	push	r13
	push	r12
	push	rbx
	sub	rsp, 104
	.cfi_offset rbx, -56
	.cfi_offset r12, -48
	.cfi_offset r13, -40
	.cfi_offset r14, -32
	.cfi_offset r15, -24
	mov	rbx, rsi
	mov	r15, rdi
	lea	rax, [rip + __ZN44_$LT$$RF$T$u20$as$u20$core..fmt..Display$GT$3fmt17he911d2ba7c50bb69E]
	movq	xmm0, rax
	lea	rax, [rip + l___unnamed_21]
	movq	xmm1, rax
	punpcklqdq	xmm1, xmm0
	movdqa	xmmword ptr [rbp - 144], xmm1
	lea	rax, [rip + l___unnamed_2]
	mov	qword ptr [rbp - 88], rax
	mov	qword ptr [rbp - 80], 2
	mov	qword ptr [rbp - 72], 0
	lea	rax, [rbp - 144]
	mov	qword ptr [rbp - 56], rax
	mov	qword ptr [rbp - 48], 1
	lea	rsi, [rbp - 88]
	mov	rdi, rbx
	call	__ZN4core3fmt9Formatter9write_fmt17h3dc2bf45afed3069E
	mov	cl, 1
	test	al, al
	jne	LBB70_8
	movq	xmm0, qword ptr [r15]
	pshufd	xmm0, xmm0, 212
	movdqa	xmmword ptr [rbp - 112], xmm0
	xor	r14d, r14d
	lea	r15, [rbp - 88]
	lea	r13, [rip + l___unnamed_3]
	cmp	r14, 2
	jne	LBB70_4
	jmp	LBB70_3
	.p2align	4, 0x90
LBB70_6:
	movdqa	xmm0, xmmword ptr [rbp - 112]
	movdqa	xmmword ptr [rbp - 128], xmm0
	lea	r12, [r14 + 1]
	and	r14d, 1
	mov	eax, dword ptr [rbp + 8*r14 - 128]
	mov	dword ptr [rbp - 88], eax
	mov	rdi, r15
	mov	rsi, rbx
	call	__ZN4core3fmt3num51_$LT$impl$u20$core..fmt..Binary$u20$for$u20$u32$GT$3fmt17h8b729a9eef88d615E
	mov	r14, r12
	test	al, al
	jne	LBB70_7
	cmp	r14, 2
	je	LBB70_3
LBB70_4:
	test	r14, r14
	je	LBB70_6
	mov	qword ptr [rbp - 88], r13
	mov	qword ptr [rbp - 80], 1
	mov	qword ptr [rbp - 72], 0
	lea	rax, [rip + l___unnamed_4]
	mov	qword ptr [rbp - 56], rax
	mov	qword ptr [rbp - 48], 0
	mov	rdi, rbx
	mov	rsi, r15
	call	__ZN4core3fmt9Formatter9write_fmt17h3dc2bf45afed3069E
	test	al, al
	je	LBB70_6
LBB70_7:
	mov	cl, 1
	jmp	LBB70_8
LBB70_3:
	lea	rax, [rip + l___unnamed_5]
	mov	qword ptr [rbp - 88], rax
	mov	qword ptr [rbp - 80], 1
	mov	qword ptr [rbp - 72], 0
	lea	rax, [rip + l___unnamed_4]
	mov	qword ptr [rbp - 56], rax
	mov	qword ptr [rbp - 48], 0
	lea	rsi, [rbp - 88]
	mov	rdi, rbx
	call	__ZN4core3fmt9Formatter9write_fmt17h3dc2bf45afed3069E
	mov	ecx, eax
LBB70_8:
	mov	eax, ecx
	add	rsp, 104
	pop	rbx
	pop	r12
	pop	r13
	pop	r14
	pop	r15
	pop	rbp
	ret
	.cfi_endproc

	.globl	__ZN11packed_simd3v64116_$LT$impl$u20$core..fmt..Debug$u20$for$u20$packed_simd..Simd$LT$$u5b$packed_simd..masks..m32$u3b$$u20$2$u5d$$GT$$GT$3fmt17h68418431a292355eE
	.p2align	4, 0x90
__ZN11packed_simd3v64116_$LT$impl$u20$core..fmt..Debug$u20$for$u20$packed_simd..Simd$LT$$u5b$packed_simd..masks..m32$u3b$$u20$2$u5d$$GT$$GT$3fmt17h68418431a292355eE:
	.cfi_startproc
	push	rbp
	.cfi_def_cfa_offset 16
	.cfi_offset rbp, -16
	mov	rbp, rsp
	.cfi_def_cfa_register rbp
	push	r15
	push	r14
	push	r13
	push	r12
	push	rbx
	sub	rsp, 104
	.cfi_offset rbx, -56
	.cfi_offset r12, -48
	.cfi_offset r13, -40
	.cfi_offset r14, -32
	.cfi_offset r15, -24
	mov	rbx, rsi
	mov	r15, rdi
	lea	rax, [rip + __ZN44_$LT$$RF$T$u20$as$u20$core..fmt..Display$GT$3fmt17he911d2ba7c50bb69E]
	movq	xmm0, rax
	lea	rax, [rip + l___unnamed_22]
	movq	xmm1, rax
	punpcklqdq	xmm1, xmm0
	movdqa	xmmword ptr [rbp - 144], xmm1
	lea	rax, [rip + l___unnamed_2]
	mov	qword ptr [rbp - 88], rax
	mov	qword ptr [rbp - 80], 2
	mov	qword ptr [rbp - 72], 0
	lea	rax, [rbp - 144]
	mov	qword ptr [rbp - 56], rax
	mov	qword ptr [rbp - 48], 1
	lea	rsi, [rbp - 88]
	mov	rdi, rbx
	call	__ZN4core3fmt9Formatter9write_fmt17h3dc2bf45afed3069E
	mov	cl, 1
	test	al, al
	jne	LBB71_8
	movq	xmm0, qword ptr [r15]
	pshufd	xmm0, xmm0, 212
	movdqa	xmmword ptr [rbp - 112], xmm0
	xor	r14d, r14d
	lea	r15, [rbp - 88]
	lea	r13, [rip + l___unnamed_3]
	cmp	r14, 2
	jne	LBB71_4
	jmp	LBB71_3
	.p2align	4, 0x90
LBB71_6:
	movdqa	xmm0, xmmword ptr [rbp - 112]
	movdqa	xmmword ptr [rbp - 128], xmm0
	lea	r12, [r14 + 1]
	and	r14d, 1
	cmp	dword ptr [rbp + 8*r14 - 128], 0
	setne	byte ptr [rbp - 88]
	mov	rdi, r15
	mov	rsi, rbx
	call	__ZN43_$LT$bool$u20$as$u20$core..fmt..Display$GT$3fmt17hf36463fa8b480ab4E
	mov	r14, r12
	test	al, al
	jne	LBB71_7
	cmp	r14, 2
	je	LBB71_3
LBB71_4:
	test	r14, r14
	je	LBB71_6
	mov	qword ptr [rbp - 88], r13
	mov	qword ptr [rbp - 80], 1
	mov	qword ptr [rbp - 72], 0
	lea	rax, [rip + l___unnamed_4]
	mov	qword ptr [rbp - 56], rax
	mov	qword ptr [rbp - 48], 0
	mov	rdi, rbx
	mov	rsi, r15
	call	__ZN4core3fmt9Formatter9write_fmt17h3dc2bf45afed3069E
	test	al, al
	je	LBB71_6
LBB71_7:
	mov	cl, 1
	jmp	LBB71_8
LBB71_3:
	lea	rax, [rip + l___unnamed_5]
	mov	qword ptr [rbp - 88], rax
	mov	qword ptr [rbp - 80], 1
	mov	qword ptr [rbp - 72], 0
	lea	rax, [rip + l___unnamed_4]
	mov	qword ptr [rbp - 56], rax
	mov	qword ptr [rbp - 48], 0
	lea	rsi, [rbp - 88]
	mov	rdi, rbx
	call	__ZN4core3fmt9Formatter9write_fmt17h3dc2bf45afed3069E
	mov	ecx, eax
LBB71_8:
	mov	eax, ecx
	add	rsp, 104
	pop	rbx
	pop	r12
	pop	r13
	pop	r14
	pop	r15
	pop	rbp
	ret
	.cfi_endproc

	.globl	__ZN11packed_simd3v6496_$LT$impl$u20$core..fmt..Debug$u20$for$u20$packed_simd..Simd$LT$$u5b$f32$u3b$$u20$2$u5d$$GT$$GT$3fmt17h9564fcfc155e8108E
	.p2align	4, 0x90
__ZN11packed_simd3v6496_$LT$impl$u20$core..fmt..Debug$u20$for$u20$packed_simd..Simd$LT$$u5b$f32$u3b$$u20$2$u5d$$GT$$GT$3fmt17h9564fcfc155e8108E:
	.cfi_startproc
	push	rbp
	.cfi_def_cfa_offset 16
	.cfi_offset rbp, -16
	mov	rbp, rsp
	.cfi_def_cfa_register rbp
	push	r15
	push	r14
	push	r13
	push	r12
	push	rbx
	sub	rsp, 104
	.cfi_offset rbx, -56
	.cfi_offset r12, -48
	.cfi_offset r13, -40
	.cfi_offset r14, -32
	.cfi_offset r15, -24
	mov	rbx, rsi
	mov	r15, rdi
	lea	rax, [rip + __ZN44_$LT$$RF$T$u20$as$u20$core..fmt..Display$GT$3fmt17he911d2ba7c50bb69E]
	movq	xmm0, rax
	lea	rax, [rip + l___unnamed_23]
	movq	xmm1, rax
	punpcklqdq	xmm1, xmm0
	movdqa	xmmword ptr [rbp - 144], xmm1
	lea	rax, [rip + l___unnamed_2]
	mov	qword ptr [rbp - 88], rax
	mov	qword ptr [rbp - 80], 2
	mov	qword ptr [rbp - 72], 0
	lea	rax, [rbp - 144]
	mov	qword ptr [rbp - 56], rax
	mov	qword ptr [rbp - 48], 1
	lea	rsi, [rbp - 88]
	mov	rdi, rbx
	call	__ZN4core3fmt9Formatter9write_fmt17h3dc2bf45afed3069E
	mov	cl, 1
	test	al, al
	jne	LBB72_8
	movq	xmm0, qword ptr [r15]
	movdqa	xmmword ptr [rbp - 112], xmm0
	xor	r14d, r14d
	lea	r15, [rbp - 88]
	lea	r13, [rip + l___unnamed_3]
	cmp	r14, 2
	jne	LBB72_4
	jmp	LBB72_3
	.p2align	4, 0x90
LBB72_6:
	movaps	xmm0, xmmword ptr [rbp - 112]
	movaps	xmmword ptr [rbp - 128], xmm0
	lea	r12, [r14 + 1]
	and	r14d, 3
	movd	xmm0, dword ptr [rbp + 4*r14 - 128]
	movd	dword ptr [rbp - 88], xmm0
	mov	rdi, r15
	mov	rsi, rbx
	call	__ZN4core3fmt5float50_$LT$impl$u20$core..fmt..Debug$u20$for$u20$f32$GT$3fmt17h1aed94fea29f73c8E
	mov	r14, r12
	test	al, al
	jne	LBB72_7
	cmp	r14, 2
	je	LBB72_3
LBB72_4:
	test	r14, r14
	je	LBB72_6
	mov	qword ptr [rbp - 88], r13
	mov	qword ptr [rbp - 80], 1
	mov	qword ptr [rbp - 72], 0
	lea	rax, [rip + l___unnamed_4]
	mov	qword ptr [rbp - 56], rax
	mov	qword ptr [rbp - 48], 0
	mov	rdi, rbx
	mov	rsi, r15
	call	__ZN4core3fmt9Formatter9write_fmt17h3dc2bf45afed3069E
	test	al, al
	je	LBB72_6
LBB72_7:
	mov	cl, 1
	jmp	LBB72_8
LBB72_3:
	lea	rax, [rip + l___unnamed_5]
	mov	qword ptr [rbp - 88], rax
	mov	qword ptr [rbp - 80], 1
	mov	qword ptr [rbp - 72], 0
	lea	rax, [rip + l___unnamed_4]
	mov	qword ptr [rbp - 56], rax
	mov	qword ptr [rbp - 48], 0
	lea	rsi, [rbp - 88]
	mov	rdi, rbx
	call	__ZN4core3fmt9Formatter9write_fmt17h3dc2bf45afed3069E
	mov	ecx, eax
LBB72_8:
	mov	eax, ecx
	add	rsp, 104
	pop	rbx
	pop	r12
	pop	r13
	pop	r14
	pop	r15
	pop	rbp
	ret
	.cfi_endproc

	.globl	__ZN11packed_simd4v12896_$LT$impl$u20$core..fmt..Debug$u20$for$u20$packed_simd..Simd$LT$$u5b$i8$u3b$$u20$16$u5d$$GT$$GT$3fmt17h025152c8eb141d07E
	.p2align	4, 0x90
__ZN11packed_simd4v12896_$LT$impl$u20$core..fmt..Debug$u20$for$u20$packed_simd..Simd$LT$$u5b$i8$u3b$$u20$16$u5d$$GT$$GT$3fmt17h025152c8eb141d07E:
	.cfi_startproc
	push	rbp
	.cfi_def_cfa_offset 16
	.cfi_offset rbp, -16
	mov	rbp, rsp
	.cfi_def_cfa_register rbp
	push	r15
	push	r14
	push	r13
	push	r12
	push	rbx
	sub	rsp, 104
	.cfi_offset rbx, -56
	.cfi_offset r12, -48
	.cfi_offset r13, -40
	.cfi_offset r14, -32
	.cfi_offset r15, -24
	mov	r13, rsi
	mov	r15, rdi
	lea	rax, [rip + __ZN44_$LT$$RF$T$u20$as$u20$core..fmt..Display$GT$3fmt17he911d2ba7c50bb69E]
	movq	xmm0, rax
	lea	rax, [rip + l___unnamed_24]
	movq	xmm1, rax
	punpcklqdq	xmm1, xmm0
	movdqa	xmmword ptr [rbp - 144], xmm1
	lea	rax, [rip + l___unnamed_2]
	mov	qword ptr [rbp - 88], rax
	mov	qword ptr [rbp - 80], 2
	mov	qword ptr [rbp - 72], 0
	lea	rax, [rbp - 144]
	mov	qword ptr [rbp - 56], rax
	mov	qword ptr [rbp - 48], 1
	lea	rsi, [rbp - 88]
	mov	rdi, r13
	call	__ZN4core3fmt9Formatter9write_fmt17h3dc2bf45afed3069E
	mov	cl, 1
	test	al, al
	jne	LBB73_12
	movdqa	xmm0, xmmword ptr [r15]
	movdqa	xmmword ptr [rbp - 112], xmm0
	xor	ebx, ebx
	lea	r15, [rbp - 88]
	lea	r14, [rip + l___unnamed_3]
	lea	r12, [rip + l___unnamed_4]
	.p2align	4, 0x90
LBB73_2:
	test	rbx, rbx
	je	LBB73_4
	mov	qword ptr [rbp - 88], r14
	mov	qword ptr [rbp - 80], 1
	mov	qword ptr [rbp - 72], 0
	mov	qword ptr [rbp - 56], r12
	mov	qword ptr [rbp - 48], 0
	mov	rdi, r13
	mov	rsi, r15
	call	__ZN4core3fmt9Formatter9write_fmt17h3dc2bf45afed3069E
	test	al, al
	jne	LBB73_11
LBB73_4:
	movdqa	xmm0, xmmword ptr [rbp - 112]
	movdqa	xmmword ptr [rbp - 128], xmm0
	mov	eax, ebx
	and	eax, 15
	movzx	eax, byte ptr [rbp + rax - 128]
	mov	byte ptr [rbp - 88], al
	mov	rdi, r13
	call	__ZN4core3fmt9Formatter15debug_lower_hex17h8530fbaeba13f4d9E
	test	al, al
	je	LBB73_5
	mov	rdi, r15
	mov	rsi, r13
	call	__ZN4core3fmt3num52_$LT$impl$u20$core..fmt..LowerHex$u20$for$u20$i8$GT$3fmt17h7f7e9f270a5d54c2E
	test	al, al
	jne	LBB73_11
LBB73_9:
	inc	rbx
	cmp	rbx, 16
	jne	LBB73_2
	jmp	LBB73_10
	.p2align	4, 0x90
LBB73_5:
	mov	rdi, r13
	call	__ZN4core3fmt9Formatter15debug_upper_hex17hf8fda15ec43a1e68E
	mov	rdi, r15
	mov	rsi, r13
	test	al, al
	je	LBB73_7
	call	__ZN4core3fmt3num52_$LT$impl$u20$core..fmt..UpperHex$u20$for$u20$i8$GT$3fmt17hd41115610f011194E
	test	al, al
	je	LBB73_9
	jmp	LBB73_11
	.p2align	4, 0x90
LBB73_7:
	call	__ZN4core3fmt3num3imp51_$LT$impl$u20$core..fmt..Display$u20$for$u20$i8$GT$3fmt17hc80f24a4257c3563E
	test	al, al
	je	LBB73_9
LBB73_11:
	mov	cl, 1
	jmp	LBB73_12
LBB73_10:
	lea	rax, [rip + l___unnamed_5]
	mov	qword ptr [rbp - 88], rax
	mov	qword ptr [rbp - 80], 1
	mov	qword ptr [rbp - 72], 0
	mov	qword ptr [rbp - 56], r12
	mov	qword ptr [rbp - 48], 0
	lea	rsi, [rbp - 88]
	mov	rdi, r13
	call	__ZN4core3fmt9Formatter9write_fmt17h3dc2bf45afed3069E
	mov	ecx, eax
LBB73_12:
	mov	eax, ecx
	add	rsp, 104
	pop	rbx
	pop	r12
	pop	r13
	pop	r14
	pop	r15
	pop	rbp
	ret
	.cfi_endproc

	.globl	__ZN11packed_simd4v12899_$LT$impl$u20$core..fmt..LowerHex$u20$for$u20$packed_simd..Simd$LT$$u5b$i8$u3b$$u20$16$u5d$$GT$$GT$3fmt17hb8cafd5bc7e52067E
	.p2align	4, 0x90
__ZN11packed_simd4v12899_$LT$impl$u20$core..fmt..LowerHex$u20$for$u20$packed_simd..Simd$LT$$u5b$i8$u3b$$u20$16$u5d$$GT$$GT$3fmt17hb8cafd5bc7e52067E:
	.cfi_startproc
	push	rbp
	.cfi_def_cfa_offset 16
	.cfi_offset rbp, -16
	mov	rbp, rsp
	.cfi_def_cfa_register rbp
	push	r15
	push	r14
	push	r13
	push	r12
	push	rbx
	sub	rsp, 104
	.cfi_offset rbx, -56
	.cfi_offset r12, -48
	.cfi_offset r13, -40
	.cfi_offset r14, -32
	.cfi_offset r15, -24
	mov	rbx, rsi
	mov	r15, rdi
	lea	rax, [rip + __ZN44_$LT$$RF$T$u20$as$u20$core..fmt..Display$GT$3fmt17he911d2ba7c50bb69E]
	movq	xmm0, rax
	lea	rax, [rip + l___unnamed_24]
	movq	xmm1, rax
	punpcklqdq	xmm1, xmm0
	movdqa	xmmword ptr [rbp - 144], xmm1
	lea	rax, [rip + l___unnamed_2]
	mov	qword ptr [rbp - 88], rax
	mov	qword ptr [rbp - 80], 2
	mov	qword ptr [rbp - 72], 0
	lea	rax, [rbp - 144]
	mov	qword ptr [rbp - 56], rax
	mov	qword ptr [rbp - 48], 1
	lea	rsi, [rbp - 88]
	mov	rdi, rbx
	call	__ZN4core3fmt9Formatter9write_fmt17h3dc2bf45afed3069E
	mov	cl, 1
	test	al, al
	jne	LBB74_8
	movdqa	xmm0, xmmword ptr [r15]
	movdqa	xmmword ptr [rbp - 112], xmm0
	xor	r14d, r14d
	lea	r15, [rbp - 88]
	lea	r13, [rip + l___unnamed_3]
	cmp	r14, 16
	jne	LBB74_4
	jmp	LBB74_3
	.p2align	4, 0x90
LBB74_6:
	movdqa	xmm0, xmmword ptr [rbp - 112]
	movdqa	xmmword ptr [rbp - 128], xmm0
	lea	r12, [r14 + 1]
	and	r14d, 15
	movzx	eax, byte ptr [rbp + r14 - 128]
	mov	byte ptr [rbp - 88], al
	mov	rdi, r15
	mov	rsi, rbx
	call	__ZN4core3fmt3num52_$LT$impl$u20$core..fmt..LowerHex$u20$for$u20$i8$GT$3fmt17h7f7e9f270a5d54c2E
	mov	r14, r12
	test	al, al
	jne	LBB74_7
	cmp	r14, 16
	je	LBB74_3
LBB74_4:
	test	r14, r14
	je	LBB74_6
	mov	qword ptr [rbp - 88], r13
	mov	qword ptr [rbp - 80], 1
	mov	qword ptr [rbp - 72], 0
	lea	rax, [rip + l___unnamed_4]
	mov	qword ptr [rbp - 56], rax
	mov	qword ptr [rbp - 48], 0
	mov	rdi, rbx
	mov	rsi, r15
	call	__ZN4core3fmt9Formatter9write_fmt17h3dc2bf45afed3069E
	test	al, al
	je	LBB74_6
LBB74_7:
	mov	cl, 1
	jmp	LBB74_8
LBB74_3:
	lea	rax, [rip + l___unnamed_5]
	mov	qword ptr [rbp - 88], rax
	mov	qword ptr [rbp - 80], 1
	mov	qword ptr [rbp - 72], 0
	lea	rax, [rip + l___unnamed_4]
	mov	qword ptr [rbp - 56], rax
	mov	qword ptr [rbp - 48], 0
	lea	rsi, [rbp - 88]
	mov	rdi, rbx
	call	__ZN4core3fmt9Formatter9write_fmt17h3dc2bf45afed3069E
	mov	ecx, eax
LBB74_8:
	mov	eax, ecx
	add	rsp, 104
	pop	rbx
	pop	r12
	pop	r13
	pop	r14
	pop	r15
	pop	rbp
	ret
	.cfi_endproc

	.globl	__ZN11packed_simd4v12899_$LT$impl$u20$core..fmt..UpperHex$u20$for$u20$packed_simd..Simd$LT$$u5b$i8$u3b$$u20$16$u5d$$GT$$GT$3fmt17hb9627c0ca6fbf45cE
	.p2align	4, 0x90
__ZN11packed_simd4v12899_$LT$impl$u20$core..fmt..UpperHex$u20$for$u20$packed_simd..Simd$LT$$u5b$i8$u3b$$u20$16$u5d$$GT$$GT$3fmt17hb9627c0ca6fbf45cE:
	.cfi_startproc
	push	rbp
	.cfi_def_cfa_offset 16
	.cfi_offset rbp, -16
	mov	rbp, rsp
	.cfi_def_cfa_register rbp
	push	r15
	push	r14
	push	r13
	push	r12
	push	rbx
	sub	rsp, 104
	.cfi_offset rbx, -56
	.cfi_offset r12, -48
	.cfi_offset r13, -40
	.cfi_offset r14, -32
	.cfi_offset r15, -24
	mov	rbx, rsi
	mov	r15, rdi
	lea	rax, [rip + __ZN44_$LT$$RF$T$u20$as$u20$core..fmt..Display$GT$3fmt17he911d2ba7c50bb69E]
	movq	xmm0, rax
	lea	rax, [rip + l___unnamed_24]
	movq	xmm1, rax
	punpcklqdq	xmm1, xmm0
	movdqa	xmmword ptr [rbp - 144], xmm1
	lea	rax, [rip + l___unnamed_2]
	mov	qword ptr [rbp - 88], rax
	mov	qword ptr [rbp - 80], 2
	mov	qword ptr [rbp - 72], 0
	lea	rax, [rbp - 144]
	mov	qword ptr [rbp - 56], rax
	mov	qword ptr [rbp - 48], 1
	lea	rsi, [rbp - 88]
	mov	rdi, rbx
	call	__ZN4core3fmt9Formatter9write_fmt17h3dc2bf45afed3069E
	mov	cl, 1
	test	al, al
	jne	LBB75_8
	movdqa	xmm0, xmmword ptr [r15]
	movdqa	xmmword ptr [rbp - 112], xmm0
	xor	r14d, r14d
	lea	r15, [rbp - 88]
	lea	r13, [rip + l___unnamed_3]
	cmp	r14, 16
	jne	LBB75_4
	jmp	LBB75_3
	.p2align	4, 0x90
LBB75_6:
	movdqa	xmm0, xmmword ptr [rbp - 112]
	movdqa	xmmword ptr [rbp - 128], xmm0
	lea	r12, [r14 + 1]
	and	r14d, 15
	movzx	eax, byte ptr [rbp + r14 - 128]
	mov	byte ptr [rbp - 88], al
	mov	rdi, r15
	mov	rsi, rbx
	call	__ZN4core3fmt3num52_$LT$impl$u20$core..fmt..UpperHex$u20$for$u20$i8$GT$3fmt17hd41115610f011194E
	mov	r14, r12
	test	al, al
	jne	LBB75_7
	cmp	r14, 16
	je	LBB75_3
LBB75_4:
	test	r14, r14
	je	LBB75_6
	mov	qword ptr [rbp - 88], r13
	mov	qword ptr [rbp - 80], 1
	mov	qword ptr [rbp - 72], 0
	lea	rax, [rip + l___unnamed_4]
	mov	qword ptr [rbp - 56], rax
	mov	qword ptr [rbp - 48], 0
	mov	rdi, rbx
	mov	rsi, r15
	call	__ZN4core3fmt9Formatter9write_fmt17h3dc2bf45afed3069E
	test	al, al
	je	LBB75_6
LBB75_7:
	mov	cl, 1
	jmp	LBB75_8
LBB75_3:
	lea	rax, [rip + l___unnamed_5]
	mov	qword ptr [rbp - 88], rax
	mov	qword ptr [rbp - 80], 1
	mov	qword ptr [rbp - 72], 0
	lea	rax, [rip + l___unnamed_4]
	mov	qword ptr [rbp - 56], rax
	mov	qword ptr [rbp - 48], 0
	lea	rsi, [rbp - 88]
	mov	rdi, rbx
	call	__ZN4core3fmt9Formatter9write_fmt17h3dc2bf45afed3069E
	mov	ecx, eax
LBB75_8:
	mov	eax, ecx
	add	rsp, 104
	pop	rbx
	pop	r12
	pop	r13
	pop	r14
	pop	r15
	pop	rbp
	ret
	.cfi_endproc

	.globl	__ZN11packed_simd4v12896_$LT$impl$u20$core..fmt..Octal$u20$for$u20$packed_simd..Simd$LT$$u5b$i8$u3b$$u20$16$u5d$$GT$$GT$3fmt17hf08395ffc725c313E
	.p2align	4, 0x90
__ZN11packed_simd4v12896_$LT$impl$u20$core..fmt..Octal$u20$for$u20$packed_simd..Simd$LT$$u5b$i8$u3b$$u20$16$u5d$$GT$$GT$3fmt17hf08395ffc725c313E:
	.cfi_startproc
	push	rbp
	.cfi_def_cfa_offset 16
	.cfi_offset rbp, -16
	mov	rbp, rsp
	.cfi_def_cfa_register rbp
	push	r15
	push	r14
	push	r13
	push	r12
	push	rbx
	sub	rsp, 104
	.cfi_offset rbx, -56
	.cfi_offset r12, -48
	.cfi_offset r13, -40
	.cfi_offset r14, -32
	.cfi_offset r15, -24
	mov	rbx, rsi
	mov	r15, rdi
	lea	rax, [rip + __ZN44_$LT$$RF$T$u20$as$u20$core..fmt..Display$GT$3fmt17he911d2ba7c50bb69E]
	movq	xmm0, rax
	lea	rax, [rip + l___unnamed_24]
	movq	xmm1, rax
	punpcklqdq	xmm1, xmm0
	movdqa	xmmword ptr [rbp - 144], xmm1
	lea	rax, [rip + l___unnamed_2]
	mov	qword ptr [rbp - 88], rax
	mov	qword ptr [rbp - 80], 2
	mov	qword ptr [rbp - 72], 0
	lea	rax, [rbp - 144]
	mov	qword ptr [rbp - 56], rax
	mov	qword ptr [rbp - 48], 1
	lea	rsi, [rbp - 88]
	mov	rdi, rbx
	call	__ZN4core3fmt9Formatter9write_fmt17h3dc2bf45afed3069E
	mov	cl, 1
	test	al, al
	jne	LBB76_8
	movdqa	xmm0, xmmword ptr [r15]
	movdqa	xmmword ptr [rbp - 112], xmm0
	xor	r14d, r14d
	lea	r15, [rbp - 88]
	lea	r13, [rip + l___unnamed_3]
	cmp	r14, 16
	jne	LBB76_4
	jmp	LBB76_3
	.p2align	4, 0x90
LBB76_6:
	movdqa	xmm0, xmmword ptr [rbp - 112]
	movdqa	xmmword ptr [rbp - 128], xmm0
	lea	r12, [r14 + 1]
	and	r14d, 15
	movzx	eax, byte ptr [rbp + r14 - 128]
	mov	byte ptr [rbp - 88], al
	mov	rdi, r15
	mov	rsi, rbx
	call	__ZN4core3fmt3num49_$LT$impl$u20$core..fmt..Octal$u20$for$u20$i8$GT$3fmt17h29cc81c11127ecd6E
	mov	r14, r12
	test	al, al
	jne	LBB76_7
	cmp	r14, 16
	je	LBB76_3
LBB76_4:
	test	r14, r14
	je	LBB76_6
	mov	qword ptr [rbp - 88], r13
	mov	qword ptr [rbp - 80], 1
	mov	qword ptr [rbp - 72], 0
	lea	rax, [rip + l___unnamed_4]
	mov	qword ptr [rbp - 56], rax
	mov	qword ptr [rbp - 48], 0
	mov	rdi, rbx
	mov	rsi, r15
	call	__ZN4core3fmt9Formatter9write_fmt17h3dc2bf45afed3069E
	test	al, al
	je	LBB76_6
LBB76_7:
	mov	cl, 1
	jmp	LBB76_8
LBB76_3:
	lea	rax, [rip + l___unnamed_5]
	mov	qword ptr [rbp - 88], rax
	mov	qword ptr [rbp - 80], 1
	mov	qword ptr [rbp - 72], 0
	lea	rax, [rip + l___unnamed_4]
	mov	qword ptr [rbp - 56], rax
	mov	qword ptr [rbp - 48], 0
	lea	rsi, [rbp - 88]
	mov	rdi, rbx
	call	__ZN4core3fmt9Formatter9write_fmt17h3dc2bf45afed3069E
	mov	ecx, eax
LBB76_8:
	mov	eax, ecx
	add	rsp, 104
	pop	rbx
	pop	r12
	pop	r13
	pop	r14
	pop	r15
	pop	rbp
	ret
	.cfi_endproc

	.globl	__ZN11packed_simd4v12897_$LT$impl$u20$core..fmt..Binary$u20$for$u20$packed_simd..Simd$LT$$u5b$i8$u3b$$u20$16$u5d$$GT$$GT$3fmt17hdae845c03e2219b6E
	.p2align	4, 0x90
__ZN11packed_simd4v12897_$LT$impl$u20$core..fmt..Binary$u20$for$u20$packed_simd..Simd$LT$$u5b$i8$u3b$$u20$16$u5d$$GT$$GT$3fmt17hdae845c03e2219b6E:
	.cfi_startproc
	push	rbp
	.cfi_def_cfa_offset 16
	.cfi_offset rbp, -16
	mov	rbp, rsp
	.cfi_def_cfa_register rbp
	push	r15
	push	r14
	push	r13
	push	r12
	push	rbx
	sub	rsp, 104
	.cfi_offset rbx, -56
	.cfi_offset r12, -48
	.cfi_offset r13, -40
	.cfi_offset r14, -32
	.cfi_offset r15, -24
	mov	rbx, rsi
	mov	r15, rdi
	lea	rax, [rip + __ZN44_$LT$$RF$T$u20$as$u20$core..fmt..Display$GT$3fmt17he911d2ba7c50bb69E]
	movq	xmm0, rax
	lea	rax, [rip + l___unnamed_24]
	movq	xmm1, rax
	punpcklqdq	xmm1, xmm0
	movdqa	xmmword ptr [rbp - 144], xmm1
	lea	rax, [rip + l___unnamed_2]
	mov	qword ptr [rbp - 88], rax
	mov	qword ptr [rbp - 80], 2
	mov	qword ptr [rbp - 72], 0
	lea	rax, [rbp - 144]
	mov	qword ptr [rbp - 56], rax
	mov	qword ptr [rbp - 48], 1
	lea	rsi, [rbp - 88]
	mov	rdi, rbx
	call	__ZN4core3fmt9Formatter9write_fmt17h3dc2bf45afed3069E
	mov	cl, 1
	test	al, al
	jne	LBB77_8
	movdqa	xmm0, xmmword ptr [r15]
	movdqa	xmmword ptr [rbp - 112], xmm0
	xor	r14d, r14d
	lea	r15, [rbp - 88]
	lea	r13, [rip + l___unnamed_3]
	cmp	r14, 16
	jne	LBB77_4
	jmp	LBB77_3
	.p2align	4, 0x90
LBB77_6:
	movdqa	xmm0, xmmword ptr [rbp - 112]
	movdqa	xmmword ptr [rbp - 128], xmm0
	lea	r12, [r14 + 1]
	and	r14d, 15
	movzx	eax, byte ptr [rbp + r14 - 128]
	mov	byte ptr [rbp - 88], al
	mov	rdi, r15
	mov	rsi, rbx
	call	__ZN4core3fmt3num50_$LT$impl$u20$core..fmt..Binary$u20$for$u20$i8$GT$3fmt17h6b85acc99cf4b968E
	mov	r14, r12
	test	al, al
	jne	LBB77_7
	cmp	r14, 16
	je	LBB77_3
LBB77_4:
	test	r14, r14
	je	LBB77_6
	mov	qword ptr [rbp - 88], r13
	mov	qword ptr [rbp - 80], 1
	mov	qword ptr [rbp - 72], 0
	lea	rax, [rip + l___unnamed_4]
	mov	qword ptr [rbp - 56], rax
	mov	qword ptr [rbp - 48], 0
	mov	rdi, rbx
	mov	rsi, r15
	call	__ZN4core3fmt9Formatter9write_fmt17h3dc2bf45afed3069E
	test	al, al
	je	LBB77_6
LBB77_7:
	mov	cl, 1
	jmp	LBB77_8
LBB77_3:
	lea	rax, [rip + l___unnamed_5]
	mov	qword ptr [rbp - 88], rax
	mov	qword ptr [rbp - 80], 1
	mov	qword ptr [rbp - 72], 0
	lea	rax, [rip + l___unnamed_4]
	mov	qword ptr [rbp - 56], rax
	mov	qword ptr [rbp - 48], 0
	lea	rsi, [rbp - 88]
	mov	rdi, rbx
	call	__ZN4core3fmt9Formatter9write_fmt17h3dc2bf45afed3069E
	mov	ecx, eax
LBB77_8:
	mov	eax, ecx
	add	rsp, 104
	pop	rbx
	pop	r12
	pop	r13
	pop	r14
	pop	r15
	pop	rbp
	ret
	.cfi_endproc

	.globl	__ZN11packed_simd4v12896_$LT$impl$u20$core..fmt..Debug$u20$for$u20$packed_simd..Simd$LT$$u5b$u8$u3b$$u20$16$u5d$$GT$$GT$3fmt17hddca4ffc6009d000E
	.p2align	4, 0x90
__ZN11packed_simd4v12896_$LT$impl$u20$core..fmt..Debug$u20$for$u20$packed_simd..Simd$LT$$u5b$u8$u3b$$u20$16$u5d$$GT$$GT$3fmt17hddca4ffc6009d000E:
	.cfi_startproc
	push	rbp
	.cfi_def_cfa_offset 16
	.cfi_offset rbp, -16
	mov	rbp, rsp
	.cfi_def_cfa_register rbp
	push	r15
	push	r14
	push	r13
	push	r12
	push	rbx
	sub	rsp, 104
	.cfi_offset rbx, -56
	.cfi_offset r12, -48
	.cfi_offset r13, -40
	.cfi_offset r14, -32
	.cfi_offset r15, -24
	mov	r13, rsi
	mov	r15, rdi
	lea	rax, [rip + __ZN44_$LT$$RF$T$u20$as$u20$core..fmt..Display$GT$3fmt17he911d2ba7c50bb69E]
	movq	xmm0, rax
	lea	rax, [rip + l___unnamed_25]
	movq	xmm1, rax
	punpcklqdq	xmm1, xmm0
	movdqa	xmmword ptr [rbp - 144], xmm1
	lea	rax, [rip + l___unnamed_2]
	mov	qword ptr [rbp - 88], rax
	mov	qword ptr [rbp - 80], 2
	mov	qword ptr [rbp - 72], 0
	lea	rax, [rbp - 144]
	mov	qword ptr [rbp - 56], rax
	mov	qword ptr [rbp - 48], 1
	lea	rsi, [rbp - 88]
	mov	rdi, r13
	call	__ZN4core3fmt9Formatter9write_fmt17h3dc2bf45afed3069E
	mov	cl, 1
	test	al, al
	jne	LBB78_12
	movdqa	xmm0, xmmword ptr [r15]
	movdqa	xmmword ptr [rbp - 112], xmm0
	xor	ebx, ebx
	lea	r15, [rbp - 88]
	lea	r14, [rip + l___unnamed_3]
	lea	r12, [rip + l___unnamed_4]
	.p2align	4, 0x90
LBB78_2:
	test	rbx, rbx
	je	LBB78_4
	mov	qword ptr [rbp - 88], r14
	mov	qword ptr [rbp - 80], 1
	mov	qword ptr [rbp - 72], 0
	mov	qword ptr [rbp - 56], r12
	mov	qword ptr [rbp - 48], 0
	mov	rdi, r13
	mov	rsi, r15
	call	__ZN4core3fmt9Formatter9write_fmt17h3dc2bf45afed3069E
	test	al, al
	jne	LBB78_11
LBB78_4:
	movdqa	xmm0, xmmword ptr [rbp - 112]
	movdqa	xmmword ptr [rbp - 128], xmm0
	mov	eax, ebx
	and	eax, 15
	movzx	eax, byte ptr [rbp + rax - 128]
	mov	byte ptr [rbp - 88], al
	mov	rdi, r13
	call	__ZN4core3fmt9Formatter15debug_lower_hex17h8530fbaeba13f4d9E
	test	al, al
	je	LBB78_5
	mov	rdi, r15
	mov	rsi, r13
	call	__ZN4core3fmt3num52_$LT$impl$u20$core..fmt..LowerHex$u20$for$u20$u8$GT$3fmt17h7701faa643a10c55E
	test	al, al
	jne	LBB78_11
LBB78_9:
	inc	rbx
	cmp	rbx, 16
	jne	LBB78_2
	jmp	LBB78_10
	.p2align	4, 0x90
LBB78_5:
	mov	rdi, r13
	call	__ZN4core3fmt9Formatter15debug_upper_hex17hf8fda15ec43a1e68E
	mov	rdi, r15
	mov	rsi, r13
	test	al, al
	je	LBB78_7
	call	__ZN4core3fmt3num52_$LT$impl$u20$core..fmt..UpperHex$u20$for$u20$u8$GT$3fmt17ha797e73a900719d8E
	test	al, al
	je	LBB78_9
	jmp	LBB78_11
	.p2align	4, 0x90
LBB78_7:
	call	__ZN4core3fmt3num3imp51_$LT$impl$u20$core..fmt..Display$u20$for$u20$u8$GT$3fmt17h0e89df114e53d66dE
	test	al, al
	je	LBB78_9
LBB78_11:
	mov	cl, 1
	jmp	LBB78_12
LBB78_10:
	lea	rax, [rip + l___unnamed_5]
	mov	qword ptr [rbp - 88], rax
	mov	qword ptr [rbp - 80], 1
	mov	qword ptr [rbp - 72], 0
	mov	qword ptr [rbp - 56], r12
	mov	qword ptr [rbp - 48], 0
	lea	rsi, [rbp - 88]
	mov	rdi, r13
	call	__ZN4core3fmt9Formatter9write_fmt17h3dc2bf45afed3069E
	mov	ecx, eax
LBB78_12:
	mov	eax, ecx
	add	rsp, 104
	pop	rbx
	pop	r12
	pop	r13
	pop	r14
	pop	r15
	pop	rbp
	ret
	.cfi_endproc

	.globl	__ZN11packed_simd4v12899_$LT$impl$u20$core..fmt..LowerHex$u20$for$u20$packed_simd..Simd$LT$$u5b$u8$u3b$$u20$16$u5d$$GT$$GT$3fmt17hf6415ce1c7bba454E
	.p2align	4, 0x90
__ZN11packed_simd4v12899_$LT$impl$u20$core..fmt..LowerHex$u20$for$u20$packed_simd..Simd$LT$$u5b$u8$u3b$$u20$16$u5d$$GT$$GT$3fmt17hf6415ce1c7bba454E:
	.cfi_startproc
	push	rbp
	.cfi_def_cfa_offset 16
	.cfi_offset rbp, -16
	mov	rbp, rsp
	.cfi_def_cfa_register rbp
	push	r15
	push	r14
	push	r13
	push	r12
	push	rbx
	sub	rsp, 104
	.cfi_offset rbx, -56
	.cfi_offset r12, -48
	.cfi_offset r13, -40
	.cfi_offset r14, -32
	.cfi_offset r15, -24
	mov	rbx, rsi
	mov	r15, rdi
	lea	rax, [rip + __ZN44_$LT$$RF$T$u20$as$u20$core..fmt..Display$GT$3fmt17he911d2ba7c50bb69E]
	movq	xmm0, rax
	lea	rax, [rip + l___unnamed_25]
	movq	xmm1, rax
	punpcklqdq	xmm1, xmm0
	movdqa	xmmword ptr [rbp - 144], xmm1
	lea	rax, [rip + l___unnamed_2]
	mov	qword ptr [rbp - 88], rax
	mov	qword ptr [rbp - 80], 2
	mov	qword ptr [rbp - 72], 0
	lea	rax, [rbp - 144]
	mov	qword ptr [rbp - 56], rax
	mov	qword ptr [rbp - 48], 1
	lea	rsi, [rbp - 88]
	mov	rdi, rbx
	call	__ZN4core3fmt9Formatter9write_fmt17h3dc2bf45afed3069E
	mov	cl, 1
	test	al, al
	jne	LBB79_8
	movdqa	xmm0, xmmword ptr [r15]
	movdqa	xmmword ptr [rbp - 112], xmm0
	xor	r14d, r14d
	lea	r15, [rbp - 88]
	lea	r13, [rip + l___unnamed_3]
	cmp	r14, 16
	jne	LBB79_4
	jmp	LBB79_3
	.p2align	4, 0x90
LBB79_6:
	movdqa	xmm0, xmmword ptr [rbp - 112]
	movdqa	xmmword ptr [rbp - 128], xmm0
	lea	r12, [r14 + 1]
	and	r14d, 15
	movzx	eax, byte ptr [rbp + r14 - 128]
	mov	byte ptr [rbp - 88], al
	mov	rdi, r15
	mov	rsi, rbx
	call	__ZN4core3fmt3num52_$LT$impl$u20$core..fmt..LowerHex$u20$for$u20$u8$GT$3fmt17h7701faa643a10c55E
	mov	r14, r12
	test	al, al
	jne	LBB79_7
	cmp	r14, 16
	je	LBB79_3
LBB79_4:
	test	r14, r14
	je	LBB79_6
	mov	qword ptr [rbp - 88], r13
	mov	qword ptr [rbp - 80], 1
	mov	qword ptr [rbp - 72], 0
	lea	rax, [rip + l___unnamed_4]
	mov	qword ptr [rbp - 56], rax
	mov	qword ptr [rbp - 48], 0
	mov	rdi, rbx
	mov	rsi, r15
	call	__ZN4core3fmt9Formatter9write_fmt17h3dc2bf45afed3069E
	test	al, al
	je	LBB79_6
LBB79_7:
	mov	cl, 1
	jmp	LBB79_8
LBB79_3:
	lea	rax, [rip + l___unnamed_5]
	mov	qword ptr [rbp - 88], rax
	mov	qword ptr [rbp - 80], 1
	mov	qword ptr [rbp - 72], 0
	lea	rax, [rip + l___unnamed_4]
	mov	qword ptr [rbp - 56], rax
	mov	qword ptr [rbp - 48], 0
	lea	rsi, [rbp - 88]
	mov	rdi, rbx
	call	__ZN4core3fmt9Formatter9write_fmt17h3dc2bf45afed3069E
	mov	ecx, eax
LBB79_8:
	mov	eax, ecx
	add	rsp, 104
	pop	rbx
	pop	r12
	pop	r13
	pop	r14
	pop	r15
	pop	rbp
	ret
	.cfi_endproc

	.globl	__ZN11packed_simd4v12899_$LT$impl$u20$core..fmt..UpperHex$u20$for$u20$packed_simd..Simd$LT$$u5b$u8$u3b$$u20$16$u5d$$GT$$GT$3fmt17hca60e6f119ccb94cE
	.p2align	4, 0x90
__ZN11packed_simd4v12899_$LT$impl$u20$core..fmt..UpperHex$u20$for$u20$packed_simd..Simd$LT$$u5b$u8$u3b$$u20$16$u5d$$GT$$GT$3fmt17hca60e6f119ccb94cE:
	.cfi_startproc
	push	rbp
	.cfi_def_cfa_offset 16
	.cfi_offset rbp, -16
	mov	rbp, rsp
	.cfi_def_cfa_register rbp
	push	r15
	push	r14
	push	r13
	push	r12
	push	rbx
	sub	rsp, 104
	.cfi_offset rbx, -56
	.cfi_offset r12, -48
	.cfi_offset r13, -40
	.cfi_offset r14, -32
	.cfi_offset r15, -24
	mov	rbx, rsi
	mov	r15, rdi
	lea	rax, [rip + __ZN44_$LT$$RF$T$u20$as$u20$core..fmt..Display$GT$3fmt17he911d2ba7c50bb69E]
	movq	xmm0, rax
	lea	rax, [rip + l___unnamed_25]
	movq	xmm1, rax
	punpcklqdq	xmm1, xmm0
	movdqa	xmmword ptr [rbp - 144], xmm1
	lea	rax, [rip + l___unnamed_2]
	mov	qword ptr [rbp - 88], rax
	mov	qword ptr [rbp - 80], 2
	mov	qword ptr [rbp - 72], 0
	lea	rax, [rbp - 144]
	mov	qword ptr [rbp - 56], rax
	mov	qword ptr [rbp - 48], 1
	lea	rsi, [rbp - 88]
	mov	rdi, rbx
	call	__ZN4core3fmt9Formatter9write_fmt17h3dc2bf45afed3069E
	mov	cl, 1
	test	al, al
	jne	LBB80_8
	movdqa	xmm0, xmmword ptr [r15]
	movdqa	xmmword ptr [rbp - 112], xmm0
	xor	r14d, r14d
	lea	r15, [rbp - 88]
	lea	r13, [rip + l___unnamed_3]
	cmp	r14, 16
	jne	LBB80_4
	jmp	LBB80_3
	.p2align	4, 0x90
LBB80_6:
	movdqa	xmm0, xmmword ptr [rbp - 112]
	movdqa	xmmword ptr [rbp - 128], xmm0
	lea	r12, [r14 + 1]
	and	r14d, 15
	movzx	eax, byte ptr [rbp + r14 - 128]
	mov	byte ptr [rbp - 88], al
	mov	rdi, r15
	mov	rsi, rbx
	call	__ZN4core3fmt3num52_$LT$impl$u20$core..fmt..UpperHex$u20$for$u20$u8$GT$3fmt17ha797e73a900719d8E
	mov	r14, r12
	test	al, al
	jne	LBB80_7
	cmp	r14, 16
	je	LBB80_3
LBB80_4:
	test	r14, r14
	je	LBB80_6
	mov	qword ptr [rbp - 88], r13
	mov	qword ptr [rbp - 80], 1
	mov	qword ptr [rbp - 72], 0
	lea	rax, [rip + l___unnamed_4]
	mov	qword ptr [rbp - 56], rax
	mov	qword ptr [rbp - 48], 0
	mov	rdi, rbx
	mov	rsi, r15
	call	__ZN4core3fmt9Formatter9write_fmt17h3dc2bf45afed3069E
	test	al, al
	je	LBB80_6
LBB80_7:
	mov	cl, 1
	jmp	LBB80_8
LBB80_3:
	lea	rax, [rip + l___unnamed_5]
	mov	qword ptr [rbp - 88], rax
	mov	qword ptr [rbp - 80], 1
	mov	qword ptr [rbp - 72], 0
	lea	rax, [rip + l___unnamed_4]
	mov	qword ptr [rbp - 56], rax
	mov	qword ptr [rbp - 48], 0
	lea	rsi, [rbp - 88]
	mov	rdi, rbx
	call	__ZN4core3fmt9Formatter9write_fmt17h3dc2bf45afed3069E
	mov	ecx, eax
LBB80_8:
	mov	eax, ecx
	add	rsp, 104
	pop	rbx
	pop	r12
	pop	r13
	pop	r14
	pop	r15
	pop	rbp
	ret
	.cfi_endproc

	.globl	__ZN11packed_simd4v12896_$LT$impl$u20$core..fmt..Octal$u20$for$u20$packed_simd..Simd$LT$$u5b$u8$u3b$$u20$16$u5d$$GT$$GT$3fmt17hcd1acd12f564b273E
	.p2align	4, 0x90
__ZN11packed_simd4v12896_$LT$impl$u20$core..fmt..Octal$u20$for$u20$packed_simd..Simd$LT$$u5b$u8$u3b$$u20$16$u5d$$GT$$GT$3fmt17hcd1acd12f564b273E:
	.cfi_startproc
	push	rbp
	.cfi_def_cfa_offset 16
	.cfi_offset rbp, -16
	mov	rbp, rsp
	.cfi_def_cfa_register rbp
	push	r15
	push	r14
	push	r13
	push	r12
	push	rbx
	sub	rsp, 104
	.cfi_offset rbx, -56
	.cfi_offset r12, -48
	.cfi_offset r13, -40
	.cfi_offset r14, -32
	.cfi_offset r15, -24
	mov	rbx, rsi
	mov	r15, rdi
	lea	rax, [rip + __ZN44_$LT$$RF$T$u20$as$u20$core..fmt..Display$GT$3fmt17he911d2ba7c50bb69E]
	movq	xmm0, rax
	lea	rax, [rip + l___unnamed_25]
	movq	xmm1, rax
	punpcklqdq	xmm1, xmm0
	movdqa	xmmword ptr [rbp - 144], xmm1
	lea	rax, [rip + l___unnamed_2]
	mov	qword ptr [rbp - 88], rax
	mov	qword ptr [rbp - 80], 2
	mov	qword ptr [rbp - 72], 0
	lea	rax, [rbp - 144]
	mov	qword ptr [rbp - 56], rax
	mov	qword ptr [rbp - 48], 1
	lea	rsi, [rbp - 88]
	mov	rdi, rbx
	call	__ZN4core3fmt9Formatter9write_fmt17h3dc2bf45afed3069E
	mov	cl, 1
	test	al, al
	jne	LBB81_8
	movdqa	xmm0, xmmword ptr [r15]
	movdqa	xmmword ptr [rbp - 112], xmm0
	xor	r14d, r14d
	lea	r15, [rbp - 88]
	lea	r13, [rip + l___unnamed_3]
	cmp	r14, 16
	jne	LBB81_4
	jmp	LBB81_3
	.p2align	4, 0x90
LBB81_6:
	movdqa	xmm0, xmmword ptr [rbp - 112]
	movdqa	xmmword ptr [rbp - 128], xmm0
	lea	r12, [r14 + 1]
	and	r14d, 15
	movzx	eax, byte ptr [rbp + r14 - 128]
	mov	byte ptr [rbp - 88], al
	mov	rdi, r15
	mov	rsi, rbx
	call	__ZN4core3fmt3num49_$LT$impl$u20$core..fmt..Octal$u20$for$u20$u8$GT$3fmt17hc6b20516a790ff98E
	mov	r14, r12
	test	al, al
	jne	LBB81_7
	cmp	r14, 16
	je	LBB81_3
LBB81_4:
	test	r14, r14
	je	LBB81_6
	mov	qword ptr [rbp - 88], r13
	mov	qword ptr [rbp - 80], 1
	mov	qword ptr [rbp - 72], 0
	lea	rax, [rip + l___unnamed_4]
	mov	qword ptr [rbp - 56], rax
	mov	qword ptr [rbp - 48], 0
	mov	rdi, rbx
	mov	rsi, r15
	call	__ZN4core3fmt9Formatter9write_fmt17h3dc2bf45afed3069E
	test	al, al
	je	LBB81_6
LBB81_7:
	mov	cl, 1
	jmp	LBB81_8
LBB81_3:
	lea	rax, [rip + l___unnamed_5]
	mov	qword ptr [rbp - 88], rax
	mov	qword ptr [rbp - 80], 1
	mov	qword ptr [rbp - 72], 0
	lea	rax, [rip + l___unnamed_4]
	mov	qword ptr [rbp - 56], rax
	mov	qword ptr [rbp - 48], 0
	lea	rsi, [rbp - 88]
	mov	rdi, rbx
	call	__ZN4core3fmt9Formatter9write_fmt17h3dc2bf45afed3069E
	mov	ecx, eax
LBB81_8:
	mov	eax, ecx
	add	rsp, 104
	pop	rbx
	pop	r12
	pop	r13
	pop	r14
	pop	r15
	pop	rbp
	ret
	.cfi_endproc

	.globl	__ZN11packed_simd4v12897_$LT$impl$u20$core..fmt..Binary$u20$for$u20$packed_simd..Simd$LT$$u5b$u8$u3b$$u20$16$u5d$$GT$$GT$3fmt17h74b134aac60e3293E
	.p2align	4, 0x90
__ZN11packed_simd4v12897_$LT$impl$u20$core..fmt..Binary$u20$for$u20$packed_simd..Simd$LT$$u5b$u8$u3b$$u20$16$u5d$$GT$$GT$3fmt17h74b134aac60e3293E:
	.cfi_startproc
	push	rbp
	.cfi_def_cfa_offset 16
	.cfi_offset rbp, -16
	mov	rbp, rsp
	.cfi_def_cfa_register rbp
	push	r15
	push	r14
	push	r13
	push	r12
	push	rbx
	sub	rsp, 104
	.cfi_offset rbx, -56
	.cfi_offset r12, -48
	.cfi_offset r13, -40
	.cfi_offset r14, -32
	.cfi_offset r15, -24
	mov	rbx, rsi
	mov	r15, rdi
	lea	rax, [rip + __ZN44_$LT$$RF$T$u20$as$u20$core..fmt..Display$GT$3fmt17he911d2ba7c50bb69E]
	movq	xmm0, rax
	lea	rax, [rip + l___unnamed_25]
	movq	xmm1, rax
	punpcklqdq	xmm1, xmm0
	movdqa	xmmword ptr [rbp - 144], xmm1
	lea	rax, [rip + l___unnamed_2]
	mov	qword ptr [rbp - 88], rax
	mov	qword ptr [rbp - 80], 2
	mov	qword ptr [rbp - 72], 0
	lea	rax, [rbp - 144]
	mov	qword ptr [rbp - 56], rax
	mov	qword ptr [rbp - 48], 1
	lea	rsi, [rbp - 88]
	mov	rdi, rbx
	call	__ZN4core3fmt9Formatter9write_fmt17h3dc2bf45afed3069E
	mov	cl, 1
	test	al, al
	jne	LBB82_8
	movdqa	xmm0, xmmword ptr [r15]
	movdqa	xmmword ptr [rbp - 112], xmm0
	xor	r14d, r14d
	lea	r15, [rbp - 88]
	lea	r13, [rip + l___unnamed_3]
	cmp	r14, 16
	jne	LBB82_4
	jmp	LBB82_3
	.p2align	4, 0x90
LBB82_6:
	movdqa	xmm0, xmmword ptr [rbp - 112]
	movdqa	xmmword ptr [rbp - 128], xmm0
	lea	r12, [r14 + 1]
	and	r14d, 15
	movzx	eax, byte ptr [rbp + r14 - 128]
	mov	byte ptr [rbp - 88], al
	mov	rdi, r15
	mov	rsi, rbx
	call	__ZN4core3fmt3num50_$LT$impl$u20$core..fmt..Binary$u20$for$u20$u8$GT$3fmt17h27b26a79078c499fE
	mov	r14, r12
	test	al, al
	jne	LBB82_7
	cmp	r14, 16
	je	LBB82_3
LBB82_4:
	test	r14, r14
	je	LBB82_6
	mov	qword ptr [rbp - 88], r13
	mov	qword ptr [rbp - 80], 1
	mov	qword ptr [rbp - 72], 0
	lea	rax, [rip + l___unnamed_4]
	mov	qword ptr [rbp - 56], rax
	mov	qword ptr [rbp - 48], 0
	mov	rdi, rbx
	mov	rsi, r15
	call	__ZN4core3fmt9Formatter9write_fmt17h3dc2bf45afed3069E
	test	al, al
	je	LBB82_6
LBB82_7:
	mov	cl, 1
	jmp	LBB82_8
LBB82_3:
	lea	rax, [rip + l___unnamed_5]
	mov	qword ptr [rbp - 88], rax
	mov	qword ptr [rbp - 80], 1
	mov	qword ptr [rbp - 72], 0
	lea	rax, [rip + l___unnamed_4]
	mov	qword ptr [rbp - 56], rax
	mov	qword ptr [rbp - 48], 0
	lea	rsi, [rbp - 88]
	mov	rdi, rbx
	call	__ZN4core3fmt9Formatter9write_fmt17h3dc2bf45afed3069E
	mov	ecx, eax
LBB82_8:
	mov	eax, ecx
	add	rsp, 104
	pop	rbx
	pop	r12
	pop	r13
	pop	r14
	pop	r15
	pop	rbp
	ret
	.cfi_endproc

	.globl	__ZN11packed_simd4v128116_$LT$impl$u20$core..fmt..Debug$u20$for$u20$packed_simd..Simd$LT$$u5b$packed_simd..masks..m8$u3b$$u20$16$u5d$$GT$$GT$3fmt17h6cdc8c247e15e6e8E
	.p2align	4, 0x90
__ZN11packed_simd4v128116_$LT$impl$u20$core..fmt..Debug$u20$for$u20$packed_simd..Simd$LT$$u5b$packed_simd..masks..m8$u3b$$u20$16$u5d$$GT$$GT$3fmt17h6cdc8c247e15e6e8E:
	.cfi_startproc
	push	rbp
	.cfi_def_cfa_offset 16
	.cfi_offset rbp, -16
	mov	rbp, rsp
	.cfi_def_cfa_register rbp
	push	r15
	push	r14
	push	r13
	push	r12
	push	rbx
	sub	rsp, 104
	.cfi_offset rbx, -56
	.cfi_offset r12, -48
	.cfi_offset r13, -40
	.cfi_offset r14, -32
	.cfi_offset r15, -24
	mov	rbx, rsi
	mov	r15, rdi
	lea	rax, [rip + __ZN44_$LT$$RF$T$u20$as$u20$core..fmt..Display$GT$3fmt17he911d2ba7c50bb69E]
	movq	xmm0, rax
	lea	rax, [rip + l___unnamed_26]
	movq	xmm1, rax
	punpcklqdq	xmm1, xmm0
	movdqa	xmmword ptr [rbp - 144], xmm1
	lea	rax, [rip + l___unnamed_2]
	mov	qword ptr [rbp - 88], rax
	mov	qword ptr [rbp - 80], 2
	mov	qword ptr [rbp - 72], 0
	lea	rax, [rbp - 144]
	mov	qword ptr [rbp - 56], rax
	mov	qword ptr [rbp - 48], 1
	lea	rsi, [rbp - 88]
	mov	rdi, rbx
	call	__ZN4core3fmt9Formatter9write_fmt17h3dc2bf45afed3069E
	mov	cl, 1
	test	al, al
	jne	LBB83_8
	movdqa	xmm0, xmmword ptr [r15]
	movdqa	xmmword ptr [rbp - 112], xmm0
	xor	r14d, r14d
	lea	r15, [rbp - 88]
	lea	r13, [rip + l___unnamed_3]
	cmp	r14, 16
	jne	LBB83_4
	jmp	LBB83_3
	.p2align	4, 0x90
LBB83_6:
	movdqa	xmm0, xmmword ptr [rbp - 112]
	movdqa	xmmword ptr [rbp - 128], xmm0
	lea	r12, [r14 + 1]
	and	r14d, 15
	cmp	byte ptr [rbp + r14 - 128], 0
	setne	byte ptr [rbp - 88]
	mov	rdi, r15
	mov	rsi, rbx
	call	__ZN43_$LT$bool$u20$as$u20$core..fmt..Display$GT$3fmt17hf36463fa8b480ab4E
	mov	r14, r12
	test	al, al
	jne	LBB83_7
	cmp	r14, 16
	je	LBB83_3
LBB83_4:
	test	r14, r14
	je	LBB83_6
	mov	qword ptr [rbp - 88], r13
	mov	qword ptr [rbp - 80], 1
	mov	qword ptr [rbp - 72], 0
	lea	rax, [rip + l___unnamed_4]
	mov	qword ptr [rbp - 56], rax
	mov	qword ptr [rbp - 48], 0
	mov	rdi, rbx
	mov	rsi, r15
	call	__ZN4core3fmt9Formatter9write_fmt17h3dc2bf45afed3069E
	test	al, al
	je	LBB83_6
LBB83_7:
	mov	cl, 1
	jmp	LBB83_8
LBB83_3:
	lea	rax, [rip + l___unnamed_5]
	mov	qword ptr [rbp - 88], rax
	mov	qword ptr [rbp - 80], 1
	mov	qword ptr [rbp - 72], 0
	lea	rax, [rip + l___unnamed_4]
	mov	qword ptr [rbp - 56], rax
	mov	qword ptr [rbp - 48], 0
	lea	rsi, [rbp - 88]
	mov	rdi, rbx
	call	__ZN4core3fmt9Formatter9write_fmt17h3dc2bf45afed3069E
	mov	ecx, eax
LBB83_8:
	mov	eax, ecx
	add	rsp, 104
	pop	rbx
	pop	r12
	pop	r13
	pop	r14
	pop	r15
	pop	rbp
	ret
	.cfi_endproc

	.globl	__ZN11packed_simd4v12896_$LT$impl$u20$core..fmt..Debug$u20$for$u20$packed_simd..Simd$LT$$u5b$i16$u3b$$u20$8$u5d$$GT$$GT$3fmt17hc8dae2b8845d0c92E
	.p2align	4, 0x90
__ZN11packed_simd4v12896_$LT$impl$u20$core..fmt..Debug$u20$for$u20$packed_simd..Simd$LT$$u5b$i16$u3b$$u20$8$u5d$$GT$$GT$3fmt17hc8dae2b8845d0c92E:
	.cfi_startproc
	push	rbp
	.cfi_def_cfa_offset 16
	.cfi_offset rbp, -16
	mov	rbp, rsp
	.cfi_def_cfa_register rbp
	push	r15
	push	r14
	push	r12
	push	rbx
	sub	rsp, 80
	.cfi_offset rbx, -48
	.cfi_offset r12, -40
	.cfi_offset r14, -32
	.cfi_offset r15, -24
	mov	r15, rsi
	mov	rbx, rdi
	lea	rax, [rip + __ZN44_$LT$$RF$T$u20$as$u20$core..fmt..Display$GT$3fmt17he911d2ba7c50bb69E]
	movq	xmm0, rax
	lea	rax, [rip + l___unnamed_27]
	movq	xmm1, rax
	punpcklqdq	xmm1, xmm0
	movdqa	xmmword ptr [rbp - 112], xmm1
	lea	rax, [rip + l___unnamed_2]
	mov	qword ptr [rbp - 80], rax
	mov	qword ptr [rbp - 72], 2
	mov	qword ptr [rbp - 64], 0
	lea	rax, [rbp - 112]
	mov	qword ptr [rbp - 48], rax
	mov	qword ptr [rbp - 40], 1
	lea	rsi, [rbp - 80]
	mov	rdi, r15
	call	__ZN4core3fmt9Formatter9write_fmt17h3dc2bf45afed3069E
	mov	r14b, 1
	test	al, al
	jne	LBB84_42
	movdqa	xmm0, xmmword ptr [rbx]
	movdqa	xmmword ptr [rbp - 96], xmm0
	movd	eax, xmm0
	mov	word ptr [rbp - 80], ax
	mov	rdi, r15
	call	__ZN4core3fmt9Formatter15debug_lower_hex17h8530fbaeba13f4d9E
	test	al, al
	je	LBB84_2
	lea	rdi, [rbp - 80]
	mov	rsi, r15
	call	__ZN4core3fmt3num53_$LT$impl$u20$core..fmt..LowerHex$u20$for$u20$i16$GT$3fmt17h3f851141fadcf5dbE
	test	al, al
	je	LBB84_6
	jmp	LBB84_42
LBB84_2:
	mov	rdi, r15
	call	__ZN4core3fmt9Formatter15debug_upper_hex17hf8fda15ec43a1e68E
	lea	rdi, [rbp - 80]
	mov	rsi, r15
	test	al, al
	je	LBB84_4
	call	__ZN4core3fmt3num53_$LT$impl$u20$core..fmt..UpperHex$u20$for$u20$i16$GT$3fmt17h68fce712c402f58aE
	test	al, al
	je	LBB84_6
	jmp	LBB84_42
LBB84_4:
	call	__ZN4core3fmt3num3imp52_$LT$impl$u20$core..fmt..Display$u20$for$u20$i16$GT$3fmt17h3a2fa6e453c65d3eE
	test	al, al
	jne	LBB84_42
LBB84_6:
	lea	rbx, [rip + l___unnamed_3]
	mov	qword ptr [rbp - 80], rbx
	mov	qword ptr [rbp - 72], 1
	mov	qword ptr [rbp - 64], 0
	lea	r12, [rip + l___unnamed_4]
	mov	qword ptr [rbp - 48], r12
	mov	qword ptr [rbp - 40], 0
	lea	rsi, [rbp - 80]
	mov	rdi, r15
	call	__ZN4core3fmt9Formatter9write_fmt17h3dc2bf45afed3069E
	test	al, al
	jne	LBB84_42
	movdqa	xmm0, xmmword ptr [rbp - 96]
	pextrw	eax, xmm0, 1
	mov	word ptr [rbp - 80], ax
	mov	rdi, r15
	call	__ZN4core3fmt9Formatter15debug_lower_hex17h8530fbaeba13f4d9E
	test	al, al
	je	LBB84_8
	lea	rdi, [rbp - 80]
	mov	rsi, r15
	call	__ZN4core3fmt3num53_$LT$impl$u20$core..fmt..LowerHex$u20$for$u20$i16$GT$3fmt17h3f851141fadcf5dbE
	test	al, al
	je	LBB84_11
	jmp	LBB84_42
LBB84_8:
	mov	rdi, r15
	call	__ZN4core3fmt9Formatter15debug_upper_hex17hf8fda15ec43a1e68E
	lea	rdi, [rbp - 80]
	mov	rsi, r15
	test	al, al
	je	LBB84_9
	call	__ZN4core3fmt3num53_$LT$impl$u20$core..fmt..UpperHex$u20$for$u20$i16$GT$3fmt17h68fce712c402f58aE
	test	al, al
	je	LBB84_11
	jmp	LBB84_42
LBB84_9:
	call	__ZN4core3fmt3num3imp52_$LT$impl$u20$core..fmt..Display$u20$for$u20$i16$GT$3fmt17h3a2fa6e453c65d3eE
	test	al, al
	jne	LBB84_42
LBB84_11:
	mov	qword ptr [rbp - 80], rbx
	mov	qword ptr [rbp - 72], 1
	mov	qword ptr [rbp - 64], 0
	mov	qword ptr [rbp - 48], r12
	mov	qword ptr [rbp - 40], 0
	lea	rsi, [rbp - 80]
	mov	rdi, r15
	call	__ZN4core3fmt9Formatter9write_fmt17h3dc2bf45afed3069E
	test	al, al
	jne	LBB84_42
	movdqa	xmm0, xmmword ptr [rbp - 96]
	pextrw	eax, xmm0, 2
	mov	word ptr [rbp - 80], ax
	mov	rdi, r15
	call	__ZN4core3fmt9Formatter15debug_lower_hex17h8530fbaeba13f4d9E
	test	al, al
	je	LBB84_13
	lea	rdi, [rbp - 80]
	mov	rsi, r15
	call	__ZN4core3fmt3num53_$LT$impl$u20$core..fmt..LowerHex$u20$for$u20$i16$GT$3fmt17h3f851141fadcf5dbE
	test	al, al
	je	LBB84_16
	jmp	LBB84_42
LBB84_13:
	mov	rdi, r15
	call	__ZN4core3fmt9Formatter15debug_upper_hex17hf8fda15ec43a1e68E
	lea	rdi, [rbp - 80]
	mov	rsi, r15
	test	al, al
	je	LBB84_14
	call	__ZN4core3fmt3num53_$LT$impl$u20$core..fmt..UpperHex$u20$for$u20$i16$GT$3fmt17h68fce712c402f58aE
	test	al, al
	je	LBB84_16
	jmp	LBB84_42
LBB84_14:
	call	__ZN4core3fmt3num3imp52_$LT$impl$u20$core..fmt..Display$u20$for$u20$i16$GT$3fmt17h3a2fa6e453c65d3eE
	test	al, al
	jne	LBB84_42
LBB84_16:
	mov	qword ptr [rbp - 80], rbx
	mov	qword ptr [rbp - 72], 1
	mov	qword ptr [rbp - 64], 0
	mov	qword ptr [rbp - 48], r12
	mov	qword ptr [rbp - 40], 0
	lea	rsi, [rbp - 80]
	mov	rdi, r15
	call	__ZN4core3fmt9Formatter9write_fmt17h3dc2bf45afed3069E
	test	al, al
	jne	LBB84_42
	movdqa	xmm0, xmmword ptr [rbp - 96]
	pextrw	eax, xmm0, 3
	mov	word ptr [rbp - 80], ax
	mov	rdi, r15
	call	__ZN4core3fmt9Formatter15debug_lower_hex17h8530fbaeba13f4d9E
	test	al, al
	je	LBB84_18
	lea	rdi, [rbp - 80]
	mov	rsi, r15
	call	__ZN4core3fmt3num53_$LT$impl$u20$core..fmt..LowerHex$u20$for$u20$i16$GT$3fmt17h3f851141fadcf5dbE
	test	al, al
	je	LBB84_21
	jmp	LBB84_42
LBB84_18:
	mov	rdi, r15
	call	__ZN4core3fmt9Formatter15debug_upper_hex17hf8fda15ec43a1e68E
	lea	rdi, [rbp - 80]
	mov	rsi, r15
	test	al, al
	je	LBB84_19
	call	__ZN4core3fmt3num53_$LT$impl$u20$core..fmt..UpperHex$u20$for$u20$i16$GT$3fmt17h68fce712c402f58aE
	test	al, al
	je	LBB84_21
	jmp	LBB84_42
LBB84_19:
	call	__ZN4core3fmt3num3imp52_$LT$impl$u20$core..fmt..Display$u20$for$u20$i16$GT$3fmt17h3a2fa6e453c65d3eE
	test	al, al
	jne	LBB84_42
LBB84_21:
	mov	qword ptr [rbp - 80], rbx
	mov	qword ptr [rbp - 72], 1
	mov	qword ptr [rbp - 64], 0
	mov	qword ptr [rbp - 48], r12
	mov	qword ptr [rbp - 40], 0
	lea	rsi, [rbp - 80]
	mov	rdi, r15
	call	__ZN4core3fmt9Formatter9write_fmt17h3dc2bf45afed3069E
	test	al, al
	jne	LBB84_42
	movdqa	xmm0, xmmword ptr [rbp - 96]
	pextrw	eax, xmm0, 4
	mov	word ptr [rbp - 80], ax
	mov	rdi, r15
	call	__ZN4core3fmt9Formatter15debug_lower_hex17h8530fbaeba13f4d9E
	test	al, al
	je	LBB84_23
	lea	rdi, [rbp - 80]
	mov	rsi, r15
	call	__ZN4core3fmt3num53_$LT$impl$u20$core..fmt..LowerHex$u20$for$u20$i16$GT$3fmt17h3f851141fadcf5dbE
	test	al, al
	je	LBB84_26
	jmp	LBB84_42
LBB84_23:
	mov	rdi, r15
	call	__ZN4core3fmt9Formatter15debug_upper_hex17hf8fda15ec43a1e68E
	lea	rdi, [rbp - 80]
	mov	rsi, r15
	test	al, al
	je	LBB84_24
	call	__ZN4core3fmt3num53_$LT$impl$u20$core..fmt..UpperHex$u20$for$u20$i16$GT$3fmt17h68fce712c402f58aE
	test	al, al
	je	LBB84_26
	jmp	LBB84_42
LBB84_24:
	call	__ZN4core3fmt3num3imp52_$LT$impl$u20$core..fmt..Display$u20$for$u20$i16$GT$3fmt17h3a2fa6e453c65d3eE
	test	al, al
	jne	LBB84_42
LBB84_26:
	mov	qword ptr [rbp - 80], rbx
	mov	qword ptr [rbp - 72], 1
	mov	qword ptr [rbp - 64], 0
	mov	qword ptr [rbp - 48], r12
	mov	qword ptr [rbp - 40], 0
	lea	rsi, [rbp - 80]
	mov	rdi, r15
	call	__ZN4core3fmt9Formatter9write_fmt17h3dc2bf45afed3069E
	test	al, al
	jne	LBB84_42
	movdqa	xmm0, xmmword ptr [rbp - 96]
	pextrw	eax, xmm0, 5
	mov	word ptr [rbp - 80], ax
	mov	rdi, r15
	call	__ZN4core3fmt9Formatter15debug_lower_hex17h8530fbaeba13f4d9E
	test	al, al
	je	LBB84_28
	lea	rdi, [rbp - 80]
	mov	rsi, r15
	call	__ZN4core3fmt3num53_$LT$impl$u20$core..fmt..LowerHex$u20$for$u20$i16$GT$3fmt17h3f851141fadcf5dbE
	test	al, al
	je	LBB84_31
	jmp	LBB84_42
LBB84_28:
	mov	rdi, r15
	call	__ZN4core3fmt9Formatter15debug_upper_hex17hf8fda15ec43a1e68E
	lea	rdi, [rbp - 80]
	mov	rsi, r15
	test	al, al
	je	LBB84_29
