	.section	__TEXT,__text,regular,pure_instructions
	.macosx_version_min 10, 7
	.p2align	4, 0x90
__ZN100_$LT$alloc..string..String$u20$as$u20$core..ops..index..Index$LT$core..ops..range..RangeFull$GT$$GT$5index17h503ee975ea73092dE:
	.cfi_startproc
	pushq	%rbp
	.cfi_def_cfa_offset 16
	.cfi_offset %rbp, -16
	movq	%rsp, %rbp
	.cfi_def_cfa_register %rbp
	subq	$48, %rsp
	movq	%rsi, -8(%rbp)
	callq	__ZN68_$LT$alloc..vec..Vec$LT$T$GT$$u20$as$u20$core..ops..deref..Deref$GT$5deref17h733320c3cdb9fd13E
	movq	%rax, -16(%rbp)
	movq	%rdx, -24(%rbp)
	movq	-16(%rbp), %rdi
	movq	-24(%rbp), %rsi
	callq	__ZN4core3str19from_utf8_unchecked17hfb94585c1af8045cE
	movq	%rax, -32(%rbp)
	movq	%rdx, -40(%rbp)
	movq	-32(%rbp), %rax
	movq	-40(%rbp), %rdx
	addq	$48, %rsp
	popq	%rbp
	retq
	.cfi_endproc

	.globl	__ZN101_$LT$core..ops..range..RangeTo$LT$usize$GT$$u20$as$u20$core..slice..SliceIndex$LT$$u5b$T$u5d$$GT$$GT$5index17hc7ca263e4afd2349E
	.p2align	4, 0x90
__ZN101_$LT$core..ops..range..RangeTo$LT$usize$GT$$u20$as$u20$core..slice..SliceIndex$LT$$u5b$T$u5d$$GT$$GT$5index17hc7ca263e4afd2349E:
	.cfi_startproc
	pushq	%rbp
	.cfi_def_cfa_offset 16
	.cfi_offset %rbp, -16
	movq	%rsp, %rbp
	.cfi_def_cfa_register %rbp
	subq	$64, %rsp
	movq	$0, -16(%rbp)
	movq	%rdi, -8(%rbp)
	movq	-16(%rbp), %rdi
	movq	-8(%rbp), %rax
	movq	%rsi, -24(%rbp)
	movq	%rax, %rsi
	movq	-24(%rbp), %rax
	movq	%rdx, -32(%rbp)
	movq	%rax, %rdx
	movq	-32(%rbp), %r8
	movq	%rcx, -40(%rbp)
	movq	%r8, %rcx
	movq	-40(%rbp), %r8
	callq	__ZN99_$LT$core..ops..range..Range$LT$usize$GT$$u20$as$u20$core..slice..SliceIndex$LT$$u5b$T$u5d$$GT$$GT$5index17h6779ec5a0a2141c0E
	movq	%rax, -48(%rbp)
	movq	%rdx, -56(%rbp)
	movq	-48(%rbp), %rax
	movq	-56(%rbp), %rdx
	addq	$64, %rsp
	popq	%rbp
	retq
	.cfi_endproc

	.globl	__ZN101_$LT$core..ops..range..RangeTo$LT$usize$GT$$u20$as$u20$core..slice..SliceIndex$LT$$u5b$T$u5d$$GT$$GT$9index_mut17hf338361f7a9385a5E
	.p2align	4, 0x90
__ZN101_$LT$core..ops..range..RangeTo$LT$usize$GT$$u20$as$u20$core..slice..SliceIndex$LT$$u5b$T$u5d$$GT$$GT$9index_mut17hf338361f7a9385a5E:
	.cfi_startproc
	pushq	%rbp
	.cfi_def_cfa_offset 16
	.cfi_offset %rbp, -16
	movq	%rsp, %rbp
	.cfi_def_cfa_register %rbp
	subq	$64, %rsp
	movq	$0, -16(%rbp)
	movq	%rdi, -8(%rbp)
	movq	-16(%rbp), %rdi
	movq	-8(%rbp), %rax
	movq	%rsi, -24(%rbp)
	movq	%rax, %rsi
	movq	-24(%rbp), %rax
	movq	%rdx, -32(%rbp)
	movq	%rax, %rdx
	movq	-32(%rbp), %r8
	movq	%rcx, -40(%rbp)
	movq	%r8, %rcx
	movq	-40(%rbp), %r8
	callq	__ZN99_$LT$core..ops..range..Range$LT$usize$GT$$u20$as$u20$core..slice..SliceIndex$LT$$u5b$T$u5d$$GT$$GT$9index_mut17h79331afcfefc09b8E
	movq	%rax, -48(%rbp)
	movq	%rdx, -56(%rbp)
	movq	-48(%rbp), %rax
	movq	-56(%rbp), %rdx
	addq	$64, %rsp
	popq	%rbp
	retq
	.cfi_endproc

	.globl	__ZN106_$LT$core..iter..adapters..chain..Chain$LT$A$C$B$GT$$u20$as$u20$core..iter..traits..iterator..Iterator$GT$4fold17h7a5d327b719df678E
	.p2align	4, 0x90
__ZN106_$LT$core..iter..adapters..chain..Chain$LT$A$C$B$GT$$u20$as$u20$core..iter..traits..iterator..Iterator$GT$4fold17h7a5d327b719df678E:
Lfunc_begin0:
	.cfi_startproc
	.cfi_personality 155, _rust_eh_personality
	.cfi_lsda 16, Lexception0
	pushq	%rbp
	.cfi_def_cfa_offset 16
	.cfi_offset %rbp, -16
	movq	%rsp, %rbp
	.cfi_def_cfa_register %rbp
	subq	$144, %rsp
	movq	%rsi, -128(%rbp)
	movb	$0, -18(%rbp)
	movb	$0, -17(%rbp)
	movb	$0, -19(%rbp)
	movb	$1, -19(%rbp)
	movb	$1, -18(%rbp)
	movb	$1, -17(%rbp)
	movl	40(%rdi), %eax
	movl	%eax, %ecx
	cmpq	$1, %rcx
	movq	%rdi, -144(%rbp)
	je	LBB3_3
	jmp	LBB3_2
LBB3_1:
	movq	-16(%rbp), %rdi
	callq	__Unwind_Resume
	ud2
LBB3_2:
	jmp	LBB3_6
LBB3_3:
	movb	$0, -18(%rbp)
	movq	-144(%rbp), %rax
	movl	44(%rax), %ecx
	movl	%ecx, -120(%rbp)
	movl	-120(%rbp), %ecx
	movl	%ecx, -112(%rbp)
	movl	-112(%rbp), %edi
Ltmp0:
	leaq	-128(%rbp), %rsi
	callq	__ZN4core4iter6traits8iterator8Iterator4fold17h9f029b40a4b5d0b7E
Ltmp1:
	jmp	LBB3_4
LBB3_4:
	jmp	LBB3_6
LBB3_5:
	movq	-144(%rbp), %rax
	movl	40(%rax), %ecx
	movl	%ecx, %edx
	cmpq	$1, %rdx
	je	LBB3_15
	jmp	LBB3_14
LBB3_6:
	xorl	%eax, %eax
	movl	%eax, %ecx
	movq	-144(%rbp), %rdx
	cmpq	$0, 16(%rdx)
	movl	$1, %esi
	cmovbeq	%rcx, %rsi
	cmpq	$1, %rsi
	je	LBB3_8
	jmp	LBB3_10
LBB3_8:
	movb	$0, -19(%rbp)
	movq	-144(%rbp), %rax
	movq	32(%rax), %rcx
	movq	%rcx, -72(%rbp)
	movq	24(%rax), %rcx
	movq	%rcx, -80(%rbp)
	movq	16(%rax), %rcx
	movq	%rcx, -88(%rbp)
	movq	(%rax), %rcx
	movq	8(%rax), %rdx
	movq	%rdx, -96(%rbp)
	movq	%rcx, -104(%rbp)
	movq	-72(%rbp), %rcx
	movq	%rcx, -32(%rbp)
	movq	-80(%rbp), %rcx
	movq	%rcx, -40(%rbp)
	movq	-88(%rbp), %rcx
	movq	%rcx, -48(%rbp)
	movq	-104(%rbp), %rcx
	movq	-96(%rbp), %rdx
	movq	%rdx, -56(%rbp)
	movq	%rcx, -64(%rbp)
	movb	$0, -17(%rbp)
	movq	-128(%rbp), %rsi
Ltmp2:
	leaq	-64(%rbp), %rdi
	callq	__ZN97_$LT$core..iter..adapters..Map$LT$I$C$F$GT$$u20$as$u20$core..iter..traits..iterator..Iterator$GT$4fold17h63b31ad195776ff1E
Ltmp3:
	jmp	LBB3_9
LBB3_9:
	jmp	LBB3_10
LBB3_10:
	testb	$1, -17(%rbp)
	jne	LBB3_19
LBB3_11:
	movq	-144(%rbp), %rax
	movl	40(%rax), %ecx
	movl	%ecx, %edx
	cmpq	$1, %rdx
	je	LBB3_27
	jmp	LBB3_25
LBB3_12:
	testb	$1, -19(%rbp)
	je	LBB3_1
	movb	$0, -19(%rbp)
	movq	-144(%rbp), %rax
	movq	%rax, %rdi
	callq	__ZN4core3ptr13drop_in_place17h49fd97b6078de5b8E
	jmp	LBB3_1
LBB3_14:
	xorl	%eax, %eax
	movl	%eax, %ecx
	movq	-144(%rbp), %rdx
	cmpq	$0, 16(%rdx)
	movl	$1, %esi
	cmovbeq	%rcx, %rsi
	cmpq	$1, %rsi
	je	LBB3_12
	jmp	LBB3_1
LBB3_15:
	testb	$1, -18(%rbp)
	je	LBB3_14
	movb	$0, -18(%rbp)
	movq	-144(%rbp), %rax
	addq	$40, %rax
	addq	$4, %rax
	movq	%rax, %rdi
	callq	__ZN4core3ptr13drop_in_place17ha961518a483c265aE
	jmp	LBB3_14
LBB3_17:
	movb	$0, -17(%rbp)
	jmp	LBB3_5
LBB3_18:
	testb	$1, -17(%rbp)
	jne	LBB3_17
	jmp	LBB3_5
LBB3_19:
	movb	$0, -17(%rbp)
	jmp	LBB3_11
LBB3_20:
	testb	$1, -19(%rbp)
	je	LBB3_1
	movb	$0, -19(%rbp)
	movq	-144(%rbp), %rax
	movq	%rax, %rdi
	callq	__ZN4core3ptr13drop_in_place17h49fd97b6078de5b8E
	jmp	LBB3_1
LBB3_22:
	addq	$144, %rsp
	popq	%rbp
	retq
LBB3_23:
	testb	$1, -19(%rbp)
	je	LBB3_22
	movb	$0, -19(%rbp)
	movq	-144(%rbp), %rax
	movq	%rax, %rdi
	callq	__ZN4core3ptr13drop_in_place17h49fd97b6078de5b8E
	jmp	LBB3_22
LBB3_25:
	xorl	%eax, %eax
	movl	%eax, %ecx
	movq	-144(%rbp), %rdx
	cmpq	$0, 16(%rdx)
	movl	$1, %esi
	cmovbeq	%rcx, %rsi
	cmpq	$1, %rsi
	je	LBB3_23
	jmp	LBB3_22
LBB3_26:
	xorl	%eax, %eax
	movl	%eax, %ecx
	movq	-144(%rbp), %rdx
	cmpq	$0, 16(%rdx)
	movl	$1, %esi
	cmovbeq	%rcx, %rsi
	cmpq	$1, %rsi
	je	LBB3_20
	jmp	LBB3_1
LBB3_27:
	testb	$1, -18(%rbp)
	je	LBB3_25
	movb	$0, -18(%rbp)
	movq	-144(%rbp), %rax
	addq	$44, %rax
Ltmp5:
	movq	%rax, %rdi
	callq	__ZN4core3ptr13drop_in_place17ha961518a483c265aE
Ltmp6:
	jmp	LBB3_25
LBB3_29:
Ltmp4:
	movq	%rax, -16(%rbp)
	movl	%edx, -8(%rbp)
	jmp	LBB3_18
LBB3_30:
Ltmp7:
	movq	%rax, -16(%rbp)
	movl	%edx, -8(%rbp)
	jmp	LBB3_26
Lfunc_end0:
	.cfi_endproc
	.section	__TEXT,__gcc_except_tab
	.p2align	2
GCC_except_table3:
Lexception0:
	.byte	255
	.byte	255
	.byte	1
	.uleb128 Lcst_end0-Lcst_begin0
Lcst_begin0:
	.uleb128 Lfunc_begin0-Lfunc_begin0
	.uleb128 Ltmp0-Lfunc_begin0
	.byte	0
	.byte	0
	.uleb128 Ltmp0-Lfunc_begin0
	.uleb128 Ltmp3-Ltmp0
	.uleb128 Ltmp4-Lfunc_begin0
	.byte	0
	.uleb128 Ltmp3-Lfunc_begin0
	.uleb128 Ltmp5-Ltmp3
	.byte	0
	.byte	0
	.uleb128 Ltmp5-Lfunc_begin0
	.uleb128 Ltmp6-Ltmp5
	.uleb128 Ltmp7-Lfunc_begin0
	.byte	0
Lcst_end0:
	.p2align	2

	.section	__TEXT,__text,regular,pure_instructions
	.globl	__ZN108_$LT$alloc..vec..Vec$LT$T$GT$$u20$as$u20$alloc..vec..SpecExtend$LT$T$C$alloc..vec..IntoIter$LT$T$GT$$GT$$GT$11spec_extend17h725abb33303b47efE
	.p2align	4, 0x90
__ZN108_$LT$alloc..vec..Vec$LT$T$GT$$u20$as$u20$alloc..vec..SpecExtend$LT$T$C$alloc..vec..IntoIter$LT$T$GT$$GT$$GT$11spec_extend17h725abb33303b47efE:
Lfunc_begin1:
	.cfi_startproc
	.cfi_personality 155, _rust_eh_personality
	.cfi_lsda 16, Lexception1
	pushq	%rbp
	.cfi_def_cfa_offset 16
	.cfi_offset %rbp, -16
	movq	%rsp, %rbp
	.cfi_def_cfa_register %rbp
	subq	$48, %rsp
Ltmp8:
	movq	%rdi, -24(%rbp)
	movq	%rsi, %rdi
	movq	%rsi, -32(%rbp)
	callq	__ZN5alloc3vec17IntoIter$LT$T$GT$8as_slice17hff291085030284b2E
Ltmp9:
	movq	%rdx, -40(%rbp)
	movq	%rax, -48(%rbp)
	jmp	LBB4_2
LBB4_1:
	movq	-16(%rbp), %rdi
	callq	__Unwind_Resume
	ud2
LBB4_2:
Ltmp10:
	movq	-24(%rbp), %rdi
	movq	-48(%rbp), %rsi
	movq	-40(%rbp), %rdx
	callq	__ZN5alloc3vec12Vec$LT$T$GT$15append_elements17h5d177c0e25f557c2E
Ltmp11:
	jmp	LBB4_4
LBB4_3:
	movq	-32(%rbp), %rdi
	callq	__ZN4core3ptr13drop_in_place17hb8e47ec6cb220ea0E
	jmp	LBB4_1
LBB4_4:
	movq	-32(%rbp), %rax
	movq	24(%rax), %rcx
	movq	%rcx, 16(%rax)
	movq	%rax, %rdi
	callq	__ZN4core3ptr13drop_in_place17hb8e47ec6cb220ea0E
	addq	$48, %rsp
	popq	%rbp
	retq
LBB4_6:
Ltmp12:
	movq	%rax, -16(%rbp)
	movl	%edx, -8(%rbp)
	jmp	LBB4_3
Lfunc_end1:
	.cfi_endproc
	.section	__TEXT,__gcc_except_tab
	.p2align	2
GCC_except_table4:
Lexception1:
	.byte	255
	.byte	255
	.byte	1
	.uleb128 Lcst_end1-Lcst_begin1
Lcst_begin1:
	.uleb128 Ltmp8-Lfunc_begin1
	.uleb128 Ltmp9-Ltmp8
	.uleb128 Ltmp12-Lfunc_begin1
	.byte	0
	.uleb128 Ltmp9-Lfunc_begin1
	.uleb128 Ltmp10-Ltmp9
	.byte	0
	.byte	0
	.uleb128 Ltmp10-Lfunc_begin1
	.uleb128 Ltmp11-Ltmp10
	.uleb128 Ltmp12-Lfunc_begin1
	.byte	0
	.uleb128 Ltmp11-Lfunc_begin1
	.uleb128 Lfunc_end1-Ltmp11
	.byte	0
	.byte	0
Lcst_end1:
	.p2align	2

	.section	__TEXT,__text,regular,pure_instructions
	.globl	__ZN108_$LT$proc_macro..TokenStream$u20$as$u20$core..iter..traits..collect..Extend$LT$proc_macro..TokenTree$GT$$GT$6extend17hded26eac067c9941E
	.p2align	4, 0x90
__ZN108_$LT$proc_macro..TokenStream$u20$as$u20$core..iter..traits..collect..Extend$LT$proc_macro..TokenTree$GT$$GT$6extend17hded26eac067c9941E:
	.cfi_startproc
	pushq	%rbp
	.cfi_def_cfa_offset 16
	.cfi_offset %rbp, -16
	movq	%rsp, %rbp
	.cfi_def_cfa_register %rbp
	subq	$144, %rsp
	leaq	-40(%rbp), %rax
	movq	%rax, %rcx
	movq	%rdi, -128(%rbp)
	movq	%rcx, %rdi
	movl	$40, %edx
	movq	%rax, -136(%rbp)
	callq	_memcpy
	leaq	-80(%rbp), %rdi
	movq	-136(%rbp), %rsi
	callq	__ZN63_$LT$I$u20$as$u20$core..iter..traits..collect..IntoIterator$GT$9into_iter17h465aef932f22b73bE
	leaq	-120(%rbp), %rdi
	leaq	-80(%rbp), %rsi
	callq	__ZN4core4iter6traits8iterator8Iterator3map17hc601c727d0ae1d07E
	movq	-128(%rbp), %rdi
	leaq	-120(%rbp), %rsi
	callq	__ZN110_$LT$proc_macro..TokenStream$u20$as$u20$core..iter..traits..collect..Extend$LT$proc_macro..TokenStream$GT$$GT$6extend17h06002776e10e3effE
	addq	$144, %rsp
	popq	%rbp
	retq
	.cfi_endproc

	.globl	__ZN109_$LT$alloc..vec..Vec$LT$T$GT$$u20$as$u20$alloc..vec..SpecExtend$LT$$RF$T$C$core..slice..Iter$LT$T$GT$$GT$$GT$11spec_extend17h4867df7f003e9037E
	.p2align	4, 0x90
__ZN109_$LT$alloc..vec..Vec$LT$T$GT$$u20$as$u20$alloc..vec..SpecExtend$LT$$RF$T$C$core..slice..Iter$LT$T$GT$$GT$$GT$11spec_extend17h4867df7f003e9037E:
	.cfi_startproc
	pushq	%rbp
	.cfi_def_cfa_offset 16
	.cfi_offset %rbp, -16
	movq	%rsp, %rbp
	.cfi_def_cfa_register %rbp
	subq	$112, %rsp
	movq	%rsi, -16(%rbp)
	movq	%rdx, -8(%rbp)
	leaq	-16(%rbp), %rax
	movq	%rdi, -24(%rbp)
	movq	%rax, %rdi
	callq	__ZN4core5slice13Iter$LT$T$GT$8as_slice17h05cbd505fe71a5ecE
	movq	%rax, -32(%rbp)
	movq	%rdx, -40(%rbp)
	movq	-32(%rbp), %rdi
	movq	-40(%rbp), %rsi
	callq	__ZN4core5slice29_$LT$impl$u20$$u5b$T$u5d$$GT$3len17he6ef8850c7085a2dE
	movq	%rax, -48(%rbp)
	movq	-24(%rbp), %rdi
	movq	-48(%rbp), %rsi
	callq	__ZN5alloc3vec12Vec$LT$T$GT$7reserve17hd09ba90c0d7576f7E
	movq	-24(%rbp), %rdi
	callq	__ZN5alloc3vec12Vec$LT$T$GT$3len17hc72a6a0be488a7c1E
	movq	%rax, -56(%rbp)
	movq	-24(%rbp), %rdi
	callq	__ZN5alloc3vec12Vec$LT$T$GT$10as_mut_ptr17h00fab35d8c097a5cE
	movq	%rax, -64(%rbp)
	movq	-64(%rbp), %rdi
	movq	-56(%rbp), %rsi
	callq	__ZN4core3ptr7mut_ptr31_$LT$impl$u20$$BP$mut$u20$T$GT$3add17h3dcece799e74d8b4E
	movq	%rax, -72(%rbp)
	movq	-32(%rbp), %rdi
	movq	-40(%rbp), %rsi
	callq	__ZN4core5slice29_$LT$impl$u20$$u5b$T$u5d$$GT$3len17he6ef8850c7085a2dE
	movq	%rax, -80(%rbp)
	movq	-72(%rbp), %rdi
	movq	-80(%rbp), %rsi
	callq	__ZN4core5slice18from_raw_parts_mut17h3e9ac1b67134d19cE
	movq	%rax, -88(%rbp)
	movq	%rdx, -96(%rbp)
	movq	-88(%rbp), %rdi
	movq	-96(%rbp), %rsi
	movq	-32(%rbp), %rdx
	movq	-40(%rbp), %rcx
	callq	__ZN4core5slice29_$LT$impl$u20$$u5b$T$u5d$$GT$15copy_from_slice17hf65aa47c6879d2eaE
	movq	-32(%rbp), %rdi
	movq	-40(%rbp), %rsi
	callq	__ZN4core5slice29_$LT$impl$u20$$u5b$T$u5d$$GT$3len17he6ef8850c7085a2dE
	movq	%rax, -104(%rbp)
	movq	-56(%rbp), %rax
	movq	-104(%rbp), %rcx
	addq	%rcx, %rax
	movq	-24(%rbp), %rdi
	movq	%rax, %rsi
	callq	__ZN5alloc3vec12Vec$LT$T$GT$7set_len17h6c6e11c46731de24E
	addq	$112, %rsp
	popq	%rbp
	retq
	.cfi_endproc

	.globl	__ZN110_$LT$proc_macro..TokenStream$u20$as$u20$core..iter..traits..collect..Extend$LT$proc_macro..TokenStream$GT$$GT$6extend17h06002776e10e3effE
	.p2align	4, 0x90
__ZN110_$LT$proc_macro..TokenStream$u20$as$u20$core..iter..traits..collect..Extend$LT$proc_macro..TokenStream$GT$$GT$6extend17h06002776e10e3effE:
Lfunc_begin2:
	.cfi_startproc
	.cfi_personality 155, _rust_eh_personality
	.cfi_lsda 16, Lexception2
	pushq	%rbp
	.cfi_def_cfa_offset 16
	.cfi_offset %rbp, -16
	movq	%rsp, %rbp
	.cfi_def_cfa_register %rbp
	subq	$192, %rsp
	movb	$0, -33(%rbp)
	movb	$1, -33(%rbp)
Ltmp13:
	movq	%rdi, -168(%rbp)
	movq	%rsi, -176(%rbp)
	callq	__ZN10proc_macro11TokenStream3new17h5639692116516cb4E
Ltmp14:
	movl	%eax, -180(%rbp)
	jmp	LBB7_2
LBB7_1:
	movq	-32(%rbp), %rdi
	callq	__Unwind_Resume
	ud2
LBB7_2:
	movl	-180(%rbp), %eax
	movl	%eax, -16(%rbp)
	movl	-16(%rbp), %ecx
	movl	%ecx, -88(%rbp)
	movl	-88(%rbp), %esi
Ltmp15:
	movq	-168(%rbp), %rdi
	callq	__ZN4core3mem7replace17h8b6b8f218ebe58bdE
Ltmp16:
	movl	%eax, -184(%rbp)
	jmp	LBB7_3
LBB7_3:
	movl	-184(%rbp), %eax
	movl	%eax, -12(%rbp)
	movl	-12(%rbp), %ecx
	movl	%ecx, -96(%rbp)
	movl	-96(%rbp), %edi
Ltmp17:
	callq	__ZN4core4iter7sources4once17h962e1e55baff2a0aE
Ltmp18:
	movl	%eax, -188(%rbp)
	jmp	LBB7_4
LBB7_4:
	movl	-188(%rbp), %eax
	movl	%eax, -8(%rbp)
	movl	-8(%rbp), %ecx
	movl	%ecx, -104(%rbp)
	movb	$0, -33(%rbp)
	movq	-176(%rbp), %rdx
	movq	32(%rdx), %rsi
	movq	%rsi, -48(%rbp)
	movq	24(%rdx), %rsi
	movq	%rsi, -56(%rbp)
	movq	16(%rdx), %rsi
	movq	%rsi, -64(%rbp)
	movq	(%rdx), %rsi
	movq	8(%rdx), %rdi
	movq	%rdi, -72(%rbp)
	movq	%rsi, -80(%rbp)
	movl	-104(%rbp), %esi
Ltmp19:
	leaq	-152(%rbp), %rdi
	leaq	-80(%rbp), %rdx
	callq	__ZN4core4iter6traits8iterator8Iterator5chain17hef32c28fba0e46abE
Ltmp20:
	jmp	LBB7_5
LBB7_5:
Ltmp21:
	leaq	-152(%rbp), %rdi
	callq	__ZN4core4iter6traits8iterator8Iterator7collect17h4f215b7d108164aaE
Ltmp22:
	movl	%eax, -192(%rbp)
	jmp	LBB7_6
LBB7_6:
	movl	-192(%rbp), %eax
	movl	%eax, -4(%rbp)
	movl	-4(%rbp), %ecx
	movl	%ecx, -160(%rbp)
Ltmp24:
	movq	-168(%rbp), %rdi
	callq	__ZN4core3ptr13drop_in_place17h88e71e72b0ea5240E
Ltmp25:
	jmp	LBB7_10
LBB7_7:
	movb	$0, -33(%rbp)
	movq	-176(%rbp), %rdi
	callq	__ZN4core3ptr13drop_in_place17h49fd97b6078de5b8E
	jmp	LBB7_1
LBB7_8:
	testb	$1, -33(%rbp)
	jne	LBB7_7
	jmp	LBB7_1
LBB7_9:
	movl	-160(%rbp), %eax
	movq	-168(%rbp), %rcx
	movl	%eax, (%rcx)
	jmp	LBB7_8
LBB7_10:
	movl	-160(%rbp), %eax
	movq	-168(%rbp), %rcx
	movl	%eax, (%rcx)
	addq	$192, %rsp
	popq	%rbp
	retq
LBB7_11:
Ltmp23:
	movq	%rax, -32(%rbp)
	movl	%edx, -24(%rbp)
	jmp	LBB7_8
LBB7_12:
Ltmp26:
	movq	%rax, -32(%rbp)
	movl	%edx, -24(%rbp)
	jmp	LBB7_9
Lfunc_end2:
	.cfi_endproc
	.section	__TEXT,__gcc_except_tab
	.p2align	2
GCC_except_table7:
Lexception2:
	.byte	255
	.byte	255
	.byte	1
	.uleb128 Lcst_end2-Lcst_begin2
Lcst_begin2:
	.uleb128 Ltmp13-Lfunc_begin2
	.uleb128 Ltmp14-Ltmp13
	.uleb128 Ltmp23-Lfunc_begin2
	.byte	0
	.uleb128 Ltmp14-Lfunc_begin2
	.uleb128 Ltmp15-Ltmp14
	.byte	0
	.byte	0
	.uleb128 Ltmp15-Lfunc_begin2
	.uleb128 Ltmp22-Ltmp15
	.uleb128 Ltmp23-Lfunc_begin2
	.byte	0
	.uleb128 Ltmp24-Lfunc_begin2
	.uleb128 Ltmp25-Ltmp24
	.uleb128 Ltmp26-Lfunc_begin2
	.byte	0
	.uleb128 Ltmp25-Lfunc_begin2
	.uleb128 Lfunc_end2-Ltmp25
	.byte	0
	.byte	0
Lcst_end2:
	.p2align	2

	.section	__TEXT,__text,regular,pure_instructions
	.p2align	4, 0x90
__ZN113_$LT$alloc..string..String$u20$as$u20$core..ops..index..Index$LT$core..ops..range..RangeFrom$LT$usize$GT$$GT$$GT$5index17h938047fc77d25c4dE:
	.cfi_startproc
	pushq	%rbp
	.cfi_def_cfa_offset 16
	.cfi_offset %rbp, -16
	movq	%rsp, %rbp
	.cfi_def_cfa_register %rbp
	subq	$48, %rsp
	movq	%rsi, -8(%rbp)
	movq	%rdx, %rsi
	movq	%rdx, -16(%rbp)
	callq	__ZN100_$LT$alloc..string..String$u20$as$u20$core..ops..index..Index$LT$core..ops..range..RangeFull$GT$$GT$5index17h503ee975ea73092dE
	movq	%rax, -24(%rbp)
	movq	%rdx, -32(%rbp)
	movq	-24(%rbp), %rdi
	movq	-32(%rbp), %rsi
	movq	-8(%rbp), %rdx
	movq	-16(%rbp), %rcx
	callq	__ZN4core3str6traits66_$LT$impl$u20$core..ops..index..Index$LT$I$GT$$u20$for$u20$str$GT$5index17h8f53ab0a6456c72eE
	movq	%rax, -40(%rbp)
	movq	%rdx, -48(%rbp)
	movq	-40(%rbp), %rax
	movq	-48(%rbp), %rdx
	addq	$48, %rsp
	popq	%rbp
	retq
	.cfi_endproc

	.globl	__ZN116_$LT$proc_macro..TokenStream$u20$as$u20$core..iter..traits..collect..FromIterator$LT$proc_macro..TokenStream$GT$$GT$9from_iter17ha9bc64bacbd02bddE
	.p2align	4, 0x90
__ZN116_$LT$proc_macro..TokenStream$u20$as$u20$core..iter..traits..collect..FromIterator$LT$proc_macro..TokenStream$GT$$GT$9from_iter17ha9bc64bacbd02bddE:
Lfunc_begin3:
	.cfi_startproc
	.cfi_personality 155, _rust_eh_personality
	.cfi_lsda 16, Lexception3
	pushq	%rbp
	.cfi_def_cfa_offset 16
	.cfi_offset %rbp, -16
	movq	%rsp, %rbp
	.cfi_def_cfa_register %rbp
	subq	$176, %rsp
	movb	$0, -26(%rbp)
	movb	$0, -25(%rbp)
	movb	$1, -26(%rbp)
Ltmp27:
	movq	%rdi, -168(%rbp)
	callq	__ZN10proc_macro6bridge6client18TokenStreamBuilder3new17h2996254515710a72E
Ltmp28:
	movl	%eax, -172(%rbp)
	jmp	LBB9_2
LBB9_1:
	movq	-24(%rbp), %rdi
	callq	__Unwind_Resume
	ud2
LBB9_2:
	movl	-172(%rbp), %eax
	movl	%eax, -8(%rbp)
	movl	-8(%rbp), %ecx
	movl	%ecx, -152(%rbp)
	movb	$1, -25(%rbp)
	movb	$0, -26(%rbp)
	movq	-168(%rbp), %rdx
	movq	40(%rdx), %rsi
	movq	%rsi, -56(%rbp)
	movq	32(%rdx), %rsi
	movq	%rsi, -64(%rbp)
	movq	24(%rdx), %rsi
	movq	%rsi, -72(%rbp)
	movq	16(%rdx), %rsi
	movq	%rsi, -80(%rbp)
	movq	(%rdx), %rsi
	movq	8(%rdx), %rdi
	movq	%rdi, -88(%rbp)
	movq	%rsi, -96(%rbp)
Ltmp30:
	leaq	-144(%rbp), %rdi
	leaq	-96(%rbp), %rsi
	callq	__ZN63_$LT$I$u20$as$u20$core..iter..traits..collect..IntoIterator$GT$9into_iter17h6f87838072e12f90E
Ltmp31:
	jmp	LBB9_3
LBB9_3:
	leaq	-152(%rbp), %rax
	movq	%rax, -48(%rbp)
	movq	-48(%rbp), %rsi
Ltmp32:
	leaq	-144(%rbp), %rdi
	callq	__ZN4core4iter6traits8iterator8Iterator8for_each17hb7c54d6c0c45bcf9E
Ltmp33:
	jmp	LBB9_4
LBB9_4:
	movb	$0, -25(%rbp)
	movl	-152(%rbp), %eax
	movl	%eax, -32(%rbp)
	movl	-32(%rbp), %edi
Ltmp34:
	callq	__ZN10proc_macro6bridge6client18TokenStreamBuilder5build17h64da876c4c46937bE
Ltmp35:
	movl	%eax, -176(%rbp)
	jmp	LBB9_5
LBB9_5:
	movl	-176(%rbp), %eax
	movl	%eax, -4(%rbp)
	movl	-4(%rbp), %ecx
	movl	%ecx, -40(%rbp)
	movl	-40(%rbp), %ecx
	movl	%ecx, -160(%rbp)
	movb	$0, -25(%rbp)
	movl	-160(%rbp), %eax
	addq	$176, %rsp
	popq	%rbp
	retq
LBB9_6:
	movb	$0, -26(%rbp)
	movq	-168(%rbp), %rdi
	callq	__ZN4core3ptr13drop_in_place17hedfad1a1d0255c30E
	jmp	LBB9_1
LBB9_7:
	testb	$1, -26(%rbp)
	jne	LBB9_6
	jmp	LBB9_1
LBB9_8:
	movb	$0, -25(%rbp)
	leaq	-152(%rbp), %rdi
	callq	__ZN4core3ptr13drop_in_place17h246478e8f97bbac1E
	jmp	LBB9_7
LBB9_9:
	testb	$1, -25(%rbp)
	jne	LBB9_8
	jmp	LBB9_7
LBB9_10:
Ltmp29:
	movq	%rax, -24(%rbp)
	movl	%edx, -16(%rbp)
	jmp	LBB9_7
LBB9_11:
Ltmp36:
	movq	%rax, -24(%rbp)
	movl	%edx, -16(%rbp)
	jmp	LBB9_9
Lfunc_end3:
	.cfi_endproc
	.section	__TEXT,__gcc_except_tab
	.p2align	2
GCC_except_table9:
Lexception3:
	.byte	255
	.byte	255
	.byte	1
	.uleb128 Lcst_end3-Lcst_begin3
Lcst_begin3:
	.uleb128 Ltmp27-Lfunc_begin3
	.uleb128 Ltmp28-Ltmp27
	.uleb128 Ltmp29-Lfunc_begin3
	.byte	0
	.uleb128 Ltmp28-Lfunc_begin3
	.uleb128 Ltmp30-Ltmp28
	.byte	0
	.byte	0
	.uleb128 Ltmp30-Lfunc_begin3
	.uleb128 Ltmp35-Ltmp30
	.uleb128 Ltmp36-Lfunc_begin3
	.byte	0
	.uleb128 Ltmp35-Lfunc_begin3
	.uleb128 Lfunc_end3-Ltmp35
	.byte	0
	.byte	0
Lcst_end3:
	.p2align	2

	.section	__TEXT,__text,regular,pure_instructions
	.globl	__ZN116_$LT$proc_macro..TokenStream$u20$as$u20$core..iter..traits..collect..FromIterator$LT$proc_macro..TokenStream$GT$$GT$9from_iter28_$u7b$$u7b$closure$u7d$$u7d$17h250d481ed3264d69E
	.p2align	4, 0x90
__ZN116_$LT$proc_macro..TokenStream$u20$as$u20$core..iter..traits..collect..FromIterator$LT$proc_macro..TokenStream$GT$$GT$9from_iter28_$u7b$$u7b$closure$u7d$$u7d$17h250d481ed3264d69E:
	.cfi_startproc
	pushq	%rbp
	.cfi_def_cfa_offset 16
	.cfi_offset %rbp, -16
	movq	%rsp, %rbp
	.cfi_def_cfa_register %rbp
	subq	$16, %rsp
	movl	%esi, -12(%rbp)
	movl	-12(%rbp), %eax
	movl	%eax, -16(%rbp)
	movq	(%rdi), %rdi
	movl	-16(%rbp), %eax
	movl	%eax, -8(%rbp)
	movl	-8(%rbp), %esi
	callq	__ZN10proc_macro6bridge6client18TokenStreamBuilder4push17hf0bec3eacbbe7ebeE
	addq	$16, %rsp
	popq	%rbp
	retq
	.cfi_endproc

	.globl	__ZN119_$LT$core..ptr..non_null..NonNull$LT$T$GT$$u20$as$u20$core..convert..From$LT$core..ptr..unique..Unique$LT$T$GT$$GT$$GT$4from17hfbd1c88470f0b4f6E
	.p2align	4, 0x90
__ZN119_$LT$core..ptr..non_null..NonNull$LT$T$GT$$u20$as$u20$core..convert..From$LT$core..ptr..unique..Unique$LT$T$GT$$GT$$GT$4from17hfbd1c88470f0b4f6E:
	.cfi_startproc
	pushq	%rbp
	.cfi_def_cfa_offset 16
	.cfi_offset %rbp, -16
	movq	%rsp, %rbp
	.cfi_def_cfa_register %rbp
	subq	$16, %rsp
	callq	__ZN4core3ptr6unique15Unique$LT$T$GT$6as_ptr17hed84ac334b44046eE
	movq	%rax, -8(%rbp)
	movq	-8(%rbp), %rdi
	callq	__ZN4core3ptr8non_null16NonNull$LT$T$GT$13new_unchecked17h4b650d71b1cf5f4dE
	movq	%rax, -16(%rbp)
	movq	-16(%rbp), %rax
	addq	$16, %rsp
	popq	%rbp
	retq
	.cfi_endproc

	.globl	__ZN135_$LT$$LT$alloc..vec..Drain$LT$T$GT$$u20$as$u20$core..ops..drop..Drop$GT$..drop..DropGuard$LT$T$GT$$u20$as$u20$core..ops..drop..Drop$GT$4drop17hf33c15972eceeed5E
	.p2align	4, 0x90
__ZN135_$LT$$LT$alloc..vec..Drain$LT$T$GT$$u20$as$u20$core..ops..drop..Drop$GT$..drop..DropGuard$LT$T$GT$$u20$as$u20$core..ops..drop..Drop$GT$4drop17hf33c15972eceeed5E:
	.cfi_startproc
	pushq	%rbp
	.cfi_def_cfa_offset 16
	.cfi_offset %rbp, -16
	movq	%rsp, %rbp
	.cfi_def_cfa_register %rbp
	subq	$80, %rsp
	movq	(%rdi), %rax
	movq	%rdi, -16(%rbp)
	movq	%rax, %rdi
	callq	__ZN4core4iter6traits8iterator8Iterator8for_each17ha17833e3bfc94301E
	movq	-16(%rbp), %rax
	movq	(%rax), %rcx
	cmpq	$0, 8(%rcx)
	ja	LBB12_3
	jmp	LBB12_15
LBB12_3:
	movq	-16(%rbp), %rax
	movq	(%rax), %rcx
	addq	$32, %rcx
	movq	%rcx, %rdi
	callq	__ZN4core3ptr8non_null16NonNull$LT$T$GT$6as_mut17h91d6407069ba52f3E
	movq	%rax, -24(%rbp)
	movq	-24(%rbp), %rdi
	callq	__ZN5alloc3vec12Vec$LT$T$GT$3len17he967f927c922daeaE
	movq	%rax, -32(%rbp)
	movq	-16(%rbp), %rax
	movq	(%rax), %rcx
	movq	(%rcx), %rcx
	movq	-32(%rbp), %rdx
	cmpq	%rdx, %rcx
	movq	%rcx, -40(%rbp)
	jne	LBB12_7
	jmp	LBB12_13
LBB12_7:
	movq	-24(%rbp), %rdi
	callq	__ZN5alloc3vec12Vec$LT$T$GT$6as_ptr17h634dff694595a920E
	movq	%rax, -48(%rbp)
	movq	-48(%rbp), %rdi
	movq	-40(%rbp), %rsi
	callq	__ZN4core3ptr9const_ptr33_$LT$impl$u20$$BP$const$u20$T$GT$3add17hc22350a263d033beE
	movq	%rax, -56(%rbp)
	movq	-24(%rbp), %rdi
	callq	__ZN5alloc3vec12Vec$LT$T$GT$10as_mut_ptr17hdd3e98b3a729a9d9E
	movq	%rax, -64(%rbp)
	movq	-64(%rbp), %rdi
	movq	-32(%rbp), %rsi
	callq	__ZN4core3ptr7mut_ptr31_$LT$impl$u20$$BP$mut$u20$T$GT$3add17ha11fcb336fc24e5aE
	movq	%rax, -72(%rbp)
	movq	-16(%rbp), %rax
	movq	(%rax), %rcx
	movq	8(%rcx), %rdx
	movq	-56(%rbp), %rdi
	movq	-72(%rbp), %rsi
	callq	__ZN4core10intrinsics4copy17h80abbedefd51ac11E
	jmp	LBB12_13
LBB12_13:
	movq	-16(%rbp), %rax
	movq	(%rax), %rcx
	movq	-32(%rbp), %rdx
	addq	8(%rcx), %rdx
	movq	-24(%rbp), %rdi
	movq	%rdx, %rsi
	callq	__ZN5alloc3vec12Vec$LT$T$GT$7set_len17hcc42600dcd011e73E
	jmp	LBB12_15
LBB12_15:
	addq	$80, %rsp
	popq	%rbp
	retq
	.cfi_endproc

	.globl	__ZN138_$LT$$LT$alloc..vec..IntoIter$LT$T$GT$$u20$as$u20$core..ops..drop..Drop$GT$..drop..DropGuard$LT$T$GT$$u20$as$u20$core..ops..drop..Drop$GT$4drop17hf388c3cf1410fa2aE
	.p2align	4, 0x90
__ZN138_$LT$$LT$alloc..vec..IntoIter$LT$T$GT$$u20$as$u20$core..ops..drop..Drop$GT$..drop..DropGuard$LT$T$GT$$u20$as$u20$core..ops..drop..Drop$GT$4drop17hf388c3cf1410fa2aE:
	.cfi_startproc
	pushq	%rbp
	.cfi_def_cfa_offset 16
	.cfi_offset %rbp, -16
	movq	%rsp, %rbp
	.cfi_def_cfa_register %rbp
	subq	$32, %rsp
	movq	(%rdi), %rax
	movq	(%rax), %rax
	movq	%rdi, -24(%rbp)
	movq	%rax, %rdi
	callq	__ZN4core3ptr8non_null16NonNull$LT$T$GT$6as_ptr17h84a4a06c5c610fd6E
	movq	%rax, -32(%rbp)
	movq	-24(%rbp), %rax
	movq	(%rax), %rcx
	movq	8(%rcx), %rsi
	movq	-32(%rbp), %rdi
	callq	__ZN5alloc7raw_vec15RawVec$LT$T$GT$14from_raw_parts17h6ca4e9e438c5cf41E
	movq	%rdx, -8(%rbp)
	movq	%rax, -16(%rbp)
	leaq	-16(%rbp), %rdi
	callq	__ZN4core3ptr13drop_in_place17hf40b909b2cd31c5eE
	addq	$32, %rsp
	popq	%rbp
	retq
	.cfi_endproc

	.globl	__ZN36_$LT$T$u20$as$u20$core..any..Any$GT$7type_id17hc5923c261fba2ed0E
	.p2align	4, 0x90
__ZN36_$LT$T$u20$as$u20$core..any..Any$GT$7type_id17hc5923c261fba2ed0E:
	.cfi_startproc
	pushq	%rbp
	.cfi_def_cfa_offset 16
	.cfi_offset %rbp, -16
	movq	%rsp, %rbp
	.cfi_def_cfa_register %rbp
	subq	$16, %rsp
	movq	%rdi, -8(%rbp)
	callq	__ZN4core3any6TypeId2of17h705ff4fe589ec18eE
	movq	%rax, -16(%rbp)
	movq	-16(%rbp), %rax
	addq	$16, %rsp
	popq	%rbp
	retq
	.cfi_endproc

	.p2align	4, 0x90
__ZN3std4sync4once4Once12is_completed17h02ada6f6aeb87b54E:
	.cfi_startproc
	pushq	%rbp
	.cfi_def_cfa_offset 16
	.cfi_offset %rbp, -16
	movq	%rsp, %rbp
	.cfi_def_cfa_register %rbp
	subq	$16, %rsp
	movl	$2, %esi
	callq	__ZN4core4sync6atomic11AtomicUsize4load17hcccf79e5122f6366E
	movq	%rax, -8(%rbp)
	movq	-8(%rbp), %rax
	cmpq	$3, %rax
	sete	%cl
	andb	$1, %cl
	movzbl	%cl, %edx
	movl	%edx, %eax
	addq	$16, %rsp
	popq	%rbp
	retq
	.cfi_endproc

	.globl	__ZN3std4sync4once4Once9call_once17hf76ae966a934ac7eE
	.p2align	4, 0x90
__ZN3std4sync4once4Once9call_once17hf76ae966a934ac7eE:
Lfunc_begin4:
	.cfi_startproc
	.cfi_personality 155, _rust_eh_personality
	.cfi_lsda 16, Lexception4
	pushq	%rbp
	.cfi_def_cfa_offset 16
	.cfi_offset %rbp, -16
	movq	%rsp, %rbp
	.cfi_def_cfa_register %rbp
	subq	$64, %rsp
	movb	$0, -17(%rbp)
	movb	$1, -17(%rbp)
Ltmp37:
	movq	%rdi, -48(%rbp)
	callq	__ZN3std4sync4once4Once12is_completed17h02ada6f6aeb87b54E
Ltmp38:
	movb	%al, -49(%rbp)
	jmp	LBB16_2
LBB16_1:
	movq	-16(%rbp), %rdi
	callq	__Unwind_Resume
	ud2
LBB16_2:
	movb	-49(%rbp), %al
	testb	$1, %al
	jne	LBB16_4
	jmp	LBB16_3
LBB16_3:
	movb	$0, -17(%rbp)
	movb	$1, -33(%rbp)
	leaq	-33(%rbp), %rax
	movq	%rax, -32(%rbp)
Ltmp40:
	leaq	l___unnamed_1(%rip), %rcx
	xorl	%esi, %esi
	leaq	-32(%rbp), %rdx
	movq	-48(%rbp), %rdi
	callq	__ZN3std4sync4once4Once10call_inner17hfcd38045e50af9d3E
Ltmp41:
	jmp	LBB16_6
LBB16_4:
	movb	$0, -17(%rbp)
LBB16_5:
	addq	$64, %rsp
	popq	%rbp
	retq
LBB16_6:
	jmp	LBB16_8
LBB16_7:
	jmp	LBB16_10
LBB16_8:
	jmp	LBB16_5
LBB16_9:
	movb	$0, -17(%rbp)
	jmp	LBB16_1
LBB16_10:
	testb	$1, -17(%rbp)
	jne	LBB16_9
	jmp	LBB16_1
LBB16_11:
Ltmp39:
	movq	%rax, -16(%rbp)
	movl	%edx, -8(%rbp)
	jmp	LBB16_10
LBB16_12:
Ltmp42:
	movq	%rax, -16(%rbp)
	movl	%edx, -8(%rbp)
	jmp	LBB16_7
Lfunc_end4:
	.cfi_endproc
	.section	__TEXT,__gcc_except_tab
	.p2align	2
GCC_except_table16:
Lexception4:
	.byte	255
	.byte	255
	.byte	1
	.uleb128 Lcst_end4-Lcst_begin4
Lcst_begin4:
	.uleb128 Ltmp37-Lfunc_begin4
	.uleb128 Ltmp38-Ltmp37
	.uleb128 Ltmp39-Lfunc_begin4
	.byte	0
	.uleb128 Ltmp38-Lfunc_begin4
	.uleb128 Ltmp40-Ltmp38
	.byte	0
	.byte	0
	.uleb128 Ltmp40-Lfunc_begin4
	.uleb128 Ltmp41-Ltmp40
	.uleb128 Ltmp42-Lfunc_begin4
	.byte	0
Lcst_end4:
	.p2align	2

	.section	__TEXT,__text,regular,pure_instructions
	.globl	__ZN3std4sync4once4Once9call_once28_$u7b$$u7b$closure$u7d$$u7d$17hc9aa99a2a8b4f119E
	.p2align	4, 0x90
__ZN3std4sync4once4Once9call_once28_$u7b$$u7b$closure$u7d$$u7d$17hc9aa99a2a8b4f119E:
	.cfi_startproc
	pushq	%rbp
	.cfi_def_cfa_offset 16
	.cfi_offset %rbp, -16
	movq	%rsp, %rbp
	.cfi_def_cfa_register %rbp
	subq	$16, %rsp
	movq	(%rdi), %rdi
	movq	%rsi, -8(%rbp)
	callq	__ZN4core6option15Option$LT$T$GT$4take17hc93f17edb9f1a7aaE
	movb	%al, -9(%rbp)
	movb	-9(%rbp), %al
	movzbl	%al, %ecx
	andl	$1, %ecx
	leaq	l___unnamed_2(%rip), %rsi
	movl	%ecx, %edi
	callq	__ZN4core6option15Option$LT$T$GT$6unwrap17h5d763e7b3a217622E
	callq	__ZN4core3ops8function6FnOnce9call_once17hb1bb6a1b1bac8ebaE
	addq	$16, %rsp
	popq	%rbp
	retq
	.cfi_endproc

	.globl	__ZN3std5panic12catch_unwind17h6c4833d08163a374E
	.p2align	4, 0x90
__ZN3std5panic12catch_unwind17h6c4833d08163a374E:
	.cfi_startproc
	pushq	%rbp
	.cfi_def_cfa_offset 16
	.cfi_offset %rbp, -16
	movq	%rsp, %rbp
	.cfi_def_cfa_register %rbp
	subq	$16, %rsp
	movq	%rdi, %rax
	movq	%rax, -8(%rbp)
	callq	__ZN3std9panicking3try17he1a9fc81207818b2E
	movq	-8(%rbp), %rax
	addq	$16, %rsp
	popq	%rbp
	retq
	.cfi_endproc

	.globl	__ZN3std5panic12catch_unwind17h775ce5f2005c8aa7E
	.p2align	4, 0x90
__ZN3std5panic12catch_unwind17h775ce5f2005c8aa7E:
	.cfi_startproc
	pushq	%rbp
	.cfi_def_cfa_offset 16
	.cfi_offset %rbp, -16
	movq	%rsp, %rbp
	.cfi_def_cfa_register %rbp
	subq	$16, %rsp
	movq	%rdi, %rax
	movq	%rax, -8(%rbp)
	callq	__ZN3std9panicking3try17hd082bdbe6feb02ccE
	movq	-8(%rbp), %rax
	addq	$16, %rsp
	popq	%rbp
	retq
	.cfi_endproc

	.globl	__ZN3std9panicking11begin_panic17h673c1ec0952ac37bE
	.p2align	4, 0x90
__ZN3std9panicking11begin_panic17h673c1ec0952ac37bE:
Lfunc_begin5:
	.cfi_startproc
	.cfi_personality 155, _rust_eh_personality
	.cfi_lsda 16, Lexception5
	pushq	%rbp
	.cfi_def_cfa_offset 16
	.cfi_offset %rbp, -16
	movq	%rsp, %rbp
	.cfi_def_cfa_register %rbp
	subq	$80, %rsp
	movb	$0, -17(%rbp)
	movb	$1, -17(%rbp)
	movb	$0, -17(%rbp)
Ltmp43:
	movq	%rdx, -48(%rbp)
	callq	__ZN3std9panicking11begin_panic21PanicPayload$LT$A$GT$3new17h72fbb252ff64e30dE
Ltmp44:
	movq	%rdx, -56(%rbp)
	movq	%rax, -64(%rbp)
	jmp	LBB20_2
LBB20_1:
	movq	-16(%rbp), %rdi
	callq	__Unwind_Resume
	ud2
LBB20_2:
	movq	-64(%rbp), %rax
	movq	%rax, -40(%rbp)
	movq	-56(%rbp), %rcx
	movq	%rcx, -32(%rbp)
	leaq	-40(%rbp), %rdi
Ltmp46:
	movq	-48(%rbp), %rdx
	movq	%rdi, -72(%rbp)
	movq	%rdx, %rdi
	callq	__ZN4core5panic8Location6caller17hb284bf0993c43fcaE
Ltmp47:
	movq	%rax, -80(%rbp)
	jmp	LBB20_4
LBB20_3:
	jmp	LBB20_6
LBB20_4:
Ltmp48:
	leaq	l___unnamed_3(%rip), %rsi
	xorl	%eax, %eax
	movl	%eax, %edx
	movq	-72(%rbp), %rdi
	movq	-80(%rbp), %rcx
	callq	__ZN3std9panicking20rust_panic_with_hook17h720143ee15fc80baE
Ltmp49:
	jmp	LBB20_9
LBB20_5:
	movb	$0, -17(%rbp)
	jmp	LBB20_1
LBB20_6:
	testb	$1, -17(%rbp)
	jne	LBB20_5
	jmp	LBB20_1
LBB20_7:
Ltmp45:
	movq	%rax, -16(%rbp)
	movl	%edx, -8(%rbp)
	jmp	LBB20_6
LBB20_8:
Ltmp50:
	movq	%rax, -16(%rbp)
	movl	%edx, -8(%rbp)
	jmp	LBB20_3
LBB20_9:
	ud2
Lfunc_end5:
	.cfi_endproc
	.section	__TEXT,__gcc_except_tab
	.p2align	2
GCC_except_table20:
Lexception5:
	.byte	255
	.byte	255
	.byte	1
	.uleb128 Lcst_end5-Lcst_begin5
Lcst_begin5:
	.uleb128 Ltmp43-Lfunc_begin5
	.uleb128 Ltmp44-Ltmp43
	.uleb128 Ltmp45-Lfunc_begin5
	.byte	0
	.uleb128 Ltmp44-Lfunc_begin5
	.uleb128 Ltmp46-Ltmp44
	.byte	0
	.byte	0
	.uleb128 Ltmp46-Lfunc_begin5
	.uleb128 Ltmp49-Ltmp46
	.uleb128 Ltmp50-Lfunc_begin5
	.byte	0
Lcst_end5:
	.p2align	2

	.section	__TEXT,__text,regular,pure_instructions
	.globl	__ZN3std9panicking11begin_panic21PanicPayload$LT$A$GT$3new17h72fbb252ff64e30dE
	.p2align	4, 0x90
__ZN3std9panicking11begin_panic21PanicPayload$LT$A$GT$3new17h72fbb252ff64e30dE:
	.cfi_startproc
	pushq	%rbp
	.cfi_def_cfa_offset 16
	.cfi_offset %rbp, -16
	movq	%rsp, %rbp
	.cfi_def_cfa_register %rbp
	subq	$32, %rsp
	movq	%rdi, -16(%rbp)
	movq	%rsi, -8(%rbp)
	movq	-16(%rbp), %rax
	movq	-8(%rbp), %rcx
	movq	%rax, -32(%rbp)
	movq	%rcx, -24(%rbp)
	movq	-32(%rbp), %rax
	movq	-24(%rbp), %rdx
	addq	$32, %rsp
	popq	%rbp
	retq
	.cfi_endproc

	.globl	__ZN3std9panicking3try17hd082bdbe6feb02ccE
	.p2align	4, 0x90
__ZN3std9panicking3try17hd082bdbe6feb02ccE:
	.cfi_startproc
	pushq	%rbp
	.cfi_def_cfa_offset 16
	.cfi_offset %rbp, -16
	movq	%rsp, %rbp
	.cfi_def_cfa_register %rbp
	subq	$112, %rsp
	movq	%rdi, %rax
	movq	%rdi, -72(%rbp)
	movq	%rax, -80(%rbp)
	leaq	-64(%rbp), %rax
	leaq	__ZN3std9panicking3try7do_call17hf3cf8ad69a584931E(%rip), %rdi
	movq	%rax, %rsi
	leaq	__ZN3std9panicking3try8do_catch17h2d0100c15b40f47dE(%rip), %rdx
	callq	___rust_try
	movl	%eax, -32(%rbp)
	movl	-32(%rbp), %eax
	movl	%eax, -84(%rbp)
	movl	-84(%rbp), %eax
	cmpl	$0, %eax
	je	LBB22_4
	movq	-64(%rbp), %rax
	movq	-56(%rbp), %rcx
	movq	%rax, -96(%rbp)
	movq	%rcx, -104(%rbp)
	jmp	LBB22_6
LBB22_4:
	movl	-64(%rbp), %eax
	movl	%eax, -40(%rbp)
	movl	-40(%rbp), %eax
	movl	%eax, -12(%rbp)
	movl	-12(%rbp), %eax
	movl	%eax, -16(%rbp)
	movl	-16(%rbp), %eax
	movl	%eax, -8(%rbp)
	movl	-8(%rbp), %eax
	movl	%eax, -28(%rbp)
	movl	-28(%rbp), %eax
	movl	%eax, -48(%rbp)
	movl	-48(%rbp), %eax
	movq	-72(%rbp), %rcx
	movl	%eax, 4(%rcx)
	movl	$0, (%rcx)
	jmp	LBB22_7
LBB22_6:
	movq	-72(%rbp), %rax
	movq	-96(%rbp), %rcx
	movq	%rcx, 8(%rax)
	movq	-104(%rbp), %rdx
	movq	%rdx, 16(%rax)
	movl	$1, (%rax)
LBB22_7:
	movq	-80(%rbp), %rax
	addq	$112, %rsp
	popq	%rbp
	retq
	.cfi_endproc

	.globl	__ZN3std9panicking3try17he1a9fc81207818b2E
	.p2align	4, 0x90
__ZN3std9panicking3try17he1a9fc81207818b2E:
	.cfi_startproc
	pushq	%rbp
	.cfi_def_cfa_offset 16
	.cfi_offset %rbp, -16
	movq	%rsp, %rbp
	.cfi_def_cfa_register %rbp
	subq	$128, %rsp
	movq	%rdi, %rax
	movq	%rsi, -32(%rbp)
	movq	-32(%rbp), %rcx
	movq	%rdi, -88(%rbp)
	movq	%rax, -96(%rbp)
	movq	%rcx, -104(%rbp)
	movq	-104(%rbp), %rax
	movq	%rax, -80(%rbp)
	leaq	-80(%rbp), %rcx
	leaq	__ZN3std9panicking3try7do_call17h2478719bf7e19603E(%rip), %rdi
	movq	%rcx, %rsi
	leaq	__ZN3std9panicking3try8do_catch17h8df9d207195aad86E(%rip), %rdx
	callq	___rust_try
	movl	%eax, -44(%rbp)
	movl	-44(%rbp), %eax
	movl	%eax, -108(%rbp)
	movl	-108(%rbp), %eax
	cmpl	$0, %eax
	je	LBB23_4
	movq	-80(%rbp), %rax
	movq	-72(%rbp), %rcx
	movq	%rax, -120(%rbp)
	movq	%rcx, -128(%rbp)
	jmp	LBB23_6
LBB23_4:
	movq	-80(%rbp), %rax
	movq	%rax, -56(%rbp)
	movq	-56(%rbp), %rax
	movq	%rax, -16(%rbp)
	movq	-16(%rbp), %rax
	movq	%rax, -24(%rbp)
	movq	-24(%rbp), %rax
	movq	%rax, -8(%rbp)
	movq	-8(%rbp), %rax
	movq	%rax, -40(%rbp)
	movq	-40(%rbp), %rax
	movq	%rax, -64(%rbp)
	movq	-64(%rbp), %rax
	movq	-88(%rbp), %rcx
	movq	%rax, 4(%rcx)
	movl	$0, (%rcx)
	jmp	LBB23_7
LBB23_6:
	movq	-88(%rbp), %rax
	movq	-120(%rbp), %rcx
	movq	%rcx, 8(%rax)
	movq	-128(%rbp), %rdx
	movq	%rdx, 16(%rax)
	movl	$1, (%rax)
LBB23_7:
	movq	-96(%rbp), %rax
	addq	$128, %rsp
	popq	%rbp
	retq
	.cfi_endproc

	.globl	__ZN3std9panicking3try7do_call17h2478719bf7e19603E
	.p2align	4, 0x90
__ZN3std9panicking3try7do_call17h2478719bf7e19603E:
	.cfi_startproc
	pushq	%rbp
	.cfi_def_cfa_offset 16
	.cfi_offset %rbp, -16
	movq	%rsp, %rbp
	.cfi_def_cfa_register %rbp
	subq	$80, %rsp
	movq	%rdi, %rax
	movq	%rdi, -72(%rbp)
	movq	%rax, %rdi
	callq	__ZN4core3mem13manually_drop21ManuallyDrop$LT$T$GT$4take17h6e4f6019d0db4bebE
	movq	%rax, -80(%rbp)
	movq	-80(%rbp), %rdi
	callq	__ZN11proc_macro23imp16proc_macro_parse28_$u7b$$u7b$closure$u7d$$u7d$17hc549217fcd7b3af2E
	movq	%rax, -48(%rbp)
	movq	-48(%rbp), %rax
	movq	%rax, -56(%rbp)
	movq	-56(%rbp), %rax
	movq	%rax, -24(%rbp)
	movq	-24(%rbp), %rax
	movq	%rax, -32(%rbp)
	movq	-32(%rbp), %rax
	movq	%rax, -8(%rbp)
	movq	-8(%rbp), %rax
	movq	%rax, -16(%rbp)
	movq	-16(%rbp), %rax
	movq	%rax, -40(%rbp)
	movq	-40(%rbp), %rax
	movq	%rax, -64(%rbp)
	movq	-64(%rbp), %rax
	movq	-72(%rbp), %rcx
	movq	%rax, (%rcx)
	addq	$80, %rsp
	popq	%rbp
	retq
	.cfi_endproc

	.globl	__ZN3std9panicking3try7do_call17hf3cf8ad69a584931E
	.p2align	4, 0x90
__ZN3std9panicking3try7do_call17hf3cf8ad69a584931E:
	.cfi_startproc
	pushq	%rbp
	.cfi_def_cfa_offset 16
	.cfi_offset %rbp, -16
	movq	%rsp, %rbp
	.cfi_def_cfa_register %rbp
	subq	$64, %rsp
	movq	%rdi, %rax
	movq	%rdi, -56(%rbp)
	movq	%rax, %rdi
	callq	__ZN4core3mem13manually_drop21ManuallyDrop$LT$T$GT$4take17h5bdf4524f00316a9E
	callq	__ZN4core3ops8function6FnOnce9call_once17had6b3de346ca63beE
	movl	%eax, -32(%rbp)
	movl	-32(%rbp), %eax
	movl	%eax, -40(%rbp)
	movl	-40(%rbp), %eax
	movl	%eax, -20(%rbp)
	movl	-20(%rbp), %eax
	movl	%eax, -24(%rbp)
	movl	-24(%rbp), %eax
	movl	%eax, -8(%rbp)
	movl	-8(%rbp), %eax
	movl	%eax, -16(%rbp)
	movl	-16(%rbp), %eax
	movl	%eax, -28(%rbp)
	movl	-28(%rbp), %eax
	movl	%eax, -48(%rbp)
	movl	-48(%rbp), %eax
	movq	-56(%rbp), %rcx
	movl	%eax, (%rcx)
	addq	$64, %rsp
	popq	%rbp
	retq
	.cfi_endproc

	.globl	__ZN3std9panicking3try8do_catch17h2d0100c15b40f47dE
	.p2align	4, 0x90
__ZN3std9panicking3try8do_catch17h2d0100c15b40f47dE:
	.cfi_startproc
	pushq	%rbp
	.cfi_def_cfa_offset 16
	.cfi_offset %rbp, -16
	movq	%rsp, %rbp
	.cfi_def_cfa_register %rbp
	subq	$64, %rsp
	movq	%rdi, -24(%rbp)
	movq	%rsi, %rdi
	callq	__ZN3std9panicking3try7cleanup17hd630ddf77975344aE
	movq	%rax, -32(%rbp)
	movq	%rdx, -40(%rbp)
	movq	-32(%rbp), %rax
	movq	%rax, -16(%rbp)
	movq	-40(%rbp), %rcx
	movq	%rcx, -8(%rbp)
	movq	-16(%rbp), %rdx
	movq	-8(%rbp), %rsi
	movq	%rdx, -48(%rbp)
	movq	%rsi, -56(%rbp)
	movq	-24(%rbp), %rax
	movq	-48(%rbp), %rcx
	movq	%rcx, (%rax)
	movq	-56(%rbp), %rdx
	movq	%rdx, 8(%rax)
	addq	$64, %rsp
	popq	%rbp
	retq
	.cfi_endproc

	.globl	__ZN3std9panicking3try8do_catch17h8df9d207195aad86E
	.p2align	4, 0x90
__ZN3std9panicking3try8do_catch17h8df9d207195aad86E:
	.cfi_startproc
	pushq	%rbp
	.cfi_def_cfa_offset 16
	.cfi_offset %rbp, -16
	movq	%rsp, %rbp
	.cfi_def_cfa_register %rbp
	subq	$64, %rsp
	movq	%rdi, -24(%rbp)
	movq	%rsi, %rdi
	callq	__ZN3std9panicking3try7cleanup17hd630ddf77975344aE
	movq	%rax, -32(%rbp)
	movq	%rdx, -40(%rbp)
	movq	-32(%rbp), %rax
	movq	%rax, -16(%rbp)
	movq	-40(%rbp), %rcx
	movq	%rcx, -8(%rbp)
	movq	-16(%rbp), %rdx
	movq	-8(%rbp), %rsi
	movq	%rdx, -48(%rbp)
	movq	%rsi, -56(%rbp)
	movq	-24(%rbp), %rax
	movq	-48(%rbp), %rcx
	movq	%rcx, (%rax)
	movq	-56(%rbp), %rdx
	movq	%rdx, 8(%rax)
	addq	$64, %rsp
	popq	%rbp
	retq
	.cfi_endproc

	.p2align	4, 0x90
__ZN41_$LT$bool$u20$as$u20$core..fmt..Debug$GT$3fmt17h2b2f7757252e93fdE:
	.cfi_startproc
	pushq	%rbp
	.cfi_def_cfa_offset 16
	.cfi_offset %rbp, -16
	movq	%rsp, %rbp
	.cfi_def_cfa_register %rbp
	subq	$16, %rsp
	callq	__ZN43_$LT$bool$u20$as$u20$core..fmt..Display$GT$3fmt17hd78396651a24cfbbE
	movb	%al, -1(%rbp)
	movb	-1(%rbp), %al
	andb	$1, %al
	movzbl	%al, %eax
	addq	$16, %rsp
	popq	%rbp
	retq
	.cfi_endproc

	.globl	__ZN42_$LT$$RF$T$u20$as$u20$core..fmt..Debug$GT$3fmt17h078ac644126d45caE
	.p2align	4, 0x90
__ZN42_$LT$$RF$T$u20$as$u20$core..fmt..Debug$GT$3fmt17h078ac644126d45caE:
	.cfi_startproc
	pushq	%rbp
	.cfi_def_cfa_offset 16
	.cfi_offset %rbp, -16
	movq	%rsp, %rbp
	.cfi_def_cfa_register %rbp
	subq	$16, %rsp
	movq	(%rdi), %rax
	movq	8(%rdi), %rcx
	movq	%rax, %rdi
	movq	%rsi, -8(%rbp)
	movq	%rcx, %rsi
	movq	-8(%rbp), %rdx
	callq	__ZN40_$LT$str$u20$as$u20$core..fmt..Debug$GT$3fmt17h5b42b6f497bd434cE
	movb	%al, -9(%rbp)
	movb	-9(%rbp), %al
	andb	$1, %al
	movzbl	%al, %eax
	addq	$16, %rsp
	popq	%rbp
	retq
	.cfi_endproc

	.globl	__ZN42_$LT$$RF$T$u20$as$u20$core..fmt..Debug$GT$3fmt17h1541e80651db8e05E
	.p2align	4, 0x90
__ZN42_$LT$$RF$T$u20$as$u20$core..fmt..Debug$GT$3fmt17h1541e80651db8e05E:
	.cfi_startproc
	pushq	%rbp
	.cfi_def_cfa_offset 16
	.cfi_offset %rbp, -16
	movq	%rsp, %rbp
	.cfi_def_cfa_register %rbp
	subq	$16, %rsp
	movq	(%rdi), %rdi
	callq	__ZN66_$LT$core..option..Option$LT$T$GT$$u20$as$u20$core..fmt..Debug$GT$3fmt17hdb6131beee644269E
	movb	%al, -1(%rbp)
	movb	-1(%rbp), %al
	andb	$1, %al
	movzbl	%al, %eax
	addq	$16, %rsp
	popq	%rbp
	retq
	.cfi_endproc

	.globl	__ZN42_$LT$$RF$T$u20$as$u20$core..fmt..Debug$GT$3fmt17ha0f95366d57f33fdE
	.p2align	4, 0x90
__ZN42_$LT$$RF$T$u20$as$u20$core..fmt..Debug$GT$3fmt17ha0f95366d57f33fdE:
	.cfi_startproc
	pushq	%rbp
	.cfi_def_cfa_offset 16
	.cfi_offset %rbp, -16
	movq	%rsp, %rbp
	.cfi_def_cfa_register %rbp
	subq	$16, %rsp
	movq	(%rdi), %rdi
	callq	__ZN4core3fmt3num52_$LT$impl$u20$core..fmt..Debug$u20$for$u20$usize$GT$3fmt17h1d86c0887cb081f3E
	movb	%al, -1(%rbp)
	movb	-1(%rbp), %al
	andb	$1, %al
	movzbl	%al, %eax
	addq	$16, %rsp
	popq	%rbp
	retq
	.cfi_endproc

	.globl	__ZN44_$LT$$RF$T$u20$as$u20$core..fmt..Display$GT$3fmt17h06fd78ff224a68e3E
	.p2align	4, 0x90
__ZN44_$LT$$RF$T$u20$as$u20$core..fmt..Display$GT$3fmt17h06fd78ff224a68e3E:
	.cfi_startproc
	pushq	%rbp
	.cfi_def_cfa_offset 16
	.cfi_offset %rbp, -16
	movq	%rsp, %rbp
	.cfi_def_cfa_register %rbp
	subq	$16, %rsp
	movq	(%rdi), %rdi
	callq	__ZN67_$LT$proc_macro2..fallback..Ident$u20$as$u20$core..fmt..Display$GT$3fmt17h9196d3467cdb6f01E
	movb	%al, -1(%rbp)
	movb	-1(%rbp), %al
	andb	$1, %al
	movzbl	%al, %eax
	addq	$16, %rsp
	popq	%rbp
	retq
	.cfi_endproc

	.globl	__ZN44_$LT$$RF$T$u20$as$u20$core..fmt..Display$GT$3fmt17h246c8f95d6ac131cE
	.p2align	4, 0x90
__ZN44_$LT$$RF$T$u20$as$u20$core..fmt..Display$GT$3fmt17h246c8f95d6ac131cE:
	.cfi_startproc
	pushq	%rbp
	.cfi_def_cfa_offset 16
	.cfi_offset %rbp, -16
	movq	%rsp, %rbp
	.cfi_def_cfa_register %rbp
	subq	$16, %rsp
	movq	(%rdi), %rdi
	callq	__ZN4core3fmt3num3imp52_$LT$impl$u20$core..fmt..Display$u20$for$u20$u64$GT$3fmt17h3230c9bc78e30ed1E
	movb	%al, -1(%rbp)
	movb	-1(%rbp), %al
	andb	$1, %al
	movzbl	%al, %eax
	addq	$16, %rsp
	popq	%rbp
	retq
	.cfi_endproc

	.globl	__ZN44_$LT$$RF$T$u20$as$u20$core..fmt..Display$GT$3fmt17h26e3e53c895f2070E
	.p2align	4, 0x90
__ZN44_$LT$$RF$T$u20$as$u20$core..fmt..Display$GT$3fmt17h26e3e53c895f2070E:
	.cfi_startproc
	pushq	%rbp
	.cfi_def_cfa_offset 16
	.cfi_offset %rbp, -16
	movq	%rsp, %rbp
	.cfi_def_cfa_register %rbp
	subq	$16, %rsp
	movq	(%rdi), %rdi
	callq	__ZN4core3fmt3num3imp52_$LT$impl$u20$core..fmt..Display$u20$for$u20$i32$GT$3fmt17h00ed7ff77f9da654E
	movb	%al, -1(%rbp)
	movb	-1(%rbp), %al
	andb	$1, %al
	movzbl	%al, %eax
	addq	$16, %rsp
	popq	%rbp
	retq
	.cfi_endproc

	.globl	__ZN44_$LT$$RF$T$u20$as$u20$core..fmt..Display$GT$3fmt17h27f6b92457384a59E
	.p2align	4, 0x90
__ZN44_$LT$$RF$T$u20$as$u20$core..fmt..Display$GT$3fmt17h27f6b92457384a59E:
	.cfi_startproc
	pushq	%rbp
	.cfi_def_cfa_offset 16
	.cfi_offset %rbp, -16
	movq	%rsp, %rbp
	.cfi_def_cfa_register %rbp
	subq	$16, %rsp
	movq	(%rdi), %rdi
	callq	__ZN4core3fmt3num3imp52_$LT$impl$u20$core..fmt..Display$u20$for$u20$u32$GT$3fmt17hb70882cf65fd1a66E
	movb	%al, -1(%rbp)
	movb	-1(%rbp), %al
	andb	$1, %al
	movzbl	%al, %eax
	addq	$16, %rsp
	popq	%rbp
	retq
	.cfi_endproc

	.globl	__ZN44_$LT$$RF$T$u20$as$u20$core..fmt..Display$GT$3fmt17h2c9d3b28373ce163E
	.p2align	4, 0x90
__ZN44_$LT$$RF$T$u20$as$u20$core..fmt..Display$GT$3fmt17h2c9d3b28373ce163E:
	.cfi_startproc
	pushq	%rbp
	.cfi_def_cfa_offset 16
	.cfi_offset %rbp, -16
	movq	%rsp, %rbp
	.cfi_def_cfa_register %rbp
	subq	$16, %rsp
	movq	(%rdi), %rdi
	callq	__ZN4core3fmt5float52_$LT$impl$u20$core..fmt..Display$u20$for$u20$f32$GT$3fmt17h2c999d2555a315baE
	movb	%al, -1(%rbp)
	movb	-1(%rbp), %al
	andb	$1, %al
	movzbl	%al, %eax
	addq	$16, %rsp
	popq	%rbp
	retq
	.cfi_endproc

	.globl	__ZN44_$LT$$RF$T$u20$as$u20$core..fmt..Display$GT$3fmt17h39f58e4fdc2a3e97E
	.p2align	4, 0x90
__ZN44_$LT$$RF$T$u20$as$u20$core..fmt..Display$GT$3fmt17h39f58e4fdc2a3e97E:
	.cfi_startproc
	pushq	%rbp
	.cfi_def_cfa_offset 16
	.cfi_offset %rbp, -16
	movq	%rsp, %rbp
	.cfi_def_cfa_register %rbp
	subq	$16, %rsp
	movq	(%rdi), %rdi
	callq	__ZN4core3fmt3num3imp51_$LT$impl$u20$core..fmt..Display$u20$for$u20$u8$GT$3fmt17hac49effbf87f075dE
	movb	%al, -1(%rbp)
	movb	-1(%rbp), %al
	andb	$1, %al
	movzbl	%al, %eax
	addq	$16, %rsp
	popq	%rbp
	retq
	.cfi_endproc

	.globl	__ZN44_$LT$$RF$T$u20$as$u20$core..fmt..Display$GT$3fmt17h3e48c2a2672c675eE
	.p2align	4, 0x90
__ZN44_$LT$$RF$T$u20$as$u20$core..fmt..Display$GT$3fmt17h3e48c2a2672c675eE:
	.cfi_startproc
	pushq	%rbp
	.cfi_def_cfa_offset 16
	.cfi_offset %rbp, -16
	movq	%rsp, %rbp
	.cfi_def_cfa_register %rbp
	subq	$16, %rsp
	movq	(%rdi), %rdi
	callq	__ZN4core3fmt5float52_$LT$impl$u20$core..fmt..Display$u20$for$u20$f64$GT$3fmt17h6661f4669fdcb1d1E
	movb	%al, -1(%rbp)
	movb	-1(%rbp), %al
	andb	$1, %al
	movzbl	%al, %eax
	addq	$16, %rsp
	popq	%rbp
	retq
	.cfi_endproc

	.globl	__ZN44_$LT$$RF$T$u20$as$u20$core..fmt..Display$GT$3fmt17h66f7456682ee1b5dE
	.p2align	4, 0x90
__ZN44_$LT$$RF$T$u20$as$u20$core..fmt..Display$GT$3fmt17h66f7456682ee1b5dE:
	.cfi_startproc
	pushq	%rbp
	.cfi_def_cfa_offset 16
	.cfi_offset %rbp, -16
	movq	%rsp, %rbp
	.cfi_def_cfa_register %rbp
	subq	$16, %rsp
	movq	(%rdi), %rdi
	callq	__ZN59_$LT$proc_macro2..Literal$u20$as$u20$core..fmt..Display$GT$3fmt17h9a79d6ad8f4522eaE
	movb	%al, -1(%rbp)
	movb	-1(%rbp), %al
	andb	$1, %al
	movzbl	%al, %eax
	addq	$16, %rsp
	popq	%rbp
	retq
	.cfi_endproc

	.globl	__ZN44_$LT$$RF$T$u20$as$u20$core..fmt..Display$GT$3fmt17h7f376705cf2f36e8E
	.p2align	4, 0x90
__ZN44_$LT$$RF$T$u20$as$u20$core..fmt..Display$GT$3fmt17h7f376705cf2f36e8E:
	.cfi_startproc
	pushq	%rbp
	.cfi_def_cfa_offset 16
	.cfi_offset %rbp, -16
	movq	%rsp, %rbp
	.cfi_def_cfa_register %rbp
	subq	$16, %rsp
	movq	(%rdi), %rdi
	callq	__ZN4core3fmt3num53_$LT$impl$u20$core..fmt..Display$u20$for$u20$i128$GT$3fmt17hc0ccce97b0b9069fE
	movb	%al, -1(%rbp)
	movb	-1(%rbp), %al
	andb	$1, %al
	movzbl	%al, %eax
	addq	$16, %rsp
	popq	%rbp
	retq
	.cfi_endproc

	.globl	__ZN44_$LT$$RF$T$u20$as$u20$core..fmt..Display$GT$3fmt17h81b65b5797c5405cE
	.p2align	4, 0x90
__ZN44_$LT$$RF$T$u20$as$u20$core..fmt..Display$GT$3fmt17h81b65b5797c5405cE:
	.cfi_startproc
	pushq	%rbp
	.cfi_def_cfa_offset 16
	.cfi_offset %rbp, -16
	movq	%rsp, %rbp
	.cfi_def_cfa_register %rbp
	subq	$16, %rsp
	movq	(%rdi), %rdi
	callq	__ZN4core3fmt3num3imp54_$LT$impl$u20$core..fmt..Display$u20$for$u20$usize$GT$3fmt17h12ea2856299c9b06E
	movb	%al, -1(%rbp)
	movb	-1(%rbp), %al
	andb	$1, %al
	movzbl	%al, %eax
	addq	$16, %rsp
	popq	%rbp
	retq
	.cfi_endproc

	.globl	__ZN44_$LT$$RF$T$u20$as$u20$core..fmt..Display$GT$3fmt17h935901b5d797dc14E
	.p2align	4, 0x90
__ZN44_$LT$$RF$T$u20$as$u20$core..fmt..Display$GT$3fmt17h935901b5d797dc14E:
	.cfi_startproc
	pushq	%rbp
	.cfi_def_cfa_offset 16
	.cfi_offset %rbp, -16
	movq	%rsp, %rbp
	.cfi_def_cfa_register %rbp
	subq	$16, %rsp
	movq	(%rdi), %rdi
	callq	__ZN4core3fmt3num3imp52_$LT$impl$u20$core..fmt..Display$u20$for$u20$u16$GT$3fmt17h5ce1a50c193bc52eE
	movb	%al, -1(%rbp)
	movb	-1(%rbp), %al
	andb	$1, %al
	movzbl	%al, %eax
	addq	$16, %rsp
	popq	%rbp
	retq
	.cfi_endproc

	.globl	__ZN44_$LT$$RF$T$u20$as$u20$core..fmt..Display$GT$3fmt17hbb13a84e3e6c4710E
	.p2align	4, 0x90
__ZN44_$LT$$RF$T$u20$as$u20$core..fmt..Display$GT$3fmt17hbb13a84e3e6c4710E:
	.cfi_startproc
	pushq	%rbp
	.cfi_def_cfa_offset 16
	.cfi_offset %rbp, -16
	movq	%rsp, %rbp
	.cfi_def_cfa_register %rbp
	subq	$16, %rsp
	movq	(%rdi), %rdi
	callq	__ZN4core3fmt3num3imp52_$LT$impl$u20$core..fmt..Display$u20$for$u20$i64$GT$3fmt17h310ed6661e8c983fE
	movb	%al, -1(%rbp)
	movb	-1(%rbp), %al
	andb	$1, %al
	movzbl	%al, %eax
	addq	$16, %rsp
	popq	%rbp
	retq
	.cfi_endproc

	.globl	__ZN44_$LT$$RF$T$u20$as$u20$core..fmt..Display$GT$3fmt17hcdf5f60180aea4c4E
	.p2align	4, 0x90
__ZN44_$LT$$RF$T$u20$as$u20$core..fmt..Display$GT$3fmt17hcdf5f60180aea4c4E:
	.cfi_startproc
	pushq	%rbp
	.cfi_def_cfa_offset 16
	.cfi_offset %rbp, -16
	movq	%rsp, %rbp
	.cfi_def_cfa_register %rbp
	subq	$16, %rsp
	movq	(%rdi), %rdi
	callq	__ZN4core3fmt3num3imp54_$LT$impl$u20$core..fmt..Display$u20$for$u20$isize$GT$3fmt17h236bd2501b52340bE
	movb	%al, -1(%rbp)
	movb	-1(%rbp), %al
	andb	$1, %al
	movzbl	%al, %eax
	addq	$16, %rsp
	popq	%rbp
	retq
	.cfi_endproc

	.globl	__ZN44_$LT$$RF$T$u20$as$u20$core..fmt..Display$GT$3fmt17hce547f4aece0611aE
	.p2align	4, 0x90
__ZN44_$LT$$RF$T$u20$as$u20$core..fmt..Display$GT$3fmt17hce547f4aece0611aE:
	.cfi_startproc
	pushq	%rbp
	.cfi_def_cfa_offset 16
	.cfi_offset %rbp, -16
	movq	%rsp, %rbp
	.cfi_def_cfa_register %rbp
	subq	$16, %rsp
	movq	(%rdi), %rdi
	callq	__ZN4core3fmt3num53_$LT$impl$u20$core..fmt..Display$u20$for$u20$u128$GT$3fmt17h24a40e99587872eaE
	movb	%al, -1(%rbp)
	movb	-1(%rbp), %al
	andb	$1, %al
	movzbl	%al, %eax
	addq	$16, %rsp
	popq	%rbp
	retq
	.cfi_endproc

	.globl	__ZN44_$LT$$RF$T$u20$as$u20$core..fmt..Display$GT$3fmt17hd21fa1414147e1efE
	.p2align	4, 0x90
__ZN44_$LT$$RF$T$u20$as$u20$core..fmt..Display$GT$3fmt17hd21fa1414147e1efE:
	.cfi_startproc
	pushq	%rbp
	.cfi_def_cfa_offset 16
	.cfi_offset %rbp, -16
	movq	%rsp, %rbp
	.cfi_def_cfa_register %rbp
	subq	$16, %rsp
	movq	(%rdi), %rdi
	callq	__ZN73_$LT$proc_macro2..fallback..TokenStream$u20$as$u20$core..fmt..Display$GT$3fmt17hd1c680f1c3bdef84E
	movb	%al, -1(%rbp)
	movb	-1(%rbp), %al
	andb	$1, %al
	movzbl	%al, %eax
	addq	$16, %rsp
	popq	%rbp
	retq
	.cfi_endproc

	.globl	__ZN44_$LT$$RF$T$u20$as$u20$core..fmt..Display$GT$3fmt17hd3b8bf8b44ef5755E
	.p2align	4, 0x90
__ZN44_$LT$$RF$T$u20$as$u20$core..fmt..Display$GT$3fmt17hd3b8bf8b44ef5755E:
	.cfi_startproc
	pushq	%rbp
	.cfi_def_cfa_offset 16
	.cfi_offset %rbp, -16
	movq	%rsp, %rbp
	.cfi_def_cfa_register %rbp
	subq	$16, %rsp
	movq	(%rdi), %rax
	movq	8(%rdi), %rcx
	movq	%rax, %rdi
	movq	%rsi, -8(%rbp)
	movq	%rcx, %rsi
	movq	-8(%rbp), %rdx
	callq	__ZN42_$LT$str$u20$as$u20$core..fmt..Display$GT$3fmt17h6768afae62e94f93E
	movb	%al, -9(%rbp)
	movb	-9(%rbp), %al
	andb	$1, %al
	movzbl	%al, %eax
	addq	$16, %rsp
	popq	%rbp
	retq
	.cfi_endproc

	.globl	__ZN44_$LT$$RF$T$u20$as$u20$core..fmt..Display$GT$3fmt17hdf457f895e247b29E
	.p2align	4, 0x90
__ZN44_$LT$$RF$T$u20$as$u20$core..fmt..Display$GT$3fmt17hdf457f895e247b29E:
	.cfi_startproc
	pushq	%rbp
	.cfi_def_cfa_offset 16
	.cfi_offset %rbp, -16
	movq	%rsp, %rbp
	.cfi_def_cfa_register %rbp
	subq	$16, %rsp
	movq	(%rdi), %rdi
	callq	__ZN57_$LT$proc_macro2..Ident$u20$as$u20$core..fmt..Display$GT$3fmt17h91d251364abd0e4dE
	movb	%al, -1(%rbp)
	movb	-1(%rbp), %al
	andb	$1, %al
	movzbl	%al, %eax
	addq	$16, %rsp
	popq	%rbp
	retq
	.cfi_endproc

	.globl	__ZN44_$LT$$RF$T$u20$as$u20$core..fmt..Display$GT$3fmt17he3aa10e358a15b34E
	.p2align	4, 0x90
__ZN44_$LT$$RF$T$u20$as$u20$core..fmt..Display$GT$3fmt17he3aa10e358a15b34E:
	.cfi_startproc
	pushq	%rbp
	.cfi_def_cfa_offset 16
	.cfi_offset %rbp, -16
	movq	%rsp, %rbp
	.cfi_def_cfa_register %rbp
	subq	$16, %rsp
	movq	(%rdi), %rdi
	callq	__ZN4core3fmt3num3imp52_$LT$impl$u20$core..fmt..Display$u20$for$u20$i16$GT$3fmt17h7c7135e52a8bf68aE
	movb	%al, -1(%rbp)
	movb	-1(%rbp), %al
	andb	$1, %al
	movzbl	%al, %eax
	addq	$16, %rsp
	popq	%rbp
	retq
	.cfi_endproc

	.globl	__ZN44_$LT$$RF$T$u20$as$u20$core..fmt..Display$GT$3fmt17hea151d8bdf199180E
	.p2align	4, 0x90
__ZN44_$LT$$RF$T$u20$as$u20$core..fmt..Display$GT$3fmt17hea151d8bdf199180E:
	.cfi_startproc
	pushq	%rbp
	.cfi_def_cfa_offset 16
	.cfi_offset %rbp, -16
	movq	%rsp, %rbp
	.cfi_def_cfa_register %rbp
	subq	$16, %rsp
	movq	(%rdi), %rdi
	callq	__ZN4core3fmt3num3imp51_$LT$impl$u20$core..fmt..Display$u20$for$u20$i8$GT$3fmt17hc9fc67837369c997E
	movb	%al, -1(%rbp)
	movb	-1(%rbp), %al
	andb	$1, %al
	movzbl	%al, %eax
	addq	$16, %rsp
	popq	%rbp
	retq
	.cfi_endproc

	.p2align	4, 0x90
__ZN44_$LT$u8$u20$as$u20$core..slice..SliceOrd$GT$7compare17h67659bc95ca99c12E:
	.cfi_startproc
	pushq	%rbp
	.cfi_def_cfa_offset 16
	.cfi_offset %rbp, -16
	movq	%rsp, %rbp
	.cfi_def_cfa_register %rbp
	subq	$112, %rsp
	movq	%rdi, -32(%rbp)
	movq	%rsi, -40(%rbp)
	movq	%rdx, -48(%rbp)
	movq	%rcx, -56(%rbp)
	callq	__ZN4core5slice29_$LT$impl$u20$$u5b$T$u5d$$GT$6as_ptr17ha6f7923b84569e11E
	movq	%rax, -64(%rbp)
	movq	-48(%rbp), %rdi
	movq	-56(%rbp), %rsi
	callq	__ZN4core5slice29_$LT$impl$u20$$u5b$T$u5d$$GT$6as_ptr17ha6f7923b84569e11E
	movq	%rax, -72(%rbp)
	movq	-32(%rbp), %rdi
	movq	-40(%rbp), %rsi
	callq	__ZN4core5slice29_$LT$impl$u20$$u5b$T$u5d$$GT$3len17he6ef8850c7085a2dE
	movq	%rax, -80(%rbp)
	movq	-48(%rbp), %rdi
	movq	-56(%rbp), %rsi
	callq	__ZN4core5slice29_$LT$impl$u20$$u5b$T$u5d$$GT$3len17he6ef8850c7085a2dE
	movq	%rax, -88(%rbp)
	movq	-80(%rbp), %rdi
	movq	-88(%rbp), %rsi
	callq	__ZN4core3cmp3min17h077da5baed1f6c39E
	movq	%rax, -96(%rbp)
	movq	-64(%rbp), %rdi
	movq	-72(%rbp), %rsi
	movq	-96(%rbp), %rdx
	callq	_memcmp
	movl	%eax, -100(%rbp)
	movl	-100(%rbp), %eax
	cmpl	$0, %eax
	je	LBB51_8
	movl	-100(%rbp), %eax
	cmpl	$0, %eax
	jl	LBB51_13
	jmp	LBB51_12
LBB51_8:
	movq	-32(%rbp), %rdi
	movq	-40(%rbp), %rsi
	callq	__ZN4core5slice29_$LT$impl$u20$$u5b$T$u5d$$GT$3len17he6ef8850c7085a2dE
	movq	%rax, -16(%rbp)
	movq	-48(%rbp), %rdi
	movq	-56(%rbp), %rsi
	callq	__ZN4core5slice29_$LT$impl$u20$$u5b$T$u5d$$GT$3len17he6ef8850c7085a2dE
	movq	%rax, -8(%rbp)
	leaq	-16(%rbp), %rdi
	leaq	-8(%rbp), %rsi
	callq	__ZN4core3cmp5impls50_$LT$impl$u20$core..cmp..Ord$u20$for$u20$usize$GT$3cmp17h826f61ce68a315f2E
	movb	%al, -17(%rbp)
	jmp	LBB51_15
LBB51_12:
	movb	$1, -17(%rbp)
	jmp	LBB51_14
LBB51_13:
	movb	$-1, -17(%rbp)
LBB51_14:
	jmp	LBB51_15
LBB51_15:
	movb	-17(%rbp), %al
	addq	$112, %rsp
	popq	%rbp
	retq
	.cfi_endproc

	.globl	__ZN45_$LT$$RF$T$u20$as$u20$core..fmt..UpperHex$GT$3fmt17hbc2b6c0d24f130d0E
	.p2align	4, 0x90
__ZN45_$LT$$RF$T$u20$as$u20$core..fmt..UpperHex$GT$3fmt17hbc2b6c0d24f130d0E:
	.cfi_startproc
	pushq	%rbp
	.cfi_def_cfa_offset 16
	.cfi_offset %rbp, -16
	movq	%rsp, %rbp
	.cfi_def_cfa_register %rbp
	subq	$16, %rsp
	movq	(%rdi), %rdi
	callq	__ZN4core3fmt3num52_$LT$impl$u20$core..fmt..UpperHex$u20$for$u20$u8$GT$3fmt17hdec4e64a988d6129E
	movb	%al, -1(%rbp)
	movb	-1(%rbp), %al
	andb	$1, %al
	movzbl	%al, %eax
	addq	$16, %rsp
	popq	%rbp
	retq
	.cfi_endproc

	.globl	__ZN45_$LT$T$u20$as$u20$alloc..string..ToString$GT$9to_string17h0af0a18c7fcda5eaE
	.p2align	4, 0x90
__ZN45_$LT$T$u20$as$u20$alloc..string..ToString$GT$9to_string17h0af0a18c7fcda5eaE:
Lfunc_begin6:
	.cfi_startproc
	.cfi_personality 155, _rust_eh_personality
	.cfi_lsda 16, Lexception6
	pushq	%rbp
	.cfi_def_cfa_offset 16
	.cfi_offset %rbp, -16
	movq	%rsp, %rbp
	.cfi_def_cfa_register %rbp
	subq	$176, %rsp
	movq	%rdi, %rax
	movq	%rsi, -96(%rbp)
	movq	%rdi, -104(%rbp)
	movq	%rax, -112(%rbp)
	callq	__ZN5alloc6string6String3new17h82791e3c35dfa7efE
	jmp	LBB53_2
LBB53_1:
	movq	-16(%rbp), %rdi
	callq	__Unwind_Resume
	ud2
LBB53_2:
	movq	l___unnamed_4(%rip), %rsi
	leaq	-96(%rbp), %rax
	movq	%rax, -24(%rbp)
	movq	-24(%rbp), %rdi
Ltmp51:
	leaq	__ZN44_$LT$$RF$T$u20$as$u20$core..fmt..Display$GT$3fmt17hea151d8bdf199180E(%rip), %rax
	movq	%rsi, -120(%rbp)
	movq	%rax, %rsi
	callq	__ZN4core3fmt10ArgumentV13new17h9097524c10ff154aE
Ltmp52:
	movq	%rdx, -128(%rbp)
	movq	%rax, -136(%rbp)
	jmp	LBB53_3
LBB53_3:
	movq	-136(%rbp), %rax
	movq	%rax, -40(%rbp)
	movq	-128(%rbp), %rcx
	movq	%rcx, -32(%rbp)
Ltmp53:
	leaq	-88(%rbp), %rdi
	leaq	-40(%rbp), %rcx
	movl	$1, %edx
	movq	-120(%rbp), %rsi
	movq	%rdx, -144(%rbp)
	movq	-144(%rbp), %r8
	callq	__ZN4core3fmt9Arguments6new_v117h34942c0b01f71f88E
Ltmp54:
	jmp	LBB53_5
LBB53_4:
	movq	-104(%rbp), %rdi
	callq	__ZN4core3ptr13drop_in_place17h06786e25de60db61E
	jmp	LBB53_1
LBB53_5:
Ltmp55:
	leaq	-88(%rbp), %rsi
	movq	-104(%rbp), %rdi
	callq	__ZN4core3fmt5Write9write_fmt17hd6ca5f44da661dc9E
Ltmp56:
	movb	%al, -145(%rbp)
	jmp	LBB53_6
LBB53_6:
Ltmp57:
	movb	-145(%rbp), %al
	movzbl	%al, %ecx
	andl	$1, %ecx
	leaq	l___unnamed_5(%rip), %rsi
	leaq	l___unnamed_6(%rip), %rdx
	movl	$55, %edi
	movq	%rdi, -160(%rbp)
	movl	%ecx, %edi
	movq	-160(%rbp), %r8
	movq	%rdx, -168(%rbp)
	movq	%r8, %rdx
	movq	-168(%rbp), %rcx
	callq	__ZN4core6result19Result$LT$T$C$E$GT$6expect17h43f64fb5b4987be7E
Ltmp58:
	jmp	LBB53_7
LBB53_7:
Ltmp59:
	movq	-104(%rbp), %rdi
	callq	__ZN5alloc6string6String13shrink_to_fit17h8c6df4a9edbda94bE
Ltmp60:
	jmp	LBB53_8
LBB53_8:
	movq	-112(%rbp), %rax
	addq	$176, %rsp
	popq	%rbp
	retq
LBB53_9:
Ltmp61:
	movq	%rax, -16(%rbp)
	movl	%edx, -8(%rbp)
	jmp	LBB53_4
Lfunc_end6:
	.cfi_endproc
	.section	__TEXT,__gcc_except_tab
	.p2align	2
GCC_except_table53:
Lexception6:
	.byte	255
	.byte	255
	.byte	1
	.uleb128 Lcst_end6-Lcst_begin6
Lcst_begin6:
	.uleb128 Lfunc_begin6-Lfunc_begin6
	.uleb128 Ltmp51-Lfunc_begin6
	.byte	0
	.byte	0
	.uleb128 Ltmp51-Lfunc_begin6
	.uleb128 Ltmp54-Ltmp51
	.uleb128 Ltmp61-Lfunc_begin6
	.byte	0
	.uleb128 Ltmp54-Lfunc_begin6
	.uleb128 Ltmp55-Ltmp54
	.byte	0
	.byte	0
	.uleb128 Ltmp55-Lfunc_begin6
	.uleb128 Ltmp60-Ltmp55
	.uleb128 Ltmp61-Lfunc_begin6
	.byte	0
Lcst_end6:
	.p2align	2

	.section	__TEXT,__text,regular,pure_instructions
	.globl	__ZN45_$LT$T$u20$as$u20$alloc..string..ToString$GT$9to_string17h14b181f4f246ddb4E
	.p2align	4, 0x90
__ZN45_$LT$T$u20$as$u20$alloc..string..ToString$GT$9to_string17h14b181f4f246ddb4E:
Lfunc_begin7:
	.cfi_startproc
	.cfi_personality 155, _rust_eh_personality
	.cfi_lsda 16, Lexception7
	pushq	%rbp
	.cfi_def_cfa_offset 16
	.cfi_offset %rbp, -16
	movq	%rsp, %rbp
	.cfi_def_cfa_register %rbp
	subq	$176, %rsp
	movq	%rdi, %rax
	movq	%rsi, -96(%rbp)
	movq	%rdi, -104(%rbp)
	movq	%rax, -112(%rbp)
	callq	__ZN5alloc6string6String3new17h82791e3c35dfa7efE
	jmp	LBB54_2
LBB54_1:
	movq	-16(%rbp), %rdi
	callq	__Unwind_Resume
	ud2
LBB54_2:
	movq	l___unnamed_4(%rip), %rsi
	leaq	-96(%rbp), %rax
	movq	%rax, -24(%rbp)
	movq	-24(%rbp), %rdi
Ltmp62:
	leaq	__ZN44_$LT$$RF$T$u20$as$u20$core..fmt..Display$GT$3fmt17h26e3e53c895f2070E(%rip), %rax
	movq	%rsi, -120(%rbp)
	movq	%rax, %rsi
	callq	__ZN4core3fmt10ArgumentV13new17h41b4ae8bad5e72eeE
Ltmp63:
	movq	%rdx, -128(%rbp)
	movq	%rax, -136(%rbp)
	jmp	LBB54_3
LBB54_3:
	movq	-136(%rbp), %rax
	movq	%rax, -40(%rbp)
	movq	-128(%rbp), %rcx
	movq	%rcx, -32(%rbp)
Ltmp64:
	leaq	-88(%rbp), %rdi
	leaq	-40(%rbp), %rcx
	movl	$1, %edx
	movq	-120(%rbp), %rsi
	movq	%rdx, -144(%rbp)
	movq	-144(%rbp), %r8
	callq	__ZN4core3fmt9Arguments6new_v117h34942c0b01f71f88E
Ltmp65:
	jmp	LBB54_5
LBB54_4:
	movq	-104(%rbp), %rdi
	callq	__ZN4core3ptr13drop_in_place17h06786e25de60db61E
	jmp	LBB54_1
LBB54_5:
Ltmp66:
	leaq	-88(%rbp), %rsi
	movq	-104(%rbp), %rdi
	callq	__ZN4core3fmt5Write9write_fmt17hd6ca5f44da661dc9E
Ltmp67:
	movb	%al, -145(%rbp)
	jmp	LBB54_6
LBB54_6:
Ltmp68:
	movb	-145(%rbp), %al
	movzbl	%al, %ecx
	andl	$1, %ecx
	leaq	l___unnamed_5(%rip), %rsi
	leaq	l___unnamed_6(%rip), %rdx
	movl	$55, %edi
	movq	%rdi, -160(%rbp)
	movl	%ecx, %edi
	movq	-160(%rbp), %r8
	movq	%rdx, -168(%rbp)
	movq	%r8, %rdx
	movq	-168(%rbp), %rcx
	callq	__ZN4core6result19Result$LT$T$C$E$GT$6expect17h43f64fb5b4987be7E
Ltmp69:
	jmp	LBB54_7
LBB54_7:
Ltmp70:
	movq	-104(%rbp), %rdi
	callq	__ZN5alloc6string6String13shrink_to_fit17h8c6df4a9edbda94bE
Ltmp71:
	jmp	LBB54_8
LBB54_8:
	movq	-112(%rbp), %rax
	addq	$176, %rsp
	popq	%rbp
	retq
LBB54_9:
Ltmp72:
	movq	%rax, -16(%rbp)
	movl	%edx, -8(%rbp)
	jmp	LBB54_4
Lfunc_end7:
	.cfi_endproc
	.section	__TEXT,__gcc_except_tab
	.p2align	2
GCC_except_table54:
Lexception7:
	.byte	255
	.byte	255
	.byte	1
	.uleb128 Lcst_end7-Lcst_begin7
Lcst_begin7:
	.uleb128 Lfunc_begin7-Lfunc_begin7
	.uleb128 Ltmp62-Lfunc_begin7
	.byte	0
	.byte	0
	.uleb128 Ltmp62-Lfunc_begin7
	.uleb128 Ltmp65-Ltmp62
	.uleb128 Ltmp72-Lfunc_begin7
	.byte	0
	.uleb128 Ltmp65-Lfunc_begin7
	.uleb128 Ltmp66-Ltmp65
	.byte	0
	.byte	0
	.uleb128 Ltmp66-Lfunc_begin7
	.uleb128 Ltmp71-Ltmp66
	.uleb128 Ltmp72-Lfunc_begin7
	.byte	0
Lcst_end7:
	.p2align	2

	.section	__TEXT,__text,regular,pure_instructions
	.globl	__ZN45_$LT$T$u20$as$u20$alloc..string..ToString$GT$9to_string17h1d4365768e018df9E
	.p2align	4, 0x90
__ZN45_$LT$T$u20$as$u20$alloc..string..ToString$GT$9to_string17h1d4365768e018df9E:
Lfunc_begin8:
	.cfi_startproc
	.cfi_personality 155, _rust_eh_personality
	.cfi_lsda 16, Lexception8
	pushq	%rbp
	.cfi_def_cfa_offset 16
	.cfi_offset %rbp, -16
	movq	%rsp, %rbp
	.cfi_def_cfa_register %rbp
	subq	$176, %rsp
	movq	%rdi, %rax
	movq	%rsi, -96(%rbp)
	movq	%rdi, -104(%rbp)
	movq	%rax, -112(%rbp)
	callq	__ZN5alloc6string6String3new17h82791e3c35dfa7efE
	jmp	LBB55_2
LBB55_1:
	movq	-16(%rbp), %rdi
	callq	__Unwind_Resume
	ud2
LBB55_2:
	movq	l___unnamed_4(%rip), %rsi
	leaq	-96(%rbp), %rax
	movq	%rax, -24(%rbp)
	movq	-24(%rbp), %rdi
Ltmp73:
	leaq	__ZN44_$LT$$RF$T$u20$as$u20$core..fmt..Display$GT$3fmt17hd21fa1414147e1efE(%rip), %rax
	movq	%rsi, -120(%rbp)
	movq	%rax, %rsi
	callq	__ZN4core3fmt10ArgumentV13new17h7dd20912fb46835dE
Ltmp74:
	movq	%rdx, -128(%rbp)
	movq	%rax, -136(%rbp)
	jmp	LBB55_3
LBB55_3:
	movq	-136(%rbp), %rax
	movq	%rax, -40(%rbp)
	movq	-128(%rbp), %rcx
	movq	%rcx, -32(%rbp)
Ltmp75:
	leaq	-88(%rbp), %rdi
	leaq	-40(%rbp), %rcx
	movl	$1, %edx
	movq	-120(%rbp), %rsi
	movq	%rdx, -144(%rbp)
	movq	-144(%rbp), %r8
	callq	__ZN4core3fmt9Arguments6new_v117h34942c0b01f71f88E
Ltmp76:
	jmp	LBB55_5
LBB55_4:
	movq	-104(%rbp), %rdi
	callq	__ZN4core3ptr13drop_in_place17h06786e25de60db61E
	jmp	LBB55_1
LBB55_5:
Ltmp77:
	leaq	-88(%rbp), %rsi
	movq	-104(%rbp), %rdi
	callq	__ZN4core3fmt5Write9write_fmt17hd6ca5f44da661dc9E
Ltmp78:
	movb	%al, -145(%rbp)
	jmp	LBB55_6
LBB55_6:
Ltmp79:
	movb	-145(%rbp), %al
	movzbl	%al, %ecx
	andl	$1, %ecx
	leaq	l___unnamed_5(%rip), %rsi
	leaq	l___unnamed_6(%rip), %rdx
	movl	$55, %edi
	movq	%rdi, -160(%rbp)
	movl	%ecx, %edi
	movq	-160(%rbp), %r8
	movq	%rdx, -168(%rbp)
	movq	%r8, %rdx
	movq	-168(%rbp), %rcx
	callq	__ZN4core6result19Result$LT$T$C$E$GT$6expect17h43f64fb5b4987be7E
Ltmp80:
	jmp	LBB55_7
LBB55_7:
Ltmp81:
	movq	-104(%rbp), %rdi
	callq	__ZN5alloc6string6String13shrink_to_fit17h8c6df4a9edbda94bE
Ltmp82:
	jmp	LBB55_8
LBB55_8:
	movq	-112(%rbp), %rax
	addq	$176, %rsp
	popq	%rbp
	retq
LBB55_9:
Ltmp83:
	movq	%rax, -16(%rbp)
	movl	%edx, -8(%rbp)
	jmp	LBB55_4
Lfunc_end8:
	.cfi_endproc
	.section	__TEXT,__gcc_except_tab
	.p2align	2
GCC_except_table55:
Lexception8:
	.byte	255
	.byte	255
	.byte	1
	.uleb128 Lcst_end8-Lcst_begin8
Lcst_begin8:
	.uleb128 Lfunc_begin8-Lfunc_begin8
	.uleb128 Ltmp73-Lfunc_begin8
	.byte	0
	.byte	0
	.uleb128 Ltmp73-Lfunc_begin8
	.uleb128 Ltmp76-Ltmp73
	.uleb128 Ltmp83-Lfunc_begin8
	.byte	0
	.uleb128 Ltmp76-Lfunc_begin8
	.uleb128 Ltmp77-Ltmp76
	.byte	0
	.byte	0
	.uleb128 Ltmp77-Lfunc_begin8
	.uleb128 Ltmp82-Ltmp77
	.uleb128 Ltmp83-Lfunc_begin8
	.byte	0
Lcst_end8:
	.p2align	2

	.section	__TEXT,__text,regular,pure_instructions
	.globl	__ZN45_$LT$T$u20$as$u20$alloc..string..ToString$GT$9to_string17h2ad19c7b916eca28E
	.p2align	4, 0x90
__ZN45_$LT$T$u20$as$u20$alloc..string..ToString$GT$9to_string17h2ad19c7b916eca28E:
Lfunc_begin9:
	.cfi_startproc
	.cfi_personality 155, _rust_eh_personality
	.cfi_lsda 16, Lexception9
	pushq	%rbp
	.cfi_def_cfa_offset 16
	.cfi_offset %rbp, -16
	movq	%rsp, %rbp
	.cfi_def_cfa_register %rbp
	subq	$176, %rsp
	movq	%rdi, %rax
	movq	%rsi, -96(%rbp)
	movq	%rdi, -104(%rbp)
	movq	%rax, -112(%rbp)
	callq	__ZN5alloc6string6String3new17h82791e3c35dfa7efE
	jmp	LBB56_2
LBB56_1:
	movq	-16(%rbp), %rdi
	callq	__Unwind_Resume
	ud2
LBB56_2:
	movq	l___unnamed_4(%rip), %rsi
	leaq	-96(%rbp), %rax
	movq	%rax, -24(%rbp)
	movq	-24(%rbp), %rdi
Ltmp84:
	leaq	__ZN44_$LT$$RF$T$u20$as$u20$core..fmt..Display$GT$3fmt17he3aa10e358a15b34E(%rip), %rax
	movq	%rsi, -120(%rbp)
	movq	%rax, %rsi
	callq	__ZN4core3fmt10ArgumentV13new17h37e56351446d219bE
Ltmp85:
	movq	%rdx, -128(%rbp)
	movq	%rax, -136(%rbp)
	jmp	LBB56_3
LBB56_3:
	movq	-136(%rbp), %rax
	movq	%rax, -40(%rbp)
	movq	-128(%rbp), %rcx
	movq	%rcx, -32(%rbp)
Ltmp86:
	leaq	-88(%rbp), %rdi
	leaq	-40(%rbp), %rcx
	movl	$1, %edx
	movq	-120(%rbp), %rsi
	movq	%rdx, -144(%rbp)
	movq	-144(%rbp), %r8
	callq	__ZN4core3fmt9Arguments6new_v117h34942c0b01f71f88E
Ltmp87:
	jmp	LBB56_5
LBB56_4:
	movq	-104(%rbp), %rdi
	callq	__ZN4core3ptr13drop_in_place17h06786e25de60db61E
	jmp	LBB56_1
LBB56_5:
Ltmp88:
	leaq	-88(%rbp), %rsi
	movq	-104(%rbp), %rdi
	callq	__ZN4core3fmt5Write9write_fmt17hd6ca5f44da661dc9E
Ltmp89:
	movb	%al, -145(%rbp)
	jmp	LBB56_6
LBB56_6:
Ltmp90:
	movb	-145(%rbp), %al
	movzbl	%al, %ecx
	andl	$1, %ecx
	leaq	l___unnamed_5(%rip), %rsi
	leaq	l___unnamed_6(%rip), %rdx
	movl	$55, %edi
	movq	%rdi, -160(%rbp)
	movl	%ecx, %edi
	movq	-160(%rbp), %r8
	movq	%rdx, -168(%rbp)
	movq	%r8, %rdx
	movq	-168(%rbp), %rcx
	callq	__ZN4core6result19Result$LT$T$C$E$GT$6expect17h43f64fb5b4987be7E
Ltmp91:
	jmp	LBB56_7
LBB56_7:
Ltmp92:
	movq	-104(%rbp), %rdi
	callq	__ZN5alloc6string6String13shrink_to_fit17h8c6df4a9edbda94bE
Ltmp93:
	jmp	LBB56_8
LBB56_8:
	movq	-112(%rbp), %rax
	addq	$176, %rsp
	popq	%rbp
	retq
LBB56_9:
Ltmp94:
	movq	%rax, -16(%rbp)
	movl	%edx, -8(%rbp)
	jmp	LBB56_4
Lfunc_end9:
	.cfi_endproc
	.section	__TEXT,__gcc_except_tab
	.p2align	2
GCC_except_table56:
Lexception9:
	.byte	255
	.byte	255
	.byte	1
	.uleb128 Lcst_end9-Lcst_begin9
Lcst_begin9:
	.uleb128 Lfunc_begin9-Lfunc_begin9
	.uleb128 Ltmp84-Lfunc_begin9
	.byte	0
	.byte	0
	.uleb128 Ltmp84-Lfunc_begin9
	.uleb128 Ltmp87-Ltmp84
	.uleb128 Ltmp94-Lfunc_begin9
	.byte	0
	.uleb128 Ltmp87-Lfunc_begin9
	.uleb128 Ltmp88-Ltmp87
	.byte	0
	.byte	0
	.uleb128 Ltmp88-Lfunc_begin9
	.uleb128 Ltmp93-Ltmp88
	.uleb128 Ltmp94-Lfunc_begin9
	.byte	0
Lcst_end9:
	.p2align	2

	.section	__TEXT,__text,regular,pure_instructions
	.globl	__ZN45_$LT$T$u20$as$u20$alloc..string..ToString$GT$9to_string17h2ee4ce2fafacbfc7E
	.p2align	4, 0x90
__ZN45_$LT$T$u20$as$u20$alloc..string..ToString$GT$9to_string17h2ee4ce2fafacbfc7E:
Lfunc_begin10:
	.cfi_startproc
	.cfi_personality 155, _rust_eh_personality
	.cfi_lsda 16, Lexception10
	pushq	%rbp
	.cfi_def_cfa_offset 16
	.cfi_offset %rbp, -16
	movq	%rsp, %rbp
	.cfi_def_cfa_register %rbp
	subq	$176, %rsp
	movq	%rdi, %rax
	movq	%rsi, -96(%rbp)
	movq	%rdi, -104(%rbp)
	movq	%rax, -112(%rbp)
	callq	__ZN5alloc6string6String3new17h82791e3c35dfa7efE
	jmp	LBB57_2
LBB57_1:
	movq	-16(%rbp), %rdi
	callq	__Unwind_Resume
	ud2
LBB57_2:
	movq	l___unnamed_4(%rip), %rsi
	leaq	-96(%rbp), %rax
	movq	%rax, -24(%rbp)
	movq	-24(%rbp), %rdi
Ltmp95:
	leaq	__ZN44_$LT$$RF$T$u20$as$u20$core..fmt..Display$GT$3fmt17h27f6b92457384a59E(%rip), %rax
	movq	%rsi, -120(%rbp)
	movq	%rax, %rsi
	callq	__ZN4core3fmt10ArgumentV13new17hcc7d64771f3bc43cE
Ltmp96:
	movq	%rdx, -128(%rbp)
	movq	%rax, -136(%rbp)
	jmp	LBB57_3
LBB57_3:
	movq	-136(%rbp), %rax
	movq	%rax, -40(%rbp)
	movq	-128(%rbp), %rcx
	movq	%rcx, -32(%rbp)
Ltmp97:
	leaq	-88(%rbp), %rdi
	leaq	-40(%rbp), %rcx
	movl	$1, %edx
	movq	-120(%rbp), %rsi
	movq	%rdx, -144(%rbp)
	movq	-144(%rbp), %r8
	callq	__ZN4core3fmt9Arguments6new_v117h34942c0b01f71f88E
Ltmp98:
	jmp	LBB57_5
LBB57_4:
	movq	-104(%rbp), %rdi
	callq	__ZN4core3ptr13drop_in_place17h06786e25de60db61E
	jmp	LBB57_1
LBB57_5:
Ltmp99:
	leaq	-88(%rbp), %rsi
	movq	-104(%rbp), %rdi
	callq	__ZN4core3fmt5Write9write_fmt17hd6ca5f44da661dc9E
Ltmp100:
	movb	%al, -145(%rbp)
	jmp	LBB57_6
LBB57_6:
Ltmp101:
	movb	-145(%rbp), %al
	movzbl	%al, %ecx
	andl	$1, %ecx
	leaq	l___unnamed_5(%rip), %rsi
	leaq	l___unnamed_6(%rip), %rdx
	movl	$55, %edi
	movq	%rdi, -160(%rbp)
	movl	%ecx, %edi
	movq	-160(%rbp), %r8
	movq	%rdx, -168(%rbp)
	movq	%r8, %rdx
	movq	-168(%rbp), %rcx
	callq	__ZN4core6result19Result$LT$T$C$E$GT$6expect17h43f64fb5b4987be7E
Ltmp102:
	jmp	LBB57_7
LBB57_7:
Ltmp103:
	movq	-104(%rbp), %rdi
	callq	__ZN5alloc6string6String13shrink_to_fit17h8c6df4a9edbda94bE
Ltmp104:
	jmp	LBB57_8
LBB57_8:
	movq	-112(%rbp), %rax
	addq	$176, %rsp
	popq	%rbp
	retq
LBB57_9:
Ltmp105:
	movq	%rax, -16(%rbp)
	movl	%edx, -8(%rbp)
	jmp	LBB57_4
Lfunc_end10:
	.cfi_endproc
	.section	__TEXT,__gcc_except_tab
	.p2align	2
GCC_except_table57:
Lexception10:
	.byte	255
	.byte	255
	.byte	1
	.uleb128 Lcst_end10-Lcst_begin10
Lcst_begin10:
	.uleb128 Lfunc_begin10-Lfunc_begin10
	.uleb128 Ltmp95-Lfunc_begin10
	.byte	0
	.byte	0
	.uleb128 Ltmp95-Lfunc_begin10
	.uleb128 Ltmp98-Ltmp95
	.uleb128 Ltmp105-Lfunc_begin10
	.byte	0
	.uleb128 Ltmp98-Lfunc_begin10
	.uleb128 Ltmp99-Ltmp98
	.byte	0
	.byte	0
	.uleb128 Ltmp99-Lfunc_begin10
	.uleb128 Ltmp104-Ltmp99
	.uleb128 Ltmp105-Lfunc_begin10
	.byte	0
Lcst_end10:
	.p2align	2

	.section	__TEXT,__text,regular,pure_instructions
	.globl	__ZN45_$LT$T$u20$as$u20$alloc..string..ToString$GT$9to_string17h34df1bd0f3bff538E
	.p2align	4, 0x90
__ZN45_$LT$T$u20$as$u20$alloc..string..ToString$GT$9to_string17h34df1bd0f3bff538E:
Lfunc_begin11:
	.cfi_startproc
	.cfi_personality 155, _rust_eh_personality
	.cfi_lsda 16, Lexception11
	pushq	%rbp
	.cfi_def_cfa_offset 16
	.cfi_offset %rbp, -16
	movq	%rsp, %rbp
	.cfi_def_cfa_register %rbp
	subq	$176, %rsp
	movq	%rdi, %rax
	movq	%rsi, -96(%rbp)
	movq	%rdi, -104(%rbp)
	movq	%rax, -112(%rbp)
	callq	__ZN5alloc6string6String3new17h82791e3c35dfa7efE
	jmp	LBB58_2
LBB58_1:
	movq	-16(%rbp), %rdi
	callq	__Unwind_Resume
	ud2
LBB58_2:
	movq	l___unnamed_4(%rip), %rsi
	leaq	-96(%rbp), %rax
	movq	%rax, -24(%rbp)
	movq	-24(%rbp), %rdi
Ltmp106:
	leaq	__ZN44_$LT$$RF$T$u20$as$u20$core..fmt..Display$GT$3fmt17h2c9d3b28373ce163E(%rip), %rax
	movq	%rsi, -120(%rbp)
	movq	%rax, %rsi
	callq	__ZN4core3fmt10ArgumentV13new17h2bf4e29b87959b7eE
Ltmp107:
	movq	%rdx, -128(%rbp)
	movq	%rax, -136(%rbp)
	jmp	LBB58_3
LBB58_3:
	movq	-136(%rbp), %rax
	movq	%rax, -40(%rbp)
	movq	-128(%rbp), %rcx
	movq	%rcx, -32(%rbp)
Ltmp108:
	leaq	-88(%rbp), %rdi
	leaq	-40(%rbp), %rcx
	movl	$1, %edx
	movq	-120(%rbp), %rsi
	movq	%rdx, -144(%rbp)
	movq	-144(%rbp), %r8
	callq	__ZN4core3fmt9Arguments6new_v117h34942c0b01f71f88E
Ltmp109:
	jmp	LBB58_5
LBB58_4:
	movq	-104(%rbp), %rdi
	callq	__ZN4core3ptr13drop_in_place17h06786e25de60db61E
	jmp	LBB58_1
LBB58_5:
Ltmp110:
	leaq	-88(%rbp), %rsi
	movq	-104(%rbp), %rdi
	callq	__ZN4core3fmt5Write9write_fmt17hd6ca5f44da661dc9E
Ltmp111:
	movb	%al, -145(%rbp)
	jmp	LBB58_6
LBB58_6:
Ltmp112:
	movb	-145(%rbp), %al
	movzbl	%al, %ecx
	andl	$1, %ecx
	leaq	l___unnamed_5(%rip), %rsi
	leaq	l___unnamed_6(%rip), %rdx
	movl	$55, %edi
	movq	%rdi, -160(%rbp)
	movl	%ecx, %edi
	movq	-160(%rbp), %r8
	movq	%rdx, -168(%rbp)
	movq	%r8, %rdx
	movq	-168(%rbp), %rcx
	callq	__ZN4core6result19Result$LT$T$C$E$GT$6expect17h43f64fb5b4987be7E
Ltmp113:
	jmp	LBB58_7
LBB58_7:
Ltmp114:
	movq	-104(%rbp), %rdi
	callq	__ZN5alloc6string6String13shrink_to_fit17h8c6df4a9edbda94bE
Ltmp115:
	jmp	LBB58_8
LBB58_8:
	movq	-112(%rbp), %rax
	addq	$176, %rsp
	popq	%rbp
	retq
LBB58_9:
Ltmp116:
	movq	%rax, -16(%rbp)
	movl	%edx, -8(%rbp)
	jmp	LBB58_4
Lfunc_end11:
	.cfi_endproc
	.section	__TEXT,__gcc_except_tab
	.p2align	2
GCC_except_table58:
Lexception11:
	.byte	255
	.byte	255
	.byte	1
	.uleb128 Lcst_end11-Lcst_begin11
Lcst_begin11:
	.uleb128 Lfunc_begin11-Lfunc_begin11
	.uleb128 Ltmp106-Lfunc_begin11
	.byte	0
	.byte	0
	.uleb128 Ltmp106-Lfunc_begin11
	.uleb128 Ltmp109-Ltmp106
	.uleb128 Ltmp116-Lfunc_begin11
	.byte	0
	.uleb128 Ltmp109-Lfunc_begin11
	.uleb128 Ltmp110-Ltmp109
	.byte	0
	.byte	0
	.uleb128 Ltmp110-Lfunc_begin11
	.uleb128 Ltmp115-Ltmp110
	.uleb128 Ltmp116-Lfunc_begin11
	.byte	0
Lcst_end11:
	.p2align	2

	.section	__TEXT,__text,regular,pure_instructions
	.globl	__ZN45_$LT$T$u20$as$u20$alloc..string..ToString$GT$9to_string17h3cb26a43c646a873E
	.p2align	4, 0x90
__ZN45_$LT$T$u20$as$u20$alloc..string..ToString$GT$9to_string17h3cb26a43c646a873E:
Lfunc_begin12:
	.cfi_startproc
	.cfi_personality 155, _rust_eh_personality
	.cfi_lsda 16, Lexception12
	pushq	%rbp
	.cfi_def_cfa_offset 16
	.cfi_offset %rbp, -16
	movq	%rsp, %rbp
	.cfi_def_cfa_register %rbp
	subq	$176, %rsp
	movq	%rdi, %rax
	movq	%rsi, -96(%rbp)
	movq	%rdi, -104(%rbp)
	movq	%rax, -112(%rbp)
	callq	__ZN5alloc6string6String3new17h82791e3c35dfa7efE
	jmp	LBB59_2
LBB59_1:
	movq	-16(%rbp), %rdi
	callq	__Unwind_Resume
	ud2
LBB59_2:
	movq	l___unnamed_4(%rip), %rsi
	leaq	-96(%rbp), %rax
	movq	%rax, -24(%rbp)
	movq	-24(%rbp), %rdi
Ltmp117:
	leaq	__ZN44_$LT$$RF$T$u20$as$u20$core..fmt..Display$GT$3fmt17h39f58e4fdc2a3e97E(%rip), %rax
	movq	%rsi, -120(%rbp)
	movq	%rax, %rsi
	callq	__ZN4core3fmt10ArgumentV13new17h2764d2a33c0e44cdE
Ltmp118:
	movq	%rdx, -128(%rbp)
	movq	%rax, -136(%rbp)
	jmp	LBB59_3
LBB59_3:
	movq	-136(%rbp), %rax
	movq	%rax, -40(%rbp)
	movq	-128(%rbp), %rcx
	movq	%rcx, -32(%rbp)
Ltmp119:
	leaq	-88(%rbp), %rdi
	leaq	-40(%rbp), %rcx
	movl	$1, %edx
	movq	-120(%rbp), %rsi
	movq	%rdx, -144(%rbp)
	movq	-144(%rbp), %r8
	callq	__ZN4core3fmt9Arguments6new_v117h34942c0b01f71f88E
Ltmp120:
	jmp	LBB59_5
LBB59_4:
	movq	-104(%rbp), %rdi
	callq	__ZN4core3ptr13drop_in_place17h06786e25de60db61E
	jmp	LBB59_1
LBB59_5:
Ltmp121:
	leaq	-88(%rbp), %rsi
	movq	-104(%rbp), %rdi
	callq	__ZN4core3fmt5Write9write_fmt17hd6ca5f44da661dc9E
Ltmp122:
	movb	%al, -145(%rbp)
	jmp	LBB59_6
LBB59_6:
Ltmp123:
	movb	-145(%rbp), %al
	movzbl	%al, %ecx
	andl	$1, %ecx
	leaq	l___unnamed_5(%rip), %rsi
	leaq	l___unnamed_6(%rip), %rdx
	movl	$55, %edi
	movq	%rdi, -160(%rbp)
	movl	%ecx, %edi
	movq	-160(%rbp), %r8
	movq	%rdx, -168(%rbp)
	movq	%r8, %rdx
	movq	-168(%rbp), %rcx
	callq	__ZN4core6result19Result$LT$T$C$E$GT$6expect17h43f64fb5b4987be7E
Ltmp124:
	jmp	LBB59_7
LBB59_7:
Ltmp125:
	movq	-104(%rbp), %rdi
	callq	__ZN5alloc6string6String13shrink_to_fit17h8c6df4a9edbda94bE
Ltmp126:
	jmp	LBB59_8
LBB59_8:
	movq	-112(%rbp), %rax
	addq	$176, %rsp
	popq	%rbp
	retq
LBB59_9:
Ltmp127:
	movq	%rax, -16(%rbp)
	movl	%edx, -8(%rbp)
	jmp	LBB59_4
Lfunc_end12:
	.cfi_endproc
	.section	__TEXT,__gcc_except_tab
	.p2align	2
GCC_except_table59:
Lexception12:
	.byte	255
	.byte	255
	.byte	1
	.uleb128 Lcst_end12-Lcst_begin12
Lcst_begin12:
	.uleb128 Lfunc_begin12-Lfunc_begin12
	.uleb128 Ltmp117-Lfunc_begin12
	.byte	0
	.byte	0
	.uleb128 Ltmp117-Lfunc_begin12
	.uleb128 Ltmp120-Ltmp117
	.uleb128 Ltmp127-Lfunc_begin12
	.byte	0
	.uleb128 Ltmp120-Lfunc_begin12
	.uleb128 Ltmp121-Ltmp120
	.byte	0
	.byte	0
	.uleb128 Ltmp121-Lfunc_begin12
	.uleb128 Ltmp126-Ltmp121
	.uleb128 Ltmp127-Lfunc_begin12
	.byte	0
Lcst_end12:
	.p2align	2

	.section	__TEXT,__text,regular,pure_instructions
	.globl	__ZN45_$LT$T$u20$as$u20$alloc..string..ToString$GT$9to_string17h59e72e35f9f5b1e5E
	.p2align	4, 0x90
__ZN45_$LT$T$u20$as$u20$alloc..string..ToString$GT$9to_string17h59e72e35f9f5b1e5E:
Lfunc_begin13:
	.cfi_startproc
	.cfi_personality 155, _rust_eh_personality
	.cfi_lsda 16, Lexception13
	pushq	%rbp
	.cfi_def_cfa_offset 16
	.cfi_offset %rbp, -16
	movq	%rsp, %rbp
	.cfi_def_cfa_register %rbp
	subq	$176, %rsp
	movq	%rdi, %rax
	movq	%rsi, -96(%rbp)
	movq	%rdi, -104(%rbp)
	movq	%rax, -112(%rbp)
	callq	__ZN5alloc6string6String3new17h82791e3c35dfa7efE
	jmp	LBB60_2
LBB60_1:
	movq	-16(%rbp), %rdi
	callq	__Unwind_Resume
	ud2
LBB60_2:
	movq	l___unnamed_4(%rip), %rsi
	leaq	-96(%rbp), %rax
	movq	%rax, -24(%rbp)
	movq	-24(%rbp), %rdi
Ltmp128:
	leaq	__ZN44_$LT$$RF$T$u20$as$u20$core..fmt..Display$GT$3fmt17hdf457f895e247b29E(%rip), %rax
	movq	%rsi, -120(%rbp)
	movq	%rax, %rsi
	callq	__ZN4core3fmt10ArgumentV13new17hfcdf2333fac7d3b1E
Ltmp129:
	movq	%rdx, -128(%rbp)
	movq	%rax, -136(%rbp)
	jmp	LBB60_3
LBB60_3:
	movq	-136(%rbp), %rax
	movq	%rax, -40(%rbp)
	movq	-128(%rbp), %rcx
	movq	%rcx, -32(%rbp)
Ltmp130:
	leaq	-88(%rbp), %rdi
	leaq	-40(%rbp), %rcx
	movl	$1, %edx
	movq	-120(%rbp), %rsi
	movq	%rdx, -144(%rbp)
	movq	-144(%rbp), %r8
	callq	__ZN4core3fmt9Arguments6new_v117h34942c0b01f71f88E
Ltmp131:
	jmp	LBB60_5
LBB60_4:
	movq	-104(%rbp), %rdi
	callq	__ZN4core3ptr13drop_in_place17h06786e25de60db61E
	jmp	LBB60_1
LBB60_5:
Ltmp132:
	leaq	-88(%rbp), %rsi
	movq	-104(%rbp), %rdi
	callq	__ZN4core3fmt5Write9write_fmt17hd6ca5f44da661dc9E
Ltmp133:
	movb	%al, -145(%rbp)
	jmp	LBB60_6
LBB60_6:
Ltmp134:
	movb	-145(%rbp), %al
	movzbl	%al, %ecx
	andl	$1, %ecx
	leaq	l___unnamed_5(%rip), %rsi
	leaq	l___unnamed_6(%rip), %rdx
	movl	$55, %edi
	movq	%rdi, -160(%rbp)
	movl	%ecx, %edi
	movq	-160(%rbp), %r8
	movq	%rdx, -168(%rbp)
	movq	%r8, %rdx
	movq	-168(%rbp), %rcx
	callq	__ZN4core6result19Result$LT$T$C$E$GT$6expect17h43f64fb5b4987be7E
Ltmp135:
	jmp	LBB60_7
LBB60_7:
Ltmp136:
	movq	-104(%rbp), %rdi
	callq	__ZN5alloc6string6String13shrink_to_fit17h8c6df4a9edbda94bE
Ltmp137:
	jmp	LBB60_8
LBB60_8:
	movq	-112(%rbp), %rax
	addq	$176, %rsp
	popq	%rbp
	retq
LBB60_9:
Ltmp138:
	movq	%rax, -16(%rbp)
	movl	%edx, -8(%rbp)
	jmp	LBB60_4
Lfunc_end13:
	.cfi_endproc
	.section	__TEXT,__gcc_except_tab
	.p2align	2
GCC_except_table60:
Lexception13:
	.byte	255
	.byte	255
	.byte	1
	.uleb128 Lcst_end13-Lcst_begin13
Lcst_begin13:
	.uleb128 Lfunc_begin13-Lfunc_begin13
	.uleb128 Ltmp128-Lfunc_begin13
	.byte	0
	.byte	0
	.uleb128 Ltmp128-Lfunc_begin13
	.uleb128 Ltmp131-Ltmp128
	.uleb128 Ltmp138-Lfunc_begin13
	.byte	0
	.uleb128 Ltmp131-Lfunc_begin13
	.uleb128 Ltmp132-Ltmp131
	.byte	0
	.byte	0
	.uleb128 Ltmp132-Lfunc_begin13
	.uleb128 Ltmp137-Ltmp132
	.uleb128 Ltmp138-Lfunc_begin13
	.byte	0
Lcst_end13:
	.p2align	2

	.section	__TEXT,__text,regular,pure_instructions
	.globl	__ZN45_$LT$T$u20$as$u20$alloc..string..ToString$GT$9to_string17h5b153a7349b72489E
	.p2align	4, 0x90
__ZN45_$LT$T$u20$as$u20$alloc..string..ToString$GT$9to_string17h5b153a7349b72489E:
Lfunc_begin14:
	.cfi_startproc
	.cfi_personality 155, _rust_eh_personality
	.cfi_lsda 16, Lexception14
	pushq	%rbp
	.cfi_def_cfa_offset 16
	.cfi_offset %rbp, -16
	movq	%rsp, %rbp
	.cfi_def_cfa_register %rbp
	subq	$176, %rsp
	movq	%rdi, %rax
	movq	%rsi, -96(%rbp)
	movq	%rdi, -104(%rbp)
	movq	%rax, -112(%rbp)
	callq	__ZN5alloc6string6String3new17h82791e3c35dfa7efE
	jmp	LBB61_2
LBB61_1:
	movq	-16(%rbp), %rdi
	callq	__Unwind_Resume
	ud2
LBB61_2:
	movq	l___unnamed_4(%rip), %rsi
	leaq	-96(%rbp), %rax
	movq	%rax, -24(%rbp)
	movq	-24(%rbp), %rdi
Ltmp139:
	leaq	__ZN44_$LT$$RF$T$u20$as$u20$core..fmt..Display$GT$3fmt17hce547f4aece0611aE(%rip), %rax
	movq	%rsi, -120(%rbp)
	movq	%rax, %rsi
	callq	__ZN4core3fmt10ArgumentV13new17h2ea330cdb05c7a67E
Ltmp140:
	movq	%rdx, -128(%rbp)
	movq	%rax, -136(%rbp)
	jmp	LBB61_3
LBB61_3:
	movq	-136(%rbp), %rax
	movq	%rax, -40(%rbp)
	movq	-128(%rbp), %rcx
	movq	%rcx, -32(%rbp)
Ltmp141:
	leaq	-88(%rbp), %rdi
	leaq	-40(%rbp), %rcx
	movl	$1, %edx
	movq	-120(%rbp), %rsi
	movq	%rdx, -144(%rbp)
	movq	-144(%rbp), %r8
	callq	__ZN4core3fmt9Arguments6new_v117h34942c0b01f71f88E
Ltmp142:
	jmp	LBB61_5
LBB61_4:
	movq	-104(%rbp), %rdi
	callq	__ZN4core3ptr13drop_in_place17h06786e25de60db61E
	jmp	LBB61_1
LBB61_5:
Ltmp143:
	leaq	-88(%rbp), %rsi
	movq	-104(%rbp), %rdi
	callq	__ZN4core3fmt5Write9write_fmt17hd6ca5f44da661dc9E
Ltmp144:
	movb	%al, -145(%rbp)
	jmp	LBB61_6
LBB61_6:
Ltmp145:
	movb	-145(%rbp), %al
	movzbl	%al, %ecx
	andl	$1, %ecx
	leaq	l___unnamed_5(%rip), %rsi
	leaq	l___unnamed_6(%rip), %rdx
	movl	$55, %edi
	movq	%rdi, -160(%rbp)
	movl	%ecx, %edi
	movq	-160(%rbp), %r8
	movq	%rdx, -168(%rbp)
	movq	%r8, %rdx
	movq	-168(%rbp), %rcx
	callq	__ZN4core6result19Result$LT$T$C$E$GT$6expect17h43f64fb5b4987be7E
Ltmp146:
	jmp	LBB61_7
LBB61_7:
Ltmp147:
	movq	-104(%rbp), %rdi
	callq	__ZN5alloc6string6String13shrink_to_fit17h8c6df4a9edbda94bE
Ltmp148:
	jmp	LBB61_8
LBB61_8:
	movq	-112(%rbp), %rax
	addq	$176, %rsp
	popq	%rbp
	retq
LBB61_9:
Ltmp149:
	movq	%rax, -16(%rbp)
	movl	%edx, -8(%rbp)
	jmp	LBB61_4
Lfunc_end14:
	.cfi_endproc
	.section	__TEXT,__gcc_except_tab
	.p2align	2
GCC_except_table61:
Lexception14:
	.byte	255
	.byte	255
	.byte	1
	.uleb128 Lcst_end14-Lcst_begin14
Lcst_begin14:
	.uleb128 Lfunc_begin14-Lfunc_begin14
	.uleb128 Ltmp139-Lfunc_begin14
	.byte	0
	.byte	0
	.uleb128 Ltmp139-Lfunc_begin14
	.uleb128 Ltmp142-Ltmp139
	.uleb128 Ltmp149-Lfunc_begin14
	.byte	0
	.uleb128 Ltmp142-Lfunc_begin14
	.uleb128 Ltmp143-Ltmp142
	.byte	0
	.byte	0
	.uleb128 Ltmp143-Lfunc_begin14
	.uleb128 Ltmp148-Ltmp143
	.uleb128 Ltmp149-Lfunc_begin14
	.byte	0
Lcst_end14:
	.p2align	2

	.section	__TEXT,__text,regular,pure_instructions
	.globl	__ZN45_$LT$T$u20$as$u20$alloc..string..ToString$GT$9to_string17h5bf7c41b3c825114E
	.p2align	4, 0x90
__ZN45_$LT$T$u20$as$u20$alloc..string..ToString$GT$9to_string17h5bf7c41b3c825114E:
Lfunc_begin15:
	.cfi_startproc
	.cfi_personality 155, _rust_eh_personality
	.cfi_lsda 16, Lexception15
	pushq	%rbp
	.cfi_def_cfa_offset 16
	.cfi_offset %rbp, -16
	movq	%rsp, %rbp
	.cfi_def_cfa_register %rbp
	subq	$176, %rsp
	movq	%rdi, %rax
	movq	%rsi, -96(%rbp)
	movq	%rdi, -104(%rbp)
	movq	%rax, -112(%rbp)
	callq	__ZN5alloc6string6String3new17h82791e3c35dfa7efE
	jmp	LBB62_2
LBB62_1:
	movq	-16(%rbp), %rdi
	callq	__Unwind_Resume
	ud2
LBB62_2:
	movq	l___unnamed_4(%rip), %rsi
	leaq	-96(%rbp), %rax
	movq	%rax, -24(%rbp)
	movq	-24(%rbp), %rdi
Ltmp150:
	leaq	__ZN44_$LT$$RF$T$u20$as$u20$core..fmt..Display$GT$3fmt17h3e48c2a2672c675eE(%rip), %rax
	movq	%rsi, -120(%rbp)
	movq	%rax, %rsi
	callq	__ZN4core3fmt10ArgumentV13new17h1294ec6497a7e3c4E
Ltmp151:
	movq	%rdx, -128(%rbp)
	movq	%rax, -136(%rbp)
	jmp	LBB62_3
LBB62_3:
	movq	-136(%rbp), %rax
	movq	%rax, -40(%rbp)
	movq	-128(%rbp), %rcx
	movq	%rcx, -32(%rbp)
Ltmp152:
	leaq	-88(%rbp), %rdi
	leaq	-40(%rbp), %rcx
	movl	$1, %edx
	movq	-120(%rbp), %rsi
	movq	%rdx, -144(%rbp)
	movq	-144(%rbp), %r8
	callq	__ZN4core3fmt9Arguments6new_v117h34942c0b01f71f88E
Ltmp153:
	jmp	LBB62_5
LBB62_4:
	movq	-104(%rbp), %rdi
	callq	__ZN4core3ptr13drop_in_place17h06786e25de60db61E
	jmp	LBB62_1
LBB62_5:
Ltmp154:
	leaq	-88(%rbp), %rsi
	movq	-104(%rbp), %rdi
	callq	__ZN4core3fmt5Write9write_fmt17hd6ca5f44da661dc9E
Ltmp155:
	movb	%al, -145(%rbp)
	jmp	LBB62_6
LBB62_6:
Ltmp156:
	movb	-145(%rbp), %al
	movzbl	%al, %ecx
	andl	$1, %ecx
	leaq	l___unnamed_5(%rip), %rsi
	leaq	l___unnamed_6(%rip), %rdx
	movl	$55, %edi
	movq	%rdi, -160(%rbp)
	movl	%ecx, %edi
	movq	-160(%rbp), %r8
	movq	%rdx, -168(%rbp)
	movq	%r8, %rdx
	movq	-168(%rbp), %rcx
	callq	__ZN4core6result19Result$LT$T$C$E$GT$6expect17h43f64fb5b4987be7E
Ltmp157:
	jmp	LBB62_7
LBB62_7:
Ltmp158:
	movq	-104(%rbp), %rdi
	callq	__ZN5alloc6string6String13shrink_to_fit17h8c6df4a9edbda94bE
Ltmp159:
	jmp	LBB62_8
LBB62_8:
	movq	-112(%rbp), %rax
	addq	$176, %rsp
	popq	%rbp
	retq
LBB62_9:
Ltmp160:
	movq	%rax, -16(%rbp)
	movl	%edx, -8(%rbp)
	jmp	LBB62_4
Lfunc_end15:
	.cfi_endproc
	.section	__TEXT,__gcc_except_tab
	.p2align	2
GCC_except_table62:
Lexception15:
	.byte	255
	.byte	255
	.byte	1
	.uleb128 Lcst_end15-Lcst_begin15
Lcst_begin15:
	.uleb128 Lfunc_begin15-Lfunc_begin15
	.uleb128 Ltmp150-Lfunc_begin15
	.byte	0
	.byte	0
	.uleb128 Ltmp150-Lfunc_begin15
	.uleb128 Ltmp153-Ltmp150
	.uleb128 Ltmp160-Lfunc_begin15
	.byte	0
	.uleb128 Ltmp153-Lfunc_begin15
	.uleb128 Ltmp154-Ltmp153
	.byte	0
	.byte	0
	.uleb128 Ltmp154-Lfunc_begin15
	.uleb128 Ltmp159-Ltmp154
	.uleb128 Ltmp160-Lfunc_begin15
	.byte	0
Lcst_end15:
	.p2align	2

	.section	__TEXT,__text,regular,pure_instructions
	.globl	__ZN45_$LT$T$u20$as$u20$alloc..string..ToString$GT$9to_string17hcf531e9d367cec47E
	.p2align	4, 0x90
__ZN45_$LT$T$u20$as$u20$alloc..string..ToString$GT$9to_string17hcf531e9d367cec47E:
Lfunc_begin16:
	.cfi_startproc
	.cfi_personality 155, _rust_eh_personality
	.cfi_lsda 16, Lexception16
	pushq	%rbp
	.cfi_def_cfa_offset 16
	.cfi_offset %rbp, -16
	movq	%rsp, %rbp
	.cfi_def_cfa_register %rbp
	subq	$176, %rsp
	movq	%rdi, %rax
	movq	%rsi, -96(%rbp)
	movq	%rdi, -104(%rbp)
	movq	%rax, -112(%rbp)
	callq	__ZN5alloc6string6String3new17h82791e3c35dfa7efE
	jmp	LBB63_2
LBB63_1:
	movq	-16(%rbp), %rdi
	callq	__Unwind_Resume
	ud2
LBB63_2:
	movq	l___unnamed_4(%rip), %rsi
	leaq	-96(%rbp), %rax
	movq	%rax, -24(%rbp)
	movq	-24(%rbp), %rdi
Ltmp161:
	leaq	__ZN44_$LT$$RF$T$u20$as$u20$core..fmt..Display$GT$3fmt17h246c8f95d6ac131cE(%rip), %rax
	movq	%rsi, -120(%rbp)
	movq	%rax, %rsi
	callq	__ZN4core3fmt10ArgumentV13new17h951ab2989cbc871eE
Ltmp162:
	movq	%rdx, -128(%rbp)
	movq	%rax, -136(%rbp)
	jmp	LBB63_3
LBB63_3:
	movq	-136(%rbp), %rax
	movq	%rax, -40(%rbp)
	movq	-128(%rbp), %rcx
	movq	%rcx, -32(%rbp)
Ltmp163:
	leaq	-88(%rbp), %rdi
	leaq	-40(%rbp), %rcx
	movl	$1, %edx
	movq	-120(%rbp), %rsi
	movq	%rdx, -144(%rbp)
	movq	-144(%rbp), %r8
	callq	__ZN4core3fmt9Arguments6new_v117h34942c0b01f71f88E
Ltmp164:
	jmp	LBB63_5
LBB63_4:
	movq	-104(%rbp), %rdi
	callq	__ZN4core3ptr13drop_in_place17h06786e25de60db61E
	jmp	LBB63_1
LBB63_5:
Ltmp165:
	leaq	-88(%rbp), %rsi
	movq	-104(%rbp), %rdi
	callq	__ZN4core3fmt5Write9write_fmt17hd6ca5f44da661dc9E
Ltmp166:
	movb	%al, -145(%rbp)
	jmp	LBB63_6
LBB63_6:
Ltmp167:
	movb	-145(%rbp), %al
	movzbl	%al, %ecx
	andl	$1, %ecx
	leaq	l___unnamed_5(%rip), %rsi
	leaq	l___unnamed_6(%rip), %rdx
	movl	$55, %edi
	movq	%rdi, -160(%rbp)
	movl	%ecx, %edi
	movq	-160(%rbp), %r8
	movq	%rdx, -168(%rbp)
	movq	%r8, %rdx
	movq	-168(%rbp), %rcx
	callq	__ZN4core6result19Result$LT$T$C$E$GT$6expect17h43f64fb5b4987be7E
Ltmp168:
	jmp	LBB63_7
LBB63_7:
Ltmp169:
	movq	-104(%rbp), %rdi
	callq	__ZN5alloc6string6String13shrink_to_fit17h8c6df4a9edbda94bE
Ltmp170:
	jmp	LBB63_8
LBB63_8:
	movq	-112(%rbp), %rax
	addq	$176, %rsp
	popq	%rbp
	retq
LBB63_9:
Ltmp171:
	movq	%rax, -16(%rbp)
	movl	%edx, -8(%rbp)
	jmp	LBB63_4
Lfunc_end16:
	.cfi_endproc
	.section	__TEXT,__gcc_except_tab
	.p2align	2
GCC_except_table63:
Lexception16:
	.byte	255
	.byte	255
	.byte	1
	.uleb128 Lcst_end16-Lcst_begin16
Lcst_begin16:
	.uleb128 Lfunc_begin16-Lfunc_begin16
	.uleb128 Ltmp161-Lfunc_begin16
	.byte	0
	.byte	0
	.uleb128 Ltmp161-Lfunc_begin16
	.uleb128 Ltmp164-Ltmp161
	.uleb128 Ltmp171-Lfunc_begin16
	.byte	0
	.uleb128 Ltmp164-Lfunc_begin16
	.uleb128 Ltmp165-Ltmp164
	.byte	0
	.byte	0
	.uleb128 Ltmp165-Lfunc_begin16
	.uleb128 Ltmp170-Ltmp165
	.uleb128 Ltmp171-Lfunc_begin16
	.byte	0
Lcst_end16:
	.p2align	2

	.section	__TEXT,__text,regular,pure_instructions
	.globl	__ZN45_$LT$T$u20$as$u20$alloc..string..ToString$GT$9to_string17hd1a8cb227a700d8dE
	.p2align	4, 0x90
__ZN45_$LT$T$u20$as$u20$alloc..string..ToString$GT$9to_string17hd1a8cb227a700d8dE:
Lfunc_begin17:
	.cfi_startproc
	.cfi_personality 155, _rust_eh_personality
	.cfi_lsda 16, Lexception17
	pushq	%rbp
	.cfi_def_cfa_offset 16
	.cfi_offset %rbp, -16
	movq	%rsp, %rbp
	.cfi_def_cfa_register %rbp
	subq	$176, %rsp
	movq	%rdi, %rax
	movq	%rsi, -96(%rbp)
	movq	%rdi, -104(%rbp)
	movq	%rax, -112(%rbp)
	callq	__ZN5alloc6string6String3new17h82791e3c35dfa7efE
	jmp	LBB64_2
LBB64_1:
	movq	-16(%rbp), %rdi
	callq	__Unwind_Resume
	ud2
LBB64_2:
	movq	l___unnamed_4(%rip), %rsi
	leaq	-96(%rbp), %rax
	movq	%rax, -24(%rbp)
	movq	-24(%rbp), %rdi
Ltmp172:
	leaq	__ZN44_$LT$$RF$T$u20$as$u20$core..fmt..Display$GT$3fmt17h935901b5d797dc14E(%rip), %rax
	movq	%rsi, -120(%rbp)
	movq	%rax, %rsi
	callq	__ZN4core3fmt10ArgumentV13new17haaaba986fe0146d6E
Ltmp173:
	movq	%rdx, -128(%rbp)
	movq	%rax, -136(%rbp)
	jmp	LBB64_3
LBB64_3:
	movq	-136(%rbp), %rax
	movq	%rax, -40(%rbp)
	movq	-128(%rbp), %rcx
	movq	%rcx, -32(%rbp)
Ltmp174:
	leaq	-88(%rbp), %rdi
	leaq	-40(%rbp), %rcx
	movl	$1, %edx
	movq	-120(%rbp), %rsi
	movq	%rdx, -144(%rbp)
	movq	-144(%rbp), %r8
	callq	__ZN4core3fmt9Arguments6new_v117h34942c0b01f71f88E
Ltmp175:
	jmp	LBB64_5
LBB64_4:
	movq	-104(%rbp), %rdi
	callq	__ZN4core3ptr13drop_in_place17h06786e25de60db61E
	jmp	LBB64_1
LBB64_5:
Ltmp176:
	leaq	-88(%rbp), %rsi
	movq	-104(%rbp), %rdi
	callq	__ZN4core3fmt5Write9write_fmt17hd6ca5f44da661dc9E
Ltmp177:
	movb	%al, -145(%rbp)
	jmp	LBB64_6
LBB64_6:
Ltmp178:
	movb	-145(%rbp), %al
	movzbl	%al, %ecx
	andl	$1, %ecx
	leaq	l___unnamed_5(%rip), %rsi
	leaq	l___unnamed_6(%rip), %rdx
	movl	$55, %edi
	movq	%rdi, -160(%rbp)
	movl	%ecx, %edi
	movq	-160(%rbp), %r8
	movq	%rdx, -168(%rbp)
	movq	%r8, %rdx
	movq	-168(%rbp), %rcx
	callq	__ZN4core6result19Result$LT$T$C$E$GT$6expect17h43f64fb5b4987be7E
Ltmp179:
	jmp	LBB64_7
LBB64_7:
Ltmp180:
	movq	-104(%rbp), %rdi
	callq	__ZN5alloc6string6String13shrink_to_fit17h8c6df4a9edbda94bE
Ltmp181:
	jmp	LBB64_8
LBB64_8:
	movq	-112(%rbp), %rax
	addq	$176, %rsp
	popq	%rbp
	retq
LBB64_9:
Ltmp182:
	movq	%rax, -16(%rbp)
	movl	%edx, -8(%rbp)
	jmp	LBB64_4
Lfunc_end17:
	.cfi_endproc
	.section	__TEXT,__gcc_except_tab
	.p2align	2
GCC_except_table64:
Lexception17:
	.byte	255
	.byte	255
	.byte	1
	.uleb128 Lcst_end17-Lcst_begin17
Lcst_begin17:
	.uleb128 Lfunc_begin17-Lfunc_begin17
	.uleb128 Ltmp172-Lfunc_begin17
	.byte	0
	.byte	0
	.uleb128 Ltmp172-Lfunc_begin17
	.uleb128 Ltmp175-Ltmp172
	.uleb128 Ltmp182-Lfunc_begin17
	.byte	0
	.uleb128 Ltmp175-Lfunc_begin17
	.uleb128 Ltmp176-Ltmp175
	.byte	0
	.byte	0
	.uleb128 Ltmp176-Lfunc_begin17
	.uleb128 Ltmp181-Ltmp176
	.uleb128 Ltmp182-Lfunc_begin17
	.byte	0
Lcst_end17:
	.p2align	2

	.section	__TEXT,__text,regular,pure_instructions
	.globl	__ZN45_$LT$T$u20$as$u20$alloc..string..ToString$GT$9to_string17hda91e80be8516a5bE
	.p2align	4, 0x90
__ZN45_$LT$T$u20$as$u20$alloc..string..ToString$GT$9to_string17hda91e80be8516a5bE:
Lfunc_begin18:
	.cfi_startproc
	.cfi_personality 155, _rust_eh_personality
	.cfi_lsda 16, Lexception18
	pushq	%rbp
	.cfi_def_cfa_offset 16
	.cfi_offset %rbp, -16
	movq	%rsp, %rbp
	.cfi_def_cfa_register %rbp
	subq	$176, %rsp
	movq	%rdi, %rax
	movq	%rsi, -96(%rbp)
	movq	%rdi, -104(%rbp)
	movq	%rax, -112(%rbp)
	callq	__ZN5alloc6string6String3new17h82791e3c35dfa7efE
	jmp	LBB65_2
LBB65_1:
	movq	-16(%rbp), %rdi
	callq	__Unwind_Resume
	ud2
LBB65_2:
	movq	l___unnamed_4(%rip), %rsi
	leaq	-96(%rbp), %rax
	movq	%rax, -24(%rbp)
	movq	-24(%rbp), %rdi
Ltmp183:
	leaq	__ZN44_$LT$$RF$T$u20$as$u20$core..fmt..Display$GT$3fmt17h7f376705cf2f36e8E(%rip), %rax
	movq	%rsi, -120(%rbp)
	movq	%rax, %rsi
	callq	__ZN4core3fmt10ArgumentV13new17h97508de6a817de22E
Ltmp184:
	movq	%rdx, -128(%rbp)
	movq	%rax, -136(%rbp)
	jmp	LBB65_3
LBB65_3:
	movq	-136(%rbp), %rax
	movq	%rax, -40(%rbp)
	movq	-128(%rbp), %rcx
	movq	%rcx, -32(%rbp)
Ltmp185:
	leaq	-88(%rbp), %rdi
	leaq	-40(%rbp), %rcx
	movl	$1, %edx
	movq	-120(%rbp), %rsi
	movq	%rdx, -144(%rbp)
	movq	-144(%rbp), %r8
	callq	__ZN4core3fmt9Arguments6new_v117h34942c0b01f71f88E
Ltmp186:
	jmp	LBB65_5
LBB65_4:
	movq	-104(%rbp), %rdi
	callq	__ZN4core3ptr13drop_in_place17h06786e25de60db61E
	jmp	LBB65_1
LBB65_5:
Ltmp187:
	leaq	-88(%rbp), %rsi
	movq	-104(%rbp), %rdi
	callq	__ZN4core3fmt5Write9write_fmt17hd6ca5f44da661dc9E
Ltmp188:
	movb	%al, -145(%rbp)
	jmp	LBB65_6
LBB65_6:
Ltmp189:
	movb	-145(%rbp), %al
	movzbl	%al, %ecx
	andl	$1, %ecx
	leaq	l___unnamed_5(%rip), %rsi
	leaq	l___unnamed_6(%rip), %rdx
	movl	$55, %edi
	movq	%rdi, -160(%rbp)
	movl	%ecx, %edi
	movq	-160(%rbp), %r8
	movq	%rdx, -168(%rbp)
	movq	%r8, %rdx
	movq	-168(%rbp), %rcx
	callq	__ZN4core6result19Result$LT$T$C$E$GT$6expect17h43f64fb5b4987be7E
Ltmp190:
	jmp	LBB65_7
LBB65_7:
Ltmp191:
	movq	-104(%rbp), %rdi
	callq	__ZN5alloc6string6String13shrink_to_fit17h8c6df4a9edbda94bE
Ltmp192:
	jmp	LBB65_8
LBB65_8:
	movq	-112(%rbp), %rax
	addq	$176, %rsp
	popq	%rbp
	retq
LBB65_9:
Ltmp193:
	movq	%rax, -16(%rbp)
	movl	%edx, -8(%rbp)
	jmp	LBB65_4
Lfunc_end18:
	.cfi_endproc
	.section	__TEXT,__gcc_except_tab
	.p2align	2
GCC_except_table65:
Lexception18:
	.byte	255
	.byte	255
	.byte	1
	.uleb128 Lcst_end18-Lcst_begin18
Lcst_begin18:
	.uleb128 Lfunc_begin18-Lfunc_begin18
	.uleb128 Ltmp183-Lfunc_begin18
	.byte	0
	.byte	0
	.uleb128 Ltmp183-Lfunc_begin18
	.uleb128 Ltmp186-Ltmp183
	.uleb128 Ltmp193-Lfunc_begin18
	.byte	0
	.uleb128 Ltmp186-Lfunc_begin18
	.uleb128 Ltmp187-Ltmp186
	.byte	0
	.byte	0
	.uleb128 Ltmp187-Lfunc_begin18
	.uleb128 Ltmp192-Ltmp187
	.uleb128 Ltmp193-Lfunc_begin18
	.byte	0
Lcst_end18:
	.p2align	2

	.section	__TEXT,__text,regular,pure_instructions
	.globl	__ZN45_$LT$T$u20$as$u20$alloc..string..ToString$GT$9to_string17he40958fe2e31e56bE
	.p2align	4, 0x90
__ZN45_$LT$T$u20$as$u20$alloc..string..ToString$GT$9to_string17he40958fe2e31e56bE:
Lfunc_begin19:
	.cfi_startproc
	.cfi_personality 155, _rust_eh_personality
	.cfi_lsda 16, Lexception19
	pushq	%rbp
	.cfi_def_cfa_offset 16
	.cfi_offset %rbp, -16
	movq	%rsp, %rbp
	.cfi_def_cfa_register %rbp
	subq	$176, %rsp
	movq	%rdi, %rax
	movq	%rsi, -96(%rbp)
	movq	%rdi, -104(%rbp)
	movq	%rax, -112(%rbp)
	callq	__ZN5alloc6string6String3new17h82791e3c35dfa7efE
	jmp	LBB66_2
LBB66_1:
	movq	-16(%rbp), %rdi
	callq	__Unwind_Resume
	ud2
LBB66_2:
	movq	l___unnamed_4(%rip), %rsi
	leaq	-96(%rbp), %rax
	movq	%rax, -24(%rbp)
	movq	-24(%rbp), %rdi
Ltmp194:
	leaq	__ZN44_$LT$$RF$T$u20$as$u20$core..fmt..Display$GT$3fmt17hcdf5f60180aea4c4E(%rip), %rax
	movq	%rsi, -120(%rbp)
	movq	%rax, %rsi
	callq	__ZN4core3fmt10ArgumentV13new17h2e2d854bbc9cb27cE
Ltmp195:
	movq	%rdx, -128(%rbp)
	movq	%rax, -136(%rbp)
	jmp	LBB66_3
LBB66_3:
	movq	-136(%rbp), %rax
	movq	%rax, -40(%rbp)
	movq	-128(%rbp), %rcx
	movq	%rcx, -32(%rbp)
Ltmp196:
	leaq	-88(%rbp), %rdi
	leaq	-40(%rbp), %rcx
	movl	$1, %edx
	movq	-120(%rbp), %rsi
	movq	%rdx, -144(%rbp)
	movq	-144(%rbp), %r8
	callq	__ZN4core3fmt9Arguments6new_v117h34942c0b01f71f88E
Ltmp197:
	jmp	LBB66_5
LBB66_4:
	movq	-104(%rbp), %rdi
	callq	__ZN4core3ptr13drop_in_place17h06786e25de60db61E
	jmp	LBB66_1
LBB66_5:
Ltmp198:
	leaq	-88(%rbp), %rsi
	movq	-104(%rbp), %rdi
	callq	__ZN4core3fmt5Write9write_fmt17hd6ca5f44da661dc9E
Ltmp199:
	movb	%al, -145(%rbp)
	jmp	LBB66_6
LBB66_6:
Ltmp200:
	movb	-145(%rbp), %al
	movzbl	%al, %ecx
	andl	$1, %ecx
	leaq	l___unnamed_5(%rip), %rsi
	leaq	l___unnamed_6(%rip), %rdx
	movl	$55, %edi
	movq	%rdi, -160(%rbp)
	movl	%ecx, %edi
	movq	-160(%rbp), %r8
	movq	%rdx, -168(%rbp)
	movq	%r8, %rdx
	movq	-168(%rbp), %rcx
	callq	__ZN4core6result19Result$LT$T$C$E$GT$6expect17h43f64fb5b4987be7E
Ltmp201:
	jmp	LBB66_7
LBB66_7:
Ltmp202:
	movq	-104(%rbp), %rdi
	callq	__ZN5alloc6string6String13shrink_to_fit17h8c6df4a9edbda94bE
Ltmp203:
	jmp	LBB66_8
LBB66_8:
	movq	-112(%rbp), %rax
	addq	$176, %rsp
	popq	%rbp
	retq
LBB66_9:
Ltmp204:
	movq	%rax, -16(%rbp)
	movl	%edx, -8(%rbp)
	jmp	LBB66_4
Lfunc_end19:
	.cfi_endproc
	.section	__TEXT,__gcc_except_tab
	.p2align	2
GCC_except_table66:
Lexception19:
	.byte	255
	.byte	255
	.byte	1
	.uleb128 Lcst_end19-Lcst_begin19
Lcst_begin19:
	.uleb128 Lfunc_begin19-Lfunc_begin19
	.uleb128 Ltmp194-Lfunc_begin19
	.byte	0
	.byte	0
	.uleb128 Ltmp194-Lfunc_begin19
	.uleb128 Ltmp197-Ltmp194
	.uleb128 Ltmp204-Lfunc_begin19
	.byte	0
	.uleb128 Ltmp197-Lfunc_begin19
	.uleb128 Ltmp198-Ltmp197
	.byte	0
	.byte	0
	.uleb128 Ltmp198-Lfunc_begin19
	.uleb128 Ltmp203-Ltmp198
	.uleb128 Ltmp204-Lfunc_begin19
	.byte	0
Lcst_end19:
	.p2align	2

	.section	__TEXT,__text,regular,pure_instructions
	.globl	__ZN45_$LT$T$u20$as$u20$alloc..string..ToString$GT$9to_string17he670ddda37bc5e62E
	.p2align	4, 0x90
__ZN45_$LT$T$u20$as$u20$alloc..string..ToString$GT$9to_string17he670ddda37bc5e62E:
Lfunc_begin20:
	.cfi_startproc
	.cfi_personality 155, _rust_eh_personality
	.cfi_lsda 16, Lexception20
	pushq	%rbp
	.cfi_def_cfa_offset 16
	.cfi_offset %rbp, -16
	movq	%rsp, %rbp
	.cfi_def_cfa_register %rbp
	subq	$176, %rsp
	movq	%rdi, %rax
	movq	%rsi, -96(%rbp)
	movq	%rdi, -104(%rbp)
	movq	%rax, -112(%rbp)
	callq	__ZN5alloc6string6String3new17h82791e3c35dfa7efE
	jmp	LBB67_2
LBB67_1:
	movq	-16(%rbp), %rdi
	callq	__Unwind_Resume
	ud2
LBB67_2:
	movq	l___unnamed_4(%rip), %rsi
	leaq	-96(%rbp), %rax
	movq	%rax, -24(%rbp)
	movq	-24(%rbp), %rdi
Ltmp205:
	leaq	__ZN44_$LT$$RF$T$u20$as$u20$core..fmt..Display$GT$3fmt17h81b65b5797c5405cE(%rip), %rax
	movq	%rsi, -120(%rbp)
	movq	%rax, %rsi
	callq	__ZN4core3fmt10ArgumentV13new17hd212698492e3b2cdE
Ltmp206:
	movq	%rdx, -128(%rbp)
	movq	%rax, -136(%rbp)
	jmp	LBB67_3
LBB67_3:
	movq	-136(%rbp), %rax
	movq	%rax, -40(%rbp)
	movq	-128(%rbp), %rcx
	movq	%rcx, -32(%rbp)
Ltmp207:
	leaq	-88(%rbp), %rdi
	leaq	-40(%rbp), %rcx
	movl	$1, %edx
	movq	-120(%rbp), %rsi
	movq	%rdx, -144(%rbp)
	movq	-144(%rbp), %r8
	callq	__ZN4core3fmt9Arguments6new_v117h34942c0b01f71f88E
Ltmp208:
	jmp	LBB67_5
LBB67_4:
	movq	-104(%rbp), %rdi
	callq	__ZN4core3ptr13drop_in_place17h06786e25de60db61E
	jmp	LBB67_1
LBB67_5:
Ltmp209:
	leaq	-88(%rbp), %rsi
	movq	-104(%rbp), %rdi
	callq	__ZN4core3fmt5Write9write_fmt17hd6ca5f44da661dc9E
Ltmp210:
	movb	%al, -145(%rbp)
	jmp	LBB67_6
LBB67_6:
Ltmp211:
	movb	-145(%rbp), %al
	movzbl	%al, %ecx
	andl	$1, %ecx
	leaq	l___unnamed_5(%rip), %rsi
	leaq	l___unnamed_6(%rip), %rdx
	movl	$55, %edi
	movq	%rdi, -160(%rbp)
	movl	%ecx, %edi
	movq	-160(%rbp), %r8
	movq	%rdx, -168(%rbp)
	movq	%r8, %rdx
	movq	-168(%rbp), %rcx
	callq	__ZN4core6result19Result$LT$T$C$E$GT$6expect17h43f64fb5b4987be7E
Ltmp212:
	jmp	LBB67_7
LBB67_7:
Ltmp213:
	movq	-104(%rbp), %rdi
	callq	__ZN5alloc6string6String13shrink_to_fit17h8c6df4a9edbda94bE
Ltmp214:
	jmp	LBB67_8
LBB67_8:
	movq	-112(%rbp), %rax
	addq	$176, %rsp
	popq	%rbp
	retq
LBB67_9:
Ltmp215:
	movq	%rax, -16(%rbp)
	movl	%edx, -8(%rbp)
	jmp	LBB67_4
Lfunc_end20:
	.cfi_endproc
	.section	__TEXT,__gcc_except_tab
	.p2align	2
GCC_except_table67:
Lexception20:
	.byte	255
	.byte	255
	.byte	1
	.uleb128 Lcst_end20-Lcst_begin20
Lcst_begin20:
	.uleb128 Lfunc_begin20-Lfunc_begin20
	.uleb128 Ltmp205-Lfunc_begin20
	.byte	0
	.byte	0
	.uleb128 Ltmp205-Lfunc_begin20
	.uleb128 Ltmp208-Ltmp205
	.uleb128 Ltmp215-Lfunc_begin20
	.byte	0
	.uleb128 Ltmp208-Lfunc_begin20
	.uleb128 Ltmp209-Ltmp208
	.byte	0
	.byte	0
	.uleb128 Ltmp209-Lfunc_begin20
	.uleb128 Ltmp214-Ltmp209
	.uleb128 Ltmp215-Lfunc_begin20
	.byte	0
Lcst_end20:
	.p2align	2

	.section	__TEXT,__text,regular,pure_instructions
	.globl	__ZN45_$LT$T$u20$as$u20$alloc..string..ToString$GT$9to_string17hf189b844f3031fc9E
	.p2align	4, 0x90
__ZN45_$LT$T$u20$as$u20$alloc..string..ToString$GT$9to_string17hf189b844f3031fc9E:
Lfunc_begin21:
	.cfi_startproc
	.cfi_personality 155, _rust_eh_personality
	.cfi_lsda 16, Lexception21
	pushq	%rbp
	.cfi_def_cfa_offset 16
	.cfi_offset %rbp, -16
	movq	%rsp, %rbp
	.cfi_def_cfa_register %rbp
	subq	$176, %rsp
	movq	%rdi, %rax
	movq	%rsi, -96(%rbp)
	movq	%rdi, -104(%rbp)
	movq	%rax, -112(%rbp)
	callq	__ZN5alloc6string6String3new17h82791e3c35dfa7efE
	jmp	LBB68_2
LBB68_1:
	movq	-16(%rbp), %rdi
	callq	__Unwind_Resume
	ud2
LBB68_2:
	movq	l___unnamed_4(%rip), %rsi
	leaq	-96(%rbp), %rax
	movq	%rax, -24(%rbp)
	movq	-24(%rbp), %rdi
Ltmp216:
	leaq	__ZN44_$LT$$RF$T$u20$as$u20$core..fmt..Display$GT$3fmt17hbb13a84e3e6c4710E(%rip), %rax
	movq	%rsi, -120(%rbp)
	movq	%rax, %rsi
	callq	__ZN4core3fmt10ArgumentV13new17h1e58bdd8e352366eE
Ltmp217:
	movq	%rdx, -128(%rbp)
	movq	%rax, -136(%rbp)
	jmp	LBB68_3
LBB68_3:
	movq	-136(%rbp), %rax
	movq	%rax, -40(%rbp)
	movq	-128(%rbp), %rcx
	movq	%rcx, -32(%rbp)
Ltmp218:
	leaq	-88(%rbp), %rdi
	leaq	-40(%rbp), %rcx
	movl	$1, %edx
	movq	-120(%rbp), %rsi
	movq	%rdx, -144(%rbp)
	movq	-144(%rbp), %r8
	callq	__ZN4core3fmt9Arguments6new_v117h34942c0b01f71f88E
Ltmp219:
	jmp	LBB68_5
LBB68_4:
	movq	-104(%rbp), %rdi
	callq	__ZN4core3ptr13drop_in_place17h06786e25de60db61E
	jmp	LBB68_1
LBB68_5:
Ltmp220:
	leaq	-88(%rbp), %rsi
	movq	-104(%rbp), %rdi
	callq	__ZN4core3fmt5Write9write_fmt17hd6ca5f44da661dc9E
Ltmp221:
	movb	%al, -145(%rbp)
	jmp	LBB68_6
LBB68_6:
Ltmp222:
	movb	-145(%rbp), %al
	movzbl	%al, %ecx
	andl	$1, %ecx
	leaq	l___unnamed_5(%rip), %rsi
	leaq	l___unnamed_6(%rip), %rdx
	movl	$55, %edi
	movq	%rdi, -160(%rbp)
	movl	%ecx, %edi
	movq	-160(%rbp), %r8
	movq	%rdx, -168(%rbp)
	movq	%r8, %rdx
	movq	-168(%rbp), %rcx
	callq	__ZN4core6result19Result$LT$T$C$E$GT$6expect17h43f64fb5b4987be7E
Ltmp223:
	jmp	LBB68_7
LBB68_7:
Ltmp224:
	movq	-104(%rbp), %rdi
	callq	__ZN5alloc6string6String13shrink_to_fit17h8c6df4a9edbda94bE
Ltmp225:
	jmp	LBB68_8
LBB68_8:
	movq	-112(%rbp), %rax
	addq	$176, %rsp
	popq	%rbp
	retq
LBB68_9:
Ltmp226:
	movq	%rax, -16(%rbp)
	movl	%edx, -8(%rbp)
	jmp	LBB68_4
Lfunc_end21:
	.cfi_endproc
	.section	__TEXT,__gcc_except_tab
	.p2align	2
GCC_except_table68:
Lexception21:
	.byte	255
	.byte	255
	.byte	1
	.uleb128 Lcst_end21-Lcst_begin21
Lcst_begin21:
	.uleb128 Lfunc_begin21-Lfunc_begin21
	.uleb128 Ltmp216-Lfunc_begin21
	.byte	0
	.byte	0
	.uleb128 Ltmp216-Lfunc_begin21
	.uleb128 Ltmp219-Ltmp216
	.uleb128 Ltmp226-Lfunc_begin21
	.byte	0
	.uleb128 Ltmp219-Lfunc_begin21
	.uleb128 Ltmp220-Ltmp219
	.byte	0
	.byte	0
	.uleb128 Ltmp220-Lfunc_begin21
	.uleb128 Ltmp225-Ltmp220
	.uleb128 Ltmp226-Lfunc_begin21
	.byte	0
Lcst_end21:
	.p2align	2

	.section	__TEXT,__text,regular,pure_instructions
	.p2align	4, 0x90
__ZN47_$LT$str$u20$as$u20$alloc..string..ToString$GT$9to_string17h9c5e50b01051804cE:
	.cfi_startproc
	pushq	%rbp
	.cfi_def_cfa_offset 16
	.cfi_offset %rbp, -16
	movq	%rsp, %rbp
	.cfi_def_cfa_register %rbp
	subq	$16, %rsp
	movq	%rdi, %rax
	movq	%rax, -8(%rbp)
	callq	__ZN76_$LT$alloc..string..String$u20$as$u20$core..convert..From$LT$$RF$str$GT$$GT$4from17hbf7c56bf53a37257E
	movq	-8(%rbp), %rax
	addq	$16, %rsp
	popq	%rbp
	retq
	.cfi_endproc

	.p2align	4, 0x90
__ZN48_$LT$char$u20$as$u20$unicode_xid..UnicodeXID$GT$12is_xid_start17h3392a805c768c7a2E:
	.cfi_startproc
	pushq	%rbp
	.cfi_def_cfa_offset 16
	.cfi_offset %rbp, -16
	movq	%rsp, %rbp
	.cfi_def_cfa_register %rbp
	subq	$16, %rsp
	callq	__ZN11unicode_xid6tables16derived_property9XID_Start17h35085d1dc1ba7061E
	movb	%al, -1(%rbp)
	movb	-1(%rbp), %al
	andb	$1, %al
	movzbl	%al, %eax
	addq	$16, %rsp
	popq	%rbp
	retq
	.cfi_endproc

	.p2align	4, 0x90
__ZN48_$LT$char$u20$as$u20$unicode_xid..UnicodeXID$GT$15is_xid_continue17ha97f2507b9da873bE:
	.cfi_startproc
	pushq	%rbp
	.cfi_def_cfa_offset 16
	.cfi_offset %rbp, -16
	movq	%rsp, %rbp
	.cfi_def_cfa_register %rbp
	subq	$16, %rsp
	callq	__ZN11unicode_xid6tables16derived_property12XID_Continue17hd5e08ebe4e2ba002E
	movb	%al, -1(%rbp)
	movb	-1(%rbp), %al
	andb	$1, %al
	movzbl	%al, %eax
	addq	$16, %rsp
	popq	%rbp
	retq
	.cfi_endproc

	.p2align	4, 0x90
__ZN49_$LT$usize$u20$as$u20$core..iter..range..Step$GT$17forward_unchecked17hd9ad35ad511c7957E:
	.cfi_startproc
	pushq	%rbp
	.cfi_def_cfa_offset 16
	.cfi_offset %rbp, -16
	movq	%rsp, %rbp
	.cfi_def_cfa_register %rbp
	subq	$16, %rsp
	callq	__ZN4core3num23_$LT$impl$u20$usize$GT$13unchecked_add17h6f4a2a6d0562a69aE
	movq	%rax, -8(%rbp)
	movq	-8(%rbp), %rax
	addq	$16, %rsp
	popq	%rbp
	retq
	.cfi_endproc

	.p2align	4, 0x90
__ZN49_$LT$usize$u20$as$u20$core..iter..range..Step$GT$18backward_unchecked17h58ce55d2cb429886E:
	.cfi_startproc
	pushq	%rbp
	.cfi_def_cfa_offset 16
	.cfi_offset %rbp, -16
	movq	%rsp, %rbp
	.cfi_def_cfa_register %rbp
	subq	$16, %rsp
	callq	__ZN4core3num23_$LT$impl$u20$usize$GT$13unchecked_sub17hbc37400baa374d06E
	movq	%rax, -8(%rbp)
	movq	-8(%rbp), %rax
	addq	$16, %rsp
	popq	%rbp
	retq
	.cfi_endproc

	.globl	__ZN4core10intrinsics11write_bytes17h86fc83a935395519E
	.p2align	4, 0x90
__ZN4core10intrinsics11write_bytes17h86fc83a935395519E:
	.cfi_startproc
	pushq	%rbp
	.cfi_def_cfa_offset 16
	.cfi_offset %rbp, -16
	movq	%rsp, %rbp
	.cfi_def_cfa_register %rbp
	shlq	$0, %rdx
	movzbl	%sil, %esi
	callq	_memset
	popq	%rbp
	retq
	.cfi_endproc

	.globl	__ZN4core10intrinsics11write_bytes17haf221971f5639595E
	.p2align	4, 0x90
__ZN4core10intrinsics11write_bytes17haf221971f5639595E:
	.cfi_startproc
	pushq	%rbp
	.cfi_def_cfa_offset 16
	.cfi_offset %rbp, -16
	movq	%rsp, %rbp
	.cfi_def_cfa_register %rbp
	imulq	$48, %rdx, %rdx
	movzbl	%sil, %esi
	callq	_memset
	popq	%rbp
	retq
	.cfi_endproc

	.globl	__ZN4core10intrinsics19copy_nonoverlapping17h117d40809a121588E
	.p2align	4, 0x90
__ZN4core10intrinsics19copy_nonoverlapping17h117d40809a121588E:
	.cfi_startproc
	pushq	%rbp
	.cfi_def_cfa_offset 16
	.cfi_offset %rbp, -16
	movq	%rsp, %rbp
	.cfi_def_cfa_register %rbp
	subq	$16, %rsp
	shlq	$4, %rdx
	movq	%rdi, -8(%rbp)
	movq	%rsi, %rdi
	movq	-8(%rbp), %rsi
	callq	_memcpy
	addq	$16, %rsp
	popq	%rbp
	retq
	.cfi_endproc

	.globl	__ZN4core10intrinsics19copy_nonoverlapping17h24e6e7015ec5125eE
	.p2align	4, 0x90
__ZN4core10intrinsics19copy_nonoverlapping17h24e6e7015ec5125eE:
	.cfi_startproc
	pushq	%rbp
	.cfi_def_cfa_offset 16
	.cfi_offset %rbp, -16
	movq	%rsp, %rbp
	.cfi_def_cfa_register %rbp
	subq	$16, %rsp
	imulq	$48, %rdx, %rdx
	movq	%rdi, -8(%rbp)
	movq	%rsi, %rdi
	movq	-8(%rbp), %rsi
	callq	_memcpy
	addq	$16, %rsp
	popq	%rbp
	retq
	.cfi_endproc

	.globl	__ZN4core10intrinsics19copy_nonoverlapping17h2aa2f79fcb68d5ccE
	.p2align	4, 0x90
__ZN4core10intrinsics19copy_nonoverlapping17h2aa2f79fcb68d5ccE:
	.cfi_startproc
	pushq	%rbp
	.cfi_def_cfa_offset 16
	.cfi_offset %rbp, -16
	movq	%rsp, %rbp
	.cfi_def_cfa_register %rbp
	subq	$16, %rsp
	shlq	$2, %rdx
	movq	%rdi, -8(%rbp)
	movq	%rsi, %rdi
	movq	-8(%rbp), %rsi
	callq	_memcpy
	addq	$16, %rsp
	popq	%rbp
	retq
	.cfi_endproc

	.globl	__ZN4core10intrinsics19copy_nonoverlapping17h416a4f1b1605d54dE
	.p2align	4, 0x90
__ZN4core10intrinsics19copy_nonoverlapping17h416a4f1b1605d54dE:
	.cfi_startproc
	pushq	%rbp
	.cfi_def_cfa_offset 16
	.cfi_offset %rbp, -16
	movq	%rsp, %rbp
	.cfi_def_cfa_register %rbp
	subq	$16, %rsp
	shlq	$5, %rdx
	movq	%rdi, -8(%rbp)
	movq	%rsi, %rdi
	movq	-8(%rbp), %rsi
	callq	_memcpy
	addq	$16, %rsp
	popq	%rbp
	retq
	.cfi_endproc

	.globl	__ZN4core10intrinsics19copy_nonoverlapping17h47a7aa03e1687afaE
	.p2align	4, 0x90
__ZN4core10intrinsics19copy_nonoverlapping17h47a7aa03e1687afaE:
	.cfi_startproc
	pushq	%rbp
	.cfi_def_cfa_offset 16
	.cfi_offset %rbp, -16
	movq	%rsp, %rbp
	.cfi_def_cfa_register %rbp
	subq	$16, %rsp
	shlq	$3, %rdx
	movq	%rdi, -8(%rbp)
	movq	%rsi, %rdi
	movq	-8(%rbp), %rsi
	callq	_memcpy
	addq	$16, %rsp
	popq	%rbp
	retq
	.cfi_endproc

	.globl	__ZN4core10intrinsics19copy_nonoverlapping17h5452d75af442e78aE
	.p2align	4, 0x90
__ZN4core10intrinsics19copy_nonoverlapping17h5452d75af442e78aE:
	.cfi_startproc
	pushq	%rbp
	.cfi_def_cfa_offset 16
	.cfi_offset %rbp, -16
	movq	%rsp, %rbp
	.cfi_def_cfa_register %rbp
	subq	$16, %rsp
	shlq	$3, %rdx
	movq	%rdi, -8(%rbp)
	movq	%rsi, %rdi
	movq	-8(%rbp), %rsi
	callq	_memcpy
	addq	$16, %rsp
	popq	%rbp
	retq
	.cfi_endproc

	.globl	__ZN4core10intrinsics19copy_nonoverlapping17h58cf767007f9ade4E
	.p2align	4, 0x90
__ZN4core10intrinsics19copy_nonoverlapping17h58cf767007f9ade4E:
	.cfi_startproc
	pushq	%rbp
	.cfi_def_cfa_offset 16
	.cfi_offset %rbp, -16
	movq	%rsp, %rbp
	.cfi_def_cfa_register %rbp
	subq	$16, %rsp
	shlq	$0, %rdx
	movq	%rdi, -8(%rbp)
	movq	%rsi, %rdi
	movq	-8(%rbp), %rsi
	callq	_memcpy
	addq	$16, %rsp
	popq	%rbp
	retq
	.cfi_endproc

	.globl	__ZN4core10intrinsics19copy_nonoverlapping17h650047994a312689E
	.p2align	4, 0x90
__ZN4core10intrinsics19copy_nonoverlapping17h650047994a312689E:
	.cfi_startproc
	pushq	%rbp
	.cfi_def_cfa_offset 16
	.cfi_offset %rbp, -16
	movq	%rsp, %rbp
	.cfi_def_cfa_register %rbp
	subq	$16, %rsp
	shlq	$2, %rdx
	movq	%rdi, -8(%rbp)
	movq	%rsi, %rdi
	movq	-8(%rbp), %rsi
	callq	_memcpy
	addq	$16, %rsp
	popq	%rbp
	retq
	.cfi_endproc

	.globl	__ZN4core10intrinsics19copy_nonoverlapping17h8a294da21624ea3dE
	.p2align	4, 0x90
__ZN4core10intrinsics19copy_nonoverlapping17h8a294da21624ea3dE:
	.cfi_startproc
	pushq	%rbp
	.cfi_def_cfa_offset 16
	.cfi_offset %rbp, -16
	movq	%rsp, %rbp
	.cfi_def_cfa_register %rbp
	subq	$16, %rsp
	shlq	$3, %rdx
	movq	%rdi, -8(%rbp)
	movq	%rsi, %rdi
	movq	-8(%rbp), %rsi
	callq	_memcpy
	addq	$16, %rsp
	popq	%rbp
	retq
	.cfi_endproc

	.globl	__ZN4core10intrinsics19copy_nonoverlapping17h99005bf5047d3326E
	.p2align	4, 0x90
__ZN4core10intrinsics19copy_nonoverlapping17h99005bf5047d3326E:
	.cfi_startproc
	pushq	%rbp
	.cfi_def_cfa_offset 16
	.cfi_offset %rbp, -16
	movq	%rsp, %rbp
	.cfi_def_cfa_register %rbp
	subq	$16, %rsp
	imulq	$24, %rdx, %rdx
	movq	%rdi, -8(%rbp)
	movq	%rsi, %rdi
	movq	-8(%rbp), %rsi
	callq	_memcpy
	addq	$16, %rsp
	popq	%rbp
	retq
	.cfi_endproc

	.globl	__ZN4core10intrinsics19copy_nonoverlapping17hc93911560904c6b9E
	.p2align	4, 0x90
__ZN4core10intrinsics19copy_nonoverlapping17hc93911560904c6b9E:
	.cfi_startproc
	pushq	%rbp
	.cfi_def_cfa_offset 16
	.cfi_offset %rbp, -16
	movq	%rsp, %rbp
	.cfi_def_cfa_register %rbp
	subq	$16, %rsp
	shlq	$0, %rdx
	movq	%rdi, -8(%rbp)
	movq	%rsi, %rdi
	movq	-8(%rbp), %rsi
	callq	_memcpy
	addq	$16, %rsp
	popq	%rbp
	retq
	.cfi_endproc

	.globl	__ZN4core10intrinsics19copy_nonoverlapping17hd9a6d0f440f6add0E
	.p2align	4, 0x90
__ZN4core10intrinsics19copy_nonoverlapping17hd9a6d0f440f6add0E:
	.cfi_startproc
	pushq	%rbp
	.cfi_def_cfa_offset 16
	.cfi_offset %rbp, -16
	movq	%rsp, %rbp
	.cfi_def_cfa_register %rbp
	subq	$16, %rsp
	imulq	$0, %rdx, %rdx
	movq	%rdi, -8(%rbp)
	movq	%rsi, %rdi
	movq	-8(%rbp), %rsi
	callq	_memcpy
	addq	$16, %rsp
	popq	%rbp
	retq
	.cfi_endproc

	.globl	__ZN4core10intrinsics19copy_nonoverlapping17he27cc3346c7088f4E
	.p2align	4, 0x90
__ZN4core10intrinsics19copy_nonoverlapping17he27cc3346c7088f4E:
	.cfi_startproc
	pushq	%rbp
	.cfi_def_cfa_offset 16
	.cfi_offset %rbp, -16
	movq	%rsp, %rbp
	.cfi_def_cfa_register %rbp
	subq	$16, %rsp
	shlq	$2, %rdx
	movq	%rdi, -8(%rbp)
	movq	%rsi, %rdi
	movq	-8(%rbp), %rsi
	callq	_memcpy
	addq	$16, %rsp
	popq	%rbp
	retq
	.cfi_endproc

	.globl	__ZN4core10intrinsics19copy_nonoverlapping17he5fadcaa4626aa71E
	.p2align	4, 0x90
__ZN4core10intrinsics19copy_nonoverlapping17he5fadcaa4626aa71E:
	.cfi_startproc
	pushq	%rbp
	.cfi_def_cfa_offset 16
	.cfi_offset %rbp, -16
	movq	%rsp, %rbp
	.cfi_def_cfa_register %rbp
	subq	$16, %rsp
	shlq	$4, %rdx
	movq	%rdi, -8(%rbp)
	movq	%rsi, %rdi
	movq	-8(%rbp), %rsi
	callq	_memcpy
	addq	$16, %rsp
	popq	%rbp
	retq
	.cfi_endproc

	.globl	__ZN4core10intrinsics4copy17h27d16899dcb14ad1E
	.p2align	4, 0x90
__ZN4core10intrinsics4copy17h27d16899dcb14ad1E:
	.cfi_startproc
	pushq	%rbp
	.cfi_def_cfa_offset 16
	.cfi_offset %rbp, -16
	movq	%rsp, %rbp
	.cfi_def_cfa_register %rbp
	subq	$16, %rsp
	shlq	$0, %rdx
	movq	%rdi, -8(%rbp)
	movq	%rsi, %rdi
	movq	-8(%rbp), %rsi
	callq	_memmove
	addq	$16, %rsp
	popq	%rbp
	retq
	.cfi_endproc

	.globl	__ZN4core10intrinsics4copy17h80abbedefd51ac11E
	.p2align	4, 0x90
__ZN4core10intrinsics4copy17h80abbedefd51ac11E:
	.cfi_startproc
	pushq	%rbp
	.cfi_def_cfa_offset 16
	.cfi_offset %rbp, -16
	movq	%rsp, %rbp
	.cfi_def_cfa_register %rbp
	subq	$16, %rsp
	shlq	$3, %rdx
	movq	%rdi, -8(%rbp)
	movq	%rsi, %rdi
	movq	-8(%rbp), %rsi
	callq	_memmove
	addq	$16, %rsp
	popq	%rbp
	retq
	.cfi_endproc

	.globl	__ZN4core3any6TypeId2of17h705ff4fe589ec18eE
	.p2align	4, 0x90
__ZN4core3any6TypeId2of17h705ff4fe589ec18eE:
	.cfi_startproc
	pushq	%rbp
	.cfi_def_cfa_offset 16
	.cfi_offset %rbp, -16
	movq	%rsp, %rbp
	.cfi_def_cfa_register %rbp
	subq	$24, %rsp
	movabsq	$9147559743429524724, %rax
	movq	%rax, -8(%rbp)
	movq	-8(%rbp), %rax
	movq	%rax, -24(%rbp)
	movq	-24(%rbp), %rax
	movq	%rax, -16(%rbp)
	movq	-16(%rbp), %rax
	addq	$24, %rsp
	popq	%rbp
	retq
	.cfi_endproc

	.globl	__ZN4core3cmp3Ord3max17hdb7df65b4eaf8c3bE
	.p2align	4, 0x90
__ZN4core3cmp3Ord3max17hdb7df65b4eaf8c3bE:
	.cfi_startproc
	pushq	%rbp
	.cfi_def_cfa_offset 16
	.cfi_offset %rbp, -16
	movq	%rsp, %rbp
	.cfi_def_cfa_register %rbp
	subq	$16, %rsp
	callq	__ZN4core3cmp6max_by17hf2e1785744c7357fE
	movq	%rax, -8(%rbp)
	movq	-8(%rbp), %rax
	addq	$16, %rsp
	popq	%rbp
	retq
	.cfi_endproc

	.globl	__ZN4core3cmp3Ord3min17h9a77e218412dcc52E
	.p2align	4, 0x90
__ZN4core3cmp3Ord3min17h9a77e218412dcc52E:
	.cfi_startproc
	pushq	%rbp
	.cfi_def_cfa_offset 16
	.cfi_offset %rbp, -16
	movq	%rsp, %rbp
	.cfi_def_cfa_register %rbp
	subq	$16, %rsp
	callq	__ZN4core3cmp6min_by17hf12ea32f8636093bE
	movq	%rax, -8(%rbp)
	movq	-8(%rbp), %rax
	addq	$16, %rsp
	popq	%rbp
	retq
	.cfi_endproc

	.globl	__ZN4core3cmp3max17hb0e2bd6103754256E
	.p2align	4, 0x90
__ZN4core3cmp3max17hb0e2bd6103754256E:
	.cfi_startproc
	pushq	%rbp
	.cfi_def_cfa_offset 16
	.cfi_offset %rbp, -16
	movq	%rsp, %rbp
	.cfi_def_cfa_register %rbp
	subq	$16, %rsp
	callq	__ZN4core3cmp3Ord3max17hdb7df65b4eaf8c3bE
	movq	%rax, -8(%rbp)
	movq	-8(%rbp), %rax
	addq	$16, %rsp
	popq	%rbp
	retq
	.cfi_endproc

	.globl	__ZN4core3cmp3min17h077da5baed1f6c39E
	.p2align	4, 0x90
__ZN4core3cmp3min17h077da5baed1f6c39E:
	.cfi_startproc
	pushq	%rbp
	.cfi_def_cfa_offset 16
	.cfi_offset %rbp, -16
	movq	%rsp, %rbp
	.cfi_def_cfa_register %rbp
	subq	$16, %rsp
	callq	__ZN4core3cmp3Ord3min17h9a77e218412dcc52E
	movq	%rax, -8(%rbp)
	movq	-8(%rbp), %rax
	addq	$16, %rsp
	popq	%rbp
	retq
	.cfi_endproc

	.p2align	4, 0x90
__ZN4core3cmp5impls50_$LT$impl$u20$core..cmp..Ord$u20$for$u20$usize$GT$3cmp17h826f61ce68a315f2E:
	.cfi_startproc
	pushq	%rbp
	.cfi_def_cfa_offset 16
	.cfi_offset %rbp, -16
	movq	%rsp, %rbp
	.cfi_def_cfa_register %rbp
	subq	$24, %rsp
	movq	(%rdi), %rax
	cmpq	(%rsi), %rax
	movq	%rdi, -16(%rbp)
	movq	%rsi, -24(%rbp)
	jb	LBB97_2
	movq	-16(%rbp), %rax
	movq	(%rax), %rcx
	movq	-24(%rbp), %rdx
	cmpq	(%rdx), %rcx
	je	LBB97_4
	jmp	LBB97_3
LBB97_2:
	movb	$-1, -1(%rbp)
	jmp	LBB97_6
LBB97_3:
	movb	$1, -1(%rbp)
	jmp	LBB97_5
LBB97_4:
	movb	$0, -1(%rbp)
LBB97_5:
	jmp	LBB97_6
LBB97_6:
	movb	-1(%rbp), %al
	addq	$24, %rsp
	popq	%rbp
	retq
	.cfi_endproc

	.p2align	4, 0x90
__ZN4core3cmp5impls56_$LT$impl$u20$core..cmp..PartialEq$u20$for$u20$usize$GT$2eq17h9c841a3cc83d2572E:
	.cfi_startproc
	pushq	%rbp
	.cfi_def_cfa_offset 16
	.cfi_offset %rbp, -16
	movq	%rsp, %rbp
	.cfi_def_cfa_register %rbp
	movq	(%rdi), %rax
	cmpq	(%rsi), %rax
	sete	%cl
	andb	$1, %cl
	movzbl	%cl, %eax
	popq	%rbp
	retq
	.cfi_endproc

	.p2align	4, 0x90
__ZN4core3cmp5impls57_$LT$impl$u20$core..cmp..PartialOrd$u20$for$u20$usize$GT$2lt17hd481b2fafbf1db79E:
	.cfi_startproc
	pushq	%rbp
	.cfi_def_cfa_offset 16
	.cfi_offset %rbp, -16
	movq	%rsp, %rbp
	.cfi_def_cfa_register %rbp
	movq	(%rdi), %rax
	cmpq	(%rsi), %rax
	setb	%cl
	andb	$1, %cl
	movzbl	%cl, %eax
	popq	%rbp
	retq
	.cfi_endproc

	.p2align	4, 0x90
__ZN4core3cmp5impls59_$LT$impl$u20$core..cmp..PartialEq$u20$for$u20$$LP$$RP$$GT$2eq17he6612993cac73769E:
	.cfi_startproc
	pushq	%rbp
	.cfi_def_cfa_offset 16
	.cfi_offset %rbp, -16
	movq	%rsp, %rbp
	.cfi_def_cfa_register %rbp
	movb	$1, %al
	andb	$1, %al
	movzbl	%al, %eax
	popq	%rbp
	retq
	.cfi_endproc

	.globl	__ZN4core3cmp5impls69_$LT$impl$u20$core..cmp..PartialEq$LT$$RF$B$GT$$u20$for$u20$$RF$A$GT$2eq17h0d1cb60b2c36e4d5E
	.p2align	4, 0x90
__ZN4core3cmp5impls69_$LT$impl$u20$core..cmp..PartialEq$LT$$RF$B$GT$$u20$for$u20$$RF$A$GT$2eq17h0d1cb60b2c36e4d5E:
	.cfi_startproc
	pushq	%rbp
	.cfi_def_cfa_offset 16
	.cfi_offset %rbp, -16
	movq	%rsp, %rbp
	.cfi_def_cfa_register %rbp
	subq	$16, %rsp
	movq	(%rdi), %rax
	movq	8(%rdi), %rcx
	movq	(%rsi), %rdx
	movq	8(%rsi), %rsi
	movq	%rax, %rdi
	movq	%rsi, -8(%rbp)
	movq	%rcx, %rsi
	movq	-8(%rbp), %rcx
	callq	__ZN4core5slice81_$LT$impl$u20$core..cmp..PartialEq$LT$$u5b$B$u5d$$GT$$u20$for$u20$$u5b$A$u5d$$GT$2eq17h468ca8a0a1ca1740E
	movb	%al, -9(%rbp)
	movb	-9(%rbp), %al
	andb	$1, %al
	movzbl	%al, %eax
	addq	$16, %rsp
	popq	%rbp
	retq
	.cfi_endproc

	.globl	__ZN4core3cmp5impls69_$LT$impl$u20$core..cmp..PartialEq$LT$$RF$B$GT$$u20$for$u20$$RF$A$GT$2eq17h85bf10e469010665E
	.p2align	4, 0x90
__ZN4core3cmp5impls69_$LT$impl$u20$core..cmp..PartialEq$LT$$RF$B$GT$$u20$for$u20$$RF$A$GT$2eq17h85bf10e469010665E:
	.cfi_startproc
	pushq	%rbp
	.cfi_def_cfa_offset 16
	.cfi_offset %rbp, -16
	movq	%rsp, %rbp
	.cfi_def_cfa_register %rbp
	subq	$16, %rsp
	movq	(%rdi), %rdi
	movq	(%rsi), %rsi
	callq	__ZN69_$LT$proc_macro2..fallback..Ident$u20$as$u20$core..cmp..PartialEq$GT$2eq17h0508ec1563afa260E
	movb	%al, -1(%rbp)
	movb	-1(%rbp), %al
	andb	$1, %al
	movzbl	%al, %eax
	addq	$16, %rsp
	popq	%rbp
	retq
	.cfi_endproc

	.globl	__ZN4core3cmp5impls69_$LT$impl$u20$core..cmp..PartialEq$LT$$RF$B$GT$$u20$for$u20$$RF$A$GT$2eq17ha7ecaaf40398e468E
	.p2align	4, 0x90
__ZN4core3cmp5impls69_$LT$impl$u20$core..cmp..PartialEq$LT$$RF$B$GT$$u20$for$u20$$RF$A$GT$2eq17ha7ecaaf40398e468E:
	.cfi_startproc
	pushq	%rbp
	.cfi_def_cfa_offset 16
	.cfi_offset %rbp, -16
	movq	%rsp, %rbp
	.cfi_def_cfa_register %rbp
	subq	$16, %rsp
	movq	(%rdi), %rax
	movq	8(%rdi), %rcx
	movq	(%rsi), %rdx
	movq	8(%rsi), %rsi
	movq	%rax, %rdi
	movq	%rsi, -8(%rbp)
	movq	%rcx, %rsi
	movq	-8(%rbp), %rcx
	callq	__ZN4core3str6traits54_$LT$impl$u20$core..cmp..PartialEq$u20$for$u20$str$GT$2eq17h26554952d6ef924aE
	movb	%al, -9(%rbp)
	movb	-9(%rbp), %al
	andb	$1, %al
	movzbl	%al, %eax
	addq	$16, %rsp
	popq	%rbp
	retq
	.cfi_endproc

	.globl	__ZN4core3cmp6max_by17hf2e1785744c7357fE
	.p2align	4, 0x90
__ZN4core3cmp6max_by17hf2e1785744c7357fE:
Lfunc_begin22:
	.cfi_startproc
	.cfi_personality 155, _rust_eh_personality
	.cfi_lsda 16, Lexception22
	pushq	%rbp
	.cfi_def_cfa_offset 16
	.cfi_offset %rbp, -16
	movq	%rsp, %rbp
	.cfi_def_cfa_register %rbp
	subq	$80, %rsp
	movq	%rdi, -72(%rbp)
	movq	%rsi, -64(%rbp)
	movb	$0, -18(%rbp)
	movb	$0, -17(%rbp)
	movb	$1, -18(%rbp)
	movb	$1, -17(%rbp)
	leaq	-72(%rbp), %rax
	movq	%rax, -40(%rbp)
	leaq	-64(%rbp), %rax
	movq	%rax, -32(%rbp)
	movq	-40(%rbp), %rdi
	movq	-32(%rbp), %rsi
Ltmp227:
	callq	__ZN4core3ops8function6FnOnce9call_once17h254ffe95bc5c0ad6E
Ltmp228:
	movb	%al, -73(%rbp)
	jmp	LBB104_2
LBB104_1:
	movq	-16(%rbp), %rdi
	callq	__Unwind_Resume
	ud2
LBB104_2:
	movb	-73(%rbp), %al
	movb	%al, -41(%rbp)
	movsbq	-41(%rbp), %rcx
	incq	%rcx
	subq	$2, %rcx
	jb	LBB104_7
	jmp	LBB104_15
LBB104_15:
	jmp	LBB104_5
LBB104_3:
	testb	$1, -18(%rbp)
	jne	LBB104_11
	jmp	LBB104_1
LBB104_4:
	movb	$0, -17(%rbp)
	jmp	LBB104_3
LBB104_5:
	movb	$0, -18(%rbp)
	movq	-72(%rbp), %rax
	movq	%rax, -56(%rbp)
	jmp	LBB104_8
	ud2
LBB104_7:
	movb	$0, -17(%rbp)
	movq	-64(%rbp), %rax
	movq	%rax, -56(%rbp)
LBB104_8:
	testb	$1, -17(%rbp)
	jne	LBB104_12
LBB104_9:
	testb	$1, -18(%rbp)
	jne	LBB104_13
LBB104_10:
	movq	-56(%rbp), %rax
	addq	$80, %rsp
	popq	%rbp
	retq
LBB104_11:
	movb	$0, -18(%rbp)
	jmp	LBB104_1
LBB104_12:
	movb	$0, -17(%rbp)
	jmp	LBB104_9
LBB104_13:
	movb	$0, -18(%rbp)
	jmp	LBB104_10
LBB104_14:
Ltmp229:
	movq	%rax, -16(%rbp)
	movl	%edx, -8(%rbp)
	jmp	LBB104_4
Lfunc_end22:
	.cfi_endproc
	.section	__TEXT,__gcc_except_tab
	.p2align	2
GCC_except_table104:
Lexception22:
	.byte	255
	.byte	255
	.byte	1
	.uleb128 Lcst_end22-Lcst_begin22
Lcst_begin22:
	.uleb128 Ltmp227-Lfunc_begin22
	.uleb128 Ltmp228-Ltmp227
	.uleb128 Ltmp229-Lfunc_begin22
	.byte	0
	.uleb128 Ltmp228-Lfunc_begin22
	.uleb128 Lfunc_end22-Ltmp228
	.byte	0
	.byte	0
Lcst_end22:
	.p2align	2

	.section	__TEXT,__text,regular,pure_instructions
	.globl	__ZN4core3cmp6min_by17hf12ea32f8636093bE
	.p2align	4, 0x90
__ZN4core3cmp6min_by17hf12ea32f8636093bE:
Lfunc_begin23:
	.cfi_startproc
	.cfi_personality 155, _rust_eh_personality
	.cfi_lsda 16, Lexception23
	pushq	%rbp
	.cfi_def_cfa_offset 16
	.cfi_offset %rbp, -16
	movq	%rsp, %rbp
	.cfi_def_cfa_register %rbp
	subq	$80, %rsp
	movq	%rdi, -72(%rbp)
	movq	%rsi, -64(%rbp)
	movb	$0, -18(%rbp)
	movb	$0, -17(%rbp)
	movb	$1, -18(%rbp)
	movb	$1, -17(%rbp)
	leaq	-72(%rbp), %rax
	movq	%rax, -40(%rbp)
	leaq	-64(%rbp), %rax
	movq	%rax, -32(%rbp)
	movq	-40(%rbp), %rdi
	movq	-32(%rbp), %rsi
Ltmp230:
	callq	__ZN4core3ops8function6FnOnce9call_once17h254ffe95bc5c0ad6E
Ltmp231:
	movb	%al, -73(%rbp)
	jmp	LBB105_2
LBB105_1:
	movq	-16(%rbp), %rdi
	callq	__Unwind_Resume
	ud2
LBB105_2:
	movb	-73(%rbp), %al
	movb	%al, -41(%rbp)
	movsbq	-41(%rbp), %rcx
	incq	%rcx
	subq	$2, %rcx
	jb	LBB105_7
	jmp	LBB105_15
LBB105_15:
	jmp	LBB105_5
LBB105_3:
	testb	$1, -18(%rbp)
	jne	LBB105_11
	jmp	LBB105_1
LBB105_4:
	movb	$0, -17(%rbp)
	jmp	LBB105_3
LBB105_5:
	movb	$0, -17(%rbp)
	movq	-64(%rbp), %rax
	movq	%rax, -56(%rbp)
	jmp	LBB105_8
	ud2
LBB105_7:
	movb	$0, -18(%rbp)
	movq	-72(%rbp), %rax
	movq	%rax, -56(%rbp)
LBB105_8:
	testb	$1, -17(%rbp)
	jne	LBB105_12
LBB105_9:
	testb	$1, -18(%rbp)
	jne	LBB105_13
LBB105_10:
	movq	-56(%rbp), %rax
	addq	$80, %rsp
	popq	%rbp
	retq
LBB105_11:
	movb	$0, -18(%rbp)
	jmp	LBB105_1
LBB105_12:
	movb	$0, -17(%rbp)
	jmp	LBB105_9
LBB105_13:
	movb	$0, -18(%rbp)
	jmp	LBB105_10
LBB105_14:
Ltmp232:
	movq	%rax, -16(%rbp)
	movl	%edx, -8(%rbp)
	jmp	LBB105_4
Lfunc_end23:
	.cfi_endproc
	.section	__TEXT,__gcc_except_tab
	.p2align	2
GCC_except_table105:
Lexception23:
	.byte	255
	.byte	255
	.byte	1
	.uleb128 Lcst_end23-Lcst_begin23
Lcst_begin23:
	.uleb128 Ltmp230-Lfunc_begin23
	.uleb128 Ltmp231-Ltmp230
	.uleb128 Ltmp232-Lfunc_begin23
	.byte	0
	.uleb128 Ltmp231-Lfunc_begin23
	.uleb128 Lfunc_end23-Ltmp231
	.byte	0
	.byte	0
Lcst_end23:
	.p2align	2

	.section	__TEXT,__text,regular,pure_instructions
	.globl	__ZN4core3cmp9PartialEq2ne17h9639b8aaba72bbeeE
	.p2align	4, 0x90
__ZN4core3cmp9PartialEq2ne17h9639b8aaba72bbeeE:
	.cfi_startproc
	pushq	%rbp
	.cfi_def_cfa_offset 16
	.cfi_offset %rbp, -16
	movq	%rsp, %rbp
	.cfi_def_cfa_register %rbp
	subq	$16, %rsp
	callq	__ZN4core3ptr9const_ptr66_$LT$impl$u20$core..cmp..PartialEq$u20$for$u20$$BP$const$u20$T$GT$2eq17haf08d64a0321453bE
	movb	%al, -1(%rbp)
	movb	-1(%rbp), %al
	xorb	$-1, %al
	andb	$1, %al
	movzbl	%al, %eax
	addq	$16, %rsp
	popq	%rbp
	retq
	.cfi_endproc

	.globl	__ZN4core3cmp9PartialEq2ne17hf4707148dda90d7aE
	.p2align	4, 0x90
__ZN4core3cmp9PartialEq2ne17hf4707148dda90d7aE:
	.cfi_startproc
	pushq	%rbp
	.cfi_def_cfa_offset 16
	.cfi_offset %rbp, -16
	movq	%rsp, %rbp
	.cfi_def_cfa_register %rbp
	subq	$16, %rsp
	callq	__ZN63_$LT$proc_macro2..Delimiter$u20$as$u20$core..cmp..PartialEq$GT$2eq17h62d1384fb639dc65E
	movb	%al, -1(%rbp)
	movb	-1(%rbp), %al
	xorb	$-1, %al
	andb	$1, %al
	movzbl	%al, %eax
	addq	$16, %rsp
	popq	%rbp
	retq
	.cfi_endproc

	.p2align	4, 0x90
__ZN4core3f3221_$LT$impl$u20$f32$GT$11abs_private17hd9fbe652d494b75dE:
	.cfi_startproc
	pushq	%rbp
	.cfi_def_cfa_offset 16
	.cfi_offset %rbp, -16
	movq	%rsp, %rbp
	.cfi_def_cfa_register %rbp
	subq	$16, %rsp
	callq	__ZN4core3f3221_$LT$impl$u20$f32$GT$7to_bits17he6cdbbba1e92ccc6E
	movl	%eax, -4(%rbp)
	movl	-4(%rbp), %eax
	andl	$2147483647, %eax
	movl	%eax, %edi
	callq	__ZN4core3f3221_$LT$impl$u20$f32$GT$9from_bits17h0e6501e981467b81E
	movss	%xmm0, -8(%rbp)
	movss	-8(%rbp), %xmm0
	addq	$16, %rsp
	popq	%rbp
	retq
	.cfi_endproc

	.p2align	4, 0x90
__ZN4core3f3221_$LT$impl$u20$f32$GT$7to_bits17he6cdbbba1e92ccc6E:
	.cfi_startproc
	pushq	%rbp
	.cfi_def_cfa_offset 16
	.cfi_offset %rbp, -16
	movq	%rsp, %rbp
	.cfi_def_cfa_register %rbp
	pushq	%rax
	movss	%xmm0, -4(%rbp)
	movl	-4(%rbp), %eax
	movl	%eax, -8(%rbp)
	movl	-8(%rbp), %eax
	addq	$8, %rsp
	popq	%rbp
	retq
	.cfi_endproc

	.p2align	4, 0x90
__ZN4core3f3221_$LT$impl$u20$f32$GT$9from_bits17h0e6501e981467b81E:
	.cfi_startproc
	pushq	%rbp
	.cfi_def_cfa_offset 16
	.cfi_offset %rbp, -16
	movq	%rsp, %rbp
	.cfi_def_cfa_register %rbp
	pushq	%rax
	movl	%edi, -4(%rbp)
	movss	-4(%rbp), %xmm0
	movss	%xmm0, -8(%rbp)
	movss	-8(%rbp), %xmm0
	addq	$8, %rsp
	popq	%rbp
	retq
	.cfi_endproc

	.section	__TEXT,__literal4,4byte_literals
	.p2align	2
LCPI111_0:
	.long	2139095040
	.section	__TEXT,__text,regular,pure_instructions
	.p2align	4, 0x90
__ZN4core3f3221_$LT$impl$u20$f32$GT$9is_finite17h3eb5705ed7e33b56E:
	.cfi_startproc
	pushq	%rbp
	.cfi_def_cfa_offset 16
	.cfi_offset %rbp, -16
	movq	%rsp, %rbp
	.cfi_def_cfa_register %rbp
	subq	$16, %rsp
	callq	__ZN4core3f3221_$LT$impl$u20$f32$GT$11abs_private17hd9fbe652d494b75dE
	movss	%xmm0, -4(%rbp)
	movss	LCPI111_0(%rip), %xmm0
	movss	-4(%rbp), %xmm1
	ucomiss	%xmm1, %xmm0
	seta	%al
	andb	$1, %al
	movzbl	%al, %eax
	addq	$16, %rsp
	popq	%rbp
	retq
	.cfi_endproc

	.p2align	4, 0x90
__ZN4core3f6421_$LT$impl$u20$f64$GT$11abs_private17hdd07779ae516dab0E:
	.cfi_startproc
	pushq	%rbp
	.cfi_def_cfa_offset 16
	.cfi_offset %rbp, -16
	movq	%rsp, %rbp
	.cfi_def_cfa_register %rbp
	subq	$16, %rsp
	callq	__ZN4core3f6421_$LT$impl$u20$f64$GT$7to_bits17h785d54134c0bce8cE
	movq	%rax, -8(%rbp)
	movabsq	$9223372036854775807, %rax
	movq	-8(%rbp), %rcx
	andq	%rax, %rcx
	movq	%rcx, %rdi
	callq	__ZN4core3f6421_$LT$impl$u20$f64$GT$9from_bits17hfc7cc93ee8411d1cE
	movsd	%xmm0, -16(%rbp)
	movsd	-16(%rbp), %xmm0
	addq	$16, %rsp
	popq	%rbp
	retq
	.cfi_endproc

	.p2align	4, 0x90
__ZN4core3f6421_$LT$impl$u20$f64$GT$7to_bits17h785d54134c0bce8cE:
	.cfi_startproc
	pushq	%rbp
	.cfi_def_cfa_offset 16
	.cfi_offset %rbp, -16
	movq	%rsp, %rbp
	.cfi_def_cfa_register %rbp
	subq	$16, %rsp
	movsd	%xmm0, -8(%rbp)
	movq	-8(%rbp), %rax
	movq	%rax, -16(%rbp)
	movq	-16(%rbp), %rax
	addq	$16, %rsp
	popq	%rbp
	retq
	.cfi_endproc

	.p2align	4, 0x90
__ZN4core3f6421_$LT$impl$u20$f64$GT$9from_bits17hfc7cc93ee8411d1cE:
	.cfi_startproc
	pushq	%rbp
	.cfi_def_cfa_offset 16
	.cfi_offset %rbp, -16
	movq	%rsp, %rbp
	.cfi_def_cfa_register %rbp
	subq	$16, %rsp
	movq	%rdi, -8(%rbp)
	movsd	-8(%rbp), %xmm0
	movsd	%xmm0, -16(%rbp)
	movsd	-16(%rbp), %xmm0
	addq	$16, %rsp
	popq	%rbp
	retq
	.cfi_endproc

	.section	__TEXT,__literal8,8byte_literals
	.p2align	3
LCPI115_0:
	.quad	9218868437227405312
	.section	__TEXT,__text,regular,pure_instructions
	.p2align	4, 0x90
__ZN4core3f6421_$LT$impl$u20$f64$GT$9is_finite17hc5fa51b07918cad9E:
	.cfi_startproc
	pushq	%rbp
	.cfi_def_cfa_offset 16
	.cfi_offset %rbp, -16
	movq	%rsp, %rbp
	.cfi_def_cfa_register %rbp
	subq	$16, %rsp
	callq	__ZN4core3f6421_$LT$impl$u20$f64$GT$11abs_private17hdd07779ae516dab0E
	movsd	%xmm0, -8(%rbp)
	movsd	LCPI115_0(%rip), %xmm0
	movsd	-8(%rbp), %xmm1
	ucomisd	%xmm1, %xmm0
	seta	%al
	andb	$1, %al
	movzbl	%al, %eax
	addq	$16, %rsp
	popq	%rbp
	retq
	.cfi_endproc

	.globl	__ZN4core3fmt10ArgumentV13new17h055022955550cabdE
	.p2align	4, 0x90
__ZN4core3fmt10ArgumentV13new17h055022955550cabdE:
	.cfi_startproc
	pushq	%rbp
	.cfi_def_cfa_offset 16
	.cfi_offset %rbp, -16
	movq	%rsp, %rbp
	.cfi_def_cfa_register %rbp
	subq	$56, %rsp
	movq	%rsi, -16(%rbp)
	movq	-16(%rbp), %rax
	movq	%rdi, -40(%rbp)
	movq	%rax, -48(%rbp)
	movq	-40(%rbp), %rax
	movq	%rax, -8(%rbp)
	movq	-8(%rbp), %rcx
	movq	%rcx, -56(%rbp)
	movq	-56(%rbp), %rax
	movq	%rax, -32(%rbp)
	movq	-48(%rbp), %rcx
	movq	%rcx, -24(%rbp)
	movq	-32(%rbp), %rax
	movq	-24(%rbp), %rdx
	addq	$56, %rsp
	popq	%rbp
	retq
	.cfi_endproc

	.globl	__ZN4core3fmt10ArgumentV13new17h06b5c30ca07d1417E
	.p2align	4, 0x90
__ZN4core3fmt10ArgumentV13new17h06b5c30ca07d1417E:
	.cfi_startproc
	pushq	%rbp
	.cfi_def_cfa_offset 16
	.cfi_offset %rbp, -16
	movq	%rsp, %rbp
	.cfi_def_cfa_register %rbp
	subq	$56, %rsp
	movq	%rsi, -16(%rbp)
	movq	-16(%rbp), %rax
	movq	%rdi, -40(%rbp)
	movq	%rax, -48(%rbp)
	movq	-40(%rbp), %rax
	movq	%rax, -8(%rbp)
	movq	-8(%rbp), %rcx
	movq	%rcx, -56(%rbp)
	movq	-56(%rbp), %rax
	movq	%rax, -32(%rbp)
	movq	-48(%rbp), %rcx
	movq	%rcx, -24(%rbp)
	movq	-32(%rbp), %rax
	movq	-24(%rbp), %rdx
	addq	$56, %rsp
	popq	%rbp
	retq
	.cfi_endproc

	.globl	__ZN4core3fmt10ArgumentV13new17h1294ec6497a7e3c4E
	.p2align	4, 0x90
__ZN4core3fmt10ArgumentV13new17h1294ec6497a7e3c4E:
	.cfi_startproc
	pushq	%rbp
	.cfi_def_cfa_offset 16
	.cfi_offset %rbp, -16
	movq	%rsp, %rbp
	.cfi_def_cfa_register %rbp
	subq	$56, %rsp
	movq	%rsi, -16(%rbp)
	movq	-16(%rbp), %rax
	movq	%rdi, -40(%rbp)
	movq	%rax, -48(%rbp)
	movq	-40(%rbp), %rax
	movq	%rax, -8(%rbp)
	movq	-8(%rbp), %rcx
	movq	%rcx, -56(%rbp)
	movq	-56(%rbp), %rax
	movq	%rax, -32(%rbp)
	movq	-48(%rbp), %rcx
	movq	%rcx, -24(%rbp)
	movq	-32(%rbp), %rax
	movq	-24(%rbp), %rdx
	addq	$56, %rsp
	popq	%rbp
	retq
	.cfi_endproc

	.globl	__ZN4core3fmt10ArgumentV13new17h1e58bdd8e352366eE
	.p2align	4, 0x90
__ZN4core3fmt10ArgumentV13new17h1e58bdd8e352366eE:
	.cfi_startproc
	pushq	%rbp
	.cfi_def_cfa_offset 16
	.cfi_offset %rbp, -16
	movq	%rsp, %rbp
	.cfi_def_cfa_register %rbp
	subq	$56, %rsp
	movq	%rsi, -16(%rbp)
	movq	-16(%rbp), %rax
	movq	%rdi, -40(%rbp)
	movq	%rax, -48(%rbp)
	movq	-40(%rbp), %rax
	movq	%rax, -8(%rbp)
	movq	-8(%rbp), %rcx
	movq	%rcx, -56(%rbp)
	movq	-56(%rbp), %rax
	movq	%rax, -32(%rbp)
	movq	-48(%rbp), %rcx
	movq	%rcx, -24(%rbp)
	movq	-32(%rbp), %rax
	movq	-24(%rbp), %rdx
	addq	$56, %rsp
	popq	%rbp
	retq
	.cfi_endproc

	.globl	__ZN4core3fmt10ArgumentV13new17h2764d2a33c0e44cdE
	.p2align	4, 0x90
__ZN4core3fmt10ArgumentV13new17h2764d2a33c0e44cdE:
	.cfi_startproc
	pushq	%rbp
	.cfi_def_cfa_offset 16
	.cfi_offset %rbp, -16
	movq	%rsp, %rbp
	.cfi_def_cfa_register %rbp
	subq	$56, %rsp
	movq	%rsi, -16(%rbp)
	movq	-16(%rbp), %rax
	movq	%rdi, -40(%rbp)
	movq	%rax, -48(%rbp)
	movq	-40(%rbp), %rax
	movq	%rax, -8(%rbp)
	movq	-8(%rbp), %rcx
	movq	%rcx, -56(%rbp)
	movq	-56(%rbp), %rax
	movq	%rax, -32(%rbp)
	movq	-48(%rbp), %rcx
	movq	%rcx, -24(%rbp)
	movq	-32(%rbp), %rax
	movq	-24(%rbp), %rdx
	addq	$56, %rsp
	popq	%rbp
	retq
	.cfi_endproc

	.globl	__ZN4core3fmt10ArgumentV13new17h2bf4e29b87959b7eE
	.p2align	4, 0x90
__ZN4core3fmt10ArgumentV13new17h2bf4e29b87959b7eE:
	.cfi_startproc
	pushq	%rbp
	.cfi_def_cfa_offset 16
	.cfi_offset %rbp, -16
	movq	%rsp, %rbp
	.cfi_def_cfa_register %rbp
	subq	$56, %rsp
	movq	%rsi, -16(%rbp)
	movq	-16(%rbp), %rax
	movq	%rdi, -40(%rbp)
	movq	%rax, -48(%rbp)
	movq	-40(%rbp), %rax
	movq	%rax, -8(%rbp)
	movq	-8(%rbp), %rcx
	movq	%rcx, -56(%rbp)
	movq	-56(%rbp), %rax
	movq	%rax, -32(%rbp)
	movq	-48(%rbp), %rcx
	movq	%rcx, -24(%rbp)
	movq	-32(%rbp), %rax
	movq	-24(%rbp), %rdx
	addq	$56, %rsp
	popq	%rbp
	retq
	.cfi_endproc

	.globl	__ZN4core3fmt10ArgumentV13new17h2e2d854bbc9cb27cE
	.p2align	4, 0x90
__ZN4core3fmt10ArgumentV13new17h2e2d854bbc9cb27cE:
	.cfi_startproc
	pushq	%rbp
	.cfi_def_cfa_offset 16
	.cfi_offset %rbp, -16
	movq	%rsp, %rbp
	.cfi_def_cfa_register %rbp
	subq	$56, %rsp
	movq	%rsi, -16(%rbp)
	movq	-16(%rbp), %rax
	movq	%rdi, -40(%rbp)
	movq	%rax, -48(%rbp)
	movq	-40(%rbp), %rax
	movq	%rax, -8(%rbp)
	movq	-8(%rbp), %rcx
	movq	%rcx, -56(%rbp)
	movq	-56(%rbp), %rax
	movq	%rax, -32(%rbp)
	movq	-48(%rbp), %rcx
	movq	%rcx, -24(%rbp)
	movq	-32(%rbp), %rax
	movq	-24(%rbp), %rdx
	addq	$56, %rsp
	popq	%rbp
	retq
	.cfi_endproc

	.globl	__ZN4core3fmt10ArgumentV13new17h2e98eb622da465b8E
	.p2align	4, 0x90
__ZN4core3fmt10ArgumentV13new17h2e98eb622da465b8E:
	.cfi_startproc
	pushq	%rbp
	.cfi_def_cfa_offset 16
	.cfi_offset %rbp, -16
	movq	%rsp, %rbp
	.cfi_def_cfa_register %rbp
	subq	$56, %rsp
	movq	%rsi, -16(%rbp)
	movq	-16(%rbp), %rax
	movq	%rdi, -40(%rbp)
	movq	%rax, -48(%rbp)
	movq	-40(%rbp), %rax
	movq	%rax, -8(%rbp)
	movq	-8(%rbp), %rcx
	movq	%rcx, -56(%rbp)
	movq	-56(%rbp), %rax
	movq	%rax, -32(%rbp)
	movq	-48(%rbp), %rcx
	movq	%rcx, -24(%rbp)
	movq	-32(%rbp), %rax
	movq	-24(%rbp), %rdx
	addq	$56, %rsp
	popq	%rbp
	retq
	.cfi_endproc

	.globl	__ZN4core3fmt10ArgumentV13new17h2ea330cdb05c7a67E
	.p2align	4, 0x90
__ZN4core3fmt10ArgumentV13new17h2ea330cdb05c7a67E:
	.cfi_startproc
	pushq	%rbp
	.cfi_def_cfa_offset 16
	.cfi_offset %rbp, -16
	movq	%rsp, %rbp
	.cfi_def_cfa_register %rbp
	subq	$56, %rsp
	movq	%rsi, -16(%rbp)
	movq	-16(%rbp), %rax
	movq	%rdi, -40(%rbp)
	movq	%rax, -48(%rbp)
	movq	-40(%rbp), %rax
	movq	%rax, -8(%rbp)
	movq	-8(%rbp), %rcx
	movq	%rcx, -56(%rbp)
	movq	-56(%rbp), %rax
	movq	%rax, -32(%rbp)
	movq	-48(%rbp), %rcx
	movq	%rcx, -24(%rbp)
	movq	-32(%rbp), %rax
	movq	-24(%rbp), %rdx
	addq	$56, %rsp
	popq	%rbp
	retq
	.cfi_endproc

	.globl	__ZN4core3fmt10ArgumentV13new17h2fbf3250fd2d3395E
	.p2align	4, 0x90
__ZN4core3fmt10ArgumentV13new17h2fbf3250fd2d3395E:
	.cfi_startproc
	pushq	%rbp
	.cfi_def_cfa_offset 16
	.cfi_offset %rbp, -16
	movq	%rsp, %rbp
	.cfi_def_cfa_register %rbp
	subq	$56, %rsp
	movq	%rsi, -16(%rbp)
	movq	-16(%rbp), %rax
	movq	%rdi, -40(%rbp)
	movq	%rax, -48(%rbp)
	movq	-40(%rbp), %rax
	movq	%rax, -8(%rbp)
	movq	-8(%rbp), %rcx
	movq	%rcx, -56(%rbp)
	movq	-56(%rbp), %rax
	movq	%rax, -32(%rbp)
	movq	-48(%rbp), %rcx
	movq	%rcx, -24(%rbp)
	movq	-32(%rbp), %rax
	movq	-24(%rbp), %rdx
	addq	$56, %rsp
	popq	%rbp
	retq
	.cfi_endproc

	.globl	__ZN4core3fmt10ArgumentV13new17h37e56351446d219bE
	.p2align	4, 0x90
__ZN4core3fmt10ArgumentV13new17h37e56351446d219bE:
	.cfi_startproc
	pushq	%rbp
	.cfi_def_cfa_offset 16
	.cfi_offset %rbp, -16
	movq	%rsp, %rbp
	.cfi_def_cfa_register %rbp
	subq	$56, %rsp
	movq	%rsi, -16(%rbp)
	movq	-16(%rbp), %rax
	movq	%rdi, -40(%rbp)
	movq	%rax, -48(%rbp)
	movq	-40(%rbp), %rax
	movq	%rax, -8(%rbp)
	movq	-8(%rbp), %rcx
	movq	%rcx, -56(%rbp)
	movq	-56(%rbp), %rax
	movq	%rax, -32(%rbp)
	movq	-48(%rbp), %rcx
	movq	%rcx, -24(%rbp)
	movq	-32(%rbp), %rax
	movq	-24(%rbp), %rdx
	addq	$56, %rsp
	popq	%rbp
	retq
	.cfi_endproc

	.globl	__ZN4core3fmt10ArgumentV13new17h3e93913b124329e7E
	.p2align	4, 0x90
__ZN4core3fmt10ArgumentV13new17h3e93913b124329e7E:
	.cfi_startproc
	pushq	%rbp
	.cfi_def_cfa_offset 16
	.cfi_offset %rbp, -16
	movq	%rsp, %rbp
	.cfi_def_cfa_register %rbp
	subq	$56, %rsp
	movq	%rsi, -16(%rbp)
	movq	-16(%rbp), %rax
	movq	%rdi, -40(%rbp)
	movq	%rax, -48(%rbp)
	movq	-40(%rbp), %rax
	movq	%rax, -8(%rbp)
	movq	-8(%rbp), %rcx
	movq	%rcx, -56(%rbp)
	movq	-56(%rbp), %rax
	movq	%rax, -32(%rbp)
	movq	-48(%rbp), %rcx
	movq	%rcx, -24(%rbp)
	movq	-32(%rbp), %rax
	movq	-24(%rbp), %rdx
	addq	$56, %rsp
	popq	%rbp
	retq
	.cfi_endproc

	.globl	__ZN4core3fmt10ArgumentV13new17h3ea444417775c0fcE
	.p2align	4, 0x90
__ZN4core3fmt10ArgumentV13new17h3ea444417775c0fcE:
	.cfi_startproc
	pushq	%rbp
	.cfi_def_cfa_offset 16
	.cfi_offset %rbp, -16
	movq	%rsp, %rbp
	.cfi_def_cfa_register %rbp
	subq	$56, %rsp
	movq	%rsi, -16(%rbp)
	movq	-16(%rbp), %rax
	movq	%rdi, -40(%rbp)
	movq	%rax, -48(%rbp)
	movq	-40(%rbp), %rax
	movq	%rax, -8(%rbp)
	movq	-8(%rbp), %rcx
	movq	%rcx, -56(%rbp)
	movq	-56(%rbp), %rax
	movq	%rax, -32(%rbp)
	movq	-48(%rbp), %rcx
	movq	%rcx, -24(%rbp)
	movq	-32(%rbp), %rax
	movq	-24(%rbp), %rdx
	addq	$56, %rsp
	popq	%rbp
	retq
	.cfi_endproc

	.globl	__ZN4core3fmt10ArgumentV13new17h41b4ae8bad5e72eeE
	.p2align	4, 0x90
__ZN4core3fmt10ArgumentV13new17h41b4ae8bad5e72eeE:
	.cfi_startproc
	pushq	%rbp
	.cfi_def_cfa_offset 16
	.cfi_offset %rbp, -16
	movq	%rsp, %rbp
	.cfi_def_cfa_register %rbp
	subq	$56, %rsp
	movq	%rsi, -16(%rbp)
	movq	-16(%rbp), %rax
	movq	%rdi, -40(%rbp)
	movq	%rax, -48(%rbp)
	movq	-40(%rbp), %rax
	movq	%rax, -8(%rbp)
	movq	-8(%rbp), %rcx
	movq	%rcx, -56(%rbp)
	movq	-56(%rbp), %rax
	movq	%rax, -32(%rbp)
	movq	-48(%rbp), %rcx
	movq	%rcx, -24(%rbp)
	movq	-32(%rbp), %rax
	movq	-24(%rbp), %rdx
	addq	$56, %rsp
	popq	%rbp
	retq
	.cfi_endproc

	.globl	__ZN4core3fmt10ArgumentV13new17h45eee985e5b46ce6E
	.p2align	4, 0x90
__ZN4core3fmt10ArgumentV13new17h45eee985e5b46ce6E:
	.cfi_startproc
	pushq	%rbp
	.cfi_def_cfa_offset 16
	.cfi_offset %rbp, -16
	movq	%rsp, %rbp
	.cfi_def_cfa_register %rbp
	subq	$56, %rsp
	movq	%rsi, -16(%rbp)
	movq	-16(%rbp), %rax
	movq	%rdi, -40(%rbp)
	movq	%rax, -48(%rbp)
	movq	-40(%rbp), %rax
	movq	%rax, -8(%rbp)
	movq	-8(%rbp), %rcx
	movq	%rcx, -56(%rbp)
	movq	-56(%rbp), %rax
	movq	%rax, -32(%rbp)
	movq	-48(%rbp), %rcx
	movq	%rcx, -24(%rbp)
	movq	-32(%rbp), %rax
	movq	-24(%rbp), %rdx
	addq	$56, %rsp
	popq	%rbp
	retq
	.cfi_endproc

	.globl	__ZN4core3fmt10ArgumentV13new17h4a3ae49fa574e867E
	.p2align	4, 0x90
__ZN4core3fmt10ArgumentV13new17h4a3ae49fa574e867E:
	.cfi_startproc
	pushq	%rbp
	.cfi_def_cfa_offset 16
	.cfi_offset %rbp, -16
	movq	%rsp, %rbp
	.cfi_def_cfa_register %rbp
	subq	$56, %rsp
	movq	%rsi, -16(%rbp)
	movq	-16(%rbp), %rax
	movq	%rdi, -40(%rbp)
	movq	%rax, -48(%rbp)
	movq	-40(%rbp), %rax
	movq	%rax, -8(%rbp)
	movq	-8(%rbp), %rcx
	movq	%rcx, -56(%rbp)
	movq	-56(%rbp), %rax
	movq	%rax, -32(%rbp)
	movq	-48(%rbp), %rcx
	movq	%rcx, -24(%rbp)
	movq	-32(%rbp), %rax
	movq	-24(%rbp), %rdx
	addq	$56, %rsp
	popq	%rbp
	retq
	.cfi_endproc

	.globl	__ZN4core3fmt10ArgumentV13new17h5df5730e5b3a9b60E
	.p2align	4, 0x90
__ZN4core3fmt10ArgumentV13new17h5df5730e5b3a9b60E:
	.cfi_startproc
	pushq	%rbp
	.cfi_def_cfa_offset 16
	.cfi_offset %rbp, -16
	movq	%rsp, %rbp
	.cfi_def_cfa_register %rbp
	subq	$56, %rsp
	movq	%rsi, -16(%rbp)
	movq	-16(%rbp), %rax
	movq	%rdi, -40(%rbp)
	movq	%rax, -48(%rbp)
	movq	-40(%rbp), %rax
	movq	%rax, -8(%rbp)
	movq	-8(%rbp), %rcx
	movq	%rcx, -56(%rbp)
	movq	-56(%rbp), %rax
	movq	%rax, -32(%rbp)
	movq	-48(%rbp), %rcx
	movq	%rcx, -24(%rbp)
	movq	-32(%rbp), %rax
	movq	-24(%rbp), %rdx
	addq	$56, %rsp
	popq	%rbp
	retq
	.cfi_endproc

	.globl	__ZN4core3fmt10ArgumentV13new17h6beaff70e9b9af22E
	.p2align	4, 0x90
__ZN4core3fmt10ArgumentV13new17h6beaff70e9b9af22E:
	.cfi_startproc
	pushq	%rbp
	.cfi_def_cfa_offset 16
	.cfi_offset %rbp, -16
	movq	%rsp, %rbp
	.cfi_def_cfa_register %rbp
	subq	$56, %rsp
	movq	%rsi, -16(%rbp)
	movq	-16(%rbp), %rax
	movq	%rdi, -40(%rbp)
	movq	%rax, -48(%rbp)
	movq	-40(%rbp), %rax
	movq	%rax, -8(%rbp)
	movq	-8(%rbp), %rcx
	movq	%rcx, -56(%rbp)
	movq	-56(%rbp), %rax
	movq	%rax, -32(%rbp)
	movq	-48(%rbp), %rcx
	movq	%rcx, -24(%rbp)
	movq	-32(%rbp), %rax
	movq	-24(%rbp), %rdx
	addq	$56, %rsp
	popq	%rbp
	retq
	.cfi_endproc

	.globl	__ZN4core3fmt10ArgumentV13new17h6c6fec915b6a7b20E
	.p2align	4, 0x90
__ZN4core3fmt10ArgumentV13new17h6c6fec915b6a7b20E:
	.cfi_startproc
	pushq	%rbp
	.cfi_def_cfa_offset 16
	.cfi_offset %rbp, -16
	movq	%rsp, %rbp
	.cfi_def_cfa_register %rbp
	subq	$56, %rsp
	movq	%rsi, -16(%rbp)
	movq	-16(%rbp), %rax
	movq	%rdi, -40(%rbp)
	movq	%rax, -48(%rbp)
	movq	-40(%rbp), %rax
	movq	%rax, -8(%rbp)
	movq	-8(%rbp), %rcx
	movq	%rcx, -56(%rbp)
	movq	-56(%rbp), %rax
	movq	%rax, -32(%rbp)
	movq	-48(%rbp), %rcx
	movq	%rcx, -24(%rbp)
	movq	-32(%rbp), %rax
	movq	-24(%rbp), %rdx
	addq	$56, %rsp
	popq	%rbp
	retq
	.cfi_endproc

	.globl	__ZN4core3fmt10ArgumentV13new17h7389db1586f19eaaE
	.p2align	4, 0x90
__ZN4core3fmt10ArgumentV13new17h7389db1586f19eaaE:
	.cfi_startproc
	pushq	%rbp
	.cfi_def_cfa_offset 16
	.cfi_offset %rbp, -16
	movq	%rsp, %rbp
	.cfi_def_cfa_register %rbp
	subq	$56, %rsp
	movq	%rsi, -16(%rbp)
	movq	-16(%rbp), %rax
	movq	%rdi, -40(%rbp)
	movq	%rax, -48(%rbp)
	movq	-40(%rbp), %rax
	movq	%rax, -8(%rbp)
	movq	-8(%rbp), %rcx
	movq	%rcx, -56(%rbp)
	movq	-56(%rbp), %rax
	movq	%rax, -32(%rbp)
	movq	-48(%rbp), %rcx
	movq	%rcx, -24(%rbp)
	movq	-32(%rbp), %rax
	movq	-24(%rbp), %rdx
	addq	$56, %rsp
	popq	%rbp
	retq
	.cfi_endproc

	.globl	__ZN4core3fmt10ArgumentV13new17h77d62e090fa309aaE
	.p2align	4, 0x90
__ZN4core3fmt10ArgumentV13new17h77d62e090fa309aaE:
	.cfi_startproc
	pushq	%rbp
	.cfi_def_cfa_offset 16
	.cfi_offset %rbp, -16
	movq	%rsp, %rbp
	.cfi_def_cfa_register %rbp
	subq	$56, %rsp
	movq	%rsi, -16(%rbp)
	movq	-16(%rbp), %rax
	movq	%rdi, -40(%rbp)
	movq	%rax, -48(%rbp)
	movq	-40(%rbp), %rax
	movq	%rax, -8(%rbp)
	movq	-8(%rbp), %rcx
	movq	%rcx, -56(%rbp)
	movq	-56(%rbp), %rax
	movq	%rax, -32(%rbp)
	movq	-48(%rbp), %rcx
	movq	%rcx, -24(%rbp)
	movq	-32(%rbp), %rax
	movq	-24(%rbp), %rdx
	addq	$56, %rsp
	popq	%rbp
	retq
	.cfi_endproc

	.globl	__ZN4core3fmt10ArgumentV13new17h796c56781b36f718E
	.p2align	4, 0x90
__ZN4core3fmt10ArgumentV13new17h796c56781b36f718E:
	.cfi_startproc
	pushq	%rbp
	.cfi_def_cfa_offset 16
	.cfi_offset %rbp, -16
	movq	%rsp, %rbp
	.cfi_def_cfa_register %rbp
	subq	$56, %rsp
	movq	%rsi, -16(%rbp)
	movq	-16(%rbp), %rax
	movq	%rdi, -40(%rbp)
	movq	%rax, -48(%rbp)
	movq	-40(%rbp), %rax
	movq	%rax, -8(%rbp)
	movq	-8(%rbp), %rcx
	movq	%rcx, -56(%rbp)
	movq	-56(%rbp), %rax
	movq	%rax, -32(%rbp)
	movq	-48(%rbp), %rcx
	movq	%rcx, -24(%rbp)
	movq	-32(%rbp), %rax
	movq	-24(%rbp), %rdx
	addq	$56, %rsp
	popq	%rbp
	retq
	.cfi_endproc

	.globl	__ZN4core3fmt10ArgumentV13new17h7dd20912fb46835dE
	.p2align	4, 0x90
__ZN4core3fmt10ArgumentV13new17h7dd20912fb46835dE:
	.cfi_startproc
	pushq	%rbp
	.cfi_def_cfa_offset 16
	.cfi_offset %rbp, -16
	movq	%rsp, %rbp
	.cfi_def_cfa_register %rbp
	subq	$56, %rsp
	movq	%rsi, -16(%rbp)
	movq	-16(%rbp), %rax
	movq	%rdi, -40(%rbp)
	movq	%rax, -48(%rbp)
	movq	-40(%rbp), %rax
	movq	%rax, -8(%rbp)
	movq	-8(%rbp), %rcx
	movq	%rcx, -56(%rbp)
	movq	-56(%rbp), %rax
	movq	%rax, -32(%rbp)
	movq	-48(%rbp), %rcx
	movq	%rcx, -24(%rbp)
	movq	-32(%rbp), %rax
	movq	-24(%rbp), %rdx
	addq	$56, %rsp
	popq	%rbp
	retq
	.cfi_endproc

	.globl	__ZN4core3fmt10ArgumentV13new17h9097524c10ff154aE
	.p2align	4, 0x90
__ZN4core3fmt10ArgumentV13new17h9097524c10ff154aE:
	.cfi_startproc
	pushq	%rbp
	.cfi_def_cfa_offset 16
	.cfi_offset %rbp, -16
	movq	%rsp, %rbp
	.cfi_def_cfa_register %rbp
	subq	$56, %rsp
	movq	%rsi, -16(%rbp)
	movq	-16(%rbp), %rax
	movq	%rdi, -40(%rbp)
	movq	%rax, -48(%rbp)
	movq	-40(%rbp), %rax
	movq	%rax, -8(%rbp)
	movq	-8(%rbp), %rcx
	movq	%rcx, -56(%rbp)
	movq	-56(%rbp), %rax
	movq	%rax, -32(%rbp)
	movq	-48(%rbp), %rcx
	movq	%rcx, -24(%rbp)
	movq	-32(%rbp), %rax
	movq	-24(%rbp), %rdx
	addq	$56, %rsp
	popq	%rbp
	retq
	.cfi_endproc

	.globl	__ZN4core3fmt10ArgumentV13new17h92759bc5490b2e92E
	.p2align	4, 0x90
__ZN4core3fmt10ArgumentV13new17h92759bc5490b2e92E:
	.cfi_startproc
	pushq	%rbp
	.cfi_def_cfa_offset 16
	.cfi_offset %rbp, -16
	movq	%rsp, %rbp
	.cfi_def_cfa_register %rbp
	subq	$56, %rsp
	movq	%rsi, -16(%rbp)
	movq	-16(%rbp), %rax
	movq	%rdi, -40(%rbp)
	movq	%rax, -48(%rbp)
	movq	-40(%rbp), %rax
	movq	%rax, -8(%rbp)
	movq	-8(%rbp), %rcx
	movq	%rcx, -56(%rbp)
	movq	-56(%rbp), %rax
	movq	%rax, -32(%rbp)
	movq	-48(%rbp), %rcx
	movq	%rcx, -24(%rbp)
	movq	-32(%rbp), %rax
	movq	-24(%rbp), %rdx
	addq	$56, %rsp
	popq	%rbp
	retq
	.cfi_endproc

	.globl	__ZN4core3fmt10ArgumentV13new17h951ab2989cbc871eE
	.p2align	4, 0x90
__ZN4core3fmt10ArgumentV13new17h951ab2989cbc871eE:
	.cfi_startproc
	pushq	%rbp
	.cfi_def_cfa_offset 16
	.cfi_offset %rbp, -16
	movq	%rsp, %rbp
	.cfi_def_cfa_register %rbp
	subq	$56, %rsp
	movq	%rsi, -16(%rbp)
	movq	-16(%rbp), %rax
	movq	%rdi, -40(%rbp)
	movq	%rax, -48(%rbp)
	movq	-40(%rbp), %rax
	movq	%rax, -8(%rbp)
	movq	-8(%rbp), %rcx
	movq	%rcx, -56(%rbp)
	movq	-56(%rbp), %rax
	movq	%rax, -32(%rbp)
	movq	-48(%rbp), %rcx
	movq	%rcx, -24(%rbp)
	movq	-32(%rbp), %rax
	movq	-24(%rbp), %rdx
	addq	$56, %rsp
	popq	%rbp
	retq
	.cfi_endproc

	.globl	__ZN4core3fmt10ArgumentV13new17h97508de6a817de22E
	.p2align	4, 0x90
__ZN4core3fmt10ArgumentV13new17h97508de6a817de22E:
	.cfi_startproc
	pushq	%rbp
	.cfi_def_cfa_offset 16
	.cfi_offset %rbp, -16
	movq	%rsp, %rbp
	.cfi_def_cfa_register %rbp
	subq	$56, %rsp
	movq	%rsi, -16(%rbp)
	movq	-16(%rbp), %rax
	movq	%rdi, -40(%rbp)
	movq	%rax, -48(%rbp)
	movq	-40(%rbp), %rax
	movq	%rax, -8(%rbp)
	movq	-8(%rbp), %rcx
	movq	%rcx, -56(%rbp)
	movq	-56(%rbp), %rax
	movq	%rax, -32(%rbp)
	movq	-48(%rbp), %rcx
	movq	%rcx, -24(%rbp)
	movq	-32(%rbp), %rax
	movq	-24(%rbp), %rdx
	addq	$56, %rsp
	popq	%rbp
	retq
	.cfi_endproc

	.globl	__ZN4core3fmt10ArgumentV13new17ha7c4d1ac04ac6b05E
	.p2align	4, 0x90
__ZN4core3fmt10ArgumentV13new17ha7c4d1ac04ac6b05E:
	.cfi_startproc
	pushq	%rbp
	.cfi_def_cfa_offset 16
	.cfi_offset %rbp, -16
	movq	%rsp, %rbp
	.cfi_def_cfa_register %rbp
	subq	$56, %rsp
	movq	%rsi, -16(%rbp)
	movq	-16(%rbp), %rax
	movq	%rdi, -40(%rbp)
	movq	%rax, -48(%rbp)
	movq	-40(%rbp), %rax
	movq	%rax, -8(%rbp)
	movq	-8(%rbp), %rcx
	movq	%rcx, -56(%rbp)
	movq	-56(%rbp), %rax
	movq	%rax, -32(%rbp)
	movq	-48(%rbp), %rcx
	movq	%rcx, -24(%rbp)
	movq	-32(%rbp), %rax
	movq	-24(%rbp), %rdx
	addq	$56, %rsp
	popq	%rbp
	retq
	.cfi_endproc

	.globl	__ZN4core3fmt10ArgumentV13new17haaaba986fe0146d6E
	.p2align	4, 0x90
__ZN4core3fmt10ArgumentV13new17haaaba986fe0146d6E:
	.cfi_startproc
	pushq	%rbp
	.cfi_def_cfa_offset 16
	.cfi_offset %rbp, -16
	movq	%rsp, %rbp
	.cfi_def_cfa_register %rbp
	subq	$56, %rsp
	movq	%rsi, -16(%rbp)
	movq	-16(%rbp), %rax
	movq	%rdi, -40(%rbp)
	movq	%rax, -48(%rbp)
	movq	-40(%rbp), %rax
	movq	%rax, -8(%rbp)
	movq	-8(%rbp), %rcx
	movq	%rcx, -56(%rbp)
	movq	-56(%rbp), %rax
	movq	%rax, -32(%rbp)
	movq	-48(%rbp), %rcx
	movq	%rcx, -24(%rbp)
	movq	-32(%rbp), %rax
	movq	-24(%rbp), %rdx
	addq	$56, %rsp
	popq	%rbp
	retq
	.cfi_endproc

	.globl	__ZN4core3fmt10ArgumentV13new17hb9dc45a4ce3ba271E
	.p2align	4, 0x90
__ZN4core3fmt10ArgumentV13new17hb9dc45a4ce3ba271E:
	.cfi_startproc
	pushq	%rbp
	.cfi_def_cfa_offset 16
	.cfi_offset %rbp, -16
	movq	%rsp, %rbp
	.cfi_def_cfa_register %rbp
	subq	$56, %rsp
	movq	%rsi, -16(%rbp)
	movq	-16(%rbp), %rax
	movq	%rdi, -40(%rbp)
	movq	%rax, -48(%rbp)
	movq	-40(%rbp), %rax
	movq	%rax, -8(%rbp)
	movq	-8(%rbp), %rcx
	movq	%rcx, -56(%rbp)
	movq	-56(%rbp), %rax
	movq	%rax, -32(%rbp)
	movq	-48(%rbp), %rcx
	movq	%rcx, -24(%rbp)
	movq	-32(%rbp), %rax
	movq	-24(%rbp), %rdx
	addq	$56, %rsp
	popq	%rbp
	retq
	.cfi_endproc

	.globl	__ZN4core3fmt10ArgumentV13new17hc052827e1c05447aE
	.p2align	4, 0x90
__ZN4core3fmt10ArgumentV13new17hc052827e1c05447aE:
	.cfi_startproc
	pushq	%rbp
	.cfi_def_cfa_offset 16
	.cfi_offset %rbp, -16
	movq	%rsp, %rbp
	.cfi_def_cfa_register %rbp
	subq	$56, %rsp
	movq	%rsi, -16(%rbp)
	movq	-16(%rbp), %rax
	movq	%rdi, -40(%rbp)
	movq	%rax, -48(%rbp)
	movq	-40(%rbp), %rax
	movq	%rax, -8(%rbp)
	movq	-8(%rbp), %rcx
	movq	%rcx, -56(%rbp)
	movq	-56(%rbp), %rax
	movq	%rax, -32(%rbp)
	movq	-48(%rbp), %rcx
	movq	%rcx, -24(%rbp)
	movq	-32(%rbp), %rax
	movq	-24(%rbp), %rdx
	addq	$56, %rsp
	popq	%rbp
	retq
	.cfi_endproc

	.globl	__ZN4core3fmt10ArgumentV13new17hc09a58de668e16a3E
	.p2align	4, 0x90
__ZN4core3fmt10ArgumentV13new17hc09a58de668e16a3E:
	.cfi_startproc
	pushq	%rbp
	.cfi_def_cfa_offset 16
	.cfi_offset %rbp, -16
	movq	%rsp, %rbp
	.cfi_def_cfa_register %rbp
	subq	$56, %rsp
	movq	%rsi, -16(%rbp)
	movq	-16(%rbp), %rax
	movq	%rdi, -40(%rbp)
	movq	%rax, -48(%rbp)
	movq	-40(%rbp), %rax
	movq	%rax, -8(%rbp)
	movq	-8(%rbp), %rcx
	movq	%rcx, -56(%rbp)
	movq	-56(%rbp), %rax
	movq	%rax, -32(%rbp)
	movq	-48(%rbp), %rcx
	movq	%rcx, -24(%rbp)
	movq	-32(%rbp), %rax
	movq	-24(%rbp), %rdx
	addq	$56, %rsp
	popq	%rbp
	retq
	.cfi_endproc

	.globl	__ZN4core3fmt10ArgumentV13new17hcc4f16700dc8d6d5E
	.p2align	4, 0x90
__ZN4core3fmt10ArgumentV13new17hcc4f16700dc8d6d5E:
	.cfi_startproc
	pushq	%rbp
	.cfi_def_cfa_offset 16
	.cfi_offset %rbp, -16
	movq	%rsp, %rbp
	.cfi_def_cfa_register %rbp
	subq	$56, %rsp
	movq	%rsi, -16(%rbp)
	movq	-16(%rbp), %rax
	movq	%rdi, -40(%rbp)
	movq	%rax, -48(%rbp)
	movq	-40(%rbp), %rax
	movq	%rax, -8(%rbp)
	movq	-8(%rbp), %rcx
	movq	%rcx, -56(%rbp)
	movq	-56(%rbp), %rax
	movq	%rax, -32(%rbp)
	movq	-48(%rbp), %rcx
	movq	%rcx, -24(%rbp)
	movq	-32(%rbp), %rax
	movq	-24(%rbp), %rdx
	addq	$56, %rsp
	popq	%rbp
	retq
	.cfi_endproc

	.globl	__ZN4core3fmt10ArgumentV13new17hcc7d64771f3bc43cE
	.p2align	4, 0x90
__ZN4core3fmt10ArgumentV13new17hcc7d64771f3bc43cE:
	.cfi_startproc
	pushq	%rbp
	.cfi_def_cfa_offset 16
	.cfi_offset %rbp, -16
	movq	%rsp, %rbp
	.cfi_def_cfa_register %rbp
	subq	$56, %rsp
	movq	%rsi, -16(%rbp)
	movq	-16(%rbp), %rax
	movq	%rdi, -40(%rbp)
	movq	%rax, -48(%rbp)
	movq	-40(%rbp), %rax
	movq	%rax, -8(%rbp)
	movq	-8(%rbp), %rcx
	movq	%rcx, -56(%rbp)
	movq	-56(%rbp), %rax
	movq	%rax, -32(%rbp)
	movq	-48(%rbp), %rcx
	movq	%rcx, -24(%rbp)
	movq	-32(%rbp), %rax
	movq	-24(%rbp), %rdx
	addq	$56, %rsp
	popq	%rbp
	retq
	.cfi_endproc

	.globl	__ZN4core3fmt10ArgumentV13new17hd212698492e3b2cdE
	.p2align	4, 0x90
__ZN4core3fmt10ArgumentV13new17hd212698492e3b2cdE:
	.cfi_startproc
	pushq	%rbp
	.cfi_def_cfa_offset 16
	.cfi_offset %rbp, -16
	movq	%rsp, %rbp
	.cfi_def_cfa_register %rbp
	subq	$56, %rsp
	movq	%rsi, -16(%rbp)
	movq	-16(%rbp), %rax
	movq	%rdi, -40(%rbp)
	movq	%rax, -48(%rbp)
	movq	-40(%rbp), %rax
	movq	%rax, -8(%rbp)
	movq	-8(%rbp), %rcx
	movq	%rcx, -56(%rbp)
	movq	-56(%rbp), %rax
	movq	%rax, -32(%rbp)
	movq	-48(%rbp), %rcx
	movq	%rcx, -24(%rbp)
	movq	-32(%rbp), %rax
	movq	-24(%rbp), %rdx
	addq	$56, %rsp
	popq	%rbp
	retq
	.cfi_endproc

	.globl	__ZN4core3fmt10ArgumentV13new17hfb9694939fa208feE
	.p2align	4, 0x90
__ZN4core3fmt10ArgumentV13new17hfb9694939fa208feE:
	.cfi_startproc
	pushq	%rbp
	.cfi_def_cfa_offset 16
	.cfi_offset %rbp, -16
	movq	%rsp, %rbp
	.cfi_def_cfa_register %rbp
	subq	$56, %rsp
	movq	%rsi, -16(%rbp)
	movq	-16(%rbp), %rax
	movq	%rdi, -40(%rbp)
	movq	%rax, -48(%rbp)
	movq	-40(%rbp), %rax
	movq	%rax, -8(%rbp)
	movq	-8(%rbp), %rcx
	movq	%rcx, -56(%rbp)
	movq	-56(%rbp), %rax
	movq	%rax, -32(%rbp)
	movq	-48(%rbp), %rcx
	movq	%rcx, -24(%rbp)
	movq	-32(%rbp), %rax
	movq	-24(%rbp), %rdx
	addq	$56, %rsp
	popq	%rbp
	retq
	.cfi_endproc

	.globl	__ZN4core3fmt10ArgumentV13new17hfcdf2333fac7d3b1E
	.p2align	4, 0x90
__ZN4core3fmt10ArgumentV13new17hfcdf2333fac7d3b1E:
	.cfi_startproc
	pushq	%rbp
	.cfi_def_cfa_offset 16
	.cfi_offset %rbp, -16
	movq	%rsp, %rbp
	.cfi_def_cfa_register %rbp
	subq	$56, %rsp
	movq	%rsi, -16(%rbp)
	movq	-16(%rbp), %rax
	movq	%rdi, -40(%rbp)
	movq	%rax, -48(%rbp)
	movq	-40(%rbp), %rax
	movq	%rax, -8(%rbp)
	movq	-8(%rbp), %rcx
	movq	%rcx, -56(%rbp)
	movq	-56(%rbp), %rax
	movq	%rax, -32(%rbp)
	movq	-48(%rbp), %rcx
	movq	%rcx, -24(%rbp)
	movq	-32(%rbp), %rax
	movq	-24(%rbp), %rdx
	addq	$56, %rsp
	popq	%rbp
	retq
	.cfi_endproc

	.globl	__ZN4core3fmt10ArgumentV13new17hff406631249a1b60E
	.p2align	4, 0x90
__ZN4core3fmt10ArgumentV13new17hff406631249a1b60E:
	.cfi_startproc
	pushq	%rbp
	.cfi_def_cfa_offset 16
	.cfi_offset %rbp, -16
	movq	%rsp, %rbp
	.cfi_def_cfa_register %rbp
	subq	$56, %rsp
	movq	%rsi, -16(%rbp)
	movq	-16(%rbp), %rax
	movq	%rdi, -40(%rbp)
	movq	%rax, -48(%rbp)
	movq	-40(%rbp), %rax
	movq	%rax, -8(%rbp)
	movq	-8(%rbp), %rcx
	movq	%rcx, -56(%rbp)
	movq	-56(%rbp), %rax
	movq	%rax, -32(%rbp)
	movq	-48(%rbp), %rcx
	movq	%rcx, -24(%rbp)
	movq	-32(%rbp), %rax
	movq	-24(%rbp), %rdx
	addq	$56, %rsp
	popq	%rbp
	retq
	.cfi_endproc

	.p2align	4, 0x90
__ZN4core3fmt3num52_$LT$impl$u20$core..fmt..Debug$u20$for$u20$usize$GT$3fmt17h1d86c0887cb081f3E:
	.cfi_startproc
	pushq	%rbp
	.cfi_def_cfa_offset 16
	.cfi_offset %rbp, -16
	movq	%rsp, %rbp
	.cfi_def_cfa_register %rbp
	subq	$32, %rsp
	movq	%rdi, -16(%rbp)
	movq	%rsi, %rdi
	movq	%rsi, -24(%rbp)
	callq	__ZN4core3fmt9Formatter15debug_lower_hex17hd07f6fde8d0365dfE
	movb	%al, -25(%rbp)
	movb	-25(%rbp), %al
	testb	$1, %al
	jne	LBB154_3
	jmp	LBB154_2
LBB154_2:
	movq	-24(%rbp), %rdi
	callq	__ZN4core3fmt9Formatter15debug_upper_hex17hf480c256a9c81c1eE
	movb	%al, -26(%rbp)
	jmp	LBB154_5
LBB154_3:
	movq	-16(%rbp), %rdi
	movq	-24(%rbp), %rsi
	callq	__ZN4core3fmt3num55_$LT$impl$u20$core..fmt..LowerHex$u20$for$u20$usize$GT$3fmt17hc47c170655f2f8b1E
	andb	$1, %al
	movb	%al, -1(%rbp)
	jmp	LBB154_11
LBB154_5:
	movb	-26(%rbp), %al
	testb	$1, %al
	jne	LBB154_7
	jmp	LBB154_6
LBB154_6:
	movq	-16(%rbp), %rdi
	movq	-24(%rbp), %rsi
	callq	__ZN4core3fmt3num3imp54_$LT$impl$u20$core..fmt..Display$u20$for$u20$usize$GT$3fmt17h12ea2856299c9b06E
	andb	$1, %al
	movb	%al, -1(%rbp)
	jmp	LBB154_9
LBB154_7:
	movq	-16(%rbp), %rdi
	movq	-24(%rbp), %rsi
	callq	__ZN4core3fmt3num55_$LT$impl$u20$core..fmt..UpperHex$u20$for$u20$usize$GT$3fmt17he5a77a1ce12f6c22E
	andb	$1, %al
	movb	%al, -1(%rbp)
	jmp	LBB154_10
LBB154_9:
	jmp	LBB154_10
LBB154_10:
	jmp	LBB154_11
LBB154_11:
	movb	-1(%rbp), %al
	andb	$1, %al
	movzbl	%al, %eax
	addq	$32, %rsp
	popq	%rbp
	retq
	.cfi_endproc

	.globl	__ZN4core3fmt5Write9write_fmt17hd6ca5f44da661dc9E
	.p2align	4, 0x90
__ZN4core3fmt5Write9write_fmt17hd6ca5f44da661dc9E:
	.cfi_startproc
	pushq	%rbp
	.cfi_def_cfa_offset 16
	.cfi_offset %rbp, -16
	movq	%rsp, %rbp
	.cfi_def_cfa_register %rbp
	subq	$96, %rsp
	leaq	l___unnamed_7(%rip), %rax
	movq	%rdi, -56(%rbp)
	leaq	-56(%rbp), %rcx
	leaq	-48(%rbp), %rdx
	movq	%rdx, %rdi
	movl	$48, %r8d
	movq	%rdx, -64(%rbp)
	movq	%r8, %rdx
	movq	%rax, -72(%rbp)
	movq	%rcx, -80(%rbp)
	callq	_memcpy
	movq	-80(%rbp), %rdi
	movq	-72(%rbp), %rsi
	movq	-64(%rbp), %rdx
	callq	__ZN4core3fmt5write17h0f2c225c157771c1E
	movb	%al, -81(%rbp)
	movb	-81(%rbp), %al
	andb	$1, %al
	movzbl	%al, %eax
	addq	$96, %rsp
	popq	%rbp
	retq
	.cfi_endproc

	.globl	__ZN4core3fmt8builders9DebugList7entries17h0b65118da98f0853E
	.p2align	4, 0x90
__ZN4core3fmt8builders9DebugList7entries17h0b65118da98f0853E:
Lfunc_begin24:
	.cfi_startproc
	.cfi_personality 155, _rust_eh_personality
	.cfi_lsda 16, Lexception24
	pushq	%rbp
	.cfi_def_cfa_offset 16
	.cfi_offset %rbp, -16
	movq	%rsp, %rbp
	.cfi_def_cfa_register %rbp
	subq	$368, %rsp
	movb	$0, -17(%rbp)
	movq	(%rsi), %rax
	movq	%rax, -320(%rbp)
	movq	8(%rsi), %rax
	movq	%rax, -312(%rbp)
	movq	16(%rsi), %rax
	movq	%rax, -304(%rbp)
	leaq	-352(%rbp), %rax
	movq	%rdi, -360(%rbp)
	movq	%rax, %rdi
	leaq	-320(%rbp), %rsi
	callq	__ZN96_$LT$proc_macro2..fallback..TokenStream$u20$as$u20$core..iter..traits..collect..IntoIterator$GT$9into_iter17hc5486ab2deee4cd0E
	jmp	LBB156_2
LBB156_1:
	movq	-16(%rbp), %rdi
	callq	__Unwind_Resume
	ud2
LBB156_2:
	movq	-352(%rbp), %rax
	movq	%rax, -296(%rbp)
	movq	-344(%rbp), %rax
	movq	%rax, -288(%rbp)
	movq	-336(%rbp), %rax
	movq	%rax, -280(%rbp)
	movq	-328(%rbp), %rax
	movq	%rax, -272(%rbp)
LBB156_3:
Ltmp233:
	leaq	-216(%rbp), %rdi
	leaq	-296(%rbp), %rsi
	callq	__ZN88_$LT$alloc..vec..IntoIter$LT$T$GT$$u20$as$u20$core..iter..traits..iterator..Iterator$GT$4next17h4a61fd099de1e193E
Ltmp234:
	jmp	LBB156_5
LBB156_4:
	leaq	-296(%rbp), %rdi
	callq	__ZN4core3ptr13drop_in_place17hb8e47ec6cb220ea0E
	jmp	LBB156_1
LBB156_5:
	movl	-216(%rbp), %eax
	addl	$-4, %eax
	setne	%cl
	movzbl	%cl, %edx
	movl	%edx, %esi
	je	LBB156_6
	jmp	LBB156_17
LBB156_17:
	jmp	LBB156_8
LBB156_6:
	movb	$0, -17(%rbp)
	leaq	-296(%rbp), %rdi
	callq	__ZN4core3ptr13drop_in_place17hb8e47ec6cb220ea0E
	jmp	LBB156_12
	ud2
LBB156_8:
	movq	-176(%rbp), %rax
	movq	%rax, -128(%rbp)
	movq	-184(%rbp), %rax
	movq	%rax, -136(%rbp)
	movq	-192(%rbp), %rax
	movq	%rax, -144(%rbp)
	movq	-200(%rbp), %rax
	movq	%rax, -152(%rbp)
	movq	-216(%rbp), %rax
	movq	-208(%rbp), %rcx
	movq	%rcx, -160(%rbp)
	movq	%rax, -168(%rbp)
	movq	-128(%rbp), %rax
	movq	%rax, -80(%rbp)
	movq	-136(%rbp), %rax
	movq	%rax, -88(%rbp)
	movq	-144(%rbp), %rax
	movq	%rax, -96(%rbp)
	movq	-152(%rbp), %rax
	movq	%rax, -104(%rbp)
	movq	-168(%rbp), %rax
	movq	-160(%rbp), %rcx
	movq	%rcx, -112(%rbp)
	movq	%rax, -120(%rbp)
	movb	$1, -17(%rbp)
	movq	-80(%rbp), %rax
	movq	%rax, -224(%rbp)
	movq	-88(%rbp), %rax
	movq	%rax, -232(%rbp)
	movq	-96(%rbp), %rax
	movq	%rax, -240(%rbp)
	movq	-104(%rbp), %rax
	movq	%rax, -248(%rbp)
	movq	-120(%rbp), %rax
	movq	-112(%rbp), %rcx
	movq	%rcx, -256(%rbp)
	movq	%rax, -264(%rbp)
	movb	$0, -17(%rbp)
	movq	-224(%rbp), %rax
	movq	%rax, -32(%rbp)
	movq	-232(%rbp), %rax
	movq	%rax, -40(%rbp)
	movq	-240(%rbp), %rax
	movq	%rax, -48(%rbp)
	movq	-248(%rbp), %rax
	movq	%rax, -56(%rbp)
	movq	-264(%rbp), %rax
	movq	-256(%rbp), %rcx
	movq	%rcx, -64(%rbp)
	movq	%rax, -72(%rbp)
Ltmp235:
	leaq	l___unnamed_8(%rip), %rdx
	leaq	-72(%rbp), %rsi
	movq	-360(%rbp), %rdi
	callq	__ZN4core3fmt8builders9DebugList5entry17h2dea26f6c644471aE
Ltmp236:
	jmp	LBB156_9
LBB156_9:
Ltmp238:
	leaq	-72(%rbp), %rdi
	callq	__ZN4core3ptr13drop_in_place17hf1782ff03d96ed31E
Ltmp239:
	jmp	LBB156_11
LBB156_10:
	leaq	-72(%rbp), %rdi
	callq	__ZN4core3ptr13drop_in_place17hf1782ff03d96ed31E
	jmp	LBB156_14
LBB156_11:
	movb	$0, -17(%rbp)
	jmp	LBB156_3
LBB156_12:
	movq	-360(%rbp), %rax
	addq	$368, %rsp
	popq	%rbp
	retq
LBB156_13:
	movb	$0, -17(%rbp)
	leaq	-264(%rbp), %rdi
	callq	__ZN4core3ptr13drop_in_place17hf1782ff03d96ed31E
	jmp	LBB156_4
LBB156_14:
	testb	$1, -17(%rbp)
	jne	LBB156_13
	jmp	LBB156_4
LBB156_15:
Ltmp240:
	movq	%rax, -16(%rbp)
	movl	%edx, -8(%rbp)
	jmp	LBB156_14
LBB156_16:
Ltmp237:
	movq	%rax, -16(%rbp)
	movl	%edx, -8(%rbp)
	jmp	LBB156_10
Lfunc_end24:
	.cfi_endproc
	.section	__TEXT,__gcc_except_tab
	.p2align	2
GCC_except_table156:
Lexception24:
	.byte	255
	.byte	255
	.byte	1
	.uleb128 Lcst_end24-Lcst_begin24
Lcst_begin24:
	.uleb128 Lfunc_begin24-Lfunc_begin24
	.uleb128 Ltmp233-Lfunc_begin24
	.byte	0
	.byte	0
	.uleb128 Ltmp233-Lfunc_begin24
	.uleb128 Ltmp234-Ltmp233
	.uleb128 Ltmp240-Lfunc_begin24
	.byte	0
	.uleb128 Ltmp234-Lfunc_begin24
	.uleb128 Ltmp235-Ltmp234
	.byte	0
	.byte	0
	.uleb128 Ltmp235-Lfunc_begin24
	.uleb128 Ltmp236-Ltmp235
	.uleb128 Ltmp237-Lfunc_begin24
	.byte	0
	.uleb128 Ltmp238-Lfunc_begin24
	.uleb128 Ltmp239-Ltmp238
	.uleb128 Ltmp240-Lfunc_begin24
	.byte	0
	.uleb128 Ltmp239-Lfunc_begin24
	.uleb128 Lfunc_end24-Ltmp239
	.byte	0
	.byte	0
Lcst_end24:
	.p2align	2

	.section	__TEXT,__text,regular,pure_instructions
	.p2align	4, 0x90
__ZN4core3fmt9Arguments16new_v1_formatted17hc9ab8c845c83da37E:
	.cfi_startproc
	pushq	%rbp
	.cfi_def_cfa_offset 16
	.cfi_offset %rbp, -16
	movq	%rsp, %rbp
	.cfi_def_cfa_register %rbp
	subq	$16, %rsp
	movq	%rdi, %rax
	movq	16(%rbp), %r10
	movq	%r9, -16(%rbp)
	movq	%r10, -8(%rbp)
	movq	%rsi, (%rdi)
	movq	%rdx, 8(%rdi)
	movq	-16(%rbp), %rdx
	movq	-8(%rbp), %rsi
	movq	%rdx, 16(%rdi)
	movq	%rsi, 24(%rdi)
	movq	%rcx, 32(%rdi)
	movq	%r8, 40(%rdi)
	addq	$16, %rsp
	popq	%rbp
	retq
	.cfi_endproc

	.p2align	4, 0x90
__ZN4core3fmt9Arguments6new_v117h34942c0b01f71f88E:
	.cfi_startproc
	pushq	%rbp
	.cfi_def_cfa_offset 16
	.cfi_offset %rbp, -16
	movq	%rsp, %rbp
	.cfi_def_cfa_register %rbp
	subq	$16, %rsp
	movq	%rdi, %rax
	movq	$0, -16(%rbp)
	movq	%rsi, (%rdi)
	movq	%rdx, 8(%rdi)
	movq	-16(%rbp), %rdx
	movq	-8(%rbp), %rsi
	movq	%rdx, 16(%rdi)
	movq	%rsi, 24(%rdi)
	movq	%rcx, 32(%rdi)
	movq	%r8, 40(%rdi)
	addq	$16, %rsp
	popq	%rbp
	retq
	.cfi_endproc

	.globl	__ZN4core3mem11size_of_val17h2256d78187b6f76fE
	.p2align	4, 0x90
__ZN4core3mem11size_of_val17h2256d78187b6f76fE:
	.cfi_startproc
	pushq	%rbp
	.cfi_def_cfa_offset 16
	.cfi_offset %rbp, -16
	movq	%rsp, %rbp
	.cfi_def_cfa_register %rbp
	subq	$16, %rsp
	shlq	$0, %rsi
	movq	%rsi, -8(%rbp)
	movq	-8(%rbp), %rax
	movq	%rax, -16(%rbp)
	movq	-16(%rbp), %rax
	addq	$16, %rsp
	popq	%rbp
	retq
	.cfi_endproc

	.globl	__ZN4core3mem12maybe_uninit20MaybeUninit$LT$T$GT$6zeroed17h893e75dcf854f6f5E
	.p2align	4, 0x90
__ZN4core3mem12maybe_uninit20MaybeUninit$LT$T$GT$6zeroed17h893e75dcf854f6f5E:
	.cfi_startproc
	pushq	%rbp
	.cfi_def_cfa_offset 16
	.cfi_offset %rbp, -16
	movq	%rsp, %rbp
	.cfi_def_cfa_register %rbp
	subq	$32, %rsp
	movq	%rdi, %rax
	movq	%rdi, -8(%rbp)
	movq	%rax, -16(%rbp)
	movq	-8(%rbp), %rax
	movq	%rax, -24(%rbp)
	xorl	%esi, %esi
	movq	-24(%rbp), %rdi
	movl	$1, %edx
	callq	__ZN4core3ptr7mut_ptr31_$LT$impl$u20$$BP$mut$u20$T$GT$11write_bytes17h5ec83ce2eb630c33E
	movq	-16(%rbp), %rax
	addq	$32, %rsp
	popq	%rbp
	retq
	.cfi_endproc

	.globl	__ZN4core3mem13manually_drop21ManuallyDrop$LT$T$GT$4take17h5bdf4524f00316a9E
	.p2align	4, 0x90
__ZN4core3mem13manually_drop21ManuallyDrop$LT$T$GT$4take17h5bdf4524f00316a9E:
	.cfi_startproc
	pushq	%rbp
	.cfi_def_cfa_offset 16
	.cfi_offset %rbp, -16
	movq	%rsp, %rbp
	.cfi_def_cfa_register %rbp
	callq	__ZN4core3ptr4read17hea7f8be5b6fddac7E
	popq	%rbp
	retq
	.cfi_endproc

	.globl	__ZN4core3mem13manually_drop21ManuallyDrop$LT$T$GT$4take17h6e4f6019d0db4bebE
	.p2align	4, 0x90
__ZN4core3mem13manually_drop21ManuallyDrop$LT$T$GT$4take17h6e4f6019d0db4bebE:
	.cfi_startproc
	pushq	%rbp
	.cfi_def_cfa_offset 16
	.cfi_offset %rbp, -16
	movq	%rsp, %rbp
	.cfi_def_cfa_register %rbp
	subq	$16, %rsp
	callq	__ZN4core3ptr4read17h5bba67f47852e320E
	movq	%rax, -8(%rbp)
	movq	-8(%rbp), %rax
	addq	$16, %rsp
	popq	%rbp
	retq
	.cfi_endproc

	.globl	__ZN4core3mem4drop17hb720cd2d07db87b9E
	.p2align	4, 0x90
__ZN4core3mem4drop17hb720cd2d07db87b9E:
	.cfi_startproc
	pushq	%rbp
	.cfi_def_cfa_offset 16
	.cfi_offset %rbp, -16
	movq	%rsp, %rbp
	.cfi_def_cfa_register %rbp
	subq	$16, %rsp
	movq	%rdi, -8(%rbp)
	movq	-8(%rbp), %rax
	movq	%rax, -16(%rbp)
	leaq	-16(%rbp), %rdi
	callq	__ZN4core3ptr13drop_in_place17hafdace3cf3cd2656E
	addq	$16, %rsp
	popq	%rbp
	retq
	.cfi_endproc

	.globl	__ZN4core3mem4swap17h34b0aa06eb0bec9fE
	.p2align	4, 0x90
__ZN4core3mem4swap17h34b0aa06eb0bec9fE:
	.cfi_startproc
	pushq	%rbp
	.cfi_def_cfa_offset 16
	.cfi_offset %rbp, -16
	movq	%rsp, %rbp
	.cfi_def_cfa_register %rbp
	callq	__ZN4core3ptr23swap_nonoverlapping_one17h86ec052b91eacd20E
	popq	%rbp
	retq
	.cfi_endproc

	.globl	__ZN4core3mem4swap17h3ce8f66795f16a2bE
	.p2align	4, 0x90
__ZN4core3mem4swap17h3ce8f66795f16a2bE:
	.cfi_startproc
	pushq	%rbp
	.cfi_def_cfa_offset 16
	.cfi_offset %rbp, -16
	movq	%rsp, %rbp
	.cfi_def_cfa_register %rbp
	callq	__ZN4core3ptr23swap_nonoverlapping_one17h55ac4ea84b4c539fE
	popq	%rbp
	retq
	.cfi_endproc

	.globl	__ZN4core3mem4swap17h99d9eeb4062bed1bE
	.p2align	4, 0x90
__ZN4core3mem4swap17h99d9eeb4062bed1bE:
	.cfi_startproc
	pushq	%rbp
	.cfi_def_cfa_offset 16
	.cfi_offset %rbp, -16
	movq	%rsp, %rbp
	.cfi_def_cfa_register %rbp
	callq	__ZN4core3ptr23swap_nonoverlapping_one17hc7ffd849a5420036E
	popq	%rbp
	retq
	.cfi_endproc

	.globl	__ZN4core3mem4swap17ha9843378607b5008E
	.p2align	4, 0x90
__ZN4core3mem4swap17ha9843378607b5008E:
	.cfi_startproc
	pushq	%rbp
	.cfi_def_cfa_offset 16
	.cfi_offset %rbp, -16
	movq	%rsp, %rbp
	.cfi_def_cfa_register %rbp
	callq	__ZN4core3ptr23swap_nonoverlapping_one17h3698c3a39ea91e1bE
	popq	%rbp
	retq
	.cfi_endproc

	.globl	__ZN4core3mem4swap17hb5f345756636a692E
	.p2align	4, 0x90
__ZN4core3mem4swap17hb5f345756636a692E:
	.cfi_startproc
	pushq	%rbp
	.cfi_def_cfa_offset 16
	.cfi_offset %rbp, -16
	movq	%rsp, %rbp
	.cfi_def_cfa_register %rbp
	callq	__ZN4core3ptr23swap_nonoverlapping_one17h5429a955bdeec3ebE
	popq	%rbp
	retq
	.cfi_endproc

	.globl	__ZN4core3mem4swap17hb8b40ea72786a296E
	.p2align	4, 0x90
__ZN4core3mem4swap17hb8b40ea72786a296E:
	.cfi_startproc
	pushq	%rbp
	.cfi_def_cfa_offset 16
	.cfi_offset %rbp, -16
	movq	%rsp, %rbp
	.cfi_def_cfa_register %rbp
	callq	__ZN4core3ptr23swap_nonoverlapping_one17h15350c03f4e084c7E
	popq	%rbp
	retq
	.cfi_endproc

	.globl	__ZN4core3mem4swap17hcf716e99c84ae7b5E
	.p2align	4, 0x90
__ZN4core3mem4swap17hcf716e99c84ae7b5E:
	.cfi_startproc
	pushq	%rbp
	.cfi_def_cfa_offset 16
	.cfi_offset %rbp, -16
	movq	%rsp, %rbp
	.cfi_def_cfa_register %rbp
	callq	__ZN4core3ptr23swap_nonoverlapping_one17hb5c9d85faf6c0693E
	popq	%rbp
	retq
	.cfi_endproc

	.globl	__ZN4core3mem4swap17he0dcb29012a2add5E
	.p2align	4, 0x90
__ZN4core3mem4swap17he0dcb29012a2add5E:
	.cfi_startproc
	pushq	%rbp
	.cfi_def_cfa_offset 16
	.cfi_offset %rbp, -16
	movq	%rsp, %rbp
	.cfi_def_cfa_register %rbp
	callq	__ZN4core3ptr23swap_nonoverlapping_one17ha1aaed1d265fa0f7E
	popq	%rbp
	retq
	.cfi_endproc

	.globl	__ZN4core3mem4take17h066cdb935cd57b97E
	.p2align	4, 0x90
__ZN4core3mem4take17h066cdb935cd57b97E:
	.cfi_startproc
	pushq	%rbp
	.cfi_def_cfa_offset 16
	.cfi_offset %rbp, -16
	movq	%rsp, %rbp
	.cfi_def_cfa_register %rbp
	subq	$16, %rsp
	movq	%rdi, -8(%rbp)
	callq	__ZN72_$LT$core..option..Option$LT$T$GT$$u20$as$u20$core..default..Default$GT$7default17h3d1465c47669ce27E
	movb	%al, -9(%rbp)
	movb	-9(%rbp), %al
	movzbl	%al, %ecx
	andl	$1, %ecx
	movq	-8(%rbp), %rdi
	movl	%ecx, %esi
	callq	__ZN4core3mem7replace17h753d7d461fdb9737E
	movb	%al, -10(%rbp)
	movb	-10(%rbp), %al
	andb	$1, %al
	movzbl	%al, %eax
	addq	$16, %rsp
	popq	%rbp
	retq
	.cfi_endproc

	.globl	__ZN4core3mem4take17h0be380f7cdc4ec16E
	.p2align	4, 0x90
__ZN4core3mem4take17h0be380f7cdc4ec16E:
	.cfi_startproc
	pushq	%rbp
	.cfi_def_cfa_offset 16
	.cfi_offset %rbp, -16
	movq	%rsp, %rbp
	.cfi_def_cfa_register %rbp
	subq	$32, %rsp
	movq	%rdi, -32(%rbp)
	callq	__ZN72_$LT$core..option..Option$LT$T$GT$$u20$as$u20$core..default..Default$GT$7default17h896d433484a4811eE
	movl	%eax, -8(%rbp)
	movl	-8(%rbp), %eax
	movl	%eax, -16(%rbp)
	movl	-16(%rbp), %esi
	movq	-32(%rbp), %rdi
	callq	__ZN4core3mem7replace17h5fb7b7318ab92c80E
	movl	%eax, -4(%rbp)
	movl	-4(%rbp), %eax
	movl	%eax, -24(%rbp)
	movl	-24(%rbp), %eax
	addq	$32, %rsp
	popq	%rbp
	retq
	.cfi_endproc

	.globl	__ZN4core3mem4take17h1218eb07073d1240E
	.p2align	4, 0x90
__ZN4core3mem4take17h1218eb07073d1240E:
	.cfi_startproc
	pushq	%rbp
	.cfi_def_cfa_offset 16
	.cfi_offset %rbp, -16
	movq	%rsp, %rbp
	.cfi_def_cfa_register %rbp
	subq	$48, %rsp
	movq	%rdi, -8(%rbp)
	callq	__ZN72_$LT$core..option..Option$LT$T$GT$$u20$as$u20$core..default..Default$GT$7default17h5841caab3be27626E
	movq	%rax, -16(%rbp)
	movq	%rdx, -24(%rbp)
	movq	-8(%rbp), %rdi
	movq	-16(%rbp), %rsi
	movq	-24(%rbp), %rdx
	callq	__ZN4core3mem7replace17h9c87b34401c12730E
	movq	%rax, -32(%rbp)
	movq	%rdx, -40(%rbp)
	movq	-32(%rbp), %rax
	movq	-40(%rbp), %rdx
	addq	$48, %rsp
	popq	%rbp
	retq
	.cfi_endproc

	.globl	__ZN4core3mem4take17h6a33e5e0552a5638E
	.p2align	4, 0x90
__ZN4core3mem4take17h6a33e5e0552a5638E:
	.cfi_startproc
	pushq	%rbp
	.cfi_def_cfa_offset 16
	.cfi_offset %rbp, -16
	movq	%rsp, %rbp
	.cfi_def_cfa_register %rbp
	subq	$48, %rsp
	movq	%rdi, -8(%rbp)
	callq	__ZN72_$LT$core..option..Option$LT$T$GT$$u20$as$u20$core..default..Default$GT$7default17h8fbfa151284c2d99E
	movq	%rax, -16(%rbp)
	movl	%edx, -20(%rbp)
	movq	-8(%rbp), %rdi
	movq	-16(%rbp), %rsi
	movl	-20(%rbp), %edx
	callq	__ZN4core3mem7replace17h1e83543634860a15E
	movq	%rax, -32(%rbp)
	movl	%edx, -36(%rbp)
	movq	-32(%rbp), %rax
	movl	-36(%rbp), %edx
	addq	$48, %rsp
	popq	%rbp
	retq
	.cfi_endproc

	.globl	__ZN4core3mem4take17he4b6ec71dc7f0207E
	.p2align	4, 0x90
__ZN4core3mem4take17he4b6ec71dc7f0207E:
	.cfi_startproc
	pushq	%rbp
	.cfi_def_cfa_offset 16
	.cfi_offset %rbp, -16
	movq	%rsp, %rbp
	.cfi_def_cfa_register %rbp
	subq	$16, %rsp
	movq	%rdi, -8(%rbp)
	callq	__ZN72_$LT$core..option..Option$LT$T$GT$$u20$as$u20$core..default..Default$GT$7default17h20e8b85e729e8641E
	movl	%eax, -12(%rbp)
	movq	-8(%rbp), %rdi
	movl	-12(%rbp), %esi
	callq	__ZN4core3mem7replace17hc02f7c7999e36f2fE
	movl	%eax, -16(%rbp)
	movl	-16(%rbp), %eax
	addq	$16, %rsp
	popq	%rbp
	retq
	.cfi_endproc

	.globl	__ZN4core3mem6forget17h4768c20cf9228498E
	.p2align	4, 0x90
__ZN4core3mem6forget17h4768c20cf9228498E:
	.cfi_startproc
	pushq	%rbp
	.cfi_def_cfa_offset 16
	.cfi_offset %rbp, -16
	movq	%rsp, %rbp
	.cfi_def_cfa_register %rbp
	pushq	%rax
	movq	%rdi, -8(%rbp)
	addq	$8, %rsp
	popq	%rbp
	retq
	.cfi_endproc

	.globl	__ZN4core3mem7replace17h1e83543634860a15E
	.p2align	4, 0x90
__ZN4core3mem7replace17h1e83543634860a15E:
Lfunc_begin25:
	.cfi_startproc
	.cfi_personality 155, _rust_eh_personality
	.cfi_lsda 16, Lexception25
	pushq	%rbp
	.cfi_def_cfa_offset 16
	.cfi_offset %rbp, -16
	movq	%rsp, %rbp
	.cfi_def_cfa_register %rbp
	subq	$32, %rsp
	movq	%rsi, -32(%rbp)
	movl	%edx, -24(%rbp)
Ltmp241:
	leaq	-32(%rbp), %rsi
	callq	__ZN4core3mem4swap17hb8b40ea72786a296E
Ltmp242:
	jmp	LBB178_2
LBB178_1:
	movq	-16(%rbp), %rdi
	callq	__Unwind_Resume
	ud2
LBB178_2:
	movq	-32(%rbp), %rax
	movl	-24(%rbp), %edx
	addq	$32, %rsp
	popq	%rbp
	retq
LBB178_3:
	jmp	LBB178_1
LBB178_4:
Ltmp243:
	movq	%rax, -16(%rbp)
	movl	%edx, -8(%rbp)
	jmp	LBB178_3
Lfunc_end25:
	.cfi_endproc
	.section	__TEXT,__gcc_except_tab
	.p2align	2
GCC_except_table178:
Lexception25:
	.byte	255
	.byte	255
	.byte	1
	.uleb128 Lcst_end25-Lcst_begin25
Lcst_begin25:
	.uleb128 Ltmp241-Lfunc_begin25
	.uleb128 Ltmp242-Ltmp241
	.uleb128 Ltmp243-Lfunc_begin25
	.byte	0
	.uleb128 Ltmp242-Lfunc_begin25
	.uleb128 Lfunc_end25-Ltmp242
	.byte	0
	.byte	0
Lcst_end25:
	.p2align	2

	.section	__TEXT,__text,regular,pure_instructions
	.globl	__ZN4core3mem7replace17h5fb7b7318ab92c80E
	.p2align	4, 0x90
__ZN4core3mem7replace17h5fb7b7318ab92c80E:
Lfunc_begin26:
	.cfi_startproc
	.cfi_personality 155, _rust_eh_personality
	.cfi_lsda 16, Lexception26
	pushq	%rbp
	.cfi_def_cfa_offset 16
	.cfi_offset %rbp, -16
	movq	%rsp, %rbp
	.cfi_def_cfa_register %rbp
	subq	$32, %rsp
	movl	%esi, -28(%rbp)
	movl	-28(%rbp), %eax
	movl	%eax, -32(%rbp)
Ltmp244:
	leaq	-32(%rbp), %rsi
	callq	__ZN4core3mem4swap17ha9843378607b5008E
Ltmp245:
	jmp	LBB179_2
LBB179_1:
	movq	-16(%rbp), %rdi
	callq	__Unwind_Resume
	ud2
LBB179_2:
	movl	-32(%rbp), %eax
	movl	%eax, -24(%rbp)
	movl	-24(%rbp), %eax
	addq	$32, %rsp
	popq	%rbp
	retq
LBB179_3:
	leaq	-32(%rbp), %rdi
	callq	__ZN4core3ptr13drop_in_place17h78bbfb8e516ac09bE
	jmp	LBB179_1
LBB179_4:
Ltmp246:
	movq	%rax, -16(%rbp)
	movl	%edx, -8(%rbp)
	jmp	LBB179_3
Lfunc_end26:
	.cfi_endproc
	.section	__TEXT,__gcc_except_tab
	.p2align	2
GCC_except_table179:
Lexception26:
	.byte	255
	.byte	255
	.byte	1
	.uleb128 Lcst_end26-Lcst_begin26
Lcst_begin26:
	.uleb128 Ltmp244-Lfunc_begin26
	.uleb128 Ltmp245-Ltmp244
	.uleb128 Ltmp246-Lfunc_begin26
	.byte	0
	.uleb128 Ltmp245-Lfunc_begin26
	.uleb128 Lfunc_end26-Ltmp245
	.byte	0
	.byte	0
Lcst_end26:
	.p2align	2

	.section	__TEXT,__text,regular,pure_instructions
	.globl	__ZN4core3mem7replace17h6aadd0a2b991ea06E
	.p2align	4, 0x90
__ZN4core3mem7replace17h6aadd0a2b991ea06E:
Lfunc_begin27:
	.cfi_startproc
	.cfi_personality 155, _rust_eh_personality
	.cfi_lsda 16, Lexception27
	pushq	%rbp
	.cfi_def_cfa_offset 16
	.cfi_offset %rbp, -16
	movq	%rsp, %rbp
	.cfi_def_cfa_register %rbp
	subq	$48, %rsp
	movq	%rdi, %rax
Ltmp247:
	movq	%rdi, -24(%rbp)
	movq	%rsi, %rdi
	movq	%rdx, %rsi
	movq	%rdx, -32(%rbp)
	movq	%rax, -40(%rbp)
	callq	__ZN4core3mem4swap17hcf716e99c84ae7b5E
Ltmp248:
	jmp	LBB180_2
LBB180_1:
	movq	-16(%rbp), %rdi
	callq	__Unwind_Resume
	ud2
LBB180_2:
	movq	-32(%rbp), %rax
	movq	(%rax), %rcx
	movq	-24(%rbp), %rdx
	movq	%rcx, (%rdx)
	movq	8(%rax), %rcx
	movq	%rcx, 8(%rdx)
	movq	16(%rax), %rcx
	movq	%rcx, 16(%rdx)
	movq	-40(%rbp), %rax
	addq	$48, %rsp
	popq	%rbp
	retq
LBB180_3:
	movq	-32(%rbp), %rdi
	callq	__ZN4core3ptr13drop_in_place17h3bb51baf77d3a3daE
	jmp	LBB180_1
LBB180_4:
Ltmp249:
	movq	%rax, -16(%rbp)
	movl	%edx, -8(%rbp)
	jmp	LBB180_3
Lfunc_end27:
	.cfi_endproc
	.section	__TEXT,__gcc_except_tab
	.p2align	2
GCC_except_table180:
Lexception27:
	.byte	255
	.byte	255
	.byte	1
	.uleb128 Lcst_end27-Lcst_begin27
Lcst_begin27:
	.uleb128 Ltmp247-Lfunc_begin27
	.uleb128 Ltmp248-Ltmp247
	.uleb128 Ltmp249-Lfunc_begin27
	.byte	0
	.uleb128 Ltmp248-Lfunc_begin27
	.uleb128 Lfunc_end27-Ltmp248
	.byte	0
	.byte	0
Lcst_end27:
	.p2align	2

	.section	__TEXT,__text,regular,pure_instructions
	.globl	__ZN4core3mem7replace17h753d7d461fdb9737E
	.p2align	4, 0x90
__ZN4core3mem7replace17h753d7d461fdb9737E:
Lfunc_begin28:
	.cfi_startproc
	.cfi_personality 155, _rust_eh_personality
	.cfi_lsda 16, Lexception28
	pushq	%rbp
	.cfi_def_cfa_offset 16
	.cfi_offset %rbp, -16
	movq	%rsp, %rbp
	.cfi_def_cfa_register %rbp
	subq	$32, %rsp
	andb	$1, %sil
	movb	%sil, -17(%rbp)
Ltmp250:
	leaq	-17(%rbp), %rsi
	callq	__ZN4core3mem4swap17h3ce8f66795f16a2bE
Ltmp251:
	jmp	LBB181_2
LBB181_1:
	movq	-16(%rbp), %rdi
	callq	__Unwind_Resume
	ud2
LBB181_2:
	movb	-17(%rbp), %al
	andb	$1, %al
	movzbl	%al, %eax
	addq	$32, %rsp
	popq	%rbp
	retq
LBB181_3:
	jmp	LBB181_1
LBB181_4:
Ltmp252:
	movq	%rax, -16(%rbp)
	movl	%edx, -8(%rbp)
	jmp	LBB181_3
Lfunc_end28:
	.cfi_endproc
	.section	__TEXT,__gcc_except_tab
	.p2align	2
GCC_except_table181:
Lexception28:
	.byte	255
	.byte	255
	.byte	1
	.uleb128 Lcst_end28-Lcst_begin28
Lcst_begin28:
	.uleb128 Ltmp250-Lfunc_begin28
	.uleb128 Ltmp251-Ltmp250
	.uleb128 Ltmp252-Lfunc_begin28
	.byte	0
	.uleb128 Ltmp251-Lfunc_begin28
	.uleb128 Lfunc_end28-Ltmp251
	.byte	0
	.byte	0
Lcst_end28:
	.p2align	2

	.section	__TEXT,__text,regular,pure_instructions
	.globl	__ZN4core3mem7replace17h8b6b8f218ebe58bdE
	.p2align	4, 0x90
__ZN4core3mem7replace17h8b6b8f218ebe58bdE:
Lfunc_begin29:
	.cfi_startproc
	.cfi_personality 155, _rust_eh_personality
	.cfi_lsda 16, Lexception29
	pushq	%rbp
	.cfi_def_cfa_offset 16
	.cfi_offset %rbp, -16
	movq	%rsp, %rbp
	.cfi_def_cfa_register %rbp
	subq	$32, %rsp
	movl	%esi, -28(%rbp)
	movl	-28(%rbp), %eax
	movl	%eax, -32(%rbp)
Ltmp253:
	leaq	-32(%rbp), %rsi
	callq	__ZN4core3mem4swap17he0dcb29012a2add5E
Ltmp254:
	jmp	LBB182_2
LBB182_1:
	movq	-16(%rbp), %rdi
	callq	__Unwind_Resume
	ud2
LBB182_2:
	movl	-32(%rbp), %eax
	movl	%eax, -24(%rbp)
	movl	-24(%rbp), %eax
	addq	$32, %rsp
	popq	%rbp
	retq
LBB182_3:
	leaq	-32(%rbp), %rdi
	callq	__ZN4core3ptr13drop_in_place17h88e71e72b0ea5240E
	jmp	LBB182_1
LBB182_4:
Ltmp255:
	movq	%rax, -16(%rbp)
	movl	%edx, -8(%rbp)
	jmp	LBB182_3
Lfunc_end29:
	.cfi_endproc
	.section	__TEXT,__gcc_except_tab
	.p2align	2
GCC_except_table182:
Lexception29:
	.byte	255
	.byte	255
	.byte	1
	.uleb128 Lcst_end29-Lcst_begin29
Lcst_begin29:
	.uleb128 Ltmp253-Lfunc_begin29
	.uleb128 Ltmp254-Ltmp253
	.uleb128 Ltmp255-Lfunc_begin29
	.byte	0
	.uleb128 Ltmp254-Lfunc_begin29
	.uleb128 Lfunc_end29-Ltmp254
	.byte	0
	.byte	0
Lcst_end29:
	.p2align	2

	.section	__TEXT,__text,regular,pure_instructions
	.globl	__ZN4core3mem7replace17h9c87b34401c12730E
	.p2align	4, 0x90
__ZN4core3mem7replace17h9c87b34401c12730E:
Lfunc_begin30:
	.cfi_startproc
	.cfi_personality 155, _rust_eh_personality
	.cfi_lsda 16, Lexception30
	pushq	%rbp
	.cfi_def_cfa_offset 16
	.cfi_offset %rbp, -16
	movq	%rsp, %rbp
	.cfi_def_cfa_register %rbp
	subq	$32, %rsp
	movq	%rsi, -32(%rbp)
	movq	%rdx, -24(%rbp)
Ltmp256:
	leaq	-32(%rbp), %rsi
	callq	__ZN4core3mem4swap17h99d9eeb4062bed1bE
Ltmp257:
	jmp	LBB183_2
LBB183_1:
	movq	-16(%rbp), %rdi
	callq	__Unwind_Resume
	ud2
LBB183_2:
	movq	-32(%rbp), %rax
	movq	-24(%rbp), %rdx
	addq	$32, %rsp
	popq	%rbp
	retq
LBB183_3:
	jmp	LBB183_1
LBB183_4:
Ltmp258:
	movq	%rax, -16(%rbp)
	movl	%edx, -8(%rbp)
	jmp	LBB183_3
Lfunc_end30:
	.cfi_endproc
	.section	__TEXT,__gcc_except_tab
	.p2align	2
GCC_except_table183:
Lexception30:
	.byte	255
	.byte	255
	.byte	1
	.uleb128 Lcst_end30-Lcst_begin30
Lcst_begin30:
	.uleb128 Ltmp256-Lfunc_begin30
	.uleb128 Ltmp257-Ltmp256
	.uleb128 Ltmp258-Lfunc_begin30
	.byte	0
	.uleb128 Ltmp257-Lfunc_begin30
	.uleb128 Lfunc_end30-Ltmp257
	.byte	0
	.byte	0
Lcst_end30:
	.p2align	2

	.section	__TEXT,__text,regular,pure_instructions
	.globl	__ZN4core3mem7replace17hc02f7c7999e36f2fE
	.p2align	4, 0x90
__ZN4core3mem7replace17hc02f7c7999e36f2fE:
Lfunc_begin31:
	.cfi_startproc
	.cfi_personality 155, _rust_eh_personality
	.cfi_lsda 16, Lexception31
	pushq	%rbp
	.cfi_def_cfa_offset 16
	.cfi_offset %rbp, -16
	movq	%rsp, %rbp
	.cfi_def_cfa_register %rbp
	subq	$32, %rsp
	movl	%esi, -20(%rbp)
Ltmp259:
	leaq	-20(%rbp), %rsi
	callq	__ZN4core3mem4swap17hb5f345756636a692E
Ltmp260:
	jmp	LBB184_2
LBB184_1:
	movq	-16(%rbp), %rdi
	callq	__Unwind_Resume
	ud2
LBB184_2:
	movl	-20(%rbp), %eax
	addq	$32, %rsp
	popq	%rbp
	retq
LBB184_3:
	jmp	LBB184_1
LBB184_4:
Ltmp261:
	movq	%rax, -16(%rbp)
	movl	%edx, -8(%rbp)
	jmp	LBB184_3
Lfunc_end31:
	.cfi_endproc
	.section	__TEXT,__gcc_except_tab
	.p2align	2
GCC_except_table184:
Lexception31:
	.byte	255
	.byte	255
	.byte	1
	.uleb128 Lcst_end31-Lcst_begin31
Lcst_begin31:
	.uleb128 Ltmp259-Lfunc_begin31
	.uleb128 Ltmp260-Ltmp259
	.uleb128 Ltmp261-Lfunc_begin31
	.byte	0
	.uleb128 Ltmp260-Lfunc_begin31
	.uleb128 Lfunc_end31-Ltmp260
	.byte	0
	.byte	0
Lcst_end31:
	.p2align	2

	.section	__TEXT,__text,regular,pure_instructions
	.globl	__ZN4core3mem7replace17hfde57a6427022eeeE
	.p2align	4, 0x90
__ZN4core3mem7replace17hfde57a6427022eeeE:
Lfunc_begin32:
	.cfi_startproc
	.cfi_personality 155, _rust_eh_personality
	.cfi_lsda 16, Lexception32
	pushq	%rbp
	.cfi_def_cfa_offset 16
	.cfi_offset %rbp, -16
	movq	%rsp, %rbp
	.cfi_def_cfa_register %rbp
	subq	$32, %rsp
	movq	%rsi, -24(%rbp)
Ltmp262:
	leaq	-24(%rbp), %rsi
	callq	__ZN4core3mem4swap17h34b0aa06eb0bec9fE
Ltmp263:
	jmp	LBB185_2
LBB185_1:
	movq	-16(%rbp), %rdi
	callq	__Unwind_Resume
	ud2
LBB185_2:
	movq	-24(%rbp), %rax
	addq	$32, %rsp
	popq	%rbp
	retq
LBB185_3:
	jmp	LBB185_1
LBB185_4:
Ltmp264:
	movq	%rax, -16(%rbp)
	movl	%edx, -8(%rbp)
	jmp	LBB185_3
Lfunc_end32:
	.cfi_endproc
	.section	__TEXT,__gcc_except_tab
	.p2align	2
GCC_except_table185:
Lexception32:
	.byte	255
	.byte	255
	.byte	1
	.uleb128 Lcst_end32-Lcst_begin32
Lcst_begin32:
	.uleb128 Ltmp262-Lfunc_begin32
	.uleb128 Ltmp263-Ltmp262
	.uleb128 Ltmp264-Lfunc_begin32
	.byte	0
	.uleb128 Ltmp263-Lfunc_begin32
	.uleb128 Lfunc_end32-Ltmp263
	.byte	0
	.byte	0
Lcst_end32:
	.p2align	2

	.section	__TEXT,__text,regular,pure_instructions
	.p2align	4, 0x90
__ZN4core3num12NonZeroUsize13new_unchecked17h93ff7636a988819dE:
	.cfi_startproc
	pushq	%rbp
	.cfi_def_cfa_offset 16
	.cfi_offset %rbp, -16
	movq	%rsp, %rbp
	.cfi_def_cfa_register %rbp
	pushq	%rax
	movq	%rdi, -8(%rbp)
	movq	-8(%rbp), %rax
	addq	$8, %rsp
	popq	%rbp
	retq
	.cfi_endproc

	.p2align	4, 0x90
__ZN4core3num12NonZeroUsize3get17hd3fca4f92f9069e1E:
	.cfi_startproc
	pushq	%rbp
	.cfi_def_cfa_offset 16
	.cfi_offset %rbp, -16
	movq	%rsp, %rbp
	.cfi_def_cfa_register %rbp
	movq	%rdi, %rax
	popq	%rbp
	retq
	.cfi_endproc

	.p2align	4, 0x90
__ZN4core3num21_$LT$impl$u20$u32$GT$13leading_zeros17h34e74eed3cb1aa60E:
	.cfi_startproc
	pushq	%rbp
	.cfi_def_cfa_offset 16
	.cfi_offset %rbp, -16
	movq	%rsp, %rbp
	.cfi_def_cfa_register %rbp
	pushq	%rax
	bsrl	%edi, %eax
	movl	$63, %ecx
	cmovel	%ecx, %eax
	xorl	$31, %eax
	movl	%eax, -4(%rbp)
	movl	-4(%rbp), %eax
	movl	%eax, -8(%rbp)
	movl	-8(%rbp), %eax
	addq	$8, %rsp
	popq	%rbp
	retq
	.cfi_endproc

	.p2align	4, 0x90
__ZN4core3num23_$LT$impl$u20$usize$GT$10count_ones17hf9006e7b64dd3cfaE:
	.cfi_startproc
	pushq	%rbp
	.cfi_def_cfa_offset 16
	.cfi_offset %rbp, -16
	movq	%rsp, %rbp
	.cfi_def_cfa_register %rbp
	subq	$16, %rsp
	movq	%rdi, %rax
	shrq	%rax
	movabsq	$6148914691236517205, %rcx
	andq	%rcx, %rax
	subq	%rax, %rdi
	movabsq	$3689348814741910323, %rax
	movq	%rdi, %rcx
	andq	%rax, %rcx
	shrq	$2, %rdi
	andq	%rax, %rdi
	addq	%rdi, %rcx
	movq	%rcx, %rax
	shrq	$4, %rax
	addq	%rax, %rcx
	movabsq	$1085102592571150095, %rax
	andq	%rax, %rcx
	movabsq	$72340172838076673, %rax
	imulq	%rax, %rcx
	shrq	$56, %rcx
	movq	%rcx, -8(%rbp)
	movq	-8(%rbp), %rax
	movq	%rax, -16(%rbp)
	movq	-16(%rbp), %rax
	movl	%eax, %ecx
	movl	%ecx, %eax
	addq	$16, %rsp
	popq	%rbp
	retq
	.cfi_endproc

	.p2align	4, 0x90
__ZN4core3num23_$LT$impl$u20$usize$GT$11checked_add17h5da64f76d6b0b2ffE:
	.cfi_startproc
	pushq	%rbp
	.cfi_def_cfa_offset 16
	.cfi_offset %rbp, -16
	movq	%rsp, %rbp
	.cfi_def_cfa_register %rbp
	subq	$48, %rsp
	callq	__ZN4core3num23_$LT$impl$u20$usize$GT$15overflowing_add17ha021f50c819dca13E
	movq	%rax, -32(%rbp)
	movb	%dl, -33(%rbp)
	movb	-33(%rbp), %al
	andb	$1, %al
	movb	%al, -1(%rbp)
	movb	-1(%rbp), %al
	movb	%al, -34(%rbp)
	movb	-34(%rbp), %al
	testb	$1, %al
	jne	LBB190_4
	jmp	LBB190_3
LBB190_3:
	movq	-32(%rbp), %rax
	movq	%rax, -16(%rbp)
	movq	$1, -24(%rbp)
	jmp	LBB190_5
LBB190_4:
	movq	$0, -24(%rbp)
LBB190_5:
	movq	-24(%rbp), %rax
	movq	-16(%rbp), %rdx
	addq	$48, %rsp
	popq	%rbp
	retq
	.cfi_endproc

	.p2align	4, 0x90
__ZN4core3num23_$LT$impl$u20$usize$GT$11checked_mul17he622d89be89a8f49E:
	.cfi_startproc
	pushq	%rbp
	.cfi_def_cfa_offset 16
	.cfi_offset %rbp, -16
	movq	%rsp, %rbp
	.cfi_def_cfa_register %rbp
	subq	$48, %rsp
	callq	__ZN4core3num23_$LT$impl$u20$usize$GT$15overflowing_mul17h4c43c9764a1e9771E
	movq	%rax, -32(%rbp)
	movb	%dl, -33(%rbp)
	movb	-33(%rbp), %al
	andb	$1, %al
	movb	%al, -1(%rbp)
	movb	-1(%rbp), %al
	movb	%al, -34(%rbp)
	movb	-34(%rbp), %al
	testb	$1, %al
	jne	LBB191_4
	jmp	LBB191_3
LBB191_3:
	movq	-32(%rbp), %rax
	movq	%rax, -16(%rbp)
	movq	$1, -24(%rbp)
	jmp	LBB191_5
LBB191_4:
	movq	$0, -24(%rbp)
LBB191_5:
	movq	-24(%rbp), %rax
	movq	-16(%rbp), %rdx
	addq	$48, %rsp
	popq	%rbp
	retq
	.cfi_endproc

	.p2align	4, 0x90
__ZN4core3num23_$LT$impl$u20$usize$GT$12wrapping_add17h37e630489ab2335dE:
	.cfi_startproc
	pushq	%rbp
	.cfi_def_cfa_offset 16
	.cfi_offset %rbp, -16
	movq	%rsp, %rbp
	.cfi_def_cfa_register %rbp
	subq	$16, %rsp
	addq	%rsi, %rdi
	movq	%rdi, -8(%rbp)
	movq	-8(%rbp), %rax
	movq	%rax, -16(%rbp)
	movq	-16(%rbp), %rax
	addq	$16, %rsp
	popq	%rbp
	retq
	.cfi_endproc

	.p2align	4, 0x90
__ZN4core3num23_$LT$impl$u20$usize$GT$12wrapping_sub17h8e33e6a398a6df3bE:
	.cfi_startproc
	pushq	%rbp
	.cfi_def_cfa_offset 16
	.cfi_offset %rbp, -16
	movq	%rsp, %rbp
	.cfi_def_cfa_register %rbp
	subq	$16, %rsp
	subq	%rsi, %rdi
	movq	%rdi, -8(%rbp)
	movq	-8(%rbp), %rax
	movq	%rax, -16(%rbp)
	movq	-16(%rbp), %rax
	addq	$16, %rsp
	popq	%rbp
	retq
	.cfi_endproc

	.p2align	4, 0x90
__ZN4core3num23_$LT$impl$u20$usize$GT$13unchecked_add17h6f4a2a6d0562a69aE:
	.cfi_startproc
	pushq	%rbp
	.cfi_def_cfa_offset 16
	.cfi_offset %rbp, -16
	movq	%rsp, %rbp
	.cfi_def_cfa_register %rbp
	subq	$16, %rsp
	addq	%rsi, %rdi
	movq	%rdi, -8(%rbp)
	movq	-8(%rbp), %rax
	movq	%rax, -16(%rbp)
	movq	-16(%rbp), %rax
	addq	$16, %rsp
	popq	%rbp
	retq
	.cfi_endproc

	.p2align	4, 0x90
__ZN4core3num23_$LT$impl$u20$usize$GT$13unchecked_sub17hbc37400baa374d06E:
	.cfi_startproc
	pushq	%rbp
	.cfi_def_cfa_offset 16
	.cfi_offset %rbp, -16
	movq	%rsp, %rbp
	.cfi_def_cfa_register %rbp
	subq	$16, %rsp
	subq	%rsi, %rdi
	movq	%rdi, -8(%rbp)
	movq	-8(%rbp), %rax
	movq	%rax, -16(%rbp)
	movq	-16(%rbp), %rax
	addq	$16, %rsp
	popq	%rbp
	retq
	.cfi_endproc

	.p2align	4, 0x90
__ZN4core3num23_$LT$impl$u20$usize$GT$14saturating_add17hc7f945cfbf4d64d6E:
	.cfi_startproc
	pushq	%rbp
	.cfi_def_cfa_offset 16
	.cfi_offset %rbp, -16
	movq	%rsp, %rbp
	.cfi_def_cfa_register %rbp
	subq	$16, %rsp
	addq	%rsi, %rdi
	movq	$-1, %rax
	cmovbq	%rax, %rdi
	movq	%rdi, -8(%rbp)
	movq	-8(%rbp), %rax
	movq	%rax, -16(%rbp)
	movq	-16(%rbp), %rax
	addq	$16, %rsp
	popq	%rbp
	retq
	.cfi_endproc

	.p2align	4, 0x90
__ZN4core3num23_$LT$impl$u20$usize$GT$15is_power_of_two17h07b1b2eaaec29b23E:
	.cfi_startproc
	pushq	%rbp
	.cfi_def_cfa_offset 16
	.cfi_offset %rbp, -16
	movq	%rsp, %rbp
	.cfi_def_cfa_register %rbp
	subq	$16, %rsp
	callq	__ZN4core3num23_$LT$impl$u20$usize$GT$10count_ones17hf9006e7b64dd3cfaE
	movl	%eax, -4(%rbp)
	movl	-4(%rbp), %eax
	cmpl	$1, %eax
	sete	%cl
	andb	$1, %cl
	movzbl	%cl, %eax
	addq	$16, %rsp
	popq	%rbp
	retq
	.cfi_endproc

	.p2align	4, 0x90
__ZN4core3num23_$LT$impl$u20$usize$GT$15overflowing_add17ha021f50c819dca13E:
	.cfi_startproc
	pushq	%rbp
	.cfi_def_cfa_offset 16
	.cfi_offset %rbp, -16
	movq	%rsp, %rbp
	.cfi_def_cfa_register %rbp
	subq	$48, %rsp
	addq	%rsi, %rdi
	setb	%al
	andb	$1, %al
	movq	%rdi, -16(%rbp)
	movb	%al, -8(%rbp)
	movq	-16(%rbp), %rcx
	movb	-8(%rbp), %al
	movq	%rcx, -40(%rbp)
	movb	%al, -41(%rbp)
	movq	-40(%rbp), %rax
	movq	%rax, -32(%rbp)
	movb	-41(%rbp), %cl
	andb	$1, %cl
	movb	%cl, -24(%rbp)
	movq	-32(%rbp), %rax
	movb	-24(%rbp), %dl
	addq	$48, %rsp
	popq	%rbp
	retq
	.cfi_endproc

	.p2align	4, 0x90
__ZN4core3num23_$LT$impl$u20$usize$GT$15overflowing_mul17h4c43c9764a1e9771E:
	.cfi_startproc
	pushq	%rbp
	.cfi_def_cfa_offset 16
	.cfi_offset %rbp, -16
	movq	%rsp, %rbp
	.cfi_def_cfa_register %rbp
	subq	$48, %rsp
	movq	%rdi, %rax
	mulq	%rsi
	seto	%cl
	andb	$1, %cl
	movq	%rax, -16(%rbp)
	movb	%cl, -8(%rbp)
	movq	-16(%rbp), %rax
	movb	-8(%rbp), %cl
	movq	%rax, -40(%rbp)
	movb	%cl, -41(%rbp)
	movq	-40(%rbp), %rax
	movq	%rax, -32(%rbp)
	movb	-41(%rbp), %cl
	andb	$1, %cl
	movb	%cl, -24(%rbp)
	movq	-32(%rbp), %rax
	movb	-24(%rbp), %dl
	addq	$48, %rsp
	popq	%rbp
	retq
	.cfi_endproc

	.p2align	4, 0x90
__ZN4core3ops8function5FnMut8call_mut17h088d3ba9c3dbf900E:
	.cfi_startproc
	pushq	%rbp
	.cfi_def_cfa_offset 16
	.cfi_offset %rbp, -16
	movq	%rsp, %rbp
	.cfi_def_cfa_register %rbp
	subq	$16, %rsp
	movq	%rdi, %rax
	movq	%rdx, -8(%rbp)
	movq	-8(%rbp), %rsi
	movq	%rax, -16(%rbp)
	callq	__ZN61_$LT$proc_macro2..TokenTree$u20$as$u20$core..clone..Clone$GT$5clone17h3c81c4b987d6dab9E
	movq	-16(%rbp), %rax
	addq	$16, %rsp
	popq	%rbp
	retq
	.cfi_endproc

	.p2align	4, 0x90
__ZN4core3ops8function5FnMut8call_mut17h842f365ef7257c15E:
	.cfi_startproc
	pushq	%rbp
	.cfi_def_cfa_offset 16
	.cfi_offset %rbp, -16
	movq	%rsp, %rbp
	.cfi_def_cfa_register %rbp
	subq	$32, %rsp
	movq	%rsi, -16(%rbp)
	movq	-16(%rbp), %rax
	movq	%rax, -24(%rbp)
	movq	-24(%rbp), %rax
	movq	%rdi, -32(%rbp)
	movq	%rax, %rdi
	callq	__ZN92_$LT$proc_macro..TokenStream$u20$as$u20$core..convert..From$LT$proc_macro..TokenTree$GT$$GT$4from17hbcfe88a73ebe5ff6E
	movl	%eax, -4(%rbp)
	movl	-4(%rbp), %eax
	movl	%eax, -8(%rbp)
	movl	-8(%rbp), %eax
	addq	$32, %rsp
	popq	%rbp
	retq
	.cfi_endproc

	.p2align	4, 0x90
__ZN4core3ops8function5FnMut8call_mut17hb32a2f0dcab8ce98E:
	.cfi_startproc
	pushq	%rbp
	.cfi_def_cfa_offset 16
	.cfi_offset %rbp, -16
	movq	%rsp, %rbp
	.cfi_def_cfa_register %rbp
	subq	$32, %rsp
	movq	%rsi, -8(%rbp)
	movq	-8(%rbp), %rax
	movq	%rax, -16(%rbp)
	movq	-16(%rbp), %rax
	movq	%rdi, -24(%rbp)
	movq	%rax, %rdi
	callq	__ZN4core3mem4drop17hb720cd2d07db87b9E
	addq	$32, %rsp
	popq	%rbp
	retq
	.cfi_endproc

	.p2align	4, 0x90
__ZN4core3ops8function5FnMut8call_mut17hc5a1fa013b92afc3E:
	.cfi_startproc
	pushq	%rbp
	.cfi_def_cfa_offset 16
	.cfi_offset %rbp, -16
	movq	%rsp, %rbp
	.cfi_def_cfa_register %rbp
	subq	$32, %rsp
	movq	%rsi, -24(%rbp)
	movq	-24(%rbp), %rax
	movq	%rdi, -32(%rbp)
	movq	%rax, %rdi
	callq	__ZN60_$LT$proc_macro..TokenTree$u20$as$u20$core..clone..Clone$GT$5clone17h94b23b75af6c1325E
	movq	%rax, -8(%rbp)
	movq	-8(%rbp), %rax
	movq	%rax, -16(%rbp)
	movq	-16(%rbp), %rax
	addq	$32, %rsp
	popq	%rbp
	retq
	.cfi_endproc

	.globl	__ZN4core3ops8function5impls79_$LT$impl$u20$core..ops..function..FnMut$LT$A$GT$$u20$for$u20$$RF$mut$u20$F$GT$8call_mut17ha010b0b9b91239b0E
	.p2align	4, 0x90
__ZN4core3ops8function5impls79_$LT$impl$u20$core..ops..function..FnMut$LT$A$GT$$u20$for$u20$$RF$mut$u20$F$GT$8call_mut17ha010b0b9b91239b0E:
	.cfi_startproc
	pushq	%rbp
	.cfi_def_cfa_offset 16
	.cfi_offset %rbp, -16
	movq	%rsp, %rbp
	.cfi_def_cfa_register %rbp
	subq	$16, %rsp
	movl	%esi, -12(%rbp)
	movl	-12(%rbp), %eax
	movl	%eax, -16(%rbp)
	movq	(%rdi), %rdi
	movl	-16(%rbp), %eax
	movl	%eax, -8(%rbp)
	movl	-8(%rbp), %esi
	callq	__ZN4core4iter6traits8iterator8Iterator8for_each4call28_$u7b$$u7b$closure$u7d$$u7d$17ha20cc592dc3332d0E
	addq	$16, %rsp
	popq	%rbp
	retq
	.cfi_endproc

	.p2align	4, 0x90
__ZN4core3ops8function6FnOnce40call_once$u7b$$u7b$vtable.shim$u7d$$u7d$17h0ea7b6bdc0c31d31E:
	.cfi_startproc
	pushq	%rbp
	.cfi_def_cfa_offset 16
	.cfi_offset %rbp, -16
	movq	%rsp, %rbp
	.cfi_def_cfa_register %rbp
	subq	$16, %rsp
	movq	%rsi, -8(%rbp)
	movq	-8(%rbp), %rax
	movq	%rdi, -16(%rbp)
	movq	%rax, %rdi
	callq	__ZN4core3ops8function6FnOnce9call_once17h9fe9f3088dddefc6E
	addq	$16, %rsp
	popq	%rbp
	retq
	.cfi_endproc

	.p2align	4, 0x90
__ZN4core3ops8function6FnOnce40call_once$u7b$$u7b$vtable.shim$u7d$$u7d$17h82a50fd60cd45074E:
	.cfi_startproc
	pushq	%rbp
	.cfi_def_cfa_offset 16
	.cfi_offset %rbp, -16
	movq	%rsp, %rbp
	.cfi_def_cfa_register %rbp
	subq	$16, %rsp
	movq	%rsi, -8(%rbp)
	movq	(%rdi), %rdi
	movq	-8(%rbp), %rax
	movq	%rax, %rsi
	callq	__ZN4core3ops8function6FnOnce9call_once17h2e0ded2127ec2b06E
	addq	$16, %rsp
	popq	%rbp
	retq
	.cfi_endproc

	.p2align	4, 0x90
__ZN4core3ops8function6FnOnce9call_once17h254ffe95bc5c0ad6E:
	.cfi_startproc
	pushq	%rbp
	.cfi_def_cfa_offset 16
	.cfi_offset %rbp, -16
	movq	%rsp, %rbp
	.cfi_def_cfa_register %rbp
	subq	$32, %rsp
	movq	%rdi, -16(%rbp)
	movq	%rsi, -8(%rbp)
	movq	-16(%rbp), %rdi
	movq	-8(%rbp), %rsi
	callq	__ZN4core3cmp5impls50_$LT$impl$u20$core..cmp..Ord$u20$for$u20$usize$GT$3cmp17h826f61ce68a315f2E
	movb	%al, -17(%rbp)
	movb	-17(%rbp), %al
	addq	$32, %rsp
	popq	%rbp
	retq
	.cfi_endproc

	.p2align	4, 0x90
__ZN4core3ops8function6FnOnce9call_once17h2e0ded2127ec2b06E:
Lfunc_begin33:
	.cfi_startproc
	.cfi_personality 155, _rust_eh_personality
	.cfi_lsda 16, Lexception33
	pushq	%rbp
	.cfi_def_cfa_offset 16
	.cfi_offset %rbp, -16
	movq	%rsp, %rbp
	.cfi_def_cfa_register %rbp
	subq	$32, %rsp
	movq	%rdi, -32(%rbp)
	movq	%rsi, -24(%rbp)
	movq	-24(%rbp), %rsi
Ltmp265:
	leaq	-32(%rbp), %rdi
	callq	__ZN3std4sync4once4Once9call_once28_$u7b$$u7b$closure$u7d$$u7d$17hc9aa99a2a8b4f119E
Ltmp266:
	jmp	LBB208_1
LBB208_1:
	jmp	LBB208_2
LBB208_2:
	addq	$32, %rsp
	popq	%rbp
	retq
LBB208_3:
	jmp	LBB208_4
LBB208_4:
	movq	-16(%rbp), %rdi
	callq	__Unwind_Resume
	ud2
LBB208_5:
Ltmp267:
	movq	%rax, -16(%rbp)
	movl	%edx, -8(%rbp)
	jmp	LBB208_3
Lfunc_end33:
	.cfi_endproc
	.section	__TEXT,__gcc_except_tab
	.p2align	2
GCC_except_table208:
Lexception33:
	.byte	255
	.byte	255
	.byte	1
	.uleb128 Lcst_end33-Lcst_begin33
Lcst_begin33:
	.uleb128 Ltmp265-Lfunc_begin33
	.uleb128 Ltmp266-Ltmp265
	.uleb128 Ltmp267-Lfunc_begin33
	.byte	0
	.uleb128 Ltmp266-Lfunc_begin33
	.uleb128 Lfunc_end33-Ltmp266
	.byte	0
	.byte	0
Lcst_end33:
	.p2align	2

	.section	__TEXT,__text,regular,pure_instructions
	.p2align	4, 0x90
__ZN4core3ops8function6FnOnce9call_once17h597fe00885a0e06cE:
	.cfi_startproc
	pushq	%rbp
	.cfi_def_cfa_offset 16
	.cfi_offset %rbp, -16
	movq	%rsp, %rbp
	.cfi_def_cfa_register %rbp
	subq	$16, %rsp
	callq	__ZN11proc_macro23imp8LexError8Compiler17hb6f34fdd149595b1E
	movb	%al, -9(%rbp)
	movb	-9(%rbp), %al
	andb	$1, %al
	movzbl	%al, %eax
	addq	$16, %rsp
	popq	%rbp
	retq
	.cfi_endproc

	.p2align	4, 0x90
__ZN4core3ops8function6FnOnce9call_once17h9fe9f3088dddefc6E:
Lfunc_begin34:
	.cfi_startproc
	.cfi_personality 155, _rust_eh_personality
	.cfi_lsda 16, Lexception34
	pushq	%rbp
	.cfi_def_cfa_offset 16
	.cfi_offset %rbp, -16
	movq	%rsp, %rbp
	.cfi_def_cfa_register %rbp
	subq	$32, %rsp
	movq	%rdi, -24(%rbp)
	movq	-24(%rbp), %rsi
Ltmp268:
	leaq	-32(%rbp), %rdi
	callq	__ZN11proc_macro29detection10initialize28_$u7b$$u7b$closure$u7d$$u7d$17h69d24fb5854b584cE
Ltmp269:
	jmp	LBB210_1
LBB210_1:
	jmp	LBB210_2
LBB210_2:
	addq	$32, %rsp
	popq	%rbp
	retq
LBB210_3:
	jmp	LBB210_4
LBB210_4:
	movq	-16(%rbp), %rdi
	callq	__Unwind_Resume
	ud2
LBB210_5:
Ltmp270:
	movq	%rax, -16(%rbp)
	movl	%edx, -8(%rbp)
	jmp	LBB210_3
Lfunc_end34:
	.cfi_endproc
	.section	__TEXT,__gcc_except_tab
	.p2align	2
GCC_except_table210:
Lexception34:
	.byte	255
	.byte	255
	.byte	1
	.uleb128 Lcst_end34-Lcst_begin34
Lcst_begin34:
	.uleb128 Ltmp268-Lfunc_begin34
	.uleb128 Ltmp269-Ltmp268
	.uleb128 Ltmp270-Lfunc_begin34
	.byte	0
	.uleb128 Ltmp269-Lfunc_begin34
	.uleb128 Lfunc_end34-Ltmp269
	.byte	0
	.byte	0
Lcst_end34:
	.p2align	2

	.section	__TEXT,__text,regular,pure_instructions
	.p2align	4, 0x90
__ZN4core3ops8function6FnOnce9call_once17had6b3de346ca63beE:
	.cfi_startproc
	pushq	%rbp
	.cfi_def_cfa_offset 16
	.cfi_offset %rbp, -16
	movq	%rsp, %rbp
	.cfi_def_cfa_register %rbp
	subq	$16, %rsp
	callq	__ZN10proc_macro4Span9call_site17he8e389cb3094b270E
	movl	%eax, -4(%rbp)
	movl	-4(%rbp), %eax
	movl	%eax, -8(%rbp)
	movl	-8(%rbp), %eax
	addq	$16, %rsp
	popq	%rbp
	retq
	.cfi_endproc

	.p2align	4, 0x90
__ZN4core3ops8function6FnOnce9call_once17hb1bb6a1b1bac8ebaE:
	.cfi_startproc
	pushq	%rbp
	.cfi_def_cfa_offset 16
	.cfi_offset %rbp, -16
	movq	%rsp, %rbp
	.cfi_def_cfa_register %rbp
	subq	$16, %rsp
	callq	__ZN11proc_macro29detection10initialize17h1ad4f4e3a73835fcE
	addq	$16, %rsp
	popq	%rbp
	retq
	.cfi_endproc

	.p2align	4, 0x90
__ZN4core3ops8function6FnOnce9call_once17hb9f0d95ddef2a2bfE:
	.cfi_startproc
	pushq	%rbp
	.cfi_def_cfa_offset 16
	.cfi_offset %rbp, -16
	movq	%rsp, %rbp
	.cfi_def_cfa_register %rbp
	subq	$16, %rsp
	movl	%edi, -12(%rbp)
	movl	-12(%rbp), %eax
	movl	%eax, -16(%rbp)
	movl	-16(%rbp), %edi
	callq	__ZN11proc_macro24Span4_new17h526399d6999818aaE
	movl	%eax, -4(%rbp)
	movl	-4(%rbp), %eax
	movl	%eax, -8(%rbp)
	movl	-8(%rbp), %eax
	addq	$16, %rsp
	popq	%rbp
	retq
	.cfi_endproc

	.globl	__ZN4core3ptr13drop_in_place17h0175cd23a93a17dfE
	.p2align	4, 0x90
__ZN4core3ptr13drop_in_place17h0175cd23a93a17dfE:
Lfunc_begin35:
	.cfi_startproc
	.cfi_personality 155, _rust_eh_personality
	.cfi_lsda 16, Lexception35
	pushq	%rbp
	.cfi_def_cfa_offset 16
	.cfi_offset %rbp, -16
	movq	%rsp, %rbp
	.cfi_def_cfa_register %rbp
	subq	$32, %rsp
Ltmp271:
	movq	%rdi, -32(%rbp)
	callq	__ZN66_$LT$alloc..vec..Vec$LT$T$GT$$u20$as$u20$core..ops..drop..Drop$GT$4drop17h624196d7a8806655E
Ltmp272:
	jmp	LBB214_4
LBB214_1:
	movq	-16(%rbp), %rdi
	callq	__Unwind_Resume
	ud2
LBB214_2:
	addq	$32, %rsp
	popq	%rbp
	retq
LBB214_3:
	movq	-32(%rbp), %rax
	movq	%rax, %rdi
	callq	__ZN4core3ptr13drop_in_place17h34569f23d9e4a692E
	jmp	LBB214_1
LBB214_4:
	movq	-32(%rbp), %rax
	movq	%rax, %rdi
	callq	__ZN4core3ptr13drop_in_place17h34569f23d9e4a692E
	jmp	LBB214_2
LBB214_5:
Ltmp273:
	movq	%rax, -16(%rbp)
	movl	%edx, -8(%rbp)
	jmp	LBB214_3
Lfunc_end35:
	.cfi_endproc
	.section	__TEXT,__gcc_except_tab
	.p2align	2
GCC_except_table214:
Lexception35:
	.byte	255
	.byte	255
	.byte	1
	.uleb128 Lcst_end35-Lcst_begin35
Lcst_begin35:
	.uleb128 Ltmp271-Lfunc_begin35
	.uleb128 Ltmp272-Ltmp271
	.uleb128 Ltmp273-Lfunc_begin35
	.byte	0
	.uleb128 Ltmp272-Lfunc_begin35
	.uleb128 Lfunc_end35-Ltmp272
	.byte	0
	.byte	0
Lcst_end35:
	.p2align	2

	.section	__TEXT,__text,regular,pure_instructions
	.globl	__ZN4core3ptr13drop_in_place17h060e14148db73398E
	.p2align	4, 0x90
__ZN4core3ptr13drop_in_place17h060e14148db73398E:
	.cfi_startproc
	pushq	%rbp
	.cfi_def_cfa_offset 16
	.cfi_offset %rbp, -16
	movq	%rsp, %rbp
	.cfi_def_cfa_register %rbp
	subq	$16, %rsp
	callq	__ZN4core3ptr13drop_in_place17h78bbfb8e516ac09bE
	addq	$16, %rsp
	popq	%rbp
	retq
	.cfi_endproc

	.globl	__ZN4core3ptr13drop_in_place17h06786e25de60db61E
	.p2align	4, 0x90
__ZN4core3ptr13drop_in_place17h06786e25de60db61E:
	.cfi_startproc
	pushq	%rbp
	.cfi_def_cfa_offset 16
	.cfi_offset %rbp, -16
	movq	%rsp, %rbp
	.cfi_def_cfa_register %rbp
	subq	$16, %rsp
	callq	__ZN4core3ptr13drop_in_place17h883919a024d89158E
	addq	$16, %rsp
	popq	%rbp
	retq
	.cfi_endproc

	.globl	__ZN4core3ptr13drop_in_place17h06eb8e179bd1b69aE
	.p2align	4, 0x90
__ZN4core3ptr13drop_in_place17h06eb8e179bd1b69aE:
	.cfi_startproc
	pushq	%rbp
	.cfi_def_cfa_offset 16
	.cfi_offset %rbp, -16
	movq	%rsp, %rbp
	.cfi_def_cfa_register %rbp
	subq	$16, %rsp
	callq	__ZN135_$LT$$LT$alloc..vec..Drain$LT$T$GT$$u20$as$u20$core..ops..drop..Drop$GT$..drop..DropGuard$LT$T$GT$$u20$as$u20$core..ops..drop..Drop$GT$4drop17hf33c15972eceeed5E
	addq	$16, %rsp
	popq	%rbp
	retq
	.cfi_endproc

	.globl	__ZN4core3ptr13drop_in_place17h0a8004e4bb6e1cf3E
	.p2align	4, 0x90
__ZN4core3ptr13drop_in_place17h0a8004e4bb6e1cf3E:
	.cfi_startproc
	pushq	%rbp
	.cfi_def_cfa_offset 16
	.cfi_offset %rbp, -16
	movq	%rsp, %rbp
	.cfi_def_cfa_register %rbp
	subq	$16, %rsp
	movl	(%rdi), %eax
	movl	%eax, %ecx
	cmpq	$0, %rcx
	movq	%rdi, -16(%rbp)
	jne	LBB218_2
LBB218_1:
	addq	$16, %rsp
	popq	%rbp
	retq
LBB218_2:
	movq	-16(%rbp), %rax
	addq	$4, %rax
	movq	%rax, %rdi
	callq	__ZN4core3ptr13drop_in_place17ha961518a483c265aE
	jmp	LBB218_1
	.cfi_endproc

	.globl	__ZN4core3ptr13drop_in_place17h0b040deb864575a3E
	.p2align	4, 0x90
__ZN4core3ptr13drop_in_place17h0b040deb864575a3E:
	.cfi_startproc
	pushq	%rbp
	.cfi_def_cfa_offset 16
	.cfi_offset %rbp, -16
	movq	%rsp, %rbp
	.cfi_def_cfa_register %rbp
	subq	$16, %rsp
	callq	__ZN4core3ptr13drop_in_place17hab7bc10a71be184fE
	addq	$16, %rsp
	popq	%rbp
	retq
	.cfi_endproc

	.globl	__ZN4core3ptr13drop_in_place17h12dea03ec8ac22aeE
	.p2align	4, 0x90
__ZN4core3ptr13drop_in_place17h12dea03ec8ac22aeE:
	.cfi_startproc
	pushq	%rbp
	.cfi_def_cfa_offset 16
	.cfi_offset %rbp, -16
	movq	%rsp, %rbp
	.cfi_def_cfa_register %rbp
	subq	$16, %rsp
	callq	__ZN4core3ptr13drop_in_place17h8155ffe90a5333a3E
	addq	$16, %rsp
	popq	%rbp
	retq
	.cfi_endproc

	.globl	__ZN4core3ptr13drop_in_place17h12fc92f9f82a77d8E
	.p2align	4, 0x90
__ZN4core3ptr13drop_in_place17h12fc92f9f82a77d8E:
	.cfi_startproc
	pushq	%rbp
	.cfi_def_cfa_offset 16
	.cfi_offset %rbp, -16
	movq	%rsp, %rbp
	.cfi_def_cfa_register %rbp
	subq	$16, %rsp
	callq	*(%rsi)
	addq	$16, %rsp
	popq	%rbp
	retq
	.cfi_endproc

	.globl	__ZN4core3ptr13drop_in_place17h14507cc05b1ddf4eE
	.p2align	4, 0x90
__ZN4core3ptr13drop_in_place17h14507cc05b1ddf4eE:
	.cfi_startproc
	pushq	%rbp
	.cfi_def_cfa_offset 16
	.cfi_offset %rbp, -16
	movq	%rsp, %rbp
	.cfi_def_cfa_register %rbp
	subq	$16, %rsp
	callq	__ZN4core3ptr13drop_in_place17h3222757524d39731E
	addq	$16, %rsp
	popq	%rbp
	retq
	.cfi_endproc

	.globl	__ZN4core3ptr13drop_in_place17h18b93f777bd053c8E
	.p2align	4, 0x90
__ZN4core3ptr13drop_in_place17h18b93f777bd053c8E:
	.cfi_startproc
	pushq	%rbp
	.cfi_def_cfa_offset 16
	.cfi_offset %rbp, -16
	movq	%rsp, %rbp
	.cfi_def_cfa_register %rbp
	subq	$16, %rsp
	callq	__ZN4core3ptr13drop_in_place17h06786e25de60db61E
	addq	$16, %rsp
	popq	%rbp
	retq
	.cfi_endproc

	.globl	__ZN4core3ptr13drop_in_place17h1aadf5e17ed7f2aeE
	.p2align	4, 0x90
__ZN4core3ptr13drop_in_place17h1aadf5e17ed7f2aeE:
	.cfi_startproc
	pushq	%rbp
	.cfi_def_cfa_offset 16
	.cfi_offset %rbp, -16
	movq	%rsp, %rbp
	.cfi_def_cfa_register %rbp
	subq	$16, %rsp
	xorl	%eax, %eax
	movl	%eax, %ecx
	cmpq	$0, (%rdi)
	movl	$1, %edx
	cmovbeq	%rdx, %rcx
	cmpq	$0, %rcx
	movq	%rdi, -16(%rbp)
	je	LBB224_2
LBB224_1:
	addq	$16, %rsp
	popq	%rbp
	retq
LBB224_2:
	movq	-16(%rbp), %rax
	movq	%rax, %rdi
	callq	__ZN4core3ptr13drop_in_place17h7be6f0c0e1460aecE
	jmp	LBB224_1
	.cfi_endproc

	.globl	__ZN4core3ptr13drop_in_place17h1b0801ff0b3061f6E
	.p2align	4, 0x90
__ZN4core3ptr13drop_in_place17h1b0801ff0b3061f6E:
Lfunc_begin36:
	.cfi_startproc
	.cfi_personality 155, _rust_eh_personality
	.cfi_lsda 16, Lexception36
	pushq	%rbp
	.cfi_def_cfa_offset 16
	.cfi_offset %rbp, -16
	movq	%rsp, %rbp
	.cfi_def_cfa_register %rbp
	subq	$64, %rsp
	xorl	%eax, %eax
	testb	$1, %al
	movq	%rdi, -56(%rbp)
	movq	%rsi, -64(%rbp)
	jne	LBB225_7
	jmp	LBB225_12
LBB225_1:
	addq	$64, %rsp
	popq	%rbp
	retq
LBB225_2:
	movq	-16(%rbp), %rdi
	callq	__Unwind_Resume
	ud2
LBB225_3:
	movq	-40(%rbp), %rax
	shlq	$3, %rax
	movq	-56(%rbp), %rcx
	addq	%rax, %rcx
	movq	-40(%rbp), %rax
	addq	$1, %rax
	movq	%rax, -40(%rbp)
	movq	%rcx, %rdi
	callq	__ZN4core3ptr13drop_in_place17hafdace3cf3cd2656E
LBB225_4:
	movq	-64(%rbp), %rax
	cmpq	%rax, -40(%rbp)
	je	LBB225_2
	jmp	LBB225_3
LBB225_5:
	movq	-40(%rbp), %rax
	movq	-56(%rbp), %rcx
	leaq	(%rcx,%rax,8), %rdi
	incq	%rax
	movq	%rax, -40(%rbp)
Ltmp277:
	callq	__ZN4core3ptr13drop_in_place17hafdace3cf3cd2656E
Ltmp278:
	jmp	LBB225_6
LBB225_6:
	movq	-64(%rbp), %rax
	cmpq	%rax, -40(%rbp)
	je	LBB225_1
	jmp	LBB225_5
LBB225_7:
	movq	$0, -40(%rbp)
	jmp	LBB225_6
LBB225_8:
	movq	-32(%rbp), %rdi
	movq	-32(%rbp), %rax
	addq	$8, %rax
	movq	%rax, -32(%rbp)
	callq	__ZN4core3ptr13drop_in_place17hafdace3cf3cd2656E
LBB225_9:
	movq	-32(%rbp), %rax
	cmpq	-24(%rbp), %rax
	je	LBB225_2
	jmp	LBB225_8
LBB225_10:
	movq	-32(%rbp), %rax
	movq	%rax, %rcx
	addq	$8, %rcx
	movq	%rcx, -32(%rbp)
Ltmp274:
	movq	%rax, %rdi
	callq	__ZN4core3ptr13drop_in_place17hafdace3cf3cd2656E
Ltmp275:
	jmp	LBB225_11
LBB225_11:
	movq	-32(%rbp), %rax
	cmpq	-24(%rbp), %rax
	je	LBB225_1
	jmp	LBB225_10
LBB225_12:
	movq	-56(%rbp), %rax
	movq	%rax, -32(%rbp)
	movq	-64(%rbp), %rax
	shlq	$3, %rax
	addq	-32(%rbp), %rax
	movq	%rax, -24(%rbp)
	jmp	LBB225_11
LBB225_13:
Ltmp276:
	movq	%rax, -16(%rbp)
	movl	%edx, -8(%rbp)
	jmp	LBB225_9
LBB225_14:
Ltmp279:
	movq	%rax, -16(%rbp)
	movl	%edx, -8(%rbp)
	jmp	LBB225_4
Lfunc_end36:
	.cfi_endproc
	.section	__TEXT,__gcc_except_tab
	.p2align	2
GCC_except_table225:
Lexception36:
	.byte	255
	.byte	255
	.byte	1
	.uleb128 Lcst_end36-Lcst_begin36
Lcst_begin36:
	.uleb128 Lfunc_begin36-Lfunc_begin36
	.uleb128 Ltmp277-Lfunc_begin36
	.byte	0
	.byte	0
	.uleb128 Ltmp277-Lfunc_begin36
	.uleb128 Ltmp278-Ltmp277
	.uleb128 Ltmp279-Lfunc_begin36
	.byte	0
	.uleb128 Ltmp278-Lfunc_begin36
	.uleb128 Ltmp274-Ltmp278
	.byte	0
	.byte	0
	.uleb128 Ltmp274-Lfunc_begin36
	.uleb128 Ltmp275-Ltmp274
	.uleb128 Ltmp276-Lfunc_begin36
	.byte	0
Lcst_end36:
	.p2align	2

	.section	__TEXT,__text,regular,pure_instructions
	.globl	__ZN4core3ptr13drop_in_place17h1b9308401ce81d35E
	.p2align	4, 0x90
__ZN4core3ptr13drop_in_place17h1b9308401ce81d35E:
	.cfi_startproc
	pushq	%rbp
	.cfi_def_cfa_offset 16
	.cfi_offset %rbp, -16
	movq	%rsp, %rbp
	.cfi_def_cfa_register %rbp
	subq	$16, %rsp
	cmpq	$0, (%rdi)
	movq	%rdi, -16(%rbp)
	je	LBB226_2
	jmp	LBB226_3
LBB226_1:
	addq	$16, %rsp
	popq	%rbp
	retq
LBB226_2:
	movq	-16(%rbp), %rax
	addq	$8, %rax
	movq	%rax, %rdi
	callq	__ZN4core3ptr13drop_in_place17h48e663774389b5c7E
	jmp	LBB226_1
LBB226_3:
	movq	-16(%rbp), %rax
	addq	$8, %rax
	movq	%rax, %rdi
	callq	__ZN4core3ptr13drop_in_place17h20f48336ce149c0aE
	jmp	LBB226_1
	.cfi_endproc

	.globl	__ZN4core3ptr13drop_in_place17h1da43b20f5e4c75aE
	.p2align	4, 0x90
__ZN4core3ptr13drop_in_place17h1da43b20f5e4c75aE:
	.cfi_startproc
	pushq	%rbp
	.cfi_def_cfa_offset 16
	.cfi_offset %rbp, -16
	movq	%rsp, %rbp
	.cfi_def_cfa_register %rbp
	subq	$16, %rsp
	callq	__ZN4core3ptr13drop_in_place17hbedc44a437f05bfbE
	addq	$16, %rsp
	popq	%rbp
	retq
	.cfi_endproc

	.globl	__ZN4core3ptr13drop_in_place17h1dcbbbbd19dc1d3bE
	.p2align	4, 0x90
__ZN4core3ptr13drop_in_place17h1dcbbbbd19dc1d3bE:
	.cfi_startproc
	pushq	%rbp
	.cfi_def_cfa_offset 16
	.cfi_offset %rbp, -16
	movq	%rsp, %rbp
	.cfi_def_cfa_register %rbp
	subq	$16, %rsp
	addq	$8, %rdi
	callq	__ZN4core3ptr13drop_in_place17h3bb51baf77d3a3daE
	addq	$16, %rsp
	popq	%rbp
	retq
	.cfi_endproc

	.globl	__ZN4core3ptr13drop_in_place17h1e071c37eecd7935E
	.p2align	4, 0x90
__ZN4core3ptr13drop_in_place17h1e071c37eecd7935E:
	.cfi_startproc
	pushq	%rbp
	.cfi_def_cfa_offset 16
	.cfi_offset %rbp, -16
	movq	%rsp, %rbp
	.cfi_def_cfa_register %rbp
	subq	$16, %rsp
	movl	(%rdi), %eax
	movl	%eax, %ecx
	cmpq	$0, %rcx
	movq	%rdi, -16(%rbp)
	je	LBB229_2
	jmp	LBB229_3
LBB229_1:
	addq	$16, %rsp
	popq	%rbp
	retq
LBB229_2:
	movq	-16(%rbp), %rax
	addq	$4, %rax
	movq	%rax, %rdi
	callq	__ZN4core3ptr13drop_in_place17h7d04f6e002bb7971E
	jmp	LBB229_1
LBB229_3:
	movq	-16(%rbp), %rax
	addq	$8, %rax
	movq	%rax, %rdi
	callq	__ZN4core3ptr13drop_in_place17h18b93f777bd053c8E
	jmp	LBB229_1
	.cfi_endproc

	.globl	__ZN4core3ptr13drop_in_place17h20f48336ce149c0aE
	.p2align	4, 0x90
__ZN4core3ptr13drop_in_place17h20f48336ce149c0aE:
Lfunc_begin37:
	.cfi_startproc
	.cfi_personality 155, _rust_eh_personality
	.cfi_lsda 16, Lexception37
	pushq	%rbp
	.cfi_def_cfa_offset 16
	.cfi_offset %rbp, -16
	movq	%rsp, %rbp
	.cfi_def_cfa_register %rbp
	subq	$32, %rsp
Ltmp280:
	movq	%rdi, -32(%rbp)
	callq	__ZN76_$LT$proc_macro2..fallback..TokenStream$u20$as$u20$core..ops..drop..Drop$GT$4drop17hac2e6f122acc0027E
Ltmp281:
	jmp	LBB230_4
LBB230_1:
	movq	-16(%rbp), %rdi
	callq	__Unwind_Resume
	ud2
LBB230_2:
	addq	$32, %rsp
	popq	%rbp
	retq
LBB230_3:
	movq	-32(%rbp), %rax
	movq	%rax, %rdi
	callq	__ZN4core3ptr13drop_in_place17h3bb51baf77d3a3daE
	jmp	LBB230_1
LBB230_4:
	movq	-32(%rbp), %rax
	movq	%rax, %rdi
	callq	__ZN4core3ptr13drop_in_place17h3bb51baf77d3a3daE
	jmp	LBB230_2
LBB230_5:
Ltmp282:
	movq	%rax, -16(%rbp)
	movl	%edx, -8(%rbp)
	jmp	LBB230_3
Lfunc_end37:
	.cfi_endproc
	.section	__TEXT,__gcc_except_tab
	.p2align	2
GCC_except_table230:
Lexception37:
	.byte	255
	.byte	255
	.byte	1
	.uleb128 Lcst_end37-Lcst_begin37
Lcst_begin37:
	.uleb128 Ltmp280-Lfunc_begin37
	.uleb128 Ltmp281-Ltmp280
	.uleb128 Ltmp282-Lfunc_begin37
	.byte	0
	.uleb128 Ltmp281-Lfunc_begin37
	.uleb128 Lfunc_end37-Ltmp281
	.byte	0
	.byte	0
Lcst_end37:
	.p2align	2

	.section	__TEXT,__text,regular,pure_instructions
	.p2align	4, 0x90
__ZN4core3ptr13drop_in_place17h229cb2ba76387b92E:
	.cfi_startproc
	pushq	%rbp
	.cfi_def_cfa_offset 16
	.cfi_offset %rbp, -16
	movq	%rsp, %rbp
	.cfi_def_cfa_register %rbp
	pushq	%rax
	addq	$8, %rsp
	popq	%rbp
	retq
	.cfi_endproc

	.globl	__ZN4core3ptr13drop_in_place17h246478e8f97bbac1E
	.p2align	4, 0x90
__ZN4core3ptr13drop_in_place17h246478e8f97bbac1E:
	.cfi_startproc
	pushq	%rbp
	.cfi_def_cfa_offset 16
	.cfi_offset %rbp, -16
	movq	%rsp, %rbp
	.cfi_def_cfa_register %rbp
	subq	$16, %rsp
	callq	__ZN88_$LT$proc_macro..bridge..client..TokenStreamBuilder$u20$as$u20$core..ops..drop..Drop$GT$4drop17h3876f45e5740b661E
	addq	$16, %rsp
	popq	%rbp
	retq
	.cfi_endproc

	.p2align	4, 0x90
__ZN4core3ptr13drop_in_place17h291ba5e8a9270e9aE:
	.cfi_startproc
	pushq	%rbp
	.cfi_def_cfa_offset 16
	.cfi_offset %rbp, -16
	movq	%rsp, %rbp
	.cfi_def_cfa_register %rbp
	pushq	%rax
	addq	$8, %rsp
	popq	%rbp
	retq
	.cfi_endproc

	.globl	__ZN4core3ptr13drop_in_place17h2b6a7bbf0f46f80aE
	.p2align	4, 0x90
__ZN4core3ptr13drop_in_place17h2b6a7bbf0f46f80aE:
	.cfi_startproc
	pushq	%rbp
	.cfi_def_cfa_offset 16
	.cfi_offset %rbp, -16
	movq	%rsp, %rbp
	.cfi_def_cfa_register %rbp
	subq	$16, %rsp
	callq	__ZN4core3ptr13drop_in_place17haded8e989617feeeE
	addq	$16, %rsp
	popq	%rbp
	retq
	.cfi_endproc

	.globl	__ZN4core3ptr13drop_in_place17h2d72af7582ff0dbaE
	.p2align	4, 0x90
__ZN4core3ptr13drop_in_place17h2d72af7582ff0dbaE:
	.cfi_startproc
	pushq	%rbp
	.cfi_def_cfa_offset 16
	.cfi_offset %rbp, -16
	movq	%rsp, %rbp
	.cfi_def_cfa_register %rbp
	subq	$16, %rsp
	callq	__ZN77_$LT$alloc..raw_vec..RawVec$LT$T$C$A$GT$$u20$as$u20$core..ops..drop..Drop$GT$4drop17hd543cb68c576886cE
	addq	$16, %rsp
	popq	%rbp
	retq
	.cfi_endproc

	.globl	__ZN4core3ptr13drop_in_place17h3222757524d39731E
	.p2align	4, 0x90
__ZN4core3ptr13drop_in_place17h3222757524d39731E:
	.cfi_startproc
	pushq	%rbp
	.cfi_def_cfa_offset 16
	.cfi_offset %rbp, -16
	movq	%rsp, %rbp
	.cfi_def_cfa_register %rbp
	subq	$16, %rsp
	callq	__ZN4core3ptr13drop_in_place17hffd5988964add5a1E
	addq	$16, %rsp
	popq	%rbp
	retq
	.cfi_endproc

	.globl	__ZN4core3ptr13drop_in_place17h32302694d018b805E
	.p2align	4, 0x90
__ZN4core3ptr13drop_in_place17h32302694d018b805E:
	.cfi_startproc
	pushq	%rbp
	.cfi_def_cfa_offset 16
	.cfi_offset %rbp, -16
	movq	%rsp, %rbp
	.cfi_def_cfa_register %rbp
	subq	$16, %rsp
	callq	__ZN4core3ptr13drop_in_place17h1b9308401ce81d35E
	addq	$16, %rsp
	popq	%rbp
	retq
	.cfi_endproc

	.p2align	4, 0x90
__ZN4core3ptr13drop_in_place17h32c837b22f3ef4c7E:
	.cfi_startproc
	pushq	%rbp
	.cfi_def_cfa_offset 16
	.cfi_offset %rbp, -16
	movq	%rsp, %rbp
	.cfi_def_cfa_register %rbp
	pushq	%rax
	addq	$8, %rsp
	popq	%rbp
	retq
	.cfi_endproc

	.globl	__ZN4core3ptr13drop_in_place17h32ee56c6ea57823cE
	.p2align	4, 0x90
__ZN4core3ptr13drop_in_place17h32ee56c6ea57823cE:
	.cfi_startproc
	pushq	%rbp
	.cfi_def_cfa_offset 16
	.cfi_offset %rbp, -16
	movq	%rsp, %rbp
	.cfi_def_cfa_register %rbp
	subq	$16, %rsp
	callq	__ZN66_$LT$alloc..vec..SetLenOnDrop$u20$as$u20$core..ops..drop..Drop$GT$4drop17hb4366a7dcb0b4e82E
	addq	$16, %rsp
	popq	%rbp
	retq
	.cfi_endproc

	.globl	__ZN4core3ptr13drop_in_place17h34569f23d9e4a692E
	.p2align	4, 0x90
__ZN4core3ptr13drop_in_place17h34569f23d9e4a692E:
	.cfi_startproc
	pushq	%rbp
	.cfi_def_cfa_offset 16
	.cfi_offset %rbp, -16
	movq	%rsp, %rbp
	.cfi_def_cfa_register %rbp
	subq	$16, %rsp
	callq	__ZN77_$LT$alloc..raw_vec..RawVec$LT$T$C$A$GT$$u20$as$u20$core..ops..drop..Drop$GT$4drop17h84249363fd94673cE
	addq	$16, %rsp
	popq	%rbp
	retq
	.cfi_endproc

	.p2align	4, 0x90
__ZN4core3ptr13drop_in_place17h3af36271f87821f9E:
	.cfi_startproc
	pushq	%rbp
	.cfi_def_cfa_offset 16
	.cfi_offset %rbp, -16
	movq	%rsp, %rbp
	.cfi_def_cfa_register %rbp
	pushq	%rax
	addq	$8, %rsp
	popq	%rbp
	retq
	.cfi_endproc

	.globl	__ZN4core3ptr13drop_in_place17h3bb51baf77d3a3daE
	.p2align	4, 0x90
__ZN4core3ptr13drop_in_place17h3bb51baf77d3a3daE:
Lfunc_begin38:
	.cfi_startproc
	.cfi_personality 155, _rust_eh_personality
	.cfi_lsda 16, Lexception38
	pushq	%rbp
	.cfi_def_cfa_offset 16
	.cfi_offset %rbp, -16
	movq	%rsp, %rbp
	.cfi_def_cfa_register %rbp
	subq	$32, %rsp
Ltmp283:
	movq	%rdi, -32(%rbp)
	callq	__ZN66_$LT$alloc..vec..Vec$LT$T$GT$$u20$as$u20$core..ops..drop..Drop$GT$4drop17hac8812ae4689db78E
Ltmp284:
	jmp	LBB242_4
LBB242_1:
	movq	-16(%rbp), %rdi
	callq	__Unwind_Resume
	ud2
LBB242_2:
	addq	$32, %rsp
	popq	%rbp
	retq
LBB242_3:
	movq	-32(%rbp), %rax
	movq	%rax, %rdi
	callq	__ZN4core3ptr13drop_in_place17hf40b909b2cd31c5eE
	jmp	LBB242_1
LBB242_4:
	movq	-32(%rbp), %rax
	movq	%rax, %rdi
	callq	__ZN4core3ptr13drop_in_place17hf40b909b2cd31c5eE
	jmp	LBB242_2
LBB242_5:
Ltmp285:
	movq	%rax, -16(%rbp)
	movl	%edx, -8(%rbp)
	jmp	LBB242_3
Lfunc_end38:
	.cfi_endproc
	.section	__TEXT,__gcc_except_tab
	.p2align	2
GCC_except_table242:
Lexception38:
	.byte	255
	.byte	255
	.byte	1
	.uleb128 Lcst_end38-Lcst_begin38
Lcst_begin38:
	.uleb128 Ltmp283-Lfunc_begin38
	.uleb128 Ltmp284-Ltmp283
	.uleb128 Ltmp285-Lfunc_begin38
	.byte	0
	.uleb128 Ltmp284-Lfunc_begin38
	.uleb128 Lfunc_end38-Ltmp284
	.byte	0
	.byte	0
Lcst_end38:
	.p2align	2

	.section	__TEXT,__text,regular,pure_instructions
	.globl	__ZN4core3ptr13drop_in_place17h474c2f3e66c73672E
	.p2align	4, 0x90
__ZN4core3ptr13drop_in_place17h474c2f3e66c73672E:
	.cfi_startproc
	pushq	%rbp
	.cfi_def_cfa_offset 16
	.cfi_offset %rbp, -16
	movq	%rsp, %rbp
	.cfi_def_cfa_register %rbp
	subq	$16, %rsp
	callq	__ZN4core3ptr13drop_in_place17h20f48336ce149c0aE
	addq	$16, %rsp
	popq	%rbp
	retq
	.cfi_endproc

	.p2align	4, 0x90
__ZN4core3ptr13drop_in_place17h47cc2def96660de1E:
	.cfi_startproc
	pushq	%rbp
	.cfi_def_cfa_offset 16
	.cfi_offset %rbp, -16
	movq	%rsp, %rbp
	.cfi_def_cfa_register %rbp
	pushq	%rax
	addq	$8, %rsp
	popq	%rbp
	retq
	.cfi_endproc

	.globl	__ZN4core3ptr13drop_in_place17h48e663774389b5c7E
	.p2align	4, 0x90
__ZN4core3ptr13drop_in_place17h48e663774389b5c7E:
Lfunc_begin39:
	.cfi_startproc
	.cfi_personality 155, _rust_eh_personality
	.cfi_lsda 16, Lexception39
	pushq	%rbp
	.cfi_def_cfa_offset 16
	.cfi_offset %rbp, -16
	movq	%rsp, %rbp
	.cfi_def_cfa_register %rbp
	subq	$32, %rsp
	movq	%rdi, %rax
	addq	$24, %rax
Ltmp286:
	movq	%rdi, -32(%rbp)
	movq	%rax, %rdi
	callq	__ZN4core3ptr13drop_in_place17h88e71e72b0ea5240E
Ltmp287:
	jmp	LBB245_4
LBB245_1:
	movq	-16(%rbp), %rdi
	callq	__Unwind_Resume
	ud2
LBB245_2:
	addq	$32, %rsp
	popq	%rbp
	retq
LBB245_3:
	movq	-32(%rbp), %rax
	movq	%rax, %rdi
	callq	__ZN4core3ptr13drop_in_place17ha3724845669282f3E
	jmp	LBB245_1
LBB245_4:
	movq	-32(%rbp), %rax
	movq	%rax, %rdi
	callq	__ZN4core3ptr13drop_in_place17ha3724845669282f3E
	jmp	LBB245_2
LBB245_5:
Ltmp288:
	movq	%rax, -16(%rbp)
	movl	%edx, -8(%rbp)
	jmp	LBB245_3
Lfunc_end39:
	.cfi_endproc
	.section	__TEXT,__gcc_except_tab
	.p2align	2
GCC_except_table245:
Lexception39:
	.byte	255
	.byte	255
	.byte	1
	.uleb128 Lcst_end39-Lcst_begin39
Lcst_begin39:
	.uleb128 Ltmp286-Lfunc_begin39
	.uleb128 Ltmp287-Ltmp286
	.uleb128 Ltmp288-Lfunc_begin39
	.byte	0
	.uleb128 Ltmp287-Lfunc_begin39
	.uleb128 Lfunc_end39-Ltmp287
	.byte	0
	.byte	0
Lcst_end39:
	.p2align	2

	.section	__TEXT,__text,regular,pure_instructions
	.globl	__ZN4core3ptr13drop_in_place17h49706c8d14a2fcfbE
	.p2align	4, 0x90
__ZN4core3ptr13drop_in_place17h49706c8d14a2fcfbE:
Lfunc_begin40:
	.cfi_startproc
	.cfi_personality 155, _rust_eh_personality
	.cfi_lsda 16, Lexception40
	pushq	%rbp
	.cfi_def_cfa_offset 16
	.cfi_offset %rbp, -16
	movq	%rsp, %rbp
	.cfi_def_cfa_register %rbp
	subq	$64, %rsp
	xorl	%eax, %eax
	testb	$1, %al
	movq	%rdi, -56(%rbp)
	movq	%rsi, -64(%rbp)
	jne	LBB246_7
	jmp	LBB246_12
LBB246_1:
	addq	$64, %rsp
	popq	%rbp
	retq
LBB246_2:
	movq	-16(%rbp), %rdi
	callq	__Unwind_Resume
	ud2
LBB246_3:
	movq	-40(%rbp), %rax
	shlq	$5, %rax
	movq	-56(%rbp), %rcx
	addq	%rax, %rcx
	movq	-40(%rbp), %rax
	addq	$1, %rax
	movq	%rax, -40(%rbp)
	movq	%rcx, %rdi
	callq	__ZN4core3ptr13drop_in_place17h1dcbbbbd19dc1d3bE
LBB246_4:
	movq	-64(%rbp), %rax
	cmpq	%rax, -40(%rbp)
	je	LBB246_2
	jmp	LBB246_3
LBB246_5:
	movq	-40(%rbp), %rax
	movq	%rax, %rcx
	shlq	$5, %rcx
	movq	-56(%rbp), %rdx
	addq	%rcx, %rdx
	incq	%rax
	movq	%rax, -40(%rbp)
Ltmp292:
	movq	%rdx, %rdi
	callq	__ZN4core3ptr13drop_in_place17h1dcbbbbd19dc1d3bE
Ltmp293:
	jmp	LBB246_6
LBB246_6:
	movq	-64(%rbp), %rax
	cmpq	%rax, -40(%rbp)
	je	LBB246_1
	jmp	LBB246_5
LBB246_7:
	movq	$0, -40(%rbp)
	jmp	LBB246_6
LBB246_8:
	movq	-32(%rbp), %rdi
	movq	-32(%rbp), %rax
	addq	$32, %rax
	movq	%rax, -32(%rbp)
	callq	__ZN4core3ptr13drop_in_place17h1dcbbbbd19dc1d3bE
LBB246_9:
	movq	-32(%rbp), %rax
	cmpq	-24(%rbp), %rax
	je	LBB246_2
	jmp	LBB246_8
LBB246_10:
	movq	-32(%rbp), %rax
	movq	%rax, %rcx
	addq	$32, %rcx
	movq	%rcx, -32(%rbp)
Ltmp289:
	movq	%rax, %rdi
	callq	__ZN4core3ptr13drop_in_place17h1dcbbbbd19dc1d3bE
Ltmp290:
	jmp	LBB246_11
LBB246_11:
	movq	-32(%rbp), %rax
	cmpq	-24(%rbp), %rax
	je	LBB246_1
	jmp	LBB246_10
LBB246_12:
	movq	-56(%rbp), %rax
	movq	%rax, -32(%rbp)
	movq	-64(%rbp), %rax
	shlq	$5, %rax
	addq	-32(%rbp), %rax
	movq	%rax, -24(%rbp)
	jmp	LBB246_11
LBB246_13:
Ltmp291:
	movq	%rax, -16(%rbp)
	movl	%edx, -8(%rbp)
	jmp	LBB246_9
LBB246_14:
Ltmp294:
	movq	%rax, -16(%rbp)
	movl	%edx, -8(%rbp)
	jmp	LBB246_4
Lfunc_end40:
	.cfi_endproc
	.section	__TEXT,__gcc_except_tab
	.p2align	2
GCC_except_table246:
Lexception40:
	.byte	255
	.byte	255
	.byte	1
	.uleb128 Lcst_end40-Lcst_begin40
Lcst_begin40:
	.uleb128 Lfunc_begin40-Lfunc_begin40
	.uleb128 Ltmp292-Lfunc_begin40
	.byte	0
	.byte	0
	.uleb128 Ltmp292-Lfunc_begin40
	.uleb128 Ltmp293-Ltmp292
	.uleb128 Ltmp294-Lfunc_begin40
	.byte	0
	.uleb128 Ltmp293-Lfunc_begin40
	.uleb128 Ltmp289-Ltmp293
	.byte	0
	.byte	0
	.uleb128 Ltmp289-Lfunc_begin40
	.uleb128 Ltmp290-Ltmp289
	.uleb128 Ltmp291-Lfunc_begin40
	.byte	0
Lcst_end40:
	.p2align	2

	.section	__TEXT,__text,regular,pure_instructions
	.globl	__ZN4core3ptr13drop_in_place17h49fd97b6078de5b8E
	.p2align	4, 0x90
__ZN4core3ptr13drop_in_place17h49fd97b6078de5b8E:
	.cfi_startproc
	pushq	%rbp
	.cfi_def_cfa_offset 16
	.cfi_offset %rbp, -16
	movq	%rsp, %rbp
	.cfi_def_cfa_register %rbp
	subq	$16, %rsp
	callq	__ZN4core3ptr13drop_in_place17hfc345eafb3f7dbb1E
	addq	$16, %rsp
	popq	%rbp
	retq
	.cfi_endproc

	.globl	__ZN4core3ptr13drop_in_place17h5204d08c6212d686E
	.p2align	4, 0x90
__ZN4core3ptr13drop_in_place17h5204d08c6212d686E:
	.cfi_startproc
	pushq	%rbp
	.cfi_def_cfa_offset 16
	.cfi_offset %rbp, -16
	movq	%rsp, %rbp
	.cfi_def_cfa_register %rbp
	subq	$16, %rsp
	addq	$8, %rdi
	callq	__ZN4core3ptr13drop_in_place17h32ee56c6ea57823cE
	addq	$16, %rsp
	popq	%rbp
	retq
	.cfi_endproc

	.globl	__ZN4core3ptr13drop_in_place17h5731d6df0fb83b64E
	.p2align	4, 0x90
__ZN4core3ptr13drop_in_place17h5731d6df0fb83b64E:
Lfunc_begin41:
	.cfi_startproc
	.cfi_personality 155, _rust_eh_personality
	.cfi_lsda 16, Lexception41
	pushq	%rbp
	.cfi_def_cfa_offset 16
	.cfi_offset %rbp, -16
	movq	%rsp, %rbp
	.cfi_def_cfa_register %rbp
	subq	$64, %rsp
	xorl	%eax, %eax
	testb	$1, %al
	movq	%rdi, -56(%rbp)
	movq	%rsi, -64(%rbp)
	jne	LBB249_7
	jmp	LBB249_12
LBB249_1:
	addq	$64, %rsp
	popq	%rbp
	retq
LBB249_2:
	movq	-16(%rbp), %rdi
	callq	__Unwind_Resume
	ud2
LBB249_3:
	imulq	$48, -40(%rbp), %rax
	movq	-56(%rbp), %rcx
	addq	%rax, %rcx
	movq	-40(%rbp), %rax
	addq	$1, %rax
	movq	%rax, -40(%rbp)
	movq	%rcx, %rdi
	callq	__ZN4core3ptr13drop_in_place17hf1782ff03d96ed31E
LBB249_4:
	movq	-64(%rbp), %rax
	cmpq	%rax, -40(%rbp)
	je	LBB249_2
	jmp	LBB249_3
LBB249_5:
	movq	-40(%rbp), %rax
	leaq	(%rax,%rax,2), %rcx
	shlq	$4, %rcx
	movq	-56(%rbp), %rdx
	addq	%rcx, %rdx
	incq	%rax
	movq	%rax, -40(%rbp)
Ltmp298:
	movq	%rdx, %rdi
	callq	__ZN4core3ptr13drop_in_place17hf1782ff03d96ed31E
Ltmp299:
	jmp	LBB249_6
LBB249_6:
	movq	-64(%rbp), %rax
	cmpq	%rax, -40(%rbp)
	je	LBB249_1
	jmp	LBB249_5
LBB249_7:
	movq	$0, -40(%rbp)
	jmp	LBB249_6
LBB249_8:
	movq	-32(%rbp), %rdi
	movq	-32(%rbp), %rax
	addq	$48, %rax
	movq	%rax, -32(%rbp)
	callq	__ZN4core3ptr13drop_in_place17hf1782ff03d96ed31E
LBB249_9:
	movq	-32(%rbp), %rax
	cmpq	-24(%rbp), %rax
	je	LBB249_2
	jmp	LBB249_8
LBB249_10:
	movq	-32(%rbp), %rax
	movq	%rax, %rcx
	addq	$48, %rcx
	movq	%rcx, -32(%rbp)
Ltmp295:
	movq	%rax, %rdi
	callq	__ZN4core3ptr13drop_in_place17hf1782ff03d96ed31E
Ltmp296:
	jmp	LBB249_11
LBB249_11:
	movq	-32(%rbp), %rax
	cmpq	-24(%rbp), %rax
	je	LBB249_1
	jmp	LBB249_10
LBB249_12:
	movq	-56(%rbp), %rax
	movq	%rax, -32(%rbp)
	movq	-64(%rbp), %rax
	imulq	$48, %rax, %rcx
	addq	-32(%rbp), %rcx
	movq	%rcx, -24(%rbp)
	jmp	LBB249_11
LBB249_13:
Ltmp297:
	movq	%rax, -16(%rbp)
	movl	%edx, -8(%rbp)
	jmp	LBB249_9
LBB249_14:
Ltmp300:
	movq	%rax, -16(%rbp)
	movl	%edx, -8(%rbp)
	jmp	LBB249_4
Lfunc_end41:
	.cfi_endproc
	.section	__TEXT,__gcc_except_tab
	.p2align	2
GCC_except_table249:
Lexception41:
	.byte	255
	.byte	255
	.byte	1
	.uleb128 Lcst_end41-Lcst_begin41
Lcst_begin41:
	.uleb128 Lfunc_begin41-Lfunc_begin41
	.uleb128 Ltmp298-Lfunc_begin41
	.byte	0
	.byte	0
	.uleb128 Ltmp298-Lfunc_begin41
	.uleb128 Ltmp299-Ltmp298
	.uleb128 Ltmp300-Lfunc_begin41
	.byte	0
	.uleb128 Ltmp299-Lfunc_begin41
	.uleb128 Ltmp295-Ltmp299
	.byte	0
	.byte	0
	.uleb128 Ltmp295-Lfunc_begin41
	.uleb128 Ltmp296-Ltmp295
	.uleb128 Ltmp297-Lfunc_begin41
	.byte	0
Lcst_end41:
	.p2align	2

	.section	__TEXT,__text,regular,pure_instructions
	.p2align	4, 0x90
__ZN4core3ptr13drop_in_place17h5be783872d9e9aabE:
	.cfi_startproc
	pushq	%rbp
	.cfi_def_cfa_offset 16
	.cfi_offset %rbp, -16
	movq	%rsp, %rbp
	.cfi_def_cfa_register %rbp
	pushq	%rax
	addq	$8, %rsp
	popq	%rbp
	retq
	.cfi_endproc

	.globl	__ZN4core3ptr13drop_in_place17h5c13604cf98488f7E
	.p2align	4, 0x90
__ZN4core3ptr13drop_in_place17h5c13604cf98488f7E:
	.cfi_startproc
	pushq	%rbp
	.cfi_def_cfa_offset 16
	.cfi_offset %rbp, -16
	movq	%rsp, %rbp
	.cfi_def_cfa_register %rbp
	subq	$16, %rsp
	xorl	%eax, %eax
	movl	%eax, %ecx
	movl	(%rdi), %eax
	subl	$4, %eax
	cmpl	$0, %eax
	movl	$1, %edx
	cmovbeq	%rcx, %rdx
	cmpq	$0, %rdx
	movq	%rdi, -16(%rbp)
	jne	LBB251_2
LBB251_1:
	addq	$16, %rsp
	popq	%rbp
	retq
LBB251_2:
	movq	-16(%rbp), %rax
	movq	%rax, %rdi
	callq	__ZN4core3ptr13drop_in_place17hafdace3cf3cd2656E
	jmp	LBB251_1
	.cfi_endproc

	.p2align	4, 0x90
__ZN4core3ptr13drop_in_place17h5ef6b1d430cd1044E:
	.cfi_startproc
	pushq	%rbp
	.cfi_def_cfa_offset 16
	.cfi_offset %rbp, -16
	movq	%rsp, %rbp
	.cfi_def_cfa_register %rbp
	pushq	%rax
	addq	$8, %rsp
	popq	%rbp
	retq
	.cfi_endproc

	.globl	__ZN4core3ptr13drop_in_place17h603637a14565bb0dE
	.p2align	4, 0x90
__ZN4core3ptr13drop_in_place17h603637a14565bb0dE:
	.cfi_startproc
	pushq	%rbp
	.cfi_def_cfa_offset 16
	.cfi_offset %rbp, -16
	movq	%rsp, %rbp
	.cfi_def_cfa_register %rbp
	subq	$16, %rsp
	callq	__ZN77_$LT$proc_macro..bridge..client..Literal$u20$as$u20$core..ops..drop..Drop$GT$4drop17h67f363b7654b0d27E
	addq	$16, %rsp
	popq	%rbp
	retq
	.cfi_endproc

	.globl	__ZN4core3ptr13drop_in_place17h64076cb37229ea5dE
	.p2align	4, 0x90
__ZN4core3ptr13drop_in_place17h64076cb37229ea5dE:
Lfunc_begin42:
	.cfi_startproc
	.cfi_personality 155, _rust_eh_personality
	.cfi_lsda 16, Lexception42
	pushq	%rbp
	.cfi_def_cfa_offset 16
	.cfi_offset %rbp, -16
	movq	%rsp, %rbp
	.cfi_def_cfa_register %rbp
	subq	$32, %rsp
	movq	(%rdi), %rax
	movq	8(%rdi), %rcx
	movq	(%rcx), %rcx
Ltmp301:
	movq	%rdi, -32(%rbp)
	movq	%rax, %rdi
	callq	*%rcx
Ltmp302:
	jmp	LBB254_3
LBB254_1:
	addq	$32, %rsp
	popq	%rbp
	retq
LBB254_2:
	movq	-16(%rbp), %rdi
	callq	__Unwind_Resume
	ud2
LBB254_3:
	movq	-32(%rbp), %rax
	movq	(%rax), %rdi
	movq	8(%rax), %rsi
	callq	__ZN5alloc5alloc8box_free17hbaea8dbdac5a9e58E
	jmp	LBB254_1
LBB254_4:
	movq	-32(%rbp), %rax
	movq	(%rax), %rdi
	movq	8(%rax), %rsi
	callq	__ZN5alloc5alloc8box_free17hbaea8dbdac5a9e58E
	jmp	LBB254_2
LBB254_5:
Ltmp303:
	movq	%rax, -16(%rbp)
	movl	%edx, -8(%rbp)
	jmp	LBB254_4
Lfunc_end42:
	.cfi_endproc
	.section	__TEXT,__gcc_except_tab
	.p2align	2
GCC_except_table254:
Lexception42:
	.byte	255
	.byte	255
	.byte	1
	.uleb128 Lcst_end42-Lcst_begin42
Lcst_begin42:
	.uleb128 Ltmp301-Lfunc_begin42
	.uleb128 Ltmp302-Ltmp301
	.uleb128 Ltmp303-Lfunc_begin42
	.byte	0
	.uleb128 Ltmp302-Lfunc_begin42
	.uleb128 Lfunc_end42-Ltmp302
	.byte	0
	.byte	0
Lcst_end42:
	.p2align	2

	.section	__TEXT,__text,regular,pure_instructions
	.globl	__ZN4core3ptr13drop_in_place17h68d216c9187eabc9E
	.p2align	4, 0x90
__ZN4core3ptr13drop_in_place17h68d216c9187eabc9E:
	.cfi_startproc
	pushq	%rbp
	.cfi_def_cfa_offset 16
	.cfi_offset %rbp, -16
	movq	%rsp, %rbp
	.cfi_def_cfa_register %rbp
	subq	$16, %rsp
	movb	(%rdi), %al
	andb	$1, %al
	movzbl	%al, %ecx
	movl	%ecx, %edx
	cmpq	$0, %rdx
	movq	%rdi, -16(%rbp)
	je	LBB255_2
LBB255_1:
	addq	$16, %rsp
	popq	%rbp
	retq
LBB255_2:
	movq	-16(%rbp), %rax
	addq	$4, %rax
	movq	%rax, %rdi
	callq	__ZN4core3ptr13drop_in_place17h88e71e72b0ea5240E
	jmp	LBB255_1
	.cfi_endproc

	.globl	__ZN4core3ptr13drop_in_place17h78bbfb8e516ac09bE
	.p2align	4, 0x90
__ZN4core3ptr13drop_in_place17h78bbfb8e516ac09bE:
	.cfi_startproc
	pushq	%rbp
	.cfi_def_cfa_offset 16
	.cfi_offset %rbp, -16
	movq	%rsp, %rbp
	.cfi_def_cfa_register %rbp
	subq	$16, %rsp
	xorl	%eax, %eax
	movl	%eax, %ecx
	cmpl	$0, (%rdi)
	movl	$1, %edx
	cmovbeq	%rcx, %rdx
	cmpq	$0, %rdx
	movq	%rdi, -16(%rbp)
	jne	LBB256_2
LBB256_1:
	addq	$16, %rsp
	popq	%rbp
	retq
LBB256_2:
	movq	-16(%rbp), %rax
	movq	%rax, %rdi
	callq	__ZN4core3ptr13drop_in_place17h88e71e72b0ea5240E
	jmp	LBB256_1
	.cfi_endproc

	.globl	__ZN4core3ptr13drop_in_place17h7be6f0c0e1460aecE
	.p2align	4, 0x90
__ZN4core3ptr13drop_in_place17h7be6f0c0e1460aecE:
	.cfi_startproc
	pushq	%rbp
	.cfi_def_cfa_offset 16
	.cfi_offset %rbp, -16
	movq	%rsp, %rbp
	.cfi_def_cfa_register %rbp
	subq	$16, %rsp
	addq	$16, %rdi
	callq	__ZN4core3ptr13drop_in_place17h3bb51baf77d3a3daE
	addq	$16, %rsp
	popq	%rbp
	retq
	.cfi_endproc

	.globl	__ZN4core3ptr13drop_in_place17h7d04f6e002bb7971E
	.p2align	4, 0x90
__ZN4core3ptr13drop_in_place17h7d04f6e002bb7971E:
	.cfi_startproc
	pushq	%rbp
	.cfi_def_cfa_offset 16
	.cfi_offset %rbp, -16
	movq	%rsp, %rbp
	.cfi_def_cfa_register %rbp
	subq	$16, %rsp
	callq	__ZN4core3ptr13drop_in_place17h603637a14565bb0dE
	addq	$16, %rsp
	popq	%rbp
	retq
	.cfi_endproc

	.globl	__ZN4core3ptr13drop_in_place17h8155ffe90a5333a3E
	.p2align	4, 0x90
__ZN4core3ptr13drop_in_place17h8155ffe90a5333a3E:
	.cfi_startproc
	pushq	%rbp
	.cfi_def_cfa_offset 16
	.cfi_offset %rbp, -16
	movq	%rsp, %rbp
	.cfi_def_cfa_register %rbp
	subq	$16, %rsp
	movl	(%rdi), %eax
	movl	%eax, %ecx
	cmpq	$0, %rcx
	movq	%rdi, -16(%rbp)
	jne	LBB259_2
LBB259_1:
	addq	$16, %rsp
	popq	%rbp
	retq
LBB259_2:
	movq	-16(%rbp), %rax
	addq	$8, %rax
	movq	%rax, %rdi
	callq	__ZN4core3ptr13drop_in_place17hc96d5d0c3d72d3d6E
	jmp	LBB259_1
	.cfi_endproc

	.p2align	4, 0x90
__ZN4core3ptr13drop_in_place17h82dfc8f591e21b8cE:
	.cfi_startproc
	pushq	%rbp
	.cfi_def_cfa_offset 16
	.cfi_offset %rbp, -16
	movq	%rsp, %rbp
	.cfi_def_cfa_register %rbp
	pushq	%rax
	addq	$8, %rsp
	popq	%rbp
	retq
	.cfi_endproc

	.globl	__ZN4core3ptr13drop_in_place17h883919a024d89158E
	.p2align	4, 0x90
__ZN4core3ptr13drop_in_place17h883919a024d89158E:
Lfunc_begin43:
	.cfi_startproc
	.cfi_personality 155, _rust_eh_personality
	.cfi_lsda 16, Lexception43
	pushq	%rbp
	.cfi_def_cfa_offset 16
	.cfi_offset %rbp, -16
	movq	%rsp, %rbp
	.cfi_def_cfa_register %rbp
	subq	$32, %rsp
Ltmp304:
	movq	%rdi, -32(%rbp)
	callq	__ZN66_$LT$alloc..vec..Vec$LT$T$GT$$u20$as$u20$core..ops..drop..Drop$GT$4drop17h7457c7a0dd55d117E
Ltmp305:
	jmp	LBB261_4
LBB261_1:
	movq	-16(%rbp), %rdi
	callq	__Unwind_Resume
	ud2
LBB261_2:
	addq	$32, %rsp
	popq	%rbp
	retq
LBB261_3:
	movq	-32(%rbp), %rax
	movq	%rax, %rdi
	callq	__ZN4core3ptr13drop_in_place17hc98b46cf828a363dE
	jmp	LBB261_1
LBB261_4:
	movq	-32(%rbp), %rax
	movq	%rax, %rdi
	callq	__ZN4core3ptr13drop_in_place17hc98b46cf828a363dE
	jmp	LBB261_2
LBB261_5:
Ltmp306:
	movq	%rax, -16(%rbp)
	movl	%edx, -8(%rbp)
	jmp	LBB261_3
Lfunc_end43:
	.cfi_endproc
	.section	__TEXT,__gcc_except_tab
	.p2align	2
GCC_except_table261:
Lexception43:
	.byte	255
	.byte	255
	.byte	1
	.uleb128 Lcst_end43-Lcst_begin43
Lcst_begin43:
	.uleb128 Ltmp304-Lfunc_begin43
	.uleb128 Ltmp305-Ltmp304
	.uleb128 Ltmp306-Lfunc_begin43
	.byte	0
	.uleb128 Ltmp305-Lfunc_begin43
	.uleb128 Lfunc_end43-Ltmp305
	.byte	0
	.byte	0
Lcst_end43:
	.p2align	2

	.section	__TEXT,__text,regular,pure_instructions
	.globl	__ZN4core3ptr13drop_in_place17h88e71e72b0ea5240E
	.p2align	4, 0x90
__ZN4core3ptr13drop_in_place17h88e71e72b0ea5240E:
	.cfi_startproc
	pushq	%rbp
	.cfi_def_cfa_offset 16
	.cfi_offset %rbp, -16
	movq	%rsp, %rbp
	.cfi_def_cfa_register %rbp
	subq	$16, %rsp
	callq	__ZN4core3ptr13drop_in_place17hb44b02ff6cfdbedaE
	addq	$16, %rsp
	popq	%rbp
	retq
	.cfi_endproc

	.globl	__ZN4core3ptr13drop_in_place17h8b912b116160f67aE
	.p2align	4, 0x90
__ZN4core3ptr13drop_in_place17h8b912b116160f67aE:
	.cfi_startproc
	pushq	%rbp
	.cfi_def_cfa_offset 16
	.cfi_offset %rbp, -16
	movq	%rsp, %rbp
	.cfi_def_cfa_register %rbp
	subq	$16, %rsp
	callq	__ZN75_$LT$proc_macro..bridge..client..Group$u20$as$u20$core..ops..drop..Drop$GT$4drop17hf4419b4f8bb8f4eeE
	addq	$16, %rsp
	popq	%rbp
	retq
	.cfi_endproc

	.globl	__ZN4core3ptr13drop_in_place17h8c396c26f1957f40E
	.p2align	4, 0x90
__ZN4core3ptr13drop_in_place17h8c396c26f1957f40E:
	.cfi_startproc
	pushq	%rbp
	.cfi_def_cfa_offset 16
	.cfi_offset %rbp, -16
	movq	%rsp, %rbp
	.cfi_def_cfa_register %rbp
	subq	$16, %rsp
	callq	__ZN138_$LT$$LT$alloc..vec..IntoIter$LT$T$GT$$u20$as$u20$core..ops..drop..Drop$GT$..drop..DropGuard$LT$T$GT$$u20$as$u20$core..ops..drop..Drop$GT$4drop17hf388c3cf1410fa2aE
	addq	$16, %rsp
	popq	%rbp
	retq
	.cfi_endproc

	.globl	__ZN4core3ptr13drop_in_place17h8e93f82dc0e2b347E
	.p2align	4, 0x90
__ZN4core3ptr13drop_in_place17h8e93f82dc0e2b347E:
	.cfi_startproc
	pushq	%rbp
	.cfi_def_cfa_offset 16
	.cfi_offset %rbp, -16
	movq	%rsp, %rbp
	.cfi_def_cfa_register %rbp
	subq	$16, %rsp
	callq	*(%rsi)
	addq	$16, %rsp
	popq	%rbp
	retq
	.cfi_endproc

	.globl	__ZN4core3ptr13drop_in_place17h947388e948ae2d51E
	.p2align	4, 0x90
__ZN4core3ptr13drop_in_place17h947388e948ae2d51E:
	.cfi_startproc
	pushq	%rbp
	.cfi_def_cfa_offset 16
	.cfi_offset %rbp, -16
	movq	%rsp, %rbp
	.cfi_def_cfa_register %rbp
	subq	$16, %rsp
	xorl	%eax, %eax
	movl	%eax, %ecx
	cmpq	$0, 16(%rdi)
	movl	$1, %edx
	cmovbeq	%rcx, %rdx
	cmpq	$0, %rdx
	movq	%rdi, -16(%rbp)
	jne	LBB266_2
LBB266_1:
	addq	$16, %rsp
	popq	%rbp
	retq
LBB266_2:
	movq	-16(%rbp), %rax
	movq	%rax, %rdi
	callq	__ZN4core3ptr13drop_in_place17h49fd97b6078de5b8E
	jmp	LBB266_1
	.cfi_endproc

	.globl	__ZN4core3ptr13drop_in_place17h95311a5950a864beE
	.p2align	4, 0x90
__ZN4core3ptr13drop_in_place17h95311a5950a864beE:
	.cfi_startproc
	pushq	%rbp
	.cfi_def_cfa_offset 16
	.cfi_offset %rbp, -16
	movq	%rsp, %rbp
	.cfi_def_cfa_register %rbp
	subq	$16, %rsp
	callq	__ZN4core3ptr13drop_in_place17h060e14148db73398E
	addq	$16, %rsp
	popq	%rbp
	retq
	.cfi_endproc

	.p2align	4, 0x90
__ZN4core3ptr13drop_in_place17ha280d61713f05167E:
	.cfi_startproc
	pushq	%rbp
	.cfi_def_cfa_offset 16
	.cfi_offset %rbp, -16
	movq	%rsp, %rbp
	.cfi_def_cfa_register %rbp
	pushq	%rax
	addq	$8, %rsp
	popq	%rbp
	retq
	.cfi_endproc

	.globl	__ZN4core3ptr13drop_in_place17ha3724845669282f3E
	.p2align	4, 0x90
__ZN4core3ptr13drop_in_place17ha3724845669282f3E:
Lfunc_begin44:
	.cfi_startproc
	.cfi_personality 155, _rust_eh_personality
	.cfi_lsda 16, Lexception44
	pushq	%rbp
	.cfi_def_cfa_offset 16
	.cfi_offset %rbp, -16
	movq	%rsp, %rbp
	.cfi_def_cfa_register %rbp
	subq	$32, %rsp
Ltmp307:
	movq	%rdi, -32(%rbp)
	callq	__ZN66_$LT$alloc..vec..Vec$LT$T$GT$$u20$as$u20$core..ops..drop..Drop$GT$4drop17hc9dde9f178f6f1faE
Ltmp308:
	jmp	LBB269_4
LBB269_1:
	movq	-16(%rbp), %rdi
	callq	__Unwind_Resume
	ud2
LBB269_2:
	addq	$32, %rsp
	popq	%rbp
	retq
LBB269_3:
	movq	-32(%rbp), %rax
	movq	%rax, %rdi
	callq	__ZN4core3ptr13drop_in_place17h2d72af7582ff0dbaE
	jmp	LBB269_1
LBB269_4:
	movq	-32(%rbp), %rax
	movq	%rax, %rdi
	callq	__ZN4core3ptr13drop_in_place17h2d72af7582ff0dbaE
	jmp	LBB269_2
LBB269_5:
Ltmp309:
	movq	%rax, -16(%rbp)
	movl	%edx, -8(%rbp)
	jmp	LBB269_3
Lfunc_end44:
	.cfi_endproc
	.section	__TEXT,__gcc_except_tab
	.p2align	2
GCC_except_table269:
Lexception44:
	.byte	255
	.byte	255
	.byte	1
	.uleb128 Lcst_end44-Lcst_begin44
Lcst_begin44:
	.uleb128 Ltmp307-Lfunc_begin44
	.uleb128 Ltmp308-Ltmp307
	.uleb128 Ltmp309-Lfunc_begin44
	.byte	0
	.uleb128 Ltmp308-Lfunc_begin44
	.uleb128 Lfunc_end44-Ltmp308
	.byte	0
	.byte	0
Lcst_end44:
	.p2align	2

	.section	__TEXT,__text,regular,pure_instructions
	.globl	__ZN4core3ptr13drop_in_place17ha961518a483c265aE
	.p2align	4, 0x90
__ZN4core3ptr13drop_in_place17ha961518a483c265aE:
	.cfi_startproc
	pushq	%rbp
	.cfi_def_cfa_offset 16
	.cfi_offset %rbp, -16
	movq	%rsp, %rbp
	.cfi_def_cfa_register %rbp
	subq	$16, %rsp
	callq	__ZN4core3ptr13drop_in_place17h95311a5950a864beE
	addq	$16, %rsp
	popq	%rbp
	retq
	.cfi_endproc

	.globl	__ZN4core3ptr13drop_in_place17hab7bc10a71be184fE
	.p2align	4, 0x90
__ZN4core3ptr13drop_in_place17hab7bc10a71be184fE:
	.cfi_startproc
	pushq	%rbp
	.cfi_def_cfa_offset 16
	.cfi_offset %rbp, -16
	movq	%rsp, %rbp
	.cfi_def_cfa_register %rbp
	subq	$16, %rsp
	callq	__ZN85_$LT$proc_macro..bridge..client..TokenStreamIter$u20$as$u20$core..ops..drop..Drop$GT$4drop17h3db772d190820666E
	addq	$16, %rsp
	popq	%rbp
	retq
	.cfi_endproc

	.globl	__ZN4core3ptr13drop_in_place17haded8e989617feeeE
	.p2align	4, 0x90
__ZN4core3ptr13drop_in_place17haded8e989617feeeE:
	.cfi_startproc
	pushq	%rbp
	.cfi_def_cfa_offset 16
	.cfi_offset %rbp, -16
	movq	%rsp, %rbp
	.cfi_def_cfa_register %rbp
	subq	$16, %rsp
	movl	(%rdi), %eax
	movl	%eax, %ecx
	cmpq	$0, %rcx
	movq	%rdi, -16(%rbp)
	je	LBB272_2
	jmp	LBB272_3
LBB272_1:
	addq	$16, %rsp
	popq	%rbp
	retq
LBB272_2:
	movq	-16(%rbp), %rax
	addq	$4, %rax
	movq	%rax, %rdi
	callq	__ZN4core3ptr13drop_in_place17hc9607daaf4371548E
	jmp	LBB272_1
LBB272_3:
	movq	-16(%rbp), %rax
	addq	$8, %rax
	movq	%rax, %rdi
	callq	__ZN4core3ptr13drop_in_place17h474c2f3e66c73672E
	jmp	LBB272_1
	.cfi_endproc

	.globl	__ZN4core3ptr13drop_in_place17hae674e460061c33fE
	.p2align	4, 0x90
__ZN4core3ptr13drop_in_place17hae674e460061c33fE:
	.cfi_startproc
	pushq	%rbp
	.cfi_def_cfa_offset 16
	.cfi_offset %rbp, -16
	movq	%rsp, %rbp
	.cfi_def_cfa_register %rbp
	subq	$16, %rsp
	addq	$16, %rdi
	callq	__ZN4core3ptr13drop_in_place17h12dea03ec8ac22aeE
	addq	$16, %rsp
	popq	%rbp
	retq
	.cfi_endproc

	.globl	__ZN4core3ptr13drop_in_place17hafdace3cf3cd2656E
	.p2align	4, 0x90
__ZN4core3ptr13drop_in_place17hafdace3cf3cd2656E:
	.cfi_startproc
	pushq	%rbp
	.cfi_def_cfa_offset 16
	.cfi_offset %rbp, -16
	movq	%rsp, %rbp
	.cfi_def_cfa_register %rbp
	subq	$32, %rsp
	movl	(%rdi), %eax
	movl	%eax, %ecx
	testq	%rcx, %rcx
	movq	%rdi, -16(%rbp)
	movq	%rcx, -24(%rbp)
	je	LBB274_2
	jmp	LBB274_4
LBB274_4:
	movq	-24(%rbp), %rax
	decq	%rax
	subq	$1, %rax
	ja	LBB274_3
	jmp	LBB274_1
LBB274_1:
	addq	$32, %rsp
	popq	%rbp
	retq
LBB274_2:
	movq	-16(%rbp), %rax
	addq	$4, %rax
	movq	%rax, %rdi
	callq	__ZN4core3ptr13drop_in_place17hc9607daaf4371548E
	jmp	LBB274_1
LBB274_3:
	movq	-16(%rbp), %rax
	addq	$4, %rax
	movq	%rax, %rdi
	callq	__ZN4core3ptr13drop_in_place17h7d04f6e002bb7971E
	jmp	LBB274_1
	.cfi_endproc

	.globl	__ZN4core3ptr13drop_in_place17hb44b02ff6cfdbedaE
	.p2align	4, 0x90
__ZN4core3ptr13drop_in_place17hb44b02ff6cfdbedaE:
	.cfi_startproc
	pushq	%rbp
	.cfi_def_cfa_offset 16
	.cfi_offset %rbp, -16
	movq	%rsp, %rbp
	.cfi_def_cfa_register %rbp
	subq	$16, %rsp
	callq	__ZN81_$LT$proc_macro..bridge..client..TokenStream$u20$as$u20$core..ops..drop..Drop$GT$4drop17h294a054ec621ad3aE
	addq	$16, %rsp
	popq	%rbp
	retq
	.cfi_endproc

	.globl	__ZN4core3ptr13drop_in_place17hb8e47ec6cb220ea0E
	.p2align	4, 0x90
__ZN4core3ptr13drop_in_place17hb8e47ec6cb220ea0E:
	.cfi_startproc
	pushq	%rbp
	.cfi_def_cfa_offset 16
	.cfi_offset %rbp, -16
	movq	%rsp, %rbp
	.cfi_def_cfa_register %rbp
	subq	$16, %rsp
	callq	__ZN71_$LT$alloc..vec..IntoIter$LT$T$GT$$u20$as$u20$core..ops..drop..Drop$GT$4drop17hcdbecb23cc444d9dE
	addq	$16, %rsp
	popq	%rbp
	retq
	.cfi_endproc

	.p2align	4, 0x90
__ZN4core3ptr13drop_in_place17hbe9245fc1dac2395E:
	.cfi_startproc
	pushq	%rbp
	.cfi_def_cfa_offset 16
	.cfi_offset %rbp, -16
	movq	%rsp, %rbp
	.cfi_def_cfa_register %rbp
	pushq	%rax
	addq	$8, %rsp
	popq	%rbp
	retq
	.cfi_endproc

	.globl	__ZN4core3ptr13drop_in_place17hbedc44a437f05bfbE
	.p2align	4, 0x90
__ZN4core3ptr13drop_in_place17hbedc44a437f05bfbE:
	.cfi_startproc
	pushq	%rbp
	.cfi_def_cfa_offset 16
	.cfi_offset %rbp, -16
	movq	%rsp, %rbp
	.cfi_def_cfa_register %rbp
	subq	$16, %rsp
	addq	$8, %rdi
	callq	__ZN4core3ptr13drop_in_place17h32ee56c6ea57823cE
	addq	$16, %rsp
	popq	%rbp
	retq
	.cfi_endproc

	.globl	__ZN4core3ptr13drop_in_place17hc5bac1a3836d3cfaE
	.p2align	4, 0x90
__ZN4core3ptr13drop_in_place17hc5bac1a3836d3cfaE:
	.cfi_startproc
	pushq	%rbp
	.cfi_def_cfa_offset 16
	.cfi_offset %rbp, -16
	movq	%rsp, %rbp
	.cfi_def_cfa_register %rbp
	subq	$16, %rsp
	callq	__ZN4core3ptr13drop_in_place17hd900775e97468350E
	addq	$16, %rsp
	popq	%rbp
	retq
	.cfi_endproc

	.globl	__ZN4core3ptr13drop_in_place17hc9607daaf4371548E
	.p2align	4, 0x90
__ZN4core3ptr13drop_in_place17hc9607daaf4371548E:
	.cfi_startproc
	pushq	%rbp
	.cfi_def_cfa_offset 16
	.cfi_offset %rbp, -16
	movq	%rsp, %rbp
	.cfi_def_cfa_register %rbp
	subq	$16, %rsp
	callq	__ZN4core3ptr13drop_in_place17h8b912b116160f67aE
	addq	$16, %rsp
	popq	%rbp
	retq
	.cfi_endproc

	.globl	__ZN4core3ptr13drop_in_place17hc96d5d0c3d72d3d6E
	.p2align	4, 0x90
__ZN4core3ptr13drop_in_place17hc96d5d0c3d72d3d6E:
	.cfi_startproc
	pushq	%rbp
	.cfi_def_cfa_offset 16
	.cfi_offset %rbp, -16
	movq	%rsp, %rbp
	.cfi_def_cfa_register %rbp
	subq	$16, %rsp
	callq	__ZN4core3ptr13drop_in_place17h06786e25de60db61E
	addq	$16, %rsp
	popq	%rbp
	retq
	.cfi_endproc

	.globl	__ZN4core3ptr13drop_in_place17hc973f7c640d33083E
	.p2align	4, 0x90
__ZN4core3ptr13drop_in_place17hc973f7c640d33083E:
	.cfi_startproc
	pushq	%rbp
	.cfi_def_cfa_offset 16
	.cfi_offset %rbp, -16
	movq	%rsp, %rbp
	.cfi_def_cfa_register %rbp
	subq	$16, %rsp
	movl	(%rdi), %eax
	movl	%eax, %ecx
	cmpq	$0, %rcx
	movq	%rdi, -16(%rbp)
	jne	LBB282_2
LBB282_1:
	addq	$16, %rsp
	popq	%rbp
	retq
LBB282_2:
	movq	-16(%rbp), %rax
	addq	$8, %rax
	movq	%rax, %rdi
	callq	__ZN4core3ptr13drop_in_place17hfe2a66114290b79aE
	jmp	LBB282_1
	.cfi_endproc

	.globl	__ZN4core3ptr13drop_in_place17hc98b46cf828a363dE
	.p2align	4, 0x90
__ZN4core3ptr13drop_in_place17hc98b46cf828a363dE:
	.cfi_startproc
	pushq	%rbp
	.cfi_def_cfa_offset 16
	.cfi_offset %rbp, -16
	movq	%rsp, %rbp
	.cfi_def_cfa_register %rbp
	subq	$16, %rsp
	callq	__ZN77_$LT$alloc..raw_vec..RawVec$LT$T$C$A$GT$$u20$as$u20$core..ops..drop..Drop$GT$4drop17hf34cefa3ed2d0aedE
	addq	$16, %rsp
	popq	%rbp
	retq
	.cfi_endproc

	.globl	__ZN4core3ptr13drop_in_place17hcef9bb7f82b2a83bE
	.p2align	4, 0x90
__ZN4core3ptr13drop_in_place17hcef9bb7f82b2a83bE:
	.cfi_startproc
	pushq	%rbp
	.cfi_def_cfa_offset 16
	.cfi_offset %rbp, -16
	movq	%rsp, %rbp
	.cfi_def_cfa_register %rbp
	subq	$16, %rsp
	callq	__ZN4core3ptr13drop_in_place17h1e071c37eecd7935E
	addq	$16, %rsp
	popq	%rbp
	retq
	.cfi_endproc

	.globl	__ZN4core3ptr13drop_in_place17hd900775e97468350E
	.p2align	4, 0x90
__ZN4core3ptr13drop_in_place17hd900775e97468350E:
	.cfi_startproc
	pushq	%rbp
	.cfi_def_cfa_offset 16
	.cfi_offset %rbp, -16
	movq	%rsp, %rbp
	.cfi_def_cfa_register %rbp
	subq	$16, %rsp
	movl	(%rdi), %eax
	movl	%eax, %ecx
	cmpq	$0, %rcx
	movq	%rdi, -16(%rbp)
	je	LBB285_2
	jmp	LBB285_3
LBB285_1:
	addq	$16, %rsp
	popq	%rbp
	retq
LBB285_2:
	movq	-16(%rbp), %rax
	addq	$4, %rax
	movq	%rax, %rdi
	callq	__ZN4core3ptr13drop_in_place17h0b040deb864575a3E
	jmp	LBB285_1
LBB285_3:
	movq	-16(%rbp), %rax
	addq	$8, %rax
	movq	%rax, %rdi
	callq	__ZN4core3ptr13drop_in_place17hb8e47ec6cb220ea0E
	jmp	LBB285_1
	.cfi_endproc

	.globl	__ZN4core3ptr13drop_in_place17hd90b71ed6d9647c2E
	.p2align	4, 0x90
__ZN4core3ptr13drop_in_place17hd90b71ed6d9647c2E:
	.cfi_startproc
	pushq	%rbp
	.cfi_def_cfa_offset 16
	.cfi_offset %rbp, -16
	movq	%rsp, %rbp
	.cfi_def_cfa_register %rbp
	subq	$16, %rsp
	xorl	%eax, %eax
	movl	%eax, %ecx
	movl	(%rdi), %eax
	subl	$4, %eax
	cmpl	$0, %eax
	movl	$1, %edx
	cmovbeq	%rcx, %rdx
	cmpq	$0, %rdx
	movq	%rdi, -16(%rbp)
	jne	LBB286_2
LBB286_1:
	addq	$16, %rsp
	popq	%rbp
	retq
LBB286_2:
	movq	-16(%rbp), %rax
	movq	%rax, %rdi
	callq	__ZN4core3ptr13drop_in_place17hf1782ff03d96ed31E
	jmp	LBB286_1
	.cfi_endproc

	.p2align	4, 0x90
__ZN4core3ptr13drop_in_place17hdc43b3e06dff92bcE:
	.cfi_startproc
	pushq	%rbp
	.cfi_def_cfa_offset 16
	.cfi_offset %rbp, -16
	movq	%rsp, %rbp
	.cfi_def_cfa_register %rbp
	pushq	%rax
	addq	$8, %rsp
	popq	%rbp
	retq
	.cfi_endproc

	.p2align	4, 0x90
__ZN4core3ptr13drop_in_place17hdee68bd707fe93dfE:
	.cfi_startproc
	pushq	%rbp
	.cfi_def_cfa_offset 16
	.cfi_offset %rbp, -16
	movq	%rsp, %rbp
	.cfi_def_cfa_register %rbp
	pushq	%rax
	addq	$8, %rsp
	popq	%rbp
	retq
	.cfi_endproc

	.globl	__ZN4core3ptr13drop_in_place17he13c2a2a1468ff50E
	.p2align	4, 0x90
__ZN4core3ptr13drop_in_place17he13c2a2a1468ff50E:
	.cfi_startproc
	pushq	%rbp
	.cfi_def_cfa_offset 16
	.cfi_offset %rbp, -16
	movq	%rsp, %rbp
	.cfi_def_cfa_register %rbp
	subq	$16, %rsp
	movl	(%rdi), %eax
	movl	%eax, %ecx
	cmpq	$0, %rcx
	movq	%rdi, -16(%rbp)
	je	LBB289_2
	jmp	LBB289_3
LBB289_1:
	addq	$16, %rsp
	popq	%rbp
	retq
LBB289_2:
	movq	-16(%rbp), %rax
	addq	$4, %rax
	movq	%rax, %rdi
	callq	__ZN4core3ptr13drop_in_place17h68d216c9187eabc9E
	jmp	LBB289_1
LBB289_3:
	movq	-16(%rbp), %rax
	addq	$8, %rax
	movq	%rax, %rdi
	callq	__ZN4core3ptr13drop_in_place17hfe2a66114290b79aE
	jmp	LBB289_1
	.cfi_endproc

	.globl	__ZN4core3ptr13drop_in_place17he2791d956aaf4892E
	.p2align	4, 0x90
__ZN4core3ptr13drop_in_place17he2791d956aaf4892E:
	.cfi_startproc
	pushq	%rbp
	.cfi_def_cfa_offset 16
	.cfi_offset %rbp, -16
	movq	%rsp, %rbp
	.cfi_def_cfa_register %rbp
	subq	$16, %rsp
	callq	__ZN4core3ptr13drop_in_place17h5204d08c6212d686E
	addq	$16, %rsp
	popq	%rbp
	retq
	.cfi_endproc

	.globl	__ZN4core3ptr13drop_in_place17hedfad1a1d0255c30E
	.p2align	4, 0x90
__ZN4core3ptr13drop_in_place17hedfad1a1d0255c30E:
Lfunc_begin45:
	.cfi_startproc
	.cfi_personality 155, _rust_eh_personality
	.cfi_lsda 16, Lexception45
	pushq	%rbp
	.cfi_def_cfa_offset 16
	.cfi_offset %rbp, -16
	movq	%rsp, %rbp
	.cfi_def_cfa_register %rbp
	subq	$32, %rsp
	movq	%rdi, %rax
	addq	$40, %rax
Ltmp310:
	movq	%rdi, -32(%rbp)
	movq	%rax, %rdi
	callq	__ZN4core3ptr13drop_in_place17h0a8004e4bb6e1cf3E
Ltmp311:
	jmp	LBB291_4
LBB291_1:
	movq	-16(%rbp), %rdi
	callq	__Unwind_Resume
	ud2
LBB291_2:
	addq	$32, %rsp
	popq	%rbp
	retq
LBB291_3:
	movq	-32(%rbp), %rax
	movq	%rax, %rdi
	callq	__ZN4core3ptr13drop_in_place17h947388e948ae2d51E
	jmp	LBB291_1
LBB291_4:
	movq	-32(%rbp), %rax
	movq	%rax, %rdi
	callq	__ZN4core3ptr13drop_in_place17h947388e948ae2d51E
	jmp	LBB291_2
LBB291_5:
Ltmp312:
	movq	%rax, -16(%rbp)
	movl	%edx, -8(%rbp)
	jmp	LBB291_3
Lfunc_end45:
	.cfi_endproc
	.section	__TEXT,__gcc_except_tab
	.p2align	2
GCC_except_table291:
Lexception45:
	.byte	255
	.byte	255
	.byte	1
	.uleb128 Lcst_end45-Lcst_begin45
Lcst_begin45:
	.uleb128 Ltmp310-Lfunc_begin45
	.uleb128 Ltmp311-Ltmp310
	.uleb128 Ltmp312-Lfunc_begin45
	.byte	0
	.uleb128 Ltmp311-Lfunc_begin45
	.uleb128 Lfunc_end45-Ltmp311
	.byte	0
	.byte	0
Lcst_end45:
	.p2align	2

	.section	__TEXT,__text,regular,pure_instructions
	.globl	__ZN4core3ptr13drop_in_place17hf1782ff03d96ed31E
	.p2align	4, 0x90
__ZN4core3ptr13drop_in_place17hf1782ff03d96ed31E:
	.cfi_startproc
	pushq	%rbp
	.cfi_def_cfa_offset 16
	.cfi_offset %rbp, -16
	movq	%rsp, %rbp
	.cfi_def_cfa_register %rbp
	subq	$32, %rsp
	movl	(%rdi), %eax
	movl	%eax, %ecx
	testq	%rcx, %rcx
	movq	%rdi, -16(%rbp)
	movq	%rcx, -24(%rbp)
	je	LBB292_2
	jmp	LBB292_5
LBB292_5:
	movq	-24(%rbp), %rax
	subq	$1, %rax
	je	LBB292_3
	jmp	LBB292_6
LBB292_6:
	movq	-24(%rbp), %rax
	subq	$2, %rax
	jne	LBB292_4
	jmp	LBB292_1
LBB292_1:
	addq	$32, %rsp
	popq	%rbp
	retq
LBB292_2:
	movq	-16(%rbp), %rax
	addq	$8, %rax
	movq	%rax, %rdi
	callq	__ZN4core3ptr13drop_in_place17h2b6a7bbf0f46f80aE
	jmp	LBB292_1
LBB292_3:
	movq	-16(%rbp), %rax
	addq	$8, %rax
	movq	%rax, %rdi
	callq	__ZN4core3ptr13drop_in_place17h12dea03ec8ac22aeE
	jmp	LBB292_1
LBB292_4:
	movq	-16(%rbp), %rax
	addq	$8, %rax
	movq	%rax, %rdi
	callq	__ZN4core3ptr13drop_in_place17hcef9bb7f82b2a83bE
	jmp	LBB292_1
	.cfi_endproc

	.globl	__ZN4core3ptr13drop_in_place17hf192994ef5ac21d1E
	.p2align	4, 0x90
__ZN4core3ptr13drop_in_place17hf192994ef5ac21d1E:
	.cfi_startproc
	pushq	%rbp
	.cfi_def_cfa_offset 16
	.cfi_offset %rbp, -16
	movq	%rsp, %rbp
	.cfi_def_cfa_register %rbp
	subq	$16, %rsp
	callq	__ZN4core3ptr13drop_in_place17h1da43b20f5e4c75aE
	addq	$16, %rsp
	popq	%rbp
	retq
	.cfi_endproc

	.globl	__ZN4core3ptr13drop_in_place17hf3ad409519ecf626E
	.p2align	4, 0x90
__ZN4core3ptr13drop_in_place17hf3ad409519ecf626E:
	.cfi_startproc
	pushq	%rbp
	.cfi_def_cfa_offset 16
	.cfi_offset %rbp, -16
	movq	%rsp, %rbp
	.cfi_def_cfa_register %rbp
	subq	$16, %rsp
	callq	__ZN4core3ptr13drop_in_place17he2791d956aaf4892E
	addq	$16, %rsp
	popq	%rbp
	retq
	.cfi_endproc

	.globl	__ZN4core3ptr13drop_in_place17hf3b94670dd9fc949E
	.p2align	4, 0x90
__ZN4core3ptr13drop_in_place17hf3b94670dd9fc949E:
Lfunc_begin46:
	.cfi_startproc
	.cfi_personality 155, _rust_eh_personality
	.cfi_lsda 16, Lexception46
	pushq	%rbp
	.cfi_def_cfa_offset 16
	.cfi_offset %rbp, -16
	movq	%rsp, %rbp
	.cfi_def_cfa_register %rbp
	subq	$32, %rsp
	movq	(%rdi), %rax
	movq	8(%rdi), %rsi
Ltmp313:
	movq	%rdi, -32(%rbp)
	movq	%rax, %rdi
	callq	__ZN4core3ptr13drop_in_place17h5731d6df0fb83b64E
Ltmp314:
	jmp	LBB295_3
LBB295_1:
	addq	$32, %rsp
	popq	%rbp
	retq
LBB295_2:
	movq	-16(%rbp), %rdi
	callq	__Unwind_Resume
	ud2
LBB295_3:
	movq	-32(%rbp), %rax
	movq	(%rax), %rdi
	movq	8(%rax), %rsi
	callq	__ZN5alloc5alloc8box_free17hbe3263bd501a42c0E
	jmp	LBB295_1
LBB295_4:
	movq	-32(%rbp), %rax
	movq	(%rax), %rdi
	movq	8(%rax), %rsi
	callq	__ZN5alloc5alloc8box_free17hbe3263bd501a42c0E
	jmp	LBB295_2
LBB295_5:
Ltmp315:
	movq	%rax, -16(%rbp)
	movl	%edx, -8(%rbp)
	jmp	LBB295_4
Lfunc_end46:
	.cfi_endproc
	.section	__TEXT,__gcc_except_tab
	.p2align	2
GCC_except_table295:
Lexception46:
	.byte	255
	.byte	255
	.byte	1
	.uleb128 Lcst_end46-Lcst_begin46
Lcst_begin46:
	.uleb128 Ltmp313-Lfunc_begin46
	.uleb128 Ltmp314-Ltmp313
	.uleb128 Ltmp315-Lfunc_begin46
	.byte	0
	.uleb128 Ltmp314-Lfunc_begin46
	.uleb128 Lfunc_end46-Ltmp314
	.byte	0
	.byte	0
Lcst_end46:
	.p2align	2

	.section	__TEXT,__text,regular,pure_instructions
	.globl	__ZN4core3ptr13drop_in_place17hf40b909b2cd31c5eE
	.p2align	4, 0x90
__ZN4core3ptr13drop_in_place17hf40b909b2cd31c5eE:
	.cfi_startproc
	pushq	%rbp
	.cfi_def_cfa_offset 16
	.cfi_offset %rbp, -16
	movq	%rsp, %rbp
	.cfi_def_cfa_register %rbp
	subq	$16, %rsp
	callq	__ZN77_$LT$alloc..raw_vec..RawVec$LT$T$C$A$GT$$u20$as$u20$core..ops..drop..Drop$GT$4drop17he58922cc0bc80404E
	addq	$16, %rsp
	popq	%rbp
	retq
	.cfi_endproc

	.p2align	4, 0x90
__ZN4core3ptr13drop_in_place17hf64f69b2112179b0E:
	.cfi_startproc
	pushq	%rbp
	.cfi_def_cfa_offset 16
	.cfi_offset %rbp, -16
	movq	%rsp, %rbp
	.cfi_def_cfa_register %rbp
	pushq	%rax
	addq	$8, %rsp
	popq	%rbp
	retq
	.cfi_endproc

	.p2align	4, 0x90
__ZN4core3ptr13drop_in_place17hf89c1545deca914eE:
	.cfi_startproc
	pushq	%rbp
	.cfi_def_cfa_offset 16
	.cfi_offset %rbp, -16
	movq	%rsp, %rbp
	.cfi_def_cfa_register %rbp
	pushq	%rax
	addq	$8, %rsp
	popq	%rbp
	retq
	.cfi_endproc

	.p2align	4, 0x90
__ZN4core3ptr13drop_in_place17hf91c07d5aa341c1fE:
	.cfi_startproc
	pushq	%rbp
	.cfi_def_cfa_offset 16
	.cfi_offset %rbp, -16
	movq	%rsp, %rbp
	.cfi_def_cfa_register %rbp
	pushq	%rax
	addq	$8, %rsp
	popq	%rbp
	retq
	.cfi_endproc

	.p2align	4, 0x90
__ZN4core3ptr13drop_in_place17hfb84ab83dc2f4dddE:
	.cfi_startproc
	pushq	%rbp
	.cfi_def_cfa_offset 16
	.cfi_offset %rbp, -16
	movq	%rsp, %rbp
	.cfi_def_cfa_register %rbp
	pushq	%rax
	addq	$8, %rsp
	popq	%rbp
	retq
	.cfi_endproc

	.globl	__ZN4core3ptr13drop_in_place17hfc345eafb3f7dbb1E
	.p2align	4, 0x90
__ZN4core3ptr13drop_in_place17hfc345eafb3f7dbb1E:
	.cfi_startproc
	pushq	%rbp
	.cfi_def_cfa_offset 16
	.cfi_offset %rbp, -16
	movq	%rsp, %rbp
	.cfi_def_cfa_register %rbp
	subq	$16, %rsp
	callq	__ZN68_$LT$alloc..vec..Drain$LT$T$GT$$u20$as$u20$core..ops..drop..Drop$GT$4drop17hdb4649ec237d3e61E
	addq	$16, %rsp
	popq	%rbp
	retq
	.cfi_endproc

	.globl	__ZN4core3ptr13drop_in_place17hfe2a66114290b79aE
	.p2align	4, 0x90
__ZN4core3ptr13drop_in_place17hfe2a66114290b79aE:
Lfunc_begin47:
	.cfi_startproc
	.cfi_personality 155, _rust_eh_personality
	.cfi_lsda 16, Lexception47
	pushq	%rbp
	.cfi_def_cfa_offset 16
	.cfi_offset %rbp, -16
	movq	%rsp, %rbp
	.cfi_def_cfa_register %rbp
	subq	$32, %rsp
	movq	(%rdi), %rax
	movq	8(%rdi), %rcx
	movq	(%rcx), %rcx
Ltmp316:
	movq	%rdi, -32(%rbp)
	movq	%rax, %rdi
	callq	*%rcx
Ltmp317:
	jmp	LBB302_3
LBB302_1:
	addq	$32, %rsp
	popq	%rbp
	retq
LBB302_2:
	movq	-16(%rbp), %rdi
	callq	__Unwind_Resume
	ud2
LBB302_3:
	movq	-32(%rbp), %rax
	movq	(%rax), %rdi
	movq	8(%rax), %rsi
	callq	__ZN5alloc5alloc8box_free17h25e756bbb14b5ee6E
	jmp	LBB302_1
LBB302_4:
	movq	-32(%rbp), %rax
	movq	(%rax), %rdi
	movq	8(%rax), %rsi
	callq	__ZN5alloc5alloc8box_free17h25e756bbb14b5ee6E
	jmp	LBB302_2
LBB302_5:
Ltmp318:
	movq	%rax, -16(%rbp)
	movl	%edx, -8(%rbp)
	jmp	LBB302_4
Lfunc_end47:
	.cfi_endproc
	.section	__TEXT,__gcc_except_tab
	.p2align	2
GCC_except_table302:
Lexception47:
	.byte	255
	.byte	255
	.byte	1
	.uleb128 Lcst_end47-Lcst_begin47
Lcst_begin47:
	.uleb128 Ltmp316-Lfunc_begin47
	.uleb128 Ltmp317-Ltmp316
	.uleb128 Ltmp318-Lfunc_begin47
	.byte	0
	.uleb128 Ltmp317-Lfunc_begin47
	.uleb128 Lfunc_end47-Ltmp317
	.byte	0
	.byte	0
Lcst_end47:
	.p2align	2

	.section	__TEXT,__text,regular,pure_instructions
	.globl	__ZN4core3ptr13drop_in_place17hffd5988964add5a1E
	.p2align	4, 0x90
__ZN4core3ptr13drop_in_place17hffd5988964add5a1E:
	.cfi_startproc
	pushq	%rbp
	.cfi_def_cfa_offset 16
	.cfi_offset %rbp, -16
	movq	%rsp, %rbp
	.cfi_def_cfa_register %rbp
	subq	$16, %rsp
	callq	__ZN4core3ptr13drop_in_place17h883919a024d89158E
	addq	$16, %rsp
	popq	%rbp
	retq
	.cfi_endproc

	.globl	__ZN4core3ptr19swap_nonoverlapping17h1f000ff7c3f04ccaE
	.p2align	4, 0x90
__ZN4core3ptr19swap_nonoverlapping17h1f000ff7c3f04ccaE:
	.cfi_startproc
	pushq	%rbp
	.cfi_def_cfa_offset 16
	.cfi_offset %rbp, -16
	movq	%rsp, %rbp
	.cfi_def_cfa_register %rbp
	subq	$48, %rsp
	movq	$4, -8(%rbp)
	movq	-8(%rbp), %rax
	movq	%rdx, -16(%rbp)
	movq	%rdi, -24(%rbp)
	movq	%rsi, -32(%rbp)
	movq	%rax, -40(%rbp)
	movq	-40(%rbp), %rax
	movq	-16(%rbp), %rcx
	imulq	%rcx, %rax
	movq	-24(%rbp), %rdi
	movq	-32(%rbp), %rsi
	movq	%rax, %rdx
	callq	__ZN4core3ptr25swap_nonoverlapping_bytes17h3831240da90a22f6E
	addq	$48, %rsp
	popq	%rbp
	retq
	.cfi_endproc

	.globl	__ZN4core3ptr19swap_nonoverlapping17h23117b5a341f8573E
	.p2align	4, 0x90
__ZN4core3ptr19swap_nonoverlapping17h23117b5a341f8573E:
	.cfi_startproc
	pushq	%rbp
	.cfi_def_cfa_offset 16
	.cfi_offset %rbp, -16
	movq	%rsp, %rbp
	.cfi_def_cfa_register %rbp
	subq	$48, %rsp
	movq	$8, -8(%rbp)
	movq	-8(%rbp), %rax
	movq	%rdx, -16(%rbp)
	movq	%rdi, -24(%rbp)
	movq	%rsi, -32(%rbp)
	movq	%rax, -40(%rbp)
	movq	-40(%rbp), %rax
	movq	-16(%rbp), %rcx
	imulq	%rcx, %rax
	movq	-24(%rbp), %rdi
	movq	-32(%rbp), %rsi
	movq	%rax, %rdx
	callq	__ZN4core3ptr25swap_nonoverlapping_bytes17h3831240da90a22f6E
	addq	$48, %rsp
	popq	%rbp
	retq
	.cfi_endproc

	.globl	__ZN4core3ptr19swap_nonoverlapping17h30ceb297cb0f8d6dE
	.p2align	4, 0x90
__ZN4core3ptr19swap_nonoverlapping17h30ceb297cb0f8d6dE:
	.cfi_startproc
	pushq	%rbp
	.cfi_def_cfa_offset 16
	.cfi_offset %rbp, -16
	movq	%rsp, %rbp
	.cfi_def_cfa_register %rbp
	subq	$48, %rsp
	movq	$24, -8(%rbp)
	movq	-8(%rbp), %rax
	movq	%rdx, -16(%rbp)
	movq	%rdi, -24(%rbp)
	movq	%rsi, -32(%rbp)
	movq	%rax, -40(%rbp)
	movq	-40(%rbp), %rax
	movq	-16(%rbp), %rcx
	imulq	%rcx, %rax
	movq	-24(%rbp), %rdi
	movq	-32(%rbp), %rsi
	movq	%rax, %rdx
	callq	__ZN4core3ptr25swap_nonoverlapping_bytes17h3831240da90a22f6E
	addq	$48, %rsp
	popq	%rbp
	retq
	.cfi_endproc

	.globl	__ZN4core3ptr19swap_nonoverlapping17h42b8aa64e53c5bf7E
	.p2align	4, 0x90
__ZN4core3ptr19swap_nonoverlapping17h42b8aa64e53c5bf7E:
	.cfi_startproc
	pushq	%rbp
	.cfi_def_cfa_offset 16
	.cfi_offset %rbp, -16
	movq	%rsp, %rbp
	.cfi_def_cfa_register %rbp
	subq	$48, %rsp
	movq	$1, -8(%rbp)
	movq	-8(%rbp), %rax
	movq	%rdi, -16(%rbp)
	movq	%rsi, -24(%rbp)
	movq	%rdx, -32(%rbp)
	movq	%rax, -40(%rbp)
	movq	-40(%rbp), %rax
	movq	-32(%rbp), %rcx
	imulq	%rcx, %rax
	movq	-16(%rbp), %rdi
	movq	-24(%rbp), %rsi
	movq	%rax, %rdx
	callq	__ZN4core3ptr25swap_nonoverlapping_bytes17h3831240da90a22f6E
	addq	$48, %rsp
	popq	%rbp
	retq
	.cfi_endproc

	.globl	__ZN4core3ptr19swap_nonoverlapping17h6f216ee94708ddfbE
	.p2align	4, 0x90
__ZN4core3ptr19swap_nonoverlapping17h6f216ee94708ddfbE:
	.cfi_startproc
	pushq	%rbp
	.cfi_def_cfa_offset 16
	.cfi_offset %rbp, -16
	movq	%rsp, %rbp
	.cfi_def_cfa_register %rbp
	subq	$48, %rsp
	movq	$4, -8(%rbp)
	movq	-8(%rbp), %rax
	movq	%rdx, -16(%rbp)
	movq	%rdi, -24(%rbp)
	movq	%rsi, -32(%rbp)
	movq	%rax, -40(%rbp)
	movq	-40(%rbp), %rax
	movq	-16(%rbp), %rcx
	imulq	%rcx, %rax
	movq	-24(%rbp), %rdi
	movq	-32(%rbp), %rsi
	movq	%rax, %rdx
	callq	__ZN4core3ptr25swap_nonoverlapping_bytes17h3831240da90a22f6E
	addq	$48, %rsp
	popq	%rbp
	retq
	.cfi_endproc

	.globl	__ZN4core3ptr19swap_nonoverlapping17h93c1a122495f496eE
	.p2align	4, 0x90
__ZN4core3ptr19swap_nonoverlapping17h93c1a122495f496eE:
	.cfi_startproc
	pushq	%rbp
	.cfi_def_cfa_offset 16
	.cfi_offset %rbp, -16
	movq	%rsp, %rbp
	.cfi_def_cfa_register %rbp
	subq	$48, %rsp
	movq	$4, -8(%rbp)
	movq	-8(%rbp), %rax
	movq	%rdx, -16(%rbp)
	movq	%rdi, -24(%rbp)
	movq	%rsi, -32(%rbp)
	movq	%rax, -40(%rbp)
	movq	-40(%rbp), %rax
	movq	-16(%rbp), %rcx
	imulq	%rcx, %rax
	movq	-24(%rbp), %rdi
	movq	-32(%rbp), %rsi
	movq	%rax, %rdx
	callq	__ZN4core3ptr25swap_nonoverlapping_bytes17h3831240da90a22f6E
	addq	$48, %rsp
	popq	%rbp
	retq
	.cfi_endproc

	.globl	__ZN4core3ptr19swap_nonoverlapping17hb16849fc2a2285c5E
	.p2align	4, 0x90
__ZN4core3ptr19swap_nonoverlapping17hb16849fc2a2285c5E:
	.cfi_startproc
	pushq	%rbp
	.cfi_def_cfa_offset 16
	.cfi_offset %rbp, -16
	movq	%rsp, %rbp
	.cfi_def_cfa_register %rbp
	subq	$48, %rsp
	movq	$16, -8(%rbp)
	movq	-8(%rbp), %rax
	movq	%rdx, -16(%rbp)
	movq	%rdi, -24(%rbp)
	movq	%rsi, -32(%rbp)
	movq	%rax, -40(%rbp)
	movq	-40(%rbp), %rax
	movq	-16(%rbp), %rcx
	imulq	%rcx, %rax
	movq	-24(%rbp), %rdi
	movq	-32(%rbp), %rsi
	movq	%rax, %rdx
	callq	__ZN4core3ptr25swap_nonoverlapping_bytes17h3831240da90a22f6E
	addq	$48, %rsp
	popq	%rbp
	retq
	.cfi_endproc

	.globl	__ZN4core3ptr19swap_nonoverlapping17hbb190ee5b805f03bE
	.p2align	4, 0x90
__ZN4core3ptr19swap_nonoverlapping17hbb190ee5b805f03bE:
	.cfi_startproc
	pushq	%rbp
	.cfi_def_cfa_offset 16
	.cfi_offset %rbp, -16
	movq	%rsp, %rbp
	.cfi_def_cfa_register %rbp
	subq	$48, %rsp
	movq	$16, -8(%rbp)
	movq	-8(%rbp), %rax
	movq	%rdx, -16(%rbp)
	movq	%rdi, -24(%rbp)
	movq	%rsi, -32(%rbp)
	movq	%rax, -40(%rbp)
	movq	-40(%rbp), %rax
	movq	-16(%rbp), %rcx
	imulq	%rcx, %rax
	movq	-24(%rbp), %rdi
	movq	-32(%rbp), %rsi
	movq	%rax, %rdx
	callq	__ZN4core3ptr25swap_nonoverlapping_bytes17h3831240da90a22f6E
	addq	$48, %rsp
	popq	%rbp
	retq
	.cfi_endproc

	.globl	__ZN4core3ptr20slice_from_raw_parts17h2569d55d2005832eE
	.p2align	4, 0x90
__ZN4core3ptr20slice_from_raw_parts17h2569d55d2005832eE:
	.cfi_startproc
	pushq	%rbp
	.cfi_def_cfa_offset 16
	.cfi_offset %rbp, -16
	movq	%rsp, %rbp
	.cfi_def_cfa_register %rbp
	subq	$32, %rsp
	movq	%rdi, -16(%rbp)
	movq	%rsi, -8(%rbp)
	movq	-16(%rbp), %rax
	movq	-8(%rbp), %rcx
	movq	%rax, -32(%rbp)
	movq	%rcx, -24(%rbp)
	movq	-32(%rbp), %rax
	movq	-24(%rbp), %rdx
	addq	$32, %rsp
	popq	%rbp
	retq
	.cfi_endproc

	.globl	__ZN4core3ptr20slice_from_raw_parts17h6c5a24ad9e78cfd1E
	.p2align	4, 0x90
__ZN4core3ptr20slice_from_raw_parts17h6c5a24ad9e78cfd1E:
	.cfi_startproc
	pushq	%rbp
	.cfi_def_cfa_offset 16
	.cfi_offset %rbp, -16
	movq	%rsp, %rbp
	.cfi_def_cfa_register %rbp
	subq	$32, %rsp
	movq	%rdi, -16(%rbp)
	movq	%rsi, -8(%rbp)
	movq	-16(%rbp), %rax
	movq	-8(%rbp), %rcx
	movq	%rax, -32(%rbp)
	movq	%rcx, -24(%rbp)
	movq	-32(%rbp), %rax
	movq	-24(%rbp), %rdx
	addq	$32, %rsp
	popq	%rbp
	retq
	.cfi_endproc

	.globl	__ZN4core3ptr20slice_from_raw_parts17hd3a3802b95f14ca2E
	.p2align	4, 0x90
__ZN4core3ptr20slice_from_raw_parts17hd3a3802b95f14ca2E:
	.cfi_startproc
	pushq	%rbp
	.cfi_def_cfa_offset 16
	.cfi_offset %rbp, -16
	movq	%rsp, %rbp
	.cfi_def_cfa_register %rbp
	subq	$32, %rsp
	movq	%rdi, -16(%rbp)
	movq	%rsi, -8(%rbp)
	movq	-16(%rbp), %rax
	movq	-8(%rbp), %rcx
	movq	%rax, -32(%rbp)
	movq	%rcx, -24(%rbp)
	movq	-32(%rbp), %rax
	movq	-24(%rbp), %rdx
	addq	$32, %rsp
	popq	%rbp
	retq
	.cfi_endproc

	.globl	__ZN4core3ptr23swap_nonoverlapping_one17h15350c03f4e084c7E
	.p2align	4, 0x90
__ZN4core3ptr23swap_nonoverlapping_one17h15350c03f4e084c7E:
Lfunc_begin48:
	.cfi_startproc
	.cfi_personality 155, _rust_eh_personality
	.cfi_lsda 16, Lexception48
	pushq	%rbp
	.cfi_def_cfa_offset 16
	.cfi_offset %rbp, -16
	movq	%rsp, %rbp
	.cfi_def_cfa_register %rbp
	subq	$80, %rsp
	movb	$0, -25(%rbp)
	movq	$16, -8(%rbp)
	movq	-8(%rbp), %rax
	movq	%rdi, -40(%rbp)
	movq	%rsi, -48(%rbp)
	movq	%rax, -56(%rbp)
	jmp	LBB315_2
LBB315_1:
	movq	-24(%rbp), %rdi
	callq	__Unwind_Resume
	ud2
LBB315_2:
	movq	-56(%rbp), %rax
	cmpq	$32, %rax
	jb	LBB315_4
	movq	-40(%rbp), %rdi
	movq	-48(%rbp), %rsi
	movl	$1, %edx
	callq	__ZN4core3ptr19swap_nonoverlapping17hb16849fc2a2285c5E
	jmp	LBB315_8
LBB315_4:
	movb	$1, -25(%rbp)
	movq	-40(%rbp), %rdi
	callq	__ZN4core3ptr4read17h688bd1beb9374258E
	movq	%rax, -64(%rbp)
	movl	%edx, -68(%rbp)
Ltmp319:
	movl	$1, %edx
	movq	-48(%rbp), %rdi
	movq	-40(%rbp), %rsi
	callq	__ZN4core10intrinsics19copy_nonoverlapping17he5fadcaa4626aa71E
Ltmp320:
	jmp	LBB315_6
LBB315_6:
	movb	$0, -25(%rbp)
Ltmp321:
	movq	-48(%rbp), %rdi
	movq	-64(%rbp), %rsi
	movl	-68(%rbp), %edx
	callq	__ZN4core3ptr5write17h36a0ef424a4ce248E
Ltmp322:
	jmp	LBB315_7
LBB315_7:
	movb	$0, -25(%rbp)
	jmp	LBB315_9
LBB315_8:
	jmp	LBB315_9
LBB315_9:
	addq	$80, %rsp
	popq	%rbp
	retq
LBB315_10:
	movb	$0, -25(%rbp)
	jmp	LBB315_1
LBB315_11:
	testb	$1, -25(%rbp)
	jne	LBB315_10
	jmp	LBB315_1
LBB315_12:
Ltmp323:
	movq	%rax, -24(%rbp)
	movl	%edx, -16(%rbp)
	jmp	LBB315_11
Lfunc_end48:
	.cfi_endproc
	.section	__TEXT,__gcc_except_tab
	.p2align	2
GCC_except_table315:
Lexception48:
	.byte	255
	.byte	255
	.byte	1
	.uleb128 Lcst_end48-Lcst_begin48
Lcst_begin48:
	.uleb128 Lfunc_begin48-Lfunc_begin48
	.uleb128 Ltmp319-Lfunc_begin48
	.byte	0
	.byte	0
	.uleb128 Ltmp319-Lfunc_begin48
	.uleb128 Ltmp322-Ltmp319
	.uleb128 Ltmp323-Lfunc_begin48
	.byte	0
Lcst_end48:
	.p2align	2

	.section	__TEXT,__text,regular,pure_instructions
	.globl	__ZN4core3ptr23swap_nonoverlapping_one17h3698c3a39ea91e1bE
	.p2align	4, 0x90
__ZN4core3ptr23swap_nonoverlapping_one17h3698c3a39ea91e1bE:
Lfunc_begin49:
	.cfi_startproc
	.cfi_personality 155, _rust_eh_personality
	.cfi_lsda 16, Lexception49
	pushq	%rbp
	.cfi_def_cfa_offset 16
	.cfi_offset %rbp, -16
	movq	%rsp, %rbp
	.cfi_def_cfa_register %rbp
	subq	$80, %rsp
	movb	$0, -29(%rbp)
	movq	$4, -8(%rbp)
	movq	-8(%rbp), %rax
	movq	%rdi, -64(%rbp)
	movq	%rsi, -72(%rbp)
	movq	%rax, -80(%rbp)
	jmp	LBB316_2
LBB316_1:
	movq	-24(%rbp), %rdi
	callq	__Unwind_Resume
	ud2
LBB316_2:
	movq	-80(%rbp), %rax
	cmpq	$32, %rax
	jb	LBB316_4
	movq	-64(%rbp), %rdi
	movq	-72(%rbp), %rsi
	movl	$1, %edx
	callq	__ZN4core3ptr19swap_nonoverlapping17h93c1a122495f496eE
	jmp	LBB316_8
LBB316_4:
	movb	$1, -29(%rbp)
	movq	-64(%rbp), %rdi
	callq	__ZN4core3ptr4read17hd1217fa8e41b5b6aE
	movl	%eax, -28(%rbp)
	movl	-28(%rbp), %eax
	movl	%eax, -48(%rbp)
Ltmp324:
	movl	$1, %edx
	movq	-72(%rbp), %rdi
	movq	-64(%rbp), %rsi
	callq	__ZN4core10intrinsics19copy_nonoverlapping17h2aa2f79fcb68d5ccE
Ltmp325:
	jmp	LBB316_6
LBB316_6:
	movb	$0, -29(%rbp)
	movl	-48(%rbp), %eax
	movl	%eax, -40(%rbp)
	movl	-40(%rbp), %esi
Ltmp326:
	movq	-72(%rbp), %rdi
	callq	__ZN4core3ptr5write17h5ab7a0d08afb4758E
Ltmp327:
	jmp	LBB316_7
LBB316_7:
	movb	$0, -29(%rbp)
	jmp	LBB316_9
LBB316_8:
	jmp	LBB316_9
LBB316_9:
	addq	$80, %rsp
	popq	%rbp
	retq
LBB316_10:
	movb	$0, -29(%rbp)
	leaq	-48(%rbp), %rdi
