	.section	__TEXT,__text,regular,pure_instructions
	.macosx_version_min 10, 7
	.p2align	4, 0x90
__ZN36_$LT$T$u20$as$u20$core..any..Any$GT$7type_id17h81f41d7cf8fa3286E:
	.cfi_startproc
	pushq	%rbp
	.cfi_def_cfa_offset 16
	.cfi_offset %rbp, -16
	movq	%rsp, %rbp
	.cfi_def_cfa_register %rbp
	movabsq	$1229646359891580772, %rax
	popq	%rbp
	retq
	.cfi_endproc

	.p2align	4, 0x90
__ZN3std4sync4once4Once9call_once28_$u7b$$u7b$closure$u7d$$u7d$17he25e1fbeb9c27273E:
	.cfi_startproc
	pushq	%rbp
	.cfi_def_cfa_offset 16
	.cfi_offset %rbp, -16
	movq	%rsp, %rbp
	.cfi_def_cfa_register %rbp
	movq	(%rdi), %rax
	testb	$1, (%rax)
	movb	$0, (%rax)
	je	LBB1_1
	popq	%rbp
	jmp	__ZN11proc_macro29detection10initialize17h2c7d6868913200a3E
LBB1_1:
	leaq	l___unnamed_1(%rip), %rdi
	leaq	l___unnamed_2(%rip), %rdx
	movl	$43, %esi
	callq	__ZN4core9panicking5panic17h736ee47a631475c0E
	.cfi_endproc

	.p2align	4, 0x90
__ZN3std9panicking11begin_panic17hc0253a378263cbc4E:
	.cfi_startproc
	pushq	%rbp
	.cfi_def_cfa_offset 16
	.cfi_offset %rbp, -16
	movq	%rsp, %rbp
	.cfi_def_cfa_register %rbp
	subq	$16, %rsp
	movq	%rdi, -16(%rbp)
	movq	%rsi, -8(%rbp)
	movq	%rdx, %rdi
	callq	__ZN4core5panic8Location6caller17hf55c9a52d6249cfcE
	leaq	l___unnamed_3(%rip), %rsi
	leaq	-16(%rbp), %rdi
	xorl	%edx, %edx
	movq	%rax, %rcx
	callq	__ZN3std9panicking20rust_panic_with_hook17hf8b9378dd2e7986aE
	.cfi_endproc

	.p2align	4, 0x90
__ZN41_$LT$bool$u20$as$u20$core..fmt..Debug$GT$3fmt17hcb2f2721d0797180E:
	.cfi_startproc
	pushq	%rbp
	.cfi_def_cfa_offset 16
	.cfi_offset %rbp, -16
	movq	%rsp, %rbp
	.cfi_def_cfa_register %rbp
	popq	%rbp
	jmp	__ZN43_$LT$bool$u20$as$u20$core..fmt..Display$GT$3fmt17hf36463fa8b480ab4E
	.cfi_endproc

	.p2align	4, 0x90
__ZN42_$LT$$RF$T$u20$as$u20$core..fmt..Debug$GT$3fmt17h93604e7290fb7a3bE:
	.cfi_startproc
	pushq	%rbp
	.cfi_def_cfa_offset 16
	.cfi_offset %rbp, -16
	movq	%rsp, %rbp
	.cfi_def_cfa_register %rbp
	pushq	%r14
	pushq	%rbx
	.cfi_offset %rbx, -32
	.cfi_offset %r14, -24
	movq	%rsi, %rbx
	movq	(%rdi), %r14
	movq	%rsi, %rdi
	callq	__ZN4core3fmt9Formatter15debug_lower_hex17h8530fbaeba13f4d9E
	testb	%al, %al
	je	LBB4_1
	movq	%r14, %rdi
	movq	%rbx, %rsi
	popq	%rbx
	popq	%r14
	popq	%rbp
	jmp	__ZN4core3fmt3num55_$LT$impl$u20$core..fmt..LowerHex$u20$for$u20$usize$GT$3fmt17hbf7dc8c1d7fa021dE
LBB4_1:
	movq	%rbx, %rdi
	callq	__ZN4core3fmt9Formatter15debug_upper_hex17hf8fda15ec43a1e68E
	movq	%r14, %rdi
	movq	%rbx, %rsi
	testb	%al, %al
	je	LBB4_4
	popq	%rbx
	popq	%r14
	popq	%rbp
	jmp	__ZN4core3fmt3num55_$LT$impl$u20$core..fmt..UpperHex$u20$for$u20$usize$GT$3fmt17hf20a4f369caf234bE
LBB4_4:
	popq	%rbx
	popq	%r14
	popq	%rbp
	jmp	__ZN4core3fmt3num3imp54_$LT$impl$u20$core..fmt..Display$u20$for$u20$usize$GT$3fmt17h89ce3155a90f2edfE
	.cfi_endproc

	.p2align	4, 0x90
__ZN42_$LT$$RF$T$u20$as$u20$core..fmt..Debug$GT$3fmt17hcf3a7e91a2f736bdE:
	.cfi_startproc
	pushq	%rbp
	.cfi_def_cfa_offset 16
	.cfi_offset %rbp, -16
	movq	%rsp, %rbp
	.cfi_def_cfa_register %rbp
	movq	%rsi, %rdx
	movq	(%rdi), %rax
	movq	8(%rdi), %rsi
	movq	%rax, %rdi
	popq	%rbp
	jmp	__ZN40_$LT$str$u20$as$u20$core..fmt..Debug$GT$3fmt17h2760aab2290546fcE
	.cfi_endproc

	.p2align	4, 0x90
__ZN44_$LT$$RF$T$u20$as$u20$core..fmt..Display$GT$3fmt17h006f3a78659c5084E:
	.cfi_startproc
	pushq	%rbp
	.cfi_def_cfa_offset 16
	.cfi_offset %rbp, -16
	movq	%rsp, %rbp
	.cfi_def_cfa_register %rbp
	movq	(%rdi), %rdi
	popq	%rbp
	jmp	__ZN4core3fmt3num3imp52_$LT$impl$u20$core..fmt..Display$u20$for$u20$i16$GT$3fmt17h3a2fa6e453c65d3eE
	.cfi_endproc

	.p2align	4, 0x90
__ZN44_$LT$$RF$T$u20$as$u20$core..fmt..Display$GT$3fmt17h05f748e09c17aabdE:
	.cfi_startproc
	pushq	%rbp
	.cfi_def_cfa_offset 16
	.cfi_offset %rbp, -16
	movq	%rsp, %rbp
	.cfi_def_cfa_register %rbp
	movq	(%rdi), %rdi
	popq	%rbp
	jmp	__ZN4core3fmt3num3imp52_$LT$impl$u20$core..fmt..Display$u20$for$u20$u16$GT$3fmt17h7d9582ae70d300cbE
	.cfi_endproc

	.p2align	4, 0x90
__ZN44_$LT$$RF$T$u20$as$u20$core..fmt..Display$GT$3fmt17h15cb068818c8a8d1E:
	.cfi_startproc
	pushq	%rbp
	.cfi_def_cfa_offset 16
	.cfi_offset %rbp, -16
	movq	%rsp, %rbp
	.cfi_def_cfa_register %rbp
	movq	(%rdi), %rdi
	popq	%rbp
	jmp	__ZN4core3fmt5float52_$LT$impl$u20$core..fmt..Display$u20$for$u20$f32$GT$3fmt17h7d4c3f5c5f5cbab3E
	.cfi_endproc

	.p2align	4, 0x90
__ZN44_$LT$$RF$T$u20$as$u20$core..fmt..Display$GT$3fmt17h17ea05eab85ac48eE:
	.cfi_startproc
	pushq	%rbp
	.cfi_def_cfa_offset 16
	.cfi_offset %rbp, -16
	movq	%rsp, %rbp
	.cfi_def_cfa_register %rbp
	movq	(%rdi), %rdi
	popq	%rbp
	jmp	__ZN73_$LT$proc_macro2..fallback..TokenStream$u20$as$u20$core..fmt..Display$GT$3fmt17hdac897aaeaa8653fE
	.cfi_endproc

	.p2align	4, 0x90
__ZN44_$LT$$RF$T$u20$as$u20$core..fmt..Display$GT$3fmt17h442eae80edbd1153E:
	.cfi_startproc
	pushq	%rbp
	.cfi_def_cfa_offset 16
	.cfi_offset %rbp, -16
	movq	%rsp, %rbp
	.cfi_def_cfa_register %rbp
	pushq	%r14
	pushq	%rbx
	.cfi_offset %rbx, -32
	.cfi_offset %r14, -24
	movq	%rsi, %r14
	movq	(%rdi), %rbx
	cmpb	$0, 24(%rbx)
	je	LBB10_3
	leaq	l___unnamed_4(%rip), %rsi
	movl	$2, %edx
	movq	%r14, %rdi
	callq	__ZN4core3fmt9Formatter9write_str17h957ea9717e49073dE
	testb	%al, %al
	je	LBB10_3
	movb	$1, %al
	popq	%rbx
	popq	%r14
	popq	%rbp
	retq
LBB10_3:
	movq	(%rbx), %rdi
	movq	16(%rbx), %rsi
	movq	%r14, %rdx
	popq	%rbx
	popq	%r14
	popq	%rbp
	jmp	__ZN42_$LT$str$u20$as$u20$core..fmt..Display$GT$3fmt17hd4dee1c1c4ccf892E
	.cfi_endproc

	.p2align	4, 0x90
__ZN44_$LT$$RF$T$u20$as$u20$core..fmt..Display$GT$3fmt17h4f94037e1f6acce3E:
	.cfi_startproc
	pushq	%rbp
	.cfi_def_cfa_offset 16
	.cfi_offset %rbp, -16
	movq	%rsp, %rbp
	.cfi_def_cfa_register %rbp
	pushq	%r14
	pushq	%rbx
	.cfi_offset %rbx, -32
	.cfi_offset %r14, -24
	movq	%rsi, %r14
	movq	(%rdi), %rbx
	cmpl	$1, (%rbx)
	jne	LBB11_4
	cmpb	$0, 32(%rbx)
	je	LBB11_3
	leaq	l___unnamed_4(%rip), %rsi
	movl	$2, %edx
	movq	%r14, %rdi
	callq	__ZN4core3fmt9Formatter9write_str17h957ea9717e49073dE
	testb	%al, %al
	je	LBB11_3
	movb	$1, %al
	popq	%rbx
	popq	%r14
	popq	%rbp
	retq
LBB11_4:
	addq	$4, %rbx
	movq	%rbx, %rdi
	movq	%r14, %rsi
	popq	%rbx
	popq	%r14
	popq	%rbp
	jmp	__ZN56_$LT$proc_macro..Ident$u20$as$u20$core..fmt..Display$GT$3fmt17h34b7b88c939fb544E
LBB11_3:
	movq	8(%rbx), %rdi
	movq	24(%rbx), %rsi
	movq	%r14, %rdx
	popq	%rbx
	popq	%r14
	popq	%rbp
	jmp	__ZN42_$LT$str$u20$as$u20$core..fmt..Display$GT$3fmt17hd4dee1c1c4ccf892E
	.cfi_endproc

	.p2align	4, 0x90
__ZN44_$LT$$RF$T$u20$as$u20$core..fmt..Display$GT$3fmt17h515df981c0149df9E:
	.cfi_startproc
	pushq	%rbp
	.cfi_def_cfa_offset 16
	.cfi_offset %rbp, -16
	movq	%rsp, %rbp
	.cfi_def_cfa_register %rbp
	movq	(%rdi), %rdi
	popq	%rbp
	jmp	__ZN4core3fmt3num3imp54_$LT$impl$u20$core..fmt..Display$u20$for$u20$usize$GT$3fmt17h89ce3155a90f2edfE
	.cfi_endproc

	.p2align	4, 0x90
__ZN44_$LT$$RF$T$u20$as$u20$core..fmt..Display$GT$3fmt17h5e3419268118b54cE:
	.cfi_startproc
	pushq	%rbp
	.cfi_def_cfa_offset 16
	.cfi_offset %rbp, -16
	movq	%rsp, %rbp
	.cfi_def_cfa_register %rbp
	movq	(%rdi), %rdi
	popq	%rbp
	jmp	__ZN4core3fmt3num3imp52_$LT$impl$u20$core..fmt..Display$u20$for$u20$u32$GT$3fmt17h8cb3163b2d7e102aE
	.cfi_endproc

	.p2align	4, 0x90
__ZN44_$LT$$RF$T$u20$as$u20$core..fmt..Display$GT$3fmt17h7297447794851e82E:
	.cfi_startproc
	pushq	%rbp
	.cfi_def_cfa_offset 16
	.cfi_offset %rbp, -16
	movq	%rsp, %rbp
	.cfi_def_cfa_register %rbp
	movq	(%rdi), %rdi
	popq	%rbp
	jmp	__ZN4core3fmt5float52_$LT$impl$u20$core..fmt..Display$u20$for$u20$f64$GT$3fmt17h65d15e5d03b4dd47E
	.cfi_endproc

	.p2align	4, 0x90
__ZN44_$LT$$RF$T$u20$as$u20$core..fmt..Display$GT$3fmt17h82a1bb2ff80d2663E:
	.cfi_startproc
	pushq	%rbp
	.cfi_def_cfa_offset 16
	.cfi_offset %rbp, -16
	movq	%rsp, %rbp
	.cfi_def_cfa_register %rbp
	movq	(%rdi), %rdi
	popq	%rbp
	jmp	__ZN4core3fmt3num3imp51_$LT$impl$u20$core..fmt..Display$u20$for$u20$i8$GT$3fmt17hc80f24a4257c3563E
	.cfi_endproc

	.p2align	4, 0x90
__ZN44_$LT$$RF$T$u20$as$u20$core..fmt..Display$GT$3fmt17h86afc1c47a2b7018E:
	.cfi_startproc
	pushq	%rbp
	.cfi_def_cfa_offset 16
	.cfi_offset %rbp, -16
	movq	%rsp, %rbp
	.cfi_def_cfa_register %rbp
	movq	(%rdi), %rdi
	popq	%rbp
	jmp	__ZN4core3fmt3num53_$LT$impl$u20$core..fmt..Display$u20$for$u20$i128$GT$3fmt17h91ecf4febf2e0f67E
	.cfi_endproc

	.p2align	4, 0x90
__ZN44_$LT$$RF$T$u20$as$u20$core..fmt..Display$GT$3fmt17h883ffffbca1beefdE:
	.cfi_startproc
	pushq	%rbp
	.cfi_def_cfa_offset 16
	.cfi_offset %rbp, -16
	movq	%rsp, %rbp
	.cfi_def_cfa_register %rbp
	movq	(%rdi), %rdi
	popq	%rbp
	jmp	__ZN4core3fmt3num53_$LT$impl$u20$core..fmt..Display$u20$for$u20$u128$GT$3fmt17h26a18cfc770edd4cE
	.cfi_endproc

	.p2align	4, 0x90
__ZN44_$LT$$RF$T$u20$as$u20$core..fmt..Display$GT$3fmt17h9af9fbeec306b2c7E:
	.cfi_startproc
	pushq	%rbp
	.cfi_def_cfa_offset 16
	.cfi_offset %rbp, -16
	movq	%rsp, %rbp
	.cfi_def_cfa_register %rbp
	movq	(%rdi), %rdi
	popq	%rbp
	jmp	__ZN4core3fmt3num3imp52_$LT$impl$u20$core..fmt..Display$u20$for$u20$i64$GT$3fmt17h6a5170735d6294a5E
	.cfi_endproc

	.p2align	4, 0x90
__ZN44_$LT$$RF$T$u20$as$u20$core..fmt..Display$GT$3fmt17hb33a2a1c13dd7ab5E:
	.cfi_startproc
	pushq	%rbp
	.cfi_def_cfa_offset 16
	.cfi_offset %rbp, -16
	movq	%rsp, %rbp
	.cfi_def_cfa_register %rbp
	movq	(%rdi), %rdi
	popq	%rbp
	jmp	__ZN4core3fmt3num3imp54_$LT$impl$u20$core..fmt..Display$u20$for$u20$isize$GT$3fmt17h12d2042b5a994274E
	.cfi_endproc

	.p2align	4, 0x90
__ZN44_$LT$$RF$T$u20$as$u20$core..fmt..Display$GT$3fmt17hba7d84c89fc4d9d4E:
	.cfi_startproc
	pushq	%rbp
	.cfi_def_cfa_offset 16
	.cfi_offset %rbp, -16
	movq	%rsp, %rbp
	.cfi_def_cfa_register %rbp
	movq	(%rdi), %rdi
	popq	%rbp
	jmp	__ZN4core3fmt3num3imp52_$LT$impl$u20$core..fmt..Display$u20$for$u20$i32$GT$3fmt17he2ccc2060d52a2ceE
	.cfi_endproc

	.p2align	4, 0x90
__ZN44_$LT$$RF$T$u20$as$u20$core..fmt..Display$GT$3fmt17hcb9e642e2da00eedE:
	.cfi_startproc
	pushq	%rbp
	.cfi_def_cfa_offset 16
	.cfi_offset %rbp, -16
	movq	%rsp, %rbp
	.cfi_def_cfa_register %rbp
	movq	(%rdi), %rdi
	popq	%rbp
	jmp	__ZN4core3fmt3num3imp51_$LT$impl$u20$core..fmt..Display$u20$for$u20$u8$GT$3fmt17h0e89df114e53d66dE
	.cfi_endproc

	.p2align	4, 0x90
__ZN44_$LT$$RF$T$u20$as$u20$core..fmt..Display$GT$3fmt17hda440f9a6aa37f85E:
	.cfi_startproc
	pushq	%rbp
	.cfi_def_cfa_offset 16
	.cfi_offset %rbp, -16
	movq	%rsp, %rbp
	.cfi_def_cfa_register %rbp
	movq	%rsi, %rdx
	movq	(%rdi), %rax
	movq	8(%rdi), %rsi
	movq	%rax, %rdi
	popq	%rbp
	jmp	__ZN42_$LT$str$u20$as$u20$core..fmt..Display$GT$3fmt17hd4dee1c1c4ccf892E
	.cfi_endproc

	.p2align	4, 0x90
__ZN44_$LT$$RF$T$u20$as$u20$core..fmt..Display$GT$3fmt17hdeb32a7693cb915eE:
	.cfi_startproc
	pushq	%rbp
	.cfi_def_cfa_offset 16
	.cfi_offset %rbp, -16
	movq	%rsp, %rbp
	.cfi_def_cfa_register %rbp
	movq	(%rdi), %rdi
	popq	%rbp
	jmp	__ZN4core3fmt3num3imp52_$LT$impl$u20$core..fmt..Display$u20$for$u20$u64$GT$3fmt17hb00db9d5e1e54df6E
	.cfi_endproc

	.p2align	4, 0x90
__ZN44_$LT$$RF$T$u20$as$u20$core..fmt..Display$GT$3fmt17hf2e90eea6171a556E:
	.cfi_startproc
	pushq	%rbp
	.cfi_def_cfa_offset 16
	.cfi_offset %rbp, -16
	movq	%rsp, %rbp
	.cfi_def_cfa_register %rbp
	movq	%rsi, %rdx
	movq	(%rdi), %rdi
	cmpl	$1, (%rdi)
	jne	LBB24_2
	movq	8(%rdi), %rax
	movq	24(%rdi), %rsi
	movq	%rax, %rdi
	popq	%rbp
	jmp	__ZN42_$LT$str$u20$as$u20$core..fmt..Display$GT$3fmt17hd4dee1c1c4ccf892E
LBB24_2:
	addq	$4, %rdi
	movq	%rdx, %rsi
	popq	%rbp
	jmp	__ZN58_$LT$proc_macro..Literal$u20$as$u20$core..fmt..Display$GT$3fmt17ha12417b6bb4c6599E
	.cfi_endproc

	.p2align	4, 0x90
__ZN45_$LT$$RF$T$u20$as$u20$core..fmt..UpperHex$GT$3fmt17hca8ee74bc7fd7afdE:
	.cfi_startproc
	pushq	%rbp
	.cfi_def_cfa_offset 16
	.cfi_offset %rbp, -16
	movq	%rsp, %rbp
	.cfi_def_cfa_register %rbp
	movq	(%rdi), %rdi
	popq	%rbp
	jmp	__ZN4core3fmt3num52_$LT$impl$u20$core..fmt..UpperHex$u20$for$u20$u8$GT$3fmt17ha797e73a900719d8E
	.cfi_endproc

	.p2align	4, 0x90
__ZN4core3ops8function6FnOnce40call_once$u7b$$u7b$vtable.shim$u7d$$u7d$17h8d8987c7dec9a103E:
	.cfi_startproc
	pushq	%rbp
	.cfi_def_cfa_offset 16
	.cfi_offset %rbp, -16
	movq	%rsp, %rbp
	.cfi_def_cfa_register %rbp
	movq	(%rdi), %rax
	testb	$1, (%rax)
	movb	$0, (%rax)
	je	LBB26_1
	popq	%rbp
	jmp	__ZN11proc_macro29detection10initialize17h2c7d6868913200a3E
LBB26_1:
	leaq	l___unnamed_1(%rip), %rdi
	leaq	l___unnamed_2(%rip), %rdx
	movl	$43, %esi
	callq	__ZN4core9panicking5panic17h736ee47a631475c0E
	.cfi_endproc

	.p2align	4, 0x90
__ZN4core3ops8function6FnOnce40call_once$u7b$$u7b$vtable.shim$u7d$$u7d$17heac68f94e3cf8f99E:
	.cfi_startproc
	pushq	%rbp
	.cfi_def_cfa_offset 16
	.cfi_offset %rbp, -16
	movq	%rsp, %rbp
	.cfi_def_cfa_register %rbp
	popq	%rbp
	retq
	.cfi_endproc

	.p2align	4, 0x90
__ZN4core3ptr13drop_in_place17h025972b350203887E:
	.cfi_startproc
	pushq	%rbp
	.cfi_def_cfa_offset 16
	.cfi_offset %rbp, -16
	movq	%rsp, %rbp
	.cfi_def_cfa_register %rbp
	popq	%rbp
	retq
	.cfi_endproc

	.p2align	4, 0x90
__ZN4core3ptr13drop_in_place17h0895f1861e129d5eE:
Lfunc_begin0:
	.cfi_startproc
	.cfi_personality 155, _rust_eh_personality
	.cfi_lsda 16, Lexception0
	pushq	%rbp
	.cfi_def_cfa_offset 16
	.cfi_offset %rbp, -16
	movq	%rsp, %rbp
	.cfi_def_cfa_register %rbp
	pushq	%r15
	pushq	%r14
	pushq	%r12
	pushq	%rbx
	.cfi_offset %rbx, -48
	.cfi_offset %r12, -40
	.cfi_offset %r14, -32
	.cfi_offset %r15, -24
	movq	%rdi, %r14
	movq	8(%rdi), %r12
	movq	24(%rdi), %rax
	shlq	$4, %rax
	leaq	(%rax,%rax,2), %rbx
	.p2align	4, 0x90
LBB29_4:
	testq	%rbx, %rbx
	je	LBB29_5
	addq	$-48, %rbx
Ltmp0:
	movq	%r12, %rdi
	addq	$48, %r12
	callq	__ZN4core3ptr13drop_in_place17h1202f0d8a0ebc27dE
Ltmp1:
	jmp	LBB29_4
LBB29_5:
	movq	16(%r14), %rax
	testq	%rax, %rax
	je	LBB29_11
	movq	8(%r14), %rdi
	testq	%rdi, %rdi
	je	LBB29_11
	shlq	$4, %rax
	leaq	(%rax,%rax,2), %rsi
	testq	%rsi, %rsi
	je	LBB29_11
	movl	$8, %edx
	popq	%rbx
	popq	%r12
	popq	%r14
	popq	%r15
	popq	%rbp
	jmp	___rust_dealloc
LBB29_11:
	popq	%rbx
	popq	%r12
	popq	%r14
	popq	%r15
	popq	%rbp
	retq
LBB29_12:
Ltmp2:
	movq	%rax, %r15
	.p2align	4, 0x90
LBB29_2:
	testq	%rbx, %rbx
	je	LBB29_10
	addq	$-48, %rbx
Ltmp3:
	movq	%r12, %rdi
	addq	$48, %r12
	callq	__ZN4core3ptr13drop_in_place17h1202f0d8a0ebc27dE
Ltmp4:
	jmp	LBB29_2
LBB29_9:
Ltmp5:
	movq	%rax, %r15
LBB29_10:
	movq	8(%r14), %rdi
	movq	16(%r14), %rsi
	callq	__ZN4core3ptr13drop_in_place17h80e60624eea5b72aE
	movq	%r15, %rdi
	callq	__Unwind_Resume
	ud2
Lfunc_end0:
	.cfi_endproc
	.section	__TEXT,__gcc_except_tab
	.p2align	2
GCC_except_table29:
Lexception0:
	.byte	255
	.byte	255
	.byte	1
	.uleb128 Lcst_end0-Lcst_begin0
Lcst_begin0:
	.uleb128 Ltmp0-Lfunc_begin0
	.uleb128 Ltmp1-Ltmp0
	.uleb128 Ltmp2-Lfunc_begin0
	.byte	0
	.uleb128 Ltmp3-Lfunc_begin0
	.uleb128 Ltmp4-Ltmp3
	.uleb128 Ltmp5-Lfunc_begin0
	.byte	0
	.uleb128 Ltmp4-Lfunc_begin0
	.uleb128 Lfunc_end0-Ltmp4
	.byte	0
	.byte	0
Lcst_end0:
	.p2align	2

	.section	__TEXT,__text,regular,pure_instructions
	.p2align	4, 0x90
__ZN4core3ptr13drop_in_place17h0f6c0b7d7e2392feE:
Lfunc_begin1:
	.cfi_startproc
	.cfi_personality 155, _rust_eh_personality
	.cfi_lsda 16, Lexception1
	pushq	%rbp
	.cfi_def_cfa_offset 16
	.cfi_offset %rbp, -16
	movq	%rsp, %rbp
	.cfi_def_cfa_register %rbp
	pushq	%r15
	pushq	%r14
	pushq	%r12
	pushq	%rbx
	.cfi_offset %rbx, -48
	.cfi_offset %r12, -40
	.cfi_offset %r14, -32
	.cfi_offset %r15, -24
	movq	%rdi, %r14
	movq	(%rdi), %r12
	movq	16(%rdi), %rax
	shlq	$4, %rax
	leaq	(%rax,%rax,2), %rbx
	.p2align	4, 0x90
LBB30_4:
	testq	%rbx, %rbx
	je	LBB30_5
	addq	$-48, %rbx
Ltmp6:
	movq	%r12, %rdi
	addq	$48, %r12
	callq	__ZN4core3ptr13drop_in_place17h1202f0d8a0ebc27dE
Ltmp7:
	jmp	LBB30_4
LBB30_5:
	movq	8(%r14), %rax
	testq	%rax, %rax
	je	LBB30_8
	movq	(%r14), %rdi
	testq	%rdi, %rdi
	je	LBB30_8
	shlq	$4, %rax
	leaq	(%rax,%rax,2), %rsi
	testq	%rsi, %rsi
	je	LBB30_8
	movl	$8, %edx
	popq	%rbx
	popq	%r12
	popq	%r14
	popq	%r15
	popq	%rbp
	jmp	___rust_dealloc
LBB30_8:
	popq	%rbx
	popq	%r12
	popq	%r14
	popq	%r15
	popq	%rbp
	retq
LBB30_11:
Ltmp8:
	movq	%rax, %r15
	.p2align	4, 0x90
LBB30_2:
	testq	%rbx, %rbx
	je	LBB30_10
	addq	$-48, %rbx
Ltmp9:
	movq	%r12, %rdi
	addq	$48, %r12
	callq	__ZN4core3ptr13drop_in_place17h1202f0d8a0ebc27dE
Ltmp10:
	jmp	LBB30_2
LBB30_9:
Ltmp11:
	movq	%rax, %r15
LBB30_10:
	movq	(%r14), %rdi
	movq	8(%r14), %rsi
	callq	__ZN4core3ptr13drop_in_place17h80e60624eea5b72aE
	movq	%r15, %rdi
	callq	__Unwind_Resume
	ud2
Lfunc_end1:
	.cfi_endproc
	.section	__TEXT,__gcc_except_tab
	.p2align	2
GCC_except_table30:
Lexception1:
	.byte	255
	.byte	255
	.byte	1
	.uleb128 Lcst_end1-Lcst_begin1
Lcst_begin1:
	.uleb128 Ltmp6-Lfunc_begin1
	.uleb128 Ltmp7-Ltmp6
	.uleb128 Ltmp8-Lfunc_begin1
	.byte	0
	.uleb128 Ltmp9-Lfunc_begin1
	.uleb128 Ltmp10-Ltmp9
	.uleb128 Ltmp11-Lfunc_begin1
	.byte	0
	.uleb128 Ltmp10-Lfunc_begin1
	.uleb128 Lfunc_end1-Ltmp10
	.byte	0
	.byte	0
Lcst_end1:
	.p2align	2

	.section	__TEXT,__text,regular,pure_instructions
	.p2align	4, 0x90
__ZN4core3ptr13drop_in_place17h1028a92139c427ddE:
Lfunc_begin2:
	.cfi_startproc
	.cfi_personality 155, _rust_eh_personality
	.cfi_lsda 16, Lexception2
	pushq	%rbp
	.cfi_def_cfa_offset 16
	.cfi_offset %rbp, -16
	movq	%rsp, %rbp
	.cfi_def_cfa_register %rbp
	pushq	%r14
	pushq	%rbx
	.cfi_offset %rbx, -32
	.cfi_offset %r14, -24
	leaq	8(%rdi), %rbx
	cmpq	$0, (%rdi)
	je	LBB31_1
	movq	%rbx, %rdi
	popq	%rbx
	popq	%r14
	popq	%rbp
	jmp	__ZN4core3ptr13drop_in_place17he95080349802e291E
LBB31_1:
	addq	$32, %rdi
Ltmp12:
	callq	__ZN81_$LT$proc_macro..bridge..client..TokenStream$u20$as$u20$core..ops..drop..Drop$GT$4drop17h41a2e5513f89cb12E
Ltmp13:
	movq	%rbx, %rdi
	popq	%rbx
	popq	%r14
	popq	%rbp
	jmp	__ZN4core3ptr13drop_in_place17hae8b86e418444246E
LBB31_4:
Ltmp14:
	movq	%rax, %r14
	movq	%rbx, %rdi
	callq	__ZN4core3ptr13drop_in_place17hae8b86e418444246E
	movq	%r14, %rdi
	callq	__Unwind_Resume
	ud2
Lfunc_end2:
	.cfi_endproc
	.section	__TEXT,__gcc_except_tab
	.p2align	2
GCC_except_table31:
Lexception2:
	.byte	255
	.byte	255
	.byte	1
	.uleb128 Lcst_end2-Lcst_begin2
Lcst_begin2:
	.uleb128 Lfunc_begin2-Lfunc_begin2
	.uleb128 Ltmp12-Lfunc_begin2
	.byte	0
	.byte	0
	.uleb128 Ltmp12-Lfunc_begin2
	.uleb128 Ltmp13-Ltmp12
	.uleb128 Ltmp14-Lfunc_begin2
	.byte	0
	.uleb128 Ltmp13-Lfunc_begin2
	.uleb128 Lfunc_end2-Ltmp13
	.byte	0
	.byte	0
Lcst_end2:
	.p2align	2

	.section	__TEXT,__text,regular,pure_instructions
	.p2align	4, 0x90
__ZN4core3ptr13drop_in_place17h1202f0d8a0ebc27dE:
Lfunc_begin3:
	.cfi_startproc
	.cfi_personality 155, _rust_eh_personality
	.cfi_lsda 16, Lexception3
	pushq	%rbp
	.cfi_def_cfa_offset 16
	.cfi_offset %rbp, -16
	movq	%rsp, %rbp
	.cfi_def_cfa_register %rbp
	pushq	%r15
	pushq	%r14
	pushq	%r12
	pushq	%rbx
	.cfi_offset %rbx, -48
	.cfi_offset %r12, -40
	.cfi_offset %r14, -32
	.cfi_offset %r15, -24
	movq	%rdi, %r14
	movl	(%rdi), %eax
	testq	%rax, %rax
	je	LBB32_4
	cmpq	$1, %rax
	je	LBB32_18
	cmpq	$2, %rax
	je	LBB32_3
	cmpl	$0, 8(%r14)
	jne	LBB32_19
	addq	$12, %r14
	movq	%r14, %rdi
	popq	%rbx
	popq	%r12
	popq	%r14
	popq	%r15
	popq	%rbp
	jmp	__ZN77_$LT$proc_macro..bridge..client..Literal$u20$as$u20$core..ops..drop..Drop$GT$4drop17he2aea19d6a82f53dE
LBB32_4:
	cmpl	$0, 8(%r14)
	je	LBB32_26
	leaq	16(%r14), %rbx
Ltmp15:
	movq	%rbx, %rdi
	callq	__ZN76_$LT$proc_macro2..fallback..TokenStream$u20$as$u20$core..ops..drop..Drop$GT$4drop17hd9190ec22163f7cbE
Ltmp16:
	movq	16(%r14), %r12
	movq	32(%r14), %rax
	shlq	$4, %rax
	leaq	(%rax,%rax,2), %rbx
	.p2align	4, 0x90
LBB32_10:
	testq	%rbx, %rbx
	je	LBB32_11
	addq	$-48, %rbx
Ltmp18:
	movq	%r12, %rdi
	addq	$48, %r12
	callq	__ZN4core3ptr13drop_in_place17h1202f0d8a0ebc27dE
Ltmp19:
	jmp	LBB32_10
LBB32_18:
	cmpl	$0, 8(%r14)
	je	LBB32_3
LBB32_19:
	movq	16(%r14), %rdi
	testq	%rdi, %rdi
	je	LBB32_3
	movq	24(%r14), %rsi
	testq	%rsi, %rsi
	je	LBB32_3
	movl	$1, %edx
	jmp	LBB32_15
LBB32_11:
	movq	24(%r14), %rax
	testq	%rax, %rax
	je	LBB32_3
	movq	16(%r14), %rdi
	testq	%rdi, %rdi
	je	LBB32_3
	shlq	$4, %rax
	leaq	(%rax,%rax,2), %rsi
	testq	%rsi, %rsi
	je	LBB32_3
	movl	$8, %edx
LBB32_15:
	popq	%rbx
	popq	%r12
	popq	%r14
	popq	%r15
	popq	%rbp
	jmp	___rust_dealloc
LBB32_3:
	popq	%rbx
	popq	%r12
	popq	%r14
	popq	%r15
	popq	%rbp
	retq
LBB32_26:
	addq	$12, %r14
	movq	%r14, %rdi
	popq	%rbx
	popq	%r12
	popq	%r14
	popq	%r15
	popq	%rbp
	jmp	__ZN75_$LT$proc_macro..bridge..client..Group$u20$as$u20$core..ops..drop..Drop$GT$4drop17he3c88ef672dde681E
LBB32_24:
Ltmp17:
	movq	%rax, %r15
	movq	%rbx, %rdi
	callq	__ZN4core3ptr13drop_in_place17h0f6c0b7d7e2392feE
	movq	%r15, %rdi
	callq	__Unwind_Resume
	ud2
LBB32_27:
Ltmp20:
	movq	%rax, %r15
	.p2align	4, 0x90
LBB32_8:
	testq	%rbx, %rbx
	je	LBB32_17
	addq	$-48, %rbx
Ltmp21:
	movq	%r12, %rdi
	addq	$48, %r12
	callq	__ZN4core3ptr13drop_in_place17h1202f0d8a0ebc27dE
Ltmp22:
	jmp	LBB32_8
LBB32_16:
Ltmp23:
	movq	%rax, %r15
LBB32_17:
	movq	16(%r14), %rdi
	movq	24(%r14), %rsi
	callq	__ZN4core3ptr13drop_in_place17h80e60624eea5b72aE
	movq	%r15, %rdi
	callq	__Unwind_Resume
	ud2
Lfunc_end3:
	.cfi_endproc
	.section	__TEXT,__gcc_except_tab
	.p2align	2
GCC_except_table32:
Lexception3:
	.byte	255
	.byte	255
	.byte	1
	.uleb128 Lcst_end3-Lcst_begin3
Lcst_begin3:
	.uleb128 Lfunc_begin3-Lfunc_begin3
	.uleb128 Ltmp15-Lfunc_begin3
	.byte	0
	.byte	0
	.uleb128 Ltmp15-Lfunc_begin3
	.uleb128 Ltmp16-Ltmp15
	.uleb128 Ltmp17-Lfunc_begin3
	.byte	0
	.uleb128 Ltmp18-Lfunc_begin3
	.uleb128 Ltmp19-Ltmp18
	.uleb128 Ltmp20-Lfunc_begin3
	.byte	0
	.uleb128 Ltmp19-Lfunc_begin3
	.uleb128 Ltmp21-Ltmp19
	.byte	0
	.byte	0
	.uleb128 Ltmp21-Lfunc_begin3
	.uleb128 Ltmp22-Ltmp21
	.uleb128 Ltmp23-Lfunc_begin3
	.byte	0
	.uleb128 Ltmp22-Lfunc_begin3
	.uleb128 Lfunc_end3-Ltmp22
	.byte	0
	.byte	0
Lcst_end3:
	.p2align	2

	.section	__TEXT,__text,regular,pure_instructions
	.p2align	4, 0x90
__ZN4core3ptr13drop_in_place17h2b6e261ab68f2b05E:
	.cfi_startproc
	pushq	%rbp
	.cfi_def_cfa_offset 16
	.cfi_offset %rbp, -16
	movq	%rsp, %rbp
	.cfi_def_cfa_register %rbp
	movq	8(%rdi), %rax
	movq	16(%rdi), %rcx
	movq	%rcx, (%rax)
	popq	%rbp
	retq
	.cfi_endproc

	.p2align	4, 0x90
__ZN4core3ptr13drop_in_place17h3542149344c36bfaE:
	.cfi_startproc
	pushq	%rbp
	.cfi_def_cfa_offset 16
	.cfi_offset %rbp, -16
	movq	%rsp, %rbp
	.cfi_def_cfa_register %rbp
	movq	%rdi, %rax
	movq	(%rdi), %rdi
	testq	%rdi, %rdi
	je	LBB34_2
	movq	8(%rax), %rsi
	testq	%rsi, %rsi
	je	LBB34_2
	movl	$1, %edx
	popq	%rbp
	jmp	___rust_dealloc
LBB34_2:
	popq	%rbp
	retq
	.cfi_endproc

	.p2align	4, 0x90
__ZN4core3ptr13drop_in_place17h3bbbaaad5f52e1baE:
Lfunc_begin4:
	.cfi_startproc
	.cfi_personality 155, _rust_eh_personality
	.cfi_lsda 16, Lexception4
	pushq	%rbp
	.cfi_def_cfa_offset 16
	.cfi_offset %rbp, -16
	movq	%rsp, %rbp
	.cfi_def_cfa_register %rbp
	pushq	%r15
	pushq	%r14
	pushq	%rbx
	pushq	%rax
	.cfi_offset %rbx, -40
	.cfi_offset %r14, -32
	.cfi_offset %r15, -24
	movq	%rdi, %r14
	movq	%rdi, -32(%rbp)
	movq	16(%rdi), %r15
	movq	24(%rdi), %rbx
	subq	%r15, %rbx
	.p2align	4, 0x90
LBB35_4:
	testq	%rbx, %rbx
	je	LBB35_5
	addq	$-48, %rbx
Ltmp24:
	movq	%r15, %rdi
	addq	$48, %r15
	callq	__ZN4core3ptr13drop_in_place17h1202f0d8a0ebc27dE
Ltmp25:
	jmp	LBB35_4
LBB35_5:
	movq	8(%r14), %rax
	testq	%rax, %rax
	je	LBB35_8
	shlq	$4, %rax
	leaq	(%rax,%rax,2), %rsi
	testq	%rsi, %rsi
	je	LBB35_8
	movq	(%r14), %rdi
	movl	$8, %edx
	callq	___rust_dealloc
LBB35_8:
	addq	$8, %rsp
	popq	%rbx
	popq	%r14
	popq	%r15
	popq	%rbp
	retq
LBB35_11:
Ltmp26:
	movq	%rax, %r14
	.p2align	4, 0x90
LBB35_2:
	testq	%rbx, %rbx
	je	LBB35_10
	addq	$-48, %rbx
Ltmp27:
	movq	%r15, %rdi
	addq	$48, %r15
	callq	__ZN4core3ptr13drop_in_place17h1202f0d8a0ebc27dE
Ltmp28:
	jmp	LBB35_2
LBB35_9:
Ltmp29:
	movq	%rax, %r14
LBB35_10:
	leaq	-32(%rbp), %rdi
	callq	__ZN4core3ptr13drop_in_place17he2b3add8803a1fd9E
	movq	%r14, %rdi
	callq	__Unwind_Resume
	ud2
Lfunc_end4:
	.cfi_endproc
	.section	__TEXT,__gcc_except_tab
	.p2align	2
GCC_except_table35:
Lexception4:
	.byte	255
	.byte	255
	.byte	1
	.uleb128 Lcst_end4-Lcst_begin4
Lcst_begin4:
	.uleb128 Ltmp24-Lfunc_begin4
	.uleb128 Ltmp25-Ltmp24
	.uleb128 Ltmp26-Lfunc_begin4
	.byte	0
	.uleb128 Ltmp27-Lfunc_begin4
	.uleb128 Ltmp28-Ltmp27
	.uleb128 Ltmp29-Lfunc_begin4
	.byte	0
	.uleb128 Ltmp28-Lfunc_begin4
	.uleb128 Lfunc_end4-Ltmp28
	.byte	0
	.byte	0
Lcst_end4:
	.p2align	2

	.section	__TEXT,__text,regular,pure_instructions
	.p2align	4, 0x90
__ZN4core3ptr13drop_in_place17h43966db0fa6903abE:
	.cfi_startproc
	pushq	%rbp
	.cfi_def_cfa_offset 16
	.cfi_offset %rbp, -16
	movq	%rsp, %rbp
	.cfi_def_cfa_register %rbp
	cmpq	$0, 16(%rdi)
	je	LBB36_1
	popq	%rbp
	jmp	__ZN4core3ptr13drop_in_place17h7fe781c34907fba6E
LBB36_1:
	popq	%rbp
	retq
	.cfi_endproc

	.p2align	4, 0x90
__ZN4core3ptr13drop_in_place17h4cb264320d412635E:
Lfunc_begin5:
	.cfi_startproc
	.cfi_personality 155, _rust_eh_personality
	.cfi_lsda 16, Lexception5
	pushq	%rbp
	.cfi_def_cfa_offset 16
	.cfi_offset %rbp, -16
	movq	%rsp, %rbp
	.cfi_def_cfa_register %rbp
	pushq	%r15
	pushq	%r14
	pushq	%rbx
	pushq	%rax
	.cfi_offset %rbx, -40
	.cfi_offset %r14, -32
	.cfi_offset %r15, -24
	movq	%rdi, %r14
	cmpl	$0, (%rdi)
	je	LBB37_12
	leaq	8(%r14), %rax
	movq	%rax, -32(%rbp)
	movq	24(%r14), %r15
	movq	32(%r14), %rbx
	subq	%r15, %rbx
	.p2align	4, 0x90
LBB37_5:
	testq	%rbx, %rbx
	je	LBB37_6
	addq	$-48, %rbx
Ltmp30:
	movq	%r15, %rdi
	addq	$48, %r15
	callq	__ZN4core3ptr13drop_in_place17h1202f0d8a0ebc27dE
Ltmp31:
	jmp	LBB37_5
LBB37_6:
	movq	16(%r14), %rax
	testq	%rax, %rax
	je	LBB37_9
	shlq	$4, %rax
	leaq	(%rax,%rax,2), %rsi
	testq	%rsi, %rsi
	je	LBB37_9
	movq	8(%r14), %rdi
	movl	$8, %edx
	callq	___rust_dealloc
LBB37_9:
	addq	$8, %rsp
	popq	%rbx
	popq	%r14
	popq	%r15
	popq	%rbp
	retq
LBB37_12:
	addq	$4, %r14
	movq	%r14, %rdi
	addq	$8, %rsp
	popq	%rbx
	popq	%r14
	popq	%r15
	popq	%rbp
	jmp	__ZN85_$LT$proc_macro..bridge..client..TokenStreamIter$u20$as$u20$core..ops..drop..Drop$GT$4drop17h895c7a3fc27312aaE
LBB37_13:
Ltmp32:
	movq	%rax, %r14
	.p2align	4, 0x90
LBB37_3:
	testq	%rbx, %rbx
	je	LBB37_11
	addq	$-48, %rbx
Ltmp33:
	movq	%r15, %rdi
	addq	$48, %r15
	callq	__ZN4core3ptr13drop_in_place17h1202f0d8a0ebc27dE
Ltmp34:
	jmp	LBB37_3
LBB37_10:
Ltmp35:
	movq	%rax, %r14
LBB37_11:
	leaq	-32(%rbp), %rdi
	callq	__ZN4core3ptr13drop_in_place17he2b3add8803a1fd9E
	movq	%r14, %rdi
	callq	__Unwind_Resume
	ud2
Lfunc_end5:
	.cfi_endproc
	.section	__TEXT,__gcc_except_tab
	.p2align	2
GCC_except_table37:
Lexception5:
	.byte	255
	.byte	255
	.byte	1
	.uleb128 Lcst_end5-Lcst_begin5
Lcst_begin5:
	.uleb128 Ltmp30-Lfunc_begin5
	.uleb128 Ltmp31-Ltmp30
	.uleb128 Ltmp32-Lfunc_begin5
	.byte	0
	.uleb128 Ltmp31-Lfunc_begin5
	.uleb128 Ltmp33-Ltmp31
	.byte	0
	.byte	0
	.uleb128 Ltmp33-Lfunc_begin5
	.uleb128 Ltmp34-Ltmp33
	.uleb128 Ltmp35-Lfunc_begin5
	.byte	0
	.uleb128 Ltmp34-Lfunc_begin5
	.uleb128 Lfunc_end5-Ltmp34
	.byte	0
	.byte	0
Lcst_end5:
	.p2align	2

	.section	__TEXT,__text,regular,pure_instructions
	.p2align	4, 0x90
__ZN4core3ptr13drop_in_place17h52dd68b03f4c9b56E:
Lfunc_begin6:
	.cfi_startproc
	.cfi_personality 155, _rust_eh_personality
	.cfi_lsda 16, Lexception6
	pushq	%rbp
	.cfi_def_cfa_offset 16
	.cfi_offset %rbp, -16
	movq	%rsp, %rbp
	.cfi_def_cfa_register %rbp
	pushq	%r15
	pushq	%r14
	pushq	%r12
	pushq	%rbx
	.cfi_offset %rbx, -48
	.cfi_offset %r12, -40
	.cfi_offset %r14, -32
	.cfi_offset %r15, -24
	movq	%rdi, %r14
Ltmp36:
	callq	__ZN76_$LT$proc_macro2..fallback..TokenStream$u20$as$u20$core..ops..drop..Drop$GT$4drop17hd9190ec22163f7cbE
Ltmp37:
	movq	(%r14), %r12
	movq	16(%r14), %rax
	shlq	$4, %rax
	leaq	(%rax,%rax,2), %rbx
	.p2align	4, 0x90
LBB38_5:
	testq	%rbx, %rbx
	je	LBB38_6
	addq	$-48, %rbx
Ltmp39:
	movq	%r12, %rdi
	addq	$48, %r12
	callq	__ZN4core3ptr13drop_in_place17h1202f0d8a0ebc27dE
Ltmp40:
	jmp	LBB38_5
LBB38_6:
	movq	8(%r14), %rax
	testq	%rax, %rax
	je	LBB38_12
	movq	(%r14), %rdi
	testq	%rdi, %rdi
	je	LBB38_12
	shlq	$4, %rax
	leaq	(%rax,%rax,2), %rsi
	testq	%rsi, %rsi
	je	LBB38_12
	movl	$8, %edx
	popq	%rbx
	popq	%r12
	popq	%r14
	popq	%r15
	popq	%rbp
	jmp	___rust_dealloc
LBB38_12:
	popq	%rbx
	popq	%r12
	popq	%r14
	popq	%r15
	popq	%rbp
	retq
LBB38_13:
Ltmp38:
	movq	%rax, %r15
	movq	%r14, %rdi
	callq	__ZN4core3ptr13drop_in_place17h0f6c0b7d7e2392feE
	movq	%r15, %rdi
	callq	__Unwind_Resume
	ud2
LBB38_15:
Ltmp41:
	movq	%rax, %r15
	.p2align	4, 0x90
LBB38_3:
	testq	%rbx, %rbx
	je	LBB38_11
	addq	$-48, %rbx
Ltmp42:
	movq	%r12, %rdi
	addq	$48, %r12
	callq	__ZN4core3ptr13drop_in_place17h1202f0d8a0ebc27dE
Ltmp43:
	jmp	LBB38_3
LBB38_10:
Ltmp44:
	movq	%rax, %r15
LBB38_11:
	movq	(%r14), %rdi
	movq	8(%r14), %rsi
	callq	__ZN4core3ptr13drop_in_place17h80e60624eea5b72aE
	movq	%r15, %rdi
	callq	__Unwind_Resume
	ud2
Lfunc_end6:
	.cfi_endproc
	.section	__TEXT,__gcc_except_tab
	.p2align	2
GCC_except_table38:
Lexception6:
	.byte	255
	.byte	255
	.byte	1
	.uleb128 Lcst_end6-Lcst_begin6
Lcst_begin6:
	.uleb128 Ltmp36-Lfunc_begin6
	.uleb128 Ltmp37-Ltmp36
	.uleb128 Ltmp38-Lfunc_begin6
	.byte	0
	.uleb128 Ltmp39-Lfunc_begin6
	.uleb128 Ltmp40-Ltmp39
	.uleb128 Ltmp41-Lfunc_begin6
	.byte	0
	.uleb128 Ltmp40-Lfunc_begin6
	.uleb128 Ltmp42-Ltmp40
	.byte	0
	.byte	0
	.uleb128 Ltmp42-Lfunc_begin6
	.uleb128 Ltmp43-Ltmp42
	.uleb128 Ltmp44-Lfunc_begin6
	.byte	0
	.uleb128 Ltmp43-Lfunc_begin6
	.uleb128 Lfunc_end6-Ltmp43
	.byte	0
	.byte	0
Lcst_end6:
	.p2align	2

	.section	__TEXT,__text,regular,pure_instructions
	.p2align	4, 0x90
__ZN4core3ptr13drop_in_place17h5d9a00d7b0eef662E:
	.cfi_startproc
	pushq	%rbp
	.cfi_def_cfa_offset 16
	.cfi_offset %rbp, -16
	movq	%rsp, %rbp
	.cfi_def_cfa_register %rbp
	popq	%rbp
	jmp	__ZN85_$LT$proc_macro..bridge..client..TokenStreamIter$u20$as$u20$core..ops..drop..Drop$GT$4drop17h895c7a3fc27312aaE
	.cfi_endproc

	.p2align	4, 0x90
__ZN4core3ptr13drop_in_place17h5ecf8ca1e159d725E:
Lfunc_begin7:
	.cfi_startproc
	.cfi_personality 155, _rust_eh_personality
	.cfi_lsda 16, Lexception7
	pushq	%rbp
	.cfi_def_cfa_offset 16
	.cfi_offset %rbp, -16
	movq	%rsp, %rbp
	.cfi_def_cfa_register %rbp
	pushq	%r14
	pushq	%rbx
	.cfi_offset %rbx, -32
	.cfi_offset %r14, -24
	movq	%rdi, %rbx
	cmpl	$0, 40(%rdi)
	je	LBB40_3
	cmpl	$0, 44(%rbx)
	je	LBB40_3
	leaq	44(%rbx), %rdi
Ltmp45:
	callq	__ZN81_$LT$proc_macro..bridge..client..TokenStream$u20$as$u20$core..ops..drop..Drop$GT$4drop17h41a2e5513f89cb12E
Ltmp46:
LBB40_3:
	cmpq	$0, 16(%rbx)
	je	LBB40_4
	movq	%rbx, %rdi
	popq	%rbx
	popq	%r14
	popq	%rbp
	jmp	__ZN4core3ptr13drop_in_place17h7fe781c34907fba6E
LBB40_4:
	popq	%rbx
	popq	%r14
	popq	%rbp
	retq
LBB40_5:
Ltmp47:
	movq	%rax, %r14
	movq	%rbx, %rdi
	callq	__ZN4core3ptr13drop_in_place17h43966db0fa6903abE
	movq	%r14, %rdi
	callq	__Unwind_Resume
	ud2
Lfunc_end7:
	.cfi_endproc
	.section	__TEXT,__gcc_except_tab
	.p2align	2
GCC_except_table40:
Lexception7:
	.byte	255
	.byte	255
	.byte	1
	.uleb128 Lcst_end7-Lcst_begin7
Lcst_begin7:
	.uleb128 Ltmp45-Lfunc_begin7
	.uleb128 Ltmp46-Ltmp45
	.uleb128 Ltmp47-Lfunc_begin7
	.byte	0
	.uleb128 Ltmp46-Lfunc_begin7
	.uleb128 Lfunc_end7-Ltmp46
	.byte	0
	.byte	0
Lcst_end7:
	.p2align	2

	.section	__TEXT,__text,regular,pure_instructions
	.p2align	4, 0x90
__ZN4core3ptr13drop_in_place17h69741f16530d95a1E:
Lfunc_begin8:
	.cfi_startproc
	.cfi_personality 155, _rust_eh_personality
	.cfi_lsda 16, Lexception8
	pushq	%rbp
	.cfi_def_cfa_offset 16
	.cfi_offset %rbp, -16
	movq	%rsp, %rbp
	.cfi_def_cfa_register %rbp
	pushq	%r15
	pushq	%r14
	pushq	%r13
	pushq	%r12
	pushq	%rbx
	subq	$24, %rsp
	.cfi_offset %rbx, -56
	.cfi_offset %r12, -48
	.cfi_offset %r13, -40
	.cfi_offset %r14, -32
	.cfi_offset %r15, -24
	movq	(%rdi), %r12
	movq	16(%rdi), %r13
	testq	%r13, %r13
	je	LBB41_11
	movq	%rdi, -56(%rbp)
	shlq	$5, %r13
	leaq	(%r12,%r13), %rax
	movq	%rax, -64(%rbp)
	addq	$-32, %r13
	jmp	LBB41_3
	.p2align	4, 0x90
LBB41_2:
	addq	$-32, %r13
	cmpq	-64(%rbp), %r12
	je	LBB41_10
LBB41_3:
	movq	%r12, %r14
	addq	$32, %r12
	movq	8(%r14), %rbx
	movq	24(%r14), %rax
	shlq	$4, %rax
	leaq	(%rax,%rax,2), %r15
	.p2align	4, 0x90
LBB41_4:
	testq	%r15, %r15
	je	LBB41_6
	addq	$-48, %r15
Ltmp48:
	movq	%rbx, %rdi
	addq	$48, %rbx
	callq	__ZN4core3ptr13drop_in_place17h1202f0d8a0ebc27dE
Ltmp49:
	jmp	LBB41_4
	.p2align	4, 0x90
LBB41_6:
	movq	16(%r14), %rax
	testq	%rax, %rax
	je	LBB41_2
	movq	8(%r14), %rdi
	testq	%rdi, %rdi
	je	LBB41_2
	shlq	$4, %rax
	leaq	(%rax,%rax,2), %rsi
	testq	%rsi, %rsi
	je	LBB41_2
	movl	$8, %edx
	callq	___rust_dealloc
	jmp	LBB41_2
LBB41_10:
	movq	-56(%rbp), %rdi
	movq	(%rdi), %r12
LBB41_11:
	movq	8(%rdi), %rsi
	testq	%rsi, %rsi
	je	LBB41_15
	testq	%r12, %r12
	je	LBB41_15
	shlq	$5, %rsi
	je	LBB41_15
	movl	$8, %edx
	movq	%r12, %rdi
	addq	$24, %rsp
	popq	%rbx
	popq	%r12
	popq	%r13
	popq	%r14
	popq	%r15
	popq	%rbp
	jmp	___rust_dealloc
LBB41_15:
	addq	$24, %rsp
	popq	%rbx
	popq	%r12
	popq	%r13
	popq	%r14
	popq	%r15
	popq	%rbp
	retq
LBB41_16:
Ltmp50:
	movq	%rax, -48(%rbp)
LBB41_17:
	testq	%r15, %r15
	je	LBB41_20
	addq	$-48, %r15
Ltmp51:
	movq	%rbx, %rdi
	addq	$48, %rbx
	callq	__ZN4core3ptr13drop_in_place17h1202f0d8a0ebc27dE
Ltmp52:
	jmp	LBB41_17
LBB41_19:
Ltmp53:
	movq	%rax, -48(%rbp)
LBB41_20:
	movq	8(%r14), %rdi
	movq	16(%r14), %rsi
	callq	__ZN4core3ptr13drop_in_place17h80e60624eea5b72aE
	cmpq	-64(%rbp), %r12
	movq	-56(%rbp), %r14
	je	LBB41_24
	.p2align	4, 0x90
LBB41_21:
Ltmp54:
	movq	%r12, %rdi
	callq	__ZN4core3ptr13drop_in_place17h0895f1861e129d5eE
Ltmp55:
	addq	$32, %r12
	addq	$-32, %r13
	jne	LBB41_21
LBB41_24:
	movq	-48(%rbp), %rbx
	jmp	LBB41_26
LBB41_25:
Ltmp56:
	movq	%rax, %rbx
LBB41_26:
	movq	(%r14), %rdi
	movq	8(%r14), %rsi
	callq	__ZN4core3ptr13drop_in_place17he6f57fa81c4b03f2E
	movq	%rbx, %rdi
	callq	__Unwind_Resume
	ud2
Lfunc_end8:
	.cfi_endproc
	.section	__TEXT,__gcc_except_tab
	.p2align	2
GCC_except_table41:
Lexception8:
	.byte	255
	.byte	255
	.byte	1
	.uleb128 Lcst_end8-Lcst_begin8
Lcst_begin8:
	.uleb128 Ltmp48-Lfunc_begin8
	.uleb128 Ltmp49-Ltmp48
	.uleb128 Ltmp50-Lfunc_begin8
	.byte	0
	.uleb128 Ltmp51-Lfunc_begin8
	.uleb128 Ltmp52-Ltmp51
	.uleb128 Ltmp53-Lfunc_begin8
	.byte	0
	.uleb128 Ltmp54-Lfunc_begin8
	.uleb128 Ltmp55-Ltmp54
	.uleb128 Ltmp56-Lfunc_begin8
	.byte	0
	.uleb128 Ltmp55-Lfunc_begin8
	.uleb128 Lfunc_end8-Ltmp55
	.byte	0
	.byte	0
Lcst_end8:
	.p2align	2

	.section	__TEXT,__text,regular,pure_instructions
	.p2align	4, 0x90
__ZN4core3ptr13drop_in_place17h6e056154699760d6E:
Lfunc_begin9:
	.cfi_startproc
	.cfi_personality 155, _rust_eh_personality
	.cfi_lsda 16, Lexception9
	pushq	%rbp
	.cfi_def_cfa_offset 16
	.cfi_offset %rbp, -16
	movq	%rsp, %rbp
	.cfi_def_cfa_register %rbp
	pushq	%r14
	pushq	%rbx
	.cfi_offset %rbx, -32
	.cfi_offset %r14, -24
	movq	%rdi, %rbx
	cmpl	$0, (%rdi)
	je	LBB42_3
	addq	$8, %rbx
Ltmp57:
	movq	%rbx, %rdi
	callq	__ZN76_$LT$proc_macro2..fallback..TokenStream$u20$as$u20$core..ops..drop..Drop$GT$4drop17hd9190ec22163f7cbE
Ltmp58:
	movq	%rbx, %rdi
	popq	%rbx
	popq	%r14
	popq	%rbp
	jmp	__ZN4core3ptr13drop_in_place17h0f6c0b7d7e2392feE
LBB42_3:
	addq	$4, %rbx
	movq	%rbx, %rdi
	popq	%rbx
	popq	%r14
	popq	%rbp
	jmp	__ZN75_$LT$proc_macro..bridge..client..Group$u20$as$u20$core..ops..drop..Drop$GT$4drop17he3c88ef672dde681E
LBB42_4:
Ltmp59:
	movq	%rax, %r14
	movq	%rbx, %rdi
	callq	__ZN4core3ptr13drop_in_place17h0f6c0b7d7e2392feE
	movq	%r14, %rdi
	callq	__Unwind_Resume
	ud2
Lfunc_end9:
	.cfi_endproc
	.section	__TEXT,__gcc_except_tab
	.p2align	2
GCC_except_table42:
Lexception9:
	.byte	255
	.byte	255
	.byte	1
	.uleb128 Lcst_end9-Lcst_begin9
Lcst_begin9:
	.uleb128 Ltmp57-Lfunc_begin9
	.uleb128 Ltmp58-Ltmp57
	.uleb128 Ltmp59-Lfunc_begin9
	.byte	0
	.uleb128 Ltmp58-Lfunc_begin9
	.uleb128 Lfunc_end9-Ltmp58
	.byte	0
	.byte	0
Lcst_end9:
	.p2align	2

	.section	__TEXT,__text,regular,pure_instructions
	.p2align	4, 0x90
__ZN4core3ptr13drop_in_place17h75c6b2b6e70de610E:
	.cfi_startproc
	pushq	%rbp
	.cfi_def_cfa_offset 16
	.cfi_offset %rbp, -16
	movq	%rsp, %rbp
	.cfi_def_cfa_register %rbp
	testq	%rsi, %rsi
	je	LBB43_3
	testq	%rdi, %rdi
	je	LBB43_3
	shlq	$3, %rsi
	testq	%rsi, %rsi
	je	LBB43_3
	movl	$4, %edx
	popq	%rbp
	jmp	___rust_dealloc
LBB43_3:
	popq	%rbp
	retq
	.cfi_endproc

	.p2align	4, 0x90
__ZN4core3ptr13drop_in_place17h7de220620b110576E:
	.cfi_startproc
	pushq	%rbp
	.cfi_def_cfa_offset 16
	.cfi_offset %rbp, -16
	movq	%rsp, %rbp
	.cfi_def_cfa_register %rbp
	popq	%rbp
	jmp	__ZN4core3ptr13drop_in_place17h7fe781c34907fba6E
	.cfi_endproc

	.p2align	4, 0x90
__ZN4core3ptr13drop_in_place17h7fe781c34907fba6E:
Lfunc_begin10:
	.cfi_startproc
	.cfi_personality 155, _rust_eh_personality
	.cfi_lsda 16, Lexception10
	pushq	%rbp
	.cfi_def_cfa_offset 16
	.cfi_offset %rbp, -16
	movq	%rsp, %rbp
	.cfi_def_cfa_register %rbp
	pushq	%r15
	pushq	%r14
	pushq	%rbx
	subq	$24, %rsp
	.cfi_offset %rbx, -40
	.cfi_offset %r14, -32
	.cfi_offset %r15, -24
	movq	%rdi, %rbx
	movq	16(%rdi), %rax
	movq	24(%rdi), %rcx
	cmpq	%rcx, %rax
	je	LBB45_15
	leaq	8(%rax), %rdx
	movq	%rdx, 16(%rbx)
	movq	(%rax), %rdx
	cmpl	$4, %edx
	je	LBB45_7
	leaq	-28(%rbp), %r14
	.p2align	4, 0x90
LBB45_3:
	movq	%rbx, -40(%rbp)
	movq	%rdx, -32(%rbp)
	leal	-1(%rdx), %eax
	cmpl	$2, %eax
	jb	LBB45_21
	testl	%edx, %edx
	jne	LBB45_20
Ltmp60:
	movq	%r14, %rdi
	callq	__ZN75_$LT$proc_macro..bridge..client..Group$u20$as$u20$core..ops..drop..Drop$GT$4drop17he3c88ef672dde681E
Ltmp61:
	jmp	LBB45_21
	.p2align	4, 0x90
LBB45_20:
Ltmp62:
	movq	%r14, %rdi
	callq	__ZN77_$LT$proc_macro..bridge..client..Literal$u20$as$u20$core..ops..drop..Drop$GT$4drop17he2aea19d6a82f53dE
Ltmp63:
LBB45_21:
	movq	16(%rbx), %rax
	movq	24(%rbx), %rcx
	cmpq	%rcx, %rax
	je	LBB45_15
	leaq	8(%rax), %rdx
	movq	%rdx, 16(%rbx)
	movq	(%rax), %rdx
	cmpl	$4, %edx
	jne	LBB45_3
LBB45_7:
	addq	$8, %rax
	cmpq	%rax, %rcx
	je	LBB45_15
	leaq	-28(%rbp), %r14
	jmp	LBB45_9
	.p2align	4, 0x90
LBB45_13:
	callq	__ZN77_$LT$proc_macro..bridge..client..Literal$u20$as$u20$core..ops..drop..Drop$GT$4drop17he2aea19d6a82f53dE
LBB45_14:
	movq	16(%rbx), %rax
	cmpq	24(%rbx), %rax
	je	LBB45_15
LBB45_9:
	leaq	8(%rax), %rcx
	movq	%rcx, 16(%rbx)
	movq	(%rax), %rax
	cmpl	$4, %eax
	je	LBB45_15
	movq	%rax, -32(%rbp)
	leal	-1(%rax), %ecx
	cmpl	$2, %ecx
	jb	LBB45_14
	movq	%r14, %rdi
	testl	%eax, %eax
	jne	LBB45_13
	callq	__ZN75_$LT$proc_macro..bridge..client..Group$u20$as$u20$core..ops..drop..Drop$GT$4drop17he3c88ef672dde681E
	movq	16(%rbx), %rax
	cmpq	24(%rbx), %rax
	jne	LBB45_9
LBB45_15:
	movq	8(%rbx), %rdx
	testq	%rdx, %rdx
	je	LBB45_19
	movq	(%rbx), %rax
	movq	32(%rbx), %r14
	movq	16(%r14), %r15
	cmpq	%r15, %rax
	je	LBB45_18
	movq	(%r14), %rcx
	leaq	(%rcx,%rax,8), %rsi
	leaq	(%rcx,%r15,8), %rdi
	shlq	$3, %rdx
	callq	_memmove
	movq	8(%rbx), %rdx
LBB45_18:
	addq	%r15, %rdx
	movq	%rdx, 16(%r14)
LBB45_19:
	addq	$24, %rsp
	popq	%rbx
	popq	%r14
	popq	%r15
	popq	%rbp
	retq
LBB45_22:
Ltmp64:
	movq	%rax, %rbx
	leaq	-40(%rbp), %rdi
	callq	__ZN4core3ptr13drop_in_place17hd0a4556c2cd343d1E
	movq	%rbx, %rdi
	callq	__Unwind_Resume
	ud2
Lfunc_end10:
	.cfi_endproc
	.section	__TEXT,__gcc_except_tab
	.p2align	2
GCC_except_table45:
Lexception10:
	.byte	255
	.byte	255
	.byte	1
	.uleb128 Lcst_end10-Lcst_begin10
Lcst_begin10:
	.uleb128 Ltmp60-Lfunc_begin10
	.uleb128 Ltmp63-Ltmp60
	.uleb128 Ltmp64-Lfunc_begin10
	.byte	0
	.uleb128 Ltmp63-Lfunc_begin10
	.uleb128 Lfunc_end10-Ltmp63
	.byte	0
	.byte	0
Lcst_end10:
	.p2align	2

	.section	__TEXT,__text,regular,pure_instructions
	.p2align	4, 0x90
__ZN4core3ptr13drop_in_place17h80e60624eea5b72aE:
	.cfi_startproc
	pushq	%rbp
	.cfi_def_cfa_offset 16
	.cfi_offset %rbp, -16
	movq	%rsp, %rbp
	.cfi_def_cfa_register %rbp
	testq	%rsi, %rsi
	je	LBB46_3
	testq	%rdi, %rdi
	je	LBB46_3
	shlq	$4, %rsi
	leaq	(%rsi,%rsi,2), %rsi
	testq	%rsi, %rsi
	je	LBB46_3
	movl	$8, %edx
	popq	%rbp
	jmp	___rust_dealloc
LBB46_3:
	popq	%rbp
	retq
	.cfi_endproc

	.p2align	4, 0x90
__ZN4core3ptr13drop_in_place17h912714cd2f86fe4fE:
	.cfi_startproc
	pushq	%rbp
	.cfi_def_cfa_offset 16
	.cfi_offset %rbp, -16
	movq	%rsp, %rbp
	.cfi_def_cfa_register %rbp
	movl	(%rdi), %eax
	leaq	-1(%rax), %rcx
	cmpq	$2, %rcx
	jae	LBB47_1
	popq	%rbp
	retq
LBB47_1:
	addq	$4, %rdi
	testq	%rax, %rax
	jne	LBB47_2
	popq	%rbp
	jmp	__ZN75_$LT$proc_macro..bridge..client..Group$u20$as$u20$core..ops..drop..Drop$GT$4drop17he3c88ef672dde681E
LBB47_2:
	popq	%rbp
	jmp	__ZN77_$LT$proc_macro..bridge..client..Literal$u20$as$u20$core..ops..drop..Drop$GT$4drop17he2aea19d6a82f53dE
	.cfi_endproc

	.p2align	4, 0x90
__ZN4core3ptr13drop_in_place17h9160fb86ad68a8adE:
	.cfi_startproc
	pushq	%rbp
	.cfi_def_cfa_offset 16
	.cfi_offset %rbp, -16
	movq	%rsp, %rbp
	.cfi_def_cfa_register %rbp
	cmpl	$0, (%rdi)
	je	LBB48_3
	movq	%rdi, %rax
	movq	8(%rdi), %rdi
	testq	%rdi, %rdi
	je	LBB48_3
	movq	16(%rax), %rsi
	testq	%rsi, %rsi
	je	LBB48_3
	movl	$1, %edx
	popq	%rbp
	jmp	___rust_dealloc
LBB48_3:
	popq	%rbp
	retq
	.cfi_endproc

	.p2align	4, 0x90
__ZN4core3ptr13drop_in_place17h91c5b46e6643987cE:
	.cfi_startproc
	pushq	%rbp
	.cfi_def_cfa_offset 16
	.cfi_offset %rbp, -16
	movq	%rsp, %rbp
	.cfi_def_cfa_register %rbp
	popq	%rbp
	jmp	__ZN88_$LT$proc_macro..bridge..client..TokenStreamBuilder$u20$as$u20$core..ops..drop..Drop$GT$4drop17h118039a45e507d80E
	.cfi_endproc

	.p2align	4, 0x90
__ZN4core3ptr13drop_in_place17h95431480d457be99E:
Lfunc_begin11:
	.cfi_startproc
	.cfi_personality 155, _rust_eh_personality
	.cfi_lsda 16, Lexception11
	pushq	%rbp
	.cfi_def_cfa_offset 16
	.cfi_offset %rbp, -16
	movq	%rsp, %rbp
	.cfi_def_cfa_register %rbp
	pushq	%r14
	pushq	%rbx
	.cfi_offset %rbx, -32
	.cfi_offset %r14, -24
	leaq	8(%rdi), %rbx
	cmpq	$0, (%rdi)
	je	LBB50_1
	movq	%rbx, %rdi
	popq	%rbx
	popq	%r14
	popq	%rbp
	jmp	__ZN4core3ptr13drop_in_place17he95080349802e291E
LBB50_1:
	addq	$32, %rdi
Ltmp65:
	callq	__ZN81_$LT$proc_macro..bridge..client..TokenStream$u20$as$u20$core..ops..drop..Drop$GT$4drop17h41a2e5513f89cb12E
Ltmp66:
	movq	%rbx, %rdi
	popq	%rbx
	popq	%r14
	popq	%rbp
	jmp	__ZN4core3ptr13drop_in_place17hae8b86e418444246E
LBB50_4:
Ltmp67:
	movq	%rax, %r14
	movq	%rbx, %rdi
	callq	__ZN4core3ptr13drop_in_place17hae8b86e418444246E
	movq	%r14, %rdi
	callq	__Unwind_Resume
	ud2
Lfunc_end11:
	.cfi_endproc
	.section	__TEXT,__gcc_except_tab
	.p2align	2
GCC_except_table50:
Lexception11:
	.byte	255
	.byte	255
	.byte	1
	.uleb128 Lcst_end11-Lcst_begin11
Lcst_begin11:
	.uleb128 Lfunc_begin11-Lfunc_begin11
	.uleb128 Ltmp65-Lfunc_begin11
	.byte	0
	.byte	0
	.uleb128 Ltmp65-Lfunc_begin11
	.uleb128 Ltmp66-Ltmp65
	.uleb128 Ltmp67-Lfunc_begin11
	.byte	0
	.uleb128 Ltmp66-Lfunc_begin11
	.uleb128 Lfunc_end11-Ltmp66
	.byte	0
	.byte	0
Lcst_end11:
	.p2align	2

	.section	__TEXT,__text,regular,pure_instructions
	.p2align	4, 0x90
__ZN4core3ptr13drop_in_place17h9844e8f2e9975e48E:
Lfunc_begin12:
	.cfi_startproc
	.cfi_personality 155, _rust_eh_personality
	.cfi_lsda 16, Lexception12
	pushq	%rbp
	.cfi_def_cfa_offset 16
	.cfi_offset %rbp, -16
	movq	%rsp, %rbp
	.cfi_def_cfa_register %rbp
	pushq	%r14
	pushq	%rbx
	.cfi_offset %rbx, -32
	.cfi_offset %r14, -24
	movq	%rdi, %rbx
	addq	$24, %rdi
Ltmp68:
	callq	__ZN81_$LT$proc_macro..bridge..client..TokenStream$u20$as$u20$core..ops..drop..Drop$GT$4drop17h41a2e5513f89cb12E
Ltmp69:
	movq	%rbx, %rdi
	popq	%rbx
	popq	%r14
	popq	%rbp
	jmp	__ZN4core3ptr13drop_in_place17hae8b86e418444246E
LBB51_2:
Ltmp70:
	movq	%rax, %r14
	movq	%rbx, %rdi
	callq	__ZN4core3ptr13drop_in_place17hae8b86e418444246E
	movq	%r14, %rdi
	callq	__Unwind_Resume
	ud2
Lfunc_end12:
	.cfi_endproc
	.section	__TEXT,__gcc_except_tab
	.p2align	2
GCC_except_table51:
Lexception12:
	.byte	255
	.byte	255
	.byte	1
	.uleb128 Lcst_end12-Lcst_begin12
Lcst_begin12:
	.uleb128 Ltmp68-Lfunc_begin12
	.uleb128 Ltmp69-Ltmp68
	.uleb128 Ltmp70-Lfunc_begin12
	.byte	0
	.uleb128 Ltmp69-Lfunc_begin12
	.uleb128 Lfunc_end12-Ltmp69
	.byte	0
	.byte	0
Lcst_end12:
	.p2align	2

	.section	__TEXT,__text,regular,pure_instructions
	.p2align	4, 0x90
__ZN4core3ptr13drop_in_place17hae8b86e418444246E:
Lfunc_begin13:
	.cfi_startproc
	.cfi_personality 155, _rust_eh_personality
	.cfi_lsda 16, Lexception13
	pushq	%rbp
	.cfi_def_cfa_offset 16
	.cfi_offset %rbp, -16
	movq	%rsp, %rbp
	.cfi_def_cfa_register %rbp
	pushq	%r15
	pushq	%r14
	pushq	%r13
	pushq	%r12
	pushq	%rbx
	pushq	%rax
	.cfi_offset %rbx, -56
	.cfi_offset %r12, -48
	.cfi_offset %r13, -40
	.cfi_offset %r14, -32
	.cfi_offset %r15, -24
	movq	%rdi, %r14
	movq	(%rdi), %r13
	movq	16(%rdi), %r12
	testq	%r12, %r12
	je	LBB52_10
	shlq	$3, %r12
	xorl	%ebx, %ebx
	movl	(%r13,%rbx), %eax
	leaq	-1(%rax), %rcx
	cmpq	$2, %rcx
	jb	LBB52_8
	jmp	LBB52_3
	.p2align	4, 0x90
LBB52_7:
Ltmp73:
	callq	__ZN77_$LT$proc_macro..bridge..client..Literal$u20$as$u20$core..ops..drop..Drop$GT$4drop17he2aea19d6a82f53dE
Ltmp74:
LBB52_8:
	addq	$8, %rbx
	cmpq	%rbx, %r12
	je	LBB52_9
	movl	(%r13,%rbx), %eax
	leaq	-1(%rax), %rcx
	cmpq	$2, %rcx
	jb	LBB52_8
LBB52_3:
	leaq	(%rbx,%r13), %rdi
	addq	$4, %rdi
	testq	%rax, %rax
	jne	LBB52_7
Ltmp71:
	callq	__ZN75_$LT$proc_macro..bridge..client..Group$u20$as$u20$core..ops..drop..Drop$GT$4drop17he3c88ef672dde681E
Ltmp72:
	jmp	LBB52_8
LBB52_9:
	movq	(%r14), %r13
LBB52_10:
	movq	8(%r14), %rsi
	testq	%rsi, %rsi
	je	LBB52_16
	testq	%r13, %r13
	je	LBB52_16
	shlq	$3, %rsi
	testq	%rsi, %rsi
	je	LBB52_16
	movl	$4, %edx
	movq	%r13, %rdi
	addq	$8, %rsp
	popq	%rbx
	popq	%r12
	popq	%r13
	popq	%r14
	popq	%r15
	popq	%rbp
	jmp	___rust_dealloc
LBB52_16:
	addq	$8, %rsp
	popq	%rbx
	popq	%r12
	popq	%r13
	popq	%r14
	popq	%r15
	popq	%rbp
	retq
LBB52_14:
Ltmp75:
	movq	%rax, %r15
	leaq	-8(%r12), %rax
	cmpq	%rbx, %rax
	je	LBB52_18
	subq	%rbx, %r12
	addq	$-8, %r12
	addq	%r13, %rbx
	addq	$8, %rbx
	.p2align	4, 0x90
LBB52_5:
Ltmp76:
	movq	%rbx, %rdi
	callq	__ZN4core3ptr13drop_in_place17h912714cd2f86fe4fE
Ltmp77:
	addq	$8, %rbx
	addq	$-8, %r12
	jne	LBB52_5
	jmp	LBB52_18
LBB52_17:
Ltmp78:
	movq	%rax, %r15
LBB52_18:
	movq	(%r14), %rdi
	movq	8(%r14), %rsi
	callq	__ZN4core3ptr13drop_in_place17h75c6b2b6e70de610E
	movq	%r15, %rdi
	callq	__Unwind_Resume
	ud2
Lfunc_end13:
	.cfi_endproc
	.section	__TEXT,__gcc_except_tab
	.p2align	2
GCC_except_table52:
Lexception13:
	.byte	255
	.byte	255
	.byte	1
	.uleb128 Lcst_end13-Lcst_begin13
Lcst_begin13:
	.uleb128 Ltmp73-Lfunc_begin13
	.uleb128 Ltmp72-Ltmp73
	.uleb128 Ltmp75-Lfunc_begin13
	.byte	0
	.uleb128 Ltmp76-Lfunc_begin13
	.uleb128 Ltmp77-Ltmp76
	.uleb128 Ltmp78-Lfunc_begin13
	.byte	0
	.uleb128 Ltmp77-Lfunc_begin13
	.uleb128 Lfunc_end13-Ltmp77
	.byte	0
	.byte	0
Lcst_end13:
	.p2align	2

	.section	__TEXT,__text,regular,pure_instructions
	.p2align	4, 0x90
__ZN4core3ptr13drop_in_place17hb713a34959cb93b0E:
	.cfi_startproc
	pushq	%rbp
	.cfi_def_cfa_offset 16
	.cfi_offset %rbp, -16
	movq	%rsp, %rbp
	.cfi_def_cfa_register %rbp
	popq	%rbp
	jmp	__ZN81_$LT$proc_macro..bridge..client..TokenStream$u20$as$u20$core..ops..drop..Drop$GT$4drop17h41a2e5513f89cb12E
	.cfi_endproc

	.p2align	4, 0x90
__ZN4core3ptr13drop_in_place17hbe446365a0f101bcE:
Lfunc_begin14:
	.cfi_startproc
	.cfi_personality 155, _rust_eh_personality
	.cfi_lsda 16, Lexception14
	pushq	%rbp
	.cfi_def_cfa_offset 16
	.cfi_offset %rbp, -16
	movq	%rsp, %rbp
	.cfi_def_cfa_register %rbp
	pushq	%r14
	pushq	%rbx
	.cfi_offset %rbx, -32
	.cfi_offset %r14, -24
	movq	%rdi, %rbx
	movq	(%rdi), %rdi
	movq	8(%rbx), %rax
Ltmp79:
	callq	*(%rax)
Ltmp80:
	movq	8(%rbx), %rax
	movq	8(%rax), %rsi
	testq	%rsi, %rsi
	je	LBB54_2
	movq	(%rbx), %rdi
	movq	16(%rax), %rdx
	popq	%rbx
	popq	%r14
	popq	%rbp
	jmp	___rust_dealloc
LBB54_2:
	popq	%rbx
	popq	%r14
	popq	%rbp
	retq
LBB54_3:
Ltmp81:
	movq	%rax, %r14
	movq	(%rbx), %rdi
	movq	8(%rbx), %rsi
	callq	__ZN5alloc5alloc8box_free17h0a5e01561a72e215E
	movq	%r14, %rdi
	callq	__Unwind_Resume
	ud2
Lfunc_end14:
	.cfi_endproc
	.section	__TEXT,__gcc_except_tab
	.p2align	2
GCC_except_table54:
Lexception14:
	.byte	255
	.byte	255
	.byte	1
	.uleb128 Lcst_end14-Lcst_begin14
Lcst_begin14:
	.uleb128 Ltmp79-Lfunc_begin14
	.uleb128 Ltmp80-Ltmp79
	.uleb128 Ltmp81-Lfunc_begin14
	.byte	0
	.uleb128 Ltmp80-Lfunc_begin14
	.uleb128 Lfunc_end14-Ltmp80
	.byte	0
	.byte	0
Lcst_end14:
	.p2align	2

	.section	__TEXT,__text,regular,pure_instructions
	.p2align	4, 0x90
__ZN4core3ptr13drop_in_place17hc3076ed1f7b8400fE:
	.cfi_startproc
	pushq	%rbp
	.cfi_def_cfa_offset 16
	.cfi_offset %rbp, -16
	movq	%rsp, %rbp
	.cfi_def_cfa_register %rbp
	cmpl	$0, (%rdi)
	je	LBB55_1
	popq	%rbp
	jmp	__ZN81_$LT$proc_macro..bridge..client..TokenStream$u20$as$u20$core..ops..drop..Drop$GT$4drop17h41a2e5513f89cb12E
LBB55_1:
	popq	%rbp
	retq
	.cfi_endproc

	.p2align	4, 0x90
__ZN4core3ptr13drop_in_place17hd0a4556c2cd343d1E:
	.cfi_startproc
	pushq	%rbp
	.cfi_def_cfa_offset 16
	.cfi_offset %rbp, -16
	movq	%rsp, %rbp
	.cfi_def_cfa_register %rbp
	pushq	%r15
	pushq	%r14
	pushq	%rbx
	pushq	%rax
	.cfi_offset %rbx, -40
	.cfi_offset %r14, -32
	.cfi_offset %r15, -24
	movq	%rdi, %r14
	movq	(%rdi), %rbx
	movq	16(%rbx), %rax
	cmpq	24(%rbx), %rax
	je	LBB56_9
	leaq	-28(%rbp), %r15
	jmp	LBB56_2
	.p2align	4, 0x90
LBB56_6:
	callq	__ZN77_$LT$proc_macro..bridge..client..Literal$u20$as$u20$core..ops..drop..Drop$GT$4drop17he2aea19d6a82f53dE
LBB56_7:
	movq	16(%rbx), %rax
	cmpq	24(%rbx), %rax
	je	LBB56_8
LBB56_2:
	leaq	8(%rax), %rcx
	movq	%rcx, 16(%rbx)
	movq	(%rax), %rax
	cmpl	$4, %eax
	je	LBB56_8
	movq	%rax, -32(%rbp)
	leal	-1(%rax), %ecx
	cmpl	$2, %ecx
	jb	LBB56_7
	movq	%r15, %rdi
	testl	%eax, %eax
	jne	LBB56_6
	callq	__ZN75_$LT$proc_macro..bridge..client..Group$u20$as$u20$core..ops..drop..Drop$GT$4drop17he3c88ef672dde681E
	movq	16(%rbx), %rax
	cmpq	24(%rbx), %rax
	jne	LBB56_2
LBB56_8:
	movq	(%r14), %rbx
LBB56_9:
	movq	8(%rbx), %rdx
	testq	%rdx, %rdx
	je	LBB56_13
	movq	(%rbx), %rax
	movq	32(%rbx), %r15
	movq	16(%r15), %rbx
	cmpq	%rbx, %rax
	je	LBB56_12
	movq	(%r15), %rcx
	leaq	(%rcx,%rax,8), %rsi
	leaq	(%rcx,%rbx,8), %rdi
	shlq	$3, %rdx
	callq	_memmove
	movq	(%r14), %rax
	movq	8(%rax), %rdx
LBB56_12:
	addq	%rbx, %rdx
	movq	%rdx, 16(%r15)
LBB56_13:
	addq	$8, %rsp
	popq	%rbx
	popq	%r14
	popq	%r15
	popq	%rbp
	retq
	.cfi_endproc

	.p2align	4, 0x90
__ZN4core3ptr13drop_in_place17he2b3add8803a1fd9E:
	.cfi_startproc
	pushq	%rbp
	.cfi_def_cfa_offset 16
	.cfi_offset %rbp, -16
	movq	%rsp, %rbp
	.cfi_def_cfa_register %rbp
	movq	(%rdi), %rax
	movq	8(%rax), %rcx
	testq	%rcx, %rcx
	je	LBB57_2
	shlq	$4, %rcx
	leaq	(%rcx,%rcx,2), %rsi
	testq	%rsi, %rsi
	je	LBB57_2
	movq	(%rax), %rdi
	movl	$8, %edx
	popq	%rbp
	jmp	___rust_dealloc
LBB57_2:
	popq	%rbp
	retq
	.cfi_endproc

	.p2align	4, 0x90
__ZN4core3ptr13drop_in_place17he6f57fa81c4b03f2E:
	.cfi_startproc
	pushq	%rbp
	.cfi_def_cfa_offset 16
	.cfi_offset %rbp, -16
	movq	%rsp, %rbp
	.cfi_def_cfa_register %rbp
	testq	%rsi, %rsi
	je	LBB58_3
	testq	%rdi, %rdi
	je	LBB58_3
	shlq	$5, %rsi
	je	LBB58_3
	movl	$8, %edx
	popq	%rbp
	jmp	___rust_dealloc
LBB58_3:
	popq	%rbp
	retq
	.cfi_endproc

	.p2align	4, 0x90
__ZN4core3ptr13drop_in_place17he95080349802e291E:
Lfunc_begin15:
	.cfi_startproc
	.cfi_personality 155, _rust_eh_personality
	.cfi_lsda 16, Lexception15
	pushq	%rbp
	.cfi_def_cfa_offset 16
	.cfi_offset %rbp, -16
	movq	%rsp, %rbp
	.cfi_def_cfa_register %rbp
	pushq	%r15
	pushq	%r14
	pushq	%r12
	pushq	%rbx
	.cfi_offset %rbx, -48
	.cfi_offset %r12, -40
	.cfi_offset %r14, -32
	.cfi_offset %r15, -24
	movq	%rdi, %r14
Ltmp82:
	callq	__ZN76_$LT$proc_macro2..fallback..TokenStream$u20$as$u20$core..ops..drop..Drop$GT$4drop17hd9190ec22163f7cbE
Ltmp83:
	movq	(%r14), %r12
	movq	16(%r14), %rax
	shlq	$4, %rax
	leaq	(%rax,%rax,2), %rbx
	.p2align	4, 0x90
LBB59_5:
	testq	%rbx, %rbx
	je	LBB59_6
	addq	$-48, %rbx
Ltmp85:
	movq	%r12, %rdi
	addq	$48, %r12
	callq	__ZN4core3ptr13drop_in_place17h1202f0d8a0ebc27dE
Ltmp86:
	jmp	LBB59_5
LBB59_6:
	movq	8(%r14), %rax
	testq	%rax, %rax
	je	LBB59_12
	movq	(%r14), %rdi
	testq	%rdi, %rdi
	je	LBB59_12
	shlq	$4, %rax
	leaq	(%rax,%rax,2), %rsi
	testq	%rsi, %rsi
	je	LBB59_12
	movl	$8, %edx
	popq	%rbx
	popq	%r12
	popq	%r14
	popq	%r15
	popq	%rbp
	jmp	___rust_dealloc
LBB59_12:
	popq	%rbx
	popq	%r12
	popq	%r14
	popq	%r15
	popq	%rbp
	retq
LBB59_13:
Ltmp84:
	movq	%rax, %r15
	movq	%r14, %rdi
	callq	__ZN4core3ptr13drop_in_place17h0f6c0b7d7e2392feE
	movq	%r15, %rdi
	callq	__Unwind_Resume
	ud2
LBB59_15:
Ltmp87:
	movq	%rax, %r15
	.p2align	4, 0x90
LBB59_3:
	testq	%rbx, %rbx
	je	LBB59_11
	addq	$-48, %rbx
Ltmp88:
	movq	%r12, %rdi
	addq	$48, %r12
	callq	__ZN4core3ptr13drop_in_place17h1202f0d8a0ebc27dE
Ltmp89:
	jmp	LBB59_3
LBB59_10:
Ltmp90:
	movq	%rax, %r15
LBB59_11:
	movq	(%r14), %rdi
	movq	8(%r14), %rsi
	callq	__ZN4core3ptr13drop_in_place17h80e60624eea5b72aE
	movq	%r15, %rdi
	callq	__Unwind_Resume
	ud2
Lfunc_end15:
	.cfi_endproc
	.section	__TEXT,__gcc_except_tab
	.p2align	2
GCC_except_table59:
Lexception15:
	.byte	255
	.byte	255
	.byte	1
	.uleb128 Lcst_end15-Lcst_begin15
Lcst_begin15:
	.uleb128 Ltmp82-Lfunc_begin15
	.uleb128 Ltmp83-Ltmp82
	.uleb128 Ltmp84-Lfunc_begin15
	.byte	0
	.uleb128 Ltmp85-Lfunc_begin15
	.uleb128 Ltmp86-Ltmp85
	.uleb128 Ltmp87-Lfunc_begin15
	.byte	0
	.uleb128 Ltmp86-Lfunc_begin15
	.uleb128 Ltmp88-Ltmp86
	.byte	0
	.byte	0
	.uleb128 Ltmp88-Lfunc_begin15
	.uleb128 Ltmp89-Ltmp88
	.uleb128 Ltmp90-Lfunc_begin15
	.byte	0
	.uleb128 Ltmp89-Lfunc_begin15
	.uleb128 Lfunc_end15-Ltmp89
	.byte	0
	.byte	0
Lcst_end15:
	.p2align	2

	.section	__TEXT,__text,regular,pure_instructions
	.p2align	4, 0x90
__ZN4core3ptr13drop_in_place17hf224f5051c406919E:
	.cfi_startproc
	pushq	%rbp
	.cfi_def_cfa_offset 16
	.cfi_offset %rbp, -16
	movq	%rsp, %rbp
	.cfi_def_cfa_register %rbp
	movq	%rdi, %rax
	cmpl	$0, (%rdi)
	je	LBB60_4
	movq	8(%rax), %rdi
	testq	%rdi, %rdi
	je	LBB60_3
	movq	16(%rax), %rsi
	testq	%rsi, %rsi
	je	LBB60_3
	movl	$1, %edx
	popq	%rbp
	jmp	___rust_dealloc
LBB60_4:
	addq	$4, %rax
	movq	%rax, %rdi
	popq	%rbp
	jmp	__ZN77_$LT$proc_macro..bridge..client..Literal$u20$as$u20$core..ops..drop..Drop$GT$4drop17he2aea19d6a82f53dE
LBB60_3:
	popq	%rbp
	retq
	.cfi_endproc

	.p2align	4, 0x90
__ZN4core3ptr13drop_in_place17hf4fc6e0b6afc6d0bE:
	.cfi_startproc
	pushq	%rbp
	.cfi_def_cfa_offset 16
	.cfi_offset %rbp, -16
	movq	%rsp, %rbp
	.cfi_def_cfa_register %rbp
	movq	%rdi, %rax
	movq	(%rdi), %rdi
	testq	%rdi, %rdi
	je	LBB61_2
	movq	8(%rax), %rsi
	testq	%rsi, %rsi
	je	LBB61_2
	movl	$1, %edx
	popq	%rbp
	jmp	___rust_dealloc
LBB61_2:
	popq	%rbp
	retq
	.cfi_endproc

	.p2align	4, 0x90
__ZN4core3str21_$LT$impl$u20$str$GT$8contains17h7cbebfb7a4b5e2fdE:
	.cfi_startproc
	pushq	%rbp
	.cfi_def_cfa_offset 16
	.cfi_offset %rbp, -16
	movq	%rsp, %rbp
	.cfi_def_cfa_register %rbp
	pushq	%r15
	pushq	%r14
	pushq	%r13
	pushq	%r12
	pushq	%rbx
	subq	$200, %rsp
	.cfi_offset %rbx, -56
	.cfi_offset %r12, -48
	.cfi_offset %r13, -40
	.cfi_offset %r14, -32
	.cfi_offset %r15, -24
	movl	%edx, %eax
	movq	%rsi, %rdx
	movq	%rdi, %rsi
	cmpl	$128, %eax
	jae	LBB62_1
	movb	%al, -168(%rbp)
	leaq	-168(%rbp), %rdi
	callq	__ZN49_$LT$u8$u20$as$u20$core..slice..SliceContains$GT$14slice_contains17h23a55b9b6d80aa02E
	jmp	LBB62_80
LBB62_1:
	movl	$0, -44(%rbp)
	movl	%eax, %ecx
	cmpl	$2048, %eax
	jae	LBB62_2
	shrl	$6, %ecx
	andb	$31, %cl
	orb	$-64, %cl
	movb	%cl, -44(%rbp)
	andb	$63, %al
	orb	$-128, %al
	movb	%al, -43(%rbp)
	movl	$2, %r8d
	jmp	LBB62_5
LBB62_2:
	cmpl	$65536, %eax
	jae	LBB62_4
	shrl	$12, %ecx
	andb	$15, %cl
	orb	$-32, %cl
	movb	%cl, -44(%rbp)
	movl	%eax, %ecx
	shrl	$6, %ecx
	andb	$63, %cl
	orb	$-128, %cl
	movb	%cl, -43(%rbp)
	andb	$63, %al
	orb	$-128, %al
	movb	%al, -42(%rbp)
	movl	$3, %r8d
	jmp	LBB62_5
LBB62_4:
	shrl	$18, %ecx
	orb	$-16, %cl
	movb	%cl, -44(%rbp)
	movl	%eax, %ecx
	shrl	$12, %ecx
	andb	$63, %cl
	orb	$-128, %cl
	movb	%cl, -43(%rbp)
	movl	%eax, %ecx
	shrl	$6, %ecx
	andb	$63, %cl
	orb	$-128, %cl
	movb	%cl, -42(%rbp)
	andb	$63, %al
	orb	$-128, %al
	movb	%al, -41(%rbp)
	movl	$4, %r8d
LBB62_5:
	leaq	-168(%rbp), %rdi
	leaq	-44(%rbp), %rcx
	callq	__ZN4core3str7pattern11StrSearcher3new17hf20175b25b057116E
	cmpq	$1, -136(%rbp)
	jne	LBB62_6
	movq	-80(%rbp), %r11
	movq	-144(%rbp), %rax
	leaq	-1(%rax), %r8
	movq	-168(%rbp), %r10
	movq	-160(%rbp), %rsi
	movq	-152(%rbp), %r9
	movq	-96(%rbp), %r13
	leaq	(%rax,%r13), %rcx
	addq	$-1, %rcx
	cmpq	$-1, %r11
	je	LBB62_39
	cmpq	%rsi, %rcx
	jae	LBB62_56
	movq	-104(%rbp), %r14
	movq	-128(%rbp), %rbx
	movq	-112(%rbp), %rdx
	movq	%rax, %rdi
	movq	%rdx, -56(%rbp)
	subq	%rdx, %rdi
	movq	%rdi, -176(%rbp)
	movq	%rbx, %rdx
	negq	%rdx
	movq	%rdx, -64(%rbp)
	movzbl	(%r10,%rcx), %ecx
	btq	%rcx, %r14
	jb	LBB62_62
LBB62_61:
	addq	%rax, %r13
	xorl	%r11d, %r11d
	leaq	(%r8,%r13), %rcx
	cmpq	%rsi, %rcx
	jae	LBB62_75
LBB62_60:
	movzbl	(%r10,%rcx), %ecx
	btq	%rcx, %r14
	jae	LBB62_61
LBB62_62:
	cmpq	%r11, %rbx
	movq	%r11, %rcx
	cmovaq	%rbx, %rcx
	leaq	(%r9,%rcx), %r15
	leaq	(%rcx,%r13), %rdi
	.p2align	4, 0x90
LBB62_63:
	cmpq	%rax, %rcx
	jae	LBB62_64
	cmpq	%rsi, %rdi
	jae	LBB62_76
	incq	%rcx
	movzbl	(%r15), %r12d
	incq	%r15
	leaq	1(%rdi), %rdx
	cmpb	(%r10,%rdi), %r12b
	movq	%rdx, %rdi
	je	LBB62_63
	addq	-64(%rbp), %rdx
	xorl	%r11d, %r11d
	movq	%rdx, %r13
	leaq	(%r8,%r13), %rcx
	cmpq	%rsi, %rcx
	jb	LBB62_60
	jmp	LBB62_75
LBB62_64:
	movq	%rbx, %rdi
	.p2align	4, 0x90
LBB62_65:
	cmpq	%rdi, %r11
	jae	LBB62_66
	decq	%rdi
	cmpq	%rax, %rdi
	jae	LBB62_77
	leaq	(%rdi,%r13), %rcx
	cmpq	%rsi, %rcx
	jae	LBB62_78
	movzbl	(%r9,%rdi), %edx
	cmpb	(%r10,%rcx), %dl
	je	LBB62_65
	addq	-56(%rbp), %r13
	movq	-176(%rbp), %r11
	leaq	(%r8,%r13), %rcx
	cmpq	%rsi, %rcx
	jb	LBB62_60
LBB62_75:
	movq	%r11, -80(%rbp)
	jmp	LBB62_55
LBB62_6:
	movb	-112(%rbp), %r8b
	movq	-128(%rbp), %rcx
	movq	-168(%rbp), %r10
	movq	-160(%rbp), %rsi
	leaq	(%r10,%rsi), %r9
	jmp	LBB62_8
	.p2align	4, 0x90
LBB62_7:
	addq	%rax, %rcx
LBB62_8:
	movl	%r8d, %edx
	testb	%r8b, %r8b
	sete	%r8b
	movq	%r10, -208(%rbp)
	movq	%rsi, -200(%rbp)
	movq	%rcx, -184(%rbp)
	movq	%rsi, -192(%rbp)
	testq	%rcx, %rcx
	je	LBB62_12
	cmpq	%rcx, %rsi
	je	LBB62_12
	jbe	LBB62_82
	cmpb	$-65, (%r10,%rcx)
	jle	LBB62_82
LBB62_12:
	movl	$1114112, %ebx
	cmpq	%rcx, %rsi
	je	LBB62_30
	leaq	(%r10,%rcx), %rax
	movzbl	(%rax), %ebx
	testb	%bl, %bl
	jns	LBB62_30
	leaq	1(%rax), %rdi
	cmpq	%r9, %rdi
	je	LBB62_15
	movzbl	1(%rax), %edi
	addq	$2, %rax
	andl	$63, %edi
	movl	%ebx, %r11d
	andl	$31, %r11d
	cmpb	$-33, %bl
	jbe	LBB62_18
LBB62_20:
	cmpq	%r9, %rax
	je	LBB62_21
	movzbl	(%rax), %r14d
	incq	%rax
	andl	$63, %r14d
	shll	$6, %edi
	orl	%r14d, %edi
	cmpb	$-16, %bl
	jb	LBB62_24
LBB62_25:
	cmpq	%r9, %rax
	je	LBB62_26
	movzbl	(%rax), %eax
	andl	$63, %eax
	jmp	LBB62_28
LBB62_15:
	xorl	%edi, %edi
	movq	%r9, %rax
	movl	%ebx, %r11d
	andl	$31, %r11d
	cmpb	$-33, %bl
	ja	LBB62_20
LBB62_18:
	shll	$6, %r11d
	orl	%r11d, %edi
	jmp	LBB62_29
LBB62_21:
	xorl	%r14d, %r14d
	movq	%r9, %rax
	shll	$6, %edi
	orl	%r14d, %edi
	cmpb	$-16, %bl
	jae	LBB62_25
LBB62_24:
	shll	$12, %r11d
	orl	%r11d, %edi
	jmp	LBB62_29
LBB62_26:
	xorl	%eax, %eax
LBB62_28:
	andl	$7, %r11d
	shll	$18, %r11d
	shll	$6, %edi
	orl	%r11d, %edi
	orl	%eax, %edi
LBB62_29:
	movl	%edi, %ebx
	.p2align	4, 0x90
LBB62_30:
	testb	%dl, %dl
	jne	LBB62_31
	cmpl	$1114112, %ebx
	je	LBB62_37
	movl	$1, %eax
	cmpl	$128, %ebx
	jb	LBB62_7
	movl	$2, %eax
	cmpl	$2048, %ebx
	jb	LBB62_7
	cmpl	$65536, %ebx
	movl	$4, %eax
	sbbq	$0, %rax
	jmp	LBB62_7
LBB62_31:
	movb	$1, %al
	jmp	LBB62_32
LBB62_37:
	xorl	%eax, %eax
LBB62_32:
	movb	%r8b, -112(%rbp)
	movq	%rcx, -128(%rbp)
	jmp	LBB62_80
LBB62_39:
	cmpq	%rsi, %rcx
	jae	LBB62_56
	movq	-104(%rbp), %r11
	movq	-128(%rbp), %rbx
	movq	-112(%rbp), %rdx
	movq	%rdx, -56(%rbp)
	leaq	(%r9,%rbx), %rdx
	movq	%rdx, -64(%rbp)
	leaq	(%r10,%rbx), %r12
	movq	%r13, %r14
	movzbl	(%r10,%rcx), %ecx
	btq	%rcx, %r11
	jb	LBB62_42
LBB62_52:
	addq	%rax, %r14
LBB62_53:
	movq	%r14, %r13
LBB62_54:
	leaq	(%r8,%r13), %rcx
	cmpq	%rsi, %rcx
	jae	LBB62_55
	movq	%r13, %r14
	movzbl	(%r10,%rcx), %ecx
	btq	%rcx, %r11
	jae	LBB62_52
LBB62_42:
	xorl	%ecx, %ecx
	movq	%r14, %r13
	movq	-64(%rbp), %r15
	.p2align	4, 0x90
LBB62_43:
	leaq	(%rbx,%rcx), %rdi
	cmpq	%rax, %rdi
	jae	LBB62_44
	leaq	(%rbx,%r13), %rdi
	cmpq	%rsi, %rdi
	jae	LBB62_76
	movzbl	(%r15), %edx
	incq	%r15
	incq	%rcx
	cmpb	(%r12,%r13), %dl
	leaq	1(%r13), %r13
	je	LBB62_43
	jmp	LBB62_54
LBB62_44:
	movq	%rbx, %rdi
	.p2align	4, 0x90
LBB62_45:
	testq	%rdi, %rdi
	je	LBB62_57
	decq	%rdi
	cmpq	%rax, %rdi
	jae	LBB62_77
	leaq	(%rdi,%r14), %rcx
	cmpq	%rsi, %rcx
	jae	LBB62_78
	movzbl	(%r9,%rdi), %edx
	cmpb	(%r10,%rcx), %dl
	je	LBB62_45
	addq	-56(%rbp), %r14
	jmp	LBB62_53
LBB62_66:
	addq	%rax, %r13
	movq	%r13, -96(%rbp)
	movq	$0, -80(%rbp)
	movb	$1, %al
	jmp	LBB62_80
LBB62_57:
	addq	%rax, %r14
	movq	%r14, -96(%rbp)
	movb	$1, %al
	jmp	LBB62_80
LBB62_55:
	movq	%r13, -96(%rbp)
LBB62_56:
	movq	%rsi, -96(%rbp)
	xorl	%eax, %eax
LBB62_80:
	addq	$200, %rsp
	popq	%rbx
	popq	%r12
	popq	%r13
	popq	%r14
	popq	%r15
	popq	%rbp
	retq
LBB62_76:
	leaq	l___unnamed_5(%rip), %rdx
	callq	__ZN4core9panicking18panic_bounds_check17habe69d236c55e3edE
LBB62_82:
	leaq	-208(%rbp), %rax
	movq	%rax, -232(%rbp)
	leaq	-184(%rbp), %rax
	movq	%rax, -224(%rbp)
	leaq	-192(%rbp), %rax
	movq	%rax, -216(%rbp)
	leaq	-232(%rbp), %rdi
	callq	__ZN4core3str6traits105_$LT$impl$u20$core..slice..SliceIndex$LT$str$GT$$u20$for$u20$core..ops..range..RangeFrom$LT$usize$GT$$GT$5index28_$u7b$$u7b$closure$u7d$$u7d$17hf084d64dc04fb6b7E
LBB62_77:
	leaq	l___unnamed_6(%rip), %rdx
	movq	%rax, %rsi
	callq	__ZN4core9panicking18panic_bounds_check17habe69d236c55e3edE
LBB62_78:
	leaq	l___unnamed_7(%rip), %rdx
	movq	%rcx, %rdi
	callq	__ZN4core9panicking18panic_bounds_check17habe69d236c55e3edE
	.cfi_endproc

	.p2align	4, 0x90
__ZN4core3str6traits101_$LT$impl$u20$core..slice..SliceIndex$LT$str$GT$$u20$for$u20$core..ops..range..Range$LT$usize$GT$$GT$5index28_$u7b$$u7b$closure$u7d$$u7d$17hfd8aa31df21c55dfE:
	.cfi_startproc
	pushq	%rbp
	.cfi_def_cfa_offset 16
	.cfi_offset %rbp, -16
	movq	%rsp, %rbp
	.cfi_def_cfa_register %rbp
	movq	(%rdi), %rcx
	movq	8(%rdi), %rdx
	movq	(%rcx), %rax
	movq	8(%rcx), %rsi
	movq	(%rdx), %rdx
	movq	16(%rdi), %rcx
	movq	(%rcx), %rcx
	leaq	l___unnamed_8(%rip), %r8
	movq	%rax, %rdi
	callq	__ZN4core3str16slice_error_fail17h6b29707aec812690E
	.cfi_endproc

	.p2align	4, 0x90
__ZN4core3str6traits103_$LT$impl$u20$core..slice..SliceIndex$LT$str$GT$$u20$for$u20$core..ops..range..RangeTo$LT$usize$GT$$GT$5index28_$u7b$$u7b$closure$u7d$$u7d$17hd0417117cc9a56d9E:
	.cfi_startproc
	pushq	%rbp
	.cfi_def_cfa_offset 16
	.cfi_offset %rbp, -16
	movq	%rsp, %rbp
	.cfi_def_cfa_register %rbp
	movq	%rsi, %rcx
	movq	(%rdi), %rax
	movq	8(%rdi), %rsi
	leaq	l___unnamed_9(%rip), %r8
	movq	%rax, %rdi
	xorl	%edx, %edx
	callq	__ZN4core3str16slice_error_fail17h6b29707aec812690E
	.cfi_endproc

	.p2align	4, 0x90
__ZN4core3str6traits105_$LT$impl$u20$core..slice..SliceIndex$LT$str$GT$$u20$for$u20$core..ops..range..RangeFrom$LT$usize$GT$$GT$5index28_$u7b$$u7b$closure$u7d$$u7d$17hf084d64dc04fb6b7E:
	.cfi_startproc
	pushq	%rbp
	.cfi_def_cfa_offset 16
	.cfi_offset %rbp, -16
	movq	%rsp, %rbp
	.cfi_def_cfa_register %rbp
	movq	(%rdi), %rcx
	movq	8(%rdi), %rdx
	movq	(%rcx), %rax
	movq	8(%rcx), %rsi
	movq	(%rdx), %rdx
	movq	16(%rdi), %rcx
	movq	(%rcx), %rcx
	leaq	l___unnamed_10(%rip), %r8
	movq	%rax, %rdi
	callq	__ZN4core3str16slice_error_fail17h6b29707aec812690E
	.cfi_endproc

	.p2align	4, 0x90
__ZN50_$LT$$RF$mut$u20$W$u20$as$u20$core..fmt..Write$GT$10write_char17hb37e268665b1f13aE:
	.cfi_startproc
	pushq	%rbp
	.cfi_def_cfa_offset 16
	.cfi_offset %rbp, -16
	movq	%rsp, %rbp
	.cfi_def_cfa_register %rbp
	movq	(%rdi), %rdi
	callq	__ZN5alloc6string6String4push17h97254c0338c06661E
	xorl	%eax, %eax
	popq	%rbp
	retq
	.cfi_endproc

	.p2align	4, 0x90
__ZN50_$LT$$RF$mut$u20$W$u20$as$u20$core..fmt..Write$GT$9write_fmt17h4533c11f59ccaf9fE:
	.cfi_startproc
	pushq	%rbp
	.cfi_def_cfa_offset 16
	.cfi_offset %rbp, -16
	movq	%rsp, %rbp
	.cfi_def_cfa_register %rbp
	subq	$64, %rsp
	movq	(%rdi), %rax
	movq	%rax, -8(%rbp)
	vmovups	(%rsi), %ymm0
	vmovups	16(%rsi), %ymm1
	vmovups	%ymm1, -48(%rbp)
	vmovups	%ymm0, -64(%rbp)
	leaq	l___unnamed_11(%rip), %rsi
	leaq	-8(%rbp), %rdi
	leaq	-64(%rbp), %rdx
	vzeroupper
	callq	__ZN4core3fmt5write17h26bd57c1fd6e9c98E
	addq	$64, %rsp
	popq	%rbp
	retq
	.cfi_endproc

	.p2align	4, 0x90
__ZN50_$LT$$RF$mut$u20$W$u20$as$u20$core..fmt..Write$GT$9write_str17heaaff9776ef72a45E:
	.cfi_startproc
	pushq	%rbp
	.cfi_def_cfa_offset 16
	.cfi_offset %rbp, -16
	movq	%rsp, %rbp
	.cfi_def_cfa_register %rbp
	pushq	%r15
	pushq	%r14
	pushq	%r13
	pushq	%r12
	pushq	%rbx
	pushq	%rax
	.cfi_offset %rbx, -56
	.cfi_offset %r12, -48
	.cfi_offset %r13, -40
	.cfi_offset %r14, -32
	.cfi_offset %r15, -24
	movq	%rdx, %r15
	movq	%rsi, %r14
	movq	(%rdi), %r13
	movq	8(%r13), %rsi
	movq	16(%r13), %rbx
	movq	%rsi, %rax
	subq	%rbx, %rax
	cmpq	%rdx, %rax
	jae	LBB68_1
	movq	%rbx, %r12
	addq	%r15, %r12
	jb	LBB68_15
	leaq	(%rsi,%rsi), %rax
	cmpq	%r12, %rax
	cmovaq	%rax, %r12
	testq	%rsi, %rsi
	je	LBB68_8
	movq	(%r13), %rdi
	testq	%rdi, %rdi
	je	LBB68_8
	cmpq	%r12, %rsi
	je	LBB68_12
	movl	$1, %edx
	movq	%r12, %rcx
	callq	___rust_realloc
	jmp	LBB68_11
LBB68_1:
	movq	(%r13), %rdi
	jmp	LBB68_2
LBB68_8:
	testq	%r12, %r12
	je	LBB68_9
	movl	$1, %esi
	movq	%r12, %rdi
	callq	___rust_alloc
LBB68_11:
	movq	%rax, %rdi
LBB68_12:
	testq	%rdi, %rdi
	je	LBB68_16
	movq	16(%r13), %rbx
	jmp	LBB68_14
LBB68_9:
	movl	$1, %edi
LBB68_14:
	movq	%rdi, (%r13)
	movq	%r12, 8(%r13)
LBB68_2:
	addq	%rbx, %rdi
	movq	%r14, %rsi
	movq	%r15, %rdx
	callq	_memcpy
	addq	%r15, %rbx
	movq	%rbx, 16(%r13)
	xorl	%eax, %eax
	addq	$8, %rsp
	popq	%rbx
	popq	%r12
	popq	%r13
	popq	%r14
	popq	%r15
	popq	%rbp
	retq
LBB68_15:
	callq	__ZN5alloc7raw_vec17capacity_overflow17h023f34f5bc34c61fE
LBB68_16:
	movl	$1, %esi
	movq	%r12, %rdi
	callq	__ZN5alloc5alloc18handle_alloc_error17hbc0ab0ed90816c07E
	.cfi_endproc

	.p2align	4, 0x90
__ZN5alloc3vec12Vec$LT$T$GT$7reserve17hc0be6e8834886ea9E:
	.cfi_startproc
	pushq	%rbp
	.cfi_def_cfa_offset 16
	.cfi_offset %rbp, -16
	movq	%rsp, %rbp
	.cfi_def_cfa_register %rbp
	pushq	%r14
	pushq	%rbx
	.cfi_offset %rbx, -32
	.cfi_offset %r14, -24
	movq	8(%rdi), %rcx
	movq	16(%rdi), %rax
	movq	%rcx, %rdx
	subq	%rax, %rdx
	cmpq	%rsi, %rdx
	jae	LBB69_17
	addq	%rsi, %rax
	jb	LBB69_18
	movq	%rdi, %rbx
	leaq	(%rcx,%rcx), %rdx
	cmpq	%rax, %rdx
	cmovaq	%rdx, %rax
	movl	$48, %edx
	xorl	%esi, %esi
	mulq	%rdx
	movq	%rax, %r14
	seto	%dl
	setno	%dil
	movq	%rcx, %rax
	testq	%rcx, %rcx
	je	LBB69_4
	movq	(%rbx), %rax
LBB69_4:
	testb	%dl, %dl
	jne	LBB69_18
	testq	%rax, %rax
	je	LBB69_11
	shlq	$4, %rcx
	leaq	(%rcx,%rcx,2), %rsi
	cmpq	%r14, %rsi
	je	LBB69_15
	testq	%rsi, %rsi
	je	LBB69_8
	movl	$8, %edx
	movq	%rax, %rdi
	movq	%r14, %rcx
	callq	___rust_realloc
	testq	%rax, %rax
	jne	LBB69_16
	jmp	LBB69_19
LBB69_11:
	movb	%dil, %sil
	shlq	$3, %rsi
	testq	%r14, %r14
	jne	LBB69_14
	movq	%rsi, %rax
	testq	%rax, %rax
	jne	LBB69_16
	jmp	LBB69_19
LBB69_8:
	testq	%r14, %r14
	je	LBB69_9
	movl	$8, %esi
LBB69_14:
	movq	%r14, %rdi
	callq	___rust_alloc
LBB69_15:
	testq	%rax, %rax
	je	LBB69_19
LBB69_16:
	movq	%rax, (%rbx)
	movabsq	$-6148914691236517205, %rcx
	movq	%r14, %rax
	mulq	%rcx
	shrq	$5, %rdx
	movq	%rdx, 8(%rbx)
LBB69_17:
	popq	%rbx
	popq	%r14
	popq	%rbp
	retq
LBB69_9:
	movl	$8, %eax
	jmp	LBB69_16
LBB69_18:
	callq	__ZN5alloc7raw_vec17capacity_overflow17h023f34f5bc34c61fE
LBB69_19:
	movl	$8, %esi
	movq	%r14, %rdi
	callq	__ZN5alloc5alloc18handle_alloc_error17hbc0ab0ed90816c07E
	.cfi_endproc

	.p2align	4, 0x90
__ZN5alloc5alloc8box_free17h0a5e01561a72e215E:
	.cfi_startproc
	pushq	%rbp
	.cfi_def_cfa_offset 16
	.cfi_offset %rbp, -16
	movq	%rsp, %rbp
	.cfi_def_cfa_register %rbp
	movq	%rsi, %rax
	movq	8(%rsi), %rsi
	testq	%rsi, %rsi
	je	LBB70_1
	movq	16(%rax), %rdx
	popq	%rbp
	jmp	___rust_dealloc
LBB70_1:
	popq	%rbp
	retq
	.cfi_endproc

	.p2align	4, 0x90
__ZN5alloc5alloc8box_free17h2352e2e884e90d60E:
	.cfi_startproc
	pushq	%rbp
	.cfi_def_cfa_offset 16
	.cfi_offset %rbp, -16
	movq	%rsp, %rbp
	.cfi_def_cfa_register %rbp
	movl	$144, %esi
	movl	$8, %edx
	popq	%rbp
	jmp	___rust_dealloc
	.cfi_endproc

	.p2align	4, 0x90
__ZN5alloc6string6String4push17h97254c0338c06661E:
	.cfi_startproc
	pushq	%rbp
	.cfi_def_cfa_offset 16
	.cfi_offset %rbp, -16
	movq	%rsp, %rbp
	.cfi_def_cfa_register %rbp
	pushq	%r15
	pushq	%r14
	pushq	%r12
	pushq	%rbx
	subq	$16, %rsp
	.cfi_offset %rbx, -48
	.cfi_offset %r12, -40
	.cfi_offset %r14, -32
	.cfi_offset %r15, -24
	movl	%esi, %ebx
	movq	%rdi, %r14
	cmpl	$128, %esi
	jae	LBB72_1
	movq	16(%r14), %rsi
	cmpq	8(%r14), %rsi
	jne	LBB72_22
	movq	%rsi, %r15
	incq	%r15
	je	LBB72_35
	leaq	(%rsi,%rsi), %rax
	cmpq	%r15, %rax
	cmovaq	%rax, %r15
	testq	%rsi, %rsi
	je	LBB72_29
	movq	(%r14), %rax
	testq	%rax, %rax
	je	LBB72_29
	cmpq	%r15, %rsi
	je	LBB72_32
	movl	$1, %edx
	movq	%rax, %rdi
	movq	%r15, %rcx
	callq	___rust_realloc
	testq	%rax, %rax
	jne	LBB72_33
	jmp	LBB72_36
LBB72_1:
	movl	$0, -36(%rbp)
	movl	%ebx, %eax
	cmpl	$2048, %ebx
	jae	LBB72_2
	shrl	$6, %eax
	andb	$31, %al
	orb	$-64, %al
	movb	%al, -36(%rbp)
	andb	$63, %bl
	orb	$-128, %bl
	movb	%bl, -35(%rbp)
	movl	$2, %r15d
	jmp	LBB72_5
LBB72_22:
	movq	(%r14), %rax
	jmp	LBB72_23
LBB72_2:
	cmpl	$65536, %ebx
	jae	LBB72_4
	shrl	$12, %eax
	andb	$15, %al
	orb	$-32, %al
	movb	%al, -36(%rbp)
	movl	%ebx, %eax
	shrl	$6, %eax
	andb	$63, %al
	orb	$-128, %al
	movb	%al, -35(%rbp)
	andb	$63, %bl
	orb	$-128, %bl
	movb	%bl, -34(%rbp)
	movl	$3, %r15d
	jmp	LBB72_5
LBB72_29:
	testq	%r15, %r15
	je	LBB72_30
	movl	$1, %esi
	movq	%r15, %rdi
	callq	___rust_alloc
LBB72_32:
	testq	%rax, %rax
	je	LBB72_36
LBB72_33:
	movq	16(%r14), %rsi
	jmp	LBB72_34
LBB72_4:
	shrl	$18, %eax
	orb	$-16, %al
	movb	%al, -36(%rbp)
	movl	%ebx, %eax
	shrl	$12, %eax
	andb	$63, %al
	orb	$-128, %al
	movb	%al, -35(%rbp)
	movl	%ebx, %eax
	shrl	$6, %eax
	andb	$63, %al
	orb	$-128, %al
	movb	%al, -34(%rbp)
	andb	$63, %bl
	orb	$-128, %bl
	movb	%bl, -33(%rbp)
	movl	$4, %r15d
LBB72_5:
	movq	8(%r14), %rsi
	movq	16(%r14), %rbx
	movq	%rsi, %rax
	subq	%rbx, %rax
	cmpq	%r15, %rax
	jae	LBB72_6
	movq	%rbx, %r12
	addq	%r15, %r12
	jb	LBB72_35
	leaq	(%rsi,%rsi), %rax
	cmpq	%r12, %rax
	cmovaq	%rax, %r12
	testq	%rsi, %rsi
	je	LBB72_12
	movq	(%r14), %rdi
	testq	%rdi, %rdi
	je	LBB72_12
	cmpq	%r12, %rsi
	je	LBB72_16
	movl	$1, %edx
	movq	%r12, %rcx
	callq	___rust_realloc
	jmp	LBB72_15
LBB72_6:
	movq	(%r14), %rdi
	jmp	LBB72_19
LBB72_12:
	testq	%r12, %r12
	je	LBB72_13
	movl	$1, %esi
	movq	%r12, %rdi
	callq	___rust_alloc
LBB72_15:
	movq	%rax, %rdi
LBB72_16:
	testq	%rdi, %rdi
	je	LBB72_38
	movq	16(%r14), %rbx
	jmp	LBB72_18
LBB72_30:
	movl	$1, %eax
LBB72_34:
	movq	%rax, (%r14)
	movq	%r15, 8(%r14)
LBB72_23:
	movb	%bl, (%rax,%rsi)
	incq	16(%r14)
	jmp	LBB72_20
LBB72_13:
	movl	$1, %edi
LBB72_18:
	movq	%rdi, (%r14)
	movq	%r12, 8(%r14)
LBB72_19:
	addq	%rbx, %rdi
	leaq	-36(%rbp), %rsi
	movq	%r15, %rdx
	callq	_memcpy
	addq	%r15, %rbx
	movq	%rbx, 16(%r14)
LBB72_20:
	addq	$16, %rsp
	popq	%rbx
	popq	%r12
	popq	%r14
	popq	%r15
	popq	%rbp
	retq
LBB72_35:
	callq	__ZN5alloc7raw_vec17capacity_overflow17h023f34f5bc34c61fE
LBB72_36:
	movl	$1, %esi
	movq	%r15, %rdi
	callq	__ZN5alloc5alloc18handle_alloc_error17hbc0ab0ed90816c07E
LBB72_38:
	movl	$1, %esi
	movq	%r12, %rdi
	callq	__ZN5alloc5alloc18handle_alloc_error17hbc0ab0ed90816c07E
	.cfi_endproc

	.p2align	4, 0x90
__ZN5alloc7raw_vec19RawVec$LT$T$C$A$GT$11allocate_in28_$u7b$$u7b$closure$u7d$$u7d$17h092c8ed798c26a80E:
	.cfi_startproc
	pushq	%rbp
	.cfi_def_cfa_offset 16
	.cfi_offset %rbp, -16
	movq	%rsp, %rbp
	.cfi_def_cfa_register %rbp
	callq	__ZN5alloc7raw_vec17capacity_overflow17h023f34f5bc34c61fE
	.cfi_endproc

	.p2align	4, 0x90
__ZN5alloc7raw_vec19RawVec$LT$T$C$A$GT$11allocate_in28_$u7b$$u7b$closure$u7d$$u7d$17hc3afb4a638250b1dE:
	.cfi_startproc
	pushq	%rbp
	.cfi_def_cfa_offset 16
	.cfi_offset %rbp, -16
	movq	%rsp, %rbp
	.cfi_def_cfa_register %rbp
	callq	__ZN5alloc5alloc18handle_alloc_error17hbc0ab0ed90816c07E
	.cfi_endproc

	.p2align	4, 0x90
__ZN60_$LT$alloc..string..String$u20$as$u20$core..fmt..Display$GT$3fmt17h4c6fc2b9ff0414a4E:
	.cfi_startproc
	pushq	%rbp
	.cfi_def_cfa_offset 16
	.cfi_offset %rbp, -16
	movq	%rsp, %rbp
	.cfi_def_cfa_register %rbp
	movq	%rsi, %rdx
	movq	(%rdi), %rax
	movq	16(%rdi), %rsi
	movq	%rax, %rdi
	popq	%rbp
	jmp	__ZN42_$LT$str$u20$as$u20$core..fmt..Display$GT$3fmt17hd4dee1c1c4ccf892E
	.cfi_endproc

	.p2align	4, 0x90
__ZN63_$LT$alloc..vec..Vec$LT$T$GT$$u20$as$u20$core..clone..Clone$GT$5clone17h374acc27dfcebf17E:
Lfunc_begin16:
	.cfi_startproc
	.cfi_personality 155, _rust_eh_personality
	.cfi_lsda 16, Lexception16
	pushq	%rbp
	.cfi_def_cfa_offset 16
	.cfi_offset %rbp, -16
	movq	%rsp, %rbp
	.cfi_def_cfa_register %rbp
	pushq	%r15
	pushq	%r14
	pushq	%r13
	pushq	%r12
	pushq	%rbx
	subq	$104, %rsp
	.cfi_offset %rbx, -56
	.cfi_offset %r12, -48
	.cfi_offset %r13, -40
	.cfi_offset %r14, -32
	.cfi_offset %r15, -24
	movq	16(%rsi), %r15
	movl	$48, %ecx
	xorl	%r12d, %r12d
	movq	%r15, %rax
	mulq	%rcx
	movq	%rax, %r13
	setno	%al
	jo	LBB76_14
	movq	%rdi, %rbx
	movq	(%rsi), %r14
	movb	%al, %r12b
	shlq	$3, %r12
	testq	%r13, %r13
	je	LBB76_2
	movq	%r13, %rdi
	movq	%r12, %rsi
	callq	___rust_alloc
	movq	%rax, %rcx
	testq	%rcx, %rcx
	je	LBB76_15
LBB76_5:
	movq	%rbx, -96(%rbp)
	movabsq	$-6148914691236517205, %rdx
	movq	%r13, %rax
	mulq	%rdx
	shrq	$5, %rdx
	movq	%rcx, -64(%rbp)
	movq	%rdx, -56(%rbp)
	movq	$0, -48(%rbp)
Ltmp91:
	leaq	-64(%rbp), %rdi
	movq	%r15, %rsi
	callq	__ZN5alloc3vec12Vec$LT$T$GT$7reserve17hc0be6e8834886ea9E
Ltmp92:
	leaq	-48(%rbp), %rax
	movq	-48(%rbp), %r12
	leaq	(%r12,%r12,2), %rbx
	shlq	$4, %rbx
	addq	-64(%rbp), %rbx
	movq	%rbx, -88(%rbp)
	movq	%rax, -80(%rbp)
	movq	%r12, -72(%rbp)
	testq	%r15, %r15
	je	LBB76_11
	shlq	$4, %r15
	leaq	(%r15,%r15,2), %r13
	leaq	-144(%rbp), %r15
	.p2align	4, 0x90
LBB76_8:
Ltmp94:
	movq	%r15, %rdi
	movq	%r14, %rsi
	vzeroupper
	callq	__ZN61_$LT$proc_macro2..TokenTree$u20$as$u20$core..clone..Clone$GT$5clone17hbd02e2be2f091da8E
Ltmp95:
	vmovups	-144(%rbp), %ymm0
	vmovups	-128(%rbp), %ymm1
	vmovups	%ymm1, 16(%rbx)
	addq	$48, %r14
	vmovups	%ymm0, (%rbx)
	addq	$48, %rbx
	incq	%r12
	addq	$-48, %r13
	jne	LBB76_8
	movq	%rbx, -88(%rbp)
	movq	%r12, -72(%rbp)
LBB76_11:
	movq	%r12, -48(%rbp)
	movq	-96(%rbp), %rax
	movq	%r12, 16(%rax)
	vmovups	-64(%rbp), %xmm0
	vmovups	%xmm0, (%rax)
	addq	$104, %rsp
	popq	%rbx
	popq	%r12
	popq	%r13
	popq	%r14
	popq	%r15
	popq	%rbp
	vzeroupper
	retq
LBB76_2:
	movq	%r12, %rcx
	testq	%rcx, %rcx
	jne	LBB76_5
LBB76_15:
	movq	%r13, %rdi
	movq	%r12, %rsi
	callq	__ZN5alloc7raw_vec19RawVec$LT$T$C$A$GT$11allocate_in28_$u7b$$u7b$closure$u7d$$u7d$17hc3afb4a638250b1dE
LBB76_14:
	callq	__ZN5alloc7raw_vec19RawVec$LT$T$C$A$GT$11allocate_in28_$u7b$$u7b$closure$u7d$$u7d$17h092c8ed798c26a80E
LBB76_12:
Ltmp93:
	movq	%rax, %r14
	jmp	LBB76_13
LBB76_16:
Ltmp96:
	movq	%rax, %r14
	movq	%rbx, -88(%rbp)
	movq	%r12, -72(%rbp)
	leaq	-88(%rbp), %rdi
	callq	__ZN4core3ptr13drop_in_place17h2b6e261ab68f2b05E
LBB76_13:
	leaq	-64(%rbp), %rdi
	callq	__ZN4core3ptr13drop_in_place17h0f6c0b7d7e2392feE
	movq	%r14, %rdi
	callq	__Unwind_Resume
	ud2
Lfunc_end16:
	.cfi_endproc
	.section	__TEXT,__gcc_except_tab
	.p2align	2
GCC_except_table76:
Lexception16:
	.byte	255
	.byte	255
	.byte	1
	.uleb128 Lcst_end16-Lcst_begin16
Lcst_begin16:
	.uleb128 Ltmp91-Lfunc_begin16
	.uleb128 Ltmp92-Ltmp91
	.uleb128 Ltmp93-Lfunc_begin16
	.byte	0
	.uleb128 Ltmp94-Lfunc_begin16
	.uleb128 Ltmp95-Ltmp94
	.uleb128 Ltmp96-Lfunc_begin16
	.byte	0
	.uleb128 Ltmp95-Lfunc_begin16
	.uleb128 Lfunc_end16-Ltmp95
	.byte	0
	.byte	0
Lcst_end16:
	.p2align	2

	.section	__TEXT,__text,regular,pure_instructions
	.p2align	4, 0x90
__ZN89_$LT$alloc..string..String$u20$as$u20$core..iter..traits..collect..Extend$LT$char$GT$$GT$6extend17he3aea949a8e54e9cE:
	.cfi_startproc
	pushq	%rbp
	.cfi_def_cfa_offset 16
	.cfi_offset %rbp, -16
	movq	%rsp, %rbp
	.cfi_def_cfa_register %rbp
	pushq	%r15
	pushq	%r14
	pushq	%rbx
	subq	$56, %rsp
	.cfi_offset %rbx, -40
	.cfi_offset %r14, -32
	.cfi_offset %r15, -24
	movq	%rdi, %r15
	movq	16(%rsi), %rax
	movq	%rax, -32(%rbp)
	vmovups	(%rsi), %xmm0
	vmovaps	%xmm0, -48(%rbp)
	leaq	-80(%rbp), %rdi
	leaq	-48(%rbp), %rsi
	callq	__ZN82_$LT$core..char..EscapeDebug$u20$as$u20$core..iter..traits..iterator..Iterator$GT$9size_hint17h68a15e60cf59a865E
	movq	-80(%rbp), %rax
	movq	8(%r15), %rsi
	movq	16(%r15), %r14
	movq	%rsi, %rcx
	subq	%r14, %rcx
	cmpq	%rax, %rcx
	jae	LBB77_11
	addq	%rax, %r14
	jb	LBB77_14
	leaq	(%rsi,%rsi), %rax
	cmpq	%r14, %rax
	cmovaq	%rax, %r14
	testq	%rsi, %rsi
	je	LBB77_6
	movq	(%r15), %rax
	testq	%rax, %rax
	je	LBB77_6
	cmpq	%r14, %rsi
	je	LBB77_9
	movl	$1, %edx
	movq	%rax, %rdi
	movq	%r14, %rcx
	callq	___rust_realloc
	testq	%rax, %rax
	jne	LBB77_10
	jmp	LBB77_15
LBB77_6:
	testq	%r14, %r14
	je	LBB77_7
	movl	$1, %esi
	movq	%r14, %rdi
	callq	___rust_alloc
LBB77_9:
	testq	%rax, %rax
	jne	LBB77_10
LBB77_15:
	movl	$1, %esi
	movq	%r14, %rdi
	callq	__ZN5alloc5alloc18handle_alloc_error17hbc0ab0ed90816c07E
LBB77_7:
	movl	$1, %eax
LBB77_10:
	movq	%rax, (%r15)
	movq	%r14, 8(%r15)
LBB77_11:
	movq	-32(%rbp), %rax
	movq	%rax, -64(%rbp)
	vmovaps	-48(%rbp), %xmm0
	vmovaps	%xmm0, -80(%rbp)
	leaq	-80(%rbp), %rbx
	movq	%rbx, %rdi
	callq	__ZN82_$LT$core..char..EscapeDebug$u20$as$u20$core..iter..traits..iterator..Iterator$GT$4next17h327f82d2f6ce1bf0E
	cmpl	$1114112, %eax
	je	LBB77_16
	.p2align	4, 0x90
LBB77_13:
	movq	%r15, %rdi
	movl	%eax, %esi
	callq	__ZN5alloc6string6String4push17h97254c0338c06661E
	movq	%rbx, %rdi
	callq	__ZN82_$LT$core..char..EscapeDebug$u20$as$u20$core..iter..traits..iterator..Iterator$GT$4next17h327f82d2f6ce1bf0E
	cmpl	$1114112, %eax
	jne	LBB77_13
LBB77_16:
	addq	$56, %rsp
	popq	%rbx
	popq	%r14
	popq	%r15
	popq	%rbp
	retq
LBB77_14:
	callq	__ZN5alloc7raw_vec17capacity_overflow17h023f34f5bc34c61fE
	.cfi_endproc

	.p2align	4, 0x90
__ZN91_$LT$std..panicking..begin_panic..PanicPayload$LT$A$GT$$u20$as$u20$core..panic..BoxMeUp$GT$3get17h94196504ba4e4705E:
	.cfi_startproc
	pushq	%rbp
	.cfi_def_cfa_offset 16
	.cfi_offset %rbp, -16
	movq	%rsp, %rbp
	.cfi_def_cfa_register %rbp
	cmpq	$0, (%rdi)
	je	LBB78_2
	movq	%rdi, %rax
	leaq	l___unnamed_12(%rip), %rdx
	popq	%rbp
	retq
LBB78_2:
	callq	__ZN3std7process5abort17h4dccaf05298ce780E
	.cfi_endproc

	.p2align	4, 0x90
__ZN91_$LT$std..panicking..begin_panic..PanicPayload$LT$A$GT$$u20$as$u20$core..panic..BoxMeUp$GT$8take_box17h401e5c4a5527342aE:
	.cfi_startproc
	pushq	%rbp
	.cfi_def_cfa_offset 16
	.cfi_offset %rbp, -16
	movq	%rsp, %rbp
	.cfi_def_cfa_register %rbp
	pushq	%r14
	pushq	%rbx
	.cfi_offset %rbx, -32
	.cfi_offset %r14, -24
	movq	(%rdi), %rbx
	movq	8(%rdi), %r14
	movq	$0, (%rdi)
	testq	%rbx, %rbx
	je	LBB79_3
	movl	$16, %edi
	movl	$8, %esi
	callq	___rust_alloc
	testq	%rax, %rax
	je	LBB79_4
	movq	%rbx, (%rax)
	movq	%r14, 8(%rax)
	leaq	l___unnamed_12(%rip), %rdx
	popq	%rbx
	popq	%r14
	popq	%rbp
	retq
LBB79_3:
	callq	__ZN3std7process5abort17h4dccaf05298ce780E
LBB79_4:
	movl	$16, %edi
	movl	$8, %esi
	callq	__ZN5alloc5alloc18handle_alloc_error17hbc0ab0ed90816c07E
	.cfi_endproc

	.p2align	4, 0x90
__ZN11proc_macro25parse13block_comment17h8bb424f8fbaac64bE:
	.cfi_startproc
	pushq	%rbp
	.cfi_def_cfa_offset 16
	.cfi_offset %rbp, -16
	movq	%rsp, %rbp
	.cfi_def_cfa_register %rbp
	subq	$16, %rsp
	cmpq	$2, %rdx
	jb	LBB80_10
	leaq	l___unnamed_13(%rip), %rax
	cmpq	%rax, %rsi
	je	LBB80_3
	movzwl	(%rsi), %eax
	cmpl	$10799, %eax
	jne	LBB80_10
LBB80_3:
	leaq	-1(%rdx), %r8
	xorl	%r9d, %r9d
	xorl	%ecx, %ecx
	.p2align	4, 0x90
LBB80_4:
	cmpq	%rdx, %rcx
	jae	LBB80_27
	movzbl	(%rsi,%rcx), %eax
	cmpb	$42, %al
	je	LBB80_15
	cmpb	$47, %al
	jne	LBB80_7
	leaq	1(%rcx), %rax
	cmpq	%rdx, %rax
	jae	LBB80_28
	cmpb	$42, (%rsi,%rax)
	jne	LBB80_7
	incl	%r9d
	jno	LBB80_8
	jmp	LBB80_14
	.p2align	4, 0x90
LBB80_15:
	leaq	1(%rcx), %rax
	cmpq	%rdx, %rax
	jae	LBB80_30
	cmpb	$47, (%rsi,%rax)
	jne	LBB80_7
	decl	%r9d
	jo	LBB80_31
	testl	%r9d, %r9d
	jne	LBB80_8
	jmp	LBB80_19
	.p2align	4, 0x90
LBB80_7:
	movq	%rcx, %rax
LBB80_8:
	incq	%rax
	je	LBB80_32
	movq	%rax, %rcx
	cmpq	%r8, %rax
	jb	LBB80_4
LBB80_10:
	movq	$0, (%rdi)
	addq	$16, %rsp
	popq	%rbp
	retq
LBB80_19:
	addq	$2, %rcx
	cmpq	%rdx, %rcx
	je	LBB80_22
	jae	LBB80_33
	cmpb	$-65, (%rsi,%rcx)
	jle	LBB80_33
LBB80_22:
	leaq	(%rsi,%rcx), %r8
	movq	%rdx, %rax
	movq	%rsi, -16(%rbp)
	movq	%rdx, -8(%rbp)
	subq	%rcx, %rax
	je	LBB80_25
	cmpq	%rdx, %rcx
	jae	LBB80_34
	cmpb	$-65, (%r8)
	jle	LBB80_34
LBB80_25:
	movq	%r8, (%rdi)
	movq	%rax, 8(%rdi)
	movq	%rsi, 16(%rdi)
	movq	%rcx, 24(%rdi)
	addq	$16, %rsp
	popq	%rbp
	retq
LBB80_27:
	leaq	l___unnamed_14(%rip), %rax
	movq	%rcx, %rdi
	movq	%rdx, %rsi
	movq	%rax, %rdx
	callq	__ZN4core9panicking18panic_bounds_check17habe69d236c55e3edE
LBB80_32:
	leaq	_str.1(%rip), %rdi
	leaq	l___unnamed_15(%rip), %rdx
	movl	$28, %esi
	callq	__ZN4core9panicking5panic17h736ee47a631475c0E
LBB80_28:
	leaq	l___unnamed_16(%rip), %rcx
	movq	%rax, %rdi
	movq	%rdx, %rsi
	movq	%rcx, %rdx
	callq	__ZN4core9panicking18panic_bounds_check17habe69d236c55e3edE
LBB80_30:
	leaq	l___unnamed_17(%rip), %rcx
	movq	%rax, %rdi
	movq	%rdx, %rsi
	movq	%rcx, %rdx
	callq	__ZN4core9panicking18panic_bounds_check17habe69d236c55e3edE
LBB80_31:
	leaq	_str.0(%rip), %rdi
	leaq	l___unnamed_18(%rip), %rdx
	movl	$33, %esi
	callq	__ZN4core9panicking5panic17h736ee47a631475c0E
LBB80_14:
	leaq	_str.1(%rip), %rdi
	leaq	l___unnamed_19(%rip), %rdx
	movl	$28, %esi
	callq	__ZN4core9panicking5panic17h736ee47a631475c0E
LBB80_33:
	leaq	l___unnamed_20(%rip), %r8
	movq	%rsi, %rdi
	movq	%rdx, %rsi
	xorl	%edx, %edx
	callq	__ZN4core3str16slice_error_fail17h6b29707aec812690E
LBB80_34:
	leaq	-16(%rbp), %rdi
	movq	%rcx, %rsi
	callq	__ZN4core3str6traits103_$LT$impl$u20$core..slice..SliceIndex$LT$str$GT$$u20$for$u20$core..ops..range..RangeTo$LT$usize$GT$$GT$5index28_$u7b$$u7b$closure$u7d$$u7d$17hd0417117cc9a56d9E
	.cfi_endproc

	.section	__TEXT,__literal16,16byte_literals
	.p2align	4
LCPI81_0:
	.quad	3
	.quad	3
LCPI81_1:
	.space	16
	.section	__TEXT,__text,regular,pure_instructions
	.p2align	4, 0x90
__ZN11proc_macro25parse12token_stream17h3e2c2ac687f200c7E:
Lfunc_begin17:
	.cfi_startproc
	.cfi_personality 155, _rust_eh_personality
	.cfi_lsda 16, Lexception17
	pushq	%rbp
	.cfi_def_cfa_offset 16
	.cfi_offset %rbp, -16
	movq	%rsp, %rbp
	.cfi_def_cfa_register %rbp
	pushq	%r15
	pushq	%r14
	pushq	%r13
	pushq	%r12
	pushq	%rbx
	subq	$472, %rsp
	.cfi_offset %rbx, -56
	.cfi_offset %r12, -48
	.cfi_offset %r13, -40
	.cfi_offset %r14, -32
	.cfi_offset %r15, -24
	movq	%rdi, -376(%rbp)
	movq	$8, -192(%rbp)
	vxorps	%xmm0, %xmm0, %xmm0
	vmovups	%xmm0, -184(%rbp)
	movq	$8, -408(%rbp)
	vmovups	%xmm0, -400(%rbp)
	leaq	-368(%rbp), %rax
	movq	%rax, -504(%rbp)
LBB81_1:
	movq	%rdx, -480(%rbp)
	movq	%rsi, -472(%rbp)
	movq	%rsi, %rax
	movq	%rax, -48(%rbp)
	testq	%rdx, %rdx
	je	LBB81_204
	.p2align	4, 0x90
LBB81_4:
	movq	-48(%rbp), %rax
	movq	%rax, -56(%rbp)
	movq	%rdx, %r13
	movq	-56(%rbp), %rax
	movzbl	(%rax), %eax
	cmpl	$32, %eax
	jne	LBB81_7
	jmp	LBB81_16
	.p2align	4, 0x90
LBB81_5:
	incq	-56(%rbp)
	decq	%r13
	movq	%r13, %rax
	movq	%rax, %r13
	testq	%rax, %rax
	je	LBB81_203
LBB81_6:
	movq	-56(%rbp), %rax
	movzbl	(%rax), %eax
	cmpl	$32, %eax
	je	LBB81_16
LBB81_7:
	cmpb	$47, %al
	jne	LBB81_15
	cmpq	$2, %r13
	jb	LBB81_205
	leaq	l___unnamed_21(%rip), %rax
	cmpq	%rax, -56(%rbp)
	je	LBB81_18
	movq	-56(%rbp), %rax
	movzwl	(%rax), %eax
	cmpl	$12079, %eax
	je	LBB81_18
LBB81_11:
	movb	$1, %al
	cmpq	$4, %r13
	jb	LBB81_33
LBB81_12:
	leaq	L___unnamed_22(%rip), %rax
	movq	-56(%rbp), %rcx
	cmpq	%rax, %rcx
	je	LBB81_43
	cmpl	$791292463, (%rcx)
	je	LBB81_43
	xorl	%eax, %eax
	leaq	l___unnamed_13(%rip), %rcx
	cmpq	%rcx, -56(%rbp)
	je	LBB81_35
LBB81_34:
	movq	-56(%rbp), %rcx
	movzwl	(%rcx), %ecx
	cmpl	$10799, %ecx
	je	LBB81_35
	jmp	LBB81_73
	.p2align	4, 0x90
LBB81_15:
	leal	-9(%rax), %ecx
	cmpb	$4, %cl
	ja	LBB81_21
LBB81_16:
	cmpq	$1, %r13
	je	LBB81_5
	movq	-56(%rbp), %rax
	cmpb	$-65, 1(%rax)
	jg	LBB81_5
	jmp	LBB81_1071
LBB81_18:
	cmpq	$3, %r13
	jae	LBB81_30
LBB81_19:
Ltmp101:
	leaq	-144(%rbp), %rdi
	movq	-56(%rbp), %rsi
	movq	%r13, %rdx
	vzeroupper
	callq	__ZN11proc_macro25parse25take_until_newline_or_eof17hb3ecfc0d155e3014E
Ltmp102:
	movq	-144(%rbp), %rax
	movq	%rax, -56(%rbp)
	movq	-136(%rbp), %rax
	movq	%rax, %r13
	testq	%rax, %rax
	jne	LBB81_6
	jmp	LBB81_203
LBB81_21:
	testb	%al, %al
	jns	LBB81_73
	testq	%r13, %r13
	je	LBB81_1073
	movq	-56(%rbp), %rcx
	leaq	(%rcx,%r13), %rdx
	xorl	%ebx, %ebx
	movq	%rdx, %rsi
	cmpq	$1, %r13
	je	LBB81_25
	movq	-56(%rbp), %rcx
	leaq	2(%rcx), %rsi
	movzbl	1(%rcx), %ebx
	andl	$63, %ebx
LBB81_25:
	movl	%eax, %ecx
	andl	$31, %ecx
	cmpb	$-32, %al
	jb	LBB81_42
	cmpq	%rdx, %rsi
	je	LBB81_51
	movzbl	(%rsi), %edi
	incq	%rsi
	andl	$63, %edi
	shll	$6, %ebx
	orl	%edi, %ebx
	cmpb	$-16, %al
	jb	LBB81_52
LBB81_28:
	cmpq	%rdx, %rsi
	je	LBB81_58
	movzbl	(%rsi), %eax
	andl	$63, %eax
	jmp	LBB81_59
LBB81_30:
	leaq	l___unnamed_23(%rip), %rax
	cmpq	%rax, -56(%rbp)
	je	LBB81_32
	movq	-56(%rbp), %rcx
	movzwl	(%rcx), %eax
	xorl	$12079, %eax
	movzbl	2(%rcx), %ecx
	xorl	$47, %ecx
	orw	%ax, %cx
	jne	LBB81_56
LBB81_32:
	movb	$1, %al
	cmpq	$4, %r13
	jae	LBB81_54
LBB81_33:
	leaq	l___unnamed_13(%rip), %rcx
	cmpq	%rcx, -56(%rbp)
	jne	LBB81_34
LBB81_35:
	cmpq	$3, %r13
	jb	LBB81_48
	leaq	l___unnamed_24(%rip), %rcx
	movq	-56(%rbp), %rsi
	cmpq	%rcx, %rsi
	je	LBB81_38
	movzwl	(%rsi), %ecx
	xorl	$10799, %ecx
	movzbl	2(%rsi), %edx
	xorl	$42, %edx
	orw	%cx, %dx
	jne	LBB81_46
LBB81_38:
	testb	%al, %al
	jne	LBB81_74
	leaq	L___unnamed_25(%rip), %rax
	movq	-56(%rbp), %rsi
	cmpq	%rax, %rsi
	je	LBB81_46
	xorl	%eax, %eax
	cmpl	$707406383, (%rsi)
	setne	%cl
	leaq	l___unnamed_26(%rip), %rdx
	cmpq	%rdx, %rsi
	je	LBB81_74
	movb	%cl, %al
	testl	%eax, %eax
	je	LBB81_47
	jmp	LBB81_74
LBB81_42:
	shll	$6, %ecx
	jmp	LBB81_53
LBB81_43:
	cmpq	$4, %r13
	je	LBB81_45
	movq	-56(%rbp), %rax
	cmpb	$-65, 4(%rax)
	jle	LBB81_1075
LBB81_45:
	addq	$4, -56(%rbp)
	addq	$-4, %r13
	movq	%r13, %rax
	movq	%rax, %r13
	testq	%rax, %rax
	jne	LBB81_6
	jmp	LBB81_203
LBB81_46:
	leaq	l___unnamed_26(%rip), %rax
	cmpq	%rax, %rsi
	je	LBB81_74
LBB81_47:
	movq	-56(%rbp), %rcx
	movzwl	(%rcx), %eax
	xorl	$10799, %eax
	movzbl	2(%rcx), %ecx
	xorl	$33, %ecx
	orw	%ax, %cx
	je	LBB81_74
LBB81_48:
Ltmp99:
	leaq	-144(%rbp), %rdi
	movq	-56(%rbp), %rsi
	movq	%r13, %rdx
	vzeroupper
	callq	__ZN11proc_macro25parse13block_comment17h8bb424f8fbaac64bE
Ltmp100:
	movq	-144(%rbp), %rcx
	testq	%rcx, %rcx
	je	LBB81_73
	movq	-136(%rbp), %rax
	movq	%rcx, -56(%rbp)
	movq	%rax, %r13
	testq	%rax, %rax
	jne	LBB81_6
	jmp	LBB81_203
LBB81_51:
	xorl	%edi, %edi
	movq	%rdx, %rsi
	shll	$6, %ebx
	orl	%edi, %ebx
	cmpb	$-16, %al
	jae	LBB81_28
LBB81_52:
	shll	$12, %ecx
LBB81_53:
	orl	%ecx, %ebx
	movl	$1, %r14d
	leal	-9(%rbx), %eax
	cmpl	$5, %eax
	jb	LBB81_61
LBB81_65:
	cmpl	$32, %ebx
	je	LBB81_61
	cmpl	$128, %ebx
	jb	LBB81_69
Ltmp103:
	movl	%ebx, %edi
	vzeroupper
	callq	__ZN4core7unicode12unicode_data11white_space6lookup17ha71f6b36a0478eccE
Ltmp104:
	testb	%al, %al
	jne	LBB81_71
LBB81_69:
	movl	%ebx, %eax
	orl	$1, %eax
	cmpl	$8207, %eax
	jne	LBB81_73
	cmpl	$128, %ebx
	jb	LBB81_61
LBB81_71:
	movl	$2, %r14d
	cmpl	$2048, %ebx
	jb	LBB81_61
	cmpl	$65536, %ebx
	movl	$4, %r14d
	sbbq	$0, %r14
	movq	%r13, %rax
	subq	%r14, %rax
	je	LBB81_64
LBB81_62:
	jbe	LBB81_1072
	movq	-56(%rbp), %rcx
	cmpb	$-65, (%rcx,%r14)
	jg	LBB81_64
	jmp	LBB81_1072
LBB81_54:
	leaq	L___unnamed_27(%rip), %rax
	cmpq	%rax, -56(%rbp)
	je	LBB81_56
	movq	-56(%rbp), %rax
	cmpl	$791621423, (%rax)
	jne	LBB81_12
LBB81_56:
	leaq	l___unnamed_28(%rip), %rax
	cmpq	%rax, -56(%rbp)
	je	LBB81_11
	movq	-56(%rbp), %rcx
	movzwl	(%rcx), %eax
	xorl	$12079, %eax
	movzbl	2(%rcx), %ecx
	xorl	$33, %ecx
	orw	%ax, %cx
	jne	LBB81_19
	jmp	LBB81_11
LBB81_58:
	xorl	%eax, %eax
LBB81_59:
	andl	$7, %ecx
	shll	$18, %ecx
	shll	$6, %ebx
	orl	%ecx, %ebx
	orl	%eax, %ebx
	cmpl	$1114112, %ebx
	je	LBB81_1073
	movl	$1, %r14d
	leal	-9(%rbx), %eax
	cmpl	$5, %eax
	jae	LBB81_65
LBB81_61:
	movq	%r13, %rax
	subq	%r14, %rax
	jne	LBB81_62
LBB81_64:
	addq	%r14, -56(%rbp)
	movq	%rax, %r13
	testq	%rax, %rax
	jne	LBB81_6
	jmp	LBB81_203
	.p2align	4, 0x90
LBB81_73:
	cmpq	$3, %r13
	jb	LBB81_246
LBB81_74:
	leaq	l___unnamed_28(%rip), %rax
	movq	-56(%rbp), %rsi
	cmpq	%rax, %rsi
	je	LBB81_96
	movzwl	(%rsi), %eax
	xorl	$12079, %eax
	movzbl	2(%rsi), %ecx
	xorl	$33, %ecx
	orw	%ax, %cx
	je	LBB81_96
	leaq	l___unnamed_26(%rip), %rax
	cmpq	%rax, %rsi
	je	LBB81_100
	movzwl	(%rsi), %eax
	xorl	$10799, %eax
	movzbl	2(%rsi), %ecx
	xorl	$33, %ecx
	orw	%ax, %cx
	je	LBB81_100
	leaq	l___unnamed_23(%rip), %rax
	cmpq	%rax, %rsi
	je	LBB81_194
	movzwl	(%rsi), %eax
	xorl	$12079, %eax
	movzbl	2(%rsi), %ecx
	xorl	$47, %ecx
	orw	%ax, %cx
	je	LBB81_194
	leaq	l___unnamed_24(%rip), %rax
	cmpq	%rax, %rsi
	je	LBB81_82
	movzwl	(%rsi), %eax
	xorl	$10799, %eax
	movzbl	2(%rsi), %ecx
	xorl	$42, %ecx
	orw	%ax, %cx
	jne	LBB81_248
LBB81_82:
	movq	%rsi, -240(%rbp)
	movq	%r13, -232(%rbp)
	movq	$3, -320(%rbp)
	movq	%r13, -368(%rbp)
	cmpq	$3, %r13
	je	LBB81_85
	movb	3(%rsi), %al
	cmpb	$-65, %al
	jle	LBB81_1076
	cmpb	$42, %al
	je	LBB81_246
LBB81_85:
Ltmp112:
	leaq	-144(%rbp), %rdi
	movq	-56(%rbp), %rsi
	movq	%r13, %rdx
	vzeroupper
	callq	__ZN11proc_macro25parse13block_comment17h8bb424f8fbaac64bE
Ltmp113:
	movq	-144(%rbp), %rax
	movq	%rax, -48(%rbp)
	testq	%rax, %rax
	je	LBB81_246
	movq	-120(%rbp), %rax
	movq	%rax, %rdx
	subq	$2, %rdx
	jb	LBB81_1077
	movq	-136(%rbp), %rcx
	movq	-128(%rbp), %rsi
	movq	%rsi, -240(%rbp)
	movq	%rax, -232(%rbp)
	movq	$3, -320(%rbp)
	movq	%rdx, -368(%rbp)
	cmpq	$2, %rdx
	jbe	LBB81_1078
	cmpq	$3, %rax
	je	LBB81_92
	cmpq	$4, %rax
	jb	LBB81_1078
	cmpb	$-65, 3(%rsi)
	jle	LBB81_1078
LBB81_92:
	cmpq	%rdx, %rax
	je	LBB81_95
	jbe	LBB81_1078
	cmpb	$-65, (%rsi,%rdx)
	jle	LBB81_1078
LBB81_95:
	movq	%rcx, -248(%rbp)
	addq	$3, %rsi
	addq	$-3, %rdx
	jmp	LBB81_202
LBB81_96:
	cmpq	$3, %r13
	movq	%rsi, %rdi
	je	LBB81_98
	cmpb	$-65, 3(%rdi)
	jle	LBB81_1079
LBB81_98:
	leaq	3(%rdi), %rsi
	leaq	-3(%r13), %rdx
Ltmp130:
	leaq	-144(%rbp), %rdi
	vzeroupper
	callq	__ZN11proc_macro25parse25take_until_newline_or_eof17hb3ecfc0d155e3014E
Ltmp131:
	movq	-144(%rbp), %rax
	movq	%rax, -48(%rbp)
	movq	-136(%rbp), %rax
	movq	%rax, -248(%rbp)
	movq	-128(%rbp), %rsi
	movq	-120(%rbp), %rdx
	jmp	LBB81_111
LBB81_100:
Ltmp122:
	leaq	-144(%rbp), %rdi
	movq	%r13, %rdx
	vzeroupper
	callq	__ZN11proc_macro25parse13block_comment17h8bb424f8fbaac64bE
Ltmp123:
	movq	-144(%rbp), %rax
	movq	%rax, -48(%rbp)
	testq	%rax, %rax
	je	LBB81_246
	movq	-120(%rbp), %rax
	movq	%rax, %rdx
	subq	$2, %rdx
	jb	LBB81_1080
	movq	-136(%rbp), %rcx
	movq	-128(%rbp), %rsi
	movq	%rsi, -240(%rbp)
	movq	%rax, -232(%rbp)
	movq	$3, -320(%rbp)
	movq	%rdx, -368(%rbp)
	cmpq	$2, %rdx
	jbe	LBB81_1081
	cmpq	$3, %rax
	je	LBB81_107
	cmpq	$4, %rax
	jb	LBB81_1081
	cmpb	$-65, 3(%rsi)
	jle	LBB81_1081
LBB81_107:
	cmpq	%rdx, %rax
	je	LBB81_110
	jbe	LBB81_1081
	cmpb	$-65, (%rsi,%rdx)
	jle	LBB81_1081
LBB81_110:
	movq	%rcx, -248(%rbp)
	addq	$3, %rsi
	addq	$-3, %rdx
LBB81_111:
	movl	$0, -152(%rbp)
LBB81_112:
	movq	%rsi, -144(%rbp)
	movq	%rdx, -136(%rbp)
	movq	$0, -128(%rbp)
	movq	%rdx, -120(%rbp)
	movabsq	$55834574861, %rax
	movq	%rax, -104(%rbp)
	movq	$1, -112(%rbp)
Ltmp132:
	movl	$13, %edi
	movq	%rsi, -72(%rbp)
	movq	%rdx, -64(%rbp)
	callq	__ZN4core5slice6memchr6memchr17h319ffdabcbdf42caE
Ltmp133:
	cmpq	$1, %rax
	jne	LBB81_133
	movq	-64(%rbp), %rax
	movq	%rax, -496(%rbp)
	movq	-72(%rbp), %rax
	movq	%rax, -488(%rbp)
	.p2align	4, 0x90
LBB81_115:
	movq	-128(%rbp), %rax
	movq	-112(%rbp), %r12
	leaq	(%rdx,%rax), %r14
	addq	$1, %r14
	movq	%r14, -128(%rbp)
	movq	%r14, %rbx
	subq	%r12, %rbx
	jae	LBB81_117
	movq	-136(%rbp), %r15
	movq	-120(%rbp), %rax
	movq	%rax, %rdx
	subq	%r14, %rdx
	jb	LBB81_134
LBB81_122:
	cmpq	%rax, %r15
	jb	LBB81_134
	addq	-144(%rbp), %r14
	leaq	-144(%rbp), %rax
	movzbl	43(%r12,%rax), %edi
Ltmp144:
	movq	%r14, %rsi
	callq	__ZN4core5slice6memchr6memchr17h319ffdabcbdf42caE
Ltmp145:
LBB81_124:
	cmpq	$1, %rax
	je	LBB81_115
	jmp	LBB81_133
	.p2align	4, 0x90
LBB81_117:
	movq	-136(%rbp), %r15
	cmpq	%r14, %r15
	jb	LBB81_121
	cmpq	$5, %r12
	jae	LBB81_1084
	movq	-144(%rbp), %rdi
	addq	%rbx, %rdi
	leaq	-100(%rbp), %rax
	cmpq	%rax, %rdi
	je	LBB81_125
	leaq	-100(%rbp), %rsi
	movq	%r12, %rdx
	callq	_bcmp
	testl	%eax, %eax
	je	LBB81_125
LBB81_121:
	movq	-120(%rbp), %rax
	movq	%rax, %rdx
	subq	%r14, %rdx
	jae	LBB81_122
	jmp	LBB81_134
LBB81_125:
	incq	%rbx
	je	LBB81_1085
	movq	-488(%rbp), %rsi
	movq	%rsi, -240(%rbp)
	movq	-496(%rbp), %rdx
	movq	%rdx, -232(%rbp)
	movq	%rbx, -320(%rbp)
	movq	%rdx, -368(%rbp)
	testq	%rbx, %rbx
	je	LBB81_130
	cmpq	%rbx, %rdx
	je	LBB81_130
	jbe	LBB81_1083
	cmpb	$-65, (%rsi,%rbx)
	jle	LBB81_1083
LBB81_130:
	subq	%rbx, %rdx
	je	LBB81_246
	addq	%rbx, %rsi
	cmpb	$10, (%rsi)
	jne	LBB81_246
	movq	%rsi, -144(%rbp)
	movq	%rdx, -136(%rbp)
	movq	$0, -128(%rbp)
	movq	%rdx, -120(%rbp)
	movabsq	$55834574861, %rax
	movq	%rax, -104(%rbp)
	movq	$1, -112(%rbp)
Ltmp137:
	movl	$13, %edi
	movq	%rsi, -488(%rbp)
	movq	%rdx, -496(%rbp)
	callq	__ZN4core5slice6memchr6memchr17h319ffdabcbdf42caE
Ltmp138:
	jmp	LBB81_124
	.p2align	4, 0x90
LBB81_133:
	movq	-120(%rbp), %rax
	movq	%rax, -128(%rbp)
LBB81_134:
	movq	$8, -288(%rbp)
	vxorps	%xmm0, %xmm0, %xmm0
	leaq	-280(%rbp), %rax
	vmovups	%xmm0, (%rax)
Ltmp147:
	callq	__ZN11proc_macro29detection17inside_proc_macro17h1c8c95cd29726299E
Ltmp148:
	movl	%eax, %ecx
	xorl	%eax, %eax
	testb	%cl, %cl
	je	LBB81_137
Ltmp149:
	callq	__ZN10proc_macro4Span9call_site17hd72cd07d37a92d33E
Ltmp150:
LBB81_137:
	movl	$35, -140(%rbp)
	movl	%eax, -136(%rbp)
	movb	$0, -132(%rbp)
	movb	-318(%rbp), %al
	leaq	-100(%rbp), %rcx
	movb	%al, -29(%rcx)
	movzwl	-320(%rbp), %eax
	movw	%ax, -31(%rcx)
	movl	$2, -144(%rbp)
Ltmp151:
	movl	$1, %esi
	leaq	-288(%rbp), %rdi
	callq	__ZN5alloc3vec12Vec$LT$T$GT$7reserve17hc0be6e8834886ea9E
Ltmp152:
	movq	-288(%rbp), %r14
	movq	-272(%rbp), %rcx
	leaq	(%rcx,%rcx,2), %rax
	shlq	$4, %rax
	vmovups	-144(%rbp), %ymm0
	vmovups	-112(%rbp), %xmm1
	vmovups	%xmm1, 32(%r14,%rax)
	vmovups	%ymm0, (%r14,%rax)
	incq	%rcx
	movq	%rcx, %r15
	movq	%rcx, -272(%rbp)
	cmpb	$0, -152(%rbp)
	jne	LBB81_147
Ltmp156:
	vzeroupper
	callq	__ZN11proc_macro29detection17inside_proc_macro17h1c8c95cd29726299E
Ltmp157:
	movl	%eax, %ecx
	xorl	%eax, %eax
	testb	%cl, %cl
	je	LBB81_142
Ltmp158:
	callq	__ZN10proc_macro4Span9call_site17hd72cd07d37a92d33E
Ltmp159:
LBB81_142:
	movl	$33, -140(%rbp)
	movl	%eax, -136(%rbp)
	movb	$0, -132(%rbp)
	movb	-366(%rbp), %al
	leaq	-100(%rbp), %rcx
	movb	%al, -29(%rcx)
	movzwl	-368(%rbp), %eax
	movw	%ax, -31(%rcx)
	movl	$2, -144(%rbp)
	cmpq	-280(%rbp), %r15
	jne	LBB81_145
Ltmp161:
	movl	$1, %esi
	leaq	-288(%rbp), %rdi
	callq	__ZN5alloc3vec12Vec$LT$T$GT$7reserve17hc0be6e8834886ea9E
Ltmp162:
	movq	-288(%rbp), %r14
	movq	-272(%rbp), %rcx
	jmp	LBB81_146
LBB81_145:
	movq	%r15, %rcx
LBB81_146:
	leaq	(%rcx,%rcx,2), %rax
	shlq	$4, %rax
	vmovups	-144(%rbp), %ymm0
	vmovups	-112(%rbp), %xmm1
	vmovups	%xmm1, 32(%r14,%rax)
	vmovups	%ymm0, (%r14,%rax)
	incq	%rcx
	movq	%rcx, %r15
	movq	%rcx, -272(%rbp)
LBB81_147:
	movl	$144, %edi
	movl	$8, %esi
	vzeroupper
	callq	___rust_alloc
	testq	%rax, %rax
	je	LBB81_1092
	movq	%rax, %r12
Ltmp167:
	movl	$3, %edx
	leaq	-144(%rbp), %rdi
	leaq	l___unnamed_29(%rip), %rsi
	xorl	%ecx, %ecx
	callq	__ZN11proc_macro28fallback5Ident4_new17h9b5d3237ae076bf2E
Ltmp168:
	vmovups	-144(%rbp), %ymm0
	vmovups	%ymm0, -368(%rbp)
	movl	$1, -232(%rbp)
	leaq	-224(%rbp), %rax
	vmovups	%ymm0, (%rax)
	movl	$1, -240(%rbp)
Ltmp170:
	vzeroupper
	callq	__ZN11proc_macro29detection17inside_proc_macro17h1c8c95cd29726299E
Ltmp171:
	movl	%eax, %ecx
	xorl	%eax, %eax
	testb	%cl, %cl
	je	LBB81_152
Ltmp172:
	callq	__ZN10proc_macro4Span9call_site17hd72cd07d37a92d33E
Ltmp173:
LBB81_152:
	movl	$61, -140(%rbp)
	movl	%eax, -136(%rbp)
	movb	$0, -132(%rbp)
	movb	-366(%rbp), %al
	leaq	-100(%rbp), %rcx
	movb	%al, -29(%rcx)
	movzwl	-368(%rbp), %eax
	movw	%ax, -31(%rcx)
	movl	$2, -144(%rbp)
Ltmp175:
	leaq	-320(%rbp), %rdi
	movq	-72(%rbp), %rsi
	movq	-64(%rbp), %rdx
	callq	__ZN11proc_macro27Literal6string17h7d0f76cd44b98f00E
Ltmp176:
	vmovups	-320(%rbp), %ymm0
	leaq	-364(%rbp), %rax
	vmovups	%ymm0, (%rax)
	vmovups	-240(%rbp), %ymm0
	vmovups	-224(%rbp), %ymm1
	vmovups	%ymm1, 16(%r12)
	vmovups	%ymm0, (%r12)
	vmovups	-144(%rbp), %ymm0
	vmovups	-128(%rbp), %ymm1
	vmovups	%ymm0, 48(%r12)
	vmovups	%ymm1, 64(%r12)
	movl	$3, 96(%r12)
	movl	-336(%rbp), %eax
	movl	%eax, 132(%r12)
	vmovups	-368(%rbp), %ymm0
	vmovups	%ymm0, 100(%r12)
	movq	%r12, -320(%rbp)
	vmovaps	LCPI81_0(%rip), %xmm0
	vmovups	%xmm0, -312(%rbp)
	movl	(%r12), %r9d
	leaq	LJTI81_0(%rip), %rax
	movq	%rax, %rcx
	movslq	(%rax,%r9,4), %rax
	addq	%rcx, %rax
	jmpq	*%rax
LBB81_154:
	movl	$1, %r8d
	cmpl	$1, 8(%r12)
	je	LBB81_158
	jmp	LBB81_1086
LBB81_155:
	movl	$0, 8(%r12)
	xorl	%r8d, %r8d
	jmp	LBB81_158
LBB81_156:
	movl	$1, %r8d
	cmpl	$1, 8(%r12)
	je	LBB81_158
	jmp	LBB81_1088
LBB81_157:
	movl	$1, %r8d
	cmpl	$1, 8(%r12)
	jne	LBB81_1087
LBB81_158:
	leaq	48(%r12), %rax
	movl	(%rax), %ecx
	leaq	LJTI81_1(%rip), %rdx
	movslq	(%rdx,%rcx,4), %rcx
	addq	%rdx, %rcx
	jmpq	*%rcx
LBB81_159:
	cmpl	$1, 56(%r12)
	je	LBB81_163
	jmp	LBB81_1086
LBB81_160:
	movl	$0, 56(%r12)
	cmpl	$1, 104(%r12)
	je	LBB81_164
	jmp	LBB81_1088
LBB81_161:
	cmpl	$1, 56(%r12)
	je	LBB81_163
	jmp	LBB81_1088
LBB81_162:
	cmpl	$1, 56(%r12)
	jne	LBB81_1087
LBB81_163:
	cmpl	$1, 104(%r12)
	jne	LBB81_1088
LBB81_164:
	leaq	144(%r12), %rcx
	movq	$8, -368(%rbp)
	vxorps	%xmm0, %xmm0, %xmm0
	leaq	-364(%rbp), %rdx
	vmovups	%xmm0, 4(%rdx)
	movq	%r12, -240(%rbp)
	movq	$3, -232(%rbp)
	movq	%rcx, -216(%rbp)
	movq	%rax, -224(%rbp)
	movl	4(%r12), %edx
	movb	12(%r12), %r10b
	movb	15(%r12), %al
	movb	%al, -430(%rbp)
	movzwl	13(%r12), %eax
	movw	%ax, -432(%rbp)
	leaq	16(%r12), %rdi
	leaq	24(%r12), %rcx
	leaq	32(%r12), %rax
	leaq	40(%r12), %rsi
	.p2align	4, 0x90
LBB81_165:
	movq	(%rsi), %rsi
	movq	(%rax), %rax
	movq	(%rcx), %rcx
	movq	(%rdi), %rdi
	movl	%r9d, -144(%rbp)
	movl	%edx, -380(%rbp)
	movl	%edx, -140(%rbp)
	movl	%r8d, -136(%rbp)
	movb	%r10b, -132(%rbp)
	movzbl	-430(%rbp), %edx
	leaq	-100(%rbp), %rbx
	movb	%dl, -29(%rbx)
	movzwl	-432(%rbp), %edx
	movw	%dx, -31(%rbx)
	movq	%rdi, -128(%rbp)
	movq	%rcx, -120(%rbp)
	movq	%rax, -112(%rbp)
	movq	%rsi, -104(%rbp)
Ltmp191:
	movq	-504(%rbp), %rdi
	leaq	-144(%rbp), %rsi
	vzeroupper
	callq	__ZN11proc_macro28fallback11TokenStream10push_token17h293b1622b99a1b81E
Ltmp192:
	movq	-224(%rbp), %rsi
	movq	-216(%rbp), %r12
	cmpq	%r12, %rsi
	je	LBB81_169
	leaq	48(%rsi), %rbx
	movq	%rbx, -224(%rbp)
	movl	(%rsi), %r9d
	movl	4(%rsi), %edx
	movl	8(%rsi), %r8d
	movzbl	12(%rsi), %r10d
	movzbl	15(%rsi), %eax
	movb	%al, -430(%rbp)
	movzwl	13(%rsi), %eax
	movw	%ax, -432(%rbp)
	leaq	24(%rsi), %rcx
	leaq	32(%rsi), %rax
	leaq	16(%rsi), %rdi
	addq	$40, %rsi
	cmpl	$4, %r9d
	jne	LBB81_165
	movl	%edx, -380(%rbp)
	jmp	LBB81_170
LBB81_169:
	movq	%rsi, %r12
	movq	%rsi, %rbx
LBB81_170:
	leaq	-240(%rbp), %rax
	movq	%rax, -144(%rbp)
	.p2align	4, 0x90
LBB81_171:
	cmpq	%rbx, %r12
	je	LBB81_173
Ltmp197:
	movq	%rbx, %rdi
	addq	$48, %rbx
	callq	__ZN4core3ptr13drop_in_place17h1202f0d8a0ebc27dE
Ltmp198:
	jmp	LBB81_171
	.p2align	4, 0x90
LBB81_173:
	movq	-232(%rbp), %rax
	testq	%rax, %rax
	je	LBB81_176
	shlq	$4, %rax
	leaq	(%rax,%rax,2), %rsi
	testq	%rsi, %rsi
	je	LBB81_176
	movq	-240(%rbp), %rdi
	movl	$8, %edx
	callq	___rust_dealloc
LBB81_176:
	vmovaps	-368(%rbp), %xmm0
	movq	-352(%rbp), %rax
	movl	$1, -136(%rbp)
	vmovups	%xmm0, -128(%rbp)
	movq	%rax, -112(%rbp)
	movb	$2, -104(%rbp)
	movl	-240(%rbp), %eax
	movl	-237(%rbp), %ecx
	leaq	-100(%rbp), %rdx
	movl	%ecx, (%rdx)
	movl	%eax, -3(%rdx)
	movl	$0, -144(%rbp)
	cmpq	-280(%rbp), %r15
	jne	LBB81_179
Ltmp205:
	movl	$1, %esi
	leaq	-288(%rbp), %rdi
	callq	__ZN5alloc3vec12Vec$LT$T$GT$7reserve17hc0be6e8834886ea9E
Ltmp206:
	movq	-288(%rbp), %r14
	movq	-272(%rbp), %r15
LBB81_179:
	leaq	(%r15,%r15,2), %rax
	shlq	$4, %rax
	vmovups	-144(%rbp), %ymm0
	vmovups	-112(%rbp), %xmm1
	vmovups	%xmm1, 32(%r14,%rax)
	vmovups	%ymm0, (%r14,%rax)
	incq	%r15
	movq	%r15, -272(%rbp)
	jne	LBB81_181
	xorl	%eax, %eax
	cmpq	$0, -48(%rbp)
	jne	LBB81_189
	jmp	LBB81_246
LBB81_181:
	addq	$48, %rax
	xorl	%ecx, %ecx
	jmp	LBB81_184
	.p2align	4, 0x90
LBB81_182:
	movl	$0, 8(%r14,%rcx)
LBB81_183:
	addq	$48, %rcx
	cmpq	%rcx, %rax
	je	LBB81_188
LBB81_184:
	movl	(%r14,%rcx), %edx
	leaq	LJTI81_2(%rip), %rsi
	movslq	(%rsi,%rdx,4), %rdx
	addq	%rsi, %rdx
	jmpq	*%rdx
LBB81_185:
	cmpl	$1, 8(%r14,%rcx)
	je	LBB81_183
	jmp	LBB81_1089
	.p2align	4, 0x90
LBB81_186:
	cmpl	$1, 8(%r14,%rcx)
	je	LBB81_183
	jmp	LBB81_1090
	.p2align	4, 0x90
LBB81_187:
	cmpl	$1, 8(%r14,%rcx)
	je	LBB81_183
	jmp	LBB81_1091
LBB81_188:
	movq	-272(%rbp), %rax
	cmpq	$0, -48(%rbp)
	je	LBB81_246
LBB81_189:
	movq	-280(%rbp), %rcx
	shlq	$4, %rax
	leaq	(%rax,%rax,2), %r15
	leaq	(%r14,%r15), %rax
	movq	%r14, -144(%rbp)
	movq	%rcx, -136(%rbp)
	movq	%r14, -128(%rbp)
	movq	%rax, -120(%rbp)
	movq	%r15, %rbx
	sarq	$4, %rbx
	movabsq	$-6148914691236517205, %rax
	imulq	%rax, %rbx
Ltmp219:
	leaq	-192(%rbp), %rdi
	movq	%rbx, %rsi
	vzeroupper
	callq	__ZN5alloc3vec12Vec$LT$T$GT$7reserve17hc0be6e8834886ea9E
Ltmp220:
	movq	-176(%rbp), %r12
	leaq	(%r12,%r12,2), %rdi
	shlq	$4, %rdi
	addq	-192(%rbp), %rdi
	movq	%r14, %rsi
	movq	%r15, %rdx
	callq	_memcpy
	addq	%r12, %rbx
	movq	%rbx, -176(%rbp)
	movq	-120(%rbp), %rax
	movq	%rax, -128(%rbp)
	movq	-136(%rbp), %rax
	testq	%rax, %rax
	je	LBB81_193
	shlq	$4, %rax
	leaq	(%rax,%rax,2), %rsi
	testq	%rsi, %rsi
	je	LBB81_193
	movq	-144(%rbp), %rdi
	movl	$8, %edx
	callq	___rust_dealloc
LBB81_193:
	movl	$0, %r13d
	movq	-248(%rbp), %rdx
	testq	%rdx, %rdx
	jne	LBB81_4
	jmp	LBB81_207
LBB81_194:
	addq	$3, %rsi
	cmpq	$3, %r13
	jne	LBB81_196
	xorl	%edx, %edx
	jmp	LBB81_200
LBB81_196:
	movb	(%rsi), %al
	cmpb	$-65, %al
	jle	LBB81_1082
	leaq	l___unnamed_30(%rip), %rcx
	cmpq	%rcx, %rsi
	je	LBB81_246
	cmpb	$47, %al
	je	LBB81_246
	leaq	-3(%r13), %rdx
LBB81_200:
Ltmp120:
	leaq	-144(%rbp), %rdi
	vzeroupper
	callq	__ZN11proc_macro25parse25take_until_newline_or_eof17hb3ecfc0d155e3014E
Ltmp121:
	movq	-144(%rbp), %rax
	movq	%rax, -48(%rbp)
	movq	-136(%rbp), %rax
	movq	%rax, -248(%rbp)
	movq	-128(%rbp), %rsi
	movq	-120(%rbp), %rdx
LBB81_202:
	movb	$1, %al
	movl	%eax, -152(%rbp)
	jmp	LBB81_112
	.p2align	4, 0x90
LBB81_203:
	xorl	%r13d, %r13d
	jmp	LBB81_206
LBB81_205:
	movl	$1, %r13d
LBB81_206:
	movq	-56(%rbp), %rax
	movq	%rax, -48(%rbp)
LBB81_207:
	movq	-48(%rbp), %rax
	movq	%rax, -56(%rbp)
	testq	%r13, %r13
	jne	LBB81_208
	jmp	LBB81_1048
LBB81_246:
	movq	-56(%rbp), %rax
	movq	%rax, -48(%rbp)
	testq	%r13, %r13
	jne	LBB81_208
	jmp	LBB81_1048
LBB81_248:
	movq	%rsi, -48(%rbp)
	testq	%r13, %r13
	jne	LBB81_208
	jmp	LBB81_1048
	.p2align	4, 0x90
LBB81_204:
	xorl	%r13d, %r13d
	movq	-48(%rbp), %rax
	movq	%rax, -56(%rbp)
	testq	%r13, %r13
	je	LBB81_1048
LBB81_208:
	movq	-56(%rbp), %rax
	movb	(%rax), %cl
	leal	-91(%rcx), %eax
	cmpb	$34, %al
	ja	LBB81_211
	movzbl	%al, %eax
	leaq	LJTI81_3(%rip), %rcx
	movslq	(%rcx,%rax,4), %rax
	addq	%rcx, %rax
	jmpq	*%rax
LBB81_210:
	movb	$2, %al
	cmpq	$1, %r13
	je	LBB81_228
LBB81_227:
	movq	-56(%rbp), %rcx
	cmpb	$-65, 1(%rcx)
	jg	LBB81_228
	jmp	LBB81_1094
	.p2align	4, 0x90
LBB81_211:
	xorl	%eax, %eax
	cmpb	$40, %cl
	je	LBB81_226
	cmpb	$41, %cl
	jne	LBB81_249
	cmpq	$1, %r13
	je	LBB81_216
LBB81_214:
	movq	-56(%rbp), %rcx
	cmpb	$-65, 1(%rcx)
	jg	LBB81_216
	jmp	LBB81_1097
LBB81_215:
	movb	$2, %al
	cmpq	$1, %r13
	jne	LBB81_214
	.p2align	4, 0x90
LBB81_216:
	movq	-392(%rbp), %rsi
	movb	$4, %cl
	testq	%rsi, %rsi
	je	LBB81_219
	decq	%rsi
	movq	%rsi, -392(%rbp)
	movq	-408(%rbp), %rdi
	shlq	$5, %rsi
	movb	(%rdi,%rsi), %dl
	vmovups	1(%rdi,%rsi), %xmm0
	vmovaps	%xmm0, -144(%rbp)
	vmovups	16(%rdi,%rsi), %xmm0
	vmovups	%xmm0, -129(%rbp)
	cmpb	$4, %dl
	je	LBB81_219
	vmovups	-129(%rbp), %xmm0
	vmovups	%xmm0, -225(%rbp)
	vmovaps	-144(%rbp), %xmm0
	vmovaps	%xmm0, -240(%rbp)
	movl	%edx, %ecx
LBB81_219:
	vmovaps	-240(%rbp), %xmm0
	vmovaps	%xmm0, -368(%rbp)
	vmovups	-225(%rbp), %xmm0
	vmovups	%xmm0, -353(%rbp)
	cmpb	$4, %cl
	je	LBB81_1050
	vmovups	-353(%rbp), %xmm0
	vmovups	%xmm0, -273(%rbp)
	vmovaps	-368(%rbp), %xmm0
	vmovaps	%xmm0, -288(%rbp)
	leaq	-280(%rbp), %rdx
	movq	%rdx, %rsi
	movq	15(%rdx), %rdx
	movq	%rdx, -416(%rbp)
	vmovups	-1(%rsi), %xmm0
	vmovaps	%xmm0, -432(%rbp)
	cmpb	%al, %cl
	jne	LBB81_1051
	movq	-176(%rbp), %rcx
	movq	%rcx, -304(%rbp)
	vmovaps	-192(%rbp), %xmm0
	vmovaps	%xmm0, -320(%rbp)
	movb	%al, -296(%rbp)
	vmovaps	-432(%rbp), %xmm0
	vmovaps	%xmm0, -192(%rbp)
	movq	-416(%rbp), %rax
	vmovups	-320(%rbp), %xmm0
	leaq	-364(%rbp), %rcx
	vmovups	%xmm0, (%rcx)
	movq	%rax, -176(%rbp)
	movq	-304(%rbp), %rax
	movq	%rax, 16(%rcx)
	movb	-296(%rbp), %al
	movb	%al, 24(%rcx)
	movl	-295(%rbp), %eax
	movl	%eax, 25(%rcx)
	movzwl	-291(%rbp), %eax
	movw	%ax, 29(%rcx)
	movb	-289(%rbp), %al
	movb	%al, 31(%rcx)
	vmovups	-368(%rbp), %ymm0
	vmovups	%ymm0, -240(%rbp)
	movl	-336(%rbp), %eax
	movl	%eax, -208(%rbp)
	movl	$1, -136(%rbp)
	leaq	-100(%rbp), %rcx
	movl	%eax, (%rcx)
	vmovups	%ymm0, -32(%rcx)
	movl	$0, -144(%rbp)
	movq	-176(%rbp), %rcx
	cmpq	-184(%rbp), %rcx
	jne	LBB81_2
Ltmp235:
	movl	$1, %esi
	leaq	-192(%rbp), %rdi
	vzeroupper
	callq	__ZN5alloc3vec12Vec$LT$T$GT$7reserve17hc0be6e8834886ea9E
Ltmp236:
	movq	-176(%rbp), %rcx
LBB81_2:
	movq	-192(%rbp), %rax
	leaq	(%rcx,%rcx,2), %rdx
	shlq	$4, %rdx
	vmovups	-144(%rbp), %ymm0
	vmovups	-112(%rbp), %xmm1
	vmovups	%xmm1, 32(%rax,%rdx)
	vmovups	%ymm0, (%rax,%rdx)
	incq	%rcx
	movq	%rcx, -176(%rbp)
	jmp	LBB81_3
LBB81_224:
	movb	$1, %al
	cmpq	$1, %r13
	jne	LBB81_214
	jmp	LBB81_216
LBB81_225:
	movb	$1, %al
LBB81_226:
	cmpq	$1, %r13
	jne	LBB81_227
LBB81_228:
	movq	-176(%rbp), %rcx
	leaq	-224(%rbp), %rdx
	movq	%rcx, 7(%rdx)
	vmovaps	-192(%rbp), %xmm0
	vmovups	%xmm0, -9(%rdx)
	movb	%al, -144(%rbp)
	vmovups	-225(%rbp), %xmm0
	leaq	-100(%rbp), %rax
	vmovups	%xmm0, -28(%rax)
	vmovups	-240(%rbp), %xmm0
	vmovups	%xmm0, -43(%rax)
	movq	-392(%rbp), %rbx
	cmpq	-400(%rbp), %rbx
	jne	LBB81_237
	movq	%rbx, %rax
	incq	%rax
	je	LBB81_1093
	leaq	(%rbx,%rbx), %rcx
	cmpq	%rax, %rcx
	cmovaq	%rcx, %rax
	xorl	%esi, %esi
	movl	$32, %ecx
	mulq	%rcx
	movq	%rax, %r14
	seto	%dl
	setno	%cl
	movq	%rbx, %rax
	testq	%rbx, %rbx
	je	LBB81_232
	movq	-408(%rbp), %rax
LBB81_232:
	testb	%dl, %dl
	jne	LBB81_1093
	testq	%rax, %rax
	je	LBB81_238
	movq	%rbx, %rsi
	shlq	$5, %rsi
	cmpq	%r14, %rsi
	je	LBB81_243
	testq	%rsi, %rsi
	je	LBB81_240
	movl	$8, %edx
	movq	%rax, %rdi
	movq	%r14, %rcx
	vzeroupper
	callq	___rust_realloc
	testq	%rax, %rax
	jne	LBB81_244
	jmp	LBB81_1095
	.p2align	4, 0x90
LBB81_237:
	movq	-408(%rbp), %rax
	jmp	LBB81_245
LBB81_238:
	movb	%cl, %sil
	shlq	$3, %rsi
	testq	%r14, %r14
	jne	LBB81_242
	movq	%rsi, %rax
	testq	%rax, %rax
	jne	LBB81_244
	jmp	LBB81_1095
LBB81_240:
	testq	%r14, %r14
	je	LBB81_247
	movl	$8, %esi
LBB81_242:
	movq	%r14, %rdi
	vzeroupper
	callq	___rust_alloc
LBB81_243:
	testq	%rax, %rax
	je	LBB81_1095
LBB81_244:
	movq	%rax, -408(%rbp)
	shrq	$5, %r14
	movq	%r14, -400(%rbp)
LBB81_245:
	movq	%rbx, %rcx
	shlq	$5, %rcx
	vmovups	-144(%rbp), %ymm0
	vmovups	%ymm0, (%rax,%rcx)
	incq	%rbx
	movq	%rbx, -392(%rbp)
	movq	$8, -192(%rbp)
	vxorps	%xmm0, %xmm0, %xmm0
	leaq	-184(%rbp), %rax
	vmovups	%xmm0, (%rax)
LBB81_3:
	movq	-56(%rbp), %rax
	incq	%rax
	decq	%r13
	movq	%r13, %rdx
	movq	%rax, -48(%rbp)
	testq	%rdx, %rdx
	jne	LBB81_4
	jmp	LBB81_204
LBB81_247:
	movl	$8, %eax
	jmp	LBB81_244
	.p2align	4, 0x90
LBB81_249:
	leaq	l___unnamed_31(%rip), %rax
	movq	-48(%rbp), %rdx
	cmpq	%rax, %rdx
	je	LBB81_251
	movb	(%rdx), %al
	cmpb	$34, %al
	jne	LBB81_432
LBB81_251:
	cmpq	$1, %r13
	je	LBB81_253
	movq	-48(%rbp), %rax
	cmpb	$-65, 1(%rax)
	jle	LBB81_1098
LBB81_253:
	movq	-48(%rbp), %rax
	leaq	1(%rax), %rdx
	leaq	-1(%r13), %rcx
	movq	%rcx, -152(%rbp)
	addq	%r13, %rax
	movq	%rax, -72(%rbp)
	movl	$1114113, %r14d
	movl	$0, %eax
	movq	%rax, -64(%rbp)
	movq	%rdx, %r12
	xorl	%esi, %esi
	movq	%rdx, -248(%rbp)
	movq	%rdx, %r11
	cmpl	$1114113, %r14d
	je	LBB81_257
	jmp	LBB81_347
	.p2align	4, 0x90
LBB81_254:
	cmpl	$92, %r14d
	je	LBB81_265
	movq	%rax, -64(%rbp)
	movq	%rdi, %rsi
	cmpl	$1114112, %r14d
	movl	$1114113, %r14d
	je	LBB81_447
LBB81_256:
	cmpl	$1114113, %r14d
	jne	LBB81_347
LBB81_257:
	cmpq	%r11, -72(%rbp)
	je	LBB81_447
	leaq	1(%r11), %r12
	movzbl	(%r11), %r14d
	testb	%r14b, %r14b
	jns	LBB81_282
	movq	-72(%rbp), %rbx
	cmpq	%rbx, %r12
	je	LBB81_273
	leaq	2(%r11), %r12
	movzbl	1(%r11), %ecx
	andl	$63, %ecx
	movq	%r12, %rbx
	movl	%r14d, %edi
	andl	$31, %edi
	cmpb	$-33, %r14b
	jbe	LBB81_274
LBB81_261:
	movq	-72(%rbp), %rdx
	cmpq	%rdx, %rbx
	je	LBB81_275
	movzbl	(%rbx), %eax
	incq	%rbx
	andl	$63, %eax
	movq	%rbx, %r12
	shll	$6, %ecx
	orl	%eax, %ecx
	cmpb	$-16, %r14b
	jb	LBB81_276
LBB81_263:
	cmpq	-72(%rbp), %rbx
	je	LBB81_280
	movzbl	(%rbx), %eax
	incq	%rbx
	andl	$63, %eax
	movq	%rbx, %r12
	jmp	LBB81_281
	.p2align	4, 0x90
LBB81_265:
	cmpq	%r12, -72(%rbp)
	je	LBB81_447
	leaq	1(%r12), %r11
	movzbl	(%r12), %ecx
	testb	%cl, %cl
	jns	LBB81_303
	movq	-72(%rbp), %r10
	cmpq	%r10, %r11
	je	LBB81_278
	leaq	2(%r12), %r11
	movzbl	1(%r12), %esi
	andl	$63, %esi
	movq	%r11, %rax
	movl	%ecx, %ebx
	andl	$31, %ebx
	cmpb	$-33, %cl
	jbe	LBB81_279
LBB81_269:
	cmpq	%r10, %rax
	je	LBB81_295
	movzbl	(%rax), %r8d
	incq	%rax
	andl	$63, %r8d
	movq	%rax, %r11
	shll	$6, %esi
	orl	%r8d, %esi
	cmpb	$-16, %cl
	jb	LBB81_296
LBB81_271:
	cmpq	%r10, %rax
	je	LBB81_301
	movzbl	(%rax), %ecx
	incq	%rax
	andl	$63, %ecx
	movq	%rax, %r11
	jmp	LBB81_302
LBB81_273:
	xorl	%ecx, %ecx
	movl	%r14d, %edi
	andl	$31, %edi
	cmpb	$-33, %r14b
	ja	LBB81_261
LBB81_274:
	shll	$6, %edi
	jmp	LBB81_277
LBB81_275:
	xorl	%eax, %eax
	movq	%rdx, %rbx
	shll	$6, %ecx
	orl	%eax, %ecx
	cmpb	$-16, %r14b
	jae	LBB81_263
LBB81_276:
	shll	$12, %edi
LBB81_277:
	orl	%edi, %ecx
	movl	%ecx, %r14d
	jmp	LBB81_282
LBB81_278:
	xorl	%esi, %esi
	movq	%r10, %rax
	movl	%ecx, %ebx
	andl	$31, %ebx
	cmpb	$-33, %cl
	ja	LBB81_269
LBB81_279:
	shll	$6, %ebx
	jmp	LBB81_297
LBB81_280:
	xorl	%eax, %eax
LBB81_281:
	andl	$7, %edi
	shll	$18, %edi
	shll	$6, %ecx
	orl	%edi, %ecx
	orl	%eax, %ecx
	movl	%ecx, %r14d
	cmpl	$1114112, %ecx
	je	LBB81_447
	.p2align	4, 0x90
LBB81_282:
	movq	%r12, %rax
	subq	%r11, %rax
	addq	%rsi, %rax
	movq	%rax, %rdi
	movq	%r12, %r11
	cmpl	$91, %r14d
	jg	LBB81_254
LBB81_283:
	movq	%rax, -64(%rbp)
	cmpl	$13, %r14d
	je	LBB81_285
	movq	%rsi, %rcx
	movq	%rdi, %rsi
	cmpl	$34, %r14d
	movl	$1114113, %r14d
	jne	LBB81_256
	jmp	LBB81_439
	.p2align	4, 0x90
LBB81_285:
	cmpq	%r12, -72(%rbp)
	je	LBB81_447
	leaq	1(%r12), %r11
	movzbl	(%r12), %edi
	testb	%dil, %dil
	jns	LBB81_350
	movq	-72(%rbp), %rax
	cmpq	%rax, %r11
	je	LBB81_293
	leaq	2(%r12), %r11
	movzbl	1(%r12), %ecx
	andl	$63, %ecx
	movq	%r11, %rbx
	movl	%edi, %esi
	andl	$31, %esi
	cmpb	$-33, %dil
	jbe	LBB81_294
LBB81_289:
	cmpq	%rax, %rbx
	je	LBB81_298
	movzbl	(%rbx), %r8d
	incq	%rbx
	andl	$63, %r8d
	movq	%rbx, %r11
	shll	$6, %ecx
	orl	%r8d, %ecx
	cmpb	$-16, %dil
	jb	LBB81_299
LBB81_291:
	cmpq	%rax, %rbx
	je	LBB81_348
	movzbl	(%rbx), %eax
	incq	%rbx
	andl	$63, %eax
	movq	%rbx, %r11
	jmp	LBB81_349
LBB81_293:
	xorl	%ecx, %ecx
	movq	%rax, %rbx
	movl	%edi, %esi
	andl	$31, %esi
	cmpb	$-33, %dil
	ja	LBB81_289
LBB81_294:
	shll	$6, %esi
	jmp	LBB81_300
LBB81_295:
	xorl	%r8d, %r8d
	movq	%r10, %rax
	shll	$6, %esi
	orl	%r8d, %esi
	cmpb	$-16, %cl
	jae	LBB81_271
LBB81_296:
	shll	$12, %ebx
LBB81_297:
	orl	%ebx, %esi
	movl	%esi, %ecx
	jmp	LBB81_303
LBB81_298:
	xorl	%r8d, %r8d
	movq	%rax, %rbx
	shll	$6, %ecx
	orl	%r8d, %ecx
	cmpb	$-16, %dil
	jae	LBB81_291
LBB81_299:
	shll	$12, %esi
LBB81_300:
	orl	%esi, %ecx
	movl	%ecx, %edi
	jmp	LBB81_350
LBB81_301:
	xorl	%ecx, %ecx
LBB81_302:
	andl	$7, %ebx
	shll	$18, %ebx
	shll	$6, %esi
	orl	%ebx, %esi
	orl	%ecx, %esi
	movl	%esi, %ecx
	cmpl	$1114112, %esi
	je	LBB81_447
	.p2align	4, 0x90
LBB81_303:
	movq	%r11, %rdx
	subq	%r12, %rdx
	addq	%rdi, %rdx
	leal	-92(%rcx), %eax
	cmpl	$28, %eax
	movq	%rdx, -64(%rbp)
	ja	LBB81_313
	movl	$21233665, %esi
	btl	%eax, %esi
	movq	%r11, %r12
	movq	%rdx, %rsi
	movl	$1114113, %r14d
	jb	LBB81_256
	cmpl	$25, %eax
	je	LBB81_340
	cmpl	$28, %eax
	jne	LBB81_313
	cmpq	%r11, -72(%rbp)
	je	LBB81_447
	leaq	1(%r11), %rcx
	movzbl	(%r11), %edi
	testb	%dil, %dil
	js	LBB81_309
LBB81_368:
	cmpq	%rcx, -72(%rbp)
	je	LBB81_447
LBB81_369:
	cmpl	$1114112, %edi
	je	LBB81_447
	andl	$-8, %edi
	cmpl	$48, %edi
	jne	LBB81_447
	leaq	1(%rcx), %r12
	movzbl	(%rcx), %edi
	testb	%dil, %dil
	jns	LBB81_401
	movq	-72(%rbp), %rax
	cmpq	%rax, %r12
	je	LBB81_376
	movzbl	1(%rcx), %esi
	addq	$2, %rcx
	andl	$63, %esi
	movq	%rcx, %r12
	movl	%edi, %ebx
	andl	$31, %ebx
	cmpb	$-33, %dil
	jbe	LBB81_377
LBB81_374:
	cmpq	%rax, %rcx
	je	LBB81_378
	movzbl	(%rcx), %r8d
	incq	%rcx
	andl	$63, %r8d
	movq	%rcx, %r12
	shll	$6, %esi
	orl	%r8d, %esi
	cmpb	$-16, %dil
	jb	LBB81_381
LBB81_379:
	cmpq	%rax, %rcx
	je	LBB81_399
	movzbl	(%rcx), %eax
	incq	%rcx
	andl	$63, %eax
	movq	%rcx, %r12
	jmp	LBB81_400
LBB81_313:
	cmpl	$48, %ecx
	ja	LBB81_447
	movl	%ecx, %eax
	movl	$9216, %ecx
	btq	%rax, %rcx
	jae	LBB81_339
	movl	$1114112, %r14d
	movq	%r11, %r12
	movq	-64(%rbp), %rsi
	cmpq	%r11, -72(%rbp)
	je	LBB81_256
	movq	%r11, %r12
	jmp	LBB81_318
	.p2align	4, 0x90
LBB81_317:
	movq	%r15, %r9
	cmpq	%r12, -72(%rbp)
	je	LBB81_346
LBB81_318:
	movq	%r12, %rcx
	movq	-64(%rbp), %rax
	movq	%rax, %r15
	leaq	1(%r12), %rax
	movzbl	(%r12), %ebx
	testb	%bl, %bl
	js	LBB81_320
	movq	%rax, %r12
	jmp	LBB81_333
	.p2align	4, 0x90
LBB81_320:
	movq	-72(%rbp), %rsi
	cmpq	%rsi, %rax
	je	LBB81_326
	movzbl	1(%r12), %edx
	addq	$2, %r12
	andl	$63, %edx
	movq	%r12, %rax
	movl	%ebx, %esi
	andl	$31, %esi
	cmpb	$-33, %bl
	jbe	LBB81_327
LBB81_322:
	movq	-72(%rbp), %rdi
	cmpq	%rdi, %rax
	je	LBB81_328
	movzbl	(%rax), %r8d
	incq	%rax
	andl	$63, %r8d
	movq	%rax, %r12
	shll	$6, %edx
	orl	%r8d, %edx
	cmpb	$-16, %bl
	jb	LBB81_329
LBB81_324:
	cmpq	-72(%rbp), %rax
	je	LBB81_331
	movzbl	(%rax), %edi
	incq	%rax
	andl	$63, %edi
	movq	%rax, %r12
	jmp	LBB81_332
LBB81_326:
	xorl	%edx, %edx
	movq	%rax, %r12
	movq	%rsi, %rax
	movl	%ebx, %esi
	andl	$31, %esi
	cmpb	$-33, %bl
	ja	LBB81_322
LBB81_327:
	shll	$6, %esi
	jmp	LBB81_330
LBB81_328:
	xorl	%r8d, %r8d
	movq	%rdi, %rax
	shll	$6, %edx
	orl	%r8d, %edx
	cmpb	$-16, %bl
	jae	LBB81_324
LBB81_329:
	shll	$12, %esi
LBB81_330:
	orl	%esi, %edx
	movl	%edx, %ebx
	jmp	LBB81_333
LBB81_331:
	xorl	%edi, %edi
LBB81_332:
	andl	$7, %esi
	shll	$18, %esi
	shll	$6, %edx
	orl	%esi, %edx
	movl	%edx, %ebx
	orl	%edi, %ebx
	cmpl	$1114112, %ebx
	je	LBB81_355
	.p2align	4, 0x90
LBB81_333:
	movq	%r12, %rax
	subq	%rcx, %rax
	addq	%r15, %rax
	movq	%rax, -64(%rbp)
	leal	-9(%rbx), %eax
	cmpl	$5, %eax
	jb	LBB81_317
	cmpl	$32, %ebx
	je	LBB81_317
	cmpl	$128, %ebx
	jb	LBB81_338
Ltmp254:
	movl	%ebx, %edi
	vzeroupper
	callq	__ZN4core7unicode12unicode_data11white_space6lookup17ha71f6b36a0478eccE
Ltmp255:
	testb	%al, %al
	jne	LBB81_317
LBB81_338:
	movq	-64(%rbp), %rsi
	movq	%r12, %r11
	movq	%r15, %r9
	movl	%ebx, %r14d
	cmpl	$1114113, %r14d
	je	LBB81_257
	jmp	LBB81_347
LBB81_339:
	movabsq	$282041912393728, %rcx
	btq	%rax, %rcx
	movq	%r11, %r12
	movq	-64(%rbp), %rsi
	movl	$1114113, %r14d
	jb	LBB81_256
	jmp	LBB81_447
LBB81_340:
	cmpq	%r11, -72(%rbp)
	je	LBB81_447
	leaq	1(%r11), %rsi
	movzbl	(%r11), %edi
	testb	%dil, %dil
	js	LBB81_342
LBB81_385:
	cmpq	%rsi, -72(%rbp)
	je	LBB81_447
LBB81_386:
	cmpl	$123, %edi
	jne	LBB81_447
	leaq	1(%rsi), %rcx
	movzbl	(%rsi), %ebx
	testb	%bl, %bl
	js	LBB81_388
LBB81_406:
	leal	-48(%rbx), %eax
	cmpl	$10, %eax
	jb	LBB81_409
LBB81_407:
	addl	$-65, %ebx
	cmpl	$37, %ebx
	ja	LBB81_447
	movabsq	$270582939711, %rax
	btq	%rbx, %rax
	jb	LBB81_409
	jmp	LBB81_447
LBB81_346:
	movq	-64(%rbp), %rsi
	movq	%r12, %r11
	movq	%r15, %r9
	cmpl	$1114113, %r14d
	je	LBB81_257
	.p2align	4, 0x90
LBB81_347:
	movq	%rsi, %rdi
	movq	%r9, %rsi
	movq	-64(%rbp), %rax
	cmpl	$91, %r14d
	jg	LBB81_254
	jmp	LBB81_283
LBB81_309:
	movq	-72(%rbp), %rax
	cmpq	%rax, %rcx
	je	LBB81_351
	leaq	2(%r11), %rcx
	movzbl	1(%r11), %esi
	andl	$63, %esi
	movl	%edi, %ebx
	andl	$31, %ebx
	cmpb	$-33, %dil
	jbe	LBB81_352
LBB81_311:
	cmpq	%rax, %rcx
	je	LBB81_356
	movzbl	(%rcx), %r8d
	incq	%rcx
	andl	$63, %r8d
	shll	$6, %esi
	orl	%r8d, %esi
	cmpb	$-16, %dil
	jb	LBB81_359
LBB81_357:
	cmpq	%rax, %rcx
	je	LBB81_366
	movzbl	(%rcx), %edi
	incq	%rcx
	andl	$63, %edi
	jmp	LBB81_367
LBB81_342:
	movq	-72(%rbp), %rax
	cmpq	%rax, %rsi
	je	LBB81_353
	leaq	2(%r11), %rsi
	movzbl	1(%r11), %ecx
	andl	$63, %ecx
	movl	%edi, %ebx
	andl	$31, %ebx
	cmpb	$-33, %dil
	jbe	LBB81_354
LBB81_344:
	cmpq	%rax, %rsi
	je	LBB81_361
	movzbl	(%rsi), %r8d
	incq	%rsi
	andl	$63, %r8d
	shll	$6, %ecx
	orl	%r8d, %ecx
	cmpb	$-16, %dil
	jb	LBB81_364
LBB81_362:
	cmpq	%rax, %rsi
	je	LBB81_383
	movzbl	(%rsi), %edi
	incq	%rsi
	andl	$63, %edi
	jmp	LBB81_384
LBB81_388:
	movq	-72(%rbp), %rax
	cmpq	%rax, %rcx
	je	LBB81_392
	movzbl	1(%rsi), %edi
	addq	$2, %rsi
	andl	$63, %edi
	movq	%rsi, %rcx
	movl	%ebx, %r8d
	andl	$31, %r8d
	cmpb	$-33, %bl
	jbe	LBB81_393
LBB81_390:
	cmpq	%rax, %rsi
	je	LBB81_394
	movzbl	(%rsi), %r10d
	incq	%rsi
	andl	$63, %r10d
	movq	%rsi, %rcx
	shll	$6, %edi
	orl	%r10d, %edi
	cmpb	$-16, %bl
	jb	LBB81_397
LBB81_395:
	cmpq	%rax, %rsi
	je	LBB81_404
	movzbl	(%rsi), %eax
	incq	%rsi
	andl	$63, %eax
	movq	%rsi, %rcx
	jmp	LBB81_405
LBB81_348:
	xorl	%eax, %eax
LBB81_349:
	andl	$7, %esi
	shll	$18, %esi
	shll	$6, %ecx
	orl	%esi, %ecx
	orl	%eax, %ecx
	movl	%ecx, %edi
	cmpl	$1114112, %ecx
	je	LBB81_447
	.p2align	4, 0x90
LBB81_350:
	movq	%r11, %rax
	subq	%r12, %rax
	movq	-64(%rbp), %rcx
	movq	%rcx, %rsi
	addq	%rax, %rsi
	movq	%r11, %r12
	movq	%rsi, %rax
	movq	%rsi, -64(%rbp)
	movl	$1114113, %r14d
	cmpl	$10, %edi
	je	LBB81_256
	jmp	LBB81_447
LBB81_351:
	xorl	%esi, %esi
	movq	%rax, %rcx
	movl	%edi, %ebx
	andl	$31, %ebx
	cmpb	$-33, %dil
	ja	LBB81_311
LBB81_352:
	shll	$6, %ebx
	jmp	LBB81_360
LBB81_353:
	xorl	%ecx, %ecx
	movq	%rax, %rsi
	movl	%edi, %ebx
	andl	$31, %ebx
	cmpb	$-33, %dil
	ja	LBB81_344
LBB81_354:
	shll	$6, %ebx
	jmp	LBB81_365
LBB81_376:
	xorl	%esi, %esi
	movq	%rax, %rcx
	movl	%edi, %ebx
	andl	$31, %ebx
	cmpb	$-33, %dil
	ja	LBB81_374
LBB81_377:
	shll	$6, %ebx
	jmp	LBB81_382
LBB81_392:
	xorl	%edi, %edi
	movq	%rax, %rsi
	movl	%ebx, %r8d
	andl	$31, %r8d
	cmpb	$-33, %bl
	ja	LBB81_390
LBB81_393:
	shll	$6, %r8d
	jmp	LBB81_398
LBB81_355:
	movq	%r15, %rax
	movq	%r15, -64(%rbp)
	movq	%r15, %rsi
	movq	%r12, %r11
	cmpl	$1114113, %r14d
	je	LBB81_257
	jmp	LBB81_347
LBB81_356:
	xorl	%r8d, %r8d
	movq	%rax, %rcx
	shll	$6, %esi
	orl	%r8d, %esi
	cmpb	$-16, %dil
	jae	LBB81_357
LBB81_359:
	shll	$12, %ebx
LBB81_360:
	orl	%ebx, %esi
	movl	%esi, %edi
	cmpq	%rcx, -72(%rbp)
	jne	LBB81_369
	jmp	LBB81_447
LBB81_361:
	xorl	%r8d, %r8d
	movq	%rax, %rsi
	shll	$6, %ecx
	orl	%r8d, %ecx
	cmpb	$-16, %dil
	jae	LBB81_362
LBB81_364:
	shll	$12, %ebx
LBB81_365:
	orl	%ebx, %ecx
	movl	%ecx, %edi
	cmpq	%rsi, -72(%rbp)
	jne	LBB81_386
	jmp	LBB81_447
LBB81_378:
	xorl	%r8d, %r8d
	movq	%rax, %rcx
	shll	$6, %esi
	orl	%r8d, %esi
	cmpb	$-16, %dil
	jae	LBB81_379
LBB81_381:
	shll	$12, %ebx
LBB81_382:
	orl	%ebx, %esi
	movl	%esi, %edi
	jmp	LBB81_401
LBB81_394:
	xorl	%r10d, %r10d
	movq	%rax, %rsi
	shll	$6, %edi
	orl	%r10d, %edi
	cmpb	$-16, %bl
	jae	LBB81_395
LBB81_397:
	shll	$12, %r8d
LBB81_398:
	orl	%r8d, %edi
	movl	%edi, %ebx
	leal	-48(%rbx), %eax
	cmpl	$10, %eax
	jae	LBB81_407
LBB81_409:
	cmpq	%rcx, -72(%rbp)
	je	LBB81_447
	movq	-64(%rbp), %rax
	subq	%r11, %rax
	addq	%rcx, %rax
	movq	%rax, -64(%rbp)
	movq	%rcx, %r12
	leaq	1(%r12), %rax
	movzbl	(%r12), %esi
	testb	%sil, %sil
	jns	LBB81_413
	jmp	LBB81_414
	.p2align	4, 0x90
LBB81_411:
	movq	%r12, %rcx
	cmpq	%r12, -72(%rbp)
	je	LBB81_447
	leaq	1(%r12), %rax
	movzbl	(%r12), %esi
	testb	%sil, %sil
	js	LBB81_414
LBB81_413:
	movq	%rax, %r12
	jmp	LBB81_427
	.p2align	4, 0x90
LBB81_414:
	movq	-72(%rbp), %rbx
	cmpq	%rbx, %rax
	je	LBB81_420
	movzbl	1(%r12), %edx
	addq	$2, %r12
	andl	$63, %edx
	movq	%r12, %rax
	movl	%esi, %edi
	andl	$31, %edi
	cmpb	$-33, %sil
	jbe	LBB81_421
LBB81_416:
	cmpq	%rbx, %rax
	je	LBB81_422
	movzbl	(%rax), %r8d
	incq	%rax
	andl	$63, %r8d
	movq	%rax, %r12
	shll	$6, %edx
	orl	%r8d, %edx
	cmpb	$-16, %sil
	jb	LBB81_423
LBB81_418:
	cmpq	%rbx, %rax
	je	LBB81_425
	movzbl	(%rax), %esi
	incq	%rax
	andl	$63, %esi
	movq	%rax, %r12
	jmp	LBB81_426
LBB81_420:
	xorl	%edx, %edx
	movq	%rax, %r12
	movq	%rbx, %rax
	movl	%esi, %edi
	andl	$31, %edi
	cmpb	$-33, %sil
	ja	LBB81_416
LBB81_421:
	shll	$6, %edi
	jmp	LBB81_424
LBB81_422:
	xorl	%r8d, %r8d
	movq	%rbx, %rax
	shll	$6, %edx
	orl	%r8d, %edx
	cmpb	$-16, %sil
	jae	LBB81_418
LBB81_423:
	shll	$12, %edi
LBB81_424:
	orl	%edi, %edx
	movl	%edx, %esi
	jmp	LBB81_427
LBB81_425:
	xorl	%esi, %esi
LBB81_426:
	andl	$7, %edi
	shll	$18, %edi
	shll	$6, %edx
	orl	%edi, %edx
	orl	%esi, %edx
	movl	%edx, %esi
	cmpl	$1114112, %edx
	je	LBB81_447
	.p2align	4, 0x90
LBB81_427:
	movq	%r12, %rax
	subq	%rcx, %rax
	addq	%rax, -64(%rbp)
	leal	-48(%rsi), %eax
	cmpl	$10, %eax
	jb	LBB81_411
	addl	$-65, %esi
	cmpl	$60, %esi
	ja	LBB81_447
	movabsq	$271656681535, %rax
	btq	%rsi, %rax
	jb	LBB81_411
	cmpq	$60, %rsi
	jne	LBB81_447
	movq	-64(%rbp), %rsi
	movq	%r12, %r11
	movl	$1114113, %r14d
	cmpl	$1114113, %r14d
	je	LBB81_257
	jmp	LBB81_347
LBB81_366:
	xorl	%edi, %edi
	movq	%rax, %rcx
LBB81_367:
	andl	$7, %ebx
	shll	$18, %ebx
	shll	$6, %esi
	orl	%ebx, %esi
	orl	%edi, %esi
	movl	%esi, %edi
	cmpl	$1114112, %esi
	jne	LBB81_368
	jmp	LBB81_447
LBB81_383:
	xorl	%edi, %edi
	movq	%rax, %rsi
LBB81_384:
	andl	$7, %ebx
	shll	$18, %ebx
	shll	$6, %ecx
	orl	%ebx, %ecx
	orl	%edi, %ecx
	movl	%ecx, %edi
	cmpl	$1114112, %ecx
	jne	LBB81_385
	jmp	LBB81_447
LBB81_399:
	xorl	%eax, %eax
LBB81_400:
	andl	$7, %ebx
	shll	$18, %ebx
	shll	$6, %esi
	orl	%ebx, %esi
	orl	%eax, %esi
	movl	%esi, %edi
	cmpl	$1114112, %esi
	je	LBB81_447
LBB81_401:
	movq	-64(%rbp), %rax
	movq	%rax, %rsi
	subq	%r11, %rsi
	addq	%r12, %rsi
	leal	-48(%rdi), %eax
	movq	%rsi, %rcx
	movq	%rsi, -64(%rbp)
	movq	%r12, %r11
	movl	$1114113, %r14d
	cmpl	$10, %eax
	jb	LBB81_256
	addl	$-65, %edi
	cmpl	$37, %edi
	ja	LBB81_447
	movabsq	$270582939711, %rax
	btq	%rdi, %rax
	movq	-64(%rbp), %rsi
	movq	%r12, %r11
	movl	$1114113, %r14d
	jb	LBB81_256
	jmp	LBB81_447
LBB81_404:
	xorl	%eax, %eax
LBB81_405:
	andl	$7, %r8d
	shll	$18, %r8d
	shll	$6, %edi
	orl	%r8d, %edi
	orl	%eax, %edi
	movl	%edi, %ebx
	cmpl	$1114112, %edi
	jne	LBB81_406
	jmp	LBB81_447
LBB81_432:
	leaq	l___unnamed_32(%rip), %rcx
	cmpq	%rcx, %rdx
	je	LBB81_434
	cmpb	$114, %al
	jne	LBB81_447
LBB81_434:
	cmpq	$1, %r13
	je	LBB81_436
	movq	-48(%rbp), %rax
	cmpb	$-65, 1(%rax)
	jle	LBB81_1099
LBB81_436:
	movq	-48(%rbp), %rax
	leaq	1(%rax), %rdi
	leaq	-1(%r13), %rsi
Ltmp250:
	vzeroupper
	callq	__ZN11proc_macro25parse10raw_string17h05a11cf12e7c89f0E
Ltmp251:
	testq	%rax, %rax
	je	LBB81_447
LBB81_438:
	movq	%rax, %r12
	movq	%rdx, %rbx
	movq	%r13, %rdx
	subq	%rbx, %rdx
	jae	LBB81_880
	jmp	LBB81_1133
LBB81_439:
	incq	%rcx
	je	LBB81_1100
	testq	%rcx, %rcx
	movq	-248(%rbp), %r12
	movq	-152(%rbp), %rdx
	je	LBB81_444
	cmpq	%rcx, %rdx
	je	LBB81_444
	jbe	LBB81_1101
	cmpb	$-65, (%r12,%rcx)
	jle	LBB81_1101
LBB81_444:
	addq	%rcx, %r12
	subq	%rcx, %rdx
Ltmp259:
	leaq	-144(%rbp), %rdi
	movq	%r12, %rsi
	movq	%rdx, %rbx
	vzeroupper
	callq	__ZN11proc_macro25parse13ident_not_raw17h1f6f0b47a9be1208E
Ltmp260:
	movq	-144(%rbp), %rax
	testq	%rax, %rax
	je	LBB81_879
	movq	-136(%rbp), %rdx
	testq	%rax, %rax
	jne	LBB81_438
	.p2align	4, 0x90
LBB81_447:
	movb	$1, %r10b
	cmpq	$2, %r13
	jae	LBB81_456
LBB81_448:
	leaq	l___unnamed_33(%rip), %rax
	cmpq	%rax, -48(%rbp)
	je	LBB81_594
LBB81_449:
	cmpq	$1, %r13
	je	LBB81_543
LBB81_450:
	movq	-48(%rbp), %rsi
	cmpb	$39, (%rsi)
	jne	LBB81_595
LBB81_451:
	movzbl	1(%rsi), %edx
	cmpb	$-65, %dl
	jle	LBB81_1102
	leaq	(%rsi,%r13), %r11
	movq	%rsi, -48(%rbp)
	leaq	2(%rsi), %rax
	testb	%dl, %dl
	jns	LBB81_567
	cmpq	$2, %r13
	jne	LBB81_526
	xorl	%ecx, %ecx
	movq	%r11, %rdi
	movl	%edx, %esi
	andl	$31, %esi
	cmpb	$-33, %dl
	ja	LBB81_527
LBB81_455:
	shll	$6, %esi
	jmp	LBB81_566
LBB81_456:
	leaq	l___unnamed_34(%rip), %rax
	movq	-48(%rbp), %rcx
	cmpq	%rax, %rcx
	je	LBB81_465
	movzwl	(%rcx), %eax
	cmpl	$8802, %eax
	je	LBB81_465
	leaq	l___unnamed_35(%rip), %rax
	cmpq	%rax, %rcx
	je	LBB81_460
	movq	-48(%rbp), %rax
	movzwl	(%rax), %eax
	cmpl	$29282, %eax
	jne	LBB81_538
LBB81_460:
	cmpq	$2, %r13
	je	LBB81_462
	movq	-48(%rbp), %rax
	cmpb	$-65, 2(%rax)
	jle	LBB81_1103
LBB81_462:
	movq	-48(%rbp), %rax
	leaq	2(%rax), %rdi
	leaq	-2(%r13), %rsi
Ltmp265:
	vzeroupper
	callq	__ZN11proc_macro25parse10raw_string17h05a11cf12e7c89f0E
Ltmp266:
	movq	%rax, %r12
	movq	%rdx, %rbx
LBB81_464:
	testq	%r12, %r12
	jne	LBB81_879
	jmp	LBB81_538
LBB81_465:
	cmpq	$2, %r13
	je	LBB81_538
	movq	-48(%rbp), %rax
	cmpb	$-65, 2(%rax)
	jle	LBB81_1104
	leaq	2(%rax), %r12
	leaq	-2(%r13), %rcx
	movq	%rcx, -152(%rbp)
	leaq	(%rax,%r13), %rsi
LBB81_468:
	movq	%r12, %rcx
	xorl	%ebx, %ebx
	incq	%rbx
	jne	LBB81_473
	jmp	LBB81_1105
LBB81_469:
	movzbl	%al, %eax
	movl	$21233665, %edi
	btq	%rax, %rdi
	jae	LBB81_485
LBB81_470:
	addq	$2, %rcx
LBB81_471:
	cmpq	%rsi, %rcx
	je	LBB81_538
	incq	%rbx
	je	LBB81_1105
LBB81_473:
	leaq	1(%rcx), %rdx
	movzbl	(%rcx), %eax
	cmpb	$13, %al
	je	LBB81_482
	cmpb	$92, %al
	je	LBB81_477
	cmpb	$34, %al
	je	LBB81_531
	movq	%rdx, %rcx
	testb	%al, %al
	jns	LBB81_471
	jmp	LBB81_538
	.p2align	4, 0x90
LBB81_477:
	cmpq	%rsi, %rdx
	je	LBB81_538
	incq	%rbx
	je	LBB81_1106
	movzbl	(%rdx), %edx
	leal	-92(%rdx), %eax
	cmpb	$28, %al
	jbe	LBB81_469
LBB81_480:
	cmpb	$48, %dl
	ja	LBB81_538
	movzbl	%dl, %eax
	movabsq	$282041912393728, %rdx
	btq	%rax, %rdx
	jb	LBB81_470
	jmp	LBB81_496
	.p2align	4, 0x90
LBB81_482:
	cmpq	%rsi, %rdx
	je	LBB81_538
	incq	%rbx
	je	LBB81_1107
	cmpb	$10, 1(%rcx)
	je	LBB81_470
	jmp	LBB81_538
LBB81_485:
	cmpq	$28, %rax
	jne	LBB81_480
	leaq	2(%rcx), %rax
	cmpq	%rsi, %rax
	je	LBB81_538
	incq	%rbx
	je	LBB81_1108
	movzbl	(%rax), %eax
	leal	-48(%rax), %edx
	cmpb	$10, %dl
	jb	LBB81_491
	addb	$-65, %al
	cmpb	$37, %al
	ja	LBB81_538
	movzbl	%al, %eax
	movabsq	$270582939711, %rdx
	btq	%rax, %rdx
	jae	LBB81_538
LBB81_491:
	leaq	3(%rcx), %rax
	cmpq	%rsi, %rax
	je	LBB81_538
	incq	%rbx
	je	LBB81_1109
	addq	$4, %rcx
	movzbl	(%rax), %eax
	leal	-48(%rax), %edx
	cmpb	$10, %dl
	jb	LBB81_471
	addb	$-65, %al
	cmpb	$37, %al
	ja	LBB81_538
	movzbl	%al, %eax
	movabsq	$270582939711, %rdx
	btq	%rax, %rdx
	jb	LBB81_471
	jmp	LBB81_538
LBB81_496:
	movl	$9216, %ecx
	btq	%rax, %rcx
	jae	LBB81_538
	movq	-152(%rbp), %r15
	subq	%rbx, %r15
	je	LBB81_538
	jbe	LBB81_1110
	movb	(%r12,%rbx), %al
	cmpb	$-65, %al
	jle	LBB81_1110
	addq	%r12, %rbx
	addq	%r12, -152(%rbp)
	movq	%rbx, %rcx
	movq	%rbx, -64(%rbp)
	xorl	%r12d, %r12d
	leaq	1(%rcx), %r14
	testb	%al, %al
	jns	LBB81_501
LBB81_502:
	movl	%eax, %edx
	andb	$31, %dl
	movq	-152(%rbp), %rsi
	cmpq	%rsi, %r14
	je	LBB81_506
	movzbl	1(%rcx), %edi
	addq	$2, %rcx
	andl	$63, %edi
	movq	%rcx, %r14
	movzbl	%dl, %edx
	cmpb	$-33, %al
	jbe	LBB81_507
LBB81_504:
	movq	-152(%rbp), %rsi
	cmpq	%rsi, %rcx
	je	LBB81_508
	movzbl	(%rcx), %r8d
	incq	%rcx
	andl	$63, %r8d
	movq	%rcx, %r14
	shll	$6, %edi
	orl	%r8d, %edi
	cmpb	$-16, %al
	jb	LBB81_511
LBB81_509:
	cmpq	-152(%rbp), %rcx
	je	LBB81_512
	movzbl	(%rcx), %eax
	incq	%rcx
	andl	$63, %eax
	movq	%rcx, %r14
	jmp	LBB81_513
LBB81_506:
	xorl	%edi, %edi
	movq	%rsi, %rcx
	movzbl	%dl, %edx
	cmpb	$-33, %al
	ja	LBB81_504
LBB81_507:
	shll	$6, %edx
	orl	%edx, %edi
	leal	-9(%rdi), %eax
	cmpl	$5, %eax
	jb	LBB81_515
	jmp	LBB81_517
LBB81_508:
	xorl	%r8d, %r8d
	movq	%rsi, %rcx
	shll	$6, %edi
	orl	%r8d, %edi
	cmpb	$-16, %al
	jae	LBB81_509
LBB81_511:
	shll	$12, %edx
	orl	%edx, %edi
	leal	-9(%rdi), %eax
	cmpl	$5, %eax
	jb	LBB81_515
	jmp	LBB81_517
LBB81_512:
	xorl	%eax, %eax
LBB81_513:
	andl	$7, %edx
	shll	$18, %edx
	shll	$6, %edi
	orl	%edx, %edi
	orl	%eax, %edi
	cmpl	$1114112, %edi
	je	LBB81_538
	leal	-9(%rdi), %eax
	cmpl	$5, %eax
	jb	LBB81_515
LBB81_517:
	cmpl	$32, %edi
	je	LBB81_515
	cmpl	$128, %edi
	jb	LBB81_521
Ltmp271:
	vzeroupper
	callq	__ZN4core7unicode12unicode_data11white_space6lookup17ha71f6b36a0478eccE
Ltmp272:
	testb	%al, %al
	je	LBB81_521
LBB81_515:
	cmpq	%r14, -152(%rbp)
	je	LBB81_538
	subq	-64(%rbp), %r12
	addq	%r14, %r12
	movb	(%r14), %al
	movq	%r14, %rcx
	movq	%r14, -64(%rbp)
	leaq	1(%rcx), %r14
	testb	%al, %al
	js	LBB81_502
LBB81_501:
	movzbl	%al, %edi
	leal	-9(%rdi), %eax
	cmpl	$5, %eax
	jb	LBB81_515
	jmp	LBB81_517
LBB81_521:
	testq	%r12, %r12
	je	LBB81_525
	cmpq	%r12, %r15
	je	LBB81_525
	jbe	LBB81_1111
	cmpb	$-65, (%rbx,%r12)
	jle	LBB81_1111
LBB81_525:
	addq	%r12, %rbx
	subq	%r12, %r15
	movq	%rbx, %r12
	leaq	(%rbx,%r15), %rsi
	movq	%r15, -152(%rbp)
	testq	%r15, %r15
	jne	LBB81_468
	jmp	LBB81_538
LBB81_526:
	movq	-48(%rbp), %rcx
	leaq	3(%rcx), %rax
	movzbl	2(%rcx), %ecx
	andl	$63, %ecx
	movq	%rax, %rdi
	movl	%edx, %esi
	andl	$31, %esi
	cmpb	$-33, %dl
	jbe	LBB81_455
LBB81_527:
	cmpq	%r11, %rdi
	je	LBB81_564
	movzbl	(%rdi), %ebx
	incq	%rdi
	andl	$63, %ebx
	movq	%rdi, %rax
	shll	$6, %ecx
	orl	%ebx, %ecx
	cmpb	$-16, %dl
	jb	LBB81_565
LBB81_529:
	cmpq	%r11, %rdi
	je	LBB81_582
	movzbl	(%rdi), %edx
	incq	%rdi
	andl	$63, %edx
	movq	%rdi, %rax
	jmp	LBB81_583
LBB81_531:
	movq	-152(%rbp), %rcx
	movq	%rcx, %rax
	cmpq	%rbx, %rcx
	je	LBB81_535
	jbe	LBB81_1112
	cmpb	$-65, (%r12,%rbx)
	jle	LBB81_1112
	movq	%rbx, %rax
LBB81_535:
	addq	%rbx, %r12
	movq	-152(%rbp), %rdx
	subq	%rax, %rdx
Ltmp286:
	leaq	-144(%rbp), %rdi
	movq	%r12, %rsi
	movq	%rdx, %rbx
	vzeroupper
	callq	__ZN11proc_macro25parse13ident_not_raw17h1f6f0b47a9be1208E
Ltmp287:
	movq	-144(%rbp), %rax
	testq	%rax, %rax
	je	LBB81_464
	movq	-136(%rbp), %rbx
	movq	%rax, %r12
	testq	%r12, %r12
	jne	LBB81_879
LBB81_538:
	leaq	l___unnamed_36(%rip), %rax
	movq	-48(%rbp), %rcx
	cmpq	%rax, %rcx
	je	LBB81_541
	movzwl	(%rcx), %ecx
	xorl	%eax, %eax
	cmpl	$10082, %ecx
	setne	%cl
	xorl	%r10d, %r10d
	cmpq	$2, %r13
	je	LBB81_448
	movb	%cl, %al
	testl	%eax, %eax
	je	LBB81_544
	jmp	LBB81_448
LBB81_541:
	cmpq	$2, %r13
	jne	LBB81_544
	xorl	%r10d, %r10d
	leaq	l___unnamed_36(%rip), %rax
	movq	%rax, -48(%rbp)
	cmpq	$1, %r13
	jne	LBB81_450
	jmp	LBB81_543
LBB81_544:
	movq	-48(%rbp), %rax
	movb	2(%rax), %al
	cmpb	$-65, %al
	jle	LBB81_1113
	cmpb	$92, %al
	jne	LBB81_548
	cmpq	$3, %r13
	je	LBB81_547
	movq	-48(%rbp), %rax
	leaq	4(%rax), %rcx
	movb	3(%rax), %dl
	movl	$2, %eax
	xorl	%r10d, %r10d
	cmpb	$109, %dl
	jg	LBB81_577
	addb	$-34, %dl
	cmpb	$58, %dl
	ja	LBB81_448
	movzbl	%dl, %edx
	movabsq	$288230376151728161, %rsi
	btq	%rdx, %rsi
	jb	LBB81_549
	jmp	LBB81_448
LBB81_548:
	movq	-48(%rbp), %rax
	leaq	3(%rax), %rcx
	movl	$1, %eax
LBB81_549:
	movq	-48(%rbp), %rsi
	leaq	(%rsi,%r13), %rdx
	cmpq	%rdx, %rcx
	je	LBB81_547
	leaq	2(%rsi), %r12
	leaq	-2(%r13), %rdx
	cmpq	%rax, %rdx
	jne	LBB81_561
LBB81_551:
	subq	%rax, %rdx
	je	LBB81_547
	addq	%rax, %r12
	leaq	l___unnamed_33(%rip), %rax
	cmpq	%rax, %r12
	je	LBB81_554
	cmpb	$39, (%r12)
	jne	LBB81_547
LBB81_554:
	cmpq	$1, %rdx
	je	LBB81_556
	cmpb	$-65, 1(%r12)
	jle	LBB81_1114
LBB81_556:
	incq	%r12
	decq	%rdx
Ltmp294:
	leaq	-144(%rbp), %rdi
	movq	%r12, %rsi
	movq	%rdx, %rbx
	vzeroupper
	callq	__ZN11proc_macro25parse13ident_not_raw17h1f6f0b47a9be1208E
Ltmp295:
	jmp	LBB81_877
LBB81_561:
	cmpq	%rax, %rdx
	jbe	LBB81_547
	cmpb	$-64, (%r12,%rax)
	jl	LBB81_547
	jmp	LBB81_551
LBB81_564:
	xorl	%ebx, %ebx
	movq	%r11, %rdi
	shll	$6, %ecx
	orl	%ebx, %ecx
	cmpb	$-16, %dl
	jae	LBB81_529
LBB81_565:
	shll	$12, %esi
LBB81_566:
	orl	%esi, %ecx
	movl	%ecx, %edx
LBB81_567:
	cmpl	$1114112, %edx
	je	LBB81_543
	movq	-48(%rbp), %rcx
	leaq	1(%rcx), %r12
	cmpl	$92, %edx
	jne	LBB81_573
	cmpq	%rax, %r11
	je	LBB81_543
	leaq	1(%rax), %rsi
	movzbl	(%rax), %edx
	testb	%dl, %dl
	js	LBB81_575
	movq	%rsi, %rax
	addl	$-34, %edx
	cmpl	$86, %edx
	jbe	LBB81_724
	jmp	LBB81_543
LBB81_573:
	movq	%rax, %rcx
	subq	%r12, %rcx
	cmpq	%rax, %r11
	je	LBB81_1029
LBB81_726:
	movzbl	(%rax), %edx
	testb	%dl, %dl
	js	LBB81_727
LBB81_867:
	leaq	-1(%r13), %rdx
	testq	%rcx, %rcx
	je	LBB81_871
	cmpq	%rcx, %rdx
	je	LBB81_871
	jbe	LBB81_1116
	cmpb	$-65, (%r12,%rcx)
	jle	LBB81_1116
LBB81_871:
	subq	%rcx, %rdx
	je	LBB81_1029
	addq	%rcx, %r12
	leaq	l___unnamed_33(%rip), %rax
	cmpq	%rax, %r12
	je	LBB81_874
	cmpb	$39, (%r12)
	jne	LBB81_1029
LBB81_874:
	cmpq	$1, %rdx
	je	LBB81_876
	cmpb	$-65, 1(%r12)
	jle	LBB81_1117
LBB81_876:
	incq	%r12
	decq	%rdx
Ltmp302:
	leaq	-144(%rbp), %rdi
	movq	%r12, %rsi
	movq	%rdx, %rbx
	vzeroupper
	callq	__ZN11proc_macro25parse13ident_not_raw17h1f6f0b47a9be1208E
Ltmp303:
LBB81_877:
	movq	-144(%rbp), %rax
	testq	%rax, %rax
	je	LBB81_879
	movq	-136(%rbp), %rbx
	movq	%rax, %r12
	testq	%rax, %rax
	jne	LBB81_879
	jmp	LBB81_887
LBB81_727:
	leaq	1(%rax), %rsi
	cmpq	%r11, %rsi
	je	LBB81_729
	movzbl	1(%rax), %esi
	addq	$2, %rax
	andl	$63, %esi
	shll	$6, %esi
	cmpb	$-32, %dl
	jae	LBB81_730
	jmp	LBB81_867
LBB81_575:
	cmpq	%r11, %rsi
	je	LBB81_589
	movzbl	1(%rax), %ecx
	addq	$2, %rax
	andl	$63, %ecx
	movq	%rax, %rdi
	movl	%edx, %esi
	andl	$31, %esi
	cmpb	$-33, %dl
	jbe	LBB81_592
LBB81_590:
	cmpq	%r11, %rdi
	je	LBB81_718
	movzbl	(%rdi), %r8d
	incq	%rdi
	andl	$63, %r8d
	movq	%rdi, %rax
	shll	$6, %ecx
	orl	%r8d, %ecx
	cmpb	$-16, %dl
	jb	LBB81_721
LBB81_719:
	cmpq	%r11, %rdi
	je	LBB81_934
	movzbl	(%rdi), %edx
	incq	%rdi
	andl	$63, %edx
	movq	%rdi, %rax
	jmp	LBB81_935
LBB81_577:
	cmpb	$115, %dl
	jg	LBB81_585
	cmpb	$110, %dl
	je	LBB81_549
	cmpb	$114, %dl
	je	LBB81_549
	jmp	LBB81_448
LBB81_729:
	movq	%r11, %rdi
	xorl	%esi, %esi
	movq	%r11, %rax
	cmpb	$-32, %dl
	jb	LBB81_867
LBB81_730:
	cmpq	%r11, %rax
	je	LBB81_732
	movzbl	(%rax), %edi
	incq	%rax
	andl	$63, %edi
	cmpb	$-16, %dl
	jae	LBB81_733
	jmp	LBB81_867
LBB81_582:
	xorl	%edx, %edx
LBB81_583:
	andl	$7, %esi
	shll	$18, %esi
	shll	$6, %ecx
	orl	%esi, %ecx
	orl	%edx, %ecx
	movl	%ecx, %edx
	cmpl	$1114112, %ecx
	jne	LBB81_567
LBB81_543:
	movq	-48(%rbp), %rsi
	jmp	LBB81_595
LBB81_585:
	cmpb	$116, %dl
	je	LBB81_549
	cmpb	$120, %dl
	jne	LBB81_448
	cmpq	$4, %r13
	je	LBB81_547
	movq	-48(%rbp), %rax
	movb	4(%rax), %al
	leal	-48(%rax), %ecx
	cmpb	$10, %cl
	jb	LBB81_942
	xorl	%r10d, %r10d
	addb	$-65, %al
	cmpb	$37, %al
	ja	LBB81_448
	movzbl	%al, %eax
	movabsq	$270582939711, %rcx
	btq	%rax, %rcx
	jae	LBB81_448
LBB81_942:
	cmpq	$5, %r13
	jne	LBB81_948
LBB81_547:
	xorl	%r10d, %r10d
	leaq	l___unnamed_33(%rip), %rax
	cmpq	%rax, -48(%rbp)
	jne	LBB81_449
LBB81_594:
	movq	%rax, %rsi
	cmpq	$1, %r13
	jne	LBB81_451
LBB81_595:
	movl	%r10d, -72(%rbp)
	leaq	(%rsi,%r13), %r11
LBB81_596:
	leaq	1(%rsi), %r8
	movq	%rsi, -48(%rbp)
	movzbl	(%rsi), %edx
	testb	%dl, %dl
	movq	%r11, -64(%rbp)
	jns	LBB81_608
	xorl	%eax, %eax
	movq	%r11, %rdi
	cmpq	$1, %r13
	je	LBB81_599
	movq	-48(%rbp), %rax
	leaq	2(%rax), %r8
	movzbl	1(%rax), %eax
	andl	$63, %eax
	movq	%r8, %rdi
LBB81_599:
	movl	%edx, %esi
	andl	$31, %esi
	cmpb	$-33, %dl
	jbe	LBB81_604
	cmpq	%r11, %rdi
	je	LBB81_605
	movzbl	(%rdi), %ecx
	incq	%rdi
	andl	$63, %ecx
	movq	%rdi, %r8
	shll	$6, %eax
	orl	%ecx, %eax
	cmpb	$-16, %dl
	jb	LBB81_606
LBB81_602:
	cmpq	%r11, %rdi
	je	LBB81_712
	movzbl	(%rdi), %ecx
	incq	%rdi
	andl	$63, %ecx
	movq	%rdi, %r8
	jmp	LBB81_713
LBB81_604:
	shll	$6, %esi
	jmp	LBB81_607
LBB81_605:
	xorl	%ecx, %ecx
	movq	%r11, %rdi
	shll	$6, %eax
	orl	%ecx, %eax
	cmpb	$-16, %dl
	jae	LBB81_602
LBB81_606:
	shll	$12, %esi
LBB81_607:
	orl	%esi, %eax
	movl	%eax, %edx
LBB81_608:
	addl	$-48, %edx
	cmpl	$9, %edx
	ja	LBB81_774
	movl	$1, %r12d
	movl	$1114113, %edx
	xorl	%eax, %eax
	movq	%r8, %rdi
	movq	%r8, %rcx
	cmpl	$1114113, %edx
	jne	LBB81_642
	.p2align	4, 0x90
LBB81_613:
	cmpq	-64(%rbp), %rcx
	je	LBB81_658
	leaq	1(%rcx), %r14
	movzbl	(%rcx), %edx
	testb	%dl, %dl
	jns	LBB81_626
	movq	-64(%rbp), %rdi
	cmpq	%rdi, %r14
	je	LBB81_621
	movzbl	1(%rcx), %esi
	addq	$2, %rcx
	andl	$63, %esi
	movq	%rcx, %r14
	movl	%edx, %edi
	andl	$31, %edi
	cmpb	$-33, %dl
	jbe	LBB81_622
LBB81_617:
	movq	-64(%rbp), %rbx
	cmpq	%rbx, %r14
	je	LBB81_623
	movzbl	(%r14), %ecx
	incq	%r14
	andl	$63, %ecx
	shll	$6, %esi
	orl	%ecx, %esi
	cmpb	$-16, %dl
	jb	LBB81_624
LBB81_619:
	movq	-64(%rbp), %r8
	cmpq	%r8, %r14
	je	LBB81_640
	movzbl	(%r14), %ecx
	incq	%r14
	andl	$63, %ecx
	movq	%r14, %r8
	jmp	LBB81_641
LBB81_621:
	xorl	%esi, %esi
	movq	%rdi, %r14
	movl	%edx, %edi
	andl	$31, %edi
	cmpb	$-33, %dl
	ja	LBB81_617
LBB81_622:
	shll	$6, %edi
	jmp	LBB81_625
LBB81_623:
	xorl	%ecx, %ecx
	movq	%rbx, %r14
	shll	$6, %esi
	orl	%ecx, %esi
	cmpb	$-16, %dl
	jae	LBB81_619
LBB81_624:
	shll	$12, %edi
LBB81_625:
	orl	%edi, %esi
	movl	%esi, %edx
LBB81_626:
	movq	%r14, %rdi
	movq	%r14, %r8
	leal	-48(%rdx), %ecx
	cmpl	$10, %ecx
	jb	LBB81_611
LBB81_627:
	xorl	%esi, %esi
	cmpl	$94, %edx
	jg	LBB81_610
	cmpl	$46, %edx
	jne	LBB81_660
	testb	$1, %al
	jne	LBB81_711
	movl	$1114112, %edx
	movq	-64(%rbp), %r14
	cmpq	%r14, %rdi
	je	LBB81_655
	leaq	1(%rdi), %r14
	movzbl	(%rdi), %ebx
	testb	%bl, %bl
	jns	LBB81_647
	movq	-64(%rbp), %rcx
	cmpq	%rcx, %r14
	je	LBB81_638
	movzbl	1(%rdi), %eax
	addq	$2, %rdi
	andl	$63, %eax
	movq	%rdi, %r14
	movl	%ebx, %ecx
	andl	$31, %ecx
	cmpb	$-33, %bl
	jbe	LBB81_639
LBB81_634:
	movq	-64(%rbp), %rdi
	cmpq	%rdi, %r14
	je	LBB81_644
	movzbl	(%r14), %esi
	incq	%r14
	andl	$63, %esi
	shll	$6, %eax
	orl	%esi, %eax
	cmpb	$-16, %bl
	jb	LBB81_645
LBB81_636:
	movq	-64(%rbp), %rdi
	cmpq	%rdi, %r14
	je	LBB81_656
	movzbl	(%r14), %esi
	incq	%r14
	andl	$63, %esi
	jmp	LBB81_657
	.p2align	4, 0x90
LBB81_610:
	cmpl	$95, %edx
	je	LBB81_611
	jmp	LBB81_659
LBB81_638:
	xorl	%eax, %eax
	movq	%rcx, %r14
	movl	%ebx, %ecx
	andl	$31, %ecx
	cmpb	$-33, %bl
	ja	LBB81_634
LBB81_639:
	shll	$6, %ecx
	jmp	LBB81_646
LBB81_640:
	xorl	%ecx, %ecx
LBB81_641:
	andl	$7, %edi
	shll	$18, %edi
	shll	$6, %esi
	orl	%edi, %esi
	orl	%ecx, %esi
	movl	%esi, %edx
	movq	%r8, %rdi
	movq	%r8, %rcx
	cmpl	$1114112, %edx
	jne	LBB81_643
	jmp	LBB81_658
LBB81_644:
	xorl	%esi, %esi
	movq	%rdi, %r14
	shll	$6, %eax
	orl	%esi, %eax
	cmpb	$-16, %bl
	jae	LBB81_636
LBB81_645:
	shll	$12, %ecx
LBB81_646:
	orl	%ecx, %eax
	movl	%eax, %ebx
LBB81_647:
	cmpl	$46, %ebx
	je	LBB81_774
	leal	-97(%rbx), %eax
	cmpl	$26, %eax
	jb	LBB81_774
	cmpl	$95, %ebx
	je	LBB81_774
	leal	-65(%rbx), %eax
	cmpl	$26, %eax
	jb	LBB81_774
	cmpl	$127, %ebx
	jbe	LBB81_654
Ltmp304:
	movl	%ebx, %edi
	vzeroupper
	callq	__ZN11unicode_xid6tables16derived_property9XID_Start17h49330b0fce5cc8feE
Ltmp305:
	movl	%ebx, %edx
	movq	%r14, %r8
	testb	%al, %al
	je	LBB81_655
	jmp	LBB81_774
LBB81_654:
	movl	%ebx, %edx
	movq	%r14, %r8
LBB81_655:
	movb	$1, %al
	movq	%r14, %rdi
	incq	%r12
	jne	LBB81_612
	jmp	LBB81_1119
LBB81_656:
	xorl	%esi, %esi
	movq	%rdi, %r14
LBB81_657:
	andl	$7, %ecx
	shll	$18, %ecx
	shll	$6, %eax
	orl	%ecx, %eax
	orl	%esi, %eax
	movl	%eax, %ebx
	movq	%r14, %r8
	cmpl	$1114112, %eax
	jne	LBB81_647
	jmp	LBB81_655
	.p2align	4, 0x90
LBB81_611:
	movl	$1114113, %edx
	incq	%r12
	je	LBB81_1118
LBB81_612:
	movq	%r14, %rcx
	cmpl	$1114113, %edx
	je	LBB81_613
LBB81_642:
	cmpl	$1114112, %edx
	je	LBB81_658
LBB81_643:
	movq	%rcx, %r14
	leal	-48(%rdx), %ecx
	cmpl	$10, %ecx
	jae	LBB81_627
	jmp	LBB81_611
LBB81_658:
	movl	$1114112, %edx
	xorl	%esi, %esi
	testq	%r12, %r12
	je	LBB81_667
LBB81_664:
	cmpq	%r12, %r13
	je	LBB81_667
	jbe	LBB81_1120
	movq	-48(%rbp), %rcx
	cmpb	$-65, (%rcx,%r12)
	jg	LBB81_667
	jmp	LBB81_1120
LBB81_659:
	cmpl	$101, %edx
	je	LBB81_661
	jmp	LBB81_663
LBB81_660:
	cmpl	$69, %edx
	jne	LBB81_663
LBB81_661:
	incq	%r12
	je	LBB81_1115
	movb	$1, %sil
	movl	$1114113, %edx
LBB81_663:
	testq	%r12, %r12
	jne	LBB81_664
LBB81_667:
	andb	$1, %al
	orb	%sil, %al
	je	LBB81_696
LBB81_668:
	testb	%sil, %sil
	je	LBB81_702
	xorl	%eax, %eax
	cmpl	$1114113, %edx
	jne	LBB81_688
	.p2align	4, 0x90
LBB81_672:
	cmpq	-64(%rbp), %r8
	je	LBB81_701
	leaq	1(%r8), %rcx
	movzbl	(%r8), %edx
	testb	%dl, %dl
	js	LBB81_675
	movq	%rcx, %r8
	cmpl	$43, %edx
	je	LBB81_694
LBB81_690:
	cmpl	$45, %edx
	je	LBB81_694
	cmpl	$95, %edx
	jne	LBB81_692
	incq	%r12
	jne	LBB81_671
	jmp	LBB81_1121
	.p2align	4, 0x90
LBB81_692:
	addl	$-48, %edx
	cmpl	$10, %edx
	jae	LBB81_701
	movb	$1, %al
	incq	%r12
	jne	LBB81_671
	jmp	LBB81_1122
	.p2align	4, 0x90
LBB81_675:
	movq	-64(%rbp), %rdi
	cmpq	%rdi, %rcx
	je	LBB81_681
	movzbl	1(%r8), %esi
	addq	$2, %r8
	andl	$63, %esi
	movl	%edx, %edi
	andl	$31, %edi
	cmpb	$-33, %dl
	jbe	LBB81_682
LBB81_677:
	movq	-64(%rbp), %rbx
	cmpq	%rbx, %r8
	je	LBB81_683
	movzbl	(%r8), %ecx
	incq	%r8
	andl	$63, %ecx
	shll	$6, %esi
	orl	%ecx, %esi
	cmpb	$-16, %dl
	jb	LBB81_684
LBB81_679:
	movq	-64(%rbp), %rdx
	cmpq	%rdx, %r8
	je	LBB81_686
	movzbl	(%r8), %ecx
	incq	%r8
	andl	$63, %ecx
	jmp	LBB81_687
LBB81_681:
	xorl	%esi, %esi
	movq	%rdi, %r8
	movl	%edx, %edi
	andl	$31, %edi
	cmpb	$-33, %dl
	ja	LBB81_677
LBB81_682:
	shll	$6, %edi
	jmp	LBB81_685
LBB81_683:
	xorl	%ecx, %ecx
	movq	%rbx, %r8
	shll	$6, %esi
	orl	%ecx, %esi
	cmpb	$-16, %dl
	jae	LBB81_679
LBB81_684:
	shll	$12, %edi
LBB81_685:
	orl	%edi, %esi
	movl	%esi, %edx
	cmpl	$43, %edx
	jne	LBB81_690
	jmp	LBB81_694
LBB81_686:
	xorl	%ecx, %ecx
	movq	%rdx, %r8
LBB81_687:
	andl	$7, %edi
	shll	$18, %edi
	shll	$6, %esi
	orl	%edi, %esi
	orl	%ecx, %esi
	movl	%esi, %edx
	cmpl	$1114112, %edx
	jne	LBB81_689
	jmp	LBB81_701
	.p2align	4, 0x90
LBB81_671:
	movl	$1114113, %edx
	cmpl	$1114113, %edx
	je	LBB81_672
LBB81_688:
	cmpl	$1114112, %edx
	je	LBB81_701
LBB81_689:
	cmpl	$43, %edx
	jne	LBB81_690
LBB81_694:
	testb	$1, %al
	jne	LBB81_701
	incq	%r12
	jne	LBB81_671
	jmp	LBB81_1123
LBB81_696:
	movq	%r13, %rax
	subq	%r12, %rax
	cmpq	$3, %rax
	jb	LBB81_774
	movq	-48(%rbp), %rax
	addq	%r12, %rax
	leaq	l___unnamed_37(%rip), %rcx
	cmpq	%rcx, %rax
	je	LBB81_668
	movzwl	(%rax), %edi
	xorl	$13158, %edi
	movzbl	2(%rax), %ebx
	xorl	$50, %ebx
	xorl	%ecx, %ecx
	orw	%di, %bx
	setne	%bl
	leaq	l___unnamed_38(%rip), %rdi
	cmpq	%rdi, %rax
	je	LBB81_668
	movb	%bl, %cl
	testl	%ecx, %ecx
	je	LBB81_668
	movzwl	(%rax), %ecx
	xorl	$13926, %ecx
	movzbl	2(%rax), %eax
	xorl	$52, %eax
	orw	%cx, %ax
	jne	LBB81_774
	jmp	LBB81_668
LBB81_701:
	testb	$1, %al
	je	LBB81_774
LBB81_702:
	testq	%r12, %r12
	je	LBB81_706
	cmpq	%r12, %r13
	je	LBB81_706
	jbe	LBB81_1124
	movq	-48(%rbp), %rax
	cmpb	$-65, (%rax,%r12)
	jle	LBB81_1124
LBB81_706:
	movq	-48(%rbp), %rax
	addq	%r12, %rax
	movq	%r13, %rdx
	subq	%r12, %rdx
	jne	LBB81_708
	movq	%rax, %r12
	testq	%rdx, %rdx
	jne	LBB81_753
LBB81_755:
	testq	%r12, %r12
	jne	LBB81_846
	jmp	LBB81_774
LBB81_708:
	movzbl	(%rax), %edi
	testb	%dil, %dil
	movq	%rax, %r12
	jns	LBB81_748
	leaq	1(%r12), %rax
	movq	-64(%rbp), %rbx
	cmpq	%rbx, %rax
	je	LBB81_714
	movq	%r12, %rbx
	addq	$2, %rbx
	movzbl	1(%r12), %eax
	andl	$63, %eax
	movl	%edi, %ecx
	andl	$31, %ecx
	cmpb	$-33, %dil
	jbe	LBB81_717
LBB81_715:
	movq	-64(%rbp), %rsi
	cmpq	%rsi, %rbx
	je	LBB81_743
	movzbl	(%rbx), %r8d
	incq	%rbx
	andl	$63, %r8d
	shll	$6, %eax
	orl	%r8d, %eax
	cmpb	$-16, %dil
	jb	LBB81_746
LBB81_744:
	cmpq	-64(%rbp), %rbx
	je	LBB81_937
	movzbl	(%rbx), %esi
	andl	$63, %esi
	jmp	LBB81_938
LBB81_711:
	movl	$46, %edx
	xorl	%esi, %esi
	testq	%r12, %r12
	jne	LBB81_664
	jmp	LBB81_667
LBB81_712:
	xorl	%ecx, %ecx
LBB81_713:
	andl	$7, %esi
	shll	$18, %esi
	shll	$6, %eax
	orl	%esi, %eax
	orl	%ecx, %eax
	movl	%eax, %edx
	cmpl	$1114112, %eax
	jne	LBB81_608
	jmp	LBB81_774
LBB81_589:
	movq	%r11, %rdi
	xorl	%ecx, %ecx
	movq	%rsi, %rax
	movl	%edx, %esi
	andl	$31, %esi
	cmpb	$-33, %dl
	ja	LBB81_590
LBB81_592:
	shll	$6, %esi
	jmp	LBB81_722
LBB81_714:
	xorl	%eax, %eax
	movl	%edi, %ecx
	andl	$31, %ecx
	cmpb	$-33, %dil
	ja	LBB81_715
LBB81_717:
	shll	$6, %ecx
	jmp	LBB81_747
LBB81_732:
	movq	%r11, %rbx
	xorl	%edi, %edi
	movq	%r11, %rax
	cmpb	$-16, %dl
	jb	LBB81_867
LBB81_733:
	orl	%esi, %edi
	cmpq	%r11, %rax
	je	LBB81_865
	movzbl	(%rax), %eax
	andl	$63, %eax
	jmp	LBB81_866
LBB81_718:
	movq	%r11, %rbx
	xorl	%r8d, %r8d
	movq	%r11, %rdi
	shll	$6, %ecx
	orl	%r8d, %ecx
	cmpb	$-16, %dl
	jae	LBB81_719
LBB81_721:
	shll	$12, %esi
LBB81_722:
	orl	%esi, %ecx
	movl	%ecx, %edx
LBB81_723:
	addl	$-34, %edx
	cmpl	$86, %edx
	ja	LBB81_543
LBB81_724:
	movq	%rax, %rcx
	subq	%r12, %rcx
	leaq	LJTI81_4(%rip), %rsi
	movslq	(%rsi,%rdx,4), %rdx
	addq	%rsi, %rdx
	movq	-48(%rbp), %rsi
	jmpq	*%rdx
LBB81_725:
	cmpq	%rax, %r11
	jne	LBB81_726
LBB81_1029:
	movl	%r10d, -72(%rbp)
	movq	-48(%rbp), %rsi
	jmp	LBB81_596
LBB81_735:
	cmpq	%rax, %r11
	je	LBB81_543
	leaq	1(%rax), %rcx
	movzbl	(%rax), %esi
	testb	%sil, %sil
	jns	LBB81_964
	cmpq	%r11, %rcx
	je	LBB81_951
	movzbl	1(%rax), %edx
	addq	$2, %rax
	andl	$63, %edx
	movq	%rax, %rcx
	movl	%esi, %eax
	andl	$31, %eax
	cmpb	$-33, %sil
	jbe	LBB81_954
LBB81_952:
	cmpq	%r11, %rcx
	je	LBB81_959
	movzbl	(%rcx), %edi
	incq	%rcx
	andl	$63, %edi
	shll	$6, %edx
	orl	%edi, %edx
	cmpb	$-16, %sil
	jb	LBB81_962
LBB81_960:
	cmpq	%r11, %rcx
	je	LBB81_993
	movzbl	(%rcx), %esi
	incq	%rcx
	andl	$63, %esi
	jmp	LBB81_994
LBB81_739:
	cmpq	%rax, %r11
	je	LBB81_543
	leaq	1(%rax), %rcx
	movzbl	(%rax), %esi
	testb	%sil, %sil
	jns	LBB81_976
	cmpq	%r11, %rcx
	je	LBB81_955
	movzbl	1(%rax), %edx
	addq	$2, %rax
	andl	$63, %edx
	movq	%rax, %rcx
	movl	%esi, %edi
	andl	$31, %edi
	cmpb	$-33, %sil
	jbe	LBB81_958
LBB81_956:
	cmpq	%r11, %rax
	je	LBB81_971
	movzbl	(%rax), %ebx
	incq	%rax
	andl	$63, %ebx
	movq	%rax, %rcx
	shll	$6, %edx
	orl	%ebx, %edx
	cmpb	$-16, %sil
	jb	LBB81_974
LBB81_972:
	cmpq	%r11, %rax
	je	LBB81_996
	movzbl	(%rax), %esi
	incq	%rax
	andl	$63, %esi
	movq	%rax, %rcx
	jmp	LBB81_997
LBB81_743:
	xorl	%r8d, %r8d
	movq	%rsi, %rbx
	shll	$6, %eax
	orl	%r8d, %eax
	cmpb	$-16, %dil
	jae	LBB81_744
LBB81_746:
	shll	$12, %ecx
LBB81_747:
	orl	%ecx, %eax
	movl	%eax, %edi
LBB81_748:
	leal	-97(%rdi), %eax
	cmpl	$26, %eax
	jae	LBB81_756
LBB81_749:
Ltmp325:
	leaq	-144(%rbp), %rdi
	movq	%r12, %rsi
	vzeroupper
	callq	__ZN11proc_macro25parse13ident_not_raw17h1f6f0b47a9be1208E
Ltmp326:
	movq	-144(%rbp), %r12
	testq	%r12, %r12
	je	LBB81_774
	movq	-136(%rbp), %rdx
LBB81_752:
	testq	%rdx, %rdx
	je	LBB81_755
LBB81_753:
	movzbl	(%r12), %edi
	testb	%dil, %dil
	js	LBB81_761
	movq	%rdx, %r14
	jmp	LBB81_772
LBB81_756:
	cmpl	$95, %edi
	je	LBB81_749
	leal	-65(%rdi), %eax
	cmpl	$26, %eax
	jb	LBB81_749
	cmpl	$127, %edi
	jbe	LBB81_752
Ltmp323:
	movq	%rdx, %rbx
	vzeroupper
	callq	__ZN11unicode_xid6tables16derived_property9XID_Start17h49330b0fce5cc8feE
Ltmp324:
	testb	%al, %al
	movq	%rbx, %rdx
	jne	LBB81_749
	jmp	LBB81_752
LBB81_761:
	leaq	(%r12,%rdx), %rbx
	xorl	%eax, %eax
	movq	%rbx, %rsi
	cmpq	$1, %rdx
	je	LBB81_763
	leaq	2(%r12), %rsi
	movzbl	1(%r12), %eax
	andl	$63, %eax
LBB81_763:
	movl	%edi, %ecx
	andl	$31, %ecx
	movq	%rdx, %r14
	cmpb	$-33, %dil
	jbe	LBB81_766
	cmpq	%rbx, %rsi
	je	LBB81_767
	movzbl	(%rsi), %edx
	incq	%rsi
	andl	$63, %edx
	shll	$6, %eax
	orl	%edx, %eax
	cmpb	$-16, %dil
	jb	LBB81_770
LBB81_768:
	cmpq	%rbx, %rsi
	je	LBB81_929
	movzbl	(%rsi), %edx
	andl	$63, %edx
	jmp	LBB81_930
LBB81_766:
	shll	$6, %ecx
	jmp	LBB81_771
LBB81_767:
	xorl	%edx, %edx
	movq	%rbx, %rsi
	shll	$6, %eax
	orl	%edx, %eax
	cmpb	$-16, %dil
	jae	LBB81_768
LBB81_770:
	shll	$12, %ecx
LBB81_771:
	orl	%ecx, %eax
	movl	%eax, %edi
LBB81_772:
Ltmp327:
	vzeroupper
	callq	__ZN11unicode_xid6tables16derived_property12XID_Continue17he75d3d87a9cf0c2cE
Ltmp328:
	testb	%al, %al
	je	LBB81_826
	.p2align	4, 0x90
LBB81_774:
	movl	$10, %r10d
	movq	%r13, %rsi
	movq	-48(%rbp), %rcx
	movq	%rcx, %r8
	cmpb	$0, -72(%rbp)
	jne	LBB81_785
	leaq	l___unnamed_39(%rip), %rax
	cmpq	%rax, %rcx
	je	LBB81_782
	movzwl	(%rcx), %eax
	cmpl	$30768, %eax
	je	LBB81_782
	leaq	l___unnamed_40(%rip), %rax
	cmpq	%rax, %rcx
	je	LBB81_823
	movzwl	(%rcx), %eax
	cmpl	$28464, %eax
	je	LBB81_823
	leaq	l___unnamed_41(%rip), %rax
	cmpq	%rax, %rcx
	je	LBB81_827
	movzwl	(%rcx), %eax
	cmpl	$25136, %eax
	je	LBB81_827
	movq	%r13, %rsi
	movq	%rcx, %r8
	movq	-64(%rbp), %rbx
	jmp	LBB81_788
LBB81_782:
	cmpq	$2, %r13
	je	LBB81_784
	movq	-48(%rbp), %rax
	cmpb	$-65, 2(%rax)
	jle	LBB81_1125
LBB81_784:
	movq	-48(%rbp), %rax
	leaq	2(%rax), %r8
	leaq	-2(%r13), %rsi
	movl	$16, %r10d
LBB81_785:
	testq	%rsi, %rsi
	je	LBB81_887
LBB81_786:
	cmpq	$10, %r10
	jne	LBB81_797
	leaq	(%r8,%rsi), %rbx
	movq	%r8, -56(%rbp)
LBB81_788:
	xorl	%ecx, %ecx
	xorl	%edx, %edx
	movq	%r8, %rax
LBB81_789:
	testb	$1, %dl
	je	LBB81_794
	.p2align	4, 0x90
LBB81_790:
	movzbl	(%rax), %edx
	leal	-48(%rdx), %edi
	cmpb	$10, %dil
	jb	LBB81_795
	cmpb	$95, %dl
	jne	LBB81_821
	incq	%rcx
	je	LBB81_1096
	incq	%rax
	cmpq	%rax, %rbx
	jne	LBB81_790
	jmp	LBB81_812
LBB81_794:
	movb	(%rax), %dl
	addb	$-48, %dl
	cmpb	$10, %dl
	jae	LBB81_887
LBB81_795:
	incq	%rax
	incq	%rcx
	je	LBB81_1126
	movb	$1, %dl
	cmpq	%rbx, %rax
	jne	LBB81_789
	jmp	LBB81_812
LBB81_797:
	leaq	(%r8,%rsi), %r9
	movb	$1, %r11b
	xorl	%ecx, %ecx
	movq	%r8, %rax
LBB81_798:
	movq	%r9, %r14
	subq	%rax, %r14
	xorl	%ebx, %ebx
	.p2align	4, 0x90
LBB81_799:
	movzbl	(%rax,%rbx), %edi
	leal	-48(%rdi), %edx
	cmpb	$10, %dl
	jb	LBB81_808
	leal	-97(%rdi), %edx
	cmpb	$6, %dl
	jb	LBB81_805
	leal	-65(%rdi), %edx
	cmpb	$6, %dl
	jb	LBB81_805
	leaq	(%rcx,%rbx), %rdx
	cmpb	$95, %dil
	jne	LBB81_809
	incq	%rdx
	je	LBB81_1096
	incq	%rbx
	cmpq	%rbx, %r14
	jne	LBB81_799
	jmp	LBB81_809
LBB81_805:
	movzbl	%dl, %edx
	addq	$10, %rdx
	cmpq	%r10, %rdx
	jae	LBB81_887
LBB81_806:
	addq	%rbx, %rcx
	incq	%rcx
	je	LBB81_1126
	leaq	(%rax,%rbx), %rdx
	addq	$1, %rdx
	notq	%rax
	addq	%r9, %rax
	xorl	%r11d, %r11d
	cmpq	%rbx, %rax
	movq	%rdx, %rax
	jne	LBB81_798
	jmp	LBB81_811
LBB81_808:
	movzbl	%dl, %edx
	cmpq	%r10, %rdx
	jb	LBB81_806
	jmp	LBB81_887
LBB81_809:
	testb	%r11b, %r11b
	jne	LBB81_887
	movq	%rdx, %rcx
LBB81_811:
	movq	%r8, -56(%rbp)
LBB81_812:
	testq	%rcx, %rcx
	je	LBB81_816
	cmpq	%rcx, %rsi
	je	LBB81_816
	jbe	LBB81_1127
	cmpb	$-65, (%r8,%rcx)
	jle	LBB81_1127
LBB81_816:
	movq	%r8, %r12
	addq	%rcx, %r12
	je	LBB81_887
	movq	%rsi, %rdx
	subq	%rcx, %rdx
	je	LBB81_843
	movzbl	(%r12), %edi
	testb	%dil, %dil
	jns	LBB81_839
	addq	%rsi, %r8
	leaq	1(%r12), %rax
	cmpq	%r8, %rax
	je	LBB81_830
	leaq	2(%r12), %rbx
	movzbl	1(%r12), %eax
	andl	$63, %eax
	movl	%edi, %ecx
	andl	$31, %ecx
	cmpb	$-33, %dil
	jbe	LBB81_833
LBB81_831:
	cmpq	%r8, %rbx
	je	LBB81_834
	movzbl	(%rbx), %esi
	incq	%rbx
	andl	$63, %esi
	shll	$6, %eax
	orl	%esi, %eax
	cmpb	$-16, %dil
	jb	LBB81_837
LBB81_835:
	cmpq	%r8, %rbx
	je	LBB81_946
	movzbl	(%rbx), %esi
	andl	$63, %esi
	jmp	LBB81_947
LBB81_821:
	addb	$-65, %dl
	cmpb	$37, %dl
	ja	LBB81_812
	movzbl	%dl, %eax
	movabsq	$270582939711, %rdx
	btq	%rax, %rdx
	jb	LBB81_887
	jmp	LBB81_812
LBB81_823:
	cmpq	$2, %r13
	je	LBB81_825
	movq	-48(%rbp), %rax
	cmpb	$-65, 2(%rax)
	jle	LBB81_1128
LBB81_825:
	movq	-48(%rbp), %rax
	leaq	2(%rax), %r8
	leaq	-2(%r13), %rsi
	movl	$8, %r10d
	testq	%rsi, %rsi
	jne	LBB81_786
	jmp	LBB81_887
LBB81_827:
	cmpq	$2, %r13
	je	LBB81_829
	movq	-48(%rbp), %rax
	cmpb	$-65, 2(%rax)
	jle	LBB81_1129
LBB81_829:
	movq	-48(%rbp), %rax
	leaq	2(%rax), %r8
	leaq	-2(%r13), %rsi
	movl	$2, %r10d
	testq	%rsi, %rsi
	jne	LBB81_786
	jmp	LBB81_887
LBB81_830:
	xorl	%eax, %eax
	movq	%r8, %rbx
	movl	%edi, %ecx
	andl	$31, %ecx
	cmpb	$-33, %dil
	ja	LBB81_831
LBB81_833:
	shll	$6, %ecx
	jmp	LBB81_838
LBB81_834:
	xorl	%esi, %esi
	movq	%r8, %rbx
	shll	$6, %eax
	orl	%esi, %eax
	cmpb	$-16, %dil
	jae	LBB81_835
LBB81_837:
	shll	$12, %ecx
LBB81_838:
	orl	%ecx, %eax
	movl	%eax, %edi
LBB81_839:
	leal	-97(%rdi), %eax
	cmpl	$26, %eax
	jae	LBB81_847
LBB81_840:
Ltmp341:
	leaq	-144(%rbp), %rdi
	movq	%r12, %rsi
	vzeroupper
	callq	__ZN11proc_macro25parse13ident_not_raw17h1f6f0b47a9be1208E
Ltmp342:
	movq	-144(%rbp), %r12
	testq	%r12, %r12
	je	LBB81_887
	movq	-136(%rbp), %rdx
LBB81_843:
	testq	%rdx, %rdx
	je	LBB81_846
	movzbl	(%r12), %edi
	testb	%dil, %dil
	js	LBB81_852
	movq	%rdx, %rbx
	jmp	LBB81_863
LBB81_846:
	xorl	%ebx, %ebx
	movq	%r12, %rax
	movq	%rax, %r12
	testq	%rax, %rax
	jne	LBB81_879
	jmp	LBB81_887
LBB81_847:
	cmpl	$95, %edi
	je	LBB81_840
	leal	-65(%rdi), %eax
	cmpl	$26, %eax
	jb	LBB81_840
	cmpl	$127, %edi
	jbe	LBB81_843
Ltmp339:
	movq	%rdx, %rbx
	vzeroupper
	callq	__ZN11unicode_xid6tables16derived_property9XID_Start17h49330b0fce5cc8feE
Ltmp340:
	testb	%al, %al
	movq	%rbx, %rdx
	jne	LBB81_840
	jmp	LBB81_843
LBB81_852:
	leaq	(%r12,%rdx), %r8
	xorl	%eax, %eax
	movq	%r8, %rsi
	cmpq	$1, %rdx
	je	LBB81_854
	leaq	2(%r12), %rsi
	movzbl	1(%r12), %eax
	andl	$63, %eax
LBB81_854:
	movl	%edi, %ecx
	andl	$31, %ecx
	movq	%rdx, %rbx
	cmpb	$-33, %dil
	jbe	LBB81_857
	cmpq	%r8, %rsi
	je	LBB81_858
	movzbl	(%rsi), %edx
	incq	%rsi
	andl	$63, %edx
	shll	$6, %eax
	orl	%edx, %eax
	cmpb	$-16, %dil
	jb	LBB81_861
LBB81_859:
	cmpq	%r8, %rsi
	je	LBB81_944
	movzbl	(%rsi), %edx
	andl	$63, %edx
	jmp	LBB81_945
LBB81_857:
	shll	$6, %ecx
	jmp	LBB81_862
LBB81_858:
	xorl	%edx, %edx
	movq	%r8, %rsi
	shll	$6, %eax
	orl	%edx, %eax
	cmpb	$-16, %dil
	jae	LBB81_859
LBB81_861:
	shll	$12, %ecx
LBB81_862:
	orl	%ecx, %eax
	movl	%eax, %edi
LBB81_863:
Ltmp343:
	vzeroupper
	callq	__ZN11unicode_xid6tables16derived_property12XID_Continue17he75d3d87a9cf0c2cE
Ltmp344:
	testb	%al, %al
	je	LBB81_879
	.p2align	4, 0x90
LBB81_887:
Ltmp352:
	leaq	-240(%rbp), %rdi
	movq	-48(%rbp), %rsi
	movq	%r13, %rdx
	vzeroupper
	callq	__ZN11proc_macro25parse7op_char17hb1581f78282c4e87E
Ltmp353:
	movl	-224(%rbp), %ebx
	cmpl	$1114112, %ebx
	jne	LBB81_893
LBB81_889:
Ltmp366:
	leaq	-144(%rbp), %rdi
	movq	-48(%rbp), %rsi
	movq	%r13, %rdx
	callq	__ZN11proc_macro25parse5ident17h024febf5b74e0e64E
Ltmp367:
	movl	-128(%rbp), %ecx
	movl	$4, %eax
	cmpl	$2, %ecx
	je	LBB81_892
	movq	-144(%rbp), %rax
	movq	%rax, -472(%rbp)
	movq	-136(%rbp), %rax
	movq	%rax, -480(%rbp)
	movb	-124(%rbp), %al
	movb	%al, -73(%rbp)
	movq	-120(%rbp), %rax
	movq	%rax, -448(%rbp)
	movq	-112(%rbp), %rax
	movq	%rax, -440(%rbp)
	movq	-104(%rbp), %rax
	movq	%rax, -456(%rbp)
	movq	-96(%rbp), %rax
	movq	%rax, -464(%rbp)
	leaq	-100(%rbp), %rax
	movq	%rax, %rdx
	movzwl	-23(%rax), %eax
	movw	%ax, -288(%rbp)
	movb	-21(%rdx), %al
	movb	%al, -286(%rbp)
	movl	$1, %eax
	movl	%ecx, -160(%rbp)
	movl	-380(%rbp), %ecx
	movl	%ecx, -164(%rbp)
LBB81_892:
	movl	-164(%rbp), %ebx
	movq	-480(%rbp), %rcx
	movq	%rcx, -152(%rbp)
	movq	-472(%rbp), %r12
	jmp	LBB81_909
LBB81_893:
	movq	-240(%rbp), %r12
	movq	-232(%rbp), %rdx
	cmpl	$39, %ebx
	movq	%rdx, -152(%rbp)
	jne	LBB81_903
Ltmp360:
	leaq	-144(%rbp), %rdi
	movq	%r12, %rsi
	callq	__ZN11proc_macro25parse5ident17h024febf5b74e0e64E
Ltmp361:
	movl	-128(%rbp), %eax
	testl	%eax, %eax
	je	LBB81_900
	cmpl	$2, %eax
	je	LBB81_889
	movq	-120(%rbp), %rdi
	testq	%rdi, %rdi
	je	LBB81_900
	movq	-112(%rbp), %rsi
	testq	%rsi, %rsi
	je	LBB81_900
	movl	$1, %edx
	callq	___rust_dealloc
LBB81_900:
Ltmp362:
	callq	__ZN11proc_macro29detection17inside_proc_macro17h1c8c95cd29726299E
Ltmp363:
	movb	$1, -73(%rbp)
	movl	$0, -160(%rbp)
	testb	%al, %al
	je	LBB81_908
Ltmp364:
	callq	__ZN10proc_macro4Span9call_site17hd72cd07d37a92d33E
	movl	%eax, -160(%rbp)
Ltmp365:
	jmp	LBB81_908
LBB81_903:
Ltmp354:
	leaq	-144(%rbp), %rdi
	movq	%r12, %rsi
	callq	__ZN11proc_macro25parse7op_char17hb1581f78282c4e87E
Ltmp355:
	movl	-128(%rbp), %r14d
Ltmp356:
	callq	__ZN11proc_macro29detection17inside_proc_macro17h1c8c95cd29726299E
Ltmp357:
	movl	$0, -160(%rbp)
	testb	%al, %al
	je	LBB81_907
Ltmp358:
	callq	__ZN10proc_macro4Span9call_site17hd72cd07d37a92d33E
	movl	%eax, -160(%rbp)
Ltmp359:
LBB81_907:
	cmpl	$1114112, %r14d
	setne	-73(%rbp)
LBB81_908:
	movq	-504(%rbp), %rcx
	movb	2(%rcx), %al
	movb	%al, -318(%rbp)
	movzwl	(%rcx), %ecx
	movw	%cx, -320(%rbp)
	movw	%cx, -288(%rbp)
	movb	%al, -286(%rbp)
	movl	$2, %eax
LBB81_909:
	movzwl	-288(%rbp), %ecx
	movw	%cx, -156(%rbp)
	movb	-286(%rbp), %cl
	movb	%cl, -154(%rbp)
	cmpl	$4, %eax
	je	LBB81_1050
	movl	%eax, -240(%rbp)
	movl	%ebx, -236(%rbp)
	movl	-160(%rbp), %esi
	movl	%esi, -232(%rbp)
	movb	-73(%rbp), %cl
	movb	%cl, -228(%rbp)
	movb	-154(%rbp), %cl
	leaq	-224(%rbp), %rdx
	movb	%cl, -1(%rdx)
	movzwl	-156(%rbp), %ecx
	movw	%cx, -3(%rdx)
	movq	-448(%rbp), %rcx
	movq	%rcx, -224(%rbp)
	movq	-440(%rbp), %rcx
	movq	%rcx, -216(%rbp)
	movq	-456(%rbp), %rcx
	movq	%rcx, -208(%rbp)
	movq	-464(%rbp), %rcx
	movq	%rcx, -200(%rbp)
	movl	%eax, %eax
	leaq	LJTI81_5(%rip), %rcx
	movslq	(%rcx,%rax,4), %rax
	addq	%rcx, %rax
	jmpq	*%rax
LBB81_865:
	xorl	%eax, %eax
LBB81_866:
	andl	$7, %edx
	shll	$18, %edx
	shll	$6, %edi
	orl	%edx, %edi
	orl	%eax, %edi
	cmpl	$1114112, %edi
	je	LBB81_1029
	jmp	LBB81_867
LBB81_929:
	xorl	%edx, %edx
LBB81_930:
	andl	$7, %ecx
	shll	$18, %ecx
	shll	$6, %eax
	orl	%ecx, %eax
	orl	%edx, %eax
	movl	%eax, %edi
	cmpl	$1114112, %eax
	jne	LBB81_772
LBB81_826:
	movq	%r14, %rbx
	movq	%r13, %rdx
	subq	%rbx, %rdx
	jae	LBB81_880
	jmp	LBB81_1133
LBB81_934:
	xorl	%edx, %edx
LBB81_935:
	andl	$7, %esi
	shll	$18, %esi
	shll	$6, %ecx
	orl	%esi, %ecx
	orl	%edx, %ecx
	movl	%ecx, %edx
	cmpl	$1114112, %ecx
	je	LBB81_543
	jmp	LBB81_723
LBB81_937:
	xorl	%esi, %esi
LBB81_938:
	andl	$7, %ecx
	shll	$18, %ecx
	shll	$6, %eax
	orl	%ecx, %eax
	orl	%esi, %eax
	movl	%eax, %edi
	cmpl	$1114112, %eax
	jne	LBB81_748
	jmp	LBB81_752
LBB81_944:
	xorl	%edx, %edx
LBB81_945:
	andl	$7, %ecx
	shll	$18, %ecx
	shll	$6, %eax
	orl	%ecx, %eax
	orl	%edx, %eax
	movl	%eax, %edi
	cmpl	$1114112, %eax
	jne	LBB81_863
LBB81_879:
	movq	%r13, %rdx
	subq	%rbx, %rdx
	jb	LBB81_1133
LBB81_880:
	movq	-48(%rbp), %rax
	movq	%rax, -144(%rbp)
	movq	%r13, -136(%rbp)
	testq	%rdx, %rdx
	je	LBB81_884
	cmpq	%r13, %rdx
	je	LBB81_884
	jae	LBB81_1130
	movq	-48(%rbp), %rax
	cmpb	$-65, (%rax,%rdx)
	jle	LBB81_1130
LBB81_884:
	movq	%rbx, -152(%rbp)
	testq	%rdx, %rdx
	je	LBB81_911
	movl	$1, %esi
	movq	%rdx, %rdi
	movq	%rdx, %rbx
	vzeroupper
	callq	___rust_alloc
	testq	%rax, %rax
	movq	-48(%rbp), %r13
	je	LBB81_1131
	movq	%rax, %rdi
	movq	%rbx, %rsi
	movq	%rbx, %rdx
	cmpq	%rdx, %rsi
	movq	%r12, -248(%rbp)
	jb	LBB81_912
	jmp	LBB81_915
LBB81_911:
	movl	$1, %edi
	xorl	%esi, %esi
	movq	-48(%rbp), %r13
	cmpq	%rdx, %rsi
	movq	%r12, -248(%rbp)
	jae	LBB81_915
LBB81_912:
	leaq	(%rsi,%rsi), %rax
	cmpq	%rdx, %rax
	movq	%rdx, %rbx
	cmovaq	%rax, %rbx
	testq	%rsi, %rsi
	je	LBB81_916
	testq	%rdi, %rdi
	je	LBB81_916
	cmpq	%rbx, %rsi
	jne	LBB81_917
LBB81_915:
	movq	%rsi, %r12
	jmp	LBB81_919
LBB81_916:
	movq	%rdx, %r14
	movl	$1, %esi
	movq	%rbx, %rdi
	vzeroupper
	callq	___rust_alloc
	movq	%rax, %rdi
	testq	%rax, %rax
	jne	LBB81_918
	jmp	LBB81_1132
LBB81_917:
	movq	%rdx, %r14
	movl	$1, %edx
	movq	%rbx, %rcx
	vzeroupper
	callq	___rust_realloc
	movq	%rax, %rdi
	testq	%rax, %rax
	je	LBB81_1132
LBB81_918:
	movq	%rbx, %r12
	movq	%r14, %rdx
LBB81_919:
	movq	%r13, %rsi
	movq	%rdx, %r14
	movq	%rdi, %rbx
	vzeroupper
	callq	_memcpy
	movzwl	-288(%rbp), %eax
	movw	%ax, -156(%rbp)
	movb	-286(%rbp), %al
	movb	%al, -154(%rbp)
	movl	$1, %esi
	movl	$3, %edx
	movl	%edx, -240(%rbp)
	movl	-164(%rbp), %edi
	movl	%edi, -236(%rbp)
	movl	%esi, -232(%rbp)
	movb	%al, -228(%rbp)
	movb	-154(%rbp), %al
	leaq	-224(%rbp), %rcx
	movb	%al, -1(%rcx)
	movzwl	-156(%rbp), %eax
	movw	%ax, -3(%rcx)
	movq	%rbx, -448(%rbp)
	movq	%rbx, -224(%rbp)
	movq	%r12, -440(%rbp)
	movq	%r12, -216(%rbp)
	movq	%r14, -456(%rbp)
	movq	%r14, -208(%rbp)
	movq	-464(%rbp), %rax
	movq	%rax, -200(%rbp)
	movl	%edx, %eax
	leaq	LJTI81_5(%rip), %rcx
	movslq	(%rcx,%rax,4), %rax
	addq	%rcx, %rax
	movl	%edi, %ebx
	movq	-248(%rbp), %r12
	jmpq	*%rax
LBB81_920:
	movl	%ebx, -164(%rbp)
	movq	-152(%rbp), %r14
	movl	%esi, -160(%rbp)
	cmpl	$1, %esi
	je	LBB81_924
	jmp	LBB81_1134
LBB81_921:
	movl	%esi, -160(%rbp)
	movl	$0, -232(%rbp)
	movl	%ebx, -164(%rbp)
	movq	-152(%rbp), %r14
	jmp	LBB81_924
LBB81_922:
	movl	%ebx, -164(%rbp)
	movq	-152(%rbp), %r14
	movl	%esi, -160(%rbp)
	cmpl	$1, %esi
	je	LBB81_924
	jmp	LBB81_1135
LBB81_923:
	movl	%ebx, -164(%rbp)
	movq	-152(%rbp), %r14
	movl	%esi, -160(%rbp)
	cmpl	$1, %esi
	jne	LBB81_1136
LBB81_924:
	movq	-240(%rbp), %rax
	movl	-232(%rbp), %ecx
	vmovups	-228(%rbp), %xmm0
	movl	-212(%rbp), %edx
	vmovups	-224(%rbp), %ymm1
	vmovups	%ymm1, -128(%rbp)
	movq	%rax, -144(%rbp)
	movl	%ecx, -136(%rbp)
	vmovups	%xmm0, -132(%rbp)
	movl	%edx, -116(%rbp)
	movq	-176(%rbp), %rcx
	cmpq	-184(%rbp), %rcx
	jne	LBB81_927
Ltmp376:
	movl	$1, %esi
	leaq	-192(%rbp), %rdi
	vzeroupper
	callq	__ZN5alloc3vec12Vec$LT$T$GT$7reserve17hc0be6e8834886ea9E
Ltmp377:
	movq	-176(%rbp), %rcx
LBB81_927:
	movq	-192(%rbp), %rax
	leaq	(%rcx,%rcx,2), %rdx
	shlq	$4, %rdx
	vmovups	-144(%rbp), %ymm0
	vmovaps	-112(%rbp), %xmm1
	vmovups	%xmm1, 32(%rax,%rdx)
	vmovups	%ymm0, (%rax,%rdx)
	incq	%rcx
	movq	%rcx, -176(%rbp)
	movq	%r14, %rdx
	movq	%r12, %rsi
	jmp	LBB81_1
LBB81_946:
	xorl	%esi, %esi
LBB81_947:
	andl	$7, %ecx
	shll	$18, %ecx
	shll	$6, %eax
	orl	%ecx, %eax
	orl	%esi, %eax
	movl	%eax, %edi
	cmpl	$1114112, %eax
	jne	LBB81_839
	jmp	LBB81_843
LBB81_948:
	movq	-48(%rbp), %rax
	leaq	6(%rax), %rcx
	movb	5(%rax), %dl
	leal	-48(%rdx), %esi
	movl	$4, %eax
	cmpb	$10, %sil
	jb	LBB81_549
	xorl	%r10d, %r10d
	addb	$-65, %dl
	cmpb	$37, %dl
	ja	LBB81_448
	movzbl	%dl, %edx
	movabsq	$270582939711, %rsi
	btq	%rdx, %rsi
	jb	LBB81_549
	jmp	LBB81_448
LBB81_951:
	movq	%r11, %rdi
	xorl	%edx, %edx
	movq	%r11, %rcx
	movl	%esi, %eax
	andl	$31, %eax
	cmpb	$-33, %sil
	ja	LBB81_952
LBB81_954:
	shll	$6, %eax
	jmp	LBB81_963
LBB81_955:
	movq	%r11, %rdi
	xorl	%edx, %edx
	movq	%r11, %rax
	movl	%esi, %edi
	andl	$31, %edi
	cmpb	$-33, %sil
	ja	LBB81_956
LBB81_958:
	shll	$6, %edi
	jmp	LBB81_975
LBB81_959:
	xorl	%edi, %edi
	movq	%r11, %rcx
	shll	$6, %edx
	orl	%edi, %edx
	cmpb	$-16, %sil
	jae	LBB81_960
LBB81_962:
	shll	$12, %eax
LBB81_963:
	orl	%eax, %edx
	movl	%edx, %esi
LBB81_964:
	cmpq	%rcx, %r11
	je	LBB81_543
	cmpl	$123, %esi
	jne	LBB81_543
	leaq	1(%rcx), %r8
	movzbl	(%rcx), %esi
	testb	%sil, %sil
	jns	LBB81_1004
	cmpq	%r11, %r8
	je	LBB81_985
	movzbl	1(%rcx), %eax
	addq	$2, %rcx
	andl	$63, %eax
	movq	%rcx, %r8
	movl	%esi, %edi
	andl	$31, %edi
	cmpb	$-33, %sil
	jbe	LBB81_988
LBB81_986:
	cmpq	%r11, %rcx
	je	LBB81_999
	movzbl	(%rcx), %edx
	incq	%rcx
	andl	$63, %edx
	movq	%rcx, %r8
	shll	$6, %eax
	orl	%edx, %eax
	cmpb	$-16, %sil
	jb	LBB81_1002
LBB81_1000:
	cmpq	%r11, %rcx
	je	LBB81_1039
	movzbl	(%rcx), %edx
	incq	%rcx
	andl	$63, %edx
	movq	%rcx, %r8
	jmp	LBB81_1040
LBB81_971:
	xorl	%ebx, %ebx
	movq	%r11, %rax
	shll	$6, %edx
	orl	%ebx, %edx
	cmpb	$-16, %sil
	jae	LBB81_972
LBB81_974:
	shll	$12, %edi
LBB81_975:
	orl	%edi, %edx
	movl	%edx, %esi
LBB81_976:
	cmpl	$1114112, %esi
	je	LBB81_543
	andl	$-8, %esi
	cmpl	$48, %esi
	jne	LBB81_543
	cmpq	%rcx, %r11
	je	LBB81_543
	leaq	1(%rcx), %rax
	movzbl	(%rcx), %esi
	testb	%sil, %sil
	jns	LBB81_1036
	cmpq	%r11, %rax
	je	LBB81_989
	movzbl	1(%rcx), %edx
	addq	$2, %rcx
	andl	$63, %edx
	movq	%rcx, %rax
	movl	%esi, %edi
	andl	$31, %edi
	cmpb	$-33, %sil
	jbe	LBB81_992
LBB81_990:
	cmpq	%r11, %rcx
	je	LBB81_1031
	movzbl	(%rcx), %ebx
	incq	%rcx
	andl	$63, %ebx
	movq	%rcx, %rax
	shll	$6, %edx
	orl	%ebx, %edx
	cmpb	$-16, %sil
	jb	LBB81_1034
LBB81_1032:
	cmpq	%r11, %rcx
	je	LBB81_1042
	movzbl	(%rcx), %esi
	incq	%rcx
	andl	$63, %esi
	movq	%rcx, %rax
	jmp	LBB81_1043
LBB81_985:
	xorl	%eax, %eax
	movq	%r11, %rcx
	movl	%esi, %edi
	andl	$31, %edi
	cmpb	$-33, %sil
	ja	LBB81_986
LBB81_988:
	shll	$6, %edi
	jmp	LBB81_1003
LBB81_989:
	xorl	%edx, %edx
	movq	%r11, %rcx
	movl	%esi, %edi
	andl	$31, %edi
	cmpb	$-33, %sil
	ja	LBB81_990
LBB81_992:
	shll	$6, %edi
	jmp	LBB81_1035
LBB81_993:
	xorl	%esi, %esi
	movq	%r11, %rcx
LBB81_994:
	andl	$7, %eax
	shll	$18, %eax
	shll	$6, %edx
	orl	%eax, %edx
	orl	%esi, %edx
	movl	%edx, %esi
	cmpl	$1114112, %edx
	je	LBB81_543
	jmp	LBB81_964
LBB81_996:
	xorl	%esi, %esi
LBB81_997:
	andl	$7, %edi
	shll	$18, %edi
	shll	$6, %edx
	orl	%edi, %edx
	orl	%esi, %edx
	movl	%edx, %esi
	cmpl	$1114112, %edx
	je	LBB81_543
	jmp	LBB81_976
LBB81_999:
	xorl	%edx, %edx
	movq	%r11, %rcx
	shll	$6, %eax
	orl	%edx, %eax
	cmpb	$-16, %sil
	jae	LBB81_1000
LBB81_1002:
	shll	$12, %edi
LBB81_1003:
	orl	%edi, %eax
	movl	%eax, %esi
LBB81_1004:
	leal	-48(%rsi), %eax
	cmpl	$10, %eax
	jb	LBB81_1007
	addl	$-65, %esi
	cmpl	$37, %esi
	ja	LBB81_543
	movabsq	$270582939711, %rax
	btq	%rsi, %rax
	jae	LBB81_543
LBB81_1007:
	cmpq	%r8, %r11
	je	LBB81_543
	movq	%r8, %rcx
	subq	%r12, %rcx
	movq	%r8, %rax
	leaq	1(%rax), %rdx
	movzbl	(%rax), %edi
	testb	%dil, %dil
	jns	LBB81_1011
	jmp	LBB81_1012
LBB81_1009:
	movq	%rax, %r8
	cmpq	%rax, %r11
	je	LBB81_1029
	leaq	1(%rax), %rdx
	movzbl	(%rax), %edi
	testb	%dil, %dil
	js	LBB81_1012
LBB81_1011:
	movq	%rdx, %rax
	jmp	LBB81_1025
LBB81_1012:
	cmpq	%r11, %rdx
	je	LBB81_1014
	movzbl	1(%rax), %esi
	addq	$2, %rax
	andl	$63, %esi
	movq	%rax, %rdx
	movl	%edi, %ebx
	andl	$31, %ebx
	cmpb	$-33, %dil
	jbe	LBB81_1017
LBB81_1015:
	cmpq	%r11, %rdx
	je	LBB81_1018
	movzbl	(%rdx), %r9d
	incq	%rdx
	andl	$63, %r9d
	movq	%rdx, %rax
	shll	$6, %esi
	orl	%r9d, %esi
	cmpb	$-16, %dil
	jb	LBB81_1021
LBB81_1019:
	cmpq	%r11, %rdx
	je	LBB81_1023
	movzbl	(%rdx), %edi
	incq	%rdx
	andl	$63, %edi
	movq	%rdx, %rax
	jmp	LBB81_1024
LBB81_1014:
	movq	%r11, %rbx
	xorl	%esi, %esi
	movq	%rdx, %rax
	movq	%r11, %rdx
	movl	%edi, %ebx
	andl	$31, %ebx
	cmpb	$-33, %dil
	ja	LBB81_1015
LBB81_1017:
	shll	$6, %ebx
	jmp	LBB81_1022
LBB81_1018:
	movq	%r11, %r14
	xorl	%r9d, %r9d
	movq	%r11, %rdx
	shll	$6, %esi
	orl	%r9d, %esi
	cmpb	$-16, %dil
	jae	LBB81_1019
LBB81_1021:
	shll	$12, %ebx
LBB81_1022:
	orl	%ebx, %esi
	movl	%esi, %edi
	jmp	LBB81_1025
LBB81_1023:
	xorl	%edi, %edi
LBB81_1024:
	andl	$7, %ebx
	shll	$18, %ebx
	shll	$6, %esi
	orl	%ebx, %esi
	orl	%edi, %esi
	movl	%esi, %edi
	cmpl	$1114112, %esi
	je	LBB81_1029
LBB81_1025:
	movq	%rax, %rdx
	subq	%r8, %rdx
	addq	%rdx, %rcx
	leal	-48(%rdi), %edx
	cmpl	$10, %edx
	jb	LBB81_1009
	addl	$-65, %edi
	cmpl	$60, %edi
	ja	LBB81_1029
	movabsq	$271656681535, %rdx
	btq	%rdi, %rdx
	jb	LBB81_1009
	cmpq	$60, %rdi
	je	LBB81_725
	jmp	LBB81_1029
LBB81_1031:
	xorl	%ebx, %ebx
	movq	%r11, %rcx
	shll	$6, %edx
	orl	%ebx, %edx
	cmpb	$-16, %sil
	jae	LBB81_1032
LBB81_1034:
	shll	$12, %edi
LBB81_1035:
	orl	%edi, %edx
	movl	%edx, %esi
LBB81_1036:
	movq	%rax, %rcx
	subq	%r12, %rcx
	leal	-48(%rsi), %edx
	cmpl	$10, %edx
	jb	LBB81_725
	addl	$-65, %esi
	cmpl	$37, %esi
	ja	LBB81_543
	movabsq	$270582939711, %rdx
	btq	%rsi, %rdx
	movq	-48(%rbp), %rsi
	jb	LBB81_725
	jmp	LBB81_595
LBB81_1039:
	xorl	%edx, %edx
LBB81_1040:
	andl	$7, %edi
	shll	$18, %edi
	shll	$6, %eax
	orl	%edi, %eax
	orl	%edx, %eax
	movl	%eax, %esi
	cmpl	$1114112, %eax
	je	LBB81_543
	jmp	LBB81_1004
LBB81_1042:
	xorl	%esi, %esi
LBB81_1043:
	andl	$7, %edi
	shll	$18, %edi
	shll	$6, %edx
	orl	%edi, %edx
	orl	%esi, %edx
	movl	%edx, %esi
	cmpl	$1114112, %edx
	je	LBB81_543
	jmp	LBB81_1036
LBB81_1048:
	cmpq	$0, -392(%rbp)
	je	LBB81_1061
	movq	-376(%rbp), %rax
	movq	$0, (%rax)
	movb	$1, %r15b
	jmp	LBB81_1062
LBB81_1050:
	movq	-376(%rbp), %rax
	movq	$0, (%rax)
	jmp	LBB81_1057
LBB81_1051:
	movq	-376(%rbp), %rax
	movq	$0, (%rax)
	movq	-432(%rbp), %r15
	movq	-416(%rbp), %rax
	shlq	$4, %rax
	leaq	(%rax,%rax,2), %r12
	movq	%r15, %rbx
	.p2align	4, 0x90
LBB81_1052:
	testq	%r12, %r12
	je	LBB81_1054
	addq	$-48, %r12
Ltmp229:
	movq	%rbx, %rdi
	addq	$48, %rbx
	vzeroupper
	callq	__ZN4core3ptr13drop_in_place17h1202f0d8a0ebc27dE
Ltmp230:
	jmp	LBB81_1052
LBB81_1054:
	movq	-424(%rbp), %rax
	testq	%rax, %rax
	je	LBB81_1057
	shlq	$4, %rax
	leaq	(%rax,%rax,2), %rsi
	testq	%rsi, %rsi
	je	LBB81_1057
	movl	$8, %edx
	movq	%r15, %rdi
	vzeroupper
	callq	___rust_dealloc
LBB81_1057:
	movb	$1, %r15b
Ltmp382:
	leaq	-408(%rbp), %rdi
	vzeroupper
	callq	__ZN4core3ptr13drop_in_place17h69741f16530d95a1E
Ltmp383:
	movq	-192(%rbp), %r15
	movq	-176(%rbp), %rax
	shlq	$4, %rax
	leaq	(%rax,%rax,2), %r12
	movq	%r15, %rbx
	.p2align	4, 0x90
LBB81_1059:
	testq	%r12, %r12
	je	LBB81_1067
	addq	$-48, %r12
Ltmp384:
	movq	%rbx, %rdi
	addq	$48, %rbx
	callq	__ZN4core3ptr13drop_in_place17h1202f0d8a0ebc27dE
Ltmp385:
	jmp	LBB81_1059
LBB81_1061:
	movq	-376(%rbp), %rcx
	movq	-56(%rbp), %rax
	movq	%rax, (%rcx)
	movq	$0, 8(%rcx)
	vmovaps	-192(%rbp), %xmm0
	vmovups	%xmm0, 16(%rcx)
	movq	-176(%rbp), %rax
	movq	%rax, 32(%rcx)
	xorl	%r15d, %r15d
LBB81_1062:
Ltmp390:
	leaq	-408(%rbp), %rdi
	vzeroupper
	callq	__ZN4core3ptr13drop_in_place17h69741f16530d95a1E
Ltmp391:
	testb	%r15b, %r15b
	je	LBB81_1070
	movq	-192(%rbp), %r15
	movq	-176(%rbp), %rax
	shlq	$4, %rax
	leaq	(%rax,%rax,2), %r12
	movq	%r15, %rbx
	.p2align	4, 0x90
LBB81_1065:
	testq	%r12, %r12
	je	LBB81_1067
	addq	$-48, %r12
Ltmp393:
	movq	%rbx, %rdi
	addq	$48, %rbx
	callq	__ZN4core3ptr13drop_in_place17h1202f0d8a0ebc27dE
Ltmp394:
	jmp	LBB81_1065
LBB81_1067:
	movq	-184(%rbp), %rax
	testq	%rax, %rax
	je	LBB81_1070
	shlq	$4, %rax
	leaq	(%rax,%rax,2), %rsi
	testq	%rsi, %rsi
	je	LBB81_1070
	movl	$8, %edx
	movq	%r15, %rdi
	callq	___rust_dealloc
LBB81_1070:
	addq	$472, %rsp
	popq	%rbx
	popq	%r12
	popq	%r13
	popq	%r14
	popq	%r15
	popq	%rbp
	retq
LBB81_1071:
	movb	$1, %r15b
Ltmp225:
	leaq	l___unnamed_20(%rip), %r8
	movl	$1, %ecx
	movq	-56(%rbp), %rdi
	movq	%r13, %rsi
	xorl	%edx, %edx
	vzeroupper
	callq	__ZN4core3str16slice_error_fail17h6b29707aec812690E
Ltmp226:
	jmp	LBB81_1074
LBB81_1072:
	movb	$1, %r15b
Ltmp106:
	leaq	l___unnamed_20(%rip), %r8
	movq	-56(%rbp), %rdi
	movq	%r13, %rsi
	xorl	%edx, %edx
	movq	%r14, %rcx
	vzeroupper
	callq	__ZN4core3str16slice_error_fail17h6b29707aec812690E
Ltmp107:
	jmp	LBB81_1074
LBB81_1073:
	movb	$1, %r15b
Ltmp108:
	leaq	l___unnamed_1(%rip), %rdi
	leaq	l___unnamed_42(%rip), %rdx
	movl	$43, %esi
	vzeroupper
	callq	__ZN4core9panicking5panic17h736ee47a631475c0E
Ltmp109:
LBB81_1074:
	ud2
LBB81_1075:
	movb	$1, %r15b
Ltmp97:
	leaq	l___unnamed_20(%rip), %r8
	movl	$4, %ecx
	movq	-56(%rbp), %rdi
	movq	%r13, %rsi
	xorl	%edx, %edx
	vzeroupper
	callq	__ZN4core3str16slice_error_fail17h6b29707aec812690E
Ltmp98:
	jmp	LBB81_1074
LBB81_1076:
	leaq	-240(%rbp), %rax
	movq	%rax, -144(%rbp)
	leaq	-320(%rbp), %rax
	movq	%rax, -136(%rbp)
	leaq	-368(%rbp), %rax
	movq	%rax, -128(%rbp)
	movb	$1, %r15b
Ltmp110:
	leaq	-144(%rbp), %rdi
	vzeroupper
	callq	__ZN4core3str6traits105_$LT$impl$u20$core..slice..SliceIndex$LT$str$GT$$u20$for$u20$core..ops..range..RangeFrom$LT$usize$GT$$GT$5index28_$u7b$$u7b$closure$u7d$$u7d$17hf084d64dc04fb6b7E
Ltmp111:
	jmp	LBB81_1074
LBB81_1077:
	movb	$1, %r15b
Ltmp116:
	leaq	_str.0(%rip), %rdi
	leaq	l___unnamed_43(%rip), %rdx
	movl	$33, %esi
	callq	__ZN4core9panicking5panic17h736ee47a631475c0E
Ltmp117:
	jmp	LBB81_1074
LBB81_1078:
	leaq	-240(%rbp), %rax
	movq	%rax, -144(%rbp)
	leaq	-320(%rbp), %rax
	movq	%rax, -136(%rbp)
	leaq	-368(%rbp), %rax
	movq	%rax, -128(%rbp)
	movb	$1, %r15b
Ltmp114:
	leaq	-144(%rbp), %rdi
	callq	__ZN4core3str6traits101_$LT$impl$u20$core..slice..SliceIndex$LT$str$GT$$u20$for$u20$core..ops..range..Range$LT$usize$GT$$GT$5index28_$u7b$$u7b$closure$u7d$$u7d$17hfd8aa31df21c55dfE
Ltmp115:
	jmp	LBB81_1074
LBB81_1079:
	movb	$1, %r15b
Ltmp128:
	leaq	l___unnamed_20(%rip), %r8
	movl	$3, %ecx
	movq	%r13, %rsi
	xorl	%edx, %edx
	vzeroupper
	callq	__ZN4core3str16slice_error_fail17h6b29707aec812690E
Ltmp129:
	jmp	LBB81_1074
LBB81_1080:
	movb	$1, %r15b
Ltmp126:
	leaq	_str.0(%rip), %rdi
	leaq	l___unnamed_44(%rip), %rdx
	movl	$33, %esi
	callq	__ZN4core9panicking5panic17h736ee47a631475c0E
Ltmp127:
	jmp	LBB81_1074
LBB81_1081:
	leaq	-240(%rbp), %rax
	movq	%rax, -144(%rbp)
	leaq	-320(%rbp), %rax
	movq	%rax, -136(%rbp)
	leaq	-368(%rbp), %rax
	movq	%rax, -128(%rbp)
	movb	$1, %r15b
Ltmp124:
	leaq	-144(%rbp), %rdi
	callq	__ZN4core3str6traits101_$LT$impl$u20$core..slice..SliceIndex$LT$str$GT$$u20$for$u20$core..ops..range..Range$LT$usize$GT$$GT$5index28_$u7b$$u7b$closure$u7d$$u7d$17hfd8aa31df21c55dfE
Ltmp125:
	jmp	LBB81_1074
LBB81_1082:
	movb	$1, %r15b
Ltmp118:
	leaq	l___unnamed_20(%rip), %r8
	movl	$3, %ecx
	movq	-56(%rbp), %rdi
	movq	%r13, %rsi
	xorl	%edx, %edx
	vzeroupper
	callq	__ZN4core3str16slice_error_fail17h6b29707aec812690E
Ltmp119:
	jmp	LBB81_1074
LBB81_1083:
	leaq	-240(%rbp), %rax
	movq	%rax, -144(%rbp)
	leaq	-320(%rbp), %rax
	movq	%rax, -136(%rbp)
	leaq	-368(%rbp), %rax
	movq	%rax, -128(%rbp)
	movb	$1, %r15b
Ltmp135:
	leaq	-144(%rbp), %rdi
	callq	__ZN4core3str6traits105_$LT$impl$u20$core..slice..SliceIndex$LT$str$GT$$u20$for$u20$core..ops..range..RangeFrom$LT$usize$GT$$GT$5index28_$u7b$$u7b$closure$u7d$$u7d$17hf084d64dc04fb6b7E
Ltmp136:
	jmp	LBB81_1074
LBB81_1084:
	movb	$1, %r15b
Ltmp142:
	leaq	l___unnamed_45(%rip), %rdx
	movl	$4, %esi
	movq	%r12, %rdi
	callq	__ZN4core5slice20slice_index_len_fail17h550a313151a85135E
Ltmp143:
	jmp	LBB81_1074
LBB81_1085:
	movb	$1, %r15b
Ltmp140:
	leaq	_str.1(%rip), %rdi
	leaq	l___unnamed_46(%rip), %rdx
	movl	$28, %esi
	callq	__ZN4core9panicking5panic17h736ee47a631475c0E
Ltmp141:
	jmp	LBB81_1074
LBB81_1086:
Ltmp184:
	vzeroupper
	callq	__ZN11proc_macro23imp8mismatch17h8813b0d1751cf723E
Ltmp185:
	jmp	LBB81_1074
LBB81_1087:
Ltmp182:
	vzeroupper
	callq	__ZN11proc_macro23imp8mismatch17h8813b0d1751cf723E
Ltmp183:
	jmp	LBB81_1074
LBB81_1088:
Ltmp186:
	vzeroupper
	callq	__ZN11proc_macro23imp8mismatch17h8813b0d1751cf723E
Ltmp187:
	jmp	LBB81_1074
LBB81_1089:
Ltmp214:
	vzeroupper
	callq	__ZN11proc_macro23imp8mismatch17h8813b0d1751cf723E
Ltmp215:
	jmp	LBB81_1074
LBB81_1090:
Ltmp210:
	vzeroupper
	callq	__ZN11proc_macro23imp8mismatch17h8813b0d1751cf723E
Ltmp211:
	jmp	LBB81_1074
LBB81_1091:
Ltmp212:
	vzeroupper
	callq	__ZN11proc_macro23imp8mismatch17h8813b0d1751cf723E
Ltmp213:
	jmp	LBB81_1074
LBB81_1092:
	movl	$144, %edi
	movl	$8, %esi
	callq	__ZN5alloc5alloc18handle_alloc_error17hbc0ab0ed90816c07E
LBB81_1093:
Ltmp243:
	vzeroupper
	callq	__ZN5alloc7raw_vec17capacity_overflow17h023f34f5bc34c61fE
Ltmp244:
	jmp	LBB81_1074
LBB81_1094:
	movb	$1, %r15b
Ltmp241:
	leaq	l___unnamed_20(%rip), %r8
	movl	$1, %ecx
	movq	-56(%rbp), %rdi
	movq	%r13, %rsi
	xorl	%edx, %edx
	vzeroupper
	callq	__ZN4core3str16slice_error_fail17h6b29707aec812690E
Ltmp242:
	jmp	LBB81_1074
LBB81_1095:
	movl	$8, %esi
	movq	%r14, %rdi
	vzeroupper
	callq	__ZN5alloc5alloc18handle_alloc_error17hbc0ab0ed90816c07E
LBB81_1096:
	movb	$1, %r15b
Ltmp335:
	leaq	_str.1(%rip), %rdi
	leaq	l___unnamed_47(%rip), %rdx
	movl	$28, %esi
	vzeroupper
	callq	__ZN4core9panicking5panic17h736ee47a631475c0E
Ltmp336:
	jmp	LBB81_1074
LBB81_1097:
	movb	$1, %r15b
Ltmp227:
	leaq	l___unnamed_20(%rip), %r8
	movl	$1, %ecx
	movq	-56(%rbp), %rdi
	movq	%r13, %rsi
	xorl	%edx, %edx
	vzeroupper
	callq	__ZN4core3str16slice_error_fail17h6b29707aec812690E
Ltmp228:
	jmp	LBB81_1074
LBB81_1098:
	movb	$1, %r15b
Ltmp252:
	leaq	l___unnamed_20(%rip), %r8
	movl	$1, %ecx
	movq	-56(%rbp), %rdi
	movq	%r13, %rsi
	xorl	%edx, %edx
	vzeroupper
	callq	__ZN4core3str16slice_error_fail17h6b29707aec812690E
Ltmp253:
	jmp	LBB81_1074
LBB81_1099:
	movb	$1, %r15b
Ltmp248:
	leaq	l___unnamed_20(%rip), %r8
	movl	$1, %ecx
	movq	-56(%rbp), %rdi
	movq	%r13, %rsi
	xorl	%edx, %edx
	vzeroupper
	callq	__ZN4core3str16slice_error_fail17h6b29707aec812690E
Ltmp249:
	jmp	LBB81_1074
LBB81_1100:
	movb	$1, %r15b
Ltmp261:
	leaq	_str.1(%rip), %rdi
	leaq	l___unnamed_48(%rip), %rdx
	movl	$28, %esi
	vzeroupper
	callq	__ZN4core9panicking5panic17h736ee47a631475c0E
Ltmp262:
	jmp	LBB81_1074
LBB81_1101:
	movb	$1, %r15b
Ltmp257:
	leaq	l___unnamed_20(%rip), %r8
	movq	%r12, %rdi
	movq	%rdx, %rsi
	xorl	%edx, %edx
	vzeroupper
	callq	__ZN4core3str16slice_error_fail17h6b29707aec812690E
Ltmp258:
	jmp	LBB81_1074
LBB81_1102:
	movb	$1, %r15b
Ltmp296:
	leaq	l___unnamed_20(%rip), %r8
	movl	$1, %ecx
	movq	-56(%rbp), %rdi
	movq	%r13, %rsi
	xorl	%edx, %edx
	vzeroupper
	callq	__ZN4core3str16slice_error_fail17h6b29707aec812690E
Ltmp297:
	jmp	LBB81_1074
LBB81_1103:
	movb	$1, %r15b
Ltmp263:
	leaq	l___unnamed_20(%rip), %r8
	movl	$2, %ecx
	movq	-56(%rbp), %rdi
	movq	%r13, %rsi
	xorl	%edx, %edx
	vzeroupper
	callq	__ZN4core3str16slice_error_fail17h6b29707aec812690E
Ltmp264:
	jmp	LBB81_1074
LBB81_1104:
	movb	$1, %r15b
Ltmp267:
	leaq	l___unnamed_20(%rip), %r8
	movl	$2, %ecx
	movq	-56(%rbp), %rdi
	movq	%r13, %rsi
	xorl	%edx, %edx
	vzeroupper
	callq	__ZN4core3str16slice_error_fail17h6b29707aec812690E
Ltmp268:
	jmp	LBB81_1074
LBB81_1105:
	movb	$1, %r15b
Ltmp288:
	leaq	_str.1(%rip), %rdi
	leaq	l___unnamed_49(%rip), %rdx
	movl	$28, %esi
	vzeroupper
	callq	__ZN4core9panicking5panic17h736ee47a631475c0E
Ltmp289:
	jmp	LBB81_1074
LBB81_1106:
	movb	$1, %r15b
Ltmp280:
	leaq	_str.1(%rip), %rdi
	leaq	l___unnamed_49(%rip), %rdx
	movl	$28, %esi
	vzeroupper
	callq	__ZN4core9panicking5panic17h736ee47a631475c0E
Ltmp281:
	jmp	LBB81_1074
LBB81_1107:
	movb	$1, %r15b
Ltmp282:
	leaq	_str.1(%rip), %rdi
	leaq	l___unnamed_49(%rip), %rdx
	movl	$28, %esi
	vzeroupper
	callq	__ZN4core9panicking5panic17h736ee47a631475c0E
Ltmp283:
	jmp	LBB81_1074
LBB81_1108:
	movb	$1, %r15b
Ltmp278:
	leaq	_str.1(%rip), %rdi
	leaq	l___unnamed_49(%rip), %rdx
	movl	$28, %esi
	vzeroupper
	callq	__ZN4core9panicking5panic17h736ee47a631475c0E
Ltmp279:
	jmp	LBB81_1074
LBB81_1109:
	movb	$1, %r15b
Ltmp276:
	leaq	_str.1(%rip), %rdi
	leaq	l___unnamed_49(%rip), %rdx
	movl	$28, %esi
	vzeroupper
	callq	__ZN4core9panicking5panic17h736ee47a631475c0E
Ltmp277:
	jmp	LBB81_1074
LBB81_1110:
	movb	$1, %r15b
Ltmp269:
	leaq	l___unnamed_20(%rip), %r8
	movq	%r12, %rdi
	movq	-152(%rbp), %rsi
	xorl	%edx, %edx
	movq	%rbx, %rcx
	vzeroupper
	callq	__ZN4core3str16slice_error_fail17h6b29707aec812690E
Ltmp270:
	jmp	LBB81_1074
LBB81_1111:
	movq	%r15, %rsi
	movb	$1, %r15b
Ltmp274:
	leaq	l___unnamed_20(%rip), %r8
	movq	%rbx, %rdi
	xorl	%edx, %edx
	movq	%r12, %rcx
	vzeroupper
	callq	__ZN4core3str16slice_error_fail17h6b29707aec812690E
Ltmp275:
	jmp	LBB81_1074
LBB81_1112:
	movb	$1, %r15b
Ltmp284:
	leaq	l___unnamed_20(%rip), %r8
	movq	%r12, %rdi
	movq	-152(%rbp), %rsi
	xorl	%edx, %edx
	movq	%rbx, %rcx
	vzeroupper
	callq	__ZN4core3str16slice_error_fail17h6b29707aec812690E
Ltmp285:
	jmp	LBB81_1074
LBB81_1113:
	movb	$1, %r15b
Ltmp290:
	leaq	l___unnamed_20(%rip), %r8
	movl	$2, %ecx
	movq	-56(%rbp), %rdi
	movq	%r13, %rsi
	xorl	%edx, %edx
	vzeroupper
	callq	__ZN4core3str16slice_error_fail17h6b29707aec812690E
Ltmp291:
	jmp	LBB81_1074
LBB81_1114:
	movb	$1, %r15b
Ltmp292:
	leaq	l___unnamed_20(%rip), %r8
	movl	$1, %ecx
	movq	%r12, %rdi
	movq	%rdx, %rsi
	xorl	%edx, %edx
	vzeroupper
	callq	__ZN4core3str16slice_error_fail17h6b29707aec812690E
Ltmp293:
	jmp	LBB81_1074
LBB81_1116:
	movb	$1, %r15b
Ltmp298:
	leaq	l___unnamed_20(%rip), %r8
	movq	%r12, %rdi
	movq	%rdx, %rsi
	xorl	%edx, %edx
	vzeroupper
	callq	__ZN4core3str16slice_error_fail17h6b29707aec812690E
Ltmp299:
	jmp	LBB81_1074
LBB81_1117:
	movb	$1, %r15b
Ltmp300:
	leaq	l___unnamed_20(%rip), %r8
	movl	$1, %ecx
	movq	%r12, %rdi
	movq	%rdx, %rsi
	xorl	%edx, %edx
	vzeroupper
	callq	__ZN4core3str16slice_error_fail17h6b29707aec812690E
Ltmp301:
	jmp	LBB81_1074
LBB81_1115:
	movb	$1, %r15b
Ltmp309:
	leaq	_str.1(%rip), %rdi
	leaq	l___unnamed_50(%rip), %rdx
	movl	$28, %esi
	vzeroupper
	callq	__ZN4core9panicking5panic17h736ee47a631475c0E
Ltmp310:
	jmp	LBB81_1074
LBB81_1119:
	movb	$1, %r15b
Ltmp307:
	leaq	_str.1(%rip), %rdi
	leaq	l___unnamed_51(%rip), %rdx
	movl	$28, %esi
	vzeroupper
	callq	__ZN4core9panicking5panic17h736ee47a631475c0E
Ltmp308:
	jmp	LBB81_1074
LBB81_1118:
	movb	$1, %r15b
Ltmp311:
	leaq	_str.1(%rip), %rdi
	leaq	l___unnamed_52(%rip), %rdx
	movl	$28, %esi
	vzeroupper
	callq	__ZN4core9panicking5panic17h736ee47a631475c0E
Ltmp312:
	jmp	LBB81_1074
LBB81_1120:
	movb	$1, %r15b
Ltmp313:
	leaq	l___unnamed_20(%rip), %r8
	movq	-56(%rbp), %rdi
	movq	%r13, %rsi
	xorl	%edx, %edx
	movq	%r12, %rcx
	vzeroupper
	callq	__ZN4core3str16slice_error_fail17h6b29707aec812690E
Ltmp314:
	jmp	LBB81_1074
LBB81_1121:
	movb	$1, %r15b
Ltmp315:
	leaq	_str.1(%rip), %rdi
	leaq	l___unnamed_53(%rip), %rdx
	movl	$28, %esi
	vzeroupper
	callq	__ZN4core9panicking5panic17h736ee47a631475c0E
Ltmp316:
	jmp	LBB81_1074
LBB81_1122:
	movb	$1, %r15b
Ltmp319:
	leaq	_str.1(%rip), %rdi
	leaq	l___unnamed_54(%rip), %rdx
	movl	$28, %esi
	vzeroupper
	callq	__ZN4core9panicking5panic17h736ee47a631475c0E
Ltmp320:
	jmp	LBB81_1074
LBB81_1123:
	movb	$1, %r15b
Ltmp317:
	leaq	_str.1(%rip), %rdi
	leaq	l___unnamed_55(%rip), %rdx
	movl	$28, %esi
	vzeroupper
	callq	__ZN4core9panicking5panic17h736ee47a631475c0E
Ltmp318:
	jmp	LBB81_1074
LBB81_1124:
	movb	$1, %r15b
Ltmp321:
	leaq	l___unnamed_20(%rip), %r8
	movq	-56(%rbp), %rdi
	movq	%r13, %rsi
	xorl	%edx, %edx
	movq	%r12, %rcx
	vzeroupper
	callq	__ZN4core3str16slice_error_fail17h6b29707aec812690E
Ltmp322:
	jmp	LBB81_1074
LBB81_1125:
	movb	$1, %r15b
Ltmp333:
	leaq	l___unnamed_20(%rip), %r8
	movl	$2, %ecx
	movq	-56(%rbp), %rdi
	movq	%r13, %rsi
	xorl	%edx, %edx
	vzeroupper
	callq	__ZN4core3str16slice_error_fail17h6b29707aec812690E
Ltmp334:
	jmp	LBB81_1074
LBB81_1126:
	movb	$1, %r15b
Ltmp349:
	leaq	_str.1(%rip), %rdi
	leaq	l___unnamed_56(%rip), %rdx
	movl	$28, %esi
	vzeroupper
	callq	__ZN4core9panicking5panic17h736ee47a631475c0E
Ltmp350:
	jmp	LBB81_1074
LBB81_1127:
	movb	$1, %r15b
Ltmp337:
	leaq	l___unnamed_20(%rip), %r8
	movq	-56(%rbp), %rdi
	xorl	%edx, %edx
	vzeroupper
	callq	__ZN4core3str16slice_error_fail17h6b29707aec812690E
Ltmp338:
	jmp	LBB81_1074
LBB81_1128:
	movb	$1, %r15b
Ltmp331:
	leaq	l___unnamed_20(%rip), %r8
	movl	$2, %ecx
	movq	-56(%rbp), %rdi
	movq	%r13, %rsi
	xorl	%edx, %edx
	vzeroupper
	callq	__ZN4core3str16slice_error_fail17h6b29707aec812690E
Ltmp332:
	jmp	LBB81_1074
LBB81_1129:
	movb	$1, %r15b
Ltmp329:
	leaq	l___unnamed_20(%rip), %r8
	movl	$2, %ecx
	movq	-56(%rbp), %rdi
	movq	%r13, %rsi
	xorl	%edx, %edx
	vzeroupper
	callq	__ZN4core3str16slice_error_fail17h6b29707aec812690E
Ltmp330:
	jmp	LBB81_1074
LBB81_1133:
	movb	$1, %r15b
Ltmp347:
	leaq	_str.0(%rip), %rdi
	leaq	l___unnamed_57(%rip), %rdx
	movl	$33, %esi
	vzeroupper
	callq	__ZN4core9panicking5panic17h736ee47a631475c0E
Ltmp348:
	jmp	LBB81_1074
LBB81_1130:
	movb	$1, %r15b
Ltmp345:
	leaq	-144(%rbp), %rdi
	movq	%rdx, %rsi
	vzeroupper
	callq	__ZN4core3str6traits103_$LT$impl$u20$core..slice..SliceIndex$LT$str$GT$$u20$for$u20$core..ops..range..RangeTo$LT$usize$GT$$GT$5index28_$u7b$$u7b$closure$u7d$$u7d$17hd0417117cc9a56d9E
Ltmp346:
	jmp	LBB81_1074
LBB81_1131:
	movl	$1, %esi
	movq	%rbx, %rdi
	callq	__ZN5alloc7raw_vec19RawVec$LT$T$C$A$GT$11allocate_in28_$u7b$$u7b$closure$u7d$$u7d$17hc3afb4a638250b1dE
LBB81_1132:
	movl	$1, %esi
	movq	%rbx, %rdi
	callq	__ZN5alloc5alloc18handle_alloc_error17hbc0ab0ed90816c07E
LBB81_1134:
Ltmp373:
	callq	__ZN11proc_macro23imp8mismatch17h8813b0d1751cf723E
Ltmp374:
	jmp	LBB81_1074
LBB81_1135:
Ltmp369:
	callq	__ZN11proc_macro23imp8mismatch17h8813b0d1751cf723E
Ltmp370:
	jmp	LBB81_1074
LBB81_1136:
Ltmp371:
	callq	__ZN11proc_macro23imp8mismatch17h8813b0d1751cf723E
Ltmp372:
	jmp	LBB81_1074
LBB81_1137:
Ltmp375:
	movq	%rax, %r14
	leaq	-240(%rbp), %rdi
	callq	__ZN4core3ptr13drop_in_place17h1202f0d8a0ebc27dE
	jmp	LBB81_1191
LBB81_1138:
Ltmp245:
	movq	%rax, %r14
	xorl	%r15d, %r15d
Ltmp246:
	leaq	-144(%rbp), %rdi
	callq	__ZN4core3ptr13drop_in_place17h0895f1861e129d5eE
Ltmp247:
	jmp	LBB81_1192
LBB81_1139:
Ltmp188:
	movq	%rax, %r14
	movb	$1, %r15b
Ltmp189:
	leaq	-320(%rbp), %rdi
	callq	__ZN4core3ptr13drop_in_place17h0f6c0b7d7e2392feE
Ltmp190:
	jmp	LBB81_1190
LBB81_1140:
Ltmp273:
	jmp	LBB81_1181
LBB81_1141:
Ltmp306:
	jmp	LBB81_1181
LBB81_1142:
Ltmp378:
	movq	%rax, %r14
Ltmp379:
	leaq	-144(%rbp), %rdi
	callq	__ZN4core3ptr13drop_in_place17h1202f0d8a0ebc27dE
Ltmp380:
	jmp	LBB81_1191
LBB81_1143:
Ltmp381:
	jmp	LBB81_1181
LBB81_1144:
Ltmp256:
	jmp	LBB81_1181
LBB81_1145:
Ltmp139:
	jmp	LBB81_1181
LBB81_1146:
Ltmp392:
	movq	%rax, %r14
	testb	%r15b, %r15b
	jne	LBB81_1193
	jmp	LBB81_1194
LBB81_1147:
Ltmp163:
	movq	%rax, %r14
Ltmp164:
	leaq	-144(%rbp), %rdi
	callq	__ZN4core3ptr13drop_in_place17h1202f0d8a0ebc27dE
Ltmp165:
	jmp	LBB81_1190
LBB81_1148:
Ltmp368:
	jmp	LBB81_1181
LBB81_1149:
Ltmp207:
	movq	%rax, %r14
Ltmp208:
	leaq	-144(%rbp), %rdi
	callq	__ZN4core3ptr13drop_in_place17h1202f0d8a0ebc27dE
Ltmp209:
	jmp	LBB81_1190
LBB81_1150:
Ltmp237:
	movq	%rax, %r14
Ltmp238:
	leaq	-144(%rbp), %rdi
	callq	__ZN4core3ptr13drop_in_place17h1202f0d8a0ebc27dE
Ltmp239:
	jmp	LBB81_1191
LBB81_1151:
Ltmp240:
	jmp	LBB81_1181
LBB81_1152:
Ltmp221:
	movq	%rax, %r14
Ltmp222:
	leaq	-144(%rbp), %rdi
	callq	__ZN4core3ptr13drop_in_place17h3bbbaaad5f52e1baE
Ltmp223:
	jmp	LBB81_1191
LBB81_1153:
Ltmp224:
	jmp	LBB81_1181
LBB81_1154:
Ltmp177:
	movq	%rax, %r14
	movb	$1, %r15b
Ltmp178:
	leaq	-144(%rbp), %rdi
	callq	__ZN4core3ptr13drop_in_place17h1202f0d8a0ebc27dE
Ltmp179:
	jmp	LBB81_1159
LBB81_1155:
Ltmp169:
	movq	%rax, %r14
	jmp	LBB81_1160
LBB81_1156:
Ltmp153:
	movq	%rax, %r14
Ltmp154:
	leaq	-144(%rbp), %rdi
	callq	__ZN4core3ptr13drop_in_place17h1202f0d8a0ebc27dE
Ltmp155:
	jmp	LBB81_1190
LBB81_1157:
Ltmp166:
	jmp	LBB81_1168
LBB81_1158:
Ltmp174:
	movq	%rax, %r14
LBB81_1159:
	movb	$1, %r15b
Ltmp180:
	leaq	-240(%rbp), %rdi
	callq	__ZN4core3ptr13drop_in_place17h1202f0d8a0ebc27dE
Ltmp181:
LBB81_1160:
	movq	%r12, %rdi
	callq	__ZN5alloc5alloc8box_free17h2352e2e884e90d60E
	jmp	LBB81_1190
LBB81_1161:
Ltmp231:
	movq	%rax, %r14
	.p2align	4, 0x90
LBB81_1162:
	testq	%r12, %r12
	je	LBB81_1165
	addq	$-48, %r12
Ltmp232:
	movq	%rbx, %rdi
	addq	$48, %rbx
	callq	__ZN4core3ptr13drop_in_place17h1202f0d8a0ebc27dE
Ltmp233:
	jmp	LBB81_1162
LBB81_1164:
Ltmp234:
	movq	%rax, %r14
LBB81_1165:
	movq	-424(%rbp), %rsi
	movq	%r15, %rdi
	callq	__ZN4core3ptr13drop_in_place17h80e60624eea5b72aE
	jmp	LBB81_1191
LBB81_1166:
Ltmp134:
	jmp	LBB81_1181
LBB81_1167:
Ltmp160:
LBB81_1168:
	movq	%rax, %r14
	jmp	LBB81_1190
LBB81_1169:
Ltmp395:
	movq	%rax, %r14
	.p2align	4, 0x90
LBB81_1170:
	testq	%r12, %r12
	je	LBB81_1178
	addq	$-48, %r12
Ltmp396:
	movq	%rbx, %rdi
	addq	$48, %rbx
	callq	__ZN4core3ptr13drop_in_place17h1202f0d8a0ebc27dE
Ltmp397:
	jmp	LBB81_1170
LBB81_1172:
Ltmp398:
	jmp	LBB81_1177
LBB81_1173:
Ltmp386:
	movq	%rax, %r14
	.p2align	4, 0x90
LBB81_1174:
	testq	%r12, %r12
	je	LBB81_1178
	addq	$-48, %r12
Ltmp387:
	movq	%rbx, %rdi
	addq	$48, %rbx
	callq	__ZN4core3ptr13drop_in_place17h1202f0d8a0ebc27dE
Ltmp388:
	jmp	LBB81_1174
LBB81_1176:
Ltmp389:
LBB81_1177:
	movq	%rax, %r14
LBB81_1178:
	movq	-184(%rbp), %rsi
	movq	%r15, %rdi
	callq	__ZN4core3ptr13drop_in_place17h80e60624eea5b72aE
	movq	%r14, %rdi
	callq	__Unwind_Resume
	ud2
LBB81_1179:
Ltmp146:
	jmp	LBB81_1181
LBB81_1180:
Ltmp105:
LBB81_1181:
	movq	%rax, %r14
	jmp	LBB81_1191
LBB81_1182:
Ltmp193:
	movq	%rax, %r14
Ltmp194:
	leaq	-240(%rbp), %rdi
	callq	__ZN4core3ptr13drop_in_place17h3bbbaaad5f52e1baE
Ltmp195:
	jmp	LBB81_1189
LBB81_1183:
Ltmp196:
	movq	%rax, %r14
	jmp	LBB81_1189
LBB81_1184:
Ltmp199:
	movq	%rax, %r14
	.p2align	4, 0x90
LBB81_1185:
	cmpq	%rbx, %r12
	je	LBB81_1188
Ltmp200:
	movq	%rbx, %rdi
	addq	$48, %rbx
	callq	__ZN4core3ptr13drop_in_place17h1202f0d8a0ebc27dE
Ltmp201:
	jmp	LBB81_1185
LBB81_1187:
Ltmp202:
	movq	%rax, %r14
LBB81_1188:
	leaq	-144(%rbp), %rdi
	callq	__ZN4core3ptr13drop_in_place17he2b3add8803a1fd9E
LBB81_1189:
Ltmp203:
	leaq	-368(%rbp), %rdi
	callq	__ZN4core3ptr13drop_in_place17he95080349802e291E
Ltmp204:
LBB81_1190:
	movb	$1, %r15b
Ltmp217:
	leaq	-288(%rbp), %rdi
	callq	__ZN4core3ptr13drop_in_place17h0f6c0b7d7e2392feE
Ltmp218:
LBB81_1191:
	movb	$1, %r15b
LBB81_1192:
	leaq	-408(%rbp), %rdi
	callq	__ZN4core3ptr13drop_in_place17h69741f16530d95a1E
	testb	%r15b, %r15b
	je	LBB81_1194
LBB81_1193:
	leaq	-192(%rbp), %rdi
	callq	__ZN4core3ptr13drop_in_place17h0f6c0b7d7e2392feE
LBB81_1194:
	movq	%r14, %rdi
	callq	__Unwind_Resume
	ud2
LBB81_1195:
Ltmp216:
	jmp	LBB81_1168
LBB81_1196:
Ltmp351:
	movq	%rax, %r14
	leaq	-408(%rbp), %rdi
	callq	__ZN4core3ptr13drop_in_place17h69741f16530d95a1E
	testb	%r15b, %r15b
	jne	LBB81_1193
	jmp	LBB81_1194
Lfunc_end17:
	.cfi_endproc
	.p2align	2, 0x90
	.data_region jt32
.set L81_0_set_154, LBB81_154-LJTI81_0
.set L81_0_set_157, LBB81_157-LJTI81_0
.set L81_0_set_155, LBB81_155-LJTI81_0
.set L81_0_set_156, LBB81_156-LJTI81_0
LJTI81_0:
	.long	L81_0_set_154
	.long	L81_0_set_157
	.long	L81_0_set_155
	.long	L81_0_set_156
.set L81_1_set_159, LBB81_159-LJTI81_1
.set L81_1_set_162, LBB81_162-LJTI81_1
.set L81_1_set_160, LBB81_160-LJTI81_1
.set L81_1_set_161, LBB81_161-LJTI81_1
LJTI81_1:
	.long	L81_1_set_159
	.long	L81_1_set_162
	.long	L81_1_set_160
	.long	L81_1_set_161
.set L81_2_set_185, LBB81_185-LJTI81_2
.set L81_2_set_187, LBB81_187-LJTI81_2
.set L81_2_set_182, LBB81_182-LJTI81_2
.set L81_2_set_186, LBB81_186-LJTI81_2
LJTI81_2:
	.long	L81_2_set_185
	.long	L81_2_set_187
	.long	L81_2_set_182
	.long	L81_2_set_186
.set L81_3_set_210, LBB81_210-LJTI81_3
.set L81_3_set_249, LBB81_249-LJTI81_3
.set L81_3_set_215, LBB81_215-LJTI81_3
.set L81_3_set_225, LBB81_225-LJTI81_3
.set L81_3_set_224, LBB81_224-LJTI81_3
LJTI81_3:
	.long	L81_3_set_210
	.long	L81_3_set_249
	.long	L81_3_set_215
	.long	L81_3_set_249
	.long	L81_3_set_249
	.long	L81_3_set_249
	.long	L81_3_set_249
	.long	L81_3_set_249
	.long	L81_3_set_249
	.long	L81_3_set_249
	.long	L81_3_set_249
	.long	L81_3_set_249
	.long	L81_3_set_249
	.long	L81_3_set_249
	.long	L81_3_set_249
	.long	L81_3_set_249
	.long	L81_3_set_249
	.long	L81_3_set_249
	.long	L81_3_set_249
	.long	L81_3_set_249
	.long	L81_3_set_249
	.long	L81_3_set_249
	.long	L81_3_set_249
	.long	L81_3_set_249
	.long	L81_3_set_249
	.long	L81_3_set_249
	.long	L81_3_set_249
	.long	L81_3_set_249
	.long	L81_3_set_249
	.long	L81_3_set_249
	.long	L81_3_set_249
	.long	L81_3_set_249
	.long	L81_3_set_225
	.long	L81_3_set_249
	.long	L81_3_set_224
.set L81_4_set_725, LBB81_725-LJTI81_4
.set L81_4_set_595, LBB81_595-LJTI81_4
.set L81_4_set_735, LBB81_735-LJTI81_4
.set L81_4_set_739, LBB81_739-LJTI81_4
LJTI81_4:
	.long	L81_4_set_725
	.long	L81_4_set_595
	.long	L81_4_set_595
	.long	L81_4_set_595
	.long	L81_4_set_595
	.long	L81_4_set_725
	.long	L81_4_set_595
	.long	L81_4_set_595
	.long	L81_4_set_595
	.long	L81_4_set_595
	.long	L81_4_set_595
	.long	L81_4_set_595
	.long	L81_4_set_595
	.long	L81_4_set_595
	.long	L81_4_set_725
	.long	L81_4_set_595
	.long	L81_4_set_595
	.long	L81_4_set_595
	.long	L81_4_set_595
	.long	L81_4_set_595
	.long	L81_4_set_595
	.long	L81_4_set_595
	.long	L81_4_set_595
	.long	L81_4_set_595
	.long	L81_4_set_595
	.long	L81_4_set_595
	.long	L81_4_set_595
	.long	L81_4_set_595
	.long	L81_4_set_595
	.long	L81_4_set_595
	.long	L81_4_set_595
	.long	L81_4_set_595
	.long	L81_4_set_595
	.long	L81_4_set_595
	.long	L81_4_set_595
	.long	L81_4_set_595
	.long	L81_4_set_595
	.long	L81_4_set_595
	.long	L81_4_set_595
	.long	L81_4_set_595
	.long	L81_4_set_595
	.long	L81_4_set_595
	.long	L81_4_set_595
	.long	L81_4_set_595
	.long	L81_4_set_595
	.long	L81_4_set_595
	.long	L81_4_set_595
	.long	L81_4_set_595
	.long	L81_4_set_595
	.long	L81_4_set_595
	.long	L81_4_set_595
	.long	L81_4_set_595
	.long	L81_4_set_595
	.long	L81_4_set_595
	.long	L81_4_set_595
	.long	L81_4_set_595
	.long	L81_4_set_595
	.long	L81_4_set_595
	.long	L81_4_set_725
	.long	L81_4_set_595
	.long	L81_4_set_595
	.long	L81_4_set_595
	.long	L81_4_set_595
	.long	L81_4_set_595
	.long	L81_4_set_595
	.long	L81_4_set_595
	.long	L81_4_set_595
	.long	L81_4_set_595
	.long	L81_4_set_595
	.long	L81_4_set_595
	.long	L81_4_set_595
	.long	L81_4_set_595
	.long	L81_4_set_595
	.long	L81_4_set_595
	.long	L81_4_set_595
	.long	L81_4_set_595
	.long	L81_4_set_725
	.long	L81_4_set_595
	.long	L81_4_set_595
	.long	L81_4_set_595
	.long	L81_4_set_725
	.long	L81_4_set_595
	.long	L81_4_set_725
	.long	L81_4_set_735
	.long	L81_4_set_595
	.long	L81_4_set_595
	.long	L81_4_set_739
.set L81_5_set_920, LBB81_920-LJTI81_5
.set L81_5_set_923, LBB81_923-LJTI81_5
.set L81_5_set_921, LBB81_921-LJTI81_5
.set L81_5_set_922, LBB81_922-LJTI81_5
LJTI81_5:
	.long	L81_5_set_920
	.long	L81_5_set_923
	.long	L81_5_set_921
	.long	L81_5_set_922
	.end_data_region
	.section	__TEXT,__gcc_except_tab
	.p2align	2
GCC_except_table81:
Lexception17:
	.byte	255
	.byte	255
	.byte	1
	.uleb128 Lcst_end17-Lcst_begin17
Lcst_begin17:
	.uleb128 Ltmp101-Lfunc_begin17
	.uleb128 Ltmp104-Ltmp101
	.uleb128 Ltmp105-Lfunc_begin17
	.byte	0
	.uleb128 Ltmp112-Lfunc_begin17
	.uleb128 Ltmp133-Ltmp112
	.uleb128 Ltmp134-Lfunc_begin17
	.byte	0
	.uleb128 Ltmp144-Lfunc_begin17
	.uleb128 Ltmp145-Ltmp144
	.uleb128 Ltmp146-Lfunc_begin17
	.byte	0
	.uleb128 Ltmp137-Lfunc_begin17
	.uleb128 Ltmp138-Ltmp137
	.uleb128 Ltmp139-Lfunc_begin17
	.byte	0
	.uleb128 Ltmp147-Lfunc_begin17
	.uleb128 Ltmp150-Ltmp147
	.uleb128 Ltmp160-Lfunc_begin17
	.byte	0
	.uleb128 Ltmp151-Lfunc_begin17
	.uleb128 Ltmp152-Ltmp151
	.uleb128 Ltmp153-Lfunc_begin17
	.byte	0
	.uleb128 Ltmp156-Lfunc_begin17
	.uleb128 Ltmp159-Ltmp156
	.uleb128 Ltmp160-Lfunc_begin17
	.byte	0
	.uleb128 Ltmp161-Lfunc_begin17
	.uleb128 Ltmp162-Ltmp161
	.uleb128 Ltmp163-Lfunc_begin17
	.byte	0
	.uleb128 Ltmp167-Lfunc_begin17
	.uleb128 Ltmp168-Ltmp167
	.uleb128 Ltmp169-Lfunc_begin17
	.byte	0
	.uleb128 Ltmp170-Lfunc_begin17
	.uleb128 Ltmp173-Ltmp170
	.uleb128 Ltmp174-Lfunc_begin17
	.byte	0
	.uleb128 Ltmp175-Lfunc_begin17
	.uleb128 Ltmp176-Ltmp175
	.uleb128 Ltmp177-Lfunc_begin17
	.byte	0
	.uleb128 Ltmp191-Lfunc_begin17
	.uleb128 Ltmp192-Ltmp191
	.uleb128 Ltmp193-Lfunc_begin17
	.byte	0
	.uleb128 Ltmp197-Lfunc_begin17
	.uleb128 Ltmp198-Ltmp197
	.uleb128 Ltmp199-Lfunc_begin17
	.byte	0
	.uleb128 Ltmp205-Lfunc_begin17
	.uleb128 Ltmp206-Ltmp205
	.uleb128 Ltmp207-Lfunc_begin17
	.byte	0
	.uleb128 Ltmp219-Lfunc_begin17
	.uleb128 Ltmp220-Ltmp219
	.uleb128 Ltmp221-Lfunc_begin17
	.byte	0
	.uleb128 Ltmp220-Lfunc_begin17
	.uleb128 Ltmp120-Ltmp220
	.byte	0
	.byte	0
	.uleb128 Ltmp120-Lfunc_begin17
	.uleb128 Ltmp121-Ltmp120
	.uleb128 Ltmp134-Lfunc_begin17
	.byte	0
	.uleb128 Ltmp235-Lfunc_begin17
	.uleb128 Ltmp236-Ltmp235
	.uleb128 Ltmp237-Lfunc_begin17
	.byte	0
	.uleb128 Ltmp254-Lfunc_begin17
	.uleb128 Ltmp255-Ltmp254
	.uleb128 Ltmp256-Lfunc_begin17
	.byte	0
	.uleb128 Ltmp250-Lfunc_begin17
	.uleb128 Ltmp266-Ltmp250
	.uleb128 Ltmp368-Lfunc_begin17
	.byte	0
	.uleb128 Ltmp271-Lfunc_begin17
	.uleb128 Ltmp272-Ltmp271
	.uleb128 Ltmp273-Lfunc_begin17
	.byte	0
	.uleb128 Ltmp286-Lfunc_begin17
	.uleb128 Ltmp303-Ltmp286
	.uleb128 Ltmp368-Lfunc_begin17
	.byte	0
	.uleb128 Ltmp304-Lfunc_begin17
	.uleb128 Ltmp305-Ltmp304
	.uleb128 Ltmp306-Lfunc_begin17
	.byte	0
	.uleb128 Ltmp325-Lfunc_begin17
	.uleb128 Ltmp359-Ltmp325
	.uleb128 Ltmp368-Lfunc_begin17
	.byte	0
	.uleb128 Ltmp359-Lfunc_begin17
	.uleb128 Ltmp376-Ltmp359
	.byte	0
	.byte	0
	.uleb128 Ltmp376-Lfunc_begin17
	.uleb128 Ltmp377-Ltmp376
	.uleb128 Ltmp378-Lfunc_begin17
	.byte	0
	.uleb128 Ltmp229-Lfunc_begin17
	.uleb128 Ltmp230-Ltmp229
	.uleb128 Ltmp231-Lfunc_begin17
	.byte	0
	.uleb128 Ltmp382-Lfunc_begin17
	.uleb128 Ltmp383-Ltmp382
	.uleb128 Ltmp392-Lfunc_begin17
	.byte	0
	.uleb128 Ltmp384-Lfunc_begin17
	.uleb128 Ltmp385-Ltmp384
	.uleb128 Ltmp386-Lfunc_begin17
	.byte	0
	.uleb128 Ltmp390-Lfunc_begin17
	.uleb128 Ltmp391-Ltmp390
	.uleb128 Ltmp392-Lfunc_begin17
	.byte	0
	.uleb128 Ltmp393-Lfunc_begin17
	.uleb128 Ltmp394-Ltmp393
	.uleb128 Ltmp395-Lfunc_begin17
	.byte	0
	.uleb128 Ltmp225-Lfunc_begin17
	.uleb128 Ltmp141-Ltmp225
	.uleb128 Ltmp351-Lfunc_begin17
	.byte	0
	.uleb128 Ltmp184-Lfunc_begin17
	.uleb128 Ltmp187-Ltmp184
	.uleb128 Ltmp188-Lfunc_begin17
	.byte	0
	.uleb128 Ltmp214-Lfunc_begin17
	.uleb128 Ltmp213-Ltmp214
	.uleb128 Ltmp216-Lfunc_begin17
	.byte	0
	.uleb128 Ltmp243-Lfunc_begin17
	.uleb128 Ltmp244-Ltmp243
	.uleb128 Ltmp245-Lfunc_begin17
	.byte	0
	.uleb128 Ltmp241-Lfunc_begin17
	.uleb128 Ltmp346-Ltmp241
	.uleb128 Ltmp351-Lfunc_begin17
	.byte	0
	.uleb128 Ltmp373-Lfunc_begin17
	.uleb128 Ltmp372-Ltmp373
	.uleb128 Ltmp375-Lfunc_begin17
	.byte	0
	.uleb128 Ltmp372-Lfunc_begin17
	.uleb128 Ltmp246-Ltmp372
	.byte	0
	.byte	0
	.uleb128 Ltmp246-Lfunc_begin17
	.uleb128 Ltmp190-Ltmp246
	.uleb128 Ltmp351-Lfunc_begin17
	.byte	0
	.uleb128 Ltmp379-Lfunc_begin17
	.uleb128 Ltmp380-Ltmp379
	.uleb128 Ltmp381-Lfunc_begin17
	.byte	0
	.uleb128 Ltmp164-Lfunc_begin17
	.uleb128 Ltmp165-Ltmp164
	.uleb128 Ltmp166-Lfunc_begin17
	.byte	0
	.uleb128 Ltmp208-Lfunc_begin17
	.uleb128 Ltmp209-Ltmp208
	.uleb128 Ltmp216-Lfunc_begin17
	.byte	0
	.uleb128 Ltmp238-Lfunc_begin17
	.uleb128 Ltmp239-Ltmp238
	.uleb128 Ltmp240-Lfunc_begin17
	.byte	0
	.uleb128 Ltmp222-Lfunc_begin17
	.uleb128 Ltmp223-Ltmp222
	.uleb128 Ltmp224-Lfunc_begin17
	.byte	0
	.uleb128 Ltmp178-Lfunc_begin17
	.uleb128 Ltmp179-Ltmp178
	.uleb128 Ltmp351-Lfunc_begin17
	.byte	0
	.uleb128 Ltmp154-Lfunc_begin17
	.uleb128 Ltmp155-Ltmp154
	.uleb128 Ltmp166-Lfunc_begin17
	.byte	0
	.uleb128 Ltmp180-Lfunc_begin17
	.uleb128 Ltmp181-Ltmp180
	.uleb128 Ltmp351-Lfunc_begin17
	.byte	0
	.uleb128 Ltmp232-Lfunc_begin17
	.uleb128 Ltmp233-Ltmp232
	.uleb128 Ltmp234-Lfunc_begin17
	.byte	0
	.uleb128 Ltmp396-Lfunc_begin17
	.uleb128 Ltmp397-Ltmp396
	.uleb128 Ltmp398-Lfunc_begin17
	.byte	0
	.uleb128 Ltmp387-Lfunc_begin17
	.uleb128 Ltmp388-Ltmp387
	.uleb128 Ltmp389-Lfunc_begin17
	.byte	0
	.uleb128 Ltmp388-Lfunc_begin17
	.uleb128 Ltmp194-Ltmp388
	.byte	0
	.byte	0
	.uleb128 Ltmp194-Lfunc_begin17
	.uleb128 Ltmp195-Ltmp194
	.uleb128 Ltmp196-Lfunc_begin17
	.byte	0
	.uleb128 Ltmp200-Lfunc_begin17
	.uleb128 Ltmp201-Ltmp200
	.uleb128 Ltmp202-Lfunc_begin17
	.byte	0
	.uleb128 Ltmp203-Lfunc_begin17
	.uleb128 Ltmp204-Ltmp203
	.uleb128 Ltmp216-Lfunc_begin17
	.byte	0
	.uleb128 Ltmp217-Lfunc_begin17
	.uleb128 Ltmp218-Ltmp217
	.uleb128 Ltmp351-Lfunc_begin17
	.byte	0
	.uleb128 Ltmp218-Lfunc_begin17
	.uleb128 Lfunc_end17-Ltmp218
	.byte	0
	.byte	0
Lcst_end17:
	.p2align	2

	.section	__TEXT,__text,regular,pure_instructions
	.p2align	4, 0x90
__ZN11proc_macro25parse5ident17h024febf5b74e0e64E:
Lfunc_begin18:
	.cfi_startproc
	.cfi_personality 155, _rust_eh_personality
	.cfi_lsda 16, Lexception18
	pushq	%rbp
	.cfi_def_cfa_offset 16
	.cfi_offset %rbp, -16
	movq	%rsp, %rbp
	.cfi_def_cfa_register %rbp
	pushq	%r15
	pushq	%r14
	pushq	%r13
	pushq	%r12
	pushq	%rbx
	subq	$104, %rsp
	.cfi_offset %rbx, -56
	.cfi_offset %r12, -48
	.cfi_offset %r13, -40
	.cfi_offset %r14, -32
	.cfi_offset %r15, -24
	movq	%rdi, %r14
	cmpq	$2, %rdx
	jb	LBB82_1
	leaq	l___unnamed_4(%rip), %rax
	cmpq	%rax, %rsi
	je	LBB82_4
	movzwl	(%rsi), %eax
	cmpl	$9074, %eax
	je	LBB82_4
LBB82_1:
	xorl	%eax, %eax
	xorl	%r13d, %r13d
LBB82_6:
	addq	%rax, %rsi
	subq	%rax, %rdx
	leaq	-128(%rbp), %rbx
	movq	%rbx, %rdi
	callq	__ZN11proc_macro25parse13ident_not_raw17h1f6f0b47a9be1208E
	movq	-128(%rbp), %rcx
	testq	%rcx, %rcx
	je	LBB82_40
	movq	-120(%rbp), %rdx
	movq	-112(%rbp), %r15
	movq	-104(%rbp), %r12
	testb	%r13b, %r13b
	je	LBB82_14
	cmpq	$1, %r12
	jne	LBB82_11
	leaq	l___unnamed_58(%rip), %rax
	cmpq	%rax, %r15
	je	LBB82_40
	cmpb	$95, (%r15)
	jne	LBB82_11
LBB82_40:
	movl	$2, 16(%r14)
	jmp	LBB82_41
LBB82_14:
	movq	%rdx, -64(%rbp)
	movq	%rcx, %r13
	callq	__ZN11proc_macro29detection17inside_proc_macro17h1c8c95cd29726299E
	testb	%al, %al
	je	LBB82_16
	callq	__ZN10proc_macro4Span9call_site17hd72cd07d37a92d33E
	testl	%eax, %eax
	je	LBB82_16
	leaq	-128(%rbp), %rbx
	movq	%r15, %rdi
	movq	%r12, %rsi
	movl	%eax, %edx
	callq	__ZN10proc_macro5Ident3new17h35ba5d9e62c99832E
	xorl	%ecx, %ecx
	jmp	LBB82_18
LBB82_4:
	movb	$1, %r13b
	movl	$2, %eax
	cmpq	$2, %rdx
	je	LBB82_6
	cmpb	$-65, 2(%rsi)
	jg	LBB82_6
	leaq	l___unnamed_20(%rip), %r8
	movl	$2, %ecx
	movq	%rsi, %rdi
	movq	%rdx, %rsi
	xorl	%edx, %edx
	callq	__ZN4core3str16slice_error_fail17h6b29707aec812690E
LBB82_16:
	leaq	-128(%rbp), %rdi
	movq	%r15, %rsi
	movq	%r12, %rdx
	xorl	%ecx, %ecx
	callq	__ZN11proc_macro28fallback5Ident4_new17h9b5d3237ae076bf2E
	movl	$1, %ecx
LBB82_18:
	vmovups	(%rbx), %ymm0
	vmovups	%ymm0, -96(%rbp)
	movq	%r13, (%r14)
	movq	-64(%rbp), %rdx
	movq	%rdx, 8(%r14)
	movl	%ecx, 16(%r14)
	movl	%eax, 20(%r14)
	jmp	LBB82_19
LBB82_11:
	movq	%rdx, -64(%rbp)
	movq	%rcx, -136(%rbp)
	callq	__ZN11proc_macro29detection17inside_proc_macro17h1c8c95cd29726299E
	testb	%al, %al
	je	LBB82_13
	callq	__ZN10proc_macro4Span9call_site17hd72cd07d37a92d33E
	testl	%eax, %eax
	je	LBB82_13
	movl	%eax, %ebx
	movq	%r15, %rdi
	movq	%r12, %rsi
	callq	__ZN62_$LT$proc_macro..TokenStream$u20$as$u20$core..str..FromStr$GT$8from_str17h15a5029f504d4e6eE
	testl	%eax, %eax
	je	LBB82_43
	movl	%eax, %edi
	callq	__ZN10proc_macro12token_stream95_$LT$impl$u20$core..iter..traits..collect..IntoIterator$u20$for$u20$proc_macro..TokenStream$GT$9into_iter17h590f689fc0b47be5E
	movl	%eax, -48(%rbp)
Ltmp399:
	leaq	-48(%rbp), %rdi
	callq	__ZN93_$LT$proc_macro..token_stream..IntoIter$u20$as$u20$core..iter..traits..iterator..Iterator$GT$4next17hbe6d4da34371639dE
Ltmp400:
	movq	%rax, -96(%rbp)
	cmpl	$4, %eax
	je	LBB82_23
	cmpl	$1, %eax
	jne	LBB82_23
	shrq	$32, %rax
	movl	%eax, -56(%rbp)
Ltmp401:
	leaq	-56(%rbp), %rdi
	movl	%ebx, %esi
	callq	__ZN10proc_macro5Ident8set_span17h81d7b9e4fd93b6a9E
Ltmp402:
	movl	-56(%rbp), %r15d
	movl	-96(%rbp), %eax
	cmpq	$1, %rax
	je	LBB82_29
	cmpl	$4, %eax
	je	LBB82_29
	leaq	-1(%rax), %rcx
	cmpq	$2, %rcx
	jb	LBB82_29
	leaq	-92(%rbp), %rdi
	testq	%rax, %rax
	jne	LBB82_34
Ltmp403:
	callq	__ZN75_$LT$proc_macro..bridge..client..Group$u20$as$u20$core..ops..drop..Drop$GT$4drop17he3c88ef672dde681E
Ltmp404:
	jmp	LBB82_29
LBB82_13:
	leaq	-128(%rbp), %r13
	leaq	-128(%rbp), %rdi
	movl	$1, %ebx
	movq	%r15, %rsi
	movq	%r12, %rdx
	movl	$1, %ecx
	callq	__ZN11proc_macro28fallback5Ident4_new17h9b5d3237ae076bf2E
	jmp	LBB82_30
LBB82_34:
Ltmp405:
	callq	__ZN77_$LT$proc_macro..bridge..client..Literal$u20$as$u20$core..ops..drop..Drop$GT$4drop17he2aea19d6a82f53dE
Ltmp406:
LBB82_29:
	leaq	-128(%rbp), %r13
	leaq	-48(%rbp), %rdi
	callq	__ZN85_$LT$proc_macro..bridge..client..TokenStreamIter$u20$as$u20$core..ops..drop..Drop$GT$4drop17h895c7a3fc27312aaE
	xorl	%ebx, %ebx
LBB82_30:
	vmovups	(%r13), %ymm0
	vmovups	%ymm0, -96(%rbp)
	movq	-136(%rbp), %rax
	movq	%rax, (%r14)
	movq	-64(%rbp), %rax
	movq	%rax, 8(%r14)
	movl	%ebx, 16(%r14)
	movl	%r15d, 20(%r14)
LBB82_19:
	vmovups	-96(%rbp), %ymm0
	vmovups	%ymm0, 24(%r14)
LBB82_41:
	addq	$104, %rsp
	popq	%rbx
	popq	%r12
	popq	%r13
	popq	%r14
	popq	%r15
	popq	%rbp
	vzeroupper
	retq
LBB82_23:
Ltmp408:
	leaq	l___unnamed_59(%rip), %rdi
	leaq	l___unnamed_60(%rip), %rdx
	movl	$14, %esi
	callq	__ZN3std9panicking11begin_panic17hc0253a378263cbc4E
Ltmp409:
	ud2
LBB82_43:
	leaq	l___unnamed_61(%rip), %rdi
	leaq	l___unnamed_62(%rip), %rcx
	leaq	l___unnamed_63(%rip), %r8
	leaq	-96(%rbp), %rdx
	movl	$43, %esi
	callq	__ZN4core6result13unwrap_failed17hb5a510096a5fc85fE
LBB82_37:
Ltmp410:
	movq	%rax, %rbx
	movl	-96(%rbp), %eax
	cmpl	$1, %eax
	je	LBB82_36
	cmpl	$4, %eax
	je	LBB82_36
	leaq	-96(%rbp), %rdi
	callq	__ZN4core3ptr13drop_in_place17h912714cd2f86fe4fE
	jmp	LBB82_36
LBB82_35:
Ltmp407:
	movq	%rax, %rbx
LBB82_36:
	leaq	-48(%rbp), %rdi
	callq	__ZN4core3ptr13drop_in_place17h5d9a00d7b0eef662E
	movq	%rbx, %rdi
	callq	__Unwind_Resume
	ud2
Lfunc_end18:
	.cfi_endproc
	.section	__TEXT,__gcc_except_tab
	.p2align	2
GCC_except_table82:
Lexception18:
	.byte	255
	.byte	255
	.byte	1
	.uleb128 Lcst_end18-Lcst_begin18
Lcst_begin18:
	.uleb128 Lfunc_begin18-Lfunc_begin18
	.uleb128 Ltmp399-Lfunc_begin18
	.byte	0
	.byte	0
	.uleb128 Ltmp399-Lfunc_begin18
	.uleb128 Ltmp400-Ltmp399
	.uleb128 Ltmp407-Lfunc_begin18
	.byte	0
	.uleb128 Ltmp401-Lfunc_begin18
	.uleb128 Ltmp402-Ltmp401
	.uleb128 Ltmp410-Lfunc_begin18
	.byte	0
	.uleb128 Ltmp403-Lfunc_begin18
	.uleb128 Ltmp404-Ltmp403
	.uleb128 Ltmp407-Lfunc_begin18
	.byte	0
	.uleb128 Ltmp404-Lfunc_begin18
	.uleb128 Ltmp405-Ltmp404
	.byte	0
	.byte	0
	.uleb128 Ltmp405-Lfunc_begin18
	.uleb128 Ltmp406-Ltmp405
	.uleb128 Ltmp407-Lfunc_begin18
	.byte	0
	.uleb128 Ltmp406-Lfunc_begin18
	.uleb128 Ltmp408-Ltmp406
	.byte	0
	.byte	0
	.uleb128 Ltmp408-Lfunc_begin18
	.uleb128 Ltmp409-Ltmp408
	.uleb128 Ltmp410-Lfunc_begin18
	.byte	0
	.uleb128 Ltmp409-Lfunc_begin18
	.uleb128 Lfunc_end18-Ltmp409
	.byte	0
	.byte	0
Lcst_end18:
	.p2align	2

	.section	__TEXT,__text,regular,pure_instructions
	.p2align	4, 0x90
__ZN11proc_macro25parse13ident_not_raw17h1f6f0b47a9be1208E:
	.cfi_startproc
	pushq	%rbp
	.cfi_def_cfa_offset 16
	.cfi_offset %rbp, -16
	movq	%rsp, %rbp
	.cfi_def_cfa_register %rbp
	pushq	%r15
	pushq	%r14
	pushq	%r13
	pushq	%r12
	pushq	%rbx
	subq	$40, %rsp
	.cfi_offset %rbx, -56
	.cfi_offset %r12, -48
	.cfi_offset %r13, -40
	.cfi_offset %r14, -32
	.cfi_offset %r15, -24
	movq	%rdi, %rbx
	testq	%rdx, %rdx
	je	LBB83_24
	movq	%rdx, %r12
	movq	%rsi, %r14
	leaq	(%rsi,%rdx), %r13
	leaq	1(%rsi), %r15
	movzbl	(%rsi), %edi
	testb	%dil, %dil
	jns	LBB83_8
	cmpq	$1, %r12
	jne	LBB83_4
	xorl	%eax, %eax
	movq	%r13, %rdx
	movl	%edi, %ecx
	andl	$31, %ecx
	cmpb	$-33, %dil
	ja	LBB83_15
LBB83_6:
	shll	$6, %ecx
	jmp	LBB83_7
LBB83_4:
	leaq	2(%r14), %r15
	movzbl	1(%r14), %eax
	andl	$63, %eax
	movq	%r15, %rdx
	movl	%edi, %ecx
	andl	$31, %ecx
	cmpb	$-33, %dil
	jbe	LBB83_6
LBB83_15:
	cmpq	%r13, %rdx
	je	LBB83_16
	movzbl	(%rdx), %esi
	incq	%rdx
	andl	$63, %esi
	movq	%rdx, %r15
	shll	$6, %eax
	orl	%esi, %eax
	cmpb	$-16, %dil
	jb	LBB83_19
LBB83_20:
	cmpq	%r13, %rdx
	je	LBB83_21
	movzbl	(%rdx), %esi
	incq	%rdx
	andl	$63, %esi
	movq	%rdx, %r15
	jmp	LBB83_23
LBB83_16:
	xorl	%esi, %esi
	movq	%r13, %rdx
	shll	$6, %eax
	orl	%esi, %eax
	cmpb	$-16, %dil
	jae	LBB83_20
LBB83_19:
	shll	$12, %ecx
LBB83_7:
	orl	%ecx, %eax
	movl	%eax, %edi
LBB83_8:
	leal	-97(%rdi), %eax
	cmpl	$26, %eax
	jae	LBB83_9
LBB83_13:
	movq	%rbx, -56(%rbp)
	movb	$1, %cl
	cmpq	%r15, %r13
	je	LBB83_14
	movq	%r15, %rbx
	movq	%r14, -48(%rbp)
	subq	%r14, %rbx
	jmp	LBB83_26
	.p2align	4, 0x90
LBB83_50:
	subq	%r14, %rbx
	addq	%r15, %rbx
	cmpq	%r15, %r13
	je	LBB83_42
LBB83_26:
	movq	%r15, %r14
	leaq	1(%r15), %rcx
	movzbl	(%r15), %edi
	testb	%dil, %dil
	js	LBB83_27
	movq	%rcx, %r15
	leal	-97(%rdi), %eax
	cmpl	$26, %eax
	jb	LBB83_50
	jmp	LBB83_45
	.p2align	4, 0x90
LBB83_27:
	cmpq	%r13, %rcx
	je	LBB83_28
	movzbl	1(%r15), %eax
	addq	$2, %r15
	andl	$63, %eax
	movq	%r15, %rdx
	movl	%edi, %ecx
	andl	$31, %ecx
	cmpb	$-33, %dil
	jbe	LBB83_31
LBB83_33:
	cmpq	%r13, %rdx
	je	LBB83_34
	movzbl	(%rdx), %esi
	incq	%rdx
	andl	$63, %esi
	movq	%rdx, %r15
	shll	$6, %eax
	orl	%esi, %eax
	cmpb	$-16, %dil
	jb	LBB83_37
LBB83_38:
	cmpq	%r13, %rdx
	je	LBB83_39
	movzbl	(%rdx), %esi
	incq	%rdx
	andl	$63, %esi
	movq	%rdx, %r15
	jmp	LBB83_41
LBB83_28:
	xorl	%eax, %eax
	movq	%rcx, %r15
	movq	%r13, %rdx
	movl	%edi, %ecx
	andl	$31, %ecx
	cmpb	$-33, %dil
	ja	LBB83_33
LBB83_31:
	shll	$6, %ecx
	jmp	LBB83_32
LBB83_34:
	xorl	%esi, %esi
	movq	%r13, %rdx
	shll	$6, %eax
	orl	%esi, %eax
	cmpb	$-16, %dil
	jae	LBB83_38
LBB83_37:
	shll	$12, %ecx
LBB83_32:
	orl	%ecx, %eax
	movl	%eax, %edi
	leal	-97(%rdi), %eax
	cmpl	$26, %eax
	jb	LBB83_50
	jmp	LBB83_45
LBB83_39:
	xorl	%esi, %esi
LBB83_41:
	andl	$7, %ecx
	shll	$18, %ecx
	shll	$6, %eax
	orl	%ecx, %eax
	orl	%esi, %eax
	movl	%eax, %edi
	cmpl	$1114112, %eax
	je	LBB83_42
	.p2align	4, 0x90
	leal	-97(%rdi), %eax
	cmpl	$26, %eax
	jb	LBB83_50
LBB83_45:
	leal	-48(%rdi), %eax
	cmpl	$10, %eax
	jb	LBB83_50
	cmpl	$95, %edi
	je	LBB83_50
	leal	-65(%rdi), %eax
	cmpl	$26, %eax
	jb	LBB83_50
	cmpl	$127, %edi
	jbe	LBB83_51
	callq	__ZN11unicode_xid6tables16derived_property12XID_Continue17he75d3d87a9cf0c2cE
	testb	%al, %al
	jne	LBB83_50
LBB83_51:
	testq	%rbx, %rbx
	movb	$1, %cl
	je	LBB83_52
	cmpq	%r12, %rbx
	movq	-48(%rbp), %r14
	je	LBB83_57
	jae	LBB83_62
	cmpb	$-65, (%r14,%rbx)
	jle	LBB83_62
	xorl	%ecx, %ecx
	jmp	LBB83_57
LBB83_9:
	cmpl	$95, %edi
	je	LBB83_13
	leal	-65(%rdi), %eax
	cmpl	$26, %eax
	jb	LBB83_13
	cmpl	$127, %edi
	jbe	LBB83_24
	callq	__ZN11unicode_xid6tables16derived_property9XID_Start17h49330b0fce5cc8feE
	testb	%al, %al
	jne	LBB83_13
	jmp	LBB83_24
LBB83_42:
	movq	%r12, %rbx
	movq	-48(%rbp), %r14
	movb	$1, %cl
	jmp	LBB83_57
LBB83_14:
	movq	%r12, %rbx
LBB83_57:
	leaq	(%r14,%rbx), %rax
	movq	%r14, -72(%rbp)
	movq	%r12, -64(%rbp)
	testb	%cl, %cl
	jne	LBB83_60
	cmpq	%r12, %rbx
	jae	LBB83_63
	cmpb	$-65, (%rax)
	jle	LBB83_63
LBB83_60:
	subq	%rbx, %r12
	movq	-56(%rbp), %rcx
	movq	%rax, (%rcx)
	movq	%r12, 8(%rcx)
	movq	%r14, 16(%rcx)
	movq	%rbx, 24(%rcx)
	jmp	LBB83_61
LBB83_52:
	movq	-48(%rbp), %r14
	jmp	LBB83_57
LBB83_21:
	xorl	%esi, %esi
LBB83_23:
	andl	$7, %ecx
	shll	$18, %ecx
	shll	$6, %eax
	orl	%ecx, %eax
	orl	%esi, %eax
	movl	%eax, %edi
	cmpl	$1114112, %eax
	jne	LBB83_8
LBB83_24:
	movq	$0, (%rbx)
LBB83_61:
	addq	$40, %rsp
	popq	%rbx
	popq	%r12
	popq	%r13
	popq	%r14
	popq	%r15
	popq	%rbp
	retq
LBB83_63:
	leaq	-72(%rbp), %rdi
	movq	%rbx, %rsi
	callq	__ZN4core3str6traits103_$LT$impl$u20$core..slice..SliceIndex$LT$str$GT$$u20$for$u20$core..ops..range..RangeTo$LT$usize$GT$$GT$5index28_$u7b$$u7b$closure$u7d$$u7d$17hd0417117cc9a56d9E
LBB83_62:
	leaq	l___unnamed_20(%rip), %r8
	movq	%r14, %rdi
	movq	%r12, %rsi
	xorl	%edx, %edx
	movq	%rbx, %rcx
	callq	__ZN4core3str16slice_error_fail17h6b29707aec812690E
	.cfi_endproc

	.p2align	4, 0x90
__ZN11proc_macro25parse10raw_string17h05a11cf12e7c89f0E:
	.cfi_startproc
	pushq	%rbp
	.cfi_def_cfa_offset 16
	.cfi_offset %rbp, -16
	movq	%rsp, %rbp
	.cfi_def_cfa_register %rbp
	pushq	%r15
	pushq	%r14
	pushq	%r13
	pushq	%r12
	pushq	%rbx
	subq	$88, %rsp
	.cfi_offset %rbx, -56
	.cfi_offset %r12, -48
	.cfi_offset %r13, -40
	.cfi_offset %r14, -32
	.cfi_offset %r15, -24
	movq	%rsi, %r9
	movq	%rdi, %r10
	leaq	(%rdi,%rsi), %r13
	xorl	%r12d, %r12d
	movq	%rdi, %rax
	movq	%r12, %r15
	movq	%rax, %r14
	cmpq	%rax, %r13
	jne	LBB84_3
	jmp	LBB84_2
LBB84_8:
	shll	$6, %esi
LBB84_9:
	orl	%esi, %edx
	movl	%edx, %ecx
LBB84_10:
	movq	%r15, %r12
	subq	%r14, %r12
	addq	%rax, %r12
	cmpl	$35, %ecx
	jne	LBB84_11
	movq	%r12, %r15
	movq	%rax, %r14
	cmpq	%rax, %r13
	je	LBB84_2
LBB84_3:
	leaq	1(%r14), %rax
	movzbl	(%r14), %ecx
	testb	%cl, %cl
	jns	LBB84_10
	cmpq	%r13, %rax
	je	LBB84_5
	leaq	2(%r14), %rax
	movzbl	1(%r14), %edx
	andl	$63, %edx
	movq	%rax, %rdi
	movl	%ecx, %esi
	andl	$31, %esi
	cmpb	$-33, %cl
	jbe	LBB84_8
LBB84_14:
	cmpq	%r13, %rdi
	je	LBB84_15
	movzbl	(%rdi), %ebx
	incq	%rdi
	andl	$63, %ebx
	movq	%rdi, %rax
	shll	$6, %edx
	orl	%ebx, %edx
	cmpb	$-16, %cl
	jb	LBB84_18
LBB84_19:
	cmpq	%r13, %rdi
	je	LBB84_20
	movzbl	(%rdi), %ebx
	incq	%rdi
	andl	$63, %ebx
	movq	%rdi, %rax
	jmp	LBB84_22
LBB84_5:
	xorl	%edx, %edx
	movq	%r13, %rdi
	movl	%ecx, %esi
	andl	$31, %esi
	cmpb	$-33, %cl
	jbe	LBB84_8
	jmp	LBB84_14
LBB84_15:
	xorl	%ebx, %ebx
	movq	%r13, %rdi
	shll	$6, %edx
	orl	%ebx, %edx
	cmpb	$-16, %cl
	jae	LBB84_19
LBB84_18:
	shll	$12, %esi
	jmp	LBB84_9
LBB84_20:
	xorl	%ebx, %ebx
LBB84_22:
	andl	$7, %esi
	shll	$18, %esi
	shll	$6, %edx
	orl	%esi, %edx
	movl	%edx, %ecx
	orl	%ebx, %ecx
	cmpl	$1114112, %ecx
	jne	LBB84_10
	movq	%r15, %r12
	movq	%rax, %r14
	xorl	%r15d, %r15d
	cmpq	%r14, %r13
	jne	LBB84_27
	jmp	LBB84_96
LBB84_2:
	movq	%r15, %r12
	xorl	%r15d, %r15d
	cmpq	%r14, %r13
	jne	LBB84_27
	jmp	LBB84_96
LBB84_11:
	cmpl	$1114112, %ecx
	je	LBB84_24
	cmpl	$34, %ecx
	jne	LBB84_96
	movq	%rax, %r14
	cmpq	%r14, %r13
	jne	LBB84_27
LBB84_96:
	xorl	%eax, %eax
	jmp	LBB84_97
LBB84_24:
	movq	%rax, %r14
	xorl	%r15d, %r15d
	cmpq	%r14, %r13
	je	LBB84_96
LBB84_27:
	testq	%r15, %r15
	movq	%r9, -64(%rbp)
	movq	%r10, -56(%rbp)
	je	LBB84_29
	cmpq	%r9, %r15
	jne	LBB84_58
	jmp	LBB84_29
	.p2align	4, 0x90
LBB84_47:
	cmpl	$1114112, %eax
	je	LBB84_44
LBB84_57:
	subq	%r8, %r12
	addq	%r14, %r12
	cmpq	%r14, %r13
	je	LBB84_44
LBB84_29:
	movq	%r14, %r8
	leaq	1(%r14), %rcx
	movzbl	(%r14), %edx
	testb	%dl, %dl
	js	LBB84_30
	movq	%rcx, %r14
	movl	%edx, %eax
	cmpl	$34, %eax
	jne	LBB84_47
	jmp	LBB84_48
	.p2align	4, 0x90
LBB84_30:
	cmpq	%r13, %rcx
	je	LBB84_31
	movzbl	1(%r14), %eax
	addq	$2, %r14
	andl	$63, %eax
	movq	%r14, %rsi
	movl	%edx, %ecx
	andl	$31, %ecx
	cmpb	$-32, %dl
	jb	LBB84_34
LBB84_35:
	cmpq	%r13, %rsi
	je	LBB84_36
	movzbl	(%rsi), %edi
	incq	%rsi
	andl	$63, %edi
	movq	%rsi, %r14
	shll	$6, %eax
	orl	%edi, %eax
	cmpb	$-16, %dl
	jb	LBB84_39
LBB84_40:
	cmpq	%r13, %rsi
	je	LBB84_41
	movzbl	(%rsi), %edx
	incq	%rsi
	andl	$63, %edx
	movq	%rsi, %r14
	jmp	LBB84_43
LBB84_31:
	xorl	%eax, %eax
	movq	%rcx, %r14
	movq	%r13, %rsi
	movl	%edx, %ecx
	andl	$31, %ecx
	cmpb	$-32, %dl
	jae	LBB84_35
LBB84_34:
	shll	$6, %ecx
	orl	%ecx, %eax
	cmpl	$34, %eax
	jne	LBB84_47
	jmp	LBB84_48
LBB84_36:
	xorl	%edi, %edi
	movq	%r13, %rsi
	shll	$6, %eax
	orl	%edi, %eax
	cmpb	$-16, %dl
	jae	LBB84_40
LBB84_39:
	shll	$12, %ecx
	orl	%ecx, %eax
	cmpl	$34, %eax
	jne	LBB84_47
	jmp	LBB84_48
LBB84_41:
	xorl	%edx, %edx
LBB84_43:
	andl	$7, %ecx
	shll	$18, %ecx
	shll	$6, %eax
	orl	%ecx, %eax
	orl	%edx, %eax
	cmpl	$1114112, %eax
	je	LBB84_44
	.p2align	4, 0x90
	cmpl	$34, %eax
	jne	LBB84_47
LBB84_48:
	movq	%r12, %rbx
	incq	%rbx
	je	LBB84_98
	movq	%r10, -128(%rbp)
	movq	%r9, -120(%rbp)
	movq	%rbx, -72(%rbp)
	movq	%r9, -80(%rbp)
	testq	%rbx, %rbx
	je	LBB84_53
	cmpq	%r9, %rbx
	je	LBB84_53
	jae	LBB84_100
	cmpb	$-64, (%r10,%rbx)
	jl	LBB84_100
LBB84_53:
	movq	%r9, %rax
	subq	%rbx, %rax
	cmpq	%r15, %rax
	jb	LBB84_57
	testq	%rbx, %rbx
	je	LBB84_55
	leaq	(%r10,%rbx), %rsi
	movq	%r10, %rdi
	movq	%r15, %rdx
	movq	%r8, -48(%rbp)
	callq	_bcmp
	movq	-48(%rbp), %r8
	movq	-56(%rbp), %r10
	movq	-64(%rbp), %r9
	testl	%eax, %eax
	jne	LBB84_57
	jmp	LBB84_89
	.p2align	4, 0x90
LBB84_76:
	cmpl	$1114112, %ecx
	je	LBB84_44
LBB84_77:
	subq	%r8, %r12
	addq	%r14, %r12
	cmpq	%r14, %r13
	je	LBB84_44
LBB84_58:
	movq	%r14, %r8
	leaq	1(%r14), %rdx
	movzbl	(%r14), %ecx
	testb	%cl, %cl
	js	LBB84_59
	movq	%rdx, %r14
	cmpl	$34, %ecx
	jne	LBB84_76
	jmp	LBB84_78
	.p2align	4, 0x90
LBB84_59:
	cmpq	%r13, %rdx
	je	LBB84_60
	movzbl	1(%r14), %eax
	addq	$2, %r14
	andl	$63, %eax
	movq	%r14, %rsi
	movl	%ecx, %edx
	andl	$31, %edx
	cmpb	$-33, %cl
	jbe	LBB84_63
LBB84_65:
	cmpq	%r13, %rsi
	je	LBB84_66
	movzbl	(%rsi), %edi
	incq	%rsi
	andl	$63, %edi
	movq	%rsi, %r14
	shll	$6, %eax
	orl	%edi, %eax
	cmpb	$-16, %cl
	jb	LBB84_69
LBB84_70:
	cmpq	%r13, %rsi
	je	LBB84_71
	movzbl	(%rsi), %ecx
	incq	%rsi
	andl	$63, %ecx
	movq	%rsi, %r14
	jmp	LBB84_73
LBB84_60:
	xorl	%eax, %eax
	movq	%rdx, %r14
	movq	%r13, %rsi
	movl	%ecx, %edx
	andl	$31, %edx
	cmpb	$-33, %cl
	ja	LBB84_65
LBB84_63:
	shll	$6, %edx
	jmp	LBB84_64
LBB84_66:
	xorl	%edi, %edi
	movq	%r13, %rsi
	shll	$6, %eax
	orl	%edi, %eax
	cmpb	$-16, %cl
	jae	LBB84_70
LBB84_69:
	shll	$12, %edx
LBB84_64:
	orl	%edx, %eax
	movl	%eax, %ecx
	cmpl	$34, %ecx
	jne	LBB84_76
	jmp	LBB84_78
LBB84_71:
	xorl	%ecx, %ecx
LBB84_73:
	andl	$7, %edx
	shll	$18, %edx
	shll	$6, %eax
	orl	%edx, %eax
	orl	%ecx, %eax
	movl	%eax, %ecx
	cmpl	$1114112, %eax
	je	LBB84_44
	.p2align	4, 0x90
	cmpl	$34, %ecx
	jne	LBB84_76
LBB84_78:
	movq	%r12, %rbx
	incq	%rbx
	je	LBB84_98
	movq	%r10, -128(%rbp)
	movq	%r9, -120(%rbp)
	movq	%rbx, -72(%rbp)
	movq	%r9, -80(%rbp)
	testq	%rbx, %rbx
	je	LBB84_83
	cmpq	%r9, %rbx
	je	LBB84_83
	jae	LBB84_100
	cmpb	$-65, (%r10,%rbx)
	jle	LBB84_100
LBB84_83:
	movq	%r10, -112(%rbp)
	movq	%r9, -104(%rbp)
	cmpq	%r9, %r15
	jae	LBB84_101
	cmpb	$-65, (%r10,%r15)
	jle	LBB84_101
	movq	%r9, %rax
	subq	%rbx, %rax
	cmpq	%r15, %rax
	jb	LBB84_77
	testq	%rbx, %rbx
	je	LBB84_87
	leaq	(%r10,%rbx), %rsi
	movq	%r10, %rdi
	movq	%r15, %rdx
	movq	%r8, -48(%rbp)
	callq	_bcmp
	movq	-48(%rbp), %r8
	movq	-56(%rbp), %r10
	movq	-64(%rbp), %r9
	testl	%eax, %eax
	jne	LBB84_77
	jmp	LBB84_89
LBB84_44:
	xorl	%eax, %eax
LBB84_97:
	addq	$88, %rsp
	popq	%rbx
	popq	%r12
	popq	%r13
	popq	%r14
	popq	%r15
	popq	%rbp
	retq
LBB84_55:
	xorl	%ebx, %ebx
	addq	%r15, %rbx
	jae	LBB84_90
	jmp	LBB84_99
LBB84_87:
	xorl	%ebx, %ebx
LBB84_89:
	addq	%r15, %rbx
	jb	LBB84_99
LBB84_90:
	testq	%rbx, %rbx
	je	LBB84_94
	cmpq	%r9, %rbx
	je	LBB84_94
	jae	LBB84_102
	cmpb	$-65, (%r10,%rbx)
	jle	LBB84_102
LBB84_94:
	addq	%rbx, %r10
	subq	%rbx, %r9
	leaq	-112(%rbp), %rdi
	movq	%r10, %rsi
	movq	%r9, %rdx
	movq	%r9, %r14
	movq	%r10, %rbx
	callq	__ZN11proc_macro25parse13ident_not_raw17h1f6f0b47a9be1208E
	movq	%rbx, %rax
	movq	%r14, %rdx
	movq	-112(%rbp), %rcx
	testq	%rcx, %rcx
	je	LBB84_97
	movq	-104(%rbp), %rdx
	movq	%rcx, %rax
	jmp	LBB84_97
LBB84_101:
	leaq	-112(%rbp), %rdi
	movq	%r15, %rsi
	callq	__ZN4core3str6traits103_$LT$impl$u20$core..slice..SliceIndex$LT$str$GT$$u20$for$u20$core..ops..range..RangeTo$LT$usize$GT$$GT$5index28_$u7b$$u7b$closure$u7d$$u7d$17hd0417117cc9a56d9E
LBB84_98:
	leaq	_str.1(%rip), %rdi
	leaq	l___unnamed_64(%rip), %rdx
	movl	$28, %esi
	callq	__ZN4core9panicking5panic17h736ee47a631475c0E
LBB84_100:
	leaq	-128(%rbp), %rax
	movq	%rax, -112(%rbp)
	leaq	-72(%rbp), %rax
	movq	%rax, -104(%rbp)
	leaq	-80(%rbp), %rax
	movq	%rax, -96(%rbp)
	leaq	-112(%rbp), %rdi
	callq	__ZN4core3str6traits105_$LT$impl$u20$core..slice..SliceIndex$LT$str$GT$$u20$for$u20$core..ops..range..RangeFrom$LT$usize$GT$$GT$5index28_$u7b$$u7b$closure$u7d$$u7d$17hf084d64dc04fb6b7E
LBB84_99:
	leaq	_str.1(%rip), %rdi
	leaq	l___unnamed_65(%rip), %rdx
	movl	$28, %esi
	callq	__ZN4core9panicking5panic17h736ee47a631475c0E
LBB84_102:
	leaq	l___unnamed_20(%rip), %r8
	movq	%r10, %rdi
	movq	%r9, %rsi
	xorl	%edx, %edx
	movq	%rbx, %rcx
	callq	__ZN4core3str16slice_error_fail17h6b29707aec812690E
	.cfi_endproc

	.p2align	4, 0x90
__ZN11proc_macro25parse7op_char17hb1581f78282c4e87E:
	.cfi_startproc
	pushq	%rbp
	.cfi_def_cfa_offset 16
	.cfi_offset %rbp, -16
	movq	%rsp, %rbp
	.cfi_def_cfa_register %rbp
	pushq	%r15
	pushq	%r14
	pushq	%r12
	pushq	%rbx
	.cfi_offset %rbx, -48
	.cfi_offset %r12, -40
	.cfi_offset %r14, -32
	.cfi_offset %r15, -24
	movq	%rdx, %r15
	movq	%rsi, %rbx
	movq	%rdi, %r14
	cmpq	$2, %rdx
	jae	LBB85_1
	testq	%r15, %r15
	jne	LBB85_5
	movl	$1114112, %ecx
	jmp	LBB85_30
LBB85_1:
	movl	$1114112, %ecx
	leaq	l___unnamed_21(%rip), %rax
	cmpq	%rax, %rbx
	je	LBB85_30
	movzwl	(%rbx), %edx
	xorl	%eax, %eax
	cmpl	$12079, %edx
	setne	%dl
	leaq	l___unnamed_13(%rip), %rsi
	cmpq	%rsi, %rbx
	je	LBB85_30
	movb	%dl, %al
	testl	%eax, %eax
	je	LBB85_30
	movzwl	(%rbx), %eax
	cmpl	$10799, %eax
	je	LBB85_30
LBB85_5:
	movzbl	(%rbx), %r12d
	testb	%r12b, %r12b
	jns	LBB85_22
	leaq	(%rbx,%r15), %rdx
	xorl	%eax, %eax
	movq	%rdx, %rsi
	cmpq	$1, %r15
	je	LBB85_8
	leaq	2(%rbx), %rsi
	movzbl	1(%rbx), %eax
	andl	$63, %eax
LBB85_8:
	movl	%r12d, %ecx
	andl	$31, %ecx
	cmpb	$-33, %r12b
	jbe	LBB85_9
	cmpq	%rdx, %rsi
	je	LBB85_14
	movzbl	(%rsi), %edi
	incq	%rsi
	andl	$63, %edi
	shll	$6, %eax
	orl	%edi, %eax
	cmpb	$-16, %r12b
	jb	LBB85_17
LBB85_18:
	cmpq	%rdx, %rsi
	je	LBB85_19
	movzbl	(%rsi), %edx
	andl	$63, %edx
	jmp	LBB85_21
LBB85_9:
	shll	$6, %ecx
	jmp	LBB85_10
LBB85_14:
	xorl	%edi, %edi
	movq	%rdx, %rsi
	shll	$6, %eax
	orl	%edi, %eax
	cmpb	$-16, %r12b
	jae	LBB85_18
LBB85_17:
	shll	$12, %ecx
LBB85_10:
	orl	%ecx, %eax
	movl	%eax, %r12d
LBB85_22:
	leaq	l___unnamed_66(%rip), %rdi
	movl	$22, %esi
	movl	%r12d, %edx
	callq	__ZN4core3str21_$LT$impl$u20$str$GT$8contains17h7cbebfb7a4b5e2fdE
	movl	$1114112, %ecx
	testb	%al, %al
	je	LBB85_30
	movl	$1, %ecx
	cmpl	$128, %r12d
	jb	LBB85_26
	movl	$2, %ecx
	cmpl	$2048, %r12d
	jb	LBB85_26
	cmpl	$65536, %r12d
	movl	$4, %ecx
	sbbq	$0, %rcx
LBB85_26:
	cmpq	%r15, %rcx
	je	LBB85_29
	jae	LBB85_31
	cmpb	$-65, (%rbx,%rcx)
	jle	LBB85_31
LBB85_29:
	addq	%rcx, %rbx
	subq	%rcx, %r15
	movq	%rbx, (%r14)
	movq	%r15, 8(%r14)
	movl	%r12d, %ecx
LBB85_30:
	movl	%ecx, 16(%r14)
	popq	%rbx
	popq	%r12
	popq	%r14
	popq	%r15
	popq	%rbp
	retq
LBB85_19:
	xorl	%edx, %edx
LBB85_21:
	andl	$7, %ecx
	shll	$18, %ecx
	shll	$6, %eax
	orl	%ecx, %eax
	orl	%edx, %eax
	movl	$1114112, %ecx
	movl	%eax, %r12d
	cmpl	$1114112, %eax
	jne	LBB85_22
	jmp	LBB85_30
LBB85_31:
	leaq	l___unnamed_20(%rip), %r8
	movq	%rbx, %rdi
	movq	%r15, %rsi
	xorl	%edx, %edx
	callq	__ZN4core3str16slice_error_fail17h6b29707aec812690E
	.cfi_endproc

	.p2align	4, 0x90
__ZN11proc_macro25parse25take_until_newline_or_eof17hb3ecfc0d155e3014E:
	.cfi_startproc
	pushq	%rbp
	.cfi_def_cfa_offset 16
	.cfi_offset %rbp, -16
	movq	%rsp, %rbp
	.cfi_def_cfa_register %rbp
	pushq	%r15
	pushq	%r14
	pushq	%rbx
	subq	$56, %rsp
	.cfi_offset %rbx, -40
	.cfi_offset %r14, -32
	.cfi_offset %r15, -24
	leaq	(%rsi,%rdx), %r8
	testq	%rdx, %rdx
	je	LBB86_22
	xorl	%eax, %eax
	movq	%rsi, %r10
	jmp	LBB86_2
	.p2align	4, 0x90
LBB86_30:
	subq	%r9, %rax
	addq	%r10, %rax
	cmpq	%r10, %r8
	je	LBB86_22
LBB86_2:
	movq	%r10, %r9
	leaq	1(%r10), %rbx
	movzbl	(%r10), %ecx
	testb	%cl, %cl
	js	LBB86_3
	movq	%rbx, %r10
	cmpl	$13, %ecx
	jne	LBB86_20
	jmp	LBB86_31
	.p2align	4, 0x90
LBB86_3:
	cmpq	%r8, %rbx
	je	LBB86_4
	movzbl	1(%r10), %r11d
	addq	$2, %r10
	andl	$63, %r11d
	movq	%r10, %r14
	movl	%ecx, %ebx
	andl	$31, %ebx
	cmpb	$-33, %cl
	jbe	LBB86_7
LBB86_10:
	cmpq	%r8, %r14
	je	LBB86_11
	movzbl	(%r14), %r15d
	incq	%r14
	andl	$63, %r15d
	movq	%r14, %r10
	shll	$6, %r11d
	orl	%r15d, %r11d
	cmpb	$-16, %cl
	jb	LBB86_14
LBB86_15:
	cmpq	%r8, %r14
	je	LBB86_16
	movzbl	(%r14), %ecx
	incq	%r14
	andl	$63, %ecx
	movq	%r14, %r10
	jmp	LBB86_18
LBB86_4:
	xorl	%r11d, %r11d
	movq	%rbx, %r10
	movq	%r8, %r14
	movl	%ecx, %ebx
	andl	$31, %ebx
	cmpb	$-33, %cl
	ja	LBB86_10
LBB86_7:
	shll	$6, %ebx
	jmp	LBB86_8
LBB86_11:
	xorl	%r15d, %r15d
	movq	%r8, %r14
	shll	$6, %r11d
	orl	%r15d, %r11d
	cmpb	$-16, %cl
	jae	LBB86_15
LBB86_14:
	shll	$12, %ebx
LBB86_8:
	orl	%ebx, %r11d
	movl	%r11d, %ecx
	cmpl	$13, %ecx
	jne	LBB86_20
	jmp	LBB86_31
LBB86_16:
	xorl	%ecx, %ecx
LBB86_18:
	andl	$7, %ebx
	shll	$18, %ebx
	shll	$6, %r11d
	orl	%ebx, %r11d
	orl	%ecx, %r11d
	movl	%r11d, %ecx
	cmpl	$1114112, %r11d
	je	LBB86_22
	.p2align	4, 0x90
	cmpl	$13, %ecx
	je	LBB86_31
LBB86_20:
	cmpl	$10, %ecx
	je	LBB86_23
	cmpl	$1114112, %ecx
	jne	LBB86_30
	jmp	LBB86_22
	.p2align	4, 0x90
LBB86_31:
	movq	%rax, %rcx
	incq	%rcx
	je	LBB86_45
	movq	%rsi, -80(%rbp)
	movq	%rdx, -72(%rbp)
	movq	%rcx, -56(%rbp)
	movq	%rdx, -64(%rbp)
	testq	%rcx, %rcx
	sete	%bl
	cmpq	%rdx, %rcx
	sete	%r15b
	orb	%bl, %r15b
	jne	LBB86_35
	cmpq	%rdx, %rcx
	jae	LBB86_48
	cmpb	$-65, (%rsi,%rcx)
	jle	LBB86_48
LBB86_35:
	movq	%rdx, %r14
	subq	%rcx, %r14
	je	LBB86_30
	leaq	(%rsi,%rcx), %r11
	cmpb	$10, (%r11)
	jne	LBB86_30
	cmpq	%rdx, %rcx
	setb	%bl
	orb	%bl, %r15b
	je	LBB86_49
	movq	%rsi, -48(%rbp)
	movq	%rdx, -40(%rbp)
	testq	%rax, %rax
	je	LBB86_42
	cmpq	%rdx, %rax
	je	LBB86_42
	jae	LBB86_47
	cmpb	$-65, (%rsi,%rax)
	jle	LBB86_47
LBB86_42:
	movq	%r11, (%rdi)
	movq	%r14, 8(%rdi)
	jmp	LBB86_43
LBB86_22:
	movq	%r8, (%rdi)
	movq	$0, 8(%rdi)
	movq	%rsi, 16(%rdi)
	jmp	LBB86_44
LBB86_23:
	testq	%rax, %rax
	sete	%bl
	cmpq	%rdx, %rax
	sete	%cl
	orb	%bl, %cl
	jne	LBB86_26
	cmpq	%rdx, %rax
	jae	LBB86_46
	cmpb	$-65, (%rsi,%rax)
	jle	LBB86_46
LBB86_26:
	leaq	(%rsi,%rax), %rbx
	movq	%rsi, -48(%rbp)
	movq	%rdx, -40(%rbp)
	testb	%cl, %cl
	jne	LBB86_29
	cmpq	%rdx, %rax
	jae	LBB86_47
	cmpb	$-65, (%rbx)
	jle	LBB86_47
LBB86_29:
	subq	%rax, %rdx
	movq	%rbx, (%rdi)
	movq	%rdx, 8(%rdi)
LBB86_43:
	movq	%rsi, 16(%rdi)
	movq	%rax, %rdx
LBB86_44:
	movq	%rdx, 24(%rdi)
	addq	$56, %rsp
	popq	%rbx
	popq	%r14
	popq	%r15
	popq	%rbp
	retq
LBB86_48:
	leaq	-80(%rbp), %rax
	movq	%rax, -48(%rbp)
	leaq	-56(%rbp), %rax
	movq	%rax, -40(%rbp)
	leaq	-64(%rbp), %rax
	movq	%rax, -32(%rbp)
	leaq	-48(%rbp), %rdi
	callq	__ZN4core3str6traits105_$LT$impl$u20$core..slice..SliceIndex$LT$str$GT$$u20$for$u20$core..ops..range..RangeFrom$LT$usize$GT$$GT$5index28_$u7b$$u7b$closure$u7d$$u7d$17hf084d64dc04fb6b7E
LBB86_45:
	leaq	_str.1(%rip), %rdi
	leaq	l___unnamed_67(%rip), %rdx
	movl	$28, %esi
	callq	__ZN4core9panicking5panic17h736ee47a631475c0E
LBB86_47:
	leaq	-48(%rbp), %rdi
	movq	%rax, %rsi
	callq	__ZN4core3str6traits103_$LT$impl$u20$core..slice..SliceIndex$LT$str$GT$$u20$for$u20$core..ops..range..RangeTo$LT$usize$GT$$GT$5index28_$u7b$$u7b$closure$u7d$$u7d$17hd0417117cc9a56d9E
LBB86_46:
	leaq	l___unnamed_20(%rip), %r8
	movq	%rsi, %rdi
	movq	%rdx, %rsi
	xorl	%edx, %edx
	movq	%rax, %rcx
	callq	__ZN4core3str16slice_error_fail17h6b29707aec812690E
LBB86_49:
	leaq	l___unnamed_20(%rip), %r8
	movq	%rsi, %rdi
	movq	%rdx, %rsi
	xorl	%edx, %edx
	callq	__ZN4core3str16slice_error_fail17h6b29707aec812690E
	.cfi_endproc

	.globl	__ZN11proc_macro29detection17inside_proc_macro17h1c8c95cd29726299E
	.p2align	4, 0x90
__ZN11proc_macro29detection17inside_proc_macro17h1c8c95cd29726299E:
	.cfi_startproc
	pushq	%rbp
	.cfi_def_cfa_offset 16
	.cfi_offset %rbp, -16
	movq	%rsp, %rbp
	.cfi_def_cfa_register %rbp
	subq	$16, %rsp
	movq	__ZN11proc_macro29detection5WORKS17h6fe5bac5e317e7ecE(%rip), %rax
	cmpq	$1, %rax
	je	LBB87_3
	cmpq	$2, %rax
	jne	LBB87_4
	movb	$1, %al
	addq	$16, %rsp
	popq	%rbp
	retq
LBB87_3:
	xorl	%eax, %eax
	addq	$16, %rsp
	popq	%rbp
	retq
LBB87_4:
	movq	__ZN11proc_macro29detection4INIT17h90a9e1c831590e56E(%rip), %rax
	cmpq	$3, %rax
	jne	LBB87_6
	callq	__ZN11proc_macro29detection17inside_proc_macro17h1c8c95cd29726299E
	addq	$16, %rsp
	popq	%rbp
	retq
LBB87_6:
	movb	$1, -1(%rbp)
	leaq	-1(%rbp), %rax
	movq	%rax, -16(%rbp)
	leaq	__ZN11proc_macro29detection4INIT17h90a9e1c831590e56E(%rip), %rdi
	leaq	l___unnamed_68(%rip), %rcx
	leaq	-16(%rbp), %rdx
	xorl	%esi, %esi
	callq	__ZN3std4sync4once4Once10call_inner17h78f35ea5a056ddbcE
	callq	__ZN11proc_macro29detection17inside_proc_macro17h1c8c95cd29726299E
	addq	$16, %rsp
	popq	%rbp
	retq
	.cfi_endproc

	.p2align	4, 0x90
__ZN11proc_macro29detection10initialize17h2c7d6868913200a3E:
Lfunc_begin19:
	.cfi_startproc
	.cfi_personality 155, _rust_eh_personality
	.cfi_lsda 16, Lexception19
	pushq	%rbp
	.cfi_def_cfa_offset 16
	.cfi_offset %rbp, -16
	movq	%rsp, %rbp
	.cfi_def_cfa_register %rbp
	pushq	%r15
	pushq	%r14
	pushq	%r12
	pushq	%rbx
	subq	$48, %rsp
	.cfi_offset %rbx, -48
	.cfi_offset %r12, -40
	.cfi_offset %r14, -32
	.cfi_offset %r15, -24
	movq	$1, -64(%rbp)
	leaq	l___unnamed_69(%rip), %rax
	movq	%rax, -56(%rbp)
Ltmp411:
	callq	__ZN3std9panicking9take_hook17h3c66d9c9a5634a1fE
Ltmp412:
	movq	%rax, -48(%rbp)
	movq	%rdx, -40(%rbp)
Ltmp414:
	leaq	l___unnamed_69(%rip), %r14
	movl	$1, %edi
	movq	%r14, %rsi
	callq	__ZN3std9panicking8set_hook17h7bfb3434b29c8ec3E
Ltmp415:
	movl	$2, %ebx
Ltmp416:
	callq	__ZN10proc_macro4Span9call_site17hd72cd07d37a92d33E
Ltmp417:
LBB88_3:
	xchgq	%rbx, __ZN11proc_macro29detection5WORKS17h6fe5bac5e317e7ecE(%rip)
Ltmp424:
	callq	__ZN3std9panicking9take_hook17h3c66d9c9a5634a1fE
Ltmp425:
	movq	%rax, %r15
	movq	%rdx, %rbx
	movq	%rax, -80(%rbp)
	movq	%rdx, -72(%rbp)
	movq	-48(%rbp), %rdi
	movq	-40(%rbp), %rsi
Ltmp427:
	callq	__ZN3std9panicking8set_hook17h7bfb3434b29c8ec3E
Ltmp428:
	cmpq	$1, %r15
	jne	LBB88_11
	cmpq	%r14, %rbx
	jne	LBB88_11
Ltmp429:
	movl	$1, %edi
	callq	*(%rbx)
Ltmp430:
	movq	8(%rbx), %rsi
	testq	%rsi, %rsi
	je	LBB88_10
	movq	16(%rbx), %rdx
	movq	%r15, %rdi
	callq	___rust_dealloc
LBB88_10:
	addq	$48, %rsp
	popq	%rbx
	popq	%r12
	popq	%r14
	popq	%r15
	popq	%rbp
	retq
LBB88_11:
Ltmp432:
	leaq	l___unnamed_70(%rip), %rdi
	leaq	l___unnamed_71(%rip), %rdx
	movl	$57, %esi
	callq	__ZN3std9panicking11begin_panic17hc0253a378263cbc4E
Ltmp433:
	ud2
LBB88_13:
Ltmp431:
	movq	%rax, %r14
	movq	%r15, %rdi
	movq	%rbx, %rsi
	callq	__ZN5alloc5alloc8box_free17h0a5e01561a72e215E
	movq	%r14, %rdi
	callq	__Unwind_Resume
	ud2
LBB88_14:
Ltmp434:
	movq	%rax, %r14
	leaq	-80(%rbp), %rdi
	callq	__ZN4core3ptr13drop_in_place17hbe446365a0f101bcE
	movq	%r14, %rdi
	callq	__Unwind_Resume
	ud2
LBB88_15:
Ltmp418:
Ltmp419:
	movq	%rax, %rdi
	callq	__ZN3std9panicking3try7cleanup17hd895f7beef0a7dadE
Ltmp420:
	movq	%rax, %r15
	movq	%rdx, %r12
Ltmp421:
	movq	%rax, %rdi
	callq	*(%rdx)
Ltmp422:
	movq	8(%r12), %rsi
	movl	$1, %ebx
	testq	%rsi, %rsi
	je	LBB88_3
	movq	16(%r12), %rdx
	movq	%r15, %rdi
	callq	___rust_dealloc
	jmp	LBB88_3
LBB88_19:
Ltmp423:
	movq	%rax, %r14
	movq	%r15, %rdi
	movq	%r12, %rsi
	callq	__ZN5alloc5alloc8box_free17h0a5e01561a72e215E
	jmp	LBB88_22
LBB88_20:
Ltmp413:
	movq	%rax, %r14
	leaq	-64(%rbp), %rdi
	callq	__ZN4core3ptr13drop_in_place17hbe446365a0f101bcE
	movq	%r14, %rdi
	callq	__Unwind_Resume
	ud2
LBB88_21:
Ltmp426:
	movq	%rax, %r14
LBB88_22:
	leaq	-48(%rbp), %rdi
	callq	__ZN4core3ptr13drop_in_place17hbe446365a0f101bcE
	movq	%r14, %rdi
	callq	__Unwind_Resume
	ud2
Lfunc_end19:
	.cfi_endproc
	.section	__TEXT,__gcc_except_tab
	.p2align	2
GCC_except_table88:
Lexception19:
	.byte	255
	.byte	155
	.uleb128 Lttbase0-Lttbaseref0
Lttbaseref0:
	.byte	1
	.uleb128 Lcst_end19-Lcst_begin19
Lcst_begin19:
	.uleb128 Ltmp411-Lfunc_begin19
	.uleb128 Ltmp412-Ltmp411
	.uleb128 Ltmp413-Lfunc_begin19
	.byte	0
	.uleb128 Ltmp414-Lfunc_begin19
	.uleb128 Ltmp415-Ltmp414
	.uleb128 Ltmp426-Lfunc_begin19
	.byte	0
	.uleb128 Ltmp416-Lfunc_begin19
	.uleb128 Ltmp417-Ltmp416
	.uleb128 Ltmp418-Lfunc_begin19
	.byte	3
	.uleb128 Ltmp424-Lfunc_begin19
	.uleb128 Ltmp425-Ltmp424
	.uleb128 Ltmp426-Lfunc_begin19
	.byte	0
	.uleb128 Ltmp427-Lfunc_begin19
	.uleb128 Ltmp428-Ltmp427
	.uleb128 Ltmp434-Lfunc_begin19
	.byte	0
	.uleb128 Ltmp429-Lfunc_begin19
	.uleb128 Ltmp430-Ltmp429
	.uleb128 Ltmp431-Lfunc_begin19
	.byte	0
	.uleb128 Ltmp432-Lfunc_begin19
	.uleb128 Ltmp433-Ltmp432
	.uleb128 Ltmp434-Lfunc_begin19
	.byte	0
	.uleb128 Ltmp433-Lfunc_begin19
	.uleb128 Ltmp419-Ltmp433
	.byte	0
	.byte	0
	.uleb128 Ltmp419-Lfunc_begin19
	.uleb128 Ltmp420-Ltmp419
	.uleb128 Ltmp426-Lfunc_begin19
	.byte	0
	.uleb128 Ltmp421-Lfunc_begin19
	.uleb128 Ltmp422-Ltmp421
	.uleb128 Ltmp423-Lfunc_begin19
	.byte	0
	.uleb128 Ltmp422-Lfunc_begin19
	.uleb128 Lfunc_end19-Ltmp422
	.byte	0
	.byte	0
Lcst_end19:
	.byte	0
	.byte	0
	.byte	1
	.byte	125
	.p2align	2
	.long	0
Lttbase0:
	.p2align	2

	.section	__TEXT,__text,regular,pure_instructions
	.p2align	4, 0x90
__ZN11proc_macro29detection10initialize28_$u7b$$u7b$closure$u7d$$u7d$17he6826af38ecb9ab9E:
	.cfi_startproc
	pushq	%rbp
	.cfi_def_cfa_offset 16
	.cfi_offset %rbp, -16
	movq	%rsp, %rbp
	.cfi_def_cfa_register %rbp
	popq	%rbp
	retq
	.cfi_endproc

	.globl	__ZN11proc_macro28fallback5force17h39b4858d32b0187aE
	.p2align	4, 0x90
__ZN11proc_macro28fallback5force17h39b4858d32b0187aE:
	.cfi_startproc
	pushq	%rbp
	.cfi_def_cfa_offset 16
	.cfi_offset %rbp, -16
	movq	%rsp, %rbp
	.cfi_def_cfa_register %rbp
	movl	$1, %eax
	xchgq	%rax, __ZN11proc_macro29detection5WORKS17h6fe5bac5e317e7ecE(%rip)
	popq	%rbp
	retq
	.cfi_endproc

	.globl	__ZN11proc_macro28fallback7unforce17h96d1ed0e856020c4E
	.p2align	4, 0x90
__ZN11proc_macro28fallback7unforce17h96d1ed0e856020c4E:
	.cfi_startproc
	pushq	%rbp
	.cfi_def_cfa_offset 16
	.cfi_offset %rbp, -16
	movq	%rsp, %rbp
	.cfi_def_cfa_register %rbp
	popq	%rbp
	jmp	__ZN11proc_macro29detection10initialize17h2c7d6868913200a3E
	.cfi_endproc

	.globl	__ZN11proc_macro28fallback11TokenStream3new17h637fd2b607fb39d6E
	.p2align	4, 0x90
__ZN11proc_macro28fallback11TokenStream3new17h637fd2b607fb39d6E:
	.cfi_startproc
	pushq	%rbp
	.cfi_def_cfa_offset 16
	.cfi_offset %rbp, -16
	movq	%rsp, %rbp
	.cfi_def_cfa_register %rbp
	movq	%rdi, %rax
	movq	$8, (%rdi)
	vxorps	%xmm0, %xmm0, %xmm0
	vmovups	%xmm0, 8(%rdi)
	popq	%rbp
	retq
	.cfi_endproc

	.globl	__ZN11proc_macro28fallback11TokenStream10take_inner17hc4d7108cbbb37057E
	.p2align	4, 0x90
__ZN11proc_macro28fallback11TokenStream10take_inner17hc4d7108cbbb37057E:
	.cfi_startproc
	pushq	%rbp
	.cfi_def_cfa_offset 16
	.cfi_offset %rbp, -16
	movq	%rsp, %rbp
	.cfi_def_cfa_register %rbp
	subq	$16, %rsp
	movq	%rdi, %rax
	movq	(%rsi), %rcx
	vmovups	8(%rsi), %xmm0
	vmovaps	%xmm0, -16(%rbp)
	movq	$8, (%rsi)
	vxorps	%xmm0, %xmm0, %xmm0
	vmovups	%xmm0, 8(%rsi)
	movq	%rcx, (%rdi)
	vmovaps	-16(%rbp), %xmm0
	vmovups	%xmm0, 8(%rdi)
	addq	$16, %rsp
	popq	%rbp
	retq
	.cfi_endproc

	.globl	__ZN11proc_macro28fallback11TokenStream10push_token17h293b1622b99a1b81E
	.p2align	4, 0x90
__ZN11proc_macro28fallback11TokenStream10push_token17h293b1622b99a1b81E:
Lfunc_begin20:
	.cfi_startproc
	.cfi_personality 155, _rust_eh_personality
	.cfi_lsda 16, Lexception20
	pushq	%rbp
	.cfi_def_cfa_offset 16
	.cfi_offset %rbp, -16
	movq	%rsp, %rbp
	.cfi_def_cfa_register %rbp
	pushq	%r15
	pushq	%r14
	pushq	%rbx
	subq	$56, %rsp
	.cfi_offset %rbx, -40
	.cfi_offset %r14, -32
	.cfi_offset %r15, -24
	movq	%rsi, %r14
	movq	%rdi, %rbx
	cmpl	$3, (%rsi)
	jne	LBB94_1
	cmpl	$1, 8(%r14)
	jne	LBB94_1
	cmpq	$0, 32(%r14)
	je	LBB94_1
	leaq	16(%r14), %rax
	movq	(%rax), %rcx
	cmpb	$45, (%rcx)
	jne	LBB94_1
	leaq	8(%r14), %r15
	movq	16(%rax), %rcx
	movq	%rcx, -64(%rbp)
	vmovups	(%rax), %xmm0
	vmovaps	%xmm0, -80(%rbp)
Ltmp435:
	leaq	-80(%rbp), %rsi
	movq	%rbx, %rdi
	callq	__ZN11proc_macro28fallback11TokenStream10push_token21push_negative_literal17haaa19c6d1e3c792eE
Ltmp436:
	cmpl	$3, (%r14)
	jne	LBB94_10
	cmpl	$1, (%r15)
	je	LBB94_16
	addq	$12, %r14
	movq	%r14, %rdi
	addq	$56, %rsp
	popq	%rbx
	popq	%r14
	popq	%r15
	popq	%rbp
	jmp	__ZN77_$LT$proc_macro..bridge..client..Literal$u20$as$u20$core..ops..drop..Drop$GT$4drop17he2aea19d6a82f53dE
LBB94_1:
	vmovups	16(%r14), %ymm0
	vmovups	%ymm0, -64(%rbp)
	vmovups	(%r14), %ymm0
	vmovups	%ymm0, -80(%rbp)
	movq	16(%rbx), %rax
	cmpq	8(%rbx), %rax
	jne	LBB94_4
Ltmp438:
	movl	$1, %esi
	movq	%rbx, %rdi
	vzeroupper
	callq	__ZN5alloc3vec12Vec$LT$T$GT$7reserve17hc0be6e8834886ea9E
Ltmp439:
	movq	16(%rbx), %rax
LBB94_4:
	movq	(%rbx), %rcx
	leaq	(%rax,%rax,2), %rax
	shlq	$4, %rax
	vmovups	-80(%rbp), %ymm0
	vmovaps	-48(%rbp), %xmm1
	vmovups	%xmm1, 32(%rcx,%rax)
	vmovups	%ymm0, (%rcx,%rax)
	incq	16(%rbx)
LBB94_16:
	addq	$56, %rsp
	popq	%rbx
	popq	%r14
	popq	%r15
	popq	%rbp
	vzeroupper
	retq
LBB94_10:
	movq	%r14, %rdi
	addq	$56, %rsp
	popq	%rbx
	popq	%r14
	popq	%r15
	popq	%rbp
	jmp	__ZN4core3ptr13drop_in_place17h1202f0d8a0ebc27dE
LBB94_19:
Ltmp437:
	movq	%rax, %rbx
	cmpl	$3, (%r14)
	jne	LBB94_20
	cmpl	$1, (%r15)
	je	LBB94_13
	movq	%r15, %rdi
	callq	__ZN4core3ptr13drop_in_place17hf224f5051c406919E
	movq	%rbx, %rdi
	callq	__Unwind_Resume
	ud2
LBB94_20:
	movq	%r14, %rdi
	jmp	LBB94_12
LBB94_11:
Ltmp440:
	movq	%rax, %rbx
	leaq	-80(%rbp), %rdi
LBB94_12:
	callq	__ZN4core3ptr13drop_in_place17h1202f0d8a0ebc27dE
LBB94_13:
	movq	%rbx, %rdi
	callq	__Unwind_Resume
	ud2
Lfunc_end20:
	.cfi_endproc
	.section	__TEXT,__gcc_except_tab
	.p2align	2
GCC_except_table94:
Lexception20:
	.byte	255
	.byte	255
	.byte	1
	.uleb128 Lcst_end20-Lcst_begin20
Lcst_begin20:
	.uleb128 Ltmp435-Lfunc_begin20
	.uleb128 Ltmp436-Ltmp435
	.uleb128 Ltmp437-Lfunc_begin20
	.byte	0
	.uleb128 Ltmp436-Lfunc_begin20
	.uleb128 Ltmp438-Ltmp436
	.byte	0
	.byte	0
	.uleb128 Ltmp438-Lfunc_begin20
	.uleb128 Ltmp439-Ltmp438
	.uleb128 Ltmp440-Lfunc_begin20
	.byte	0
	.uleb128 Ltmp439-Lfunc_begin20
	.uleb128 Lfunc_end20-Ltmp439
	.byte	0
	.byte	0
Lcst_end20:
	.p2align	2

	.section	__TEXT,__text,regular,pure_instructions
	.p2align	4, 0x90
__ZN11proc_macro28fallback11TokenStream10push_token21push_negative_literal17haaa19c6d1e3c792eE:
Lfunc_begin21:
	.cfi_startproc
	.cfi_personality 155, _rust_eh_personality
	.cfi_lsda 16, Lexception21
	pushq	%rbp
	.cfi_def_cfa_offset 16
	.cfi_offset %rbp, -16
	movq	%rsp, %rbp
	.cfi_def_cfa_register %rbp
	pushq	%r15
	pushq	%r14
	pushq	%rbx
	subq	$88, %rsp
	.cfi_offset %rbx, -40
	.cfi_offset %r14, -32
	.cfi_offset %r15, -24
	movq	%rsi, %r14
	movq	16(%rsi), %rbx
	testq	%rbx, %rbx
	je	LBB95_29
	movq	%rdi, %r15
	movq	(%r14), %rdi
	movzbl	(%rdi), %esi
	movl	$1, %eax
	testb	%sil, %sil
	jns	LBB95_10
	leaq	(%rdi,%rbx), %r8
	xorl	%ecx, %ecx
	movq	%r8, %r9
	cmpq	$1, %rbx
	je	LBB95_4
	leaq	2(%rdi), %r9
	movzbl	1(%rdi), %ecx
	andl	$63, %ecx
LBB95_4:
	movl	%esi, %edx
	andl	$31, %edx
	cmpb	$-32, %sil
	jb	LBB95_5
	cmpq	%r8, %r9
	je	LBB95_21
	movzbl	(%r9), %r10d
	incq	%r9
	andl	$63, %r10d
	shll	$6, %ecx
	orl	%r10d, %ecx
	cmpb	$-16, %sil
	jb	LBB95_24
LBB95_25:
	cmpq	%r8, %r9
	je	LBB95_26
	movzbl	(%r9), %esi
	andl	$63, %esi
	jmp	LBB95_28
LBB95_5:
	shll	$6, %edx
	jmp	LBB95_6
LBB95_21:
	xorl	%r10d, %r10d
	movq	%r8, %r9
	shll	$6, %ecx
	orl	%r10d, %ecx
	cmpb	$-16, %sil
	jae	LBB95_25
LBB95_24:
	shll	$12, %edx
LBB95_6:
	orl	%edx, %ecx
	cmpl	$128, %ecx
	jae	LBB95_8
	jmp	LBB95_10
LBB95_26:
	xorl	%esi, %esi
LBB95_28:
	andl	$7, %edx
	shll	$18, %edx
	shll	$6, %ecx
	orl	%edx, %ecx
	orl	%esi, %ecx
	cmpl	$1114112, %ecx
	je	LBB95_29
	cmpl	$128, %ecx
	jb	LBB95_10
LBB95_8:
	movl	$2, %eax
	cmpl	$2048, %ecx
	jb	LBB95_10
	cmpl	$65536, %ecx
	movl	$4, %eax
	sbbq	$0, %rax
LBB95_10:
	leaq	(%rdi,%rax), %rsi
	subq	%rax, %rbx
	movq	%rbx, %rdx
	callq	_memmove
	movq	%rbx, 16(%r14)
Ltmp441:
	callq	__ZN11proc_macro29detection17inside_proc_macro17h1c8c95cd29726299E
Ltmp442:
	testb	%al, %al
	je	LBB95_13
Ltmp443:
	callq	__ZN10proc_macro4Span9call_site17hd72cd07d37a92d33E
Ltmp444:
LBB95_13:
	movl	$0, -72(%rbp)
	movb	$0, -68(%rbp)
	movb	-25(%rbp), %al
	movb	%al, -65(%rbp)
	movzwl	-27(%rbp), %eax
	movw	%ax, -67(%rbp)
	movabsq	$193273528322, %rax
	movq	%rax, -80(%rbp)
	movq	16(%r15), %rcx
	cmpq	8(%r15), %rcx
	jne	LBB95_16
Ltmp445:
	movl	$1, %esi
	movq	%r15, %rdi
	callq	__ZN5alloc3vec12Vec$LT$T$GT$7reserve17hc0be6e8834886ea9E
Ltmp446:
	movq	16(%r15), %rcx
LBB95_16:
	movq	(%r15), %rax
	leaq	(%rcx,%rcx,2), %rcx
	shlq	$4, %rcx
	vmovups	-80(%rbp), %ymm0
	vmovups	-48(%rbp), %xmm1
	vmovups	%xmm1, 32(%rax,%rcx)
	vmovups	%ymm0, (%rax,%rcx)
	movq	16(%r15), %rcx
	incq	%rcx
	movq	%rcx, 16(%r15)
	vmovups	(%r14), %xmm0
	vmovups	%xmm0, -76(%rbp)
	movq	16(%r14), %rax
	movq	%rax, -60(%rbp)
	vmovups	-80(%rbp), %xmm0
	vmovaps	%xmm0, -112(%rbp)
	movq	-68(%rbp), %rax
	movq	%rax, -100(%rbp)
	movq	-60(%rbp), %rax
	movq	%rax, -92(%rbp)
	movl	$1, -72(%rbp)
	vmovaps	-112(%rbp), %xmm0
	vmovups	%xmm0, -68(%rbp)
	movq	-100(%rbp), %rax
	movq	%rax, -56(%rbp)
	movq	-92(%rbp), %rax
	movq	%rax, -48(%rbp)
	movl	$3, -80(%rbp)
	cmpq	8(%r15), %rcx
	jne	LBB95_19
Ltmp450:
	movl	$1, %esi
	movq	%r15, %rdi
	vzeroupper
	callq	__ZN5alloc3vec12Vec$LT$T$GT$7reserve17hc0be6e8834886ea9E
Ltmp451:
	movq	16(%r15), %rcx
LBB95_19:
	movq	(%r15), %rax
	leaq	(%rcx,%rcx,2), %rcx
	shlq	$4, %rcx
	vmovups	-80(%rbp), %ymm0
	vmovups	-48(%rbp), %xmm1
	vmovups	%xmm1, 32(%rax,%rcx)
	vmovups	%ymm0, (%rax,%rcx)
	incq	16(%r15)
	addq	$88, %rsp
	popq	%rbx
	popq	%r14
	popq	%r15
	popq	%rbp
	vzeroupper
	retq
LBB95_29:
Ltmp453:
	leaq	l___unnamed_72(%rip), %rdi
	leaq	l___unnamed_73(%rip), %rdx
	movl	$45, %esi
	callq	__ZN4core9panicking5panic17h736ee47a631475c0E
Ltmp454:
	ud2
LBB95_32:
Ltmp452:
	movq	%rax, %rbx
	leaq	-80(%rbp), %rdi
	callq	__ZN4core3ptr13drop_in_place17h1202f0d8a0ebc27dE
	movq	%rbx, %rdi
	callq	__Unwind_Resume
	ud2
LBB95_31:
Ltmp447:
	movq	%rax, %rbx
Ltmp448:
	leaq	-80(%rbp), %rdi
	callq	__ZN4core3ptr13drop_in_place17h1202f0d8a0ebc27dE
Ltmp449:
	jmp	LBB95_35
LBB95_34:
Ltmp455:
	movq	%rax, %rbx
LBB95_35:
	movq	%r14, %rdi
	callq	__ZN4core3ptr13drop_in_place17h3542149344c36bfaE
	movq	%rbx, %rdi
	callq	__Unwind_Resume
	ud2
Lfunc_end21:
	.cfi_endproc
	.section	__TEXT,__gcc_except_tab
	.p2align	2
GCC_except_table95:
Lexception21:
	.byte	255
	.byte	255
	.byte	1
	.uleb128 Lcst_end21-Lcst_begin21
Lcst_begin21:
	.uleb128 Lfunc_begin21-Lfunc_begin21
	.uleb128 Ltmp441-Lfunc_begin21
	.byte	0
	.byte	0
	.uleb128 Ltmp441-Lfunc_begin21
	.uleb128 Ltmp444-Ltmp441
	.uleb128 Ltmp455-Lfunc_begin21
	.byte	0
	.uleb128 Ltmp445-Lfunc_begin21
	.uleb128 Ltmp446-Ltmp445
	.uleb128 Ltmp447-Lfunc_begin21
	.byte	0
	.uleb128 Ltmp450-Lfunc_begin21
	.uleb128 Ltmp451-Ltmp450
	.uleb128 Ltmp452-Lfunc_begin21
	.byte	0
	.uleb128 Ltmp453-Lfunc_begin21
	.uleb128 Ltmp454-Ltmp453
	.uleb128 Ltmp455-Lfunc_begin21
	.byte	0
	.uleb128 Ltmp454-Lfunc_begin21
	.uleb128 Ltmp448-Ltmp454
	.byte	0
	.byte	0
	.uleb128 Ltmp448-Lfunc_begin21
	.uleb128 Ltmp449-Ltmp448
	.uleb128 Ltmp455-Lfunc_begin21
	.byte	0
	.uleb128 Ltmp449-Lfunc_begin21
	.uleb128 Lfunc_end21-Ltmp449
	.byte	0
	.byte	0
Lcst_end21:
	.p2align	2

	.section	__TEXT,__literal16,16byte_literals
	.p2align	4
LCPI96_0:
	.space	16
	.section	__TEXT,__text,regular,pure_instructions
	.globl	__ZN76_$LT$proc_macro2..fallback..TokenStream$u20$as$u20$core..ops..drop..Drop$GT$4drop17hd9190ec22163f7cbE
	.p2align	4, 0x90
__ZN76_$LT$proc_macro2..fallback..TokenStream$u20$as$u20$core..ops..drop..Drop$GT$4drop17hd9190ec22163f7cbE:
Lfunc_begin22:
	.cfi_startproc
	.cfi_personality 155, _rust_eh_personality
	.cfi_lsda 16, Lexception22
	pushq	%rbp
	.cfi_def_cfa_offset 16
	.cfi_offset %rbp, -16
	movq	%rsp, %rbp
	.cfi_def_cfa_register %rbp
	pushq	%r15
	pushq	%r14
	pushq	%r13
	pushq	%r12
	pushq	%rbx
	subq	$216, %rsp
	.cfi_offset %rbx, -56
	.cfi_offset %r12, -48
	.cfi_offset %r13, -40
	.cfi_offset %r14, -32
	.cfi_offset %r15, -24
	movq	16(%rdi), %rax
	testq	%rax, %rax
	je	LBB96_8
	movq	%rdi, %r13
	leaq	-152(%rbp), %r12
	leaq	-204(%rbp), %r14
	leaq	-160(%rbp), %rbx
	jmp	LBB96_2
	.p2align	4, 0x90
LBB96_31:
Ltmp458:
	movq	%rbx, %rdi
	vzeroupper
	callq	__ZN4core3ptr13drop_in_place17h1202f0d8a0ebc27dE
Ltmp459:
LBB96_7:
	movq	16(%r13), %rax
	testq	%rax, %rax
	je	LBB96_8
LBB96_2:
	decq	%rax
	movq	%rax, 16(%r13)
	movq	(%r13), %rcx
	leaq	(%rax,%rax,2), %rax
	shlq	$4, %rax
	vmovups	(%rcx,%rax), %ymm0
	vmovups	16(%rcx,%rax), %ymm1
	vmovups	%ymm0, -256(%rbp)
	vmovups	%ymm1, -240(%rbp)
	cmpl	$4, -256(%rbp)
	je	LBB96_9
	vmovups	-256(%rbp), %ymm0
	vmovups	-240(%rbp), %ymm1
	vmovups	%ymm1, -144(%rbp)
	vmovups	%ymm0, -160(%rbp)
	cmpl	$0, -160(%rbp)
	jne	LBB96_31
	vmovups	(%r12), %ymm0
	vmovups	%ymm0, -208(%rbp)
	movq	32(%r12), %rax
	movq	%rax, -176(%rbp)
	cmpl	$1, -208(%rbp)
	jne	LBB96_5
	vmovups	4(%r14), %ymm0
	vmovups	%ymm0, -80(%rbp)
	movq	-80(%rbp), %rbx
	movq	-72(%rbp), %rax
	movq	-64(%rbp), %rcx
	movq	$8, -80(%rbp)
	leaq	-72(%rbp), %rdx
	vxorps	%xmm0, %xmm0, %xmm0
	vmovups	%xmm0, (%rdx)
	shlq	$4, %rcx
	leaq	(%rcx,%rcx,2), %r14
	leaq	(%rbx,%r14), %rcx
	movq	%rbx, -112(%rbp)
	movq	%rax, -104(%rbp)
	movq	%rbx, -96(%rbp)
	movq	%rcx, -88(%rbp)
	movq	%r14, %r15
	sarq	$4, %r15
	movabsq	$-6148914691236517205, %rax
	imulq	%rax, %r15
Ltmp460:
	movq	%r13, %rdi
	movq	%r15, %rsi
	vzeroupper
	callq	__ZN5alloc3vec12Vec$LT$T$GT$7reserve17hc0be6e8834886ea9E
Ltmp461:
	movq	16(%r13), %rax
	leaq	(%rax,%rax,2), %rdi
	shlq	$4, %rdi
	addq	(%r13), %rdi
	movq	%rbx, %rsi
	movq	%r14, %rdx
	callq	_memcpy
	addq	%r15, 16(%r13)
	movq	-88(%rbp), %rax
	movq	%rax, -96(%rbp)
	movq	-104(%rbp), %rax
	testq	%rax, %rax
	je	LBB96_15
	shlq	$4, %rax
	leaq	(%rax,%rax,2), %rsi
	testq	%rsi, %rsi
	je	LBB96_15
	movq	-112(%rbp), %rdi
	movl	$8, %edx
	callq	___rust_dealloc
LBB96_15:
Ltmp466:
	leaq	-80(%rbp), %rdi
	callq	__ZN76_$LT$proc_macro2..fallback..TokenStream$u20$as$u20$core..ops..drop..Drop$GT$4drop17hd9190ec22163f7cbE
Ltmp467:
	movq	-80(%rbp), %r15
	movq	-64(%rbp), %rax
	shlq	$4, %rax
	leaq	(%rax,%rax,2), %rbx
	.p2align	4, 0x90
LBB96_20:
	testq	%rbx, %rbx
	je	LBB96_21
	addq	$-48, %rbx
Ltmp472:
	movq	%r15, %rdi
	addq	$48, %r15
	callq	__ZN4core3ptr13drop_in_place17h1202f0d8a0ebc27dE
Ltmp473:
	jmp	LBB96_20
LBB96_5:
Ltmp456:
	movq	%r14, %rdi
	vzeroupper
	callq	__ZN75_$LT$proc_macro..bridge..client..Group$u20$as$u20$core..ops..drop..Drop$GT$4drop17he3c88ef672dde681E
Ltmp457:
	cmpl	$0, -160(%rbp)
	jne	LBB96_31
	jmp	LBB96_7
LBB96_21:
	movq	-72(%rbp), %rax
	testq	%rax, %rax
	je	LBB96_25
	movq	-80(%rbp), %rdi
	testq	%rdi, %rdi
	je	LBB96_25
	shlq	$4, %rax
	leaq	(%rax,%rax,2), %rsi
	testq	%rsi, %rsi
	je	LBB96_25
	movl	$8, %edx
	callq	___rust_dealloc
LBB96_25:
	cmpl	$1, -208(%rbp)
	leaq	-204(%rbp), %r14
	leaq	-160(%rbp), %rbx
	je	LBB96_26
Ltmp478:
	movq	%r14, %rdi
	callq	__ZN75_$LT$proc_macro..bridge..client..Group$u20$as$u20$core..ops..drop..Drop$GT$4drop17he3c88ef672dde681E
Ltmp479:
LBB96_26:
	cmpl	$0, -160(%rbp)
	je	LBB96_7
Ltmp481:
	movq	%rbx, %rdi
	callq	__ZN4core3ptr13drop_in_place17h1202f0d8a0ebc27dE
Ltmp482:
	jmp	LBB96_7
LBB96_8:
	movl	$4, -256(%rbp)
LBB96_9:
	addq	$216, %rsp
	popq	%rbx
	popq	%r12
	popq	%r13
	popq	%r14
	popq	%r15
	popq	%rbp
	vzeroupper
	retq
LBB96_32:
Ltmp468:
	movq	%rax, %r14
Ltmp469:
	leaq	-80(%rbp), %rdi
	callq	__ZN4core3ptr13drop_in_place17h0f6c0b7d7e2392feE
Ltmp470:
	cmpl	$1, -208(%rbp)
	jne	LBB96_34
LBB96_35:
	cmpl	$0, -160(%rbp)
	jne	LBB96_36
LBB96_37:
	movq	%r14, %rdi
	callq	__Unwind_Resume
	ud2
LBB96_42:
Ltmp471:
	movq	%rax, %r14
	cmpl	$1, -208(%rbp)
	je	LBB96_35
	jmp	LBB96_34
LBB96_10:
Ltmp462:
	movq	%rax, %r14
Ltmp463:
	leaq	-112(%rbp), %rdi
	callq	__ZN4core3ptr13drop_in_place17h3bbbaaad5f52e1baE
Ltmp464:
	leaq	-80(%rbp), %rdi
	callq	__ZN4core3ptr13drop_in_place17h52dd68b03f4c9b56E
	cmpl	$1, -208(%rbp)
	je	LBB96_35
	jmp	LBB96_34
LBB96_40:
Ltmp465:
	movq	%rax, %r14
	leaq	-80(%rbp), %rdi
	callq	__ZN4core3ptr13drop_in_place17h52dd68b03f4c9b56E
	cmpl	$1, -208(%rbp)
	je	LBB96_35
	jmp	LBB96_34
LBB96_38:
Ltmp480:
	movq	%rax, %r14
	cmpl	$0, -160(%rbp)
	je	LBB96_37
	jmp	LBB96_36
LBB96_39:
Ltmp483:
	movq	%rax, %r14
	movq	%r14, %rdi
	callq	__Unwind_Resume
	ud2
LBB96_43:
Ltmp474:
	movq	%rax, %r14
	.p2align	4, 0x90
LBB96_18:
	testq	%rbx, %rbx
	je	LBB96_29
	addq	$-48, %rbx
Ltmp475:
	movq	%r15, %rdi
	addq	$48, %r15
	callq	__ZN4core3ptr13drop_in_place17h1202f0d8a0ebc27dE
Ltmp476:
	jmp	LBB96_18
LBB96_28:
Ltmp477:
	movq	%rax, %r14
LBB96_29:
	movq	-80(%rbp), %rdi
	movq	-72(%rbp), %rsi
	callq	__ZN4core3ptr13drop_in_place17h80e60624eea5b72aE
	cmpl	$1, -208(%rbp)
	je	LBB96_35
LBB96_34:
	leaq	-208(%rbp), %rdi
	callq	__ZN4core3ptr13drop_in_place17h6e056154699760d6E
	cmpl	$0, -160(%rbp)
	je	LBB96_37
LBB96_36:
	leaq	-160(%rbp), %rdi
	callq	__ZN4core3ptr13drop_in_place17h1202f0d8a0ebc27dE
	movq	%r14, %rdi
	callq	__Unwind_Resume
	ud2
Lfunc_end22:
	.cfi_endproc
	.section	__TEXT,__gcc_except_tab
	.p2align	2
GCC_except_table96:
Lexception22:
	.byte	255
	.byte	255
	.byte	1
	.uleb128 Lcst_end22-Lcst_begin22
Lcst_begin22:
	.uleb128 Ltmp458-Lfunc_begin22
	.uleb128 Ltmp459-Ltmp458
	.uleb128 Ltmp483-Lfunc_begin22
	.byte	0
	.uleb128 Ltmp460-Lfunc_begin22
	.uleb128 Ltmp461-Ltmp460
	.uleb128 Ltmp462-Lfunc_begin22
	.byte	0
	.uleb128 Ltmp461-Lfunc_begin22
	.uleb128 Ltmp466-Ltmp461
	.byte	0
	.byte	0
	.uleb128 Ltmp466-Lfunc_begin22
	.uleb128 Ltmp467-Ltmp466
	.uleb128 Ltmp468-Lfunc_begin22
	.byte	0
	.uleb128 Ltmp472-Lfunc_begin22
	.uleb128 Ltmp473-Ltmp472
	.uleb128 Ltmp474-Lfunc_begin22
	.byte	0
	.uleb128 Ltmp456-Lfunc_begin22
	.uleb128 Ltmp479-Ltmp456
	.uleb128 Ltmp480-Lfunc_begin22
	.byte	0
	.uleb128 Ltmp481-Lfunc_begin22
	.uleb128 Ltmp482-Ltmp481
	.uleb128 Ltmp483-Lfunc_begin22
	.byte	0
	.uleb128 Ltmp469-Lfunc_begin22
	.uleb128 Ltmp470-Ltmp469
	.uleb128 Ltmp471-Lfunc_begin22
	.byte	0
	.uleb128 Ltmp470-Lfunc_begin22
	.uleb128 Ltmp463-Ltmp470
	.byte	0
	.byte	0
	.uleb128 Ltmp463-Lfunc_begin22
	.uleb128 Ltmp464-Ltmp463
	.uleb128 Ltmp465-Lfunc_begin22
	.byte	0
	.uleb128 Ltmp464-Lfunc_begin22
	.uleb128 Ltmp475-Ltmp464
	.byte	0
	.byte	0
	.uleb128 Ltmp475-Lfunc_begin22
	.uleb128 Ltmp476-Ltmp475
	.uleb128 Ltmp477-Lfunc_begin22
	.byte	0
	.uleb128 Ltmp476-Lfunc_begin22
	.uleb128 Lfunc_end22-Ltmp476
	.byte	0
	.byte	0
Lcst_end22:
	.p2align	2

	.section	__TEXT,__text,regular,pure_instructions
	.globl	__ZN73_$LT$proc_macro2..fallback..TokenStream$u20$as$u20$core..str..FromStr$GT$8from_str17h8abd7ea07de31368E
	.p2align	4, 0x90
__ZN73_$LT$proc_macro2..fallback..TokenStream$u20$as$u20$core..str..FromStr$GT$8from_str17h8abd7ea07de31368E:
	.cfi_startproc
	pushq	%rbp
	.cfi_def_cfa_offset 16
	.cfi_offset %rbp, -16
	movq	%rsp, %rbp
	.cfi_def_cfa_register %rbp
	pushq	%rbx
	subq	$72, %rsp
	.cfi_offset %rbx, -24
	movq	%rdi, %rbx
	leaq	-48(%rbp), %rdi
	callq	__ZN11proc_macro25parse12token_stream17h3e2c2ac687f200c7E
	movq	-40(%rbp), %rax
	vmovups	-32(%rbp), %xmm0
	vmovaps	%xmm0, -80(%rbp)
	movq	-16(%rbp), %rcx
	movq	%rcx, -64(%rbp)
	cmpq	$0, -48(%rbp)
	je	LBB97_1
	movq	-64(%rbp), %rcx
	movq	%rcx, -32(%rbp)
	vmovaps	-80(%rbp), %xmm0
	vmovaps	%xmm0, -48(%rbp)
	testq	%rax, %rax
	je	LBB97_4
	leaq	-48(%rbp), %rdi
	movq	$0, (%rbx)
	callq	__ZN4core3ptr13drop_in_place17he95080349802e291E
	jmp	LBB97_5
LBB97_1:
	movq	$0, (%rbx)
	jmp	LBB97_5
LBB97_4:
	movq	-32(%rbp), %rax
	movq	%rax, 16(%rbx)
	vmovaps	-48(%rbp), %xmm0
	vmovups	%xmm0, (%rbx)
LBB97_5:
	movq	%rbx, %rax
	addq	$72, %rsp
	popq	%rbx
	popq	%rbp
	retq
	.cfi_endproc

	.section	__TEXT,__literal16,16byte_literals
	.p2align	4
LCPI98_0:
	.space	16
	.section	__TEXT,__text,regular,pure_instructions
	.globl	__ZN73_$LT$proc_macro2..fallback..TokenStream$u20$as$u20$core..fmt..Display$GT$3fmt17hdac897aaeaa8653fE
	.p2align	4, 0x90
__ZN73_$LT$proc_macro2..fallback..TokenStream$u20$as$u20$core..fmt..Display$GT$3fmt17hdac897aaeaa8653fE:
Lfunc_begin23:
	.cfi_startproc
	.cfi_personality 155, _rust_eh_personality
	.cfi_lsda 16, Lexception23
	pushq	%rbp
	.cfi_def_cfa_offset 16
	.cfi_offset %rbp, -16
	movq	%rsp, %rbp
	.cfi_def_cfa_register %rbp
	pushq	%r15
	pushq	%r14
	pushq	%r13
	pushq	%r12
	pushq	%rbx
	subq	$248, %rsp
	.cfi_offset %rbx, -56
	.cfi_offset %r12, -48
	.cfi_offset %r13, -40
	.cfi_offset %r14, -32
	.cfi_offset %r15, -24
	movq	16(%rdi), %r14
	testq	%r14, %r14
	je	LBB98_49
	movq	%rsi, %r12
	movq	(%rdi), %r15
	shlq	$4, %r14
	addq	$-16, %r14
	shrq	$4, %r14
	xorl	%eax, %eax
	leaq	LJTI98_0(%rip), %rbx
	xorl	%r13d, %r13d
	movq	%rsi, -216(%rbp)
	movq	%r14, -224(%rbp)
	testq	%r13, %r13
	jne	LBB98_5
	jmp	LBB98_7
LBB98_2:
	leaq	-248(%rbp), %rax
	movq	%rax, -136(%rbp)
	leaq	__ZN44_$LT$$RF$T$u20$as$u20$core..fmt..Display$GT$3fmt17hda440f9a6aa37f85E(%rip), %rax
	movq	%rax, -128(%rbp)
	leaq	-264(%rbp), %rcx
	movq	%rcx, -120(%rbp)
	movq	%rax, -112(%rbp)
	leaq	l___unnamed_74(%rip), %rax
	movq	%rax, -88(%rbp)
	movq	$2, -80(%rbp)
	movq	$0, -72(%rbp)
	leaq	-136(%rbp), %rax
	movq	%rax, -56(%rbp)
	movq	$2, -48(%rbp)
	movq	-216(%rbp), %r12
	movq	%r12, %rdi
	leaq	-88(%rbp), %rsi
	callq	__ZN4core3fmt9Formatter9write_fmt17h3dc2bf45afed3069E
	testb	%al, %al
	jne	LBB98_54
LBB98_3:
	xorl	%eax, %eax
	addq	$48, %r15
	cmpq	%r14, %r13
	leaq	1(%r13), %r13
	je	LBB98_49
	.p2align	4, 0x90
LBB98_4:
	testq	%r13, %r13
	je	LBB98_7
LBB98_5:
	testb	$1, %al
	jne	LBB98_7
	leaq	l___unnamed_75(%rip), %rax
	movq	%rax, -88(%rbp)
	movq	$1, -80(%rbp)
	movq	$0, -72(%rbp)
	leaq	l___unnamed_76(%rip), %rax
	movq	%rax, -56(%rbp)
	movq	$0, -48(%rbp)
	movq	%r12, %rdi
	leaq	-88(%rbp), %rsi
	callq	__ZN4core3fmt9Formatter9write_fmt17h3dc2bf45afed3069E
	testb	%al, %al
	jne	LBB98_54
LBB98_7:
	movl	(%r15), %eax
	movslq	(%rbx,%rax,4), %rax
	addq	%rbx, %rax
	jmpq	*%rax
LBB98_8:
	leaq	8(%r15), %r14
	cmpl	$1, 8(%r15)
	jne	LBB98_16
	movzbl	40(%r15), %eax
	leaq	LJTI98_2(%rip), %rcx
	movslq	(%rcx,%rax,4), %rsi
	addq	%rcx, %rsi
	leaq	l___unnamed_76(%rip), %rdx
	movq	%rdx, %rcx
	xorl	%eax, %eax
	leaq	-88(%rbp), %rbx
	jmpq	*%rsi
	.p2align	4, 0x90
LBB98_10:
	movl	4(%r15), %eax
	movl	%eax, -176(%rbp)
	leaq	-176(%rbp), %rax
	movq	%rax, -136(%rbp)
	movq	__ZN43_$LT$char$u20$as$u20$core..fmt..Display$GT$3fmt17h6751376c1412eca9E@GOTPCREL(%rip), %rax
	movq	%rax, -128(%rbp)
	leaq	l___unnamed_77(%rip), %rax
	movq	%rax, -88(%rbp)
	movq	$1, -80(%rbp)
	movq	$0, -72(%rbp)
	leaq	-136(%rbp), %rax
	movq	%rax, -56(%rbp)
	movq	$1, -48(%rbp)
	movq	%r12, %rdi
	leaq	-88(%rbp), %rsi
	callq	__ZN4core3fmt9Formatter9write_fmt17h3dc2bf45afed3069E
	testb	%al, %al
	jne	LBB98_54
	cmpb	$0, 12(%r15)
	setne	%al
	addq	$48, %r15
	cmpq	%r14, %r13
	leaq	1(%r13), %r13
	jne	LBB98_4
	jmp	LBB98_49
	.p2align	4, 0x90
LBB98_12:
	leaq	8(%r15), %rax
	movq	%rax, -176(%rbp)
	leaq	-176(%rbp), %rax
	movq	%rax, -136(%rbp)
	leaq	__ZN44_$LT$$RF$T$u20$as$u20$core..fmt..Display$GT$3fmt17h4f94037e1f6acce3E(%rip), %rax
	movq	%rax, -128(%rbp)
	leaq	l___unnamed_77(%rip), %rax
	movq	%rax, -88(%rbp)
	movq	$1, -80(%rbp)
	movq	$0, -72(%rbp)
	leaq	-136(%rbp), %rax
	movq	%rax, -56(%rbp)
	movq	$1, -48(%rbp)
	movq	%r12, %rdi
	leaq	-88(%rbp), %rsi
	callq	__ZN4core3fmt9Formatter9write_fmt17h3dc2bf45afed3069E
	testb	%al, %al
	jne	LBB98_54
	xorl	%eax, %eax
	addq	$48, %r15
	cmpq	%r14, %r13
	leaq	1(%r13), %r13
	jne	LBB98_4
	jmp	LBB98_49
	.p2align	4, 0x90
LBB98_14:
	leaq	8(%r15), %rax
	movq	%rax, -176(%rbp)
	leaq	-176(%rbp), %rax
	movq	%rax, -136(%rbp)
	leaq	__ZN44_$LT$$RF$T$u20$as$u20$core..fmt..Display$GT$3fmt17hf2e90eea6171a556E(%rip), %rax
	movq	%rax, -128(%rbp)
	leaq	l___unnamed_77(%rip), %rax
	movq	%rax, -88(%rbp)
	movq	$1, -80(%rbp)
	movq	$0, -72(%rbp)
	leaq	-136(%rbp), %rax
	movq	%rax, -56(%rbp)
	movq	$1, -48(%rbp)
	movq	%r12, %rdi
	leaq	-88(%rbp), %rsi
	callq	__ZN4core3fmt9Formatter9write_fmt17h3dc2bf45afed3069E
	testb	%al, %al
	jne	LBB98_54
	xorl	%eax, %eax
	addq	$48, %r15
	cmpq	%r14, %r13
	leaq	1(%r13), %r13
	jne	LBB98_4
	jmp	LBB98_49
LBB98_16:
	leaq	4(%r14), %rdi
	callq	__ZN10proc_macro5Group9delimiter17he8916577ffc6964aE
	movzbl	%al, %eax
	leaq	LJTI98_1(%rip), %rcx
	movslq	(%rcx,%rax,4), %rsi
	addq	%rcx, %rsi
	leaq	l___unnamed_76(%rip), %rdx
	movq	%rdx, %rcx
	xorl	%eax, %eax
	leaq	-88(%rbp), %rbx
	jmpq	*%rsi
LBB98_17:
	movl	$1, %eax
	leaq	l___unnamed_78(%rip), %rcx
	leaq	l___unnamed_79(%rip), %rdx
	jmp	LBB98_20
LBB98_18:
	movl	$1, %eax
	leaq	l___unnamed_80(%rip), %rcx
	leaq	l___unnamed_81(%rip), %rdx
	jmp	LBB98_20
LBB98_19:
	movl	$1, %eax
	leaq	l___unnamed_82(%rip), %rcx
	leaq	l___unnamed_83(%rip), %rdx
LBB98_20:
	movq	%rdx, -248(%rbp)
	movq	%rax, -240(%rbp)
	movq	%rcx, -264(%rbp)
	movq	%rax, -256(%rbp)
	cmpl	$1, (%r14)
	movq	%r14, -232(%rbp)
	jne	LBB98_22
	leaq	16(%r15), %rsi
	movq	%rbx, %rdi
	callq	__ZN63_$LT$alloc..vec..Vec$LT$T$GT$$u20$as$u20$core..clone..Clone$GT$5clone17h374acc27dfcebf17E
	movq	-88(%rbp), %r14
	leaq	-80(%rbp), %rax
	vmovups	(%rax), %xmm0
	vmovaps	%xmm0, -208(%rbp)
	movb	$1, %cl
	jmp	LBB98_23
LBB98_22:
	leaq	4(%r14), %rdi
	callq	__ZN10proc_macro5Group6stream17hf7126ed323c54ee1E
	vxorps	%xmm0, %xmm0, %xmm0
	vmovaps	%xmm0, -208(%rbp)
	movl	$4, %r14d
	xorl	%ecx, %ecx
LBB98_23:
	vmovaps	-208(%rbp), %xmm0
	vmovaps	%xmm0, -288(%rbp)
	vmovaps	%xmm0, -176(%rbp)
	testb	%cl, %cl
	je	LBB98_25
	vmovaps	-176(%rbp), %xmm0
	leaq	-80(%rbp), %rax
	movq	%rax, %rcx
	vmovups	%xmm0, (%rax)
	movq	-80(%rbp), %rax
	movq	%rax, -184(%rbp)
	movq	-72(%rbp), %rax
	movq	$8, -88(%rbp)
	vxorps	%xmm0, %xmm0, %xmm0
	vmovups	%xmm0, (%rcx)
	leaq	(%rax,%rax,2), %r12
	shlq	$4, %r12
	addq	%r14, %r12
	movq	%rbx, %rdi
	callq	__ZN4core3ptr13drop_in_place17he95080349802e291E
	movq	-184(%rbp), %rdx
	movl	$1, %ecx
	jmp	LBB98_27
LBB98_25:
	movq	%r14, -88(%rbp)
	vmovaps	-176(%rbp), %xmm0
	leaq	-80(%rbp), %rcx
	vmovups	%xmm0, (%rcx)
	movl	%eax, -64(%rbp)
