	.section	__TEXT,__text,regular,pure_instructions
	.macosx_version_min 10, 7
	.p2align	4, 0x90
__ZN112_$LT$alloc..collections..btree..map..IntoIter$LT$K$C$V$GT$$u20$as$u20$core..iter..traits..iterator..Iterator$GT$4next17hf2ee5dc217a41598E:
	.cfi_startproc
	pushq	%rbp
	.cfi_def_cfa_offset 16
	.cfi_offset %rbp, -16
	movq	%rsp, %rbp
	.cfi_def_cfa_register %rbp
	pushq	%r15
	pushq	%r14
	pushq	%r13
	pushq	%r12
	pushq	%rbx
	subq	$120, %rsp
	.cfi_offset %rbx, -56
	.cfi_offset %r12, -48
	.cfi_offset %r13, -40
	.cfi_offset %r14, -32
	.cfi_offset %r15, -24
	movq	%rdi, %r9
	movq	64(%rsi), %rax
	testq	%rax, %rax
	je	LBB0_21
	movq	%rsi, %r12
	decq	%rax
	movq	%rax, 64(%rsi)
	movq	8(%rsi), %rax
	testq	%rax, %rax
	cmoveq	%rax, %r12
	je	LBB0_23
	movq	(%r12), %rax
	movq	8(%r12), %rdi
	movq	16(%r12), %r10
	movq	24(%r12), %r13
	movzwl	10(%rdi), %ecx
	cmpq	%rcx, %r13
	jae	LBB0_4
	movq	%rax, %rbx
	jmp	LBB0_10
LBB0_21:
	movq	$0, (%r9)
	jmp	LBB0_22
LBB0_4:
	movq	%r10, -48(%rbp)
	movq	%r9, -56(%rbp)
	movl	$544, %r15d
	jmp	LBB0_5
	.p2align	4, 0x90
LBB0_7:
	leaq	1(%rax), %rbx
	movzwl	8(%rdi), %r13d
LBB0_8:
	testq	%rax, %rax
	movl	$640, %esi
	cmoveq	%r15, %rsi
	movl	$8, %edx
	callq	___rust_dealloc
	movzwl	10(%r14), %ecx
	movq	%rbx, %rax
	movq	%r14, %rdi
	cmpq	%rcx, %r13
	jb	LBB0_9
LBB0_5:
	movq	(%rdi), %r14
	testq	%r14, %r14
	jne	LBB0_7
	xorl	%r14d, %r14d
	jmp	LBB0_8
LBB0_9:
	movq	%r14, %rdi
	movq	-56(%rbp), %r9
	movq	-48(%rbp), %r10
LBB0_10:
	leaq	(%r13,%r13,2), %rax
	movq	32(%rdi,%rax,8), %rcx
	movq	%rcx, -64(%rbp)
	movq	16(%rdi,%rax,8), %rcx
	movq	24(%rdi,%rax,8), %rdx
	movq	%rdx, -72(%rbp)
	movq	%rcx, -80(%rbp)
	movq	296(%rdi,%rax,8), %rcx
	movq	%rcx, -88(%rbp)
	movq	280(%rdi,%rax,8), %rcx
	movq	288(%rdi,%rax,8), %rax
	movq	%rax, -96(%rbp)
	movq	%rcx, -104(%rbp)
	testq	%rbx, %rbx
	je	LBB0_11
	movq	%rbx, %rax
	movq	552(%rdi,%r13,8), %rdi
	decq	%rax
	je	LBB0_13
	addq	$-2, %rbx
	movq	%rax, %rcx
	andq	$7, %rcx
	je	LBB0_18
	xorl	%edx, %edx
	.p2align	4, 0x90
LBB0_16:
	movq	544(%rdi), %rdi
	incq	%rdx
	cmpq	%rdx, %rcx
	jne	LBB0_16
	subq	%rdx, %rax
LBB0_18:
	xorl	%r13d, %r13d
	cmpq	$7, %rbx
	jb	LBB0_20
	.p2align	4, 0x90
LBB0_19:
	movq	544(%rdi), %rcx
	movq	544(%rcx), %rcx
	movq	544(%rcx), %rcx
	movq	544(%rcx), %rcx
	movq	544(%rcx), %rcx
	movq	544(%rcx), %rcx
	movq	544(%rcx), %rcx
	movq	544(%rcx), %rdi
	addq	$-8, %rax
	jne	LBB0_19
	jmp	LBB0_20
LBB0_11:
	incq	%r13
	jmp	LBB0_20
LBB0_13:
	xorl	%r13d, %r13d
LBB0_20:
	movq	-64(%rbp), %r8
	movq	%r8, -136(%rbp)
	movq	-80(%rbp), %rcx
	movq	-72(%rbp), %rdx
	movq	%rdx, -144(%rbp)
	movq	%rcx, -152(%rbp)
	movq	-104(%rbp), %rsi
	movq	-96(%rbp), %rbx
	movq	%rsi, -128(%rbp)
	movq	%rbx, -120(%rbp)
	movq	-88(%rbp), %rax
	movq	%rax, -112(%rbp)
	movq	%rax, 40(%r9)
	movq	%rbx, 32(%r9)
	movq	%rsi, 24(%r9)
	movq	%r8, 16(%r9)
	movq	%rdx, 8(%r9)
	movq	%rcx, (%r9)
	movq	$0, (%r12)
	movq	%rdi, 8(%r12)
	movq	%r10, 16(%r12)
	movq	%r13, 24(%r12)
LBB0_22:
	addq	$120, %rsp
	popq	%rbx
	popq	%r12
	popq	%r13
	popq	%r14
	popq	%r15
	popq	%rbp
	retq
LBB0_23:
	leaq	l___unnamed_1(%rip), %rdi
	leaq	l___unnamed_2(%rip), %rdx
	movl	$43, %esi
	callq	__ZN4core9panicking5panic17h383a6b80ea7021aaE
	.cfi_endproc

	.p2align	4, 0x90
__ZN42_$LT$$RF$T$u20$as$u20$core..fmt..Debug$GT$3fmt17h3e9da432f5047b2cE:
	.cfi_startproc
	pushq	%rbp
	.cfi_def_cfa_offset 16
	.cfi_offset %rbp, -16
	movq	%rsp, %rbp
	.cfi_def_cfa_register %rbp
	movq	%rsi, %rdx
	movq	(%rdi), %rax
	movq	(%rax), %rdi
	movq	16(%rax), %rsi
	popq	%rbp
	jmp	__ZN40_$LT$str$u20$as$u20$core..fmt..Debug$GT$3fmt17h5b42b6f497bd434cE
	.cfi_endproc

	.p2align	4, 0x90
__ZN42_$LT$$RF$T$u20$as$u20$core..fmt..Debug$GT$3fmt17heb9db9910414a7e5E:
	.cfi_startproc
	pushq	%rbp
	.cfi_def_cfa_offset 16
	.cfi_offset %rbp, -16
	movq	%rsp, %rbp
	.cfi_def_cfa_register %rbp
	movq	%rsi, %rdx
	movq	(%rdi), %rax
	movq	(%rax), %rdi
	movq	8(%rax), %rsi
	popq	%rbp
	jmp	__ZN40_$LT$str$u20$as$u20$core..fmt..Debug$GT$3fmt17h5b42b6f497bd434cE
	.cfi_endproc

	.p2align	4, 0x90
__ZN44_$LT$$RF$T$u20$as$u20$core..fmt..Display$GT$3fmt17hf40affe4691de552E:
	.cfi_startproc
	pushq	%rbp
	.cfi_def_cfa_offset 16
	.cfi_offset %rbp, -16
	movq	%rsp, %rbp
	.cfi_def_cfa_register %rbp
	movq	%rsi, %rdx
	movq	(%rdi), %rax
	movq	8(%rdi), %rsi
	movq	%rax, %rdi
	popq	%rbp
	jmp	__ZN42_$LT$str$u20$as$u20$core..fmt..Display$GT$3fmt17h6768afae62e94f93E
	.cfi_endproc

	.p2align	4, 0x90
__ZN4core3ptr13drop_in_place17h19ceecc835d9af57E:
	.cfi_startproc
	pushq	%rbp
	.cfi_def_cfa_offset 16
	.cfi_offset %rbp, -16
	movq	%rsp, %rbp
	.cfi_def_cfa_register %rbp
	movq	%rdi, %rax
	movq	(%rdi), %rdi
	testq	%rdi, %rdi
	je	LBB4_2
	movq	8(%rax), %rsi
	testq	%rsi, %rsi
	je	LBB4_2
	movl	$1, %edx
	popq	%rbp
	jmp	___rust_dealloc
LBB4_2:
	popq	%rbp
	retq
	.cfi_endproc

	.p2align	4, 0x90
__ZN4core3ptr13drop_in_place17h1c9649cff52b9344E:
	.cfi_startproc
	pushq	%rbp
	.cfi_def_cfa_offset 16
	.cfi_offset %rbp, -16
	movq	%rsp, %rbp
	.cfi_def_cfa_register %rbp
	movq	%rdi, %rax
	movq	(%rdi), %rdi
	testq	%rdi, %rdi
	je	LBB5_2
	movq	8(%rax), %rsi
	testq	%rsi, %rsi
	je	LBB5_2
	movl	$1, %edx
	popq	%rbp
	jmp	___rust_dealloc
LBB5_2:
	popq	%rbp
	retq
	.cfi_endproc

	.p2align	4, 0x90
__ZN4core3ptr13drop_in_place17h2910b98980e81dd5E:
	.cfi_startproc
	pushq	%rbp
	.cfi_def_cfa_offset 16
	.cfi_offset %rbp, -16
	movq	%rsp, %rbp
	.cfi_def_cfa_register %rbp
	pushq	%r15
	pushq	%r14
	pushq	%rbx
	pushq	%rax
	.cfi_offset %rbx, -40
	.cfi_offset %r14, -32
	.cfi_offset %r15, -24
	movq	%rdi, %r14
	movq	(%rdi), %rbx
	movq	16(%rdi), %rax
	testq	%rax, %rax
	je	LBB6_7
	leaq	(%rax,%rax,2), %rax
	leaq	(%rbx,%rax,8), %r15
	jmp	LBB6_2
	.p2align	4, 0x90
LBB6_5:
	addq	$24, %rbx
	cmpq	%r15, %rbx
	je	LBB6_6
LBB6_2:
	movq	(%rbx), %rdi
	testq	%rdi, %rdi
	je	LBB6_5
	movq	8(%rbx), %rsi
	testq	%rsi, %rsi
	je	LBB6_5
	movl	$1, %edx
	callq	___rust_dealloc
	jmp	LBB6_5
LBB6_6:
	movq	(%r14), %rbx
LBB6_7:
	movq	8(%r14), %rax
	testq	%rax, %rax
	je	LBB6_10
	testq	%rbx, %rbx
	je	LBB6_10
	shlq	$3, %rax
	leaq	(%rax,%rax,2), %rsi
	testq	%rsi, %rsi
	je	LBB6_10
	movl	$8, %edx
	movq	%rbx, %rdi
	addq	$8, %rsp
	popq	%rbx
	popq	%r14
	popq	%r15
	popq	%rbp
	jmp	___rust_dealloc
LBB6_10:
	addq	$8, %rsp
	popq	%rbx
	popq	%r14
	popq	%r15
	popq	%rbp
	retq
	.cfi_endproc

	.p2align	4, 0x90
__ZN4core3ptr13drop_in_place17h33a06a13aa7ec442E:
	.cfi_startproc
	pushq	%rbp
	.cfi_def_cfa_offset 16
	.cfi_offset %rbp, -16
	movq	%rsp, %rbp
	.cfi_def_cfa_register %rbp
	cmpl	$3, (%rdi)
	jne	LBB7_1
	addq	$4, %rdi
	popq	%rbp
	jmp	__ZN70_$LT$std..sys..unix..fd..FileDesc$u20$as$u20$core..ops..drop..Drop$GT$4drop17h633394f1cf9da1c8E
LBB7_1:
	popq	%rbp
	retq
	.cfi_endproc

	.p2align	4, 0x90
__ZN4core3ptr13drop_in_place17h3f2f4a7cbf164721E:
	.cfi_startproc
	pushq	%rbp
	.cfi_def_cfa_offset 16
	.cfi_offset %rbp, -16
	movq	%rsp, %rbp
	.cfi_def_cfa_register %rbp
	popq	%rbp
	retq
	.cfi_endproc

	.p2align	4, 0x90
__ZN4core3ptr13drop_in_place17h6ca93ad0eab2260cE:
Lfunc_begin0:
	.cfi_startproc
	.cfi_personality 155, _rust_eh_personality
	.cfi_lsda 16, Lexception0
	pushq	%rbp
	.cfi_def_cfa_offset 16
	.cfi_offset %rbp, -16
	movq	%rsp, %rbp
	.cfi_def_cfa_register %rbp
	pushq	%r15
	pushq	%r14
	pushq	%rbx
	pushq	%rax
	.cfi_offset %rbx, -40
	.cfi_offset %r14, -32
	.cfi_offset %r15, -24
	cmpb	$2, (%rdi)
	jae	LBB9_1
	addq	$8, %rsp
	popq	%rbx
	popq	%r14
	popq	%r15
	popq	%rbp
	retq
LBB9_1:
	movq	%rdi, %r15
	movq	8(%rdi), %rbx
	movq	(%rbx), %rdi
	movq	8(%rbx), %rax
Ltmp0:
	callq	*(%rax)
Ltmp1:
	movq	8(%rbx), %rax
	movq	8(%rax), %rsi
	testq	%rsi, %rsi
	je	LBB9_4
	movq	(%rbx), %rdi
	movq	16(%rax), %rdx
	callq	___rust_dealloc
LBB9_4:
	movq	8(%r15), %rdi
	movl	$24, %esi
	movl	$8, %edx
	addq	$8, %rsp
	popq	%rbx
	popq	%r14
	popq	%r15
	popq	%rbp
	jmp	___rust_dealloc
LBB9_6:
Ltmp2:
	movq	%rax, %r14
	movq	(%rbx), %rdi
	movq	8(%rbx), %rsi
	callq	__ZN5alloc5alloc8box_free17h3f8610121e74a84dE
	movq	8(%r15), %rdi
	callq	__ZN5alloc5alloc8box_free17h382613623aede1a5E
	movq	%r14, %rdi
	callq	__Unwind_Resume
	ud2
Lfunc_end0:
	.cfi_endproc
	.section	__TEXT,__gcc_except_tab
	.p2align	2
GCC_except_table9:
Lexception0:
	.byte	255
	.byte	255
	.byte	1
	.uleb128 Lcst_end0-Lcst_begin0
Lcst_begin0:
	.uleb128 Ltmp0-Lfunc_begin0
	.uleb128 Ltmp1-Ltmp0
	.uleb128 Ltmp2-Lfunc_begin0
	.byte	0
	.uleb128 Ltmp1-Lfunc_begin0
	.uleb128 Lfunc_end0-Ltmp1
	.byte	0
	.byte	0
Lcst_end0:
	.p2align	2

	.section	__TEXT,__text,regular,pure_instructions
	.p2align	4, 0x90
__ZN4core3ptr13drop_in_place17h703dc4766bdf761eE:
Lfunc_begin1:
	.cfi_startproc
	.cfi_personality 155, _rust_eh_personality
	.cfi_lsda 16, Lexception1
	pushq	%rbp
	.cfi_def_cfa_offset 16
	.cfi_offset %rbp, -16
	movq	%rsp, %rbp
	.cfi_def_cfa_register %rbp
	pushq	%r15
	pushq	%r14
	pushq	%r13
	pushq	%r12
	pushq	%rbx
	subq	$120, %rsp
	.cfi_offset %rbx, -56
	.cfi_offset %r12, -48
	.cfi_offset %r13, -40
	.cfi_offset %r14, -32
	.cfi_offset %r15, -24
	movq	%rdi, %r14
	movq	(%rdi), %rax
	movb	$0, (%rax)
	movq	8(%rdi), %rsi
	testq	%rsi, %rsi
	je	LBB10_2
	movq	(%r14), %rdi
	movl	$1, %edx
	callq	___rust_dealloc
LBB10_2:
	movq	16(%r14), %rbx
	movq	32(%r14), %r15
	testq	%r15, %r15
	je	LBB10_8
	shlq	$4, %r15
	addq	%rbx, %r15
	jmp	LBB10_4
	.p2align	4, 0x90
LBB10_6:
	addq	$16, %rbx
	cmpq	%r15, %rbx
	je	LBB10_7
LBB10_4:
	movq	(%rbx), %rax
	movb	$0, (%rax)
	movq	8(%rbx), %rsi
	testq	%rsi, %rsi
	je	LBB10_6
	movq	(%rbx), %rdi
	movl	$1, %edx
	callq	___rust_dealloc
	jmp	LBB10_6
LBB10_7:
	movq	16(%r14), %rbx
LBB10_8:
	movq	24(%r14), %rsi
	testq	%rsi, %rsi
	je	LBB10_12
	testq	%rbx, %rbx
	je	LBB10_12
	shlq	$4, %rsi
	je	LBB10_12
	movl	$8, %edx
	movq	%rbx, %rdi
	callq	___rust_dealloc
LBB10_12:
	movq	48(%r14), %rsi
	testq	%rsi, %rsi
	je	LBB10_16
	movq	40(%r14), %rdi
	testq	%rdi, %rdi
	je	LBB10_16
	shlq	$3, %rsi
	testq	%rsi, %rsi
	je	LBB10_16
	movl	$8, %edx
	callq	___rust_dealloc
LBB10_16:
	movq	64(%r14), %rcx
	testq	%rcx, %rcx
	je	LBB10_17
	movq	72(%r14), %rdi
	movq	80(%r14), %rax
	movzwl	10(%rcx), %edx
	testq	%rdi, %rdi
	je	LBB10_32
	movb	$1, %bl
	movq	%rcx, %rsi
	.p2align	4, 0x90
LBB10_36:
	testb	$1, %bl
	je	LBB10_33
	cmpq	$1, %rdi
	setne	%bl
	movq	544(%rcx), %rcx
	movq	544(%rsi,%rdx,8), %rsi
	movzwl	10(%rsi), %edx
	decq	%rdi
	jne	LBB10_36
	jmp	LBB10_38
LBB10_17:
	movq	$0, -104(%rbp)
	movq	$0, -72(%rbp)
	xorl	%eax, %eax
	jmp	LBB10_39
LBB10_32:
	movq	%rcx, %rsi
LBB10_38:
	movq	$0, -112(%rbp)
	movq	%rcx, -104(%rbp)
	movq	$0, -96(%rbp)
	movq	$0, -88(%rbp)
	movq	$0, -80(%rbp)
	movq	%rsi, -72(%rbp)
	movq	$0, -64(%rbp)
	movq	%rdx, -56(%rbp)
LBB10_39:
	movq	%rax, -48(%rbp)
Ltmp5:
	leaq	-160(%rbp), %rdi
	leaq	-112(%rbp), %rsi
	callq	__ZN112_$LT$alloc..collections..btree..map..IntoIter$LT$K$C$V$GT$$u20$as$u20$core..iter..traits..iterator..Iterator$GT$4next17hf2ee5dc217a41598E
Ltmp6:
	movq	-160(%rbp), %rdi
	testq	%rdi, %rdi
	je	LBB10_50
	leaq	-160(%rbp), %r15
	leaq	-112(%rbp), %r12
	.p2align	4, 0x90
LBB10_42:
	movq	-136(%rbp), %rbx
	movq	-128(%rbp), %r13
	testq	%rdi, %rdi
	je	LBB10_45
	movq	-152(%rbp), %rsi
	testq	%rsi, %rsi
	je	LBB10_45
	movl	$1, %edx
	callq	___rust_dealloc
LBB10_45:
	testq	%rbx, %rbx
	je	LBB10_48
	testq	%r13, %r13
	je	LBB10_48
	movl	$1, %edx
	movq	%rbx, %rdi
	movq	%r13, %rsi
	callq	___rust_dealloc
LBB10_48:
Ltmp8:
	movq	%r15, %rdi
	movq	%r12, %rsi
	callq	__ZN112_$LT$alloc..collections..btree..map..IntoIter$LT$K$C$V$GT$$u20$as$u20$core..iter..traits..iterator..Iterator$GT$4next17hf2ee5dc217a41598E
Ltmp9:
	movq	-160(%rbp), %rdi
	testq	%rdi, %rdi
	jne	LBB10_42
LBB10_50:
	movq	-104(%rbp), %rdi
	testq	%rdi, %rdi
	je	LBB10_27
	movq	-112(%rbp), %rbx
	movl	$544, %r15d
	.p2align	4, 0x90
LBB10_52:
	movq	(%rdi), %r12
	testq	%rbx, %rbx
	leaq	1(%rbx), %rbx
	movl	$640, %esi
	cmoveq	%r15, %rsi
	movl	$8, %edx
	callq	___rust_dealloc
	movq	%r12, %rdi
	testq	%r12, %r12
	jne	LBB10_52
LBB10_27:
	movq	96(%r14), %rax
	testq	%rax, %rax
	je	LBB10_30
	movb	$0, (%rax)
	movq	104(%r14), %rsi
	testq	%rsi, %rsi
	je	LBB10_30
	movq	96(%r14), %rdi
	movl	$1, %edx
	callq	___rust_dealloc
LBB10_30:
	leaq	112(%r14), %rdi
Ltmp11:
	callq	__ZN4core3ptr13drop_in_place17hf227be4a1bbbad36E
Ltmp12:
	cmpl	$3, 152(%r14)
	jne	LBB10_23
	leaq	156(%r14), %rdi
Ltmp14:
	callq	__ZN70_$LT$std..sys..unix..fd..FileDesc$u20$as$u20$core..ops..drop..Drop$GT$4drop17h633394f1cf9da1c8E
Ltmp15:
LBB10_23:
	cmpl	$3, 160(%r14)
	jne	LBB10_21
	leaq	164(%r14), %rdi
Ltmp17:
	callq	__ZN70_$LT$std..sys..unix..fd..FileDesc$u20$as$u20$core..ops..drop..Drop$GT$4drop17h633394f1cf9da1c8E
Ltmp18:
LBB10_21:
	cmpl	$3, 168(%r14)
	jne	LBB10_59
	addq	$172, %r14
	movq	%r14, %rdi
	addq	$120, %rsp
	popq	%rbx
	popq	%r12
	popq	%r13
	popq	%r14
	popq	%r15
	popq	%rbp
	jmp	__ZN70_$LT$std..sys..unix..fd..FileDesc$u20$as$u20$core..ops..drop..Drop$GT$4drop17h633394f1cf9da1c8E
LBB10_59:
	addq	$120, %rsp
	popq	%rbx
	popq	%r12
	popq	%r13
	popq	%r14
	popq	%r15
	popq	%rbp
	retq
LBB10_33:
	leaq	l___unnamed_3(%rip), %rax
	movq	%rax, -160(%rbp)
	leaq	__ZN44_$LT$$RF$T$u20$as$u20$core..fmt..Display$GT$3fmt17hf40affe4691de552E(%rip), %rax
	movq	%rax, -152(%rbp)
	leaq	l___unnamed_4(%rip), %rax
	movq	%rax, -112(%rbp)
	movq	$1, -104(%rbp)
	movq	$0, -96(%rbp)
	leaq	-160(%rbp), %rax
	movq	%rax, -80(%rbp)
	movq	$1, -72(%rbp)
Ltmp3:
	leaq	l___unnamed_5(%rip), %rsi
	leaq	-112(%rbp), %rdi
	callq	__ZN4core9panicking9panic_fmt17hfce5b7173905fc53E
Ltmp4:
	ud2
LBB10_58:
Ltmp19:
	movq	%rax, %rbx
	jmp	LBB10_20
LBB10_18:
Ltmp16:
	movq	%rax, %rbx
	jmp	LBB10_19
LBB10_54:
Ltmp7:
	jmp	LBB10_55
LBB10_57:
Ltmp13:
	movq	%rax, %rbx
	jmp	LBB10_56
LBB10_53:
Ltmp10:
LBB10_55:
	movq	%rax, %rbx
	leaq	96(%r14), %rdi
	callq	__ZN4core3ptr13drop_in_place17h8929772ee622e6ccE
	leaq	112(%r14), %rdi
	callq	__ZN4core3ptr13drop_in_place17hf227be4a1bbbad36E
LBB10_56:
	leaq	152(%r14), %rdi
	callq	__ZN4core3ptr13drop_in_place17h33a06a13aa7ec442E
LBB10_19:
	leaq	160(%r14), %rdi
	callq	__ZN4core3ptr13drop_in_place17h33a06a13aa7ec442E
LBB10_20:
	addq	$168, %r14
	movq	%r14, %rdi
	callq	__ZN4core3ptr13drop_in_place17h33a06a13aa7ec442E
	movq	%rbx, %rdi
	callq	__Unwind_Resume
	ud2
Lfunc_end1:
	.cfi_endproc
	.section	__TEXT,__gcc_except_tab
	.p2align	2
GCC_except_table10:
Lexception1:
	.byte	255
	.byte	255
	.byte	1
	.uleb128 Lcst_end1-Lcst_begin1
Lcst_begin1:
	.uleb128 Ltmp5-Lfunc_begin1
	.uleb128 Ltmp6-Ltmp5
	.uleb128 Ltmp7-Lfunc_begin1
	.byte	0
	.uleb128 Ltmp8-Lfunc_begin1
	.uleb128 Ltmp9-Ltmp8
	.uleb128 Ltmp10-Lfunc_begin1
	.byte	0
	.uleb128 Ltmp11-Lfunc_begin1
	.uleb128 Ltmp12-Ltmp11
	.uleb128 Ltmp13-Lfunc_begin1
	.byte	0
	.uleb128 Ltmp14-Lfunc_begin1
	.uleb128 Ltmp15-Ltmp14
	.uleb128 Ltmp16-Lfunc_begin1
	.byte	0
	.uleb128 Ltmp17-Lfunc_begin1
	.uleb128 Ltmp18-Ltmp17
	.uleb128 Ltmp19-Lfunc_begin1
	.byte	0
	.uleb128 Ltmp18-Lfunc_begin1
	.uleb128 Ltmp3-Ltmp18
	.byte	0
	.byte	0
	.uleb128 Ltmp3-Lfunc_begin1
	.uleb128 Ltmp4-Ltmp3
	.uleb128 Ltmp7-Lfunc_begin1
	.byte	0
	.uleb128 Ltmp4-Lfunc_begin1
	.uleb128 Lfunc_end1-Ltmp4
	.byte	0
	.byte	0
Lcst_end1:
	.p2align	2

	.section	__TEXT,__text,regular,pure_instructions
	.p2align	4, 0x90
__ZN4core3ptr13drop_in_place17h8911b134ff2e1ba5E:
	.cfi_startproc
	pushq	%rbp
	.cfi_def_cfa_offset 16
	.cfi_offset %rbp, -16
	movq	%rsp, %rbp
	.cfi_def_cfa_register %rbp
	cmpq	$0, (%rdi)
	movq	8(%rdi), %rax
	testq	%rax, %rax
	je	LBB11_2
	movq	16(%rdi), %rsi
	testq	%rsi, %rsi
	je	LBB11_2
	movl	$1, %edx
	movq	%rax, %rdi
	popq	%rbp
	jmp	___rust_dealloc
LBB11_2:
	popq	%rbp
	retq
	.cfi_endproc

	.p2align	4, 0x90
__ZN4core3ptr13drop_in_place17h8929772ee622e6ccE:
	.cfi_startproc
	pushq	%rbp
	.cfi_def_cfa_offset 16
	.cfi_offset %rbp, -16
	movq	%rsp, %rbp
	.cfi_def_cfa_register %rbp
	movq	(%rdi), %rax
	testq	%rax, %rax
	je	LBB12_2
	movb	$0, (%rax)
	movq	8(%rdi), %rsi
	testq	%rsi, %rsi
	je	LBB12_2
	movq	(%rdi), %rdi
	movl	$1, %edx
	popq	%rbp
	jmp	___rust_dealloc
LBB12_2:
	popq	%rbp
	retq
	.cfi_endproc

	.p2align	4, 0x90
__ZN4core3ptr13drop_in_place17h8e75123baeece53eE:
	.cfi_startproc
	pushq	%rbp
	.cfi_def_cfa_offset 16
	.cfi_offset %rbp, -16
	movq	%rsp, %rbp
	.cfi_def_cfa_register %rbp
	testq	%rsi, %rsi
	je	LBB13_3
	testq	%rdi, %rdi
	je	LBB13_3
	shlq	$4, %rsi
	je	LBB13_3
	movl	$8, %edx
	popq	%rbp
	jmp	___rust_dealloc
LBB13_3:
	popq	%rbp
	retq
	.cfi_endproc

	.p2align	4, 0x90
__ZN4core3ptr13drop_in_place17h91f72f60d3a68823E:
Lfunc_begin2:
	.cfi_startproc
	.cfi_personality 155, _rust_eh_personality
	.cfi_lsda 16, Lexception2
	pushq	%rbp
	.cfi_def_cfa_offset 16
	.cfi_offset %rbp, -16
	movq	%rsp, %rbp
	.cfi_def_cfa_register %rbp
	pushq	%r14
	pushq	%rbx
	.cfi_offset %rbx, -32
	.cfi_offset %r14, -24
	movq	%rdi, %rbx
	movq	(%rdi), %rdi
	movq	8(%rbx), %rax
Ltmp20:
	callq	*(%rax)
Ltmp21:
	movq	8(%rbx), %rax
	movq	8(%rax), %rsi
	testq	%rsi, %rsi
	je	LBB14_2
	movq	(%rbx), %rdi
	movq	16(%rax), %rdx
	popq	%rbx
	popq	%r14
	popq	%rbp
	jmp	___rust_dealloc
LBB14_2:
	popq	%rbx
	popq	%r14
	popq	%rbp
	retq
LBB14_3:
Ltmp22:
	movq	%rax, %r14
	movq	(%rbx), %rdi
	movq	8(%rbx), %rsi
	callq	__ZN5alloc5alloc8box_free17h3f8610121e74a84dE
	movq	%r14, %rdi
	callq	__Unwind_Resume
	ud2
Lfunc_end2:
	.cfi_endproc
	.section	__TEXT,__gcc_except_tab
	.p2align	2
GCC_except_table14:
Lexception2:
	.byte	255
	.byte	255
	.byte	1
	.uleb128 Lcst_end2-Lcst_begin2
Lcst_begin2:
	.uleb128 Ltmp20-Lfunc_begin2
	.uleb128 Ltmp21-Ltmp20
	.uleb128 Ltmp22-Lfunc_begin2
	.byte	0
	.uleb128 Ltmp21-Lfunc_begin2
	.uleb128 Lfunc_end2-Ltmp21
	.byte	0
	.byte	0
Lcst_end2:
	.p2align	2

	.section	__TEXT,__text,regular,pure_instructions
	.p2align	4, 0x90
__ZN4core3ptr13drop_in_place17hcdeabca077e80286E:
	.cfi_startproc
	pushq	%rbp
	.cfi_def_cfa_offset 16
	.cfi_offset %rbp, -16
	movq	%rsp, %rbp
	.cfi_def_cfa_register %rbp
	movq	%rdi, %rax
	movq	(%rdi), %rdi
	testq	%rdi, %rdi
	je	LBB15_2
	movq	8(%rax), %rsi
	testq	%rsi, %rsi
	je	LBB15_2
	movl	$1, %edx
	popq	%rbp
	jmp	___rust_dealloc
LBB15_2:
	popq	%rbp
	retq
	.cfi_endproc

	.p2align	4, 0x90
__ZN4core3ptr13drop_in_place17hf227be4a1bbbad36E:
Lfunc_begin3:
	.cfi_startproc
	.cfi_personality 155, _rust_eh_personality
	.cfi_lsda 16, Lexception3
	pushq	%rbp
	.cfi_def_cfa_offset 16
	.cfi_offset %rbp, -16
	movq	%rsp, %rbp
	.cfi_def_cfa_register %rbp
	pushq	%r15
	pushq	%r14
	pushq	%r13
	pushq	%r12
	pushq	%rbx
	pushq	%rax
	.cfi_offset %rbx, -56
	.cfi_offset %r12, -48
	.cfi_offset %r13, -40
	.cfi_offset %r14, -32
	.cfi_offset %r15, -24
	movq	%rdi, %r14
	movq	(%rdi), %r13
	movq	16(%rdi), %r12
	testq	%r12, %r12
	je	LBB16_7
	shlq	$4, %r12
	leaq	(%r13,%r12), %r15
	addq	$-16, %r12
	addq	$16, %r13
	jmp	LBB16_2
	.p2align	4, 0x90
LBB16_5:
	addq	$-16, %r12
	addq	$16, %r13
	addq	$16, %rbx
	cmpq	%r15, %rbx
	je	LBB16_6
LBB16_2:
	movq	-16(%r13), %rdi
	movq	-8(%r13), %rax
Ltmp23:
	callq	*(%rax)
Ltmp24:
	leaq	-16(%r13), %rbx
	movq	8(%rbx), %rax
	movq	8(%rax), %rsi
	testq	%rsi, %rsi
	je	LBB16_5
	movq	-16(%r13), %rdi
	movq	16(%rax), %rdx
	callq	___rust_dealloc
	jmp	LBB16_5
LBB16_6:
	movq	(%r14), %r13
LBB16_7:
	movq	8(%r14), %rsi
	testq	%rsi, %rsi
	je	LBB16_14
	testq	%r13, %r13
	je	LBB16_14
	shlq	$4, %rsi
	je	LBB16_14
	movl	$8, %edx
	movq	%r13, %rdi
	addq	$8, %rsp
	popq	%rbx
	popq	%r12
	popq	%r13
	popq	%r14
	popq	%r15
	popq	%rbp
	jmp	___rust_dealloc
LBB16_14:
	addq	$8, %rsp
	popq	%rbx
	popq	%r12
	popq	%r13
	popq	%r14
	popq	%r15
	popq	%rbp
	retq
LBB16_11:
Ltmp25:
	movq	%rax, %r15
	movq	-16(%r13), %rdi
	movq	-8(%r13), %rsi
	callq	__ZN5alloc5alloc8box_free17h3f8610121e74a84dE
	testq	%r12, %r12
	je	LBB16_16
LBB16_12:
Ltmp26:
	movq	%r13, %rdi
	callq	__ZN4core3ptr13drop_in_place17h91f72f60d3a68823E
Ltmp27:
	addq	$16, %r13
	addq	$-16, %r12
	jne	LBB16_12
LBB16_16:
	movq	(%r14), %rdi
	movq	8(%r14), %rsi
	callq	__ZN4core3ptr13drop_in_place17h8e75123baeece53eE
	movq	%r15, %rdi
	callq	__Unwind_Resume
	ud2
LBB16_15:
Ltmp28:
	movq	%rax, %r15
	jmp	LBB16_16
Lfunc_end3:
	.cfi_endproc
	.section	__TEXT,__gcc_except_tab
	.p2align	2
GCC_except_table16:
Lexception3:
	.byte	255
	.byte	255
	.byte	1
	.uleb128 Lcst_end3-Lcst_begin3
Lcst_begin3:
	.uleb128 Ltmp23-Lfunc_begin3
	.uleb128 Ltmp24-Ltmp23
	.uleb128 Ltmp25-Lfunc_begin3
	.byte	0
	.uleb128 Ltmp26-Lfunc_begin3
	.uleb128 Ltmp27-Ltmp26
	.uleb128 Ltmp28-Lfunc_begin3
	.byte	0
	.uleb128 Ltmp27-Lfunc_begin3
	.uleb128 Lfunc_end3-Ltmp27
	.byte	0
	.byte	0
Lcst_end3:
	.p2align	2

	.section	__TEXT,__text,regular,pure_instructions
	.p2align	4, 0x90
__ZN4core3str21_$LT$impl$u20$str$GT$12trim_matches17h56cf619eaabb3472E:
	.cfi_startproc
	pushq	%rbp
	.cfi_def_cfa_offset 16
	.cfi_offset %rbp, -16
	movq	%rsp, %rbp
	.cfi_def_cfa_register %rbp
	pushq	%r15
	pushq	%r14
	pushq	%r12
	pushq	%rbx
	.cfi_offset %rbx, -48
	.cfi_offset %r12, -40
	.cfi_offset %r14, -32
	.cfi_offset %r15, -24
	movq	%rdi, %rax
	leaq	(%rdi,%rsi), %r9
	xorl	%edi, %edi
	jmp	LBB17_4
LBB17_1:
	shll	$6, %ebx
LBB17_2:
	orl	%ebx, %edi
	movl	%edi, %edx
LBB17_3:
	movq	%r8, %rdi
	subq	%rcx, %rdi
	addq	%r10, %rdi
	movq	%rdi, %r10
	cmpl	$34, %edx
	jne	LBB17_20
LBB17_4:
	cmpq	%rsi, %rdi
	je	LBB17_18
	movq	%rdi, %r8
	leaq	(%rax,%rdi), %rcx
	leaq	1(%rcx), %r10
	movzbl	(%rcx), %edx
	testb	%dl, %dl
	jns	LBB17_3
	cmpq	%r9, %r10
	je	LBB17_8
	leaq	2(%rcx), %r10
	movzbl	1(%rcx), %edi
	andl	$63, %edi
	movq	%r10, %r11
	movl	%edx, %ebx
	andl	$31, %ebx
	cmpb	$-33, %dl
	jbe	LBB17_1
	jmp	LBB17_9
LBB17_8:
	xorl	%edi, %edi
	movq	%r9, %r11
	movl	%edx, %ebx
	andl	$31, %ebx
	cmpb	$-33, %dl
	jbe	LBB17_1
LBB17_9:
	cmpq	%r9, %r11
	je	LBB17_13
	movzbl	(%r11), %r14d
	incq	%r11
	andl	$63, %r14d
	movq	%r11, %r10
	shll	$6, %edi
	orl	%r14d, %edi
	cmpb	$-16, %dl
	jb	LBB17_14
LBB17_11:
	cmpq	%r9, %r11
	je	LBB17_15
	movzbl	(%r11), %edx
	incq	%r11
	andl	$63, %edx
	movq	%r11, %r10
	jmp	LBB17_16
LBB17_13:
	xorl	%r14d, %r14d
	movq	%r9, %r11
	shll	$6, %edi
	orl	%r14d, %edi
	cmpb	$-16, %dl
	jae	LBB17_11
LBB17_14:
	shll	$12, %ebx
	jmp	LBB17_2
LBB17_15:
	xorl	%edx, %edx
LBB17_16:
	andl	$7, %ebx
	shll	$18, %ebx
	shll	$6, %edi
	orl	%ebx, %edi
	orl	%edx, %edi
	movl	%edi, %edx
	cmpl	$1114112, %edi
	jne	LBB17_3
	xorl	%edi, %edi
	movq	%r8, %r10
	jmp	LBB17_19
LBB17_18:
	xorl	%edi, %edi
	movq	%rsi, %r10
LBB17_19:
	xorl	%r8d, %r8d
LBB17_20:
	leaq	(%rax,%r10), %r9
	jmp	LBB17_24
LBB17_21:
	xorl	%esi, %esi
LBB17_22:
	shll	$6, %esi
	andl	$63, %ecx
	orl	%esi, %ecx
	cmpl	$1114112, %ecx
	je	LBB17_39
LBB17_23:
	movq	%rdx, %rsi
	subq	%r11, %rsi
	addq	%r12, %rsi
	cmpl	$34, %ecx
	jne	LBB17_40
LBB17_24:
	cmpq	%rsi, %r10
	je	LBB17_39
	movq	%rsi, %rdx
	leaq	(%rax,%rsi), %r11
	leaq	-1(%r11), %r12
	movzbl	-1(%r11), %ecx
	testb	%cl, %cl
	jns	LBB17_23
	cmpq	%r12, %r9
	je	LBB17_21
	leaq	-2(%r11), %r12
	movzbl	-2(%r11), %esi
	movl	%esi, %ebx
	andb	$-64, %bl
	cmpb	$-128, %bl
	jne	LBB17_32
	cmpq	%r12, %r9
	je	LBB17_33
	leaq	-3(%r11), %r12
	movzbl	-3(%r11), %r14d
	movl	%r14d, %ebx
	andb	$-64, %bl
	cmpb	$-128, %bl
	jne	LBB17_34
	cmpq	%r12, %r9
	je	LBB17_35
	leaq	-4(%r11), %r12
	movzbl	-4(%r11), %r15d
	andl	$7, %r15d
	shll	$6, %r15d
	jmp	LBB17_36
LBB17_32:
	andl	$31, %esi
	jmp	LBB17_22
LBB17_33:
	xorl	%r14d, %r14d
	jmp	LBB17_37
LBB17_34:
	andl	$15, %r14d
	jmp	LBB17_37
LBB17_35:
	xorl	%r15d, %r15d
LBB17_36:
	andl	$63, %r14d
	orl	%r15d, %r14d
LBB17_37:
	shll	$6, %r14d
	andl	$63, %esi
	orl	%r14d, %esi
	jmp	LBB17_22
LBB17_39:
	movq	%rdi, %rdx
LBB17_40:
	addq	%r8, %rax
	subq	%r8, %rdx
	popq	%rbx
	popq	%r12
	popq	%r14
	popq	%r15
	popq	%rbp
	retq
	.cfi_endproc

	.p2align	4, 0x90
__ZN4core3str22SplitInternal$LT$P$GT$4next17hfc5e830407c40016E:
	.cfi_startproc
	pushq	%rbp
	.cfi_def_cfa_offset 16
	.cfi_offset %rbp, -16
	movq	%rsp, %rbp
	.cfi_def_cfa_register %rbp
	pushq	%r15
	pushq	%r14
	pushq	%r13
	pushq	%r12
	pushq	%rbx
	subq	$24, %rsp
	.cfi_offset %rbx, -56
	.cfi_offset %r12, -48
	.cfi_offset %r13, -40
	.cfi_offset %r14, -32
	.cfi_offset %r15, -24
	cmpb	$0, 65(%rdi)
	jne	LBB18_1
	movq	%rdi, %r13
	movq	32(%rdi), %rsi
	movq	40(%rdi), %rax
	movq	%rax, %rdx
	subq	%rsi, %rdx
	jb	LBB18_16
	cmpq	%rax, 24(%r13)
	jb	LBB18_16
	movq	16(%r13), %rcx
	movq	48(%r13), %rax
	movq	%rcx, -56(%rbp)
	addq	%rcx, %rsi
	movzbl	59(%rax,%r13), %edi
	callq	__ZN4core5slice6memchr6memchr17hd650620a8925ad84E
	cmpq	$1, %rax
	jne	LBB18_15
	leaq	60(%r13), %rax
	movq	%rax, -48(%rbp)
	.p2align	4, 0x90
LBB18_6:
	movq	32(%r13), %rax
	movq	48(%r13), %r15
	leaq	1(%rdx,%rax), %rbx
	movq	%rbx, 32(%r13)
	movq	%rbx, %r12
	subq	%r15, %r12
	jae	LBB18_8
	movq	24(%r13), %r14
	jmp	LBB18_12
	.p2align	4, 0x90
LBB18_8:
	movq	24(%r13), %r14
	cmpq	%rbx, %r14
	jb	LBB18_12
	cmpq	$5, %r15
	jae	LBB18_23
	movq	16(%r13), %rdi
	addq	%r12, %rdi
	cmpq	-48(%rbp), %rdi
	je	LBB18_21
	movq	-48(%rbp), %rsi
	movq	%r15, %rdx
	callq	_memcmp
	testl	%eax, %eax
	je	LBB18_21
LBB18_12:
	movq	40(%r13), %rax
	movq	%rax, %rdx
	subq	%rbx, %rdx
	jb	LBB18_16
	cmpq	%rax, %r14
	jb	LBB18_16
	addq	16(%r13), %rbx
	movzbl	59(%r15,%r13), %edi
	movq	%rbx, %rsi
	callq	__ZN4core5slice6memchr6memchr17hd650620a8925ad84E
	cmpq	$1, %rax
	je	LBB18_6
LBB18_15:
	movq	40(%r13), %rax
	movq	%rax, 32(%r13)
LBB18_16:
	cmpb	$0, 65(%r13)
	je	LBB18_17
LBB18_1:
	xorl	%eax, %eax
LBB18_22:
	movq	%r12, %rdx
	addq	$24, %rsp
	popq	%rbx
	popq	%r12
	popq	%r13
	popq	%r14
	popq	%r15
	popq	%rbp
	retq
LBB18_17:
	cmpb	$0, 64(%r13)
	je	LBB18_19
	movq	(%r13), %rax
	movq	8(%r13), %r12
	jmp	LBB18_20
LBB18_19:
	movq	(%r13), %rax
	movq	8(%r13), %r12
	cmpq	%rax, %r12
	je	LBB18_1
LBB18_20:
	movb	$1, 65(%r13)
	subq	%rax, %r12
	addq	16(%r13), %rax
	jmp	LBB18_22
LBB18_21:
	movq	(%r13), %rcx
	movq	-56(%rbp), %rax
	addq	%rcx, %rax
	subq	%rcx, %r12
	movq	%rbx, (%r13)
	jmp	LBB18_22
LBB18_23:
	leaq	l___unnamed_6(%rip), %rdx
	movl	$4, %esi
	movq	%r15, %rdi
	callq	__ZN4core5slice24slice_end_index_len_fail17hea9e3399ed430f80E
	.cfi_endproc

	.p2align	4, 0x90
__ZN5alloc3vec12Vec$LT$T$GT$4push17hb420128bc619abdaE:
Lfunc_begin4:
	.cfi_startproc
	.cfi_personality 155, _rust_eh_personality
	.cfi_lsda 16, Lexception4
	pushq	%rbp
	.cfi_def_cfa_offset 16
	.cfi_offset %rbp, -16
	movq	%rsp, %rbp
	.cfi_def_cfa_register %rbp
	pushq	%r15
	pushq	%r14
	pushq	%rbx
	pushq	%rax
	.cfi_offset %rbx, -40
	.cfi_offset %r14, -32
	.cfi_offset %r15, -24
	movq	%rsi, %r14
	movq	%rdi, %rbx
	movq	16(%rdi), %rcx
	cmpq	8(%rdi), %rcx
	jne	LBB19_18
	movq	%rcx, %rdx
	incq	%rdx
	je	LBB19_19
	leaq	(%rcx,%rcx), %rax
	cmpq	%rdx, %rax
	cmovaq	%rax, %rdx
	cmpq	$4, %rdx
	movl	$4, %eax
	cmovaq	%rdx, %rax
	movl	$24, %edx
	xorl	%esi, %esi
	mulq	%rdx
	movq	%rax, %r15
	seto	%dl
	setno	%dil
	movq	%rcx, %rax
	testq	%rcx, %rcx
	je	LBB19_4
	movq	(%rbx), %rax
LBB19_4:
	testb	%dl, %dl
	jne	LBB19_19
	testq	%rax, %rax
	je	LBB19_6
	leaq	(,%rcx,8), %rdx
	leaq	(%rdx,%rdx,2), %rsi
	cmpq	%r15, %rsi
	je	LBB19_15
	testq	%rsi, %rsi
	je	LBB19_10
	movl	$8, %edx
	movq	%rax, %rdi
	movq	%r15, %rcx
	callq	___rust_realloc
	jmp	LBB19_15
LBB19_6:
	movb	%dil, %sil
	shlq	$3, %rsi
	testq	%r15, %r15
	jne	LBB19_13
	movq	%rsi, %rax
	jmp	LBB19_15
LBB19_10:
	testq	%r15, %r15
	je	LBB19_11
	movl	$8, %esi
LBB19_13:
	movq	%r15, %rdi
	callq	___rust_alloc
LBB19_15:
	testq	%rax, %rax
	je	LBB19_21
	movq	16(%rbx), %rcx
LBB19_17:
	movq	%rax, (%rbx)
	movabsq	$-6148914691236517205, %rdx
	movq	%r15, %rax
	mulq	%rdx
	shrq	$4, %rdx
	movq	%rdx, 8(%rbx)
LBB19_18:
	movq	(%rbx), %rax
	leaq	(%rcx,%rcx,2), %rcx
	movq	16(%r14), %rdx
	movq	%rdx, 16(%rax,%rcx,8)
	movq	(%r14), %rdx
	movq	8(%r14), %rsi
	movq	%rsi, 8(%rax,%rcx,8)
	movq	%rdx, (%rax,%rcx,8)
	incq	16(%rbx)
	addq	$8, %rsp
	popq	%rbx
	popq	%r14
	popq	%r15
	popq	%rbp
	retq
LBB19_11:
	movl	$8, %eax
	jmp	LBB19_17
LBB19_19:
Ltmp29:
	callq	__ZN5alloc7raw_vec17capacity_overflow17h7526b10e27579d59E
Ltmp30:
	ud2
LBB19_21:
	movl	$8, %esi
	movq	%r15, %rdi
	callq	__ZN5alloc5alloc18handle_alloc_error17h28974197717b8939E
LBB19_22:
Ltmp31:
	movq	%rax, %rbx
	movq	%r14, %rdi
	callq	__ZN4core3ptr13drop_in_place17hcdeabca077e80286E
	movq	%rbx, %rdi
	callq	__Unwind_Resume
	ud2
Lfunc_end4:
	.cfi_endproc
	.section	__TEXT,__gcc_except_tab
	.p2align	2
GCC_except_table19:
Lexception4:
	.byte	255
	.byte	255
	.byte	1
	.uleb128 Lcst_end4-Lcst_begin4
Lcst_begin4:
	.uleb128 Ltmp29-Lfunc_begin4
	.uleb128 Ltmp30-Ltmp29
	.uleb128 Ltmp31-Lfunc_begin4
	.byte	0
	.uleb128 Ltmp30-Lfunc_begin4
	.uleb128 Lfunc_end4-Ltmp30
	.byte	0
	.byte	0
Lcst_end4:
	.p2align	2

	.section	__TEXT,__text,regular,pure_instructions
	.p2align	4, 0x90
__ZN5alloc5alloc8box_free17h382613623aede1a5E:
	.cfi_startproc
	pushq	%rbp
	.cfi_def_cfa_offset 16
	.cfi_offset %rbp, -16
	movq	%rsp, %rbp
	.cfi_def_cfa_register %rbp
	movl	$24, %esi
	movl	$8, %edx
	popq	%rbp
	jmp	___rust_dealloc
	.cfi_endproc

	.p2align	4, 0x90
__ZN5alloc5alloc8box_free17h3f8610121e74a84dE:
	.cfi_startproc
	pushq	%rbp
	.cfi_def_cfa_offset 16
	.cfi_offset %rbp, -16
	movq	%rsp, %rbp
	.cfi_def_cfa_register %rbp
	movq	%rsi, %rax
	movq	8(%rsi), %rsi
	testq	%rsi, %rsi
	je	LBB21_1
	movq	16(%rax), %rdx
	popq	%rbp
	jmp	___rust_dealloc
LBB21_1:
	popq	%rbp
	retq
	.cfi_endproc

	.p2align	4, 0x90
__ZN79_$LT$failure..error_message..ErrorMessage$LT$D$GT$$u20$as$u20$failure..Fail$GT$4name17h272c3a1481f04e21E:
	.cfi_startproc
	pushq	%rbp
	.cfi_def_cfa_offset 16
	.cfi_offset %rbp, -16
	movq	%rsp, %rbp
	.cfi_def_cfa_register %rbp
	leaq	l___unnamed_7(%rip), %rax
	movl	$21, %edx
	popq	%rbp
	retq
	.cfi_endproc

	.p2align	4, 0x90
__ZN79_$LT$failure..error_message..ErrorMessage$LT$D$GT$$u20$as$u20$failure..Fail$GT$4name17hebd29d08b9d75883E:
	.cfi_startproc
	pushq	%rbp
	.cfi_def_cfa_offset 16
	.cfi_offset %rbp, -16
	movq	%rsp, %rbp
	.cfi_def_cfa_register %rbp
	leaq	l___unnamed_7(%rip), %rax
	movl	$21, %edx
	popq	%rbp
	retq
	.cfi_endproc

	.p2align	4, 0x90
__ZN7failure4Fail23__private_get_type_id__17h1191df0f22858b00E:
	.cfi_startproc
	pushq	%rbp
	.cfi_def_cfa_offset 16
	.cfi_offset %rbp, -16
	movq	%rsp, %rbp
	.cfi_def_cfa_register %rbp
	movabsq	$-5473888442226101798, %rax
	popq	%rbp
	retq
	.cfi_endproc

	.p2align	4, 0x90
__ZN7failure4Fail23__private_get_type_id__17h317cdd6931fbdadaE:
	.cfi_startproc
	pushq	%rbp
	.cfi_def_cfa_offset 16
	.cfi_offset %rbp, -16
	movq	%rsp, %rbp
	.cfi_def_cfa_register %rbp
	movabsq	$7867320649926384921, %rax
	popq	%rbp
	retq
	.cfi_endproc

	.p2align	4, 0x90
__ZN7failure4Fail23__private_get_type_id__17h4d66ce6f15bc0ee1E:
	.cfi_startproc
	pushq	%rbp
	.cfi_def_cfa_offset 16
	.cfi_offset %rbp, -16
	movq	%rsp, %rbp
	.cfi_def_cfa_register %rbp
	movabsq	$7508826005076360610, %rax
	popq	%rbp
	retq
	.cfi_endproc

	.p2align	4, 0x90
__ZN7failure4Fail23__private_get_type_id__17hac96cd1cef1c82b8E:
	.cfi_startproc
	pushq	%rbp
	.cfi_def_cfa_offset 16
	.cfi_offset %rbp, -16
	movq	%rsp, %rbp
	.cfi_def_cfa_register %rbp
	movabsq	$-8157048136638617880, %rax
	popq	%rbp
	retq
	.cfi_endproc

	.p2align	4, 0x90
__ZN7failure4Fail4name17h6b32df99bc1cedb6E:
	.cfi_startproc
	pushq	%rbp
	.cfi_def_cfa_offset 16
	.cfi_offset %rbp, -16
	movq	%rsp, %rbp
	.cfi_def_cfa_register %rbp
	xorl	%eax, %eax
	popq	%rbp
	retq
	.cfi_endproc

	.p2align	4, 0x90
__ZN7failure4Fail4name17hdebc5cf2c70fd655E:
	.cfi_startproc
	pushq	%rbp
	.cfi_def_cfa_offset 16
	.cfi_offset %rbp, -16
	movq	%rsp, %rbp
	.cfi_def_cfa_register %rbp
	xorl	%eax, %eax
	popq	%rbp
	retq
	.cfi_endproc

	.p2align	4, 0x90
__ZN7failure4Fail5cause17h22bcfe1e2a3c6225E:
	.cfi_startproc
	pushq	%rbp
	.cfi_def_cfa_offset 16
	.cfi_offset %rbp, -16
	movq	%rsp, %rbp
	.cfi_def_cfa_register %rbp
	xorl	%eax, %eax
	popq	%rbp
	retq
	.cfi_endproc

	.p2align	4, 0x90
__ZN7failure4Fail9backtrace17h2769e53f05bd1437E:
	.cfi_startproc
	pushq	%rbp
	.cfi_def_cfa_offset 16
	.cfi_offset %rbp, -16
	movq	%rsp, %rbp
	.cfi_def_cfa_register %rbp
	xorl	%eax, %eax
	popq	%rbp
	retq
	.cfi_endproc

	.p2align	4, 0x90
__ZN7failure4Fail9backtrace17h648390e10362c633E:
	.cfi_startproc
	pushq	%rbp
	.cfi_def_cfa_offset 16
	.cfi_offset %rbp, -16
	movq	%rsp, %rbp
	.cfi_def_cfa_register %rbp
	xorl	%eax, %eax
	popq	%rbp
	retq
	.cfi_endproc

	.p2align	4, 0x90
__ZN7failure4Fail9backtrace17h8f38472cde433458E:
	.cfi_startproc
	pushq	%rbp
	.cfi_def_cfa_offset 16
	.cfi_offset %rbp, -16
	movq	%rsp, %rbp
	.cfi_def_cfa_register %rbp
	xorl	%eax, %eax
	popq	%rbp
	retq
	.cfi_endproc

	.p2align	4, 0x90
__ZN82_$LT$failure..error_message..ErrorMessage$LT$D$GT$$u20$as$u20$core..fmt..Debug$GT$3fmt17h1febee6b39f52704E:
	.cfi_startproc
	pushq	%rbp
	.cfi_def_cfa_offset 16
	.cfi_offset %rbp, -16
	movq	%rsp, %rbp
	.cfi_def_cfa_register %rbp
	pushq	%r14
	pushq	%rbx
	subq	$32, %rsp
	.cfi_offset %rbx, -32
	.cfi_offset %r14, -24
	movq	%rdi, %rbx
	leaq	l___unnamed_8(%rip), %rdx
	leaq	-40(%rbp), %r14
	movl	$12, %ecx
	movq	%r14, %rdi
	callq	__ZN4core3fmt9Formatter12debug_struct17ha1a64e91d2a98458E
	movq	%rbx, -24(%rbp)
	leaq	l___unnamed_9(%rip), %rsi
	leaq	l___unnamed_10(%rip), %r8
	leaq	-24(%rbp), %rcx
	movl	$3, %edx
	movq	%r14, %rdi
	callq	__ZN4core3fmt8builders11DebugStruct5field17h6c54d35ac41bb1e6E
	movq	%r14, %rdi
	callq	__ZN4core3fmt8builders11DebugStruct6finish17h67ed49fd5e81bb24E
	addq	$32, %rsp
	popq	%rbx
	popq	%r14
	popq	%rbp
	retq
	.cfi_endproc

	.p2align	4, 0x90
__ZN82_$LT$failure..error_message..ErrorMessage$LT$D$GT$$u20$as$u20$core..fmt..Debug$GT$3fmt17hf90720fd24510dadE:
	.cfi_startproc
	pushq	%rbp
	.cfi_def_cfa_offset 16
	.cfi_offset %rbp, -16
	movq	%rsp, %rbp
	.cfi_def_cfa_register %rbp
	pushq	%r14
	pushq	%rbx
	subq	$32, %rsp
	.cfi_offset %rbx, -32
	.cfi_offset %r14, -24
	movq	%rdi, %rbx
	leaq	l___unnamed_8(%rip), %rdx
	leaq	-40(%rbp), %r14
	movl	$12, %ecx
	movq	%r14, %rdi
	callq	__ZN4core3fmt9Formatter12debug_struct17ha1a64e91d2a98458E
	movq	%rbx, -24(%rbp)
	leaq	l___unnamed_9(%rip), %rsi
	leaq	l___unnamed_11(%rip), %r8
	leaq	-24(%rbp), %rcx
	movl	$3, %edx
	movq	%r14, %rdi
	callq	__ZN4core3fmt8builders11DebugStruct5field17h6c54d35ac41bb1e6E
	movq	%r14, %rdi
	callq	__ZN4core3fmt8builders11DebugStruct6finish17h67ed49fd5e81bb24E
	addq	$32, %rsp
	popq	%rbx
	popq	%r14
	popq	%rbp
	retq
	.cfi_endproc

	.p2align	4, 0x90
__ZN84_$LT$failure..error_message..ErrorMessage$LT$D$GT$$u20$as$u20$core..fmt..Display$GT$3fmt17h40f7553a8c28c07dE:
	.cfi_startproc
	pushq	%rbp
	.cfi_def_cfa_offset 16
	.cfi_offset %rbp, -16
	movq	%rsp, %rbp
	.cfi_def_cfa_register %rbp
	movq	%rsi, %rdx
	movq	(%rdi), %rax
	movq	16(%rdi), %rsi
	movq	%rax, %rdi
	popq	%rbp
	jmp	__ZN42_$LT$str$u20$as$u20$core..fmt..Display$GT$3fmt17h6768afae62e94f93E
	.cfi_endproc

	.p2align	4, 0x90
__ZN84_$LT$failure..error_message..ErrorMessage$LT$D$GT$$u20$as$u20$core..fmt..Display$GT$3fmt17h96ece46f57e06cf8E:
	.cfi_startproc
	pushq	%rbp
	.cfi_def_cfa_offset 16
	.cfi_offset %rbp, -16
	movq	%rsp, %rbp
	.cfi_def_cfa_register %rbp
	movq	%rsi, %rdx
	movq	(%rdi), %rax
	movq	8(%rdi), %rsi
	movq	%rax, %rdi
	popq	%rbp
	jmp	__ZN42_$LT$str$u20$as$u20$core..fmt..Display$GT$3fmt17h6768afae62e94f93E
	.cfi_endproc

	.section	__TEXT,__literal16,16byte_literals
	.p2align	4
LCPI38_0:
	.byte	116
	.byte	97
	.byte	114
	.byte	103
	.byte	101
	.byte	116
	.byte	95
	.byte	104
	.byte	97
	.byte	115
	.byte	95
	.byte	97
	.byte	116
	.byte	111
	.byte	109
	.byte	105
LCPI38_1:
	.byte	105
	.byte	100
	.byte	116
	.byte	104
	.byte	0
	.byte	0
	.byte	0
	.byte	0
	.byte	0
	.byte	0
	.byte	0
	.byte	0
	.byte	0
	.byte	0
	.byte	0
	.byte	0
LCPI38_2:
	.byte	116
	.byte	97
	.byte	114
	.byte	103
	.byte	101
	.byte	116
	.byte	95
	.byte	112
	.byte	111
	.byte	105
	.byte	110
	.byte	116
	.byte	101
	.byte	114
	.byte	95
	.byte	119
	.section	__TEXT,__text,regular,pure_instructions
	.globl	__ZN9rustc_cfg3Cfg2of17hbc45944d26f338f4E
	.p2align	4, 0x90
__ZN9rustc_cfg3Cfg2of17hbc45944d26f338f4E:
Lfunc_begin5:
	.cfi_startproc
	.cfi_personality 155, _rust_eh_personality
	.cfi_lsda 16, Lexception5
	pushq	%rbp
	.cfi_def_cfa_offset 16
	.cfi_offset %rbp, -16
	movq	%rsp, %rbp
	.cfi_def_cfa_register %rbp
	pushq	%r15
	pushq	%r14
	pushq	%r13
	pushq	%r12
	pushq	%rbx
	subq	$1064, %rsp
	.cfi_offset %rbx, -56
	.cfi_offset %r12, -48
	.cfi_offset %r13, -40
	.cfi_offset %r14, -32
	.cfi_offset %r15, -24
	movq	%rdx, %r14
	movq	%rsi, %r15
	movq	%rdi, %r13
	leaq	l___unnamed_12(%rip), %rsi
	leaq	-336(%rbp), %rdi
	movl	$5, %ebx
	movl	$5, %edx
	callq	__ZN3std3env4_var17h5f49b4c5e0582abcE
	cmpq	$0, -336(%rbp)
	leaq	-328(%rbp), %rax
	cmoveq	-328(%rbp), %rax
	cmoveq	-312(%rbp), %rbx
	leaq	l___unnamed_13(%rip), %rsi
	cmoveq	%rax, %rsi
Ltmp32:
	leaq	-856(%rbp), %rdi
	movq	%rbx, %rdx
	callq	__ZN3std3sys4unix7process14process_common7Command3new17h6b51c4bb5fada643E
Ltmp33:
	leaq	-544(%rbp), %rbx
	leaq	-856(%rbp), %rsi
	movl	$184, %edx
	movq	%rbx, %rdi
	callq	_memcpy
Ltmp34:
	leaq	L___unnamed_14(%rip), %rsi
	movl	$8, %edx
	movq	%rbx, %rdi
	callq	__ZN3std3sys4unix7process14process_common7Command3arg17he3b985033bebdb87E
Ltmp35:
Ltmp36:
	leaq	-544(%rbp), %rdi
	movq	%r15, %rsi
	movq	%r14, %rdx
	callq	__ZN3std3sys4unix7process14process_common7Command3arg17he3b985033bebdb87E
Ltmp37:
Ltmp38:
	leaq	l___unnamed_15(%rip), %rdi
	movl	$7, %esi
	callq	__ZN95_$LT$std..ffi..os_str..OsStr$u20$as$u20$core..convert..AsRef$LT$std..ffi..os_str..OsStr$GT$$GT$6as_ref17h5081c729cb357be8E
Ltmp39:
Ltmp40:
	leaq	-544(%rbp), %rdi
	movq	%rax, %rsi
	callq	__ZN3std3sys4unix7process14process_common7Command3arg17he3b985033bebdb87E
Ltmp41:
Ltmp42:
	leaq	l___unnamed_16(%rip), %rdi
	movl	$3, %esi
	callq	__ZN95_$LT$std..ffi..os_str..OsStr$u20$as$u20$core..convert..AsRef$LT$std..ffi..os_str..OsStr$GT$$GT$6as_ref17h5081c729cb357be8E
Ltmp43:
Ltmp44:
	leaq	-544(%rbp), %rdi
	movq	%rax, %rsi
	callq	__ZN3std3sys4unix7process14process_common7Command3arg17he3b985033bebdb87E
Ltmp45:
Ltmp46:
	leaq	-856(%rbp), %rdi
	leaq	-544(%rbp), %rsi
	callq	__ZN3std7process7Command6output17h21f406a1a0346edcE
Ltmp47:
	movq	-856(%rbp), %rax
	movq	-848(%rbp), %rcx
	movq	%rcx, -280(%rbp)
	movq	-840(%rbp), %rcx
	movq	%rcx, -272(%rbp)
	movq	-832(%rbp), %rcx
	movq	%rcx, -264(%rbp)
	movq	-824(%rbp), %rcx
	movq	%rcx, -256(%rbp)
	movq	-816(%rbp), %rcx
	movq	%rcx, -248(%rbp)
	movq	-808(%rbp), %rcx
	movq	%rcx, -240(%rbp)
	movq	-800(%rbp), %rcx
	movq	%rcx, -232(%rbp)
	cmpq	$1, %rax
	jne	LBB38_14
	movq	-280(%rbp), %rax
	movq	-272(%rbp), %rcx
	movq	%rcx, -664(%rbp)
	movq	%rax, -672(%rbp)
Ltmp96:
	leaq	-856(%rbp), %rdi
	callq	__ZN7failure9backtrace9Backtrace3new17h645c6458eb304b48E
Ltmp97:
	movq	-816(%rbp), %rax
	movq	%rax, -88(%rbp)
	movq	-824(%rbp), %r8
	movq	%r8, -96(%rbp)
	movq	-832(%rbp), %rcx
	movq	%rcx, -104(%rbp)
	movq	-840(%rbp), %rdx
	movq	%rdx, -112(%rbp)
	movq	-856(%rbp), %rsi
	movq	-848(%rbp), %rdi
	movq	%rdi, -120(%rbp)
	movq	%rsi, -128(%rbp)
	movq	-672(%rbp), %rbx
	movq	-664(%rbp), %rax
	movq	%rbx, -80(%rbp)
	movq	%rax, -72(%rbp)
	movq	%rax, -800(%rbp)
	movq	%rbx, -808(%rbp)
	movq	%r8, -824(%rbp)
	movq	%rcx, -832(%rbp)
	movq	%rdx, -840(%rbp)
	movq	%rdi, -848(%rbp)
	movq	%rsi, -856(%rbp)
	movq	-88(%rbp), %rax
	movq	%rax, -816(%rbp)
	movl	$64, %edi
	movl	$8, %esi
	callq	___rust_alloc
	testq	%rax, %rax
	je	LBB38_415
	movq	-800(%rbp), %rcx
	movq	%rcx, 56(%rax)
	movq	-808(%rbp), %rcx
	movq	%rcx, 48(%rax)
	movq	-816(%rbp), %rcx
	movq	%rcx, 40(%rax)
	movq	-824(%rbp), %rcx
	movq	%rcx, 32(%rax)
	movq	-832(%rbp), %rcx
	movq	%rcx, 24(%rax)
	movq	-840(%rbp), %rcx
	movq	%rcx, 16(%rax)
	movq	-856(%rbp), %rcx
	movq	-848(%rbp), %rdx
	movq	%rdx, 8(%rax)
	movq	%rcx, (%rax)
	movq	%rax, 8(%r13)
	leaq	l___unnamed_17(%rip), %rax
	movq	%rax, 16(%r13)
	movq	$1, (%r13)
Ltmp102:
	leaq	-544(%rbp), %rdi
	callq	__ZN4core3ptr13drop_in_place17h703dc4766bdf761eE
Ltmp103:
	cmpq	$0, -336(%rbp)
	movq	-328(%rbp), %rdi
	testq	%rdi, %rdi
	je	LBB38_414
	movq	-320(%rbp), %rsi
	testq	%rsi, %rsi
	jne	LBB38_413
	jmp	LBB38_414
LBB38_14:
	movq	-232(%rbp), %rax
	movq	%rax, -576(%rbp)
	movq	-240(%rbp), %rax
	movq	%rax, -584(%rbp)
	movq	-248(%rbp), %rax
	movq	%rax, -592(%rbp)
	movq	-256(%rbp), %rax
	movq	%rax, -600(%rbp)
	movq	-264(%rbp), %rax
	movq	%rax, -608(%rbp)
	movq	-280(%rbp), %rax
	movq	-272(%rbp), %rcx
	movq	%rcx, -616(%rbp)
	movq	%rax, -624(%rbp)
Ltmp49:
	leaq	-544(%rbp), %rdi
	callq	__ZN4core3ptr13drop_in_place17h703dc4766bdf761eE
Ltmp50:
	cmpq	$0, -336(%rbp)
	movq	-328(%rbp), %rdi
	testq	%rdi, %rdi
	je	LBB38_18
	movq	-320(%rbp), %rsi
	testq	%rsi, %rsi
	je	LBB38_18
	movl	$1, %edx
	callq	___rust_dealloc
LBB38_18:
	leaq	-576(%rbp), %rdi
Ltmp52:
	callq	__ZN3std7process10ExitStatus7success17h559bf3fd90f59916E
Ltmp53:
	testb	%al, %al
	je	LBB38_25
	movq	-608(%rbp), %rdx
	movq	%rdx, -112(%rbp)
	movq	-624(%rbp), %rsi
	movq	-616(%rbp), %rax
	movq	%rax, -120(%rbp)
	movq	%rsi, -128(%rbp)
Ltmp64:
	leaq	-544(%rbp), %rdi
	callq	__ZN4core3str9from_utf817hc7dfc8cc9345acf5E
Ltmp65:
	cmpl	$1, -544(%rbp)
	jne	LBB38_30
	movq	-112(%rbp), %rax
	movq	-128(%rbp), %rcx
	movq	-120(%rbp), %rdx
	movq	-536(%rbp), %rsi
	movq	-528(%rbp), %rdi
	movq	%rcx, -856(%rbp)
	movq	%rdx, -848(%rbp)
	movq	%rax, -840(%rbp)
	movq	%rdi, -248(%rbp)
	movq	%rsi, -256(%rbp)
	movq	%rax, -264(%rbp)
	movq	%rdx, -272(%rbp)
	movq	%rcx, -280(%rbp)
	movq	-248(%rbp), %rax
	movq	%rax, -96(%rbp)
	movq	-256(%rbp), %rax
	movq	%rax, -104(%rbp)
	movq	-264(%rbp), %rax
	movq	%rax, -112(%rbp)
	movq	-280(%rbp), %rax
	movq	-272(%rbp), %rcx
	movq	%rcx, -120(%rbp)
	movq	%rax, -128(%rbp)
Ltmp93:
	leaq	-856(%rbp), %rdi
	callq	__ZN7failure9backtrace9Backtrace3new17h645c6458eb304b48E
Ltmp94:
	movq	-816(%rbp), %rax
	movq	%rax, -504(%rbp)
	movq	-824(%rbp), %rax
	movq	%rax, -512(%rbp)
	movq	-832(%rbp), %rax
	movq	%rax, -520(%rbp)
	movq	-840(%rbp), %rax
	movq	%rax, -528(%rbp)
	movq	-856(%rbp), %rax
	movq	-848(%rbp), %rcx
	movq	%rcx, -536(%rbp)
	movq	%rax, -544(%rbp)
	movq	-128(%rbp), %rax
	movq	-120(%rbp), %rcx
	movq	%rax, -496(%rbp)
	movq	%rcx, -488(%rbp)
	movq	-112(%rbp), %rax
	movq	%rax, -480(%rbp)
	movq	-104(%rbp), %rax
	movq	%rax, -472(%rbp)
	movq	-96(%rbp), %rax
	movq	%rax, -464(%rbp)
	leaq	-856(%rbp), %rdi
	leaq	-544(%rbp), %rsi
	movl	$11, %ecx
	rep;movsq (%rsi), %es:(%rdi)
	movl	$88, %edi
	movl	$8, %esi
	callq	___rust_alloc
	testq	%rax, %rax
	je	LBB38_418
	leaq	-856(%rbp), %rsi
	movl	$11, %ecx
	movq	%rax, %rdi
	rep;movsq (%rsi), %es:(%rdi)
	movq	%rax, 8(%r13)
	leaq	l___unnamed_18(%rip), %rax
	movq	%rax, 16(%r13)
	movq	$1, (%r13)
	movq	-600(%rbp), %rdi
	testq	%rdi, %rdi
	jne	LBB38_412
	jmp	LBB38_414
LBB38_25:
	movq	-584(%rbp), %rdx
	movq	%rdx, -112(%rbp)
	movq	-600(%rbp), %rsi
	movq	-592(%rbp), %rax
	movq	%rax, -120(%rbp)
	movq	%rsi, -128(%rbp)
Ltmp55:
	leaq	-544(%rbp), %rdi
	callq	__ZN4core3str9from_utf817hc7dfc8cc9345acf5E
Ltmp56:
	cmpl	$1, -544(%rbp)
	jne	LBB38_200
	movq	-112(%rbp), %rax
	movq	-128(%rbp), %rcx
	movq	-120(%rbp), %rdx
	movq	-536(%rbp), %rsi
	movq	-528(%rbp), %rdi
	movq	%rcx, -856(%rbp)
	movq	%rdx, -848(%rbp)
	movq	%rax, -840(%rbp)
	movq	%rdi, -248(%rbp)
	movq	%rsi, -256(%rbp)
	movq	%rax, -264(%rbp)
	movq	%rdx, -272(%rbp)
	movq	%rcx, -280(%rbp)
	movq	-248(%rbp), %rax
	movq	%rax, -96(%rbp)
	movq	-256(%rbp), %rax
	movq	%rax, -104(%rbp)
	movq	-264(%rbp), %rax
	movq	%rax, -112(%rbp)
	movq	-280(%rbp), %rax
	movq	-272(%rbp), %rcx
	movq	%rcx, -120(%rbp)
	movq	%rax, -128(%rbp)
Ltmp61:
	leaq	-856(%rbp), %rdi
	callq	__ZN7failure9backtrace9Backtrace3new17h645c6458eb304b48E
Ltmp62:
	movq	-816(%rbp), %rax
	movq	%rax, -504(%rbp)
	movq	-824(%rbp), %rax
	movq	%rax, -512(%rbp)
	movq	-832(%rbp), %rax
	movq	%rax, -520(%rbp)
	movq	-840(%rbp), %rax
	movq	%rax, -528(%rbp)
	movq	-856(%rbp), %rax
	movq	-848(%rbp), %rcx
	movq	%rcx, -536(%rbp)
	movq	%rax, -544(%rbp)
	movq	-128(%rbp), %rax
	movq	-120(%rbp), %rcx
	movq	%rax, -496(%rbp)
	movq	%rcx, -488(%rbp)
	movq	-112(%rbp), %rax
	movq	%rax, -480(%rbp)
	movq	-104(%rbp), %rax
	movq	%rax, -472(%rbp)
	movq	-96(%rbp), %rax
	movq	%rax, -464(%rbp)
	leaq	-856(%rbp), %rdi
	leaq	-544(%rbp), %rsi
	movl	$11, %ecx
	rep;movsq (%rsi), %es:(%rdi)
	movl	$88, %edi
	movl	$8, %esi
	callq	___rust_alloc
	testq	%rax, %rax
	je	LBB38_418
	movq	%rax, %rbx
	leaq	-856(%rbp), %rsi
	movl	$11, %ecx
	movq	%rax, %rdi
	rep;movsq (%rsi), %es:(%rdi)
	leaq	l___unnamed_18(%rip), %rcx
	jmp	LBB38_203
LBB38_30:
	movq	%r13, -936(%rbp)
	movq	-112(%rbp), %rax
	movq	-128(%rbp), %rcx
	movq	-120(%rbp), %rdx
	movq	%rcx, -280(%rbp)
	movq	%rdx, -272(%rbp)
	movq	%rax, -264(%rbp)
	movq	%rax, -208(%rbp)
	movq	%rdx, -216(%rbp)
	movq	%rcx, -224(%rbp)
	movq	$0, -960(%rbp)
	movq	$0, -880(%rbp)
	movq	$0, -904(%rbp)
	movq	$0, -648(%rbp)
	movq	$0, -568(%rbp)
	movq	$0, -304(%rbp)
	movq	$0, -200(%rbp)
	movq	$8, -152(%rbp)
	movq	$0, -144(%rbp)
	movq	$0, -136(%rbp)
	movq	$8, -176(%rbp)
	movq	$0, -168(%rbp)
	movq	$0, -160(%rbp)
	movq	-224(%rbp), %rax
	movq	-208(%rbp), %rcx
	movq	$0, -544(%rbp)
	movq	%rcx, -536(%rbp)
	movq	%rax, -528(%rbp)
	movq	%rcx, -520(%rbp)
	movq	$0, -512(%rbp)
	movq	%rcx, -504(%rbp)
	movq	$1, -496(%rbp)
	movabsq	$42949672970, %rax
	movq	%rax, -488(%rbp)
	movw	$0, -480(%rbp)
	leaq	-544(%rbp), %r14
	movabsq	$261993005117, %r15
	leaq	-856(%rbp), %r13
	movl	$99, %eax
	movd	%eax, %xmm0
	movdqa	%xmm0, -928(%rbp)
	jmp	LBB38_33
LBB38_31:
	movq	%rbx, -904(%rbp)
	movq	%r14, -896(%rbp)
	movq	%r15, -888(%rbp)
	.p2align	4, 0x90
LBB38_32:
	leaq	-544(%rbp), %r14
	movabsq	$261993005117, %r15
LBB38_33:
Ltmp67:
	movq	%r14, %rdi
	callq	__ZN4core3str22SplitInternal$LT$P$GT$4next17hfc5e830407c40016E
Ltmp68:
	testq	%rax, %rax
	je	LBB38_205
	testq	%rdx, %rdx
	je	LBB38_37
	leaq	-1(%rdx), %rcx
	cmpb	$13, -1(%rax,%rdx)
	cmovneq	%rdx, %rcx
	jmp	LBB38_38
	.p2align	4, 0x90
LBB38_37:
	xorl	%ecx, %ecx
LBB38_38:
	movq	$0, -856(%rbp)
	movq	%rcx, -848(%rbp)
	movq	%rax, -840(%rbp)
	movq	%rcx, -832(%rbp)
	movq	$0, -824(%rbp)
	movq	%rcx, -816(%rbp)
	movq	$1, -808(%rbp)
	movq	%r15, -800(%rbp)
	movw	$1, -792(%rbp)
Ltmp69:
	movq	%r13, %rdi
	callq	__ZN4core3str22SplitInternal$LT$P$GT$4next17hfc5e830407c40016E
Ltmp70:
	movq	%rax, %r12
	movq	%rdx, %rbx
Ltmp71:
	movq	%r13, %rdi
	callq	__ZN4core3str22SplitInternal$LT$P$GT$4next17hfc5e830407c40016E
Ltmp72:
	testq	%r12, %r12
	je	LBB38_33
	testq	%rax, %rax
	je	LBB38_33
	addq	$-9, %rbx
	cmpq	$11, %rbx
	ja	LBB38_33
	leaq	LJTI38_0(%rip), %rsi
	movslq	(%rsi,%rbx,4), %rcx
	addq	%rsi, %rcx
	jmpq	*%rcx
LBB38_44:
	leaq	l___unnamed_19(%rip), %rcx
	cmpq	%rcx, %r12
	je	LBB38_46
	movq	(%r12), %rcx
	movabsq	$8025261039873581428, %rsi
	xorq	%rsi, %rcx
	movzbl	8(%r12), %esi
	xorq	$115, %rsi
	orq	%rcx, %rsi
	jne	LBB38_33
LBB38_46:
	movq	%rax, %rdi
	movq	%rdx, %rsi
	callq	__ZN4core3str21_$LT$impl$u20$str$GT$12trim_matches17h56cf619eaabb3472E
	movq	%rax, %r12
	movq	%rdx, %r15
	testq	%rdx, %rdx
	je	LBB38_104
	movl	$1, %esi
	movq	%r15, %rdi
	callq	___rust_alloc
	testq	%rax, %rax
	je	LBB38_416
	movq	%rax, %rbx
	movq	%r15, %r14
	cmpq	%r15, %r14
	jb	LBB38_105
	jmp	LBB38_148
LBB38_49:
	leaq	l___unnamed_20(%rip), %rcx
	cmpq	%rcx, %r12
	je	LBB38_51
	movq	(%r12), %rcx
	movabsq	$7376742693532230004, %rsi
	xorq	%rsi, %rcx
	movq	6(%r12), %rsi
	movabsq	$7310034287886427743, %rdi
	xorq	%rdi, %rsi
	orq	%rcx, %rsi
	jne	LBB38_33
LBB38_51:
	movq	%rax, %rdi
	movq	%rdx, %rsi
	callq	__ZN4core3str21_$LT$impl$u20$str$GT$12trim_matches17h56cf619eaabb3472E
	movq	%rax, -64(%rbp)
	movq	%rdx, %r12
	testq	%rdx, %rdx
	je	LBB38_89
	movl	$1, %esi
	movq	%r12, %rdi
	callq	___rust_alloc
	testq	%rax, %rax
	je	LBB38_417
	movq	%rax, %rbx
	movq	%r12, %r15
	cmpq	%r12, %r15
	jb	LBB38_90
	jmp	LBB38_128
LBB38_54:
	leaq	l___unnamed_21(%rip), %rcx
	cmpq	%rcx, %r12
	je	LBB38_56
	movq	(%r12), %rcx
	movabsq	$7016454723342590324, %rsi
	xorq	%rsi, %rcx
	movq	3(%r12), %rsi
	movabsq	$7521981565177718119, %rdi
	xorq	%rdi, %rsi
	orq	%rcx, %rsi
	jne	LBB38_33
LBB38_56:
	movq	%rax, %rdi
	movq	%rdx, %rsi
	callq	__ZN4core3str21_$LT$impl$u20$str$GT$12trim_matches17h56cf619eaabb3472E
	movq	%rax, %r12
	movq	%rdx, %r15
	testq	%rdx, %rdx
	je	LBB38_94
	movl	$1, %esi
	movq	%r15, %rdi
	callq	___rust_alloc
	testq	%rax, %rax
	je	LBB38_416
	movq	%rax, %rbx
	movq	%r15, %r14
	cmpq	%r15, %r14
	jb	LBB38_95
	jmp	LBB38_133
LBB38_59:
	leaq	l___unnamed_22(%rip), %rcx
	cmpq	%rcx, %r12
	je	LBB38_83
	movq	(%r12), %rcx
	movabsq	$7376742693532230004, %rsi
	xorq	%rsi, %rcx
	movq	5(%r12), %rsi
	movabsq	$8749484094580481908, %rdi
	xorq	%rdi, %rsi
	orq	%rcx, %rsi
	je	LBB38_83
	leaq	l___unnamed_23(%rip), %rcx
	cmpq	%rcx, %r12
	je	LBB38_86
	movq	(%r12), %rcx
	movabsq	$7304685099494302068, %rsi
	xorq	%rsi, %rcx
	movq	5(%r12), %rsi
	movabsq	$7953754296982790004, %rdi
	xorq	%rdi, %rsi
	orq	%rcx, %rsi
	je	LBB38_86
	leaq	l___unnamed_24(%rip), %rcx
	cmpq	%rcx, %r12
	je	LBB38_65
	movq	(%r12), %rcx
	movabsq	$8529664198139076980, %rsi
	xorq	%rsi, %rcx
	movq	5(%r12), %rsi
	movabsq	$8245919868050104180, %rdi
	xorq	%rdi, %rsi
	orq	%rcx, %rsi
	jne	LBB38_33
LBB38_65:
	movq	%rax, %rdi
	movq	%rdx, %rsi
	callq	__ZN4core3str21_$LT$impl$u20$str$GT$12trim_matches17h56cf619eaabb3472E
	movq	%rax, %r12
	movq	%rdx, %r15
	testq	%rdx, %rdx
	je	LBB38_186
	movl	$1, %esi
	movq	%r15, %rdi
	callq	___rust_alloc
	testq	%rax, %rax
	je	LBB38_416
	movq	%rax, %rbx
	movq	%r15, %r14
	jmp	LBB38_187
LBB38_68:
	leaq	l___unnamed_25(%rip), %rcx
	cmpq	%rcx, %r12
	je	LBB38_70
	movq	(%r12), %rcx
	movabsq	$7304685099494302068, %rsi
	xorq	%rsi, %rcx
	movzwl	8(%r12), %esi
	xorq	$30318, %rsi
	orq	%rcx, %rsi
	jne	LBB38_33
LBB38_70:
	movq	%rax, %rdi
	movq	%rdx, %rsi
	callq	__ZN4core3str21_$LT$impl$u20$str$GT$12trim_matches17h56cf619eaabb3472E
	movq	%rax, %r12
	movq	%rdx, %r15
	testq	%rdx, %rdx
	je	LBB38_109
	movl	$1, %esi
	movq	%r15, %rdi
	callq	___rust_alloc
	testq	%rax, %rax
	je	LBB38_416
	movq	%rax, %rbx
	movq	%r15, %r14
	cmpq	%r15, %r14
	jb	LBB38_110
	jmp	LBB38_156
LBB38_73:
	leaq	l___unnamed_26(%rip), %rcx
	cmpq	%rcx, %r12
	je	LBB38_75
	movdqu	(%r12), %xmm0
	pcmpeqb	LCPI38_0(%rip), %xmm0
	movzbl	16(%r12), %ecx
	movq	%rcx, %xmm1
	pcmpeqb	-928(%rbp), %xmm1
	pand	%xmm0, %xmm1
	pmovmskb	%xmm1, %ecx
	cmpl	$65535, %ecx
	jne	LBB38_33
LBB38_75:
	movq	%rax, %rdi
	movq	%rdx, %rsi
	callq	__ZN4core3str21_$LT$impl$u20$str$GT$12trim_matches17h56cf619eaabb3472E
	movq	%rax, -64(%rbp)
	movq	%rdx, %r12
	testq	%rdx, %rdx
	je	LBB38_114
	movl	$1, %esi
	movq	%r12, %rdi
	callq	___rust_alloc
	testq	%rax, %rax
	je	LBB38_417
	movq	%rax, %rbx
	movq	%r12, %r15
	cmpq	%r12, %r15
	jb	LBB38_115
	jmp	LBB38_164
LBB38_78:
	leaq	l___unnamed_27(%rip), %rcx
	cmpq	%rcx, %r12
	je	LBB38_80
	movdqu	(%r12), %xmm0
	pcmpeqb	LCPI38_2(%rip), %xmm0
	movd	16(%r12), %xmm1
	pcmpeqb	LCPI38_1(%rip), %xmm1
	pand	%xmm0, %xmm1
	pmovmskb	%xmm1, %ecx
	cmpl	$65535, %ecx
	jne	LBB38_33
LBB38_80:
	movq	%rax, %rdi
	movq	%rdx, %rsi
	callq	__ZN4core3str21_$LT$impl$u20$str$GT$12trim_matches17h56cf619eaabb3472E
	movq	%rax, %r12
	movq	%rdx, %r15
	testq	%rdx, %rdx
	je	LBB38_119
	movl	$1, %esi
	movq	%r15, %rdi
	callq	___rust_alloc
	testq	%rax, %rax
	je	LBB38_416
	movq	%rax, %rbx
	movq	%r15, %r14
	cmpq	%r15, %r14
	jb	LBB38_120
	jmp	LBB38_169
LBB38_83:
	movq	%rax, %rdi
	movq	%rdx, %rsi
	callq	__ZN4core3str21_$LT$impl$u20$str$GT$12trim_matches17h56cf619eaabb3472E
	movq	%rax, %r12
	movq	%rdx, %r15
	testq	%rdx, %rdx
	je	LBB38_99
	movl	$1, %esi
	movq	%r15, %rdi
	callq	___rust_alloc
	testq	%rax, %rax
	je	LBB38_416
	movq	%rax, %rbx
	movq	%r15, %r14
	cmpq	%r15, %r14
	jb	LBB38_100
	jmp	LBB38_140
LBB38_86:
	movq	%rax, %rdi
	movq	%rdx, %rsi
	callq	__ZN4core3str21_$LT$impl$u20$str$GT$12trim_matches17h56cf619eaabb3472E
	movq	%rax, %r12
	movq	%rdx, %r15
	testq	%rdx, %rdx
	je	LBB38_173
	movl	$1, %esi
	movq	%r15, %rdi
	callq	___rust_alloc
	testq	%rax, %rax
	je	LBB38_416
	movq	%rax, %rbx
	movq	%r15, %r14
	cmpq	%r15, %r14
	jb	LBB38_174
	jmp	LBB38_182
LBB38_89:
	movl	$1, %ebx
	xorl	%r15d, %r15d
	cmpq	%r12, %r15
	jae	LBB38_128
LBB38_90:
	leaq	(%r15,%r15), %rax
	cmpq	%r12, %rax
	movq	%r12, %r14
	cmovaq	%rax, %r14
	cmpq	$8, %r14
	movl	$8, %eax
	cmovbeq	%rax, %r14
	testq	%r15, %r15
	je	LBB38_124
	testq	%rbx, %rbx
	je	LBB38_124
	cmpq	%r14, %r15
	je	LBB38_127
	movl	$1, %edx
	movq	%rbx, %rdi
	movq	%r15, %rsi
	movq	%r14, %rcx
	callq	___rust_realloc
	jmp	LBB38_125
LBB38_94:
	movl	$1, %ebx
	xorl	%r14d, %r14d
	cmpq	%r15, %r14
	jae	LBB38_133
LBB38_95:
	movq	%r12, -64(%rbp)
	leaq	(%r14,%r14), %rax
	cmpq	%r15, %rax
	movq	%r15, %r12
	cmovaq	%rax, %r12
	cmpq	$8, %r12
	movl	$8, %eax
	cmovbeq	%rax, %r12
	testq	%r14, %r14
	je	LBB38_129
	testq	%rbx, %rbx
	je	LBB38_129
	cmpq	%r12, %r14
	je	LBB38_132
	movl	$1, %edx
	movq	%rbx, %rdi
	movq	%r14, %rsi
	movq	%r12, %rcx
	callq	___rust_realloc
	jmp	LBB38_130
LBB38_99:
	movl	$1, %ebx
	xorl	%r14d, %r14d
	cmpq	%r15, %r14
	jae	LBB38_140
LBB38_100:
	movq	%r12, -64(%rbp)
	leaq	(%r14,%r14), %rax
	cmpq	%r15, %rax
	movq	%r15, %r12
	cmovaq	%rax, %r12
	cmpq	$8, %r12
	movl	$8, %eax
	cmovbeq	%rax, %r12
	testq	%r14, %r14
	je	LBB38_136
	testq	%rbx, %rbx
	je	LBB38_136
	cmpq	%r12, %r14
	je	LBB38_139
	movl	$1, %edx
	movq	%rbx, %rdi
	movq	%r14, %rsi
	movq	%r12, %rcx
	callq	___rust_realloc
	jmp	LBB38_137
LBB38_104:
	movl	$1, %ebx
	xorl	%r14d, %r14d
	cmpq	%r15, %r14
	jae	LBB38_148
LBB38_105:
	movq	%r12, -64(%rbp)
	leaq	(%r14,%r14), %rax
	cmpq	%r15, %rax
	movq	%r15, %r12
	cmovaq	%rax, %r12
	cmpq	$8, %r12
	movl	$8, %eax
	cmovbeq	%rax, %r12
	testq	%r14, %r14
	je	LBB38_144
	testq	%rbx, %rbx
	je	LBB38_144
	cmpq	%r12, %r14
	je	LBB38_147
	movl	$1, %edx
	movq	%rbx, %rdi
	movq	%r14, %rsi
	movq	%r12, %rcx
	callq	___rust_realloc
	jmp	LBB38_145
LBB38_109:
	movl	$1, %ebx
	xorl	%r14d, %r14d
	cmpq	%r15, %r14
	jae	LBB38_156
LBB38_110:
	movq	%r12, -64(%rbp)
	leaq	(%r14,%r14), %rax
	cmpq	%r15, %rax
	movq	%r15, %r12
	cmovaq	%rax, %r12
	cmpq	$8, %r12
	movl	$8, %eax
	cmovbeq	%rax, %r12
	testq	%r14, %r14
	je	LBB38_152
	testq	%rbx, %rbx
	je	LBB38_152
	cmpq	%r12, %r14
	je	LBB38_155
	movl	$1, %edx
	movq	%rbx, %rdi
	movq	%r14, %rsi
	movq	%r12, %rcx
	callq	___rust_realloc
	jmp	LBB38_153
LBB38_114:
	movl	$1, %ebx
	xorl	%r15d, %r15d
	cmpq	%r12, %r15
	jae	LBB38_164
LBB38_115:
	leaq	(%r15,%r15), %rax
	cmpq	%r12, %rax
	movq	%r12, %r14
	cmovaq	%rax, %r14
	cmpq	$8, %r14
	movl	$8, %eax
	cmovbeq	%rax, %r14
	testq	%r15, %r15
	je	LBB38_160
	testq	%rbx, %rbx
	je	LBB38_160
	cmpq	%r14, %r15
	je	LBB38_163
	movl	$1, %edx
	movq	%rbx, %rdi
	movq	%r15, %rsi
	movq	%r14, %rcx
	callq	___rust_realloc
	jmp	LBB38_161
LBB38_119:
	movl	$1, %ebx
	xorl	%r14d, %r14d
	cmpq	%r15, %r14
	jae	LBB38_169
LBB38_120:
	movq	%r12, -64(%rbp)
	leaq	(%r14,%r14), %rax
	cmpq	%r15, %rax
	movq	%r15, %r12
	cmovaq	%rax, %r12
	cmpq	$8, %r12
	movl	$8, %eax
	cmovbeq	%rax, %r12
	testq	%r14, %r14
	je	LBB38_165
	testq	%rbx, %rbx
	je	LBB38_165
	cmpq	%r12, %r14
	je	LBB38_168
	movl	$1, %edx
	movq	%rbx, %rdi
	movq	%r14, %rsi
	movq	%r12, %rcx
	callq	___rust_realloc
	jmp	LBB38_166
LBB38_124:
	movl	$1, %esi
	movq	%r14, %rdi
	callq	___rust_alloc
LBB38_125:
	movq	%rax, %rbx
	testq	%rax, %rax
	je	LBB38_419
	movq	%r14, %r15
LBB38_127:
	leaq	-544(%rbp), %r14
LBB38_128:
	movq	%rbx, %rdi
	movq	-64(%rbp), %rsi
	movq	%r12, %rdx
	callq	_memcpy
	movq	%rbx, -128(%rbp)
	movq	%r15, -120(%rbp)
	movq	%r12, -112(%rbp)
Ltmp73:
	leaq	-176(%rbp), %rdi
	leaq	-128(%rbp), %rsi
	callq	__ZN5alloc3vec12Vec$LT$T$GT$4push17hb420128bc619abdaE
Ltmp74:
	movabsq	$261993005117, %r15
	jmp	LBB38_33
LBB38_129:
	movl	$1, %esi
	movq	%r12, %rdi
	callq	___rust_alloc
LBB38_130:
	movq	%rax, %rbx
	testq	%rax, %rax
	je	LBB38_417
	movq	%r12, %r14
LBB38_132:
	movq	-64(%rbp), %r12
LBB38_133:
	movq	%rbx, %rdi
	movq	%r12, %rsi
	movq	%r15, %rdx
	callq	_memcpy
	movq	-904(%rbp), %rdi
	testq	%rdi, %rdi
	je	LBB38_31
	movq	-896(%rbp), %rsi
	testq	%rsi, %rsi
	je	LBB38_31
	movl	$1, %edx
	callq	___rust_dealloc
	jmp	LBB38_31
LBB38_136:
	movl	$1, %esi
	movq	%r12, %rdi
	callq	___rust_alloc
LBB38_137:
	movq	%rax, %rbx
	testq	%rax, %rax
	je	LBB38_417
	movq	%r12, %r14
LBB38_139:
	movq	-64(%rbp), %r12
LBB38_140:
	movq	%rbx, %rdi
	movq	%r12, %rsi
	movq	%r15, %rdx
	callq	_memcpy
	movq	-880(%rbp), %rdi
	testq	%rdi, %rdi
	je	LBB38_143
	movq	-872(%rbp), %rsi
	testq	%rsi, %rsi
	je	LBB38_143
	movl	$1, %edx
	callq	___rust_dealloc
LBB38_143:
	movq	%rbx, -880(%rbp)
	movq	%r14, -872(%rbp)
	movq	%r15, -864(%rbp)
	jmp	LBB38_32
LBB38_144:
	movl	$1, %esi
	movq	%r12, %rdi
	callq	___rust_alloc
LBB38_145:
	movq	%rax, %rbx
	testq	%rax, %rax
	je	LBB38_417
	movq	%r12, %r14
LBB38_147:
	movq	-64(%rbp), %r12
LBB38_148:
	movq	%rbx, %rdi
	movq	%r12, %rsi
	movq	%r15, %rdx
	callq	_memcpy
	movq	-960(%rbp), %rdi
	testq	%rdi, %rdi
	je	LBB38_151
	movq	-952(%rbp), %rsi
	testq	%rsi, %rsi
	je	LBB38_151
	movl	$1, %edx
	callq	___rust_dealloc
LBB38_151:
	movq	%rbx, -960(%rbp)
	movq	%r14, -952(%rbp)
	movq	%r15, -944(%rbp)
	jmp	LBB38_32
LBB38_152:
	movl	$1, %esi
	movq	%r12, %rdi
	callq	___rust_alloc
LBB38_153:
	movq	%rax, %rbx
	testq	%rax, %rax
	je	LBB38_417
	movq	%r12, %r14
LBB38_155:
	movq	-64(%rbp), %r12
LBB38_156:
	movq	%rbx, %rdi
	movq	%r12, %rsi
	movq	%r15, %rdx
	callq	_memcpy
	movq	-304(%rbp), %rdi
	testq	%rdi, %rdi
	je	LBB38_159
	movq	-296(%rbp), %rsi
	testq	%rsi, %rsi
	je	LBB38_159
	movl	$1, %edx
	callq	___rust_dealloc
LBB38_159:
	movq	%rbx, -304(%rbp)
	movq	%r14, -296(%rbp)
	movq	%r15, -288(%rbp)
	jmp	LBB38_32
LBB38_160:
	movl	$1, %esi
	movq	%r14, %rdi
	callq	___rust_alloc
LBB38_161:
	movq	%rax, %rbx
	testq	%rax, %rax
	je	LBB38_419
	movq	%r14, %r15
LBB38_163:
	leaq	-544(%rbp), %r14
LBB38_164:
	movq	%rbx, %rdi
	movq	-64(%rbp), %rsi
	movq	%r12, %rdx
	callq	_memcpy
	movq	%rbx, -128(%rbp)
	movq	%r15, -120(%rbp)
	movq	%r12, -112(%rbp)
Ltmp75:
	leaq	-152(%rbp), %rdi
	leaq	-128(%rbp), %rsi
	callq	__ZN5alloc3vec12Vec$LT$T$GT$4push17hb420128bc619abdaE
Ltmp76:
	movabsq	$261993005117, %r15
	jmp	LBB38_33
LBB38_165:
	movl	$1, %esi
	movq	%r12, %rdi
	callq	___rust_alloc
LBB38_166:
	movq	%rax, %rbx
	testq	%rax, %rax
	je	LBB38_417
	movq	%r12, %r14
LBB38_168:
	movq	-64(%rbp), %r12
LBB38_169:
	movq	%rbx, %rdi
	movq	%r12, %rsi
	movq	%r15, %rdx
	callq	_memcpy
	movq	-568(%rbp), %rdi
	testq	%rdi, %rdi
	je	LBB38_172
	movq	-560(%rbp), %rsi
	testq	%rsi, %rsi
	je	LBB38_172
	movl	$1, %edx
	callq	___rust_dealloc
LBB38_172:
	movq	%rbx, -568(%rbp)
	movq	%r14, -560(%rbp)
	movq	%r15, -552(%rbp)
	jmp	LBB38_32
LBB38_173:
	movl	$1, %ebx
	xorl	%r14d, %r14d
	cmpq	%r15, %r14
	jae	LBB38_182
LBB38_174:
	movq	%r12, -64(%rbp)
	leaq	(%r14,%r14), %rax
	cmpq	%r15, %rax
	movq	%r15, %r12
	cmovaq	%rax, %r12
	cmpq	$8, %r12
	movl	$8, %eax
	cmovbeq	%rax, %r12
	testq	%r14, %r14
	je	LBB38_178
	testq	%rbx, %rbx
	je	LBB38_178
	cmpq	%r12, %r14
	je	LBB38_181
	movl	$1, %edx
	movq	%rbx, %rdi
	movq	%r14, %rsi
	movq	%r12, %rcx
	callq	___rust_realloc
	jmp	LBB38_179
LBB38_178:
	movl	$1, %esi
	movq	%r12, %rdi
	callq	___rust_alloc
LBB38_179:
	movq	%rax, %rbx
	testq	%rax, %rax
	je	LBB38_417
	movq	%r12, %r14
LBB38_181:
	movq	-64(%rbp), %r12
LBB38_182:
	movq	%rbx, %rdi
	movq	%r12, %rsi
	movq	%r15, %rdx
	callq	_memcpy
	movq	-648(%rbp), %rdi
	testq	%rdi, %rdi
	je	LBB38_185
	movq	-640(%rbp), %rsi
	testq	%rsi, %rsi
	je	LBB38_185
	movl	$1, %edx
	callq	___rust_dealloc
LBB38_185:
	movq	%rbx, -648(%rbp)
	movq	%r14, -640(%rbp)
	movq	%r15, -632(%rbp)
	jmp	LBB38_32
LBB38_186:
	movl	$1, %ebx
	xorl	%r14d, %r14d
LBB38_187:
	cmpq	%r15, %r14
	jae	LBB38_196
	movq	%r12, -64(%rbp)
	leaq	(%r14,%r14), %rax
	cmpq	%r15, %rax
	movq	%r15, %r12
	cmovaq	%rax, %r12
	cmpq	$8, %r12
	movl	$8, %eax
	cmovbeq	%rax, %r12
	testq	%r14, %r14
	je	LBB38_192
	testq	%rbx, %rbx
	je	LBB38_192
	cmpq	%r12, %r14
	je	LBB38_195
	movl	$1, %edx
	movq	%rbx, %rdi
	movq	%r14, %rsi
	movq	%r12, %rcx
	callq	___rust_realloc
	jmp	LBB38_193
LBB38_192:
	movl	$1, %esi
	movq	%r12, %rdi
	callq	___rust_alloc
LBB38_193:
	movq	%rax, %rbx
	testq	%rax, %rax
	je	LBB38_417
	movq	%r12, %r14
LBB38_195:
	movq	-64(%rbp), %r12
LBB38_196:
	movq	%rbx, %rdi
	movq	%r12, %rsi
	movq	%r15, %rdx
	callq	_memcpy
	movq	-200(%rbp), %rdi
	testq	%rdi, %rdi
	je	LBB38_199
	movq	-192(%rbp), %rsi
	testq	%rsi, %rsi
	je	LBB38_199
	movl	$1, %edx
	callq	___rust_dealloc
LBB38_199:
	movq	%rbx, -200(%rbp)
	movq	%r14, -192(%rbp)
	movq	%r15, -184(%rbp)
	jmp	LBB38_32
LBB38_200:
	movq	-112(%rbp), %rax
	movq	-128(%rbp), %rcx
	movq	-120(%rbp), %rdx
	movq	%rcx, -280(%rbp)
	movq	%rdx, -272(%rbp)
	movq	%rax, -264(%rbp)
	movq	-832(%rbp), %rsi
	movq	-824(%rbp), %rdi
	movq	%rsi, -256(%rbp)
	movq	%rdi, -248(%rbp)
	movq	%rax, -112(%rbp)
	movq	%rdx, -120(%rbp)
	movq	%rcx, -128(%rbp)
Ltmp58:
	leaq	-856(%rbp), %rdi
	callq	__ZN7failure9backtrace9Backtrace3new17h645c6458eb304b48E
Ltmp59:
	movq	-816(%rbp), %rax
	movq	%rax, -504(%rbp)
	movq	-824(%rbp), %rax
	movq	%rax, -512(%rbp)
	movq	-832(%rbp), %rax
	movq	%rax, -520(%rbp)
	movq	-840(%rbp), %rax
	movq	%rax, -528(%rbp)
	movq	-856(%rbp), %rax
	movq	-848(%rbp), %rcx
	movq	%rcx, -536(%rbp)
	movq	%rax, -544(%rbp)
	movq	-128(%rbp), %rax
	movq	-120(%rbp), %rcx
	movq	%rax, -496(%rbp)
	movq	%rcx, -488(%rbp)
	movq	-112(%rbp), %rax
	movq	%rax, -480(%rbp)
	leaq	-856(%rbp), %rdi
	leaq	-544(%rbp), %rsi
	movl	$9, %ecx
	rep;movsq (%rsi), %es:(%rdi)
	movl	$72, %edi
	movl	$8, %esi
	callq	___rust_alloc
	testq	%rax, %rax
	je	LBB38_420
	movq	%rax, %rbx
	leaq	-856(%rbp), %rsi
	movl	$9, %ecx
	movq	%rax, %rdi
	rep;movsq (%rsi), %es:(%rdi)
	leaq	l___unnamed_28(%rip), %rcx
LBB38_203:
	movq	%rbx, 8(%r13)
	movq	%rcx, 16(%r13)
	movq	$1, (%r13)
	movq	-624(%rbp), %rdi
	testq	%rdi, %rdi
	je	LBB38_414
	movq	-616(%rbp), %rsi
	testq	%rsi, %rsi
	jne	LBB38_413
	jmp	LBB38_414
LBB38_205:
	movq	-960(%rbp), %r15
	testq	%r15, %r15
	je	LBB38_211
	movdqu	-952(%rbp), %xmm0
	movq	%r15, -984(%rbp)
	movdqa	%xmm0, -64(%rbp)
	movdqu	%xmm0, -976(%rbp)
	movq	-864(%rbp), %rax
	movq	%rax, -344(%rbp)
	movq	-880(%rbp), %rax
	movq	-872(%rbp), %rcx
	movq	%rcx, -352(%rbp)
	movq	%rax, -360(%rbp)
	movq	-904(%rbp), %r14
	testq	%r14, %r14
	movq	-936(%rbp), %r13
	je	LBB38_219
	movdqu	-896(%rbp), %xmm0
	movq	%r14, -672(%rbp)
	movdqa	%xmm0, -928(%rbp)
	movdqu	%xmm0, -664(%rbp)
	movq	-648(%rbp), %r12
	testq	%r12, %r12
	je	LBB38_265
	movdqu	-640(%rbp), %xmm0
	movq	%r12, -336(%rbp)
	movdqa	%xmm0, -1008(%rbp)
	movdqu	%xmm0, -328(%rbp)
	movq	-568(%rbp), %rbx
	testq	%rbx, %rbx
	je	LBB38_307
	movdqu	-560(%rbp), %xmm0
	movq	%rbx, -280(%rbp)
	movdqu	%xmm0, -272(%rbp)
	movq	-304(%rbp), %rax
	testq	%rax, %rax
	je	LBB38_348
	movdqu	-296(%rbp), %xmm0
	movq	-984(%rbp), %rcx
	movq	-976(%rbp), %rdx
	movq	%rcx, -856(%rbp)
	movq	%rdx, -848(%rbp)
	movq	-968(%rbp), %rcx
	movq	%rcx, -840(%rbp)
	movq	-360(%rbp), %rcx
	movq	-352(%rbp), %rdx
	movq	%rcx, -832(%rbp)
	movq	%rdx, -824(%rbp)
	movq	-344(%rbp), %rcx
	movq	%rcx, -816(%rbp)
	movq	-672(%rbp), %rcx
	movq	-664(%rbp), %rdx
	movq	%rcx, -808(%rbp)
	movq	%rdx, -800(%rbp)
	movq	-656(%rbp), %rcx
	movq	%rcx, -792(%rbp)
	movq	-320(%rbp), %rcx
	movq	%rcx, -768(%rbp)
	movq	-336(%rbp), %rcx
	movq	-328(%rbp), %rdx
	movq	%rdx, -776(%rbp)
	movq	%rcx, -784(%rbp)
	movq	-280(%rbp), %rcx
	movq	-272(%rbp), %rdx
	movq	%rcx, -760(%rbp)
	movq	%rdx, -752(%rbp)
	movq	-264(%rbp), %rcx
	movq	%rcx, -744(%rbp)
	leaq	8(%r13), %rdi
	leaq	-856(%rbp), %rsi
	movl	$15, %ecx
	rep;movsq (%rsi), %es:(%rdi)
	movq	%rax, 128(%r13)
	movdqu	%xmm0, 136(%r13)
	movq	-184(%rbp), %rax
	movq	%rax, 168(%r13)
	movq	-200(%rbp), %rax
	movq	-192(%rbp), %rcx
	movq	%rcx, 160(%r13)
	movq	%rax, 152(%r13)
	movq	-152(%rbp), %rax
	movq	-144(%rbp), %rcx
	movq	%rax, 176(%r13)
	movq	%rcx, 184(%r13)
	movq	-136(%rbp), %rax
	movq	%rax, 192(%r13)
	movq	-176(%rbp), %rax
	movq	-168(%rbp), %rcx
	movq	%rax, 200(%r13)
	movq	%rcx, 208(%r13)
	movq	-160(%rbp), %rax
	movq	%rax, 216(%r13)
	movq	$0, (%r13)
	jmp	LBB38_408
LBB38_211:
Ltmp90:
	leaq	-128(%rbp), %rdi
	callq	__ZN7failure9backtrace9Backtrace3new17h645c6458eb304b48E
Ltmp91:
	movq	-936(%rbp), %r13
	movq	-88(%rbp), %rax
	movq	%rax, -504(%rbp)
	movq	-96(%rbp), %rax
	movq	%rax, -512(%rbp)
	movq	-104(%rbp), %rax
	movq	%rax, -520(%rbp)
	movq	-112(%rbp), %rax
	movq	%rax, -528(%rbp)
	movq	-128(%rbp), %rax
	movq	-120(%rbp), %rcx
	movq	%rcx, -536(%rbp)
	movq	%rax, -544(%rbp)
	movl	$64, %edi
	movl	$8, %esi
	callq	___rust_alloc
	testq	%rax, %rax
	je	LBB38_415
	movq	-504(%rbp), %rcx
	movq	%rcx, 40(%rax)
	movq	-512(%rbp), %rcx
	movq	%rcx, 32(%rax)
	movq	-520(%rbp), %rcx
	movq	%rcx, 24(%rax)
	movq	-528(%rbp), %rcx
	movq	%rcx, 16(%rax)
	movq	-544(%rbp), %rcx
	movq	-536(%rbp), %rdx
	movq	%rdx, 8(%rax)
	movq	%rcx, (%rax)
	leaq	l___unnamed_29(%rip), %rcx
	movq	%rcx, 48(%rax)
	movq	$22, 56(%rax)
	movq	%rax, 8(%r13)
	leaq	l___unnamed_30(%rip), %rax
	movq	%rax, 16(%r13)
	movq	$1, (%r13)
	movq	-176(%rbp), %rbx
	movq	-160(%rbp), %rax
	testq	%rax, %rax
	je	LBB38_233
	leaq	(%rax,%rax,2), %rax
	leaq	(%rbx,%rax,8), %r14
	jmp	LBB38_216
	.p2align	4, 0x90
LBB38_215:
	addq	$24, %rbx
	cmpq	%r14, %rbx
	je	LBB38_232
LBB38_216:
	movq	(%rbx), %rdi
	testq	%rdi, %rdi
	je	LBB38_215
	movq	8(%rbx), %rsi
	testq	%rsi, %rsi
	je	LBB38_215
	movl	$1, %edx
	callq	___rust_dealloc
	jmp	LBB38_215
LBB38_219:
Ltmp87:
	leaq	-128(%rbp), %rdi
	callq	__ZN7failure9backtrace9Backtrace3new17h645c6458eb304b48E
Ltmp88:
	movq	-88(%rbp), %rax
	movq	%rax, -504(%rbp)
	movq	-96(%rbp), %rax
	movq	%rax, -512(%rbp)
	movq	-104(%rbp), %rax
	movq	%rax, -520(%rbp)
	movq	-112(%rbp), %rax
	movq	%rax, -528(%rbp)
	movq	-128(%rbp), %rax
	movq	-120(%rbp), %rcx
	movq	%rcx, -536(%rbp)
	movq	%rax, -544(%rbp)
	movl	$64, %edi
	movl	$8, %esi
	callq	___rust_alloc
	testq	%rax, %rax
	je	LBB38_415
	movq	-504(%rbp), %rcx
	movq	%rcx, 40(%rax)
	movq	-512(%rbp), %rcx
	movq	%rcx, 32(%rax)
	movq	-520(%rbp), %rcx
	movq	%rcx, 24(%rax)
	movq	-528(%rbp), %rcx
	movq	%rcx, 16(%rax)
	movq	-544(%rbp), %rcx
	movq	-536(%rbp), %rdx
	movq	%rdx, 8(%rax)
	movq	%rcx, (%rax)
	leaq	l___unnamed_31(%rip), %rcx
	movq	%rcx, 48(%rax)
	movq	$24, 56(%rax)
	movq	%rax, 8(%r13)
	leaq	l___unnamed_30(%rip), %rax
	movq	%rax, 16(%r13)
	movq	$1, (%r13)
	movq	-360(%rbp), %rdi
	testq	%rdi, %rdi
	je	LBB38_224
	movq	-352(%rbp), %rsi
	testq	%rsi, %rsi
	je	LBB38_224
	movl	$1, %edx
	callq	___rust_dealloc
LBB38_224:
	movdqa	-64(%rbp), %xmm0
	movq	%xmm0, %rsi
	testq	%rsi, %rsi
	je	LBB38_226
	movl	$1, %edx
	movq	%r15, %rdi
	callq	___rust_dealloc
LBB38_226:
	movq	-176(%rbp), %rbx
	movq	-160(%rbp), %rax
	testq	%rax, %rax
	je	LBB38_281
	leaq	(%rax,%rax,2), %rax
	leaq	(%rbx,%rax,8), %r14
	jmp	LBB38_229
	.p2align	4, 0x90
LBB38_228:
	addq	$24, %rbx
	cmpq	%r14, %rbx
	je	LBB38_280
LBB38_229:
	movq	(%rbx), %rdi
	testq	%rdi, %rdi
	je	LBB38_228
	movq	8(%rbx), %rsi
	testq	%rsi, %rsi
	je	LBB38_228
	movl	$1, %edx
	callq	___rust_dealloc
	jmp	LBB38_228
LBB38_232:
	movq	-176(%rbp), %rbx
LBB38_233:
	movq	-168(%rbp), %rax
	testq	%rax, %rax
	je	LBB38_237
	testq	%rbx, %rbx
	je	LBB38_237
	shlq	$3, %rax
	leaq	(%rax,%rax,2), %rsi
	testq	%rsi, %rsi
	je	LBB38_237
	movl	$8, %edx
	movq	%rbx, %rdi
	callq	___rust_dealloc
LBB38_237:
	movq	-152(%rbp), %rbx
	movq	-136(%rbp), %rax
	testq	%rax, %rax
	je	LBB38_244
	leaq	(%rax,%rax,2), %rax
	leaq	(%rbx,%rax,8), %r14
	jmp	LBB38_240
	.p2align	4, 0x90
LBB38_239:
	addq	$24, %rbx
	cmpq	%r14, %rbx
	je	LBB38_243
LBB38_240:
	movq	(%rbx), %rdi
	testq	%rdi, %rdi
	je	LBB38_239
	movq	8(%rbx), %rsi
	testq	%rsi, %rsi
	je	LBB38_239
	movl	$1, %edx
	callq	___rust_dealloc
	jmp	LBB38_239
LBB38_243:
	movq	-152(%rbp), %rbx
LBB38_244:
	movq	-144(%rbp), %rax
	testq	%rax, %rax
	je	LBB38_248
	testq	%rbx, %rbx
	je	LBB38_248
	shlq	$3, %rax
	leaq	(%rax,%rax,2), %rsi
	testq	%rsi, %rsi
	je	LBB38_248
	movl	$8, %edx
	movq	%rbx, %rdi
	callq	___rust_dealloc
LBB38_248:
	movq	-200(%rbp), %rdi
	testq	%rdi, %rdi
	je	LBB38_251
	movq	-192(%rbp), %rsi
	testq	%rsi, %rsi
	je	LBB38_251
	movl	$1, %edx
	callq	___rust_dealloc
LBB38_251:
	movq	-304(%rbp), %rdi
	testq	%rdi, %rdi
	je	LBB38_254
	movq	-296(%rbp), %rsi
	testq	%rsi, %rsi
	je	LBB38_254
	movl	$1, %edx
	callq	___rust_dealloc
LBB38_254:
	movq	-568(%rbp), %rdi
	testq	%rdi, %rdi
	je	LBB38_257
	movq	-560(%rbp), %rsi
	testq	%rsi, %rsi
	je	LBB38_257
	movl	$1, %edx
	callq	___rust_dealloc
LBB38_257:
	movq	-648(%rbp), %rdi
	testq	%rdi, %rdi
	je	LBB38_260
	movq	-640(%rbp), %rsi
	testq	%rsi, %rsi
	je	LBB38_260
	movl	$1, %edx
	callq	___rust_dealloc
LBB38_260:
	movq	-904(%rbp), %rdi
	testq	%rdi, %rdi
	je	LBB38_263
	movq	-896(%rbp), %rsi
	testq	%rsi, %rsi
	je	LBB38_263
	movl	$1, %edx
	callq	___rust_dealloc
LBB38_263:
	movq	-880(%rbp), %rdi
	testq	%rdi, %rdi
	je	LBB38_408
	movq	-872(%rbp), %rsi
	jmp	LBB38_406
LBB38_265:
Ltmp84:
	leaq	-128(%rbp), %rdi
	callq	__ZN7failure9backtrace9Backtrace3new17h645c6458eb304b48E
Ltmp85:
	movq	-88(%rbp), %rax
	movq	%rax, -504(%rbp)
	movq	-96(%rbp), %rax
	movq	%rax, -512(%rbp)
	movq	-104(%rbp), %rax
	movq	%rax, -520(%rbp)
	movq	-112(%rbp), %rax
	movq	%rax, -528(%rbp)
	movq	-128(%rbp), %rax
	movq	-120(%rbp), %rcx
	movq	%rcx, -536(%rbp)
	movq	%rax, -544(%rbp)
	movl	$64, %edi
	movl	$8, %esi
	callq	___rust_alloc
	testq	%rax, %rax
	je	LBB38_415
	movq	-504(%rbp), %rcx
	movq	%rcx, 40(%rax)
	movq	-512(%rbp), %rcx
	movq	%rcx, 32(%rax)
	movq	-520(%rbp), %rcx
	movq	%rcx, 24(%rax)
	movq	-528(%rbp), %rcx
	movq	%rcx, 16(%rax)
	movq	-544(%rbp), %rcx
	movq	-536(%rbp), %rdx
	movq	%rdx, 8(%rax)
	movq	%rcx, (%rax)
	leaq	l___unnamed_32(%rip), %rcx
	movq	%rcx, 48(%rax)
	movq	$26, 56(%rax)
	movq	%rax, 8(%r13)
	leaq	l___unnamed_30(%rip), %rax
	movq	%rax, 16(%r13)
	movq	$1, (%r13)
	movdqa	-928(%rbp), %xmm0
	movq	%xmm0, %rsi
	testq	%rsi, %rsi
	je	LBB38_269
	movl	$1, %edx
	movq	%r14, %rdi
	callq	___rust_dealloc
LBB38_269:
	movq	-360(%rbp), %rdi
	testq	%rdi, %rdi
	je	LBB38_272
	movq	-352(%rbp), %rsi
	testq	%rsi, %rsi
	je	LBB38_272
	movl	$1, %edx
	callq	___rust_dealloc
LBB38_272:
	movdqa	-64(%rbp), %xmm0
	movq	%xmm0, %rsi
	testq	%rsi, %rsi
	je	LBB38_274
	movl	$1, %edx
	movq	%r15, %rdi
	callq	___rust_dealloc
LBB38_274:
	movq	-176(%rbp), %rbx
	movq	-160(%rbp), %rax
	testq	%rax, %rax
	je	LBB38_325
	leaq	(%rax,%rax,2), %rax
	leaq	(%rbx,%rax,8), %r14
	jmp	LBB38_277
	.p2align	4, 0x90
LBB38_276:
	addq	$24, %rbx
	cmpq	%r14, %rbx
	je	LBB38_324
LBB38_277:
	movq	(%rbx), %rdi
	testq	%rdi, %rdi
	je	LBB38_276
	movq	8(%rbx), %rsi
	testq	%rsi, %rsi
	je	LBB38_276
	movl	$1, %edx
	callq	___rust_dealloc
	jmp	LBB38_276
LBB38_280:
	movq	-176(%rbp), %rbx
LBB38_281:
	movq	-168(%rbp), %rax
	testq	%rax, %rax
	je	LBB38_285
	testq	%rbx, %rbx
	je	LBB38_285
	shlq	$3, %rax
	leaq	(%rax,%rax,2), %rsi
	testq	%rsi, %rsi
	je	LBB38_285
	movl	$8, %edx
	movq	%rbx, %rdi
	callq	___rust_dealloc
LBB38_285:
	movq	-152(%rbp), %rbx
	movq	-136(%rbp), %rax
	testq	%rax, %rax
	je	LBB38_292
	leaq	(%rax,%rax,2), %rax
	leaq	(%rbx,%rax,8), %r14
	jmp	LBB38_288
	.p2align	4, 0x90
LBB38_287:
	addq	$24, %rbx
	cmpq	%r14, %rbx
	je	LBB38_291
LBB38_288:
	movq	(%rbx), %rdi
	testq	%rdi, %rdi
	je	LBB38_287
	movq	8(%rbx), %rsi
	testq	%rsi, %rsi
	je	LBB38_287
	movl	$1, %edx
	callq	___rust_dealloc
	jmp	LBB38_287
LBB38_291:
	movq	-152(%rbp), %rbx
LBB38_292:
	movq	-144(%rbp), %rax
	testq	%rax, %rax
	je	LBB38_296
	testq	%rbx, %rbx
	je	LBB38_296
	shlq	$3, %rax
	leaq	(%rax,%rax,2), %rsi
	testq	%rsi, %rsi
	je	LBB38_296
	movl	$8, %edx
	movq	%rbx, %rdi
	callq	___rust_dealloc
LBB38_296:
	movq	-200(%rbp), %rdi
	testq	%rdi, %rdi
	je	LBB38_299
	movq	-192(%rbp), %rsi
	testq	%rsi, %rsi
	je	LBB38_299
	movl	$1, %edx
	callq	___rust_dealloc
LBB38_299:
	movq	-304(%rbp), %rdi
	testq	%rdi, %rdi
	je	LBB38_302
	movq	-296(%rbp), %rsi
	testq	%rsi, %rsi
	je	LBB38_302
	movl	$1, %edx
	callq	___rust_dealloc
LBB38_302:
	movq	-568(%rbp), %rdi
	testq	%rdi, %rdi
	je	LBB38_305
	movq	-560(%rbp), %rsi
	testq	%rsi, %rsi
	je	LBB38_305
	movl	$1, %edx
	callq	___rust_dealloc
LBB38_305:
	movq	-648(%rbp), %rdi
	testq	%rdi, %rdi
	je	LBB38_408
	movq	-640(%rbp), %rsi
	jmp	LBB38_406
LBB38_307:
Ltmp81:
	leaq	-128(%rbp), %rdi
	callq	__ZN7failure9backtrace9Backtrace3new17h645c6458eb304b48E
Ltmp82:
	movq	-88(%rbp), %rax
	movq	%rax, -504(%rbp)
	movq	-96(%rbp), %rax
	movq	%rax, -512(%rbp)
	movq	-104(%rbp), %rax
	movq	%rax, -520(%rbp)
	movq	-112(%rbp), %rax
	movq	%rax, -528(%rbp)
	movq	-128(%rbp), %rax
	movq	-120(%rbp), %rcx
	movq	%rcx, -536(%rbp)
	movq	%rax, -544(%rbp)
	movl	$64, %edi
	movl	$8, %esi
	callq	___rust_alloc
	testq	%rax, %rax
	je	LBB38_415
	movq	-504(%rbp), %rcx
	movq	%rcx, 40(%rax)
	movq	-512(%rbp), %rcx
	movq	%rcx, 32(%rax)
	movq	-520(%rbp), %rcx
	movq	%rcx, 24(%rax)
	movq	-528(%rbp), %rcx
	movq	%rcx, 16(%rax)
	movq	-544(%rbp), %rcx
	movq	-536(%rbp), %rdx
	movq	%rdx, 8(%rax)
	movq	%rcx, (%rax)
	leaq	l___unnamed_33(%rip), %rcx
	movq	%rcx, 48(%rax)
	movq	$33, 56(%rax)
	movq	%rax, 8(%r13)
	leaq	l___unnamed_30(%rip), %rax
	movq	%rax, 16(%r13)
	movq	$1, (%r13)
	movdqa	-1008(%rbp), %xmm0
	movq	%xmm0, %rsi
	testq	%rsi, %rsi
	je	LBB38_311
	movl	$1, %edx
	movq	%r12, %rdi
	callq	___rust_dealloc
LBB38_311:
	movdqa	-928(%rbp), %xmm0
	movq	%xmm0, %rsi
	testq	%rsi, %rsi
	je	LBB38_313
	movl	$1, %edx
	movq	%r14, %rdi
	callq	___rust_dealloc
LBB38_313:
	movq	-360(%rbp), %rdi
	testq	%rdi, %rdi
	je	LBB38_316
	movq	-352(%rbp), %rsi
	testq	%rsi, %rsi
	je	LBB38_316
	movl	$1, %edx
	callq	___rust_dealloc
LBB38_316:
	movdqa	-64(%rbp), %xmm0
	movq	%xmm0, %rsi
	testq	%rsi, %rsi
	je	LBB38_318
	movl	$1, %edx
	movq	%r15, %rdi
	callq	___rust_dealloc
LBB38_318:
	movq	-176(%rbp), %rbx
	movq	-160(%rbp), %rax
	testq	%rax, %rax
	je	LBB38_368
	leaq	(%rax,%rax,2), %rax
	leaq	(%rbx,%rax,8), %r14
	jmp	LBB38_321
	.p2align	4, 0x90
LBB38_320:
	addq	$24, %rbx
	cmpq	%r14, %rbx
	je	LBB38_367
LBB38_321:
	movq	(%rbx), %rdi
	testq	%rdi, %rdi
	je	LBB38_320
	movq	8(%rbx), %rsi
	testq	%rsi, %rsi
	je	LBB38_320
	movl	$1, %edx
	callq	___rust_dealloc
	jmp	LBB38_320
LBB38_324:
	movq	-176(%rbp), %rbx
LBB38_325:
	movq	-168(%rbp), %rax
	testq	%rax, %rax
	je	LBB38_329
	testq	%rbx, %rbx
	je	LBB38_329
	shlq	$3, %rax
	leaq	(%rax,%rax,2), %rsi
	testq	%rsi, %rsi
	je	LBB38_329
	movl	$8, %edx
	movq	%rbx, %rdi
	callq	___rust_dealloc
LBB38_329:
	movq	-152(%rbp), %rbx
	movq	-136(%rbp), %rax
	testq	%rax, %rax
	je	LBB38_336
	leaq	(%rax,%rax,2), %rax
	leaq	(%rbx,%rax,8), %r14
	jmp	LBB38_332
	.p2align	4, 0x90
LBB38_331:
	addq	$24, %rbx
	cmpq	%r14, %rbx
	je	LBB38_335
LBB38_332:
	movq	(%rbx), %rdi
	testq	%rdi, %rdi
	je	LBB38_331
	movq	8(%rbx), %rsi
	testq	%rsi, %rsi
	je	LBB38_331
	movl	$1, %edx
	callq	___rust_dealloc
	jmp	LBB38_331
LBB38_335:
	movq	-152(%rbp), %rbx
LBB38_336:
	movq	-144(%rbp), %rax
	testq	%rax, %rax
	je	LBB38_340
	testq	%rbx, %rbx
	je	LBB38_340
	shlq	$3, %rax
	leaq	(%rax,%rax,2), %rsi
	testq	%rsi, %rsi
	je	LBB38_340
	movl	$8, %edx
	movq	%rbx, %rdi
	callq	___rust_dealloc
LBB38_340:
	movq	-200(%rbp), %rdi
	testq	%rdi, %rdi
	je	LBB38_343
	movq	-192(%rbp), %rsi
	testq	%rsi, %rsi
	je	LBB38_343
	movl	$1, %edx
	callq	___rust_dealloc
LBB38_343:
	movq	-304(%rbp), %rdi
	testq	%rdi, %rdi
	je	LBB38_346
	movq	-296(%rbp), %rsi
	testq	%rsi, %rsi
	je	LBB38_346
	movl	$1, %edx
	callq	___rust_dealloc
LBB38_346:
	movq	-568(%rbp), %rdi
	testq	%rdi, %rdi
	je	LBB38_408
	movq	-560(%rbp), %rsi
	jmp	LBB38_406
LBB38_348:
Ltmp78:
	movdqa	%xmm0, -1024(%rbp)
	leaq	-128(%rbp), %rdi
	callq	__ZN7failure9backtrace9Backtrace3new17h645c6458eb304b48E
Ltmp79:
	movq	-88(%rbp), %rax
	movq	%rax, -504(%rbp)
	movq	-96(%rbp), %rax
	movq	%rax, -512(%rbp)
	movq	-104(%rbp), %rax
	movq	%rax, -520(%rbp)
	movq	-112(%rbp), %rax
	movq	%rax, -528(%rbp)
	movq	-128(%rbp), %rax
	movq	-120(%rbp), %rcx
	movq	%rcx, -536(%rbp)
	movq	%rax, -544(%rbp)
	movl	$64, %edi
	movl	$8, %esi
	callq	___rust_alloc
	testq	%rax, %rax
	je	LBB38_415
	movq	-504(%rbp), %rcx
	movq	%rcx, 40(%rax)
	movq	-512(%rbp), %rcx
	movq	%rcx, 32(%rax)
	movq	-520(%rbp), %rcx
	movq	%rcx, 24(%rax)
	movq	-528(%rbp), %rcx
	movq	%rcx, 16(%rax)
	movq	-544(%rbp), %rcx
	movq	-536(%rbp), %rdx
	movq	%rdx, 8(%rax)
	movq	%rcx, (%rax)
	leaq	l___unnamed_34(%rip), %rcx
	movq	%rcx, 48(%rax)
	movq	$23, 56(%rax)
	movq	%rax, 8(%r13)
	leaq	l___unnamed_30(%rip), %rax
	movq	%rax, 16(%r13)
	movq	$1, (%r13)
	movdqa	-1024(%rbp), %xmm0
	movq	%xmm0, %rsi
	testq	%rsi, %rsi
	je	LBB38_352
	movl	$1, %edx
	movq	%rbx, %rdi
	callq	___rust_dealloc
LBB38_352:
	movdqa	-1008(%rbp), %xmm0
	movq	%xmm0, %rsi
	testq	%rsi, %rsi
	je	LBB38_354
	movl	$1, %edx
	movq	%r12, %rdi
	callq	___rust_dealloc
LBB38_354:
	movdqa	-928(%rbp), %xmm0
	movq	%xmm0, %rsi
	testq	%rsi, %rsi
	je	LBB38_356
	movl	$1, %edx
	movq	%r14, %rdi
	callq	___rust_dealloc
LBB38_356:
	movq	-360(%rbp), %rdi
	testq	%rdi, %rdi
	je	LBB38_359
	movq	-352(%rbp), %rsi
	testq	%rsi, %rsi
	je	LBB38_359
	movl	$1, %edx
	callq	___rust_dealloc
LBB38_359:
	movdqa	-64(%rbp), %xmm0
	movq	%xmm0, %rsi
	testq	%rsi, %rsi
	je	LBB38_361
	movl	$1, %edx
	movq	%r15, %rdi
	callq	___rust_dealloc
LBB38_361:
	movq	-176(%rbp), %rbx
	movq	-160(%rbp), %rax
	testq	%rax, %rax
	je	LBB38_389
	leaq	(%rax,%rax,2), %rax
	leaq	(%rbx,%rax,8), %r14
	jmp	LBB38_364
LBB38_363:
	addq	$24, %rbx
	cmpq	%r14, %rbx
	je	LBB38_388
LBB38_364:
	movq	(%rbx), %rdi
	testq	%rdi, %rdi
	je	LBB38_363
	movq	8(%rbx), %rsi
	testq	%rsi, %rsi
	je	LBB38_363
	movl	$1, %edx
	callq	___rust_dealloc
	jmp	LBB38_363
LBB38_367:
	movq	-176(%rbp), %rbx
LBB38_368:
	movq	-168(%rbp), %rax
	testq	%rax, %rax
	je	LBB38_372
	testq	%rbx, %rbx
	je	LBB38_372
	shlq	$3, %rax
	leaq	(%rax,%rax,2), %rsi
	testq	%rsi, %rsi
	je	LBB38_372
	movl	$8, %edx
	movq	%rbx, %rdi
	callq	___rust_dealloc
LBB38_372:
	movq	-152(%rbp), %rbx
	movq	-136(%rbp), %rax
	testq	%rax, %rax
	je	LBB38_379
	leaq	(%rax,%rax,2), %rax
	leaq	(%rbx,%rax,8), %r14
	jmp	LBB38_375
	.p2align	4, 0x90
LBB38_374:
	addq	$24, %rbx
	cmpq	%r14, %rbx
	je	LBB38_378
LBB38_375:
	movq	(%rbx), %rdi
	testq	%rdi, %rdi
	je	LBB38_374
	movq	8(%rbx), %rsi
	testq	%rsi, %rsi
	je	LBB38_374
	movl	$1, %edx
	callq	___rust_dealloc
	jmp	LBB38_374
LBB38_378:
	movq	-152(%rbp), %rbx
LBB38_379:
	movq	-144(%rbp), %rax
	testq	%rax, %rax
	je	LBB38_383
	testq	%rbx, %rbx
	je	LBB38_383
	shlq	$3, %rax
	leaq	(%rax,%rax,2), %rsi
	testq	%rsi, %rsi
	je	LBB38_383
	movl	$8, %edx
	movq	%rbx, %rdi
	callq	___rust_dealloc
LBB38_383:
	movq	-200(%rbp), %rdi
	testq	%rdi, %rdi
	je	LBB38_386
	movq	-192(%rbp), %rsi
	testq	%rsi, %rsi
	je	LBB38_386
	movl	$1, %edx
	callq	___rust_dealloc
LBB38_386:
	movq	-304(%rbp), %rdi
	testq	%rdi, %rdi
	je	LBB38_408
	movq	-296(%rbp), %rsi
	jmp	LBB38_406
LBB38_388:
	movq	-176(%rbp), %rbx
LBB38_389:
	movq	-168(%rbp), %rax
	testq	%rax, %rax
	je	LBB38_393
	testq	%rbx, %rbx
	je	LBB38_393
	shlq	$3, %rax
	leaq	(%rax,%rax,2), %rsi
	testq	%rsi, %rsi
	je	LBB38_393
	movl	$8, %edx
	movq	%rbx, %rdi
	callq	___rust_dealloc
LBB38_393:
	movq	-152(%rbp), %rbx
	movq	-136(%rbp), %rax
	testq	%rax, %rax
	je	LBB38_400
	leaq	(%rax,%rax,2), %rax
	leaq	(%rbx,%rax,8), %r14
	jmp	LBB38_396
LBB38_395:
	addq	$24, %rbx
	cmpq	%r14, %rbx
	je	LBB38_399
LBB38_396:
	movq	(%rbx), %rdi
	testq	%rdi, %rdi
	je	LBB38_395
	movq	8(%rbx), %rsi
	testq	%rsi, %rsi
	je	LBB38_395
	movl	$1, %edx
	callq	___rust_dealloc
	jmp	LBB38_395
LBB38_399:
	movq	-152(%rbp), %rbx
LBB38_400:
	movq	-144(%rbp), %rax
	testq	%rax, %rax
	je	LBB38_404
	testq	%rbx, %rbx
	je	LBB38_404
	shlq	$3, %rax
	leaq	(%rax,%rax,2), %rsi
	testq	%rsi, %rsi
	je	LBB38_404
	movl	$8, %edx
	movq	%rbx, %rdi
	callq	___rust_dealloc
LBB38_404:
	movq	-200(%rbp), %rdi
	testq	%rdi, %rdi
	je	LBB38_408
	movq	-192(%rbp), %rsi
LBB38_406:
	testq	%rsi, %rsi
	je	LBB38_408
	movl	$1, %edx
	callq	___rust_dealloc
LBB38_408:
	movq	-224(%rbp), %rdi
	testq	%rdi, %rdi
	je	LBB38_411
	movq	-216(%rbp), %rsi
	testq	%rsi, %rsi
	je	LBB38_411
	movl	$1, %edx
	callq	___rust_dealloc
LBB38_411:
	movq	-600(%rbp), %rdi
	testq	%rdi, %rdi
	je	LBB38_414
LBB38_412:
	movq	-592(%rbp), %rsi
	testq	%rsi, %rsi
	je	LBB38_414
LBB38_413:
	movl	$1, %edx
	callq	___rust_dealloc
LBB38_414:
	movq	%r13, %rax
	addq	$1064, %rsp
	popq	%rbx
	popq	%r12
	popq	%r13
	popq	%r14
	popq	%r15
	popq	%rbp
	retq
LBB38_415:
	movl	$64, %edi
	movl	$8, %esi
	callq	__ZN5alloc5alloc18handle_alloc_error17h28974197717b8939E
LBB38_416:
	movl	$1, %esi
	movq	%r15, %rdi
	callq	__ZN5alloc5alloc18handle_alloc_error17h28974197717b8939E
LBB38_417:
	movl	$1, %esi
	movq	%r12, %rdi
	callq	__ZN5alloc5alloc18handle_alloc_error17h28974197717b8939E
LBB38_418:
	movl	$88, %edi
	movl	$8, %esi
	callq	__ZN5alloc5alloc18handle_alloc_error17h28974197717b8939E
LBB38_419:
	movl	$1, %esi
	movq	%r14, %rdi
	callq	__ZN5alloc5alloc18handle_alloc_error17h28974197717b8939E
LBB38_420:
	movl	$72, %edi
	movl	$8, %esi
	callq	__ZN5alloc5alloc18handle_alloc_error17h28974197717b8939E
LBB38_421:
Ltmp80:
	movq	%rax, %r14
	leaq	-280(%rbp), %rdi
	callq	__ZN4core3ptr13drop_in_place17hcdeabca077e80286E
	leaq	-336(%rbp), %rdi
	callq	__ZN4core3ptr13drop_in_place17hcdeabca077e80286E
	leaq	-672(%rbp), %rdi
	callq	__ZN4core3ptr13drop_in_place17hcdeabca077e80286E
	leaq	-360(%rbp), %rdi
	callq	__ZN4core3ptr13drop_in_place17h19ceecc835d9af57E
	leaq	-984(%rbp), %rdi
	callq	__ZN4core3ptr13drop_in_place17hcdeabca077e80286E
	leaq	-176(%rbp), %rdi
	callq	__ZN4core3ptr13drop_in_place17h2910b98980e81dd5E
	leaq	-152(%rbp), %rdi
	callq	__ZN4core3ptr13drop_in_place17h2910b98980e81dd5E
	leaq	-200(%rbp), %rdi
	jmp	LBB38_446
LBB38_422:
Ltmp83:
	movq	%rax, %r14
	leaq	-336(%rbp), %rdi
	callq	__ZN4core3ptr13drop_in_place17hcdeabca077e80286E
	leaq	-672(%rbp), %rdi
	callq	__ZN4core3ptr13drop_in_place17hcdeabca077e80286E
	leaq	-360(%rbp), %rdi
	callq	__ZN4core3ptr13drop_in_place17h19ceecc835d9af57E
	leaq	-984(%rbp), %rdi
	callq	__ZN4core3ptr13drop_in_place17hcdeabca077e80286E
	leaq	-176(%rbp), %rdi
	callq	__ZN4core3ptr13drop_in_place17h2910b98980e81dd5E
	leaq	-152(%rbp), %rdi
	callq	__ZN4core3ptr13drop_in_place17h2910b98980e81dd5E
	leaq	-200(%rbp), %rdi
	callq	__ZN4core3ptr13drop_in_place17h19ceecc835d9af57E
	leaq	-304(%rbp), %rdi
	jmp	LBB38_446
LBB38_423:
Ltmp86:
	movq	%rax, %r14
	leaq	-672(%rbp), %rdi
	callq	__ZN4core3ptr13drop_in_place17hcdeabca077e80286E
	leaq	-360(%rbp), %rdi
	callq	__ZN4core3ptr13drop_in_place17h19ceecc835d9af57E
	leaq	-984(%rbp), %rdi
	callq	__ZN4core3ptr13drop_in_place17hcdeabca077e80286E
	leaq	-176(%rbp), %rdi
	callq	__ZN4core3ptr13drop_in_place17h2910b98980e81dd5E
	leaq	-152(%rbp), %rdi
	callq	__ZN4core3ptr13drop_in_place17h2910b98980e81dd5E
	leaq	-200(%rbp), %rdi
	callq	__ZN4core3ptr13drop_in_place17h19ceecc835d9af57E
	leaq	-304(%rbp), %rdi
	callq	__ZN4core3ptr13drop_in_place17h19ceecc835d9af57E
	leaq	-568(%rbp), %rdi
	jmp	LBB38_446
LBB38_424:
Ltmp89:
	movq	%rax, %r14
	leaq	-360(%rbp), %rdi
	callq	__ZN4core3ptr13drop_in_place17h19ceecc835d9af57E
	leaq	-984(%rbp), %rdi
	callq	__ZN4core3ptr13drop_in_place17hcdeabca077e80286E
	leaq	-176(%rbp), %rdi
	callq	__ZN4core3ptr13drop_in_place17h2910b98980e81dd5E
	leaq	-152(%rbp), %rdi
	callq	__ZN4core3ptr13drop_in_place17h2910b98980e81dd5E
	leaq	-200(%rbp), %rdi
	callq	__ZN4core3ptr13drop_in_place17h19ceecc835d9af57E
	leaq	-304(%rbp), %rdi
	callq	__ZN4core3ptr13drop_in_place17h19ceecc835d9af57E
	leaq	-568(%rbp), %rdi
	callq	__ZN4core3ptr13drop_in_place17h19ceecc835d9af57E
	leaq	-648(%rbp), %rdi
	jmp	LBB38_446
LBB38_426:
Ltmp92:
	movq	%rax, %r14
	xorl	%ebx, %ebx
	jmp	LBB38_444
LBB38_427:
Ltmp60:
	jmp	LBB38_429
LBB38_428:
Ltmp63:
LBB38_429:
	movq	%rax, %r14
	leaq	-128(%rbp), %rdi
	callq	__ZN4core3ptr13drop_in_place17h1c9649cff52b9344E
	jmp	LBB38_432
LBB38_430:
Ltmp95:
	movq	%rax, %r14
	leaq	-128(%rbp), %rdi
	callq	__ZN4core3ptr13drop_in_place17h1c9649cff52b9344E
	jmp	LBB38_449
LBB38_431:
Ltmp57:
	movq	%rax, %r14
	leaq	-128(%rbp), %rdi
	callq	__ZN4core3ptr13drop_in_place17hcdeabca077e80286E
LBB38_432:
	leaq	-624(%rbp), %rdi
	jmp	LBB38_450
LBB38_433:
Ltmp66:
	movq	%rax, %r14
	leaq	-128(%rbp), %rdi
	jmp	LBB38_448
LBB38_434:
Ltmp54:
	movq	%rax, %r14
	leaq	-624(%rbp), %rdi
	jmp	LBB38_448
LBB38_435:
Ltmp51:
	movq	%rax, %r14
	leaq	-336(%rbp), %rdi
	callq	__ZN4core3ptr13drop_in_place17h8911b134ff2e1ba5E
	leaq	-624(%rbp), %rdi
	jmp	LBB38_448
LBB38_436:
Ltmp98:
	movq	%rax, %r14
Ltmp99:
	leaq	-672(%rbp), %rdi
	callq	__ZN4core3ptr13drop_in_place17h6ca93ad0eab2260cE
Ltmp100:
	jmp	LBB38_441
LBB38_437:
Ltmp101:
	jmp	LBB38_440
LBB38_438:
Ltmp104:
	movq	%rax, %r14
	jmp	LBB38_442
LBB38_439:
Ltmp48:
LBB38_440:
	movq	%rax, %r14
LBB38_441:
	leaq	-544(%rbp), %rdi
	callq	__ZN4core3ptr13drop_in_place17h703dc4766bdf761eE
LBB38_442:
	leaq	-336(%rbp), %rdi
	callq	__ZN4core3ptr13drop_in_place17h8911b134ff2e1ba5E
	jmp	LBB38_451
LBB38_443:
Ltmp77:
	movq	%rax, %r14
	movb	$1, %bl
LBB38_444:
	leaq	-176(%rbp), %rdi
	callq	__ZN4core3ptr13drop_in_place17h2910b98980e81dd5E
	leaq	-152(%rbp), %rdi
	callq	__ZN4core3ptr13drop_in_place17h2910b98980e81dd5E
	leaq	-200(%rbp), %rdi
	callq	__ZN4core3ptr13drop_in_place17h19ceecc835d9af57E
	leaq	-304(%rbp), %rdi
	callq	__ZN4core3ptr13drop_in_place17h19ceecc835d9af57E
	leaq	-568(%rbp), %rdi
	callq	__ZN4core3ptr13drop_in_place17h19ceecc835d9af57E
	leaq	-648(%rbp), %rdi
	callq	__ZN4core3ptr13drop_in_place17h19ceecc835d9af57E
	leaq	-904(%rbp), %rdi
	callq	__ZN4core3ptr13drop_in_place17h19ceecc835d9af57E
	leaq	-880(%rbp), %rdi
	callq	__ZN4core3ptr13drop_in_place17h19ceecc835d9af57E
	testb	%bl, %bl
	je	LBB38_447
	leaq	-960(%rbp), %rdi
LBB38_446:
	callq	__ZN4core3ptr13drop_in_place17h19ceecc835d9af57E
LBB38_447:
	leaq	-224(%rbp), %rdi
LBB38_448:
	callq	__ZN4core3ptr13drop_in_place17hcdeabca077e80286E
LBB38_449:
	leaq	-600(%rbp), %rdi
LBB38_450:
	callq	__ZN4core3ptr13drop_in_place17hcdeabca077e80286E
LBB38_451:
	movq	%r14, %rdi
	callq	__Unwind_Resume
	ud2
Lfunc_end5:
	.cfi_endproc
	.p2align	2, 0x90
	.data_region jt32
.set L38_0_set_44, LBB38_44-LJTI38_0
.set L38_0_set_68, LBB38_68-LJTI38_0
.set L38_0_set_54, LBB38_54-LJTI38_0
.set L38_0_set_33, LBB38_33-LJTI38_0
.set L38_0_set_59, LBB38_59-LJTI38_0
.set L38_0_set_49, LBB38_49-LJTI38_0
.set L38_0_set_73, LBB38_73-LJTI38_0
.set L38_0_set_78, LBB38_78-LJTI38_0
LJTI38_0:
	.long	L38_0_set_44
	.long	L38_0_set_68
	.long	L38_0_set_54
	.long	L38_0_set_33
	.long	L38_0_set_59
	.long	L38_0_set_49
	.long	L38_0_set_33
	.long	L38_0_set_33
	.long	L38_0_set_73
	.long	L38_0_set_33
	.long	L38_0_set_33
	.long	L38_0_set_78
	.end_data_region
	.section	__TEXT,__gcc_except_tab
	.p2align	2
GCC_except_table38:
Lexception5:
	.byte	255
	.byte	255
	.byte	1
	.uleb128 Lcst_end5-Lcst_begin5
Lcst_begin5:
	.uleb128 Lfunc_begin5-Lfunc_begin5
	.uleb128 Ltmp32-Lfunc_begin5
	.byte	0
	.byte	0
	.uleb128 Ltmp32-Lfunc_begin5
	.uleb128 Ltmp33-Ltmp32
	.uleb128 Ltmp104-Lfunc_begin5
	.byte	0
	.uleb128 Ltmp33-Lfunc_begin5
	.uleb128 Ltmp34-Ltmp33
	.byte	0
	.byte	0
	.uleb128 Ltmp34-Lfunc_begin5
	.uleb128 Ltmp47-Ltmp34
	.uleb128 Ltmp48-Lfunc_begin5
	.byte	0
	.uleb128 Ltmp96-Lfunc_begin5
	.uleb128 Ltmp97-Ltmp96
	.uleb128 Ltmp98-Lfunc_begin5
	.byte	0
	.uleb128 Ltmp102-Lfunc_begin5
	.uleb128 Ltmp103-Ltmp102
	.uleb128 Ltmp104-Lfunc_begin5
	.byte	0
	.uleb128 Ltmp49-Lfunc_begin5
	.uleb128 Ltmp50-Ltmp49
	.uleb128 Ltmp51-Lfunc_begin5
	.byte	0
	.uleb128 Ltmp52-Lfunc_begin5
	.uleb128 Ltmp53-Ltmp52
	.uleb128 Ltmp54-Lfunc_begin5
	.byte	0
	.uleb128 Ltmp64-Lfunc_begin5
	.uleb128 Ltmp65-Ltmp64
	.uleb128 Ltmp66-Lfunc_begin5
	.byte	0
	.uleb128 Ltmp93-Lfunc_begin5
	.uleb128 Ltmp94-Ltmp93
	.uleb128 Ltmp95-Lfunc_begin5
	.byte	0
	.uleb128 Ltmp55-Lfunc_begin5
	.uleb128 Ltmp56-Ltmp55
	.uleb128 Ltmp57-Lfunc_begin5
	.byte	0
	.uleb128 Ltmp61-Lfunc_begin5
	.uleb128 Ltmp62-Ltmp61
	.uleb128 Ltmp63-Lfunc_begin5
	.byte	0
	.uleb128 Ltmp67-Lfunc_begin5
	.uleb128 Ltmp72-Ltmp67
	.uleb128 Ltmp77-Lfunc_begin5
	.byte	0
	.uleb128 Ltmp72-Lfunc_begin5
	.uleb128 Ltmp73-Ltmp72
	.byte	0
	.byte	0
	.uleb128 Ltmp73-Lfunc_begin5
	.uleb128 Ltmp74-Ltmp73
	.uleb128 Ltmp77-Lfunc_begin5
	.byte	0
	.uleb128 Ltmp74-Lfunc_begin5
	.uleb128 Ltmp75-Ltmp74
	.byte	0
	.byte	0
	.uleb128 Ltmp75-Lfunc_begin5
	.uleb128 Ltmp76-Ltmp75
	.uleb128 Ltmp77-Lfunc_begin5
	.byte	0
	.uleb128 Ltmp76-Lfunc_begin5
	.uleb128 Ltmp58-Ltmp76
	.byte	0
	.byte	0
	.uleb128 Ltmp58-Lfunc_begin5
	.uleb128 Ltmp59-Ltmp58
	.uleb128 Ltmp60-Lfunc_begin5
	.byte	0
	.uleb128 Ltmp90-Lfunc_begin5
	.uleb128 Ltmp91-Ltmp90
	.uleb128 Ltmp92-Lfunc_begin5
	.byte	0
	.uleb128 Ltmp87-Lfunc_begin5
	.uleb128 Ltmp88-Ltmp87
	.uleb128 Ltmp89-Lfunc_begin5
	.byte	0
	.uleb128 Ltmp84-Lfunc_begin5
	.uleb128 Ltmp85-Ltmp84
	.uleb128 Ltmp86-Lfunc_begin5
	.byte	0
	.uleb128 Ltmp81-Lfunc_begin5
	.uleb128 Ltmp82-Ltmp81
	.uleb128 Ltmp83-Lfunc_begin5
	.byte	0
	.uleb128 Ltmp78-Lfunc_begin5
	.uleb128 Ltmp79-Ltmp78
	.uleb128 Ltmp80-Lfunc_begin5
	.byte	0
	.uleb128 Ltmp99-Lfunc_begin5
	.uleb128 Ltmp100-Ltmp99
	.uleb128 Ltmp101-Lfunc_begin5
	.byte	0
	.uleb128 Ltmp100-Lfunc_begin5
	.uleb128 Lfunc_end5-Ltmp100
	.byte	0
	.byte	0
Lcst_end5:
	.p2align	2

	.section	__TEXT,__const
l___unnamed_35:
	.ascii	"/rustc/6c8927b0cf80ceee19386026cf9d7fd4fd9d486f/src/liballoc/collections/btree/map.rs"

	.section	__DATA,__const
	.p2align	3
l___unnamed_2:
	.quad	l___unnamed_35
	.asciz	"U\000\000\000\000\000\000\000\323\005\000\000/\000\000"

	.section	__TEXT,__const
l___unnamed_36:
	.ascii	"/rustc/6c8927b0cf80ceee19386026cf9d7fd4fd9d486f/src/libcore/macros/mod.rs"

	.section	__DATA,__const
	.p2align	3
l___unnamed_5:
	.quad	l___unnamed_36
	.asciz	"I\000\000\000\000\000\000\000\023\000\000\000\t\000\000"

	.section	__TEXT,__const
l___unnamed_1:
	.ascii	"called `Option::unwrap()` on a `None` value"

l___unnamed_37:
	.ascii	"internal error: entered unreachable code: "

	.section	__DATA,__const
	.p2align	3
l___unnamed_4:
	.quad	l___unnamed_37
	.asciz	"*\000\000\000\000\000\000"

	.section	__TEXT,__const
l___unnamed_38:
	.ascii	"BTreeMap has different depths"

	.section	__DATA,__const
	.p2align	3
l___unnamed_3:
	.quad	l___unnamed_38
	.asciz	"\035\000\000\000\000\000\000"

	.section	__TEXT,__const
l___unnamed_7:
	.ascii	"failure::ErrorMessage"

l___unnamed_39:
	.ascii	"/rustc/6c8927b0cf80ceee19386026cf9d7fd4fd9d486f/src/libcore/str/pattern.rs"

	.section	__DATA,__const
	.p2align	3
l___unnamed_6:
	.quad	l___unnamed_39
	.asciz	"J\000\000\000\000\000\000\000\260\001\000\000&\000\000"

	.section	__TEXT,__const
l___unnamed_8:
	.ascii	"ErrorMessage"

l___unnamed_9:
	.ascii	"msg"

	.section	__DATA,__const
	.p2align	3
l___unnamed_10:
	.quad	__ZN4core3ptr13drop_in_place17h3f2f4a7cbf164721E
	.quad	8
	.quad	8
	.quad	__ZN42_$LT$$RF$T$u20$as$u20$core..fmt..Debug$GT$3fmt17heb9db9910414a7e5E

	.p2align	3
l___unnamed_11:
	.quad	__ZN4core3ptr13drop_in_place17h3f2f4a7cbf164721E
	.quad	8
	.quad	8
	.quad	__ZN42_$LT$$RF$T$u20$as$u20$core..fmt..Debug$GT$3fmt17h3e9da432f5047b2cE

	.p2align	3
l___unnamed_17:
	.quad	__ZN4core3ptr13drop_in_place17h6ca93ad0eab2260cE
	.quad	16
	.quad	8
	.quad	__ZN7failure4Fail4name17hdebc5cf2c70fd655E
	.quad	__ZN7failure4Fail4name17hdebc5cf2c70fd655E
	.quad	__ZN7failure4Fail9backtrace17h648390e10362c633E
	.quad	0
	.quad	0
	.quad	0
	.quad	0
	.quad	__ZN7failure4Fail23__private_get_type_id__17h4d66ce6f15bc0ee1E
	.quad	__ZN60_$LT$std..io..error..Error$u20$as$u20$core..fmt..Display$GT$3fmt17h3716551a80b2cfe9E
	.quad	__ZN58_$LT$std..io..error..Error$u20$as$u20$core..fmt..Debug$GT$3fmt17hd2ddac42b4f82396E

	.p2align	3
l___unnamed_18:
	.quad	__ZN4core3ptr13drop_in_place17h1c9649cff52b9344E
	.quad	40
	.quad	8
	.quad	__ZN7failure4Fail4name17h6b32df99bc1cedb6E
	.quad	__ZN7failure4Fail4name17h6b32df99bc1cedb6E
	.quad	__ZN7failure4Fail9backtrace17h8f38472cde433458E
	.quad	0
	.quad	0
	.quad	0
	.quad	0
	.quad	__ZN7failure4Fail23__private_get_type_id__17h317cdd6931fbdadaE
	.quad	__ZN67_$LT$alloc..string..FromUtf8Error$u20$as$u20$core..fmt..Display$GT$3fmt17h668a6797829d8cc3E
	.quad	__ZN65_$LT$alloc..string..FromUtf8Error$u20$as$u20$core..fmt..Debug$GT$3fmt17hc22b3f69ee816a32E

	.p2align	3
l___unnamed_28:
	.quad	__ZN4core3ptr13drop_in_place17h1c9649cff52b9344E
	.quad	24
	.quad	8
	.quad	__ZN79_$LT$failure..error_message..ErrorMessage$LT$D$GT$$u20$as$u20$failure..Fail$GT$4name17h272c3a1481f04e21E
	.quad	__ZN7failure4Fail5cause17h22bcfe1e2a3c6225E
	.quad	__ZN7failure4Fail9backtrace17h2769e53f05bd1437E
	.quad	0
	.quad	0
	.quad	0
	.quad	0
	.quad	__ZN7failure4Fail23__private_get_type_id__17hac96cd1cef1c82b8E
	.quad	__ZN84_$LT$failure..error_message..ErrorMessage$LT$D$GT$$u20$as$u20$core..fmt..Display$GT$3fmt17h40f7553a8c28c07dE
	.quad	__ZN82_$LT$failure..error_message..ErrorMessage$LT$D$GT$$u20$as$u20$core..fmt..Debug$GT$3fmt17hf90720fd24510dadE

	.p2align	3
l___unnamed_30:
	.quad	__ZN4core3ptr13drop_in_place17h3f2f4a7cbf164721E
	.quad	16
	.quad	8
	.quad	__ZN79_$LT$failure..error_message..ErrorMessage$LT$D$GT$$u20$as$u20$failure..Fail$GT$4name17hebd29d08b9d75883E
	.quad	__ZN7failure4Fail4name17hdebc5cf2c70fd655E
	.quad	__ZN7failure4Fail9backtrace17h648390e10362c633E
	.quad	0
	.quad	0
	.quad	0
	.quad	0
	.quad	__ZN7failure4Fail23__private_get_type_id__17h1191df0f22858b00E
	.quad	__ZN84_$LT$failure..error_message..ErrorMessage$LT$D$GT$$u20$as$u20$core..fmt..Display$GT$3fmt17h96ece46f57e06cf8E
	.quad	__ZN82_$LT$failure..error_message..ErrorMessage$LT$D$GT$$u20$as$u20$core..fmt..Debug$GT$3fmt17h1febee6b39f52704E

	.section	__TEXT,__const
l___unnamed_12:
	.ascii	"RUSTC"

l___unnamed_13:
	.ascii	"rustc"

	.section	__TEXT,__literal8,8byte_literals
L___unnamed_14:
	.ascii	"--target"

	.section	__TEXT,__const
l___unnamed_15:
	.ascii	"--print"

l___unnamed_16:
	.ascii	"cfg"

l___unnamed_19:
	.ascii	"target_os"

l___unnamed_22:
	.ascii	"target_family"

l___unnamed_21:
	.ascii	"target_arch"

l___unnamed_23:
	.ascii	"target_endian"

l___unnamed_27:
	.ascii	"target_pointer_width"

l___unnamed_25:
	.ascii	"target_env"

l___unnamed_24:
	.ascii	"target_vendor"

l___unnamed_26:
	.ascii	"target_has_atomic"

l___unnamed_20:
	.ascii	"target_feature"

l___unnamed_29:
	.ascii	"`target_os` is missing"

l___unnamed_31:
	.ascii	"`target_arch` is missing"

l___unnamed_32:
	.ascii	"`target_endian` is missing"

l___unnamed_33:
	.ascii	"`target_pointer_width` is missing"

l___unnamed_34:
	.ascii	"`target_env` is missing"

.subsections_via_symbols
