	.section	__TEXT,__text,regular,pure_instructions
	.macosx_version_min 10, 7
	.p2align	4, 0x90
__ZN42_$LT$$RF$T$u20$as$u20$core..fmt..Debug$GT$3fmt17h8a938f198baa8f3dE:
	.cfi_startproc
	pushq	%rbp
	.cfi_def_cfa_offset 16
	.cfi_offset %rbp, -16
	movq	%rsp, %rbp
	.cfi_def_cfa_register %rbp
	movq	%rsi, %rdi
	leaq	l___unnamed_1(%rip), %rsi
	movl	$2, %edx
	popq	%rbp
	jmp	__ZN4core3fmt9Formatter3pad17h426409b23b74b394E
	.cfi_endproc

	.p2align	4, 0x90
__ZN4core3ptr13drop_in_place17ha02f52ec7087538cE:
	.cfi_startproc
	pushq	%rbp
	.cfi_def_cfa_offset 16
	.cfi_offset %rbp, -16
	movq	%rsp, %rbp
	.cfi_def_cfa_register %rbp
	popq	%rbp
	retq
	.cfi_endproc

	.p2align	4, 0x90
__ZN4core3str6traits101_$LT$impl$u20$core..slice..SliceIndex$LT$str$GT$$u20$for$u20$core..ops..range..Range$LT$usize$GT$$GT$5index28_$u7b$$u7b$closure$u7d$$u7d$17hd04499129f2d597eE:
	.cfi_startproc
	pushq	%rbp
	.cfi_def_cfa_offset 16
	.cfi_offset %rbp, -16
	movq	%rsp, %rbp
	.cfi_def_cfa_register %rbp
	movq	(%rdi), %rcx
	movq	8(%rdi), %rdx
	movq	(%rcx), %rax
	movq	8(%rcx), %rsi
	movq	(%rdx), %rdx
	movq	16(%rdi), %rcx
	movq	(%rcx), %rcx
	leaq	l___unnamed_2(%rip), %r8
	movq	%rax, %rdi
	callq	__ZN4core3str16slice_error_fail17ha125059561e5ce66E
	.cfi_endproc

	.p2align	4, 0x90
__ZN4core3str6traits103_$LT$impl$u20$core..slice..SliceIndex$LT$str$GT$$u20$for$u20$core..ops..range..RangeTo$LT$usize$GT$$GT$5index28_$u7b$$u7b$closure$u7d$$u7d$17h7961678a34db7ba2E:
	.cfi_startproc
	pushq	%rbp
	.cfi_def_cfa_offset 16
	.cfi_offset %rbp, -16
	movq	%rsp, %rbp
	.cfi_def_cfa_register %rbp
	movq	%rsi, %rcx
	movq	(%rdi), %rax
	movq	8(%rdi), %rsi
	leaq	l___unnamed_3(%rip), %r8
	movq	%rax, %rdi
	xorl	%edx, %edx
	callq	__ZN4core3str16slice_error_fail17ha125059561e5ce66E
	.cfi_endproc

	.p2align	4, 0x90
__ZN4core3str6traits105_$LT$impl$u20$core..slice..SliceIndex$LT$str$GT$$u20$for$u20$core..ops..range..RangeFrom$LT$usize$GT$$GT$5index28_$u7b$$u7b$closure$u7d$$u7d$17h75180eb441870eb2E:
	.cfi_startproc
	pushq	%rbp
	.cfi_def_cfa_offset 16
	.cfi_offset %rbp, -16
	movq	%rsp, %rbp
	.cfi_def_cfa_register %rbp
	movq	(%rdi), %rcx
	movq	8(%rdi), %rdx
	movq	(%rcx), %rax
	movq	8(%rcx), %rsi
	movq	(%rdx), %rdx
	movq	16(%rdi), %rcx
	movq	(%rcx), %rcx
	leaq	l___unnamed_4(%rip), %r8
	movq	%rax, %rdi
	callq	__ZN4core3str16slice_error_fail17ha125059561e5ce66E
	.cfi_endproc

	.p2align	4, 0x90
__ZN84_$LT$core..str..Split$LT$P$GT$$u20$as$u20$core..iter..traits..iterator..Iterator$GT$4next17h645a5fcd3842eca6E:
	.cfi_startproc
	pushq	%rbp
	.cfi_def_cfa_offset 16
	.cfi_offset %rbp, -16
	movq	%rsp, %rbp
	.cfi_def_cfa_register %rbp
	pushq	%r15
	pushq	%r14
	pushq	%r13
	pushq	%r12
	pushq	%rbx
	subq	$24, %rsp
	.cfi_offset %rbx, -56
	.cfi_offset %r12, -48
	.cfi_offset %r13, -40
	.cfi_offset %r14, -32
	.cfi_offset %r15, -24
	cmpb	$0, 65(%rdi)
	jne	LBB5_1
	movq	%rdi, %r13
	movq	32(%rdi), %rsi
	movq	40(%rdi), %rax
	movq	%rax, %rdx
	subq	%rsi, %rdx
	jb	LBB5_16
	cmpq	%rax, 24(%r13)
	jb	LBB5_16
	movq	16(%r13), %rcx
	movq	48(%r13), %rax
	movq	%rcx, -56(%rbp)
	addq	%rcx, %rsi
	movzbl	59(%rax,%r13), %edi
	callq	__ZN4core5slice6memchr6memchr17hd650620a8925ad84E
	cmpq	$1, %rax
	jne	LBB5_15
	leaq	60(%r13), %rax
	movq	%rax, -48(%rbp)
	.p2align	4, 0x90
LBB5_6:
	movq	32(%r13), %rax
	movq	48(%r13), %r15
	leaq	1(%rdx,%rax), %rbx
	movq	%rbx, 32(%r13)
	movq	%rbx, %r12
	subq	%r15, %r12
	jae	LBB5_8
	movq	24(%r13), %r14
	jmp	LBB5_12
	.p2align	4, 0x90
LBB5_8:
	movq	24(%r13), %r14
	cmpq	%rbx, %r14
	jb	LBB5_12
	cmpq	$5, %r15
	jae	LBB5_23
	movq	16(%r13), %rdi
	addq	%r12, %rdi
	cmpq	-48(%rbp), %rdi
	je	LBB5_21
	movq	-48(%rbp), %rsi
	movq	%r15, %rdx
	callq	_memcmp
	testl	%eax, %eax
	je	LBB5_21
LBB5_12:
	movq	40(%r13), %rax
	movq	%rax, %rdx
	subq	%rbx, %rdx
	jb	LBB5_16
	cmpq	%rax, %r14
	jb	LBB5_16
	addq	16(%r13), %rbx
	movzbl	59(%r15,%r13), %edi
	movq	%rbx, %rsi
	callq	__ZN4core5slice6memchr6memchr17hd650620a8925ad84E
	cmpq	$1, %rax
	je	LBB5_6
LBB5_15:
	movq	40(%r13), %rax
	movq	%rax, 32(%r13)
LBB5_16:
	cmpb	$0, 65(%r13)
	je	LBB5_17
LBB5_1:
	xorl	%eax, %eax
LBB5_22:
	movq	%r12, %rdx
	addq	$24, %rsp
	popq	%rbx
	popq	%r12
	popq	%r13
	popq	%r14
	popq	%r15
	popq	%rbp
	retq
LBB5_17:
	cmpb	$0, 64(%r13)
	je	LBB5_19
	movq	(%r13), %rax
	movq	8(%r13), %r12
	jmp	LBB5_20
LBB5_19:
	movq	(%r13), %rax
	movq	8(%r13), %r12
	cmpq	%rax, %r12
	je	LBB5_1
LBB5_20:
	movb	$1, 65(%r13)
	subq	%rax, %r12
	addq	16(%r13), %rax
	jmp	LBB5_22
LBB5_21:
	movq	(%r13), %rcx
	movq	-56(%rbp), %rax
	addq	%rcx, %rax
	subq	%rcx, %r12
	movq	%rbx, (%r13)
	jmp	LBB5_22
LBB5_23:
	leaq	l___unnamed_5(%rip), %rdx
	movl	$4, %esi
	movq	%r15, %rdi
	callq	__ZN4core5slice24slice_end_index_len_fail17hea9e3399ed430f80E
	.cfi_endproc

	.globl	__ZN71_$LT$rustc_demangle..legacy..Demangle$u20$as$u20$core..fmt..Display$GT$3fmt17ha506af686d232509E
	.p2align	4, 0x90
__ZN71_$LT$rustc_demangle..legacy..Demangle$u20$as$u20$core..fmt..Display$GT$3fmt17ha506af686d232509E:
	.cfi_startproc
	pushq	%rbp
	.cfi_def_cfa_offset 16
	.cfi_offset %rbp, -16
	movq	%rsp, %rbp
	.cfi_def_cfa_register %rbp
	pushq	%r15
	pushq	%r14
	pushq	%r13
	pushq	%r12
	pushq	%rbx
	subq	$152, %rsp
	.cfi_offset %rbx, -56
	.cfi_offset %r12, -48
	.cfi_offset %r13, -40
	.cfi_offset %r14, -32
	.cfi_offset %r15, -24
	movq	%rsi, -136(%rbp)
	movq	(%rdi), %r13
	movq	8(%rdi), %r14
	movq	16(%rdi), %rax
	movq	%rax, -184(%rbp)
	xorl	%eax, %eax
	movq	%rax, -168(%rbp)
	jmp	LBB6_1
LBB6_137:
	movq	-104(%rbp), %rax
	movq	%rax, -112(%rbp)
LBB6_138:
	movq	-160(%rbp), %r14
	movq	-144(%rbp), %r13
LBB6_139:
	movq	-136(%rbp), %rdi
	movq	%r12, %rsi
	movq	%r13, %rdx
	callq	__ZN4core3fmt9Formatter9write_str17h98e119ad25a8903eE
	movq	%r14, %r13
	testb	%al, %al
	movq	-192(%rbp), %r14
	jne	LBB6_40
LBB6_1:
	movq	-168(%rbp), %r11
	cmpq	-184(%rbp), %r11
	je	LBB6_43
	testq	%r14, %r14
	je	LBB6_29
	leaq	1(%r11), %rax
	movq	%rax, -168(%rbp)
	leaq	(%r13,%r14), %r8
	leaq	-1(%r14), %r9
	xorl	%ebx, %ebx
	movq	%r14, %r15
	jmp	LBB6_4
	.p2align	4, 0x90
LBB6_28:
	decq	%r15
	incq	%rbx
	cmpq	%rbx, %r14
	je	LBB6_29
LBB6_4:
	movzbl	(%r13,%rbx), %esi
	testb	%sil, %sil
	jns	LBB6_19
	xorl	%edx, %edx
	movq	%r8, %rax
	cmpq	%rbx, %r9
	je	LBB6_7
	leaq	2(%r13,%rbx), %rax
	movzbl	1(%r13,%rbx), %edx
	andl	$63, %edx
LBB6_7:
	movl	%esi, %edi
	andl	$31, %edi
	cmpb	$-33, %sil
	jbe	LBB6_8
	cmpq	%r8, %rax
	je	LBB6_11
	movzbl	(%rax), %ecx
	incq	%rax
	andl	$63, %ecx
	shll	$6, %edx
	orl	%ecx, %edx
	cmpb	$-16, %sil
	jb	LBB6_14
LBB6_15:
	cmpq	%r8, %rax
	je	LBB6_16
	movzbl	(%rax), %eax
	andl	$63, %eax
	jmp	LBB6_18
LBB6_8:
	shll	$6, %edi
	jmp	LBB6_9
LBB6_11:
	xorl	%ecx, %ecx
	movq	%r8, %rax
	shll	$6, %edx
	orl	%ecx, %edx
	cmpb	$-16, %sil
	jae	LBB6_15
LBB6_14:
	shll	$12, %edi
LBB6_9:
	orl	%edi, %edx
	movl	%edx, %esi
	jmp	LBB6_19
LBB6_16:
	xorl	%eax, %eax
LBB6_18:
	andl	$7, %edi
	shll	$18, %edi
	shll	$6, %edx
	orl	%edi, %edx
	orl	%eax, %edx
	movl	%edx, %esi
	cmpl	$1114112, %edx
	je	LBB6_29
	.p2align	4, 0x90
LBB6_19:
	leaq	(%r13,%rbx), %r12
	addl	$-48, %esi
	cmpl	$10, %esi
	jae	LBB6_20
	movq	%r12, -72(%rbp)
	movq	%r15, -64(%rbp)
	movq	$1, -48(%rbp)
	movq	%r15, -56(%rbp)
	cmpq	%rbx, %r9
	je	LBB6_28
	cmpb	$-65, 1(%r13,%rbx)
	jg	LBB6_28
	jmp	LBB6_224
	.p2align	4, 0x90
LBB6_20:
	movq	%r14, %rdx
	subq	%r15, %rdx
	jb	LBB6_219
	movq	%r11, -144(%rbp)
	movq	%r13, -128(%rbp)
	movq	%r14, -120(%rbp)
	testq	%rdx, %rdx
	je	LBB6_30
	cmpq	%rdx, %r14
	je	LBB6_30
	jbe	LBB6_25
	cmpb	$-65, (%r13,%rdx)
	jle	LBB6_25
LBB6_30:
	leaq	-128(%rbp), %rdi
	movq	%r13, %rsi
	callq	__ZN4core3num54_$LT$impl$u20$core..str..FromStr$u20$for$u20$usize$GT$8from_str17h58600e175285cb47E
	cmpb	$1, -128(%rbp)
	je	LBB6_225
	movq	-120(%rbp), %rsi
	subq	%rsi, %r14
	movq	%r12, -72(%rbp)
	movq	%r15, -64(%rbp)
	movq	%rsi, -48(%rbp)
	movq	%r15, -56(%rbp)
	testq	%rsi, %rsi
	sete	%cl
	subq	%rbx, %r14
	sete	%al
	orb	%cl, %al
	jne	LBB6_34
	cmpq	%rsi, %r15
	jbe	LBB6_224
	leaq	(%r13,%rsi), %rcx
	cmpb	$-65, (%rbx,%rcx)
	jle	LBB6_224
LBB6_34:
	movq	%r14, -192(%rbp)
	leaq	(%r13,%rsi), %r14
	movq	%r12, -128(%rbp)
	movq	%r15, -120(%rbp)
	testb	%al, %al
	jne	LBB6_37
	cmpq	%rsi, %r15
	jbe	LBB6_226
	cmpb	$-65, (%r14,%rbx)
	jle	LBB6_226
LBB6_37:
	movq	%rsi, %r15
	addq	%rbx, %r14
	movq	-136(%rbp), %rdi
	callq	__ZN4core3fmt9Formatter9alternate17hd77eec28e879e5edE
	testb	%al, %al
	movq	-144(%rbp), %r10
	je	LBB6_38
	cmpq	$-1, %r10
	je	LBB6_220
	testq	%r15, %r15
	je	LBB6_38
	movq	-168(%rbp), %rax
	cmpq	-184(%rbp), %rax
	jne	LBB6_38
	cmpb	$104, (%r13,%rbx)
	jne	LBB6_38
	movq	%r12, -72(%rbp)
	movq	%r15, -64(%rbp)
	movq	$1, -48(%rbp)
	movq	%r15, -56(%rbp)
	cmpq	$1, %r15
	je	LBB6_43
	leaq	1(%r13,%rbx), %rax
	movb	(%rax), %cl
	cmpb	$-65, %cl
	jle	LBB6_224
	movq	%r15, %r8
	negq	%r8
	movq	%r13, %r9
	negq	%r9
	testb	%cl, %cl
	js	LBB6_48
	.p2align	4, 0x90
LBB6_62:
	incq	%rax
	movzbl	%cl, %esi
	jmp	LBB6_63
	.p2align	4, 0x90
LBB6_48:
	leaq	(%rax,%r8), %rdx
	leaq	1(%r9,%rdx), %rsi
	movl	%ecx, %edx
	andb	$31, %dl
	cmpq	%rbx, %rsi
	je	LBB6_49
	movzbl	1(%rax), %esi
	addq	$2, %rax
	andl	$63, %esi
	movzbl	%dl, %edi
	cmpb	$-33, %cl
	jbe	LBB6_52
LBB6_53:
	leaq	(%rax,%r8), %rdx
	addq	%r9, %rdx
	cmpq	%rbx, %rdx
	je	LBB6_54
	movzbl	(%rax), %edx
	incq	%rax
	andl	$63, %edx
	shll	$6, %esi
	orl	%edx, %esi
	cmpb	$-16, %cl
	jb	LBB6_57
LBB6_58:
	leaq	(%rax,%r8), %rcx
	addq	%r9, %rcx
	cmpq	%rbx, %rcx
	je	LBB6_59
	movzbl	(%rax), %ecx
	incq	%rax
	andl	$63, %ecx
	jmp	LBB6_61
	.p2align	4, 0x90
LBB6_49:
	xorl	%esi, %esi
	movq	%r14, %rax
	movzbl	%dl, %edi
	cmpb	$-33, %cl
	ja	LBB6_53
LBB6_52:
	shll	$6, %edi
	orl	%edi, %esi
	jmp	LBB6_63
LBB6_54:
	xorl	%edx, %edx
	movq	%r14, %rax
	shll	$6, %esi
	orl	%edx, %esi
	cmpb	$-16, %cl
	jae	LBB6_58
LBB6_57:
	shll	$12, %edi
	orl	%edi, %esi
	jmp	LBB6_63
LBB6_59:
	xorl	%ecx, %ecx
	movq	%r14, %rax
LBB6_61:
	andl	$7, %edi
	shll	$18, %edi
	shll	$6, %esi
	orl	%edi, %esi
	orl	%ecx, %esi
	cmpl	$1114112, %esi
	je	LBB6_43
	.p2align	4, 0x90
LBB6_63:
	leal	-48(%rsi), %ecx
	cmpl	$10, %ecx
	jb	LBB6_67
	leal	-97(%rsi), %edx
	movl	$-87, %ecx
	cmpl	$26, %edx
	jb	LBB6_66
	leal	-65(%rsi), %edx
	movl	$-55, %ecx
	cmpl	$25, %edx
	ja	LBB6_38
LBB6_66:
	addl	%ecx, %esi
	cmpl	$15, %esi
	ja	LBB6_38
LBB6_67:
	leaq	(%rax,%r8), %rcx
	addq	%r9, %rcx
	cmpq	%rbx, %rcx
	je	LBB6_43
	movb	(%rax), %cl
	testb	%cl, %cl
	jns	LBB6_62
	jmp	LBB6_48
	.p2align	4, 0x90
LBB6_38:
	testq	%r10, %r10
	je	LBB6_72
	movl	$2, %edx
	movq	-136(%rbp), %rdi
	leaq	l___unnamed_6(%rip), %rsi
	callq	__ZN4core3fmt9Formatter9write_str17h98e119ad25a8903eE
	testb	%al, %al
	jne	LBB6_40
LBB6_72:
	movq	%r15, %rcx
	cmpq	$2, %r15
	jb	LBB6_77
	leaq	l___unnamed_7(%rip), %rax
	subq	%r13, %rax
	cmpq	%rbx, %rax
	je	LBB6_75
	movzwl	(%r13,%rbx), %eax
	cmpl	$9311, %eax
	jne	LBB6_77
LBB6_75:
	movq	%r12, -72(%rbp)
	movq	%rcx, -64(%rbp)
	movq	$1, -48(%rbp)
	movq	%rcx, -56(%rbp)
	cmpb	$-65, 1(%r12)
	jle	LBB6_224
	decq	%rcx
	leaq	1(%r13,%rbx), %r12
LBB6_77:
	movq	%r14, -160(%rbp)
LBB6_78:
	movq	%rcx, %r13
	testq	%rcx, %rcx
	je	LBB6_81
	cmpb	$46, (%r12)
	jne	LBB6_80
	movq	%r12, -72(%rbp)
	movq	%r13, -64(%rbp)
	movq	$1, -48(%rbp)
	movq	%r13, -56(%rbp)
	cmpq	$1, %r13
	je	LBB6_88
	cmpb	$-65, 1(%r12)
	jle	LBB6_224
LBB6_88:
	cmpq	$1, %r13
	je	LBB6_106
	movzbl	1(%r12), %ecx
	testb	%cl, %cl
	js	LBB6_90
	cmpl	$46, %ecx
	jne	LBB6_106
LBB6_110:
	movl	$2, %edx
	movq	-136(%rbp), %rdi
	leaq	l___unnamed_6(%rip), %rsi
	callq	__ZN4core3fmt9Formatter9write_str17h98e119ad25a8903eE
	testb	%al, %al
	jne	LBB6_40
	movq	%r12, -72(%rbp)
	addq	$2, %r12
	movq	%r13, -64(%rbp)
	movq	$2, -48(%rbp)
	movq	%r13, -56(%rbp)
	cmpq	$2, %r13
	je	LBB6_113
	cmpb	$-65, (%r12)
	jle	LBB6_224
LBB6_113:
	addq	$-2, %r13
	movq	%r13, %rcx
	jmp	LBB6_78
	.p2align	4, 0x90
LBB6_80:
	cmpb	$36, (%r12)
	jne	LBB6_81
	movq	%r12, -72(%rbp)
	movq	%r13, -64(%rbp)
	movq	$1, -48(%rbp)
	movq	%r13, -56(%rbp)
	cmpq	$1, %r13
	je	LBB6_135
	cmpb	$-65, 1(%r12)
	jle	LBB6_224
LBB6_135:
	leaq	1(%r12), %rsi
	movq	%r13, -144(%rbp)
	leaq	-1(%r13), %rdx
	movq	%rsi, -128(%rbp)
	movq	%rdx, -120(%rbp)
	movq	$0, -112(%rbp)
	movq	%rdx, -104(%rbp)
	movabsq	$154618822692, %rax
	movq	%rax, -88(%rbp)
	movq	$1, -96(%rbp)
	movl	$36, %edi
	movq	%rsi, -80(%rbp)
	callq	__ZN4core5slice6memchr6memchr17hd650620a8925ad84E
	cmpq	$1, %rax
	jne	LBB6_137
	.p2align	4, 0x90
LBB6_140:
	movq	-112(%rbp), %rax
	movq	-96(%rbp), %r14
	leaq	1(%rdx,%rax), %rbx
	movq	%rbx, -112(%rbp)
	movq	%rbx, %r15
	subq	%r14, %r15
	jae	LBB6_142
	movq	-120(%rbp), %r13
	jmp	LBB6_146
	.p2align	4, 0x90
LBB6_142:
	movq	-120(%rbp), %r13
	cmpq	%rbx, %r13
	jb	LBB6_146
	cmpq	$5, %r14
	jae	LBB6_227
	movq	-128(%rbp), %rdi
	addq	%r15, %rdi
	leaq	-84(%rbp), %rax
	cmpq	%rax, %rdi
	je	LBB6_221
	leaq	-84(%rbp), %rsi
	movq	%r14, %rdx
	callq	_memcmp
	testl	%eax, %eax
	je	LBB6_221
LBB6_146:
	movq	-104(%rbp), %rax
	movq	%rax, %rdx
	subq	%rbx, %rdx
	jb	LBB6_138
	cmpq	%rax, %r13
	jb	LBB6_138
	addq	-128(%rbp), %rbx
	leaq	-128(%rbp), %rax
	movzbl	43(%r14,%rax), %edi
	movq	%rbx, %rsi
	callq	__ZN4core5slice6memchr6memchr17hd650620a8925ad84E
	cmpq	$1, %rax
	je	LBB6_140
	jmp	LBB6_137
	.p2align	4, 0x90
LBB6_81:
	leaq	(%r12,%r13), %r8
	xorl	%eax, %eax
	movq	%r12, %rcx
	.p2align	4, 0x90
LBB6_82:
	cmpq	%rcx, %r8
	je	LBB6_139
	movq	%rax, %rbx
	leaq	1(%rcx), %rdx
	movzbl	(%rcx), %edi
	testb	%dil, %dil
	jns	LBB6_127
	cmpq	%r8, %rdx
	je	LBB6_85
	leaq	2(%rcx), %rdx
	movzbl	1(%rcx), %esi
	andl	$63, %esi
	movq	%rdx, %r9
	movl	%edi, %eax
	andl	$31, %eax
	cmpb	$-33, %dil
	jbe	LBB6_116
LBB6_118:
	cmpq	%r8, %r9
	je	LBB6_119
	movzbl	(%r9), %r10d
	incq	%r9
	andl	$63, %r10d
	movq	%r9, %rdx
	shll	$6, %esi
	orl	%r10d, %esi
	cmpb	$-16, %dil
	jb	LBB6_122
LBB6_123:
	cmpq	%r8, %r9
	je	LBB6_124
	movzbl	(%r9), %edi
	incq	%r9
	andl	$63, %edi
	movq	%r9, %rdx
	jmp	LBB6_126
LBB6_85:
	xorl	%esi, %esi
	movq	%r8, %r9
	movl	%edi, %eax
	andl	$31, %eax
	cmpb	$-33, %dil
	ja	LBB6_118
LBB6_116:
	shll	$6, %eax
	jmp	LBB6_117
LBB6_119:
	xorl	%r10d, %r10d
	movq	%r8, %r9
	shll	$6, %esi
	orl	%r10d, %esi
	cmpb	$-16, %dil
	jae	LBB6_123
LBB6_122:
	shll	$12, %eax
LBB6_117:
	orl	%eax, %esi
	movl	%esi, %edi
	jmp	LBB6_127
LBB6_124:
	xorl	%edi, %edi
LBB6_126:
	andl	$7, %eax
	shll	$18, %eax
	shll	$6, %esi
	orl	%eax, %esi
	orl	%edi, %esi
	movl	%esi, %edi
	cmpl	$1114112, %esi
	je	LBB6_139
	.p2align	4, 0x90
LBB6_127:
	cmpl	$36, %edi
	je	LBB6_129
	movq	%rbx, %rax
	subq	%rcx, %rax
	addq	%rdx, %rax
	movq	%rdx, %rcx
	cmpl	$46, %edi
	jne	LBB6_82
LBB6_129:
	movq	%r12, -128(%rbp)
	movq	%r13, -120(%rbp)
	testq	%rbx, %rbx
	sete	%al
	movq	%r13, %r14
	subq	%rbx, %r14
	sete	%r15b
	orb	%al, %r15b
	jne	LBB6_214
	cmpq	%rbx, %r13
	jbe	LBB6_132
	cmpb	$-65, (%r12,%rbx)
	jle	LBB6_132
LBB6_214:
	movq	-136(%rbp), %rdi
	movq	%r12, %rsi
	movq	%rbx, %rdx
	callq	__ZN4core3fmt9Formatter9write_str17h98e119ad25a8903eE
	testb	%al, %al
	jne	LBB6_40
	movq	%r12, -72(%rbp)
	movq	%r13, -64(%rbp)
	movq	%rbx, -48(%rbp)
	movq	%r13, -56(%rbp)
	testb	%r15b, %r15b
	jne	LBB6_218
	cmpq	%rbx, %r13
	jbe	LBB6_224
	cmpb	$-65, (%r12,%rbx)
	jle	LBB6_224
LBB6_218:
	addq	%rbx, %r12
	movq	%r14, %rcx
	movq	-160(%rbp), %r14
	jmp	LBB6_78
LBB6_90:
	leaq	(%r12,%r13), %rsi
	xorl	%eax, %eax
	movq	%rsi, %rdi
	cmpq	$2, %r13
	je	LBB6_92
	leaq	3(%r12), %rdi
	movzbl	2(%r12), %eax
	andl	$63, %eax
LBB6_92:
	movl	%ecx, %edx
	andl	$31, %edx
	cmpb	$-33, %cl
	jbe	LBB6_93
	cmpq	%rsi, %rdi
	je	LBB6_96
	movzbl	(%rdi), %ebx
	incq	%rdi
	andl	$63, %ebx
	shll	$6, %eax
	orl	%ebx, %eax
	cmpb	$-16, %cl
	jb	LBB6_99
LBB6_100:
	cmpq	%rsi, %rdi
	je	LBB6_101
	movzbl	(%rdi), %ecx
	andl	$63, %ecx
	jmp	LBB6_103
LBB6_221:
	movq	%r15, %r9
	incq	%r9
	je	LBB6_222
	movq	%r12, -72(%rbp)
	movq	-144(%rbp), %r13
	movq	%r13, -64(%rbp)
	movq	$1, -48(%rbp)
	movq	%r9, -56(%rbp)
	cmpq	$1, %r13
	movq	-160(%rbp), %r14
	movq	-80(%rbp), %rdi
	je	LBB6_149
	cmpb	$-65, (%rdi)
	jle	LBB6_176
LBB6_149:
	cmpq	%r9, %r13
	je	LBB6_152
	jbe	LBB6_176
	cmpb	$-65, (%r12,%r9)
	jle	LBB6_176
LBB6_152:
	addq	$2, %r15
	jb	LBB6_223
	movq	%r12, -72(%rbp)
	movq	%r13, -64(%rbp)
	movq	%r15, -48(%rbp)
	movq	%r13, -56(%rbp)
	testq	%r15, %r15
	je	LBB6_157
	cmpq	%r15, %r13
	je	LBB6_157
	jbe	LBB6_224
	cmpb	$-65, (%r12,%r15)
	jle	LBB6_224
LBB6_157:
	leaq	-1(%r9), %rdx
	leaq	(%r12,%r15), %rbx
	movq	%r13, %rax
	subq	%r15, %rax
	cmpq	$2, %r9
	movq	%rax, -176(%rbp)
	je	LBB6_177
	cmpq	$3, %r9
	jne	LBB6_180
	leaq	l___unnamed_8(%rip), %rsi
	leaq	l___unnamed_9(%rip), %rax
	cmpq	%rax, %rdi
	je	LBB6_179
	movq	-80(%rbp), %rdi
	leaq	l___unnamed_9(%rip), %rsi
	movq	%r9, -152(%rbp)
	movq	%rdx, %r15
	callq	_memcmp
	movq	-80(%rbp), %rcx
	leaq	l___unnamed_8(%rip), %rsi
	testl	%eax, %eax
	je	LBB6_179
	leaq	l___unnamed_10(%rip), %rsi
	leaq	l___unnamed_11(%rip), %rax
	cmpq	%rax, %rcx
	je	LBB6_179
	movq	%r15, %rdx
	movq	-80(%rbp), %rdi
	leaq	l___unnamed_11(%rip), %rsi
	callq	_memcmp
	movq	-80(%rbp), %rcx
	leaq	l___unnamed_10(%rip), %rsi
	testl	%eax, %eax
	je	LBB6_179
	leaq	l___unnamed_12(%rip), %rsi
	leaq	l___unnamed_13(%rip), %rax
	cmpq	%rax, %rcx
	je	LBB6_179
	movq	%r15, %rdx
	movq	-80(%rbp), %rdi
	leaq	l___unnamed_13(%rip), %rsi
	callq	_memcmp
	movq	-80(%rbp), %rcx
	leaq	l___unnamed_12(%rip), %rsi
	testl	%eax, %eax
	je	LBB6_179
	leaq	l___unnamed_14(%rip), %rsi
	leaq	l___unnamed_15(%rip), %rax
	cmpq	%rax, %rcx
	je	LBB6_179
	movq	%r15, %rdx
	movq	-80(%rbp), %rdi
	leaq	l___unnamed_15(%rip), %rsi
	callq	_memcmp
	movq	-80(%rbp), %rcx
	leaq	l___unnamed_14(%rip), %rsi
	testl	%eax, %eax
	je	LBB6_179
	leaq	l___unnamed_16(%rip), %rsi
	leaq	l___unnamed_17(%rip), %rax
	cmpq	%rax, %rcx
	je	LBB6_179
	movq	%r15, %rdx
	movq	-80(%rbp), %rdi
	leaq	l___unnamed_17(%rip), %rsi
	callq	_memcmp
	movq	-80(%rbp), %rcx
	leaq	l___unnamed_16(%rip), %rsi
	testl	%eax, %eax
	je	LBB6_179
	leaq	l___unnamed_18(%rip), %rsi
	leaq	l___unnamed_19(%rip), %rax
	cmpq	%rax, %rcx
	je	LBB6_179
	movq	%r15, %rdx
	movq	-80(%rbp), %rdi
	leaq	l___unnamed_19(%rip), %rsi
	callq	_memcmp
	movq	-80(%rbp), %rcx
	leaq	l___unnamed_18(%rip), %rsi
	testl	%eax, %eax
	je	LBB6_179
	leaq	l___unnamed_20(%rip), %rsi
	leaq	l___unnamed_21(%rip), %rax
	cmpq	%rax, %rcx
	je	LBB6_179
	movq	%r15, %rdx
	movq	-80(%rbp), %rdi
	leaq	l___unnamed_21(%rip), %rsi
	callq	_memcmp
	movq	-80(%rbp), %rdi
	movq	-152(%rbp), %r9
	leaq	l___unnamed_20(%rip), %rsi
	testl	%eax, %eax
	je	LBB6_179
	movq	%r15, %rdx
	jmp	LBB6_181
LBB6_93:
	shll	$6, %edx
	orl	%edx, %eax
	movl	%eax, %ecx
	cmpl	$46, %ecx
	je	LBB6_110
	jmp	LBB6_106
LBB6_96:
	xorl	%ebx, %ebx
	movq	%rsi, %rdi
	shll	$6, %eax
	orl	%ebx, %eax
	cmpb	$-16, %cl
	jae	LBB6_100
LBB6_99:
	shll	$12, %edx
	orl	%edx, %eax
	movl	%eax, %ecx
	cmpl	$46, %ecx
	je	LBB6_110
	jmp	LBB6_106
LBB6_177:
	leaq	l___unnamed_22(%rip), %rsi
	leaq	l___unnamed_23(%rip), %rax
	cmpq	%rax, %rdi
	je	LBB6_179
	movq	-80(%rbp), %rdi
	leaq	l___unnamed_23(%rip), %rsi
	movq	%rbx, -152(%rbp)
	movq	%r9, %rbx
	movq	%rdx, %r15
	callq	_memcmp
	movq	%r15, %rdx
	movq	-80(%rbp), %rdi
	movq	%rbx, %r9
	movq	-152(%rbp), %rbx
	movb	$1, %cl
	leaq	l___unnamed_22(%rip), %rsi
	testl	%eax, %eax
	jne	LBB6_182
LBB6_179:
	movl	$1, %edx
	movq	-136(%rbp), %rdi
	callq	__ZN4core3fmt9Formatter9write_str17h98e119ad25a8903eE
	movq	%rbx, %r12
	testb	%al, %al
	movq	-176(%rbp), %rcx
	je	LBB6_78
	jmp	LBB6_40
LBB6_180:
	testq	%rdx, %rdx
	je	LBB6_139
LBB6_181:
	xorl	%ecx, %ecx
LBB6_182:
	cmpb	$117, (%rdi)
	jne	LBB6_139
	movq	%rbx, %r15
	movq	%rdi, -72(%rbp)
	movq	%rdx, -64(%rbp)
	movq	$1, -48(%rbp)
	movq	%rdx, -56(%rbp)
	testb	%cl, %cl
	jne	LBB6_186
	cmpq	$2, %rdx
	jb	LBB6_224
	cmpb	$-65, 2(%r12)
	jle	LBB6_224
LBB6_186:
	leaq	2(%r12), %rdi
	leaq	(%r12,%r9), %r8
	addq	$-2, %r9
	movq	%rdi, %rcx
	.p2align	4, 0x90
LBB6_187:
	cmpq	%r8, %rcx
	je	LBB6_208
	leaq	1(%rcx), %rax
	movzbl	(%rcx), %esi
	testb	%sil, %sil
	js	LBB6_193
	movq	%rax, %rcx
	jmp	LBB6_190
	.p2align	4, 0x90
LBB6_193:
	cmpq	%r8, %rax
	je	LBB6_194
	movzbl	1(%rcx), %edx
	addq	$2, %rcx
	andl	$63, %edx
	movl	%esi, %ebx
	andl	$31, %ebx
	cmpb	$-33, %sil
	jbe	LBB6_197
LBB6_199:
	cmpq	%r8, %rcx
	je	LBB6_200
	movzbl	(%rcx), %eax
	incq	%rcx
	andl	$63, %eax
	shll	$6, %edx
	orl	%eax, %edx
	cmpb	$-16, %sil
	jb	LBB6_203
LBB6_204:
	cmpq	%r8, %rcx
	je	LBB6_205
	movzbl	(%rcx), %esi
	incq	%rcx
	andl	$63, %esi
	jmp	LBB6_207
LBB6_194:
	xorl	%edx, %edx
	movq	%r8, %rcx
	movl	%esi, %ebx
	andl	$31, %ebx
	cmpb	$-33, %sil
	ja	LBB6_199
LBB6_197:
	shll	$6, %ebx
	jmp	LBB6_198
LBB6_200:
	xorl	%eax, %eax
	movq	%r8, %rcx
	shll	$6, %edx
	orl	%eax, %edx
	cmpb	$-16, %sil
	jae	LBB6_204
LBB6_203:
	shll	$12, %ebx
LBB6_198:
	orl	%ebx, %edx
	movl	%edx, %esi
	jmp	LBB6_190
LBB6_205:
	xorl	%esi, %esi
	movq	%r8, %rcx
LBB6_207:
	andl	$7, %ebx
	shll	$18, %ebx
	shll	$6, %edx
	orl	%ebx, %edx
	orl	%esi, %edx
	movl	%edx, %esi
	cmpl	$1114112, %edx
	je	LBB6_208
	.p2align	4, 0x90
LBB6_190:
	leal	-97(%rsi), %eax
	cmpl	$6, %eax
	jb	LBB6_187
	addl	$-48, %esi
	cmpl	$10, %esi
	jb	LBB6_187
	movb	$1, %bl
	jmp	LBB6_209
LBB6_208:
	xorl	%ebx, %ebx
LBB6_209:
	movq	%r9, %rsi
	movl	$16, %edx
	callq	__ZN4core3num21_$LT$impl$u20$u32$GT$14from_str_radix17h856b6881d270ffd2E
	testb	$1, %al
	jne	LBB6_139
	shrq	$32, %rax
	movl	%eax, %ecx
	andl	$-2048, %ecx
	cmpl	$55296, %ecx
	movl	%eax, %edi
	movl	$1114112, %ecx
	cmovel	%ecx, %edi
	cmpl	$1114111, %eax
	cmoval	%ecx, %edi
	cmpl	$1114112, %edi
	sete	%al
	orb	%al, %bl
	jne	LBB6_139
	movl	%edi, -128(%rbp)
	callq	__ZN4core7unicode12unicode_data2cc6lookup17h434a4d118c6084f1E
	testb	%al, %al
	jne	LBB6_139
	leaq	-128(%rbp), %rdi
	movq	-136(%rbp), %rsi
	callq	__ZN43_$LT$char$u20$as$u20$core..fmt..Display$GT$3fmt17haf02f59875f30dd3E
	movq	%r15, %r12
	testb	%al, %al
	movq	-176(%rbp), %rcx
	je	LBB6_78
	jmp	LBB6_40
LBB6_101:
	xorl	%ecx, %ecx
LBB6_103:
	andl	$7, %edx
	shll	$18, %edx
	shll	$6, %eax
	orl	%edx, %eax
	orl	%ecx, %eax
	movl	%eax, %ecx
	cmpl	$46, %ecx
	je	LBB6_110
	.p2align	4, 0x90
LBB6_106:
	movl	$1, %edx
	movq	-136(%rbp), %rdi
	leaq	l___unnamed_24(%rip), %rsi
	callq	__ZN4core3fmt9Formatter9write_str17h98e119ad25a8903eE
	testb	%al, %al
	jne	LBB6_40
	movq	%r12, -72(%rbp)
	incq	%r12
	movq	%r13, -64(%rbp)
	movq	$1, -48(%rbp)
	movq	%r13, -56(%rbp)
	cmpq	$1, %r13
	je	LBB6_109
	cmpb	$-65, (%r12)
	jle	LBB6_224
LBB6_109:
	decq	%r13
	movq	%r13, %rcx
	jmp	LBB6_78
LBB6_43:
	xorl	%eax, %eax
	jmp	LBB6_44
LBB6_40:
	movb	$1, %al
LBB6_44:
	addq	$152, %rsp
	popq	%rbx
	popq	%r12
	popq	%r13
	popq	%r14
	popq	%r15
	popq	%rbp
	retq
LBB6_29:
	leaq	l___unnamed_25(%rip), %rdi
	leaq	l___unnamed_26(%rip), %rdx
	movl	$43, %esi
	callq	__ZN4core9panicking5panic17h383a6b80ea7021aaE
LBB6_224:
	leaq	-72(%rbp), %rax
	movq	%rax, -128(%rbp)
	leaq	-48(%rbp), %rax
	movq	%rax, -120(%rbp)
	leaq	-56(%rbp), %rax
	movq	%rax, -112(%rbp)
	leaq	-128(%rbp), %rdi
	callq	__ZN4core3str6traits105_$LT$impl$u20$core..slice..SliceIndex$LT$str$GT$$u20$for$u20$core..ops..range..RangeFrom$LT$usize$GT$$GT$5index28_$u7b$$u7b$closure$u7d$$u7d$17h75180eb441870eb2E
LBB6_132:
	leaq	-128(%rbp), %rdi
	movq	%rbx, %rsi
	callq	__ZN4core3str6traits103_$LT$impl$u20$core..slice..SliceIndex$LT$str$GT$$u20$for$u20$core..ops..range..RangeTo$LT$usize$GT$$GT$5index28_$u7b$$u7b$closure$u7d$$u7d$17h7961678a34db7ba2E
LBB6_219:
	leaq	_str.1(%rip), %rdi
	leaq	l___unnamed_27(%rip), %rdx
	movl	$33, %esi
	callq	__ZN4core9panicking5panic17h383a6b80ea7021aaE
LBB6_225:
	movb	-127(%rbp), %al
	movb	%al, -72(%rbp)
	leaq	l___unnamed_28(%rip), %rdi
	leaq	l___unnamed_29(%rip), %rcx
	leaq	l___unnamed_30(%rip), %r8
	leaq	-72(%rbp), %rdx
	movl	$43, %esi
	callq	__ZN4core6result13unwrap_failed17hc193898ef513e81fE
LBB6_25:
	leaq	-128(%rbp), %rdi
	movq	%rdx, %rsi
	callq	__ZN4core3str6traits103_$LT$impl$u20$core..slice..SliceIndex$LT$str$GT$$u20$for$u20$core..ops..range..RangeTo$LT$usize$GT$$GT$5index28_$u7b$$u7b$closure$u7d$$u7d$17h7961678a34db7ba2E
LBB6_226:
	leaq	-128(%rbp), %rdi
	callq	__ZN4core3str6traits103_$LT$impl$u20$core..slice..SliceIndex$LT$str$GT$$u20$for$u20$core..ops..range..RangeTo$LT$usize$GT$$GT$5index28_$u7b$$u7b$closure$u7d$$u7d$17h7961678a34db7ba2E
LBB6_227:
	leaq	l___unnamed_5(%rip), %rdx
	movl	$4, %esi
	movq	%r14, %rdi
	callq	__ZN4core5slice24slice_end_index_len_fail17hea9e3399ed430f80E
LBB6_222:
	leaq	_str.0(%rip), %rdi
	leaq	l___unnamed_31(%rip), %rdx
	movl	$28, %esi
	callq	__ZN4core9panicking5panic17h383a6b80ea7021aaE
LBB6_176:
	leaq	-72(%rbp), %rax
	movq	%rax, -128(%rbp)
	leaq	-48(%rbp), %rax
	movq	%rax, -120(%rbp)
	leaq	-56(%rbp), %rax
	movq	%rax, -112(%rbp)
	leaq	-128(%rbp), %rdi
	callq	__ZN4core3str6traits101_$LT$impl$u20$core..slice..SliceIndex$LT$str$GT$$u20$for$u20$core..ops..range..Range$LT$usize$GT$$GT$5index28_$u7b$$u7b$closure$u7d$$u7d$17hd04499129f2d597eE
LBB6_223:
	leaq	_str.0(%rip), %rdi
	leaq	l___unnamed_32(%rip), %rdx
	movl	$28, %esi
	callq	__ZN4core9panicking5panic17h383a6b80ea7021aaE
LBB6_220:
	leaq	_str.0(%rip), %rdi
	leaq	l___unnamed_33(%rip), %rdx
	movl	$28, %esi
	callq	__ZN4core9panicking5panic17h383a6b80ea7021aaE
	.cfi_endproc

	.globl	__ZN67_$LT$rustc_demangle..v0..Demangle$u20$as$u20$core..fmt..Display$GT$3fmt17h88f79762d6eb4e42E
	.p2align	4, 0x90
__ZN67_$LT$rustc_demangle..v0..Demangle$u20$as$u20$core..fmt..Display$GT$3fmt17h88f79762d6eb4e42E:
	.cfi_startproc
	pushq	%rbp
	.cfi_def_cfa_offset 16
	.cfi_offset %rbp, -16
	movq	%rsp, %rbp
	.cfi_def_cfa_register %rbp
	subq	$48, %rsp
	movups	(%rdi), %xmm0
	movaps	%xmm0, -48(%rbp)
	movq	$0, -32(%rbp)
	movq	%rsi, -24(%rbp)
	movl	$0, -16(%rbp)
	leaq	-48(%rbp), %rdi
	movl	$1, %esi
	callq	__ZN14rustc_demangle2v07Printer10print_path17hd7744b8986b06fb9E
	addq	$48, %rsp
	popq	%rbp
	retq
	.cfi_endproc

	.globl	__ZN64_$LT$rustc_demangle..v0..Ident$u20$as$u20$core..fmt..Display$GT$3fmt17ha462a1c7026230b8E
	.p2align	4, 0x90
__ZN64_$LT$rustc_demangle..v0..Ident$u20$as$u20$core..fmt..Display$GT$3fmt17ha462a1c7026230b8E:
	.cfi_startproc
	pushq	%rbp
	.cfi_def_cfa_offset 16
	.cfi_offset %rbp, -16
	movq	%rsp, %rbp
	.cfi_def_cfa_register %rbp
	pushq	%r15
	pushq	%r14
	pushq	%r13
	pushq	%r12
	pushq	%rbx
	subq	$600, %rsp
	.cfi_offset %rbx, -56
	.cfi_offset %r12, -48
	.cfi_offset %r13, -40
	.cfi_offset %r14, -32
	.cfi_offset %r15, -24
	movq	%rsi, %r14
	movq	%rdi, %rbx
	leaq	-632(%rbp), %rdi
	movl	$512, %esi
	movq	%rdi, -80(%rbp)
	callq	___bzero
	movq	24(%rbx), %rcx
	movq	%rcx, %rax
	movq	%rcx, -104(%rbp)
	testq	%rcx, %rcx
	je	LBB8_73
	movq	%r14, -96(%rbp)
	movq	16(%rbx), %rax
	movq	%rax, -88(%rbp)
	movb	(%rax), %r14b
	movq	(%rbx), %rdx
	movq	8(%rbx), %rax
	testq	%rax, %rax
	movq	%rdx, -112(%rbp)
	movq	%rax, -120(%rbp)
	je	LBB8_2
	leaq	(%rdx,%rax), %r8
	xorl	%edi, %edi
	.p2align	4, 0x90
LBB8_4:
	leaq	1(%rdx), %rax
	movzbl	(%rdx), %esi
	testb	%sil, %sil
	js	LBB8_6
	movq	%rax, %rdx
	jmp	LBB8_21
	.p2align	4, 0x90
LBB8_6:
	cmpq	%r8, %rax
	je	LBB8_7
	movzbl	1(%rdx), %ebx
	addq	$2, %rdx
	andl	$63, %ebx
	movl	%esi, %ecx
	andl	$31, %ecx
	cmpb	$-33, %sil
	jbe	LBB8_10
LBB8_12:
	cmpq	%r8, %rdx
	je	LBB8_13
	movzbl	(%rdx), %eax
	incq	%rdx
	andl	$63, %eax
	shll	$6, %ebx
	orl	%eax, %ebx
	cmpb	$-16, %sil
	jb	LBB8_16
LBB8_17:
	cmpq	%r8, %rdx
	je	LBB8_18
	movzbl	(%rdx), %esi
	incq	%rdx
	andl	$63, %esi
	jmp	LBB8_20
LBB8_7:
	xorl	%ebx, %ebx
	movq	%r8, %rdx
	movl	%esi, %ecx
	andl	$31, %ecx
	cmpb	$-33, %sil
	ja	LBB8_12
LBB8_10:
	shll	$6, %ecx
	jmp	LBB8_11
LBB8_13:
	xorl	%eax, %eax
	movq	%r8, %rdx
	shll	$6, %ebx
	orl	%eax, %ebx
	cmpb	$-16, %sil
	jae	LBB8_17
LBB8_16:
	shll	$12, %ecx
LBB8_11:
	orl	%ecx, %ebx
	movl	%ebx, %esi
	jmp	LBB8_21
LBB8_18:
	xorl	%esi, %esi
	movq	%r8, %rdx
LBB8_20:
	andl	$7, %ecx
	shll	$18, %ecx
	shll	$6, %ebx
	orl	%ecx, %ebx
	orl	%esi, %ebx
	movl	%ebx, %esi
	cmpl	$1114112, %ebx
	je	LBB8_23
	.p2align	4, 0x90
LBB8_21:
	cmpq	$128, %rdi
	je	LBB8_38
	movl	%esi, -632(%rbp,%rdi,4)
	incq	%rdi
	cmpq	%r8, %rdx
	jne	LBB8_4
	jmp	LBB8_23
LBB8_73:
	movq	(%rbx), %rsi
	movq	8(%rbx), %rdx
	movq	%r14, %rdi
LBB8_74:
	callq	__ZN4core3fmt9Formatter9write_str17h98e119ad25a8903eE
	movl	%eax, %r14d
	jmp	LBB8_75
LBB8_2:
	xorl	%edi, %edi
LBB8_23:
	movq	-104(%rbp), %rax
	movq	-88(%rbp), %rcx
	leaq	(%rcx,%rax), %r9
	leaq	1(%rcx), %r10
	leaq	4(,%rdi,4), %rax
	movq	%rax, -72(%rbp)
	movl	$700, %eax
	movq	%rax, -64(%rbp)
	movl	$72, %r12d
	movl	$128, %eax
	movq	%rax, -48(%rbp)
	movl	$1, %r11d
	movl	$26, %r15d
	xorl	%r8d, %r8d
LBB8_24:
	movzbl	%r14b, %ecx
	shll	$8, %ecx
	orl	$1, %ecx
	xorl	%r14d, %r14d
	xorl	%esi, %esi
	movl	$1, %ebx
	.p2align	4, 0x90
LBB8_25:
	addq	$36, %r14
	jb	LBB8_64
	movq	%r14, %rax
	subq	%r12, %rax
	movl	$0, %r13d
	cmovaeq	%rax, %r13
	cmpq	$1, %r13
	cmovbeq	%r11, %r13
	cmpq	$26, %r13
	cmovaeq	%r15, %r13
	cmpb	$2, %cl
	jne	LBB8_29
	cmpq	%r9, %r10
	je	LBB8_38
	movzbl	(%r10), %ecx
	incq	%r10
	leal	-97(%rcx), %eax
	cmpb	$26, %al
	jae	LBB8_32
	jmp	LBB8_34
	.p2align	4, 0x90
LBB8_29:
	testb	$1, %cl
	je	LBB8_38
	shrl	$8, %ecx
	leal	-97(%rcx), %eax
	cmpb	$26, %al
	jb	LBB8_34
LBB8_32:
	leal	-48(%rcx), %eax
	cmpb	$9, %al
	ja	LBB8_38
	addb	$-22, %cl
	movl	%ecx, %eax
LBB8_34:
	movzbl	%al, %ecx
	movq	%rcx, %rax
	mulq	%rbx
	jo	LBB8_38
	addq	%rax, %rsi
	jb	LBB8_38
	cmpq	%rcx, %r13
	ja	LBB8_44
	movl	$36, %ecx
	subq	%r13, %rcx
	movq	%rbx, %rax
	mulq	%rcx
	movw	$2, %cx
	movq	%rax, %rbx
	jno	LBB8_25
	jmp	LBB8_38
LBB8_44:
	addq	%rsi, %r8
	jb	LBB8_38
	leaq	1(%rdi), %rbx
	movq	%r8, %rax
	xorl	%edx, %edx
	divq	%rbx
	addq	%rax, -48(%rbp)
	jb	LBB8_38
	movq	-48(%rbp), %rax
	shrq	$32, %rax
	jne	LBB8_38
	cmpq	$127, %rdi
	ja	LBB8_38
	cmpl	$1114111, -48(%rbp)
	ja	LBB8_38
	movq	-48(%rbp), %rax
	andl	$-2048, %eax
	cmpl	$55296, %eax
	je	LBB8_38
	movq	%rdx, %r8
	cmpq	%rdx, %rdi
	jbe	LBB8_51
	.p2align	4, 0x90
LBB8_53:
	leaq	-1(%rdi), %rax
	cmpq	$127, %rax
	ja	LBB8_55
	movl	-636(%rbp,%rdi,4), %ecx
	movl	%ecx, -632(%rbp,%rdi,4)
	movq	%rax, %rdi
	cmpq	%r8, %rax
	ja	LBB8_53
LBB8_51:
	cmpq	$128, %r8
	jae	LBB8_52
	movq	-48(%rbp), %rax
	movl	%eax, -632(%rbp,%r8,4)
	cmpq	%r9, %r10
	movq	-72(%rbp), %r13
	movabsq	$-1581149492032247281, %rdi
	je	LBB8_68
	movq	%rsi, %rax
	xorl	%edx, %edx
	divq	-64(%rbp)
	movq	%rax, %rcx
	xorl	%edx, %edx
	divq	%rbx
	movq	%rax, %rsi
	addq	%rcx, %rsi
	jb	LBB8_65
	movb	(%r10), %r14b
	xorl	%ecx, %ecx
	cmpq	$456, %rsi
	jb	LBB8_62
	.p2align	4, 0x90
LBB8_59:
	addq	$36, %rcx
	jb	LBB8_66
	movq	%rsi, %rax
	mulq	%rdi
	shrq	$5, %rdx
	cmpq	$15959, %rsi
	movq	%rdx, %rsi
	ja	LBB8_59
	movq	%rdx, %rsi
LBB8_62:
	leal	(,%rsi,4), %eax
	leal	(%rax,%rax,8), %eax
	addl	$38, %esi
	xorl	%edx, %edx
	divw	%si
	movzwl	%ax, %r12d
	addq	%rcx, %r12
	jb	LBB8_67
	incq	%r8
	incq	%r10
	addq	$4, %r13
	movq	%r13, -72(%rbp)
	movl	$2, %eax
	movq	%rax, -64(%rbp)
	movq	%rbx, %rdi
	jmp	LBB8_24
LBB8_38:
	leaq	l___unnamed_34(%rip), %rsi
	movl	$9, %edx
	movq	-96(%rbp), %rbx
	movq	%rbx, %rdi
	callq	__ZN4core3fmt9Formatter9write_str17h98e119ad25a8903eE
	movb	$1, %r14b
	testb	%al, %al
	jne	LBB8_75
	movq	-120(%rbp), %rdx
	testq	%rdx, %rdx
	je	LBB8_42
	movq	%rbx, %rdi
	movq	-112(%rbp), %rsi
	callq	__ZN4core3fmt9Formatter9write_str17h98e119ad25a8903eE
	testb	%al, %al
	jne	LBB8_75
	leaq	l___unnamed_35(%rip), %rsi
	movl	$1, %edx
	movq	%rbx, %rdi
	callq	__ZN4core3fmt9Formatter9write_str17h98e119ad25a8903eE
	testb	%al, %al
	jne	LBB8_75
LBB8_42:
	movq	%rbx, %rdi
	movq	-88(%rbp), %rsi
	movq	-104(%rbp), %rdx
	callq	__ZN4core3fmt9Formatter9write_str17h98e119ad25a8903eE
	testb	%al, %al
	je	LBB8_43
LBB8_75:
	movl	%r14d, %eax
	addq	$600, %rsp
	popq	%rbx
	popq	%r12
	popq	%r13
	popq	%r14
	popq	%r15
	popq	%rbp
	retq
LBB8_43:
	leaq	l___unnamed_36(%rip), %rsi
	movl	$1, %edx
	movq	%rbx, %rdi
	jmp	LBB8_74
LBB8_68:
	leaq	-52(%rbp), %r14
	movq	-96(%rbp), %r15
LBB8_69:
	testq	%r13, %r13
	je	LBB8_70
	movq	-80(%rbp), %rbx
	movl	(%rbx), %eax
	movl	%eax, -52(%rbp)
	movq	%r14, %rdi
	movq	%r15, %rsi
	callq	__ZN43_$LT$char$u20$as$u20$core..fmt..Display$GT$3fmt17haf02f59875f30dd3E
	addq	$4, %rbx
	movq	%rbx, -80(%rbp)
	addq	$-4, %r13
	testb	%al, %al
	je	LBB8_69
	movb	$1, %r14b
	jmp	LBB8_75
LBB8_70:
	xorl	%r14d, %r14d
	jmp	LBB8_75
LBB8_64:
	leaq	_str.0(%rip), %rdi
	leaq	l___unnamed_37(%rip), %rdx
	movl	$28, %esi
	callq	__ZN4core9panicking5panic17h383a6b80ea7021aaE
LBB8_55:
	decq	%rdi
	leaq	l___unnamed_38(%rip), %rdx
	movl	$128, %esi
	callq	__ZN4core9panicking18panic_bounds_check17he87128426d100e93E
LBB8_66:
	leaq	_str.0(%rip), %rdi
	leaq	l___unnamed_39(%rip), %rdx
	movl	$28, %esi
	callq	__ZN4core9panicking5panic17h383a6b80ea7021aaE
LBB8_52:
	leaq	l___unnamed_40(%rip), %rdx
	movl	$128, %esi
	movq	%r8, %rdi
	callq	__ZN4core9panicking18panic_bounds_check17he87128426d100e93E
LBB8_65:
	leaq	_str.0(%rip), %rdi
	leaq	l___unnamed_41(%rip), %rdx
	movl	$28, %esi
	callq	__ZN4core9panicking5panic17h383a6b80ea7021aaE
LBB8_67:
	leaq	_str.0(%rip), %rdi
	leaq	l___unnamed_42(%rip), %rdx
	movl	$28, %esi
	callq	__ZN4core9panicking5panic17h383a6b80ea7021aaE
	.cfi_endproc

	.p2align	4, 0x90
__ZN14rustc_demangle2v06Parser5ident17h0406b9e9daac4738E:
	.cfi_startproc
	pushq	%rbp
	.cfi_def_cfa_offset 16
	.cfi_offset %rbp, -16
	movq	%rsp, %rbp
	.cfi_def_cfa_register %rbp
	pushq	%r15
	pushq	%r14
	pushq	%rbx
	subq	$56, %rsp
	.cfi_offset %rbx, -40
	.cfi_offset %r14, -32
	.cfi_offset %r15, -24
	movq	8(%rsi), %r9
	movq	16(%rsi), %rcx
	cmpq	%rcx, %r9
	jbe	LBB9_4
	movq	(%rsi), %rax
	cmpb	$117, (%rax,%rcx)
	jne	LBB9_4
	incq	%rcx
	movq	%rcx, 16(%rsi)
	movb	$1, %r10b
	cmpq	%rcx, %r9
	ja	LBB9_5
	jmp	LBB9_18
LBB9_4:
	xorl	%r10d, %r10d
	cmpq	%rcx, %r9
	jbe	LBB9_18
LBB9_5:
	movq	(%rsi), %r8
	movb	(%r8,%rcx), %al
	addb	$-48, %al
	cmpb	$10, %al
	jae	LBB9_18
	incq	%rcx
	movq	%rcx, 16(%rsi)
	testb	%al, %al
	je	LBB9_12
	movzbl	%al, %eax
	movl	$10, %r11d
	.p2align	4, 0x90
LBB9_8:
	cmpq	%rcx, %r9
	jbe	LBB9_13
	movzbl	(%r8,%rcx), %ebx
	addb	$-48, %bl
	cmpb	$9, %bl
	ja	LBB9_13
	incq	%rcx
	movq	%rcx, 16(%rsi)
	mulq	%r11
	jo	LBB9_18
	movzbl	%bl, %edx
	addq	%rdx, %rax
	jae	LBB9_8
	jmp	LBB9_18
LBB9_12:
	xorl	%eax, %eax
LBB9_13:
	cmpq	%rcx, %r9
	jbe	LBB9_16
	cmpb	$95, (%r8,%rcx)
	jne	LBB9_16
	incq	%rcx
	movq	%rcx, 16(%rsi)
LBB9_16:
	movq	%rcx, %rdx
	addq	%rax, %rdx
	jb	LBB9_18
	movq	%rdx, 16(%rsi)
	cmpq	%r9, %rdx
	jbe	LBB9_20
LBB9_18:
	movq	$0, (%rdi)
LBB9_19:
	addq	$56, %rsp
	popq	%rbx
	popq	%r14
	popq	%r15
	popq	%rbp
	retq
LBB9_20:
	movq	%r8, -80(%rbp)
	movq	%r9, -72(%rbp)
	movq	%rcx, -32(%rbp)
	movq	%rdx, -40(%rbp)
	cmpq	%rcx, %r9
	je	LBB9_23
	jbe	LBB9_44
	cmpb	$-65, (%r8,%rcx)
	jle	LBB9_44
LBB9_23:
	testq	%rdx, %rdx
	je	LBB9_27
	cmpq	%rdx, %r9
	je	LBB9_27
	jbe	LBB9_44
	cmpb	$-65, (%r8,%rdx)
	jle	LBB9_44
LBB9_27:
	leaq	(%r8,%rcx), %r9
	movq	%rdx, %r11
	subq	%rcx, %r11
	testb	%r10b, %r10b
	je	LBB9_40
	leaq	(%r8,%rdx), %r10
	leaq	-1(%r8,%rdx), %r15
	movq	%rax, %rbx
	negq	%rbx
	xorl	%esi, %esi
	leaq	l___unnamed_43(%rip), %r14
	xorl	%edx, %edx
	.p2align	4, 0x90
LBB9_29:
	cmpq	%rdx, %rbx
	je	LBB9_41
	cmpb	$95, (%r15,%rdx)
	leaq	-1(%rdx), %rdx
	jne	LBB9_29
	movq	%r9, -64(%rbp)
	movq	%r11, -56(%rbp)
	movq	%r10, %rbx
	subq	%r9, %rbx
	movq	%rbx, %rsi
	addq	%rdx, %rsi
	je	LBB9_35
	subq	%rax, %rbx
	addq	%rdx, %rbx
	je	LBB9_35
	cmpq	%rsi, %r11
	jbe	LBB9_45
	addq	%r10, %rcx
	subq	%r9, %rcx
	addq	%rcx, %r8
	cmpb	$-65, (%rdx,%r8)
	jle	LBB9_45
LBB9_35:
	movq	%rsi, %rax
	incq	%rax
	je	LBB9_46
	movq	%r9, -80(%rbp)
	movq	%r11, -72(%rbp)
	movq	%rax, -32(%rbp)
	movq	%r11, -40(%rbp)
	subq	%rax, %r11
	je	LBB9_39
	jbe	LBB9_47
	cmpb	$-65, (%r9,%rax)
	jle	LBB9_47
LBB9_39:
	addq	%r9, %rax
	movq	%r9, %r14
	jmp	LBB9_42
LBB9_40:
	movq	%r9, (%rdi)
	movq	%r11, 8(%rdi)
	leaq	l___unnamed_43(%rip), %rax
	movq	%rax, 16(%rdi)
	movq	$0, 24(%rdi)
	jmp	LBB9_19
LBB9_41:
	movq	%r9, %rax
LBB9_42:
	testq	%r11, %r11
	je	LBB9_18
	movq	%r14, (%rdi)
	movq	%rsi, 8(%rdi)
	movq	%rax, 16(%rdi)
	movq	%r11, 24(%rdi)
	jmp	LBB9_19
LBB9_44:
	leaq	-80(%rbp), %rax
	movq	%rax, -64(%rbp)
	leaq	-32(%rbp), %rax
	movq	%rax, -56(%rbp)
	leaq	-40(%rbp), %rax
	movq	%rax, -48(%rbp)
	leaq	-64(%rbp), %rdi
	callq	__ZN4core3str6traits101_$LT$impl$u20$core..slice..SliceIndex$LT$str$GT$$u20$for$u20$core..ops..range..Range$LT$usize$GT$$GT$5index28_$u7b$$u7b$closure$u7d$$u7d$17hd04499129f2d597eE
LBB9_45:
	leaq	-64(%rbp), %rdi
	callq	__ZN4core3str6traits103_$LT$impl$u20$core..slice..SliceIndex$LT$str$GT$$u20$for$u20$core..ops..range..RangeTo$LT$usize$GT$$GT$5index28_$u7b$$u7b$closure$u7d$$u7d$17h7961678a34db7ba2E
LBB9_46:
	leaq	_str.0(%rip), %rdi
	leaq	l___unnamed_44(%rip), %rdx
	movl	$28, %esi
	callq	__ZN4core9panicking5panic17h383a6b80ea7021aaE
LBB9_47:
	leaq	-80(%rbp), %rax
	movq	%rax, -64(%rbp)
	leaq	-32(%rbp), %rax
	movq	%rax, -56(%rbp)
	leaq	-40(%rbp), %rax
	movq	%rax, -48(%rbp)
	leaq	-64(%rbp), %rdi
	callq	__ZN4core3str6traits105_$LT$impl$u20$core..slice..SliceIndex$LT$str$GT$$u20$for$u20$core..ops..range..RangeFrom$LT$usize$GT$$GT$5index28_$u7b$$u7b$closure$u7d$$u7d$17h75180eb441870eb2E
	.cfi_endproc

	.p2align	4, 0x90
__ZN14rustc_demangle2v06Parser9skip_path17h6f24ebac8b1b1d94E:
	.cfi_startproc
	pushq	%rbp
	.cfi_def_cfa_offset 16
	.cfi_offset %rbp, -16
	movq	%rsp, %rbp
	.cfi_def_cfa_register %rbp
	pushq	%r15
	pushq	%r14
	pushq	%r12
	pushq	%rbx
	subq	$32, %rsp
	.cfi_offset %rbx, -48
	.cfi_offset %r12, -40
	.cfi_offset %r14, -32
	.cfi_offset %r15, -24
	movq	%rdi, %rbx
	movq	8(%rdi), %rcx
	movq	16(%rdi), %rdi
	movb	$1, %r14b
	cmpq	%rdi, %rcx
	jbe	LBB10_4
	leaq	1(%rdi), %rsi
	movq	(%rbx), %r8
	movb	(%r8,%rdi), %al
	movq	%rsi, 16(%rbx)
	addb	$-66, %al
	cmpb	$23, %al
	ja	LBB10_4
	leaq	16(%rbx), %r15
	movzbl	%al, %eax
	leaq	LJTI10_0(%rip), %rdx
	movslq	(%rdx,%rax,4), %rax
	addq	%rdx, %rax
	jmpq	*%rax
LBB10_112:
	cmpq	%rsi, %rcx
	jbe	LBB10_113
	cmpb	$95, (%r8,%rsi)
	jne	LBB10_113
	leaq	2(%rdi), %rax
	movq	%rax, (%r15)
	xorl	%eax, %eax
	jmp	LBB10_127
LBB10_6:
	cmpq	%rsi, %rcx
	jbe	LBB10_25
	cmpb	$115, (%r8,%rsi)
	jne	LBB10_25
	leaq	2(%rdi), %rsi
	movq	%rsi, (%r15)
	cmpq	%rsi, %rcx
	jbe	LBB10_9
	cmpb	$95, (%r8,%rsi)
	jne	LBB10_9
	addq	$3, %rdi
	movq	%rdi, (%r15)
	jmp	LBB10_25
LBB10_88:
	movq	%rbx, %rdi
	callq	__ZN14rustc_demangle2v06Parser9skip_path17h6f24ebac8b1b1d94E
	testb	%al, %al
	jne	LBB10_4
	movl	$62, %r12d
LBB10_90:
	movq	8(%rbx), %rcx
	movq	16(%rbx), %rax
	cmpq	%rax, %rcx
	jbe	LBB10_95
	movq	(%rbx), %rdx
	cmpb	$69, (%rdx,%rax)
	je	LBB10_92
	movq	(%rbx), %r8
	cmpb	$76, (%r8,%rax)
	jne	LBB10_94
	leaq	1(%rax), %rdi
	movq	%rdi, (%r15)
	cmpq	%rdi, %rcx
	jbe	LBB10_98
	cmpb	$95, (%r8,%rdi)
	jne	LBB10_98
	addq	$2, %rax
	movq	%rax, (%r15)
	jmp	LBB10_90
LBB10_94:
	movq	(%rbx), %rcx
	cmpb	$75, (%rcx,%rax)
	jne	LBB10_95
	incq	%rax
	movq	%rax, 16(%rbx)
	movq	%rbx, %rdi
	callq	__ZN14rustc_demangle2v06Parser10skip_const17he2729d195b5575fdE
	testb	%al, %al
	je	LBB10_90
	jmp	LBB10_4
LBB10_95:
	movq	%rbx, %rdi
	callq	__ZN14rustc_demangle2v06Parser9skip_type17hd46b3425e8c3317cE
	testb	%al, %al
	je	LBB10_90
	jmp	LBB10_4
LBB10_98:
	xorl	%eax, %eax
	.p2align	4, 0x90
LBB10_99:
	cmpq	%rdi, %rcx
	jbe	LBB10_4
	movzbl	(%r8,%rdi), %edx
	cmpb	$95, %dl
	je	LBB10_3
	leal	-48(%rdx), %esi
	cmpb	$10, %sil
	jb	LBB10_109
	leal	-97(%rdx), %esi
	cmpb	$26, %sil
	jae	LBB10_103
	addb	$-87, %dl
	jmp	LBB10_108
LBB10_103:
	leal	-65(%rdx), %esi
	cmpb	$26, %sil
	jae	LBB10_4
	addb	$-29, %dl
LBB10_108:
	movl	%edx, %esi
LBB10_109:
	incq	%rdi
	movq	%rdi, (%r15)
	mulq	%r12
	jo	LBB10_4
	movzbl	%sil, %edx
	addq	%rdx, %rax
	jae	LBB10_99
	jmp	LBB10_4
LBB10_3:
	incq	%rdi
	movq	%rdi, (%r15)
	cmpq	$-1, %rax
	jne	LBB10_90
	jmp	LBB10_4
LBB10_47:
	cmpq	%rsi, %rcx
	jbe	LBB10_65
	cmpb	$115, (%r8,%rsi)
	jne	LBB10_65
	leaq	2(%rdi), %rsi
	movq	%rsi, (%r15)
	cmpq	%rsi, %rcx
	jbe	LBB10_50
	cmpb	$95, (%r8,%rsi)
	jne	LBB10_50
	addq	$3, %rdi
	movq	%rdi, (%r15)
	jmp	LBB10_65
LBB10_26:
	cmpq	%rsi, %rcx
	jbe	LBB10_4
	movb	1(%r8,%rdi), %al
	addq	$2, %rdi
	movq	%rdi, (%r15)
	leal	-65(%rax), %ecx
	cmpb	$26, %cl
	jb	LBB10_29
	addb	$-97, %al
	cmpb	$25, %al
	ja	LBB10_4
LBB10_29:
	movq	%rbx, %rdi
	callq	__ZN14rustc_demangle2v06Parser9skip_path17h6f24ebac8b1b1d94E
	testb	%al, %al
	jne	LBB10_4
	movq	8(%rbx), %rcx
	movq	16(%rbx), %rax
	cmpq	%rax, %rcx
	jbe	LBB10_25
	movq	(%rbx), %r9
	cmpb	$115, (%r9,%rax)
	jne	LBB10_25
	leaq	1(%rax), %rdi
	movq	%rdi, (%r15)
	cmpq	%rdi, %rcx
	jbe	LBB10_33
	cmpb	$95, (%r9,%rdi)
	jne	LBB10_33
	addq	$2, %rax
	movq	%rax, (%r15)
	jmp	LBB10_25
LBB10_67:
	cmpq	%rsi, %rcx
	jbe	LBB10_85
	cmpb	$115, (%r8,%rsi)
	jne	LBB10_85
	leaq	2(%rdi), %rsi
	movq	%rsi, (%r15)
	cmpq	%rsi, %rcx
	jbe	LBB10_70
	cmpb	$95, (%r8,%rsi)
	jne	LBB10_70
	addq	$3, %rdi
	movq	%rdi, (%r15)
	jmp	LBB10_85
LBB10_113:
	xorl	%eax, %eax
	movl	$62, %r9d
	.p2align	4, 0x90
LBB10_114:
	cmpq	%rsi, %rcx
	jbe	LBB10_4
	movzbl	(%r8,%rsi), %edx
	cmpb	$95, %dl
	je	LBB10_126
	leal	-48(%rdx), %ebx
	cmpb	$10, %bl
	jb	LBB10_124
	leal	-97(%rdx), %ebx
	cmpb	$26, %bl
	jae	LBB10_118
	addb	$-87, %dl
	jmp	LBB10_123
LBB10_118:
	leal	-65(%rdx), %ebx
	cmpb	$26, %bl
	jae	LBB10_4
	addb	$-29, %dl
LBB10_123:
	movl	%edx, %ebx
LBB10_124:
	incq	%rsi
	movq	%rsi, (%r15)
	mulq	%r9
	jo	LBB10_4
	movzbl	%bl, %edx
	addq	%rdx, %rax
	jae	LBB10_114
	jmp	LBB10_4
LBB10_9:
	xorl	%eax, %eax
	movl	$62, %r9d
LBB10_10:
	cmpq	%rsi, %rcx
	jbe	LBB10_4
	movzbl	(%r8,%rsi), %edx
	cmpb	$95, %dl
	je	LBB10_22
	leal	-48(%rdx), %edi
	cmpb	$10, %dil
	jb	LBB10_20
	leal	-97(%rdx), %edi
	cmpb	$26, %dil
	jae	LBB10_14
	addb	$-87, %dl
	jmp	LBB10_19
LBB10_14:
	leal	-65(%rdx), %edi
	cmpb	$26, %dil
	jae	LBB10_4
	addb	$-29, %dl
LBB10_19:
	movl	%edx, %edi
LBB10_20:
	incq	%rsi
	movq	%rsi, (%r15)
	mulq	%r9
	jo	LBB10_4
	movzbl	%dil, %edx
	addq	%rdx, %rax
	jae	LBB10_10
	jmp	LBB10_4
LBB10_50:
	xorl	%eax, %eax
	movl	$62, %r9d
LBB10_51:
	cmpq	%rsi, %rcx
	jbe	LBB10_4
	movzbl	(%r8,%rsi), %edx
	cmpb	$95, %dl
	je	LBB10_63
	leal	-48(%rdx), %edi
	cmpb	$10, %dil
	jb	LBB10_61
	leal	-97(%rdx), %edi
	cmpb	$26, %dil
	jae	LBB10_55
	addb	$-87, %dl
	jmp	LBB10_60
LBB10_55:
	leal	-65(%rdx), %edi
	cmpb	$26, %dil
	jae	LBB10_4
	addb	$-29, %dl
LBB10_60:
	movl	%edx, %edi
LBB10_61:
	incq	%rsi
	movq	%rsi, (%r15)
	mulq	%r9
	jo	LBB10_4
	movzbl	%dil, %edx
	addq	%rdx, %rax
	jae	LBB10_51
	jmp	LBB10_4
LBB10_70:
	xorl	%eax, %eax
	movl	$62, %r9d
LBB10_71:
	cmpq	%rsi, %rcx
	jbe	LBB10_4
	movzbl	(%r8,%rsi), %edx
	cmpb	$95, %dl
	je	LBB10_83
	leal	-48(%rdx), %edi
	cmpb	$10, %dil
	jb	LBB10_81
	leal	-97(%rdx), %edi
	cmpb	$26, %dil
	jae	LBB10_75
	addb	$-87, %dl
	jmp	LBB10_80
LBB10_75:
	leal	-65(%rdx), %edi
	cmpb	$26, %dil
	jae	LBB10_4
	addb	$-29, %dl
LBB10_80:
	movl	%edx, %edi
LBB10_81:
	incq	%rsi
	movq	%rsi, (%r15)
	mulq	%r9
	jo	LBB10_4
	movzbl	%dil, %edx
	addq	%rdx, %rax
	jae	LBB10_71
	jmp	LBB10_4
LBB10_126:
	incq	%rsi
	movq	%rsi, (%r15)
	incq	%rax
	je	LBB10_4
LBB10_127:
	cmpq	%rdi, %rax
	setae	%al
	jmp	LBB10_5
LBB10_22:
	incq	%rsi
	movq	%rsi, (%r15)
	incq	%rax
	je	LBB10_4
LBB10_24:
	cmpq	$-1, %rax
	je	LBB10_4
LBB10_25:
	leaq	-64(%rbp), %rdi
	movq	%rbx, %rsi
	callq	__ZN14rustc_demangle2v06Parser5ident17h0406b9e9daac4738E
	cmpq	$0, -64(%rbp)
	sete	%r14b
	jmp	LBB10_4
LBB10_83:
	incq	%rsi
	movq	%rsi, (%r15)
	incq	%rax
	je	LBB10_4
	cmpq	$-1, %rax
	je	LBB10_4
LBB10_85:
	movq	%rbx, %rdi
	callq	__ZN14rustc_demangle2v06Parser9skip_path17h6f24ebac8b1b1d94E
	testb	%al, %al
	jne	LBB10_4
LBB10_86:
	movq	%rbx, %rdi
	callq	__ZN14rustc_demangle2v06Parser9skip_type17hd46b3425e8c3317cE
	testb	%al, %al
	jne	LBB10_4
	movq	%rbx, %rdi
	addq	$32, %rsp
	popq	%rbx
	popq	%r12
	popq	%r14
	popq	%r15
	popq	%rbp
	jmp	__ZN14rustc_demangle2v06Parser9skip_path17h6f24ebac8b1b1d94E
LBB10_63:
	incq	%rsi
	movq	%rsi, (%r15)
	incq	%rax
	je	LBB10_4
	cmpq	$-1, %rax
	je	LBB10_4
LBB10_65:
	movq	%rbx, %rdi
	callq	__ZN14rustc_demangle2v06Parser9skip_path17h6f24ebac8b1b1d94E
	testb	%al, %al
	je	LBB10_66
LBB10_4:
	movl	%r14d, %eax
LBB10_5:
	addq	$32, %rsp
	popq	%rbx
	popq	%r12
	popq	%r14
	popq	%r15
	popq	%rbp
	retq
LBB10_66:
	movq	%rbx, %rdi
	addq	$32, %rsp
	popq	%rbx
	popq	%r12
	popq	%r14
	popq	%r15
	popq	%rbp
	jmp	__ZN14rustc_demangle2v06Parser9skip_type17hd46b3425e8c3317cE
LBB10_92:
	incq	%rax
	movq	%rax, (%r15)
	xorl	%r14d, %r14d
	jmp	LBB10_4
LBB10_33:
	xorl	%eax, %eax
	movl	$62, %r8d
LBB10_34:
	cmpq	%rdi, %rcx
	jbe	LBB10_4
	movzbl	(%r9,%rdi), %edx
	cmpb	$95, %dl
	je	LBB10_46
	leal	-48(%rdx), %esi
	cmpb	$10, %sil
	jb	LBB10_44
	leal	-97(%rdx), %esi
	cmpb	$26, %sil
	jae	LBB10_38
	addb	$-87, %dl
	jmp	LBB10_43
LBB10_38:
	leal	-65(%rdx), %esi
	cmpb	$26, %sil
	jae	LBB10_4
	addb	$-29, %dl
LBB10_43:
	movl	%edx, %esi
LBB10_44:
	incq	%rdi
	movq	%rdi, (%r15)
	mulq	%r8
	jo	LBB10_4
	movzbl	%sil, %edx
	addq	%rdx, %rax
	jae	LBB10_34
	jmp	LBB10_4
LBB10_46:
	incq	%rdi
	movq	%rdi, (%r15)
	incq	%rax
	jne	LBB10_24
	jmp	LBB10_4
	.cfi_endproc
	.p2align	2, 0x90
	.data_region jt32
.set L10_0_set_112, LBB10_112-LJTI10_0
.set L10_0_set_6, LBB10_6-LJTI10_0
.set L10_0_set_4, LBB10_4-LJTI10_0
.set L10_0_set_88, LBB10_88-LJTI10_0
.set L10_0_set_47, LBB10_47-LJTI10_0
.set L10_0_set_26, LBB10_26-LJTI10_0
.set L10_0_set_67, LBB10_67-LJTI10_0
.set L10_0_set_86, LBB10_86-LJTI10_0
LJTI10_0:
	.long	L10_0_set_112
	.long	L10_0_set_6
	.long	L10_0_set_4
	.long	L10_0_set_4
	.long	L10_0_set_4
	.long	L10_0_set_4
	.long	L10_0_set_4
	.long	L10_0_set_88
	.long	L10_0_set_4
	.long	L10_0_set_4
	.long	L10_0_set_4
	.long	L10_0_set_47
	.long	L10_0_set_26
	.long	L10_0_set_4
	.long	L10_0_set_4
	.long	L10_0_set_4
	.long	L10_0_set_4
	.long	L10_0_set_4
	.long	L10_0_set_4
	.long	L10_0_set_4
	.long	L10_0_set_4
	.long	L10_0_set_4
	.long	L10_0_set_67
	.long	L10_0_set_86
	.end_data_region

	.p2align	4, 0x90
__ZN14rustc_demangle2v06Parser9skip_type17hd46b3425e8c3317cE:
	.cfi_startproc
	pushq	%rbp
	.cfi_def_cfa_offset 16
	.cfi_offset %rbp, -16
	movq	%rsp, %rbp
	.cfi_def_cfa_register %rbp
	pushq	%r15
	pushq	%r14
	pushq	%rbx
	subq	$40, %rsp
	.cfi_offset %rbx, -40
	.cfi_offset %r14, -32
	.cfi_offset %r15, -24
	movq	%rdi, %rbx
	movq	8(%rdi), %r9
	movq	16(%rdi), %rdi
	cmpq	%rdi, %r9
	jbe	LBB11_1
	leaq	1(%rdi), %rsi
	movq	(%rbx), %r8
	movb	(%r8,%rdi), %cl
	movq	%rsi, 16(%rbx)
	addb	$-65, %cl
	cmpb	$57, %cl
	ja	LBB11_126
	leaq	16(%rbx), %r15
	xorl	%eax, %eax
	movzbl	%cl, %ecx
	leaq	LJTI11_0(%rip), %rdx
	movslq	(%rdx,%rcx,4), %rcx
	addq	%rdx, %rcx
	jmpq	*%rcx
LBB11_6:
	cmpq	%rsi, %r9
	jbe	LBB11_23
	cmpb	$76, (%r8,%rsi)
	jne	LBB11_23
	leaq	2(%rdi), %rsi
	movq	%rsi, (%r15)
	cmpq	%rsi, %r9
	jbe	LBB11_9
	cmpb	$95, (%r8,%rsi)
	jne	LBB11_9
	addq	$3, %rdi
	movq	%rdi, (%r15)
	jmp	LBB11_23
	.p2align	4, 0x90
LBB11_26:
	movq	%rbx, %rdi
	callq	__ZN14rustc_demangle2v06Parser9skip_type17hd46b3425e8c3317cE
	testb	%al, %al
	jne	LBB11_1
	movq	8(%rbx), %r9
	movq	16(%rbx), %rsi
LBB11_28:
	cmpq	%rsi, %r9
	jbe	LBB11_26
	movq	(%rbx), %rax
	cmpb	$69, (%rax,%rsi)
	jne	LBB11_26
	incq	%rsi
LBB11_31:
	movq	%rsi, (%r15)
	xorl	%eax, %eax
	jmp	LBB11_2
LBB11_24:
	movq	%rbx, %rdi
	callq	__ZN14rustc_demangle2v06Parser9skip_type17hd46b3425e8c3317cE
	movl	%eax, %ecx
	movb	$1, %al
	testb	%cl, %cl
	jne	LBB11_2
	movq	%rbx, %rdi
	addq	$40, %rsp
	popq	%rbx
	popq	%r14
	popq	%r15
	popq	%rbp
	jmp	__ZN14rustc_demangle2v06Parser10skip_const17he2729d195b5575fdE
LBB11_110:
	cmpq	%rsi, %r9
	jbe	LBB11_111
	cmpb	$95, (%r8,%rsi)
	jne	LBB11_111
	leaq	2(%rdi), %rax
	movq	%rax, (%r15)
	xorl	%ecx, %ecx
	jmp	LBB11_125
LBB11_126:
	movq	%rdi, 16(%rbx)
	movq	%rbx, %rdi
	addq	$40, %rsp
	popq	%rbx
	popq	%r14
	popq	%r15
	popq	%rbp
	jmp	__ZN14rustc_demangle2v06Parser9skip_path17h6f24ebac8b1b1d94E
LBB11_65:
	cmpq	%rsi, %r9
	jbe	LBB11_77
	cmpb	$71, (%r8,%rsi)
	jne	LBB11_77
	leaq	2(%rdi), %rsi
	movq	%rsi, (%r15)
	cmpq	%rsi, %r9
	jbe	LBB11_68
	cmpb	$95, (%r8,%rsi)
	jne	LBB11_68
	addq	$3, %rdi
	movq	%rdi, (%r15)
	movq	%rdi, %rsi
	jmp	LBB11_77
LBB11_32:
	cmpq	%rsi, %r9
	jbe	LBB11_44
	cmpb	$71, (%r8,%rsi)
	jne	LBB11_44
	leaq	2(%rdi), %rsi
	movq	%rsi, (%r15)
	cmpq	%rsi, %r9
	jbe	LBB11_35
	cmpb	$95, (%r8,%rsi)
	jne	LBB11_35
	addq	$3, %rdi
	movq	%rdi, (%r15)
	movq	%rdi, %rsi
	jmp	LBB11_44
LBB11_111:
	xorl	%ecx, %ecx
	movl	$62, %r10d
LBB11_112:
	cmpq	%rsi, %r9
	jbe	LBB11_1
	movzbl	(%r8,%rsi), %eax
	cmpb	$95, %al
	je	LBB11_124
	leal	-48(%rax), %ebx
	cmpb	$10, %bl
	jb	LBB11_122
	leal	-97(%rax), %edx
	cmpb	$26, %dl
	jae	LBB11_116
	addb	$-87, %al
	jmp	LBB11_121
LBB11_116:
	leal	-65(%rax), %edx
	cmpb	$26, %dl
	jae	LBB11_1
	addb	$-29, %al
LBB11_121:
	movl	%eax, %ebx
LBB11_122:
	incq	%rsi
	movq	%rsi, (%r15)
	movq	%rcx, %rax
	mulq	%r10
	jo	LBB11_1
	movq	%rax, %rcx
	movzbl	%bl, %eax
	addq	%rax, %rcx
	jae	LBB11_112
	jmp	LBB11_1
LBB11_9:
	xorl	%ecx, %ecx
	movl	$62, %r10d
LBB11_10:
	cmpq	%rsi, %r9
	jbe	LBB11_1
	movzbl	(%r8,%rsi), %eax
	cmpb	$95, %al
	je	LBB11_22
	leal	-48(%rax), %edi
	cmpb	$10, %dil
	jb	LBB11_20
	leal	-97(%rax), %edx
	cmpb	$26, %dl
	jae	LBB11_14
	addb	$-87, %al
	jmp	LBB11_19
LBB11_14:
	leal	-65(%rax), %edx
	cmpb	$26, %dl
	jae	LBB11_1
	addb	$-29, %al
LBB11_19:
	movl	%eax, %edi
LBB11_20:
	incq	%rsi
	movq	%rsi, (%r15)
	movq	%rcx, %rax
	mulq	%r10
	jo	LBB11_1
	movq	%rax, %rcx
	movzbl	%dil, %eax
	addq	%rax, %rcx
	jae	LBB11_10
	jmp	LBB11_1
LBB11_68:
	xorl	%eax, %eax
	movl	$62, %ecx
LBB11_69:
	cmpq	%rsi, %r9
	jbe	LBB11_1
	movzbl	(%r8,%rsi), %edx
	cmpb	$95, %dl
	je	LBB11_94
	leal	-48(%rdx), %edi
	cmpb	$10, %dil
	jb	LBB11_92
	leal	-97(%rdx), %edi
	cmpb	$26, %dil
	jae	LBB11_73
	addb	$-87, %dl
	jmp	LBB11_91
LBB11_73:
	leal	-65(%rdx), %edi
	cmpb	$26, %dil
	jae	LBB11_1
	addb	$-29, %dl
LBB11_91:
	movl	%edx, %edi
LBB11_92:
	incq	%rsi
	movq	%rsi, (%r15)
	mulq	%rcx
	jo	LBB11_1
	movzbl	%dil, %edx
	addq	%rdx, %rax
	jae	LBB11_69
	jmp	LBB11_1
LBB11_35:
	xorl	%eax, %eax
	movl	$62, %ecx
LBB11_36:
	cmpq	%rsi, %r9
	jbe	LBB11_1
	movzbl	(%r8,%rsi), %edx
	cmpb	$95, %dl
	je	LBB11_59
	leal	-48(%rdx), %edi
	cmpb	$10, %dil
	jb	LBB11_57
	leal	-97(%rdx), %edi
	cmpb	$26, %dil
	jae	LBB11_40
	addb	$-87, %dl
	jmp	LBB11_56
LBB11_40:
	leal	-65(%rdx), %edi
	cmpb	$26, %dil
	jae	LBB11_1
	addb	$-29, %dl
LBB11_56:
	movl	%edx, %edi
LBB11_57:
	incq	%rsi
	movq	%rsi, (%r15)
	mulq	%rcx
	jo	LBB11_1
	movzbl	%dil, %edx
	addq	%rdx, %rax
	jae	LBB11_36
	jmp	LBB11_1
LBB11_124:
	incq	%rsi
	movq	%rsi, (%r15)
	movb	$1, %al
	incq	%rcx
	je	LBB11_2
LBB11_125:
	cmpq	%rdi, %rcx
	setae	%al
	jmp	LBB11_3
LBB11_22:
	incq	%rsi
	movq	%rsi, (%r15)
	movb	$1, %al
	cmpq	$-1, %rcx
	jne	LBB11_23
	jmp	LBB11_2
LBB11_94:
	incq	%rsi
	movq	%rsi, (%r15)
	incq	%rax
	je	LBB11_1
	cmpq	$-1, %rax
	je	LBB11_1
LBB11_77:
	leaq	-56(%rbp), %r14
LBB11_78:
	cmpq	%rsi, %r9
	jbe	LBB11_96
	movq	(%rbx), %rcx
	cmpb	$69, (%rcx,%rsi)
	je	LBB11_80
LBB11_96:
	movq	%rbx, %rdi
	callq	__ZN14rustc_demangle2v06Parser9skip_path17h6f24ebac8b1b1d94E
	testb	%al, %al
	jne	LBB11_1
	.p2align	4, 0x90
LBB11_98:
	movq	8(%rbx), %r9
	movq	16(%rbx), %rsi
	cmpq	%rsi, %r9
	jbe	LBB11_78
	movq	(%rbx), %rax
	cmpb	$112, (%rax,%rsi)
	jne	LBB11_78
	incq	%rsi
	movq	%rsi, 16(%rbx)
	movq	%r14, %rdi
	movq	%rbx, %rsi
	callq	__ZN14rustc_demangle2v06Parser5ident17h0406b9e9daac4738E
	cmpq	$0, -56(%rbp)
	je	LBB11_1
	movq	%rbx, %rdi
	callq	__ZN14rustc_demangle2v06Parser9skip_type17hd46b3425e8c3317cE
	testb	%al, %al
	je	LBB11_98
LBB11_1:
	movb	$1, %al
LBB11_2:
LBB11_3:
	addq	$40, %rsp
	popq	%rbx
	popq	%r14
	popq	%r15
	popq	%rbp
	retq
LBB11_59:
	incq	%rsi
	movq	%rsi, (%r15)
	incq	%rax
	je	LBB11_1
	cmpq	$-1, %rax
	je	LBB11_1
LBB11_44:
	cmpq	%rsi, %r9
	jbe	LBB11_47
	cmpb	$85, (%r8,%rsi)
	jne	LBB11_47
	incq	%rsi
	movq	%rsi, (%r15)
LBB11_47:
	cmpq	%rsi, %r9
	jbe	LBB11_52
	cmpb	$75, (%r8,%rsi)
	jne	LBB11_52
	leaq	1(%rsi), %rax
	movq	%rax, (%r15)
	cmpq	%rax, %r9
	jbe	LBB11_61
	cmpb	$67, (%r8,%rax)
	jne	LBB11_61
	addq	$2, %rsi
	movq	%rsi, (%r15)
	jmp	LBB11_52
LBB11_61:
	leaq	-56(%rbp), %rdi
	movq	%rbx, %rsi
	callq	__ZN14rustc_demangle2v06Parser5ident17h0406b9e9daac4738E
	cmpq	$0, -56(%rbp)
	je	LBB11_1
	cmpq	$0, -48(%rbp)
	je	LBB11_1
	cmpq	$0, -32(%rbp)
	jne	LBB11_1
	jmp	LBB11_52
	.p2align	4, 0x90
LBB11_64:
	movq	%rbx, %rdi
	callq	__ZN14rustc_demangle2v06Parser9skip_type17hd46b3425e8c3317cE
	testb	%al, %al
	jne	LBB11_1
LBB11_52:
	movq	16(%rbx), %rax
	cmpq	%rax, 8(%rbx)
	jbe	LBB11_64
	movq	(%rbx), %rcx
	cmpb	$69, (%rcx,%rax)
	jne	LBB11_64
	incq	%rax
	movq	%rax, 16(%rbx)
LBB11_23:
	movq	%rbx, %rdi
	addq	$40, %rsp
	popq	%rbx
	popq	%r14
	popq	%r15
	popq	%rbp
	jmp	__ZN14rustc_demangle2v06Parser9skip_type17hd46b3425e8c3317cE
LBB11_80:
	leaq	1(%rsi), %rax
	movq	%rax, (%r15)
	cmpq	%rax, %r9
	jbe	LBB11_1
	cmpb	$76, (%rcx,%rax)
	jne	LBB11_1
	leaq	2(%rsi), %rdi
	movq	%rdi, (%r15)
	cmpq	%rdi, %r9
	jbe	LBB11_83
	cmpb	$95, (%rcx,%rdi)
	jne	LBB11_83
	addq	$3, %rsi
	jmp	LBB11_31
LBB11_83:
	xorl	%eax, %eax
	movl	$62, %esi
LBB11_84:
	cmpq	%rdi, %r9
	jbe	LBB11_1
	movzbl	(%rcx,%rdi), %edx
	cmpb	$95, %dl
	je	LBB11_108
	leal	-48(%rdx), %ebx
	cmpb	$10, %bl
	jb	LBB11_106
	leal	-97(%rdx), %ebx
	cmpb	$26, %bl
	jae	LBB11_88
	addb	$-87, %dl
	jmp	LBB11_105
LBB11_88:
	leal	-65(%rdx), %ebx
	cmpb	$26, %bl
	jae	LBB11_1
	addb	$-29, %dl
LBB11_105:
	movl	%edx, %ebx
LBB11_106:
	incq	%rdi
	movq	%rdi, (%r15)
	mulq	%rsi
	jo	LBB11_1
	movzbl	%bl, %edx
	addq	%rdx, %rax
	jae	LBB11_84
	jmp	LBB11_1
LBB11_108:
	incq	%rdi
	movq	%rdi, (%r15)
	cmpq	$-1, %rax
	je	LBB11_1
	xorl	%eax, %eax
	jmp	LBB11_2
	.cfi_endproc
	.p2align	2, 0x90
	.data_region jt32
.set L11_0_set_24, LBB11_24-LJTI11_0
.set L11_0_set_110, LBB11_110-LJTI11_0
.set L11_0_set_126, LBB11_126-LJTI11_0
.set L11_0_set_65, LBB11_65-LJTI11_0
.set L11_0_set_32, LBB11_32-LJTI11_0
.set L11_0_set_23, LBB11_23-LJTI11_0
.set L11_0_set_6, LBB11_6-LJTI11_0
.set L11_0_set_28, LBB11_28-LJTI11_0
.set L11_0_set_2, LBB11_2-LJTI11_0
LJTI11_0:
	.long	L11_0_set_24
	.long	L11_0_set_110
	.long	L11_0_set_126
	.long	L11_0_set_65
	.long	L11_0_set_126
	.long	L11_0_set_32
	.long	L11_0_set_126
	.long	L11_0_set_126
	.long	L11_0_set_126
	.long	L11_0_set_126
	.long	L11_0_set_126
	.long	L11_0_set_126
	.long	L11_0_set_126
	.long	L11_0_set_126
	.long	L11_0_set_23
	.long	L11_0_set_23
	.long	L11_0_set_6
	.long	L11_0_set_6
	.long	L11_0_set_23
	.long	L11_0_set_28
	.long	L11_0_set_126
	.long	L11_0_set_126
	.long	L11_0_set_126
	.long	L11_0_set_126
	.long	L11_0_set_126
	.long	L11_0_set_126
	.long	L11_0_set_126
	.long	L11_0_set_126
	.long	L11_0_set_126
	.long	L11_0_set_126
	.long	L11_0_set_126
	.long	L11_0_set_126
	.long	L11_0_set_2
	.long	L11_0_set_2
	.long	L11_0_set_2
	.long	L11_0_set_2
	.long	L11_0_set_2
	.long	L11_0_set_2
	.long	L11_0_set_126
	.long	L11_0_set_2
	.long	L11_0_set_2
	.long	L11_0_set_2
	.long	L11_0_set_126
	.long	L11_0_set_2
	.long	L11_0_set_2
	.long	L11_0_set_2
	.long	L11_0_set_2
	.long	L11_0_set_2
	.long	L11_0_set_126
	.long	L11_0_set_126
	.long	L11_0_set_2
	.long	L11_0_set_2
	.long	L11_0_set_2
	.long	L11_0_set_2
	.long	L11_0_set_126
	.long	L11_0_set_2
	.long	L11_0_set_2
	.long	L11_0_set_2
	.end_data_region

	.p2align	4, 0x90
__ZN14rustc_demangle2v06Parser10skip_const17he2729d195b5575fdE:
	.cfi_startproc
	pushq	%rbp
	.cfi_def_cfa_offset 16
	.cfi_offset %rbp, -16
	movq	%rsp, %rbp
	.cfi_def_cfa_register %rbp
	pushq	%rbx
	subq	$56, %rsp
	.cfi_offset %rbx, -24
	movq	8(%rdi), %rcx
	movq	16(%rdi), %r9
	movb	$1, %r8b
	cmpq	%r9, %rcx
	jbe	LBB12_33
	movq	(%rdi), %r10
	leaq	1(%r9), %rsi
	cmpb	$66, (%r10,%r9)
	jne	LBB12_5
	movq	%rsi, 16(%rdi)
	cmpq	%rsi, %rcx
	jbe	LBB12_21
	cmpb	$95, (%r10,%rsi)
	jne	LBB12_21
	leaq	2(%r9), %rax
	movq	%rax, 16(%rdi)
	xorl	%eax, %eax
	jmp	LBB12_34
LBB12_5:
	movq	(%rdi), %r10
	movb	(%r10,%r9), %al
	movq	%rsi, 16(%rdi)
	addb	$-104, %al
	cmpb	$17, %al
	ja	LBB12_33
	movzbl	%al, %eax
	movl	$135333, %edx
	btq	%rax, %rdx
	jae	LBB12_33
	movq	%rsi, %rdx
	cmpq	%rsi, %rcx
	jbe	LBB12_10
	cmpb	$112, (%r10,%rsi)
	movq	%rsi, %rdx
	jne	LBB12_10
	addq	$2, %r9
	movq	%r9, 16(%rdi)
	jmp	LBB12_20
	.p2align	4, 0x90
LBB12_10:
	cmpq	%rdx, %rcx
	jbe	LBB12_33
	movzbl	(%r10,%rdx), %eax
	incq	%rdx
	movq	%rdx, 16(%rdi)
	leal	-48(%rax), %ebx
	cmpb	$10, %bl
	jb	LBB12_10
	leal	-97(%rax), %ebx
	cmpb	$6, %bl
	jb	LBB12_10
	cmpb	$95, %al
	jne	LBB12_33
	leaq	-1(%rdx), %rax
	movq	%r10, -40(%rbp)
	movq	%rcx, -32(%rbp)
	movq	%rsi, -16(%rbp)
	movq	%rax, -24(%rbp)
	cmpq	%r9, %rax
	jbe	LBB12_35
	cmpq	%rsi, %rcx
	je	LBB12_18
	jbe	LBB12_35
	cmpb	$-65, (%r10,%rsi)
	jle	LBB12_35
LBB12_18:
	movq	%rdx, %rax
	subq	%rcx, %rax
	cmpq	$1, %rax
	je	LBB12_20
	cmpb	$-65, -1(%r10,%rdx)
	jle	LBB12_35
LBB12_20:
	xorl	%r8d, %r8d
	jmp	LBB12_33
LBB12_21:
	xorl	%eax, %eax
	movl	$62, %r11d
	.p2align	4, 0x90
LBB12_22:
	cmpq	%rsi, %rcx
	jbe	LBB12_33
	movzbl	(%r10,%rsi), %edx
	cmpb	$95, %dl
	je	LBB12_32
	leal	-48(%rdx), %ebx
	cmpb	$10, %bl
	jb	LBB12_30
	leal	-97(%rdx), %ebx
	cmpb	$26, %bl
	jae	LBB12_27
	addb	$-87, %dl
	jmp	LBB12_29
	.p2align	4, 0x90
LBB12_27:
	leal	-65(%rdx), %ebx
	cmpb	$26, %bl
	jae	LBB12_33
	addb	$-29, %dl
LBB12_29:
	movl	%edx, %ebx
LBB12_30:
	incq	%rsi
	movq	%rsi, 16(%rdi)
	mulq	%r11
	jo	LBB12_33
	movzbl	%bl, %edx
	addq	%rdx, %rax
	jae	LBB12_22
	jmp	LBB12_33
LBB12_32:
	incq	%rsi
	movq	%rsi, 16(%rdi)
	incq	%rax
	jne	LBB12_34
LBB12_33:
	movl	%r8d, %eax
	addq	$56, %rsp
	popq	%rbx
	popq	%rbp
	retq
LBB12_34:
	cmpq	%r9, %rax
	setae	%al
	addq	$56, %rsp
	popq	%rbx
	popq	%rbp
	retq
LBB12_35:
	leaq	-40(%rbp), %rax
	movq	%rax, -64(%rbp)
	leaq	-16(%rbp), %rax
	movq	%rax, -56(%rbp)
	leaq	-24(%rbp), %rax
	movq	%rax, -48(%rbp)
	leaq	-64(%rbp), %rdi
	callq	__ZN4core3str6traits101_$LT$impl$u20$core..slice..SliceIndex$LT$str$GT$$u20$for$u20$core..ops..range..Range$LT$usize$GT$$GT$5index28_$u7b$$u7b$closure$u7d$$u7d$17hd04499129f2d597eE
	.cfi_endproc

	.p2align	4, 0x90
__ZN14rustc_demangle2v07Printer15backref_printer17h82ef6fc318e822efE:
	.cfi_startproc
	pushq	%rbp
	.cfi_def_cfa_offset 16
	.cfi_offset %rbp, -16
	movq	%rsp, %rbp
	.cfi_def_cfa_register %rbp
	pushq	%r15
	pushq	%r14
	pushq	%rbx
	pushq	%rax
	.cfi_offset %rbx, -40
	.cfi_offset %r14, -32
	.cfi_offset %r15, -24
	movq	(%rsi), %r15
	testq	%r15, %r15
	cmovneq	%rsi, %r15
	je	LBB13_1
	movq	16(%r15), %rbx
	movq	%rbx, %r9
	subq	$1, %r9
	jb	LBB13_21
	movq	(%r15), %r10
	movq	8(%r15), %r11
	cmpq	%rbx, %r11
	jbe	LBB13_4
	cmpb	$95, (%r10,%rbx)
	jne	LBB13_4
	incq	%rbx
	movq	%rbx, 16(%r15)
	xorl	%eax, %eax
	jmp	LBB13_18
LBB13_4:
	xorl	%r8d, %r8d
	movl	$62, %r14d
	xorl	%eax, %eax
	.p2align	4, 0x90
LBB13_5:
	cmpq	%rbx, %r11
	jbe	LBB13_6
	movzbl	(%r10,%rbx), %edx
	cmpb	$95, %dl
	je	LBB13_17
	leal	-48(%rdx), %ecx
	cmpb	$10, %cl
	jb	LBB13_15
	leal	-97(%rdx), %ecx
	cmpb	$26, %cl
	jae	LBB13_12
	addb	$-87, %dl
	jmp	LBB13_14
	.p2align	4, 0x90
LBB13_12:
	leal	-65(%rdx), %ecx
	cmpb	$26, %cl
	jae	LBB13_6
	addb	$-29, %dl
LBB13_14:
	movl	%edx, %ecx
LBB13_15:
	incq	%rbx
	movq	%rbx, 16(%r15)
	mulq	%r14
	jo	LBB13_6
	movzbl	%cl, %ecx
	addq	%rcx, %rax
	jae	LBB13_5
LBB13_6:
	jmp	LBB13_19
LBB13_17:
	incq	%rbx
	movq	%rbx, 16(%r15)
	incq	%rax
	jne	LBB13_18
LBB13_1:
	xorl	%r8d, %r8d
	jmp	LBB13_19
LBB13_18:
	xorl	%r8d, %r8d
	cmpq	%r9, %rax
	cmovbq	%r10, %r8
LBB13_19:
	movq	24(%rsi), %rcx
	movl	32(%rsi), %edx
	movq	%r8, (%rdi)
	movq	%r11, 8(%rdi)
	movq	%rax, 16(%rdi)
	movq	%rcx, 24(%rdi)
	movl	%edx, 32(%rdi)
	addq	$8, %rsp
	popq	%rbx
	popq	%r14
	popq	%r15
	popq	%rbp
	retq
LBB13_21:
	leaq	_str.1(%rip), %rdi
	leaq	l___unnamed_45(%rip), %rdx
	movl	$33, %esi
	callq	__ZN4core9panicking5panic17h383a6b80ea7021aaE
	.cfi_endproc

	.p2align	4, 0x90
__ZN14rustc_demangle2v07Printer25print_lifetime_from_index17hed0afc7b3aea7f4bE:
	.cfi_startproc
	pushq	%rbp
	.cfi_def_cfa_offset 16
	.cfi_offset %rbp, -16
	movq	%rsp, %rbp
	.cfi_def_cfa_register %rbp
	pushq	%r15
	pushq	%r14
	pushq	%rbx
	subq	$24, %rsp
	.cfi_offset %rbx, -40
	.cfi_offset %r14, -32
	.cfi_offset %r15, -24
	movq	%rsi, %r15
	movq	%rdi, %rbx
	movq	24(%rdi), %rdi
	leaq	l___unnamed_46(%rip), %rsi
	movl	$1, %edx
	callq	__ZN4core3fmt9Formatter9write_str17h98e119ad25a8903eE
	movb	$1, %r14b
	testb	%al, %al
	je	LBB14_1
LBB14_11:
	movl	%r14d, %eax
	addq	$24, %rsp
	popq	%rbx
	popq	%r14
	popq	%r15
	popq	%rbp
	retq
LBB14_1:
	testq	%r15, %r15
	je	LBB14_4
	movl	32(%rbx), %eax
	subq	%r15, %rax
	jae	LBB14_6
	movq	$0, (%rbx)
	movq	24(%rbx), %rdi
	leaq	l___unnamed_47(%rip), %rsi
	jmp	LBB14_5
LBB14_4:
	movq	24(%rbx), %rdi
	leaq	l___unnamed_48(%rip), %rsi
LBB14_5:
	movl	$1, %edx
	addq	$24, %rsp
	popq	%rbx
	popq	%r14
	popq	%r15
	popq	%rbp
	jmp	__ZN4core3fmt9Formatter9write_str17h98e119ad25a8903eE
LBB14_6:
	movq	%rax, -40(%rbp)
	cmpq	$26, %rax
	jae	LBB14_7
	addl	$97, %eax
	movl	%eax, -28(%rbp)
	movq	24(%rbx), %rsi
	leaq	-28(%rbp), %rdi
	callq	__ZN43_$LT$char$u20$as$u20$core..fmt..Display$GT$3fmt17haf02f59875f30dd3E
	jmp	LBB14_10
LBB14_7:
	movq	24(%rbx), %rdi
	leaq	l___unnamed_48(%rip), %rsi
	movl	$1, %edx
	callq	__ZN4core3fmt9Formatter9write_str17h98e119ad25a8903eE
	testb	%al, %al
	jne	LBB14_11
	movq	24(%rbx), %rsi
	leaq	-40(%rbp), %rdi
	callq	__ZN4core3fmt3num3imp52_$LT$impl$u20$core..fmt..Display$u20$for$u20$u64$GT$3fmt17h3230c9bc78e30ed1E
LBB14_10:
	movl	%eax, %r14d
	jmp	LBB14_11
	.cfi_endproc

	.p2align	4, 0x90
__ZN14rustc_demangle2v07Printer10print_path17hd7744b8986b06fb9E:
	.cfi_startproc
	pushq	%rbp
	.cfi_def_cfa_offset 16
	.cfi_offset %rbp, -16
	movq	%rsp, %rbp
	.cfi_def_cfa_register %rbp
	pushq	%r15
	pushq	%r14
	pushq	%r12
	pushq	%rbx
	subq	$80, %rsp
	.cfi_offset %rbx, -48
	.cfi_offset %r12, -40
	.cfi_offset %r14, -32
	.cfi_offset %r15, -24
	movq	%rdi, %r15
	movq	(%rdi), %rax
	testq	%rax, %rax
	cmovneq	%rdi, %rax
	je	LBB15_76
	movq	16(%rax), %rcx
	cmpq	%rcx, 8(%rax)
	jbe	LBB15_76
	movq	(%rax), %rdx
	movb	(%rdx,%rcx), %r12b
	incq	%rcx
	movq	%rcx, 16(%rax)
	leal	-66(%r12), %eax
	cmpb	$23, %al
	ja	LBB15_76
	movl	%esi, %ebx
	movzbl	%al, %eax
	leaq	LJTI15_0(%rip), %rcx
	movslq	(%rcx,%rax,4), %rax
	addq	%rcx, %rax
	jmpq	*%rax
LBB15_4:
	movq	(%r15), %rcx
	testq	%rcx, %rcx
	cmovneq	%r15, %rcx
	je	LBB15_76
	movq	8(%rcx), %rsi
	movq	16(%rcx), %rax
	cmpq	%rax, %rsi
	jbe	LBB15_74
	movq	(%rcx), %r9
	cmpb	$115, (%r9,%rax)
	jne	LBB15_74
	leaq	1(%rax), %rbx
	movq	%rbx, 16(%rcx)
	cmpq	%rbx, %rsi
	jbe	LBB15_46
	cmpb	$95, (%r9,%rbx)
	jne	LBB15_46
	addq	$2, %rax
	movq	%rax, 16(%rcx)
	jmp	LBB15_74
LBB15_10:
	movq	(%r15), %rcx
	testq	%rcx, %rcx
	cmovneq	%r15, %rcx
	je	LBB15_116
	movq	8(%rcx), %rsi
	movq	16(%rcx), %rax
	cmpq	%rax, %rsi
	jbe	LBB15_41
	movq	(%rcx), %r9
	cmpb	$115, (%r9,%rax)
	jne	LBB15_41
	leaq	1(%rax), %rbx
	movq	%rbx, 16(%rcx)
	cmpq	%rbx, %rsi
	jbe	LBB15_57
	cmpb	$95, (%r9,%rbx)
	jne	LBB15_57
	addq	$2, %rax
	movq	%rax, 16(%rcx)
	xorl	%eax, %eax
	jmp	LBB15_92
LBB15_16:
	leaq	-112(%rbp), %r14
	movq	%r14, %rdi
	movq	%r15, %rsi
	callq	__ZN14rustc_demangle2v07Printer15backref_printer17h82ef6fc318e822efE
	movzbl	%bl, %esi
	movq	%r14, %rdi
	callq	__ZN14rustc_demangle2v07Printer10print_path17hd7744b8986b06fb9E
	jmp	LBB15_117
LBB15_17:
	movq	(%r15), %rax
	testq	%rax, %rax
	cmovneq	%r15, %rax
	je	LBB15_76
	movq	16(%rax), %rcx
	cmpq	%rcx, 8(%rax)
	jbe	LBB15_76
	movq	(%rax), %rdx
	movzbl	(%rdx,%rcx), %r12d
	incq	%rcx
	movq	%rcx, 16(%rax)
	leal	-65(%r12), %eax
	cmpb	$26, %al
	jb	LBB15_21
	addb	$-97, %r12b
	cmpb	$26, %r12b
	movl	$1114112, %r12d
	jae	LBB15_76
LBB15_21:
	movzbl	%bl, %esi
	movq	%r15, %rdi
	callq	__ZN14rustc_demangle2v07Printer10print_path17hd7744b8986b06fb9E
	movb	$1, %r14b
	testb	%al, %al
	jne	LBB15_118
	movq	(%r15), %rcx
	testq	%rcx, %rcx
	cmovneq	%r15, %rcx
	je	LBB15_116
	movq	8(%rcx), %rsi
	movq	16(%rcx), %rax
	cmpq	%rax, %rsi
	jbe	LBB15_83
	movq	(%rcx), %r9
	cmpb	$115, (%r9,%rax)
	jne	LBB15_83
	leaq	1(%rax), %rbx
	movq	%rbx, 16(%rcx)
	cmpq	%rbx, %rsi
	jbe	LBB15_101
	cmpb	$95, (%r9,%rbx)
	jne	LBB15_101
	addq	$2, %rax
	movq	%rax, 16(%rcx)
	xorl	%eax, %eax
	jmp	LBB15_113
LBB15_28:
	movzbl	%bl, %esi
	movq	%r15, %rdi
	callq	__ZN14rustc_demangle2v07Printer10print_path17hd7744b8986b06fb9E
	movb	$1, %r14b
	testb	%al, %al
	jne	LBB15_118
	testb	%bl, %bl
	je	LBB15_31
	movq	24(%r15), %rdi
	leaq	l___unnamed_6(%rip), %rsi
	movl	$2, %edx
	callq	__ZN4core3fmt9Formatter9write_str17h98e119ad25a8903eE
	testb	%al, %al
	jne	LBB15_118
LBB15_31:
	movq	24(%r15), %rdi
	leaq	l___unnamed_14(%rip), %rsi
	movl	$1, %edx
	callq	__ZN4core3fmt9Formatter9write_str17h98e119ad25a8903eE
	testb	%al, %al
	jne	LBB15_118
	cmpq	$0, (%r15)
	je	LBB15_96
	xorl	%ebx, %ebx
	leaq	l___unnamed_49(%rip), %r12
LBB15_34:
	movq	16(%r15), %rax
	cmpq	%rax, 8(%r15)
	jbe	LBB15_36
	movq	(%r15), %rcx
	cmpb	$69, (%rcx,%rax)
	je	LBB15_95
LBB15_36:
	testq	%rbx, %rbx
	je	LBB15_38
	movq	24(%r15), %rdi
	movl	$2, %edx
	movq	%r12, %rsi
	callq	__ZN4core3fmt9Formatter9write_str17h98e119ad25a8903eE
	testb	%al, %al
	jne	LBB15_118
LBB15_38:
	movq	%r15, %rdi
	callq	__ZN14rustc_demangle2v07Printer17print_generic_arg17h4101014709cf2a65E
	testb	%al, %al
	jne	LBB15_118
	incq	%rbx
	je	LBB15_131
	cmpq	$0, (%r15)
	jne	LBB15_34
	jmp	LBB15_96
LBB15_41:
	movq	$0, -40(%rbp)
LBB15_42:
	leaq	-112(%rbp), %rbx
	leaq	-112(%rbp), %rdi
	movq	%r15, %rsi
	callq	__ZN14rustc_demangle2v06Parser5ident17h0406b9e9daac4738E
	cmpq	$0, -112(%rbp)
	je	LBB15_116
	movq	24(%rbx), %rax
	movq	%rax, -48(%rbp)
	movq	16(%rbx), %rax
	movq	%rax, -56(%rbp)
	movq	(%rbx), %rax
	movq	8(%rbx), %rcx
	movq	%rcx, -64(%rbp)
	movq	%rax, -72(%rbp)
	movq	24(%r15), %rsi
	leaq	-72(%rbp), %rdi
	callq	__ZN64_$LT$rustc_demangle..v0..Ident$u20$as$u20$core..fmt..Display$GT$3fmt17ha462a1c7026230b8E
	movb	$1, %r14b
	testb	%al, %al
	jne	LBB15_118
	movq	24(%r15), %rdi
	callq	__ZN4core3fmt9Formatter9alternate17hd77eec28e879e5edE
	testb	%al, %al
	je	LBB15_68
LBB15_45:
	xorl	%r14d, %r14d
	jmp	LBB15_118
LBB15_46:
	xorl	%eax, %eax
	movl	$62, %r8d
LBB15_47:
	cmpq	%rbx, %rsi
	jbe	LBB15_76
	movzbl	(%r9,%rbx), %edx
	cmpb	$95, %dl
	je	LBB15_72
	leal	-48(%rdx), %edi
	cmpb	$10, %dil
	jb	LBB15_55
	leal	-97(%rdx), %edi
	cmpb	$26, %dil
	jae	LBB15_52
	addb	$-87, %dl
	jmp	LBB15_54
LBB15_52:
	leal	-65(%rdx), %edi
	cmpb	$26, %dil
	jae	LBB15_76
	addb	$-29, %dl
LBB15_54:
	movl	%edx, %edi
LBB15_55:
	incq	%rbx
	movq	%rbx, 16(%rcx)
	mulq	%r8
	jo	LBB15_76
	movzbl	%dil, %edx
	addq	%rdx, %rax
	jae	LBB15_47
	jmp	LBB15_76
LBB15_57:
	xorl	%eax, %eax
	movl	$62, %r8d
LBB15_58:
	cmpq	%rbx, %rsi
	jbe	LBB15_116
	movzbl	(%r9,%rbx), %edx
	cmpb	$95, %dl
	je	LBB15_91
	leal	-48(%rdx), %edi
	cmpb	$10, %dil
	jb	LBB15_66
	leal	-97(%rdx), %edi
	cmpb	$26, %dil
	jae	LBB15_63
	addb	$-87, %dl
	jmp	LBB15_65
LBB15_63:
	leal	-65(%rdx), %edi
	cmpb	$26, %dil
	jae	LBB15_116
	addb	$-29, %dl
LBB15_65:
	movl	%edx, %edi
LBB15_66:
	incq	%rbx
	movq	%rbx, 16(%rcx)
	mulq	%r8
	jo	LBB15_116
	movzbl	%dil, %edx
	addq	%rdx, %rax
	jae	LBB15_58
	jmp	LBB15_116
LBB15_68:
	movq	24(%r15), %rdi
	leaq	l___unnamed_50(%rip), %rsi
	movl	$1, %edx
	callq	__ZN4core3fmt9Formatter9write_str17h98e119ad25a8903eE
	testb	%al, %al
	jne	LBB15_71
	movq	24(%r15), %rsi
	leaq	-40(%rbp), %rdi
	callq	__ZN4core3fmt3num53_$LT$impl$u20$core..fmt..LowerHex$u20$for$u20$u64$GT$3fmt17hb1b2554e6a6ce90cE
	testb	%al, %al
	jne	LBB15_71
	movq	24(%r15), %rdi
	leaq	l___unnamed_51(%rip), %rsi
	movl	$1, %edx
	callq	__ZN4core3fmt9Formatter9write_str17h98e119ad25a8903eE
	testb	%al, %al
	je	LBB15_45
	jmp	LBB15_71
LBB15_72:
	incq	%rbx
	movq	%rbx, 16(%rcx)
	incq	%rax
	je	LBB15_76
	cmpq	$-1, %rax
	je	LBB15_76
LBB15_74:
	cmpq	$0, (%r15)
	je	LBB15_76
	movq	%r15, %rdi
	callq	__ZN14rustc_demangle2v06Parser9skip_path17h6f24ebac8b1b1d94E
	testb	%al, %al
	je	LBB15_78
LBB15_76:
	movq	$0, (%r15)
	movq	24(%r15), %rdi
	leaq	l___unnamed_47(%rip), %rsi
LBB15_77:
	movl	$1, %edx
	addq	$80, %rsp
	popq	%rbx
	popq	%r12
	popq	%r14
	popq	%r15
	popq	%rbp
	jmp	__ZN4core3fmt9Formatter9write_str17h98e119ad25a8903eE
LBB15_78:
	movq	24(%r15), %rdi
	leaq	l___unnamed_14(%rip), %rsi
	movl	$1, %edx
	callq	__ZN4core3fmt9Formatter9write_str17h98e119ad25a8903eE
	movb	$1, %r14b
	testb	%al, %al
	jne	LBB15_118
	movq	%r15, %rdi
	callq	__ZN14rustc_demangle2v07Printer10print_type17h0b558210c564ec27E
	testb	%al, %al
	jne	LBB15_118
	cmpb	$77, %r12b
	je	LBB15_96
	movq	24(%r15), %rdi
	leaq	L___unnamed_52(%rip), %rsi
	movl	$4, %edx
	callq	__ZN4core3fmt9Formatter9write_str17h98e119ad25a8903eE
	testb	%al, %al
	jne	LBB15_118
	movq	%r15, %rdi
	xorl	%esi, %esi
	callq	__ZN14rustc_demangle2v07Printer10print_path17hd7744b8986b06fb9E
	testb	%al, %al
	je	LBB15_96
	jmp	LBB15_118
LBB15_83:
	movq	$0, -40(%rbp)
LBB15_84:
	leaq	-112(%rbp), %rbx
	leaq	-112(%rbp), %rdi
	movq	%r15, %rsi
	callq	__ZN14rustc_demangle2v06Parser5ident17h0406b9e9daac4738E
	cmpq	$0, -112(%rbp)
	je	LBB15_116
	movq	24(%rbx), %rax
	movq	%rax, -48(%rbp)
	movq	16(%rbx), %rax
	movq	%rax, -56(%rbp)
	movq	(%rbx), %rax
	movq	8(%rbx), %rcx
	movq	%rcx, -64(%rbp)
	movq	%rax, -72(%rbp)
	cmpl	$1114112, %r12d
	jne	LBB15_97
	cmpq	$0, -64(%rbp)
	jne	LBB15_88
	cmpq	$0, -48(%rbp)
	je	LBB15_45
LBB15_88:
	movq	24(%r15), %rdi
	leaq	l___unnamed_6(%rip), %rsi
	movl	$2, %edx
	callq	__ZN4core3fmt9Formatter9write_str17h98e119ad25a8903eE
	movb	$1, %r14b
	testb	%al, %al
	jne	LBB15_118
	movq	24(%r15), %rsi
	leaq	-72(%rbp), %rdi
	callq	__ZN64_$LT$rustc_demangle..v0..Ident$u20$as$u20$core..fmt..Display$GT$3fmt17ha462a1c7026230b8E
	testb	%al, %al
	je	LBB15_45
	jmp	LBB15_118
LBB15_91:
	incq	%rbx
	movq	%rbx, 16(%rcx)
	incq	%rax
	je	LBB15_116
LBB15_92:
	incq	%rax
	je	LBB15_116
	cmpq	$0, (%r15)
	movq	%rax, -40(%rbp)
	jne	LBB15_42
LBB15_115:
	movq	$0, -112(%rbp)
	jmp	LBB15_116
LBB15_95:
	incq	%rax
	movq	%rax, 16(%r15)
LBB15_96:
	movq	24(%r15), %rdi
	leaq	l___unnamed_16(%rip), %rsi
	jmp	LBB15_77
LBB15_97:
	movl	%r12d, -112(%rbp)
	movq	24(%r15), %rdi
	leaq	l___unnamed_53(%rip), %rsi
	movl	$3, %edx
	callq	__ZN4core3fmt9Formatter9write_str17h98e119ad25a8903eE
	testb	%al, %al
	jne	LBB15_71
	cmpl	$67, %r12d
	je	LBB15_119
	cmpl	$83, %r12d
	jne	LBB15_121
	movq	24(%r15), %rdi
	leaq	L___unnamed_54(%rip), %rsi
	movl	$4, %edx
	jmp	LBB15_120
LBB15_101:
	xorl	%eax, %eax
	movl	$62, %r8d
LBB15_102:
	cmpq	%rbx, %rsi
	jbe	LBB15_116
	movzbl	(%r9,%rbx), %edx
	cmpb	$95, %dl
	je	LBB15_112
	leal	-48(%rdx), %edi
	cmpb	$10, %dil
	jb	LBB15_110
	leal	-97(%rdx), %edi
	cmpb	$26, %dil
	jae	LBB15_107
	addb	$-87, %dl
	jmp	LBB15_109
LBB15_107:
	leal	-65(%rdx), %edi
	cmpb	$26, %dil
	jae	LBB15_116
	addb	$-29, %dl
LBB15_109:
	movl	%edx, %edi
LBB15_110:
	incq	%rbx
	movq	%rbx, 16(%rcx)
	mulq	%r8
	jo	LBB15_116
	movzbl	%dil, %edx
	addq	%rdx, %rax
	jae	LBB15_102
	jmp	LBB15_116
LBB15_112:
	incq	%rbx
	movq	%rbx, 16(%rcx)
	incq	%rax
	je	LBB15_116
LBB15_113:
	incq	%rax
	jne	LBB15_114
LBB15_116:
	movq	$0, (%r15)
	movq	24(%r15), %rdi
	leaq	l___unnamed_47(%rip), %rsi
	movl	$1, %edx
	callq	__ZN4core3fmt9Formatter9write_str17h98e119ad25a8903eE
LBB15_117:
	movl	%eax, %r14d
LBB15_118:
	movl	%r14d, %eax
	addq	$80, %rsp
	popq	%rbx
	popq	%r12
	popq	%r14
	popq	%r15
	popq	%rbp
	retq
LBB15_114:
	cmpq	$0, (%r15)
	movq	%rax, -40(%rbp)
	jne	LBB15_84
	jmp	LBB15_115
LBB15_119:
	movq	24(%r15), %rdi
	leaq	l___unnamed_55(%rip), %rsi
	movl	$7, %edx
LBB15_120:
	callq	__ZN4core3fmt9Formatter9write_str17h98e119ad25a8903eE
	jmp	LBB15_122
LBB15_121:
	movq	24(%r15), %rsi
	leaq	-112(%rbp), %rdi
	callq	__ZN43_$LT$char$u20$as$u20$core..fmt..Display$GT$3fmt17haf02f59875f30dd3E
LBB15_122:
	testb	%al, %al
	jne	LBB15_71
	cmpq	$0, -64(%rbp)
	jne	LBB15_125
	cmpq	$0, -48(%rbp)
	je	LBB15_127
LBB15_125:
	movq	24(%r15), %rdi
	leaq	l___unnamed_56(%rip), %rsi
	movl	$1, %edx
	callq	__ZN4core3fmt9Formatter9write_str17h98e119ad25a8903eE
	testb	%al, %al
	jne	LBB15_71
	movq	24(%r15), %rsi
	leaq	-72(%rbp), %rdi
	callq	__ZN64_$LT$rustc_demangle..v0..Ident$u20$as$u20$core..fmt..Display$GT$3fmt17ha462a1c7026230b8E
	testb	%al, %al
	jne	LBB15_71
LBB15_127:
	movq	24(%r15), %rdi
	leaq	l___unnamed_57(%rip), %rsi
	movl	$1, %edx
	callq	__ZN4core3fmt9Formatter9write_str17h98e119ad25a8903eE
	testb	%al, %al
	jne	LBB15_71
	movq	24(%r15), %rsi
	leaq	-40(%rbp), %rdi
	callq	__ZN4core3fmt3num3imp52_$LT$impl$u20$core..fmt..Display$u20$for$u20$u64$GT$3fmt17h3230c9bc78e30ed1E
	testb	%al, %al
	jne	LBB15_71
	movq	24(%r15), %rdi
	leaq	l___unnamed_36(%rip), %rsi
	movl	$1, %edx
	callq	__ZN4core3fmt9Formatter9write_str17h98e119ad25a8903eE
	testb	%al, %al
	je	LBB15_45
LBB15_71:
	movb	$1, %r14b
	jmp	LBB15_118
LBB15_131:
	leaq	_str.0(%rip), %rdi
	leaq	l___unnamed_58(%rip), %rdx
	movl	$28, %esi
	callq	__ZN4core9panicking5panic17h383a6b80ea7021aaE
	.cfi_endproc
	.p2align	2, 0x90
	.data_region jt32
.set L15_0_set_16, LBB15_16-LJTI15_0
.set L15_0_set_10, LBB15_10-LJTI15_0
.set L15_0_set_76, LBB15_76-LJTI15_0
.set L15_0_set_28, LBB15_28-LJTI15_0
.set L15_0_set_4, LBB15_4-LJTI15_0
.set L15_0_set_17, LBB15_17-LJTI15_0
.set L15_0_set_78, LBB15_78-LJTI15_0
LJTI15_0:
	.long	L15_0_set_16
	.long	L15_0_set_10
	.long	L15_0_set_76
	.long	L15_0_set_76
	.long	L15_0_set_76
	.long	L15_0_set_76
	.long	L15_0_set_76
	.long	L15_0_set_28
	.long	L15_0_set_76
	.long	L15_0_set_76
	.long	L15_0_set_76
	.long	L15_0_set_4
	.long	L15_0_set_17
	.long	L15_0_set_76
	.long	L15_0_set_76
	.long	L15_0_set_76
	.long	L15_0_set_76
	.long	L15_0_set_76
	.long	L15_0_set_76
	.long	L15_0_set_76
	.long	L15_0_set_76
	.long	L15_0_set_76
	.long	L15_0_set_4
	.long	L15_0_set_78
	.end_data_region

	.p2align	4, 0x90
__ZN14rustc_demangle2v07Printer17print_generic_arg17h4101014709cf2a65E:
	.cfi_startproc
	pushq	%rbp
	.cfi_def_cfa_offset 16
	.cfi_offset %rbp, -16
	movq	%rsp, %rbp
	.cfi_def_cfa_register %rbp
	movq	(%rdi), %rax
	movq	%rdi, %rcx
	testq	%rax, %rax
	cmoveq	%rax, %rcx
	je	LBB16_5
	movq	16(%rcx), %rdx
	cmpq	%rdx, 8(%rcx)
	jbe	LBB16_3
	movq	(%rcx), %rsi
	cmpb	$76, (%rsi,%rdx)
	jne	LBB16_3
	incq	%rdx
	movq	%rdx, 16(%rcx)
	movq	(%rdi), %r11
	testq	%r11, %r11
	cmovneq	%rdi, %r11
	je	LBB16_21
	movq	(%r11), %r8
	movq	8(%r11), %r9
	movq	16(%r11), %rsi
	cmpq	%rsi, %r9
	jbe	LBB16_8
	cmpb	$95, (%r8,%rsi)
	jne	LBB16_8
	incq	%rsi
	movq	%rsi, 16(%r11)
	xorl	%eax, %eax
	jmp	LBB16_23
LBB16_3:
	movq	16(%rdi), %rcx
	cmpq	%rcx, 8(%rdi)
	jbe	LBB16_5
	cmpb	$75, (%rax,%rcx)
	jne	LBB16_5
	incq	%rcx
	movq	%rcx, 16(%rdi)
	popq	%rbp
	jmp	__ZN14rustc_demangle2v07Printer11print_const17h9cc30eb2dfd4352dE
LBB16_5:
	popq	%rbp
	jmp	__ZN14rustc_demangle2v07Printer10print_type17h0b558210c564ec27E
LBB16_8:
	xorl	%eax, %eax
	movl	$62, %r10d
	.p2align	4, 0x90
LBB16_9:
	cmpq	%rsi, %r9
	jbe	LBB16_21
	movzbl	(%r8,%rsi), %edx
	cmpb	$95, %dl
	je	LBB16_22
	leal	-48(%rdx), %ecx
	cmpb	$10, %cl
	jb	LBB16_19
	leal	-97(%rdx), %ecx
	cmpb	$26, %cl
	jae	LBB16_13
	addb	$-87, %dl
	jmp	LBB16_18
LBB16_13:
	leal	-65(%rdx), %ecx
	cmpb	$26, %cl
	jae	LBB16_21
	addb	$-29, %dl
LBB16_18:
	movl	%edx, %ecx
LBB16_19:
	incq	%rsi
	movq	%rsi, 16(%r11)
	mulq	%r10
	jo	LBB16_21
	movzbl	%cl, %ecx
	addq	%rcx, %rax
	jae	LBB16_9
	jmp	LBB16_21
LBB16_22:
	incq	%rsi
	movq	%rsi, 16(%r11)
	incq	%rax
	jne	LBB16_23
LBB16_21:
	movq	$0, (%rdi)
	movq	24(%rdi), %rdi
	leaq	l___unnamed_47(%rip), %rsi
	movl	$1, %edx
	popq	%rbp
	jmp	__ZN4core3fmt9Formatter9write_str17h98e119ad25a8903eE
LBB16_23:
	movq	%rax, %rsi
	popq	%rbp
	jmp	__ZN14rustc_demangle2v07Printer25print_lifetime_from_index17hed0afc7b3aea7f4bE
	.cfi_endproc

	.p2align	4, 0x90
__ZN14rustc_demangle2v07Printer10print_type17h0b558210c564ec27E:
	.cfi_startproc
	pushq	%rbp
	.cfi_def_cfa_offset 16
	.cfi_offset %rbp, -16
	movq	%rsp, %rbp
	.cfi_def_cfa_register %rbp
	pushq	%r15
	pushq	%r14
	pushq	%r13
	pushq	%r12
	pushq	%rbx
	subq	$40, %rsp
	.cfi_offset %rbx, -56
	.cfi_offset %r12, -48
	.cfi_offset %r13, -40
	.cfi_offset %r14, -32
	.cfi_offset %r15, -24
	movq	%rdi, %rbx
	movq	(%rdi), %rax
	testq	%rax, %rax
	cmovneq	%rdi, %rax
	je	LBB17_180
	movq	16(%rax), %rcx
	cmpq	%rcx, 8(%rax)
	jbe	LBB17_180
	movq	(%rax), %rdx
	movb	(%rdx,%rcx), %r15b
	incq	%rcx
	movq	%rcx, 16(%rax)
	leal	-65(%r15), %eax
	cmpb	$57, %al
	ja	LBB17_36
	leaq	L___unnamed_59(%rip), %rsi
	movl	$4, %edx
	movzbl	%al, %eax
	leaq	LJTI17_0(%rip), %rcx
	movslq	(%rcx,%rax,4), %rax
	addq	%rcx, %rax
	jmpq	*%rax
LBB17_4:
	movq	24(%rbx), %rdi
	leaq	l___unnamed_50(%rip), %rsi
	movl	$1, %edx
	callq	__ZN4core3fmt9Formatter9write_str17h98e119ad25a8903eE
	movb	$1, %r14b
	testb	%al, %al
	jne	LBB17_152
	movq	%rbx, %rdi
	callq	__ZN14rustc_demangle2v07Printer10print_type17h0b558210c564ec27E
	testb	%al, %al
	jne	LBB17_152
	cmpb	$65, %r15b
	jne	LBB17_9
	movq	24(%rbx), %rdi
	leaq	l___unnamed_60(%rip), %rsi
	movl	$2, %edx
	callq	__ZN4core3fmt9Formatter9write_str17h98e119ad25a8903eE
	testb	%al, %al
	jne	LBB17_152
	movq	%rbx, %rdi
	callq	__ZN14rustc_demangle2v07Printer11print_const17h9cc30eb2dfd4352dE
	testb	%al, %al
	jne	LBB17_152
LBB17_9:
	movq	24(%rbx), %rdi
	leaq	l___unnamed_51(%rip), %rsi
	jmp	LBB17_181
LBB17_10:
	movq	24(%rbx), %rdi
	leaq	l___unnamed_12(%rip), %rsi
	movl	$1, %edx
	callq	__ZN4core3fmt9Formatter9write_str17h98e119ad25a8903eE
	movb	$1, %r14b
	testb	%al, %al
	jne	LBB17_152
	movq	(%rbx), %rax
	testq	%rax, %rax
	cmovneq	%rbx, %rax
	je	LBB17_18
	movq	16(%rax), %rcx
	cmpq	%rcx, 8(%rax)
	jbe	LBB17_18
	movq	(%rax), %rdx
	cmpb	$76, (%rdx,%rcx)
	jne	LBB17_18
	incq	%rcx
	movq	%rcx, 16(%rax)
	movq	(%rbx), %rcx
	testq	%rcx, %rcx
	cmovneq	%rbx, %rcx
	je	LBB17_180
	movq	(%rcx), %r8
	movq	8(%rcx), %r10
	movq	16(%rcx), %rsi
	cmpq	%rsi, %r10
	jbe	LBB17_102
	cmpb	$95, (%r8,%rsi)
	jne	LBB17_102
	incq	%rsi
	movq	%rsi, 16(%rcx)
LBB17_18:
	cmpb	$82, %r15b
	je	LBB17_74
	movq	24(%rbx), %rdi
	jmp	LBB17_72
LBB17_20:
	movq	24(%rbx), %rdi
	leaq	l___unnamed_10(%rip), %rsi
	movl	$1, %edx
	callq	__ZN4core3fmt9Formatter9write_str17h98e119ad25a8903eE
	movb	$1, %r14b
	testb	%al, %al
	jne	LBB17_152
	movq	24(%rbx), %rdi
	cmpb	$80, %r15b
	jne	LBB17_72
	leaq	l___unnamed_61(%rip), %rsi
	movl	$6, %edx
	jmp	LBB17_73
LBB17_23:
	leaq	l___unnamed_62(%rip), %rsi
	movl	$5, %edx
	movq	24(%rbx), %rdi
	jmp	LBB17_182
LBB17_24:
	leaq	L___unnamed_63(%rip), %rsi
	movq	24(%rbx), %rdi
	jmp	LBB17_182
LBB17_25:
	leaq	l___unnamed_64(%rip), %rsi
	movl	$3, %edx
	movq	24(%rbx), %rdi
	jmp	LBB17_182
LBB17_26:
	leaq	l___unnamed_65(%rip), %rsi
	movl	$3, %edx
	movq	24(%rbx), %rdi
	jmp	LBB17_182
LBB17_27:
	leaq	l___unnamed_48(%rip), %rsi
	movl	$1, %edx
	movq	24(%rbx), %rdi
	jmp	LBB17_182
LBB17_28:
	leaq	l___unnamed_66(%rip), %rsi
	movl	$2, %edx
	movq	24(%rbx), %rdi
	jmp	LBB17_182
LBB17_29:
	leaq	l___unnamed_67(%rip), %rsi
	movl	$3, %edx
	movq	24(%rbx), %rdi
	jmp	LBB17_182
LBB17_30:
	leaq	L___unnamed_68(%rip), %rsi
	movq	24(%rbx), %rdi
	jmp	LBB17_182
LBB17_31:
	leaq	L___unnamed_69(%rip), %rsi
LBB17_32:
	movq	24(%rbx), %rdi
	jmp	LBB17_182
LBB17_33:
	leaq	l___unnamed_70(%rip), %rsi
	movl	$3, %edx
	movq	24(%rbx), %rdi
	jmp	LBB17_182
LBB17_34:
	leaq	l___unnamed_71(%rip), %rsi
	movl	$3, %edx
	movq	24(%rbx), %rdi
	jmp	LBB17_182
LBB17_35:
	leaq	-80(%rbp), %r14
	movq	%r14, %rdi
	movq	%rbx, %rsi
	callq	__ZN14rustc_demangle2v07Printer15backref_printer17h82ef6fc318e822efE
	movq	%r14, %rdi
	callq	__ZN14rustc_demangle2v07Printer10print_type17h0b558210c564ec27E
	movl	%eax, %r14d
	jmp	LBB17_152
LBB17_36:
	cmpq	$0, (%rbx)
	je	LBB17_39
	movq	16(%rbx), %rax
	subq	$1, %rax
	jb	LBB17_188
	movq	%rax, 16(%rbx)
LBB17_39:
	movq	%rbx, %rdi
	xorl	%esi, %esi
	addq	$40, %rsp
	popq	%rbx
	popq	%r12
	popq	%r13
	popq	%r14
	popq	%r15
	popq	%rbp
	jmp	__ZN14rustc_demangle2v07Printer10print_path17hd7744b8986b06fb9E
LBB17_40:
	leaq	l___unnamed_72(%rip), %rsi
	movl	$3, %edx
	movq	24(%rbx), %rdi
	jmp	LBB17_182
LBB17_41:
	leaq	l___unnamed_73(%rip), %rsi
	movl	$3, %edx
	movq	24(%rbx), %rdi
	jmp	LBB17_182
LBB17_42:
	leaq	l___unnamed_74(%rip), %rsi
	movl	$3, %edx
	movq	24(%rbx), %rdi
	jmp	LBB17_182
LBB17_43:
	leaq	l___unnamed_75(%rip), %rsi
	movl	$1, %edx
	movq	24(%rbx), %rdi
	jmp	LBB17_182
LBB17_44:
	movq	24(%rbx), %rdi
	leaq	L___unnamed_76(%rip), %rsi
	movl	$4, %edx
	callq	__ZN4core3fmt9Formatter9write_str17h98e119ad25a8903eE
	movb	$1, %r14b
	testb	%al, %al
	jne	LBB17_152
	movq	(%rbx), %rcx
	testq	%rcx, %rcx
	cmovneq	%rbx, %rcx
	je	LBB17_151
	movq	8(%rcx), %r10
	movq	16(%rcx), %rax
	cmpq	%rax, %r10
	jbe	LBB17_92
	movq	(%rcx), %r8
	cmpb	$71, (%r8,%rax)
	jne	LBB17_92
	leaq	1(%rax), %rdi
	movq	%rdi, 16(%rcx)
	cmpq	%rdi, %r10
	jbe	LBB17_113
	cmpb	$95, (%r8,%rdi)
	jne	LBB17_113
	addq	$2, %rax
	movq	%rax, 16(%rcx)
	xorl	%r15d, %r15d
	jmp	LBB17_150
LBB17_51:
	movq	24(%rbx), %rdi
	leaq	l___unnamed_18(%rip), %rsi
	movl	$1, %edx
	callq	__ZN4core3fmt9Formatter9write_str17h98e119ad25a8903eE
	movb	$1, %r14b
	testb	%al, %al
	jne	LBB17_152
	cmpq	$0, (%rbx)
	je	LBB17_127
	xorl	%r12d, %r12d
	leaq	l___unnamed_49(%rip), %r15
LBB17_54:
	movq	16(%rbx), %rax
	cmpq	%rax, 8(%rbx)
	jbe	LBB17_56
	movq	(%rbx), %rcx
	cmpb	$69, (%rcx,%rax)
	je	LBB17_124
LBB17_56:
	testq	%r12, %r12
	je	LBB17_58
	movq	24(%rbx), %rdi
	movl	$2, %edx
	movq	%r15, %rsi
	callq	__ZN4core3fmt9Formatter9write_str17h98e119ad25a8903eE
	testb	%al, %al
	jne	LBB17_152
LBB17_58:
	movq	%rbx, %rdi
	callq	__ZN14rustc_demangle2v07Printer10print_type17h0b558210c564ec27E
	testb	%al, %al
	jne	LBB17_152
	incq	%r12
	je	LBB17_186
	cmpq	$0, (%rbx)
	jne	LBB17_54
	jmp	LBB17_125
LBB17_61:
	movq	(%rbx), %rcx
	testq	%rcx, %rcx
	cmovneq	%rbx, %rcx
	je	LBB17_132
	movq	8(%rcx), %r10
	movq	16(%rcx), %rax
	cmpq	%rax, %r10
	jbe	LBB17_77
	movq	(%rcx), %r8
	cmpb	$71, (%r8,%rax)
	jne	LBB17_77
	leaq	1(%rax), %rdi
	movq	%rdi, 16(%rcx)
	cmpq	%rdi, %r10
	jbe	LBB17_81
	cmpb	$95, (%r8,%rdi)
	jne	LBB17_81
	addq	$2, %rax
	movq	%rax, 16(%rcx)
	xorl	%r14d, %r14d
	jmp	LBB17_131
LBB17_67:
	leaq	l___unnamed_77(%rip), %rsi
	movl	$5, %edx
	movq	24(%rbx), %rdi
	jmp	LBB17_182
LBB17_68:
	leaq	l___unnamed_78(%rip), %rsi
	movl	$2, %edx
	movq	24(%rbx), %rdi
	jmp	LBB17_182
LBB17_69:
	leaq	l___unnamed_79(%rip), %rsi
	movl	$3, %edx
	movq	24(%rbx), %rdi
	jmp	LBB17_182
LBB17_70:
	leaq	l___unnamed_80(%rip), %rsi
	movl	$3, %edx
	movq	24(%rbx), %rdi
	jmp	LBB17_182
LBB17_71:
	leaq	l___unnamed_1(%rip), %rsi
	movl	$2, %edx
	movq	24(%rbx), %rdi
	jmp	LBB17_182
LBB17_72:
	leaq	L___unnamed_81(%rip), %rsi
	movl	$4, %edx
LBB17_73:
	callq	__ZN4core3fmt9Formatter9write_str17h98e119ad25a8903eE
	testb	%al, %al
	jne	LBB17_152
LBB17_74:
	movq	%rbx, %rdi
	addq	$40, %rsp
	popq	%rbx
	popq	%r12
	popq	%r13
	popq	%r14
	popq	%r15
	popq	%rbp
	jmp	__ZN14rustc_demangle2v07Printer10print_type17h0b558210c564ec27E
LBB17_77:
	xorl	%r14d, %r14d
LBB17_78:
	movq	%rbx, %rdi
	callq	__ZN14rustc_demangle2v07Printer10print_type28_$u7b$$u7b$closure$u7d$$u7d$17h5a8a6582eed329dfE
	movl	32(%rbx), %ecx
	subl	%r14d, %ecx
	jb	LBB17_187
	movl	%ecx, 32(%rbx)
	testb	%al, %al
	jne	LBB17_133
	jmp	LBB17_134
LBB17_92:
	xorl	%r15d, %r15d
LBB17_93:
	cmpq	$0, (%rbx)
	je	LBB17_143
	xorl	%r13d, %r13d
	leaq	l___unnamed_82(%rip), %r12
LBB17_95:
	movq	16(%rbx), %rax
	cmpq	%rax, 8(%rbx)
	jbe	LBB17_97
	movq	(%rbx), %rcx
	cmpb	$69, (%rcx,%rax)
	je	LBB17_142
LBB17_97:
	testq	%r13, %r13
	je	LBB17_99
	movq	24(%rbx), %rdi
	movl	$3, %edx
	movq	%r12, %rsi
	callq	__ZN4core3fmt9Formatter9write_str17h98e119ad25a8903eE
	testb	%al, %al
	jne	LBB17_129
LBB17_99:
	movq	%rbx, %rdi
	callq	__ZN14rustc_demangle2v07Printer15print_dyn_trait17h87ff282e5468044bE
	testb	%al, %al
	jne	LBB17_129
	incq	%r13
	je	LBB17_186
	cmpq	$0, (%rbx)
	jne	LBB17_95
	jmp	LBB17_143
LBB17_81:
	xorl	%r14d, %r14d
	movl	$62, %r9d
LBB17_82:
	cmpq	%rdi, %r10
	jbe	LBB17_132
	movzbl	(%r8,%rdi), %eax
	cmpb	$95, %al
	je	LBB17_130
	leal	-48(%rax), %esi
	cmpb	$10, %sil
	jb	LBB17_90
	leal	-97(%rax), %edx
	cmpb	$26, %dl
	jae	LBB17_87
	addb	$-87, %al
	jmp	LBB17_89
LBB17_87:
	leal	-65(%rax), %edx
	cmpb	$26, %dl
	jae	LBB17_132
	addb	$-29, %al
LBB17_89:
	movl	%eax, %esi
LBB17_90:
	incq	%rdi
	movq	%rdi, 16(%rcx)
	movq	%r14, %rax
	mulq	%r9
	jo	LBB17_132
	movq	%rax, %r14
	movzbl	%sil, %eax
	addq	%rax, %r14
	jae	LBB17_82
	jmp	LBB17_132
LBB17_129:
	movb	$1, %al
	jmp	LBB17_144
LBB17_102:
	xorl	%eax, %eax
	movl	$62, %r9d
LBB17_103:
	cmpq	%rsi, %r10
	jbe	LBB17_180
	movzbl	(%r8,%rsi), %edx
	cmpb	$95, %dl
	je	LBB17_146
	leal	-48(%rdx), %edi
	cmpb	$10, %dil
	jb	LBB17_111
	leal	-97(%rdx), %edi
	cmpb	$26, %dil
	jae	LBB17_108
	addb	$-87, %dl
	jmp	LBB17_110
LBB17_108:
	leal	-65(%rdx), %edi
	cmpb	$26, %dil
	jae	LBB17_180
	addb	$-29, %dl
LBB17_110:
	movl	%edx, %edi
LBB17_111:
	incq	%rsi
	movq	%rsi, 16(%rcx)
	mulq	%r9
	jo	LBB17_180
	movzbl	%dil, %edx
	addq	%rdx, %rax
	jae	LBB17_103
	jmp	LBB17_180
LBB17_113:
	xorl	%r15d, %r15d
	movl	$62, %r9d
LBB17_114:
	cmpq	%rdi, %r10
	jbe	LBB17_151
	movzbl	(%r8,%rdi), %eax
	cmpb	$95, %al
	je	LBB17_149
	leal	-48(%rax), %esi
	cmpb	$10, %sil
	jb	LBB17_122
	leal	-97(%rax), %edx
	cmpb	$26, %dl
	jae	LBB17_119
	addb	$-87, %al
	jmp	LBB17_121
LBB17_119:
	leal	-65(%rax), %edx
	cmpb	$26, %dl
	jae	LBB17_151
	addb	$-29, %al
LBB17_121:
	movl	%eax, %esi
LBB17_122:
	incq	%rdi
	movq	%rdi, 16(%rcx)
	movq	%r15, %rax
	mulq	%r9
	jo	LBB17_151
	movq	%rax, %r15
	movzbl	%sil, %eax
	addq	%rax, %r15
	jae	LBB17_114
	jmp	LBB17_151
LBB17_124:
	incq	%rax
	movq	%rax, 16(%rbx)
LBB17_125:
	cmpq	$1, %r12
	jne	LBB17_127
	movq	24(%rbx), %rdi
	leaq	l___unnamed_22(%rip), %rsi
	movl	$1, %edx
	callq	__ZN4core3fmt9Formatter9write_str17h98e119ad25a8903eE
	testb	%al, %al
	jne	LBB17_152
LBB17_127:
	movq	24(%rbx), %rdi
	leaq	l___unnamed_20(%rip), %rsi
	jmp	LBB17_181
LBB17_130:
	incq	%rdi
	movq	%rdi, 16(%rcx)
	incq	%r14
	je	LBB17_132
LBB17_131:
	incq	%r14
	jne	LBB17_135
LBB17_132:
	movq	$0, (%rbx)
	movq	24(%rbx), %rdi
	leaq	l___unnamed_47(%rip), %rsi
	movl	$1, %edx
	callq	__ZN4core3fmt9Formatter9write_str17h98e119ad25a8903eE
	testb	%al, %al
	je	LBB17_134
LBB17_133:
	movb	$1, %r14b
	jmp	LBB17_152
LBB17_134:
	xorl	%r14d, %r14d
	jmp	LBB17_152
LBB17_135:
	movq	24(%rbx), %rdi
	leaq	L___unnamed_83(%rip), %rsi
	movl	$4, %edx
	callq	__ZN4core3fmt9Formatter9write_str17h98e119ad25a8903eE
	testb	%al, %al
	jne	LBB17_133
	xorl	%r12d, %r12d
	leaq	l___unnamed_49(%rip), %r15
LBB17_137:
	cmpq	%r12, %r14
	je	LBB17_178
	testq	%r12, %r12
	je	LBB17_140
	movq	24(%rbx), %rdi
	movl	$2, %edx
	movq	%r15, %rsi
	callq	__ZN4core3fmt9Formatter9write_str17h98e119ad25a8903eE
	testb	%al, %al
	jne	LBB17_133
LBB17_140:
	movl	32(%rbx), %eax
	incl	%eax
	je	LBB17_189
	incq	%r12
	movl	%eax, 32(%rbx)
	movl	$1, %esi
	movq	%rbx, %rdi
	callq	__ZN14rustc_demangle2v07Printer25print_lifetime_from_index17hed0afc7b3aea7f4bE
	testb	%al, %al
	je	LBB17_137
	jmp	LBB17_133
LBB17_142:
	incq	%rax
	movq	%rax, 16(%rbx)
LBB17_143:
	xorl	%eax, %eax
LBB17_144:
	movl	32(%rbx), %ecx
	subl	%r15d, %ecx
	jb	LBB17_187
	movl	%ecx, 32(%rbx)
	testb	%al, %al
	je	LBB17_153
	jmp	LBB17_152
LBB17_146:
	incq	%rsi
	movq	%rsi, 16(%rcx)
	incq	%rax
	je	LBB17_180
	movq	%rbx, %rdi
	movq	%rax, %rsi
	callq	__ZN14rustc_demangle2v07Printer25print_lifetime_from_index17hed0afc7b3aea7f4bE
	testb	%al, %al
	jne	LBB17_152
	movq	24(%rbx), %rdi
	leaq	l___unnamed_84(%rip), %rsi
	movl	$1, %edx
	callq	__ZN4core3fmt9Formatter9write_str17h98e119ad25a8903eE
	testb	%al, %al
	je	LBB17_18
	jmp	LBB17_152
LBB17_149:
	incq	%rdi
	movq	%rdi, 16(%rcx)
	incq	%r15
	je	LBB17_151
LBB17_150:
	incq	%r15
	jne	LBB17_171
LBB17_151:
	movq	$0, (%rbx)
	movq	24(%rbx), %rdi
	leaq	l___unnamed_47(%rip), %rsi
	movl	$1, %edx
	callq	__ZN4core3fmt9Formatter9write_str17h98e119ad25a8903eE
	testb	%al, %al
	je	LBB17_153
LBB17_152:
	movl	%r14d, %eax
	addq	$40, %rsp
	popq	%rbx
	popq	%r12
	popq	%r13
	popq	%r14
	popq	%r15
	popq	%rbp
	retq
LBB17_153:
	movq	(%rbx), %rax
	testq	%rax, %rax
	cmovneq	%rbx, %rax
	je	LBB17_180
	movq	16(%rax), %rcx
	cmpq	%rcx, 8(%rax)
	jbe	LBB17_180
	movq	(%rax), %rdx
	cmpb	$76, (%rdx,%rcx)
	jne	LBB17_180
	incq	%rcx
	movq	%rcx, 16(%rax)
	movq	(%rbx), %rcx
	testq	%rcx, %rcx
	cmovneq	%rbx, %rcx
	je	LBB17_180
	movq	(%rcx), %r8
	movq	8(%rcx), %r10
	movq	16(%rcx), %rsi
	cmpq	%rsi, %r10
	jbe	LBB17_160
	cmpb	$95, (%r8,%rsi)
	jne	LBB17_160
	incq	%rsi
	movq	%rsi, 16(%rcx)
	xorl	%r14d, %r14d
	jmp	LBB17_152
LBB17_160:
	xorl	%r15d, %r15d
	movl	$62, %r9d
LBB17_161:
	cmpq	%rsi, %r10
	jbe	LBB17_180
	movzbl	(%r8,%rsi), %eax
	cmpb	$95, %al
	je	LBB17_179
	leal	-48(%rax), %edi
	cmpb	$10, %dil
	jb	LBB17_169
	leal	-97(%rax), %edx
	cmpb	$26, %dl
	jae	LBB17_166
	addb	$-87, %al
	jmp	LBB17_168
LBB17_166:
	leal	-65(%rax), %edx
	cmpb	$26, %dl
	jae	LBB17_180
	addb	$-29, %al
LBB17_168:
	movl	%eax, %edi
LBB17_169:
	incq	%rsi
	movq	%rsi, 16(%rcx)
	movq	%r15, %rax
	mulq	%r9
	jo	LBB17_180
	movq	%rax, %r15
	movzbl	%dil, %eax
	addq	%rax, %r15
	jae	LBB17_161
	jmp	LBB17_180
LBB17_171:
	movq	24(%rbx), %rdi
	leaq	L___unnamed_83(%rip), %rsi
	movl	$4, %edx
	callq	__ZN4core3fmt9Formatter9write_str17h98e119ad25a8903eE
	testb	%al, %al
	jne	LBB17_152
	xorl	%r13d, %r13d
	leaq	l___unnamed_49(%rip), %r12
LBB17_173:
	cmpq	%r13, %r15
	je	LBB17_183
	testq	%r13, %r13
	je	LBB17_176
	movq	24(%rbx), %rdi
	movl	$2, %edx
	movq	%r12, %rsi
	callq	__ZN4core3fmt9Formatter9write_str17h98e119ad25a8903eE
	testb	%al, %al
	jne	LBB17_152
LBB17_176:
	movl	32(%rbx), %eax
	incl	%eax
	je	LBB17_189
	incq	%r13
	movl	%eax, 32(%rbx)
	movl	$1, %esi
	movq	%rbx, %rdi
	callq	__ZN14rustc_demangle2v07Printer25print_lifetime_from_index17hed0afc7b3aea7f4bE
	testb	%al, %al
	je	LBB17_173
	jmp	LBB17_152
LBB17_178:
	movq	24(%rbx), %rdi
	leaq	l___unnamed_85(%rip), %rsi
	movl	$2, %edx
	callq	__ZN4core3fmt9Formatter9write_str17h98e119ad25a8903eE
	testb	%al, %al
	je	LBB17_78
	jmp	LBB17_133
LBB17_179:
	incq	%rsi
	movq	%rsi, 16(%rcx)
	incq	%r15
	jne	LBB17_184
LBB17_180:
	movq	$0, (%rbx)
	movq	24(%rbx), %rdi
	leaq	l___unnamed_47(%rip), %rsi
LBB17_181:
	movl	$1, %edx
LBB17_182:
	addq	$40, %rsp
	popq	%rbx
	popq	%r12
	popq	%r13
	popq	%r14
	popq	%r15
	popq	%rbp
	jmp	__ZN4core3fmt9Formatter9write_str17h98e119ad25a8903eE
LBB17_183:
	movq	24(%rbx), %rdi
	leaq	l___unnamed_85(%rip), %rsi
	movl	$2, %edx
	callq	__ZN4core3fmt9Formatter9write_str17h98e119ad25a8903eE
	testb	%al, %al
	je	LBB17_93
	jmp	LBB17_152
LBB17_184:
	movq	24(%rbx), %rdi
	leaq	l___unnamed_82(%rip), %rsi
	movl	$3, %edx
	callq	__ZN4core3fmt9Formatter9write_str17h98e119ad25a8903eE
	testb	%al, %al
	jne	LBB17_152
	movq	%rbx, %rdi
	movq	%r15, %rsi
	addq	$40, %rsp
	popq	%rbx
	popq	%r12
	popq	%r13
	popq	%r14
	popq	%r15
	popq	%rbp
	jmp	__ZN14rustc_demangle2v07Printer25print_lifetime_from_index17hed0afc7b3aea7f4bE
LBB17_186:
	leaq	_str.0(%rip), %rdi
	leaq	l___unnamed_58(%rip), %rdx
	movl	$28, %esi
	callq	__ZN4core9panicking5panic17h383a6b80ea7021aaE
LBB17_187:
	leaq	_str.1(%rip), %rdi
	leaq	l___unnamed_86(%rip), %rdx
	movl	$33, %esi
	callq	__ZN4core9panicking5panic17h383a6b80ea7021aaE
LBB17_188:
	leaq	_str.1(%rip), %rdi
	leaq	l___unnamed_87(%rip), %rdx
	movl	$33, %esi
	callq	__ZN4core9panicking5panic17h383a6b80ea7021aaE
LBB17_189:
	leaq	_str.0(%rip), %rdi
	leaq	l___unnamed_88(%rip), %rdx
	movl	$28, %esi
	callq	__ZN4core9panicking5panic17h383a6b80ea7021aaE
	.cfi_endproc
	.p2align	2, 0x90
	.data_region jt32
.set L17_0_set_4, LBB17_4-LJTI17_0
.set L17_0_set_35, LBB17_35-LJTI17_0
.set L17_0_set_36, LBB17_36-LJTI17_0
.set L17_0_set_44, LBB17_44-LJTI17_0
.set L17_0_set_61, LBB17_61-LJTI17_0
.set L17_0_set_20, LBB17_20-LJTI17_0
.set L17_0_set_10, LBB17_10-LJTI17_0
.set L17_0_set_51, LBB17_51-LJTI17_0
.set L17_0_set_28, LBB17_28-LJTI17_0
.set L17_0_set_32, LBB17_32-LJTI17_0
.set L17_0_set_31, LBB17_31-LJTI17_0
.set L17_0_set_25, LBB17_25-LJTI17_0
.set L17_0_set_41, LBB17_41-LJTI17_0
.set L17_0_set_42, LBB17_42-LJTI17_0
.set L17_0_set_68, LBB17_68-LJTI17_0
.set L17_0_set_67, LBB17_67-LJTI17_0
.set L17_0_set_23, LBB17_23-LJTI17_0
.set L17_0_set_33, LBB17_33-LJTI17_0
.set L17_0_set_69, LBB17_69-LJTI17_0
.set L17_0_set_24, LBB17_24-LJTI17_0
.set L17_0_set_30, LBB17_30-LJTI17_0
.set L17_0_set_27, LBB17_27-LJTI17_0
.set L17_0_set_40, LBB17_40-LJTI17_0
.set L17_0_set_26, LBB17_26-LJTI17_0
.set L17_0_set_71, LBB17_71-LJTI17_0
.set L17_0_set_70, LBB17_70-LJTI17_0
.set L17_0_set_29, LBB17_29-LJTI17_0
.set L17_0_set_34, LBB17_34-LJTI17_0
.set L17_0_set_43, LBB17_43-LJTI17_0
LJTI17_0:
	.long	L17_0_set_4
	.long	L17_0_set_35
	.long	L17_0_set_36
	.long	L17_0_set_44
	.long	L17_0_set_36
	.long	L17_0_set_61
	.long	L17_0_set_36
	.long	L17_0_set_36
	.long	L17_0_set_36
	.long	L17_0_set_36
	.long	L17_0_set_36
	.long	L17_0_set_36
	.long	L17_0_set_36
	.long	L17_0_set_36
	.long	L17_0_set_20
	.long	L17_0_set_20
	.long	L17_0_set_10
	.long	L17_0_set_10
	.long	L17_0_set_4
	.long	L17_0_set_51
	.long	L17_0_set_36
	.long	L17_0_set_36
	.long	L17_0_set_36
	.long	L17_0_set_36
	.long	L17_0_set_36
	.long	L17_0_set_36
	.long	L17_0_set_36
	.long	L17_0_set_36
	.long	L17_0_set_36
	.long	L17_0_set_36
	.long	L17_0_set_36
	.long	L17_0_set_36
	.long	L17_0_set_28
	.long	L17_0_set_32
	.long	L17_0_set_31
	.long	L17_0_set_25
	.long	L17_0_set_41
	.long	L17_0_set_42
	.long	L17_0_set_36
	.long	L17_0_set_68
	.long	L17_0_set_67
	.long	L17_0_set_23
	.long	L17_0_set_36
	.long	L17_0_set_33
	.long	L17_0_set_69
	.long	L17_0_set_24
	.long	L17_0_set_30
	.long	L17_0_set_27
	.long	L17_0_set_36
	.long	L17_0_set_36
	.long	L17_0_set_40
	.long	L17_0_set_26
	.long	L17_0_set_71
	.long	L17_0_set_70
	.long	L17_0_set_36
	.long	L17_0_set_29
	.long	L17_0_set_34
	.long	L17_0_set_43
	.end_data_region

	.p2align	4, 0x90
__ZN14rustc_demangle2v07Printer10print_type28_$u7b$$u7b$closure$u7d$$u7d$17h5a8a6582eed329dfE:
	.cfi_startproc
	pushq	%rbp
	.cfi_def_cfa_offset 16
	.cfi_offset %rbp, -16
	movq	%rsp, %rbp
	.cfi_def_cfa_register %rbp
	pushq	%r15
	pushq	%r14
	pushq	%r13
	pushq	%r12
	pushq	%rbx
	subq	$152, %rsp
	.cfi_offset %rbx, -56
	.cfi_offset %r12, -48
	.cfi_offset %r13, -40
	.cfi_offset %r14, -32
	.cfi_offset %r15, -24
	movq	%rdi, %r15
	movq	(%rdi), %rax
	testq	%rax, %rax
	cmovneq	%rdi, %rax
	je	LBB18_30
	movq	16(%rax), %rcx
	cmpq	%rcx, 8(%rax)
	jbe	LBB18_2
	movq	(%rax), %rdx
	cmpb	$85, (%rdx,%rcx)
	jne	LBB18_4
	incq	%rcx
	movq	%rcx, 16(%rax)
	movb	$1, %r14b
	cmpq	$0, (%r15)
	jne	LBB18_6
	jmp	LBB18_21
LBB18_2:
	xorl	%r14d, %r14d
LBB18_6:
	movq	16(%r15), %rax
	cmpq	%rax, 8(%r15)
	ja	LBB18_7
	jmp	LBB18_20
LBB18_4:
	xorl	%r14d, %r14d
	movq	16(%r15), %rax
	cmpq	%rax, 8(%r15)
	jbe	LBB18_20
LBB18_7:
	movq	(%r15), %rcx
	cmpb	$75, (%rcx,%rax)
	jne	LBB18_20
	incq	%rax
	movq	%rax, 16(%r15)
	movq	(%r15), %rax
	testq	%rax, %rax
	cmovneq	%r15, %rax
	je	LBB18_12
	movq	16(%rax), %rcx
	cmpq	%rcx, 8(%rax)
	jbe	LBB18_14
	movq	(%rax), %rdx
	cmpb	$67, (%rdx,%rcx)
	jne	LBB18_14
	incq	%rcx
	movq	%rcx, 16(%rax)
	movl	$1, %r12d
	leaq	l___unnamed_23(%rip), %rbx
	jmp	LBB18_17
LBB18_20:
	testb	%r14b, %r14b
	je	LBB18_30
LBB18_21:
	xorl	%ebx, %ebx
LBB18_22:
	movq	24(%r15), %rdi
	leaq	l___unnamed_89(%rip), %rsi
	movl	$7, %edx
	callq	__ZN4core3fmt9Formatter9write_str17h98e119ad25a8903eE
	movb	$1, %r14b
	testb	%al, %al
	jne	LBB18_18
	testq	%rbx, %rbx
	je	LBB18_30
LBB18_24:
	movq	24(%r15), %rdi
	leaq	L___unnamed_90(%rip), %rsi
	movl	$8, %edx
	callq	__ZN4core3fmt9Formatter9write_str17h98e119ad25a8903eE
	movb	$1, %r14b
	testb	%al, %al
	jne	LBB18_18
	movq	$0, -112(%rbp)
	movq	%r12, -104(%rbp)
	movq	%rbx, -96(%rbp)
	movq	%r12, -88(%rbp)
	movq	$0, -80(%rbp)
	movq	%r12, -72(%rbp)
	movq	$1, -64(%rbp)
	movabsq	$408021893215, %rax
	movq	%rax, -56(%rbp)
	movw	$1, -48(%rbp)
	movq	24(%r15), %rbx
	leaq	-112(%rbp), %rdi
	callq	__ZN84_$LT$core..str..Split$LT$P$GT$$u20$as$u20$core..iter..traits..iterator..Iterator$GT$4next17h645a5fcd3842eca6E
	testq	%rax, %rax
	je	LBB18_50
	movq	%rbx, %rdi
	movq	%rax, %rsi
	callq	__ZN4core3fmt9Formatter9write_str17h98e119ad25a8903eE
	testb	%al, %al
	jne	LBB18_18
	leaq	-184(%rbp), %rbx
	leaq	-112(%rbp), %rsi
	movl	$9, %ecx
	movq	%rbx, %rdi
	rep;movsq (%rsi), %es:(%rdi)
	.p2align	4, 0x90
LBB18_28:
	movq	%rbx, %rdi
	callq	__ZN84_$LT$core..str..Split$LT$P$GT$$u20$as$u20$core..iter..traits..iterator..Iterator$GT$4next17h645a5fcd3842eca6E
	testq	%rax, %rax
	je	LBB18_29
	movq	%rax, %r13
	movq	%rdx, %r12
	movq	24(%r15), %rdi
	movl	$1, %edx
	leaq	l___unnamed_35(%rip), %rsi
	callq	__ZN4core3fmt9Formatter9write_str17h98e119ad25a8903eE
	testb	%al, %al
	jne	LBB18_18
	movq	24(%r15), %rdi
	movq	%r13, %rsi
	movq	%r12, %rdx
	callq	__ZN4core3fmt9Formatter9write_str17h98e119ad25a8903eE
	testb	%al, %al
	je	LBB18_28
	jmp	LBB18_18
LBB18_14:
	leaq	-184(%rbp), %rdi
	movq	%r15, %rsi
	callq	__ZN14rustc_demangle2v06Parser5ident17h0406b9e9daac4738E
	movq	-184(%rbp), %rbx
	testq	%rbx, %rbx
	je	LBB18_13
	movq	-176(%rbp), %r12
	testq	%r12, %r12
	je	LBB18_13
	cmpq	$0, -160(%rbp)
	jne	LBB18_13
LBB18_17:
	testb	%r14b, %r14b
	jne	LBB18_22
	jmp	LBB18_24
LBB18_12:
	movq	$0, -184(%rbp)
LBB18_13:
	movq	$0, (%r15)
	movq	24(%r15), %rdi
	leaq	l___unnamed_47(%rip), %rsi
	movl	$1, %edx
	addq	$152, %rsp
	popq	%rbx
	popq	%r12
	popq	%r13
	popq	%r14
	popq	%r15
	popq	%rbp
	jmp	__ZN4core3fmt9Formatter9write_str17h98e119ad25a8903eE
LBB18_29:
	movq	24(%r15), %rdi
	leaq	l___unnamed_91(%rip), %rsi
	movl	$2, %edx
	callq	__ZN4core3fmt9Formatter9write_str17h98e119ad25a8903eE
	testb	%al, %al
	jne	LBB18_18
LBB18_30:
	movq	24(%r15), %rdi
	leaq	l___unnamed_92(%rip), %rsi
	movl	$3, %edx
	callq	__ZN4core3fmt9Formatter9write_str17h98e119ad25a8903eE
	movb	$1, %r14b
	testb	%al, %al
	jne	LBB18_18
	cmpq	$0, (%r15)
	je	LBB18_43
	xorl	%ebx, %ebx
	leaq	l___unnamed_49(%rip), %r12
	.p2align	4, 0x90
LBB18_33:
	movq	16(%r15), %rax
	cmpq	%rax, 8(%r15)
	jbe	LBB18_38
	movq	(%r15), %rcx
	cmpb	$69, (%rcx,%rax)
	je	LBB18_35
LBB18_38:
	testq	%rbx, %rbx
	je	LBB18_40
	movq	24(%r15), %rdi
	movl	$2, %edx
	movq	%r12, %rsi
	callq	__ZN4core3fmt9Formatter9write_str17h98e119ad25a8903eE
	testb	%al, %al
	jne	LBB18_18
LBB18_40:
	movq	%r15, %rdi
	callq	__ZN14rustc_demangle2v07Printer10print_type17h0b558210c564ec27E
	testb	%al, %al
	jne	LBB18_18
	incq	%rbx
	je	LBB18_51
	cmpq	$0, (%r15)
	jne	LBB18_33
	jmp	LBB18_43
LBB18_35:
	incq	%rax
	movq	%rax, 16(%r15)
LBB18_43:
	movq	24(%r15), %rdi
	leaq	l___unnamed_20(%rip), %rsi
	movl	$1, %edx
	callq	__ZN4core3fmt9Formatter9write_str17h98e119ad25a8903eE
	testb	%al, %al
	jne	LBB18_18
	movq	(%r15), %rax
	testq	%rax, %rax
	cmovneq	%r15, %rax
	je	LBB18_48
	movq	16(%rax), %rcx
	cmpq	%rcx, 8(%rax)
	jbe	LBB18_48
	movq	(%rax), %rdx
	cmpb	$117, (%rdx,%rcx)
	jne	LBB18_48
	incq	%rcx
	movq	%rcx, 16(%rax)
	xorl	%r14d, %r14d
	jmp	LBB18_18
LBB18_48:
	movq	24(%r15), %rdi
	leaq	L___unnamed_93(%rip), %rsi
	movl	$4, %edx
	callq	__ZN4core3fmt9Formatter9write_str17h98e119ad25a8903eE
	testb	%al, %al
	je	LBB18_49
LBB18_18:
	movl	%r14d, %eax
LBB18_19:
	addq	$152, %rsp
	popq	%rbx
	popq	%r12
	popq	%r13
	popq	%r14
	popq	%r15
	popq	%rbp
	retq
LBB18_49:
	movq	%r15, %rdi
	callq	__ZN14rustc_demangle2v07Printer10print_type17h0b558210c564ec27E
	jmp	LBB18_19
LBB18_51:
	leaq	_str.0(%rip), %rdi
	leaq	l___unnamed_58(%rip), %rdx
	movl	$28, %esi
	callq	__ZN4core9panicking5panic17h383a6b80ea7021aaE
LBB18_50:
	leaq	l___unnamed_25(%rip), %rdi
	leaq	l___unnamed_94(%rip), %rdx
	movl	$43, %esi
	callq	__ZN4core9panicking5panic17h383a6b80ea7021aaE
	.cfi_endproc

	.p2align	4, 0x90
__ZN14rustc_demangle2v07Printer30print_path_maybe_open_generics17h290c3637cb3d5255E:
	.cfi_startproc
	pushq	%rbp
	.cfi_def_cfa_offset 16
	.cfi_offset %rbp, -16
	movq	%rsp, %rbp
	.cfi_def_cfa_register %rbp
	pushq	%r15
	pushq	%r14
	pushq	%r12
	pushq	%rbx
	subq	$48, %rsp
	.cfi_offset %rbx, -48
	.cfi_offset %r12, -40
	.cfi_offset %r14, -32
	.cfi_offset %r15, -24
	movq	%rdi, %rbx
	movq	(%rdi), %rax
	movq	%rdi, %rcx
	testq	%rax, %rax
	cmoveq	%rax, %rcx
	je	LBB19_8
	movq	16(%rcx), %rdx
	cmpq	%rdx, 8(%rcx)
	jbe	LBB19_4
	movq	(%rcx), %rsi
	cmpb	$66, (%rsi,%rdx)
	jne	LBB19_4
	incq	%rdx
	movq	%rdx, 16(%rcx)
	leaq	-72(%rbp), %r14
	movq	%r14, %rdi
	movq	%rbx, %rsi
	callq	__ZN14rustc_demangle2v07Printer15backref_printer17h82ef6fc318e822efE
	movq	%r14, %rdi
	callq	__ZN14rustc_demangle2v07Printer30print_path_maybe_open_generics17h290c3637cb3d5255E
	movl	%eax, %r14d
	jmp	LBB19_9
LBB19_4:
	movq	16(%rbx), %rcx
	cmpq	%rcx, 8(%rbx)
	jbe	LBB19_8
	cmpb	$73, (%rax,%rcx)
	jne	LBB19_8
	incq	%rcx
	movq	%rcx, 16(%rbx)
	movq	%rbx, %rdi
	xorl	%esi, %esi
	callq	__ZN14rustc_demangle2v07Printer10print_path17hd7744b8986b06fb9E
	testb	%al, %al
	jne	LBB19_7
	movq	24(%rbx), %rdi
	leaq	l___unnamed_14(%rip), %rsi
	movl	$1, %edx
	callq	__ZN4core3fmt9Formatter9write_str17h98e119ad25a8903eE
	testb	%al, %al
	je	LBB19_12
LBB19_7:
	movb	$2, %r14b
	jmp	LBB19_9
LBB19_8:
	movq	%rbx, %rdi
	xorl	%esi, %esi
	callq	__ZN14rustc_demangle2v07Printer10print_path17hd7744b8986b06fb9E
	movl	%eax, %r14d
	addb	%al, %r14b
LBB19_9:
	movl	%r14d, %eax
	addq	$48, %rsp
	popq	%rbx
	popq	%r12
	popq	%r14
	popq	%r15
	popq	%rbp
	retq
LBB19_12:
	movb	$1, %r14b
	cmpq	$0, (%rbx)
	je	LBB19_9
	xorl	%r12d, %r12d
	leaq	l___unnamed_49(%rip), %r15
LBB19_14:
	movq	16(%rbx), %rax
	cmpq	%rax, 8(%rbx)
	jbe	LBB19_16
	movq	(%rbx), %rcx
	cmpb	$69, (%rcx,%rax)
	je	LBB19_23
LBB19_16:
	testq	%r12, %r12
	je	LBB19_18
	movq	24(%rbx), %rdi
	movl	$2, %edx
	movq	%r15, %rsi
	callq	__ZN4core3fmt9Formatter9write_str17h98e119ad25a8903eE
	testb	%al, %al
	jne	LBB19_7
LBB19_18:
	movq	%rbx, %rdi
	callq	__ZN14rustc_demangle2v07Printer17print_generic_arg17h4101014709cf2a65E
	testb	%al, %al
	jne	LBB19_7
	incq	%r12
	je	LBB19_24
	cmpq	$0, (%rbx)
	jne	LBB19_14
	jmp	LBB19_9
LBB19_23:
	incq	%rax
	movq	%rax, 16(%rbx)
	jmp	LBB19_9
LBB19_24:
	leaq	_str.0(%rip), %rdi
	leaq	l___unnamed_58(%rip), %rdx
	movl	$28, %esi
	callq	__ZN4core9panicking5panic17h383a6b80ea7021aaE
	.cfi_endproc

	.p2align	4, 0x90
__ZN14rustc_demangle2v07Printer15print_dyn_trait17h87ff282e5468044bE:
	.cfi_startproc
	pushq	%rbp
	.cfi_def_cfa_offset 16
	.cfi_offset %rbp, -16
	movq	%rsp, %rbp
	.cfi_def_cfa_register %rbp
	pushq	%r15
	pushq	%r14
	pushq	%r13
	pushq	%r12
	pushq	%rbx
	subq	$72, %rsp
	.cfi_offset %rbx, -56
	.cfi_offset %r12, -48
	.cfi_offset %r13, -40
	.cfi_offset %r14, -32
	.cfi_offset %r15, -24
	movq	%rdi, %rbx
	callq	__ZN14rustc_demangle2v07Printer30print_path_maybe_open_generics17h290c3637cb3d5255E
	movb	$1, %r14b
	cmpb	$2, %al
	je	LBB20_7
	movl	%eax, %r15d
	cmpq	$0, (%rbx)
	je	LBB20_5
	leaq	-72(%rbp), %r13
	movb	$1, %r12b
LBB20_3:
	movq	16(%rbx), %rax
	cmpq	%rax, 8(%rbx)
	jbe	LBB20_5
	movq	(%rbx), %rcx
	cmpb	$112, (%rcx,%rax)
	jne	LBB20_5
	incq	%rax
	movq	%rax, 16(%rbx)
	movq	24(%rbx), %rdi
	testb	$1, %r15b
	je	LBB20_13
	movl	$2, %edx
	leaq	l___unnamed_49(%rip), %rsi
	callq	__ZN4core3fmt9Formatter9write_str17h98e119ad25a8903eE
	testb	%al, %al
	je	LBB20_11
	jmp	LBB20_7
	.p2align	4, 0x90
LBB20_13:
	movl	$1, %edx
	leaq	l___unnamed_14(%rip), %rsi
	callq	__ZN4core3fmt9Formatter9write_str17h98e119ad25a8903eE
	movb	$1, %r15b
	testb	%al, %al
	jne	LBB20_14
LBB20_11:
	cmpq	$0, (%rbx)
	je	LBB20_12
	movq	%r13, %rdi
	movq	%rbx, %rsi
	callq	__ZN14rustc_demangle2v06Parser5ident17h0406b9e9daac4738E
	cmpq	$0, -72(%rbp)
	je	LBB20_16
	movq	-48(%rbp), %rax
	movq	%rax, -80(%rbp)
	movq	-56(%rbp), %rax
	movq	%rax, -88(%rbp)
	movq	-72(%rbp), %rax
	movq	-64(%rbp), %rcx
	movq	%rcx, -96(%rbp)
	movq	%rax, -104(%rbp)
	movq	24(%rbx), %rsi
	leaq	-104(%rbp), %rdi
	callq	__ZN64_$LT$rustc_demangle..v0..Ident$u20$as$u20$core..fmt..Display$GT$3fmt17ha462a1c7026230b8E
	testb	%al, %al
	jne	LBB20_18
	movq	24(%rbx), %rdi
	movl	$3, %edx
	leaq	l___unnamed_95(%rip), %rsi
	callq	__ZN4core3fmt9Formatter9write_str17h98e119ad25a8903eE
	testb	%al, %al
	jne	LBB20_18
	movq	%rbx, %rdi
	callq	__ZN14rustc_demangle2v07Printer10print_type17h0b558210c564ec27E
	testb	%al, %al
	jne	LBB20_18
	cmpq	$0, (%rbx)
	jne	LBB20_3
LBB20_5:
	testb	$1, %r15b
	jne	LBB20_22
	xorl	%r14d, %r14d
	jmp	LBB20_7
LBB20_22:
	movq	24(%rbx), %rdi
	leaq	l___unnamed_16(%rip), %rsi
	movl	$1, %edx
	callq	__ZN4core3fmt9Formatter9write_str17h98e119ad25a8903eE
	jmp	LBB20_8
LBB20_18:
	movl	%r12d, %r14d
	jmp	LBB20_7
LBB20_12:
	movq	$0, -72(%rbp)
LBB20_16:
	movq	$0, (%rbx)
	movq	24(%rbx), %rdi
	leaq	l___unnamed_47(%rip), %rsi
	movl	$1, %edx
	callq	__ZN4core3fmt9Formatter9write_str17h98e119ad25a8903eE
	movl	%eax, %r12d
	movl	%eax, %r14d
LBB20_7:
	movl	%r14d, %eax
LBB20_8:
	addq	$72, %rsp
	popq	%rbx
	popq	%r12
	popq	%r13
	popq	%r14
	popq	%r15
	popq	%rbp
	retq
LBB20_14:
	movb	$1, %r14b
	jmp	LBB20_7
	.cfi_endproc

	.p2align	4, 0x90
__ZN14rustc_demangle2v07Printer11print_const17h9cc30eb2dfd4352dE:
	.cfi_startproc
	pushq	%rbp
	.cfi_def_cfa_offset 16
	.cfi_offset %rbp, -16
	movq	%rsp, %rbp
	.cfi_def_cfa_register %rbp
	pushq	%r15
	pushq	%r14
	pushq	%r13
	pushq	%r12
	pushq	%rbx
	subq	$88, %rsp
	.cfi_offset %rbx, -56
	.cfi_offset %r12, -48
	.cfi_offset %r13, -40
	.cfi_offset %r14, -32
	.cfi_offset %r15, -24
	movq	%rdi, %rbx
	movq	(%rdi), %r12
	movq	%rdi, %rax
	testq	%r12, %r12
	cmoveq	%r12, %rax
	je	LBB21_4
	movq	16(%rax), %rcx
	cmpq	%rcx, 8(%rax)
	jbe	LBB21_3
	movq	(%rax), %rdx
	cmpb	$66, (%rdx,%rcx)
	jne	LBB21_3
	incq	%rcx
	movq	%rcx, 16(%rax)
	leaq	-104(%rbp), %r14
	movq	%r14, %rdi
	movq	%rbx, %rsi
	callq	__ZN14rustc_demangle2v07Printer15backref_printer17h82ef6fc318e822efE
	movq	%r14, %rdi
	callq	__ZN14rustc_demangle2v07Printer11print_const17h9cc30eb2dfd4352dE
	movl	%eax, %r13d
	jmp	LBB21_6
LBB21_3:
	movq	8(%rbx), %rdi
	movq	16(%rbx), %rdx
	movq	%rdi, %r9
	subq	%rdx, %r9
	jbe	LBB21_4
	leaq	1(%rdx), %r8
	movb	(%r12,%rdx), %al
	movq	%r8, 16(%rbx)
	addb	$-104, %al
	cmpb	$17, %al
	ja	LBB21_4
	leaq	l___unnamed_78(%rip), %r14
	movl	$2, %r15d
	movzbl	%al, %eax
	leaq	LJTI21_0(%rip), %rcx
	movslq	(%rcx,%rax,4), %rax
	addq	%rcx, %rax
	jmpq	*%rax
LBB21_14:
	leaq	l___unnamed_62(%rip), %r14
	movl	$5, %r15d
	cmpq	%r8, %rdi
	ja	LBB21_16
	jmp	LBB21_17
LBB21_4:
	movq	$0, (%rbx)
	movq	24(%rbx), %rdi
	leaq	l___unnamed_47(%rip), %rsi
	movl	$1, %edx
	addq	$88, %rsp
	popq	%rbx
	popq	%r12
	popq	%r13
	popq	%r14
	popq	%r15
	popq	%rbp
	jmp	__ZN4core3fmt9Formatter9write_str17h98e119ad25a8903eE
LBB21_11:
	leaq	l___unnamed_79(%rip), %r14
	movl	$3, %r15d
	cmpq	%r8, %rdi
	ja	LBB21_16
	jmp	LBB21_17
LBB21_12:
	leaq	l___unnamed_71(%rip), %r14
	movl	$3, %r15d
	cmpq	%r8, %rdi
	ja	LBB21_16
	jmp	LBB21_17
LBB21_13:
	leaq	L___unnamed_68(%rip), %r14
	movl	$4, %r15d
LBB21_15:
	cmpq	%r8, %rdi
	jbe	LBB21_17
LBB21_16:
	cmpb	$112, (%r12,%r8)
	jne	LBB21_17
	addq	$2, %rdx
	movq	%rdx, 16(%rbx)
	movq	24(%rbx), %rdi
	leaq	l___unnamed_48(%rip), %rsi
	jmp	LBB21_35
LBB21_10:
	leaq	l___unnamed_65(%rip), %r14
	movl	$3, %r15d
	cmpq	%r8, %rdi
	ja	LBB21_16
LBB21_17:
	leaq	(%r12,%rdx), %r11
	xorl	%ecx, %ecx
	.p2align	4, 0x90
LBB21_18:
	leaq	1(%rdx,%rcx), %rsi
	cmpq	%rsi, %rdi
	jbe	LBB21_34
	leaq	2(%rdx,%rcx), %rax
	movzbl	1(%r11,%rcx), %esi
	movq	%rax, 16(%rbx)
	leal	-48(%rsi), %eax
	incq	%rcx
	cmpb	$10, %al
	jb	LBB21_18
	leal	-97(%rsi), %eax
	cmpb	$6, %al
	jb	LBB21_18
	cmpb	$95, %sil
	jne	LBB21_34
	movq	%r14, -48(%rbp)
	leaq	(%rdx,%rcx), %rax
	movq	%r12, -120(%rbp)
	movq	%rdi, -112(%rbp)
	movq	%r8, -56(%rbp)
	movq	%rax, -64(%rbp)
	cmpq	%rdx, %rax
	jbe	LBB21_33
	cmpq	%r8, %rdi
	je	LBB21_24
	jbe	LBB21_33
	cmpb	$-65, (%r12,%r8)
	jle	LBB21_33
LBB21_24:
	cmpq	%rcx, %r9
	je	LBB21_26
	cmpb	$-65, (%r11,%rcx)
	jle	LBB21_33
LBB21_26:
	leaq	-1(%rcx), %r14
	addq	%r8, %r12
	cmpq	$16, %r14
	jbe	LBB21_27
	movq	24(%rbx), %rdi
	leaq	l___unnamed_96(%rip), %rsi
	movl	$2, %edx
	callq	__ZN4core3fmt9Formatter9write_str17h98e119ad25a8903eE
	movb	$1, %r13b
	testb	%al, %al
	jne	LBB21_6
	movq	24(%rbx), %rdi
	movq	%r12, %rsi
	movq	%r14, %rdx
	callq	__ZN4core3fmt9Formatter9write_str17h98e119ad25a8903eE
	testb	%al, %al
	movq	-48(%rbp), %r14
	je	LBB21_39
	jmp	LBB21_6
LBB21_34:
	movq	$0, (%rbx)
	movq	24(%rbx), %rdi
	leaq	l___unnamed_47(%rip), %rsi
LBB21_35:
	movl	$1, %edx
	callq	__ZN4core3fmt9Formatter9write_str17h98e119ad25a8903eE
	movb	$1, %r13b
	testb	%al, %al
	jne	LBB21_6
LBB21_39:
	movq	24(%rbx), %rdi
	callq	__ZN4core3fmt9Formatter9alternate17hd77eec28e879e5edE
	testb	%al, %al
	je	LBB21_63
	xorl	%r13d, %r13d
	jmp	LBB21_6
LBB21_63:
	movq	24(%rbx), %rdi
	leaq	l___unnamed_97(%rip), %rsi
	movl	$2, %edx
	callq	__ZN4core3fmt9Formatter9write_str17h98e119ad25a8903eE
	movb	$1, %r13b
	testb	%al, %al
	jne	LBB21_6
	movq	24(%rbx), %rdi
	movq	%r14, %rsi
	movq	%r15, %rdx
	callq	__ZN4core3fmt9Formatter9write_str17h98e119ad25a8903eE
	jmp	LBB21_7
LBB21_27:
	movq	$0, -104(%rbp)
	cmpq	$1, %rcx
	movq	-48(%rbp), %r14
	jne	LBB21_28
LBB21_61:
	movq	24(%rbx), %rsi
	leaq	-104(%rbp), %rdi
	callq	__ZN4core3fmt3num3imp52_$LT$impl$u20$core..fmt..Display$u20$for$u20$u64$GT$3fmt17h3230c9bc78e30ed1E
	movb	$1, %r13b
	testb	%al, %al
	je	LBB21_39
LBB21_6:
	movl	%r13d, %eax
LBB21_7:
	addq	$88, %rsp
	popq	%rbx
	popq	%r12
	popq	%r13
	popq	%r14
	popq	%r15
	popq	%rbp
	retq
LBB21_28:
	leaq	(%r11,%rcx), %r8
	negq	%r11
	xorl	%esi, %esi
	jmp	LBB21_29
LBB21_59:
	addl	%edx, %edi
	movl	%edi, %edx
	cmpl	$16, %edi
	jae	LBB21_65
LBB21_60:
	leaq	(%r12,%r11), %rax
	shlq	$4, %rsi
	movl	%edx, %edx
	orq	%rdx, %rsi
	movq	%rsi, -104(%rbp)
	cmpq	%rcx, %rax
	je	LBB21_61
LBB21_29:
	movzbl	(%r12), %edi
	testb	%dil, %dil
	js	LBB21_41
	incq	%r12
	jmp	LBB21_56
LBB21_41:
	leaq	1(%r12,%r11), %rax
	cmpq	%rcx, %rax
	je	LBB21_42
	movzbl	1(%r12), %edx
	addq	$2, %r12
	andl	$63, %edx
	movl	%edi, %r9d
	andl	$31, %r9d
	cmpb	$-33, %dil
	jbe	LBB21_45
LBB21_47:
	leaq	(%r12,%r11), %rax
	cmpq	%rcx, %rax
	je	LBB21_48
	movzbl	(%r12), %r10d
	incq	%r12
	andl	$63, %r10d
	shll	$6, %edx
	orl	%r10d, %edx
	cmpb	$-16, %dil
	jb	LBB21_51
LBB21_52:
	leaq	(%r12,%r11), %rax
	cmpq	%rcx, %rax
	je	LBB21_53
	movzbl	(%r12), %edi
	incq	%r12
	andl	$63, %edi
	jmp	LBB21_55
LBB21_42:
	xorl	%edx, %edx
	movq	%r8, %r12
	movl	%edi, %r9d
	andl	$31, %r9d
	cmpb	$-33, %dil
	ja	LBB21_47
LBB21_45:
	shll	$6, %r9d
	jmp	LBB21_46
LBB21_48:
	xorl	%r10d, %r10d
	movq	%r8, %r12
	shll	$6, %edx
	orl	%r10d, %edx
	cmpb	$-16, %dil
	jae	LBB21_52
LBB21_51:
	shll	$12, %r9d
LBB21_46:
	orl	%r9d, %edx
	movl	%edx, %edi
	jmp	LBB21_56
LBB21_53:
	xorl	%edi, %edi
LBB21_55:
	andl	$7, %r9d
	shll	$18, %r9d
	shll	$6, %edx
	orl	%r9d, %edx
	orl	%edi, %edx
	movl	%edx, %edi
	cmpl	$1114112, %edx
	je	LBB21_61
	.p2align	4, 0x90
LBB21_56:
	leal	-48(%rdi), %edx
	cmpl	$10, %edx
	jb	LBB21_60
	leal	-97(%rdi), %eax
	movl	$-87, %edx
	cmpl	$26, %eax
	jb	LBB21_59
	leal	-65(%rdi), %eax
	movl	$-55, %edx
	cmpl	$25, %eax
	jbe	LBB21_59
LBB21_65:
	leaq	l___unnamed_25(%rip), %rdi
	leaq	l___unnamed_98(%rip), %rdx
	movl	$43, %esi
	callq	__ZN4core9panicking5panic17h383a6b80ea7021aaE
LBB21_33:
	leaq	-120(%rbp), %rax
	movq	%rax, -104(%rbp)
	leaq	-56(%rbp), %rax
	movq	%rax, -96(%rbp)
	leaq	-64(%rbp), %rax
	movq	%rax, -88(%rbp)
	leaq	-104(%rbp), %rdi
	callq	__ZN4core3str6traits101_$LT$impl$u20$core..slice..SliceIndex$LT$str$GT$$u20$for$u20$core..ops..range..Range$LT$usize$GT$$GT$5index28_$u7b$$u7b$closure$u7d$$u7d$17hd04499129f2d597eE
	.cfi_endproc
	.p2align	2, 0x90
	.data_region jt32
.set L21_0_set_15, LBB21_15-LJTI21_0
.set L21_0_set_4, LBB21_4-LJTI21_0
.set L21_0_set_14, LBB21_14-LJTI21_0
.set L21_0_set_11, LBB21_11-LJTI21_0
.set L21_0_set_13, LBB21_13-LJTI21_0
.set L21_0_set_10, LBB21_10-LJTI21_0
.set L21_0_set_12, LBB21_12-LJTI21_0
LJTI21_0:
	.long	L21_0_set_15
	.long	L21_0_set_4
	.long	L21_0_set_14
	.long	L21_0_set_4
	.long	L21_0_set_4
	.long	L21_0_set_11
	.long	L21_0_set_4
	.long	L21_0_set_13
	.long	L21_0_set_4
	.long	L21_0_set_4
	.long	L21_0_set_4
	.long	L21_0_set_4
	.long	L21_0_set_10
	.long	L21_0_set_4
	.long	L21_0_set_4
	.long	L21_0_set_4
	.long	L21_0_set_4
	.long	L21_0_set_12
	.end_data_region

	.globl	__ZN14rustc_demangle8demangle17h5a43b142de791abbE
	.p2align	4, 0x90
__ZN14rustc_demangle8demangle17h5a43b142de791abbE:
	.cfi_startproc
	pushq	%rbp
	.cfi_def_cfa_offset 16
	.cfi_offset %rbp, -16
	movq	%rsp, %rbp
	.cfi_def_cfa_register %rbp
	pushq	%r15
	pushq	%r14
	pushq	%r13
	pushq	%r12
	pushq	%rbx
	subq	$216, %rsp
	.cfi_offset %rbx, -56
	.cfi_offset %r12, -48
	.cfi_offset %r13, -40
	.cfi_offset %r14, -32
	.cfi_offset %r15, -24
	movq	%rsi, %r12
	movq	%rdi, %r15
	leaq	l___unnamed_99(%rip), %rcx
	leaq	-216(%rbp), %rdi
	movl	$6, %r8d
	movq	%rdx, -80(%rbp)
	callq	__ZN4core3str7pattern11StrSearcher3new17hb3e2f8082f620422E
	cmpl	$1, -184(%rbp)
	jne	LBB22_4
	movq	-128(%rbp), %r10
	movq	-192(%rbp), %rax
	leaq	-1(%rax), %rcx
	movq	%rcx, -104(%rbp)
	movq	-216(%rbp), %r13
	movq	-208(%rbp), %r8
	movq	-200(%rbp), %r9
	movq	-144(%rbp), %rbx
	leaq	-1(%rax,%rbx), %rdi
	cmpq	$-1, %r10
	je	LBB22_44
	cmpq	%r8, %rdi
	jae	LBB22_98
	movq	-152(%rbp), %rdx
	movq	-176(%rbp), %r14
	movq	-160(%rbp), %rcx
	movq	%rax, %rsi
	movq	%rcx, -224(%rbp)
	subq	%rcx, %rsi
	movq	%rsi, -248(%rbp)
	movq	%r14, %rcx
	negq	%rcx
	movq	%rcx, -232(%rbp)
	movq	%rdx, -112(%rbp)
	jmp	LBB22_32
LBB22_4:
	movq	-216(%rbp), %r9
	movq	-208(%rbp), %rcx
	leaq	(%r9,%rcx), %r8
	movb	-160(%rbp), %r10b
	movq	-176(%rbp), %rsi
	jmp	LBB22_6
	.p2align	4, 0x90
LBB22_5:
	addq	%rax, %rsi
LBB22_6:
	movl	%r10d, %ebx
	testb	%r10b, %r10b
	sete	%r10b
	movq	%r9, -96(%rbp)
	movq	%rcx, -88(%rbp)
	movq	%rsi, -240(%rbp)
	movq	%rcx, -48(%rbp)
	testq	%rsi, %rsi
	je	LBB22_10
	cmpq	%rsi, %rcx
	je	LBB22_10
	jbe	LBB22_242
	cmpb	$-65, (%r9,%rsi)
	jle	LBB22_242
LBB22_10:
	movl	$1114112, %edi
	cmpq	%rsi, %rcx
	je	LBB22_25
	leaq	(%r9,%rsi), %rdx
	movzbl	(%rdx), %edi
	testb	%dil, %dil
	jns	LBB22_25
	leaq	1(%rdx), %rax
	cmpq	%r8, %rax
	je	LBB22_18
	movzbl	1(%rdx), %eax
	addq	$2, %rdx
	andl	$63, %eax
	movl	%edi, %r11d
	andl	$31, %r11d
	cmpb	$-33, %dil
	jbe	LBB22_19
LBB22_14:
	cmpq	%r8, %rdx
	je	LBB22_20
	movzbl	(%rdx), %r14d
	incq	%rdx
	andl	$63, %r14d
	shll	$6, %eax
	orl	%r14d, %eax
	cmpb	$-16, %dil
	jb	LBB22_21
LBB22_16:
	cmpq	%r8, %rdx
	je	LBB22_22
	movzbl	(%rdx), %edx
	andl	$63, %edx
	jmp	LBB22_23
LBB22_18:
	xorl	%eax, %eax
	movq	%r8, %rdx
	movl	%edi, %r11d
	andl	$31, %r11d
	cmpb	$-33, %dil
	ja	LBB22_14
LBB22_19:
	shll	$6, %r11d
	orl	%r11d, %eax
	jmp	LBB22_24
LBB22_20:
	xorl	%r14d, %r14d
	movq	%r8, %rdx
	shll	$6, %eax
	orl	%r14d, %eax
	cmpb	$-16, %dil
	jae	LBB22_16
LBB22_21:
	shll	$12, %r11d
	orl	%r11d, %eax
	jmp	LBB22_24
LBB22_22:
	xorl	%edx, %edx
LBB22_23:
	andl	$7, %r11d
	shll	$18, %r11d
	shll	$6, %eax
	orl	%r11d, %eax
	orl	%edx, %eax
LBB22_24:
	movl	%eax, %edi
	.p2align	4, 0x90
LBB22_25:
	testb	%bl, %bl
	jne	LBB22_61
	cmpl	$1114112, %edi
	je	LBB22_98
	movl	$1, %eax
	cmpl	$128, %edi
	jb	LBB22_5
	movl	$2, %eax
	cmpl	$2048, %edi
	jb	LBB22_5
	cmpl	$65536, %edi
	movl	$4, %eax
	sbbq	$0, %rax
	jmp	LBB22_5
	.p2align	4, 0x90
LBB22_30:
	addq	%rax, %rbx
	xorl	%r10d, %r10d
LBB22_31:
	movq	-104(%rbp), %rcx
	leaq	(%rbx,%rcx), %rdi
	cmpq	%r8, %rdi
	jae	LBB22_96
LBB22_32:
	movzbl	(%r13,%rdi), %ecx
	btq	%rcx, %rdx
	jae	LBB22_30
	movq	%r12, %r11
	movq	%r15, %r12
	cmpq	%r10, %r14
	movq	%r10, %rsi
	cmovaq	%r14, %rsi
	leaq	(%r9,%rsi), %rdx
	leaq	(%rbx,%rsi), %r15
	.p2align	4, 0x90
LBB22_34:
	cmpq	%rax, %rsi
	jae	LBB22_38
	cmpq	%r8, %r15
	jae	LBB22_241
	incq	%rsi
	movzbl	(%rdx), %ecx
	incq	%rdx
	leaq	1(%r15), %rdi
	cmpb	(%r13,%r15), %cl
	movq	%rdi, %r15
	je	LBB22_34
	addq	-232(%rbp), %rdi
	xorl	%r10d, %r10d
	movq	%rdi, %rbx
	movq	%r12, %r15
	movq	%r11, %r12
	movq	-112(%rbp), %rdx
	jmp	LBB22_31
	.p2align	4, 0x90
LBB22_38:
	movq	%r14, %rdi
	movq	%r12, %r15
	movq	%r11, %r12
	.p2align	4, 0x90
LBB22_39:
	cmpq	%rdi, %r10
	jae	LBB22_60
	decq	%rdi
	cmpq	%rax, %rdi
	jae	LBB22_243
	leaq	(%rdi,%rbx), %rsi
	cmpq	%r8, %rsi
	jae	LBB22_245
	movzbl	(%r9,%rdi), %ecx
	cmpb	(%r13,%rsi), %cl
	je	LBB22_39
	addq	-224(%rbp), %rbx
	movq	-248(%rbp), %r10
	movq	-112(%rbp), %rdx
	jmp	LBB22_31
LBB22_44:
	cmpq	%r8, %rdi
	jae	LBB22_98
	movq	-152(%rbp), %rcx
	movq	%rcx, -112(%rbp)
	movq	-176(%rbp), %rdx
	movq	-160(%rbp), %rcx
	movq	%rcx, -224(%rbp)
	leaq	(%r9,%rdx), %rcx
	movq	%rcx, -232(%rbp)
	leaq	(%r13,%rdx), %r11
	jmp	LBB22_49
LBB22_46:
	addq	%rax, %rsi
LBB22_47:
	movq	%rsi, %rbx
LBB22_48:
	movq	-104(%rbp), %rcx
	leaq	(%rbx,%rcx), %rdi
	cmpq	%r8, %rdi
	jae	LBB22_97
LBB22_49:
	movq	%rbx, %rsi
	movzbl	(%r13,%rdi), %edi
	movq	-112(%rbp), %rcx
	btq	%rdi, %rcx
	jae	LBB22_46
	xorl	%r14d, %r14d
	movq	%rsi, %rbx
	movq	-232(%rbp), %r10
	.p2align	4, 0x90
LBB22_51:
	leaq	(%rdx,%r14), %rdi
	cmpq	%rax, %rdi
	jae	LBB22_54
	leaq	(%rdx,%rbx), %rdi
	cmpq	%r8, %rdi
	jae	LBB22_244
	movzbl	(%r10), %ecx
	incq	%r10
	incq	%r14
	cmpb	(%r11,%rbx), %cl
	leaq	1(%rbx), %rbx
	je	LBB22_51
	jmp	LBB22_48
LBB22_54:
	movq	%rdx, %rdi
	.p2align	4, 0x90
LBB22_55:
	testq	%rdi, %rdi
	je	LBB22_94
	decq	%rdi
	cmpq	%rax, %rdi
	jae	LBB22_243
	leaq	(%rdi,%rsi), %rbx
	cmpq	%r8, %rbx
	jae	LBB22_246
	movzbl	(%r9,%rdi), %ecx
	cmpb	(%r13,%rbx), %cl
	je	LBB22_55
	addq	-224(%rbp), %rsi
	jmp	LBB22_47
LBB22_60:
	addq	%rbx, %rax
	movq	%rax, -144(%rbp)
	movq	$0, -128(%rbp)
	movq	%rbx, %rsi
LBB22_61:
	movq	%rsi, %rax
	addq	$6, %rax
	movq	-80(%rbp), %r9
	jb	LBB22_95
LBB22_62:
	movq	%r12, -72(%rbp)
	movq	%r9, -64(%rbp)
	movq	%rax, -48(%rbp)
	movq	%r9, -96(%rbp)
	testq	%rax, %rax
	je	LBB22_66
	cmpq	%r9, %rax
	je	LBB22_66
	jae	LBB22_247
	cmpb	$-65, (%r12,%rax)
	jle	LBB22_247
LBB22_66:
	cmpq	%r9, %rax
	jne	LBB22_72
LBB22_67:
	movq	%r12, -216(%rbp)
	movq	%r9, -208(%rbp)
	testq	%rsi, %rsi
	je	LBB22_71
	cmpq	%r9, %rsi
	je	LBB22_71
	jae	LBB22_248
	cmpb	$-65, (%r12,%rsi)
	jle	LBB22_248
LBB22_71:
	movq	%rsi, %r9
	cmpq	$3, %r9
	jb	LBB22_93
	jmp	LBB22_99
LBB22_72:
	leaq	(%r12,%r9), %r8
	addq	%r12, %rax
	jmp	LBB22_74
	.p2align	4, 0x90
LBB22_73:
	cmpq	%r8, %rax
	je	LBB22_67
LBB22_74:
	leaq	1(%rax), %rcx
	movzbl	(%rax), %edi
	testb	%dil, %dil
	js	LBB22_76
	movq	%rcx, %rax
	jmp	LBB22_89
	.p2align	4, 0x90
LBB22_76:
	cmpq	%r8, %rcx
	je	LBB22_82
	movzbl	1(%rax), %edx
	addq	$2, %rax
	andl	$63, %edx
	movl	%edi, %ebx
	andl	$31, %ebx
	cmpb	$-33, %dil
	jbe	LBB22_83
LBB22_78:
	cmpq	%r8, %rax
	je	LBB22_84
	movzbl	(%rax), %ecx
	incq	%rax
	andl	$63, %ecx
	shll	$6, %edx
	orl	%ecx, %edx
	cmpb	$-16, %dil
	jb	LBB22_85
LBB22_80:
	cmpq	%r8, %rax
	je	LBB22_87
	movzbl	(%rax), %edi
	incq	%rax
	andl	$63, %edi
	jmp	LBB22_88
LBB22_82:
	xorl	%edx, %edx
	movq	%r8, %rax
	movl	%edi, %ebx
	andl	$31, %ebx
	cmpb	$-33, %dil
	ja	LBB22_78
LBB22_83:
	shll	$6, %ebx
	jmp	LBB22_86
LBB22_84:
	xorl	%ecx, %ecx
	movq	%r8, %rax
	shll	$6, %edx
	orl	%ecx, %edx
	cmpb	$-16, %dil
	jae	LBB22_80
LBB22_85:
	shll	$12, %ebx
LBB22_86:
	orl	%ebx, %edx
	movl	%edx, %edi
	jmp	LBB22_89
LBB22_87:
	xorl	%edi, %edi
	movq	%r8, %rax
LBB22_88:
	andl	$7, %ebx
	shll	$18, %ebx
	shll	$6, %edx
	orl	%ebx, %edx
	orl	%edi, %edx
	movl	%edx, %edi
	cmpl	$1114112, %edx
	je	LBB22_67
	.p2align	4, 0x90
LBB22_89:
	leal	-65(%rdi), %ecx
	cmpl	$6, %ecx
	jb	LBB22_73
	cmpl	$64, %edi
	je	LBB22_73
	addl	$-48, %edi
	cmpl	$9, %edi
	jbe	LBB22_73
	cmpq	$3, %r9
	jae	LBB22_99
LBB22_93:
	cmpq	$2, %r9
	je	LBB22_101
	jmp	LBB22_137
LBB22_94:
	addq	%rsi, %rax
	movq	%rax, -144(%rbp)
	movq	%rsi, %rax
	addq	$6, %rax
	movq	-80(%rbp), %r9
	jae	LBB22_62
LBB22_95:
	leaq	_str.0(%rip), %rdi
	leaq	l___unnamed_100(%rip), %rdx
	movl	$28, %esi
	callq	__ZN4core9panicking5panic17h383a6b80ea7021aaE
LBB22_96:
	movq	%r10, -128(%rbp)
LBB22_97:
	movq	%rbx, -144(%rbp)
LBB22_98:
	movq	-80(%rbp), %r9
	cmpq	$3, %r9
	jb	LBB22_93
LBB22_99:
	leaq	l___unnamed_101(%rip), %rax
	cmpq	%rax, %r12
	je	LBB22_109
	movzwl	(%r12), %eax
	xorl	$23135, %eax
	movzbl	2(%r12), %ecx
	xorl	$78, %ecx
	orw	%ax, %cx
	je	LBB22_109
LBB22_101:
	leaq	l___unnamed_102(%rip), %rax
	cmpq	%rax, %r12
	je	LBB22_112
	movzwl	(%r12), %eax
	cmpl	$20058, %eax
	je	LBB22_112
	movq	%r9, %r14
	cmpq	$4, %r9
	jb	LBB22_122
	leaq	L___unnamed_103(%rip), %rax
	cmpq	%rax, %r12
	movq	%r14, %r9
	je	LBB22_106
	cmpl	$1314545503, (%r12)
	jne	LBB22_123
LBB22_106:
	movq	%r12, -72(%rbp)
	movq	%r9, -64(%rbp)
	movq	$4, -48(%rbp)
	movq	%r9, -96(%rbp)
	cmpq	$4, %r9
	je	LBB22_108
	cmpb	$-65, 4(%r12)
	jle	LBB22_247
LBB22_108:
	leaq	4(%r12), %r13
	leaq	-4(%r9), %rbx
	jmp	LBB22_115
LBB22_109:
	movq	%r12, -72(%rbp)
	movq	%r9, -64(%rbp)
	movq	$3, -48(%rbp)
	movq	%r9, -96(%rbp)
	cmpq	$3, %r9
	je	LBB22_111
	cmpb	$-65, 3(%r12)
	jle	LBB22_247
LBB22_111:
	leaq	3(%r12), %r13
	movq	%r9, %r14
	leaq	-3(%r9), %rbx
	jmp	LBB22_115
LBB22_112:
	movq	%r12, -72(%rbp)
	movq	%r9, -64(%rbp)
	movq	$2, -48(%rbp)
	movq	%r9, -96(%rbp)
	cmpq	$2, %r9
	je	LBB22_114
	cmpb	$-65, 2(%r12)
	jle	LBB22_247
LBB22_114:
	leaq	2(%r12), %r13
	movq	%r9, %r14
	leaq	-2(%r9), %rbx
LBB22_115:
	leaq	(%r13,%rbx), %r10
	xorl	%eax, %eax
	.p2align	4, 0x90
LBB22_116:
	cmpq	%rax, %rbx
	je	LBB22_118
	cmpb	$0, (%r13,%rax)
	leaq	1(%rax), %rax
	jns	LBB22_116
	jmp	LBB22_122
LBB22_118:
	testq	%rbx, %rbx
	je	LBB22_122
	leaq	1(%r13), %rsi
	movzbl	(%r13), %ecx
	testb	%cl, %cl
	js	LBB22_146
	cmpl	$69, %ecx
	je	LBB22_212
LBB22_121:
	cmpl	$1114112, %ecx
	jne	LBB22_153
LBB22_122:
	movq	%r14, %r9
	cmpq	$3, %r14
	jb	LBB22_127
LBB22_123:
	leaq	l___unnamed_104(%rip), %rax
	cmpq	%rax, %r12
	je	LBB22_125
	movzwl	(%r12), %eax
	cmpl	$21087, %eax
	jne	LBB22_128
LBB22_125:
	movq	%r12, -72(%rbp)
	movq	%r9, -64(%rbp)
	movq	$2, -48(%rbp)
	movq	%r9, -96(%rbp)
	movb	2(%r12), %al
	cmpb	$-65, %al
	jle	LBB22_247
	leaq	2(%r12), %r13
	leaq	-2(%r9), %rbx
	jmp	LBB22_132
LBB22_127:
	cmpq	$2, %r9
	jne	LBB22_137
LBB22_128:
	leaq	l___unnamed_105(%rip), %rax
	cmpq	%rax, %r12
	je	LBB22_130
	cmpb	$82, (%r12)
	jne	LBB22_140
LBB22_130:
	movq	%r12, -72(%rbp)
	movq	%r9, -64(%rbp)
	movq	$1, -48(%rbp)
	movq	%r9, -96(%rbp)
	movb	1(%r12), %al
	cmpb	$-65, %al
	jle	LBB22_247
	leaq	1(%r12), %r13
	leaq	-1(%r9), %rbx
LBB22_132:
	addb	$-65, %al
	leaq	l___unnamed_43(%rip), %r14
	movl	$2, %edx
	cmpb	$25, %al
	ja	LBB22_143
	xorl	%r10d, %r10d
	xorl	%eax, %eax
	.p2align	4, 0x90
LBB22_134:
	cmpq	%rax, %rbx
	je	LBB22_138
	cmpb	$0, (%r13,%rax)
	leaq	1(%rax), %rax
	jns	LBB22_134
	jmp	LBB22_144
LBB22_137:
	leaq	l___unnamed_43(%rip), %r14
	movl	$2, %edx
LBB22_143:
	xorl	%r10d, %r10d
LBB22_144:
LBB22_145:
	movq	%rdx, (%r15)
	movq	%r13, 8(%r15)
	movq	%rbx, 16(%r15)
	movq	%r8, 24(%r15)
	movq	%r12, 32(%r15)
	movq	%r9, 40(%r15)
	movq	%r14, 48(%r15)
	movq	%r10, 56(%r15)
	movq	%r15, %rax
	addq	$216, %rsp
	popq	%rbx
	popq	%r12
	popq	%r13
	popq	%r14
	popq	%r15
	popq	%rbp
	retq
LBB22_138:
	movq	%r9, -80(%rbp)
	movq	%r13, -72(%rbp)
	movq	%rbx, -64(%rbp)
	movq	$0, -56(%rbp)
	leaq	-72(%rbp), %rdi
	callq	__ZN14rustc_demangle2v06Parser9skip_path17h6f24ebac8b1b1d94E
	testb	%al, %al
	je	LBB22_194
LBB22_139:
	xorl	%r10d, %r10d
	movq	-80(%rbp), %r9
	movl	$2, %edx
	jmp	LBB22_145
LBB22_140:
	leaq	l___unnamed_43(%rip), %r14
	movl	$2, %edx
	cmpq	$3, %r9
	jbe	LBB22_143
	leaq	l___unnamed_106(%rip), %rax
	cmpq	%rax, %r12
	je	LBB22_205
	movzwl	(%r12), %eax
	xorl	$24415, %eax
	movzbl	2(%r12), %ecx
	xorl	$82, %ecx
	orw	%ax, %cx
	jne	LBB22_143
LBB22_205:
	movq	%r12, -72(%rbp)
	movq	%r9, -64(%rbp)
	movq	$3, -48(%rbp)
	movq	%r9, -96(%rbp)
	movb	3(%r12), %al
	cmpb	$-65, %al
	jle	LBB22_247
	leaq	3(%r12), %r13
	leaq	-3(%r9), %rbx
	jmp	LBB22_132
LBB22_146:
	xorl	%eax, %eax
	movq	%r10, %rdi
	cmpq	$1, %rbx
	je	LBB22_148
	leaq	2(%r13), %rsi
	movzbl	1(%r13), %eax
	andl	$63, %eax
	movq	%rsi, %rdi
LBB22_148:
	movl	%ecx, %edx
	andl	$31, %edx
	cmpb	$-33, %cl
	jbe	LBB22_204
	cmpq	%r10, %rdi
	je	LBB22_207
	movzbl	(%rdi), %r8d
	incq	%rdi
	andl	$63, %r8d
	movq	%rdi, %rsi
	shll	$6, %eax
	orl	%r8d, %eax
	cmpb	$-16, %cl
	jb	LBB22_208
LBB22_151:
	cmpq	%r10, %rdi
	je	LBB22_209
	movzbl	(%rdi), %ecx
	incq	%rdi
	andl	$63, %ecx
	movq	%rdi, %rsi
	jmp	LBB22_210
LBB22_153:
	xorl	%r8d, %r8d
	movl	$10, %r9d
LBB22_154:
	movl	%ecx, %edi
	addl	$-48, %edi
	cmpl	$9, %edi
	ja	LBB22_122
	xorl	%eax, %eax
	jmp	LBB22_158
	.p2align	4, 0x90
LBB22_156:
	movq	%rdx, %rsi
LBB22_157:
	leal	-48(%rcx), %edi
	cmpl	$10, %edi
	jae	LBB22_175
LBB22_158:
	mulq	%r9
	movq	%rax, %rcx
	movl	%edi, %eax
	seto	%dl
	addq	%rcx, %rax
	setb	%cl
	testb	%dl, %dl
	jne	LBB22_122
	testb	%cl, %cl
	jne	LBB22_122
	cmpq	%r10, %rsi
	je	LBB22_122
	leaq	1(%rsi), %rdx
	movzbl	(%rsi), %ecx
	testb	%cl, %cl
	jns	LBB22_156
	cmpq	%r10, %rdx
	je	LBB22_168
	movzbl	1(%rsi), %edx
	addq	$2, %rsi
	andl	$63, %edx
	movl	%ecx, %edi
	andl	$31, %edi
	cmpb	$-33, %cl
	jbe	LBB22_169
LBB22_164:
	cmpq	%r10, %rsi
	je	LBB22_170
	movzbl	(%rsi), %r11d
	incq	%rsi
	andl	$63, %r11d
	shll	$6, %edx
	orl	%r11d, %edx
	cmpb	$-16, %cl
	jb	LBB22_171
LBB22_166:
	cmpq	%r10, %rsi
	je	LBB22_173
	movzbl	(%rsi), %ecx
	incq	%rsi
	andl	$63, %ecx
	jmp	LBB22_174
LBB22_168:
	xorl	%edx, %edx
	movq	%r10, %rsi
	movl	%ecx, %edi
	andl	$31, %edi
	cmpb	$-33, %cl
	ja	LBB22_164
LBB22_169:
	shll	$6, %edi
	jmp	LBB22_172
LBB22_170:
	xorl	%r11d, %r11d
	movq	%r10, %rsi
	shll	$6, %edx
	orl	%r11d, %edx
	cmpb	$-16, %cl
	jae	LBB22_166
LBB22_171:
	shll	$12, %edi
LBB22_172:
	orl	%edi, %edx
	movl	%edx, %ecx
	jmp	LBB22_157
LBB22_173:
	xorl	%ecx, %ecx
LBB22_174:
	andl	$7, %edi
	shll	$18, %edi
	shll	$6, %edx
	orl	%edi, %edx
	orl	%ecx, %edx
	movl	%edx, %ecx
	cmpl	$1114112, %edx
	jne	LBB22_157
	jmp	LBB22_122
LBB22_175:
	testq	%rax, %rax
	jne	LBB22_181
LBB22_176:
	incq	%r8
	je	LBB22_249
	cmpl	$69, %ecx
	jne	LBB22_154
	jmp	LBB22_213
LBB22_178:
	shll	$6, %esi
LBB22_179:
	orl	%esi, %edi
	movl	%edi, %ecx
LBB22_180:
	movq	%rdx, %rsi
	decq	%rax
	je	LBB22_176
LBB22_181:
	cmpq	%r10, %rsi
	je	LBB22_122
	leaq	1(%rsi), %rdx
	movzbl	(%rsi), %ecx
	testb	%cl, %cl
	jns	LBB22_180
	cmpq	%r10, %rdx
	je	LBB22_185
	movzbl	1(%rsi), %edi
	addq	$2, %rsi
	andl	$63, %edi
	movq	%rsi, %rdx
	movl	%ecx, %esi
	andl	$31, %esi
	cmpb	$-33, %cl
	jbe	LBB22_178
	jmp	LBB22_186
LBB22_185:
	xorl	%edi, %edi
	movq	%r10, %rdx
	movl	%ecx, %esi
	andl	$31, %esi
	cmpb	$-33, %cl
	jbe	LBB22_178
LBB22_186:
	cmpq	%r10, %rdx
	je	LBB22_190
	movzbl	(%rdx), %r11d
	incq	%rdx
	andl	$63, %r11d
	shll	$6, %edi
	orl	%r11d, %edi
	cmpb	$-16, %cl
	jb	LBB22_191
LBB22_188:
	cmpq	%r10, %rdx
	je	LBB22_192
	movzbl	(%rdx), %ecx
	incq	%rdx
	andl	$63, %ecx
	jmp	LBB22_193
LBB22_190:
	xorl	%r11d, %r11d
	movq	%r10, %rdx
	shll	$6, %edi
	orl	%r11d, %edi
	cmpb	$-16, %cl
	jae	LBB22_188
LBB22_191:
	shll	$12, %esi
	jmp	LBB22_179
LBB22_192:
	xorl	%ecx, %ecx
LBB22_193:
	andl	$7, %esi
	shll	$18, %esi
	shll	$6, %edi
	orl	%esi, %edi
	orl	%ecx, %edi
	movl	%edi, %ecx
	cmpl	$1114112, %edi
	jne	LBB22_180
	jmp	LBB22_122
LBB22_194:
	movq	-64(%rbp), %r10
	movq	-56(%rbp), %rax
	cmpq	%rax, %r10
	jbe	LBB22_198
	movq	-72(%rbp), %rcx
	movb	(%rcx,%rax), %cl
	addb	$-65, %cl
	cmpb	$25, %cl
	ja	LBB22_198
	leaq	-72(%rbp), %rdi
	callq	__ZN14rustc_demangle2v06Parser9skip_path17h6f24ebac8b1b1d94E
	testb	%al, %al
	jne	LBB22_139
	movq	-64(%rbp), %r10
	movq	-56(%rbp), %rax
LBB22_198:
	movq	-72(%rbp), %rsi
	movq	%rsi, -96(%rbp)
	movq	%r10, -88(%rbp)
	movq	%rax, -240(%rbp)
	movq	%r10, -48(%rbp)
	testq	%rax, %rax
	je	LBB22_202
	cmpq	%rax, %r10
	je	LBB22_202
	jbe	LBB22_250
	cmpb	$-65, (%rsi,%rax)
	jle	LBB22_250
LBB22_202:
	addq	%rax, %rsi
	subq	%rax, %r10
	movl	$1, %edx
	movq	-80(%rbp), %r9
	testq	%r10, %r10
	jne	LBB22_214
LBB22_203:
	xorl	%r10d, %r10d
	movq	%rsi, %r14
	jmp	LBB22_145
LBB22_204:
	shll	$6, %edx
	orl	%edx, %eax
	jmp	LBB22_211
LBB22_207:
	xorl	%r8d, %r8d
	movq	%r10, %rdi
	shll	$6, %eax
	orl	%r8d, %eax
	cmpb	$-16, %cl
	jae	LBB22_151
LBB22_208:
	shll	$12, %edx
	orl	%edx, %eax
	jmp	LBB22_211
LBB22_209:
	xorl	%ecx, %ecx
LBB22_210:
	andl	$7, %edx
	shll	$18, %edx
	shll	$6, %eax
	orl	%edx, %eax
	orl	%ecx, %eax
LBB22_211:
	movl	%eax, %ecx
	cmpl	$69, %ecx
	jne	LBB22_121
LBB22_212:
	xorl	%r8d, %r8d
LBB22_213:
	subq	%rsi, %r10
	xorl	%edx, %edx
	movq	%r14, %r9
	testq	%r10, %r10
	je	LBB22_203
LBB22_214:
	leaq	l___unnamed_24(%rip), %rax
	cmpq	%rax, %rsi
	je	LBB22_216
	cmpb	$46, (%rsi)
	jne	LBB22_240
LBB22_216:
	movq	%rdx, -104(%rbp)
	movq	%r8, -80(%rbp)
	leaq	(%rsi,%r10), %r11
	leaq	l___unnamed_43(%rip), %r14
	movq	%rsi, %rdx
	jmp	LBB22_219
	.p2align	4, 0x90
LBB22_217:
	movabsq	$64424509503, %rdi
	btq	%rax, %rdi
	jae	LBB22_237
LBB22_218:
	cmpq	%r11, %rdx
	je	LBB22_239
LBB22_219:
	leaq	1(%rdx), %rax
	movzbl	(%rdx), %ecx
	testb	%cl, %cl
	js	LBB22_221
	movq	%rax, %rdx
	jmp	LBB22_233
	.p2align	4, 0x90
LBB22_221:
	cmpq	%r11, %rax
	je	LBB22_227
	movzbl	1(%rdx), %edi
	addq	$2, %rdx
	andl	$63, %edi
	movl	%ecx, %eax
	andl	$31, %eax
	cmpb	$-33, %cl
	jbe	LBB22_228
LBB22_223:
	movq	%r9, %r8
	cmpq	%r11, %rdx
	je	LBB22_229
	movzbl	(%rdx), %r9d
	incq	%rdx
	andl	$63, %r9d
	shll	$6, %edi
	orl	%r9d, %edi
	cmpb	$-16, %cl
	jb	LBB22_230
LBB22_225:
	cmpq	%r11, %rdx
	movq	%r8, %r9
	je	LBB22_231
	movzbl	(%rdx), %ecx
	incq	%rdx
	andl	$63, %ecx
	jmp	LBB22_232
LBB22_227:
	xorl	%edi, %edi
	movq	%r11, %rdx
	movl	%ecx, %eax
	andl	$31, %eax
	cmpb	$-33, %cl
	ja	LBB22_223
LBB22_228:
	shll	$6, %eax
	orl	%eax, %edi
	movl	%edi, %ecx
	jmp	LBB22_233
LBB22_229:
	xorl	%r9d, %r9d
	movq	%r11, %rdx
	shll	$6, %edi
	orl	%r9d, %edi
	cmpb	$-16, %cl
	jae	LBB22_225
LBB22_230:
	shll	$12, %eax
	orl	%eax, %edi
	movl	%edi, %ecx
	movq	%r8, %r9
	jmp	LBB22_233
LBB22_231:
	xorl	%ecx, %ecx
	movq	%r11, %rdx
LBB22_232:
	andl	$7, %eax
	shll	$18, %eax
	shll	$6, %edi
	orl	%eax, %edi
	orl	%ecx, %edi
	movl	%edi, %ecx
	cmpl	$1114112, %edi
	je	LBB22_239
	.p2align	4, 0x90
LBB22_233:
	leal	-33(%rcx), %eax
	cmpl	$15, %eax
	jb	LBB22_218
	leal	-48(%rcx), %eax
	cmpl	$10, %eax
	jb	LBB22_218
	movl	%ecx, %eax
	andl	$-33, %eax
	addl	$-65, %eax
	cmpl	$26, %eax
	jb	LBB22_218
	leal	-91(%rcx), %eax
	cmpl	$35, %eax
	jbe	LBB22_217
LBB22_237:
	addl	$-58, %ecx
	cmpl	$7, %ecx
	jb	LBB22_218
	movl	$2, %edx
	xorl	%r10d, %r10d
	movq	-80(%rbp), %r8
	jmp	LBB22_145
LBB22_239:
	movq	%rsi, %r14
	movq	-80(%rbp), %r8
	movq	-104(%rbp), %rdx
	jmp	LBB22_145
LBB22_240:
	leaq	l___unnamed_43(%rip), %r14
	movl	$2, %edx
	xorl	%r10d, %r10d
	jmp	LBB22_145
LBB22_241:
	leaq	l___unnamed_107(%rip), %rdx
	movq	%r15, %rdi
	movq	%r8, %rsi
	callq	__ZN4core9panicking18panic_bounds_check17he87128426d100e93E
LBB22_242:
	leaq	-96(%rbp), %rax
	movq	%rax, -72(%rbp)
	leaq	-240(%rbp), %rax
	movq	%rax, -64(%rbp)
	leaq	-48(%rbp), %rax
	movq	%rax, -56(%rbp)
	leaq	-72(%rbp), %rdi
	callq	__ZN4core3str6traits105_$LT$impl$u20$core..slice..SliceIndex$LT$str$GT$$u20$for$u20$core..ops..range..RangeFrom$LT$usize$GT$$GT$5index28_$u7b$$u7b$closure$u7d$$u7d$17h75180eb441870eb2E
LBB22_243:
	leaq	l___unnamed_108(%rip), %rdx
	movq	%rax, %rsi
	callq	__ZN4core9panicking18panic_bounds_check17he87128426d100e93E
LBB22_244:
	leaq	l___unnamed_107(%rip), %rdx
	movq	%r8, %rsi
	callq	__ZN4core9panicking18panic_bounds_check17he87128426d100e93E
LBB22_245:
	leaq	l___unnamed_109(%rip), %rdx
	movq	%rsi, %rdi
	movq	%r8, %rsi
	callq	__ZN4core9panicking18panic_bounds_check17he87128426d100e93E
LBB22_246:
	leaq	l___unnamed_109(%rip), %rdx
	movq	%rbx, %rdi
	movq	%r8, %rsi
	callq	__ZN4core9panicking18panic_bounds_check17he87128426d100e93E
LBB22_247:
	leaq	-72(%rbp), %rax
	movq	%rax, -216(%rbp)
	leaq	-48(%rbp), %rax
	movq	%rax, -208(%rbp)
	leaq	-96(%rbp), %rax
	movq	%rax, -200(%rbp)
	leaq	-216(%rbp), %rdi
	callq	__ZN4core3str6traits105_$LT$impl$u20$core..slice..SliceIndex$LT$str$GT$$u20$for$u20$core..ops..range..RangeFrom$LT$usize$GT$$GT$5index28_$u7b$$u7b$closure$u7d$$u7d$17h75180eb441870eb2E
LBB22_248:
	leaq	-216(%rbp), %rdi
	callq	__ZN4core3str6traits103_$LT$impl$u20$core..slice..SliceIndex$LT$str$GT$$u20$for$u20$core..ops..range..RangeTo$LT$usize$GT$$GT$5index28_$u7b$$u7b$closure$u7d$$u7d$17h7961678a34db7ba2E
LBB22_249:
	leaq	_str.0(%rip), %rdi
	leaq	l___unnamed_110(%rip), %rdx
	movl	$28, %esi
	callq	__ZN4core9panicking5panic17h383a6b80ea7021aaE
LBB22_250:
	leaq	-96(%rbp), %rax
	movq	%rax, -216(%rbp)
	leaq	-240(%rbp), %rax
	movq	%rax, -208(%rbp)
	leaq	-48(%rbp), %rax
	movq	%rax, -200(%rbp)
	leaq	-216(%rbp), %rdi
	callq	__ZN4core3str6traits105_$LT$impl$u20$core..slice..SliceIndex$LT$str$GT$$u20$for$u20$core..ops..range..RangeFrom$LT$usize$GT$$GT$5index28_$u7b$$u7b$closure$u7d$$u7d$17h75180eb441870eb2E
	.cfi_endproc

	.globl	__ZN14rustc_demangle12try_demangle17h3fb9faf454205f32E
	.p2align	4, 0x90
__ZN14rustc_demangle12try_demangle17h3fb9faf454205f32E:
	.cfi_startproc
	pushq	%rbp
	.cfi_def_cfa_offset 16
	.cfi_offset %rbp, -16
	movq	%rsp, %rbp
	.cfi_def_cfa_register %rbp
	pushq	%rbx
	subq	$72, %rsp
	.cfi_offset %rbx, -24
	movq	%rdi, %rbx
	leaq	-72(%rbp), %rdi
	callq	__ZN14rustc_demangle8demangle17h5a43b142de791abbE
	cmpq	$2, -72(%rbp)
	jne	LBB23_2
	movq	$3, (%rbx)
	jmp	LBB23_3
LBB23_2:
	movq	-16(%rbp), %rax
	movq	%rax, 56(%rbx)
	movq	-24(%rbp), %rax
	movq	%rax, 48(%rbx)
	movq	-32(%rbp), %rax
	movq	%rax, 40(%rbx)
	movq	-40(%rbp), %rax
	movq	%rax, 32(%rbx)
	movq	-48(%rbp), %rax
	movq	%rax, 24(%rbx)
	movq	-56(%rbp), %rax
	movq	%rax, 16(%rbx)
	movq	-72(%rbp), %rax
	movq	-64(%rbp), %rcx
	movq	%rcx, 8(%rbx)
	movq	%rax, (%rbx)
LBB23_3:
	movq	%rbx, %rax
	addq	$72, %rsp
	popq	%rbx
	popq	%rbp
	retq
	.cfi_endproc

	.globl	__ZN14rustc_demangle8Demangle6as_str17h9ceb594ffc499717E
	.p2align	4, 0x90
__ZN14rustc_demangle8Demangle6as_str17h9ceb594ffc499717E:
	.cfi_startproc
	pushq	%rbp
	.cfi_def_cfa_offset 16
	.cfi_offset %rbp, -16
	movq	%rsp, %rbp
	.cfi_def_cfa_register %rbp
	movq	32(%rdi), %rax
	movq	40(%rdi), %rdx
	popq	%rbp
	retq
	.cfi_endproc

	.globl	__ZN61_$LT$rustc_demangle..Demangle$u20$as$u20$core..fmt..Debug$GT$3fmt17h6e55ef1ec1b31523E
	.p2align	4, 0x90
__ZN61_$LT$rustc_demangle..Demangle$u20$as$u20$core..fmt..Debug$GT$3fmt17h6e55ef1ec1b31523E:
	.cfi_startproc
	pushq	%rbp
	.cfi_def_cfa_offset 16
	.cfi_offset %rbp, -16
	movq	%rsp, %rbp
	.cfi_def_cfa_register %rbp
	pushq	%r14
	pushq	%rbx
	subq	$48, %rsp
	.cfi_offset %rbx, -32
	.cfi_offset %r14, -24
	movq	%rsi, %r14
	movq	%rdi, %rbx
	movq	(%rdi), %rax
	cmpq	$2, %rax
	jne	LBB25_1
	movq	32(%rbx), %rsi
	movq	40(%rbx), %rdx
	movq	%r14, %rdi
	callq	__ZN4core3fmt9Formatter9write_str17h98e119ad25a8903eE
	movl	%eax, %ecx
	movb	$1, %al
	testb	%cl, %cl
	je	LBB25_6
	jmp	LBB25_7
LBB25_1:
	leaq	8(%rbx), %rdi
	cmpl	$1, %eax
	jne	LBB25_4
	movups	(%rdi), %xmm0
	movaps	%xmm0, -64(%rbp)
	movq	$0, -48(%rbp)
	movq	%r14, -40(%rbp)
	movl	$0, -32(%rbp)
	leaq	-64(%rbp), %rdi
	movl	$1, %esi
	callq	__ZN14rustc_demangle2v07Printer10print_path17hd7744b8986b06fb9E
	movl	%eax, %ecx
	movb	$1, %al
	testb	%cl, %cl
	je	LBB25_6
	jmp	LBB25_7
LBB25_4:
	movq	%r14, %rsi
	callq	__ZN71_$LT$rustc_demangle..legacy..Demangle$u20$as$u20$core..fmt..Display$GT$3fmt17ha506af686d232509E
	movl	%eax, %ecx
	movb	$1, %al
	testb	%cl, %cl
	jne	LBB25_7
LBB25_6:
	movq	48(%rbx), %rsi
	movq	56(%rbx), %rdx
	movq	%r14, %rdi
	callq	__ZN4core3fmt9Formatter9write_str17h98e119ad25a8903eE
LBB25_7:
	addq	$48, %rsp
	popq	%rbx
	popq	%r14
	popq	%rbp
	retq
	.cfi_endproc

	.globl	__ZN69_$LT$rustc_demangle..TryDemangleError$u20$as$u20$core..fmt..Debug$GT$3fmt17h101fcabb6b27b714E
	.p2align	4, 0x90
__ZN69_$LT$rustc_demangle..TryDemangleError$u20$as$u20$core..fmt..Debug$GT$3fmt17h101fcabb6b27b714E:
	.cfi_startproc
	pushq	%rbp
	.cfi_def_cfa_offset 16
	.cfi_offset %rbp, -16
	movq	%rsp, %rbp
	.cfi_def_cfa_register %rbp
	pushq	%r14
	pushq	%rbx
	subq	$32, %rsp
	.cfi_offset %rbx, -32
	.cfi_offset %r14, -24
	movq	%rdi, %rbx
	leaq	L___unnamed_111(%rip), %rdx
	leaq	-40(%rbp), %r14
	movl	$16, %ecx
	movq	%r14, %rdi
	callq	__ZN4core3fmt9Formatter12debug_struct17ha1a64e91d2a98458E
	movq	%rbx, -24(%rbp)
	leaq	l___unnamed_112(%rip), %rsi
	leaq	l___unnamed_113(%rip), %r8
	leaq	-24(%rbp), %rcx
	movl	$5, %edx
	movq	%r14, %rdi
	callq	__ZN4core3fmt8builders11DebugStruct5field17h6c54d35ac41bb1e6E
	movq	%r14, %rdi
	callq	__ZN4core3fmt8builders11DebugStruct6finish17h67ed49fd5e81bb24E
	addq	$32, %rsp
	popq	%rbx
	popq	%r14
	popq	%rbp
	retq
	.cfi_endproc

	.section	__TEXT,__const
l___unnamed_1:
	.ascii	"()"

l___unnamed_114:
	.ascii	"/rustc/6c8927b0cf80ceee19386026cf9d7fd4fd9d486f/src/libcore/str/mod.rs"

	.section	__DATA,__const
	.p2align	3
l___unnamed_2:
	.quad	l___unnamed_114
	.asciz	"F\000\000\000\000\000\000\000\206\007\000\000/\000\000"

	.p2align	3
l___unnamed_3:
	.quad	l___unnamed_114
	.asciz	"F\000\000\000\000\000\000\000\316\007\000\000/\000\000"

	.p2align	3
l___unnamed_4:
	.quad	l___unnamed_114
	.asciz	"F\000\000\000\000\000\000\000\027\b\000\000/\000\000"

	.section	__TEXT,__const
l___unnamed_115:
	.ascii	"/rustc/6c8927b0cf80ceee19386026cf9d7fd4fd9d486f/src/libcore/str/pattern.rs"

	.section	__DATA,__const
	.p2align	3
l___unnamed_107:
	.quad	l___unnamed_115
	.asciz	"J\000\000\000\000\000\000\0004\005\000\000!\000\000"

	.p2align	3
l___unnamed_108:
	.quad	l___unnamed_115
	.asciz	"J\000\000\000\000\000\000\000@\005\000\000\024\000\000"

	.p2align	3
l___unnamed_109:
	.quad	l___unnamed_115
	.asciz	"J\000\000\000\000\000\000\000@\005\000\000!\000\000"

	.section	__TEXT,__const
l___unnamed_25:
	.ascii	"called `Option::unwrap()` on a `None` value"

l___unnamed_28:
	.ascii	"called `Result::unwrap()` on an `Err` value"

	.section	__DATA,__const
	.p2align	3
l___unnamed_29:
	.quad	__ZN4core3ptr13drop_in_place17ha02f52ec7087538cE
	.quad	1
	.quad	1
	.quad	__ZN61_$LT$core..num..ParseIntError$u20$as$u20$core..fmt..Debug$GT$3fmt17h0d00db8c35397686E

	.p2align	3
l___unnamed_5:
	.quad	l___unnamed_115
	.asciz	"J\000\000\000\000\000\000\000\260\001\000\000&\000\000"

	.section	__TEXT,__const
l___unnamed_101:
	.ascii	"_ZN"

l___unnamed_116:
	.ascii	"/Users/yingyuhang/.cargo/registry/src/github.com-1ecc6299db9ec823/rustc-demangle-0.1.16/src/legacy.rs"

l___unnamed_102:
	.ascii	"ZN"

	.section	__TEXT,__literal4,4byte_literals
L___unnamed_103:
	.ascii	"__ZN"

	.section	__DATA,__const
	.p2align	3
l___unnamed_110:
	.quad	l___unnamed_116
	.asciz	"e\000\000\000\000\000\000\000]\000\000\000\t\000\000"

	.section	__TEXT,__const
	.p2align	4
_str.0:
	.ascii	"attempt to add with overflow"

	.section	__DATA,__const
	.p2align	3
l___unnamed_26:
	.quad	l___unnamed_116
	.asciz	"e\000\000\000\000\000\000\000q\000\000\000'\000\000"

	.p2align	3
l___unnamed_27:
	.quad	l___unnamed_116
	.asciz	"e\000\000\000\000\000\000\000t\000\000\000$\000\000"

	.section	__TEXT,__const
	.p2align	4
_str.1:
	.ascii	"attempt to subtract with overflow"

	.section	__DATA,__const
	.p2align	3
l___unnamed_30:
	.quad	l___unnamed_116
	.asciz	"e\000\000\000\000\000\000\000t\000\000\000H\000\000"

	.p2align	3
l___unnamed_33:
	.quad	l___unnamed_116
	.asciz	"e\000\000\000\000\000\000\000y\000\000\000!\000\000"

	.section	__TEXT,__const
l___unnamed_6:
	.space	2,58

l___unnamed_7:
	.ascii	"_$"

l___unnamed_24:
	.byte	46

	.section	__DATA,__const
	.p2align	3
l___unnamed_31:
	.quad	l___unnamed_116
	.asciz	"e\000\000\000\000\000\000\000\215\000\000\000#\000\000"

	.p2align	3
l___unnamed_32:
	.quad	l___unnamed_116
	.asciz	"e\000\000\000\000\000\000\000\215\000\000\0003\000\000"

	.section	__TEXT,__const
l___unnamed_9:
	.ascii	"SP"

l___unnamed_8:
	.byte	64

l___unnamed_11:
	.ascii	"BP"

l___unnamed_10:
	.byte	42

l___unnamed_13:
	.ascii	"RF"

l___unnamed_12:
	.byte	38

l___unnamed_15:
	.ascii	"LT"

l___unnamed_14:
	.byte	60

l___unnamed_17:
	.ascii	"GT"

l___unnamed_16:
	.byte	62

l___unnamed_19:
	.ascii	"LP"

l___unnamed_18:
	.byte	40

l___unnamed_21:
	.ascii	"RP"

l___unnamed_20:
	.byte	41

l___unnamed_23:
	.byte	67

l___unnamed_22:
	.byte	44

l___unnamed_104:
	.ascii	"_R"

l___unnamed_117:
	.ascii	"/Users/yingyuhang/.cargo/registry/src/github.com-1ecc6299db9ec823/rustc-demangle-0.1.16/src/v0.rs"

l___unnamed_105:
	.byte	82

l___unnamed_106:
	.ascii	"__R"

	.section	__DATA,__const
	.p2align	3
l___unnamed_38:
	.quad	l___unnamed_117
	.asciz	"a\000\000\000\000\000\000\000m\000\000\000\032\000\000"

	.p2align	3
l___unnamed_40:
	.quad	l___unnamed_117
	.asciz	"a\000\000\000\000\000\000\000r\000\000\000\r\000\000"

	.p2align	3
l___unnamed_37:
	.quad	l___unnamed_117
	.asciz	"a\000\000\000\000\000\000\000\243\000\000\000\021\000\000"

	.p2align	3
l___unnamed_41:
	.quad	l___unnamed_117
	.asciz	"a\000\000\000\000\000\000\000\317\000\000\000\r\000\000"

	.p2align	3
l___unnamed_39:
	.quad	l___unnamed_117
	.asciz	"a\000\000\000\000\000\000\000\323\000\000\000\021\000\000"

	.p2align	3
l___unnamed_42:
	.quad	l___unnamed_117
	.asciz	"a\000\000\000\000\000\000\000\325\000\000\000\024\000\000"

	.section	__TEXT,__const
l___unnamed_34:
	.ascii	"punycode{"

l___unnamed_35:
	.byte	45

l___unnamed_36:
	.byte	125

l___unnamed_80:
	.space	3,46

l___unnamed_48:
	.byte	95

l___unnamed_75:
	.byte	33

l___unnamed_64:
	.ascii	"f64"

l___unnamed_74:
	.ascii	"f32"

l___unnamed_62:
	.ascii	"usize"

	.section	__TEXT,__literal4,4byte_literals
L___unnamed_68:
	.ascii	"u128"

	.section	__TEXT,__const
l___unnamed_71:
	.ascii	"u64"

l___unnamed_79:
	.ascii	"u32"

l___unnamed_65:
	.ascii	"u16"

l___unnamed_78:
	.ascii	"u8"

l___unnamed_77:
	.ascii	"isize"

	.section	__TEXT,__literal4,4byte_literals
L___unnamed_63:
	.ascii	"i128"

	.section	__TEXT,__const
l___unnamed_67:
	.ascii	"i64"

l___unnamed_70:
	.ascii	"i32"

l___unnamed_72:
	.ascii	"i16"

l___unnamed_66:
	.ascii	"i8"

l___unnamed_73:
	.ascii	"str"

	.section	__TEXT,__literal4,4byte_literals
L___unnamed_69:
	.ascii	"char"

L___unnamed_59:
	.ascii	"bool"

	.section	__DATA,__const
	.p2align	3
l___unnamed_45:
	.quad	l___unnamed_117
	.asciz	"a\000\000\000\000\000\000\000p\001\000\000\027\000\000"

	.p2align	3
l___unnamed_44:
	.quad	l___unnamed_117
	.asciz	"a\000\000\000\000\000\000\000\231\001\000\000&\000\000"

	.section	__TEXT,__const
l___unnamed_43:
	.byte	0

l___unnamed_46:
	.byte	39

l___unnamed_47:
	.byte	63

	.section	__TEXT,__literal4,4byte_literals
L___unnamed_83:
	.ascii	"for<"

	.section	__TEXT,__const
l___unnamed_49:
	.ascii	", "

	.section	__DATA,__const
	.p2align	3
l___unnamed_88:
	.quad	l___unnamed_117
	.asciz	"a\000\000\000\000\000\000\000\213\002\000\000\021\000\000"

	.section	__TEXT,__const
l___unnamed_85:
	.ascii	"> "

	.section	__DATA,__const
	.p2align	3
l___unnamed_86:
	.quad	l___unnamed_117
	.asciz	"a\000\000\000\000\000\000\000\224\002\000\000\t\000\000"

	.p2align	3
l___unnamed_58:
	.quad	l___unnamed_117
	.asciz	"a\000\000\000\000\000\000\000\245\002\000\000\r\000\000"

	.section	__TEXT,__literal4,4byte_literals
L___unnamed_52:
	.ascii	" as "

	.section	__TEXT,__const
l___unnamed_53:
	.ascii	"::{"

	.section	__TEXT,__literal4,4byte_literals
L___unnamed_54:
	.ascii	"shim"

	.section	__TEXT,__const
l___unnamed_55:
	.ascii	"closure"

l___unnamed_56:
	.byte	58

l___unnamed_57:
	.byte	35

l___unnamed_50:
	.byte	91

l___unnamed_51:
	.byte	93

	.section	__TEXT,__literal4,4byte_literals
L___unnamed_76:
	.ascii	"dyn "

	.section	__TEXT,__const
l___unnamed_82:
	.ascii	" + "

l___unnamed_60:
	.ascii	"; "

	.section	__TEXT,__literal4,4byte_literals
L___unnamed_81:
	.ascii	"mut "

	.section	__TEXT,__const
l___unnamed_61:
	.ascii	"const "

l___unnamed_84:
	.byte	32

l___unnamed_89:
	.ascii	"unsafe "

	.section	__TEXT,__literal8,8byte_literals
L___unnamed_90:
	.ascii	"extern \""

	.section	__DATA,__const
	.p2align	3
l___unnamed_94:
	.quad	l___unnamed_117
	.asciz	"a\000\000\000\000\000\000\000T\003\000\000>\000\000"

	.section	__TEXT,__const
l___unnamed_91:
	.ascii	"\" "

l___unnamed_92:
	.ascii	"fn("

	.section	__TEXT,__literal4,4byte_literals
L___unnamed_93:
	.ascii	" -> "

	.section	__DATA,__const
	.p2align	3
l___unnamed_87:
	.quad	l___unnamed_117
	.asciz	"a\000\000\000\000\000\000\000\201\003\000\0003\000\000"

	.section	__TEXT,__const
l___unnamed_95:
	.ascii	" = "

l___unnamed_97:
	.ascii	": "

l___unnamed_96:
	.ascii	"0x"

	.section	__DATA,__const
	.p2align	3
l___unnamed_98:
	.quad	l___unnamed_117
	.asciz	"a\000\000\000\000\000\000\000\334\003\000\000,\000\000"

	.section	__TEXT,__const
l___unnamed_99:
	.ascii	".llvm."

l___unnamed_118:
	.ascii	"/Users/yingyuhang/.cargo/registry/src/github.com-1ecc6299db9ec823/rustc-demangle-0.1.16/src/lib.rs"

	.section	__DATA,__const
	.p2align	3
l___unnamed_100:
	.quad	l___unnamed_118
	.asciz	"b\000\000\000\000\000\000\000G\000\000\000\034\000\000"

	.section	__TEXT,__literal16,16byte_literals
L___unnamed_111:
	.ascii	"TryDemangleError"

	.section	__TEXT,__const
l___unnamed_112:
	.ascii	"_priv"

	.section	__DATA,__const
	.p2align	3
l___unnamed_113:
	.quad	__ZN4core3ptr13drop_in_place17ha02f52ec7087538cE
	.quad	8
	.quad	8
	.quad	__ZN42_$LT$$RF$T$u20$as$u20$core..fmt..Debug$GT$3fmt17h8a938f198baa8f3dE

	.globl	__ZN63_$LT$rustc_demangle..Demangle$u20$as$u20$core..fmt..Display$GT$3fmt17h9d433e63d195bc0eE
.set __ZN63_$LT$rustc_demangle..Demangle$u20$as$u20$core..fmt..Display$GT$3fmt17h9d433e63d195bc0eE, __ZN61_$LT$rustc_demangle..Demangle$u20$as$u20$core..fmt..Debug$GT$3fmt17h6e55ef1ec1b31523E
.subsections_via_symbols
