	.section	__TEXT,__text,regular,pure_instructions
	.macosx_version_min 10, 7
	.p2align	4, 0x90
__ZN112_$LT$alloc..collections..btree..map..IntoIter$LT$K$C$V$GT$$u20$as$u20$core..iter..traits..iterator..Iterator$GT$4next17h6ee7ebfdc25c7107E:
	.cfi_startproc
	pushq	%rbp
	.cfi_def_cfa_offset 16
	.cfi_offset %rbp, -16
	movq	%rsp, %rbp
	.cfi_def_cfa_register %rbp
	pushq	%r15
	pushq	%r14
	pushq	%r13
	pushq	%r12
	pushq	%rbx
	subq	$136, %rsp
	.cfi_offset %rbx, -56
	.cfi_offset %r12, -48
	.cfi_offset %r13, -40
	.cfi_offset %r14, -32
	.cfi_offset %r15, -24
	movq	%rsi, %r12
	movq	%rdi, %rsi
	movq	64(%r12), %rax
	testq	%rax, %rax
	je	LBB0_21
	decq	%rax
	movq	%rax, 64(%r12)
	movq	8(%r12), %rax
	testq	%rax, %rax
	cmoveq	%rax, %r12
	je	LBB0_23
	movq	(%r12), %rax
	movq	8(%r12), %rdi
	movq	16(%r12), %r8
	movq	24(%r12), %r13
	movzwl	10(%rdi), %ecx
	cmpq	%rcx, %r13
	jae	LBB0_4
	movq	%rax, %rbx
	jmp	LBB0_10
LBB0_21:
	movq	$0, (%rsi)
	jmp	LBB0_22
LBB0_4:
	movq	%r8, -48(%rbp)
	movq	%rsi, -56(%rbp)
	movl	$544, %r15d
	movq	(%rdi), %r14
	testq	%r14, %r14
	je	LBB0_6
	.p2align	4, 0x90
LBB0_7:
	leaq	1(%rax), %rbx
	movzwl	8(%rdi), %r13d
LBB0_8:
	testq	%rax, %rax
	movl	$640, %esi
	cmoveq	%r15, %rsi
	movl	$8, %edx
	callq	___rust_dealloc
	movzwl	10(%r14), %ecx
	movq	%rbx, %rax
	movq	%r14, %rdi
	cmpq	%rcx, %r13
	jb	LBB0_9
	movq	(%rdi), %r14
	testq	%r14, %r14
	jne	LBB0_7
LBB0_6:
	movq	%rax, %rbx
	xorl	%r14d, %r14d
	jmp	LBB0_8
LBB0_9:
	movq	%r14, %rdi
	movq	-56(%rbp), %rsi
	movq	-48(%rbp), %r8
LBB0_10:
	leaq	(,%r13,2), %rax
	addq	%r13, %rax
	movq	32(%rdi,%rax,8), %rcx
	movq	%rcx, -128(%rbp)
	vmovups	16(%rdi,%rax,8), %xmm0
	vmovaps	%xmm0, -144(%rbp)
	movq	296(%rdi,%rax,8), %rcx
	movq	%rcx, -160(%rbp)
	vmovups	280(%rdi,%rax,8), %xmm0
	vmovaps	%xmm0, -176(%rbp)
	testq	%rbx, %rbx
	je	LBB0_11
	movq	%rbx, %rax
	movq	552(%rdi,%r13,8), %rdi
	decq	%rax
	je	LBB0_13
	addq	$-2, %rbx
	movq	%rax, %rcx
	andq	$7, %rcx
	je	LBB0_18
	xorl	%edx, %edx
	.p2align	4, 0x90
LBB0_16:
	movq	544(%rdi), %rdi
	incq	%rdx
	cmpq	%rdx, %rcx
	jne	LBB0_16
	subq	%rdx, %rax
LBB0_18:
	xorl	%r13d, %r13d
	cmpq	$7, %rbx
	jb	LBB0_20
	.p2align	4, 0x90
LBB0_19:
	movq	544(%rdi), %rcx
	movq	544(%rcx), %rcx
	movq	544(%rcx), %rcx
	movq	544(%rcx), %rcx
	movq	544(%rcx), %rcx
	movq	544(%rcx), %rcx
	movq	544(%rcx), %rcx
	movq	544(%rcx), %rdi
	addq	$-8, %rax
	jne	LBB0_19
	jmp	LBB0_20
LBB0_11:
	incq	%r13
	jmp	LBB0_20
LBB0_13:
	xorl	%r13d, %r13d
LBB0_20:
	movq	-128(%rbp), %rax
	vmovaps	-144(%rbp), %xmm0
	vmovaps	%xmm0, -112(%rbp)
	movq	%rax, -96(%rbp)
	vmovaps	-176(%rbp), %xmm0
	vmovups	%xmm0, -88(%rbp)
	movq	-160(%rbp), %rax
	movq	%rax, -72(%rbp)
	vmovups	-112(%rbp), %xmm0
	vmovups	%xmm0, (%rsi)
	movq	-96(%rbp), %rax
	movq	%rax, 16(%rsi)
	movq	-88(%rbp), %rax
	movq	%rax, 24(%rsi)
	movq	-96(%rbp), %rax
	movq	%rax, 16(%rsi)
	vmovups	-88(%rbp), %xmm0
	vmovups	%xmm0, 24(%rsi)
	movq	-72(%rbp), %rax
	movq	%rax, 40(%rsi)
	movq	$0, (%r12)
	movq	%rdi, 8(%r12)
	movq	%r8, 16(%r12)
	movq	%r13, 24(%r12)
LBB0_22:
	addq	$136, %rsp
	popq	%rbx
	popq	%r12
	popq	%r13
	popq	%r14
	popq	%r15
	popq	%rbp
	retq
LBB0_23:
	leaq	l___unnamed_1(%rip), %rdi
	leaq	l___unnamed_2(%rip), %rdx
	movl	$43, %esi
	callq	__ZN4core9panicking5panic17h736ee47a631475c0E
	.cfi_endproc

	.p2align	4, 0x90
__ZN42_$LT$$RF$T$u20$as$u20$core..fmt..Debug$GT$3fmt17h5c32bd819fa1359aE:
	.cfi_startproc
	pushq	%rbp
	.cfi_def_cfa_offset 16
	.cfi_offset %rbp, -16
	movq	%rsp, %rbp
	.cfi_def_cfa_register %rbp
	movq	%rsi, %rdx
	movq	(%rdi), %rax
	movq	(%rax), %rdi
	movq	16(%rax), %rsi
	popq	%rbp
	jmp	__ZN40_$LT$str$u20$as$u20$core..fmt..Debug$GT$3fmt17h2760aab2290546fcE
	.cfi_endproc

	.p2align	4, 0x90
__ZN42_$LT$$RF$T$u20$as$u20$core..fmt..Debug$GT$3fmt17hc92e59e45319ee45E:
	.cfi_startproc
	pushq	%rbp
	.cfi_def_cfa_offset 16
	.cfi_offset %rbp, -16
	movq	%rsp, %rbp
	.cfi_def_cfa_register %rbp
	movq	%rsi, %rdx
	movq	(%rdi), %rax
	movq	(%rax), %rdi
	movq	8(%rax), %rsi
	popq	%rbp
	jmp	__ZN40_$LT$str$u20$as$u20$core..fmt..Debug$GT$3fmt17h2760aab2290546fcE
	.cfi_endproc

	.p2align	4, 0x90
__ZN44_$LT$$RF$T$u20$as$u20$core..fmt..Display$GT$3fmt17h3ba26f6bee06f87bE:
	.cfi_startproc
	pushq	%rbp
	.cfi_def_cfa_offset 16
	.cfi_offset %rbp, -16
	movq	%rsp, %rbp
	.cfi_def_cfa_register %rbp
	movq	%rsi, %rdx
	movq	(%rdi), %rax
	movq	8(%rdi), %rsi
	movq	%rax, %rdi
	popq	%rbp
	jmp	__ZN42_$LT$str$u20$as$u20$core..fmt..Display$GT$3fmt17hd4dee1c1c4ccf892E
	.cfi_endproc

	.p2align	4, 0x90
__ZN4core3ptr13drop_in_place17h1d4e410c7f2d0673E:
	.cfi_startproc
	pushq	%rbp
	.cfi_def_cfa_offset 16
	.cfi_offset %rbp, -16
	movq	%rsp, %rbp
	.cfi_def_cfa_register %rbp
	movq	%rdi, %rax
	movq	(%rdi), %rdi
	testq	%rdi, %rdi
	je	LBB4_2
	movq	8(%rax), %rsi
	testq	%rsi, %rsi
	je	LBB4_2
	movl	$1, %edx
	popq	%rbp
	jmp	___rust_dealloc
LBB4_2:
	popq	%rbp
	retq
	.cfi_endproc

	.p2align	4, 0x90
__ZN4core3ptr13drop_in_place17h3a853df12d8f1d50E:
Lfunc_begin0:
	.cfi_startproc
	.cfi_personality 155, _rust_eh_personality
	.cfi_lsda 16, Lexception0
	pushq	%rbp
	.cfi_def_cfa_offset 16
	.cfi_offset %rbp, -16
	movq	%rsp, %rbp
	.cfi_def_cfa_register %rbp
	pushq	%r14
	pushq	%rbx
	.cfi_offset %rbx, -32
	.cfi_offset %r14, -24
	movq	%rdi, %rbx
	movq	(%rdi), %rdi
	movq	8(%rbx), %rax
Ltmp0:
	callq	*(%rax)
Ltmp1:
	movq	8(%rbx), %rax
	movq	8(%rax), %rsi
	testq	%rsi, %rsi
	je	LBB5_2
	movq	(%rbx), %rdi
	movq	16(%rax), %rdx
	popq	%rbx
	popq	%r14
	popq	%rbp
	jmp	___rust_dealloc
LBB5_2:
	popq	%rbx
	popq	%r14
	popq	%rbp
	retq
LBB5_3:
Ltmp2:
	movq	%rax, %r14
	movq	(%rbx), %rdi
	movq	8(%rbx), %rsi
	callq	__ZN5alloc5alloc8box_free17h9e81d544680f1dceE
	movq	%r14, %rdi
	callq	__Unwind_Resume
	ud2
Lfunc_end0:
	.cfi_endproc
	.section	__TEXT,__gcc_except_tab
	.p2align	2
GCC_except_table5:
Lexception0:
	.byte	255
	.byte	255
	.byte	1
	.uleb128 Lcst_end0-Lcst_begin0
Lcst_begin0:
	.uleb128 Ltmp0-Lfunc_begin0
	.uleb128 Ltmp1-Ltmp0
	.uleb128 Ltmp2-Lfunc_begin0
	.byte	0
	.uleb128 Ltmp1-Lfunc_begin0
	.uleb128 Lfunc_end0-Ltmp1
	.byte	0
	.byte	0
Lcst_end0:
	.p2align	2

	.section	__TEXT,__text,regular,pure_instructions
	.p2align	4, 0x90
__ZN4core3ptr13drop_in_place17h427f1c817e3c737fE:
Lfunc_begin1:
	.cfi_startproc
	.cfi_personality 155, _rust_eh_personality
	.cfi_lsda 16, Lexception1
	pushq	%rbp
	.cfi_def_cfa_offset 16
	.cfi_offset %rbp, -16
	movq	%rsp, %rbp
	.cfi_def_cfa_register %rbp
	pushq	%r15
	pushq	%r14
	pushq	%rbx
	pushq	%rax
	.cfi_offset %rbx, -40
	.cfi_offset %r14, -32
	.cfi_offset %r15, -24
	cmpb	$2, (%rdi)
	jae	LBB6_1
	addq	$8, %rsp
	popq	%rbx
	popq	%r14
	popq	%r15
	popq	%rbp
	retq
LBB6_1:
	movq	%rdi, %r15
	movq	8(%rdi), %rbx
	movq	(%rbx), %rdi
	movq	8(%rbx), %rax
Ltmp3:
	callq	*(%rax)
Ltmp4:
	movq	8(%rbx), %rax
	movq	8(%rax), %rsi
	testq	%rsi, %rsi
	je	LBB6_4
	movq	(%rbx), %rdi
	movq	16(%rax), %rdx
	callq	___rust_dealloc
LBB6_4:
	movq	8(%r15), %rdi
	movl	$24, %esi
	movl	$8, %edx
	addq	$8, %rsp
	popq	%rbx
	popq	%r14
	popq	%r15
	popq	%rbp
	jmp	___rust_dealloc
LBB6_6:
Ltmp5:
	movq	%rax, %r14
	movq	(%rbx), %rdi
	movq	8(%rbx), %rsi
	callq	__ZN5alloc5alloc8box_free17h9e81d544680f1dceE
	movq	8(%r15), %rdi
	callq	__ZN5alloc5alloc8box_free17h6c27a8378ec1da5bE
	movq	%r14, %rdi
	callq	__Unwind_Resume
	ud2
Lfunc_end1:
	.cfi_endproc
	.section	__TEXT,__gcc_except_tab
	.p2align	2
GCC_except_table6:
Lexception1:
	.byte	255
	.byte	255
	.byte	1
	.uleb128 Lcst_end1-Lcst_begin1
Lcst_begin1:
	.uleb128 Ltmp3-Lfunc_begin1
	.uleb128 Ltmp4-Ltmp3
	.uleb128 Ltmp5-Lfunc_begin1
	.byte	0
	.uleb128 Ltmp4-Lfunc_begin1
	.uleb128 Lfunc_end1-Ltmp4
	.byte	0
	.byte	0
Lcst_end1:
	.p2align	2

	.section	__TEXT,__text,regular,pure_instructions
	.p2align	4, 0x90
__ZN4core3ptr13drop_in_place17h4e9ab63607e049b3E:
	.cfi_startproc
	pushq	%rbp
	.cfi_def_cfa_offset 16
	.cfi_offset %rbp, -16
	movq	%rsp, %rbp
	.cfi_def_cfa_register %rbp
	testq	%rsi, %rsi
	je	LBB7_3
	testq	%rdi, %rdi
	je	LBB7_3
	shlq	$4, %rsi
	je	LBB7_3
	movl	$8, %edx
	popq	%rbp
	jmp	___rust_dealloc
LBB7_3:
	popq	%rbp
	retq
	.cfi_endproc

	.p2align	4, 0x90
__ZN4core3ptr13drop_in_place17h5f8a1a3cf5660defE:
	.cfi_startproc
	pushq	%rbp
	.cfi_def_cfa_offset 16
	.cfi_offset %rbp, -16
	movq	%rsp, %rbp
	.cfi_def_cfa_register %rbp
	movq	%rdi, %rax
	movq	(%rdi), %rdi
	testq	%rdi, %rdi
	je	LBB8_2
	movq	8(%rax), %rsi
	testq	%rsi, %rsi
	je	LBB8_2
	movl	$1, %edx
	popq	%rbp
	jmp	___rust_dealloc
LBB8_2:
	popq	%rbp
	retq
	.cfi_endproc

	.p2align	4, 0x90
__ZN4core3ptr13drop_in_place17h61ccf963f7ce1e07E:
	.cfi_startproc
	pushq	%rbp
	.cfi_def_cfa_offset 16
	.cfi_offset %rbp, -16
	movq	%rsp, %rbp
	.cfi_def_cfa_register %rbp
	movq	(%rdi), %rax
	testq	%rax, %rax
	je	LBB9_2
	movb	$0, (%rax)
	movq	8(%rdi), %rsi
	testq	%rsi, %rsi
	je	LBB9_2
	movq	(%rdi), %rdi
	movl	$1, %edx
	popq	%rbp
	jmp	___rust_dealloc
LBB9_2:
	popq	%rbp
	retq
	.cfi_endproc

	.p2align	4, 0x90
__ZN4core3ptr13drop_in_place17h6eea8755f3999550E:
Lfunc_begin2:
	.cfi_startproc
	.cfi_personality 155, _rust_eh_personality
	.cfi_lsda 16, Lexception2
	pushq	%rbp
	.cfi_def_cfa_offset 16
	.cfi_offset %rbp, -16
	movq	%rsp, %rbp
	.cfi_def_cfa_register %rbp
	pushq	%r15
	pushq	%r14
	pushq	%r13
	pushq	%r12
	pushq	%rbx
	pushq	%rax
	.cfi_offset %rbx, -56
	.cfi_offset %r12, -48
	.cfi_offset %r13, -40
	.cfi_offset %r14, -32
	.cfi_offset %r15, -24
	movq	%rdi, %r14
	movq	(%rdi), %rbx
	movq	16(%rdi), %r12
	testq	%r12, %r12
	je	LBB10_7
	shlq	$4, %r12
	leaq	(%rbx,%r12), %r15
	addq	$-16, %r12
	addq	$16, %rbx
	jmp	LBB10_2
	.p2align	4, 0x90
LBB10_5:
	addq	$-16, %r12
	addq	$16, %rbx
	addq	$16, %r13
	cmpq	%r15, %r13
	je	LBB10_6
LBB10_2:
	movq	-16(%rbx), %rdi
	movq	-8(%rbx), %rax
Ltmp6:
	callq	*(%rax)
Ltmp7:
	leaq	-16(%rbx), %r13
	movq	8(%r13), %rax
	movq	8(%rax), %rsi
	testq	%rsi, %rsi
	je	LBB10_5
	movq	-16(%rbx), %rdi
	movq	16(%rax), %rdx
	callq	___rust_dealloc
	jmp	LBB10_5
LBB10_6:
	movq	(%r14), %rbx
LBB10_7:
	movq	8(%r14), %rsi
	testq	%rsi, %rsi
	je	LBB10_14
	testq	%rbx, %rbx
	je	LBB10_14
	shlq	$4, %rsi
	je	LBB10_14
	movl	$8, %edx
	movq	%rbx, %rdi
	addq	$8, %rsp
	popq	%rbx
	popq	%r12
	popq	%r13
	popq	%r14
	popq	%r15
	popq	%rbp
	jmp	___rust_dealloc
LBB10_14:
	addq	$8, %rsp
	popq	%rbx
	popq	%r12
	popq	%r13
	popq	%r14
	popq	%r15
	popq	%rbp
	retq
LBB10_11:
Ltmp8:
	movq	%rax, %r15
	movq	-16(%rbx), %rdi
	movq	-8(%rbx), %rsi
	callq	__ZN5alloc5alloc8box_free17h9e81d544680f1dceE
	testq	%r12, %r12
	je	LBB10_16
	.p2align	4, 0x90
LBB10_12:
Ltmp9:
	movq	%rbx, %rdi
	callq	__ZN4core3ptr13drop_in_place17h3a853df12d8f1d50E
Ltmp10:
	addq	$16, %rbx
	addq	$-16, %r12
	jne	LBB10_12
	jmp	LBB10_16
LBB10_15:
Ltmp11:
	movq	%rax, %r15
LBB10_16:
	movq	(%r14), %rdi
	movq	8(%r14), %rsi
	callq	__ZN4core3ptr13drop_in_place17h4e9ab63607e049b3E
	movq	%r15, %rdi
	callq	__Unwind_Resume
	ud2
Lfunc_end2:
	.cfi_endproc
	.section	__TEXT,__gcc_except_tab
	.p2align	2
GCC_except_table10:
Lexception2:
	.byte	255
	.byte	255
	.byte	1
	.uleb128 Lcst_end2-Lcst_begin2
Lcst_begin2:
	.uleb128 Ltmp6-Lfunc_begin2
	.uleb128 Ltmp7-Ltmp6
	.uleb128 Ltmp8-Lfunc_begin2
	.byte	0
	.uleb128 Ltmp9-Lfunc_begin2
	.uleb128 Ltmp10-Ltmp9
	.uleb128 Ltmp11-Lfunc_begin2
	.byte	0
	.uleb128 Ltmp10-Lfunc_begin2
	.uleb128 Lfunc_end2-Ltmp10
	.byte	0
	.byte	0
Lcst_end2:
	.p2align	2

	.section	__TEXT,__text,regular,pure_instructions
	.p2align	4, 0x90
__ZN4core3ptr13drop_in_place17h81d0a7ff47d49cc8E:
	.cfi_startproc
	pushq	%rbp
	.cfi_def_cfa_offset 16
	.cfi_offset %rbp, -16
	movq	%rsp, %rbp
	.cfi_def_cfa_register %rbp
	cmpq	$0, (%rdi)
	movq	8(%rdi), %rax
	testq	%rax, %rax
	je	LBB11_2
	movq	16(%rdi), %rsi
	testq	%rsi, %rsi
	je	LBB11_2
	movl	$1, %edx
	movq	%rax, %rdi
	popq	%rbp
	jmp	___rust_dealloc
LBB11_2:
	popq	%rbp
	retq
	.cfi_endproc

	.p2align	4, 0x90
__ZN4core3ptr13drop_in_place17h8c0a0ebe4f7760e0E:
	.cfi_startproc
	pushq	%rbp
	.cfi_def_cfa_offset 16
	.cfi_offset %rbp, -16
	movq	%rsp, %rbp
	.cfi_def_cfa_register %rbp
	popq	%rbp
	retq
	.cfi_endproc

	.p2align	4, 0x90
__ZN4core3ptr13drop_in_place17h9526e38b7e9f3cf9E:
	.cfi_startproc
	pushq	%rbp
	.cfi_def_cfa_offset 16
	.cfi_offset %rbp, -16
	movq	%rsp, %rbp
	.cfi_def_cfa_register %rbp
	pushq	%r15
	pushq	%r14
	pushq	%rbx
	pushq	%rax
	.cfi_offset %rbx, -40
	.cfi_offset %r14, -32
	.cfi_offset %r15, -24
	movq	%rdi, %r14
	movq	(%rdi), %rbx
	movq	16(%rdi), %rax
	testq	%rax, %rax
	je	LBB13_7
	leaq	(%rax,%rax,2), %rax
	leaq	(%rbx,%rax,8), %r15
	movq	(%rbx), %rdi
	testq	%rdi, %rdi
	jne	LBB13_3
	.p2align	4, 0x90
LBB13_5:
	addq	$24, %rbx
	cmpq	%r15, %rbx
	je	LBB13_6
LBB13_2:
	movq	(%rbx), %rdi
	testq	%rdi, %rdi
	je	LBB13_5
LBB13_3:
	movq	8(%rbx), %rsi
	testq	%rsi, %rsi
	je	LBB13_5
	movl	$1, %edx
	callq	___rust_dealloc
	addq	$24, %rbx
	cmpq	%r15, %rbx
	jne	LBB13_2
LBB13_6:
	movq	(%r14), %rbx
LBB13_7:
	movq	8(%r14), %rax
	testq	%rax, %rax
	je	LBB13_10
	testq	%rbx, %rbx
	je	LBB13_10
	shlq	$3, %rax
	leaq	(%rax,%rax,2), %rsi
	testq	%rsi, %rsi
	je	LBB13_10
	movl	$8, %edx
	movq	%rbx, %rdi
	addq	$8, %rsp
	popq	%rbx
	popq	%r14
	popq	%r15
	popq	%rbp
	jmp	___rust_dealloc
LBB13_10:
	addq	$8, %rsp
	popq	%rbx
	popq	%r14
	popq	%r15
	popq	%rbp
	retq
	.cfi_endproc

	.p2align	4, 0x90
__ZN4core3ptr13drop_in_place17hc44681c419157be0E:
	.cfi_startproc
	pushq	%rbp
	.cfi_def_cfa_offset 16
	.cfi_offset %rbp, -16
	movq	%rsp, %rbp
	.cfi_def_cfa_register %rbp
	cmpl	$3, (%rdi)
	jne	LBB14_1
	addq	$4, %rdi
	popq	%rbp
	jmp	__ZN70_$LT$std..sys..unix..fd..FileDesc$u20$as$u20$core..ops..drop..Drop$GT$4drop17hf5fce2bf4d9f8deaE
LBB14_1:
	popq	%rbp
	retq
	.cfi_endproc

	.p2align	4, 0x90
__ZN4core3ptr13drop_in_place17hec18930be61e1059E:
	.cfi_startproc
	pushq	%rbp
	.cfi_def_cfa_offset 16
	.cfi_offset %rbp, -16
	movq	%rsp, %rbp
	.cfi_def_cfa_register %rbp
	movq	%rdi, %rax
	movq	(%rdi), %rdi
	testq	%rdi, %rdi
	je	LBB15_2
	movq	8(%rax), %rsi
	testq	%rsi, %rsi
	je	LBB15_2
	movl	$1, %edx
	popq	%rbp
	jmp	___rust_dealloc
LBB15_2:
	popq	%rbp
	retq
	.cfi_endproc

	.p2align	4, 0x90
__ZN4core3ptr13drop_in_place17hef427ccbc510ae20E:
Lfunc_begin3:
	.cfi_startproc
	.cfi_personality 155, _rust_eh_personality
	.cfi_lsda 16, Lexception3
	pushq	%rbp
	.cfi_def_cfa_offset 16
	.cfi_offset %rbp, -16
	movq	%rsp, %rbp
	.cfi_def_cfa_register %rbp
	pushq	%r15
	pushq	%r14
	pushq	%r13
	pushq	%r12
	pushq	%rbx
	subq	$120, %rsp
	.cfi_offset %rbx, -56
	.cfi_offset %r12, -48
	.cfi_offset %r13, -40
	.cfi_offset %r14, -32
	.cfi_offset %r15, -24
	movq	%rdi, %r14
	movq	(%rdi), %rax
	movb	$0, (%rax)
	movq	8(%rdi), %rsi
	testq	%rsi, %rsi
	je	LBB16_2
	movq	(%r14), %rdi
	movl	$1, %edx
	callq	___rust_dealloc
LBB16_2:
	movq	16(%r14), %rbx
	movq	32(%r14), %r15
	testq	%r15, %r15
	je	LBB16_8
	shlq	$4, %r15
	addq	%rbx, %r15
	jmp	LBB16_4
	.p2align	4, 0x90
LBB16_6:
	addq	$16, %rbx
	cmpq	%r15, %rbx
	je	LBB16_7
LBB16_4:
	movq	(%rbx), %rax
	movb	$0, (%rax)
	movq	8(%rbx), %rsi
	testq	%rsi, %rsi
	je	LBB16_6
	movq	(%rbx), %rdi
	movl	$1, %edx
	callq	___rust_dealloc
	jmp	LBB16_6
LBB16_7:
	movq	16(%r14), %rbx
LBB16_8:
	movq	24(%r14), %rsi
	testq	%rsi, %rsi
	je	LBB16_12
	testq	%rbx, %rbx
	je	LBB16_12
	shlq	$4, %rsi
	je	LBB16_12
	movl	$8, %edx
	movq	%rbx, %rdi
	callq	___rust_dealloc
LBB16_12:
	movq	48(%r14), %rsi
	testq	%rsi, %rsi
	je	LBB16_16
	movq	40(%r14), %rdi
	testq	%rdi, %rdi
	je	LBB16_16
	shlq	$3, %rsi
	testq	%rsi, %rsi
	je	LBB16_16
	movl	$8, %edx
	callq	___rust_dealloc
LBB16_16:
	movq	64(%r14), %rcx
	testq	%rcx, %rcx
	je	LBB16_17
	movq	72(%r14), %rdi
	movq	80(%r14), %rax
	movzwl	10(%rcx), %edx
	testq	%rdi, %rdi
	je	LBB16_32
	movb	$1, %bl
	movq	%rcx, %rsi
	.p2align	4, 0x90
LBB16_36:
	testb	$1, %bl
	je	LBB16_33
	cmpq	$1, %rdi
	setne	%bl
	movq	544(%rcx), %rcx
	movq	544(%rsi,%rdx,8), %rsi
	movzwl	10(%rsi), %edx
	decq	%rdi
	jne	LBB16_36
	jmp	LBB16_38
LBB16_17:
	movq	$0, -104(%rbp)
	movq	$0, -72(%rbp)
	xorl	%eax, %eax
	jmp	LBB16_39
LBB16_32:
	movq	%rcx, %rsi
LBB16_38:
	movq	$0, -112(%rbp)
	movq	%rcx, -104(%rbp)
	vxorps	%xmm0, %xmm0, %xmm0
	vmovups	%xmm0, -96(%rbp)
	movq	$0, -80(%rbp)
	movq	%rsi, -72(%rbp)
	movq	$0, -64(%rbp)
	movq	%rdx, -56(%rbp)
LBB16_39:
	movq	%rax, -48(%rbp)
Ltmp14:
	leaq	-160(%rbp), %rdi
	leaq	-112(%rbp), %rsi
	callq	__ZN112_$LT$alloc..collections..btree..map..IntoIter$LT$K$C$V$GT$$u20$as$u20$core..iter..traits..iterator..Iterator$GT$4next17h6ee7ebfdc25c7107E
Ltmp15:
	movq	-160(%rbp), %rdi
	testq	%rdi, %rdi
	je	LBB16_50
	leaq	-160(%rbp), %r15
	leaq	-112(%rbp), %r12
	.p2align	4, 0x90
LBB16_42:
	movq	-136(%rbp), %rbx
	movq	-128(%rbp), %r13
	testq	%rdi, %rdi
	je	LBB16_45
	movq	-152(%rbp), %rsi
	testq	%rsi, %rsi
	je	LBB16_45
	movl	$1, %edx
	callq	___rust_dealloc
LBB16_45:
	testq	%rbx, %rbx
	je	LBB16_48
	testq	%r13, %r13
	je	LBB16_48
	movl	$1, %edx
	movq	%rbx, %rdi
	movq	%r13, %rsi
	callq	___rust_dealloc
LBB16_48:
Ltmp17:
	movq	%r15, %rdi
	movq	%r12, %rsi
	callq	__ZN112_$LT$alloc..collections..btree..map..IntoIter$LT$K$C$V$GT$$u20$as$u20$core..iter..traits..iterator..Iterator$GT$4next17h6ee7ebfdc25c7107E
Ltmp18:
	movq	-160(%rbp), %rdi
	testq	%rdi, %rdi
	jne	LBB16_42
LBB16_50:
	movq	-104(%rbp), %rdi
	testq	%rdi, %rdi
	je	LBB16_27
	movq	-112(%rbp), %rax
	movl	$544, %r15d
	.p2align	4, 0x90
LBB16_52:
	movq	(%rdi), %r12
	xorl	%ebx, %ebx
	testq	%r12, %r12
	setne	%bl
	addq	%rax, %rbx
	testq	%rax, %rax
	movl	$640, %esi
	cmoveq	%r15, %rsi
	movl	$8, %edx
	callq	___rust_dealloc
	movq	%rbx, %rax
	movq	%r12, %rdi
	testq	%r12, %r12
	jne	LBB16_52
LBB16_27:
	movq	96(%r14), %rax
	testq	%rax, %rax
	je	LBB16_30
	movb	$0, (%rax)
	movq	104(%r14), %rsi
	testq	%rsi, %rsi
	je	LBB16_30
	movq	96(%r14), %rdi
	movl	$1, %edx
	callq	___rust_dealloc
LBB16_30:
	leaq	112(%r14), %rdi
Ltmp20:
	callq	__ZN4core3ptr13drop_in_place17h6eea8755f3999550E
Ltmp21:
	cmpl	$3, 152(%r14)
	jne	LBB16_23
	leaq	156(%r14), %rdi
Ltmp23:
	callq	__ZN70_$LT$std..sys..unix..fd..FileDesc$u20$as$u20$core..ops..drop..Drop$GT$4drop17hf5fce2bf4d9f8deaE
Ltmp24:
LBB16_23:
	cmpl	$3, 160(%r14)
	jne	LBB16_21
	leaq	164(%r14), %rdi
Ltmp26:
	callq	__ZN70_$LT$std..sys..unix..fd..FileDesc$u20$as$u20$core..ops..drop..Drop$GT$4drop17hf5fce2bf4d9f8deaE
Ltmp27:
LBB16_21:
	cmpl	$3, 168(%r14)
	jne	LBB16_59
	addq	$172, %r14
	movq	%r14, %rdi
	addq	$120, %rsp
	popq	%rbx
	popq	%r12
	popq	%r13
	popq	%r14
	popq	%r15
	popq	%rbp
	jmp	__ZN70_$LT$std..sys..unix..fd..FileDesc$u20$as$u20$core..ops..drop..Drop$GT$4drop17hf5fce2bf4d9f8deaE
LBB16_59:
	addq	$120, %rsp
	popq	%rbx
	popq	%r12
	popq	%r13
	popq	%r14
	popq	%r15
	popq	%rbp
	retq
LBB16_33:
	leaq	__ZN44_$LT$$RF$T$u20$as$u20$core..fmt..Display$GT$3fmt17h3ba26f6bee06f87bE(%rip), %rax
	vmovq	%rax, %xmm0
	leaq	l___unnamed_3(%rip), %rax
	vmovq	%rax, %xmm1
	vpunpcklqdq	%xmm0, %xmm1, %xmm0
	vmovdqa	%xmm0, -160(%rbp)
	leaq	l___unnamed_4(%rip), %rax
	movq	%rax, -112(%rbp)
	movq	$1, -104(%rbp)
	movq	$0, -96(%rbp)
	leaq	-160(%rbp), %rax
	movq	%rax, -80(%rbp)
	movq	$1, -72(%rbp)
Ltmp12:
	leaq	l___unnamed_5(%rip), %rsi
	leaq	-112(%rbp), %rdi
	callq	__ZN4core9panicking9panic_fmt17hab6ef1464e9720aaE
Ltmp13:
	ud2
LBB16_58:
Ltmp28:
	movq	%rax, %rbx
	jmp	LBB16_20
LBB16_18:
Ltmp25:
	movq	%rax, %rbx
	jmp	LBB16_19
LBB16_54:
Ltmp16:
	jmp	LBB16_55
LBB16_57:
Ltmp22:
	movq	%rax, %rbx
	jmp	LBB16_56
LBB16_53:
Ltmp19:
LBB16_55:
	movq	%rax, %rbx
	leaq	96(%r14), %rdi
	callq	__ZN4core3ptr13drop_in_place17h61ccf963f7ce1e07E
	leaq	112(%r14), %rdi
	callq	__ZN4core3ptr13drop_in_place17h6eea8755f3999550E
LBB16_56:
	leaq	152(%r14), %rdi
	callq	__ZN4core3ptr13drop_in_place17hc44681c419157be0E
LBB16_19:
	leaq	160(%r14), %rdi
	callq	__ZN4core3ptr13drop_in_place17hc44681c419157be0E
LBB16_20:
	addq	$168, %r14
	movq	%r14, %rdi
	callq	__ZN4core3ptr13drop_in_place17hc44681c419157be0E
	movq	%rbx, %rdi
	callq	__Unwind_Resume
	ud2
Lfunc_end3:
	.cfi_endproc
	.section	__TEXT,__gcc_except_tab
	.p2align	2
GCC_except_table16:
Lexception3:
	.byte	255
	.byte	255
	.byte	1
	.uleb128 Lcst_end3-Lcst_begin3
Lcst_begin3:
	.uleb128 Ltmp14-Lfunc_begin3
	.uleb128 Ltmp15-Ltmp14
	.uleb128 Ltmp16-Lfunc_begin3
	.byte	0
	.uleb128 Ltmp17-Lfunc_begin3
	.uleb128 Ltmp18-Ltmp17
	.uleb128 Ltmp19-Lfunc_begin3
	.byte	0
	.uleb128 Ltmp20-Lfunc_begin3
	.uleb128 Ltmp21-Ltmp20
	.uleb128 Ltmp22-Lfunc_begin3
	.byte	0
	.uleb128 Ltmp23-Lfunc_begin3
	.uleb128 Ltmp24-Ltmp23
	.uleb128 Ltmp25-Lfunc_begin3
	.byte	0
	.uleb128 Ltmp26-Lfunc_begin3
	.uleb128 Ltmp27-Ltmp26
	.uleb128 Ltmp28-Lfunc_begin3
	.byte	0
	.uleb128 Ltmp27-Lfunc_begin3
	.uleb128 Ltmp12-Ltmp27
	.byte	0
	.byte	0
	.uleb128 Ltmp12-Lfunc_begin3
	.uleb128 Ltmp13-Ltmp12
	.uleb128 Ltmp16-Lfunc_begin3
	.byte	0
	.uleb128 Ltmp13-Lfunc_begin3
	.uleb128 Lfunc_end3-Ltmp13
	.byte	0
	.byte	0
Lcst_end3:
	.p2align	2

	.section	__TEXT,__text,regular,pure_instructions
	.p2align	4, 0x90
__ZN4core3str21_$LT$impl$u20$str$GT$12trim_matches17h0ec1b91006db5a1aE:
	.cfi_startproc
	pushq	%rbp
	.cfi_def_cfa_offset 16
	.cfi_offset %rbp, -16
	movq	%rsp, %rbp
	.cfi_def_cfa_register %rbp
	pushq	%r15
	pushq	%r14
	pushq	%r12
	pushq	%rbx
	.cfi_offset %rbx, -48
	.cfi_offset %r12, -40
	.cfi_offset %r14, -32
	.cfi_offset %r15, -24
	movq	%rdi, %rax
	leaq	(%rdi,%rsi), %r9
	xorl	%edi, %edi
	cmpq	%rsi, %rdi
	jne	LBB17_5
	jmp	LBB17_18
LBB17_1:
	shll	$6, %ebx
LBB17_2:
	orl	%ebx, %edi
	movl	%edi, %edx
LBB17_3:
	movq	%r8, %rdi
	subq	%rcx, %rdi
	addq	%r10, %rdi
	movq	%rdi, %r10
	cmpl	$34, %edx
	jne	LBB17_20
	cmpq	%rsi, %rdi
	je	LBB17_18
LBB17_5:
	movq	%rdi, %r8
	leaq	(%rax,%rdi), %rcx
	leaq	1(%rcx), %r10
	movzbl	(%rcx), %edx
	testb	%dl, %dl
	jns	LBB17_3
	cmpq	%r9, %r10
	je	LBB17_12
	leaq	2(%rcx), %r10
	movzbl	1(%rcx), %edi
	andl	$63, %edi
	movq	%r10, %r11
	movl	%edx, %ebx
	andl	$31, %ebx
	cmpb	$-33, %dl
	jbe	LBB17_1
LBB17_8:
	cmpq	%r9, %r11
	je	LBB17_13
	movzbl	(%r11), %r14d
	incq	%r11
	andl	$63, %r14d
	movq	%r11, %r10
	shll	$6, %edi
	orl	%r14d, %edi
	cmpb	$-16, %dl
	jb	LBB17_14
LBB17_10:
	cmpq	%r9, %r11
	je	LBB17_15
	movzbl	(%r11), %edx
	incq	%r11
	andl	$63, %edx
	movq	%r11, %r10
	jmp	LBB17_16
LBB17_12:
	xorl	%edi, %edi
	movq	%r9, %r11
	movl	%edx, %ebx
	andl	$31, %ebx
	cmpb	$-33, %dl
	ja	LBB17_8
	jmp	LBB17_1
LBB17_13:
	xorl	%r14d, %r14d
	movq	%r9, %r11
	shll	$6, %edi
	orl	%r14d, %edi
	cmpb	$-16, %dl
	jae	LBB17_10
LBB17_14:
	shll	$12, %ebx
	jmp	LBB17_2
LBB17_15:
	xorl	%edx, %edx
LBB17_16:
	andl	$7, %ebx
	shll	$18, %ebx
	shll	$6, %edi
	orl	%ebx, %edi
	orl	%edx, %edi
	movl	%edi, %edx
	cmpl	$1114112, %edi
	jne	LBB17_3
	xorl	%edi, %edi
	movq	%r8, %r10
	jmp	LBB17_19
LBB17_18:
	xorl	%edi, %edi
	movq	%rsi, %r10
LBB17_19:
	xorl	%r8d, %r8d
LBB17_20:
	leaq	(%rax,%r10), %r9
	cmpq	%rsi, %r10
	jne	LBB17_25
	jmp	LBB17_39
LBB17_21:
	xorl	%esi, %esi
LBB17_22:
	shll	$6, %esi
	andl	$63, %ecx
	orl	%esi, %ecx
	cmpl	$1114112, %ecx
	je	LBB17_39
LBB17_23:
	movq	%rdx, %rsi
	subq	%r11, %rsi
	addq	%r12, %rsi
	cmpl	$34, %ecx
	jne	LBB17_40
	cmpq	%rsi, %r10
	je	LBB17_39
LBB17_25:
	movq	%rsi, %rdx
	leaq	(%rax,%rsi), %r11
	leaq	-1(%r11), %r12
	movzbl	-1(%r11), %ecx
	testb	%cl, %cl
	jns	LBB17_23
	cmpq	%r12, %r9
	je	LBB17_21
	leaq	-2(%r11), %r12
	movzbl	-2(%r11), %esi
	movl	%esi, %ebx
	andb	$-64, %bl
	cmpb	$-128, %bl
	jne	LBB17_32
	cmpq	%r12, %r9
	je	LBB17_33
	leaq	-3(%r11), %r12
	movzbl	-3(%r11), %r14d
	movl	%r14d, %ebx
	andb	$-64, %bl
	cmpb	$-128, %bl
	jne	LBB17_34
	cmpq	%r12, %r9
	je	LBB17_35
	leaq	-4(%r11), %r12
	movzbl	-4(%r11), %r15d
	andl	$7, %r15d
	shll	$6, %r15d
	jmp	LBB17_36
LBB17_32:
	andl	$31, %esi
	jmp	LBB17_22
LBB17_33:
	xorl	%r14d, %r14d
	jmp	LBB17_37
LBB17_34:
	andl	$15, %r14d
	jmp	LBB17_37
LBB17_35:
	xorl	%r15d, %r15d
LBB17_36:
	andl	$63, %r14d
	orl	%r15d, %r14d
LBB17_37:
	shll	$6, %r14d
	andl	$63, %esi
	orl	%r14d, %esi
	jmp	LBB17_22
LBB17_39:
	movq	%rdi, %rdx
LBB17_40:
	addq	%r8, %rax
	subq	%r8, %rdx
	popq	%rbx
	popq	%r12
	popq	%r14
	popq	%r15
	popq	%rbp
	retq
	.cfi_endproc

	.p2align	4, 0x90
__ZN4core3str22SplitInternal$LT$P$GT$4next17h27d34b5e4cdb2bf0E:
	.cfi_startproc
	pushq	%rbp
	.cfi_def_cfa_offset 16
	.cfi_offset %rbp, -16
	movq	%rsp, %rbp
	.cfi_def_cfa_register %rbp
	pushq	%r15
	pushq	%r14
	pushq	%r13
	pushq	%r12
	pushq	%rbx
	subq	$24, %rsp
	.cfi_offset %rbx, -56
	.cfi_offset %r12, -48
	.cfi_offset %r13, -40
	.cfi_offset %r14, -32
	.cfi_offset %r15, -24
	cmpb	$0, 65(%rdi)
	jne	LBB18_1
	movq	%rdi, %r13
	movq	32(%rdi), %rsi
	movq	40(%rdi), %rax
	movq	%rax, %rdx
	subq	%rsi, %rdx
	jb	LBB18_16
	cmpq	%rax, 24(%r13)
	jb	LBB18_16
	movq	16(%r13), %rcx
	movq	48(%r13), %rax
	movq	%rcx, -56(%rbp)
	addq	%rcx, %rsi
	movzbl	59(%rax,%r13), %edi
	callq	__ZN4core5slice6memchr6memchr17h319ffdabcbdf42caE
	cmpq	$1, %rax
	jne	LBB18_15
	leaq	60(%r13), %rax
	movq	%rax, -48(%rbp)
	.p2align	4, 0x90
LBB18_6:
	movq	32(%r13), %rax
	movq	48(%r13), %r15
	leaq	(%rdx,%rax), %rbx
	addq	$1, %rbx
	movq	%rbx, 32(%r13)
	movq	%rbx, %r12
	subq	%r15, %r12
	jae	LBB18_8
	movq	24(%r13), %r14
	movq	40(%r13), %rax
	movq	%rax, %rdx
	subq	%rbx, %rdx
	jae	LBB18_13
	jmp	LBB18_16
	.p2align	4, 0x90
LBB18_8:
	movq	24(%r13), %r14
	cmpq	%rbx, %r14
	jb	LBB18_12
	cmpq	$5, %r15
	jae	LBB18_23
	movq	16(%r13), %rdi
	addq	%r12, %rdi
	cmpq	-48(%rbp), %rdi
	je	LBB18_21
	movq	-48(%rbp), %rsi
	movq	%r15, %rdx
	callq	_bcmp
	testl	%eax, %eax
	je	LBB18_21
LBB18_12:
	movq	40(%r13), %rax
	movq	%rax, %rdx
	subq	%rbx, %rdx
	jb	LBB18_16
LBB18_13:
	cmpq	%rax, %r14
	jb	LBB18_16
	addq	16(%r13), %rbx
	movzbl	59(%r15,%r13), %edi
	movq	%rbx, %rsi
	callq	__ZN4core5slice6memchr6memchr17h319ffdabcbdf42caE
	cmpq	$1, %rax
	je	LBB18_6
LBB18_15:
	movq	40(%r13), %rax
	movq	%rax, 32(%r13)
LBB18_16:
	cmpb	$0, 65(%r13)
	je	LBB18_17
LBB18_1:
	xorl	%eax, %eax
LBB18_22:
	movq	%r12, %rdx
	addq	$24, %rsp
	popq	%rbx
	popq	%r12
	popq	%r13
	popq	%r14
	popq	%r15
	popq	%rbp
	retq
LBB18_17:
	cmpb	$0, 64(%r13)
	je	LBB18_19
	movq	(%r13), %rax
	movq	8(%r13), %r12
	jmp	LBB18_20
LBB18_19:
	movq	(%r13), %rax
	movq	8(%r13), %r12
	cmpq	%rax, %r12
	je	LBB18_1
LBB18_20:
	movb	$1, 65(%r13)
	subq	%rax, %r12
	addq	16(%r13), %rax
	jmp	LBB18_22
LBB18_21:
	movq	(%r13), %rcx
	movq	-56(%rbp), %rax
	addq	%rcx, %rax
	subq	%rcx, %r12
	movq	%rbx, (%r13)
	jmp	LBB18_22
LBB18_23:
	leaq	l___unnamed_6(%rip), %rdx
	movl	$4, %esi
	movq	%r15, %rdi
	callq	__ZN4core5slice20slice_index_len_fail17h550a313151a85135E
	.cfi_endproc

	.p2align	4, 0x90
__ZN5alloc3vec12Vec$LT$T$GT$4push17h4ea121f39740980eE:
Lfunc_begin4:
	.cfi_startproc
	.cfi_personality 155, _rust_eh_personality
	.cfi_lsda 16, Lexception4
	pushq	%rbp
	.cfi_def_cfa_offset 16
	.cfi_offset %rbp, -16
	movq	%rsp, %rbp
	.cfi_def_cfa_register %rbp
	pushq	%r15
	pushq	%r14
	pushq	%rbx
	pushq	%rax
	.cfi_offset %rbx, -40
	.cfi_offset %r14, -32
	.cfi_offset %r15, -24
	movq	%rsi, %r14
	movq	%rdi, %rbx
	movq	16(%rdi), %rcx
	cmpq	8(%rdi), %rcx
	jne	LBB19_18
	movq	%rcx, %rax
	incq	%rax
	je	LBB19_19
	leaq	(%rcx,%rcx), %rdx
	cmpq	%rax, %rdx
	cmovaq	%rdx, %rax
	movl	$24, %edx
	xorl	%esi, %esi
	mulq	%rdx
	movq	%rax, %r15
	seto	%dl
	setno	%dil
	movq	%rcx, %rax
	testq	%rcx, %rcx
	je	LBB19_4
	movq	(%rbx), %rax
LBB19_4:
	testb	%dl, %dl
	jne	LBB19_19
	testq	%rax, %rax
	je	LBB19_11
	leaq	(,%rcx,8), %rdx
	leaq	(%rdx,%rdx,2), %rsi
	cmpq	%r15, %rsi
	je	LBB19_15
	testq	%rsi, %rsi
	je	LBB19_8
	movl	$8, %edx
	movq	%rax, %rdi
	movq	%r15, %rcx
	callq	___rust_realloc
	testq	%rax, %rax
	jne	LBB19_16
	jmp	LBB19_21
LBB19_11:
	movb	%dil, %sil
	shlq	$3, %rsi
	testq	%r15, %r15
	jne	LBB19_14
	movq	%rsi, %rax
	testq	%rax, %rax
	jne	LBB19_16
	jmp	LBB19_21
LBB19_8:
	testq	%r15, %r15
	je	LBB19_9
	movl	$8, %esi
LBB19_14:
	movq	%r15, %rdi
	callq	___rust_alloc
LBB19_15:
	testq	%rax, %rax
	je	LBB19_21
LBB19_16:
	movq	16(%rbx), %rcx
LBB19_17:
	movq	%rax, (%rbx)
	movabsq	$-6148914691236517205, %rdx
	movq	%r15, %rax
	mulq	%rdx
	shrq	$4, %rdx
	movq	%rdx, 8(%rbx)
LBB19_18:
	movq	(%rbx), %rax
	leaq	(%rcx,%rcx,2), %rcx
	movq	16(%r14), %rdx
	movq	%rdx, 16(%rax,%rcx,8)
	vmovups	(%r14), %xmm0
	vmovups	%xmm0, (%rax,%rcx,8)
	incq	16(%rbx)
	addq	$8, %rsp
	popq	%rbx
	popq	%r14
	popq	%r15
	popq	%rbp
	retq
LBB19_9:
	movl	$8, %eax
	jmp	LBB19_17
LBB19_19:
Ltmp29:
	callq	__ZN5alloc7raw_vec17capacity_overflow17h023f34f5bc34c61fE
Ltmp30:
	ud2
LBB19_21:
	movl	$8, %esi
	movq	%r15, %rdi
	callq	__ZN5alloc5alloc18handle_alloc_error17hbc0ab0ed90816c07E
LBB19_22:
Ltmp31:
	movq	%rax, %rbx
	movq	%r14, %rdi
	callq	__ZN4core3ptr13drop_in_place17h5f8a1a3cf5660defE
	movq	%rbx, %rdi
	callq	__Unwind_Resume
	ud2
Lfunc_end4:
	.cfi_endproc
	.section	__TEXT,__gcc_except_tab
	.p2align	2
GCC_except_table19:
Lexception4:
	.byte	255
	.byte	255
	.byte	1
	.uleb128 Lcst_end4-Lcst_begin4
Lcst_begin4:
	.uleb128 Ltmp29-Lfunc_begin4
	.uleb128 Ltmp30-Ltmp29
	.uleb128 Ltmp31-Lfunc_begin4
	.byte	0
	.uleb128 Ltmp30-Lfunc_begin4
	.uleb128 Lfunc_end4-Ltmp30
	.byte	0
	.byte	0
Lcst_end4:
	.p2align	2

	.section	__TEXT,__text,regular,pure_instructions
	.p2align	4, 0x90
__ZN5alloc5alloc8box_free17h6c27a8378ec1da5bE:
	.cfi_startproc
	pushq	%rbp
	.cfi_def_cfa_offset 16
	.cfi_offset %rbp, -16
	movq	%rsp, %rbp
	.cfi_def_cfa_register %rbp
	movl	$24, %esi
	movl	$8, %edx
	popq	%rbp
	jmp	___rust_dealloc
	.cfi_endproc

	.p2align	4, 0x90
__ZN5alloc5alloc8box_free17h9e81d544680f1dceE:
	.cfi_startproc
	pushq	%rbp
	.cfi_def_cfa_offset 16
	.cfi_offset %rbp, -16
	movq	%rsp, %rbp
	.cfi_def_cfa_register %rbp
	movq	%rsi, %rax
	movq	8(%rsi), %rsi
	testq	%rsi, %rsi
	je	LBB21_1
	movq	16(%rax), %rdx
	popq	%rbp
	jmp	___rust_dealloc
LBB21_1:
	popq	%rbp
	retq
	.cfi_endproc

	.p2align	4, 0x90
__ZN5alloc7raw_vec19RawVec$LT$T$C$A$GT$11allocate_in28_$u7b$$u7b$closure$u7d$$u7d$17h18b49479e4f13924E:
	.cfi_startproc
	pushq	%rbp
	.cfi_def_cfa_offset 16
	.cfi_offset %rbp, -16
	movq	%rsp, %rbp
	.cfi_def_cfa_register %rbp
	callq	__ZN5alloc5alloc18handle_alloc_error17hbc0ab0ed90816c07E
	.cfi_endproc

	.p2align	4, 0x90
__ZN79_$LT$failure..error_message..ErrorMessage$LT$D$GT$$u20$as$u20$failure..Fail$GT$4name17h423b466ea3dd62f2E:
	.cfi_startproc
	pushq	%rbp
	.cfi_def_cfa_offset 16
	.cfi_offset %rbp, -16
	movq	%rsp, %rbp
	.cfi_def_cfa_register %rbp
	leaq	l___unnamed_7(%rip), %rax
	movl	$21, %edx
	popq	%rbp
	retq
	.cfi_endproc

	.p2align	4, 0x90
__ZN79_$LT$failure..error_message..ErrorMessage$LT$D$GT$$u20$as$u20$failure..Fail$GT$4name17h602cb213a3868e5fE:
	.cfi_startproc
	pushq	%rbp
	.cfi_def_cfa_offset 16
	.cfi_offset %rbp, -16
	movq	%rsp, %rbp
	.cfi_def_cfa_register %rbp
	leaq	l___unnamed_7(%rip), %rax
	movl	$21, %edx
	popq	%rbp
	retq
	.cfi_endproc

	.p2align	4, 0x90
__ZN7failure4Fail23__private_get_type_id__17h0d66f24cb93b7077E:
	.cfi_startproc
	pushq	%rbp
	.cfi_def_cfa_offset 16
	.cfi_offset %rbp, -16
	movq	%rsp, %rbp
	.cfi_def_cfa_register %rbp
	movabsq	$125826961854504934, %rax
	popq	%rbp
	retq
	.cfi_endproc

	.p2align	4, 0x90
__ZN7failure4Fail23__private_get_type_id__17h2b97aa509ca2d949E:
	.cfi_startproc
	pushq	%rbp
	.cfi_def_cfa_offset 16
	.cfi_offset %rbp, -16
	movq	%rsp, %rbp
	.cfi_def_cfa_register %rbp
	movabsq	$6129323047340084681, %rax
	popq	%rbp
	retq
	.cfi_endproc

	.p2align	4, 0x90
__ZN7failure4Fail23__private_get_type_id__17h6962649a414b25acE:
	.cfi_startproc
	pushq	%rbp
	.cfi_def_cfa_offset 16
	.cfi_offset %rbp, -16
	movq	%rsp, %rbp
	.cfi_def_cfa_register %rbp
	movabsq	$8268967970850510824, %rax
	popq	%rbp
	retq
	.cfi_endproc

	.p2align	4, 0x90
__ZN7failure4Fail23__private_get_type_id__17hff69b4c18696c39fE:
	.cfi_startproc
	pushq	%rbp
	.cfi_def_cfa_offset 16
	.cfi_offset %rbp, -16
	movq	%rsp, %rbp
	.cfi_def_cfa_register %rbp
	movabsq	$-9190556156156697329, %rax
	popq	%rbp
	retq
	.cfi_endproc

	.p2align	4, 0x90
__ZN7failure4Fail4name17h5642cb53eb92d817E:
	.cfi_startproc
	pushq	%rbp
	.cfi_def_cfa_offset 16
	.cfi_offset %rbp, -16
	movq	%rsp, %rbp
	.cfi_def_cfa_register %rbp
	xorl	%eax, %eax
	popq	%rbp
	retq
	.cfi_endproc

	.p2align	4, 0x90
__ZN7failure4Fail4name17hd13d20e9bf962ae7E:
	.cfi_startproc
	pushq	%rbp
	.cfi_def_cfa_offset 16
	.cfi_offset %rbp, -16
	movq	%rsp, %rbp
	.cfi_def_cfa_register %rbp
	xorl	%eax, %eax
	popq	%rbp
	retq
	.cfi_endproc

	.p2align	4, 0x90
__ZN7failure4Fail5cause17hdb4c9b0235d56464E:
	.cfi_startproc
	pushq	%rbp
	.cfi_def_cfa_offset 16
	.cfi_offset %rbp, -16
	movq	%rsp, %rbp
	.cfi_def_cfa_register %rbp
	xorl	%eax, %eax
	popq	%rbp
	retq
	.cfi_endproc

	.p2align	4, 0x90
__ZN7failure4Fail9backtrace17h03fc1ae6b1db769aE:
	.cfi_startproc
	pushq	%rbp
	.cfi_def_cfa_offset 16
	.cfi_offset %rbp, -16
	movq	%rsp, %rbp
	.cfi_def_cfa_register %rbp
	xorl	%eax, %eax
	popq	%rbp
	retq
	.cfi_endproc

	.p2align	4, 0x90
__ZN7failure4Fail9backtrace17h6cb7fc8d0061e933E:
	.cfi_startproc
	pushq	%rbp
	.cfi_def_cfa_offset 16
	.cfi_offset %rbp, -16
	movq	%rsp, %rbp
	.cfi_def_cfa_register %rbp
	xorl	%eax, %eax
	popq	%rbp
	retq
	.cfi_endproc

	.p2align	4, 0x90
__ZN7failure4Fail9backtrace17hc5cc8c3187a127acE:
	.cfi_startproc
	pushq	%rbp
	.cfi_def_cfa_offset 16
	.cfi_offset %rbp, -16
	movq	%rsp, %rbp
	.cfi_def_cfa_register %rbp
	xorl	%eax, %eax
	popq	%rbp
	retq
	.cfi_endproc

	.p2align	4, 0x90
__ZN82_$LT$failure..error_message..ErrorMessage$LT$D$GT$$u20$as$u20$core..fmt..Debug$GT$3fmt17h690d6210609d8056E:
	.cfi_startproc
	pushq	%rbp
	.cfi_def_cfa_offset 16
	.cfi_offset %rbp, -16
	movq	%rsp, %rbp
	.cfi_def_cfa_register %rbp
	pushq	%r14
	pushq	%rbx
	subq	$32, %rsp
	.cfi_offset %rbx, -32
	.cfi_offset %r14, -24
	movq	%rdi, %rbx
	leaq	l___unnamed_8(%rip), %rdx
	leaq	-40(%rbp), %r14
	movl	$12, %ecx
	movq	%r14, %rdi
	callq	__ZN4core3fmt9Formatter12debug_struct17h985c0158d1fc7193E
	movq	%rbx, -24(%rbp)
	leaq	l___unnamed_9(%rip), %rsi
	leaq	l___unnamed_10(%rip), %r8
	leaq	-24(%rbp), %rcx
	movl	$3, %edx
	movq	%r14, %rdi
	callq	__ZN4core3fmt8builders11DebugStruct5field17h9c15dc155278eed2E
	movq	%r14, %rdi
	callq	__ZN4core3fmt8builders11DebugStruct6finish17h26808393f3fed630E
	addq	$32, %rsp
	popq	%rbx
	popq	%r14
	popq	%rbp
	retq
	.cfi_endproc

	.p2align	4, 0x90
__ZN82_$LT$failure..error_message..ErrorMessage$LT$D$GT$$u20$as$u20$core..fmt..Debug$GT$3fmt17hf74acba8d5663cc4E:
	.cfi_startproc
	pushq	%rbp
	.cfi_def_cfa_offset 16
	.cfi_offset %rbp, -16
	movq	%rsp, %rbp
	.cfi_def_cfa_register %rbp
	pushq	%r14
	pushq	%rbx
	subq	$32, %rsp
	.cfi_offset %rbx, -32
	.cfi_offset %r14, -24
	movq	%rdi, %rbx
	leaq	l___unnamed_8(%rip), %rdx
	leaq	-40(%rbp), %r14
	movl	$12, %ecx
	movq	%r14, %rdi
	callq	__ZN4core3fmt9Formatter12debug_struct17h985c0158d1fc7193E
	movq	%rbx, -24(%rbp)
	leaq	l___unnamed_9(%rip), %rsi
	leaq	l___unnamed_11(%rip), %r8
	leaq	-24(%rbp), %rcx
	movl	$3, %edx
	movq	%r14, %rdi
	callq	__ZN4core3fmt8builders11DebugStruct5field17h9c15dc155278eed2E
	movq	%r14, %rdi
	callq	__ZN4core3fmt8builders11DebugStruct6finish17h26808393f3fed630E
	addq	$32, %rsp
	popq	%rbx
	popq	%r14
	popq	%rbp
	retq
	.cfi_endproc

	.p2align	4, 0x90
__ZN84_$LT$failure..error_message..ErrorMessage$LT$D$GT$$u20$as$u20$core..fmt..Display$GT$3fmt17h94a9016a527ca927E:
	.cfi_startproc
	pushq	%rbp
	.cfi_def_cfa_offset 16
	.cfi_offset %rbp, -16
	movq	%rsp, %rbp
	.cfi_def_cfa_register %rbp
	movq	%rsi, %rdx
	movq	(%rdi), %rax
	movq	8(%rdi), %rsi
	movq	%rax, %rdi
	popq	%rbp
	jmp	__ZN42_$LT$str$u20$as$u20$core..fmt..Display$GT$3fmt17hd4dee1c1c4ccf892E
	.cfi_endproc

	.p2align	4, 0x90
__ZN84_$LT$failure..error_message..ErrorMessage$LT$D$GT$$u20$as$u20$core..fmt..Display$GT$3fmt17hc2cf3f18c0e2e867E:
	.cfi_startproc
	pushq	%rbp
	.cfi_def_cfa_offset 16
	.cfi_offset %rbp, -16
	movq	%rsp, %rbp
	.cfi_def_cfa_register %rbp
	movq	%rsi, %rdx
	movq	(%rdi), %rax
	movq	16(%rdi), %rsi
	movq	%rax, %rdi
	popq	%rbp
	jmp	__ZN42_$LT$str$u20$as$u20$core..fmt..Display$GT$3fmt17hd4dee1c1c4ccf892E
	.cfi_endproc

	.section	__TEXT,__literal16,16byte_literals
	.p2align	4
LCPI39_0:
	.byte	116
	.byte	97
	.byte	114
	.byte	103
	.byte	101
	.byte	116
	.byte	95
	.byte	104
	.byte	97
	.byte	115
	.byte	95
	.byte	97
	.byte	116
	.byte	111
	.byte	109
	.byte	105
LCPI39_1:
	.byte	105
	.byte	100
	.byte	116
	.byte	104
	.byte	0
	.byte	0
	.byte	0
	.byte	0
	.byte	0
	.byte	0
	.byte	0
	.byte	0
	.byte	0
	.byte	0
	.byte	0
	.byte	0
LCPI39_2:
	.byte	116
	.byte	97
	.byte	114
	.byte	103
	.byte	101
	.byte	116
	.byte	95
	.byte	112
	.byte	111
	.byte	105
	.byte	110
	.byte	116
	.byte	101
	.byte	114
	.byte	95
	.byte	119
LCPI39_3:
	.space	8
	.quad	23
LCPI39_4:
	.space	8
	.quad	33
LCPI39_5:
	.space	8
	.quad	26
LCPI39_6:
	.space	8
	.quad	24
LCPI39_7:
	.space	8
	.quad	22
	.section	__TEXT,__text,regular,pure_instructions
	.globl	__ZN9rustc_cfg3Cfg2of17ha9d85f0d463bf351E
	.p2align	4, 0x90
__ZN9rustc_cfg3Cfg2of17ha9d85f0d463bf351E:
Lfunc_begin5:
	.cfi_startproc
	.cfi_personality 155, _rust_eh_personality
	.cfi_lsda 16, Lexception5
	pushq	%rbp
	.cfi_def_cfa_offset 16
	.cfi_offset %rbp, -16
	movq	%rsp, %rbp
	.cfi_def_cfa_register %rbp
	pushq	%r15
	pushq	%r14
	pushq	%r13
	pushq	%r12
	pushq	%rbx
	subq	$968, %rsp
	.cfi_offset %rbx, -56
	.cfi_offset %r12, -48
	.cfi_offset %r13, -40
	.cfi_offset %r14, -32
	.cfi_offset %r15, -24
	movq	%rdx, %r14
	movq	%rsi, %r15
	movq	%rdi, %r13
	leaq	l___unnamed_12(%rip), %rsi
	leaq	-160(%rbp), %rdi
	movl	$5, %ebx
	movl	$5, %edx
	callq	__ZN3std3env4_var17heb54e5eb7997d7b3E
	leaq	-152(%rbp), %rax
	cmpq	$0, -160(%rbp)
	cmoveq	-152(%rbp), %rax
	cmoveq	-136(%rbp), %rbx
	leaq	l___unnamed_13(%rip), %rsi
	cmoveq	%rax, %rsi
Ltmp32:
	leaq	-640(%rbp), %rdi
	movq	%rbx, %rdx
	callq	__ZN3std3sys4unix7process14process_common7Command3new17hcd746a384cbb0b47E
Ltmp33:
	vmovups	-488(%rbp), %ymm0
	vmovups	%ymm0, -680(%rbp)
	vmovups	-512(%rbp), %ymm0
	vmovups	%ymm0, -704(%rbp)
	vmovdqu	-640(%rbp), %ymm0
	vmovups	-608(%rbp), %ymm1
	vmovups	-576(%rbp), %ymm2
	vmovups	-544(%rbp), %ymm3
	vmovups	%ymm3, -736(%rbp)
	vmovups	%ymm2, -768(%rbp)
	vmovups	%ymm1, -800(%rbp)
	vmovdqu	%ymm0, -832(%rbp)
Ltmp34:
	leaq	L___unnamed_14(%rip), %rsi
	leaq	-832(%rbp), %rdi
	movl	$8, %edx
	vzeroupper
	callq	__ZN3std3sys4unix7process14process_common7Command3arg17hc476c471a9efd12bE
Ltmp35:
Ltmp36:
	leaq	-832(%rbp), %rdi
	movq	%r15, %rsi
	movq	%r14, %rdx
	callq	__ZN3std3sys4unix7process14process_common7Command3arg17hc476c471a9efd12bE
Ltmp37:
Ltmp38:
	leaq	l___unnamed_15(%rip), %rdi
	movl	$7, %esi
	callq	__ZN95_$LT$std..ffi..os_str..OsStr$u20$as$u20$core..convert..AsRef$LT$std..ffi..os_str..OsStr$GT$$GT$6as_ref17h446c7b9305eed47bE
Ltmp39:
Ltmp40:
	leaq	-832(%rbp), %rdi
	movq	%rax, %rsi
	callq	__ZN3std3sys4unix7process14process_common7Command3arg17hc476c471a9efd12bE
Ltmp41:
Ltmp42:
	leaq	l___unnamed_16(%rip), %rdi
	movl	$3, %esi
	callq	__ZN95_$LT$std..ffi..os_str..OsStr$u20$as$u20$core..convert..AsRef$LT$std..ffi..os_str..OsStr$GT$$GT$6as_ref17h446c7b9305eed47bE
Ltmp43:
Ltmp44:
	leaq	-832(%rbp), %rdi
	movq	%rax, %rsi
	callq	__ZN3std3sys4unix7process14process_common7Command3arg17hc476c471a9efd12bE
Ltmp45:
Ltmp46:
	leaq	-640(%rbp), %rdi
	leaq	-832(%rbp), %rsi
	callq	__ZN3std7process7Command6output17h3119df81721f3b73E
Ltmp47:
	movq	-640(%rbp), %rax
	vmovups	-632(%rbp), %ymm0
	vmovups	%ymm0, -240(%rbp)
	vmovups	-608(%rbp), %ymm0
	vmovups	%ymm0, -216(%rbp)
	cmpq	$1, %rax
	jne	LBB39_14
	vmovdqa	-240(%rbp), %xmm0
	vmovdqa	%xmm0, -320(%rbp)
Ltmp96:
	leaq	-640(%rbp), %rdi
	vzeroupper
	callq	__ZN7failure9backtrace9Backtrace3new17h672bc240a4ff8c29E
Ltmp97:
	vmovups	-640(%rbp), %ymm0
	vmovups	-624(%rbp), %ymm1
	vmovups	%ymm1, -416(%rbp)
	vmovups	%ymm0, -432(%rbp)
	vmovaps	-320(%rbp), %xmm0
	vmovaps	%xmm0, -384(%rbp)
	vmovups	-400(%rbp), %xmm0
	vmovups	%xmm0, -608(%rbp)
	vmovups	-384(%rbp), %xmm0
	vmovups	%xmm0, -592(%rbp)
	vmovups	-432(%rbp), %ymm0
	vmovups	%ymm0, -640(%rbp)
	movl	$64, %edi
	movl	$8, %esi
	vzeroupper
	callq	___rust_alloc
	testq	%rax, %rax
	je	LBB39_404
	vmovdqu	-640(%rbp), %ymm0
	vmovups	-608(%rbp), %ymm1
	vmovups	%ymm1, 32(%rax)
	vmovdqu	%ymm0, (%rax)
	movq	%rax, 8(%r13)
	leaq	l___unnamed_17(%rip), %rax
	movq	%rax, 16(%r13)
	movq	$1, (%r13)
Ltmp102:
	leaq	-832(%rbp), %rdi
	vzeroupper
	callq	__ZN4core3ptr13drop_in_place17hef427ccbc510ae20E
Ltmp103:
	cmpq	$0, -160(%rbp)
	movq	-152(%rbp), %rdi
	testq	%rdi, %rdi
	je	LBB39_403
	movq	-144(%rbp), %rsi
	testq	%rsi, %rsi
	jne	LBB39_402
	jmp	LBB39_403
LBB39_14:
	vmovdqu	-240(%rbp), %ymm0
	vmovdqu	-216(%rbp), %ymm1
	vmovdqu	%ymm1, -408(%rbp)
	vmovdqu	%ymm0, -432(%rbp)
Ltmp49:
	leaq	-832(%rbp), %rdi
	vzeroupper
	callq	__ZN4core3ptr13drop_in_place17hef427ccbc510ae20E
Ltmp50:
	cmpq	$0, -160(%rbp)
	movq	-152(%rbp), %rdi
	testq	%rdi, %rdi
	je	LBB39_18
	movq	-144(%rbp), %rsi
	testq	%rsi, %rsi
	je	LBB39_18
	movl	$1, %edx
	callq	___rust_dealloc
LBB39_18:
	leaq	-384(%rbp), %rdi
Ltmp52:
	callq	__ZN3std7process10ExitStatus7success17h2b8b99214fbc7387E
Ltmp53:
	testb	%al, %al
	je	LBB39_25
	movq	-416(%rbp), %rdx
	movq	%rdx, -304(%rbp)
	vmovdqa	-432(%rbp), %xmm0
	vmovdqa	%xmm0, -320(%rbp)
	movq	-320(%rbp), %rsi
Ltmp64:
	leaq	-240(%rbp), %rdi
	callq	__ZN4core3str9from_utf817he06957962f38305fE
Ltmp65:
	cmpq	$1, -240(%rbp)
	jne	LBB39_30
	movq	-304(%rbp), %rax
	vmovaps	-320(%rbp), %xmm0
	vmovaps	%xmm0, -640(%rbp)
	movq	%rax, -624(%rbp)
	vmovups	-232(%rbp), %xmm0
	vmovups	%xmm0, -616(%rbp)
	movq	-608(%rbp), %rax
	vmovdqu	-640(%rbp), %ymm0
	vmovdqu	%ymm0, -160(%rbp)
	movq	%rax, -128(%rbp)
	movq	%rax, -208(%rbp)
	vmovdqu	%ymm0, -240(%rbp)
Ltmp93:
	leaq	-640(%rbp), %rdi
	vzeroupper
	callq	__ZN7failure9backtrace9Backtrace3new17h672bc240a4ff8c29E
Ltmp94:
	vmovups	-640(%rbp), %ymm0
	vmovups	-624(%rbp), %ymm1
	vmovups	%ymm1, -816(%rbp)
	vmovups	%ymm0, -832(%rbp)
	movq	-208(%rbp), %rax
	movq	%rax, -752(%rbp)
	vmovups	-240(%rbp), %ymm0
	vmovups	%ymm0, -784(%rbp)
	vmovups	-776(%rbp), %xmm0
	vmovups	%xmm0, -584(%rbp)
	movq	-760(%rbp), %rax
	movq	%rax, -568(%rbp)
	movq	-752(%rbp), %rax
	movq	%rax, -560(%rbp)
	vmovups	-800(%rbp), %ymm0
	vmovups	%ymm0, -608(%rbp)
	vmovups	-832(%rbp), %ymm0
	vmovups	%ymm0, -640(%rbp)
	movl	$88, %edi
	movl	$8, %esi
	vzeroupper
	callq	___rust_alloc
	testq	%rax, %rax
	je	LBB39_407
	vmovdqu	-640(%rbp), %ymm0
	vmovups	-608(%rbp), %ymm1
	vmovups	-584(%rbp), %ymm2
	vmovups	%ymm2, 56(%rax)
	vmovups	%ymm1, 32(%rax)
	vmovdqu	%ymm0, (%rax)
	movq	%rax, 8(%r13)
	leaq	l___unnamed_18(%rip), %rax
	movq	%rax, 16(%r13)
	movq	$1, (%r13)
	movq	-408(%rbp), %rdi
	testq	%rdi, %rdi
	je	LBB39_403
LBB39_401:
	movq	-400(%rbp), %rsi
	testq	%rsi, %rsi
	jne	LBB39_402
	jmp	LBB39_403
LBB39_25:
	movq	-392(%rbp), %rdx
	movq	%rdx, -144(%rbp)
	vmovups	-408(%rbp), %xmm0
	vmovaps	%xmm0, -160(%rbp)
	movq	-160(%rbp), %rsi
Ltmp55:
	leaq	-240(%rbp), %rdi
	callq	__ZN4core3str9from_utf817he06957962f38305fE
Ltmp56:
	cmpq	$1, -240(%rbp)
	jne	LBB39_190
	movq	-144(%rbp), %rax
	vmovaps	-160(%rbp), %xmm0
	vmovaps	%xmm0, -640(%rbp)
	movq	%rax, -624(%rbp)
	vmovups	-232(%rbp), %xmm0
	vmovups	%xmm0, -616(%rbp)
	movq	-608(%rbp), %rax
	vmovups	-640(%rbp), %ymm0
	vmovups	%ymm0, -160(%rbp)
	movq	%rax, -128(%rbp)
	movq	%rax, -208(%rbp)
	vmovups	%ymm0, -240(%rbp)
Ltmp61:
	leaq	-640(%rbp), %rdi
	vzeroupper
	callq	__ZN7failure9backtrace9Backtrace3new17h672bc240a4ff8c29E
Ltmp62:
	vmovups	-640(%rbp), %ymm0
	vmovups	-624(%rbp), %ymm1
	vmovups	%ymm1, -816(%rbp)
	vmovups	%ymm0, -832(%rbp)
	movq	-208(%rbp), %rax
	movq	%rax, -752(%rbp)
	vmovups	-240(%rbp), %ymm0
	vmovups	%ymm0, -784(%rbp)
	vmovups	-776(%rbp), %xmm0
	vmovups	%xmm0, -584(%rbp)
	movq	-760(%rbp), %rax
	movq	%rax, -568(%rbp)
	movq	-752(%rbp), %rax
	movq	%rax, -560(%rbp)
	vmovups	-800(%rbp), %ymm0
	vmovups	%ymm0, -608(%rbp)
	vmovups	-832(%rbp), %ymm0
	vmovups	%ymm0, -640(%rbp)
	movl	$88, %edi
	movl	$8, %esi
	vzeroupper
	callq	___rust_alloc
	testq	%rax, %rax
	je	LBB39_407
	vmovdqu	-640(%rbp), %ymm0
	vmovups	-584(%rbp), %ymm1
	vmovups	%ymm1, 56(%rax)
	vmovups	-608(%rbp), %ymm1
	vmovups	%ymm1, 32(%rax)
	vmovdqu	%ymm0, (%rax)
	leaq	l___unnamed_18(%rip), %rcx
	jmp	LBB39_193
LBB39_30:
	movq	%r13, -904(%rbp)
	movq	-304(%rbp), %rax
	movq	%rax, -816(%rbp)
	vmovaps	-320(%rbp), %xmm0
	vmovaps	%xmm0, -832(%rbp)
	vmovups	-832(%rbp), %xmm0
	vmovups	%xmm0, -160(%rbp)
	movq	-816(%rbp), %rax
	movq	%rax, -144(%rbp)
	movq	-808(%rbp), %rax
	movq	%rax, -136(%rbp)
	vmovaps	-160(%rbp), %xmm0
	vmovaps	%xmm0, -272(%rbp)
	movq	-144(%rbp), %rax
	movq	%rax, -256(%rbp)
	movq	$0, -928(%rbp)
	movq	$0, -856(%rbp)
	movq	$0, -880(%rbp)
	movq	$0, -456(%rbp)
	movq	$0, -344(%rbp)
	movq	$0, -296(%rbp)
	movq	$8, -88(%rbp)
	vxorps	%xmm0, %xmm0, %xmm0
	vmovups	%xmm0, -80(%rbp)
	movq	$8, -112(%rbp)
	vmovups	%xmm0, -104(%rbp)
	movq	$0, -184(%rbp)
	movq	-272(%rbp), %rax
	movq	-256(%rbp), %rcx
	movq	$0, -832(%rbp)
	movq	%rcx, -824(%rbp)
	movq	%rax, -816(%rbp)
	movq	%rcx, -808(%rbp)
	movq	$0, -800(%rbp)
	movq	%rcx, -792(%rbp)
	movq	$1, -784(%rbp)
	movabsq	$42949672970, %rax
	movq	%rax, -776(%rbp)
	movw	$0, -768(%rbp)
	leaq	-832(%rbp), %r14
	movabsq	$261993005117, %r15
	leaq	-640(%rbp), %r13
	movl	$99, %eax
	vmovd	%eax, %xmm0
	vmovdqa	%xmm0, -896(%rbp)
	jmp	LBB39_33
LBB39_31:
	movq	%rbx, -880(%rbp)
	movq	%r15, -872(%rbp)
	movq	%r14, -864(%rbp)
	.p2align	4, 0x90
LBB39_32:
	leaq	-832(%rbp), %r14
	movabsq	$261993005117, %r15
LBB39_33:
Ltmp67:
	movq	%r14, %rdi
	callq	__ZN4core3str22SplitInternal$LT$P$GT$4next17h27d34b5e4cdb2bf0E
Ltmp68:
	testq	%rax, %rax
	je	LBB39_195
	testq	%rdx, %rdx
	je	LBB39_37
	leaq	-1(%rdx), %rcx
	cmpb	$13, -1(%rax,%rdx)
	cmovneq	%rdx, %rcx
	jmp	LBB39_38
	.p2align	4, 0x90
LBB39_37:
	xorl	%ecx, %ecx
LBB39_38:
	movq	$0, -640(%rbp)
	movq	%rcx, -632(%rbp)
	movq	%rax, -624(%rbp)
	movq	%rcx, -616(%rbp)
	movq	$0, -608(%rbp)
	movq	%rcx, -600(%rbp)
	movq	$1, -592(%rbp)
	movq	%r15, -584(%rbp)
	movw	$1, -576(%rbp)
Ltmp69:
	movq	%r13, %rdi
	callq	__ZN4core3str22SplitInternal$LT$P$GT$4next17h27d34b5e4cdb2bf0E
Ltmp70:
	movq	%rax, %r12
	movq	%rdx, %rbx
Ltmp71:
	movq	%r13, %rdi
	callq	__ZN4core3str22SplitInternal$LT$P$GT$4next17h27d34b5e4cdb2bf0E
Ltmp72:
	testq	%r12, %r12
	je	LBB39_33
	testq	%rax, %rax
	je	LBB39_33
	addq	$-9, %rbx
	cmpq	$11, %rbx
	ja	LBB39_33
	leaq	LJTI39_0(%rip), %rcx
	movq	%rcx, %rsi
	movslq	(%rcx,%rbx,4), %rcx
	addq	%rsi, %rcx
	jmpq	*%rcx
LBB39_44:
	leaq	l___unnamed_19(%rip), %rcx
	cmpq	%rcx, %r12
	je	LBB39_46
	movq	(%r12), %rcx
	movabsq	$8025261039873581428, %rsi
	xorq	%rsi, %rcx
	movzbl	8(%r12), %esi
	xorq	$115, %rsi
	orq	%rcx, %rsi
	jne	LBB39_33
LBB39_46:
	movq	%rax, %rdi
	movq	%rdx, %rsi
	callq	__ZN4core3str21_$LT$impl$u20$str$GT$12trim_matches17h0ec1b91006db5a1aE
	movq	%rax, %r12
	movq	%rdx, %rbx
	testq	%rdx, %rdx
	je	LBB39_104
	movl	$1, %esi
	movq	%rbx, %rdi
	callq	___rust_alloc
	testq	%rax, %rax
	je	LBB39_408
	movq	%rax, %r14
	movq	%rbx, %r15
	cmpq	%rbx, %r15
	jb	LBB39_105
	jmp	LBB39_144
LBB39_49:
	leaq	l___unnamed_20(%rip), %rcx
	cmpq	%rcx, %r12
	je	LBB39_51
	movq	(%r12), %rcx
	movabsq	$7376742693532230004, %rsi
	xorq	%rsi, %rcx
	movq	6(%r12), %rsi
	movabsq	$7310034287886427743, %rdi
	xorq	%rdi, %rsi
	orq	%rcx, %rsi
	jne	LBB39_33
LBB39_51:
	movq	%rax, %rdi
	movq	%rdx, %rsi
	callq	__ZN4core3str21_$LT$impl$u20$str$GT$12trim_matches17h0ec1b91006db5a1aE
	movq	%rax, %r12
	movq	%rdx, %r14
	testq	%rdx, %rdx
	je	LBB39_89
	movl	$1, %esi
	movq	%r14, %rdi
	callq	___rust_alloc
	testq	%rax, %rax
	je	LBB39_405
	movq	%rax, %rbx
	movq	%r14, %r15
	cmpq	%r14, %r15
	jb	LBB39_90
	jmp	LBB39_127
LBB39_54:
	leaq	l___unnamed_21(%rip), %rcx
	cmpq	%rcx, %r12
	je	LBB39_56
	movq	(%r12), %rcx
	movabsq	$7016454723342590324, %rsi
	xorq	%rsi, %rcx
	movq	3(%r12), %rsi
	movabsq	$7521981565177718119, %rdi
	xorq	%rdi, %rsi
	orq	%rcx, %rsi
	jne	LBB39_33
LBB39_56:
	movq	%rax, %rdi
	movq	%rdx, %rsi
	callq	__ZN4core3str21_$LT$impl$u20$str$GT$12trim_matches17h0ec1b91006db5a1aE
	movq	%rax, %r12
	movq	%rdx, %r14
	testq	%rdx, %rdx
	je	LBB39_94
	movl	$1, %esi
	movq	%r14, %rdi
	callq	___rust_alloc
	testq	%rax, %rax
	je	LBB39_405
	movq	%rax, %rbx
	movq	%r14, %r15
	cmpq	%r14, %r15
	jb	LBB39_95
	jmp	LBB39_131
LBB39_59:
	leaq	l___unnamed_22(%rip), %rcx
	cmpq	%rcx, %r12
	je	LBB39_83
	movq	(%r12), %rcx
	movabsq	$7376742693532230004, %rsi
	xorq	%rsi, %rcx
	movq	5(%r12), %rsi
	movabsq	$8749484094580481908, %rdi
	xorq	%rdi, %rsi
	orq	%rcx, %rsi
	je	LBB39_83
	leaq	l___unnamed_23(%rip), %rcx
	cmpq	%rcx, %r12
	je	LBB39_86
	movq	(%r12), %rcx
	movabsq	$7304685099494302068, %rsi
	xorq	%rsi, %rcx
	movq	5(%r12), %rsi
	movabsq	$7953754296982790004, %rdi
	xorq	%rdi, %rsi
	orq	%rcx, %rsi
	je	LBB39_86
	leaq	l___unnamed_24(%rip), %rcx
	cmpq	%rcx, %r12
	je	LBB39_65
	movq	(%r12), %rcx
	movabsq	$8529664198139076980, %rsi
	xorq	%rsi, %rcx
	movq	5(%r12), %rsi
	movabsq	$8245919868050104180, %rdi
	xorq	%rdi, %rsi
	orq	%rcx, %rsi
	jne	LBB39_33
LBB39_65:
	movq	%rax, %rdi
	movq	%rdx, %rsi
	callq	__ZN4core3str21_$LT$impl$u20$str$GT$12trim_matches17h0ec1b91006db5a1aE
	movq	%rax, %r12
	movq	%rdx, %r14
	testq	%rdx, %rdx
	je	LBB39_178
	movl	$1, %esi
	movq	%r14, %rdi
	callq	___rust_alloc
	testq	%rax, %rax
	je	LBB39_405
	movq	%rax, %rbx
	movq	%r14, %r15
	cmpq	%r14, %r15
	jb	LBB39_179
	jmp	LBB39_186
LBB39_68:
	leaq	l___unnamed_25(%rip), %rcx
	cmpq	%rcx, %r12
	je	LBB39_70
	movq	(%r12), %rcx
	movabsq	$7304685099494302068, %rsi
	xorq	%rsi, %rcx
	movzwl	8(%r12), %esi
	xorq	$30318, %rsi
	orq	%rcx, %rsi
	jne	LBB39_33
LBB39_70:
	movq	%rax, %rdi
	movq	%rdx, %rsi
	callq	__ZN4core3str21_$LT$impl$u20$str$GT$12trim_matches17h0ec1b91006db5a1aE
	movq	%rax, %r12
	movq	%rdx, %r14
	testq	%rdx, %rdx
	je	LBB39_109
	movl	$1, %esi
	movq	%r14, %rdi
	callq	___rust_alloc
	testq	%rax, %rax
	je	LBB39_405
	movq	%rax, %rbx
	movq	%r14, %r15
	cmpq	%r14, %r15
	jb	LBB39_110
	jmp	LBB39_151
LBB39_73:
	leaq	l___unnamed_26(%rip), %rcx
	cmpq	%rcx, %r12
	je	LBB39_75
	movzbl	16(%r12), %ecx
	vmovq	%rcx, %xmm0
	vpcmpeqb	-896(%rbp), %xmm0, %xmm0
	vmovdqa	LCPI39_0(%rip), %xmm1
	vpcmpeqb	(%r12), %xmm1, %xmm1
	vpand	%xmm0, %xmm1, %xmm0
	vpmovmskb	%xmm0, %ecx
	cmpl	$65535, %ecx
	jne	LBB39_33
LBB39_75:
	movq	%rax, %rdi
	movq	%rdx, %rsi
	callq	__ZN4core3str21_$LT$impl$u20$str$GT$12trim_matches17h0ec1b91006db5a1aE
	movq	%rax, %r12
	movq	%rdx, %r14
	testq	%rdx, %rdx
	je	LBB39_114
	movl	$1, %esi
	movq	%r14, %rdi
	callq	___rust_alloc
	testq	%rax, %rax
	je	LBB39_405
	movq	%rax, %rbx
	movq	%r14, %r15
	cmpq	%r14, %r15
	jb	LBB39_115
	jmp	LBB39_158
LBB39_78:
	leaq	l___unnamed_27(%rip), %rcx
	cmpq	%rcx, %r12
	je	LBB39_80
	vmovd	16(%r12), %xmm0
	vpcmpeqb	LCPI39_1(%rip), %xmm0, %xmm0
	vmovdqa	LCPI39_2(%rip), %xmm1
	vpcmpeqb	(%r12), %xmm1, %xmm1
	vpand	%xmm0, %xmm1, %xmm0
	vpmovmskb	%xmm0, %ecx
	cmpl	$65535, %ecx
	jne	LBB39_33
LBB39_80:
	movq	%rax, %rdi
	movq	%rdx, %rsi
	callq	__ZN4core3str21_$LT$impl$u20$str$GT$12trim_matches17h0ec1b91006db5a1aE
	movq	%rax, %r12
	movq	%rdx, %r14
	testq	%rdx, %rdx
	je	LBB39_119
	movl	$1, %esi
	movq	%r14, %rdi
	callq	___rust_alloc
	testq	%rax, %rax
	je	LBB39_405
	movq	%rax, %rbx
	movq	%r14, %r15
	cmpq	%r14, %r15
	jb	LBB39_120
	jmp	LBB39_162
LBB39_83:
	movq	%rax, %rdi
	movq	%rdx, %rsi
	callq	__ZN4core3str21_$LT$impl$u20$str$GT$12trim_matches17h0ec1b91006db5a1aE
	movq	%rax, %r12
	movq	%rdx, %r14
	testq	%rdx, %rdx
	je	LBB39_99
	movl	$1, %esi
	movq	%r14, %rdi
	callq	___rust_alloc
	testq	%rax, %rax
	je	LBB39_405
	movq	%rax, %rbx
	movq	%r14, %r15
	cmpq	%r14, %r15
	jb	LBB39_100
	jmp	LBB39_137
LBB39_86:
	movq	%rax, %rdi
	movq	%rdx, %rsi
	callq	__ZN4core3str21_$LT$impl$u20$str$GT$12trim_matches17h0ec1b91006db5a1aE
	movq	%rax, %r12
	movq	%rdx, %r14
	testq	%rdx, %rdx
	je	LBB39_166
	movl	$1, %esi
	movq	%r14, %rdi
	callq	___rust_alloc
	testq	%rax, %rax
	je	LBB39_405
	movq	%rax, %rbx
	movq	%r14, %r15
	cmpq	%r14, %r15
	jb	LBB39_167
	jmp	LBB39_174
LBB39_89:
	movl	$1, %ebx
	xorl	%r15d, %r15d
	cmpq	%r14, %r15
	jae	LBB39_127
LBB39_90:
	movq	%r12, -64(%rbp)
	leaq	(%r15,%r15), %rax
	cmpq	%r14, %rax
	movq	%r14, %r12
	cmovaq	%rax, %r12
	testq	%r15, %r15
	je	LBB39_124
	testq	%rbx, %rbx
	je	LBB39_124
	cmpq	%r12, %r15
	je	LBB39_126
	movl	$1, %edx
	movq	%rbx, %rdi
	movq	%r15, %rsi
	movq	%r12, %rcx
	callq	___rust_realloc
	movq	%rax, %rbx
	testq	%rax, %rax
	jne	LBB39_125
	jmp	LBB39_406
LBB39_94:
	movl	$1, %ebx
	xorl	%r15d, %r15d
	cmpq	%r14, %r15
	jae	LBB39_131
LBB39_95:
	movq	%r12, -64(%rbp)
	leaq	(%r15,%r15), %rax
	cmpq	%r14, %rax
	movq	%r14, %r12
	cmovaq	%rax, %r12
	testq	%r15, %r15
	je	LBB39_128
	testq	%rbx, %rbx
	je	LBB39_128
	cmpq	%r12, %r15
	je	LBB39_130
	movl	$1, %edx
	movq	%rbx, %rdi
	movq	%r15, %rsi
	movq	%r12, %rcx
	callq	___rust_realloc
	movq	%rax, %rbx
	testq	%rax, %rax
	jne	LBB39_129
	jmp	LBB39_406
LBB39_99:
	movl	$1, %ebx
	xorl	%r15d, %r15d
	cmpq	%r14, %r15
	jae	LBB39_137
LBB39_100:
	movq	%r12, -64(%rbp)
	leaq	(%r15,%r15), %rax
	cmpq	%r14, %rax
	movq	%r14, %r12
	cmovaq	%rax, %r12
	testq	%r15, %r15
	je	LBB39_134
	testq	%rbx, %rbx
	je	LBB39_134
	cmpq	%r12, %r15
	je	LBB39_136
	movl	$1, %edx
	movq	%rbx, %rdi
	movq	%r15, %rsi
	movq	%r12, %rcx
	callq	___rust_realloc
	movq	%rax, %rbx
	testq	%rax, %rax
	jne	LBB39_135
	jmp	LBB39_406
LBB39_104:
	movl	$1, %r14d
	xorl	%r15d, %r15d
	cmpq	%rbx, %r15
	jae	LBB39_144
LBB39_105:
	movq	%r12, -64(%rbp)
	leaq	(%r15,%r15), %rax
	cmpq	%rbx, %rax
	movq	%rbx, %r12
	cmovaq	%rax, %r12
	testq	%r15, %r15
	je	LBB39_141
	testq	%r14, %r14
	je	LBB39_141
	cmpq	%r12, %r15
	je	LBB39_143
	movl	$1, %edx
	movq	%r14, %rdi
	movq	%r15, %rsi
	movq	%r12, %rcx
	callq	___rust_realloc
	movq	%rax, %r14
	testq	%rax, %rax
	jne	LBB39_142
	jmp	LBB39_406
LBB39_109:
	movl	$1, %ebx
	xorl	%r15d, %r15d
	cmpq	%r14, %r15
	jae	LBB39_151
LBB39_110:
	movq	%r12, -64(%rbp)
	leaq	(%r15,%r15), %rax
	cmpq	%r14, %rax
	movq	%r14, %r12
	cmovaq	%rax, %r12
	testq	%r15, %r15
	je	LBB39_148
	testq	%rbx, %rbx
	je	LBB39_148
	cmpq	%r12, %r15
	je	LBB39_150
	movl	$1, %edx
	movq	%rbx, %rdi
	movq	%r15, %rsi
	movq	%r12, %rcx
	callq	___rust_realloc
	movq	%rax, %rbx
	testq	%rax, %rax
	jne	LBB39_149
	jmp	LBB39_406
LBB39_114:
	movl	$1, %ebx
	xorl	%r15d, %r15d
	cmpq	%r14, %r15
	jae	LBB39_158
LBB39_115:
	movq	%r12, -64(%rbp)
	leaq	(%r15,%r15), %rax
	cmpq	%r14, %rax
	movq	%r14, %r12
	cmovaq	%rax, %r12
	testq	%r15, %r15
	je	LBB39_155
	testq	%rbx, %rbx
	je	LBB39_155
	cmpq	%r12, %r15
	je	LBB39_157
	movl	$1, %edx
	movq	%rbx, %rdi
	movq	%r15, %rsi
	movq	%r12, %rcx
	callq	___rust_realloc
	movq	%rax, %rbx
	testq	%rax, %rax
	jne	LBB39_156
	jmp	LBB39_406
LBB39_119:
	movl	$1, %ebx
	xorl	%r15d, %r15d
	cmpq	%r14, %r15
	jae	LBB39_162
LBB39_120:
	movq	%r12, -64(%rbp)
	leaq	(%r15,%r15), %rax
	cmpq	%r14, %rax
	movq	%r14, %r12
	cmovaq	%rax, %r12
	testq	%r15, %r15
	je	LBB39_159
	testq	%rbx, %rbx
	je	LBB39_159
	cmpq	%r12, %r15
	je	LBB39_161
	movl	$1, %edx
	movq	%rbx, %rdi
	movq	%r15, %rsi
	movq	%r12, %rcx
	callq	___rust_realloc
	movq	%rax, %rbx
	testq	%rax, %rax
	jne	LBB39_160
	jmp	LBB39_406
LBB39_124:
	movl	$1, %esi
	movq	%r12, %rdi
	callq	___rust_alloc
	movq	%rax, %rbx
	testq	%rax, %rax
	je	LBB39_406
LBB39_125:
	movq	%r12, %r15
LBB39_126:
	movq	-64(%rbp), %r12
LBB39_127:
	movq	%rbx, %rdi
	movq	%r12, %rsi
	movq	%r14, %rdx
	callq	_memcpy
	movq	%rbx, -240(%rbp)
	movq	%r15, -232(%rbp)
	movq	%r14, -224(%rbp)
Ltmp73:
	leaq	-112(%rbp), %rdi
	leaq	-240(%rbp), %rsi
	callq	__ZN5alloc3vec12Vec$LT$T$GT$4push17h4ea121f39740980eE
Ltmp74:
	leaq	-832(%rbp), %r14
	movabsq	$261993005117, %r15
	jmp	LBB39_33
LBB39_128:
	movl	$1, %esi
	movq	%r12, %rdi
	callq	___rust_alloc
	movq	%rax, %rbx
	testq	%rax, %rax
	je	LBB39_406
LBB39_129:
	movq	%r12, %r15
LBB39_130:
	movq	-64(%rbp), %r12
LBB39_131:
	movq	%rbx, %rdi
	movq	%r12, %rsi
	movq	%r14, %rdx
	callq	_memcpy
	movq	-880(%rbp), %rdi
	testq	%rdi, %rdi
	je	LBB39_31
	movq	-872(%rbp), %rsi
	testq	%rsi, %rsi
	je	LBB39_31
	movl	$1, %edx
	callq	___rust_dealloc
	jmp	LBB39_31
LBB39_134:
	movl	$1, %esi
	movq	%r12, %rdi
	callq	___rust_alloc
	movq	%rax, %rbx
	testq	%rax, %rax
	je	LBB39_406
LBB39_135:
	movq	%r12, %r15
LBB39_136:
	movq	-64(%rbp), %r12
LBB39_137:
	movq	%rbx, %rdi
	movq	%r12, %rsi
	movq	%r14, %rdx
	callq	_memcpy
	movq	-856(%rbp), %rdi
	testq	%rdi, %rdi
	je	LBB39_140
	movq	-848(%rbp), %rsi
	testq	%rsi, %rsi
	je	LBB39_140
	movl	$1, %edx
	callq	___rust_dealloc
LBB39_140:
	movq	%rbx, -856(%rbp)
	movq	%r15, -848(%rbp)
	movq	%r14, -840(%rbp)
	jmp	LBB39_32
LBB39_141:
	movl	$1, %esi
	movq	%r12, %rdi
	callq	___rust_alloc
	movq	%rax, %r14
	testq	%rax, %rax
	je	LBB39_406
LBB39_142:
	movq	%r12, %r15
LBB39_143:
	movq	-64(%rbp), %r12
LBB39_144:
	movq	%r14, %rdi
	movq	%r12, %rsi
	movq	%rbx, %rdx
	callq	_memcpy
	movq	-928(%rbp), %rdi
	testq	%rdi, %rdi
	je	LBB39_147
	movq	-920(%rbp), %rsi
	testq	%rsi, %rsi
	je	LBB39_147
	movl	$1, %edx
	callq	___rust_dealloc
LBB39_147:
	movq	%r14, -928(%rbp)
	movq	%r15, -920(%rbp)
	movq	%rbx, -912(%rbp)
	jmp	LBB39_32
LBB39_148:
	movl	$1, %esi
	movq	%r12, %rdi
	callq	___rust_alloc
	movq	%rax, %rbx
	testq	%rax, %rax
	je	LBB39_406
LBB39_149:
	movq	%r12, %r15
LBB39_150:
	movq	-64(%rbp), %r12
LBB39_151:
	movq	%rbx, %rdi
	movq	%r12, %rsi
	movq	%r14, %rdx
	callq	_memcpy
	movq	-296(%rbp), %rdi
	testq	%rdi, %rdi
	je	LBB39_154
	movq	-288(%rbp), %rsi
	testq	%rsi, %rsi
	je	LBB39_154
	movl	$1, %edx
	callq	___rust_dealloc
LBB39_154:
	movq	%rbx, -296(%rbp)
	movq	%r15, -288(%rbp)
	movq	%r14, -280(%rbp)
	jmp	LBB39_32
LBB39_155:
	movl	$1, %esi
	movq	%r12, %rdi
	callq	___rust_alloc
	movq	%rax, %rbx
	testq	%rax, %rax
	je	LBB39_406
LBB39_156:
	movq	%r12, %r15
LBB39_157:
	movq	-64(%rbp), %r12
LBB39_158:
	movq	%rbx, %rdi
	movq	%r12, %rsi
	movq	%r14, %rdx
	callq	_memcpy
	movq	%rbx, -240(%rbp)
	movq	%r15, -232(%rbp)
	movq	%r14, -224(%rbp)
Ltmp75:
	leaq	-88(%rbp), %rdi
	leaq	-240(%rbp), %rsi
	callq	__ZN5alloc3vec12Vec$LT$T$GT$4push17h4ea121f39740980eE
Ltmp76:
	leaq	-832(%rbp), %r14
	movabsq	$261993005117, %r15
	jmp	LBB39_33
LBB39_159:
	movl	$1, %esi
	movq	%r12, %rdi
	callq	___rust_alloc
	movq	%rax, %rbx
	testq	%rax, %rax
	je	LBB39_406
LBB39_160:
	movq	%r12, %r15
LBB39_161:
	movq	-64(%rbp), %r12
LBB39_162:
	movq	%rbx, %rdi
	movq	%r12, %rsi
	movq	%r14, %rdx
	callq	_memcpy
	movq	-344(%rbp), %rdi
	testq	%rdi, %rdi
	je	LBB39_165
	movq	-336(%rbp), %rsi
	testq	%rsi, %rsi
	je	LBB39_165
	movl	$1, %edx
	callq	___rust_dealloc
LBB39_165:
	movq	%rbx, -344(%rbp)
	movq	%r15, -336(%rbp)
	movq	%r14, -328(%rbp)
	jmp	LBB39_32
LBB39_166:
	movl	$1, %ebx
	xorl	%r15d, %r15d
	cmpq	%r14, %r15
	jae	LBB39_174
LBB39_167:
	movq	%r12, -64(%rbp)
	leaq	(%r15,%r15), %rax
	cmpq	%r14, %rax
	movq	%r14, %r12
	cmovaq	%rax, %r12
	testq	%r15, %r15
	je	LBB39_171
	testq	%rbx, %rbx
	je	LBB39_171
	cmpq	%r12, %r15
	je	LBB39_173
	movl	$1, %edx
	movq	%rbx, %rdi
	movq	%r15, %rsi
	movq	%r12, %rcx
	callq	___rust_realloc
	movq	%rax, %rbx
	testq	%rax, %rax
	jne	LBB39_172
	jmp	LBB39_406
LBB39_171:
	movl	$1, %esi
	movq	%r12, %rdi
	callq	___rust_alloc
	movq	%rax, %rbx
	testq	%rax, %rax
	je	LBB39_406
LBB39_172:
	movq	%r12, %r15
LBB39_173:
	movq	-64(%rbp), %r12
LBB39_174:
	movq	%rbx, %rdi
	movq	%r12, %rsi
	movq	%r14, %rdx
	callq	_memcpy
	movq	-456(%rbp), %rdi
	testq	%rdi, %rdi
	je	LBB39_177
	movq	-448(%rbp), %rsi
	testq	%rsi, %rsi
	je	LBB39_177
	movl	$1, %edx
	callq	___rust_dealloc
LBB39_177:
	movq	%rbx, -456(%rbp)
	movq	%r15, -448(%rbp)
	movq	%r14, -440(%rbp)
	jmp	LBB39_32
LBB39_178:
	movl	$1, %ebx
	xorl	%r15d, %r15d
	cmpq	%r14, %r15
	jae	LBB39_186
LBB39_179:
	movq	%r12, -64(%rbp)
	leaq	(%r15,%r15), %rax
	cmpq	%r14, %rax
	movq	%r14, %r12
	cmovaq	%rax, %r12
	testq	%r15, %r15
	je	LBB39_183
	testq	%rbx, %rbx
	je	LBB39_183
	cmpq	%r12, %r15
	je	LBB39_185
	movl	$1, %edx
	movq	%rbx, %rdi
	movq	%r15, %rsi
	movq	%r12, %rcx
	callq	___rust_realloc
	movq	%rax, %rbx
	testq	%rax, %rax
	jne	LBB39_184
	jmp	LBB39_406
LBB39_183:
	movl	$1, %esi
	movq	%r12, %rdi
	callq	___rust_alloc
	movq	%rax, %rbx
	testq	%rax, %rax
	je	LBB39_406
LBB39_184:
	movq	%r12, %r15
LBB39_185:
	movq	-64(%rbp), %r12
LBB39_186:
	movq	%rbx, %rdi
	movq	%r12, %rsi
	movq	%r14, %rdx
	callq	_memcpy
	movq	-184(%rbp), %rdi
	testq	%rdi, %rdi
	je	LBB39_189
	movq	-176(%rbp), %rsi
	testq	%rsi, %rsi
	je	LBB39_189
	movl	$1, %edx
	callq	___rust_dealloc
LBB39_189:
	movq	%rbx, -184(%rbp)
	movq	%r15, -176(%rbp)
	movq	%r14, -168(%rbp)
	jmp	LBB39_32
LBB39_190:
	movq	-144(%rbp), %rax
	movq	%rax, -816(%rbp)
	vmovaps	-160(%rbp), %xmm0
	vmovaps	%xmm0, -832(%rbp)
	movq	-800(%rbp), %rax
	movq	%rax, -128(%rbp)
	vmovups	-832(%rbp), %xmm0
	vmovups	%xmm0, -160(%rbp)
	movq	-816(%rbp), %rax
	movq	%rax, -144(%rbp)
	movq	-808(%rbp), %rax
	movq	%rax, -136(%rbp)
	movq	-144(%rbp), %rax
	movq	%rax, -224(%rbp)
	vmovaps	-160(%rbp), %xmm0
	vmovaps	%xmm0, -240(%rbp)
Ltmp58:
	leaq	-640(%rbp), %rdi
	callq	__ZN7failure9backtrace9Backtrace3new17h672bc240a4ff8c29E
Ltmp59:
	vmovups	-624(%rbp), %ymm0
	vmovups	%ymm0, -816(%rbp)
	vmovups	-640(%rbp), %ymm0
	vmovups	%ymm0, -832(%rbp)
	vmovaps	-240(%rbp), %xmm0
	vmovaps	%xmm0, -784(%rbp)
	movq	-224(%rbp), %rax
	movq	%rax, -768(%rbp)
	movq	%rax, -576(%rbp)
	vmovups	-800(%rbp), %xmm0
	vmovups	%xmm0, -608(%rbp)
	vmovups	-784(%rbp), %xmm0
	vmovups	%xmm0, -592(%rbp)
	vmovups	-832(%rbp), %ymm0
	vmovups	%ymm0, -640(%rbp)
	movl	$72, %edi
	movl	$8, %esi
	vzeroupper
	callq	___rust_alloc
	testq	%rax, %rax
	je	LBB39_409
	movq	-576(%rbp), %rcx
	movq	%rcx, 64(%rax)
	vmovdqu	-640(%rbp), %ymm0
	vmovups	-608(%rbp), %ymm1
	vmovups	%ymm1, 32(%rax)
	vmovdqu	%ymm0, (%rax)
	leaq	l___unnamed_28(%rip), %rcx
LBB39_193:
	movq	%rax, 8(%r13)
	movq	%rcx, 16(%r13)
	movq	$1, (%r13)
	movq	-432(%rbp), %rdi
	testq	%rdi, %rdi
	je	LBB39_403
	movq	-424(%rbp), %rsi
	testq	%rsi, %rsi
	je	LBB39_403
LBB39_402:
	movl	$1, %edx
	vzeroupper
	callq	___rust_dealloc
LBB39_403:
	movq	%r13, %rax
	addq	$968, %rsp
	popq	%rbx
	popq	%r12
	popq	%r13
	popq	%r14
	popq	%r15
	popq	%rbp
	vzeroupper
	retq
LBB39_195:
	movq	-928(%rbp), %r15
	testq	%r15, %r15
	je	LBB39_201
	vmovups	-920(%rbp), %xmm0
	movq	%r15, -952(%rbp)
	vmovaps	%xmm0, -896(%rbp)
	vmovups	%xmm0, -944(%rbp)
	movq	-840(%rbp), %rax
	movq	%rax, -352(%rbp)
	vmovdqu	-856(%rbp), %xmm0
	vmovdqa	%xmm0, -368(%rbp)
	movq	-880(%rbp), %r14
	testq	%r14, %r14
	movq	-904(%rbp), %r13
	je	LBB39_242
	vmovdqu	-872(%rbp), %xmm0
	movq	%r14, -976(%rbp)
	vmovdqa	%xmm0, -64(%rbp)
	vmovdqu	%xmm0, -968(%rbp)
	movq	-456(%rbp), %r12
	testq	%r12, %r12
	je	LBB39_282
	vmovdqu	-448(%rbp), %xmm0
	movq	%r12, -320(%rbp)
	vmovdqa	%xmm0, -992(%rbp)
	vmovdqu	%xmm0, -312(%rbp)
	movq	-344(%rbp), %rbx
	testq	%rbx, %rbx
	je	LBB39_321
	vmovdqu	-336(%rbp), %xmm0
	movq	%rbx, -160(%rbp)
	vmovdqu	%xmm0, -152(%rbp)
	movq	-296(%rbp), %rax
	testq	%rax, %rax
	je	LBB39_359
	vmovups	-288(%rbp), %xmm0
	vmovups	-952(%rbp), %xmm1
	vmovaps	%xmm1, -640(%rbp)
	movq	-936(%rbp), %rcx
	movq	%rcx, -624(%rbp)
	vmovaps	-368(%rbp), %xmm1
	vmovups	%xmm1, -616(%rbp)
	movq	-352(%rbp), %rcx
	movq	%rcx, -600(%rbp)
	vmovups	-976(%rbp), %xmm1
	vmovaps	%xmm1, -592(%rbp)
	movq	-960(%rbp), %rcx
	movq	%rcx, -576(%rbp)
	vmovups	-320(%rbp), %xmm1
	vmovups	%xmm1, -568(%rbp)
	movq	-304(%rbp), %rcx
	movq	%rcx, -552(%rbp)
	movq	-144(%rbp), %rcx
	movq	%rcx, -528(%rbp)
	vmovups	-160(%rbp), %xmm1
	vmovaps	%xmm1, -544(%rbp)
	vmovups	-640(%rbp), %xmm1
	movq	-624(%rbp), %r8
	movq	-616(%rbp), %r9
	movq	-608(%rbp), %rsi
	movq	-600(%rbp), %rdi
	vmovups	-592(%rbp), %xmm2
	movq	-576(%rbp), %rbx
	vmovups	-568(%rbp), %xmm3
	movq	-552(%rbp), %rcx
	movq	-552(%rbp), %rdx
	movq	%rdx, 96(%r13)
	vmovups	-544(%rbp), %xmm4
	vmovups	%xmm4, 104(%r13)
	movq	-528(%rbp), %rdx
	movq	%rdx, 120(%r13)
	movq	%rbx, 72(%r13)
	vmovups	%xmm3, 80(%r13)
	movq	%rcx, 96(%r13)
	movq	%rsi, 40(%r13)
	movq	%rdi, 48(%r13)
	vmovups	%xmm2, 56(%r13)
	vmovups	%xmm1, 8(%r13)
	movq	%r8, 24(%r13)
	movq	%r9, 32(%r13)
	movq	%rax, 128(%r13)
	vmovups	%xmm0, 136(%r13)
	movq	-168(%rbp), %rax
	movq	%rax, 168(%r13)
	vmovups	-184(%rbp), %xmm0
	vmovups	%xmm0, 152(%r13)
	vmovups	-88(%rbp), %xmm0
	vmovups	%xmm0, 176(%r13)
	movq	-72(%rbp), %rax
	movq	%rax, 192(%r13)
	vmovdqu	-112(%rbp), %xmm0
	vmovdqu	%xmm0, 200(%r13)
	movq	-96(%rbp), %rax
	movq	%rax, 216(%r13)
	movq	$0, (%r13)
	movq	-272(%rbp), %rdi
	testq	%rdi, %rdi
	jne	LBB39_398
	jmp	LBB39_400
LBB39_201:
Ltmp90:
	leaq	-240(%rbp), %rdi
	callq	__ZN7failure9backtrace9Backtrace3new17h672bc240a4ff8c29E
Ltmp91:
	movq	-904(%rbp), %r13
	vmovups	-240(%rbp), %ymm0
	vmovups	-224(%rbp), %ymm1
	vmovups	%ymm1, -816(%rbp)
	vmovups	%ymm0, -832(%rbp)
	movl	$64, %edi
	movl	$8, %esi
	vzeroupper
	callq	___rust_alloc
	testq	%rax, %rax
	je	LBB39_404
	vmovups	-832(%rbp), %ymm0
	vmovups	-816(%rbp), %ymm1
	vmovups	%ymm1, 16(%rax)
	vmovups	%ymm0, (%rax)
	leaq	l___unnamed_29(%rip), %rcx
	vmovdqa	LCPI39_7(%rip), %xmm0
	vpinsrq	$0, %rcx, %xmm0, %xmm0
	vmovdqu	%xmm0, 48(%rax)
	movq	%rax, 8(%r13)
	leaq	l___unnamed_30(%rip), %rax
	movq	%rax, 16(%r13)
	movq	$1, (%r13)
	movq	-112(%rbp), %rbx
	movq	-96(%rbp), %rax
	testq	%rax, %rax
	je	LBB39_210
	leaq	(%rax,%rax,2), %rax
	leaq	(%rbx,%rax,8), %r14
	movq	(%rbx), %rdi
	testq	%rdi, %rdi
	jne	LBB39_207
	.p2align	4, 0x90
LBB39_205:
	addq	$24, %rbx
	cmpq	%r14, %rbx
	je	LBB39_209
LBB39_206:
	movq	(%rbx), %rdi
	testq	%rdi, %rdi
	je	LBB39_205
LBB39_207:
	movq	8(%rbx), %rsi
	testq	%rsi, %rsi
	je	LBB39_205
	movl	$1, %edx
	vzeroupper
	callq	___rust_dealloc
	addq	$24, %rbx
	cmpq	%r14, %rbx
	jne	LBB39_206
LBB39_209:
	movq	-112(%rbp), %rbx
LBB39_210:
	movq	-104(%rbp), %rax
	testq	%rax, %rax
	je	LBB39_214
	testq	%rbx, %rbx
	je	LBB39_214
	shlq	$3, %rax
	leaq	(%rax,%rax,2), %rsi
	testq	%rsi, %rsi
	je	LBB39_214
	movl	$8, %edx
	movq	%rbx, %rdi
	vzeroupper
	callq	___rust_dealloc
LBB39_214:
	movq	-88(%rbp), %rbx
	movq	-72(%rbp), %rax
	testq	%rax, %rax
	je	LBB39_221
	leaq	(%rax,%rax,2), %rax
	leaq	(%rbx,%rax,8), %r14
	movq	(%rbx), %rdi
	testq	%rdi, %rdi
	jne	LBB39_218
	.p2align	4, 0x90
LBB39_216:
	addq	$24, %rbx
	cmpq	%r14, %rbx
	je	LBB39_220
LBB39_217:
	movq	(%rbx), %rdi
	testq	%rdi, %rdi
	je	LBB39_216
LBB39_218:
	movq	8(%rbx), %rsi
	testq	%rsi, %rsi
	je	LBB39_216
	movl	$1, %edx
	vzeroupper
	callq	___rust_dealloc
	addq	$24, %rbx
	cmpq	%r14, %rbx
	jne	LBB39_217
LBB39_220:
	movq	-88(%rbp), %rbx
LBB39_221:
	movq	-80(%rbp), %rax
	testq	%rax, %rax
	je	LBB39_225
	testq	%rbx, %rbx
	je	LBB39_225
	shlq	$3, %rax
	leaq	(%rax,%rax,2), %rsi
	testq	%rsi, %rsi
	je	LBB39_225
	movl	$8, %edx
	movq	%rbx, %rdi
	vzeroupper
	callq	___rust_dealloc
LBB39_225:
	movq	-184(%rbp), %rdi
	testq	%rdi, %rdi
	je	LBB39_228
	movq	-176(%rbp), %rsi
	testq	%rsi, %rsi
	je	LBB39_228
	movl	$1, %edx
	vzeroupper
	callq	___rust_dealloc
LBB39_228:
	movq	-296(%rbp), %rdi
	testq	%rdi, %rdi
	je	LBB39_231
	movq	-288(%rbp), %rsi
	testq	%rsi, %rsi
	je	LBB39_231
	movl	$1, %edx
	vzeroupper
	callq	___rust_dealloc
LBB39_231:
	movq	-344(%rbp), %rdi
	testq	%rdi, %rdi
	je	LBB39_234
	movq	-336(%rbp), %rsi
	testq	%rsi, %rsi
	je	LBB39_234
	movl	$1, %edx
	vzeroupper
	callq	___rust_dealloc
LBB39_234:
	movq	-456(%rbp), %rdi
	testq	%rdi, %rdi
	je	LBB39_237
	movq	-448(%rbp), %rsi
	testq	%rsi, %rsi
	je	LBB39_237
	movl	$1, %edx
	vzeroupper
	callq	___rust_dealloc
LBB39_237:
	movq	-880(%rbp), %rdi
	testq	%rdi, %rdi
	je	LBB39_240
	movq	-872(%rbp), %rsi
	testq	%rsi, %rsi
	je	LBB39_240
	movl	$1, %edx
	vzeroupper
	callq	___rust_dealloc
LBB39_240:
	movq	-856(%rbp), %rdi
	testq	%rdi, %rdi
	je	LBB39_397
	movq	-848(%rbp), %rsi
	testq	%rsi, %rsi
	jne	LBB39_396
	jmp	LBB39_397
LBB39_242:
Ltmp87:
	leaq	-240(%rbp), %rdi
	callq	__ZN7failure9backtrace9Backtrace3new17h672bc240a4ff8c29E
Ltmp88:
	vmovups	-240(%rbp), %ymm0
	vmovups	-224(%rbp), %ymm1
	vmovups	%ymm1, -816(%rbp)
	vmovups	%ymm0, -832(%rbp)
	movl	$64, %edi
	movl	$8, %esi
	vzeroupper
	callq	___rust_alloc
	testq	%rax, %rax
	je	LBB39_404
	vmovups	-832(%rbp), %ymm0
	vmovups	-816(%rbp), %ymm1
	vmovups	%ymm1, 16(%rax)
	vmovups	%ymm0, (%rax)
	leaq	l___unnamed_31(%rip), %rcx
	vmovdqa	LCPI39_6(%rip), %xmm0
	vpinsrq	$0, %rcx, %xmm0, %xmm0
	vmovdqu	%xmm0, 48(%rax)
	movq	%rax, 8(%r13)
	leaq	l___unnamed_30(%rip), %rax
	movq	%rax, 16(%r13)
	movq	$1, (%r13)
	movq	-368(%rbp), %rdi
	testq	%rdi, %rdi
	je	LBB39_247
	movq	-360(%rbp), %rsi
	testq	%rsi, %rsi
	je	LBB39_247
	movl	$1, %edx
	vzeroupper
	callq	___rust_dealloc
LBB39_247:
	vmovdqa	-896(%rbp), %xmm0
	vmovq	%xmm0, %rsi
	testq	%rsi, %rsi
	je	LBB39_249
	movl	$1, %edx
	movq	%r15, %rdi
	vzeroupper
	callq	___rust_dealloc
LBB39_249:
	movq	-112(%rbp), %rbx
	movq	-96(%rbp), %rax
	testq	%rax, %rax
	je	LBB39_256
	leaq	(%rax,%rax,2), %rax
	leaq	(%rbx,%rax,8), %r14
	movq	(%rbx), %rdi
	testq	%rdi, %rdi
	jne	LBB39_253
	.p2align	4, 0x90
LBB39_251:
	addq	$24, %rbx
	cmpq	%r14, %rbx
	je	LBB39_255
LBB39_252:
	movq	(%rbx), %rdi
	testq	%rdi, %rdi
	je	LBB39_251
LBB39_253:
	movq	8(%rbx), %rsi
	testq	%rsi, %rsi
	je	LBB39_251
	movl	$1, %edx
	vzeroupper
	callq	___rust_dealloc
	addq	$24, %rbx
	cmpq	%r14, %rbx
	jne	LBB39_252
LBB39_255:
	movq	-112(%rbp), %rbx
LBB39_256:
	movq	-104(%rbp), %rax
	testq	%rax, %rax
	je	LBB39_260
	testq	%rbx, %rbx
	je	LBB39_260
	shlq	$3, %rax
	leaq	(%rax,%rax,2), %rsi
	testq	%rsi, %rsi
	je	LBB39_260
	movl	$8, %edx
	movq	%rbx, %rdi
	vzeroupper
	callq	___rust_dealloc
LBB39_260:
	movq	-88(%rbp), %rbx
	movq	-72(%rbp), %rax
	testq	%rax, %rax
	je	LBB39_267
	leaq	(%rax,%rax,2), %rax
	leaq	(%rbx,%rax,8), %r14
	movq	(%rbx), %rdi
	testq	%rdi, %rdi
	jne	LBB39_264
	.p2align	4, 0x90
LBB39_262:
	addq	$24, %rbx
	cmpq	%r14, %rbx
	je	LBB39_266
LBB39_263:
	movq	(%rbx), %rdi
	testq	%rdi, %rdi
	je	LBB39_262
LBB39_264:
	movq	8(%rbx), %rsi
	testq	%rsi, %rsi
	je	LBB39_262
	movl	$1, %edx
	vzeroupper
	callq	___rust_dealloc
	addq	$24, %rbx
	cmpq	%r14, %rbx
	jne	LBB39_263
LBB39_266:
	movq	-88(%rbp), %rbx
LBB39_267:
	movq	-80(%rbp), %rax
	testq	%rax, %rax
	je	LBB39_271
	testq	%rbx, %rbx
	je	LBB39_271
	shlq	$3, %rax
	leaq	(%rax,%rax,2), %rsi
	testq	%rsi, %rsi
	je	LBB39_271
	movl	$8, %edx
	movq	%rbx, %rdi
	vzeroupper
	callq	___rust_dealloc
LBB39_271:
	movq	-184(%rbp), %rdi
	testq	%rdi, %rdi
	je	LBB39_274
	movq	-176(%rbp), %rsi
	testq	%rsi, %rsi
	je	LBB39_274
	movl	$1, %edx
	vzeroupper
	callq	___rust_dealloc
LBB39_274:
	movq	-296(%rbp), %rdi
	testq	%rdi, %rdi
	je	LBB39_277
	movq	-288(%rbp), %rsi
	testq	%rsi, %rsi
	je	LBB39_277
	movl	$1, %edx
	vzeroupper
	callq	___rust_dealloc
LBB39_277:
	movq	-344(%rbp), %rdi
	testq	%rdi, %rdi
	je	LBB39_280
	movq	-336(%rbp), %rsi
	testq	%rsi, %rsi
	je	LBB39_280
	movl	$1, %edx
	vzeroupper
	callq	___rust_dealloc
LBB39_280:
	movq	-456(%rbp), %rdi
	testq	%rdi, %rdi
	je	LBB39_397
	movq	-448(%rbp), %rsi
	testq	%rsi, %rsi
	jne	LBB39_396
	jmp	LBB39_397
LBB39_282:
Ltmp84:
	leaq	-240(%rbp), %rdi
	callq	__ZN7failure9backtrace9Backtrace3new17h672bc240a4ff8c29E
Ltmp85:
	vmovups	-240(%rbp), %ymm0
	vmovups	-224(%rbp), %ymm1
	vmovups	%ymm1, -816(%rbp)
	vmovups	%ymm0, -832(%rbp)
	movl	$64, %edi
	movl	$8, %esi
	vzeroupper
	callq	___rust_alloc
	testq	%rax, %rax
	je	LBB39_404
	vmovups	-832(%rbp), %ymm0
	vmovups	-816(%rbp), %ymm1
	vmovups	%ymm1, 16(%rax)
	vmovups	%ymm0, (%rax)
	leaq	l___unnamed_32(%rip), %rcx
	vmovdqa	LCPI39_5(%rip), %xmm0
	vpinsrq	$0, %rcx, %xmm0, %xmm0
	vmovdqu	%xmm0, 48(%rax)
	movq	%rax, 8(%r13)
	leaq	l___unnamed_30(%rip), %rax
	movq	%rax, 16(%r13)
	movq	$1, (%r13)
	vmovdqa	-64(%rbp), %xmm0
	vmovq	%xmm0, %rsi
	testq	%rsi, %rsi
	je	LBB39_286
	movl	$1, %edx
	movq	%r14, %rdi
	vzeroupper
	callq	___rust_dealloc
LBB39_286:
	movq	-368(%rbp), %rdi
	testq	%rdi, %rdi
	je	LBB39_289
	movq	-360(%rbp), %rsi
	testq	%rsi, %rsi
	je	LBB39_289
	movl	$1, %edx
	vzeroupper
	callq	___rust_dealloc
LBB39_289:
	vmovdqa	-896(%rbp), %xmm0
	vmovq	%xmm0, %rsi
	testq	%rsi, %rsi
	je	LBB39_291
	movl	$1, %edx
	movq	%r15, %rdi
	vzeroupper
	callq	___rust_dealloc
LBB39_291:
	movq	-112(%rbp), %rbx
	movq	-96(%rbp), %rax
	testq	%rax, %rax
	je	LBB39_298
	leaq	(%rax,%rax,2), %rax
	leaq	(%rbx,%rax,8), %r14
	movq	(%rbx), %rdi
	testq	%rdi, %rdi
	jne	LBB39_295
	.p2align	4, 0x90
LBB39_293:
	addq	$24, %rbx
	cmpq	%r14, %rbx
	je	LBB39_297
LBB39_294:
	movq	(%rbx), %rdi
	testq	%rdi, %rdi
	je	LBB39_293
LBB39_295:
	movq	8(%rbx), %rsi
	testq	%rsi, %rsi
	je	LBB39_293
	movl	$1, %edx
	vzeroupper
	callq	___rust_dealloc
	addq	$24, %rbx
	cmpq	%r14, %rbx
	jne	LBB39_294
LBB39_297:
	movq	-112(%rbp), %rbx
LBB39_298:
	movq	-104(%rbp), %rax
	testq	%rax, %rax
	je	LBB39_302
	testq	%rbx, %rbx
	je	LBB39_302
	shlq	$3, %rax
	leaq	(%rax,%rax,2), %rsi
	testq	%rsi, %rsi
	je	LBB39_302
	movl	$8, %edx
	movq	%rbx, %rdi
	vzeroupper
	callq	___rust_dealloc
LBB39_302:
	movq	-88(%rbp), %rbx
	movq	-72(%rbp), %rax
	testq	%rax, %rax
	je	LBB39_309
	leaq	(%rax,%rax,2), %rax
	leaq	(%rbx,%rax,8), %r14
	movq	(%rbx), %rdi
	testq	%rdi, %rdi
	jne	LBB39_306
	.p2align	4, 0x90
LBB39_304:
	addq	$24, %rbx
	cmpq	%r14, %rbx
	je	LBB39_308
LBB39_305:
	movq	(%rbx), %rdi
	testq	%rdi, %rdi
	je	LBB39_304
LBB39_306:
	movq	8(%rbx), %rsi
	testq	%rsi, %rsi
	je	LBB39_304
	movl	$1, %edx
	vzeroupper
	callq	___rust_dealloc
	addq	$24, %rbx
	cmpq	%r14, %rbx
	jne	LBB39_305
LBB39_308:
	movq	-88(%rbp), %rbx
LBB39_309:
	movq	-80(%rbp), %rax
	testq	%rax, %rax
	je	LBB39_313
	testq	%rbx, %rbx
	je	LBB39_313
	shlq	$3, %rax
	leaq	(%rax,%rax,2), %rsi
	testq	%rsi, %rsi
	je	LBB39_313
	movl	$8, %edx
	movq	%rbx, %rdi
	vzeroupper
	callq	___rust_dealloc
LBB39_313:
	movq	-184(%rbp), %rdi
	testq	%rdi, %rdi
	je	LBB39_316
	movq	-176(%rbp), %rsi
	testq	%rsi, %rsi
	je	LBB39_316
	movl	$1, %edx
	vzeroupper
	callq	___rust_dealloc
LBB39_316:
	movq	-296(%rbp), %rdi
	testq	%rdi, %rdi
	je	LBB39_319
	movq	-288(%rbp), %rsi
	testq	%rsi, %rsi
	je	LBB39_319
	movl	$1, %edx
	vzeroupper
	callq	___rust_dealloc
LBB39_319:
	movq	-344(%rbp), %rdi
	testq	%rdi, %rdi
	je	LBB39_397
	movq	-336(%rbp), %rsi
	testq	%rsi, %rsi
	jne	LBB39_396
	jmp	LBB39_397
LBB39_321:
Ltmp81:
	leaq	-240(%rbp), %rdi
	callq	__ZN7failure9backtrace9Backtrace3new17h672bc240a4ff8c29E
Ltmp82:
	vmovups	-240(%rbp), %ymm0
	vmovups	-224(%rbp), %ymm1
	vmovups	%ymm1, -816(%rbp)
	vmovups	%ymm0, -832(%rbp)
	movl	$64, %edi
	movl	$8, %esi
	vzeroupper
	callq	___rust_alloc
	testq	%rax, %rax
	je	LBB39_404
	vmovups	-832(%rbp), %ymm0
	vmovups	-816(%rbp), %ymm1
	vmovups	%ymm1, 16(%rax)
	vmovups	%ymm0, (%rax)
	leaq	l___unnamed_33(%rip), %rcx
	vmovdqa	LCPI39_4(%rip), %xmm0
	vpinsrq	$0, %rcx, %xmm0, %xmm0
	vmovdqu	%xmm0, 48(%rax)
	movq	%rax, 8(%r13)
	leaq	l___unnamed_30(%rip), %rax
	movq	%rax, 16(%r13)
	movq	$1, (%r13)
	vmovdqa	-992(%rbp), %xmm0
	vmovq	%xmm0, %rsi
	testq	%rsi, %rsi
	je	LBB39_325
	movl	$1, %edx
	movq	%r12, %rdi
	vzeroupper
	callq	___rust_dealloc
LBB39_325:
	vmovdqa	-64(%rbp), %xmm0
	vmovq	%xmm0, %rsi
	testq	%rsi, %rsi
	je	LBB39_327
	movl	$1, %edx
	movq	%r14, %rdi
	vzeroupper
	callq	___rust_dealloc
LBB39_327:
	movq	-368(%rbp), %rdi
	testq	%rdi, %rdi
	je	LBB39_330
	movq	-360(%rbp), %rsi
	testq	%rsi, %rsi
	je	LBB39_330
	movl	$1, %edx
	vzeroupper
	callq	___rust_dealloc
LBB39_330:
	vmovdqa	-896(%rbp), %xmm0
	vmovq	%xmm0, %rsi
	testq	%rsi, %rsi
	je	LBB39_332
	movl	$1, %edx
	movq	%r15, %rdi
	vzeroupper
	callq	___rust_dealloc
LBB39_332:
	movq	-112(%rbp), %rbx
	movq	-96(%rbp), %rax
	testq	%rax, %rax
	je	LBB39_339
	leaq	(%rax,%rax,2), %rax
	leaq	(%rbx,%rax,8), %r14
	movq	(%rbx), %rdi
	testq	%rdi, %rdi
	jne	LBB39_336
	.p2align	4, 0x90
LBB39_334:
	addq	$24, %rbx
	cmpq	%r14, %rbx
	je	LBB39_338
LBB39_335:
	movq	(%rbx), %rdi
	testq	%rdi, %rdi
	je	LBB39_334
LBB39_336:
	movq	8(%rbx), %rsi
	testq	%rsi, %rsi
	je	LBB39_334
	movl	$1, %edx
	vzeroupper
	callq	___rust_dealloc
	addq	$24, %rbx
	cmpq	%r14, %rbx
	jne	LBB39_335
LBB39_338:
	movq	-112(%rbp), %rbx
LBB39_339:
	movq	-104(%rbp), %rax
	testq	%rax, %rax
	je	LBB39_343
	testq	%rbx, %rbx
	je	LBB39_343
	shlq	$3, %rax
	leaq	(%rax,%rax,2), %rsi
	testq	%rsi, %rsi
	je	LBB39_343
	movl	$8, %edx
	movq	%rbx, %rdi
	vzeroupper
	callq	___rust_dealloc
LBB39_343:
	movq	-88(%rbp), %rbx
	movq	-72(%rbp), %rax
	testq	%rax, %rax
	je	LBB39_350
	leaq	(%rax,%rax,2), %rax
	leaq	(%rbx,%rax,8), %r14
	movq	(%rbx), %rdi
	testq	%rdi, %rdi
	jne	LBB39_347
	.p2align	4, 0x90
LBB39_345:
	addq	$24, %rbx
	cmpq	%r14, %rbx
	je	LBB39_349
LBB39_346:
	movq	(%rbx), %rdi
	testq	%rdi, %rdi
	je	LBB39_345
LBB39_347:
	movq	8(%rbx), %rsi
	testq	%rsi, %rsi
	je	LBB39_345
	movl	$1, %edx
	vzeroupper
	callq	___rust_dealloc
	addq	$24, %rbx
	cmpq	%r14, %rbx
	jne	LBB39_346
LBB39_349:
	movq	-88(%rbp), %rbx
LBB39_350:
	movq	-80(%rbp), %rax
	testq	%rax, %rax
	je	LBB39_354
	testq	%rbx, %rbx
	je	LBB39_354
	shlq	$3, %rax
	leaq	(%rax,%rax,2), %rsi
	testq	%rsi, %rsi
	je	LBB39_354
	movl	$8, %edx
	movq	%rbx, %rdi
	vzeroupper
	callq	___rust_dealloc
LBB39_354:
	movq	-184(%rbp), %rdi
	testq	%rdi, %rdi
	je	LBB39_357
	movq	-176(%rbp), %rsi
	testq	%rsi, %rsi
	je	LBB39_357
	movl	$1, %edx
	vzeroupper
	callq	___rust_dealloc
LBB39_357:
	movq	-296(%rbp), %rdi
	testq	%rdi, %rdi
	je	LBB39_397
	movq	-288(%rbp), %rsi
	testq	%rsi, %rsi
	jne	LBB39_396
	jmp	LBB39_397
LBB39_359:
Ltmp78:
	vmovdqa	%xmm0, -1008(%rbp)
	leaq	-240(%rbp), %rdi
	callq	__ZN7failure9backtrace9Backtrace3new17h672bc240a4ff8c29E
Ltmp79:
	vmovups	-240(%rbp), %ymm0
	vmovups	-224(%rbp), %ymm1
	vmovups	%ymm1, -816(%rbp)
	vmovups	%ymm0, -832(%rbp)
	movl	$64, %edi
	movl	$8, %esi
	vzeroupper
	callq	___rust_alloc
	testq	%rax, %rax
	je	LBB39_404
	vmovups	-832(%rbp), %ymm0
	vmovups	-816(%rbp), %ymm1
	vmovups	%ymm1, 16(%rax)
	vmovups	%ymm0, (%rax)
	leaq	l___unnamed_34(%rip), %rcx
	vmovdqa	LCPI39_3(%rip), %xmm0
	vpinsrq	$0, %rcx, %xmm0, %xmm0
	vmovdqu	%xmm0, 48(%rax)
	movq	%rax, 8(%r13)
	leaq	l___unnamed_30(%rip), %rax
	movq	%rax, 16(%r13)
	movq	$1, (%r13)
	vmovdqa	-1008(%rbp), %xmm0
	vmovq	%xmm0, %rsi
	testq	%rsi, %rsi
	je	LBB39_363
	movl	$1, %edx
	movq	%rbx, %rdi
	vzeroupper
	callq	___rust_dealloc
LBB39_363:
	vmovdqa	-992(%rbp), %xmm0
	vmovq	%xmm0, %rsi
	testq	%rsi, %rsi
	je	LBB39_365
	movl	$1, %edx
	movq	%r12, %rdi
	vzeroupper
	callq	___rust_dealloc
LBB39_365:
	vmovdqa	-64(%rbp), %xmm0
	vmovq	%xmm0, %rsi
	testq	%rsi, %rsi
	je	LBB39_367
	movl	$1, %edx
	movq	%r14, %rdi
	vzeroupper
	callq	___rust_dealloc
LBB39_367:
	movq	-368(%rbp), %rdi
	testq	%rdi, %rdi
	je	LBB39_370
	movq	-360(%rbp), %rsi
	testq	%rsi, %rsi
	je	LBB39_370
	movl	$1, %edx
	vzeroupper
	callq	___rust_dealloc
LBB39_370:
	vmovdqa	-896(%rbp), %xmm0
	vmovq	%xmm0, %rsi
	testq	%rsi, %rsi
	je	LBB39_372
	movl	$1, %edx
	movq	%r15, %rdi
	vzeroupper
	callq	___rust_dealloc
LBB39_372:
	movq	-112(%rbp), %rbx
	movq	-96(%rbp), %rax
	testq	%rax, %rax
	je	LBB39_379
	leaq	(%rax,%rax,2), %rax
	leaq	(%rbx,%rax,8), %r14
	movq	(%rbx), %rdi
	testq	%rdi, %rdi
	jne	LBB39_376
LBB39_374:
	addq	$24, %rbx
	cmpq	%r14, %rbx
	je	LBB39_378
LBB39_375:
	movq	(%rbx), %rdi
	testq	%rdi, %rdi
	je	LBB39_374
LBB39_376:
	movq	8(%rbx), %rsi
	testq	%rsi, %rsi
	je	LBB39_374
	movl	$1, %edx
	vzeroupper
	callq	___rust_dealloc
	addq	$24, %rbx
	cmpq	%r14, %rbx
	jne	LBB39_375
LBB39_378:
	movq	-112(%rbp), %rbx
LBB39_379:
	movq	-104(%rbp), %rax
	testq	%rax, %rax
	je	LBB39_383
	testq	%rbx, %rbx
	je	LBB39_383
	shlq	$3, %rax
	leaq	(%rax,%rax,2), %rsi
	testq	%rsi, %rsi
	je	LBB39_383
	movl	$8, %edx
	movq	%rbx, %rdi
	vzeroupper
	callq	___rust_dealloc
LBB39_383:
	movq	-88(%rbp), %rbx
	movq	-72(%rbp), %rax
	testq	%rax, %rax
	je	LBB39_390
	leaq	(%rax,%rax,2), %rax
	leaq	(%rbx,%rax,8), %r14
	movq	(%rbx), %rdi
	testq	%rdi, %rdi
	jne	LBB39_387
LBB39_385:
	addq	$24, %rbx
	cmpq	%r14, %rbx
	je	LBB39_389
LBB39_386:
	movq	(%rbx), %rdi
	testq	%rdi, %rdi
	je	LBB39_385
LBB39_387:
	movq	8(%rbx), %rsi
	testq	%rsi, %rsi
	je	LBB39_385
	movl	$1, %edx
	vzeroupper
	callq	___rust_dealloc
	addq	$24, %rbx
	cmpq	%r14, %rbx
	jne	LBB39_386
LBB39_389:
	movq	-88(%rbp), %rbx
LBB39_390:
	movq	-80(%rbp), %rax
	testq	%rax, %rax
	je	LBB39_394
	testq	%rbx, %rbx
	je	LBB39_394
	shlq	$3, %rax
	leaq	(%rax,%rax,2), %rsi
	testq	%rsi, %rsi
	je	LBB39_394
	movl	$8, %edx
	movq	%rbx, %rdi
	vzeroupper
	callq	___rust_dealloc
LBB39_394:
	movq	-184(%rbp), %rdi
	testq	%rdi, %rdi
	je	LBB39_397
	movq	-176(%rbp), %rsi
	testq	%rsi, %rsi
	je	LBB39_397
LBB39_396:
	movl	$1, %edx
	vzeroupper
	callq	___rust_dealloc
LBB39_397:
	movq	-272(%rbp), %rdi
	testq	%rdi, %rdi
	je	LBB39_400
LBB39_398:
	movq	-264(%rbp), %rsi
	testq	%rsi, %rsi
	je	LBB39_400
	movl	$1, %edx
	vzeroupper
	callq	___rust_dealloc
LBB39_400:
	movq	-408(%rbp), %rdi
	testq	%rdi, %rdi
	jne	LBB39_401
	jmp	LBB39_403
LBB39_404:
	movl	$64, %edi
	movl	$8, %esi
	callq	__ZN5alloc5alloc18handle_alloc_error17hbc0ab0ed90816c07E
LBB39_405:
	movl	$1, %esi
	movq	%r14, %rdi
	callq	__ZN5alloc7raw_vec19RawVec$LT$T$C$A$GT$11allocate_in28_$u7b$$u7b$closure$u7d$$u7d$17h18b49479e4f13924E
LBB39_406:
	movl	$1, %esi
	movq	%r12, %rdi
	callq	__ZN5alloc5alloc18handle_alloc_error17hbc0ab0ed90816c07E
LBB39_407:
	movl	$88, %edi
	movl	$8, %esi
	callq	__ZN5alloc5alloc18handle_alloc_error17hbc0ab0ed90816c07E
LBB39_408:
	movl	$1, %esi
	movq	%rbx, %rdi
	callq	__ZN5alloc7raw_vec19RawVec$LT$T$C$A$GT$11allocate_in28_$u7b$$u7b$closure$u7d$$u7d$17h18b49479e4f13924E
LBB39_409:
	movl	$72, %edi
	movl	$8, %esi
	callq	__ZN5alloc5alloc18handle_alloc_error17hbc0ab0ed90816c07E
LBB39_410:
Ltmp80:
	movq	%rax, %r14
	leaq	-160(%rbp), %rdi
	callq	__ZN4core3ptr13drop_in_place17h5f8a1a3cf5660defE
	leaq	-320(%rbp), %rdi
	callq	__ZN4core3ptr13drop_in_place17h5f8a1a3cf5660defE
	leaq	-976(%rbp), %rdi
	callq	__ZN4core3ptr13drop_in_place17h5f8a1a3cf5660defE
	leaq	-368(%rbp), %rdi
	callq	__ZN4core3ptr13drop_in_place17hec18930be61e1059E
	leaq	-952(%rbp), %rdi
	callq	__ZN4core3ptr13drop_in_place17h5f8a1a3cf5660defE
	leaq	-112(%rbp), %rdi
	callq	__ZN4core3ptr13drop_in_place17h9526e38b7e9f3cf9E
	leaq	-88(%rbp), %rdi
	callq	__ZN4core3ptr13drop_in_place17h9526e38b7e9f3cf9E
	leaq	-184(%rbp), %rdi
	jmp	LBB39_435
LBB39_411:
Ltmp83:
	movq	%rax, %r14
	leaq	-320(%rbp), %rdi
	callq	__ZN4core3ptr13drop_in_place17h5f8a1a3cf5660defE
	leaq	-976(%rbp), %rdi
	callq	__ZN4core3ptr13drop_in_place17h5f8a1a3cf5660defE
	leaq	-368(%rbp), %rdi
	callq	__ZN4core3ptr13drop_in_place17hec18930be61e1059E
	leaq	-952(%rbp), %rdi
	callq	__ZN4core3ptr13drop_in_place17h5f8a1a3cf5660defE
	leaq	-112(%rbp), %rdi
	callq	__ZN4core3ptr13drop_in_place17h9526e38b7e9f3cf9E
	leaq	-88(%rbp), %rdi
	callq	__ZN4core3ptr13drop_in_place17h9526e38b7e9f3cf9E
	leaq	-184(%rbp), %rdi
	callq	__ZN4core3ptr13drop_in_place17hec18930be61e1059E
	leaq	-296(%rbp), %rdi
	jmp	LBB39_435
LBB39_412:
Ltmp86:
	movq	%rax, %r14
	leaq	-976(%rbp), %rdi
	callq	__ZN4core3ptr13drop_in_place17h5f8a1a3cf5660defE
	leaq	-368(%rbp), %rdi
	callq	__ZN4core3ptr13drop_in_place17hec18930be61e1059E
	leaq	-952(%rbp), %rdi
	callq	__ZN4core3ptr13drop_in_place17h5f8a1a3cf5660defE
	leaq	-112(%rbp), %rdi
	callq	__ZN4core3ptr13drop_in_place17h9526e38b7e9f3cf9E
	leaq	-88(%rbp), %rdi
	callq	__ZN4core3ptr13drop_in_place17h9526e38b7e9f3cf9E
	leaq	-184(%rbp), %rdi
	callq	__ZN4core3ptr13drop_in_place17hec18930be61e1059E
	leaq	-296(%rbp), %rdi
	callq	__ZN4core3ptr13drop_in_place17hec18930be61e1059E
	leaq	-344(%rbp), %rdi
	jmp	LBB39_435
LBB39_413:
Ltmp89:
	movq	%rax, %r14
	leaq	-368(%rbp), %rdi
	callq	__ZN4core3ptr13drop_in_place17hec18930be61e1059E
	leaq	-952(%rbp), %rdi
	callq	__ZN4core3ptr13drop_in_place17h5f8a1a3cf5660defE
	leaq	-112(%rbp), %rdi
	callq	__ZN4core3ptr13drop_in_place17h9526e38b7e9f3cf9E
	leaq	-88(%rbp), %rdi
	callq	__ZN4core3ptr13drop_in_place17h9526e38b7e9f3cf9E
	leaq	-184(%rbp), %rdi
	callq	__ZN4core3ptr13drop_in_place17hec18930be61e1059E
	leaq	-296(%rbp), %rdi
	callq	__ZN4core3ptr13drop_in_place17hec18930be61e1059E
	leaq	-344(%rbp), %rdi
	callq	__ZN4core3ptr13drop_in_place17hec18930be61e1059E
	leaq	-456(%rbp), %rdi
	jmp	LBB39_435
LBB39_414:
Ltmp92:
	movq	%rax, %r14
	xorl	%ebx, %ebx
	jmp	LBB39_433
LBB39_415:
Ltmp60:
	jmp	LBB39_417
LBB39_416:
Ltmp63:
LBB39_417:
	movq	%rax, %r14
	leaq	-240(%rbp), %rdi
	callq	__ZN4core3ptr13drop_in_place17h1d4e410c7f2d0673E
	jmp	LBB39_420
LBB39_418:
Ltmp95:
	movq	%rax, %r14
	leaq	-240(%rbp), %rdi
	callq	__ZN4core3ptr13drop_in_place17h1d4e410c7f2d0673E
	jmp	LBB39_438
LBB39_419:
Ltmp57:
	movq	%rax, %r14
	leaq	-160(%rbp), %rdi
	callq	__ZN4core3ptr13drop_in_place17h5f8a1a3cf5660defE
LBB39_420:
	leaq	-432(%rbp), %rdi
	callq	__ZN4core3ptr13drop_in_place17h5f8a1a3cf5660defE
	movq	%r14, %rdi
	callq	__Unwind_Resume
	ud2
LBB39_421:
Ltmp66:
	movq	%rax, %r14
	leaq	-320(%rbp), %rdi
	jmp	LBB39_437
LBB39_422:
Ltmp54:
	movq	%rax, %r14
	jmp	LBB39_424
LBB39_423:
Ltmp51:
	movq	%rax, %r14
	leaq	-160(%rbp), %rdi
	callq	__ZN4core3ptr13drop_in_place17h81d0a7ff47d49cc8E
LBB39_424:
	leaq	-432(%rbp), %rdi
	jmp	LBB39_437
LBB39_425:
Ltmp98:
	movq	%rax, %r14
Ltmp99:
	leaq	-320(%rbp), %rdi
	callq	__ZN4core3ptr13drop_in_place17h427f1c817e3c737fE
Ltmp100:
	jmp	LBB39_430
LBB39_426:
Ltmp101:
	jmp	LBB39_429
LBB39_427:
Ltmp104:
	movq	%rax, %r14
	jmp	LBB39_431
LBB39_428:
Ltmp48:
LBB39_429:
	movq	%rax, %r14
LBB39_430:
	leaq	-832(%rbp), %rdi
	callq	__ZN4core3ptr13drop_in_place17hef427ccbc510ae20E
LBB39_431:
	leaq	-160(%rbp), %rdi
	callq	__ZN4core3ptr13drop_in_place17h81d0a7ff47d49cc8E
	movq	%r14, %rdi
	callq	__Unwind_Resume
	ud2
LBB39_432:
Ltmp77:
	movq	%rax, %r14
	movb	$1, %bl
LBB39_433:
	leaq	-112(%rbp), %rdi
	callq	__ZN4core3ptr13drop_in_place17h9526e38b7e9f3cf9E
	leaq	-88(%rbp), %rdi
	callq	__ZN4core3ptr13drop_in_place17h9526e38b7e9f3cf9E
	leaq	-184(%rbp), %rdi
	callq	__ZN4core3ptr13drop_in_place17hec18930be61e1059E
	leaq	-296(%rbp), %rdi
	callq	__ZN4core3ptr13drop_in_place17hec18930be61e1059E
	leaq	-344(%rbp), %rdi
	callq	__ZN4core3ptr13drop_in_place17hec18930be61e1059E
	leaq	-456(%rbp), %rdi
	callq	__ZN4core3ptr13drop_in_place17hec18930be61e1059E
	leaq	-880(%rbp), %rdi
	callq	__ZN4core3ptr13drop_in_place17hec18930be61e1059E
	leaq	-856(%rbp), %rdi
	callq	__ZN4core3ptr13drop_in_place17hec18930be61e1059E
	testb	%bl, %bl
	je	LBB39_436
	leaq	-928(%rbp), %rdi
LBB39_435:
	callq	__ZN4core3ptr13drop_in_place17hec18930be61e1059E
LBB39_436:
	leaq	-272(%rbp), %rdi
LBB39_437:
	callq	__ZN4core3ptr13drop_in_place17h5f8a1a3cf5660defE
LBB39_438:
	leaq	-408(%rbp), %rdi
	callq	__ZN4core3ptr13drop_in_place17h5f8a1a3cf5660defE
	movq	%r14, %rdi
	callq	__Unwind_Resume
	ud2
Lfunc_end5:
	.cfi_endproc
	.p2align	2, 0x90
	.data_region jt32
.set L39_0_set_44, LBB39_44-LJTI39_0
.set L39_0_set_68, LBB39_68-LJTI39_0
.set L39_0_set_54, LBB39_54-LJTI39_0
.set L39_0_set_33, LBB39_33-LJTI39_0
.set L39_0_set_59, LBB39_59-LJTI39_0
.set L39_0_set_49, LBB39_49-LJTI39_0
.set L39_0_set_73, LBB39_73-LJTI39_0
.set L39_0_set_78, LBB39_78-LJTI39_0
LJTI39_0:
	.long	L39_0_set_44
	.long	L39_0_set_68
	.long	L39_0_set_54
	.long	L39_0_set_33
	.long	L39_0_set_59
	.long	L39_0_set_49
	.long	L39_0_set_33
	.long	L39_0_set_33
	.long	L39_0_set_73
	.long	L39_0_set_33
	.long	L39_0_set_33
	.long	L39_0_set_78
	.end_data_region
	.section	__TEXT,__gcc_except_tab
	.p2align	2
GCC_except_table39:
Lexception5:
	.byte	255
	.byte	255
	.byte	1
	.uleb128 Lcst_end5-Lcst_begin5
Lcst_begin5:
	.uleb128 Lfunc_begin5-Lfunc_begin5
	.uleb128 Ltmp32-Lfunc_begin5
	.byte	0
	.byte	0
	.uleb128 Ltmp32-Lfunc_begin5
	.uleb128 Ltmp33-Ltmp32
	.uleb128 Ltmp104-Lfunc_begin5
	.byte	0
	.uleb128 Ltmp34-Lfunc_begin5
	.uleb128 Ltmp47-Ltmp34
	.uleb128 Ltmp48-Lfunc_begin5
	.byte	0
	.uleb128 Ltmp96-Lfunc_begin5
	.uleb128 Ltmp97-Ltmp96
	.uleb128 Ltmp98-Lfunc_begin5
	.byte	0
	.uleb128 Ltmp102-Lfunc_begin5
	.uleb128 Ltmp103-Ltmp102
	.uleb128 Ltmp104-Lfunc_begin5
	.byte	0
	.uleb128 Ltmp49-Lfunc_begin5
	.uleb128 Ltmp50-Ltmp49
	.uleb128 Ltmp51-Lfunc_begin5
	.byte	0
	.uleb128 Ltmp52-Lfunc_begin5
	.uleb128 Ltmp53-Ltmp52
	.uleb128 Ltmp54-Lfunc_begin5
	.byte	0
	.uleb128 Ltmp64-Lfunc_begin5
	.uleb128 Ltmp65-Ltmp64
	.uleb128 Ltmp66-Lfunc_begin5
	.byte	0
	.uleb128 Ltmp93-Lfunc_begin5
	.uleb128 Ltmp94-Ltmp93
	.uleb128 Ltmp95-Lfunc_begin5
	.byte	0
	.uleb128 Ltmp55-Lfunc_begin5
	.uleb128 Ltmp56-Ltmp55
	.uleb128 Ltmp57-Lfunc_begin5
	.byte	0
	.uleb128 Ltmp61-Lfunc_begin5
	.uleb128 Ltmp62-Ltmp61
	.uleb128 Ltmp63-Lfunc_begin5
	.byte	0
	.uleb128 Ltmp67-Lfunc_begin5
	.uleb128 Ltmp72-Ltmp67
	.uleb128 Ltmp77-Lfunc_begin5
	.byte	0
	.uleb128 Ltmp72-Lfunc_begin5
	.uleb128 Ltmp73-Ltmp72
	.byte	0
	.byte	0
	.uleb128 Ltmp73-Lfunc_begin5
	.uleb128 Ltmp74-Ltmp73
	.uleb128 Ltmp77-Lfunc_begin5
	.byte	0
	.uleb128 Ltmp74-Lfunc_begin5
	.uleb128 Ltmp75-Ltmp74
	.byte	0
	.byte	0
	.uleb128 Ltmp75-Lfunc_begin5
	.uleb128 Ltmp76-Ltmp75
	.uleb128 Ltmp77-Lfunc_begin5
	.byte	0
	.uleb128 Ltmp76-Lfunc_begin5
	.uleb128 Ltmp58-Ltmp76
	.byte	0
	.byte	0
	.uleb128 Ltmp58-Lfunc_begin5
	.uleb128 Ltmp59-Ltmp58
	.uleb128 Ltmp60-Lfunc_begin5
	.byte	0
	.uleb128 Ltmp90-Lfunc_begin5
	.uleb128 Ltmp91-Ltmp90
	.uleb128 Ltmp92-Lfunc_begin5
	.byte	0
	.uleb128 Ltmp87-Lfunc_begin5
	.uleb128 Ltmp88-Ltmp87
	.uleb128 Ltmp89-Lfunc_begin5
	.byte	0
	.uleb128 Ltmp84-Lfunc_begin5
	.uleb128 Ltmp85-Ltmp84
	.uleb128 Ltmp86-Lfunc_begin5
	.byte	0
	.uleb128 Ltmp81-Lfunc_begin5
	.uleb128 Ltmp82-Ltmp81
	.uleb128 Ltmp83-Lfunc_begin5
	.byte	0
	.uleb128 Ltmp78-Lfunc_begin5
	.uleb128 Ltmp79-Ltmp78
	.uleb128 Ltmp80-Lfunc_begin5
	.byte	0
	.uleb128 Ltmp79-Lfunc_begin5
	.uleb128 Ltmp99-Ltmp79
	.byte	0
	.byte	0
	.uleb128 Ltmp99-Lfunc_begin5
	.uleb128 Ltmp100-Ltmp99
	.uleb128 Ltmp101-Lfunc_begin5
	.byte	0
	.uleb128 Ltmp100-Lfunc_begin5
	.uleb128 Lfunc_end5-Ltmp100
	.byte	0
	.byte	0
Lcst_end5:
	.p2align	2

	.section	__TEXT,__const
l___unnamed_35:
	.ascii	"/rustc/a74d1862d4d87a56244958416fd05976c58ca1a8/src/liballoc/collections/btree/map.rs"

	.section	__DATA,__const
	.p2align	3
l___unnamed_2:
	.quad	l___unnamed_35
	.asciz	"U\000\000\000\000\000\000\000C\006\000\000\033\000\000"

	.section	__TEXT,__const
l___unnamed_36:
	.ascii	"/rustc/a74d1862d4d87a56244958416fd05976c58ca1a8/src/libcore/macros/mod.rs"

	.section	__DATA,__const
	.p2align	3
l___unnamed_5:
	.quad	l___unnamed_36
	.asciz	"I\000\000\000\000\000\000\000\020\000\000\000\t\000\000"

	.section	__TEXT,__const
l___unnamed_1:
	.ascii	"called `Option::unwrap()` on a `None` value"

l___unnamed_37:
	.ascii	"internal error: entered unreachable code: "

	.section	__DATA,__const
	.p2align	3
l___unnamed_4:
	.quad	l___unnamed_37
	.asciz	"*\000\000\000\000\000\000"

	.section	__TEXT,__const
l___unnamed_38:
	.ascii	"BTreeMap has different depths"

	.section	__DATA,__const
	.p2align	3
l___unnamed_3:
	.quad	l___unnamed_38
	.asciz	"\035\000\000\000\000\000\000"

	.section	__TEXT,__const
l___unnamed_7:
	.ascii	"failure::ErrorMessage"

l___unnamed_39:
	.ascii	"/rustc/a74d1862d4d87a56244958416fd05976c58ca1a8/src/libcore/str/pattern.rs"

	.section	__DATA,__const
	.p2align	3
l___unnamed_6:
	.quad	l___unnamed_39
	.asciz	"J\000\000\000\000\000\000\000\213\001\000\000&\000\000"

	.section	__TEXT,__const
l___unnamed_8:
	.ascii	"ErrorMessage"

l___unnamed_9:
	.ascii	"msg"

	.section	__DATA,__const
	.p2align	3
l___unnamed_10:
	.quad	__ZN4core3ptr13drop_in_place17h8c0a0ebe4f7760e0E
	.quad	8
	.quad	8
	.quad	__ZN42_$LT$$RF$T$u20$as$u20$core..fmt..Debug$GT$3fmt17h5c32bd819fa1359aE

	.p2align	3
l___unnamed_11:
	.quad	__ZN4core3ptr13drop_in_place17h8c0a0ebe4f7760e0E
	.quad	8
	.quad	8
	.quad	__ZN42_$LT$$RF$T$u20$as$u20$core..fmt..Debug$GT$3fmt17hc92e59e45319ee45E

	.p2align	3
l___unnamed_30:
	.quad	__ZN4core3ptr13drop_in_place17h8c0a0ebe4f7760e0E
	.quad	16
	.quad	8
	.quad	__ZN79_$LT$failure..error_message..ErrorMessage$LT$D$GT$$u20$as$u20$failure..Fail$GT$4name17h423b466ea3dd62f2E
	.quad	__ZN7failure4Fail4name17hd13d20e9bf962ae7E
	.quad	__ZN7failure4Fail9backtrace17h6cb7fc8d0061e933E
	.quad	0
	.quad	0
	.quad	0
	.quad	0
	.quad	__ZN7failure4Fail23__private_get_type_id__17h0d66f24cb93b7077E
	.quad	__ZN84_$LT$failure..error_message..ErrorMessage$LT$D$GT$$u20$as$u20$core..fmt..Display$GT$3fmt17h94a9016a527ca927E
	.quad	__ZN82_$LT$failure..error_message..ErrorMessage$LT$D$GT$$u20$as$u20$core..fmt..Debug$GT$3fmt17hf74acba8d5663cc4E

	.p2align	3
l___unnamed_17:
	.quad	__ZN4core3ptr13drop_in_place17h427f1c817e3c737fE
	.quad	16
	.quad	8
	.quad	__ZN7failure4Fail4name17hd13d20e9bf962ae7E
	.quad	__ZN7failure4Fail4name17hd13d20e9bf962ae7E
	.quad	__ZN7failure4Fail9backtrace17h6cb7fc8d0061e933E
	.quad	0
	.quad	0
	.quad	0
	.quad	0
	.quad	__ZN7failure4Fail23__private_get_type_id__17hff69b4c18696c39fE
	.quad	__ZN60_$LT$std..io..error..Error$u20$as$u20$core..fmt..Display$GT$3fmt17hd5a23906ccc4fffdE
	.quad	__ZN58_$LT$std..io..error..Error$u20$as$u20$core..fmt..Debug$GT$3fmt17h3350f3f53e0cee4cE

	.p2align	3
l___unnamed_28:
	.quad	__ZN4core3ptr13drop_in_place17h1d4e410c7f2d0673E
	.quad	24
	.quad	8
	.quad	__ZN79_$LT$failure..error_message..ErrorMessage$LT$D$GT$$u20$as$u20$failure..Fail$GT$4name17h602cb213a3868e5fE
	.quad	__ZN7failure4Fail5cause17hdb4c9b0235d56464E
	.quad	__ZN7failure4Fail9backtrace17h03fc1ae6b1db769aE
	.quad	0
	.quad	0
	.quad	0
	.quad	0
	.quad	__ZN7failure4Fail23__private_get_type_id__17h6962649a414b25acE
	.quad	__ZN84_$LT$failure..error_message..ErrorMessage$LT$D$GT$$u20$as$u20$core..fmt..Display$GT$3fmt17hc2cf3f18c0e2e867E
	.quad	__ZN82_$LT$failure..error_message..ErrorMessage$LT$D$GT$$u20$as$u20$core..fmt..Debug$GT$3fmt17h690d6210609d8056E

	.p2align	3
l___unnamed_18:
	.quad	__ZN4core3ptr13drop_in_place17h1d4e410c7f2d0673E
	.quad	40
	.quad	8
	.quad	__ZN7failure4Fail4name17h5642cb53eb92d817E
	.quad	__ZN7failure4Fail4name17h5642cb53eb92d817E
	.quad	__ZN7failure4Fail9backtrace17hc5cc8c3187a127acE
	.quad	0
	.quad	0
	.quad	0
	.quad	0
	.quad	__ZN7failure4Fail23__private_get_type_id__17h2b97aa509ca2d949E
	.quad	__ZN67_$LT$alloc..string..FromUtf8Error$u20$as$u20$core..fmt..Display$GT$3fmt17hade50f07e52461e7E
	.quad	__ZN65_$LT$alloc..string..FromUtf8Error$u20$as$u20$core..fmt..Debug$GT$3fmt17h13c569f9c897d60fE

	.section	__TEXT,__const
l___unnamed_12:
	.ascii	"RUSTC"

l___unnamed_13:
	.ascii	"rustc"

	.section	__TEXT,__literal8,8byte_literals
L___unnamed_14:
	.ascii	"--target"

	.section	__TEXT,__const
l___unnamed_15:
	.ascii	"--print"

l___unnamed_16:
	.ascii	"cfg"

l___unnamed_19:
	.ascii	"target_os"

l___unnamed_22:
	.ascii	"target_family"

l___unnamed_21:
	.ascii	"target_arch"

l___unnamed_23:
	.ascii	"target_endian"

l___unnamed_27:
	.ascii	"target_pointer_width"

l___unnamed_25:
	.ascii	"target_env"

l___unnamed_24:
	.ascii	"target_vendor"

l___unnamed_26:
	.ascii	"target_has_atomic"

l___unnamed_20:
	.ascii	"target_feature"

l___unnamed_29:
	.ascii	"`target_os` is missing"

l___unnamed_31:
	.ascii	"`target_arch` is missing"

l___unnamed_32:
	.ascii	"`target_endian` is missing"

l___unnamed_33:
	.ascii	"`target_pointer_width` is missing"

l___unnamed_34:
	.ascii	"`target_env` is missing"


.subsections_via_symbols
