	.section	__TEXT,__text,regular,pure_instructions
	.macosx_version_min 10, 7
	.p2align	4, 0x90
__ZN105_$LT$core..iter..sources..Empty$LT$T$GT$$u20$as$u20$core..iter..traits..exact_size..ExactSizeIterator$GT$3len17hd805728c30f498e9E:
	.cfi_startproc
	pushq	%rbp
	.cfi_def_cfa_offset 16
	.cfi_offset %rbp, -16
	movq	%rsp, %rbp
	.cfi_def_cfa_register %rbp
	xorl	%eax, %eax
	popq	%rbp
	retq
	.cfi_endproc

	.p2align	4, 0x90
__ZN109_$LT$core..iter..sources..Empty$LT$T$GT$$u20$as$u20$core..iter..traits..double_ended..DoubleEndedIterator$GT$9next_back17h2d84e37a2c60c7b7E:
	.cfi_startproc
	pushq	%rbp
	.cfi_def_cfa_offset 16
	.cfi_offset %rbp, -16
	movq	%rsp, %rbp
	.cfi_def_cfa_register %rbp
	xorl	%eax, %eax
	popq	%rbp
	retq
	.cfi_endproc

	.p2align	4, 0x90
__ZN110_$LT$proc_macro2..TokenStream$u20$as$u20$core..iter..traits..collect..Extend$LT$proc_macro2..TokenTree$GT$$GT$6extend17h97b371d563d73569E:
Lfunc_begin0:
	.cfi_startproc
	.cfi_personality 155, _rust_eh_personality
	.cfi_lsda 16, Lexception0
	pushq	%rbp
	.cfi_def_cfa_offset 16
	.cfi_offset %rbp, -16
	movq	%rsp, %rbp
	.cfi_def_cfa_register %rbp
	pushq	%r15
	pushq	%r14
	pushq	%r13
	pushq	%r12
	pushq	%rbx
	andq	$-32, %rsp
	subq	$320, %rsp
	.cfi_offset %rbx, -56
	.cfi_offset %r12, -48
	.cfi_offset %r13, -40
	.cfi_offset %r14, -32
	.cfi_offset %r15, -24
	vmovups	16(%rsi), %ymm0
	vmovups	%ymm0, 176(%rsp)
	vmovups	(%rsi), %ymm0
	vmovaps	%ymm0, 160(%rsp)
	leaq	8(%rdi), %rbx
	cmpq	$1, (%rdi)
	jne	LBB2_6
	vmovups	176(%rsp), %ymm0
	vmovups	%ymm0, 16(%rsp)
	vmovaps	160(%rsp), %ymm0
	vmovaps	%ymm0, (%rsp)
	movl	$4, 64(%rsp)
	vmovaps	(%rsp), %ymm0
	movl	64(%rsp), %eax
	vmovups	68(%rsp), %xmm1
	movq	84(%rsp), %rcx
	movl	92(%rsp), %edx
	movl	(%rsp), %esi
	movl	%eax, (%rsp)
	vmovups	%xmm1, 4(%rsp)
	movq	%rcx, 20(%rsp)
	movl	%edx, 28(%rsp)
	vmovdqa	32(%rsp), %xmm1
	vmovdqa	%xmm1, 112(%rsp)
	movl	$4, %eax
	cmpl	$4, %esi
	je	LBB2_13
	leaq	32(%rsp), %r15
	leaq	96(%rsp), %r12
	leaq	64(%rsp), %r14
	.p2align	4, 0x90
LBB2_3:
	vmovups	%ymm0, 64(%rsp)
	vmovaps	112(%rsp), %xmm0
	vmovups	%xmm0, (%r12)
Ltmp6:
	movq	%rbx, %rdi
	movq	%r14, %rsi
	vzeroupper
	callq	__ZN11proc_macro28fallback11TokenStream10push_token17h293b1622b99a1b81E
Ltmp7:
	movl	$4, 64(%rsp)
	vmovaps	(%rsp), %ymm0
	vmovdqa	64(%rsp), %ymm1
	movl	(%rsp), %eax
	vmovdqa	%ymm1, (%rsp)
	vmovups	(%r15), %xmm2
	vmovaps	%xmm2, 112(%rsp)
	cmpl	$4, %eax
	jne	LBB2_3
	vmovd	%xmm1, %eax
	cmpl	$4, %eax
	jne	LBB2_14
	jmp	LBB2_15
LBB2_6:
	movq	%rdi, %r14
	vmovaps	160(%rsp), %ymm0
	vmovaps	%ymm0, 224(%rsp)
	vmovups	176(%rsp), %ymm0
	vmovups	%ymm0, 240(%rsp)
	xorl	%esi, %esi
	cmpl	$4, 224(%rsp)
	setne	%sil
Ltmp0:
	movq	%rbx, %rdi
	vzeroupper
	callq	__ZN5alloc3vec12Vec$LT$T$GT$7reserve17h74d87c65121788a8E
Ltmp1:
	movq	24(%r14), %r12
	leaq	(,%r12,8), %rbx
	addq	8(%r14), %rbx
	vmovups	240(%rsp), %ymm0
	vmovups	%ymm0, 16(%rsp)
	leaq	24(%r14), %rdi
	vmovaps	224(%rsp), %ymm0
	vmovaps	%ymm0, (%rsp)
	movq	%rbx, 128(%rsp)
	movq	%rdi, 136(%rsp)
	movq	%r12, 144(%rsp)
	movl	$4, 64(%rsp)
	vmovaps	(%rsp), %ymm0
	movl	64(%rsp), %eax
	vmovups	68(%rsp), %xmm1
	movq	84(%rsp), %rcx
	movl	92(%rsp), %edx
	movl	(%rsp), %esi
	movl	%eax, (%rsp)
	vmovups	%xmm1, 4(%rsp)
	movq	%rcx, 20(%rsp)
	movl	%edx, 28(%rsp)
	vmovdqa	32(%rsp), %xmm1
	vmovdqa	%xmm1, 112(%rsp)
	movl	$4, %eax
	cmpl	$4, %esi
	je	LBB2_12
	movq	%rdi, 152(%rsp)
	leaq	32(%rsp), %r13
	leaq	96(%rsp), %r15
	leaq	64(%rsp), %r14
	.p2align	4, 0x90
LBB2_9:
	vmovups	%ymm0, 64(%rsp)
	vmovaps	112(%rsp), %xmm0
	vmovups	%xmm0, (%r15)
Ltmp3:
	movq	%r14, %rdi
	vzeroupper
	callq	__ZN11proc_macro23imp19into_compiler_token17hcb0610a0a644a031E
Ltmp4:
	movq	%rax, (%rbx)
	addq	$8, %rbx
	incq	%r12
	movl	$4, 64(%rsp)
	vmovaps	(%rsp), %ymm0
	vmovdqa	64(%rsp), %ymm1
	movl	(%rsp), %eax
	vmovdqa	%ymm1, (%rsp)
	vmovups	(%r13), %xmm2
	vmovaps	%xmm2, 112(%rsp)
	cmpl	$4, %eax
	jne	LBB2_9
	vmovd	%xmm1, %eax
	movq	%rbx, 128(%rsp)
	movq	%r12, 144(%rsp)
	movq	152(%rsp), %rdi
LBB2_12:
	movq	%r12, (%rdi)
LBB2_13:
	cmpl	$4, %eax
	je	LBB2_15
LBB2_14:
	movq	%rsp, %rdi
	vzeroupper
	callq	__ZN4core3ptr13drop_in_place17ha16c029356b6030dE
LBB2_15:
	leaq	-40(%rbp), %rsp
	popq	%rbx
	popq	%r12
	popq	%r13
	popq	%r14
	popq	%r15
	popq	%rbp
	vzeroupper
	retq
LBB2_16:
Ltmp2:
	movq	%rax, %r14
	leaq	224(%rsp), %rdi
	callq	__ZN4core3ptr13drop_in_place17hc7e2faf17e2a1342E
	movq	%r14, %rdi
	callq	__Unwind_Resume
	ud2
LBB2_17:
Ltmp5:
	movq	%rax, %r14
	movq	%rbx, 128(%rsp)
	movq	%r12, 144(%rsp)
	leaq	128(%rsp), %rdi
	callq	__ZN4core3ptr13drop_in_place17h66b1c2fe154d5f2bE
	jmp	LBB2_19
LBB2_18:
Ltmp8:
	movq	%rax, %r14
LBB2_19:
	movq	%rsp, %rdi
	callq	__ZN4core3ptr13drop_in_place17hc7e2faf17e2a1342E
	movq	%r14, %rdi
	callq	__Unwind_Resume
	ud2
Lfunc_end0:
	.cfi_endproc
	.section	__TEXT,__gcc_except_tab
	.p2align	2
GCC_except_table2:
Lexception0:
	.byte	255
	.byte	255
	.byte	1
	.uleb128 Lcst_end0-Lcst_begin0
Lcst_begin0:
	.uleb128 Ltmp6-Lfunc_begin0
	.uleb128 Ltmp7-Ltmp6
	.uleb128 Ltmp8-Lfunc_begin0
	.byte	0
	.uleb128 Ltmp0-Lfunc_begin0
	.uleb128 Ltmp1-Ltmp0
	.uleb128 Ltmp2-Lfunc_begin0
	.byte	0
	.uleb128 Ltmp3-Lfunc_begin0
	.uleb128 Ltmp4-Ltmp3
	.uleb128 Ltmp5-Lfunc_begin0
	.byte	0
	.uleb128 Ltmp4-Lfunc_begin0
	.uleb128 Lfunc_end0-Ltmp4
	.byte	0
	.byte	0
Lcst_end0:
	.p2align	2

	.section	__TEXT,__text,regular,pure_instructions
	.p2align	4, 0x90
__ZN36_$LT$T$u20$as$u20$core..any..Any$GT$7type_id17h45389834690f9abcE:
	.cfi_startproc
	pushq	%rbp
	.cfi_def_cfa_offset 16
	.cfi_offset %rbp, -16
	movq	%rsp, %rbp
	.cfi_def_cfa_register %rbp
	movabsq	$1229646359891580772, %rax
	popq	%rbp
	retq
	.cfi_endproc

	.p2align	4, 0x90
__ZN3std9panicking11begin_panic17h5c53d55ad10c29a5E:
	.cfi_startproc
	pushq	%rbp
	.cfi_def_cfa_offset 16
	.cfi_offset %rbp, -16
	movq	%rsp, %rbp
	.cfi_def_cfa_register %rbp
	subq	$16, %rsp
	movq	%rdi, -16(%rbp)
	movq	%rsi, -8(%rbp)
	movq	%rdx, %rdi
	callq	__ZN4core5panic8Location6caller17hf55c9a52d6249cfcE
	leaq	l___unnamed_1(%rip), %rsi
	leaq	-16(%rbp), %rdi
	xorl	%edx, %edx
	movq	%rax, %rcx
	callq	__ZN3std9panicking20rust_panic_with_hook17hf8b9378dd2e7986aE
	.cfi_endproc

	.p2align	4, 0x90
__ZN41_$LT$bool$u20$as$u20$core..fmt..Debug$GT$3fmt17hcb2f2721d0797180E:
	.cfi_startproc
	pushq	%rbp
	.cfi_def_cfa_offset 16
	.cfi_offset %rbp, -16
	movq	%rsp, %rbp
	.cfi_def_cfa_register %rbp
	popq	%rbp
	jmp	__ZN43_$LT$bool$u20$as$u20$core..fmt..Display$GT$3fmt17hf36463fa8b480ab4E
	.cfi_endproc

	.p2align	4, 0x90
__ZN42_$LT$$RF$T$u20$as$u20$core..fmt..Debug$GT$3fmt17h0091882a3e666828E:
	.cfi_startproc
	pushq	%rbp
	.cfi_def_cfa_offset 16
	.cfi_offset %rbp, -16
	movq	%rsp, %rbp
	.cfi_def_cfa_register %rbp
	movq	%rsi, %rdi
	leaq	l___unnamed_2(%rip), %rsi
	movl	$6, %edx
	popq	%rbp
	jmp	__ZN4core3fmt9Formatter9write_str17h957ea9717e49073dE
	.cfi_endproc

	.p2align	4, 0x90
__ZN42_$LT$$RF$T$u20$as$u20$core..fmt..Debug$GT$3fmt17h02d948a29c0b5f02E:
	.cfi_startproc
	pushq	%rbp
	.cfi_def_cfa_offset 16
	.cfi_offset %rbp, -16
	movq	%rsp, %rbp
	.cfi_def_cfa_register %rbp
	pushq	%r15
	pushq	%r14
	pushq	%r13
	pushq	%r12
	pushq	%rbx
	subq	$24, %rsp
	.cfi_offset %rbx, -56
	.cfi_offset %r12, -48
	.cfi_offset %r13, -40
	.cfi_offset %r14, -32
	.cfi_offset %r15, -24
	movq	(%rdi), %rbx
	leaq	16(%rbx), %r14
	leaq	l___unnamed_3(%rip), %rdx
	leaq	-64(%rbp), %r15
	movl	$5, %ecx
	movq	%r15, %rdi
	callq	__ZN4core3fmt9Formatter12debug_struct17h985c0158d1fc7193E
	movq	%r14, -48(%rbp)
	leaq	L___unnamed_4(%rip), %rsi
	leaq	l___unnamed_5(%rip), %r8
	leaq	-48(%rbp), %rcx
	movl	$8, %edx
	movq	%r15, %rdi
	callq	__ZN4core3fmt8builders11DebugStruct5field17h9c15dc155278eed2E
	movq	%rbx, -48(%rbp)
	leaq	8(%rbx), %r12
	leaq	20(%rbx), %r13
	leaq	28(%rbx), %r14
	leaq	l___unnamed_6(%rip), %rsi
	leaq	l___unnamed_7(%rip), %r8
	leaq	-48(%rbp), %rcx
	movl	$2, %edx
	movq	%r15, %rdi
	callq	__ZN4core3fmt8builders11DebugStruct5field17h9c15dc155278eed2E
	movq	%r12, -48(%rbp)
	leaq	L___unnamed_8(%rip), %rsi
	leaq	l___unnamed_9(%rip), %r8
	leaq	-48(%rbp), %rcx
	movl	$8, %edx
	movq	%r15, %rdi
	callq	__ZN4core3fmt8builders11DebugStruct5field17h9c15dc155278eed2E
	movq	%r13, -48(%rbp)
	leaq	L___unnamed_10(%rip), %rsi
	leaq	l___unnamed_11(%rip), %r8
	leaq	-48(%rbp), %rcx
	movl	$8, %edx
	movq	%r15, %rdi
	callq	__ZN4core3fmt8builders11DebugStruct5field17h9c15dc155278eed2E
	movq	%r14, -48(%rbp)
	leaq	L___unnamed_12(%rip), %rsi
	leaq	l___unnamed_13(%rip), %r8
	leaq	-48(%rbp), %rcx
	movl	$8, %edx
	movq	%r15, %rdi
	callq	__ZN4core3fmt8builders11DebugStruct5field17h9c15dc155278eed2E
	movq	%r15, %rdi
	callq	__ZN4core3fmt8builders11DebugStruct6finish17h26808393f3fed630E
	addq	$24, %rsp
	popq	%rbx
	popq	%r12
	popq	%r13
	popq	%r14
	popq	%r15
	popq	%rbp
	retq
	.cfi_endproc

	.p2align	4, 0x90
__ZN42_$LT$$RF$T$u20$as$u20$core..fmt..Debug$GT$3fmt17h031710ff88d87939E:
	.cfi_startproc
	pushq	%rbp
	.cfi_def_cfa_offset 16
	.cfi_offset %rbp, -16
	movq	%rsp, %rbp
	.cfi_def_cfa_register %rbp
	pushq	%r14
	pushq	%rbx
	subq	$32, %rsp
	.cfi_offset %rbx, -32
	.cfi_offset %r14, -24
	movq	(%rdi), %rbx
	cmpq	$0, (%rbx)
	je	LBB8_2
	leaq	-48(%rbp), %r14
	leaq	L___unnamed_14(%rip), %rdx
	movl	$4, %ecx
	movq	%r14, %rdi
	callq	__ZN4core3fmt9Formatter11debug_tuple17h15ca25ad759edd1cE
	movq	%rbx, -24(%rbp)
	leaq	l___unnamed_15(%rip), %rdx
	leaq	-24(%rbp), %rsi
	movq	%r14, %rdi
	callq	__ZN4core3fmt8builders10DebugTuple5field17hf36121153a94f236E
	jmp	LBB8_3
LBB8_2:
	leaq	-48(%rbp), %r14
	leaq	L___unnamed_16(%rip), %rdx
	movl	$4, %ecx
	movq	%r14, %rdi
	callq	__ZN4core3fmt9Formatter11debug_tuple17h15ca25ad759edd1cE
LBB8_3:
	movq	%r14, %rdi
	callq	__ZN4core3fmt8builders10DebugTuple6finish17h68acf09c6f6593f2E
	addq	$32, %rsp
	popq	%rbx
	popq	%r14
	popq	%rbp
	retq
	.cfi_endproc

	.p2align	4, 0x90
__ZN42_$LT$$RF$T$u20$as$u20$core..fmt..Debug$GT$3fmt17h04206d170dd4655cE:
	.cfi_startproc
	pushq	%rbp
	.cfi_def_cfa_offset 16
	.cfi_offset %rbp, -16
	movq	%rsp, %rbp
	.cfi_def_cfa_register %rbp
	pushq	%r14
	pushq	%rbx
	subq	$80, %rsp
	.cfi_offset %rbx, -32
	.cfi_offset %r14, -24
	movq	(%rdi), %rbx
	leaq	l___unnamed_17(%rip), %rdx
	leaq	-96(%rbp), %r14
	movl	$10, %ecx
	movq	%r14, %rdi
	callq	__ZN4core3fmt9Formatter12debug_struct17h985c0158d1fc7193E
	movq	(%rbx), %rax
	movq	%rax, -32(%rbp)
	movq	__ZN59_$LT$proc_macro2..Literal$u20$as$u20$core..fmt..Display$GT$3fmt17h3429fe76352e3b2eE@GOTPCREL(%rip), %rax
	movq	%rax, -24(%rbp)
	leaq	l___unnamed_18(%rip), %rax
	movq	%rax, -80(%rbp)
	movq	$1, -72(%rbp)
	movq	$0, -64(%rbp)
	leaq	-32(%rbp), %rax
	movq	%rax, -48(%rbp)
	movq	$1, -40(%rbp)
	leaq	l___unnamed_19(%rip), %rsi
	leaq	l___unnamed_20(%rip), %r8
	leaq	-80(%rbp), %rcx
	movl	$5, %edx
	movq	%r14, %rdi
	callq	__ZN4core3fmt8builders11DebugStruct5field17h9c15dc155278eed2E
	movq	%rax, %rdi
	callq	__ZN4core3fmt8builders11DebugStruct6finish17h26808393f3fed630E
	addq	$80, %rsp
	popq	%rbx
	popq	%r14
	popq	%rbp
	retq
	.cfi_endproc

	.p2align	4, 0x90
__ZN42_$LT$$RF$T$u20$as$u20$core..fmt..Debug$GT$3fmt17h048136f1b63970acE:
	.cfi_startproc
	pushq	%rbp
	.cfi_def_cfa_offset 16
	.cfi_offset %rbp, -16
	movq	%rsp, %rbp
	.cfi_def_cfa_register %rbp
	pushq	%r15
	pushq	%r14
	pushq	%rbx
	subq	$24, %rsp
	.cfi_offset %rbx, -40
	.cfi_offset %r14, -32
	.cfi_offset %r15, -24
	movq	(%rdi), %rbx
	leaq	l___unnamed_21(%rip), %rdx
	leaq	-48(%rbp), %r14
	movl	$9, %ecx
	movq	%r14, %rdi
	callq	__ZN4core3fmt9Formatter12debug_struct17h985c0158d1fc7193E
	movq	%rbx, -32(%rbp)
	leaq	32(%rbx), %r15
	addq	$24, %rbx
	leaq	l___unnamed_22(%rip), %rsi
	leaq	l___unnamed_23(%rip), %r8
	leaq	-32(%rbp), %rcx
	movl	$5, %edx
	movq	%r14, %rdi
	callq	__ZN4core3fmt8builders11DebugStruct5field17h9c15dc155278eed2E
	movq	%r15, -32(%rbp)
	leaq	l___unnamed_24(%rip), %rsi
	leaq	l___unnamed_25(%rip), %r8
	leaq	-32(%rbp), %rcx
	movl	$2, %edx
	movq	%r14, %rdi
	callq	__ZN4core3fmt8builders11DebugStruct5field17h9c15dc155278eed2E
	movq	%rbx, -32(%rbp)
	leaq	L___unnamed_26(%rip), %rsi
	leaq	l___unnamed_27(%rip), %r8
	leaq	-32(%rbp), %rcx
	movl	$4, %edx
	movq	%r14, %rdi
	callq	__ZN4core3fmt8builders11DebugStruct5field17h9c15dc155278eed2E
	movq	%r14, %rdi
	callq	__ZN4core3fmt8builders11DebugStruct6finish17h26808393f3fed630E
	addq	$24, %rsp
	popq	%rbx
	popq	%r14
	popq	%r15
	popq	%rbp
	retq
	.cfi_endproc

	.p2align	4, 0x90
__ZN42_$LT$$RF$T$u20$as$u20$core..fmt..Debug$GT$3fmt17h04bcd270ff5b7263E:
	.cfi_startproc
	pushq	%rbp
	.cfi_def_cfa_offset 16
	.cfi_offset %rbp, -16
	movq	%rsp, %rbp
	.cfi_def_cfa_register %rbp
	pushq	%r15
	pushq	%r14
	pushq	%rbx
	subq	$24, %rsp
	.cfi_offset %rbx, -40
	.cfi_offset %r14, -32
	.cfi_offset %r15, -24
	movq	(%rdi), %rbx
	leaq	l___unnamed_28(%rip), %rdx
	leaq	-48(%rbp), %r14
	movl	$13, %ecx
	movq	%r14, %rdi
	callq	__ZN4core3fmt9Formatter12debug_struct17h985c0158d1fc7193E
	movq	%rbx, -32(%rbp)
	leaq	88(%rbx), %r15
	addq	$48, %rbx
	leaq	L___unnamed_29(%rip), %rsi
	leaq	l___unnamed_30(%rip), %r8
	leaq	-32(%rbp), %rcx
	movl	$4, %edx
	movq	%r14, %rdi
	callq	__ZN4core3fmt8builders11DebugStruct5field17h9c15dc155278eed2E
	movq	%r15, -32(%rbp)
	leaq	L___unnamed_31(%rip), %rsi
	leaq	l___unnamed_32(%rip), %r8
	leaq	-32(%rbp), %rcx
	movl	$8, %edx
	movq	%r14, %rdi
	callq	__ZN4core3fmt8builders11DebugStruct5field17h9c15dc155278eed2E
	movq	%rbx, -32(%rbp)
	leaq	l___unnamed_33(%rip), %rsi
	leaq	l___unnamed_34(%rip), %r8
	leaq	-32(%rbp), %rcx
	movl	$3, %edx
	movq	%r14, %rdi
	callq	__ZN4core3fmt8builders11DebugStruct5field17h9c15dc155278eed2E
	movq	%r14, %rdi
	callq	__ZN4core3fmt8builders11DebugStruct6finish17h26808393f3fed630E
	addq	$24, %rsp
	popq	%rbx
	popq	%r14
	popq	%r15
	popq	%rbp
	retq
	.cfi_endproc

	.p2align	4, 0x90
__ZN42_$LT$$RF$T$u20$as$u20$core..fmt..Debug$GT$3fmt17h064765c96839a96aE:
	.cfi_startproc
	pushq	%rbp
	.cfi_def_cfa_offset 16
	.cfi_offset %rbp, -16
	movq	%rsp, %rbp
	.cfi_def_cfa_register %rbp
	pushq	%r14
	pushq	%rbx
	subq	$32, %rsp
	.cfi_offset %rbx, -32
	.cfi_offset %r14, -24
	movq	(%rdi), %rbx
	cmpq	$0, (%rbx)
	je	LBB12_2
	leaq	-48(%rbp), %r14
	leaq	L___unnamed_14(%rip), %rdx
	movl	$4, %ecx
	movq	%r14, %rdi
	callq	__ZN4core3fmt9Formatter11debug_tuple17h15ca25ad759edd1cE
	movq	%rbx, -24(%rbp)
	leaq	l___unnamed_35(%rip), %rdx
	leaq	-24(%rbp), %rsi
	movq	%r14, %rdi
	callq	__ZN4core3fmt8builders10DebugTuple5field17hf36121153a94f236E
	jmp	LBB12_3
LBB12_2:
	leaq	-48(%rbp), %r14
	leaq	L___unnamed_16(%rip), %rdx
	movl	$4, %ecx
	movq	%r14, %rdi
	callq	__ZN4core3fmt9Formatter11debug_tuple17h15ca25ad759edd1cE
LBB12_3:
	movq	%r14, %rdi
	callq	__ZN4core3fmt8builders10DebugTuple6finish17h68acf09c6f6593f2E
	addq	$32, %rsp
	popq	%rbx
	popq	%r14
	popq	%rbp
	retq
	.cfi_endproc

	.p2align	4, 0x90
__ZN42_$LT$$RF$T$u20$as$u20$core..fmt..Debug$GT$3fmt17h0659fc5f160e8c89E:
	.cfi_startproc
	pushq	%rbp
	.cfi_def_cfa_offset 16
	.cfi_offset %rbp, -16
	movq	%rsp, %rbp
	.cfi_def_cfa_register %rbp
	pushq	%r15
	pushq	%r14
	pushq	%r13
	pushq	%r12
	pushq	%rbx
	subq	$24, %rsp
	.cfi_offset %rbx, -56
	.cfi_offset %r12, -48
	.cfi_offset %r13, -40
	.cfi_offset %r14, -32
	.cfi_offset %r15, -24
	movq	(%rdi), %rbx
	leaq	-64(%rbp), %rdi
	callq	__ZN4core3fmt9Formatter10debug_list17hd054f0986422feb9E
	movq	%rbx, -48(%rbp)
	movq	16(%rbx), %rax
	testq	%rax, %rax
	je	LBB13_3
	movq	-48(%rbp), %rcx
	movq	(%rcx), %rbx
	imulq	$56, %rax, %r14
	addq	%rbx, %r14
	leaq	l___unnamed_36(%rip), %r15
	leaq	-64(%rbp), %r12
	leaq	l___unnamed_37(%rip), %r13
	.p2align	4, 0x90
LBB13_2:
	movq	%r12, %rdi
	movq	%rbx, %rsi
	movq	%r15, %rdx
	callq	__ZN4core3fmt8builders9DebugList5entry17h5c0dec54538196dfE
	leaq	48(%rbx), %rsi
	movq	%r12, %rdi
	movq	%r13, %rdx
	callq	__ZN4core3fmt8builders9DebugList5entry17h5c0dec54538196dfE
	addq	$56, %rbx
	cmpq	%r14, %rbx
	jne	LBB13_2
LBB13_3:
	movq	-48(%rbp), %rsi
	cmpq	$0, 24(%rsi)
	je	LBB13_5
	addq	$24, %rsi
	leaq	l___unnamed_38(%rip), %rdx
	leaq	-64(%rbp), %rdi
	callq	__ZN4core3fmt8builders9DebugList5entry17h5c0dec54538196dfE
LBB13_5:
	leaq	-64(%rbp), %rdi
	callq	__ZN4core3fmt8builders9DebugList6finish17h3635bd6af9b1c5a6E
	addq	$24, %rsp
	popq	%rbx
	popq	%r12
	popq	%r13
	popq	%r14
	popq	%r15
	popq	%rbp
	retq
	.cfi_endproc

	.p2align	4, 0x90
__ZN42_$LT$$RF$T$u20$as$u20$core..fmt..Debug$GT$3fmt17h069e4b676112d06cE:
	.cfi_startproc
	pushq	%rbp
	.cfi_def_cfa_offset 16
	.cfi_offset %rbp, -16
	movq	%rsp, %rbp
	.cfi_def_cfa_register %rbp
	pushq	%r15
	pushq	%r14
	pushq	%rbx
	subq	$24, %rsp
	.cfi_offset %rbx, -40
	.cfi_offset %r14, -32
	.cfi_offset %r15, -24
	movq	(%rdi), %rbx
	leaq	40(%rbx), %r15
	leaq	l___unnamed_39(%rip), %rdx
	leaq	-48(%rbp), %r14
	movl	$9, %ecx
	movq	%r14, %rdi
	callq	__ZN4core3fmt9Formatter12debug_struct17h985c0158d1fc7193E
	movq	%r15, -32(%rbp)
	leaq	l___unnamed_40(%rip), %rsi
	leaq	l___unnamed_41(%rip), %r8
	leaq	-32(%rbp), %rcx
	movl	$11, %edx
	movq	%r14, %rdi
	callq	__ZN4core3fmt8builders11DebugStruct5field17h9c15dc155278eed2E
	movq	%rbx, -32(%rbp)
	leaq	l___unnamed_42(%rip), %rsi
	leaq	l___unnamed_43(%rip), %r8
	leaq	-32(%rbp), %rcx
	movl	$6, %edx
	movq	%r14, %rdi
	callq	__ZN4core3fmt8builders11DebugStruct5field17h9c15dc155278eed2E
	movq	%r14, %rdi
	callq	__ZN4core3fmt8builders11DebugStruct6finish17h26808393f3fed630E
	addq	$24, %rsp
	popq	%rbx
	popq	%r14
	popq	%r15
	popq	%rbp
	retq
	.cfi_endproc

	.p2align	4, 0x90
__ZN42_$LT$$RF$T$u20$as$u20$core..fmt..Debug$GT$3fmt17h080d79d5d82a7653E:
	.cfi_startproc
	pushq	%rbp
	.cfi_def_cfa_offset 16
	.cfi_offset %rbp, -16
	movq	%rsp, %rbp
	.cfi_def_cfa_register %rbp
	movq	(%rdi), %rdi
	popq	%rbp
	jmp	__ZN61_$LT$syn..generics..TypeParam$u20$as$u20$core..fmt..Debug$GT$3fmt17h3350abd6f24f596cE
	.cfi_endproc

	.p2align	4, 0x90
__ZN42_$LT$$RF$T$u20$as$u20$core..fmt..Debug$GT$3fmt17h08652eb018cbdc8bE:
	.cfi_startproc
	pushq	%rbp
	.cfi_def_cfa_offset 16
	.cfi_offset %rbp, -16
	movq	%rsp, %rbp
	.cfi_def_cfa_register %rbp
	pushq	%r15
	pushq	%r14
	pushq	%rbx
	subq	$24, %rsp
	.cfi_offset %rbx, -40
	.cfi_offset %r14, -32
	.cfi_offset %r15, -24
	movq	(%rdi), %rbx
	leaq	32(%rbx), %r15
	leaq	l___unnamed_44(%rip), %rdx
	leaq	-48(%rbp), %r14
	movl	$15, %ecx
	movq	%r14, %rdi
	callq	__ZN4core3fmt9Formatter12debug_struct17h985c0158d1fc7193E
	movq	%r15, -32(%rbp)
	leaq	l___unnamed_45(%rip), %rsi
	leaq	l___unnamed_46(%rip), %r8
	leaq	-32(%rbp), %rcx
	movl	$9, %edx
	movq	%r14, %rdi
	callq	__ZN4core3fmt8builders11DebugStruct5field17h9c15dc155278eed2E
	movq	%rbx, -32(%rbp)
	leaq	l___unnamed_47(%rip), %rsi
	leaq	l___unnamed_48(%rip), %r8
	leaq	-32(%rbp), %rcx
	movl	$6, %edx
	movq	%r14, %rdi
	callq	__ZN4core3fmt8builders11DebugStruct5field17h9c15dc155278eed2E
	movq	%r14, %rdi
	callq	__ZN4core3fmt8builders11DebugStruct6finish17h26808393f3fed630E
	addq	$24, %rsp
	popq	%rbx
	popq	%r14
	popq	%r15
	popq	%rbp
	retq
	.cfi_endproc

	.p2align	4, 0x90
__ZN42_$LT$$RF$T$u20$as$u20$core..fmt..Debug$GT$3fmt17h099d274a0efd9a6cE:
	.cfi_startproc
	pushq	%rbp
	.cfi_def_cfa_offset 16
	.cfi_offset %rbp, -16
	movq	%rsp, %rbp
	.cfi_def_cfa_register %rbp
	movq	%rsi, %rdi
	leaq	l___unnamed_49(%rip), %rsi
	movl	$3, %edx
	popq	%rbp
	jmp	__ZN4core3fmt9Formatter9write_str17h957ea9717e49073dE
	.cfi_endproc

	.p2align	4, 0x90
__ZN42_$LT$$RF$T$u20$as$u20$core..fmt..Debug$GT$3fmt17h09c2916467b3b61bE:
	.cfi_startproc
	pushq	%rbp
	.cfi_def_cfa_offset 16
	.cfi_offset %rbp, -16
	movq	%rsp, %rbp
	.cfi_def_cfa_register %rbp
	pushq	%r14
	pushq	%rbx
	subq	$48, %rsp
	.cfi_offset %rbx, -32
	.cfi_offset %r14, -24
	movq	(%rdi), %rbx
	leaq	l___unnamed_50(%rip), %rdx
	leaq	-56(%rbp), %r14
	movq	%r14, %rdi
	xorl	%ecx, %ecx
	callq	__ZN4core3fmt9Formatter11debug_tuple17h15ca25ad759edd1cE
	movq	%rbx, -24(%rbp)
	addq	$8, %rbx
	movq	%rbx, -32(%rbp)
	leaq	l___unnamed_32(%rip), %rdx
	leaq	-24(%rbp), %rsi
	movq	%r14, %rdi
	callq	__ZN4core3fmt8builders10DebugTuple5field17hf36121153a94f236E
	leaq	l___unnamed_51(%rip), %rdx
	leaq	-32(%rbp), %rsi
	movq	%r14, %rdi
	callq	__ZN4core3fmt8builders10DebugTuple5field17hf36121153a94f236E
	movq	%r14, %rdi
	callq	__ZN4core3fmt8builders10DebugTuple6finish17h68acf09c6f6593f2E
	addq	$48, %rsp
	popq	%rbx
	popq	%r14
	popq	%rbp
	retq
	.cfi_endproc

	.p2align	4, 0x90
__ZN42_$LT$$RF$T$u20$as$u20$core..fmt..Debug$GT$3fmt17h11216fc1fd68e28aE:
	.cfi_startproc
	pushq	%rbp
	.cfi_def_cfa_offset 16
	.cfi_offset %rbp, -16
	movq	%rsp, %rbp
	.cfi_def_cfa_register %rbp
	pushq	%r14
	pushq	%rbx
	subq	$32, %rsp
	.cfi_offset %rbx, -32
	.cfi_offset %r14, -24
	movq	(%rdi), %rbx
	leaq	l___unnamed_52(%rip), %rdx
	leaq	-40(%rbp), %r14
	movl	$12, %ecx
	movq	%r14, %rdi
	callq	__ZN4core3fmt9Formatter12debug_struct17h985c0158d1fc7193E
	movq	%rbx, -24(%rbp)
	leaq	l___unnamed_53(%rip), %rsi
	leaq	l___unnamed_54(%rip), %r8
	leaq	-24(%rbp), %rcx
	movl	$12, %edx
	movq	%r14, %rdi
	callq	__ZN4core3fmt8builders11DebugStruct5field17h9c15dc155278eed2E
	movq	%r14, %rdi
	callq	__ZN4core3fmt8builders11DebugStruct6finish17h26808393f3fed630E
	addq	$32, %rsp
	popq	%rbx
	popq	%r14
	popq	%rbp
	retq
	.cfi_endproc

	.p2align	4, 0x90
__ZN42_$LT$$RF$T$u20$as$u20$core..fmt..Debug$GT$3fmt17h1161c1dea5f74e2eE:
	.cfi_startproc
	pushq	%rbp
	.cfi_def_cfa_offset 16
	.cfi_offset %rbp, -16
	movq	%rsp, %rbp
	.cfi_def_cfa_register %rbp
	pushq	%r15
	pushq	%r14
	pushq	%r13
	pushq	%r12
	pushq	%rbx
	subq	$24, %rsp
	.cfi_offset %rbx, -56
	.cfi_offset %r12, -48
	.cfi_offset %r13, -40
	.cfi_offset %r14, -32
	.cfi_offset %r15, -24
	movq	(%rdi), %rbx
	leaq	l___unnamed_55(%rip), %rdx
	leaq	-64(%rbp), %r12
	movl	$9, %ecx
	movq	%r12, %rdi
	callq	__ZN4core3fmt9Formatter12debug_struct17h985c0158d1fc7193E
	movq	%rbx, -48(%rbp)
	leaq	24(%rbx), %r14
	leaq	40(%rbx), %r13
	leaq	32(%rbx), %r15
	leaq	l___unnamed_22(%rip), %rsi
	leaq	l___unnamed_23(%rip), %r8
	leaq	-48(%rbp), %rcx
	movl	$5, %edx
	movq	%r12, %rdi
	callq	__ZN4core3fmt8builders11DebugStruct5field17h9c15dc155278eed2E
	movq	%r14, -48(%rbp)
	leaq	L___unnamed_26(%rip), %rsi
	leaq	l___unnamed_27(%rip), %r14
	leaq	-48(%rbp), %rcx
	movl	$4, %edx
	movq	%r12, %rdi
	movq	%r14, %r8
	callq	__ZN4core3fmt8builders11DebugStruct5field17h9c15dc155278eed2E
	movq	%r13, -48(%rbp)
	leaq	l___unnamed_56(%rip), %rsi
	leaq	l___unnamed_57(%rip), %r8
	leaq	-48(%rbp), %rcx
	movl	$13, %edx
	movq	%r12, %rdi
	callq	__ZN4core3fmt8builders11DebugStruct5field17h9c15dc155278eed2E
	movq	%r15, -48(%rbp)
	leaq	l___unnamed_58(%rip), %rsi
	leaq	-48(%rbp), %rcx
	movl	$5, %edx
	movq	%r12, %rdi
	movq	%r14, %r8
	callq	__ZN4core3fmt8builders11DebugStruct5field17h9c15dc155278eed2E
	movq	%r12, %rdi
	callq	__ZN4core3fmt8builders11DebugStruct6finish17h26808393f3fed630E
	addq	$24, %rsp
	popq	%rbx
	popq	%r12
	popq	%r13
	popq	%r14
	popq	%r15
	popq	%rbp
	retq
	.cfi_endproc

	.p2align	4, 0x90
__ZN42_$LT$$RF$T$u20$as$u20$core..fmt..Debug$GT$3fmt17h1174a9ea16601e14E:
	.cfi_startproc
	pushq	%rbp
	.cfi_def_cfa_offset 16
	.cfi_offset %rbp, -16
	movq	%rsp, %rbp
	.cfi_def_cfa_register %rbp
	movq	%rsi, %rdi
	leaq	l___unnamed_59(%rip), %rsi
	movl	$2, %edx
	popq	%rbp
	jmp	__ZN4core3fmt9Formatter9write_str17h957ea9717e49073dE
	.cfi_endproc

	.p2align	4, 0x90
__ZN42_$LT$$RF$T$u20$as$u20$core..fmt..Debug$GT$3fmt17h12362d5d726e9d5fE:
	.cfi_startproc
	pushq	%rbp
	.cfi_def_cfa_offset 16
	.cfi_offset %rbp, -16
	movq	%rsp, %rbp
	.cfi_def_cfa_register %rbp
	movq	%rsi, %rdi
	leaq	l___unnamed_60(%rip), %rsi
	movl	$5, %edx
	popq	%rbp
	jmp	__ZN4core3fmt9Formatter9write_str17h957ea9717e49073dE
	.cfi_endproc

	.p2align	4, 0x90
__ZN42_$LT$$RF$T$u20$as$u20$core..fmt..Debug$GT$3fmt17h12cad079284ff5c8E:
	.cfi_startproc
	pushq	%rbp
	.cfi_def_cfa_offset 16
	.cfi_offset %rbp, -16
	movq	%rsp, %rbp
	.cfi_def_cfa_register %rbp
	movq	%rsi, %rdi
	leaq	l___unnamed_61(%rip), %rsi
	movl	$2, %edx
	popq	%rbp
	jmp	__ZN4core3fmt9Formatter9write_str17h957ea9717e49073dE
	.cfi_endproc

	.p2align	4, 0x90
__ZN42_$LT$$RF$T$u20$as$u20$core..fmt..Debug$GT$3fmt17h1460968077a06d1fE:
	.cfi_startproc
	pushq	%rbp
	.cfi_def_cfa_offset 16
	.cfi_offset %rbp, -16
	movq	%rsp, %rbp
	.cfi_def_cfa_register %rbp
	movq	%rsi, %rdi
	leaq	l___unnamed_62(%rip), %rsi
	movl	$3, %edx
	popq	%rbp
	jmp	__ZN4core3fmt9Formatter9write_str17h957ea9717e49073dE
	.cfi_endproc

	.p2align	4, 0x90
__ZN42_$LT$$RF$T$u20$as$u20$core..fmt..Debug$GT$3fmt17h1485ece0f19e54dfE:
	.cfi_startproc
	pushq	%rbp
	.cfi_def_cfa_offset 16
	.cfi_offset %rbp, -16
	movq	%rsp, %rbp
	.cfi_def_cfa_register %rbp
	movq	(%rdi), %rdi
	popq	%rbp
	jmp	__ZN57_$LT$proc_macro2..Literal$u20$as$u20$core..fmt..Debug$GT$3fmt17h1b45b90d4f01ab24E
	.cfi_endproc

	.p2align	4, 0x90
__ZN42_$LT$$RF$T$u20$as$u20$core..fmt..Debug$GT$3fmt17h156c93f4a16ea69cE:
	.cfi_startproc
	pushq	%rbp
	.cfi_def_cfa_offset 16
	.cfi_offset %rbp, -16
	movq	%rsp, %rbp
	.cfi_def_cfa_register %rbp
	pushq	%r15
	pushq	%r14
	pushq	%rbx
	subq	$24, %rsp
	.cfi_offset %rbx, -40
	.cfi_offset %r14, -32
	.cfi_offset %r15, -24
	movq	(%rdi), %rbx
	leaq	32(%rbx), %r15
	leaq	l___unnamed_63(%rip), %rdx
	leaq	-48(%rbp), %r14
	movl	$11, %ecx
	movq	%r14, %rdi
	callq	__ZN4core3fmt9Formatter12debug_struct17h985c0158d1fc7193E
	movq	%r15, -32(%rbp)
	leaq	l___unnamed_64(%rip), %rsi
	leaq	l___unnamed_65(%rip), %r8
	leaq	-32(%rbp), %rcx
	movl	$11, %edx
	movq	%r14, %rdi
	callq	__ZN4core3fmt8builders11DebugStruct5field17h9c15dc155278eed2E
	movq	%rbx, -32(%rbp)
	leaq	l___unnamed_66(%rip), %rsi
	leaq	l___unnamed_67(%rip), %r8
	leaq	-32(%rbp), %rcx
	movl	$10, %edx
	movq	%r14, %rdi
	callq	__ZN4core3fmt8builders11DebugStruct5field17h9c15dc155278eed2E
	movq	%r14, %rdi
	callq	__ZN4core3fmt8builders11DebugStruct6finish17h26808393f3fed630E
	addq	$24, %rsp
	popq	%rbx
	popq	%r14
	popq	%r15
	popq	%rbp
	retq
	.cfi_endproc

	.p2align	4, 0x90
__ZN42_$LT$$RF$T$u20$as$u20$core..fmt..Debug$GT$3fmt17h15b05883e0882c8fE:
	.cfi_startproc
	pushq	%rbp
	.cfi_def_cfa_offset 16
	.cfi_offset %rbp, -16
	movq	%rsp, %rbp
	.cfi_def_cfa_register %rbp
	movq	(%rdi), %rax
	movq	(%rax), %rdi
	popq	%rbp
	jmp	__ZN52_$LT$syn..expr..Expr$u20$as$u20$core..fmt..Debug$GT$3fmt17h8f508d185000dc6dE
	.cfi_endproc

	.p2align	4, 0x90
__ZN42_$LT$$RF$T$u20$as$u20$core..fmt..Debug$GT$3fmt17h164630dda0cd54e8E:
	.cfi_startproc
	pushq	%rbp
	.cfi_def_cfa_offset 16
	.cfi_offset %rbp, -16
	movq	%rsp, %rbp
	.cfi_def_cfa_register %rbp
	pushq	%r14
	pushq	%rbx
	subq	$32, %rsp
	.cfi_offset %rbx, -32
	.cfi_offset %r14, -24
	movq	(%rdi), %rbx
	leaq	L___unnamed_68(%rip), %rdx
	leaq	-40(%rbp), %r14
	movl	$8, %ecx
	movq	%r14, %rdi
	callq	__ZN4core3fmt9Formatter12debug_struct17h985c0158d1fc7193E
	movq	%rbx, -24(%rbp)
	leaq	l___unnamed_69(%rip), %rsi
	leaq	l___unnamed_70(%rip), %r8
	leaq	-24(%rbp), %rcx
	movl	$11, %edx
	movq	%r14, %rdi
	callq	__ZN4core3fmt8builders11DebugStruct5field17h9c15dc155278eed2E
	movq	%r14, %rdi
	callq	__ZN4core3fmt8builders11DebugStruct6finish17h26808393f3fed630E
	addq	$32, %rsp
	popq	%rbx
	popq	%r14
	popq	%rbp
	retq
	.cfi_endproc

	.p2align	4, 0x90
__ZN42_$LT$$RF$T$u20$as$u20$core..fmt..Debug$GT$3fmt17h17a37817ef771bebE:
	.cfi_startproc
	pushq	%rbp
	.cfi_def_cfa_offset 16
	.cfi_offset %rbp, -16
	movq	%rsp, %rbp
	.cfi_def_cfa_register %rbp
	pushq	%r15
	pushq	%r14
	pushq	%r13
	pushq	%r12
	pushq	%rbx
	subq	$24, %rsp
	.cfi_offset %rbx, -56
	.cfi_offset %r12, -48
	.cfi_offset %r13, -40
	.cfi_offset %r14, -32
	.cfi_offset %r15, -24
	movq	(%rdi), %rbx
	leaq	-64(%rbp), %rdi
	callq	__ZN4core3fmt9Formatter10debug_list17hd054f0986422feb9E
	movq	%rbx, -48(%rbp)
	movq	16(%rbx), %rax
	testq	%rax, %rax
	je	LBB29_3
	movq	-48(%rbp), %rcx
	movq	(%rcx), %rbx
	imulq	$120, %rax, %r14
	addq	%rbx, %r14
	leaq	l___unnamed_71(%rip), %r15
	leaq	-64(%rbp), %r12
	leaq	l___unnamed_72(%rip), %r13
	.p2align	4, 0x90
LBB29_2:
	movq	%r12, %rdi
	movq	%rbx, %rsi
	movq	%r15, %rdx
	callq	__ZN4core3fmt8builders9DebugList5entry17h5c0dec54538196dfE
	leaq	112(%rbx), %rsi
	movq	%r12, %rdi
	movq	%r13, %rdx
	callq	__ZN4core3fmt8builders9DebugList5entry17h5c0dec54538196dfE
	addq	$120, %rbx
	cmpq	%r14, %rbx
	jne	LBB29_2
LBB29_3:
	movq	-48(%rbp), %rsi
	cmpq	$0, 24(%rsi)
	je	LBB29_5
	addq	$24, %rsi
	leaq	l___unnamed_73(%rip), %rdx
	leaq	-64(%rbp), %rdi
	callq	__ZN4core3fmt8builders9DebugList5entry17h5c0dec54538196dfE
LBB29_5:
	leaq	-64(%rbp), %rdi
	callq	__ZN4core3fmt8builders9DebugList6finish17h3635bd6af9b1c5a6E
	addq	$24, %rsp
	popq	%rbx
	popq	%r12
	popq	%r13
	popq	%r14
	popq	%r15
	popq	%rbp
	retq
	.cfi_endproc

	.p2align	4, 0x90
__ZN42_$LT$$RF$T$u20$as$u20$core..fmt..Debug$GT$3fmt17h17be7fe46435e7dbE:
	.cfi_startproc
	pushq	%rbp
	.cfi_def_cfa_offset 16
	.cfi_offset %rbp, -16
	movq	%rsp, %rbp
	.cfi_def_cfa_register %rbp
	pushq	%r15
	pushq	%r14
	pushq	%r13
	pushq	%r12
	pushq	%rbx
	subq	$24, %rsp
	.cfi_offset %rbx, -56
	.cfi_offset %r12, -48
	.cfi_offset %r13, -40
	.cfi_offset %r14, -32
	.cfi_offset %r15, -24
	movq	(%rdi), %rbx
	leaq	l___unnamed_74(%rip), %rdx
	leaq	-64(%rbp), %r15
	movl	$13, %ecx
	movq	%r15, %rdi
	callq	__ZN4core3fmt9Formatter12debug_struct17h985c0158d1fc7193E
	movq	%rbx, -48(%rbp)
	leaq	48(%rbx), %r12
	leaq	264(%rbx), %r13
	leaq	232(%rbx), %r14
	leaq	l___unnamed_75(%rip), %rsi
	leaq	l___unnamed_76(%rip), %r8
	leaq	-48(%rbp), %rcx
	movl	$9, %edx
	movq	%r15, %rdi
	callq	__ZN4core3fmt8builders11DebugStruct5field17h9c15dc155278eed2E
	movq	%r12, -48(%rbp)
	leaq	l___unnamed_77(%rip), %rsi
	leaq	l___unnamed_78(%rip), %r8
	leaq	-48(%rbp), %rcx
	movl	$10, %edx
	movq	%r15, %rdi
	callq	__ZN4core3fmt8builders11DebugStruct5field17h9c15dc155278eed2E
	movq	%r13, -48(%rbp)
	leaq	l___unnamed_79(%rip), %rsi
	leaq	l___unnamed_80(%rip), %r8
	leaq	-48(%rbp), %rcx
	movl	$11, %edx
	movq	%r15, %rdi
	callq	__ZN4core3fmt8builders11DebugStruct5field17h9c15dc155278eed2E
	movq	%r14, -48(%rbp)
	leaq	l___unnamed_47(%rip), %rsi
	leaq	l___unnamed_48(%rip), %r8
	leaq	-48(%rbp), %rcx
	movl	$6, %edx
	movq	%r15, %rdi
	callq	__ZN4core3fmt8builders11DebugStruct5field17h9c15dc155278eed2E
	movq	%r15, %rdi
	callq	__ZN4core3fmt8builders11DebugStruct6finish17h26808393f3fed630E
	addq	$24, %rsp
	popq	%rbx
	popq	%r12
	popq	%r13
	popq	%r14
	popq	%r15
	popq	%rbp
	retq
	.cfi_endproc

	.p2align	4, 0x90
__ZN42_$LT$$RF$T$u20$as$u20$core..fmt..Debug$GT$3fmt17h182828da2e0493edE:
	.cfi_startproc
	pushq	%rbp
	.cfi_def_cfa_offset 16
	.cfi_offset %rbp, -16
	movq	%rsp, %rbp
	.cfi_def_cfa_register %rbp
	movq	%rsi, %rdi
	leaq	l___unnamed_81(%rip), %rsi
	movl	$2, %edx
	popq	%rbp
	jmp	__ZN4core3fmt9Formatter9write_str17h957ea9717e49073dE
	.cfi_endproc

	.p2align	4, 0x90
__ZN42_$LT$$RF$T$u20$as$u20$core..fmt..Debug$GT$3fmt17h1bac01d01d8066ddE:
	.cfi_startproc
	pushq	%rbp
	.cfi_def_cfa_offset 16
	.cfi_offset %rbp, -16
	movq	%rsp, %rbp
	.cfi_def_cfa_register %rbp
	pushq	%r15
	pushq	%r14
	pushq	%rbx
	subq	$24, %rsp
	.cfi_offset %rbx, -40
	.cfi_offset %r14, -32
	.cfi_offset %r15, -24
	movq	(%rdi), %rbx
	leaq	L___unnamed_82(%rip), %rdx
	leaq	-48(%rbp), %r14
	movl	$8, %ecx
	movq	%r14, %rdi
	callq	__ZN4core3fmt9Formatter12debug_struct17h985c0158d1fc7193E
	movq	%rbx, -32(%rbp)
	leaq	24(%rbx), %r15
	addq	$56, %rbx
	leaq	l___unnamed_22(%rip), %rsi
	leaq	l___unnamed_23(%rip), %r8
	leaq	-32(%rbp), %rcx
	movl	$5, %edx
	movq	%r14, %rdi
	callq	__ZN4core3fmt8builders11DebugStruct5field17h9c15dc155278eed2E
	movq	%r15, -32(%rbp)
	leaq	l___unnamed_83(%rip), %rsi
	leaq	l___unnamed_84(%rip), %r8
	leaq	-32(%rbp), %rcx
	movl	$5, %edx
	movq	%r14, %rdi
	callq	__ZN4core3fmt8builders11DebugStruct5field17h9c15dc155278eed2E
	movq	%rbx, -32(%rbp)
	leaq	L___unnamed_29(%rip), %rsi
	leaq	l___unnamed_30(%rip), %r8
	leaq	-32(%rbp), %rcx
	movl	$4, %edx
	movq	%r14, %rdi
	callq	__ZN4core3fmt8builders11DebugStruct5field17h9c15dc155278eed2E
	movq	%r14, %rdi
	callq	__ZN4core3fmt8builders11DebugStruct6finish17h26808393f3fed630E
	addq	$24, %rsp
	popq	%rbx
	popq	%r14
	popq	%r15
	popq	%rbp
	retq
	.cfi_endproc

	.p2align	4, 0x90
__ZN42_$LT$$RF$T$u20$as$u20$core..fmt..Debug$GT$3fmt17h1c930d08833af895E:
	.cfi_startproc
	pushq	%rbp
	.cfi_def_cfa_offset 16
	.cfi_offset %rbp, -16
	movq	%rsp, %rbp
	.cfi_def_cfa_register %rbp
	movq	(%rdi), %rdi
	popq	%rbp
	jmp	__ZN61_$LT$syn..path..PathArguments$u20$as$u20$core..fmt..Debug$GT$3fmt17h970502d68c7c95f8E
	.cfi_endproc

	.p2align	4, 0x90
__ZN42_$LT$$RF$T$u20$as$u20$core..fmt..Debug$GT$3fmt17h1cc485d5128d977fE:
	.cfi_startproc
	pushq	%rbp
	.cfi_def_cfa_offset 16
	.cfi_offset %rbp, -16
	movq	%rsp, %rbp
	.cfi_def_cfa_register %rbp
	movq	(%rdi), %rdi
	popq	%rbp
	jmp	__ZN50_$LT$syn..op..UnOp$u20$as$u20$core..fmt..Debug$GT$3fmt17h8a22d342695fd50aE
	.cfi_endproc

	.p2align	4, 0x90
__ZN42_$LT$$RF$T$u20$as$u20$core..fmt..Debug$GT$3fmt17h1f1f4b1da6539f95E:
	.cfi_startproc
	pushq	%rbp
	.cfi_def_cfa_offset 16
	.cfi_offset %rbp, -16
	movq	%rsp, %rbp
	.cfi_def_cfa_register %rbp
	pushq	%r15
	pushq	%r14
	pushq	%r13
	pushq	%r12
	pushq	%rbx
	subq	$24, %rsp
	.cfi_offset %rbx, -56
	.cfi_offset %r12, -48
	.cfi_offset %r13, -40
	.cfi_offset %r14, -32
	.cfi_offset %r15, -24
	movq	(%rdi), %rbx
	leaq	8(%rbx), %r12
	leaq	12(%rbx), %r13
	leaq	16(%rbx), %r15
	leaq	l___unnamed_85(%rip), %rdx
	leaq	-64(%rbp), %r14
	movl	$13, %ecx
	movq	%r14, %rdi
	callq	__ZN4core3fmt9Formatter12debug_struct17h985c0158d1fc7193E
	movq	%r12, -48(%rbp)
	leaq	l___unnamed_86(%rip), %rsi
	leaq	l___unnamed_87(%rip), %r8
	leaq	-48(%rbp), %rcx
	movl	$9, %edx
	movq	%r14, %rdi
	callq	__ZN4core3fmt8builders11DebugStruct5field17h9c15dc155278eed2E
	movq	%r13, -48(%rbp)
	leaq	l___unnamed_88(%rip), %rsi
	leaq	l___unnamed_89(%rip), %r8
	leaq	-48(%rbp), %rcx
	movl	$11, %edx
	movq	%r14, %rdi
	callq	__ZN4core3fmt8builders11DebugStruct5field17h9c15dc155278eed2E
	movq	%r15, -48(%rbp)
	leaq	L___unnamed_90(%rip), %rsi
	leaq	l___unnamed_91(%rip), %r8
	leaq	-48(%rbp), %rcx
	movl	$8, %edx
	movq	%r14, %rdi
	callq	__ZN4core3fmt8builders11DebugStruct5field17h9c15dc155278eed2E
	movq	%rbx, -48(%rbp)
	leaq	L___unnamed_29(%rip), %rsi
	leaq	l___unnamed_92(%rip), %r8
	leaq	-48(%rbp), %rcx
	movl	$4, %edx
	movq	%r14, %rdi
	callq	__ZN4core3fmt8builders11DebugStruct5field17h9c15dc155278eed2E
	movq	%r14, %rdi
	callq	__ZN4core3fmt8builders11DebugStruct6finish17h26808393f3fed630E
	addq	$24, %rsp
	popq	%rbx
	popq	%r12
	popq	%r13
	popq	%r14
	popq	%r15
	popq	%rbp
	retq
	.cfi_endproc

	.p2align	4, 0x90
__ZN42_$LT$$RF$T$u20$as$u20$core..fmt..Debug$GT$3fmt17h1f71c01ec3d3acb8E:
	.cfi_startproc
	pushq	%rbp
	.cfi_def_cfa_offset 16
	.cfi_offset %rbp, -16
	movq	%rsp, %rbp
	.cfi_def_cfa_register %rbp
	pushq	%r15
	pushq	%r14
	pushq	%r13
	pushq	%r12
	pushq	%rbx
	subq	$24, %rsp
	.cfi_offset %rbx, -56
	.cfi_offset %r12, -48
	.cfi_offset %r13, -40
	.cfi_offset %r14, -32
	.cfi_offset %r15, -24
	movq	(%rdi), %rbx
	leaq	l___unnamed_93(%rip), %rdx
	leaq	-64(%rbp), %r15
	movl	$9, %ecx
	movq	%r15, %rdi
	callq	__ZN4core3fmt9Formatter12debug_struct17h985c0158d1fc7193E
	movq	%rbx, -48(%rbp)
	leaq	24(%rbx), %r12
	leaq	80(%rbx), %r13
	leaq	32(%rbx), %r14
	leaq	l___unnamed_22(%rip), %rsi
	leaq	l___unnamed_23(%rip), %r8
	leaq	-48(%rbp), %rcx
	movl	$5, %edx
	movq	%r15, %rdi
	callq	__ZN4core3fmt8builders11DebugStruct5field17h9c15dc155278eed2E
	movq	%r12, -48(%rbp)
	leaq	L___unnamed_94(%rip), %rsi
	leaq	l___unnamed_27(%rip), %r8
	leaq	-48(%rbp), %rcx
	movl	$4, %edx
	movq	%r15, %rdi
	callq	__ZN4core3fmt8builders11DebugStruct5field17h9c15dc155278eed2E
	movq	%r13, -48(%rbp)
	leaq	l___unnamed_95(%rip), %rsi
	leaq	l___unnamed_96(%rip), %r8
	leaq	-48(%rbp), %rcx
	movl	$9, %edx
	movq	%r15, %rdi
	callq	__ZN4core3fmt8builders11DebugStruct5field17h9c15dc155278eed2E
	movq	%r14, -48(%rbp)
	leaq	l___unnamed_97(%rip), %rsi
	leaq	l___unnamed_98(%rip), %r8
	leaq	-48(%rbp), %rcx
	movl	$6, %edx
	movq	%r15, %rdi
	callq	__ZN4core3fmt8builders11DebugStruct5field17h9c15dc155278eed2E
	movq	%r15, %rdi
	callq	__ZN4core3fmt8builders11DebugStruct6finish17h26808393f3fed630E
	addq	$24, %rsp
	popq	%rbx
	popq	%r12
	popq	%r13
	popq	%r14
	popq	%r15
	popq	%rbp
	retq
	.cfi_endproc

	.p2align	4, 0x90
__ZN42_$LT$$RF$T$u20$as$u20$core..fmt..Debug$GT$3fmt17h208e60ffdadb9d4fE:
	.cfi_startproc
	pushq	%rbp
	.cfi_def_cfa_offset 16
	.cfi_offset %rbp, -16
	movq	%rsp, %rbp
	.cfi_def_cfa_register %rbp
	pushq	%r15
	pushq	%r14
	pushq	%rbx
	subq	$24, %rsp
	.cfi_offset %rbx, -40
	.cfi_offset %r14, -32
	.cfi_offset %r15, -24
	movq	(%rdi), %rbx
	leaq	40(%rbx), %r15
	leaq	L___unnamed_99(%rip), %rdx
	leaq	-48(%rbp), %r14
	movl	$8, %ecx
	movq	%r14, %rdi
	callq	__ZN4core3fmt9Formatter12debug_struct17h985c0158d1fc7193E
	movq	%r15, -32(%rbp)
	leaq	l___unnamed_100(%rip), %rsi
	leaq	l___unnamed_101(%rip), %r8
	leaq	-32(%rbp), %rcx
	movl	$10, %edx
	movq	%r14, %rdi
	callq	__ZN4core3fmt8builders11DebugStruct5field17h9c15dc155278eed2E
	movq	%rbx, -32(%rbp)
	leaq	l___unnamed_102(%rip), %rsi
	leaq	l___unnamed_103(%rip), %r8
	leaq	-32(%rbp), %rcx
	movl	$5, %edx
	movq	%r14, %rdi
	callq	__ZN4core3fmt8builders11DebugStruct5field17h9c15dc155278eed2E
	movq	%r14, %rdi
	callq	__ZN4core3fmt8builders11DebugStruct6finish17h26808393f3fed630E
	addq	$24, %rsp
	popq	%rbx
	popq	%r14
	popq	%r15
	popq	%rbp
	retq
	.cfi_endproc

	.p2align	4, 0x90
__ZN42_$LT$$RF$T$u20$as$u20$core..fmt..Debug$GT$3fmt17h220084d667bf8c97E:
	.cfi_startproc
	pushq	%rbp
	.cfi_def_cfa_offset 16
	.cfi_offset %rbp, -16
	movq	%rsp, %rbp
	.cfi_def_cfa_register %rbp
	pushq	%r14
	pushq	%rbx
	subq	$32, %rsp
	.cfi_offset %rbx, -32
	.cfi_offset %r14, -24
	movq	(%rdi), %rbx
	cmpl	$1, (%rbx)
	jne	LBB38_2
	addq	$4, %rbx
	leaq	-48(%rbp), %r14
	leaq	l___unnamed_104(%rip), %rdx
	movl	$7, %ecx
	movq	%r14, %rdi
	callq	__ZN4core3fmt9Formatter11debug_tuple17h15ca25ad759edd1cE
	leaq	-24(%rbp), %rsi
	movq	%rbx, -24(%rbp)
	leaq	l___unnamed_105(%rip), %rdx
	jmp	LBB38_3
LBB38_2:
	addq	$8, %rbx
	leaq	-48(%rbp), %r14
	leaq	l___unnamed_106(%rip), %rdx
	movl	$5, %ecx
	movq	%r14, %rdi
	callq	__ZN4core3fmt9Formatter11debug_tuple17h15ca25ad759edd1cE
	leaq	-24(%rbp), %rsi
	movq	%rbx, -24(%rbp)
	leaq	l___unnamed_103(%rip), %rdx
LBB38_3:
	movq	%r14, %rdi
	callq	__ZN4core3fmt8builders10DebugTuple5field17hf36121153a94f236E
	movq	%r14, %rdi
	callq	__ZN4core3fmt8builders10DebugTuple6finish17h68acf09c6f6593f2E
	addq	$32, %rsp
	popq	%rbx
	popq	%r14
	popq	%rbp
	retq
	.cfi_endproc

	.p2align	4, 0x90
__ZN42_$LT$$RF$T$u20$as$u20$core..fmt..Debug$GT$3fmt17h227365d479b84eddE:
	.cfi_startproc
	pushq	%rbp
	.cfi_def_cfa_offset 16
	.cfi_offset %rbp, -16
	movq	%rsp, %rbp
	.cfi_def_cfa_register %rbp
	pushq	%r14
	pushq	%rbx
	subq	$80, %rsp
	.cfi_offset %rbx, -32
	.cfi_offset %r14, -24
	movq	(%rdi), %rbx
	leaq	l___unnamed_107(%rip), %rdx
	leaq	-96(%rbp), %r14
	movl	$6, %ecx
	movq	%r14, %rdi
	callq	__ZN4core3fmt9Formatter12debug_struct17h985c0158d1fc7193E
	movq	(%rbx), %rax
	movq	%rax, -32(%rbp)
	movq	__ZN59_$LT$proc_macro2..Literal$u20$as$u20$core..fmt..Display$GT$3fmt17h3429fe76352e3b2eE@GOTPCREL(%rip), %rax
	movq	%rax, -24(%rbp)
	leaq	l___unnamed_18(%rip), %rax
	movq	%rax, -80(%rbp)
	movq	$1, -72(%rbp)
	movq	$0, -64(%rbp)
	leaq	-32(%rbp), %rax
	movq	%rax, -48(%rbp)
	movq	$1, -40(%rbp)
	leaq	l___unnamed_19(%rip), %rsi
	leaq	l___unnamed_20(%rip), %r8
	leaq	-80(%rbp), %rcx
	movl	$5, %edx
	movq	%r14, %rdi
	callq	__ZN4core3fmt8builders11DebugStruct5field17h9c15dc155278eed2E
	movq	%rax, %rdi
	callq	__ZN4core3fmt8builders11DebugStruct6finish17h26808393f3fed630E
	addq	$80, %rsp
	popq	%rbx
	popq	%r14
	popq	%rbp
	retq
	.cfi_endproc

	.p2align	4, 0x90
__ZN42_$LT$$RF$T$u20$as$u20$core..fmt..Debug$GT$3fmt17h239a1d5fcd8ad2d7E:
	.cfi_startproc
	pushq	%rbp
	.cfi_def_cfa_offset 16
	.cfi_offset %rbp, -16
	movq	%rsp, %rbp
	.cfi_def_cfa_register %rbp
	pushq	%r14
	pushq	%rbx
	subq	$32, %rsp
	.cfi_offset %rbx, -32
	.cfi_offset %r14, -24
	movq	(%rdi), %rbx
	leaq	L___unnamed_108(%rip), %rdx
	leaq	-40(%rbp), %r14
	movl	$8, %ecx
	movq	%r14, %rdi
	callq	__ZN4core3fmt9Formatter12debug_struct17h985c0158d1fc7193E
	movq	%rbx, -24(%rbp)
	leaq	l___unnamed_53(%rip), %rsi
	leaq	l___unnamed_54(%rip), %r8
	leaq	-24(%rbp), %rcx
	movl	$12, %edx
	movq	%r14, %rdi
	callq	__ZN4core3fmt8builders11DebugStruct5field17h9c15dc155278eed2E
	movq	%r14, %rdi
	callq	__ZN4core3fmt8builders11DebugStruct6finish17h26808393f3fed630E
	addq	$32, %rsp
	popq	%rbx
	popq	%r14
	popq	%rbp
	retq
	.cfi_endproc

	.p2align	4, 0x90
__ZN42_$LT$$RF$T$u20$as$u20$core..fmt..Debug$GT$3fmt17h243ac815dbcdd898E:
	.cfi_startproc
	pushq	%rbp
	.cfi_def_cfa_offset 16
	.cfi_offset %rbp, -16
	movq	%rsp, %rbp
	.cfi_def_cfa_register %rbp
	pushq	%r15
	pushq	%r14
	pushq	%r13
	pushq	%r12
	pushq	%rbx
	subq	$24, %rsp
	.cfi_offset %rbx, -56
	.cfi_offset %r12, -48
	.cfi_offset %r13, -40
	.cfi_offset %r14, -32
	.cfi_offset %r15, -24
	movq	(%rdi), %rax
	movq	(%rax), %r13
	movq	16(%rax), %rbx
	leaq	-64(%rbp), %rdi
	callq	__ZN4core3fmt9Formatter10debug_list17hd054f0986422feb9E
	testq	%rbx, %rbx
	je	LBB41_3
	imulq	$104, %rbx, %rbx
	leaq	l___unnamed_109(%rip), %r14
	leaq	-64(%rbp), %r15
	leaq	-48(%rbp), %r12
	.p2align	4, 0x90
LBB41_2:
	movq	%r13, -48(%rbp)
	addq	$104, %r13
	movq	%r15, %rdi
	movq	%r12, %rsi
	movq	%r14, %rdx
	callq	__ZN4core3fmt8builders9DebugList5entry17h5c0dec54538196dfE
	addq	$-104, %rbx
	jne	LBB41_2
LBB41_3:
	leaq	-64(%rbp), %rdi
	callq	__ZN4core3fmt8builders9DebugList6finish17h3635bd6af9b1c5a6E
	addq	$24, %rsp
	popq	%rbx
	popq	%r12
	popq	%r13
	popq	%r14
	popq	%r15
	popq	%rbp
	retq
	.cfi_endproc

	.p2align	4, 0x90
__ZN42_$LT$$RF$T$u20$as$u20$core..fmt..Debug$GT$3fmt17h245f4d3ee9716c85E:
	.cfi_startproc
	pushq	%rbp
	.cfi_def_cfa_offset 16
	.cfi_offset %rbp, -16
	movq	%rsp, %rbp
	.cfi_def_cfa_register %rbp
	movq	%rsi, %rdi
	leaq	l___unnamed_110(%rip), %rsi
	movl	$5, %edx
	popq	%rbp
	jmp	__ZN4core3fmt9Formatter9write_str17h957ea9717e49073dE
	.cfi_endproc

	.p2align	4, 0x90
__ZN42_$LT$$RF$T$u20$as$u20$core..fmt..Debug$GT$3fmt17h24d04c78286ca075E:
	.cfi_startproc
	pushq	%rbp
	.cfi_def_cfa_offset 16
	.cfi_offset %rbp, -16
	movq	%rsp, %rbp
	.cfi_def_cfa_register %rbp
	pushq	%r15
	pushq	%r14
	pushq	%rbx
	subq	$24, %rsp
	.cfi_offset %rbx, -40
	.cfi_offset %r14, -32
	.cfi_offset %r15, -24
	movq	(%rdi), %rbx
	leaq	48(%rbx), %r15
	leaq	l___unnamed_111(%rip), %rdx
	leaq	-48(%rbp), %r14
	movl	$29, %ecx
	movq	%r14, %rdi
	callq	__ZN4core3fmt9Formatter12debug_struct17h985c0158d1fc7193E
	movq	%r15, -32(%rbp)
	leaq	l___unnamed_88(%rip), %rsi
	leaq	l___unnamed_89(%rip), %r8
	leaq	-32(%rbp), %rcx
	movl	$11, %edx
	movq	%r14, %rdi
	callq	__ZN4core3fmt8builders11DebugStruct5field17h9c15dc155278eed2E
	movq	%rbx, -32(%rbp)
	addq	$32, %rbx
	leaq	l___unnamed_112(%rip), %rsi
	leaq	l___unnamed_113(%rip), %r8
	leaq	-32(%rbp), %rcx
	movl	$6, %edx
	movq	%r14, %rdi
	callq	__ZN4core3fmt8builders11DebugStruct5field17h9c15dc155278eed2E
	movq	%rbx, -32(%rbp)
	leaq	l___unnamed_114(%rip), %rsi
	leaq	l___unnamed_115(%rip), %r8
	leaq	-32(%rbp), %rcx
	movl	$6, %edx
	movq	%r14, %rdi
	callq	__ZN4core3fmt8builders11DebugStruct5field17h9c15dc155278eed2E
	movq	%r14, %rdi
	callq	__ZN4core3fmt8builders11DebugStruct6finish17h26808393f3fed630E
	addq	$24, %rsp
	popq	%rbx
	popq	%r14
	popq	%r15
	popq	%rbp
	retq
	.cfi_endproc

	.p2align	4, 0x90
__ZN42_$LT$$RF$T$u20$as$u20$core..fmt..Debug$GT$3fmt17h28aa4cee71bc95c5E:
	.cfi_startproc
	pushq	%rbp
	.cfi_def_cfa_offset 16
	.cfi_offset %rbp, -16
	movq	%rsp, %rbp
	.cfi_def_cfa_register %rbp
	pushq	%r14
	pushq	%rbx
	subq	$32, %rsp
	.cfi_offset %rbx, -32
	.cfi_offset %r14, -24
	movq	(%rdi), %rbx
	leaq	l___unnamed_116(%rip), %rdx
	leaq	-40(%rbp), %r14
	movl	$11, %ecx
	movq	%r14, %rdi
	callq	__ZN4core3fmt9Formatter12debug_struct17h985c0158d1fc7193E
	movq	%rbx, -24(%rbp)
	leaq	l___unnamed_53(%rip), %rsi
	leaq	l___unnamed_54(%rip), %r8
	leaq	-24(%rbp), %rcx
	movl	$12, %edx
	movq	%r14, %rdi
	callq	__ZN4core3fmt8builders11DebugStruct5field17h9c15dc155278eed2E
	movq	%r14, %rdi
	callq	__ZN4core3fmt8builders11DebugStruct6finish17h26808393f3fed630E
	addq	$32, %rsp
	popq	%rbx
	popq	%r14
	popq	%rbp
	retq
	.cfi_endproc

	.p2align	4, 0x90
__ZN42_$LT$$RF$T$u20$as$u20$core..fmt..Debug$GT$3fmt17h28f90233952a3933E:
	.cfi_startproc
	pushq	%rbp
	.cfi_def_cfa_offset 16
	.cfi_offset %rbp, -16
	movq	%rsp, %rbp
	.cfi_def_cfa_register %rbp
	movq	%rsi, %rdi
	leaq	l___unnamed_117(%rip), %rsi
	movl	$2, %edx
	popq	%rbp
	jmp	__ZN4core3fmt9Formatter9write_str17h957ea9717e49073dE
	.cfi_endproc

	.p2align	4, 0x90
__ZN42_$LT$$RF$T$u20$as$u20$core..fmt..Debug$GT$3fmt17h290003881a4692f2E:
	.cfi_startproc
	pushq	%rbp
	.cfi_def_cfa_offset 16
	.cfi_offset %rbp, -16
	movq	%rsp, %rbp
	.cfi_def_cfa_register %rbp
	pushq	%r14
	pushq	%rbx
	subq	$32, %rsp
	.cfi_offset %rbx, -32
	.cfi_offset %r14, -24
	movq	(%rdi), %rbx
	cmpl	$1, (%rbx)
	jne	LBB46_2
	addq	$4, %rbx
	leaq	-48(%rbp), %r14
	leaq	L___unnamed_14(%rip), %rdx
	movl	$4, %ecx
	movq	%r14, %rdi
	callq	__ZN4core3fmt9Formatter11debug_tuple17h15ca25ad759edd1cE
	movq	%rbx, -24(%rbp)
	leaq	l___unnamed_118(%rip), %rdx
	leaq	-24(%rbp), %rsi
	movq	%r14, %rdi
	callq	__ZN4core3fmt8builders10DebugTuple5field17hf36121153a94f236E
	jmp	LBB46_3
LBB46_2:
	leaq	-48(%rbp), %r14
	leaq	L___unnamed_16(%rip), %rdx
	movl	$4, %ecx
	movq	%r14, %rdi
	callq	__ZN4core3fmt9Formatter11debug_tuple17h15ca25ad759edd1cE
LBB46_3:
	movq	%r14, %rdi
	callq	__ZN4core3fmt8builders10DebugTuple6finish17h68acf09c6f6593f2E
	addq	$32, %rsp
	popq	%rbx
	popq	%r14
	popq	%rbp
	retq
	.cfi_endproc

	.p2align	4, 0x90
__ZN42_$LT$$RF$T$u20$as$u20$core..fmt..Debug$GT$3fmt17h295f9a4217f43ed8E:
	.cfi_startproc
	pushq	%rbp
	.cfi_def_cfa_offset 16
	.cfi_offset %rbp, -16
	movq	%rsp, %rbp
	.cfi_def_cfa_register %rbp
	movq	%rsi, %rdi
	leaq	L___unnamed_119(%rip), %rsi
	movl	$4, %edx
	popq	%rbp
	jmp	__ZN4core3fmt9Formatter9write_str17h957ea9717e49073dE
	.cfi_endproc

	.p2align	4, 0x90
__ZN42_$LT$$RF$T$u20$as$u20$core..fmt..Debug$GT$3fmt17h298eef7d9f0a45d4E:
	.cfi_startproc
	pushq	%rbp
	.cfi_def_cfa_offset 16
	.cfi_offset %rbp, -16
	movq	%rsp, %rbp
	.cfi_def_cfa_register %rbp
	pushq	%r14
	pushq	%rbx
	subq	$32, %rsp
	.cfi_offset %rbx, -32
	.cfi_offset %r14, -24
	movq	(%rdi), %rbx
	leaq	l___unnamed_120(%rip), %rdx
	leaq	-40(%rbp), %r14
	movl	$9, %ecx
	movq	%r14, %rdi
	callq	__ZN4core3fmt9Formatter12debug_struct17h985c0158d1fc7193E
	movq	%rbx, -24(%rbp)
	leaq	l___unnamed_121(%rip), %rsi
	leaq	l___unnamed_122(%rip), %r8
	leaq	-24(%rbp), %rcx
	movl	$3, %edx
	movq	%r14, %rdi
	callq	__ZN4core3fmt8builders11DebugStruct5field17h9c15dc155278eed2E
	movq	%r14, %rdi
	callq	__ZN4core3fmt8builders11DebugStruct6finish17h26808393f3fed630E
	addq	$32, %rsp
	popq	%rbx
	popq	%r14
	popq	%rbp
	retq
	.cfi_endproc

	.p2align	4, 0x90
__ZN42_$LT$$RF$T$u20$as$u20$core..fmt..Debug$GT$3fmt17h2d384874f3bfbdedE:
	.cfi_startproc
	pushq	%rbp
	.cfi_def_cfa_offset 16
	.cfi_offset %rbp, -16
	movq	%rsp, %rbp
	.cfi_def_cfa_register %rbp
	movq	%rsi, %rdi
	leaq	l___unnamed_123(%rip), %rsi
	movl	$7, %edx
	popq	%rbp
	jmp	__ZN4core3fmt9Formatter9write_str17h957ea9717e49073dE
	.cfi_endproc

	.p2align	4, 0x90
__ZN42_$LT$$RF$T$u20$as$u20$core..fmt..Debug$GT$3fmt17h2d45570b8414e04fE:
	.cfi_startproc
	pushq	%rbp
	.cfi_def_cfa_offset 16
	.cfi_offset %rbp, -16
	movq	%rsp, %rbp
	.cfi_def_cfa_register %rbp
	movq	%rsi, %rdi
	leaq	l___unnamed_124(%rip), %rsi
	movl	$2, %edx
	popq	%rbp
	jmp	__ZN4core3fmt9Formatter9write_str17h957ea9717e49073dE
	.cfi_endproc

	.p2align	4, 0x90
__ZN42_$LT$$RF$T$u20$as$u20$core..fmt..Debug$GT$3fmt17h2e670188926d04c7E:
	.cfi_startproc
	pushq	%rbp
	.cfi_def_cfa_offset 16
	.cfi_offset %rbp, -16
	movq	%rsp, %rbp
	.cfi_def_cfa_register %rbp
	movq	%rsi, %rdi
	leaq	l___unnamed_125(%rip), %rsi
	movl	$6, %edx
	popq	%rbp
	jmp	__ZN4core3fmt9Formatter9write_str17h957ea9717e49073dE
	.cfi_endproc

	.p2align	4, 0x90
__ZN42_$LT$$RF$T$u20$as$u20$core..fmt..Debug$GT$3fmt17h2f08bd0075a8dde6E:
	.cfi_startproc
	pushq	%rbp
	.cfi_def_cfa_offset 16
	.cfi_offset %rbp, -16
	movq	%rsp, %rbp
	.cfi_def_cfa_register %rbp
	pushq	%r14
	pushq	%rbx
	subq	$32, %rsp
	.cfi_offset %rbx, -32
	.cfi_offset %r14, -24
	movq	(%rdi), %rbx
	leaq	l___unnamed_126(%rip), %rdx
	leaq	-40(%rbp), %r14
	movl	$10, %ecx
	movq	%r14, %rdi
	callq	__ZN4core3fmt9Formatter12debug_struct17h985c0158d1fc7193E
	movq	%rbx, -24(%rbp)
	leaq	l___unnamed_53(%rip), %rsi
	leaq	l___unnamed_54(%rip), %r8
	leaq	-24(%rbp), %rcx
	movl	$12, %edx
	movq	%r14, %rdi
	callq	__ZN4core3fmt8builders11DebugStruct5field17h9c15dc155278eed2E
	movq	%r14, %rdi
	callq	__ZN4core3fmt8builders11DebugStruct6finish17h26808393f3fed630E
	addq	$32, %rsp
	popq	%rbx
	popq	%r14
	popq	%rbp
	retq
	.cfi_endproc

	.p2align	4, 0x90
__ZN42_$LT$$RF$T$u20$as$u20$core..fmt..Debug$GT$3fmt17h30771d391f3be4c6E:
	.cfi_startproc
	pushq	%rbp
	.cfi_def_cfa_offset 16
	.cfi_offset %rbp, -16
	movq	%rsp, %rbp
	.cfi_def_cfa_register %rbp
	pushq	%r14
	pushq	%rbx
	subq	$32, %rsp
	.cfi_offset %rbx, -32
	.cfi_offset %r14, -24
	movq	(%rdi), %rbx
	cmpq	$41, (%rbx)
	jne	LBB53_1
	leaq	-48(%rbp), %r14
	leaq	L___unnamed_16(%rip), %rdx
	movl	$4, %ecx
	movq	%r14, %rdi
	callq	__ZN4core3fmt9Formatter11debug_tuple17h15ca25ad759edd1cE
	jmp	LBB53_3
LBB53_1:
	leaq	-48(%rbp), %r14
	leaq	L___unnamed_14(%rip), %rdx
	movl	$4, %ecx
	movq	%r14, %rdi
	callq	__ZN4core3fmt9Formatter11debug_tuple17h15ca25ad759edd1cE
	movq	%rbx, -24(%rbp)
	leaq	l___unnamed_51(%rip), %rdx
	leaq	-24(%rbp), %rsi
	movq	%r14, %rdi
	callq	__ZN4core3fmt8builders10DebugTuple5field17hf36121153a94f236E
LBB53_3:
	movq	%r14, %rdi
	callq	__ZN4core3fmt8builders10DebugTuple6finish17h68acf09c6f6593f2E
	addq	$32, %rsp
	popq	%rbx
	popq	%r14
	popq	%rbp
	retq
	.cfi_endproc

	.p2align	4, 0x90
__ZN42_$LT$$RF$T$u20$as$u20$core..fmt..Debug$GT$3fmt17h31affed9d3b67a39E:
	.cfi_startproc
	pushq	%rbp
	.cfi_def_cfa_offset 16
	.cfi_offset %rbp, -16
	movq	%rsp, %rbp
	.cfi_def_cfa_register %rbp
	pushq	%r15
	pushq	%r14
	pushq	%r12
	pushq	%rbx
	subq	$32, %rsp
	.cfi_offset %rbx, -48
	.cfi_offset %r12, -40
	.cfi_offset %r14, -32
	.cfi_offset %r15, -24
	movq	(%rdi), %rbx
	leaq	32(%rbx), %r15
	leaq	36(%rbx), %r12
	leaq	L___unnamed_127(%rip), %rdx
	leaq	-56(%rbp), %r14
	movl	$8, %ecx
	movq	%r14, %rdi
	callq	__ZN4core3fmt9Formatter12debug_struct17h985c0158d1fc7193E
	movq	%r15, -40(%rbp)
	leaq	l___unnamed_128(%rip), %rsi
	leaq	l___unnamed_129(%rip), %r8
	leaq	-40(%rbp), %rcx
	movl	$10, %edx
	movq	%r14, %rdi
	callq	__ZN4core3fmt8builders11DebugStruct5field17h9c15dc155278eed2E
	movq	%r12, -40(%rbp)
	leaq	l___unnamed_130(%rip), %rsi
	leaq	l___unnamed_131(%rip), %r8
	leaq	-40(%rbp), %rcx
	movl	$11, %edx
	movq	%r14, %rdi
	callq	__ZN4core3fmt8builders11DebugStruct5field17h9c15dc155278eed2E
	movq	%rbx, -40(%rbp)
	leaq	L___unnamed_132(%rip), %rsi
	leaq	l___unnamed_133(%rip), %r8
	leaq	-40(%rbp), %rcx
	movl	$8, %edx
	movq	%r14, %rdi
	callq	__ZN4core3fmt8builders11DebugStruct5field17h9c15dc155278eed2E
	movq	%r14, %rdi
	callq	__ZN4core3fmt8builders11DebugStruct6finish17h26808393f3fed630E
	addq	$32, %rsp
	popq	%rbx
	popq	%r12
	popq	%r14
	popq	%r15
	popq	%rbp
	retq
	.cfi_endproc

	.p2align	4, 0x90
__ZN42_$LT$$RF$T$u20$as$u20$core..fmt..Debug$GT$3fmt17h31b5070fbfd1e331E:
	.cfi_startproc
	pushq	%rbp
	.cfi_def_cfa_offset 16
	.cfi_offset %rbp, -16
	movq	%rsp, %rbp
	.cfi_def_cfa_register %rbp
	movq	(%rdi), %rdi
	popq	%rbp
	jmp	__ZN62_$LT$syn..generics..ConstParam$u20$as$u20$core..fmt..Debug$GT$3fmt17h227da7be35b6ec73E
	.cfi_endproc

	.p2align	4, 0x90
__ZN42_$LT$$RF$T$u20$as$u20$core..fmt..Debug$GT$3fmt17h323b403ffd761857E:
	.cfi_startproc
	pushq	%rbp
	.cfi_def_cfa_offset 16
	.cfi_offset %rbp, -16
	movq	%rsp, %rbp
	.cfi_def_cfa_register %rbp
	pushq	%r15
	pushq	%r14
	pushq	%r13
	pushq	%r12
	pushq	%rbx
	subq	$24, %rsp
	.cfi_offset %rbx, -56
	.cfi_offset %r12, -48
	.cfi_offset %r13, -40
	.cfi_offset %r14, -32
	.cfi_offset %r15, -24
	movq	(%rdi), %rbx
	leaq	-64(%rbp), %rdi
	callq	__ZN4core3fmt9Formatter10debug_list17hd054f0986422feb9E
	movq	%rbx, -48(%rbp)
	movq	16(%rbx), %rax
	testq	%rax, %rax
	je	LBB56_3
	movq	-48(%rbp), %rcx
	movq	(%rcx), %rbx
	imulq	$240, %rax, %r14
	addq	%rbx, %r14
	leaq	l___unnamed_134(%rip), %r15
	leaq	-64(%rbp), %r12
	leaq	l___unnamed_72(%rip), %r13
	.p2align	4, 0x90
LBB56_2:
	movq	%r12, %rdi
	movq	%rbx, %rsi
	movq	%r15, %rdx
	callq	__ZN4core3fmt8builders9DebugList5entry17h5c0dec54538196dfE
	leaq	232(%rbx), %rsi
	movq	%r12, %rdi
	movq	%r13, %rdx
	callq	__ZN4core3fmt8builders9DebugList5entry17h5c0dec54538196dfE
	addq	$240, %rbx
	cmpq	%r14, %rbx
	jne	LBB56_2
LBB56_3:
	movq	-48(%rbp), %rsi
	cmpq	$0, 24(%rsi)
	je	LBB56_5
	addq	$24, %rsi
	leaq	l___unnamed_135(%rip), %rdx
	leaq	-64(%rbp), %rdi
	callq	__ZN4core3fmt8builders9DebugList5entry17h5c0dec54538196dfE
LBB56_5:
	leaq	-64(%rbp), %rdi
	callq	__ZN4core3fmt8builders9DebugList6finish17h3635bd6af9b1c5a6E
	addq	$24, %rsp
	popq	%rbx
	popq	%r12
	popq	%r13
	popq	%r14
	popq	%r15
	popq	%rbp
	retq
	.cfi_endproc

	.p2align	4, 0x90
__ZN42_$LT$$RF$T$u20$as$u20$core..fmt..Debug$GT$3fmt17h3397b6fc3807cde4E:
	.cfi_startproc
	pushq	%rbp
	.cfi_def_cfa_offset 16
	.cfi_offset %rbp, -16
	movq	%rsp, %rbp
	.cfi_def_cfa_register %rbp
	pushq	%r14
	pushq	%rbx
	subq	$32, %rsp
	.cfi_offset %rbx, -32
	.cfi_offset %r14, -24
	movq	(%rdi), %rbx
	leaq	l___unnamed_136(%rip), %rdx
	leaq	-40(%rbp), %r14
	movl	$9, %ecx
	movq	%r14, %rdi
	callq	__ZN4core3fmt9Formatter12debug_struct17h985c0158d1fc7193E
	movq	%rbx, -24(%rbp)
	leaq	l___unnamed_53(%rip), %rsi
	leaq	l___unnamed_54(%rip), %r8
	leaq	-24(%rbp), %rcx
	movl	$12, %edx
	movq	%r14, %rdi
	callq	__ZN4core3fmt8builders11DebugStruct5field17h9c15dc155278eed2E
	movq	%r14, %rdi
	callq	__ZN4core3fmt8builders11DebugStruct6finish17h26808393f3fed630E
	addq	$32, %rsp
	popq	%rbx
	popq	%r14
	popq	%rbp
	retq
	.cfi_endproc

	.p2align	4, 0x90
__ZN42_$LT$$RF$T$u20$as$u20$core..fmt..Debug$GT$3fmt17h34c7aad550b07495E:
	.cfi_startproc
	pushq	%rbp
	.cfi_def_cfa_offset 16
	.cfi_offset %rbp, -16
	movq	%rsp, %rbp
	.cfi_def_cfa_register %rbp
	pushq	%r14
	pushq	%rbx
	subq	$32, %rsp
	.cfi_offset %rbx, -32
	.cfi_offset %r14, -24
	movq	(%rdi), %rbx
	cmpq	$0, (%rbx)
	je	LBB58_2
	leaq	-48(%rbp), %r14
	leaq	L___unnamed_14(%rip), %rdx
	movl	$4, %ecx
	movq	%r14, %rdi
	callq	__ZN4core3fmt9Formatter11debug_tuple17h15ca25ad759edd1cE
	movq	%rbx, -24(%rbp)
	leaq	l___unnamed_137(%rip), %rdx
	leaq	-24(%rbp), %rsi
	movq	%r14, %rdi
	callq	__ZN4core3fmt8builders10DebugTuple5field17hf36121153a94f236E
	jmp	LBB58_3
LBB58_2:
	leaq	-48(%rbp), %r14
	leaq	L___unnamed_16(%rip), %rdx
	movl	$4, %ecx
	movq	%r14, %rdi
	callq	__ZN4core3fmt9Formatter11debug_tuple17h15ca25ad759edd1cE
LBB58_3:
	movq	%r14, %rdi
	callq	__ZN4core3fmt8builders10DebugTuple6finish17h68acf09c6f6593f2E
	addq	$32, %rsp
	popq	%rbx
	popq	%r14
	popq	%rbp
	retq
	.cfi_endproc

	.p2align	4, 0x90
__ZN42_$LT$$RF$T$u20$as$u20$core..fmt..Debug$GT$3fmt17h35cea0708100a72cE:
	.cfi_startproc
	pushq	%rbp
	.cfi_def_cfa_offset 16
	.cfi_offset %rbp, -16
	movq	%rsp, %rbp
	.cfi_def_cfa_register %rbp
	movq	%rsi, %rdi
	leaq	L___unnamed_138(%rip), %rsi
	movl	$4, %edx
	popq	%rbp
	jmp	__ZN4core3fmt9Formatter9write_str17h957ea9717e49073dE
	.cfi_endproc

	.p2align	4, 0x90
__ZN42_$LT$$RF$T$u20$as$u20$core..fmt..Debug$GT$3fmt17h38988a0ae1a44239E:
	.cfi_startproc
	pushq	%rbp
	.cfi_def_cfa_offset 16
	.cfi_offset %rbp, -16
	movq	%rsp, %rbp
	.cfi_def_cfa_register %rbp
	pushq	%r15
	pushq	%r14
	pushq	%rbx
	subq	$24, %rsp
	.cfi_offset %rbx, -40
	.cfi_offset %r14, -32
	.cfi_offset %r15, -24
	movq	(%rdi), %rbx
	leaq	l___unnamed_139(%rip), %rdx
	leaq	-48(%rbp), %r14
	movl	$9, %ecx
	movq	%r14, %rdi
	callq	__ZN4core3fmt9Formatter12debug_struct17h985c0158d1fc7193E
	movq	%rbx, -32(%rbp)
	leaq	32(%rbx), %r15
	addq	$24, %rbx
	leaq	l___unnamed_22(%rip), %rsi
	leaq	l___unnamed_23(%rip), %r8
	leaq	-32(%rbp), %rcx
	movl	$5, %edx
	movq	%r14, %rdi
	callq	__ZN4core3fmt8builders11DebugStruct5field17h9c15dc155278eed2E
	movq	%r15, -32(%rbp)
	leaq	l___unnamed_88(%rip), %rsi
	leaq	l___unnamed_89(%rip), %r8
	leaq	-32(%rbp), %rcx
	movl	$11, %edx
	movq	%r14, %rdi
	callq	__ZN4core3fmt8builders11DebugStruct5field17h9c15dc155278eed2E
	movq	%rbx, -32(%rbp)
	leaq	L___unnamed_26(%rip), %rsi
	leaq	l___unnamed_27(%rip), %r8
	leaq	-32(%rbp), %rcx
	movl	$4, %edx
	movq	%r14, %rdi
	callq	__ZN4core3fmt8builders11DebugStruct5field17h9c15dc155278eed2E
	movq	%r14, %rdi
	callq	__ZN4core3fmt8builders11DebugStruct6finish17h26808393f3fed630E
	addq	$24, %rsp
	popq	%rbx
	popq	%r14
	popq	%r15
	popq	%rbp
	retq
	.cfi_endproc

	.p2align	4, 0x90
__ZN42_$LT$$RF$T$u20$as$u20$core..fmt..Debug$GT$3fmt17h392ec5b2e5f58faeE:
	.cfi_startproc
	pushq	%rbp
	.cfi_def_cfa_offset 16
	.cfi_offset %rbp, -16
	movq	%rsp, %rbp
	.cfi_def_cfa_register %rbp
	pushq	%r14
	pushq	%rbx
	subq	$32, %rsp
	.cfi_offset %rbx, -32
	.cfi_offset %r14, -24
	movq	(%rdi), %rbx
	cmpl	$1, (%rbx)
	jne	LBB61_2
	addq	$4, %rbx
	leaq	-48(%rbp), %r14
	leaq	L___unnamed_14(%rip), %rdx
	movl	$4, %ecx
	movq	%r14, %rdi
	callq	__ZN4core3fmt9Formatter11debug_tuple17h15ca25ad759edd1cE
	movq	%rbx, -24(%rbp)
	leaq	l___unnamed_13(%rip), %rdx
	leaq	-24(%rbp), %rsi
	movq	%r14, %rdi
	callq	__ZN4core3fmt8builders10DebugTuple5field17hf36121153a94f236E
	jmp	LBB61_3
LBB61_2:
	leaq	-48(%rbp), %r14
	leaq	L___unnamed_16(%rip), %rdx
	movl	$4, %ecx
	movq	%r14, %rdi
	callq	__ZN4core3fmt9Formatter11debug_tuple17h15ca25ad759edd1cE
LBB61_3:
	movq	%r14, %rdi
	callq	__ZN4core3fmt8builders10DebugTuple6finish17h68acf09c6f6593f2E
	addq	$32, %rsp
	popq	%rbx
	popq	%r14
	popq	%rbp
	retq
	.cfi_endproc

	.p2align	4, 0x90
__ZN42_$LT$$RF$T$u20$as$u20$core..fmt..Debug$GT$3fmt17h3a62e8a9a0dc34d4E:
	.cfi_startproc
	pushq	%rbp
	.cfi_def_cfa_offset 16
	.cfi_offset %rbp, -16
	movq	%rsp, %rbp
	.cfi_def_cfa_register %rbp
	movq	%rsi, %rdi
	leaq	l___unnamed_140(%rip), %rsi
	movl	$3, %edx
	popq	%rbp
	jmp	__ZN4core3fmt9Formatter9write_str17h957ea9717e49073dE
	.cfi_endproc

	.p2align	4, 0x90
__ZN42_$LT$$RF$T$u20$as$u20$core..fmt..Debug$GT$3fmt17h3c9e61dbb432fb3fE:
	.cfi_startproc
	pushq	%rbp
	.cfi_def_cfa_offset 16
	.cfi_offset %rbp, -16
	movq	%rsp, %rbp
	.cfi_def_cfa_register %rbp
	movq	(%rdi), %rdi
	popq	%rbp
	jmp	__ZN50_$LT$syn..lit..Lit$u20$as$u20$core..fmt..Debug$GT$3fmt17h3e6e6145b199215eE
	.cfi_endproc

	.p2align	4, 0x90
__ZN42_$LT$$RF$T$u20$as$u20$core..fmt..Debug$GT$3fmt17h3cfe0bcab3aced3bE:
	.cfi_startproc
	pushq	%rbp
	.cfi_def_cfa_offset 16
	.cfi_offset %rbp, -16
	movq	%rsp, %rbp
	.cfi_def_cfa_register %rbp
	pushq	%r14
	pushq	%rbx
	subq	$32, %rsp
	.cfi_offset %rbx, -32
	.cfi_offset %r14, -24
	movq	(%rdi), %rbx
	cmpl	$1, (%rbx)
	jne	LBB64_2
	addq	$4, %rbx
	leaq	-48(%rbp), %r14
	leaq	L___unnamed_14(%rip), %rdx
	movl	$4, %ecx
	movq	%r14, %rdi
	callq	__ZN4core3fmt9Formatter11debug_tuple17h15ca25ad759edd1cE
	movq	%rbx, -24(%rbp)
	leaq	l___unnamed_141(%rip), %rdx
	leaq	-24(%rbp), %rsi
	movq	%r14, %rdi
	callq	__ZN4core3fmt8builders10DebugTuple5field17hf36121153a94f236E
	jmp	LBB64_3
LBB64_2:
	leaq	-48(%rbp), %r14
	leaq	L___unnamed_16(%rip), %rdx
	movl	$4, %ecx
	movq	%r14, %rdi
	callq	__ZN4core3fmt9Formatter11debug_tuple17h15ca25ad759edd1cE
LBB64_3:
	movq	%r14, %rdi
	callq	__ZN4core3fmt8builders10DebugTuple6finish17h68acf09c6f6593f2E
	addq	$32, %rsp
	popq	%rbx
	popq	%r14
	popq	%rbp
	retq
	.cfi_endproc

	.p2align	4, 0x90
__ZN42_$LT$$RF$T$u20$as$u20$core..fmt..Debug$GT$3fmt17h3d45d1ca2b7bc589E:
	.cfi_startproc
	pushq	%rbp
	.cfi_def_cfa_offset 16
	.cfi_offset %rbp, -16
	movq	%rsp, %rbp
	.cfi_def_cfa_register %rbp
	pushq	%r15
	pushq	%r14
	pushq	%rbx
	subq	$24, %rsp
	.cfi_offset %rbx, -40
	.cfi_offset %r14, -32
	.cfi_offset %r15, -24
	movq	(%rdi), %rax
	movq	(%rax), %rbx
	leaq	32(%rbx), %r15
	leaq	L___unnamed_142(%rip), %rdx
	leaq	-48(%rbp), %r14
	movl	$4, %ecx
	movq	%r14, %rdi
	callq	__ZN4core3fmt9Formatter12debug_struct17h985c0158d1fc7193E
	movq	%r15, -32(%rbp)
	leaq	l___unnamed_143(%rip), %rsi
	leaq	l___unnamed_144(%rip), %r8
	leaq	-32(%rbp), %rcx
	movl	$13, %edx
	movq	%r14, %rdi
	callq	__ZN4core3fmt8builders11DebugStruct5field17h9c15dc155278eed2E
	movq	%rbx, -32(%rbp)
	leaq	L___unnamed_145(%rip), %rsi
	leaq	l___unnamed_146(%rip), %r8
	leaq	-32(%rbp), %rcx
	movl	$8, %edx
	movq	%r14, %rdi
	callq	__ZN4core3fmt8builders11DebugStruct5field17h9c15dc155278eed2E
	movq	%r14, %rdi
	callq	__ZN4core3fmt8builders11DebugStruct6finish17h26808393f3fed630E
	addq	$24, %rsp
	popq	%rbx
	popq	%r14
	popq	%r15
	popq	%rbp
	retq
	.cfi_endproc

	.p2align	4, 0x90
__ZN42_$LT$$RF$T$u20$as$u20$core..fmt..Debug$GT$3fmt17h3e076a418580bd8eE:
	.cfi_startproc
	pushq	%rbp
	.cfi_def_cfa_offset 16
	.cfi_offset %rbp, -16
	movq	%rsp, %rbp
	.cfi_def_cfa_register %rbp
	movq	%rsi, %rdi
	leaq	l___unnamed_147(%rip), %rsi
	movl	$3, %edx
	popq	%rbp
	jmp	__ZN4core3fmt9Formatter9write_str17h957ea9717e49073dE
	.cfi_endproc

	.p2align	4, 0x90
__ZN42_$LT$$RF$T$u20$as$u20$core..fmt..Debug$GT$3fmt17h3ee36550df0f7052E:
	.cfi_startproc
	pushq	%rbp
	.cfi_def_cfa_offset 16
	.cfi_offset %rbp, -16
	movq	%rsp, %rbp
	.cfi_def_cfa_register %rbp
	pushq	%r14
	pushq	%rbx
	subq	$32, %rsp
	.cfi_offset %rbx, -32
	.cfi_offset %r14, -24
	movq	(%rdi), %rbx
	leaq	l___unnamed_148(%rip), %rdx
	leaq	-40(%rbp), %r14
	movl	$9, %ecx
	movq	%r14, %rdi
	callq	__ZN4core3fmt9Formatter12debug_struct17h985c0158d1fc7193E
	movq	%rbx, -24(%rbp)
	leaq	l___unnamed_53(%rip), %rsi
	leaq	l___unnamed_54(%rip), %r8
	leaq	-24(%rbp), %rcx
	movl	$12, %edx
	movq	%r14, %rdi
	callq	__ZN4core3fmt8builders11DebugStruct5field17h9c15dc155278eed2E
	movq	%r14, %rdi
	callq	__ZN4core3fmt8builders11DebugStruct6finish17h26808393f3fed630E
	addq	$32, %rsp
	popq	%rbx
	popq	%r14
	popq	%rbp
	retq
	.cfi_endproc

	.p2align	4, 0x90
__ZN42_$LT$$RF$T$u20$as$u20$core..fmt..Debug$GT$3fmt17h3f667aed47bd9a62E:
	.cfi_startproc
	pushq	%rbp
	.cfi_def_cfa_offset 16
	.cfi_offset %rbp, -16
	movq	%rsp, %rbp
	.cfi_def_cfa_register %rbp
	pushq	%r15
	pushq	%r14
	pushq	%r13
	pushq	%r12
	pushq	%rbx
	subq	$24, %rsp
	.cfi_offset %rbx, -56
	.cfi_offset %r12, -48
	.cfi_offset %r13, -40
	.cfi_offset %r14, -32
	.cfi_offset %r15, -24
	movq	(%rdi), %rbx
	leaq	l___unnamed_149(%rip), %rdx
	leaq	-64(%rbp), %r15
	movl	$11, %ecx
	movq	%r15, %rdi
	callq	__ZN4core3fmt9Formatter12debug_struct17h985c0158d1fc7193E
	movq	%rbx, -48(%rbp)
	leaq	24(%rbx), %r12
	leaq	104(%rbx), %r13
	leaq	72(%rbx), %r14
	leaq	l___unnamed_22(%rip), %rsi
	leaq	l___unnamed_23(%rip), %r8
	leaq	-48(%rbp), %rcx
	movl	$5, %edx
	movq	%r15, %rdi
	callq	__ZN4core3fmt8builders11DebugStruct5field17h9c15dc155278eed2E
	movq	%r12, -48(%rbp)
	leaq	L___unnamed_150(%rip), %rsi
	leaq	l___unnamed_151(%rip), %r8
	leaq	-48(%rbp), %rcx
	movl	$8, %edx
	movq	%r15, %rdi
	callq	__ZN4core3fmt8builders11DebugStruct5field17h9c15dc155278eed2E
	movq	%r13, -48(%rbp)
	leaq	l___unnamed_79(%rip), %rsi
	leaq	l___unnamed_152(%rip), %r8
	leaq	-48(%rbp), %rcx
	movl	$11, %edx
	movq	%r15, %rdi
	callq	__ZN4core3fmt8builders11DebugStruct5field17h9c15dc155278eed2E
	movq	%r14, -48(%rbp)
	leaq	l___unnamed_47(%rip), %rsi
	leaq	l___unnamed_153(%rip), %r8
	leaq	-48(%rbp), %rcx
	movl	$6, %edx
	movq	%r15, %rdi
	callq	__ZN4core3fmt8builders11DebugStruct5field17h9c15dc155278eed2E
	movq	%r15, %rdi
	callq	__ZN4core3fmt8builders11DebugStruct6finish17h26808393f3fed630E
	addq	$24, %rsp
	popq	%rbx
	popq	%r12
	popq	%r13
	popq	%r14
	popq	%r15
	popq	%rbp
	retq
	.cfi_endproc

	.p2align	4, 0x90
__ZN42_$LT$$RF$T$u20$as$u20$core..fmt..Debug$GT$3fmt17h403310204453933dE:
	.cfi_startproc
	pushq	%rbp
	.cfi_def_cfa_offset 16
	.cfi_offset %rbp, -16
	movq	%rsp, %rbp
	.cfi_def_cfa_register %rbp
	movq	%rsi, %rdi
	leaq	l___unnamed_154(%rip), %rsi
	movl	$3, %edx
	popq	%rbp
	jmp	__ZN4core3fmt9Formatter9write_str17h957ea9717e49073dE
	.cfi_endproc

	.p2align	4, 0x90
__ZN42_$LT$$RF$T$u20$as$u20$core..fmt..Debug$GT$3fmt17h414db6c37761465bE:
	.cfi_startproc
	pushq	%rbp
	.cfi_def_cfa_offset 16
	.cfi_offset %rbp, -16
	movq	%rsp, %rbp
	.cfi_def_cfa_register %rbp
	movq	%rsi, %rdi
	leaq	l___unnamed_155(%rip), %rsi
	movl	$2, %edx
	popq	%rbp
	jmp	__ZN4core3fmt9Formatter9write_str17h957ea9717e49073dE
	.cfi_endproc

	.p2align	4, 0x90
__ZN42_$LT$$RF$T$u20$as$u20$core..fmt..Debug$GT$3fmt17h42a4f0828c2055f0E:
	.cfi_startproc
	pushq	%rbp
	.cfi_def_cfa_offset 16
	.cfi_offset %rbp, -16
	movq	%rsp, %rbp
	.cfi_def_cfa_register %rbp
	movq	%rsi, %rdi
	leaq	l___unnamed_156(%rip), %rsi
	movl	$3, %edx
	popq	%rbp
	jmp	__ZN4core3fmt9Formatter9write_str17h957ea9717e49073dE
	.cfi_endproc

	.p2align	4, 0x90
__ZN42_$LT$$RF$T$u20$as$u20$core..fmt..Debug$GT$3fmt17h43e46f474e86b8dfE:
	.cfi_startproc
	pushq	%rbp
	.cfi_def_cfa_offset 16
	.cfi_offset %rbp, -16
	movq	%rsp, %rbp
	.cfi_def_cfa_register %rbp
	pushq	%r15
	pushq	%r14
	pushq	%r13
	pushq	%r12
	pushq	%rbx
	subq	$24, %rsp
	.cfi_offset %rbx, -56
	.cfi_offset %r12, -48
	.cfi_offset %r13, -40
	.cfi_offset %r14, -32
	.cfi_offset %r15, -24
	movq	(%rdi), %rbx
	leaq	l___unnamed_157(%rip), %rdx
	leaq	-64(%rbp), %r12
	movl	$10, %ecx
	movq	%r12, %rdi
	callq	__ZN4core3fmt9Formatter12debug_struct17h985c0158d1fc7193E
	movq	%rbx, -48(%rbp)
	leaq	24(%rbx), %r14
	leaq	40(%rbx), %r13
	leaq	32(%rbx), %r15
	leaq	l___unnamed_22(%rip), %rsi
	leaq	l___unnamed_23(%rip), %r8
	leaq	-48(%rbp), %rcx
	movl	$5, %edx
	movq	%r12, %rdi
	callq	__ZN4core3fmt8builders11DebugStruct5field17h9c15dc155278eed2E
	movq	%r14, -48(%rbp)
	leaq	L___unnamed_158(%rip), %rsi
	leaq	l___unnamed_27(%rip), %r14
	leaq	-48(%rbp), %rcx
	movl	$4, %edx
	movq	%r12, %rdi
	movq	%r14, %r8
	callq	__ZN4core3fmt8builders11DebugStruct5field17h9c15dc155278eed2E
	movq	%r13, -48(%rbp)
	leaq	l___unnamed_24(%rip), %rsi
	leaq	l___unnamed_159(%rip), %r8
	leaq	-48(%rbp), %rcx
	movl	$2, %edx
	movq	%r12, %rdi
	callq	__ZN4core3fmt8builders11DebugStruct5field17h9c15dc155278eed2E
	movq	%r15, -48(%rbp)
	leaq	l___unnamed_160(%rip), %rsi
	leaq	-48(%rbp), %rcx
	movl	$5, %edx
	movq	%r12, %rdi
	movq	%r14, %r8
	callq	__ZN4core3fmt8builders11DebugStruct5field17h9c15dc155278eed2E
	movq	%r12, %rdi
	callq	__ZN4core3fmt8builders11DebugStruct6finish17h26808393f3fed630E
	addq	$24, %rsp
	popq	%rbx
	popq	%r12
	popq	%r13
	popq	%r14
	popq	%r15
	popq	%rbp
	retq
	.cfi_endproc

	.p2align	4, 0x90
__ZN42_$LT$$RF$T$u20$as$u20$core..fmt..Debug$GT$3fmt17h441ec2e3fdf1b6e5E:
	.cfi_startproc
	pushq	%rbp
	.cfi_def_cfa_offset 16
	.cfi_offset %rbp, -16
	movq	%rsp, %rbp
	.cfi_def_cfa_register %rbp
	pushq	%r15
	pushq	%r14
	pushq	%rbx
	subq	$24, %rsp
	.cfi_offset %rbx, -40
	.cfi_offset %r14, -32
	.cfi_offset %r15, -24
	movq	(%rdi), %rbx
	leaq	8(%rbx), %r15
	leaq	l___unnamed_161(%rip), %rdx
	leaq	-48(%rbp), %r14
	movl	$9, %ecx
	movq	%r14, %rdi
	callq	__ZN4core3fmt9Formatter12debug_struct17h985c0158d1fc7193E
	movq	%r15, -32(%rbp)
	leaq	l___unnamed_88(%rip), %rsi
	leaq	l___unnamed_89(%rip), %r8
	leaq	-32(%rbp), %rcx
	movl	$11, %edx
	movq	%r14, %rdi
	callq	__ZN4core3fmt8builders11DebugStruct5field17h9c15dc155278eed2E
	movq	%rbx, -32(%rbp)
	leaq	L___unnamed_162(%rip), %rsi
	leaq	l___unnamed_7(%rip), %r8
	leaq	-32(%rbp), %rcx
	movl	$4, %edx
	movq	%r14, %rdi
	callq	__ZN4core3fmt8builders11DebugStruct5field17h9c15dc155278eed2E
	movq	%r14, %rdi
	callq	__ZN4core3fmt8builders11DebugStruct6finish17h26808393f3fed630E
	addq	$24, %rsp
	popq	%rbx
	popq	%r14
	popq	%r15
	popq	%rbp
	retq
	.cfi_endproc

	.p2align	4, 0x90
__ZN42_$LT$$RF$T$u20$as$u20$core..fmt..Debug$GT$3fmt17h44ed70b2eb4485f3E:
	.cfi_startproc
	pushq	%rbp
	.cfi_def_cfa_offset 16
	.cfi_offset %rbp, -16
	movq	%rsp, %rbp
	.cfi_def_cfa_register %rbp
	movq	%rsi, %rdi
	leaq	L___unnamed_163(%rip), %rsi
	movl	$4, %edx
	popq	%rbp
	jmp	__ZN4core3fmt9Formatter9write_str17h957ea9717e49073dE
	.cfi_endproc

	.p2align	4, 0x90
__ZN42_$LT$$RF$T$u20$as$u20$core..fmt..Debug$GT$3fmt17h45cdeaaf2ebe16faE:
	.cfi_startproc
	pushq	%rbp
	.cfi_def_cfa_offset 16
	.cfi_offset %rbp, -16
	movq	%rsp, %rbp
	.cfi_def_cfa_register %rbp
	movq	%rsi, %rdi
	leaq	l___unnamed_164(%rip), %rsi
	movl	$5, %edx
	popq	%rbp
	jmp	__ZN4core3fmt9Formatter9write_str17h957ea9717e49073dE
	.cfi_endproc

	.p2align	4, 0x90
__ZN42_$LT$$RF$T$u20$as$u20$core..fmt..Debug$GT$3fmt17h46a3e9f7aa4dee41E:
	.cfi_startproc
	pushq	%rbp
	.cfi_def_cfa_offset 16
	.cfi_offset %rbp, -16
	movq	%rsp, %rbp
	.cfi_def_cfa_register %rbp
	pushq	%r15
	pushq	%r14
	pushq	%r13
	pushq	%r12
	pushq	%rbx
	subq	$24, %rsp
	.cfi_offset %rbx, -56
	.cfi_offset %r12, -48
	.cfi_offset %r13, -40
	.cfi_offset %r14, -32
	.cfi_offset %r15, -24
	movq	(%rdi), %rbx
	leaq	-64(%rbp), %rdi
	callq	__ZN4core3fmt9Formatter10debug_list17hd054f0986422feb9E
	movq	%rbx, -48(%rbp)
	movq	16(%rbx), %rax
	testq	%rax, %rax
	je	LBB76_3
	movq	-48(%rbp), %rcx
	movq	(%rcx), %rbx
	imulq	$112, %rax, %r14
	addq	%rbx, %r14
	leaq	l___unnamed_165(%rip), %r15
	leaq	-64(%rbp), %r12
	leaq	l___unnamed_166(%rip), %r13
	.p2align	4, 0x90
LBB76_2:
	movq	%r12, %rdi
	movq	%rbx, %rsi
	movq	%r15, %rdx
	callq	__ZN4core3fmt8builders9DebugList5entry17h5c0dec54538196dfE
	leaq	104(%rbx), %rsi
	movq	%r12, %rdi
	movq	%r13, %rdx
	callq	__ZN4core3fmt8builders9DebugList5entry17h5c0dec54538196dfE
	addq	$112, %rbx
	cmpq	%r14, %rbx
	jne	LBB76_2
LBB76_3:
	movq	-48(%rbp), %rsi
	cmpq	$0, 24(%rsi)
	je	LBB76_5
	addq	$24, %rsi
	leaq	l___unnamed_167(%rip), %rdx
	leaq	-64(%rbp), %rdi
	callq	__ZN4core3fmt8builders9DebugList5entry17h5c0dec54538196dfE
LBB76_5:
	leaq	-64(%rbp), %rdi
	callq	__ZN4core3fmt8builders9DebugList6finish17h3635bd6af9b1c5a6E
	addq	$24, %rsp
	popq	%rbx
	popq	%r12
	popq	%r13
	popq	%r14
	popq	%r15
	popq	%rbp
	retq
	.cfi_endproc

	.p2align	4, 0x90
__ZN42_$LT$$RF$T$u20$as$u20$core..fmt..Debug$GT$3fmt17h46eadfe279d69c8aE:
	.cfi_startproc
	pushq	%rbp
	.cfi_def_cfa_offset 16
	.cfi_offset %rbp, -16
	movq	%rsp, %rbp
	.cfi_def_cfa_register %rbp
	pushq	%r14
	pushq	%rbx
	.cfi_offset %rbx, -32
	.cfi_offset %r14, -24
	movq	%rsi, %rbx
	movq	(%rdi), %r14
	movq	%rsi, %rdi
	callq	__ZN4core3fmt9Formatter15debug_lower_hex17h8530fbaeba13f4d9E
	testb	%al, %al
	je	LBB77_1
	movq	%r14, %rdi
	movq	%rbx, %rsi
	popq	%rbx
	popq	%r14
	popq	%rbp
	jmp	__ZN4core3fmt3num52_$LT$impl$u20$core..fmt..LowerHex$u20$for$u20$u8$GT$3fmt17h7701faa643a10c55E
LBB77_1:
	movq	%rbx, %rdi
	callq	__ZN4core3fmt9Formatter15debug_upper_hex17hf8fda15ec43a1e68E
	movq	%r14, %rdi
	movq	%rbx, %rsi
	testb	%al, %al
	je	LBB77_4
	popq	%rbx
	popq	%r14
	popq	%rbp
	jmp	__ZN4core3fmt3num52_$LT$impl$u20$core..fmt..UpperHex$u20$for$u20$u8$GT$3fmt17ha797e73a900719d8E
LBB77_4:
	popq	%rbx
	popq	%r14
	popq	%rbp
	jmp	__ZN4core3fmt3num3imp51_$LT$impl$u20$core..fmt..Display$u20$for$u20$u8$GT$3fmt17h0e89df114e53d66dE
	.cfi_endproc

	.p2align	4, 0x90
__ZN42_$LT$$RF$T$u20$as$u20$core..fmt..Debug$GT$3fmt17h47334b4c5f5e6ff7E:
	.cfi_startproc
	pushq	%rbp
	.cfi_def_cfa_offset 16
	.cfi_offset %rbp, -16
	movq	%rsp, %rbp
	.cfi_def_cfa_register %rbp
	movq	(%rdi), %rdi
	popq	%rbp
	jmp	__ZN61_$LT$syn..mac..MacroDelimiter$u20$as$u20$core..fmt..Debug$GT$3fmt17h0397c3b5e4a8eddaE
	.cfi_endproc

	.p2align	4, 0x90
__ZN42_$LT$$RF$T$u20$as$u20$core..fmt..Debug$GT$3fmt17h4a1762530994d002E:
	.cfi_startproc
	pushq	%rbp
	.cfi_def_cfa_offset 16
	.cfi_offset %rbp, -16
	movq	%rsp, %rbp
	.cfi_def_cfa_register %rbp
	pushq	%r14
	pushq	%rbx
	.cfi_offset %rbx, -32
	.cfi_offset %r14, -24
	movq	%rsi, %rbx
	movq	(%rdi), %r14
	movq	%rsi, %rdi
	callq	__ZN4core3fmt9Formatter15debug_lower_hex17h8530fbaeba13f4d9E
	testb	%al, %al
	je	LBB79_1
	movq	%r14, %rdi
	movq	%rbx, %rsi
	popq	%rbx
	popq	%r14
	popq	%rbp
	jmp	__ZN4core3fmt3num55_$LT$impl$u20$core..fmt..LowerHex$u20$for$u20$usize$GT$3fmt17hbf7dc8c1d7fa021dE
LBB79_1:
	movq	%rbx, %rdi
	callq	__ZN4core3fmt9Formatter15debug_upper_hex17hf8fda15ec43a1e68E
	movq	%r14, %rdi
	movq	%rbx, %rsi
	testb	%al, %al
	je	LBB79_4
	popq	%rbx
	popq	%r14
	popq	%rbp
	jmp	__ZN4core3fmt3num55_$LT$impl$u20$core..fmt..UpperHex$u20$for$u20$usize$GT$3fmt17hf20a4f369caf234bE
LBB79_4:
	popq	%rbx
	popq	%r14
	popq	%rbp
	jmp	__ZN4core3fmt3num3imp54_$LT$impl$u20$core..fmt..Display$u20$for$u20$usize$GT$3fmt17h89ce3155a90f2edfE
	.cfi_endproc

	.p2align	4, 0x90
__ZN42_$LT$$RF$T$u20$as$u20$core..fmt..Debug$GT$3fmt17h4a9291d20cc3377dE:
	.cfi_startproc
	pushq	%rbp
	.cfi_def_cfa_offset 16
	.cfi_offset %rbp, -16
	movq	%rsp, %rbp
	.cfi_def_cfa_register %rbp
	movq	(%rdi), %rdi
	popq	%rbp
	jmp	__ZN51_$LT$syn..op..BinOp$u20$as$u20$core..fmt..Debug$GT$3fmt17ha9bb9379e0608ba7E
	.cfi_endproc

	.p2align	4, 0x90
__ZN42_$LT$$RF$T$u20$as$u20$core..fmt..Debug$GT$3fmt17h4afa8da7f248e3ffE:
	.cfi_startproc
	pushq	%rbp
	.cfi_def_cfa_offset 16
	.cfi_offset %rbp, -16
	movq	%rsp, %rbp
	.cfi_def_cfa_register %rbp
	movq	(%rdi), %rdi
	popq	%rbp
	jmp	__ZN54_$LT$syn..derive..Data$u20$as$u20$core..fmt..Debug$GT$3fmt17h73e9bdd4719379b0E
	.cfi_endproc

	.p2align	4, 0x90
__ZN42_$LT$$RF$T$u20$as$u20$core..fmt..Debug$GT$3fmt17h4b7fab57a378a503E:
	.cfi_startproc
	pushq	%rbp
	.cfi_def_cfa_offset 16
	.cfi_offset %rbp, -16
	movq	%rsp, %rbp
	.cfi_def_cfa_register %rbp
	movq	%rsi, %rdi
	leaq	l___unnamed_168(%rip), %rsi
	movl	$5, %edx
	popq	%rbp
	jmp	__ZN4core3fmt9Formatter9write_str17h957ea9717e49073dE
	.cfi_endproc

	.p2align	4, 0x90
__ZN42_$LT$$RF$T$u20$as$u20$core..fmt..Debug$GT$3fmt17h4d336e836572076eE:
	.cfi_startproc
	pushq	%rbp
	.cfi_def_cfa_offset 16
	.cfi_offset %rbp, -16
	movq	%rsp, %rbp
	.cfi_def_cfa_register %rbp
	pushq	%r14
	pushq	%rbx
	subq	$32, %rsp
	.cfi_offset %rbx, -32
	.cfi_offset %r14, -24
	movq	(%rdi), %rbx
	leaq	l___unnamed_169(%rip), %rdx
	leaq	-40(%rbp), %r14
	movl	$9, %ecx
	movq	%r14, %rdi
	callq	__ZN4core3fmt9Formatter12debug_struct17h985c0158d1fc7193E
	movq	%rbx, -24(%rbp)
	leaq	l___unnamed_53(%rip), %rsi
	leaq	l___unnamed_54(%rip), %r8
	leaq	-24(%rbp), %rcx
	movl	$12, %edx
	movq	%r14, %rdi
	callq	__ZN4core3fmt8builders11DebugStruct5field17h9c15dc155278eed2E
	movq	%r14, %rdi
	callq	__ZN4core3fmt8builders11DebugStruct6finish17h26808393f3fed630E
	addq	$32, %rsp
	popq	%rbx
	popq	%r14
	popq	%rbp
	retq
	.cfi_endproc

	.p2align	4, 0x90
__ZN42_$LT$$RF$T$u20$as$u20$core..fmt..Debug$GT$3fmt17h4d649d05837956c3E:
	.cfi_startproc
	pushq	%rbp
	.cfi_def_cfa_offset 16
	.cfi_offset %rbp, -16
	movq	%rsp, %rbp
	.cfi_def_cfa_register %rbp
	movq	%rsi, %rdi
	leaq	l___unnamed_170(%rip), %rsi
	movl	$5, %edx
	popq	%rbp
	jmp	__ZN4core3fmt9Formatter9write_str17h957ea9717e49073dE
	.cfi_endproc

	.p2align	4, 0x90
__ZN42_$LT$$RF$T$u20$as$u20$core..fmt..Debug$GT$3fmt17h4e87e78f1c33ee68E:
	.cfi_startproc
	pushq	%rbp
	.cfi_def_cfa_offset 16
	.cfi_offset %rbp, -16
	movq	%rsp, %rbp
	.cfi_def_cfa_register %rbp
	pushq	%r14
	pushq	%rbx
	subq	$32, %rsp
	.cfi_offset %rbx, -32
	.cfi_offset %r14, -24
	movq	(%rdi), %rbx
	leaq	L___unnamed_171(%rip), %rdx
	leaq	-40(%rbp), %r14
	movl	$8, %ecx
	movq	%r14, %rdi
	callq	__ZN4core3fmt9Formatter12debug_struct17h985c0158d1fc7193E
	movq	%rbx, -24(%rbp)
	addq	$32, %rbx
	leaq	l___unnamed_83(%rip), %rsi
	leaq	l___unnamed_84(%rip), %r8
	leaq	-24(%rbp), %rcx
	movl	$5, %edx
	movq	%r14, %rdi
	callq	__ZN4core3fmt8builders11DebugStruct5field17h9c15dc155278eed2E
	movq	%rbx, -24(%rbp)
	leaq	L___unnamed_29(%rip), %rsi
	leaq	l___unnamed_30(%rip), %r8
	leaq	-24(%rbp), %rcx
	movl	$4, %edx
	movq	%r14, %rdi
	callq	__ZN4core3fmt8builders11DebugStruct5field17h9c15dc155278eed2E
	movq	%r14, %rdi
	callq	__ZN4core3fmt8builders11DebugStruct6finish17h26808393f3fed630E
	addq	$32, %rsp
	popq	%rbx
	popq	%r14
	popq	%rbp
	retq
	.cfi_endproc

	.p2align	4, 0x90
__ZN42_$LT$$RF$T$u20$as$u20$core..fmt..Debug$GT$3fmt17h4f24597a858f2d17E:
	.cfi_startproc
	pushq	%rbp
	.cfi_def_cfa_offset 16
	.cfi_offset %rbp, -16
	movq	%rsp, %rbp
	.cfi_def_cfa_register %rbp
	pushq	%r14
	pushq	%rbx
	subq	$32, %rsp
	.cfi_offset %rbx, -32
	.cfi_offset %r14, -24
	movq	(%rdi), %rbx
	leaq	l___unnamed_172(%rip), %rdx
	leaq	-40(%rbp), %r14
	movl	$9, %ecx
	movq	%r14, %rdi
	callq	__ZN4core3fmt9Formatter12debug_struct17h985c0158d1fc7193E
	movq	%rbx, -24(%rbp)
	leaq	l___unnamed_53(%rip), %rsi
	leaq	l___unnamed_54(%rip), %r8
	leaq	-24(%rbp), %rcx
	movl	$12, %edx
	movq	%r14, %rdi
	callq	__ZN4core3fmt8builders11DebugStruct5field17h9c15dc155278eed2E
	movq	%r14, %rdi
	callq	__ZN4core3fmt8builders11DebugStruct6finish17h26808393f3fed630E
	addq	$32, %rsp
	popq	%rbx
	popq	%r14
	popq	%rbp
	retq
	.cfi_endproc

	.p2align	4, 0x90
__ZN42_$LT$$RF$T$u20$as$u20$core..fmt..Debug$GT$3fmt17h513c0816b9db4307E:
	.cfi_startproc
	pushq	%rbp
	.cfi_def_cfa_offset 16
	.cfi_offset %rbp, -16
	movq	%rsp, %rbp
	.cfi_def_cfa_register %rbp
	movq	%rsi, %rdx
	movq	(%rdi), %rax
	movq	32(%rax), %rdi
	movq	48(%rax), %rsi
	popq	%rbp
	jmp	__ZN40_$LT$str$u20$as$u20$core..fmt..Debug$GT$3fmt17h2760aab2290546fcE
	.cfi_endproc

	.p2align	4, 0x90
__ZN42_$LT$$RF$T$u20$as$u20$core..fmt..Debug$GT$3fmt17h527df4a86fce0a03E:
	.cfi_startproc
	pushq	%rbp
	.cfi_def_cfa_offset 16
	.cfi_offset %rbp, -16
	movq	%rsp, %rbp
	.cfi_def_cfa_register %rbp
	pushq	%r14
	pushq	%rbx
	subq	$32, %rsp
	.cfi_offset %rbx, -32
	.cfi_offset %r14, -24
	movq	(%rdi), %rbx
	leaq	l___unnamed_173(%rip), %rdx
	leaq	-40(%rbp), %r14
	movl	$10, %ecx
	movq	%r14, %rdi
	callq	__ZN4core3fmt9Formatter12debug_struct17h985c0158d1fc7193E
	movq	%rbx, -24(%rbp)
	leaq	l___unnamed_53(%rip), %rsi
	leaq	l___unnamed_54(%rip), %r8
	leaq	-24(%rbp), %rcx
	movl	$12, %edx
	movq	%r14, %rdi
	callq	__ZN4core3fmt8builders11DebugStruct5field17h9c15dc155278eed2E
	movq	%r14, %rdi
	callq	__ZN4core3fmt8builders11DebugStruct6finish17h26808393f3fed630E
	addq	$32, %rsp
	popq	%rbx
	popq	%r14
	popq	%rbp
	retq
	.cfi_endproc

	.p2align	4, 0x90
__ZN42_$LT$$RF$T$u20$as$u20$core..fmt..Debug$GT$3fmt17h543f54fe0b1bc228E:
	.cfi_startproc
	pushq	%rbp
	.cfi_def_cfa_offset 16
	.cfi_offset %rbp, -16
	movq	%rsp, %rbp
	.cfi_def_cfa_register %rbp
	pushq	%r15
	pushq	%r14
	pushq	%rbx
	subq	$24, %rsp
	.cfi_offset %rbx, -40
	.cfi_offset %r14, -32
	.cfi_offset %r15, -24
	movq	(%rdi), %rbx
	leaq	72(%rbx), %r15
	leaq	L___unnamed_174(%rip), %rdx
	leaq	-48(%rbp), %r14
	movl	$8, %ecx
	movq	%r14, %rdi
	callq	__ZN4core3fmt9Formatter12debug_struct17h985c0158d1fc7193E
	movq	%r15, -32(%rbp)
	leaq	L___unnamed_4(%rip), %rsi
	leaq	l___unnamed_175(%rip), %r8
	leaq	-32(%rbp), %rcx
	movl	$8, %edx
	movq	%r14, %rdi
	callq	__ZN4core3fmt8builders11DebugStruct5field17h9c15dc155278eed2E
	movq	%rbx, -32(%rbp)
	leaq	80(%rbx), %r15
	addq	$32, %rbx
	leaq	l___unnamed_176(%rip), %rsi
	leaq	l___unnamed_177(%rip), %r8
	leaq	-32(%rbp), %rcx
	movl	$6, %edx
	movq	%r14, %rdi
	callq	__ZN4core3fmt8builders11DebugStruct5field17h9c15dc155278eed2E
	movq	%r15, -32(%rbp)
	leaq	L___unnamed_12(%rip), %rsi
	leaq	l___unnamed_178(%rip), %r8
	leaq	-32(%rbp), %rcx
	movl	$8, %edx
	movq	%r14, %rdi
	callq	__ZN4core3fmt8builders11DebugStruct5field17h9c15dc155278eed2E
	movq	%rbx, -32(%rbp)
	leaq	l___unnamed_179(%rip), %rsi
	leaq	l___unnamed_180(%rip), %r8
	leaq	-32(%rbp), %rcx
	movl	$12, %edx
	movq	%r14, %rdi
	callq	__ZN4core3fmt8builders11DebugStruct5field17h9c15dc155278eed2E
	movq	%r14, %rdi
	callq	__ZN4core3fmt8builders11DebugStruct6finish17h26808393f3fed630E
	addq	$24, %rsp
	popq	%rbx
	popq	%r14
	popq	%r15
	popq	%rbp
	retq
	.cfi_endproc

	.p2align	4, 0x90
__ZN42_$LT$$RF$T$u20$as$u20$core..fmt..Debug$GT$3fmt17h55b28396419c0f10E:
	.cfi_startproc
	pushq	%rbp
	.cfi_def_cfa_offset 16
	.cfi_offset %rbp, -16
	movq	%rsp, %rbp
	.cfi_def_cfa_register %rbp
	movq	%rsi, %rdi
	leaq	l___unnamed_181(%rip), %rsi
	movl	$2, %edx
	popq	%rbp
	jmp	__ZN4core3fmt9Formatter9write_str17h957ea9717e49073dE
	.cfi_endproc

	.p2align	4, 0x90
__ZN42_$LT$$RF$T$u20$as$u20$core..fmt..Debug$GT$3fmt17h5a20f0f5427968dcE:
	.cfi_startproc
	pushq	%rbp
	.cfi_def_cfa_offset 16
	.cfi_offset %rbp, -16
	movq	%rsp, %rbp
	.cfi_def_cfa_register %rbp
	pushq	%r14
	pushq	%rbx
	subq	$32, %rsp
	.cfi_offset %rbx, -32
	.cfi_offset %r14, -24
	movq	(%rdi), %rbx
	cmpl	$1, (%rbx)
	jne	LBB91_2
	addq	$4, %rbx
	leaq	-48(%rbp), %r14
	leaq	l___unnamed_182(%rip), %rdx
	movl	$5, %ecx
	movq	%r14, %rdi
	callq	__ZN4core3fmt9Formatter11debug_tuple17h15ca25ad759edd1cE
	movq	%rbx, -24(%rbp)
	leaq	l___unnamed_183(%rip), %rdx
	leaq	-24(%rbp), %rsi
	movq	%r14, %rdi
	callq	__ZN4core3fmt8builders10DebugTuple5field17hf36121153a94f236E
	jmp	LBB91_3
LBB91_2:
	leaq	-48(%rbp), %r14
	leaq	L___unnamed_16(%rip), %rdx
	movl	$4, %ecx
	movq	%r14, %rdi
	callq	__ZN4core3fmt9Formatter11debug_tuple17h15ca25ad759edd1cE
LBB91_3:
	movq	%r14, %rdi
	callq	__ZN4core3fmt8builders10DebugTuple6finish17h68acf09c6f6593f2E
	addq	$32, %rsp
	popq	%rbx
	popq	%r14
	popq	%rbp
	retq
	.cfi_endproc

	.p2align	4, 0x90
__ZN42_$LT$$RF$T$u20$as$u20$core..fmt..Debug$GT$3fmt17h5bc0ea170da9b28cE:
	.cfi_startproc
	pushq	%rbp
	.cfi_def_cfa_offset 16
	.cfi_offset %rbp, -16
	movq	%rsp, %rbp
	.cfi_def_cfa_register %rbp
	movq	%rsi, %rdi
	leaq	l___unnamed_184(%rip), %rsi
	movl	$6, %edx
	popq	%rbp
	jmp	__ZN4core3fmt9Formatter9write_str17h957ea9717e49073dE
	.cfi_endproc

	.p2align	4, 0x90
__ZN42_$LT$$RF$T$u20$as$u20$core..fmt..Debug$GT$3fmt17h60b23db8b8d8ede9E:
	.cfi_startproc
	pushq	%rbp
	.cfi_def_cfa_offset 16
	.cfi_offset %rbp, -16
	movq	%rsp, %rbp
	.cfi_def_cfa_register %rbp
	pushq	%r14
	pushq	%rbx
	subq	$32, %rsp
	.cfi_offset %rbx, -32
	.cfi_offset %r14, -24
	movq	(%rdi), %rbx
	leaq	l___unnamed_185(%rip), %rdx
	leaq	-40(%rbp), %r14
	movl	$10, %ecx
	movq	%r14, %rdi
	callq	__ZN4core3fmt9Formatter12debug_struct17h985c0158d1fc7193E
	movq	%rbx, -24(%rbp)
	leaq	l___unnamed_53(%rip), %rsi
	leaq	l___unnamed_54(%rip), %r8
	leaq	-24(%rbp), %rcx
	movl	$12, %edx
	movq	%r14, %rdi
	callq	__ZN4core3fmt8builders11DebugStruct5field17h9c15dc155278eed2E
	movq	%r14, %rdi
	callq	__ZN4core3fmt8builders11DebugStruct6finish17h26808393f3fed630E
	addq	$32, %rsp
	popq	%rbx
	popq	%r14
	popq	%rbp
	retq
	.cfi_endproc

	.p2align	4, 0x90
__ZN42_$LT$$RF$T$u20$as$u20$core..fmt..Debug$GT$3fmt17h6199a4e594a80b18E:
	.cfi_startproc
	pushq	%rbp
	.cfi_def_cfa_offset 16
	.cfi_offset %rbp, -16
	movq	%rsp, %rbp
	.cfi_def_cfa_register %rbp
	movq	(%rdi), %rdi
	popq	%rbp
	jmp	__ZN50_$LT$syn..ty..Type$u20$as$u20$core..fmt..Debug$GT$3fmt17h3d4b146961971eddE
	.cfi_endproc

	.p2align	4, 0x90
__ZN42_$LT$$RF$T$u20$as$u20$core..fmt..Debug$GT$3fmt17h61a8e33259891c08E:
	.cfi_startproc
	pushq	%rbp
	.cfi_def_cfa_offset 16
	.cfi_offset %rbp, -16
	movq	%rsp, %rbp
	.cfi_def_cfa_register %rbp
	movq	%rsi, %rdi
	leaq	l___unnamed_186(%rip), %rsi
	movl	$2, %edx
	popq	%rbp
	jmp	__ZN4core3fmt9Formatter9write_str17h957ea9717e49073dE
	.cfi_endproc

	.p2align	4, 0x90
__ZN42_$LT$$RF$T$u20$as$u20$core..fmt..Debug$GT$3fmt17h64691e7eaae73a3eE:
	.cfi_startproc
	pushq	%rbp
	.cfi_def_cfa_offset 16
	.cfi_offset %rbp, -16
	movq	%rsp, %rbp
	.cfi_def_cfa_register %rbp
	movq	%rsi, %rdi
	leaq	l___unnamed_187(%rip), %rsi
	movl	$5, %edx
	popq	%rbp
	jmp	__ZN4core3fmt9Formatter9write_str17h957ea9717e49073dE
	.cfi_endproc

	.p2align	4, 0x90
__ZN42_$LT$$RF$T$u20$as$u20$core..fmt..Debug$GT$3fmt17h654f33e0706c8013E:
	.cfi_startproc
	pushq	%rbp
	.cfi_def_cfa_offset 16
	.cfi_offset %rbp, -16
	movq	%rsp, %rbp
	.cfi_def_cfa_register %rbp
	pushq	%r15
	pushq	%r14
	pushq	%r13
	pushq	%r12
	pushq	%rbx
	subq	$24, %rsp
	.cfi_offset %rbx, -56
	.cfi_offset %r12, -48
	.cfi_offset %r13, -40
	.cfi_offset %r14, -32
	.cfi_offset %r15, -24
	movq	(%rdi), %rbx
	leaq	-64(%rbp), %rdi
	callq	__ZN4core3fmt9Formatter10debug_list17hd054f0986422feb9E
	movq	%rbx, -48(%rbp)
	movq	16(%rbx), %rax
	testq	%rax, %rax
	je	LBB97_3
	movq	-48(%rbp), %rcx
	movq	(%rcx), %rbx
	imulq	$392, %rax, %r14
	addq	%rbx, %r14
	leaq	l___unnamed_188(%rip), %r15
	leaq	-64(%rbp), %r12
	leaq	l___unnamed_72(%rip), %r13
	.p2align	4, 0x90
LBB97_2:
	movq	%r12, %rdi
	movq	%rbx, %rsi
	movq	%r15, %rdx
	callq	__ZN4core3fmt8builders9DebugList5entry17h5c0dec54538196dfE
	leaq	384(%rbx), %rsi
	movq	%r12, %rdi
	movq	%r13, %rdx
	callq	__ZN4core3fmt8builders9DebugList5entry17h5c0dec54538196dfE
	addq	$392, %rbx
	cmpq	%r14, %rbx
	jne	LBB97_2
LBB97_3:
	movq	-48(%rbp), %rsi
	cmpq	$0, 24(%rsi)
	je	LBB97_5
	addq	$24, %rsi
	leaq	l___unnamed_189(%rip), %rdx
	leaq	-64(%rbp), %rdi
	callq	__ZN4core3fmt8builders9DebugList5entry17h5c0dec54538196dfE
LBB97_5:
	leaq	-64(%rbp), %rdi
	callq	__ZN4core3fmt8builders9DebugList6finish17h3635bd6af9b1c5a6E
	addq	$24, %rsp
	popq	%rbx
	popq	%r12
	popq	%r13
	popq	%r14
	popq	%r15
	popq	%rbp
	retq
	.cfi_endproc

	.p2align	4, 0x90
__ZN42_$LT$$RF$T$u20$as$u20$core..fmt..Debug$GT$3fmt17h65b7d59231534af4E:
	.cfi_startproc
	pushq	%rbp
	.cfi_def_cfa_offset 16
	.cfi_offset %rbp, -16
	movq	%rsp, %rbp
	.cfi_def_cfa_register %rbp
	movq	%rsi, %rdi
	leaq	l___unnamed_190(%rip), %rsi
	movl	$10, %edx
	popq	%rbp
	jmp	__ZN4core3fmt9Formatter9write_str17h957ea9717e49073dE
	.cfi_endproc

	.p2align	4, 0x90
__ZN42_$LT$$RF$T$u20$as$u20$core..fmt..Debug$GT$3fmt17h668480af307ec285E:
	.cfi_startproc
	pushq	%rbp
	.cfi_def_cfa_offset 16
	.cfi_offset %rbp, -16
	movq	%rsp, %rbp
	.cfi_def_cfa_register %rbp
	movq	%rsi, %rdi
	leaq	l___unnamed_191(%rip), %rsi
	movl	$3, %edx
	popq	%rbp
	jmp	__ZN4core3fmt9Formatter9write_str17h957ea9717e49073dE
	.cfi_endproc

	.p2align	4, 0x90
__ZN42_$LT$$RF$T$u20$as$u20$core..fmt..Debug$GT$3fmt17h67bc7e53c76f40cfE:
	.cfi_startproc
	pushq	%rbp
	.cfi_def_cfa_offset 16
	.cfi_offset %rbp, -16
	movq	%rsp, %rbp
	.cfi_def_cfa_register %rbp
	movq	%rsi, %rdx
	movq	(%rdi), %rax
	movq	8(%rdi), %rsi
	movq	%rax, %rdi
	popq	%rbp
	jmp	__ZN40_$LT$str$u20$as$u20$core..fmt..Debug$GT$3fmt17h2760aab2290546fcE
	.cfi_endproc

	.p2align	4, 0x90
__ZN42_$LT$$RF$T$u20$as$u20$core..fmt..Debug$GT$3fmt17h69502d21f6386a25E:
	.cfi_startproc
	pushq	%rbp
	.cfi_def_cfa_offset 16
	.cfi_offset %rbp, -16
	movq	%rsp, %rbp
	.cfi_def_cfa_register %rbp
	pushq	%r15
	pushq	%r14
	pushq	%r13
	pushq	%r12
	pushq	%rbx
	subq	$24, %rsp
	.cfi_offset %rbx, -56
	.cfi_offset %r12, -48
	.cfi_offset %r13, -40
	.cfi_offset %r14, -32
	.cfi_offset %r15, -24
	movq	(%rdi), %rbx
	leaq	-64(%rbp), %rdi
	callq	__ZN4core3fmt9Formatter10debug_list17hd054f0986422feb9E
	movq	%rbx, -48(%rbp)
	movq	16(%rbx), %rax
	testq	%rax, %rax
	je	LBB101_3
	movq	-48(%rbp), %rcx
	movq	(%rcx), %rbx
	imulq	$248, %rax, %r14
	addq	%rbx, %r14
	leaq	l___unnamed_192(%rip), %r15
	leaq	-64(%rbp), %r12
	leaq	l___unnamed_72(%rip), %r13
	.p2align	4, 0x90
LBB101_2:
	movq	%r12, %rdi
	movq	%rbx, %rsi
	movq	%r15, %rdx
	callq	__ZN4core3fmt8builders9DebugList5entry17h5c0dec54538196dfE
	leaq	240(%rbx), %rsi
	movq	%r12, %rdi
	movq	%r13, %rdx
	callq	__ZN4core3fmt8builders9DebugList5entry17h5c0dec54538196dfE
	addq	$248, %rbx
	cmpq	%r14, %rbx
	jne	LBB101_2
LBB101_3:
	movq	-48(%rbp), %rsi
	cmpq	$0, 24(%rsi)
	je	LBB101_5
	addq	$24, %rsi
	leaq	l___unnamed_193(%rip), %rdx
	leaq	-64(%rbp), %rdi
	callq	__ZN4core3fmt8builders9DebugList5entry17h5c0dec54538196dfE
LBB101_5:
	leaq	-64(%rbp), %rdi
	callq	__ZN4core3fmt8builders9DebugList6finish17h3635bd6af9b1c5a6E
	addq	$24, %rsp
	popq	%rbx
	popq	%r12
	popq	%r13
	popq	%r14
	popq	%r15
	popq	%rbp
	retq
	.cfi_endproc

	.p2align	4, 0x90
__ZN42_$LT$$RF$T$u20$as$u20$core..fmt..Debug$GT$3fmt17h6b19fb31931d8837E:
	.cfi_startproc
	pushq	%rbp
	.cfi_def_cfa_offset 16
	.cfi_offset %rbp, -16
	movq	%rsp, %rbp
	.cfi_def_cfa_register %rbp
	pushq	%r15
	pushq	%r14
	pushq	%rbx
	subq	$24, %rsp
	.cfi_offset %rbx, -40
	.cfi_offset %r14, -32
	.cfi_offset %r15, -24
	movq	(%rdi), %rbx
	leaq	32(%rbx), %r15
	leaq	l___unnamed_194(%rip), %rdx
	leaq	-48(%rbp), %r14
	movl	$9, %ecx
	movq	%r14, %rdi
	callq	__ZN4core3fmt9Formatter12debug_struct17h985c0158d1fc7193E
	movq	%r15, -32(%rbp)
	leaq	l___unnamed_88(%rip), %rsi
	leaq	l___unnamed_89(%rip), %r8
	leaq	-32(%rbp), %rcx
	movl	$11, %edx
	movq	%r14, %rdi
	callq	__ZN4core3fmt8builders11DebugStruct5field17h9c15dc155278eed2E
	movq	%rbx, -32(%rbp)
	leaq	l___unnamed_195(%rip), %rsi
	leaq	l___unnamed_113(%rip), %r8
	leaq	-32(%rbp), %rcx
	movl	$5, %edx
	movq	%r14, %rdi
	callq	__ZN4core3fmt8builders11DebugStruct5field17h9c15dc155278eed2E
	movq	%r14, %rdi
	callq	__ZN4core3fmt8builders11DebugStruct6finish17h26808393f3fed630E
	addq	$24, %rsp
	popq	%rbx
	popq	%r14
	popq	%r15
	popq	%rbp
	retq
	.cfi_endproc

	.p2align	4, 0x90
__ZN42_$LT$$RF$T$u20$as$u20$core..fmt..Debug$GT$3fmt17h6d193b9412e0b2f8E:
	.cfi_startproc
	pushq	%rbp
	.cfi_def_cfa_offset 16
	.cfi_offset %rbp, -16
	movq	%rsp, %rbp
	.cfi_def_cfa_register %rbp
	pushq	%r14
	pushq	%rbx
	subq	$32, %rsp
	.cfi_offset %rbx, -32
	.cfi_offset %r14, -24
	movq	(%rdi), %rbx
	cmpl	$2, (%rbx)
	jne	LBB103_1
	leaq	-48(%rbp), %r14
	leaq	L___unnamed_16(%rip), %rdx
	movl	$4, %ecx
	movq	%r14, %rdi
	callq	__ZN4core3fmt9Formatter11debug_tuple17h15ca25ad759edd1cE
	jmp	LBB103_3
LBB103_1:
	leaq	-48(%rbp), %r14
	leaq	L___unnamed_14(%rip), %rdx
	movl	$4, %ecx
	movq	%r14, %rdi
	callq	__ZN4core3fmt9Formatter11debug_tuple17h15ca25ad759edd1cE
	movq	%rbx, -24(%rbp)
	leaq	l___unnamed_151(%rip), %rdx
	leaq	-24(%rbp), %rsi
	movq	%r14, %rdi
	callq	__ZN4core3fmt8builders10DebugTuple5field17hf36121153a94f236E
LBB103_3:
	movq	%r14, %rdi
	callq	__ZN4core3fmt8builders10DebugTuple6finish17h68acf09c6f6593f2E
	addq	$32, %rsp
	popq	%rbx
	popq	%r14
	popq	%rbp
	retq
	.cfi_endproc

	.p2align	4, 0x90
__ZN42_$LT$$RF$T$u20$as$u20$core..fmt..Debug$GT$3fmt17h71b2879bb157312aE:
	.cfi_startproc
	pushq	%rbp
	.cfi_def_cfa_offset 16
	.cfi_offset %rbp, -16
	movq	%rsp, %rbp
	.cfi_def_cfa_register %rbp
	pushq	%r14
	pushq	%rbx
	subq	$32, %rsp
	.cfi_offset %rbx, -32
	.cfi_offset %r14, -24
	movq	(%rdi), %rbx
	leaq	l___unnamed_196(%rip), %rdx
	leaq	-40(%rbp), %r14
	movl	$9, %ecx
	movq	%r14, %rdi
	callq	__ZN4core3fmt9Formatter12debug_struct17h985c0158d1fc7193E
	movq	%rbx, -24(%rbp)
	leaq	l___unnamed_53(%rip), %rsi
	leaq	l___unnamed_54(%rip), %r8
	leaq	-24(%rbp), %rcx
	movl	$12, %edx
	movq	%r14, %rdi
	callq	__ZN4core3fmt8builders11DebugStruct5field17h9c15dc155278eed2E
	movq	%r14, %rdi
	callq	__ZN4core3fmt8builders11DebugStruct6finish17h26808393f3fed630E
	addq	$32, %rsp
	popq	%rbx
	popq	%r14
	popq	%rbp
	retq
	.cfi_endproc

	.p2align	4, 0x90
__ZN42_$LT$$RF$T$u20$as$u20$core..fmt..Debug$GT$3fmt17h73266791b33fc1f0E:
	.cfi_startproc
	pushq	%rbp
	.cfi_def_cfa_offset 16
	.cfi_offset %rbp, -16
	movq	%rsp, %rbp
	.cfi_def_cfa_register %rbp
	pushq	%r14
	pushq	%rbx
	subq	$32, %rsp
	.cfi_offset %rbx, -32
	.cfi_offset %r14, -24
	movq	(%rdi), %rbx
	leaq	l___unnamed_197(%rip), %rdx
	leaq	-40(%rbp), %r14
	movl	$7, %ecx
	movq	%r14, %rdi
	callq	__ZN4core3fmt9Formatter12debug_struct17h985c0158d1fc7193E
	movq	%rbx, -24(%rbp)
	leaq	l___unnamed_53(%rip), %rsi
	leaq	l___unnamed_54(%rip), %r8
	leaq	-24(%rbp), %rcx
	movl	$12, %edx
	movq	%r14, %rdi
	callq	__ZN4core3fmt8builders11DebugStruct5field17h9c15dc155278eed2E
	movq	%r14, %rdi
	callq	__ZN4core3fmt8builders11DebugStruct6finish17h26808393f3fed630E
	addq	$32, %rsp
	popq	%rbx
	popq	%r14
	popq	%rbp
	retq
	.cfi_endproc

	.p2align	4, 0x90
__ZN42_$LT$$RF$T$u20$as$u20$core..fmt..Debug$GT$3fmt17h7331bd0f07c571bdE:
	.cfi_startproc
	pushq	%rbp
	.cfi_def_cfa_offset 16
	.cfi_offset %rbp, -16
	movq	%rsp, %rbp
	.cfi_def_cfa_register %rbp
	movq	%rsi, %rdi
	leaq	l___unnamed_198(%rip), %rsi
	movl	$2, %edx
	popq	%rbp
	jmp	__ZN4core3fmt9Formatter9write_str17h957ea9717e49073dE
	.cfi_endproc

	.p2align	4, 0x90
__ZN42_$LT$$RF$T$u20$as$u20$core..fmt..Debug$GT$3fmt17h737e4e287fbe9ef9E:
	.cfi_startproc
	pushq	%rbp
	.cfi_def_cfa_offset 16
	.cfi_offset %rbp, -16
	movq	%rsp, %rbp
	.cfi_def_cfa_register %rbp
	movq	%rsi, %rdi
	leaq	L___unnamed_199(%rip), %rsi
	movl	$8, %edx
	popq	%rbp
	jmp	__ZN4core3fmt9Formatter9write_str17h957ea9717e49073dE
	.cfi_endproc

	.p2align	4, 0x90
__ZN42_$LT$$RF$T$u20$as$u20$core..fmt..Debug$GT$3fmt17h747f3f1ba1874b9eE:
	.cfi_startproc
	pushq	%rbp
	.cfi_def_cfa_offset 16
	.cfi_offset %rbp, -16
	movq	%rsp, %rbp
	.cfi_def_cfa_register %rbp
	movq	(%rdi), %rdi
	popq	%rbp
	jmp	__ZN61_$LT$proc_macro2..TokenStream$u20$as$u20$core..fmt..Debug$GT$3fmt17h84cf9570d1c62d62E
	.cfi_endproc

	.p2align	4, 0x90
__ZN42_$LT$$RF$T$u20$as$u20$core..fmt..Debug$GT$3fmt17h763bdfe588ec44f0E:
	.cfi_startproc
	pushq	%rbp
	.cfi_def_cfa_offset 16
	.cfi_offset %rbp, -16
	movq	%rsp, %rbp
	.cfi_def_cfa_register %rbp
	pushq	%r14
	pushq	%rbx
	subq	$32, %rsp
	.cfi_offset %rbx, -32
	.cfi_offset %r14, -24
	movq	(%rdi), %rbx
	leaq	l___unnamed_200(%rip), %rdx
	leaq	-40(%rbp), %r14
	movl	$7, %ecx
	movq	%r14, %rdi
	callq	__ZN4core3fmt9Formatter12debug_struct17h985c0158d1fc7193E
	movq	%rbx, -24(%rbp)
	leaq	l___unnamed_53(%rip), %rsi
	leaq	l___unnamed_54(%rip), %r8
	leaq	-24(%rbp), %rcx
	movl	$12, %edx
	movq	%r14, %rdi
	callq	__ZN4core3fmt8builders11DebugStruct5field17h9c15dc155278eed2E
	movq	%r14, %rdi
	callq	__ZN4core3fmt8builders11DebugStruct6finish17h26808393f3fed630E
	addq	$32, %rsp
	popq	%rbx
	popq	%r14
	popq	%rbp
	retq
	.cfi_endproc

	.p2align	4, 0x90
__ZN42_$LT$$RF$T$u20$as$u20$core..fmt..Debug$GT$3fmt17h77f11d9e7da7be94E:
	.cfi_startproc
	pushq	%rbp
	.cfi_def_cfa_offset 16
	.cfi_offset %rbp, -16
	movq	%rsp, %rbp
	.cfi_def_cfa_register %rbp
	pushq	%r15
	pushq	%r14
	pushq	%rbx
	subq	$24, %rsp
	.cfi_offset %rbx, -40
	.cfi_offset %r14, -32
	.cfi_offset %r15, -24
	movq	(%rdi), %rbx
	leaq	l___unnamed_201(%rip), %rdx
	leaq	-48(%rbp), %r14
	movl	$10, %ecx
	movq	%r14, %rdi
	callq	__ZN4core3fmt9Formatter12debug_struct17h985c0158d1fc7193E
	movq	%rbx, -32(%rbp)
	leaq	72(%rbx), %r15
	addq	$40, %rbx
	leaq	l___unnamed_102(%rip), %rsi
	leaq	l___unnamed_103(%rip), %r8
	leaq	-32(%rbp), %rcx
	movl	$5, %edx
	movq	%r14, %rdi
	callq	__ZN4core3fmt8builders11DebugStruct5field17h9c15dc155278eed2E
	movq	%r15, -32(%rbp)
	leaq	l___unnamed_79(%rip), %rsi
	leaq	l___unnamed_80(%rip), %r8
	leaq	-32(%rbp), %rcx
	movl	$11, %edx
	movq	%r14, %rdi
	callq	__ZN4core3fmt8builders11DebugStruct5field17h9c15dc155278eed2E
	movq	%rbx, -32(%rbp)
	leaq	l___unnamed_47(%rip), %rsi
	leaq	l___unnamed_48(%rip), %r8
	leaq	-32(%rbp), %rcx
	movl	$6, %edx
	movq	%r14, %rdi
	callq	__ZN4core3fmt8builders11DebugStruct5field17h9c15dc155278eed2E
	movq	%r14, %rdi
	callq	__ZN4core3fmt8builders11DebugStruct6finish17h26808393f3fed630E
	addq	$24, %rsp
	popq	%rbx
	popq	%r14
	popq	%r15
	popq	%rbp
	retq
	.cfi_endproc

	.p2align	4, 0x90
__ZN42_$LT$$RF$T$u20$as$u20$core..fmt..Debug$GT$3fmt17h79b1592fc124ad01E:
	.cfi_startproc
	pushq	%rbp
	.cfi_def_cfa_offset 16
	.cfi_offset %rbp, -16
	movq	%rsp, %rbp
	.cfi_def_cfa_register %rbp
	movq	%rsi, %rdi
	leaq	l___unnamed_202(%rip), %rsi
	movl	$6, %edx
	popq	%rbp
	jmp	__ZN4core3fmt9Formatter9write_str17h957ea9717e49073dE
	.cfi_endproc

	.p2align	4, 0x90
__ZN42_$LT$$RF$T$u20$as$u20$core..fmt..Debug$GT$3fmt17h7cbce44c4597d116E:
	.cfi_startproc
	pushq	%rbp
	.cfi_def_cfa_offset 16
	.cfi_offset %rbp, -16
	movq	%rsp, %rbp
	.cfi_def_cfa_register %rbp
	pushq	%r14
	pushq	%rbx
	subq	$32, %rsp
	.cfi_offset %rbx, -32
	.cfi_offset %r14, -24
	movq	(%rdi), %rbx
	cmpq	$0, (%rbx)
	je	LBB112_2
	leaq	-48(%rbp), %r14
	leaq	L___unnamed_14(%rip), %rdx
	movl	$4, %ecx
	movq	%r14, %rdi
	callq	__ZN4core3fmt9Formatter11debug_tuple17h15ca25ad759edd1cE
	movq	%rbx, -24(%rbp)
	leaq	l___unnamed_203(%rip), %rdx
	leaq	-24(%rbp), %rsi
	movq	%r14, %rdi
	callq	__ZN4core3fmt8builders10DebugTuple5field17hf36121153a94f236E
	jmp	LBB112_3
LBB112_2:
	leaq	-48(%rbp), %r14
	leaq	L___unnamed_16(%rip), %rdx
	movl	$4, %ecx
	movq	%r14, %rdi
	callq	__ZN4core3fmt9Formatter11debug_tuple17h15ca25ad759edd1cE
LBB112_3:
	movq	%r14, %rdi
	callq	__ZN4core3fmt8builders10DebugTuple6finish17h68acf09c6f6593f2E
	addq	$32, %rsp
	popq	%rbx
	popq	%r14
	popq	%rbp
	retq
	.cfi_endproc

	.p2align	4, 0x90
__ZN42_$LT$$RF$T$u20$as$u20$core..fmt..Debug$GT$3fmt17h7d5f599965de6e92E:
	.cfi_startproc
	pushq	%rbp
	.cfi_def_cfa_offset 16
	.cfi_offset %rbp, -16
	movq	%rsp, %rbp
	.cfi_def_cfa_register %rbp
	pushq	%r15
	pushq	%r14
	pushq	%rbx
	subq	$24, %rsp
	.cfi_offset %rbx, -40
	.cfi_offset %r14, -32
	.cfi_offset %r15, -24
	movq	(%rdi), %rbx
	leaq	56(%rbx), %r15
	leaq	l___unnamed_204(%rip), %rdx
	leaq	-48(%rbp), %r14
	movl	$13, %ecx
	movq	%r14, %rdi
	callq	__ZN4core3fmt9Formatter12debug_struct17h985c0158d1fc7193E
	movq	%r15, -32(%rbp)
	leaq	l___unnamed_205(%rip), %rsi
	leaq	l___unnamed_206(%rip), %r8
	leaq	-32(%rbp), %rcx
	movl	$9, %edx
	movq	%r14, %rdi
	callq	__ZN4core3fmt8builders11DebugStruct5field17h9c15dc155278eed2E
	movq	%rbx, -32(%rbp)
	leaq	60(%rbx), %r15
	addq	$48, %rbx
	leaq	L___unnamed_150(%rip), %rsi
	leaq	l___unnamed_207(%rip), %r8
	leaq	-32(%rbp), %rcx
	movl	$8, %edx
	movq	%r14, %rdi
	callq	__ZN4core3fmt8builders11DebugStruct5field17h9c15dc155278eed2E
	movq	%r15, -32(%rbp)
	leaq	l___unnamed_208(%rip), %rsi
	leaq	l___unnamed_209(%rip), %r8
	leaq	-32(%rbp), %rcx
	movl	$10, %edx
	movq	%r14, %rdi
	callq	__ZN4core3fmt8builders11DebugStruct5field17h9c15dc155278eed2E
	movq	%rbx, -32(%rbp)
	leaq	L___unnamed_162(%rip), %rsi
	leaq	l___unnamed_7(%rip), %r8
	leaq	-32(%rbp), %rcx
	movl	$4, %edx
	movq	%r14, %rdi
	callq	__ZN4core3fmt8builders11DebugStruct5field17h9c15dc155278eed2E
	movq	%r14, %rdi
	callq	__ZN4core3fmt8builders11DebugStruct6finish17h26808393f3fed630E
	addq	$24, %rsp
	popq	%rbx
	popq	%r14
	popq	%r15
	popq	%rbp
	retq
	.cfi_endproc

	.p2align	4, 0x90
__ZN42_$LT$$RF$T$u20$as$u20$core..fmt..Debug$GT$3fmt17h800b660149ad67daE:
	.cfi_startproc
	pushq	%rbp
	.cfi_def_cfa_offset 16
	.cfi_offset %rbp, -16
	movq	%rsp, %rbp
	.cfi_def_cfa_register %rbp
	movq	(%rdi), %rdi
	popq	%rbp
	jmp	__ZN52_$LT$syn..expr..Expr$u20$as$u20$core..fmt..Debug$GT$3fmt17h8f508d185000dc6dE
	.cfi_endproc

	.p2align	4, 0x90
__ZN42_$LT$$RF$T$u20$as$u20$core..fmt..Debug$GT$3fmt17h80b250286fefd7bdE:
	.cfi_startproc
	pushq	%rbp
	.cfi_def_cfa_offset 16
	.cfi_offset %rbp, -16
	movq	%rsp, %rbp
	.cfi_def_cfa_register %rbp
	pushq	%r14
	pushq	%rbx
	subq	$32, %rsp
	.cfi_offset %rbx, -32
	.cfi_offset %r14, -24
	movq	(%rdi), %rbx
	leaq	L___unnamed_210(%rip), %rdx
	leaq	-40(%rbp), %r14
	movl	$8, %ecx
	movq	%r14, %rdi
	callq	__ZN4core3fmt9Formatter12debug_struct17h985c0158d1fc7193E
	movq	%rbx, -24(%rbp)
	addq	$24, %rbx
	leaq	l___unnamed_22(%rip), %rsi
	leaq	l___unnamed_23(%rip), %r8
	leaq	-24(%rbp), %rcx
	movl	$5, %edx
	movq	%r14, %rdi
	callq	__ZN4core3fmt8builders11DebugStruct5field17h9c15dc155278eed2E
	movq	%rbx, -24(%rbp)
	leaq	L___unnamed_211(%rip), %rsi
	leaq	l___unnamed_212(%rip), %r8
	leaq	-24(%rbp), %rcx
	movl	$4, %edx
	movq	%r14, %rdi
	callq	__ZN4core3fmt8builders11DebugStruct5field17h9c15dc155278eed2E
	movq	%r14, %rdi
	callq	__ZN4core3fmt8builders11DebugStruct6finish17h26808393f3fed630E
	addq	$32, %rsp
	popq	%rbx
	popq	%r14
	popq	%rbp
	retq
	.cfi_endproc

	.p2align	4, 0x90
__ZN42_$LT$$RF$T$u20$as$u20$core..fmt..Debug$GT$3fmt17h81481ead0a6af00eE:
	.cfi_startproc
	pushq	%rbp
	.cfi_def_cfa_offset 16
	.cfi_offset %rbp, -16
	movq	%rsp, %rbp
	.cfi_def_cfa_register %rbp
	pushq	%r14
	pushq	%rbx
	subq	$32, %rsp
	.cfi_offset %rbx, -32
	.cfi_offset %r14, -24
	movq	(%rdi), %rbx
	leaq	l___unnamed_213(%rip), %rdx
	leaq	-40(%rbp), %r14
	movl	$9, %ecx
	movq	%r14, %rdi
	callq	__ZN4core3fmt9Formatter12debug_struct17h985c0158d1fc7193E
	movq	%rbx, -24(%rbp)
	leaq	l___unnamed_53(%rip), %rsi
	leaq	l___unnamed_54(%rip), %r8
	leaq	-24(%rbp), %rcx
	movl	$12, %edx
	movq	%r14, %rdi
	callq	__ZN4core3fmt8builders11DebugStruct5field17h9c15dc155278eed2E
	movq	%r14, %rdi
	callq	__ZN4core3fmt8builders11DebugStruct6finish17h26808393f3fed630E
	addq	$32, %rsp
	popq	%rbx
	popq	%r14
	popq	%rbp
	retq
	.cfi_endproc

	.p2align	4, 0x90
__ZN42_$LT$$RF$T$u20$as$u20$core..fmt..Debug$GT$3fmt17h81a034cc534f7a43E:
	.cfi_startproc
	pushq	%rbp
	.cfi_def_cfa_offset 16
	.cfi_offset %rbp, -16
	movq	%rsp, %rbp
	.cfi_def_cfa_register %rbp
	pushq	%r15
	pushq	%r14
	pushq	%rbx
	subq	$24, %rsp
	.cfi_offset %rbx, -40
	.cfi_offset %r14, -32
	.cfi_offset %r15, -24
	movq	(%rdi), %rbx
	leaq	l___unnamed_214(%rip), %rdx
	leaq	-48(%rbp), %r14
	movl	$17, %ecx
	movq	%r14, %rdi
	callq	__ZN4core3fmt9Formatter12debug_struct17h985c0158d1fc7193E
	movq	%rbx, -32(%rbp)
	leaq	80(%rbx), %r15
	addq	$48, %rbx
	leaq	L___unnamed_150(%rip), %rsi
	leaq	l___unnamed_151(%rip), %r8
	leaq	-32(%rbp), %rcx
	movl	$8, %edx
	movq	%r14, %rdi
	callq	__ZN4core3fmt8builders11DebugStruct5field17h9c15dc155278eed2E
	movq	%r15, -32(%rbp)
	leaq	l___unnamed_79(%rip), %rsi
	leaq	l___unnamed_80(%rip), %r8
	leaq	-32(%rbp), %rcx
	movl	$11, %edx
	movq	%r14, %rdi
	callq	__ZN4core3fmt8builders11DebugStruct5field17h9c15dc155278eed2E
	movq	%rbx, -32(%rbp)
	leaq	l___unnamed_47(%rip), %rsi
	leaq	l___unnamed_153(%rip), %r8
	leaq	-32(%rbp), %rcx
	movl	$6, %edx
	movq	%r14, %rdi
	callq	__ZN4core3fmt8builders11DebugStruct5field17h9c15dc155278eed2E
	movq	%r14, %rdi
	callq	__ZN4core3fmt8builders11DebugStruct6finish17h26808393f3fed630E
	addq	$24, %rsp
	popq	%rbx
	popq	%r14
	popq	%r15
	popq	%rbp
	retq
	.cfi_endproc

	.p2align	4, 0x90
__ZN42_$LT$$RF$T$u20$as$u20$core..fmt..Debug$GT$3fmt17h863e335a9ff392daE:
	.cfi_startproc
	pushq	%rbp
	.cfi_def_cfa_offset 16
	.cfi_offset %rbp, -16
	movq	%rsp, %rbp
	.cfi_def_cfa_register %rbp
	pushq	%r14
	pushq	%rbx
	subq	$80, %rsp
	.cfi_offset %rbx, -32
	.cfi_offset %r14, -24
	movq	(%rdi), %rbx
	leaq	l___unnamed_215(%rip), %rdx
	leaq	-96(%rbp), %r14
	movl	$6, %ecx
	movq	%r14, %rdi
	callq	__ZN4core3fmt9Formatter12debug_struct17h985c0158d1fc7193E
	movq	(%rbx), %rax
	movq	%rax, -32(%rbp)
	movq	__ZN59_$LT$proc_macro2..Literal$u20$as$u20$core..fmt..Display$GT$3fmt17h3429fe76352e3b2eE@GOTPCREL(%rip), %rax
	movq	%rax, -24(%rbp)
	leaq	l___unnamed_18(%rip), %rax
	movq	%rax, -80(%rbp)
	movq	$1, -72(%rbp)
	movq	$0, -64(%rbp)
	leaq	-32(%rbp), %rax
	movq	%rax, -48(%rbp)
	movq	$1, -40(%rbp)
	leaq	l___unnamed_19(%rip), %rsi
	leaq	l___unnamed_20(%rip), %r8
	leaq	-80(%rbp), %rcx
	movl	$5, %edx
	movq	%r14, %rdi
	callq	__ZN4core3fmt8builders11DebugStruct5field17h9c15dc155278eed2E
	movq	%rax, %rdi
	callq	__ZN4core3fmt8builders11DebugStruct6finish17h26808393f3fed630E
	addq	$80, %rsp
	popq	%rbx
	popq	%r14
	popq	%rbp
	retq
	.cfi_endproc

	.p2align	4, 0x90
__ZN42_$LT$$RF$T$u20$as$u20$core..fmt..Debug$GT$3fmt17h87fe9904ebc48d1aE:
	.cfi_startproc
	pushq	%rbp
	.cfi_def_cfa_offset 16
	.cfi_offset %rbp, -16
	movq	%rsp, %rbp
	.cfi_def_cfa_register %rbp
	pushq	%r15
	pushq	%r14
	pushq	%r13
	pushq	%r12
	pushq	%rbx
	subq	$24, %rsp
	.cfi_offset %rbx, -56
	.cfi_offset %r12, -48
	.cfi_offset %r13, -40
	.cfi_offset %r14, -32
	.cfi_offset %r15, -24
	movq	(%rdi), %rbx
	leaq	L___unnamed_216(%rip), %rdx
	leaq	-64(%rbp), %r15
	movl	$8, %ecx
	movq	%r15, %rdi
	callq	__ZN4core3fmt9Formatter12debug_struct17h985c0158d1fc7193E
	movq	%rbx, -48(%rbp)
	leaq	24(%rbx), %r12
	leaq	64(%rbx), %r13
	leaq	32(%rbx), %r14
	leaq	l___unnamed_22(%rip), %rsi
	leaq	l___unnamed_23(%rip), %r8
	leaq	-48(%rbp), %rcx
	movl	$5, %edx
	movq	%r15, %rdi
	callq	__ZN4core3fmt8builders11DebugStruct5field17h9c15dc155278eed2E
	movq	%r12, -48(%rbp)
	leaq	L___unnamed_217(%rip), %rsi
	leaq	l___unnamed_27(%rip), %r8
	leaq	-48(%rbp), %rcx
	movl	$4, %edx
	movq	%r15, %rdi
	callq	__ZN4core3fmt8builders11DebugStruct5field17h9c15dc155278eed2E
	movq	%r13, -48(%rbp)
	leaq	l___unnamed_88(%rip), %rsi
	leaq	l___unnamed_89(%rip), %r8
	leaq	-48(%rbp), %rcx
	movl	$11, %edx
	movq	%r15, %rdi
	callq	__ZN4core3fmt8builders11DebugStruct5field17h9c15dc155278eed2E
	movq	%r14, -48(%rbp)
	leaq	L___unnamed_218(%rip), %rsi
	leaq	l___unnamed_219(%rip), %r8
	leaq	-48(%rbp), %rcx
	movl	$4, %edx
	movq	%r15, %rdi
	callq	__ZN4core3fmt8builders11DebugStruct5field17h9c15dc155278eed2E
	movq	%r15, %rdi
	callq	__ZN4core3fmt8builders11DebugStruct6finish17h26808393f3fed630E
	addq	$24, %rsp
	popq	%rbx
	popq	%r12
	popq	%r13
	popq	%r14
	popq	%r15
	popq	%rbp
	retq
	.cfi_endproc

	.p2align	4, 0x90
__ZN42_$LT$$RF$T$u20$as$u20$core..fmt..Debug$GT$3fmt17h88bf2ee3056f6c1bE:
	.cfi_startproc
	pushq	%rbp
	.cfi_def_cfa_offset 16
	.cfi_offset %rbp, -16
	movq	%rsp, %rbp
	.cfi_def_cfa_register %rbp
	movq	%rsi, %rdi
	leaq	l___unnamed_220(%rip), %rsi
	movl	$5, %edx
	popq	%rbp
	jmp	__ZN4core3fmt9Formatter9write_str17h957ea9717e49073dE
	.cfi_endproc

	.p2align	4, 0x90
__ZN42_$LT$$RF$T$u20$as$u20$core..fmt..Debug$GT$3fmt17h88efbee048c3a3aaE:
	.cfi_startproc
	pushq	%rbp
	.cfi_def_cfa_offset 16
	.cfi_offset %rbp, -16
	movq	%rsp, %rbp
	.cfi_def_cfa_register %rbp
	pushq	%r14
	pushq	%rbx
	subq	$80, %rsp
	.cfi_offset %rbx, -32
	.cfi_offset %r14, -24
	movq	(%rdi), %rbx
	leaq	l___unnamed_221(%rip), %rdx
	leaq	-96(%rbp), %r14
	movl	$7, %ecx
	movq	%r14, %rdi
	callq	__ZN4core3fmt9Formatter12debug_struct17h985c0158d1fc7193E
	movq	(%rbx), %rax
	movq	%rax, -32(%rbp)
	movq	__ZN59_$LT$proc_macro2..Literal$u20$as$u20$core..fmt..Display$GT$3fmt17h3429fe76352e3b2eE@GOTPCREL(%rip), %rax
	movq	%rax, -24(%rbp)
	leaq	l___unnamed_18(%rip), %rax
	movq	%rax, -80(%rbp)
	movq	$1, -72(%rbp)
	movq	$0, -64(%rbp)
	leaq	-32(%rbp), %rax
	movq	%rax, -48(%rbp)
	movq	$1, -40(%rbp)
	leaq	l___unnamed_19(%rip), %rsi
	leaq	l___unnamed_20(%rip), %r8
	leaq	-80(%rbp), %rcx
	movl	$5, %edx
	movq	%r14, %rdi
	callq	__ZN4core3fmt8builders11DebugStruct5field17h9c15dc155278eed2E
	movq	%rax, %rdi
	callq	__ZN4core3fmt8builders11DebugStruct6finish17h26808393f3fed630E
	addq	$80, %rsp
	popq	%rbx
	popq	%r14
	popq	%rbp
	retq
	.cfi_endproc

	.p2align	4, 0x90
__ZN42_$LT$$RF$T$u20$as$u20$core..fmt..Debug$GT$3fmt17h8a3556d7e12aaa63E:
	.cfi_startproc
	pushq	%rbp
	.cfi_def_cfa_offset 16
	.cfi_offset %rbp, -16
	movq	%rsp, %rbp
	.cfi_def_cfa_register %rbp
	movq	%rsi, %rdi
	leaq	l___unnamed_222(%rip), %rsi
	movl	$2, %edx
	popq	%rbp
	jmp	__ZN4core3fmt9Formatter3pad17he4a76f49c06ce69bE
	.cfi_endproc

	.p2align	4, 0x90
__ZN42_$LT$$RF$T$u20$as$u20$core..fmt..Debug$GT$3fmt17h8be990577430c5a0E:
	.cfi_startproc
	pushq	%rbp
	.cfi_def_cfa_offset 16
	.cfi_offset %rbp, -16
	movq	%rsp, %rbp
	.cfi_def_cfa_register %rbp
	pushq	%r15
	pushq	%r14
	pushq	%rbx
	subq	$24, %rsp
	.cfi_offset %rbx, -40
	.cfi_offset %r14, -32
	.cfi_offset %r15, -24
	movq	(%rdi), %rbx
	leaq	32(%rbx), %r15
	leaq	l___unnamed_223(%rip), %rdx
	leaq	-48(%rbp), %r14
	movl	$13, %ecx
	movq	%r14, %rdi
	callq	__ZN4core3fmt9Formatter12debug_struct17h985c0158d1fc7193E
	movq	%r15, -32(%rbp)
	leaq	l___unnamed_88(%rip), %rsi
	leaq	l___unnamed_89(%rip), %r8
	leaq	-32(%rbp), %rcx
	movl	$11, %edx
	movq	%r14, %rdi
	callq	__ZN4core3fmt8builders11DebugStruct5field17h9c15dc155278eed2E
	movq	%rbx, -32(%rbp)
	leaq	l___unnamed_224(%rip), %rsi
	leaq	l___unnamed_225(%rip), %r8
	leaq	-32(%rbp), %rcx
	movl	$7, %edx
	movq	%r14, %rdi
	callq	__ZN4core3fmt8builders11DebugStruct5field17h9c15dc155278eed2E
	movq	%r14, %rdi
	callq	__ZN4core3fmt8builders11DebugStruct6finish17h26808393f3fed630E
	addq	$24, %rsp
	popq	%rbx
	popq	%r14
	popq	%r15
	popq	%rbp
	retq
	.cfi_endproc

	.p2align	4, 0x90
__ZN42_$LT$$RF$T$u20$as$u20$core..fmt..Debug$GT$3fmt17h8c3a4a0da5b1f173E:
	.cfi_startproc
	pushq	%rbp
	.cfi_def_cfa_offset 16
	.cfi_offset %rbp, -16
	movq	%rsp, %rbp
	.cfi_def_cfa_register %rbp
	pushq	%r14
	pushq	%rbx
	subq	$32, %rsp
	.cfi_offset %rbx, -32
	.cfi_offset %r14, -24
	movq	(%rdi), %rbx
	leaq	l___unnamed_226(%rip), %rdx
	leaq	-40(%rbp), %r14
	movl	$9, %ecx
	movq	%r14, %rdi
	callq	__ZN4core3fmt9Formatter12debug_struct17h985c0158d1fc7193E
	movq	%rbx, -24(%rbp)
	leaq	l___unnamed_53(%rip), %rsi
	leaq	l___unnamed_54(%rip), %r8
	leaq	-24(%rbp), %rcx
	movl	$12, %edx
	movq	%r14, %rdi
	callq	__ZN4core3fmt8builders11DebugStruct5field17h9c15dc155278eed2E
	movq	%r14, %rdi
	callq	__ZN4core3fmt8builders11DebugStruct6finish17h26808393f3fed630E
	addq	$32, %rsp
	popq	%rbx
	popq	%r14
	popq	%rbp
	retq
	.cfi_endproc

	.p2align	4, 0x90
__ZN42_$LT$$RF$T$u20$as$u20$core..fmt..Debug$GT$3fmt17h8ca227b32ab1b293E:
	.cfi_startproc
	pushq	%rbp
	.cfi_def_cfa_offset 16
	.cfi_offset %rbp, -16
	movq	%rsp, %rbp
	.cfi_def_cfa_register %rbp
	pushq	%r14
	pushq	%rbx
	subq	$32, %rsp
	.cfi_offset %rbx, -32
	.cfi_offset %r14, -24
	movq	(%rdi), %rbx
	leaq	l___unnamed_227(%rip), %rdx
	leaq	-40(%rbp), %r14
	movl	$7, %ecx
	movq	%r14, %rdi
	callq	__ZN4core3fmt9Formatter12debug_struct17h985c0158d1fc7193E
	movq	%rbx, -24(%rbp)
	leaq	l___unnamed_53(%rip), %rsi
	leaq	l___unnamed_54(%rip), %r8
	leaq	-24(%rbp), %rcx
	movl	$12, %edx
	movq	%r14, %rdi
	callq	__ZN4core3fmt8builders11DebugStruct5field17h9c15dc155278eed2E
	movq	%r14, %rdi
	callq	__ZN4core3fmt8builders11DebugStruct6finish17h26808393f3fed630E
	addq	$32, %rsp
	popq	%rbx
	popq	%r14
	popq	%rbp
	retq
	.cfi_endproc

	.p2align	4, 0x90
__ZN42_$LT$$RF$T$u20$as$u20$core..fmt..Debug$GT$3fmt17h8de9568750bea28dE:
	.cfi_startproc
	pushq	%rbp
	.cfi_def_cfa_offset 16
	.cfi_offset %rbp, -16
	movq	%rsp, %rbp
	.cfi_def_cfa_register %rbp
	movq	%rsi, %rdi
	leaq	l___unnamed_228(%rip), %rsi
	movl	$5, %edx
	popq	%rbp
	jmp	__ZN4core3fmt9Formatter9write_str17h957ea9717e49073dE
	.cfi_endproc

	.p2align	4, 0x90
__ZN42_$LT$$RF$T$u20$as$u20$core..fmt..Debug$GT$3fmt17h8e6d877597be7e9dE:
	.cfi_startproc
	pushq	%rbp
	.cfi_def_cfa_offset 16
	.cfi_offset %rbp, -16
	movq	%rsp, %rbp
	.cfi_def_cfa_register %rbp
	pushq	%r15
	pushq	%r14
	pushq	%rbx
	subq	$24, %rsp
	.cfi_offset %rbx, -40
	.cfi_offset %r14, -32
	.cfi_offset %r15, -24
	movq	(%rdi), %rbx
	leaq	48(%rbx), %r15
	leaq	l___unnamed_229(%rip), %rdx
	leaq	-48(%rbp), %r14
	movl	$10, %ecx
	movq	%r14, %rdi
	callq	__ZN4core3fmt9Formatter12debug_struct17h985c0158d1fc7193E
	movq	%r15, -32(%rbp)
	leaq	l___unnamed_230(%rip), %rsi
	leaq	l___unnamed_231(%rip), %r8
	leaq	-32(%rbp), %rcx
	movl	$12, %edx
	movq	%r14, %rdi
	callq	__ZN4core3fmt8builders11DebugStruct5field17h9c15dc155278eed2E
	movq	%rbx, -32(%rbp)
	addq	$52, %rbx
	leaq	l___unnamed_42(%rip), %rsi
	leaq	l___unnamed_232(%rip), %r8
	leaq	-32(%rbp), %rcx
	movl	$6, %edx
	movq	%r14, %rdi
	callq	__ZN4core3fmt8builders11DebugStruct5field17h9c15dc155278eed2E
	movq	%rbx, -32(%rbp)
	leaq	l___unnamed_233(%rip), %rsi
	leaq	l___unnamed_234(%rip), %r8
	leaq	-32(%rbp), %rcx
	movl	$10, %edx
	movq	%r14, %rdi
	callq	__ZN4core3fmt8builders11DebugStruct5field17h9c15dc155278eed2E
	movq	%r14, %rdi
	callq	__ZN4core3fmt8builders11DebugStruct6finish17h26808393f3fed630E
	addq	$24, %rsp
	popq	%rbx
	popq	%r14
	popq	%r15
	popq	%rbp
	retq
	.cfi_endproc

	.p2align	4, 0x90
__ZN42_$LT$$RF$T$u20$as$u20$core..fmt..Debug$GT$3fmt17h8f850eaf4fddc19fE:
	.cfi_startproc
	pushq	%rbp
	.cfi_def_cfa_offset 16
	.cfi_offset %rbp, -16
	movq	%rsp, %rbp
	.cfi_def_cfa_register %rbp
	movq	(%rdi), %rdi
	popq	%rbp
	jmp	__ZN55_$LT$proc_macro2..Ident$u20$as$u20$core..fmt..Debug$GT$3fmt17h7fde98d30fd73473E
	.cfi_endproc

	.p2align	4, 0x90
__ZN42_$LT$$RF$T$u20$as$u20$core..fmt..Debug$GT$3fmt17h910ee1302b5d9dd1E:
	.cfi_startproc
	pushq	%rbp
	.cfi_def_cfa_offset 16
	.cfi_offset %rbp, -16
	movq	%rsp, %rbp
	.cfi_def_cfa_register %rbp
	movq	%rsi, %rdi
	leaq	l___unnamed_235(%rip), %rsi
	movl	$5, %edx
	popq	%rbp
	jmp	__ZN4core3fmt9Formatter9write_str17h957ea9717e49073dE
	.cfi_endproc

	.p2align	4, 0x90
__ZN42_$LT$$RF$T$u20$as$u20$core..fmt..Debug$GT$3fmt17h91551211bcca9db3E:
	.cfi_startproc
	pushq	%rbp
	.cfi_def_cfa_offset 16
	.cfi_offset %rbp, -16
	movq	%rsp, %rbp
	.cfi_def_cfa_register %rbp
	pushq	%r14
	pushq	%rbx
	subq	$32, %rsp
	.cfi_offset %rbx, -32
	.cfi_offset %r14, -24
	movq	(%rdi), %rbx
	leaq	l___unnamed_236(%rip), %rdx
	leaq	-40(%rbp), %r14
	movl	$7, %ecx
	movq	%r14, %rdi
	callq	__ZN4core3fmt9Formatter12debug_struct17h985c0158d1fc7193E
	movq	%rbx, -24(%rbp)
	addq	$24, %rbx
	leaq	l___unnamed_22(%rip), %rsi
	leaq	l___unnamed_23(%rip), %r8
	leaq	-24(%rbp), %rcx
	movl	$5, %edx
	movq	%r14, %rdi
	callq	__ZN4core3fmt8builders11DebugStruct5field17h9c15dc155278eed2E
	movq	%rbx, -24(%rbp)
	leaq	l___unnamed_33(%rip), %rsi
	leaq	l___unnamed_34(%rip), %r8
	leaq	-24(%rbp), %rcx
	movl	$3, %edx
	movq	%r14, %rdi
	callq	__ZN4core3fmt8builders11DebugStruct5field17h9c15dc155278eed2E
	movq	%r14, %rdi
	callq	__ZN4core3fmt8builders11DebugStruct6finish17h26808393f3fed630E
	addq	$32, %rsp
	popq	%rbx
	popq	%r14
	popq	%rbp
	retq
	.cfi_endproc

	.p2align	4, 0x90
__ZN42_$LT$$RF$T$u20$as$u20$core..fmt..Debug$GT$3fmt17h93e426709637e4d2E:
	.cfi_startproc
	pushq	%rbp
	.cfi_def_cfa_offset 16
	.cfi_offset %rbp, -16
	movq	%rsp, %rbp
	.cfi_def_cfa_register %rbp
	pushq	%r15
	pushq	%r14
	pushq	%rbx
	subq	$24, %rsp
	.cfi_offset %rbx, -40
	.cfi_offset %r14, -32
	.cfi_offset %r15, -24
	movq	(%rdi), %rbx
	leaq	l___unnamed_237(%rip), %rdx
	leaq	-48(%rbp), %r14
	movl	$7, %ecx
	movq	%r14, %rdi
	callq	__ZN4core3fmt9Formatter12debug_struct17h985c0158d1fc7193E
	movq	%rbx, -32(%rbp)
	leaq	224(%rbx), %r15
	addq	$40, %rbx
	leaq	l___unnamed_102(%rip), %rsi
	leaq	l___unnamed_103(%rip), %r8
	leaq	-32(%rbp), %rcx
	movl	$5, %edx
	movq	%r14, %rdi
	callq	__ZN4core3fmt8builders11DebugStruct5field17h9c15dc155278eed2E
	movq	%r15, -32(%rbp)
	leaq	L___unnamed_31(%rip), %rsi
	leaq	l___unnamed_32(%rip), %r8
	leaq	-32(%rbp), %rcx
	movl	$8, %edx
	movq	%r14, %rdi
	callq	__ZN4core3fmt8builders11DebugStruct5field17h9c15dc155278eed2E
	movq	%rbx, -32(%rbp)
	leaq	l___unnamed_6(%rip), %rsi
	leaq	l___unnamed_78(%rip), %r8
	leaq	-32(%rbp), %rcx
	movl	$2, %edx
	movq	%r14, %rdi
	callq	__ZN4core3fmt8builders11DebugStruct5field17h9c15dc155278eed2E
	movq	%r14, %rdi
	callq	__ZN4core3fmt8builders11DebugStruct6finish17h26808393f3fed630E
	addq	$24, %rsp
	popq	%rbx
	popq	%r14
	popq	%r15
	popq	%rbp
	retq
	.cfi_endproc

	.p2align	4, 0x90
__ZN42_$LT$$RF$T$u20$as$u20$core..fmt..Debug$GT$3fmt17h94f290e2d74c9ebaE:
	.cfi_startproc
	pushq	%rbp
	.cfi_def_cfa_offset 16
	.cfi_offset %rbp, -16
	movq	%rsp, %rbp
	.cfi_def_cfa_register %rbp
	pushq	%r15
	pushq	%r14
	pushq	%rbx
	subq	$24, %rsp
	.cfi_offset %rbx, -40
	.cfi_offset %r14, -32
	.cfi_offset %r15, -24
	movq	(%rdi), %rbx
	leaq	120(%rbx), %r15
	leaq	l___unnamed_238(%rip), %rdx
	leaq	-48(%rbp), %r14
	movl	$9, %ecx
	movq	%r14, %rdi
	callq	__ZN4core3fmt9Formatter12debug_struct17h985c0158d1fc7193E
	movq	%r15, -32(%rbp)
	leaq	l___unnamed_56(%rip), %rsi
	leaq	l___unnamed_57(%rip), %r8
	leaq	-32(%rbp), %rcx
	movl	$13, %edx
	movq	%r14, %rdi
	callq	__ZN4core3fmt8builders11DebugStruct5field17h9c15dc155278eed2E
	movq	%rbx, -32(%rbp)
	leaq	124(%rbx), %r15
	addq	$8, %rbx
	leaq	L___unnamed_162(%rip), %rsi
	leaq	l___unnamed_7(%rip), %r8
	leaq	-32(%rbp), %rcx
	movl	$4, %edx
	movq	%r14, %rdi
	callq	__ZN4core3fmt8builders11DebugStruct5field17h9c15dc155278eed2E
	movq	%r15, -32(%rbp)
	leaq	l___unnamed_233(%rip), %rsi
	leaq	l___unnamed_239(%rip), %r8
	leaq	-32(%rbp), %rcx
	movl	$10, %edx
	movq	%r14, %rdi
	callq	__ZN4core3fmt8builders11DebugStruct5field17h9c15dc155278eed2E
	movq	%rbx, -32(%rbp)
	leaq	l___unnamed_240(%rip), %rsi
	leaq	l___unnamed_51(%rip), %r8
	leaq	-32(%rbp), %rcx
	movl	$3, %edx
	movq	%r14, %rdi
	callq	__ZN4core3fmt8builders11DebugStruct5field17h9c15dc155278eed2E
	movq	%r14, %rdi
	callq	__ZN4core3fmt8builders11DebugStruct6finish17h26808393f3fed630E
	addq	$24, %rsp
	popq	%rbx
	popq	%r14
	popq	%r15
	popq	%rbp
	retq
	.cfi_endproc

	.p2align	4, 0x90
__ZN42_$LT$$RF$T$u20$as$u20$core..fmt..Debug$GT$3fmt17h98554c376ccbdc30E:
	.cfi_startproc
	pushq	%rbp
	.cfi_def_cfa_offset 16
	.cfi_offset %rbp, -16
	movq	%rsp, %rbp
	.cfi_def_cfa_register %rbp
	pushq	%r15
	pushq	%r14
	pushq	%rbx
	subq	$24, %rsp
	.cfi_offset %rbx, -40
	.cfi_offset %r14, -32
	.cfi_offset %r15, -24
	movq	(%rdi), %rbx
	leaq	32(%rbx), %r15
	leaq	l___unnamed_241(%rip), %rdx
	leaq	-48(%rbp), %r14
	movl	$11, %ecx
	movq	%r14, %rdi
	callq	__ZN4core3fmt9Formatter12debug_struct17h985c0158d1fc7193E
	movq	%r15, -32(%rbp)
	leaq	l___unnamed_130(%rip), %rsi
	leaq	l___unnamed_131(%rip), %r8
	leaq	-32(%rbp), %rcx
	movl	$11, %edx
	movq	%r14, %rdi
	callq	__ZN4core3fmt8builders11DebugStruct5field17h9c15dc155278eed2E
	movq	%rbx, -32(%rbp)
	leaq	l___unnamed_242(%rip), %rsi
	leaq	l___unnamed_225(%rip), %r8
	leaq	-32(%rbp), %rcx
	movl	$5, %edx
	movq	%r14, %rdi
	callq	__ZN4core3fmt8builders11DebugStruct5field17h9c15dc155278eed2E
	movq	%r14, %rdi
	callq	__ZN4core3fmt8builders11DebugStruct6finish17h26808393f3fed630E
	addq	$24, %rsp
	popq	%rbx
	popq	%r14
	popq	%r15
	popq	%rbp
	retq
	.cfi_endproc

	.p2align	4, 0x90
__ZN42_$LT$$RF$T$u20$as$u20$core..fmt..Debug$GT$3fmt17h98db39eafe6a0ee5E:
	.cfi_startproc
	pushq	%rbp
	.cfi_def_cfa_offset 16
	.cfi_offset %rbp, -16
	movq	%rsp, %rbp
	.cfi_def_cfa_register %rbp
	pushq	%r14
	pushq	%rbx
	subq	$32, %rsp
	.cfi_offset %rbx, -32
	.cfi_offset %r14, -24
	movq	(%rdi), %rbx
	cmpq	$1, (%rbx)
	jne	LBB134_2
	addq	$8, %rbx
	leaq	-48(%rbp), %r14
	leaq	L___unnamed_14(%rip), %rdx
	movl	$4, %ecx
	movq	%r14, %rdi
	callq	__ZN4core3fmt9Formatter11debug_tuple17h15ca25ad759edd1cE
	movq	%rbx, -24(%rbp)
	leaq	l___unnamed_243(%rip), %rdx
	leaq	-24(%rbp), %rsi
	movq	%r14, %rdi
	callq	__ZN4core3fmt8builders10DebugTuple5field17hf36121153a94f236E
	jmp	LBB134_3
LBB134_2:
	leaq	-48(%rbp), %r14
	leaq	L___unnamed_16(%rip), %rdx
	movl	$4, %ecx
	movq	%r14, %rdi
	callq	__ZN4core3fmt9Formatter11debug_tuple17h15ca25ad759edd1cE
LBB134_3:
	movq	%r14, %rdi
	callq	__ZN4core3fmt8builders10DebugTuple6finish17h68acf09c6f6593f2E
	addq	$32, %rsp
	popq	%rbx
	popq	%r14
	popq	%rbp
	retq
	.cfi_endproc

	.p2align	4, 0x90
__ZN42_$LT$$RF$T$u20$as$u20$core..fmt..Debug$GT$3fmt17h9998068983b5cf3eE:
	.cfi_startproc
	pushq	%rbp
	.cfi_def_cfa_offset 16
	.cfi_offset %rbp, -16
	movq	%rsp, %rbp
	.cfi_def_cfa_register %rbp
	pushq	%r14
	pushq	%rbx
	subq	$32, %rsp
	.cfi_offset %rbx, -32
	.cfi_offset %r14, -24
	movq	(%rdi), %rbx
	leaq	l___unnamed_244(%rip), %rdx
	leaq	-40(%rbp), %r14
	movl	$5, %ecx
	movq	%r14, %rdi
	callq	__ZN4core3fmt9Formatter12debug_struct17h985c0158d1fc7193E
	movq	%rbx, -24(%rbp)
	addq	$4, %rbx
	leaq	l___unnamed_58(%rip), %rsi
	leaq	l___unnamed_245(%rip), %r8
	leaq	-24(%rbp), %rcx
	movl	$5, %edx
	movq	%r14, %rdi
	callq	__ZN4core3fmt8builders11DebugStruct5field17h9c15dc155278eed2E
	movq	%rbx, -24(%rbp)
	leaq	L___unnamed_246(%rip), %rsi
	leaq	l___unnamed_101(%rip), %r8
	leaq	-24(%rbp), %rcx
	movl	$4, %edx
	movq	%r14, %rdi
	callq	__ZN4core3fmt8builders11DebugStruct5field17h9c15dc155278eed2E
	movq	%r14, %rdi
	callq	__ZN4core3fmt8builders11DebugStruct6finish17h26808393f3fed630E
	addq	$32, %rsp
	popq	%rbx
	popq	%r14
	popq	%rbp
	retq
	.cfi_endproc

	.p2align	4, 0x90
__ZN42_$LT$$RF$T$u20$as$u20$core..fmt..Debug$GT$3fmt17h9a70494353b4c76fE:
	.cfi_startproc
	pushq	%rbp
	.cfi_def_cfa_offset 16
	.cfi_offset %rbp, -16
	movq	%rsp, %rbp
	.cfi_def_cfa_register %rbp
	movq	%rsi, %rdi
	leaq	L___unnamed_247(%rip), %rsi
	movl	$4, %edx
	popq	%rbp
	jmp	__ZN4core3fmt9Formatter9write_str17h957ea9717e49073dE
	.cfi_endproc

	.p2align	4, 0x90
__ZN42_$LT$$RF$T$u20$as$u20$core..fmt..Debug$GT$3fmt17h9cdb4579b7330b83E:
	.cfi_startproc
	pushq	%rbp
	.cfi_def_cfa_offset 16
	.cfi_offset %rbp, -16
	movq	%rsp, %rbp
	.cfi_def_cfa_register %rbp
	pushq	%r15
	pushq	%r14
	pushq	%r13
	pushq	%r12
	pushq	%rbx
	subq	$24, %rsp
	.cfi_offset %rbx, -56
	.cfi_offset %r12, -48
	.cfi_offset %r13, -40
	.cfi_offset %r14, -32
	.cfi_offset %r15, -24
	movq	(%rdi), %rbx
	leaq	-64(%rbp), %rdi
	callq	__ZN4core3fmt9Formatter10debug_list17hd054f0986422feb9E
	movq	%rbx, -48(%rbp)
	movq	16(%rbx), %rax
	testq	%rax, %rax
	je	LBB137_3
	movq	-48(%rbp), %rcx
	movq	(%rcx), %rbx
	movq	%rax, %rcx
	shlq	$8, %rcx
	leaq	(%rcx,%rax,8), %r14
	addq	%rbx, %r14
	leaq	l___unnamed_248(%rip), %r15
	leaq	-64(%rbp), %r12
	leaq	l___unnamed_72(%rip), %r13
	.p2align	4, 0x90
LBB137_2:
	movq	%r12, %rdi
	movq	%rbx, %rsi
	movq	%r15, %rdx
	callq	__ZN4core3fmt8builders9DebugList5entry17h5c0dec54538196dfE
	leaq	256(%rbx), %rsi
	movq	%r12, %rdi
	movq	%r13, %rdx
	callq	__ZN4core3fmt8builders9DebugList5entry17h5c0dec54538196dfE
	addq	$264, %rbx
	cmpq	%r14, %rbx
	jne	LBB137_2
LBB137_3:
	movq	-48(%rbp), %rsi
	cmpq	$0, 24(%rsi)
	je	LBB137_5
	addq	$24, %rsi
	leaq	l___unnamed_249(%rip), %rdx
	leaq	-64(%rbp), %rdi
	callq	__ZN4core3fmt8builders9DebugList5entry17h5c0dec54538196dfE
LBB137_5:
	leaq	-64(%rbp), %rdi
	callq	__ZN4core3fmt8builders9DebugList6finish17h3635bd6af9b1c5a6E
	addq	$24, %rsp
	popq	%rbx
	popq	%r12
	popq	%r13
	popq	%r14
	popq	%r15
	popq	%rbp
	retq
	.cfi_endproc

	.p2align	4, 0x90
__ZN42_$LT$$RF$T$u20$as$u20$core..fmt..Debug$GT$3fmt17h9d3cee39452c0902E:
	.cfi_startproc
	pushq	%rbp
	.cfi_def_cfa_offset 16
	.cfi_offset %rbp, -16
	movq	%rsp, %rbp
	.cfi_def_cfa_register %rbp
	movq	%rsi, %rdi
	leaq	L___unnamed_250(%rip), %rsi
	movl	$4, %edx
	popq	%rbp
	jmp	__ZN4core3fmt9Formatter9write_str17h957ea9717e49073dE
	.cfi_endproc

	.p2align	4, 0x90
__ZN42_$LT$$RF$T$u20$as$u20$core..fmt..Debug$GT$3fmt17h9d407a44619c3024E:
	.cfi_startproc
	pushq	%rbp
	.cfi_def_cfa_offset 16
	.cfi_offset %rbp, -16
	movq	%rsp, %rbp
	.cfi_def_cfa_register %rbp
	pushq	%r15
	pushq	%r14
	pushq	%r13
	pushq	%r12
	pushq	%rbx
	subq	$24, %rsp
	.cfi_offset %rbx, -56
	.cfi_offset %r12, -48
	.cfi_offset %r13, -40
	.cfi_offset %r14, -32
	.cfi_offset %r15, -24
	movq	(%rdi), %rbx
	leaq	32(%rbx), %r12
	leaq	44(%rbx), %r13
	leaq	48(%rbx), %r14
	leaq	l___unnamed_251(%rip), %rdx
	leaq	-64(%rbp), %r15
	movl	$30, %ecx
	movq	%r15, %rdi
	callq	__ZN4core3fmt9Formatter12debug_struct17h985c0158d1fc7193E
	movq	%r12, -48(%rbp)
	leaq	l___unnamed_252(%rip), %rsi
	leaq	l___unnamed_144(%rip), %r8
	leaq	-48(%rbp), %rcx
	movl	$12, %edx
	movq	%r15, %rdi
	callq	__ZN4core3fmt8builders11DebugStruct5field17h9c15dc155278eed2E
	movq	%r13, -48(%rbp)
	leaq	L___unnamed_4(%rip), %rsi
	leaq	l___unnamed_5(%rip), %r8
	leaq	-48(%rbp), %rcx
	movl	$8, %edx
	movq	%r15, %rdi
	callq	__ZN4core3fmt8builders11DebugStruct5field17h9c15dc155278eed2E
	movq	%rbx, -48(%rbp)
	leaq	L___unnamed_218(%rip), %rsi
	leaq	l___unnamed_253(%rip), %r8
	leaq	-48(%rbp), %rcx
	movl	$4, %edx
	movq	%r15, %rdi
	callq	__ZN4core3fmt8builders11DebugStruct5field17h9c15dc155278eed2E
	movq	%r14, -48(%rbp)
	leaq	L___unnamed_12(%rip), %rsi
	leaq	l___unnamed_13(%rip), %r8
	leaq	-48(%rbp), %rcx
	movl	$8, %edx
	movq	%r15, %rdi
	callq	__ZN4core3fmt8builders11DebugStruct5field17h9c15dc155278eed2E
	movq	%r15, %rdi
	callq	__ZN4core3fmt8builders11DebugStruct6finish17h26808393f3fed630E
	addq	$24, %rsp
	popq	%rbx
	popq	%r12
	popq	%r13
	popq	%r14
	popq	%r15
	popq	%rbp
	retq
	.cfi_endproc

	.p2align	4, 0x90
__ZN42_$LT$$RF$T$u20$as$u20$core..fmt..Debug$GT$3fmt17h9d75c6c032375673E:
	.cfi_startproc
	pushq	%rbp
	.cfi_def_cfa_offset 16
	.cfi_offset %rbp, -16
	movq	%rsp, %rbp
	.cfi_def_cfa_register %rbp
	movq	%rsi, %rdi
	leaq	L___unnamed_254(%rip), %rsi
	movl	$4, %edx
	popq	%rbp
	jmp	__ZN4core3fmt9Formatter9write_str17h957ea9717e49073dE
	.cfi_endproc

	.p2align	4, 0x90
__ZN42_$LT$$RF$T$u20$as$u20$core..fmt..Debug$GT$3fmt17ha1a7c8db417982feE:
	.cfi_startproc
	pushq	%rbp
	.cfi_def_cfa_offset 16
	.cfi_offset %rbp, -16
	movq	%rsp, %rbp
	.cfi_def_cfa_register %rbp
	pushq	%r15
	pushq	%r14
	pushq	%r13
	pushq	%r12
	pushq	%rbx
	subq	$24, %rsp
	.cfi_offset %rbx, -56
	.cfi_offset %r12, -48
	.cfi_offset %r13, -40
	.cfi_offset %r14, -32
	.cfi_offset %r15, -24
	movq	(%rdi), %rbx
	leaq	-64(%rbp), %rdi
	callq	__ZN4core3fmt9Formatter10debug_list17hd054f0986422feb9E
	movq	%rbx, -48(%rbp)
	movq	16(%rbx), %rax
	testq	%rax, %rax
	je	LBB141_3
	movq	-48(%rbp), %rcx
	movq	(%rcx), %rbx
	imulq	$120, %rax, %r14
	addq	%rbx, %r14
	leaq	l___unnamed_255(%rip), %r15
	leaq	-64(%rbp), %r12
	leaq	l___unnamed_72(%rip), %r13
	.p2align	4, 0x90
LBB141_2:
	movq	%r12, %rdi
	movq	%rbx, %rsi
	movq	%r15, %rdx
	callq	__ZN4core3fmt8builders9DebugList5entry17h5c0dec54538196dfE
	leaq	112(%rbx), %rsi
	movq	%r12, %rdi
	movq	%r13, %rdx
	callq	__ZN4core3fmt8builders9DebugList5entry17h5c0dec54538196dfE
	addq	$120, %rbx
	cmpq	%r14, %rbx
	jne	LBB141_2
LBB141_3:
	movq	-48(%rbp), %rsi
	cmpq	$0, 24(%rsi)
	je	LBB141_5
	addq	$24, %rsi
	leaq	l___unnamed_256(%rip), %rdx
	leaq	-64(%rbp), %rdi
	callq	__ZN4core3fmt8builders9DebugList5entry17h5c0dec54538196dfE
LBB141_5:
	leaq	-64(%rbp), %rdi
	callq	__ZN4core3fmt8builders9DebugList6finish17h3635bd6af9b1c5a6E
	addq	$24, %rsp
	popq	%rbx
	popq	%r12
	popq	%r13
	popq	%r14
	popq	%r15
	popq	%rbp
	retq
	.cfi_endproc

	.p2align	4, 0x90
__ZN42_$LT$$RF$T$u20$as$u20$core..fmt..Debug$GT$3fmt17ha1d0aa486cc97a17E:
	.cfi_startproc
	pushq	%rbp
	.cfi_def_cfa_offset 16
	.cfi_offset %rbp, -16
	movq	%rsp, %rbp
	.cfi_def_cfa_register %rbp
	pushq	%r14
	pushq	%rbx
	subq	$32, %rsp
	.cfi_offset %rbx, -32
	.cfi_offset %r14, -24
	movq	(%rdi), %rbx
	cmpl	$1, (%rbx)
	jne	LBB142_2
	addq	$4, %rbx
	leaq	-48(%rbp), %r14
	leaq	L___unnamed_14(%rip), %rdx
	movl	$4, %ecx
	movq	%r14, %rdi
	callq	__ZN4core3fmt9Formatter11debug_tuple17h15ca25ad759edd1cE
	movq	%rbx, -24(%rbp)
	leaq	l___unnamed_89(%rip), %rdx
	leaq	-24(%rbp), %rsi
	movq	%r14, %rdi
	callq	__ZN4core3fmt8builders10DebugTuple5field17hf36121153a94f236E
	jmp	LBB142_3
LBB142_2:
	leaq	-48(%rbp), %r14
	leaq	L___unnamed_16(%rip), %rdx
	movl	$4, %ecx
	movq	%r14, %rdi
	callq	__ZN4core3fmt9Formatter11debug_tuple17h15ca25ad759edd1cE
LBB142_3:
	movq	%r14, %rdi
	callq	__ZN4core3fmt8builders10DebugTuple6finish17h68acf09c6f6593f2E
	addq	$32, %rsp
	popq	%rbx
	popq	%r14
	popq	%rbp
	retq
	.cfi_endproc

	.p2align	4, 0x90
__ZN42_$LT$$RF$T$u20$as$u20$core..fmt..Debug$GT$3fmt17ha45e439acb91decbE:
	.cfi_startproc
	pushq	%rbp
	.cfi_def_cfa_offset 16
	.cfi_offset %rbp, -16
	movq	%rsp, %rbp
	.cfi_def_cfa_register %rbp
	pushq	%r14
	pushq	%rbx
	subq	$32, %rsp
	.cfi_offset %rbx, -32
	.cfi_offset %r14, -24
	movq	(%rdi), %rbx
	leaq	l___unnamed_257(%rip), %rdx
	leaq	-40(%rbp), %r14
	movl	$12, %ecx
	movq	%r14, %rdi
	callq	__ZN4core3fmt9Formatter12debug_struct17h985c0158d1fc7193E
	movq	%rbx, -24(%rbp)
	leaq	l___unnamed_53(%rip), %rsi
	leaq	l___unnamed_54(%rip), %r8
	leaq	-24(%rbp), %rcx
	movl	$12, %edx
	movq	%r14, %rdi
	callq	__ZN4core3fmt8builders11DebugStruct5field17h9c15dc155278eed2E
	movq	%r14, %rdi
	callq	__ZN4core3fmt8builders11DebugStruct6finish17h26808393f3fed630E
	addq	$32, %rsp
	popq	%rbx
	popq	%r14
	popq	%rbp
	retq
	.cfi_endproc

	.p2align	4, 0x90
__ZN42_$LT$$RF$T$u20$as$u20$core..fmt..Debug$GT$3fmt17ha5d47f11dd0fceb2E:
	.cfi_startproc
	pushq	%rbp
	.cfi_def_cfa_offset 16
	.cfi_offset %rbp, -16
	movq	%rsp, %rbp
	.cfi_def_cfa_register %rbp
	pushq	%r14
	pushq	%rbx
	subq	$32, %rsp
	.cfi_offset %rbx, -32
	.cfi_offset %r14, -24
	movq	(%rdi), %rbx
	cmpl	$1, (%rbx)
	jne	LBB144_2
	addq	$4, %rbx
	leaq	-48(%rbp), %r14
	leaq	L___unnamed_14(%rip), %rdx
	movl	$4, %ecx
	movq	%r14, %rdi
	callq	__ZN4core3fmt9Formatter11debug_tuple17h15ca25ad759edd1cE
	movq	%rbx, -24(%rbp)
	leaq	l___unnamed_258(%rip), %rdx
	leaq	-24(%rbp), %rsi
	movq	%r14, %rdi
	callq	__ZN4core3fmt8builders10DebugTuple5field17hf36121153a94f236E
	jmp	LBB144_3
LBB144_2:
	leaq	-48(%rbp), %r14
	leaq	L___unnamed_16(%rip), %rdx
	movl	$4, %ecx
	movq	%r14, %rdi
	callq	__ZN4core3fmt9Formatter11debug_tuple17h15ca25ad759edd1cE
LBB144_3:
	movq	%r14, %rdi
	callq	__ZN4core3fmt8builders10DebugTuple6finish17h68acf09c6f6593f2E
	addq	$32, %rsp
	popq	%rbx
	popq	%r14
	popq	%rbp
	retq
	.cfi_endproc

	.p2align	4, 0x90
__ZN42_$LT$$RF$T$u20$as$u20$core..fmt..Debug$GT$3fmt17ha6a67a7f4d6d0491E:
	.cfi_startproc
	pushq	%rbp
	.cfi_def_cfa_offset 16
	.cfi_offset %rbp, -16
	movq	%rsp, %rbp
	.cfi_def_cfa_register %rbp
	pushq	%r14
	pushq	%rbx
	subq	$32, %rsp
	.cfi_offset %rbx, -32
	.cfi_offset %r14, -24
	movq	(%rdi), %rbx
	leaq	l___unnamed_259(%rip), %rdx
	leaq	-40(%rbp), %r14
	movl	$9, %ecx
	movq	%r14, %rdi
	callq	__ZN4core3fmt9Formatter12debug_struct17h985c0158d1fc7193E
	movq	%rbx, -24(%rbp)
	leaq	l___unnamed_86(%rip), %rsi
	leaq	l___unnamed_87(%rip), %r8
	leaq	-24(%rbp), %rcx
	movl	$9, %edx
	movq	%r14, %rdi
	callq	__ZN4core3fmt8builders11DebugStruct5field17h9c15dc155278eed2E
	movq	%r14, %rdi
	callq	__ZN4core3fmt8builders11DebugStruct6finish17h26808393f3fed630E
	addq	$32, %rsp
	popq	%rbx
	popq	%r14
	popq	%rbp
	retq
	.cfi_endproc

	.p2align	4, 0x90
__ZN42_$LT$$RF$T$u20$as$u20$core..fmt..Debug$GT$3fmt17ha75ecb9e62dc9e60E:
	.cfi_startproc
	pushq	%rbp
	.cfi_def_cfa_offset 16
	.cfi_offset %rbp, -16
	movq	%rsp, %rbp
	.cfi_def_cfa_register %rbp
	pushq	%r14
	pushq	%rbx
	subq	$32, %rsp
	.cfi_offset %rbx, -32
	.cfi_offset %r14, -24
	movq	(%rdi), %rbx
	leaq	l___unnamed_260(%rip), %rdx
	leaq	-40(%rbp), %r14
	movl	$12, %ecx
	movq	%r14, %rdi
	callq	__ZN4core3fmt9Formatter12debug_struct17h985c0158d1fc7193E
	movq	%rbx, -24(%rbp)
	leaq	l___unnamed_53(%rip), %rsi
	leaq	l___unnamed_54(%rip), %r8
	leaq	-24(%rbp), %rcx
	movl	$12, %edx
	movq	%r14, %rdi
	callq	__ZN4core3fmt8builders11DebugStruct5field17h9c15dc155278eed2E
	movq	%r14, %rdi
	callq	__ZN4core3fmt8builders11DebugStruct6finish17h26808393f3fed630E
	addq	$32, %rsp
	popq	%rbx
	popq	%r14
	popq	%rbp
	retq
	.cfi_endproc

	.p2align	4, 0x90
__ZN42_$LT$$RF$T$u20$as$u20$core..fmt..Debug$GT$3fmt17ha80edd3937262b3eE:
	.cfi_startproc
	pushq	%rbp
	.cfi_def_cfa_offset 16
	.cfi_offset %rbp, -16
	movq	%rsp, %rbp
	.cfi_def_cfa_register %rbp
	movq	%rsi, %rdi
	leaq	l___unnamed_261(%rip), %rsi
	movl	$5, %edx
	popq	%rbp
	jmp	__ZN4core3fmt9Formatter9write_str17h957ea9717e49073dE
	.cfi_endproc

	.p2align	4, 0x90
__ZN42_$LT$$RF$T$u20$as$u20$core..fmt..Debug$GT$3fmt17ha86d0379f3916150E:
	.cfi_startproc
	pushq	%rbp
	.cfi_def_cfa_offset 16
	.cfi_offset %rbp, -16
	movq	%rsp, %rbp
	.cfi_def_cfa_register %rbp
	pushq	%r14
	pushq	%rbx
	subq	$32, %rsp
	.cfi_offset %rbx, -32
	.cfi_offset %r14, -24
	movq	(%rdi), %rbx
	cmpl	$2, (%rbx)
	jne	LBB148_1
	leaq	-48(%rbp), %r14
	leaq	L___unnamed_16(%rip), %rdx
	movl	$4, %ecx
	movq	%r14, %rdi
	callq	__ZN4core3fmt9Formatter11debug_tuple17h15ca25ad759edd1cE
	jmp	LBB148_3
LBB148_1:
	leaq	-48(%rbp), %r14
	leaq	L___unnamed_14(%rip), %rdx
	movl	$4, %ecx
	movq	%r14, %rdi
	callq	__ZN4core3fmt9Formatter11debug_tuple17h15ca25ad759edd1cE
	movq	%rbx, -24(%rbp)
	leaq	l___unnamed_103(%rip), %rdx
	leaq	-24(%rbp), %rsi
	movq	%r14, %rdi
	callq	__ZN4core3fmt8builders10DebugTuple5field17hf36121153a94f236E
LBB148_3:
	movq	%r14, %rdi
	callq	__ZN4core3fmt8builders10DebugTuple6finish17h68acf09c6f6593f2E
	addq	$32, %rsp
	popq	%rbx
	popq	%r14
	popq	%rbp
	retq
	.cfi_endproc

	.p2align	4, 0x90
__ZN42_$LT$$RF$T$u20$as$u20$core..fmt..Debug$GT$3fmt17ha8916e009f01bd25E:
	.cfi_startproc
	pushq	%rbp
	.cfi_def_cfa_offset 16
	.cfi_offset %rbp, -16
	movq	%rsp, %rbp
	.cfi_def_cfa_register %rbp
	pushq	%r14
	pushq	%rbx
	subq	$32, %rsp
	.cfi_offset %rbx, -32
	.cfi_offset %r14, -24
	movq	(%rdi), %rbx
	leaq	l___unnamed_262(%rip), %rdx
	leaq	-40(%rbp), %r14
	movl	$10, %ecx
	movq	%r14, %rdi
	callq	__ZN4core3fmt9Formatter12debug_struct17h985c0158d1fc7193E
	movq	%rbx, -24(%rbp)
	leaq	l___unnamed_53(%rip), %rsi
	leaq	l___unnamed_54(%rip), %r8
	leaq	-24(%rbp), %rcx
	movl	$12, %edx
	movq	%r14, %rdi
	callq	__ZN4core3fmt8builders11DebugStruct5field17h9c15dc155278eed2E
	movq	%r14, %rdi
	callq	__ZN4core3fmt8builders11DebugStruct6finish17h26808393f3fed630E
	addq	$32, %rsp
	popq	%rbx
	popq	%r14
	popq	%rbp
	retq
	.cfi_endproc

	.p2align	4, 0x90
__ZN42_$LT$$RF$T$u20$as$u20$core..fmt..Debug$GT$3fmt17ha8d3fd3440388f45E:
	.cfi_startproc
	pushq	%rbp
	.cfi_def_cfa_offset 16
	.cfi_offset %rbp, -16
	movq	%rsp, %rbp
	.cfi_def_cfa_register %rbp
	pushq	%r14
	pushq	%rbx
	subq	$32, %rsp
	.cfi_offset %rbx, -32
	.cfi_offset %r14, -24
	movq	(%rdi), %rbx
	leaq	l___unnamed_263(%rip), %rdx
	leaq	-40(%rbp), %r14
	movl	$9, %ecx
	movq	%r14, %rdi
	callq	__ZN4core3fmt9Formatter12debug_struct17h985c0158d1fc7193E
	movq	%rbx, -24(%rbp)
	leaq	l___unnamed_53(%rip), %rsi
	leaq	l___unnamed_54(%rip), %r8
	leaq	-24(%rbp), %rcx
	movl	$12, %edx
	movq	%r14, %rdi
	callq	__ZN4core3fmt8builders11DebugStruct5field17h9c15dc155278eed2E
	movq	%r14, %rdi
	callq	__ZN4core3fmt8builders11DebugStruct6finish17h26808393f3fed630E
	addq	$32, %rsp
	popq	%rbx
	popq	%r14
	popq	%rbp
	retq
	.cfi_endproc

	.p2align	4, 0x90
__ZN42_$LT$$RF$T$u20$as$u20$core..fmt..Debug$GT$3fmt17hacca1e7b1b3aa0c6E:
	.cfi_startproc
	pushq	%rbp
	.cfi_def_cfa_offset 16
	.cfi_offset %rbp, -16
	movq	%rsp, %rbp
	.cfi_def_cfa_register %rbp
	pushq	%r14
	pushq	%rbx
	subq	$32, %rsp
	.cfi_offset %rbx, -32
	.cfi_offset %r14, -24
	movq	(%rdi), %rbx
	leaq	l___unnamed_264(%rip), %rdx
	leaq	-40(%rbp), %r14
	movl	$9, %ecx
	movq	%r14, %rdi
	callq	__ZN4core3fmt9Formatter12debug_struct17h985c0158d1fc7193E
	movq	%rbx, -24(%rbp)
	leaq	l___unnamed_53(%rip), %rsi
	leaq	l___unnamed_54(%rip), %r8
	leaq	-24(%rbp), %rcx
	movl	$12, %edx
	movq	%r14, %rdi
	callq	__ZN4core3fmt8builders11DebugStruct5field17h9c15dc155278eed2E
	movq	%r14, %rdi
	callq	__ZN4core3fmt8builders11DebugStruct6finish17h26808393f3fed630E
	addq	$32, %rsp
	popq	%rbx
	popq	%r14
	popq	%rbp
	retq
	.cfi_endproc

	.p2align	4, 0x90
__ZN42_$LT$$RF$T$u20$as$u20$core..fmt..Debug$GT$3fmt17hacf9cafeb822c7cdE:
	.cfi_startproc
	pushq	%rbp
	.cfi_def_cfa_offset 16
	.cfi_offset %rbp, -16
	movq	%rsp, %rbp
	.cfi_def_cfa_register %rbp
	movq	(%rdi), %rax
	movq	(%rax), %rdi
	popq	%rbp
	jmp	__ZN50_$LT$syn..ty..Type$u20$as$u20$core..fmt..Debug$GT$3fmt17h3d4b146961971eddE
	.cfi_endproc

	.p2align	4, 0x90
__ZN42_$LT$$RF$T$u20$as$u20$core..fmt..Debug$GT$3fmt17had2b0cf36f151864E:
	.cfi_startproc
	pushq	%rbp
	.cfi_def_cfa_offset 16
	.cfi_offset %rbp, -16
	movq	%rsp, %rbp
	.cfi_def_cfa_register %rbp
	pushq	%r14
	pushq	%rbx
	subq	$32, %rsp
	.cfi_offset %rbx, -32
	.cfi_offset %r14, -24
	movq	(%rdi), %rbx
	cmpl	$1, (%rbx)
	jne	LBB153_2
	addq	$4, %rbx
	leaq	-48(%rbp), %r14
	leaq	L___unnamed_14(%rip), %rdx
	movl	$4, %ecx
	movq	%r14, %rdi
	callq	__ZN4core3fmt9Formatter11debug_tuple17h15ca25ad759edd1cE
	movq	%rbx, -24(%rbp)
	leaq	l___unnamed_265(%rip), %rdx
	leaq	-24(%rbp), %rsi
	movq	%r14, %rdi
	callq	__ZN4core3fmt8builders10DebugTuple5field17hf36121153a94f236E
	jmp	LBB153_3
LBB153_2:
	leaq	-48(%rbp), %r14
	leaq	L___unnamed_16(%rip), %rdx
	movl	$4, %ecx
	movq	%r14, %rdi
	callq	__ZN4core3fmt9Formatter11debug_tuple17h15ca25ad759edd1cE
LBB153_3:
	movq	%r14, %rdi
	callq	__ZN4core3fmt8builders10DebugTuple6finish17h68acf09c6f6593f2E
	addq	$32, %rsp
	popq	%rbx
	popq	%r14
	popq	%rbp
	retq
	.cfi_endproc

	.p2align	4, 0x90
__ZN42_$LT$$RF$T$u20$as$u20$core..fmt..Debug$GT$3fmt17hb1fbea9e3d595695E:
	.cfi_startproc
	pushq	%rbp
	.cfi_def_cfa_offset 16
	.cfi_offset %rbp, -16
	movq	%rsp, %rbp
	.cfi_def_cfa_register %rbp
	pushq	%r14
	pushq	%rbx
	subq	$32, %rsp
	.cfi_offset %rbx, -32
	.cfi_offset %r14, -24
	movq	(%rdi), %rbx
	cmpl	$2, 20(%rbx)
	jne	LBB154_1
	leaq	-48(%rbp), %r14
	leaq	L___unnamed_16(%rip), %rdx
	movl	$4, %ecx
	movq	%r14, %rdi
	callq	__ZN4core3fmt9Formatter11debug_tuple17h15ca25ad759edd1cE
	jmp	LBB154_3
LBB154_1:
	leaq	-48(%rbp), %r14
	leaq	L___unnamed_14(%rip), %rdx
	movl	$4, %ecx
	movq	%r14, %rdi
	callq	__ZN4core3fmt9Formatter11debug_tuple17h15ca25ad759edd1cE
	movq	%rbx, -24(%rbp)
	leaq	l___unnamed_266(%rip), %rdx
	leaq	-24(%rbp), %rsi
	movq	%r14, %rdi
	callq	__ZN4core3fmt8builders10DebugTuple5field17hf36121153a94f236E
LBB154_3:
	movq	%r14, %rdi
	callq	__ZN4core3fmt8builders10DebugTuple6finish17h68acf09c6f6593f2E
	addq	$32, %rsp
	popq	%rbx
	popq	%r14
	popq	%rbp
	retq
	.cfi_endproc

	.p2align	4, 0x90
__ZN42_$LT$$RF$T$u20$as$u20$core..fmt..Debug$GT$3fmt17hb37f85b25447f749E:
	.cfi_startproc
	pushq	%rbp
	.cfi_def_cfa_offset 16
	.cfi_offset %rbp, -16
	movq	%rsp, %rbp
	.cfi_def_cfa_register %rbp
	pushq	%r14
	pushq	%rbx
	subq	$32, %rsp
	.cfi_offset %rbx, -32
	.cfi_offset %r14, -24
	movq	(%rdi), %rbx
	cmpl	$1, (%rbx)
	jne	LBB155_2
	addq	$4, %rbx
	leaq	-48(%rbp), %r14
	leaq	L___unnamed_14(%rip), %rdx
	movl	$4, %ecx
	movq	%r14, %rdi
	callq	__ZN4core3fmt9Formatter11debug_tuple17h15ca25ad759edd1cE
	movq	%rbx, -24(%rbp)
	leaq	l___unnamed_239(%rip), %rdx
	leaq	-24(%rbp), %rsi
	movq	%r14, %rdi
	callq	__ZN4core3fmt8builders10DebugTuple5field17hf36121153a94f236E
	jmp	LBB155_3
LBB155_2:
	leaq	-48(%rbp), %r14
	leaq	L___unnamed_16(%rip), %rdx
	movl	$4, %ecx
	movq	%r14, %rdi
	callq	__ZN4core3fmt9Formatter11debug_tuple17h15ca25ad759edd1cE
LBB155_3:
	movq	%r14, %rdi
	callq	__ZN4core3fmt8builders10DebugTuple6finish17h68acf09c6f6593f2E
	addq	$32, %rsp
	popq	%rbx
	popq	%r14
	popq	%rbp
	retq
	.cfi_endproc

	.p2align	4, 0x90
__ZN42_$LT$$RF$T$u20$as$u20$core..fmt..Debug$GT$3fmt17hb55a9883c44edc16E:
	.cfi_startproc
	pushq	%rbp
	.cfi_def_cfa_offset 16
	.cfi_offset %rbp, -16
	movq	%rsp, %rbp
	.cfi_def_cfa_register %rbp
	pushq	%r14
	pushq	%rbx
	subq	$80, %rsp
	.cfi_offset %rbx, -32
	.cfi_offset %r14, -24
	movq	(%rdi), %rbx
	leaq	l___unnamed_267(%rip), %rdx
	leaq	-96(%rbp), %r14
	movl	$7, %ecx
	movq	%r14, %rdi
	callq	__ZN4core3fmt9Formatter12debug_struct17h985c0158d1fc7193E
	movq	(%rbx), %rax
	movq	%rax, -32(%rbp)
	movq	__ZN59_$LT$proc_macro2..Literal$u20$as$u20$core..fmt..Display$GT$3fmt17h3429fe76352e3b2eE@GOTPCREL(%rip), %rax
	movq	%rax, -24(%rbp)
	leaq	l___unnamed_18(%rip), %rax
	movq	%rax, -80(%rbp)
	movq	$1, -72(%rbp)
	movq	$0, -64(%rbp)
	leaq	-32(%rbp), %rax
	movq	%rax, -48(%rbp)
	movq	$1, -40(%rbp)
	leaq	l___unnamed_19(%rip), %rsi
	leaq	l___unnamed_20(%rip), %r8
	leaq	-80(%rbp), %rcx
	movl	$5, %edx
	movq	%r14, %rdi
	callq	__ZN4core3fmt8builders11DebugStruct5field17h9c15dc155278eed2E
	movq	%rax, %rdi
	callq	__ZN4core3fmt8builders11DebugStruct6finish17h26808393f3fed630E
	addq	$80, %rsp
	popq	%rbx
	popq	%r14
	popq	%rbp
	retq
	.cfi_endproc

	.p2align	4, 0x90
__ZN42_$LT$$RF$T$u20$as$u20$core..fmt..Debug$GT$3fmt17hb6f15684623f8bc9E:
	.cfi_startproc
	pushq	%rbp
	.cfi_def_cfa_offset 16
	.cfi_offset %rbp, -16
	movq	%rsp, %rbp
	.cfi_def_cfa_register %rbp
	pushq	%r15
	pushq	%r14
	pushq	%rbx
	subq	$40, %rsp
	.cfi_offset %rbx, -40
	.cfi_offset %r14, -32
	.cfi_offset %r15, -24
	movq	(%rdi), %rbx
	cmpq	$0, (%rbx)
	je	LBB157_2
	leaq	8(%rbx), %r15
	leaq	-56(%rbp), %r14
	leaq	L___unnamed_268(%rip), %rdx
	movl	$4, %ecx
	movq	%r14, %rdi
	callq	__ZN4core3fmt9Formatter11debug_tuple17h15ca25ad759edd1cE
	movq	%r15, -32(%rbp)
	leaq	l___unnamed_269(%rip), %rdx
	leaq	-32(%rbp), %rsi
	movq	%r14, %rdi
	callq	__ZN4core3fmt8builders10DebugTuple5field17hf36121153a94f236E
	movq	%rbx, -32(%rbp)
	leaq	l___unnamed_7(%rip), %rdx
	leaq	-32(%rbp), %rsi
	movq	%r14, %rdi
	callq	__ZN4core3fmt8builders10DebugTuple5field17hf36121153a94f236E
	jmp	LBB157_3
LBB157_2:
	leaq	-56(%rbp), %r14
	leaq	l___unnamed_270(%rip), %rdx
	movl	$7, %ecx
	movq	%r14, %rdi
	callq	__ZN4core3fmt9Formatter11debug_tuple17h15ca25ad759edd1cE
LBB157_3:
	movq	%r14, %rdi
	callq	__ZN4core3fmt8builders10DebugTuple6finish17h68acf09c6f6593f2E
	addq	$40, %rsp
	popq	%rbx
	popq	%r14
	popq	%r15
	popq	%rbp
	retq
	.cfi_endproc

	.p2align	4, 0x90
__ZN42_$LT$$RF$T$u20$as$u20$core..fmt..Debug$GT$3fmt17hb81270b63d67a88bE:
	.cfi_startproc
	pushq	%rbp
	.cfi_def_cfa_offset 16
	.cfi_offset %rbp, -16
	movq	%rsp, %rbp
	.cfi_def_cfa_register %rbp
	pushq	%r15
	pushq	%r14
	pushq	%r12
	pushq	%rbx
	subq	$32, %rsp
	.cfi_offset %rbx, -48
	.cfi_offset %r12, -40
	.cfi_offset %r14, -32
	.cfi_offset %r15, -24
	movq	(%rdi), %rbx
	leaq	l___unnamed_271(%rip), %rdx
	leaq	-56(%rbp), %r15
	movl	$11, %ecx
	movq	%r15, %rdi
	callq	__ZN4core3fmt9Formatter12debug_struct17h985c0158d1fc7193E
	movq	%rbx, -40(%rbp)
	leaq	368(%rbx), %r12
	addq	$184, %rbx
	leaq	l___unnamed_272(%rip), %rsi
	leaq	l___unnamed_78(%rip), %r14
	leaq	-40(%rbp), %rcx
	movl	$6, %edx
	movq	%r15, %rdi
	movq	%r14, %r8
	callq	__ZN4core3fmt8builders11DebugStruct5field17h9c15dc155278eed2E
	movq	%r12, -40(%rbp)
	leaq	L___unnamed_31(%rip), %rsi
	leaq	l___unnamed_32(%rip), %r8
	leaq	-40(%rbp), %rcx
	movl	$8, %edx
	movq	%r15, %rdi
	callq	__ZN4core3fmt8builders11DebugStruct5field17h9c15dc155278eed2E
	movq	%rbx, -40(%rbp)
	leaq	l___unnamed_273(%rip), %rsi
	leaq	-40(%rbp), %rcx
	movl	$6, %edx
	movq	%r15, %rdi
	movq	%r14, %r8
	callq	__ZN4core3fmt8builders11DebugStruct5field17h9c15dc155278eed2E
	movq	%r15, %rdi
	callq	__ZN4core3fmt8builders11DebugStruct6finish17h26808393f3fed630E
	addq	$32, %rsp
	popq	%rbx
	popq	%r12
	popq	%r14
	popq	%r15
	popq	%rbp
	retq
	.cfi_endproc

	.p2align	4, 0x90
__ZN42_$LT$$RF$T$u20$as$u20$core..fmt..Debug$GT$3fmt17hb8989a3d46fb443fE:
	.cfi_startproc
	pushq	%rbp
	.cfi_def_cfa_offset 16
	.cfi_offset %rbp, -16
	movq	%rsp, %rbp
	.cfi_def_cfa_register %rbp
	pushq	%r14
	pushq	%rbx
	subq	$32, %rsp
	.cfi_offset %rbx, -32
	.cfi_offset %r14, -24
	movq	(%rdi), %rbx
	cmpl	$1, (%rbx)
	jne	LBB159_2
	addq	$4, %rbx
	leaq	-48(%rbp), %r14
	leaq	L___unnamed_14(%rip), %rdx
	movl	$4, %ecx
	movq	%r14, %rdi
	callq	__ZN4core3fmt9Formatter11debug_tuple17h15ca25ad759edd1cE
	movq	%rbx, -24(%rbp)
	leaq	l___unnamed_80(%rip), %rdx
	leaq	-24(%rbp), %rsi
	movq	%r14, %rdi
	callq	__ZN4core3fmt8builders10DebugTuple5field17hf36121153a94f236E
	jmp	LBB159_3
LBB159_2:
	leaq	-48(%rbp), %r14
	leaq	L___unnamed_16(%rip), %rdx
	movl	$4, %ecx
	movq	%r14, %rdi
	callq	__ZN4core3fmt9Formatter11debug_tuple17h15ca25ad759edd1cE
LBB159_3:
	movq	%r14, %rdi
	callq	__ZN4core3fmt8builders10DebugTuple6finish17h68acf09c6f6593f2E
	addq	$32, %rsp
	popq	%rbx
	popq	%r14
	popq	%rbp
	retq
	.cfi_endproc

	.p2align	4, 0x90
__ZN42_$LT$$RF$T$u20$as$u20$core..fmt..Debug$GT$3fmt17hb94da25775a66565E:
	.cfi_startproc
	pushq	%rbp
	.cfi_def_cfa_offset 16
	.cfi_offset %rbp, -16
	movq	%rsp, %rbp
	.cfi_def_cfa_register %rbp
	pushq	%r14
	pushq	%rbx
	subq	$32, %rsp
	.cfi_offset %rbx, -32
	.cfi_offset %r14, -24
	movq	(%rdi), %rbx
	cmpq	$41, 8(%rbx)
	jne	LBB160_1
	leaq	-48(%rbp), %r14
	leaq	L___unnamed_16(%rip), %rdx
	movl	$4, %ecx
	movq	%r14, %rdi
	callq	__ZN4core3fmt9Formatter11debug_tuple17h15ca25ad759edd1cE
	jmp	LBB160_3
LBB160_1:
	leaq	-48(%rbp), %r14
	leaq	L___unnamed_14(%rip), %rdx
	movl	$4, %ecx
	movq	%r14, %rdi
	callq	__ZN4core3fmt9Formatter11debug_tuple17h15ca25ad759edd1cE
	movq	%rbx, -24(%rbp)
	leaq	l___unnamed_274(%rip), %rdx
	leaq	-24(%rbp), %rsi
	movq	%r14, %rdi
	callq	__ZN4core3fmt8builders10DebugTuple5field17hf36121153a94f236E
LBB160_3:
	movq	%r14, %rdi
	callq	__ZN4core3fmt8builders10DebugTuple6finish17h68acf09c6f6593f2E
	addq	$32, %rsp
	popq	%rbx
	popq	%r14
	popq	%rbp
	retq
	.cfi_endproc

	.p2align	4, 0x90
__ZN42_$LT$$RF$T$u20$as$u20$core..fmt..Debug$GT$3fmt17hb9601e51f2802a62E:
	.cfi_startproc
	pushq	%rbp
	.cfi_def_cfa_offset 16
	.cfi_offset %rbp, -16
	movq	%rsp, %rbp
	.cfi_def_cfa_register %rbp
	pushq	%r14
	pushq	%rbx
	subq	$32, %rsp
	.cfi_offset %rbx, -32
	.cfi_offset %r14, -24
	movq	(%rdi), %rbx
	leaq	l___unnamed_275(%rip), %rdx
	leaq	-40(%rbp), %r14
	movl	$9, %ecx
	movq	%r14, %rdi
	callq	__ZN4core3fmt9Formatter12debug_struct17h985c0158d1fc7193E
	movq	%rbx, -24(%rbp)
	leaq	l___unnamed_53(%rip), %rsi
	leaq	l___unnamed_54(%rip), %r8
	leaq	-24(%rbp), %rcx
	movl	$12, %edx
	movq	%r14, %rdi
	callq	__ZN4core3fmt8builders11DebugStruct5field17h9c15dc155278eed2E
	movq	%r14, %rdi
	callq	__ZN4core3fmt8builders11DebugStruct6finish17h26808393f3fed630E
	addq	$32, %rsp
	popq	%rbx
	popq	%r14
	popq	%rbp
	retq
	.cfi_endproc

	.p2align	4, 0x90
__ZN42_$LT$$RF$T$u20$as$u20$core..fmt..Debug$GT$3fmt17hba53e85d390723a7E:
	.cfi_startproc
	pushq	%rbp
	.cfi_def_cfa_offset 16
	.cfi_offset %rbp, -16
	movq	%rsp, %rbp
	.cfi_def_cfa_register %rbp
	movq	%rsi, %rdi
	leaq	L___unnamed_276(%rip), %rsi
	movl	$4, %edx
	popq	%rbp
	jmp	__ZN4core3fmt9Formatter9write_str17h957ea9717e49073dE
	.cfi_endproc

	.p2align	4, 0x90
__ZN42_$LT$$RF$T$u20$as$u20$core..fmt..Debug$GT$3fmt17hba8ef182e7d513cfE:
	.cfi_startproc
	pushq	%rbp
	.cfi_def_cfa_offset 16
	.cfi_offset %rbp, -16
	movq	%rsp, %rbp
	.cfi_def_cfa_register %rbp
	pushq	%r15
	pushq	%r14
	pushq	%rbx
	subq	$24, %rsp
	.cfi_offset %rbx, -40
	.cfi_offset %r14, -32
	.cfi_offset %r15, -24
	movq	(%rdi), %rbx
	leaq	8(%rbx), %r15
	leaq	l___unnamed_277(%rip), %rdx
	leaq	-48(%rbp), %r14
	movl	$9, %ecx
	movq	%r14, %rdi
	callq	__ZN4core3fmt9Formatter12debug_struct17h985c0158d1fc7193E
	movq	%r15, -32(%rbp)
	leaq	l___unnamed_56(%rip), %rsi
	leaq	l___unnamed_57(%rip), %r8
	leaq	-32(%rbp), %rcx
	movl	$13, %edx
	movq	%r14, %rdi
	callq	__ZN4core3fmt8builders11DebugStruct5field17h9c15dc155278eed2E
	movq	%rbx, -32(%rbp)
	leaq	L___unnamed_162(%rip), %rsi
	leaq	l___unnamed_7(%rip), %r8
	leaq	-32(%rbp), %rcx
	movl	$4, %edx
	movq	%r14, %rdi
	callq	__ZN4core3fmt8builders11DebugStruct5field17h9c15dc155278eed2E
	movq	%r14, %rdi
	callq	__ZN4core3fmt8builders11DebugStruct6finish17h26808393f3fed630E
	addq	$24, %rsp
	popq	%rbx
	popq	%r14
	popq	%r15
	popq	%rbp
	retq
	.cfi_endproc

	.p2align	4, 0x90
__ZN42_$LT$$RF$T$u20$as$u20$core..fmt..Debug$GT$3fmt17hbaeca43bade10667E:
	.cfi_startproc
	pushq	%rbp
	.cfi_def_cfa_offset 16
	.cfi_offset %rbp, -16
	movq	%rsp, %rbp
	.cfi_def_cfa_register %rbp
	pushq	%r14
	pushq	%rbx
	subq	$32, %rsp
	.cfi_offset %rbx, -32
	.cfi_offset %r14, -24
	movq	(%rdi), %rbx
	cmpl	$1, (%rbx)
	jne	LBB164_2
	addq	$4, %rbx
	leaq	-48(%rbp), %r14
	leaq	L___unnamed_14(%rip), %rdx
	movl	$4, %ecx
	movq	%r14, %rdi
	callq	__ZN4core3fmt9Formatter11debug_tuple17h15ca25ad759edd1cE
	movq	%rbx, -24(%rbp)
	leaq	l___unnamed_32(%rip), %rdx
	leaq	-24(%rbp), %rsi
	movq	%r14, %rdi
	callq	__ZN4core3fmt8builders10DebugTuple5field17hf36121153a94f236E
	jmp	LBB164_3
LBB164_2:
	leaq	-48(%rbp), %r14
	leaq	L___unnamed_16(%rip), %rdx
	movl	$4, %ecx
	movq	%r14, %rdi
	callq	__ZN4core3fmt9Formatter11debug_tuple17h15ca25ad759edd1cE
LBB164_3:
	movq	%r14, %rdi
	callq	__ZN4core3fmt8builders10DebugTuple6finish17h68acf09c6f6593f2E
	addq	$32, %rsp
	popq	%rbx
	popq	%r14
	popq	%rbp
	retq
	.cfi_endproc

	.p2align	4, 0x90
__ZN42_$LT$$RF$T$u20$as$u20$core..fmt..Debug$GT$3fmt17hbb89deb96e5e789aE:
	.cfi_startproc
	pushq	%rbp
	.cfi_def_cfa_offset 16
	.cfi_offset %rbp, -16
	movq	%rsp, %rbp
	.cfi_def_cfa_register %rbp
	movq	%rsi, %rdi
	leaq	l___unnamed_278(%rip), %rsi
	movl	$5, %edx
	popq	%rbp
	jmp	__ZN4core3fmt9Formatter9write_str17h957ea9717e49073dE
	.cfi_endproc

	.p2align	4, 0x90
__ZN42_$LT$$RF$T$u20$as$u20$core..fmt..Debug$GT$3fmt17hbc2be4fd765ccdb9E:
	.cfi_startproc
	pushq	%rbp
	.cfi_def_cfa_offset 16
	.cfi_offset %rbp, -16
	movq	%rsp, %rbp
	.cfi_def_cfa_register %rbp
	pushq	%r14
	pushq	%rbx
	subq	$32, %rsp
	.cfi_offset %rbx, -32
	.cfi_offset %r14, -24
	movq	(%rdi), %rbx
	cmpl	$1, (%rbx)
	jne	LBB166_2
	addq	$4, %rbx
	leaq	-48(%rbp), %r14
	leaq	l___unnamed_279(%rip), %rdx
	movl	$5, %ecx
	movq	%r14, %rdi
	callq	__ZN4core3fmt9Formatter11debug_tuple17h15ca25ad759edd1cE
	movq	%rbx, -24(%rbp)
	leaq	l___unnamed_280(%rip), %rdx
	leaq	-24(%rbp), %rsi
	movq	%r14, %rdi
	callq	__ZN4core3fmt8builders10DebugTuple5field17hf36121153a94f236E
	jmp	LBB166_3
LBB166_2:
	leaq	-48(%rbp), %r14
	leaq	l___unnamed_281(%rip), %rdx
	movl	$5, %ecx
	movq	%r14, %rdi
	callq	__ZN4core3fmt9Formatter11debug_tuple17h15ca25ad759edd1cE
LBB166_3:
	movq	%r14, %rdi
	callq	__ZN4core3fmt8builders10DebugTuple6finish17h68acf09c6f6593f2E
	addq	$32, %rsp
	popq	%rbx
	popq	%r14
	popq	%rbp
	retq
	.cfi_endproc

	.p2align	4, 0x90
__ZN42_$LT$$RF$T$u20$as$u20$core..fmt..Debug$GT$3fmt17hbccec95bf589ba7cE:
	.cfi_startproc
	pushq	%rbp
	.cfi_def_cfa_offset 16
	.cfi_offset %rbp, -16
	movq	%rsp, %rbp
	.cfi_def_cfa_register %rbp
	movq	%rsi, %rdi
	leaq	l___unnamed_282(%rip), %rsi
	movl	$6, %edx
	popq	%rbp
	jmp	__ZN4core3fmt9Formatter9write_str17h957ea9717e49073dE
	.cfi_endproc

	.p2align	4, 0x90
__ZN42_$LT$$RF$T$u20$as$u20$core..fmt..Debug$GT$3fmt17hbdfdcf9d5ee31dfdE:
	.cfi_startproc
	pushq	%rbp
	.cfi_def_cfa_offset 16
	.cfi_offset %rbp, -16
	movq	%rsp, %rbp
	.cfi_def_cfa_register %rbp
	pushq	%r15
	pushq	%r14
	pushq	%r13
	pushq	%r12
	pushq	%rbx
	subq	$40, %rsp
	.cfi_offset %rbx, -56
	.cfi_offset %r12, -48
	.cfi_offset %r13, -40
	.cfi_offset %r14, -32
	.cfi_offset %r15, -24
	movq	(%rdi), %rbx
	leaq	88(%rbx), %r13
	leaq	92(%rbx), %r14
	leaq	100(%rbx), %r12
	leaq	48(%rbx), %rax
	movq	%rax, -56(%rbp)
	leaq	l___unnamed_283(%rip), %rdx
	leaq	-72(%rbp), %r15
	movl	$9, %ecx
	movq	%r15, %rdi
	callq	__ZN4core3fmt9Formatter12debug_struct17h985c0158d1fc7193E
	movq	%r13, -48(%rbp)
	leaq	l___unnamed_284(%rip), %rsi
	leaq	l___unnamed_285(%rip), %r8
	leaq	-48(%rbp), %rcx
	movl	$11, %edx
	movq	%r15, %rdi
	callq	__ZN4core3fmt8builders11DebugStruct5field17h9c15dc155278eed2E
	movq	%r14, -48(%rbp)
	leaq	l___unnamed_286(%rip), %rsi
	leaq	l___unnamed_287(%rip), %r8
	leaq	-48(%rbp), %rcx
	movl	$5, %edx
	movq	%r15, %rdi
	callq	__ZN4core3fmt8builders11DebugStruct5field17h9c15dc155278eed2E
	movq	%r12, -48(%rbp)
	leaq	l___unnamed_56(%rip), %rsi
	leaq	l___unnamed_57(%rip), %r8
	leaq	-48(%rbp), %rcx
	movl	$13, %edx
	movq	%r15, %rdi
	callq	__ZN4core3fmt8builders11DebugStruct5field17h9c15dc155278eed2E
	movq	%rbx, -48(%rbp)
	leaq	L___unnamed_29(%rip), %rsi
	leaq	l___unnamed_30(%rip), %r8
	leaq	-48(%rbp), %rcx
	movl	$4, %edx
	movq	%r15, %rdi
	callq	__ZN4core3fmt8builders11DebugStruct5field17h9c15dc155278eed2E
	movq	-56(%rbp), %rax
	movq	%rax, -48(%rbp)
	leaq	l___unnamed_288(%rip), %rsi
	leaq	l___unnamed_289(%rip), %r8
	leaq	-48(%rbp), %rcx
	movl	$6, %edx
	movq	%r15, %rdi
	callq	__ZN4core3fmt8builders11DebugStruct5field17h9c15dc155278eed2E
	movq	%r15, %rdi
	callq	__ZN4core3fmt8builders11DebugStruct6finish17h26808393f3fed630E
	addq	$40, %rsp
	popq	%rbx
	popq	%r12
	popq	%r13
	popq	%r14
	popq	%r15
	popq	%rbp
	retq
	.cfi_endproc

	.p2align	4, 0x90
__ZN42_$LT$$RF$T$u20$as$u20$core..fmt..Debug$GT$3fmt17hbefdbb3746075138E:
	.cfi_startproc
	pushq	%rbp
	.cfi_def_cfa_offset 16
	.cfi_offset %rbp, -16
	movq	%rsp, %rbp
	.cfi_def_cfa_register %rbp
	movq	%rsi, %rdi
	leaq	l___unnamed_290(%rip), %rsi
	movl	$5, %edx
	popq	%rbp
	jmp	__ZN4core3fmt9Formatter9write_str17h957ea9717e49073dE
	.cfi_endproc

	.p2align	4, 0x90
__ZN42_$LT$$RF$T$u20$as$u20$core..fmt..Debug$GT$3fmt17hbfc2f3f034ae78d5E:
	.cfi_startproc
	pushq	%rbp
	.cfi_def_cfa_offset 16
	.cfi_offset %rbp, -16
	movq	%rsp, %rbp
	.cfi_def_cfa_register %rbp
	movq	%rsi, %rdi
	leaq	l___unnamed_291(%rip), %rsi
	movl	$5, %edx
	popq	%rbp
	jmp	__ZN4core3fmt9Formatter9write_str17h957ea9717e49073dE
	.cfi_endproc

	.p2align	4, 0x90
__ZN42_$LT$$RF$T$u20$as$u20$core..fmt..Debug$GT$3fmt17hc06fddd7c22072e5E:
	.cfi_startproc
	pushq	%rbp
	.cfi_def_cfa_offset 16
	.cfi_offset %rbp, -16
	movq	%rsp, %rbp
	.cfi_def_cfa_register %rbp
	pushq	%r14
	pushq	%rbx
	subq	$32, %rsp
	.cfi_offset %rbx, -32
	.cfi_offset %r14, -24
	movq	(%rdi), %rbx
	leaq	l___unnamed_292(%rip), %rdx
	leaq	-40(%rbp), %r14
	movl	$9, %ecx
	movq	%r14, %rdi
	callq	__ZN4core3fmt9Formatter12debug_struct17h985c0158d1fc7193E
	movq	%rbx, -24(%rbp)
	leaq	l___unnamed_293(%rip), %rsi
	leaq	l___unnamed_280(%rip), %r8
	leaq	-24(%rbp), %rcx
	movl	$10, %edx
	movq	%r14, %rdi
	callq	__ZN4core3fmt8builders11DebugStruct5field17h9c15dc155278eed2E
	movq	%r14, %rdi
	callq	__ZN4core3fmt8builders11DebugStruct6finish17h26808393f3fed630E
	addq	$32, %rsp
	popq	%rbx
	popq	%r14
	popq	%rbp
	retq
	.cfi_endproc

	.p2align	4, 0x90
__ZN42_$LT$$RF$T$u20$as$u20$core..fmt..Debug$GT$3fmt17hc14c49a02b846448E:
	.cfi_startproc
	pushq	%rbp
	.cfi_def_cfa_offset 16
	.cfi_offset %rbp, -16
	movq	%rsp, %rbp
	.cfi_def_cfa_register %rbp
	movq	%rsi, %rdi
	leaq	l___unnamed_294(%rip), %rsi
	movl	$5, %edx
	popq	%rbp
	jmp	__ZN4core3fmt9Formatter9write_str17h957ea9717e49073dE
	.cfi_endproc

	.p2align	4, 0x90
__ZN42_$LT$$RF$T$u20$as$u20$core..fmt..Debug$GT$3fmt17hc3a2750a2fd4a30dE:
	.cfi_startproc
	pushq	%rbp
	.cfi_def_cfa_offset 16
	.cfi_offset %rbp, -16
	movq	%rsp, %rbp
	.cfi_def_cfa_register %rbp
	pushq	%r15
	pushq	%r14
	pushq	%rbx
	subq	$24, %rsp
	.cfi_offset %rbx, -40
	.cfi_offset %r14, -32
	.cfi_offset %r15, -24
	movq	(%rdi), %rbx
	leaq	L___unnamed_295(%rip), %rdx
	leaq	-48(%rbp), %r14
	movl	$8, %ecx
	movq	%r14, %rdi
	callq	__ZN4core3fmt9Formatter12debug_struct17h985c0158d1fc7193E
	movq	%rbx, -32(%rbp)
	leaq	80(%rbx), %r15
	addq	$48, %rbx
	leaq	L___unnamed_29(%rip), %rsi
	leaq	l___unnamed_30(%rip), %r8
	leaq	-32(%rbp), %rcx
	movl	$4, %edx
	movq	%r14, %rdi
	callq	__ZN4core3fmt8builders11DebugStruct5field17h9c15dc155278eed2E
	movq	%r15, -32(%rbp)
	leaq	l___unnamed_88(%rip), %rsi
	leaq	l___unnamed_89(%rip), %r8
	leaq	-32(%rbp), %rcx
	movl	$11, %edx
	movq	%r14, %rdi
	callq	__ZN4core3fmt8builders11DebugStruct5field17h9c15dc155278eed2E
	movq	%rbx, -32(%rbp)
	leaq	l___unnamed_296(%rip), %rsi
	leaq	l___unnamed_297(%rip), %r8
	leaq	-32(%rbp), %rcx
	movl	$6, %edx
	movq	%r14, %rdi
	callq	__ZN4core3fmt8builders11DebugStruct5field17h9c15dc155278eed2E
	movq	%r14, %rdi
	callq	__ZN4core3fmt8builders11DebugStruct6finish17h26808393f3fed630E
	addq	$24, %rsp
	popq	%rbx
	popq	%r14
	popq	%r15
	popq	%rbp
	retq
	.cfi_endproc

	.p2align	4, 0x90
__ZN42_$LT$$RF$T$u20$as$u20$core..fmt..Debug$GT$3fmt17hc41b5fae907551d5E:
	.cfi_startproc
	pushq	%rbp
	.cfi_def_cfa_offset 16
	.cfi_offset %rbp, -16
	movq	%rsp, %rbp
	.cfi_def_cfa_register %rbp
	pushq	%r15
	pushq	%r14
	pushq	%r13
	pushq	%r12
	pushq	%rbx
	subq	$24, %rsp
	.cfi_offset %rbx, -56
	.cfi_offset %r12, -48
	.cfi_offset %r13, -40
	.cfi_offset %r14, -32
	.cfi_offset %r15, -24
	movq	(%rdi), %rbx
	leaq	-64(%rbp), %rdi
	callq	__ZN4core3fmt9Formatter10debug_list17hd054f0986422feb9E
	movq	%rbx, -48(%rbp)
	movq	16(%rbx), %rax
	testq	%rax, %rax
	je	LBB174_3
	movq	-48(%rbp), %rcx
	movq	(%rcx), %rbx
	imulq	$296, %rax, %r14
	addq	%rbx, %r14
	leaq	l___unnamed_298(%rip), %r15
	leaq	-64(%rbp), %r12
	leaq	l___unnamed_72(%rip), %r13
	.p2align	4, 0x90
LBB174_2:
	movq	%r12, %rdi
	movq	%rbx, %rsi
	movq	%r15, %rdx
	callq	__ZN4core3fmt8builders9DebugList5entry17h5c0dec54538196dfE
	leaq	288(%rbx), %rsi
	movq	%r12, %rdi
	movq	%r13, %rdx
	callq	__ZN4core3fmt8builders9DebugList5entry17h5c0dec54538196dfE
	addq	$296, %rbx
	cmpq	%r14, %rbx
	jne	LBB174_2
LBB174_3:
	movq	-48(%rbp), %rsi
	cmpq	$0, 24(%rsi)
	je	LBB174_5
	addq	$24, %rsi
	leaq	l___unnamed_299(%rip), %rdx
	leaq	-64(%rbp), %rdi
	callq	__ZN4core3fmt8builders9DebugList5entry17h5c0dec54538196dfE
LBB174_5:
	leaq	-64(%rbp), %rdi
	callq	__ZN4core3fmt8builders9DebugList6finish17h3635bd6af9b1c5a6E
	addq	$24, %rsp
	popq	%rbx
	popq	%r12
	popq	%r13
	popq	%r14
	popq	%r15
	popq	%rbp
	retq
	.cfi_endproc

	.p2align	4, 0x90
__ZN42_$LT$$RF$T$u20$as$u20$core..fmt..Debug$GT$3fmt17hc53a65cc5370a049E:
	.cfi_startproc
	pushq	%rbp
	.cfi_def_cfa_offset 16
	.cfi_offset %rbp, -16
	movq	%rsp, %rbp
	.cfi_def_cfa_register %rbp
	pushq	%r15
	pushq	%r14
	pushq	%r13
	pushq	%r12
	pushq	%rbx
	subq	$24, %rsp
	.cfi_offset %rbx, -56
	.cfi_offset %r12, -48
	.cfi_offset %r13, -40
	.cfi_offset %r14, -32
	.cfi_offset %r15, -24
	movq	(%rdi), %rbx
	leaq	L___unnamed_300(%rip), %rdx
	leaq	-64(%rbp), %r15
	movl	$8, %ecx
	movq	%r15, %rdi
	callq	__ZN4core3fmt9Formatter12debug_struct17h985c0158d1fc7193E
	movq	%rbx, -48(%rbp)
	leaq	24(%rbx), %r12
	leaq	40(%rbx), %r13
	leaq	32(%rbx), %r14
	leaq	l___unnamed_22(%rip), %rsi
	leaq	l___unnamed_23(%rip), %r8
	leaq	-48(%rbp), %rcx
	movl	$5, %edx
	movq	%r15, %rdi
	callq	__ZN4core3fmt8builders11DebugStruct5field17h9c15dc155278eed2E
	movq	%r12, -48(%rbp)
	leaq	L___unnamed_26(%rip), %rsi
	leaq	l___unnamed_27(%rip), %r8
	leaq	-48(%rbp), %rcx
	movl	$4, %edx
	movq	%r15, %rdi
	callq	__ZN4core3fmt8builders11DebugStruct5field17h9c15dc155278eed2E
	movq	%r13, -48(%rbp)
	leaq	L___unnamed_10(%rip), %rsi
	leaq	l___unnamed_301(%rip), %r8
	leaq	-48(%rbp), %rcx
	movl	$8, %edx
	movq	%r15, %rdi
	callq	__ZN4core3fmt8builders11DebugStruct5field17h9c15dc155278eed2E
	movq	%r14, -48(%rbp)
	leaq	l___unnamed_6(%rip), %rsi
	leaq	l___unnamed_7(%rip), %r8
	leaq	-48(%rbp), %rcx
	movl	$2, %edx
	movq	%r15, %rdi
	callq	__ZN4core3fmt8builders11DebugStruct5field17h9c15dc155278eed2E
	movq	%r15, %rdi
	callq	__ZN4core3fmt8builders11DebugStruct6finish17h26808393f3fed630E
	addq	$24, %rsp
	popq	%rbx
	popq	%r12
	popq	%r13
	popq	%r14
	popq	%r15
	popq	%rbp
	retq
	.cfi_endproc

	.p2align	4, 0x90
__ZN42_$LT$$RF$T$u20$as$u20$core..fmt..Debug$GT$3fmt17hc7f1d2ebcdcb5f85E:
	.cfi_startproc
	pushq	%rbp
	.cfi_def_cfa_offset 16
	.cfi_offset %rbp, -16
	movq	%rsp, %rbp
	.cfi_def_cfa_register %rbp
	pushq	%r14
	pushq	%rbx
	subq	$32, %rsp
	.cfi_offset %rbx, -32
	.cfi_offset %r14, -24
	movq	(%rdi), %rbx
	leaq	l___unnamed_302(%rip), %rdx
	leaq	-40(%rbp), %r14
	movl	$9, %ecx
	movq	%r14, %rdi
	callq	__ZN4core3fmt9Formatter12debug_struct17h985c0158d1fc7193E
	movq	%rbx, -24(%rbp)
	leaq	L___unnamed_303(%rip), %rsi
	leaq	l___unnamed_304(%rip), %r8
	leaq	-24(%rbp), %rcx
	movl	$16, %edx
	movq	%r14, %rdi
	callq	__ZN4core3fmt8builders11DebugStruct5field17h9c15dc155278eed2E
	movq	%r14, %rdi
	callq	__ZN4core3fmt8builders11DebugStruct6finish17h26808393f3fed630E
	addq	$32, %rsp
	popq	%rbx
	popq	%r14
	popq	%rbp
	retq
	.cfi_endproc

	.p2align	4, 0x90
__ZN42_$LT$$RF$T$u20$as$u20$core..fmt..Debug$GT$3fmt17hc91eded4459e975cE:
	.cfi_startproc
	pushq	%rbp
	.cfi_def_cfa_offset 16
	.cfi_offset %rbp, -16
	movq	%rsp, %rbp
	.cfi_def_cfa_register %rbp
	pushq	%r15
	pushq	%r14
	pushq	%r13
	pushq	%r12
	pushq	%rbx
	subq	$24, %rsp
	.cfi_offset %rbx, -56
	.cfi_offset %r12, -48
	.cfi_offset %r13, -40
	.cfi_offset %r14, -32
	.cfi_offset %r15, -24
	movq	(%rdi), %rbx
	leaq	-64(%rbp), %rdi
	callq	__ZN4core3fmt9Formatter10debug_list17hd054f0986422feb9E
	movq	%rbx, -48(%rbp)
	movq	16(%rbx), %rax
	testq	%rax, %rax
	je	LBB177_3
	movq	-48(%rbp), %rcx
	movq	(%rcx), %rbx
	leaq	(%rax,%rax,2), %r14
	shlq	$6, %r14
	addq	%rbx, %r14
	leaq	l___unnamed_305(%rip), %r15
	leaq	-64(%rbp), %r12
	leaq	l___unnamed_72(%rip), %r13
	.p2align	4, 0x90
LBB177_2:
	movq	%r12, %rdi
	movq	%rbx, %rsi
	movq	%r15, %rdx
	callq	__ZN4core3fmt8builders9DebugList5entry17h5c0dec54538196dfE
	leaq	184(%rbx), %rsi
	movq	%r12, %rdi
	movq	%r13, %rdx
	callq	__ZN4core3fmt8builders9DebugList5entry17h5c0dec54538196dfE
	addq	$192, %rbx
	cmpq	%r14, %rbx
	jne	LBB177_2
LBB177_3:
	movq	-48(%rbp), %rsi
	cmpq	$0, 24(%rsi)
	je	LBB177_5
	addq	$24, %rsi
	leaq	l___unnamed_306(%rip), %rdx
	leaq	-64(%rbp), %rdi
	callq	__ZN4core3fmt8builders9DebugList5entry17h5c0dec54538196dfE
LBB177_5:
	leaq	-64(%rbp), %rdi
	callq	__ZN4core3fmt8builders9DebugList6finish17h3635bd6af9b1c5a6E
	addq	$24, %rsp
	popq	%rbx
	popq	%r12
	popq	%r13
	popq	%r14
	popq	%r15
	popq	%rbp
	retq
	.cfi_endproc

	.p2align	4, 0x90
__ZN42_$LT$$RF$T$u20$as$u20$core..fmt..Debug$GT$3fmt17hcb52c7182d673768E:
	.cfi_startproc
	pushq	%rbp
	.cfi_def_cfa_offset 16
	.cfi_offset %rbp, -16
	movq	%rsp, %rbp
	.cfi_def_cfa_register %rbp
	pushq	%r15
	pushq	%r14
	pushq	%r13
	pushq	%r12
	pushq	%rbx
	subq	$24, %rsp
	.cfi_offset %rbx, -56
	.cfi_offset %r12, -48
	.cfi_offset %r13, -40
	.cfi_offset %r14, -32
	.cfi_offset %r15, -24
	movq	(%rdi), %rbx
	leaq	l___unnamed_307(%rip), %rdx
	leaq	-64(%rbp), %r15
	movl	$5, %ecx
	movq	%r15, %rdi
	callq	__ZN4core3fmt9Formatter12debug_struct17h985c0158d1fc7193E
	movq	%rbx, -48(%rbp)
	leaq	88(%rbx), %r12
	leaq	92(%rbx), %r13
	leaq	48(%rbx), %r14
	leaq	L___unnamed_29(%rip), %rsi
	leaq	l___unnamed_30(%rip), %r8
	leaq	-48(%rbp), %rcx
	movl	$4, %edx
	movq	%r15, %rdi
	callq	__ZN4core3fmt8builders11DebugStruct5field17h9c15dc155278eed2E
	movq	%r12, -48(%rbp)
	leaq	l___unnamed_293(%rip), %rsi
	leaq	l___unnamed_280(%rip), %r8
	leaq	-48(%rbp), %rcx
	movl	$10, %edx
	movq	%r15, %rdi
	callq	__ZN4core3fmt8builders11DebugStruct5field17h9c15dc155278eed2E
	movq	%r13, -48(%rbp)
	leaq	l___unnamed_308(%rip), %rsi
	leaq	l___unnamed_309(%rip), %r8
	leaq	-48(%rbp), %rcx
	movl	$9, %edx
	movq	%r15, %rdi
	callq	__ZN4core3fmt8builders11DebugStruct5field17h9c15dc155278eed2E
	movq	%r14, -48(%rbp)
	leaq	l___unnamed_288(%rip), %rsi
	leaq	l___unnamed_289(%rip), %r8
	leaq	-48(%rbp), %rcx
	movl	$6, %edx
	movq	%r15, %rdi
	callq	__ZN4core3fmt8builders11DebugStruct5field17h9c15dc155278eed2E
	movq	%r15, %rdi
	callq	__ZN4core3fmt8builders11DebugStruct6finish17h26808393f3fed630E
	addq	$24, %rsp
	popq	%rbx
	popq	%r12
	popq	%r13
	popq	%r14
	popq	%r15
	popq	%rbp
	retq
	.cfi_endproc

	.p2align	4, 0x90
__ZN42_$LT$$RF$T$u20$as$u20$core..fmt..Debug$GT$3fmt17hcb5d9a8749309707E:
	.cfi_startproc
	pushq	%rbp
	.cfi_def_cfa_offset 16
	.cfi_offset %rbp, -16
	movq	%rsp, %rbp
	.cfi_def_cfa_register %rbp
	pushq	%r14
	pushq	%rbx
	subq	$16, %rsp
	.cfi_offset %rbx, -32
	.cfi_offset %r14, -24
	movq	(%rdi), %rbx
	leaq	l___unnamed_310(%rip), %rdx
	leaq	-32(%rbp), %r14
	movl	$7, %ecx
	movq	%r14, %rdi
	callq	__ZN4core3fmt9Formatter12debug_struct17h985c0158d1fc7193E
	addq	$4, %rbx
	leaq	l___unnamed_311(%rip), %rsi
	leaq	l___unnamed_312(%rip), %r8
	movl	$5, %edx
	movq	%r14, %rdi
	movq	%rbx, %rcx
	callq	__ZN4core3fmt8builders11DebugStruct5field17h9c15dc155278eed2E
	movq	%rax, %rdi
	callq	__ZN4core3fmt8builders11DebugStruct6finish17h26808393f3fed630E
	addq	$16, %rsp
	popq	%rbx
	popq	%r14
	popq	%rbp
	retq
	.cfi_endproc

	.p2align	4, 0x90
__ZN42_$LT$$RF$T$u20$as$u20$core..fmt..Debug$GT$3fmt17hcd3f013fc7a3c835E:
	.cfi_startproc
	pushq	%rbp
	.cfi_def_cfa_offset 16
	.cfi_offset %rbp, -16
	movq	%rsp, %rbp
	.cfi_def_cfa_register %rbp
	movq	%rsi, %rdi
	leaq	l___unnamed_313(%rip), %rsi
	movl	$5, %edx
	popq	%rbp
	jmp	__ZN4core3fmt9Formatter9write_str17h957ea9717e49073dE
	.cfi_endproc

	.p2align	4, 0x90
__ZN42_$LT$$RF$T$u20$as$u20$core..fmt..Debug$GT$3fmt17hcd78b1f681a987c7E:
	.cfi_startproc
	pushq	%rbp
	.cfi_def_cfa_offset 16
	.cfi_offset %rbp, -16
	movq	%rsp, %rbp
	.cfi_def_cfa_register %rbp
	movq	%rsi, %rdi
	leaq	l___unnamed_314(%rip), %rsi
	movl	$5, %edx
	popq	%rbp
	jmp	__ZN4core3fmt9Formatter9write_str17h957ea9717e49073dE
	.cfi_endproc

	.p2align	4, 0x90
__ZN42_$LT$$RF$T$u20$as$u20$core..fmt..Debug$GT$3fmt17hd1d01927d82c03d4E:
	.cfi_startproc
	pushq	%rbp
	.cfi_def_cfa_offset 16
	.cfi_offset %rbp, -16
	movq	%rsp, %rbp
	.cfi_def_cfa_register %rbp
	movq	(%rdi), %rdi
	popq	%rbp
	jmp	__ZN56_$LT$syn..ty..TypeBareFn$u20$as$u20$core..fmt..Debug$GT$3fmt17h95a29333c3fb0788E
	.cfi_endproc

	.p2align	4, 0x90
__ZN42_$LT$$RF$T$u20$as$u20$core..fmt..Debug$GT$3fmt17hd31250d4d743c43bE:
	.cfi_startproc
	pushq	%rbp
	.cfi_def_cfa_offset 16
	.cfi_offset %rbp, -16
	movq	%rsp, %rbp
	.cfi_def_cfa_register %rbp
	movq	(%rdi), %rdi
	popq	%rbp
	jmp	__ZN54_$LT$syn..data..Fields$u20$as$u20$core..fmt..Debug$GT$3fmt17h00ff937324e8cad5E
	.cfi_endproc

	.p2align	4, 0x90
__ZN42_$LT$$RF$T$u20$as$u20$core..fmt..Debug$GT$3fmt17hd3c423db8ac0c5c3E:
	.cfi_startproc
	pushq	%rbp
	.cfi_def_cfa_offset 16
	.cfi_offset %rbp, -16
	movq	%rsp, %rbp
	.cfi_def_cfa_register %rbp
	movq	%rsi, %rdi
	leaq	l___unnamed_315(%rip), %rsi
	movl	$5, %edx
	popq	%rbp
	jmp	__ZN4core3fmt9Formatter9write_str17h957ea9717e49073dE
	.cfi_endproc

	.p2align	4, 0x90
__ZN42_$LT$$RF$T$u20$as$u20$core..fmt..Debug$GT$3fmt17hd5364648da1f39cdE:
	.cfi_startproc
	pushq	%rbp
	.cfi_def_cfa_offset 16
	.cfi_offset %rbp, -16
	movq	%rsp, %rbp
	.cfi_def_cfa_register %rbp
	movq	%rsi, %rdi
	leaq	l___unnamed_316(%rip), %rsi
	movl	$3, %edx
	popq	%rbp
	jmp	__ZN4core3fmt9Formatter9write_str17h957ea9717e49073dE
	.cfi_endproc

	.p2align	4, 0x90
__ZN42_$LT$$RF$T$u20$as$u20$core..fmt..Debug$GT$3fmt17hd573ee2f672ec7eeE:
	.cfi_startproc
	pushq	%rbp
	.cfi_def_cfa_offset 16
	.cfi_offset %rbp, -16
	movq	%rsp, %rbp
	.cfi_def_cfa_register %rbp
	movq	(%rdi), %rdi
	popq	%rbp
	jmp	__ZN54_$LT$proc_macro2..Span$u20$as$u20$core..fmt..Debug$GT$3fmt17hd0d895eef6f4ba69E
	.cfi_endproc

	.p2align	4, 0x90
__ZN42_$LT$$RF$T$u20$as$u20$core..fmt..Debug$GT$3fmt17hd83176733681c0bfE:
	.cfi_startproc
	pushq	%rbp
	.cfi_def_cfa_offset 16
	.cfi_offset %rbp, -16
	movq	%rsp, %rbp
	.cfi_def_cfa_register %rbp
	pushq	%r14
	pushq	%rbx
	subq	$32, %rsp
	.cfi_offset %rbx, -32
	.cfi_offset %r14, -24
	movq	(%rdi), %rbx
	leaq	l___unnamed_317(%rip), %rdx
	leaq	-40(%rbp), %r14
	movl	$13, %ecx
	movq	%r14, %rdi
	callq	__ZN4core3fmt9Formatter12debug_struct17h985c0158d1fc7193E
	movq	%rbx, -24(%rbp)
	leaq	l___unnamed_53(%rip), %rsi
	leaq	l___unnamed_54(%rip), %r8
	leaq	-24(%rbp), %rcx
	movl	$12, %edx
	movq	%r14, %rdi
	callq	__ZN4core3fmt8builders11DebugStruct5field17h9c15dc155278eed2E
	movq	%r14, %rdi
	callq	__ZN4core3fmt8builders11DebugStruct6finish17h26808393f3fed630E
	addq	$32, %rsp
	popq	%rbx
	popq	%r14
	popq	%rbp
	retq
	.cfi_endproc

	.p2align	4, 0x90
__ZN42_$LT$$RF$T$u20$as$u20$core..fmt..Debug$GT$3fmt17hd9008b717505eb00E:
	.cfi_startproc
	pushq	%rbp
	.cfi_def_cfa_offset 16
	.cfi_offset %rbp, -16
	movq	%rsp, %rbp
	.cfi_def_cfa_register %rbp
	pushq	%r14
	pushq	%rbx
	subq	$32, %rsp
	.cfi_offset %rbx, -32
	.cfi_offset %r14, -24
	movq	(%rdi), %rbx
	cmpl	$16, (%rbx)
	jne	LBB188_1
	leaq	-48(%rbp), %r14
	leaq	L___unnamed_16(%rip), %rdx
	movl	$4, %ecx
	movq	%r14, %rdi
	callq	__ZN4core3fmt9Formatter11debug_tuple17h15ca25ad759edd1cE
	jmp	LBB188_3
LBB188_1:
	leaq	-48(%rbp), %r14
	leaq	L___unnamed_14(%rip), %rdx
	movl	$4, %ecx
	movq	%r14, %rdi
	callq	__ZN4core3fmt9Formatter11debug_tuple17h15ca25ad759edd1cE
	movq	%rbx, -24(%rbp)
	leaq	l___unnamed_78(%rip), %rdx
	leaq	-24(%rbp), %rsi
	movq	%r14, %rdi
	callq	__ZN4core3fmt8builders10DebugTuple5field17hf36121153a94f236E
LBB188_3:
	movq	%r14, %rdi
	callq	__ZN4core3fmt8builders10DebugTuple6finish17h68acf09c6f6593f2E
	addq	$32, %rsp
	popq	%rbx
	popq	%r14
	popq	%rbp
	retq
	.cfi_endproc

	.p2align	4, 0x90
__ZN42_$LT$$RF$T$u20$as$u20$core..fmt..Debug$GT$3fmt17hda2a81688c80d4f2E:
	.cfi_startproc
	pushq	%rbp
	.cfi_def_cfa_offset 16
	.cfi_offset %rbp, -16
	movq	%rsp, %rbp
	.cfi_def_cfa_register %rbp
	pushq	%r14
	pushq	%rbx
	subq	$48, %rsp
	.cfi_offset %rbx, -32
	.cfi_offset %r14, -24
	movq	(%rdi), %rbx
	leaq	l___unnamed_50(%rip), %rdx
	leaq	-56(%rbp), %r14
	movq	%r14, %rdi
	xorl	%ecx, %ecx
	callq	__ZN4core3fmt9Formatter11debug_tuple17h15ca25ad759edd1cE
	movq	%rbx, -24(%rbp)
	addq	$40, %rbx
	movq	%rbx, -32(%rbp)
	leaq	l___unnamed_103(%rip), %rdx
	leaq	-24(%rbp), %rsi
	movq	%r14, %rdi
	callq	__ZN4core3fmt8builders10DebugTuple5field17hf36121153a94f236E
	leaq	l___unnamed_80(%rip), %rdx
	leaq	-32(%rbp), %rsi
	movq	%r14, %rdi
	callq	__ZN4core3fmt8builders10DebugTuple5field17hf36121153a94f236E
	movq	%r14, %rdi
	callq	__ZN4core3fmt8builders10DebugTuple6finish17h68acf09c6f6593f2E
	addq	$48, %rsp
	popq	%rbx
	popq	%r14
	popq	%rbp
	retq
	.cfi_endproc

	.p2align	4, 0x90
__ZN42_$LT$$RF$T$u20$as$u20$core..fmt..Debug$GT$3fmt17hdaaa5fe4fdb4072eE:
	.cfi_startproc
	pushq	%rbp
	.cfi_def_cfa_offset 16
	.cfi_offset %rbp, -16
	movq	%rsp, %rbp
	.cfi_def_cfa_register %rbp
	pushq	%r14
	pushq	%rbx
	.cfi_offset %rbx, -32
	.cfi_offset %r14, -24
	movq	%rsi, %rbx
	movq	(%rdi), %r14
	movq	%rsi, %rdi
	callq	__ZN4core3fmt9Formatter15debug_lower_hex17h8530fbaeba13f4d9E
	testb	%al, %al
	je	LBB190_1
	movq	%r14, %rdi
	movq	%rbx, %rsi
	popq	%rbx
	popq	%r14
	popq	%rbp
	jmp	__ZN4core3fmt3num53_$LT$impl$u20$core..fmt..LowerHex$u20$for$u20$u32$GT$3fmt17h6f8627d2574097eeE
LBB190_1:
	movq	%rbx, %rdi
	callq	__ZN4core3fmt9Formatter15debug_upper_hex17hf8fda15ec43a1e68E
	movq	%r14, %rdi
	movq	%rbx, %rsi
	testb	%al, %al
	je	LBB190_4
	popq	%rbx
	popq	%r14
	popq	%rbp
	jmp	__ZN4core3fmt3num53_$LT$impl$u20$core..fmt..UpperHex$u20$for$u20$u32$GT$3fmt17hfea5795b8018329eE
LBB190_4:
	popq	%rbx
	popq	%r14
	popq	%rbp
	jmp	__ZN4core3fmt3num3imp52_$LT$impl$u20$core..fmt..Display$u20$for$u20$u32$GT$3fmt17h8cb3163b2d7e102aE
	.cfi_endproc

	.p2align	4, 0x90
__ZN42_$LT$$RF$T$u20$as$u20$core..fmt..Debug$GT$3fmt17hdb0adfd60f8ed16cE:
	.cfi_startproc
	pushq	%rbp
	.cfi_def_cfa_offset 16
	.cfi_offset %rbp, -16
	movq	%rsp, %rbp
	.cfi_def_cfa_register %rbp
	pushq	%r14
	pushq	%rbx
	subq	$80, %rsp
	.cfi_offset %rbx, -32
	.cfi_offset %r14, -24
	movq	(%rdi), %rbx
	leaq	L___unnamed_318(%rip), %rdx
	leaq	-96(%rbp), %r14
	movl	$8, %ecx
	movq	%r14, %rdi
	callq	__ZN4core3fmt9Formatter12debug_struct17h985c0158d1fc7193E
	movq	(%rbx), %rax
	movq	%rax, -32(%rbp)
	movq	__ZN59_$LT$proc_macro2..Literal$u20$as$u20$core..fmt..Display$GT$3fmt17h3429fe76352e3b2eE@GOTPCREL(%rip), %rax
	movq	%rax, -24(%rbp)
	leaq	l___unnamed_18(%rip), %rax
	movq	%rax, -80(%rbp)
	movq	$1, -72(%rbp)
	movq	$0, -64(%rbp)
	leaq	-32(%rbp), %rax
	movq	%rax, -48(%rbp)
	movq	$1, -40(%rbp)
	leaq	l___unnamed_19(%rip), %rsi
	leaq	l___unnamed_20(%rip), %r8
	leaq	-80(%rbp), %rcx
	movl	$5, %edx
	movq	%r14, %rdi
	callq	__ZN4core3fmt8builders11DebugStruct5field17h9c15dc155278eed2E
	movq	%rax, %rdi
	callq	__ZN4core3fmt8builders11DebugStruct6finish17h26808393f3fed630E
	addq	$80, %rsp
	popq	%rbx
	popq	%r14
	popq	%rbp
	retq
	.cfi_endproc

	.p2align	4, 0x90
__ZN42_$LT$$RF$T$u20$as$u20$core..fmt..Debug$GT$3fmt17hdf5a06945b17f693E:
	.cfi_startproc
	pushq	%rbp
	.cfi_def_cfa_offset 16
	.cfi_offset %rbp, -16
	movq	%rsp, %rbp
	.cfi_def_cfa_register %rbp
	pushq	%r14
	pushq	%rbx
	subq	$32, %rsp
	.cfi_offset %rbx, -32
	.cfi_offset %r14, -24
	movq	(%rdi), %rbx
	leaq	l___unnamed_319(%rip), %rdx
	leaq	-40(%rbp), %r14
	movl	$10, %ecx
	movq	%r14, %rdi
	callq	__ZN4core3fmt9Formatter12debug_struct17h985c0158d1fc7193E
	movq	%rbx, -24(%rbp)
	leaq	l___unnamed_53(%rip), %rsi
	leaq	l___unnamed_54(%rip), %r8
	leaq	-24(%rbp), %rcx
	movl	$12, %edx
	movq	%r14, %rdi
	callq	__ZN4core3fmt8builders11DebugStruct5field17h9c15dc155278eed2E
	movq	%r14, %rdi
	callq	__ZN4core3fmt8builders11DebugStruct6finish17h26808393f3fed630E
	addq	$32, %rsp
	popq	%rbx
	popq	%r14
	popq	%rbp
	retq
	.cfi_endproc

	.p2align	4, 0x90
__ZN42_$LT$$RF$T$u20$as$u20$core..fmt..Debug$GT$3fmt17he003136043bad239E:
	.cfi_startproc
	pushq	%rbp
	.cfi_def_cfa_offset 16
	.cfi_offset %rbp, -16
	movq	%rsp, %rbp
	.cfi_def_cfa_register %rbp
	pushq	%r15
	pushq	%r14
	pushq	%r13
	pushq	%r12
	pushq	%rbx
	subq	$24, %rsp
	.cfi_offset %rbx, -56
	.cfi_offset %r12, -48
	.cfi_offset %r13, -40
	.cfi_offset %r14, -32
	.cfi_offset %r15, -24
	movq	(%rdi), %rbx
	leaq	-64(%rbp), %rdi
	callq	__ZN4core3fmt9Formatter10debug_list17hd054f0986422feb9E
	movq	%rbx, -48(%rbp)
	movq	16(%rbx), %r14
	testq	%r14, %r14
	je	LBB193_3
	movq	-48(%rbp), %rax
	movq	(%rax), %rbx
	shlq	$7, %r14
	addq	%rbx, %r14
	leaq	l___unnamed_320(%rip), %r15
	leaq	-64(%rbp), %r12
	leaq	l___unnamed_37(%rip), %r13
	.p2align	4, 0x90
LBB193_2:
	movq	%r12, %rdi
	movq	%rbx, %rsi
	movq	%r15, %rdx
	callq	__ZN4core3fmt8builders9DebugList5entry17h5c0dec54538196dfE
	leaq	120(%rbx), %rsi
	movq	%r12, %rdi
	movq	%r13, %rdx
	callq	__ZN4core3fmt8builders9DebugList5entry17h5c0dec54538196dfE
	subq	$-128, %rbx
	cmpq	%r14, %rbx
	jne	LBB193_2
LBB193_3:
	movq	-48(%rbp), %rsi
	cmpq	$0, 24(%rsi)
	je	LBB193_5
	addq	$24, %rsi
	leaq	l___unnamed_321(%rip), %rdx
	leaq	-64(%rbp), %rdi
	callq	__ZN4core3fmt8builders9DebugList5entry17h5c0dec54538196dfE
LBB193_5:
	leaq	-64(%rbp), %rdi
	callq	__ZN4core3fmt8builders9DebugList6finish17h3635bd6af9b1c5a6E
	addq	$24, %rsp
	popq	%rbx
	popq	%r12
	popq	%r13
	popq	%r14
	popq	%r15
	popq	%rbp
	retq
	.cfi_endproc

	.p2align	4, 0x90
__ZN42_$LT$$RF$T$u20$as$u20$core..fmt..Debug$GT$3fmt17he2dc7015646c401fE:
	.cfi_startproc
	pushq	%rbp
	.cfi_def_cfa_offset 16
	.cfi_offset %rbp, -16
	movq	%rsp, %rbp
	.cfi_def_cfa_register %rbp
	pushq	%r14
	pushq	%rbx
	subq	$32, %rsp
	.cfi_offset %rbx, -32
	.cfi_offset %r14, -24
	movq	(%rdi), %rbx
	cmpl	$1, (%rbx)
	jne	LBB194_2
	addq	$4, %rbx
	leaq	-48(%rbp), %r14
	leaq	L___unnamed_14(%rip), %rdx
	movl	$4, %ecx
	movq	%r14, %rdi
	callq	__ZN4core3fmt9Formatter11debug_tuple17h15ca25ad759edd1cE
	movq	%rbx, -24(%rbp)
	leaq	l___unnamed_322(%rip), %rdx
	leaq	-24(%rbp), %rsi
	movq	%r14, %rdi
	callq	__ZN4core3fmt8builders10DebugTuple5field17hf36121153a94f236E
	jmp	LBB194_3
LBB194_2:
	leaq	-48(%rbp), %r14
	leaq	L___unnamed_16(%rip), %rdx
	movl	$4, %ecx
	movq	%r14, %rdi
	callq	__ZN4core3fmt9Formatter11debug_tuple17h15ca25ad759edd1cE
LBB194_3:
	movq	%r14, %rdi
	callq	__ZN4core3fmt8builders10DebugTuple6finish17h68acf09c6f6593f2E
	addq	$32, %rsp
	popq	%rbx
	popq	%r14
	popq	%rbp
	retq
	.cfi_endproc

	.p2align	4, 0x90
__ZN42_$LT$$RF$T$u20$as$u20$core..fmt..Debug$GT$3fmt17he539da37f3add5d9E:
	.cfi_startproc
	pushq	%rbp
	.cfi_def_cfa_offset 16
	.cfi_offset %rbp, -16
	movq	%rsp, %rbp
	.cfi_def_cfa_register %rbp
	pushq	%r15
	pushq	%r14
	pushq	%r13
	pushq	%r12
	pushq	%rbx
	subq	$24, %rsp
	.cfi_offset %rbx, -56
	.cfi_offset %r12, -48
	.cfi_offset %r13, -40
	.cfi_offset %r14, -32
	.cfi_offset %r15, -24
	movq	(%rdi), %rbx
	leaq	96(%rbx), %r12
	leaq	104(%rbx), %r13
	leaq	48(%rbx), %r14
	leaq	l___unnamed_323(%rip), %rdx
	leaq	-64(%rbp), %r15
	movl	$10, %ecx
	movq	%r15, %rdi
	callq	__ZN4core3fmt9Formatter12debug_struct17h985c0158d1fc7193E
	movq	%r12, -48(%rbp)
	leaq	l___unnamed_88(%rip), %rsi
	leaq	l___unnamed_324(%rip), %r8
	leaq	-48(%rbp), %rcx
	movl	$11, %edx
	movq	%r15, %rdi
	callq	__ZN4core3fmt8builders11DebugStruct5field17h9c15dc155278eed2E
	movq	%r13, -48(%rbp)
	leaq	L___unnamed_325(%rip), %rsi
	leaq	l___unnamed_326(%rip), %r8
	leaq	-48(%rbp), %rcx
	movl	$8, %edx
	movq	%r15, %rdi
	callq	__ZN4core3fmt8builders11DebugStruct5field17h9c15dc155278eed2E
	movq	%rbx, -48(%rbp)
	leaq	l___unnamed_75(%rip), %rsi
	leaq	l___unnamed_76(%rip), %r8
	leaq	-48(%rbp), %rcx
	movl	$9, %edx
	movq	%r15, %rdi
	callq	__ZN4core3fmt8builders11DebugStruct5field17h9c15dc155278eed2E
	movq	%r14, -48(%rbp)
	leaq	L___unnamed_29(%rip), %rsi
	leaq	l___unnamed_30(%rip), %r8
	leaq	-48(%rbp), %rcx
	movl	$4, %edx
	movq	%r15, %rdi
	callq	__ZN4core3fmt8builders11DebugStruct5field17h9c15dc155278eed2E
	movq	%r15, %rdi
	callq	__ZN4core3fmt8builders11DebugStruct6finish17h26808393f3fed630E
	addq	$24, %rsp
	popq	%rbx
	popq	%r12
	popq	%r13
	popq	%r14
	popq	%r15
	popq	%rbp
	retq
	.cfi_endproc

	.p2align	4, 0x90
__ZN42_$LT$$RF$T$u20$as$u20$core..fmt..Debug$GT$3fmt17he54fc46b24b41706E:
	.cfi_startproc
	pushq	%rbp
	.cfi_def_cfa_offset 16
	.cfi_offset %rbp, -16
	movq	%rsp, %rbp
	.cfi_def_cfa_register %rbp
	movq	%rsi, %rdi
	leaq	l___unnamed_327(%rip), %rsi
	movl	$5, %edx
	popq	%rbp
	jmp	__ZN4core3fmt9Formatter9write_str17h957ea9717e49073dE
	.cfi_endproc

	.p2align	4, 0x90
__ZN42_$LT$$RF$T$u20$as$u20$core..fmt..Debug$GT$3fmt17he61325a99d667827E:
	.cfi_startproc
	pushq	%rbp
	.cfi_def_cfa_offset 16
	.cfi_offset %rbp, -16
	movq	%rsp, %rbp
	.cfi_def_cfa_register %rbp
	pushq	%r15
	pushq	%r14
	pushq	%rbx
	subq	$24, %rsp
	.cfi_offset %rbx, -40
	.cfi_offset %r14, -32
	.cfi_offset %r15, -24
	movq	(%rdi), %rbx
	leaq	32(%rbx), %r15
	leaq	L___unnamed_142(%rip), %rdx
	leaq	-48(%rbp), %r14
	movl	$4, %ecx
	movq	%r14, %rdi
	callq	__ZN4core3fmt9Formatter12debug_struct17h985c0158d1fc7193E
	movq	%r15, -32(%rbp)
	leaq	l___unnamed_143(%rip), %rsi
	leaq	l___unnamed_144(%rip), %r8
	leaq	-32(%rbp), %rcx
	movl	$13, %edx
	movq	%r14, %rdi
	callq	__ZN4core3fmt8builders11DebugStruct5field17h9c15dc155278eed2E
	movq	%rbx, -32(%rbp)
	leaq	L___unnamed_145(%rip), %rsi
	leaq	l___unnamed_146(%rip), %r8
	leaq	-32(%rbp), %rcx
	movl	$8, %edx
	movq	%r14, %rdi
	callq	__ZN4core3fmt8builders11DebugStruct5field17h9c15dc155278eed2E
	movq	%r14, %rdi
	callq	__ZN4core3fmt8builders11DebugStruct6finish17h26808393f3fed630E
	addq	$24, %rsp
	popq	%rbx
	popq	%r14
	popq	%r15
	popq	%rbp
	retq
	.cfi_endproc

	.p2align	4, 0x90
__ZN42_$LT$$RF$T$u20$as$u20$core..fmt..Debug$GT$3fmt17he67f0da2cc39d11fE:
	.cfi_startproc
	pushq	%rbp
	.cfi_def_cfa_offset 16
	.cfi_offset %rbp, -16
	movq	%rsp, %rbp
	.cfi_def_cfa_register %rbp
	pushq	%r14
	pushq	%rbx
	subq	$32, %rsp
	.cfi_offset %rbx, -32
	.cfi_offset %r14, -24
	movq	(%rdi), %rbx
	leaq	l___unnamed_328(%rip), %rdx
	leaq	-40(%rbp), %r14
	movl	$6, %ecx
	movq	%r14, %rdi
	callq	__ZN4core3fmt9Formatter12debug_struct17h985c0158d1fc7193E
	movq	%rbx, -24(%rbp)
	leaq	l___unnamed_53(%rip), %rsi
	leaq	l___unnamed_54(%rip), %r8
	leaq	-24(%rbp), %rcx
	movl	$12, %edx
	movq	%r14, %rdi
	callq	__ZN4core3fmt8builders11DebugStruct5field17h9c15dc155278eed2E
	movq	%r14, %rdi
	callq	__ZN4core3fmt8builders11DebugStruct6finish17h26808393f3fed630E
	addq	$32, %rsp
	popq	%rbx
	popq	%r14
	popq	%rbp
	retq
	.cfi_endproc

	.p2align	4, 0x90
__ZN42_$LT$$RF$T$u20$as$u20$core..fmt..Debug$GT$3fmt17he872e02b1c7c7ce8E:
	.cfi_startproc
	pushq	%rbp
	.cfi_def_cfa_offset 16
	.cfi_offset %rbp, -16
	movq	%rsp, %rbp
	.cfi_def_cfa_register %rbp
	movq	%rsi, %rdi
	leaq	l___unnamed_329(%rip), %rsi
	movl	$3, %edx
	popq	%rbp
	jmp	__ZN4core3fmt9Formatter9write_str17h957ea9717e49073dE
	.cfi_endproc

	.p2align	4, 0x90
__ZN42_$LT$$RF$T$u20$as$u20$core..fmt..Debug$GT$3fmt17he9e1ece076c6f823E:
	.cfi_startproc
	pushq	%rbp
	.cfi_def_cfa_offset 16
	.cfi_offset %rbp, -16
	movq	%rsp, %rbp
	.cfi_def_cfa_register %rbp
	pushq	%r15
	pushq	%r14
	pushq	%rbx
	subq	$24, %rsp
	.cfi_offset %rbx, -40
	.cfi_offset %r14, -32
	.cfi_offset %r15, -24
	movq	(%rdi), %rbx
	leaq	32(%rbx), %r15
	leaq	l___unnamed_330(%rip), %rdx
	leaq	-48(%rbp), %r14
	movl	$13, %ecx
	movq	%r14, %rdi
	callq	__ZN4core3fmt9Formatter12debug_struct17h985c0158d1fc7193E
	movq	%r15, -32(%rbp)
	leaq	l___unnamed_331(%rip), %rsi
	leaq	l___unnamed_332(%rip), %r8
	leaq	-32(%rbp), %rcx
	movl	$10, %edx
	movq	%r14, %rdi
	callq	__ZN4core3fmt8builders11DebugStruct5field17h9c15dc155278eed2E
	movq	%rbx, -32(%rbp)
	leaq	l___unnamed_47(%rip), %rsi
	leaq	l___unnamed_48(%rip), %r8
	leaq	-32(%rbp), %rcx
	movl	$6, %edx
	movq	%r14, %rdi
	callq	__ZN4core3fmt8builders11DebugStruct5field17h9c15dc155278eed2E
	movq	%r14, %rdi
	callq	__ZN4core3fmt8builders11DebugStruct6finish17h26808393f3fed630E
	addq	$24, %rsp
	popq	%rbx
	popq	%r14
	popq	%r15
	popq	%rbp
	retq
	.cfi_endproc

	.p2align	4, 0x90
__ZN42_$LT$$RF$T$u20$as$u20$core..fmt..Debug$GT$3fmt17hea03e97900fb75a4E:
	.cfi_startproc
	pushq	%rbp
	.cfi_def_cfa_offset 16
	.cfi_offset %rbp, -16
	movq	%rsp, %rbp
	.cfi_def_cfa_register %rbp
	pushq	%r14
	pushq	%rbx
	subq	$32, %rsp
	.cfi_offset %rbx, -32
	.cfi_offset %r14, -24
	movq	(%rdi), %rbx
	leaq	l___unnamed_333(%rip), %rdx
	leaq	-40(%rbp), %r14
	movl	$11, %ecx
	movq	%r14, %rdi
	callq	__ZN4core3fmt9Formatter12debug_struct17h985c0158d1fc7193E
	movq	%rbx, -24(%rbp)
	leaq	l___unnamed_53(%rip), %rsi
	leaq	l___unnamed_54(%rip), %r8
	leaq	-24(%rbp), %rcx
	movl	$12, %edx
	movq	%r14, %rdi
	callq	__ZN4core3fmt8builders11DebugStruct5field17h9c15dc155278eed2E
	movq	%r14, %rdi
	callq	__ZN4core3fmt8builders11DebugStruct6finish17h26808393f3fed630E
	addq	$32, %rsp
	popq	%rbx
	popq	%r14
	popq	%rbp
	retq
	.cfi_endproc

	.p2align	4, 0x90
__ZN42_$LT$$RF$T$u20$as$u20$core..fmt..Debug$GT$3fmt17hea31f9d52fbd407dE:
	.cfi_startproc
	pushq	%rbp
	.cfi_def_cfa_offset 16
	.cfi_offset %rbp, -16
	movq	%rsp, %rbp
	.cfi_def_cfa_register %rbp
	pushq	%r14
	pushq	%rbx
	subq	$32, %rsp
	.cfi_offset %rbx, -32
	.cfi_offset %r14, -24
	movq	(%rdi), %rbx
	cmpl	$1, (%rbx)
	jne	LBB202_2
	addq	$4, %rbx
	leaq	-48(%rbp), %r14
	leaq	L___unnamed_14(%rip), %rdx
	movl	$4, %ecx
	movq	%r14, %rdi
	callq	__ZN4core3fmt9Formatter11debug_tuple17h15ca25ad759edd1cE
	movq	%rbx, -24(%rbp)
	leaq	l___unnamed_334(%rip), %rdx
	leaq	-24(%rbp), %rsi
	movq	%r14, %rdi
	callq	__ZN4core3fmt8builders10DebugTuple5field17hf36121153a94f236E
	jmp	LBB202_3
LBB202_2:
	leaq	-48(%rbp), %r14
	leaq	L___unnamed_16(%rip), %rdx
	movl	$4, %ecx
	movq	%r14, %rdi
	callq	__ZN4core3fmt9Formatter11debug_tuple17h15ca25ad759edd1cE
LBB202_3:
	movq	%r14, %rdi
	callq	__ZN4core3fmt8builders10DebugTuple6finish17h68acf09c6f6593f2E
	addq	$32, %rsp
	popq	%rbx
	popq	%r14
	popq	%rbp
	retq
	.cfi_endproc

	.p2align	4, 0x90
__ZN42_$LT$$RF$T$u20$as$u20$core..fmt..Debug$GT$3fmt17hea3fa247fa6eb3aaE:
	.cfi_startproc
	pushq	%rbp
	.cfi_def_cfa_offset 16
	.cfi_offset %rbp, -16
	movq	%rsp, %rbp
	.cfi_def_cfa_register %rbp
	pushq	%r15
	pushq	%r14
	pushq	%rbx
	subq	$24, %rsp
	.cfi_offset %rbx, -40
	.cfi_offset %r14, -32
	.cfi_offset %r15, -24
	movq	(%rdi), %rbx
	leaq	8(%rbx), %r15
	leaq	l___unnamed_335(%rip), %rdx
	leaq	-48(%rbp), %r14
	movl	$3, %ecx
	movq	%r14, %rdi
	callq	__ZN4core3fmt9Formatter12debug_struct17h985c0158d1fc7193E
	movq	%r15, -32(%rbp)
	leaq	l___unnamed_336(%rip), %rsi
	leaq	l___unnamed_337(%rip), %r8
	leaq	-32(%rbp), %rcx
	movl	$12, %edx
	movq	%r14, %rdi
	callq	__ZN4core3fmt8builders11DebugStruct5field17h9c15dc155278eed2E
	movq	%rbx, -32(%rbp)
	leaq	L___unnamed_338(%rip), %rsi
	leaq	l___unnamed_339(%rip), %r8
	leaq	-32(%rbp), %rcx
	movl	$4, %edx
	movq	%r14, %rdi
	callq	__ZN4core3fmt8builders11DebugStruct5field17h9c15dc155278eed2E
	movq	%r14, %rdi
	callq	__ZN4core3fmt8builders11DebugStruct6finish17h26808393f3fed630E
	addq	$24, %rsp
	popq	%rbx
	popq	%r14
	popq	%r15
	popq	%rbp
	retq
	.cfi_endproc

	.p2align	4, 0x90
__ZN42_$LT$$RF$T$u20$as$u20$core..fmt..Debug$GT$3fmt17hea9c68e0566f012bE:
	.cfi_startproc
	pushq	%rbp
	.cfi_def_cfa_offset 16
	.cfi_offset %rbp, -16
	movq	%rsp, %rbp
	.cfi_def_cfa_register %rbp
	pushq	%r14
	pushq	%rbx
	subq	$32, %rsp
	.cfi_offset %rbx, -32
	.cfi_offset %r14, -24
	movq	(%rdi), %rbx
	cmpl	$1, (%rbx)
	jne	LBB204_2
	addq	$4, %rbx
	leaq	-48(%rbp), %r14
	leaq	L___unnamed_14(%rip), %rdx
	movl	$4, %ecx
	movq	%r14, %rdi
	callq	__ZN4core3fmt9Formatter11debug_tuple17h15ca25ad759edd1cE
	movq	%rbx, -24(%rbp)
	leaq	l___unnamed_5(%rip), %rdx
	leaq	-24(%rbp), %rsi
	movq	%r14, %rdi
	callq	__ZN4core3fmt8builders10DebugTuple5field17hf36121153a94f236E
	jmp	LBB204_3
LBB204_2:
	leaq	-48(%rbp), %r14
	leaq	L___unnamed_16(%rip), %rdx
	movl	$4, %ecx
	movq	%r14, %rdi
	callq	__ZN4core3fmt9Formatter11debug_tuple17h15ca25ad759edd1cE
LBB204_3:
	movq	%r14, %rdi
	callq	__ZN4core3fmt8builders10DebugTuple6finish17h68acf09c6f6593f2E
	addq	$32, %rsp
	popq	%rbx
	popq	%r14
	popq	%rbp
	retq
	.cfi_endproc

	.p2align	4, 0x90
__ZN42_$LT$$RF$T$u20$as$u20$core..fmt..Debug$GT$3fmt17heb66183686d4dee1E:
	.cfi_startproc
	pushq	%rbp
	.cfi_def_cfa_offset 16
	.cfi_offset %rbp, -16
	movq	%rsp, %rbp
	.cfi_def_cfa_register %rbp
	movq	%rsi, %rdi
	leaq	L___unnamed_340(%rip), %rsi
	movl	$4, %edx
	popq	%rbp
	jmp	__ZN4core3fmt9Formatter9write_str17h957ea9717e49073dE
	.cfi_endproc

	.p2align	4, 0x90
__ZN42_$LT$$RF$T$u20$as$u20$core..fmt..Debug$GT$3fmt17heb8b3e521afe303fE:
	.cfi_startproc
	pushq	%rbp
	.cfi_def_cfa_offset 16
	.cfi_offset %rbp, -16
	movq	%rsp, %rbp
	.cfi_def_cfa_register %rbp
	movq	%rsi, %rdi
	leaq	l___unnamed_341(%rip), %rsi
	movl	$2, %edx
	popq	%rbp
	jmp	__ZN4core3fmt9Formatter9write_str17h957ea9717e49073dE
	.cfi_endproc

	.p2align	4, 0x90
__ZN42_$LT$$RF$T$u20$as$u20$core..fmt..Debug$GT$3fmt17hec8ce73cbbd66376E:
	.cfi_startproc
	pushq	%rbp
	.cfi_def_cfa_offset 16
	.cfi_offset %rbp, -16
	movq	%rsp, %rbp
	.cfi_def_cfa_register %rbp
	movq	%rsi, %rdi
	leaq	l___unnamed_342(%rip), %rsi
	movl	$7, %edx
	popq	%rbp
	jmp	__ZN4core3fmt9Formatter9write_str17h957ea9717e49073dE
	.cfi_endproc

	.p2align	4, 0x90
__ZN42_$LT$$RF$T$u20$as$u20$core..fmt..Debug$GT$3fmt17hecc4c99d4b1f194aE:
	.cfi_startproc
	pushq	%rbp
	.cfi_def_cfa_offset 16
	.cfi_offset %rbp, -16
	movq	%rsp, %rbp
	.cfi_def_cfa_register %rbp
	pushq	%r15
	pushq	%r14
	pushq	%r13
	pushq	%r12
	pushq	%rbx
	subq	$24, %rsp
	.cfi_offset %rbx, -56
	.cfi_offset %r12, -48
	.cfi_offset %r13, -40
	.cfi_offset %r14, -32
	.cfi_offset %r15, -24
	movq	(%rdi), %rbx
	leaq	8(%rbx), %r12
	leaq	12(%rbx), %r13
	leaq	20(%rbx), %r15
	leaq	l___unnamed_343(%rip), %rdx
	leaq	-64(%rbp), %r14
	movl	$7, %ecx
	movq	%r14, %rdi
	callq	__ZN4core3fmt9Formatter12debug_struct17h985c0158d1fc7193E
	movq	%r12, -48(%rbp)
	leaq	l___unnamed_344(%rip), %rsi
	leaq	l___unnamed_345(%rip), %r8
	leaq	-48(%rbp), %rcx
	movl	$10, %edx
	movq	%r14, %rdi
	callq	__ZN4core3fmt8builders11DebugStruct5field17h9c15dc155278eed2E
	movq	%r13, -48(%rbp)
	leaq	l___unnamed_346(%rip), %rsi
	leaq	l___unnamed_347(%rip), %r8
	leaq	-48(%rbp), %rcx
	movl	$11, %edx
	movq	%r14, %rdi
	callq	__ZN4core3fmt8builders11DebugStruct5field17h9c15dc155278eed2E
	movq	%r15, -48(%rbp)
	leaq	l___unnamed_208(%rip), %rsi
	leaq	l___unnamed_209(%rip), %r8
	leaq	-48(%rbp), %rcx
	movl	$10, %edx
	movq	%r14, %rdi
	callq	__ZN4core3fmt8builders11DebugStruct5field17h9c15dc155278eed2E
	movq	%rbx, -48(%rbp)
	leaq	L___unnamed_162(%rip), %rsi
	leaq	l___unnamed_7(%rip), %r8
	leaq	-48(%rbp), %rcx
	movl	$4, %edx
	movq	%r14, %rdi
	callq	__ZN4core3fmt8builders11DebugStruct5field17h9c15dc155278eed2E
	movq	%r14, %rdi
	callq	__ZN4core3fmt8builders11DebugStruct6finish17h26808393f3fed630E
	addq	$24, %rsp
	popq	%rbx
	popq	%r12
	popq	%r13
	popq	%r14
	popq	%r15
	popq	%rbp
	retq
	.cfi_endproc

	.p2align	4, 0x90
__ZN42_$LT$$RF$T$u20$as$u20$core..fmt..Debug$GT$3fmt17hed95e0a666689151E:
	.cfi_startproc
	pushq	%rbp
	.cfi_def_cfa_offset 16
	.cfi_offset %rbp, -16
	movq	%rsp, %rbp
	.cfi_def_cfa_register %rbp
	pushq	%r14
	pushq	%rbx
	subq	$32, %rsp
	.cfi_offset %rbx, -32
	.cfi_offset %r14, -24
	movq	(%rdi), %rbx
	leaq	l___unnamed_348(%rip), %rdx
	leaq	-40(%rbp), %r14
	movl	$9, %ecx
	movq	%r14, %rdi
	callq	__ZN4core3fmt9Formatter12debug_struct17h985c0158d1fc7193E
	movq	%rbx, -24(%rbp)
	leaq	l___unnamed_53(%rip), %rsi
	leaq	l___unnamed_54(%rip), %r8
	leaq	-24(%rbp), %rcx
	movl	$12, %edx
	movq	%r14, %rdi
	callq	__ZN4core3fmt8builders11DebugStruct5field17h9c15dc155278eed2E
	movq	%r14, %rdi
	callq	__ZN4core3fmt8builders11DebugStruct6finish17h26808393f3fed630E
	addq	$32, %rsp
	popq	%rbx
	popq	%r14
	popq	%rbp
	retq
	.cfi_endproc

	.p2align	4, 0x90
__ZN42_$LT$$RF$T$u20$as$u20$core..fmt..Debug$GT$3fmt17heef22a675c3d9d3aE:
	.cfi_startproc
	pushq	%rbp
	.cfi_def_cfa_offset 16
	.cfi_offset %rbp, -16
	movq	%rsp, %rbp
	.cfi_def_cfa_register %rbp
	pushq	%r14
	pushq	%rbx
	subq	$32, %rsp
	.cfi_offset %rbx, -32
	.cfi_offset %r14, -24
	movq	(%rdi), %rbx
	leaq	l___unnamed_349(%rip), %rdx
	leaq	-40(%rbp), %r14
	movl	$14, %ecx
	movq	%r14, %rdi
	callq	__ZN4core3fmt9Formatter12debug_struct17h985c0158d1fc7193E
	movq	%rbx, -24(%rbp)
	leaq	l___unnamed_53(%rip), %rsi
	leaq	l___unnamed_54(%rip), %r8
	leaq	-24(%rbp), %rcx
	movl	$12, %edx
	movq	%r14, %rdi
	callq	__ZN4core3fmt8builders11DebugStruct5field17h9c15dc155278eed2E
	movq	%r14, %rdi
	callq	__ZN4core3fmt8builders11DebugStruct6finish17h26808393f3fed630E
	addq	$32, %rsp
	popq	%rbx
	popq	%r14
	popq	%rbp
	retq
	.cfi_endproc

	.p2align	4, 0x90
__ZN42_$LT$$RF$T$u20$as$u20$core..fmt..Debug$GT$3fmt17hef04620a1b01cab5E:
	.cfi_startproc
	pushq	%rbp
	.cfi_def_cfa_offset 16
	.cfi_offset %rbp, -16
	movq	%rsp, %rbp
	.cfi_def_cfa_register %rbp
	pushq	%r15
	pushq	%r14
	pushq	%rbx
	subq	$24, %rsp
	.cfi_offset %rbx, -40
	.cfi_offset %r14, -32
	.cfi_offset %r15, -24
	movq	(%rdi), %rbx
	leaq	8(%rbx), %r15
	leaq	l___unnamed_350(%rip), %rdx
	leaq	-48(%rbp), %r14
	movl	$9, %ecx
	movq	%r14, %rdi
	callq	__ZN4core3fmt9Formatter12debug_struct17h985c0158d1fc7193E
	movq	%r15, -32(%rbp)
	leaq	l___unnamed_351(%rip), %rsi
	leaq	l___unnamed_352(%rip), %r8
	leaq	-32(%rbp), %rcx
	movl	$11, %edx
	movq	%r14, %rdi
	callq	__ZN4core3fmt8builders11DebugStruct5field17h9c15dc155278eed2E
	movq	%rbx, -32(%rbp)
	leaq	L___unnamed_162(%rip), %rsi
	leaq	l___unnamed_7(%rip), %r8
	leaq	-32(%rbp), %rcx
	movl	$4, %edx
	movq	%r14, %rdi
	callq	__ZN4core3fmt8builders11DebugStruct5field17h9c15dc155278eed2E
	movq	%r14, %rdi
	callq	__ZN4core3fmt8builders11DebugStruct6finish17h26808393f3fed630E
	addq	$24, %rsp
	popq	%rbx
	popq	%r14
	popq	%r15
	popq	%rbp
	retq
	.cfi_endproc

	.p2align	4, 0x90
__ZN42_$LT$$RF$T$u20$as$u20$core..fmt..Debug$GT$3fmt17hef6ee583266dbe53E:
	.cfi_startproc
	pushq	%rbp
	.cfi_def_cfa_offset 16
	.cfi_offset %rbp, -16
	movq	%rsp, %rbp
	.cfi_def_cfa_register %rbp
	pushq	%r15
	pushq	%r14
	pushq	%r13
	pushq	%r12
	pushq	%rbx
	subq	$24, %rsp
	.cfi_offset %rbx, -56
	.cfi_offset %r12, -48
	.cfi_offset %r13, -40
	.cfi_offset %r14, -32
	.cfi_offset %r15, -24
	movq	(%rdi), %rbx
	leaq	-64(%rbp), %rdi
	callq	__ZN4core3fmt9Formatter10debug_list17hd054f0986422feb9E
	movq	%rbx, -48(%rbp)
	movq	16(%rbx), %rax
	testq	%rax, %rax
	je	LBB212_3
	movq	-48(%rbp), %rcx
	movq	(%rcx), %rbx
	imulq	$392, %rax, %r14
	addq	%rbx, %r14
	leaq	l___unnamed_353(%rip), %r15
	leaq	-64(%rbp), %r12
	leaq	l___unnamed_72(%rip), %r13
	.p2align	4, 0x90
LBB212_2:
	movq	%r12, %rdi
	movq	%rbx, %rsi
	movq	%r15, %rdx
	callq	__ZN4core3fmt8builders9DebugList5entry17h5c0dec54538196dfE
	leaq	384(%rbx), %rsi
	movq	%r12, %rdi
	movq	%r13, %rdx
	callq	__ZN4core3fmt8builders9DebugList5entry17h5c0dec54538196dfE
	addq	$392, %rbx
	cmpq	%r14, %rbx
	jne	LBB212_2
LBB212_3:
	movq	-48(%rbp), %rsi
	cmpq	$0, 24(%rsi)
	je	LBB212_5
	addq	$24, %rsi
	leaq	l___unnamed_354(%rip), %rdx
	leaq	-64(%rbp), %rdi
	callq	__ZN4core3fmt8builders9DebugList5entry17h5c0dec54538196dfE
LBB212_5:
	leaq	-64(%rbp), %rdi
	callq	__ZN4core3fmt8builders9DebugList6finish17h3635bd6af9b1c5a6E
	addq	$24, %rsp
	popq	%rbx
	popq	%r12
	popq	%r13
	popq	%r14
	popq	%r15
	popq	%rbp
	retq
	.cfi_endproc

	.p2align	4, 0x90
__ZN42_$LT$$RF$T$u20$as$u20$core..fmt..Debug$GT$3fmt17heffd7172fb999c03E:
	.cfi_startproc
	pushq	%rbp
	.cfi_def_cfa_offset 16
	.cfi_offset %rbp, -16
	movq	%rsp, %rbp
	.cfi_def_cfa_register %rbp
	pushq	%r14
	pushq	%rbx
	subq	$32, %rsp
	.cfi_offset %rbx, -32
	.cfi_offset %r14, -24
	movq	(%rdi), %rbx
	leaq	L___unnamed_355(%rip), %rdx
	leaq	-40(%rbp), %r14
	movl	$8, %ecx
	movq	%r14, %rdi
	callq	__ZN4core3fmt9Formatter12debug_struct17h985c0158d1fc7193E
	movq	%rbx, -24(%rbp)
	leaq	l___unnamed_53(%rip), %rsi
	leaq	l___unnamed_54(%rip), %r8
	leaq	-24(%rbp), %rcx
	movl	$12, %edx
	movq	%r14, %rdi
	callq	__ZN4core3fmt8builders11DebugStruct5field17h9c15dc155278eed2E
	movq	%r14, %rdi
	callq	__ZN4core3fmt8builders11DebugStruct6finish17h26808393f3fed630E
	addq	$32, %rsp
	popq	%rbx
	popq	%r14
	popq	%rbp
	retq
	.cfi_endproc

	.p2align	4, 0x90
__ZN42_$LT$$RF$T$u20$as$u20$core..fmt..Debug$GT$3fmt17hf01ca46ab1b98fa1E:
	.cfi_startproc
	pushq	%rbp
	.cfi_def_cfa_offset 16
	.cfi_offset %rbp, -16
	movq	%rsp, %rbp
	.cfi_def_cfa_register %rbp
	movq	%rsi, %rdi
	leaq	L___unnamed_356(%rip), %rsi
	movl	$4, %edx
	popq	%rbp
	jmp	__ZN4core3fmt9Formatter9write_str17h957ea9717e49073dE
	.cfi_endproc

	.p2align	4, 0x90
__ZN42_$LT$$RF$T$u20$as$u20$core..fmt..Debug$GT$3fmt17hf37ec4b3f2a8ad5fE:
	.cfi_startproc
	pushq	%rbp
	.cfi_def_cfa_offset 16
	.cfi_offset %rbp, -16
	movq	%rsp, %rbp
	.cfi_def_cfa_register %rbp
	movq	%rsi, %rdi
	leaq	l___unnamed_357(%rip), %rsi
	movl	$6, %edx
	popq	%rbp
	jmp	__ZN4core3fmt9Formatter9write_str17h957ea9717e49073dE
	.cfi_endproc

	.p2align	4, 0x90
__ZN42_$LT$$RF$T$u20$as$u20$core..fmt..Debug$GT$3fmt17hf3b11a4e05e10be1E:
	.cfi_startproc
	pushq	%rbp
	.cfi_def_cfa_offset 16
	.cfi_offset %rbp, -16
	movq	%rsp, %rbp
	.cfi_def_cfa_register %rbp
	pushq	%r15
	pushq	%r14
	pushq	%rbx
	subq	$24, %rsp
	.cfi_offset %rbx, -40
	.cfi_offset %r14, -32
	.cfi_offset %r15, -24
	movq	(%rdi), %rax
	movq	(%rax), %rbx
	leaq	72(%rbx), %r15
	leaq	L___unnamed_174(%rip), %rdx
	leaq	-48(%rbp), %r14
	movl	$8, %ecx
	movq	%r14, %rdi
	callq	__ZN4core3fmt9Formatter12debug_struct17h985c0158d1fc7193E
	movq	%r15, -32(%rbp)
	leaq	L___unnamed_4(%rip), %rsi
	leaq	l___unnamed_175(%rip), %r8
	leaq	-32(%rbp), %rcx
	movl	$8, %edx
	movq	%r14, %rdi
	callq	__ZN4core3fmt8builders11DebugStruct5field17h9c15dc155278eed2E
	movq	%rbx, -32(%rbp)
	leaq	80(%rbx), %r15
	addq	$32, %rbx
	leaq	l___unnamed_176(%rip), %rsi
	leaq	l___unnamed_177(%rip), %r8
	leaq	-32(%rbp), %rcx
	movl	$6, %edx
	movq	%r14, %rdi
	callq	__ZN4core3fmt8builders11DebugStruct5field17h9c15dc155278eed2E
	movq	%r15, -32(%rbp)
	leaq	L___unnamed_12(%rip), %rsi
	leaq	l___unnamed_178(%rip), %r8
	leaq	-32(%rbp), %rcx
	movl	$8, %edx
	movq	%r14, %rdi
	callq	__ZN4core3fmt8builders11DebugStruct5field17h9c15dc155278eed2E
	movq	%rbx, -32(%rbp)
	leaq	l___unnamed_179(%rip), %rsi
	leaq	l___unnamed_180(%rip), %r8
	leaq	-32(%rbp), %rcx
	movl	$12, %edx
	movq	%r14, %rdi
	callq	__ZN4core3fmt8builders11DebugStruct5field17h9c15dc155278eed2E
	movq	%r14, %rdi
	callq	__ZN4core3fmt8builders11DebugStruct6finish17h26808393f3fed630E
	addq	$24, %rsp
	popq	%rbx
	popq	%r14
	popq	%r15
	popq	%rbp
	retq
	.cfi_endproc

	.p2align	4, 0x90
__ZN42_$LT$$RF$T$u20$as$u20$core..fmt..Debug$GT$3fmt17hf462402f6d959d59E:
	.cfi_startproc
	pushq	%rbp
	.cfi_def_cfa_offset 16
	.cfi_offset %rbp, -16
	movq	%rsp, %rbp
	.cfi_def_cfa_register %rbp
	pushq	%r15
	pushq	%r14
	pushq	%r13
	pushq	%r12
	pushq	%rbx
	subq	$24, %rsp
	.cfi_offset %rbx, -56
	.cfi_offset %r12, -48
	.cfi_offset %r13, -40
	.cfi_offset %r14, -32
	.cfi_offset %r15, -24
	movq	(%rdi), %rbx
	leaq	32(%rbx), %r12
	leaq	36(%rbx), %r13
	leaq	40(%rbx), %r14
	leaq	l___unnamed_358(%rip), %rdx
	leaq	-64(%rbp), %r15
	movl	$14, %ecx
	movq	%r15, %rdi
	callq	__ZN4core3fmt9Formatter12debug_struct17h985c0158d1fc7193E
	movq	%r12, -48(%rbp)
	leaq	l___unnamed_359(%rip), %rsi
	leaq	l___unnamed_360(%rip), %r8
	leaq	-48(%rbp), %rcx
	movl	$9, %edx
	movq	%r15, %rdi
	callq	__ZN4core3fmt8builders11DebugStruct5field17h9c15dc155278eed2E
	movq	%r13, -48(%rbp)
	leaq	L___unnamed_4(%rip), %rsi
	leaq	l___unnamed_5(%rip), %r8
	leaq	-48(%rbp), %rcx
	movl	$8, %edx
	movq	%r15, %rdi
	callq	__ZN4core3fmt8builders11DebugStruct5field17h9c15dc155278eed2E
	movq	%rbx, -48(%rbp)
	leaq	l___unnamed_75(%rip), %rsi
	leaq	l___unnamed_361(%rip), %r8
	leaq	-48(%rbp), %rcx
	movl	$9, %edx
	movq	%r15, %rdi
	callq	__ZN4core3fmt8builders11DebugStruct5field17h9c15dc155278eed2E
	movq	%r14, -48(%rbp)
	leaq	L___unnamed_12(%rip), %rsi
	leaq	l___unnamed_13(%rip), %r8
	leaq	-48(%rbp), %rcx
	movl	$8, %edx
	movq	%r15, %rdi
	callq	__ZN4core3fmt8builders11DebugStruct5field17h9c15dc155278eed2E
	movq	%r15, %rdi
	callq	__ZN4core3fmt8builders11DebugStruct6finish17h26808393f3fed630E
	addq	$24, %rsp
	popq	%rbx
	popq	%r12
	popq	%r13
	popq	%r14
	popq	%r15
	popq	%rbp
	retq
	.cfi_endproc

	.p2align	4, 0x90
__ZN42_$LT$$RF$T$u20$as$u20$core..fmt..Debug$GT$3fmt17hf4f512b23368bd5fE:
	.cfi_startproc
	pushq	%rbp
	.cfi_def_cfa_offset 16
	.cfi_offset %rbp, -16
	movq	%rsp, %rbp
	.cfi_def_cfa_register %rbp
	movq	(%rdi), %rdi
	popq	%rbp
	jmp	__ZN52_$LT$syn..attr..Meta$u20$as$u20$core..fmt..Debug$GT$3fmt17he9b458a92087e136E
	.cfi_endproc

	.p2align	4, 0x90
__ZN42_$LT$$RF$T$u20$as$u20$core..fmt..Debug$GT$3fmt17hf5cb851142c66bf4E:
	.cfi_startproc
	pushq	%rbp
	.cfi_def_cfa_offset 16
	.cfi_offset %rbp, -16
	movq	%rsp, %rbp
	.cfi_def_cfa_register %rbp
	pushq	%r14
	pushq	%rbx
	subq	$32, %rsp
	.cfi_offset %rbx, -32
	.cfi_offset %r14, -24
	movq	(%rdi), %rbx
	leaq	l___unnamed_362(%rip), %rdx
	leaq	-40(%rbp), %r14
	movl	$9, %ecx
	movq	%r14, %rdi
	callq	__ZN4core3fmt9Formatter12debug_struct17h985c0158d1fc7193E
	movq	%rbx, -24(%rbp)
	leaq	l___unnamed_53(%rip), %rsi
	leaq	l___unnamed_54(%rip), %r8
	leaq	-24(%rbp), %rcx
	movl	$12, %edx
	movq	%r14, %rdi
	callq	__ZN4core3fmt8builders11DebugStruct5field17h9c15dc155278eed2E
	movq	%r14, %rdi
	callq	__ZN4core3fmt8builders11DebugStruct6finish17h26808393f3fed630E
	addq	$32, %rsp
	popq	%rbx
	popq	%r14
	popq	%rbp
	retq
	.cfi_endproc

	.p2align	4, 0x90
__ZN42_$LT$$RF$T$u20$as$u20$core..fmt..Debug$GT$3fmt17hf651d1b24de792e3E:
	.cfi_startproc
	pushq	%rbp
	.cfi_def_cfa_offset 16
	.cfi_offset %rbp, -16
	movq	%rsp, %rbp
	.cfi_def_cfa_register %rbp
	movq	%rsi, %rdi
	leaq	l___unnamed_363(%rip), %rsi
	movl	$3, %edx
	popq	%rbp
	jmp	__ZN4core3fmt9Formatter9write_str17h957ea9717e49073dE
	.cfi_endproc

	.p2align	4, 0x90
__ZN42_$LT$$RF$T$u20$as$u20$core..fmt..Debug$GT$3fmt17hf722ad61fa76474aE:
	.cfi_startproc
	pushq	%rbp
	.cfi_def_cfa_offset 16
	.cfi_offset %rbp, -16
	movq	%rsp, %rbp
	.cfi_def_cfa_register %rbp
	pushq	%r15
	pushq	%r14
	pushq	%r13
	pushq	%r12
	pushq	%rbx
	subq	$24, %rsp
	.cfi_offset %rbx, -56
	.cfi_offset %r12, -48
	.cfi_offset %r13, -40
	.cfi_offset %r14, -32
	.cfi_offset %r15, -24
	movq	(%rdi), %rbx
	leaq	-64(%rbp), %rdi
	callq	__ZN4core3fmt9Formatter10debug_list17hd054f0986422feb9E
	movq	%rbx, -48(%rbp)
	movq	16(%rbx), %rax
	testq	%rax, %rax
	je	LBB221_3
	movq	-48(%rbp), %rcx
	movq	(%rcx), %rbx
	imulq	$120, %rax, %r14
	addq	%rbx, %r14
	leaq	l___unnamed_364(%rip), %r15
	leaq	-64(%rbp), %r12
	leaq	l___unnamed_72(%rip), %r13
	.p2align	4, 0x90
LBB221_2:
	movq	%r12, %rdi
	movq	%rbx, %rsi
	movq	%r15, %rdx
	callq	__ZN4core3fmt8builders9DebugList5entry17h5c0dec54538196dfE
	leaq	112(%rbx), %rsi
	movq	%r12, %rdi
	movq	%r13, %rdx
	callq	__ZN4core3fmt8builders9DebugList5entry17h5c0dec54538196dfE
	addq	$120, %rbx
	cmpq	%r14, %rbx
	jne	LBB221_2
LBB221_3:
	movq	-48(%rbp), %rsi
	cmpq	$0, 24(%rsi)
	je	LBB221_5
	addq	$24, %rsi
	leaq	l___unnamed_365(%rip), %rdx
	leaq	-64(%rbp), %rdi
	callq	__ZN4core3fmt8builders9DebugList5entry17h5c0dec54538196dfE
LBB221_5:
	leaq	-64(%rbp), %rdi
	callq	__ZN4core3fmt8builders9DebugList6finish17h3635bd6af9b1c5a6E
	addq	$24, %rsp
	popq	%rbx
	popq	%r12
	popq	%r13
	popq	%r14
	popq	%r15
	popq	%rbp
	retq
	.cfi_endproc

	.p2align	4, 0x90
__ZN42_$LT$$RF$T$u20$as$u20$core..fmt..Debug$GT$3fmt17hf842da5932b0aa45E:
	.cfi_startproc
	pushq	%rbp
	.cfi_def_cfa_offset 16
	.cfi_offset %rbp, -16
	movq	%rsp, %rbp
	.cfi_def_cfa_register %rbp
	pushq	%r14
	pushq	%rbx
	subq	$32, %rsp
	.cfi_offset %rbx, -32
	.cfi_offset %r14, -24
	movq	(%rdi), %rbx
	cmpl	$2, (%rbx)
	jne	LBB222_1
	leaq	-48(%rbp), %r14
	leaq	L___unnamed_16(%rip), %rdx
	movl	$4, %ecx
	movq	%r14, %rdi
	callq	__ZN4core3fmt9Formatter11debug_tuple17h15ca25ad759edd1cE
	jmp	LBB222_3
LBB222_1:
	leaq	-48(%rbp), %r14
	leaq	L___unnamed_14(%rip), %rdx
	movl	$4, %ecx
	movq	%r14, %rdi
	callq	__ZN4core3fmt9Formatter11debug_tuple17h15ca25ad759edd1cE
	movq	%rbx, -24(%rbp)
	leaq	l___unnamed_366(%rip), %rdx
	leaq	-24(%rbp), %rsi
	movq	%r14, %rdi
	callq	__ZN4core3fmt8builders10DebugTuple5field17hf36121153a94f236E
LBB222_3:
	movq	%r14, %rdi
	callq	__ZN4core3fmt8builders10DebugTuple6finish17h68acf09c6f6593f2E
	addq	$32, %rsp
	popq	%rbx
	popq	%r14
	popq	%rbp
	retq
	.cfi_endproc

	.p2align	4, 0x90
__ZN42_$LT$$RF$T$u20$as$u20$core..fmt..Debug$GT$3fmt17hfa97f2e5eba62552E:
	.cfi_startproc
	pushq	%rbp
	.cfi_def_cfa_offset 16
	.cfi_offset %rbp, -16
	movq	%rsp, %rbp
	.cfi_def_cfa_register %rbp
	pushq	%r14
	pushq	%rbx
	subq	$32, %rsp
	.cfi_offset %rbx, -32
	.cfi_offset %r14, -24
	movq	(%rdi), %rbx
	cmpl	$1, (%rbx)
	jne	LBB223_2
	addq	$4, %rbx
	leaq	-48(%rbp), %r14
	leaq	L___unnamed_14(%rip), %rdx
	movl	$4, %ecx
	movq	%r14, %rdi
	callq	__ZN4core3fmt9Formatter11debug_tuple17h15ca25ad759edd1cE
	movq	%rbx, -24(%rbp)
	leaq	l___unnamed_301(%rip), %rdx
	leaq	-24(%rbp), %rsi
	movq	%r14, %rdi
	callq	__ZN4core3fmt8builders10DebugTuple5field17hf36121153a94f236E
	jmp	LBB223_3
LBB223_2:
	leaq	-48(%rbp), %r14
	leaq	L___unnamed_16(%rip), %rdx
	movl	$4, %ecx
	movq	%r14, %rdi
	callq	__ZN4core3fmt9Formatter11debug_tuple17h15ca25ad759edd1cE
LBB223_3:
	movq	%r14, %rdi
	callq	__ZN4core3fmt8builders10DebugTuple6finish17h68acf09c6f6593f2E
	addq	$32, %rsp
	popq	%rbx
	popq	%r14
	popq	%rbp
	retq
	.cfi_endproc

	.p2align	4, 0x90
__ZN42_$LT$$RF$T$u20$as$u20$core..fmt..Debug$GT$3fmt17hfb6f977bffe7296dE:
	.cfi_startproc
	pushq	%rbp
	.cfi_def_cfa_offset 16
	.cfi_offset %rbp, -16
	movq	%rsp, %rbp
	.cfi_def_cfa_register %rbp
	movq	(%rdi), %rdi
	popq	%rbp
	jmp	__ZN58_$LT$syn..data..Visibility$u20$as$u20$core..fmt..Debug$GT$3fmt17h2765d2fa9f4e71bfE
	.cfi_endproc

	.p2align	4, 0x90
__ZN42_$LT$$RF$T$u20$as$u20$core..fmt..Debug$GT$3fmt17hfcc6c23e5c48a243E:
	.cfi_startproc
	pushq	%rbp
	.cfi_def_cfa_offset 16
	.cfi_offset %rbp, -16
	movq	%rsp, %rbp
	.cfi_def_cfa_register %rbp
	movq	%rsi, %rdi
	leaq	l___unnamed_367(%rip), %rsi
	movl	$3, %edx
	popq	%rbp
	jmp	__ZN4core3fmt9Formatter9write_str17h957ea9717e49073dE
	.cfi_endproc

	.p2align	4, 0x90
__ZN42_$LT$$RF$T$u20$as$u20$core..fmt..Debug$GT$3fmt17hfe3780fffa707ab8E:
	.cfi_startproc
	pushq	%rbp
	.cfi_def_cfa_offset 16
	.cfi_offset %rbp, -16
	movq	%rsp, %rbp
	.cfi_def_cfa_register %rbp
	movq	%rsi, %rdi
	leaq	l___unnamed_368(%rip), %rsi
	movl	$3, %edx
	popq	%rbp
	jmp	__ZN4core3fmt9Formatter9write_str17h957ea9717e49073dE
	.cfi_endproc

	.p2align	4, 0x90
__ZN44_$LT$$RF$T$u20$as$u20$core..fmt..Display$GT$3fmt17h2ab0ca393d156779E:
	.cfi_startproc
	pushq	%rbp
	.cfi_def_cfa_offset 16
	.cfi_offset %rbp, -16
	movq	%rsp, %rbp
	.cfi_def_cfa_register %rbp
	movq	(%rdi), %rdi
	popq	%rbp
	jmp	__ZN57_$LT$proc_macro2..Ident$u20$as$u20$core..fmt..Display$GT$3fmt17h03e760d1db8acc9dE
	.cfi_endproc

	.p2align	4, 0x90
__ZN44_$LT$$RF$T$u20$as$u20$core..fmt..Display$GT$3fmt17h2bf7bf2ce71a1cdeE:
	.cfi_startproc
	pushq	%rbp
	.cfi_def_cfa_offset 16
	.cfi_offset %rbp, -16
	movq	%rsp, %rbp
	.cfi_def_cfa_register %rbp
	movq	(%rdi), %rcx
	cmpq	$0, 16(%rcx)
	je	LBB228_1
	movq	%rsi, %rax
	movq	(%rcx), %rcx
	movq	32(%rcx), %rsi
	movq	48(%rcx), %rdx
	movq	%rax, %rdi
	popq	%rbp
	jmp	__ZN4core3fmt9Formatter9write_str17h957ea9717e49073dE
LBB228_1:
	leaq	l___unnamed_369(%rip), %rdx
	xorl	%edi, %edi
	xorl	%esi, %esi
	callq	__ZN4core9panicking18panic_bounds_check17habe69d236c55e3edE
	.cfi_endproc

	.p2align	4, 0x90
__ZN44_$LT$$RF$T$u20$as$u20$core..fmt..Display$GT$3fmt17h3caf972ca5053cd4E:
	.cfi_startproc
	pushq	%rbp
	.cfi_def_cfa_offset 16
	.cfi_offset %rbp, -16
	movq	%rsp, %rbp
	.cfi_def_cfa_register %rbp
	movq	(%rdi), %rdi
	popq	%rbp
	jmp	__ZN59_$LT$proc_macro2..Literal$u20$as$u20$core..fmt..Display$GT$3fmt17h3429fe76352e3b2eE
	.cfi_endproc

	.p2align	4, 0x90
__ZN44_$LT$$RF$T$u20$as$u20$core..fmt..Display$GT$3fmt17h8407b036682ffbecE:
	.cfi_startproc
	pushq	%rbp
	.cfi_def_cfa_offset 16
	.cfi_offset %rbp, -16
	movq	%rsp, %rbp
	.cfi_def_cfa_register %rbp
	movq	%rsi, %rdx
	movq	(%rdi), %rax
	movq	(%rax), %rdi
	movq	8(%rax), %rsi
	popq	%rbp
	jmp	__ZN42_$LT$str$u20$as$u20$core..fmt..Display$GT$3fmt17hd4dee1c1c4ccf892E
	.cfi_endproc

	.p2align	4, 0x90
__ZN44_$LT$$RF$T$u20$as$u20$core..fmt..Display$GT$3fmt17hd44ece555bb9bb43E:
	.cfi_startproc
	pushq	%rbp
	.cfi_def_cfa_offset 16
	.cfi_offset %rbp, -16
	movq	%rsp, %rbp
	.cfi_def_cfa_register %rbp
	movq	(%rdi), %rax
	movq	(%rax), %rdi
	popq	%rbp
	jmp	__ZN59_$LT$proc_macro2..Literal$u20$as$u20$core..fmt..Display$GT$3fmt17h3429fe76352e3b2eE
	.cfi_endproc

	.p2align	4, 0x90
__ZN44_$LT$$RF$T$u20$as$u20$core..fmt..Display$GT$3fmt17hdb17c2cc4746459dE:
	.cfi_startproc
	pushq	%rbp
	.cfi_def_cfa_offset 16
	.cfi_offset %rbp, -16
	movq	%rsp, %rbp
	.cfi_def_cfa_register %rbp
	movq	(%rdi), %rdi
	popq	%rbp
	jmp	__ZN43_$LT$bool$u20$as$u20$core..fmt..Display$GT$3fmt17hf36463fa8b480ab4E
	.cfi_endproc

	.p2align	4, 0x90
__ZN44_$LT$$RF$T$u20$as$u20$core..fmt..Display$GT$3fmt17hdb971d2f2f78aee7E:
	.cfi_startproc
	pushq	%rbp
	.cfi_def_cfa_offset 16
	.cfi_offset %rbp, -16
	movq	%rsp, %rbp
	.cfi_def_cfa_register %rbp
	movq	(%rdi), %rdi
	popq	%rbp
	jmp	__ZN63_$LT$core..num..ParseIntError$u20$as$u20$core..fmt..Display$GT$3fmt17heb1569ad65640c9bE
	.cfi_endproc

	.p2align	4, 0x90
__ZN44_$LT$$RF$T$u20$as$u20$core..fmt..Display$GT$3fmt17he164bbbaaea5509bE:
	.cfi_startproc
	pushq	%rbp
	.cfi_def_cfa_offset 16
	.cfi_offset %rbp, -16
	movq	%rsp, %rbp
	.cfi_def_cfa_register %rbp
	movq	%rsi, %rdx
	movq	(%rdi), %rax
	movq	8(%rdi), %rsi
	movq	%rax, %rdi
	popq	%rbp
	jmp	__ZN42_$LT$str$u20$as$u20$core..fmt..Display$GT$3fmt17hd4dee1c1c4ccf892E
	.cfi_endproc

	.p2align	4, 0x90
__ZN4core3fmt3num49_$LT$impl$u20$core..fmt..Debug$u20$for$u20$u8$GT$3fmt17h4ceca651aeb4a0deE:
	.cfi_startproc
	pushq	%rbp
	.cfi_def_cfa_offset 16
	.cfi_offset %rbp, -16
	movq	%rsp, %rbp
	.cfi_def_cfa_register %rbp
	pushq	%r14
	pushq	%rbx
	.cfi_offset %rbx, -32
	.cfi_offset %r14, -24
	movq	%rsi, %rbx
	movq	%rdi, %r14
	movq	%rsi, %rdi
	callq	__ZN4core3fmt9Formatter15debug_lower_hex17h8530fbaeba13f4d9E
	testb	%al, %al
	je	LBB235_1
	movq	%r14, %rdi
	movq	%rbx, %rsi
	popq	%rbx
	popq	%r14
	popq	%rbp
	jmp	__ZN4core3fmt3num52_$LT$impl$u20$core..fmt..LowerHex$u20$for$u20$u8$GT$3fmt17h7701faa643a10c55E
LBB235_1:
	movq	%rbx, %rdi
	callq	__ZN4core3fmt9Formatter15debug_upper_hex17hf8fda15ec43a1e68E
	movq	%r14, %rdi
	movq	%rbx, %rsi
	testb	%al, %al
	je	LBB235_4
	popq	%rbx
	popq	%r14
	popq	%rbp
	jmp	__ZN4core3fmt3num52_$LT$impl$u20$core..fmt..UpperHex$u20$for$u20$u8$GT$3fmt17ha797e73a900719d8E
LBB235_4:
	popq	%rbx
	popq	%r14
	popq	%rbp
	jmp	__ZN4core3fmt3num3imp51_$LT$impl$u20$core..fmt..Display$u20$for$u20$u8$GT$3fmt17h0e89df114e53d66dE
	.cfi_endproc

	.p2align	4, 0x90
__ZN4core3num7dec2flt5rawfp10prev_float17h25ac4f9d274b5c8dE:
	.cfi_startproc
	pushq	%rbp
	.cfi_def_cfa_offset 16
	.cfi_offset %rbp, -16
	movq	%rsp, %rbp
	.cfi_def_cfa_register %rbp
	subq	$16, %rsp
	vmovss	%xmm0, -4(%rbp)
	callq	__ZN59_$LT$f32$u20$as$u20$core..num..dec2flt..rawfp..RawFloat$GT$8classify17h2c0e650b3fadfab7E
	cmpb	$4, %al
	jne	LBB236_1
	vmovss	-4(%rbp), %xmm0
	callq	__ZN59_$LT$f32$u20$as$u20$core..num..dec2flt..rawfp..RawFloat$GT$6unpack17he213fc1f0fc01f6cE
	cmpq	$8388608, %rax
	jne	LBB236_6
	decl	%edx
	movl	$16777215, %edi
	jmp	LBB236_7
LBB236_6:
	decq	%rax
	movq	%rax, %rdi
LBB236_7:
	movl	%edx, %esi
	callq	__ZN4core3num7dec2flt5rawfp8Unpacked3new17h03a37c5a6766a9f8E
	andq	$-8388609, %rax
	addl	$150, %edx
	movswq	%dx, %rdi
	shlq	$23, %rdi
	orq	%rax, %rdi
	movq	%rdi, %rax
	shrq	$32, %rax
	jne	LBB236_8
	addq	$16, %rsp
	popq	%rbp
	jmp	__ZN59_$LT$f32$u20$as$u20$core..num..dec2flt..rawfp..RawFloat$GT$9from_bits17hf4ff723ebcdf213dE
LBB236_1:
	movzbl	%al, %eax
	leaq	LJTI236_0(%rip), %rcx
	movslq	(%rcx,%rax,4), %rax
	addq	%rcx, %rax
	jmpq	*%rax
LBB236_3:
	leaq	l___unnamed_370(%rip), %rdi
	leaq	l___unnamed_371(%rip), %rdx
	movl	$27, %esi
	callq	__ZN4core9panicking5panic17h736ee47a631475c0E
LBB236_2:
	leaq	l___unnamed_372(%rip), %rdi
	leaq	l___unnamed_371(%rip), %rdx
	movl	$32, %esi
	callq	__ZN4core9panicking5panic17h736ee47a631475c0E
LBB236_5:
	leaq	l___unnamed_373(%rip), %rdi
	leaq	l___unnamed_371(%rip), %rdx
	movl	$28, %esi
	callq	__ZN4core9panicking5panic17h736ee47a631475c0E
LBB236_4:
	leaq	l___unnamed_374(%rip), %rdi
	leaq	l___unnamed_371(%rip), %rdx
	movl	$33, %esi
	callq	__ZN4core9panicking5panic17h736ee47a631475c0E
LBB236_8:
	callq	__ZN4core3num7dec2flt5rawfp13encode_normal28_$u7b$$u7b$closure$u7d$$u7d$17h5b1c49a52018f4f9E
	.cfi_endproc
	.p2align	2, 0x90
	.data_region jt32
.set L236_0_set_3, LBB236_3-LJTI236_0
.set L236_0_set_2, LBB236_2-LJTI236_0
.set L236_0_set_5, LBB236_5-LJTI236_0
.set L236_0_set_4, LBB236_4-LJTI236_0
LJTI236_0:
	.long	L236_0_set_3
	.long	L236_0_set_2
	.long	L236_0_set_5
	.long	L236_0_set_4
	.end_data_region

	.p2align	4, 0x90
__ZN4core3num7dec2flt5rawfp10prev_float17hf4a2e18c261279cfE:
	.cfi_startproc
	pushq	%rbp
	.cfi_def_cfa_offset 16
	.cfi_offset %rbp, -16
	movq	%rsp, %rbp
	.cfi_def_cfa_register %rbp
	subq	$16, %rsp
	vmovsd	%xmm0, -8(%rbp)
	callq	__ZN59_$LT$f64$u20$as$u20$core..num..dec2flt..rawfp..RawFloat$GT$8classify17hbe50a2f2fc4bae99E
	cmpb	$4, %al
	jne	LBB237_1
	vmovsd	-8(%rbp), %xmm0
	callq	__ZN59_$LT$f64$u20$as$u20$core..num..dec2flt..rawfp..RawFloat$GT$6unpack17h9ef847e1c20e4cbcE
	movabsq	$4503599627370496, %rcx
	cmpq	%rcx, %rax
	jne	LBB237_6
	decl	%edx
	movabsq	$9007199254740991, %rdi
	jmp	LBB237_9
LBB237_6:
	decq	%rax
	movq	%rax, %rdi
LBB237_9:
	movl	%edx, %esi
	callq	__ZN4core3num7dec2flt5rawfp8Unpacked3new17h03a37c5a6766a9f8E
	movl	%edx, %edi
	movabsq	$-4503599627370497, %rcx
	andq	%rax, %rcx
	addl	$1075, %edi
	shlq	$52, %rdi
	orq	%rcx, %rdi
	addq	$16, %rsp
	popq	%rbp
	jmp	__ZN59_$LT$f64$u20$as$u20$core..num..dec2flt..rawfp..RawFloat$GT$9from_bits17h457bbe6953ce3c02E
LBB237_1:
	movzbl	%al, %eax
	leaq	LJTI237_0(%rip), %rcx
	movslq	(%rcx,%rax,4), %rax
	addq	%rcx, %rax
	jmpq	*%rax
LBB237_3:
	leaq	l___unnamed_370(%rip), %rdi
	leaq	l___unnamed_371(%rip), %rdx
	movl	$27, %esi
	callq	__ZN4core9panicking5panic17h736ee47a631475c0E
LBB237_2:
	leaq	l___unnamed_372(%rip), %rdi
	leaq	l___unnamed_371(%rip), %rdx
	movl	$32, %esi
	callq	__ZN4core9panicking5panic17h736ee47a631475c0E
LBB237_5:
	leaq	l___unnamed_373(%rip), %rdi
	leaq	l___unnamed_371(%rip), %rdx
	movl	$28, %esi
	callq	__ZN4core9panicking5panic17h736ee47a631475c0E
LBB237_4:
	leaq	l___unnamed_374(%rip), %rdi
	leaq	l___unnamed_371(%rip), %rdx
	movl	$33, %esi
	callq	__ZN4core9panicking5panic17h736ee47a631475c0E
	.cfi_endproc
	.p2align	2, 0x90
	.data_region jt32
.set L237_0_set_3, LBB237_3-LJTI237_0
.set L237_0_set_2, LBB237_2-LJTI237_0
.set L237_0_set_5, LBB237_5-LJTI237_0
.set L237_0_set_4, LBB237_4-LJTI237_0
LJTI237_0:
	.long	L237_0_set_3
	.long	L237_0_set_2
	.long	L237_0_set_5
	.long	L237_0_set_4
	.end_data_region

	.p2align	4, 0x90
__ZN4core3num7dec2flt5rawfp13encode_normal28_$u7b$$u7b$closure$u7d$$u7d$17h5b1c49a52018f4f9E:
	.cfi_startproc
	pushq	%rbp
	.cfi_def_cfa_offset 16
	.cfi_offset %rbp, -16
	movq	%rsp, %rbp
	.cfi_def_cfa_register %rbp
	leaq	l___unnamed_375(%rip), %rdi
	leaq	l___unnamed_371(%rip), %rdx
	movl	$40, %esi
	callq	__ZN4core9panicking5panic17h736ee47a631475c0E
	.cfi_endproc

	.p2align	4, 0x90
__ZN4core3ops8function5FnMut8call_mut17h8d11decbbe7efd0dE:
Lfunc_begin1:
	.cfi_startproc
	.cfi_personality 155, _rust_eh_personality
	.cfi_lsda 16, Lexception1
	pushq	%rbp
	.cfi_def_cfa_offset 16
	.cfi_offset %rbp, -16
	movq	%rsp, %rbp
	.cfi_def_cfa_register %rbp
	pushq	%r15
	pushq	%r14
	pushq	%r13
	pushq	%r12
	pushq	%rbx
	subq	$280, %rsp
	.cfi_offset %rbx, -56
	.cfi_offset %r12, -48
	.cfi_offset %r13, -40
	.cfi_offset %r14, -32
	.cfi_offset %r15, -24
	movq	%rsi, %r15
	movq	%rdi, -144(%rbp)
	callq	__ZN3std6thread7current17hd901c0ead2f9a6c7E
	movq	%rax, -88(%rbp)
Ltmp9:
	leaq	-88(%rbp), %rdi
	callq	__ZN3std6thread6Thread2id17he4130b41e7b6a502E
Ltmp10:
	movq	%rax, %r14
	movq	(%r15), %rbx
	movq	-88(%rbp), %rax
	lock		decq	(%rax)
	jne	LBB239_3
	##MEMBARRIER
	leaq	-88(%rbp), %rdi
	callq	__ZN5alloc4sync12Arc$LT$T$GT$9drop_slow17h9a61f2890d270161E
LBB239_3:
	cmpq	%rbx, %r14
	jne	LBB239_7
	movl	8(%r15), %r13d
	jmp	LBB239_8
LBB239_7:
	callq	__ZN11proc_macro24Span9call_site17h3fa4f93ba68e9f8fE
	movl	%eax, %r13d
LBB239_8:
	callq	__ZN3std6thread7current17hd901c0ead2f9a6c7E
	movq	%rax, -88(%rbp)
Ltmp12:
	leaq	-88(%rbp), %rdi
	callq	__ZN3std6thread6Thread2id17he4130b41e7b6a502E
Ltmp13:
	movq	%rax, %r14
	movq	16(%r15), %rbx
	movq	-88(%rbp), %rax
	lock		decq	(%rax)
	jne	LBB239_11
	##MEMBARRIER
	leaq	-88(%rbp), %rdi
	callq	__ZN5alloc4sync12Arc$LT$T$GT$9drop_slow17h9a61f2890d270161E
LBB239_11:
	cmpq	%rbx, %r14
	jne	LBB239_13
	movl	24(%r15), %r12d
	jmp	LBB239_14
LBB239_13:
	callq	__ZN11proc_macro24Span9call_site17h3fa4f93ba68e9f8fE
	movl	%eax, %r12d
LBB239_14:
	movl	$144, %edi
	movl	$8, %esi
	callq	___rust_alloc
	testq	%rax, %rax
	je	LBB239_38
	movq	%rax, %r14
Ltmp15:
	leaq	l___unnamed_376(%rip), %rsi
	leaq	-88(%rbp), %rdi
	movl	$13, %edx
	movl	%r13d, %ecx
	callq	__ZN11proc_macro25Ident3new17hae55173cb9b6e9f3E
Ltmp16:
	movq	-56(%rbp), %rax
	movq	%rax, -152(%rbp)
	vmovups	-88(%rbp), %ymm0
	vmovups	%ymm0, -184(%rbp)
	movl	$1, -192(%rbp)
Ltmp18:
	leaq	-88(%rbp), %rdi
	movl	$33, %esi
	xorl	%edx, %edx
	vzeroupper
	callq	__ZN11proc_macro25Punct3new17h9b3a986a0d1d3bc7E
Ltmp19:
Ltmp20:
	leaq	-88(%rbp), %rdi
	movl	%r13d, %esi
	callq	__ZN11proc_macro25Punct8set_span17h679575e465d5f277E
Ltmp21:
	movl	-80(%rbp), %eax
	movq	-88(%rbp), %rcx
	movq	%rcx, -84(%rbp)
	movl	%eax, -76(%rbp)
	movl	$2, -88(%rbp)
	movl	$48, %edi
	movl	$8, %esi
	callq	___rust_alloc
	testq	%rax, %rax
	je	LBB239_39
	movq	%rax, %rbx
	movq	32(%r15), %rsi
	movq	48(%r15), %rdx
Ltmp23:
	leaq	-136(%rbp), %rdi
	callq	__ZN11proc_macro27Literal6string17h7d0f76cd44b98f00E
Ltmp24:
Ltmp26:
	leaq	-136(%rbp), %rdi
	movl	%r12d, %esi
	callq	__ZN11proc_macro27Literal8set_span17h56178df8b0ae3a24E
Ltmp27:
	vmovups	-136(%rbp), %ymm0
	vmovups	%ymm0, -132(%rbp)
	movl	$3, (%rbx)
	vmovups	-136(%rbp), %ymm0
	vmovups	%ymm0, 4(%rbx)
	movl	-104(%rbp), %eax
	movl	%eax, 36(%rbx)
	movq	%rbx, %rax
	addq	$48, %rax
	movq	%rbx, -232(%rbp)
	movq	$1, -224(%rbp)
	movq	%rbx, -216(%rbp)
	movq	%rax, -208(%rbp)
Ltmp29:
	leaq	-136(%rbp), %rdi
	leaq	-232(%rbp), %rsi
	vzeroupper
	callq	__ZN4core4iter6traits8iterator8Iterator7collect17h17d32081e71c385aE
Ltmp30:
Ltmp31:
	leaq	-232(%rbp), %rdi
	leaq	-136(%rbp), %rsi
	callq	__ZN11proc_macro211TokenStream4_new17h025fba17b1e918ccE
Ltmp32:
Ltmp33:
	leaq	-136(%rbp), %rdi
	leaq	-232(%rbp), %rdx
	movl	$1, %esi
	callq	__ZN11proc_macro25Group3new17h2fb958fcd7c9fbbdE
Ltmp34:
Ltmp36:
	leaq	-136(%rbp), %rdi
	movl	%r12d, %esi
	callq	__ZN11proc_macro25Group8set_span17hca16b9c264638f6dE
Ltmp37:
	movq	-104(%rbp), %rax
	vmovups	-136(%rbp), %ymm0
	vmovups	%ymm0, -132(%rbp)
	movq	%rax, -100(%rbp)
	vmovups	-192(%rbp), %ymm0
	vmovups	-176(%rbp), %ymm1
	vmovups	%ymm1, 16(%r14)
	vmovups	%ymm0, (%r14)
	vmovups	-88(%rbp), %ymm0
	vmovups	-72(%rbp), %ymm1
	vmovups	%ymm1, 64(%r14)
	vmovups	%ymm0, 48(%r14)
	movl	$0, 96(%r14)
	vmovups	-124(%rbp), %xmm0
	vmovups	%xmm0, 112(%r14)
	vmovups	-136(%rbp), %ymm0
	movq	-108(%rbp), %rax
	movq	%rax, 128(%r14)
	movq	-100(%rbp), %rax
	vmovups	%ymm0, 100(%r14)
	movq	%rax, 136(%r14)
	movq	%r14, %rax
	addq	$144, %rax
	movq	%r14, -192(%rbp)
	movq	$3, -184(%rbp)
	movq	%r14, -176(%rbp)
	movq	%rax, -168(%rbp)
	leaq	-88(%rbp), %rbx
	leaq	-192(%rbp), %rsi
	movq	%rbx, %rdi
	vzeroupper
	callq	__ZN4core4iter6traits8iterator8Iterator7collect17h17d32081e71c385aE
	movq	-144(%rbp), %rdi
	movq	%rbx, %rsi
	callq	__ZN11proc_macro211TokenStream4_new17h025fba17b1e918ccE
	addq	$280, %rsp
	popq	%rbx
	popq	%r12
	popq	%r13
	popq	%r14
	popq	%r15
	popq	%rbp
	retq
LBB239_38:
	movl	$144, %edi
	movl	$8, %esi
	callq	__ZN5alloc5alloc18handle_alloc_error17hbc0ab0ed90816c07E
LBB239_39:
	movl	$48, %edi
	movl	$8, %esi
	callq	__ZN5alloc5alloc18handle_alloc_error17hbc0ab0ed90816c07E
LBB239_36:
Ltmp38:
	movq	%rax, %r15
	leaq	-136(%rbp), %rdi
	callq	__ZN4core3ptr13drop_in_place17h6923956768c47649E
	jmp	LBB239_27
LBB239_35:
Ltmp28:
	movq	%rax, %r15
	leaq	-136(%rbp), %rdi
	callq	__ZN4core3ptr13drop_in_place17h8db0404f377c9ec3E
	jmp	LBB239_34
LBB239_33:
Ltmp25:
	movq	%rax, %r15
LBB239_34:
	movq	%rbx, %rdi
	callq	__ZN5alloc5alloc8box_free17h63de286707736333E
	jmp	LBB239_27
LBB239_31:
Ltmp17:
	movq	%rax, %r15
	jmp	LBB239_29
LBB239_37:
Ltmp14:
	jmp	LBB239_6
LBB239_5:
Ltmp11:
LBB239_6:
	movq	%rax, %r15
	leaq	-88(%rbp), %rdi
	callq	__ZN4core3ptr13drop_in_place17h53554afbedde6d19E
	movq	%r15, %rdi
	callq	__Unwind_Resume
	ud2
LBB239_32:
Ltmp22:
	movq	%rax, %r15
	jmp	LBB239_28
LBB239_26:
Ltmp35:
	movq	%rax, %r15
LBB239_27:
	leaq	-88(%rbp), %rdi
	callq	__ZN4core3ptr13drop_in_place17ha16c029356b6030dE
LBB239_28:
	leaq	-192(%rbp), %rdi
	callq	__ZN4core3ptr13drop_in_place17ha16c029356b6030dE
LBB239_29:
	movq	%r14, %rdi
	callq	__ZN5alloc5alloc8box_free17hb604334e46b93e97E
	movq	%r15, %rdi
	callq	__Unwind_Resume
	ud2
Lfunc_end1:
	.cfi_endproc
	.section	__TEXT,__gcc_except_tab
	.p2align	2
GCC_except_table239:
Lexception1:
	.byte	255
	.byte	255
	.byte	1
	.uleb128 Lcst_end1-Lcst_begin1
Lcst_begin1:
	.uleb128 Lfunc_begin1-Lfunc_begin1
	.uleb128 Ltmp9-Lfunc_begin1
	.byte	0
	.byte	0
	.uleb128 Ltmp9-Lfunc_begin1
	.uleb128 Ltmp10-Ltmp9
	.uleb128 Ltmp11-Lfunc_begin1
	.byte	0
	.uleb128 Ltmp10-Lfunc_begin1
	.uleb128 Ltmp12-Ltmp10
	.byte	0
	.byte	0
	.uleb128 Ltmp12-Lfunc_begin1
	.uleb128 Ltmp13-Ltmp12
	.uleb128 Ltmp14-Lfunc_begin1
	.byte	0
	.uleb128 Ltmp13-Lfunc_begin1
	.uleb128 Ltmp15-Ltmp13
	.byte	0
	.byte	0
	.uleb128 Ltmp15-Lfunc_begin1
	.uleb128 Ltmp16-Ltmp15
	.uleb128 Ltmp17-Lfunc_begin1
	.byte	0
	.uleb128 Ltmp18-Lfunc_begin1
	.uleb128 Ltmp21-Ltmp18
	.uleb128 Ltmp22-Lfunc_begin1
	.byte	0
	.uleb128 Ltmp23-Lfunc_begin1
	.uleb128 Ltmp24-Ltmp23
	.uleb128 Ltmp25-Lfunc_begin1
	.byte	0
	.uleb128 Ltmp26-Lfunc_begin1
	.uleb128 Ltmp27-Ltmp26
	.uleb128 Ltmp28-Lfunc_begin1
	.byte	0
	.uleb128 Ltmp29-Lfunc_begin1
	.uleb128 Ltmp34-Ltmp29
	.uleb128 Ltmp35-Lfunc_begin1
	.byte	0
	.uleb128 Ltmp36-Lfunc_begin1
	.uleb128 Ltmp37-Ltmp36
	.uleb128 Ltmp38-Lfunc_begin1
	.byte	0
	.uleb128 Ltmp37-Lfunc_begin1
	.uleb128 Lfunc_end1-Ltmp37
	.byte	0
	.byte	0
Lcst_end1:
	.p2align	2

	.section	__TEXT,__text,regular,pure_instructions
	.p2align	4, 0x90
__ZN4core3ptr13drop_in_place17h000fd739d36e4d47E:
	.cfi_startproc
	pushq	%rbp
	.cfi_def_cfa_offset 16
	.cfi_offset %rbp, -16
	movq	%rsp, %rbp
	.cfi_def_cfa_register %rbp
	movq	(%rdi), %rax
	movq	8(%rax), %rcx
	testq	%rcx, %rcx
	je	LBB240_2
	shlq	$4, %rcx
	leaq	(%rcx,%rcx,2), %rsi
	testq	%rsi, %rsi
	je	LBB240_2
	movq	(%rax), %rdi
	movl	$8, %edx
	popq	%rbp
	jmp	___rust_dealloc
LBB240_2:
	popq	%rbp
	retq
	.cfi_endproc

	.p2align	4, 0x90
__ZN4core3ptr13drop_in_place17h004dbca40ab496d8E:
	.cfi_startproc
	pushq	%rbp
	.cfi_def_cfa_offset 16
	.cfi_offset %rbp, -16
	movq	%rsp, %rbp
	.cfi_def_cfa_register %rbp
	testq	%rsi, %rsi
	je	LBB241_3
	testq	%rdi, %rdi
	je	LBB241_3
	imulq	$248, %rsi, %rsi
	testq	%rsi, %rsi
	je	LBB241_3
	movl	$8, %edx
	popq	%rbp
	jmp	___rust_dealloc
LBB241_3:
	popq	%rbp
	retq
	.cfi_endproc

	.p2align	4, 0x90
__ZN4core3ptr13drop_in_place17h00713cd84857f7b1E:
	.cfi_startproc
	pushq	%rbp
	.cfi_def_cfa_offset 16
	.cfi_offset %rbp, -16
	movq	%rsp, %rbp
	.cfi_def_cfa_register %rbp
	popq	%rbp
	retq
	.cfi_endproc

	.p2align	4, 0x90
__ZN4core3ptr13drop_in_place17h021e276c4b102530E:
	.cfi_startproc
	pushq	%rbp
	.cfi_def_cfa_offset 16
	.cfi_offset %rbp, -16
	movq	%rsp, %rbp
	.cfi_def_cfa_register %rbp
	popq	%rbp
	jmp	__ZN4core3ptr13drop_in_place17hf2766a8291be9869E
	.cfi_endproc

	.p2align	4, 0x90
__ZN4core3ptr13drop_in_place17h02b348f0bb986501E:
	.cfi_startproc
	pushq	%rbp
	.cfi_def_cfa_offset 16
	.cfi_offset %rbp, -16
	movq	%rsp, %rbp
	.cfi_def_cfa_register %rbp
	cmpq	$0, (%rdi)
	je	LBB244_1
	popq	%rbp
	jmp	__ZN4core3ptr13drop_in_place17hd00c4370be4cfd4cE
LBB244_1:
	popq	%rbp
	retq
	.cfi_endproc

	.p2align	4, 0x90
__ZN4core3ptr13drop_in_place17h03647d1ea868dce7E:
Lfunc_begin2:
	.cfi_startproc
	.cfi_personality 155, _rust_eh_personality
	.cfi_lsda 16, Lexception2
	pushq	%rbp
	.cfi_def_cfa_offset 16
	.cfi_offset %rbp, -16
	movq	%rsp, %rbp
	.cfi_def_cfa_register %rbp
	pushq	%r14
	pushq	%rbx
	.cfi_offset %rbx, -32
	.cfi_offset %r14, -24
	cmpl	$2, (%rdi)
	jne	LBB245_3
	movq	%rdi, %rbx
	movq	8(%rdi), %rdi
Ltmp39:
	callq	__ZN4core3ptr13drop_in_place17hf2766a8291be9869E
Ltmp40:
	movq	8(%rbx), %rdi
	movl	$48, %esi
	movl	$8, %edx
	popq	%rbx
	popq	%r14
	popq	%rbp
	jmp	___rust_dealloc
LBB245_3:
	popq	%rbx
	popq	%r14
	popq	%rbp
	retq
LBB245_4:
Ltmp41:
	movq	%rax, %r14
	movq	8(%rbx), %rdi
	callq	__ZN5alloc5alloc8box_free17h63de286707736333E
	movq	%r14, %rdi
	callq	__Unwind_Resume
	ud2
Lfunc_end2:
	.cfi_endproc
	.section	__TEXT,__gcc_except_tab
	.p2align	2
GCC_except_table245:
Lexception2:
	.byte	255
	.byte	255
	.byte	1
	.uleb128 Lcst_end2-Lcst_begin2
Lcst_begin2:
	.uleb128 Ltmp39-Lfunc_begin2
	.uleb128 Ltmp40-Ltmp39
	.uleb128 Ltmp41-Lfunc_begin2
	.byte	0
	.uleb128 Ltmp40-Lfunc_begin2
	.uleb128 Lfunc_end2-Ltmp40
	.byte	0
	.byte	0
Lcst_end2:
	.p2align	2

	.section	__TEXT,__text,regular,pure_instructions
	.p2align	4, 0x90
__ZN4core3ptr13drop_in_place17h0436a60f29a0c975E:
Lfunc_begin3:
	.cfi_startproc
	.cfi_personality 155, _rust_eh_personality
	.cfi_lsda 16, Lexception3
	pushq	%rbp
	.cfi_def_cfa_offset 16
	.cfi_offset %rbp, -16
	movq	%rsp, %rbp
	.cfi_def_cfa_register %rbp
	pushq	%r15
	pushq	%r14
	pushq	%rbx
	pushq	%rax
	.cfi_offset %rbx, -40
	.cfi_offset %r14, -32
	.cfi_offset %r15, -24
	movl	(%rdi), %eax
	cmpq	$14, %rax
	ja	LBB246_2
	movq	%rdi, %rbx
	leaq	LJTI246_0(%rip), %rcx
	movslq	(%rcx,%rax,4), %rax
	addq	%rcx, %rax
	jmpq	*%rax
LBB246_34:
	addq	$8, %rbx
	movq	%rbx, %rdi
	addq	$8, %rsp
	popq	%rbx
	popq	%r14
	popq	%r15
	popq	%rbp
	jmp	__ZN4core3ptr13drop_in_place17hacba80ccc317721bE
LBB246_3:
	movq	8(%rbx), %rdi
Ltmp69:
	callq	__ZN4core3ptr13drop_in_place17h0436a60f29a0c975E
Ltmp70:
	movq	8(%rbx), %rdi
	movl	$184, %esi
	movl	$8, %edx
	callq	___rust_dealloc
	addq	$16, %rbx
	movq	%rbx, %rdi
	addq	$8, %rsp
	popq	%rbx
	popq	%r14
	popq	%r15
	popq	%rbp
	jmp	__ZN4core3ptr13drop_in_place17hec0783851197bcc9E
LBB246_5:
	addq	$8, %rbx
	movq	%rbx, %rdi
	addq	$8, %rsp
	popq	%rbx
	popq	%r14
	popq	%r15
	popq	%rbp
	jmp	__ZN4core3ptr13drop_in_place17hdb23ab28b529eb5fE
LBB246_8:
	movq	8(%rbx), %rdi
Ltmp66:
	callq	__ZN4core3ptr13drop_in_place17h0436a60f29a0c975E
Ltmp67:
	jmp	LBB246_9
LBB246_2:
	addq	$8, %rsp
	popq	%rbx
	popq	%r14
	popq	%r15
	popq	%rbp
	retq
LBB246_11:
	leaq	8(%rbx), %rdi
Ltmp57:
	callq	__ZN4core3ptr13drop_in_place17hf2766a8291be9869E
Ltmp58:
	leaq	64(%rbx), %r15
	cmpq	$0, 56(%rbx)
	jne	LBB246_38
	addq	$88, %rbx
Ltmp60:
	movq	%rbx, %rdi
	callq	__ZN81_$LT$proc_macro..bridge..client..TokenStream$u20$as$u20$core..ops..drop..Drop$GT$4drop17h41a2e5513f89cb12E
Ltmp61:
	jmp	LBB246_14
LBB246_19:
	movq	8(%rbx), %rdi
Ltmp54:
	callq	__ZN4core3ptr13drop_in_place17h0436a60f29a0c975E
Ltmp55:
	jmp	LBB246_9
LBB246_20:
	cmpl	$2, 28(%rbx)
	je	LBB246_23
	movq	8(%rbx), %rdi
Ltmp51:
	callq	__ZN4core3ptr13drop_in_place17h0436a60f29a0c975E
Ltmp52:
	movq	8(%rbx), %rdi
	movl	$184, %esi
	movl	$8, %edx
	callq	___rust_dealloc
LBB246_23:
	addq	$40, %rbx
	movq	%rbx, %rdi
	addq	$8, %rsp
	popq	%rbx
	popq	%r14
	popq	%r15
	popq	%rbp
	jmp	__ZN4core3ptr13drop_in_place17hf2766a8291be9869E
LBB246_25:
	movq	8(%rbx), %rdi
Ltmp48:
	callq	__ZN4core3ptr13drop_in_place17h0436a60f29a0c975E
Ltmp49:
	jmp	LBB246_9
LBB246_26:
	movl	8(%rbx), %eax
	orl	$2, %eax
	cmpl	$2, %eax
	je	LBB246_30
	movq	16(%rbx), %rdi
	testq	%rdi, %rdi
	je	LBB246_30
	movq	24(%rbx), %rsi
	testq	%rsi, %rsi
	je	LBB246_30
	movl	$1, %edx
	callq	___rust_dealloc
LBB246_30:
	movq	56(%rbx), %rdi
Ltmp45:
	callq	__ZN4core3ptr13drop_in_place17h0436a60f29a0c975E
Ltmp46:
	movq	56(%rbx), %rdi
	jmp	LBB246_10
LBB246_33:
	movq	8(%rbx), %rdi
Ltmp42:
	callq	__ZN4core3ptr13drop_in_place17h0436a60f29a0c975E
Ltmp43:
LBB246_9:
	movq	8(%rbx), %rdi
LBB246_10:
	movl	$184, %esi
	movl	$8, %edx
	addq	$8, %rsp
	popq	%rbx
	popq	%r14
	popq	%r15
	popq	%rbp
	jmp	___rust_dealloc
LBB246_35:
	addq	$8, %rbx
	movq	%rbx, %rdi
	addq	$8, %rsp
	popq	%rbx
	popq	%r14
	popq	%r15
	popq	%rbp
	jmp	__ZN4core3ptr13drop_in_place17h5c2d8f3c38d17203E
LBB246_36:
	leaq	16(%rbx), %r15
	cmpq	$0, 8(%rbx)
	je	LBB246_37
LBB246_38:
	movq	%r15, %rdi
	addq	$8, %rsp
	popq	%rbx
	popq	%r14
	popq	%r15
	popq	%rbp
	jmp	__ZN4core3ptr13drop_in_place17he946f60d57428b55E
LBB246_37:
	addq	$40, %rbx
Ltmp63:
	movq	%rbx, %rdi
	callq	__ZN81_$LT$proc_macro..bridge..client..TokenStream$u20$as$u20$core..ops..drop..Drop$GT$4drop17h41a2e5513f89cb12E
Ltmp64:
LBB246_14:
	movq	%r15, %rdi
	addq	$8, %rsp
	popq	%rbx
	popq	%r14
	popq	%r15
	popq	%rbp
	jmp	__ZN4core3ptr13drop_in_place17h5a43c874a2088234E
LBB246_15:
Ltmp62:
	jmp	LBB246_16
LBB246_43:
Ltmp65:
LBB246_16:
	movq	%rax, %r14
	movq	%r15, %rdi
	callq	__ZN4core3ptr13drop_in_place17h5a43c874a2088234E
	movq	%r14, %rdi
	callq	__Unwind_Resume
	ud2
LBB246_41:
Ltmp53:
	movq	%rax, %r14
	movq	8(%rbx), %rdi
	callq	__ZN5alloc5alloc8box_free17h8c0c1694fbab9f32E
	addq	$40, %rbx
	movq	%rbx, %rdi
	callq	__ZN4core3ptr13drop_in_place17h021e276c4b102530E
	movq	%r14, %rdi
	callq	__Unwind_Resume
	ud2
LBB246_32:
Ltmp44:
	jmp	LBB246_7
LBB246_42:
Ltmp47:
	movq	%rax, %r14
	movq	56(%rbx), %rdi
	callq	__ZN5alloc5alloc8box_free17h8c0c1694fbab9f32E
	movq	%r14, %rdi
	callq	__Unwind_Resume
	ud2
LBB246_24:
Ltmp50:
	jmp	LBB246_7
LBB246_18:
Ltmp56:
	jmp	LBB246_7
LBB246_17:
Ltmp59:
	movq	%rax, %r14
	addq	$56, %rbx
	movq	%rbx, %rdi
	callq	__ZN4core3ptr13drop_in_place17h46c4bcee2899077aE
	movq	%r14, %rdi
	callq	__Unwind_Resume
	ud2
LBB246_6:
Ltmp68:
LBB246_7:
	movq	%rax, %r14
	movq	8(%rbx), %rdi
	callq	__ZN5alloc5alloc8box_free17h8c0c1694fbab9f32E
	movq	%r14, %rdi
	callq	__Unwind_Resume
	ud2
LBB246_39:
Ltmp71:
	movq	%rax, %r14
	movq	8(%rbx), %rdi
	callq	__ZN5alloc5alloc8box_free17h8c0c1694fbab9f32E
	addq	$16, %rbx
	movq	%rbx, %rdi
	callq	__ZN4core3ptr13drop_in_place17hec0783851197bcc9E
	movq	%r14, %rdi
	callq	__Unwind_Resume
	ud2
Lfunc_end3:
	.cfi_endproc
	.p2align	2, 0x90
	.data_region jt32
.set L246_0_set_3, LBB246_3-LJTI246_0
.set L246_0_set_5, LBB246_5-LJTI246_0
.set L246_0_set_8, LBB246_8-LJTI246_0
.set L246_0_set_34, LBB246_34-LJTI246_0
.set L246_0_set_2, LBB246_2-LJTI246_0
.set L246_0_set_11, LBB246_11-LJTI246_0
.set L246_0_set_19, LBB246_19-LJTI246_0
.set L246_0_set_20, LBB246_20-LJTI246_0
.set L246_0_set_25, LBB246_25-LJTI246_0
.set L246_0_set_26, LBB246_26-LJTI246_0
.set L246_0_set_33, LBB246_33-LJTI246_0
.set L246_0_set_35, LBB246_35-LJTI246_0
.set L246_0_set_36, LBB246_36-LJTI246_0
LJTI246_0:
	.long	L246_0_set_3
	.long	L246_0_set_5
	.long	L246_0_set_8
	.long	L246_0_set_34
	.long	L246_0_set_2
	.long	L246_0_set_11
	.long	L246_0_set_2
	.long	L246_0_set_19
	.long	L246_0_set_20
	.long	L246_0_set_25
	.long	L246_0_set_26
	.long	L246_0_set_33
	.long	L246_0_set_34
	.long	L246_0_set_35
	.long	L246_0_set_36
	.end_data_region
	.section	__TEXT,__gcc_except_tab
	.p2align	2
GCC_except_table246:
Lexception3:
	.byte	255
	.byte	255
	.byte	1
	.uleb128 Lcst_end3-Lcst_begin3
Lcst_begin3:
	.uleb128 Lfunc_begin3-Lfunc_begin3
	.uleb128 Ltmp69-Lfunc_begin3
	.byte	0
	.byte	0
	.uleb128 Ltmp69-Lfunc_begin3
	.uleb128 Ltmp70-Ltmp69
	.uleb128 Ltmp71-Lfunc_begin3
	.byte	0
	.uleb128 Ltmp70-Lfunc_begin3
	.uleb128 Ltmp66-Ltmp70
	.byte	0
	.byte	0
	.uleb128 Ltmp66-Lfunc_begin3
	.uleb128 Ltmp67-Ltmp66
	.uleb128 Ltmp68-Lfunc_begin3
	.byte	0
	.uleb128 Ltmp57-Lfunc_begin3
	.uleb128 Ltmp58-Ltmp57
	.uleb128 Ltmp59-Lfunc_begin3
	.byte	0
	.uleb128 Ltmp60-Lfunc_begin3
	.uleb128 Ltmp61-Ltmp60
	.uleb128 Ltmp62-Lfunc_begin3
	.byte	0
	.uleb128 Ltmp54-Lfunc_begin3
	.uleb128 Ltmp55-Ltmp54
	.uleb128 Ltmp56-Lfunc_begin3
	.byte	0
	.uleb128 Ltmp51-Lfunc_begin3
	.uleb128 Ltmp52-Ltmp51
	.uleb128 Ltmp53-Lfunc_begin3
	.byte	0
	.uleb128 Ltmp52-Lfunc_begin3
	.uleb128 Ltmp48-Ltmp52
	.byte	0
	.byte	0
	.uleb128 Ltmp48-Lfunc_begin3
	.uleb128 Ltmp49-Ltmp48
	.uleb128 Ltmp50-Lfunc_begin3
	.byte	0
	.uleb128 Ltmp45-Lfunc_begin3
	.uleb128 Ltmp46-Ltmp45
	.uleb128 Ltmp47-Lfunc_begin3
	.byte	0
	.uleb128 Ltmp42-Lfunc_begin3
	.uleb128 Ltmp43-Ltmp42
	.uleb128 Ltmp44-Lfunc_begin3
	.byte	0
	.uleb128 Ltmp43-Lfunc_begin3
	.uleb128 Ltmp63-Ltmp43
	.byte	0
	.byte	0
	.uleb128 Ltmp63-Lfunc_begin3
	.uleb128 Ltmp64-Ltmp63
	.uleb128 Ltmp65-Lfunc_begin3
	.byte	0
	.uleb128 Ltmp64-Lfunc_begin3
	.uleb128 Lfunc_end3-Ltmp64
	.byte	0
	.byte	0
Lcst_end3:
	.p2align	2

	.section	__TEXT,__text,regular,pure_instructions
	.p2align	4, 0x90
__ZN4core3ptr13drop_in_place17h048c13fda71c8a20E:
	.cfi_startproc
	pushq	%rbp
	.cfi_def_cfa_offset 16
	.cfi_offset %rbp, -16
	movq	%rsp, %rbp
	.cfi_def_cfa_register %rbp
	cmpq	$0, (%rdi)
	je	LBB247_2
	cmpq	$0, 8(%rdi)
	je	LBB247_2
	addq	$8, %rdi
	popq	%rbp
	jmp	__ZN4core3ptr13drop_in_place17hde6c1bb077e3ddc7E
LBB247_2:
	popq	%rbp
	retq
	.cfi_endproc

	.p2align	4, 0x90
__ZN4core3ptr13drop_in_place17h05170f28315b018fE:
Lfunc_begin4:
	.cfi_startproc
	.cfi_personality 155, _rust_eh_personality
	.cfi_lsda 16, Lexception4
	pushq	%rbp
	.cfi_def_cfa_offset 16
	.cfi_offset %rbp, -16
	movq	%rsp, %rbp
	.cfi_def_cfa_register %rbp
	pushq	%r15
	pushq	%r14
	pushq	%r12
	pushq	%rbx
	.cfi_offset %rbx, -48
	.cfi_offset %r12, -40
	.cfi_offset %r14, -32
	.cfi_offset %r15, -24
	movq	%rdi, %r14
	movq	(%rdi), %r12
	movq	8(%rdi), %rbx
	shlq	$6, %rbx
	.p2align	4, 0x90
LBB248_4:
	testq	%rbx, %rbx
	je	LBB248_5
	addq	$-64, %rbx
Ltmp72:
	movq	%r12, %rdi
	addq	$64, %r12
	callq	__ZN4core3ptr13drop_in_place17hce649fb8f592e422E
Ltmp73:
	jmp	LBB248_4
LBB248_5:
	movq	8(%r14), %rsi
	shlq	$6, %rsi
	je	LBB248_6
	movq	(%r14), %rdi
	movl	$8, %edx
	popq	%rbx
	popq	%r12
	popq	%r14
	popq	%r15
	popq	%rbp
	jmp	___rust_dealloc
LBB248_6:
	popq	%rbx
	popq	%r12
	popq	%r14
	popq	%r15
	popq	%rbp
	retq
LBB248_9:
Ltmp74:
	movq	%rax, %r15
	.p2align	4, 0x90
LBB248_2:
	testq	%rbx, %rbx
	je	LBB248_8
	addq	$-64, %rbx
Ltmp75:
	movq	%r12, %rdi
	addq	$64, %r12
	callq	__ZN4core3ptr13drop_in_place17hce649fb8f592e422E
Ltmp76:
	jmp	LBB248_2
LBB248_7:
Ltmp77:
	movq	%rax, %r15
LBB248_8:
	movq	(%r14), %rdi
	movq	8(%r14), %rsi
	callq	__ZN5alloc5alloc8box_free17hb1fe58329af2a5d7E
	movq	%r15, %rdi
	callq	__Unwind_Resume
	ud2
Lfunc_end4:
	.cfi_endproc
	.section	__TEXT,__gcc_except_tab
	.p2align	2
GCC_except_table248:
Lexception4:
	.byte	255
	.byte	255
	.byte	1
	.uleb128 Lcst_end4-Lcst_begin4
Lcst_begin4:
	.uleb128 Ltmp72-Lfunc_begin4
	.uleb128 Ltmp73-Ltmp72
	.uleb128 Ltmp74-Lfunc_begin4
	.byte	0
	.uleb128 Ltmp75-Lfunc_begin4
	.uleb128 Ltmp76-Ltmp75
	.uleb128 Ltmp77-Lfunc_begin4
	.byte	0
	.uleb128 Ltmp76-Lfunc_begin4
	.uleb128 Lfunc_end4-Ltmp76
	.byte	0
	.byte	0
Lcst_end4:
	.p2align	2

	.section	__TEXT,__text,regular,pure_instructions
	.p2align	4, 0x90
__ZN4core3ptr13drop_in_place17h0543ce4f37e3b549E:
	.cfi_startproc
	pushq	%rbp
	.cfi_def_cfa_offset 16
	.cfi_offset %rbp, -16
	movq	%rsp, %rbp
	.cfi_def_cfa_register %rbp
	decq	(%rdi)
	popq	%rbp
	retq
	.cfi_endproc

	.p2align	4, 0x90
__ZN4core3ptr13drop_in_place17h0601a67d97aecce9E:
	.cfi_startproc
	pushq	%rbp
	.cfi_def_cfa_offset 16
	.cfi_offset %rbp, -16
	movq	%rsp, %rbp
	.cfi_def_cfa_register %rbp
	cmpl	$0, (%rdi)
	je	LBB250_3
	movq	%rdi, %rax
	movq	8(%rdi), %rdi
	testq	%rdi, %rdi
	je	LBB250_3
	movq	16(%rax), %rsi
	testq	%rsi, %rsi
	je	LBB250_3
	movl	$1, %edx
	popq	%rbp
	jmp	___rust_dealloc
LBB250_3:
	popq	%rbp
	retq
	.cfi_endproc

	.p2align	4, 0x90
__ZN4core3ptr13drop_in_place17h065993a685549127E:
	.cfi_startproc
	pushq	%rbp
	.cfi_def_cfa_offset 16
	.cfi_offset %rbp, -16
	movq	%rsp, %rbp
	.cfi_def_cfa_register %rbp
	testq	%rsi, %rsi
	je	LBB251_3
	testq	%rdi, %rdi
	je	LBB251_3
	imulq	$392, %rsi, %rsi
	testq	%rsi, %rsi
	je	LBB251_3
	movl	$8, %edx
	popq	%rbp
	jmp	___rust_dealloc
LBB251_3:
	popq	%rbp
	retq
	.cfi_endproc

	.p2align	4, 0x90
__ZN4core3ptr13drop_in_place17h072a1ecd3ff26c26E:
	.cfi_startproc
	pushq	%rbp
	.cfi_def_cfa_offset 16
	.cfi_offset %rbp, -16
	movq	%rsp, %rbp
	.cfi_def_cfa_register %rbp
	popq	%rbp
	jmp	__ZN4core3ptr13drop_in_place17hacba80ccc317721bE
	.cfi_endproc

	.p2align	4, 0x90
__ZN4core3ptr13drop_in_place17h074804b91e724f90E:
Lfunc_begin5:
	.cfi_startproc
	.cfi_personality 155, _rust_eh_personality
	.cfi_lsda 16, Lexception5
	pushq	%rbp
	.cfi_def_cfa_offset 16
	.cfi_offset %rbp, -16
	movq	%rsp, %rbp
	.cfi_def_cfa_register %rbp
	pushq	%r15
	pushq	%r14
	pushq	%rbx
	pushq	%rax
	.cfi_offset %rbx, -40
	.cfi_offset %r14, -32
	.cfi_offset %r15, -24
	movq	(%rdi), %rbx
	testq	%rbx, %rbx
	je	LBB253_13
	movq	%rdi, %r14
	leaq	8(%rbx), %rdi
	cmpq	$0, (%rbx)
	je	LBB253_2
	cmpl	$0, (%rdi)
	je	LBB253_10
	movq	16(%rbx), %rdi
	testq	%rdi, %rdi
	je	LBB253_10
	movq	24(%rbx), %rsi
	testq	%rsi, %rsi
	je	LBB253_10
	movl	$1, %edx
	callq	___rust_dealloc
	jmp	LBB253_10
LBB253_13:
	addq	$8, %rsp
	popq	%rbx
	popq	%r14
	popq	%r15
	popq	%rbp
	retq
LBB253_2:
	cmpq	$0, (%rdi)
	je	LBB253_4
Ltmp78:
	callq	__ZN4core3ptr13drop_in_place17h9ddbae0a5d77d59bE
Ltmp79:
LBB253_4:
	addq	$56, %rbx
Ltmp83:
	movq	%rbx, %rdi
	callq	__ZN4core3ptr13drop_in_place17hf2766a8291be9869E
Ltmp84:
LBB253_10:
	movq	(%r14), %rdi
	movl	$120, %esi
	movl	$8, %edx
	addq	$8, %rsp
	popq	%rbx
	popq	%r14
	popq	%r15
	popq	%rbp
	jmp	___rust_dealloc
LBB253_5:
Ltmp80:
	movq	%rax, %r15
	addq	$56, %rbx
Ltmp81:
	movq	%rbx, %rdi
	callq	__ZN4core3ptr13drop_in_place17h021e276c4b102530E
Ltmp82:
	jmp	LBB253_12
LBB253_11:
Ltmp85:
	movq	%rax, %r15
LBB253_12:
	movq	(%r14), %rdi
	callq	__ZN5alloc5alloc8box_free17hcc64bbcedc35390bE
	movq	%r15, %rdi
	callq	__Unwind_Resume
	ud2
Lfunc_end5:
	.cfi_endproc
	.section	__TEXT,__gcc_except_tab
	.p2align	2
GCC_except_table253:
Lexception5:
	.byte	255
	.byte	255
	.byte	1
	.uleb128 Lcst_end5-Lcst_begin5
Lcst_begin5:
	.uleb128 Ltmp78-Lfunc_begin5
	.uleb128 Ltmp79-Ltmp78
	.uleb128 Ltmp80-Lfunc_begin5
	.byte	0
	.uleb128 Ltmp83-Lfunc_begin5
	.uleb128 Ltmp82-Ltmp83
	.uleb128 Ltmp85-Lfunc_begin5
	.byte	0
	.uleb128 Ltmp82-Lfunc_begin5
	.uleb128 Lfunc_end5-Ltmp82
	.byte	0
	.byte	0
Lcst_end5:
	.p2align	2

	.section	__TEXT,__text,regular,pure_instructions
	.p2align	4, 0x90
__ZN4core3ptr13drop_in_place17h08763f40837c875fE:
Lfunc_begin6:
	.cfi_startproc
	.cfi_personality 155, _rust_eh_personality
	.cfi_lsda 16, Lexception6
	pushq	%rbp
	.cfi_def_cfa_offset 16
	.cfi_offset %rbp, -16
	movq	%rsp, %rbp
	.cfi_def_cfa_register %rbp
	pushq	%r15
	pushq	%r14
	pushq	%r12
	pushq	%rbx
	.cfi_offset %rbx, -48
	.cfi_offset %r12, -40
	.cfi_offset %r14, -32
	.cfi_offset %r15, -24
	movq	%rdi, %r14
	movq	(%rdi), %rbx
	imulq	$184, 16(%rdi), %r12
	.p2align	4, 0x90
LBB254_5:
	testq	%r12, %r12
	je	LBB254_6
	addq	$-184, %r12
Ltmp86:
	movq	%rbx, %rdi
	addq	$184, %rbx
	callq	__ZN4core3ptr13drop_in_place17h0436a60f29a0c975E
Ltmp87:
	jmp	LBB254_5
LBB254_6:
	movq	8(%r14), %rax
	testq	%rax, %rax
	je	LBB254_9
	movq	(%r14), %rdi
	testq	%rdi, %rdi
	je	LBB254_9
	imulq	$184, %rax, %rsi
	testq	%rsi, %rsi
	je	LBB254_9
	movl	$8, %edx
	popq	%rbx
	popq	%r12
	popq	%r14
	popq	%r15
	popq	%rbp
	jmp	___rust_dealloc
LBB254_9:
	popq	%rbx
	popq	%r12
	popq	%r14
	popq	%r15
	popq	%rbp
	retq
LBB254_1:
Ltmp88:
	movq	%rax, %r15
	testq	%r12, %r12
	je	LBB254_11
	.p2align	4, 0x90
LBB254_2:
Ltmp89:
	movq	%rbx, %rdi
	callq	__ZN4core3ptr13drop_in_place17h0436a60f29a0c975E
Ltmp90:
	addq	$184, %rbx
	addq	$-184, %r12
	jne	LBB254_2
	jmp	LBB254_11
LBB254_10:
Ltmp91:
	movq	%rax, %r15
LBB254_11:
	movq	(%r14), %rdi
	movq	8(%r14), %rsi
	callq	__ZN4core3ptr13drop_in_place17heb639fa61e373205E
	movq	%r15, %rdi
	callq	__Unwind_Resume
	ud2
Lfunc_end6:
	.cfi_endproc
	.section	__TEXT,__gcc_except_tab
	.p2align	2
GCC_except_table254:
Lexception6:
	.byte	255
	.byte	255
	.byte	1
	.uleb128 Lcst_end6-Lcst_begin6
Lcst_begin6:
	.uleb128 Ltmp86-Lfunc_begin6
	.uleb128 Ltmp87-Ltmp86
	.uleb128 Ltmp88-Lfunc_begin6
	.byte	0
	.uleb128 Ltmp89-Lfunc_begin6
	.uleb128 Ltmp90-Ltmp89
	.uleb128 Ltmp91-Lfunc_begin6
	.byte	0
	.uleb128 Ltmp90-Lfunc_begin6
	.uleb128 Lfunc_end6-Ltmp90
	.byte	0
	.byte	0
Lcst_end6:
	.p2align	2

	.section	__TEXT,__text,regular,pure_instructions
	.p2align	4, 0x90
__ZN4core3ptr13drop_in_place17h0c5b8e7f7cf8135dE:
	.cfi_startproc
	pushq	%rbp
	.cfi_def_cfa_offset 16
	.cfi_offset %rbp, -16
	movq	%rsp, %rbp
	.cfi_def_cfa_register %rbp
	movl	(%rdi), %ecx
	orl	$2, %ecx
	cmpl	$2, %ecx
	jne	LBB255_1
LBB255_3:
	popq	%rbp
	retq
LBB255_1:
	movq	%rdi, %rax
	movq	8(%rdi), %rdi
	testq	%rdi, %rdi
	je	LBB255_3
	movq	16(%rax), %rsi
	testq	%rsi, %rsi
	je	LBB255_3
	movl	$1, %edx
	popq	%rbp
	jmp	___rust_dealloc
	.cfi_endproc

	.p2align	4, 0x90
__ZN4core3ptr13drop_in_place17h0cb0385d0294f794E:
	.cfi_startproc
	pushq	%rbp
	.cfi_def_cfa_offset 16
	.cfi_offset %rbp, -16
	movq	%rsp, %rbp
	.cfi_def_cfa_register %rbp
	testq	%rsi, %rsi
	je	LBB256_3
	testq	%rdi, %rdi
	je	LBB256_3
	imulq	$120, %rsi, %rsi
	testq	%rsi, %rsi
	je	LBB256_3
	movl	$8, %edx
	popq	%rbp
	jmp	___rust_dealloc
LBB256_3:
	popq	%rbp
	retq
	.cfi_endproc

	.p2align	4, 0x90
__ZN4core3ptr13drop_in_place17h0f34529aafd4d517E:
	.cfi_startproc
	pushq	%rbp
	.cfi_def_cfa_offset 16
	.cfi_offset %rbp, -16
	movq	%rsp, %rbp
	.cfi_def_cfa_register %rbp
	movq	32(%rdi), %rsi
	testq	%rsi, %rsi
	je	LBB257_3
	movq	24(%rdi), %rdi
	testq	%rdi, %rdi
	je	LBB257_3
	shlq	$4, %rsi
	je	LBB257_3
	movl	$8, %edx
	popq	%rbp
	jmp	___rust_dealloc
LBB257_3:
	popq	%rbp
	retq
	.cfi_endproc

	.p2align	4, 0x90
__ZN4core3ptr13drop_in_place17h11251846b5c9a887E:
	.cfi_startproc
	pushq	%rbp
	.cfi_def_cfa_offset 16
	.cfi_offset %rbp, -16
	movq	%rsp, %rbp
	.cfi_def_cfa_register %rbp
	movq	%rdi, %rax
	movq	(%rdi), %rdi
	testq	%rdi, %rdi
	je	LBB258_2
	movq	8(%rax), %rsi
	testq	%rsi, %rsi
	je	LBB258_2
	movl	$1, %edx
	popq	%rbp
	jmp	___rust_dealloc
LBB258_2:
	popq	%rbp
	retq
	.cfi_endproc

	.p2align	4, 0x90
__ZN4core3ptr13drop_in_place17h14b45df699898c78E:
Lfunc_begin7:
	.cfi_startproc
	.cfi_personality 155, _rust_eh_personality
	.cfi_lsda 16, Lexception7
	pushq	%rbp
	.cfi_def_cfa_offset 16
	.cfi_offset %rbp, -16
	movq	%rsp, %rbp
	.cfi_def_cfa_register %rbp
	pushq	%r14
	pushq	%rbx
	.cfi_offset %rbx, -32
	.cfi_offset %r14, -24
	movq	%rdi, %rbx
	movq	(%rdi), %rax
	cmpq	$1, %rax
	je	LBB259_9
	testq	%rax, %rax
	jne	LBB259_14
	cmpq	$0, 8(%rbx)
	je	LBB259_4
	leaq	8(%rbx), %rdi
Ltmp92:
	callq	__ZN4core3ptr13drop_in_place17h9ddbae0a5d77d59bE
Ltmp93:
LBB259_4:
	leaq	56(%rbx), %rdi
Ltmp95:
	callq	__ZN4core3ptr13drop_in_place17h0436a60f29a0c975E
Ltmp96:
	addq	$240, %rbx
	movq	%rbx, %rdi
	popq	%rbx
	popq	%r14
	popq	%rbp
	jmp	__ZN4core3ptr13drop_in_place17hacba80ccc317721bE
LBB259_9:
	cmpl	$0, 8(%rbx)
	je	LBB259_13
	movq	16(%rbx), %rdi
	testq	%rdi, %rdi
	je	LBB259_13
	movq	24(%rbx), %rsi
	testq	%rsi, %rsi
	je	LBB259_13
	movl	$1, %edx
	callq	___rust_dealloc
LBB259_13:
	addq	$56, %rbx
	movq	%rbx, %rdi
	popq	%rbx
	popq	%r14
	popq	%rbp
	jmp	__ZN4core3ptr13drop_in_place17h192b648e32ba3c8fE
LBB259_14:
	leaq	8(%rbx), %rdi
Ltmp98:
	callq	__ZN4core3ptr13drop_in_place17h0436a60f29a0c975E
Ltmp99:
	addq	$192, %rbx
	movq	%rbx, %rdi
	popq	%rbx
	popq	%r14
	popq	%rbp
	jmp	__ZN4core3ptr13drop_in_place17h0436a60f29a0c975E
LBB259_6:
Ltmp94:
	movq	%rax, %r14
	leaq	56(%rbx), %rdi
	callq	__ZN4core3ptr13drop_in_place17h0436a60f29a0c975E
	jmp	LBB259_7
LBB259_16:
Ltmp100:
	movq	%rax, %r14
	addq	$192, %rbx
	movq	%rbx, %rdi
	callq	__ZN4core3ptr13drop_in_place17h0436a60f29a0c975E
	movq	%r14, %rdi
	callq	__Unwind_Resume
	ud2
LBB259_8:
Ltmp97:
	movq	%rax, %r14
LBB259_7:
	addq	$240, %rbx
	movq	%rbx, %rdi
	callq	__ZN4core3ptr13drop_in_place17hacba80ccc317721bE
	movq	%r14, %rdi
	callq	__Unwind_Resume
	ud2
Lfunc_end7:
	.cfi_endproc
	.section	__TEXT,__gcc_except_tab
	.p2align	2
GCC_except_table259:
Lexception7:
	.byte	255
	.byte	255
	.byte	1
	.uleb128 Lcst_end7-Lcst_begin7
Lcst_begin7:
	.uleb128 Ltmp92-Lfunc_begin7
	.uleb128 Ltmp93-Ltmp92
	.uleb128 Ltmp94-Lfunc_begin7
	.byte	0
	.uleb128 Ltmp95-Lfunc_begin7
	.uleb128 Ltmp96-Ltmp95
	.uleb128 Ltmp97-Lfunc_begin7
	.byte	0
	.uleb128 Ltmp96-Lfunc_begin7
	.uleb128 Ltmp98-Ltmp96
	.byte	0
	.byte	0
	.uleb128 Ltmp98-Lfunc_begin7
	.uleb128 Ltmp99-Ltmp98
	.uleb128 Ltmp100-Lfunc_begin7
	.byte	0
	.uleb128 Ltmp99-Lfunc_begin7
	.uleb128 Lfunc_end7-Ltmp99
	.byte	0
	.byte	0
Lcst_end7:
	.p2align	2

	.section	__TEXT,__text,regular,pure_instructions
	.p2align	4, 0x90
__ZN4core3ptr13drop_in_place17h15c82bc18b81aaf2E:
Lfunc_begin8:
	.cfi_startproc
	.cfi_personality 155, _rust_eh_personality
	.cfi_lsda 16, Lexception8
	pushq	%rbp
	.cfi_def_cfa_offset 16
	.cfi_offset %rbp, -16
	movq	%rsp, %rbp
	.cfi_def_cfa_register %rbp
	pushq	%r14
	pushq	%rbx
	.cfi_offset %rbx, -32
	.cfi_offset %r14, -24
	movq	%rdi, %rbx
Ltmp101:
	callq	__ZN4core3ptr13drop_in_place17h671a96e1441c83b7E
Ltmp102:
	addq	$32, %rbx
	movq	%rbx, %rdi
	popq	%rbx
	popq	%r14
	popq	%rbp
	jmp	__ZN4core3ptr13drop_in_place17h671a96e1441c83b7E
LBB260_2:
Ltmp103:
	movq	%rax, %r14
	addq	$32, %rbx
	movq	%rbx, %rdi
	callq	__ZN4core3ptr13drop_in_place17h671a96e1441c83b7E
	movq	%r14, %rdi
	callq	__Unwind_Resume
	ud2
Lfunc_end8:
	.cfi_endproc
	.section	__TEXT,__gcc_except_tab
	.p2align	2
GCC_except_table260:
Lexception8:
	.byte	255
	.byte	255
	.byte	1
	.uleb128 Lcst_end8-Lcst_begin8
Lcst_begin8:
	.uleb128 Ltmp101-Lfunc_begin8
	.uleb128 Ltmp102-Ltmp101
	.uleb128 Ltmp103-Lfunc_begin8
	.byte	0
	.uleb128 Ltmp102-Lfunc_begin8
	.uleb128 Lfunc_end8-Ltmp102
	.byte	0
	.byte	0
Lcst_end8:
	.p2align	2

	.section	__TEXT,__text,regular,pure_instructions
	.p2align	4, 0x90
__ZN4core3ptr13drop_in_place17h17e6c48674ba3d6fE:
Lfunc_begin9:
	.cfi_startproc
	.cfi_personality 155, _rust_eh_personality
	.cfi_lsda 16, Lexception9
	pushq	%rbp
	.cfi_def_cfa_offset 16
	.cfi_offset %rbp, -16
	movq	%rsp, %rbp
	.cfi_def_cfa_register %rbp
	pushq	%r15
	pushq	%r14
	pushq	%r12
	pushq	%rbx
	subq	$16, %rsp
	.cfi_offset %rbx, -48
	.cfi_offset %r12, -40
	.cfi_offset %r14, -32
	.cfi_offset %r15, -24
	movq	%rdi, %r14
	movq	%rdi, -40(%rbp)
	movq	16(%rdi), %r12
	movq	24(%rdi), %rax
	subq	%r12, %rax
	je	LBB261_8
	sarq	$4, %rax
	movabsq	$-6148914691236517205, %rcx
	imulq	%rax, %rcx
	shlq	$4, %rcx
	leaq	(%rcx,%rcx,2), %r15
	xorl	%ebx, %ebx
	cmpl	$0, 8(%r12,%rbx)
	jne	LBB261_6
	.p2align	4, 0x90
LBB261_3:
	leaq	(%r12,%rbx), %rdi
	addq	$12, %rdi
Ltmp106:
	callq	__ZN75_$LT$proc_macro..bridge..client..Group$u20$as$u20$core..ops..drop..Drop$GT$4drop17he3c88ef672dde681E
Ltmp107:
LBB261_7:
	addq	$48, %rbx
	cmpq	%rbx, %r15
	je	LBB261_8
	cmpl	$0, 8(%r12,%rbx)
	je	LBB261_3
LBB261_6:
	leaq	(%r12,%rbx), %rdi
	addq	$16, %rdi
Ltmp104:
	callq	__ZN4core3ptr13drop_in_place17he946f60d57428b55E
Ltmp105:
	jmp	LBB261_7
LBB261_8:
	movq	8(%r14), %rax
	testq	%rax, %rax
	je	LBB261_11
	shlq	$4, %rax
	leaq	(%rax,%rax,2), %rsi
	testq	%rsi, %rsi
	je	LBB261_11
	movq	(%r14), %rdi
	movl	$8, %edx
	callq	___rust_dealloc
LBB261_11:
	addq	$16, %rsp
	popq	%rbx
	popq	%r12
	popq	%r14
	popq	%r15
	popq	%rbp
	retq
LBB261_12:
Ltmp108:
	movq	%rax, %r14
	leaq	-48(%r15), %rax
	cmpq	%rbx, %rax
	je	LBB261_15
	subq	%rbx, %r15
	addq	$-48, %r15
	addq	%r12, %rbx
	addq	$48, %rbx
	.p2align	4, 0x90
LBB261_4:
Ltmp109:
	movq	%rbx, %rdi
	callq	__ZN4core3ptr13drop_in_place17h82470506499a3d89E
Ltmp110:
	addq	$48, %rbx
	addq	$-48, %r15
	jne	LBB261_4
	jmp	LBB261_15
LBB261_14:
Ltmp111:
	movq	%rax, %r14
LBB261_15:
	leaq	-40(%rbp), %rdi
	callq	__ZN4core3ptr13drop_in_place17h000fd739d36e4d47E
	movq	%r14, %rdi
	callq	__Unwind_Resume
	ud2
Lfunc_end9:
	.cfi_endproc
	.section	__TEXT,__gcc_except_tab
	.p2align	2
GCC_except_table261:
Lexception9:
	.byte	255
	.byte	255
	.byte	1
	.uleb128 Lcst_end9-Lcst_begin9
Lcst_begin9:
	.uleb128 Ltmp106-Lfunc_begin9
	.uleb128 Ltmp105-Ltmp106
	.uleb128 Ltmp108-Lfunc_begin9
	.byte	0
	.uleb128 Ltmp109-Lfunc_begin9
	.uleb128 Ltmp110-Ltmp109
	.uleb128 Ltmp111-Lfunc_begin9
	.byte	0
	.uleb128 Ltmp110-Lfunc_begin9
	.uleb128 Lfunc_end9-Ltmp110
	.byte	0
	.byte	0
Lcst_end9:
	.p2align	2

	.section	__TEXT,__text,regular,pure_instructions
	.p2align	4, 0x90
__ZN4core3ptr13drop_in_place17h192b648e32ba3c8fE:
	.cfi_startproc
	pushq	%rbp
	.cfi_def_cfa_offset 16
	.cfi_offset %rbp, -16
	movq	%rsp, %rbp
	.cfi_def_cfa_register %rbp
	pushq	%r15
	pushq	%r14
	pushq	%r12
	pushq	%rbx
	.cfi_offset %rbx, -48
	.cfi_offset %r12, -40
	.cfi_offset %r14, -32
	.cfi_offset %r15, -24
	movq	%rdi, %r14
	movq	(%rdi), %r12
	movq	16(%rdi), %rax
	testq	%rax, %rax
	je	LBB262_8
	imulq	$56, %rax, %r15
	xorl	%ebx, %ebx
	cmpl	$0, (%r12,%rbx)
	jne	LBB262_3
	.p2align	4, 0x90
LBB262_6:
	addq	$56, %rbx
	cmpq	%rbx, %r15
	je	LBB262_7
LBB262_2:
	cmpl	$0, (%r12,%rbx)
	je	LBB262_6
LBB262_3:
	movq	8(%r12,%rbx), %rdi
	testq	%rdi, %rdi
	je	LBB262_6
	movq	16(%r12,%rbx), %rsi
	testq	%rsi, %rsi
	je	LBB262_6
	movl	$1, %edx
	callq	___rust_dealloc
	addq	$56, %rbx
	cmpq	%rbx, %r15
	jne	LBB262_2
LBB262_7:
	movq	(%r14), %r12
LBB262_8:
	movq	8(%r14), %rax
	testq	%rax, %rax
	je	LBB262_12
	testq	%r12, %r12
	je	LBB262_12
	imulq	$56, %rax, %rsi
	testq	%rsi, %rsi
	je	LBB262_12
	movl	$8, %edx
	movq	%r12, %rdi
	callq	___rust_dealloc
LBB262_12:
	movq	24(%r14), %rdi
	testq	%rdi, %rdi
	je	LBB262_18
	cmpl	$0, (%rdi)
	je	LBB262_17
	movq	8(%rdi), %rax
	testq	%rax, %rax
	je	LBB262_17
	movq	16(%rdi), %rsi
	testq	%rsi, %rsi
	je	LBB262_17
	movl	$1, %edx
	movq	%rax, %rdi
	callq	___rust_dealloc
	movq	24(%r14), %rdi
LBB262_17:
	movl	$48, %esi
	movl	$8, %edx
	popq	%rbx
	popq	%r12
	popq	%r14
	popq	%r15
	popq	%rbp
	jmp	___rust_dealloc
LBB262_18:
	popq	%rbx
	popq	%r12
	popq	%r14
	popq	%r15
	popq	%rbp
	retq
	.cfi_endproc

	.p2align	4, 0x90
__ZN4core3ptr13drop_in_place17h1bf8237465f8160eE:
Lfunc_begin10:
	.cfi_startproc
	.cfi_personality 155, _rust_eh_personality
	.cfi_lsda 16, Lexception10
	pushq	%rbp
	.cfi_def_cfa_offset 16
	.cfi_offset %rbp, -16
	movq	%rsp, %rbp
	.cfi_def_cfa_register %rbp
	pushq	%r15
	pushq	%r14
	pushq	%r12
	pushq	%rbx
	.cfi_offset %rbx, -48
	.cfi_offset %r12, -40
	.cfi_offset %r14, -32
	.cfi_offset %r15, -24
	testq	%rsi, %rsi
	je	LBB263_14
	movq	%rdi, %r12
	imulq	$120, %rsi, %r15
	xorl	%ebx, %ebx
	cmpq	$0, (%r12,%rbx)
	jne	LBB263_9
	jmp	LBB263_3
	.p2align	4, 0x90
LBB263_5:
	leaq	(%r12,%rbx), %rdi
	addq	$56, %rdi
Ltmp118:
	callq	__ZN4core3ptr13drop_in_place17hf2766a8291be9869E
Ltmp119:
LBB263_13:
	addq	$120, %rbx
	cmpq	%rbx, %r15
	je	LBB263_14
LBB263_2:
	cmpq	$0, (%r12,%rbx)
	je	LBB263_3
LBB263_9:
	cmpl	$0, 8(%r12,%rbx)
	je	LBB263_13
	movq	16(%r12,%rbx), %rdi
	testq	%rdi, %rdi
	je	LBB263_13
	movq	24(%r12,%rbx), %rsi
	testq	%rsi, %rsi
	je	LBB263_13
	movl	$1, %edx
	callq	___rust_dealloc
	addq	$120, %rbx
	cmpq	%rbx, %r15
	jne	LBB263_2
	jmp	LBB263_14
	.p2align	4, 0x90
LBB263_3:
	cmpq	$0, 8(%r12,%rbx)
	je	LBB263_5
	leaq	(%r12,%rbx), %rdi
	addq	$8, %rdi
Ltmp112:
	callq	__ZN4core3ptr13drop_in_place17h9ddbae0a5d77d59bE
Ltmp113:
	jmp	LBB263_5
LBB263_14:
	popq	%rbx
	popq	%r12
	popq	%r14
	popq	%r15
	popq	%rbp
	retq
LBB263_8:
Ltmp114:
	movq	%rax, %r14
	leaq	(%r12,%rbx), %rdi
	addq	$56, %rdi
Ltmp115:
	callq	__ZN4core3ptr13drop_in_place17h021e276c4b102530E
Ltmp116:
	jmp	LBB263_18
LBB263_16:
Ltmp117:
	jmp	LBB263_17
LBB263_15:
Ltmp120:
LBB263_17:
	movq	%rax, %r14
LBB263_18:
	leaq	-120(%r15), %rax
	cmpq	%rbx, %rax
	je	LBB263_7
	subq	%rbx, %r15
	addq	$-120, %r15
	addq	%r12, %rbx
	addq	$120, %rbx
	.p2align	4, 0x90
LBB263_6:
	movq	%rbx, %rdi
	addq	$120, %rbx
	callq	__ZN4core3ptr13drop_in_place17hf969206ce853d4a4E
	addq	$-120, %r15
	jne	LBB263_6
LBB263_7:
	movq	%r14, %rdi
	callq	__Unwind_Resume
	ud2
Lfunc_end10:
	.cfi_endproc
	.section	__TEXT,__gcc_except_tab
	.p2align	2
GCC_except_table263:
Lexception10:
	.byte	255
	.byte	255
	.byte	1
	.uleb128 Lcst_end10-Lcst_begin10
Lcst_begin10:
	.uleb128 Ltmp118-Lfunc_begin10
	.uleb128 Ltmp119-Ltmp118
	.uleb128 Ltmp120-Lfunc_begin10
	.byte	0
	.uleb128 Ltmp112-Lfunc_begin10
	.uleb128 Ltmp113-Ltmp112
	.uleb128 Ltmp114-Lfunc_begin10
	.byte	0
	.uleb128 Ltmp115-Lfunc_begin10
	.uleb128 Ltmp116-Ltmp115
	.uleb128 Ltmp117-Lfunc_begin10
	.byte	0
	.uleb128 Ltmp116-Lfunc_begin10
	.uleb128 Lfunc_end10-Ltmp116
	.byte	0
	.byte	0
Lcst_end10:
	.p2align	2

	.section	__TEXT,__text,regular,pure_instructions
	.p2align	4, 0x90
__ZN4core3ptr13drop_in_place17h1da8d3a6b9381624E:
	.cfi_startproc
	pushq	%rbp
	.cfi_def_cfa_offset 16
	.cfi_offset %rbp, -16
	movq	%rsp, %rbp
	.cfi_def_cfa_register %rbp
	pushq	%r15
	pushq	%r14
	pushq	%r12
	pushq	%rbx
	.cfi_offset %rbx, -48
	.cfi_offset %r12, -40
	.cfi_offset %r14, -32
	.cfi_offset %r15, -24
	movq	%rdi, %r14
	movq	16(%rdi), %r12
	movq	24(%rdi), %rax
	subq	%r12, %rax
	je	LBB264_6
	sarq	$3, %rax
	movabsq	$7905747460161236407, %rcx
	imulq	%rax, %rcx
	imulq	$56, %rcx, %r15
	xorl	%ebx, %ebx
	movq	32(%r12,%rbx), %rdi
	testq	%rdi, %rdi
	jne	LBB264_3
	.p2align	4, 0x90
LBB264_5:
	addq	$56, %rbx
	cmpq	%rbx, %r15
	je	LBB264_6
LBB264_2:
	movq	32(%r12,%rbx), %rdi
	testq	%rdi, %rdi
	je	LBB264_5
LBB264_3:
	movq	40(%r12,%rbx), %rsi
	testq	%rsi, %rsi
	je	LBB264_5
	movl	$1, %edx
	callq	___rust_dealloc
	addq	$56, %rbx
	cmpq	%rbx, %r15
	jne	LBB264_2
LBB264_6:
	movq	8(%r14), %rax
	testq	%rax, %rax
	je	LBB264_8
	imulq	$56, %rax, %rsi
	testq	%rsi, %rsi
	je	LBB264_8
	movq	(%r14), %rdi
	movl	$8, %edx
	popq	%rbx
	popq	%r12
	popq	%r14
	popq	%r15
	popq	%rbp
	jmp	___rust_dealloc
LBB264_8:
	popq	%rbx
	popq	%r12
	popq	%r14
	popq	%r15
	popq	%rbp
	retq
	.cfi_endproc

	.p2align	4, 0x90
__ZN4core3ptr13drop_in_place17h1db07bea208b6584E:
	.cfi_startproc
	pushq	%rbp
	.cfi_def_cfa_offset 16
	.cfi_offset %rbp, -16
	movq	%rsp, %rbp
	.cfi_def_cfa_register %rbp
	pushq	%rbx
	pushq	%rax
	.cfi_offset %rbx, -24
	movq	%rdi, %rbx
	movq	(%rdi), %rax
	cmpq	$3, %rax
	ja	LBB265_19
	leaq	LJTI265_0(%rip), %rcx
	movslq	(%rcx,%rax,4), %rax
	addq	%rcx, %rax
	jmpq	*%rax
LBB265_3:
	cmpl	$0, 8(%rbx)
	je	LBB265_2
	movq	16(%rbx), %rdi
	testq	%rdi, %rdi
	je	LBB265_2
	movq	24(%rbx), %rsi
	testq	%rsi, %rsi
	je	LBB265_2
	movl	$1, %edx
	addq	$8, %rsp
	popq	%rbx
	popq	%rbp
	jmp	___rust_dealloc
LBB265_19:
	addq	$8, %rbx
	movq	%rbx, %rdi
	addq	$8, %rsp
	popq	%rbx
	popq	%rbp
	jmp	__ZN4core3ptr13drop_in_place17hec0783851197bcc9E
LBB265_7:
	addq	$8, %rbx
	jmp	LBB265_8
LBB265_9:
	cmpl	$0, 8(%rbx)
	je	LBB265_13
	movq	16(%rbx), %rdi
	testq	%rdi, %rdi
	je	LBB265_13
	movq	24(%rbx), %rsi
	testq	%rsi, %rsi
	je	LBB265_13
	movl	$1, %edx
	callq	___rust_dealloc
LBB265_13:
	addq	$48, %rbx
LBB265_8:
	movq	%rbx, %rdi
	addq	$8, %rsp
	popq	%rbx
	popq	%rbp
	jmp	__ZN4core3ptr13drop_in_place17h0436a60f29a0c975E
LBB265_14:
	cmpl	$0, 8(%rbx)
	je	LBB265_18
	movq	16(%rbx), %rdi
	testq	%rdi, %rdi
	je	LBB265_18
	movq	24(%rbx), %rsi
	testq	%rsi, %rsi
	je	LBB265_18
	movl	$1, %edx
	callq	___rust_dealloc
LBB265_18:
	addq	$48, %rbx
	movq	%rbx, %rdi
	addq	$8, %rsp
	popq	%rbx
	popq	%rbp
	jmp	__ZN4core3ptr13drop_in_place17hacba80ccc317721bE
LBB265_2:
	addq	$8, %rsp
	popq	%rbx
	popq	%rbp
	retq
	.cfi_endproc
	.p2align	2, 0x90
	.data_region jt32
.set L265_0_set_3, LBB265_3-LJTI265_0
.set L265_0_set_7, LBB265_7-LJTI265_0
.set L265_0_set_9, LBB265_9-LJTI265_0
.set L265_0_set_14, LBB265_14-LJTI265_0
LJTI265_0:
	.long	L265_0_set_3
	.long	L265_0_set_7
	.long	L265_0_set_9
	.long	L265_0_set_14
	.end_data_region

	.p2align	4, 0x90
__ZN4core3ptr13drop_in_place17h1eba7d5ea6e18f61E:
Lfunc_begin11:
	.cfi_startproc
	.cfi_personality 155, _rust_eh_personality
	.cfi_lsda 16, Lexception11
	pushq	%rbp
	.cfi_def_cfa_offset 16
	.cfi_offset %rbp, -16
	movq	%rsp, %rbp
	.cfi_def_cfa_register %rbp
	pushq	%r14
	pushq	%rbx
	.cfi_offset %rbx, -32
	.cfi_offset %r14, -24
	movq	%rdi, %rbx
	movq	(%rdi), %rax
	cmpq	$1, %rax
	je	LBB266_3
	testq	%rax, %rax
	je	LBB266_2
	leaq	8(%rbx), %rdi
Ltmp121:
	callq	__ZN4core3ptr13drop_in_place17h5c2d8f3c38d17203E
Ltmp122:
	movq	40(%rbx), %rdi
	testq	%rdi, %rdi
	je	LBB266_2
Ltmp124:
	callq	__ZN4core3ptr13drop_in_place17h0436a60f29a0c975E
Ltmp125:
	movq	40(%rbx), %rdi
	movl	$184, %esi
	movl	$8, %edx
	popq	%rbx
	popq	%r14
	popq	%rbp
	jmp	___rust_dealloc
LBB266_2:
	popq	%rbx
	popq	%r14
	popq	%rbp
	retq
LBB266_3:
	addq	$8, %rbx
	movq	%rbx, %rdi
	popq	%rbx
	popq	%r14
	popq	%rbp
	jmp	__ZN4core3ptr13drop_in_place17ha783a4054b109117E
LBB266_10:
Ltmp126:
	movq	%rax, %r14
	movq	40(%rbx), %rdi
	callq	__ZN5alloc5alloc8box_free17h8c0c1694fbab9f32E
	movq	%r14, %rdi
	callq	__Unwind_Resume
	ud2
LBB266_8:
Ltmp123:
	movq	%rax, %r14
	addq	$40, %rbx
	movq	%rbx, %rdi
	callq	__ZN4core3ptr13drop_in_place17hdfaf6fa94874628fE
	movq	%r14, %rdi
	callq	__Unwind_Resume
	ud2
Lfunc_end11:
	.cfi_endproc
	.section	__TEXT,__gcc_except_tab
	.p2align	2
GCC_except_table266:
Lexception11:
	.byte	255
	.byte	255
	.byte	1
	.uleb128 Lcst_end11-Lcst_begin11
Lcst_begin11:
	.uleb128 Ltmp121-Lfunc_begin11
	.uleb128 Ltmp122-Ltmp121
	.uleb128 Ltmp123-Lfunc_begin11
	.byte	0
	.uleb128 Ltmp124-Lfunc_begin11
	.uleb128 Ltmp125-Ltmp124
	.uleb128 Ltmp126-Lfunc_begin11
	.byte	0
	.uleb128 Ltmp125-Lfunc_begin11
	.uleb128 Lfunc_end11-Ltmp125
	.byte	0
	.byte	0
Lcst_end11:
	.p2align	2

	.section	__TEXT,__text,regular,pure_instructions
	.p2align	4, 0x90
__ZN4core3ptr13drop_in_place17h2271bd30125fb0c0E:
Lfunc_begin12:
	.cfi_startproc
	.cfi_personality 155, _rust_eh_personality
	.cfi_lsda 16, Lexception12
	pushq	%rbp
	.cfi_def_cfa_offset 16
	.cfi_offset %rbp, -16
	movq	%rsp, %rbp
	.cfi_def_cfa_register %rbp
	pushq	%r15
	pushq	%r14
	pushq	%r12
	pushq	%rbx
	.cfi_offset %rbx, -48
	.cfi_offset %r12, -40
	.cfi_offset %r14, -32
	.cfi_offset %r15, -24
	movq	%rdi, %r14
	movq	(%rdi), %rbx
	movq	16(%rdi), %r12
	shlq	$6, %r12
	.p2align	4, 0x90
LBB267_5:
	testq	%r12, %r12
	je	LBB267_6
	addq	$-64, %r12
Ltmp127:
	movq	%rbx, %rdi
	addq	$64, %rbx
	callq	__ZN4core3ptr13drop_in_place17hce649fb8f592e422E
Ltmp128:
	jmp	LBB267_5
LBB267_6:
	movq	8(%r14), %rsi
	testq	%rsi, %rsi
	je	LBB267_9
	movq	(%r14), %rdi
	testq	%rdi, %rdi
	je	LBB267_9
	shlq	$6, %rsi
	je	LBB267_9
	movl	$8, %edx
	popq	%rbx
	popq	%r12
	popq	%r14
	popq	%r15
	popq	%rbp
	jmp	___rust_dealloc
LBB267_9:
	popq	%rbx
	popq	%r12
	popq	%r14
	popq	%r15
	popq	%rbp
	retq
LBB267_1:
Ltmp129:
	movq	%rax, %r15
	testq	%r12, %r12
	je	LBB267_11
	.p2align	4, 0x90
LBB267_2:
Ltmp130:
	movq	%rbx, %rdi
	callq	__ZN4core3ptr13drop_in_place17hce649fb8f592e422E
Ltmp131:
	addq	$64, %rbx
	addq	$-64, %r12
	jne	LBB267_2
	jmp	LBB267_11
LBB267_10:
Ltmp132:
	movq	%rax, %r15
LBB267_11:
	movq	(%r14), %rdi
	movq	8(%r14), %rsi
	callq	__ZN4core3ptr13drop_in_place17haf25b711d58af4b0E
	movq	%r15, %rdi
	callq	__Unwind_Resume
	ud2
Lfunc_end12:
	.cfi_endproc
	.section	__TEXT,__gcc_except_tab
	.p2align	2
GCC_except_table267:
Lexception12:
	.byte	255
	.byte	255
	.byte	1
	.uleb128 Lcst_end12-Lcst_begin12
Lcst_begin12:
	.uleb128 Ltmp127-Lfunc_begin12
	.uleb128 Ltmp128-Ltmp127
	.uleb128 Ltmp129-Lfunc_begin12
	.byte	0
	.uleb128 Ltmp130-Lfunc_begin12
	.uleb128 Ltmp131-Ltmp130
	.uleb128 Ltmp132-Lfunc_begin12
	.byte	0
	.uleb128 Ltmp131-Lfunc_begin12
	.uleb128 Lfunc_end12-Ltmp131
	.byte	0
	.byte	0
Lcst_end12:
	.p2align	2

	.section	__TEXT,__text,regular,pure_instructions
	.p2align	4, 0x90
__ZN4core3ptr13drop_in_place17h24f51a6df748b1f5E:
Lfunc_begin13:
	.cfi_startproc
	.cfi_personality 155, _rust_eh_personality
	.cfi_lsda 16, Lexception13
	pushq	%rbp
	.cfi_def_cfa_offset 16
	.cfi_offset %rbp, -16
	movq	%rsp, %rbp
	.cfi_def_cfa_register %rbp
	pushq	%r15
	pushq	%r14
	pushq	%rbx
	pushq	%rax
	.cfi_offset %rbx, -40
	.cfi_offset %r14, -32
	.cfi_offset %r15, -24
	movq	%rdi, %r14
	movq	(%rdi), %rbx
	cmpl	$0, (%rbx)
	je	LBB268_4
	movq	8(%rbx), %rdi
	testq	%rdi, %rdi
	je	LBB268_4
	movq	16(%rbx), %rsi
	testq	%rsi, %rsi
	je	LBB268_4
	movl	$1, %edx
	callq	___rust_dealloc
LBB268_4:
	movq	40(%rbx), %rax
	testq	%rax, %rax
	je	LBB268_7
	cmpq	$1, %rax
	jne	LBB268_8
	addq	$48, %rbx
Ltmp133:
	movq	%rbx, %rdi
	callq	__ZN4core3ptr13drop_in_place17ha783a4054b109117E
Ltmp134:
	jmp	LBB268_7
LBB268_8:
	leaq	48(%rbx), %rdi
Ltmp135:
	callq	__ZN4core3ptr13drop_in_place17h5c2d8f3c38d17203E
Ltmp136:
	movq	80(%rbx), %rdi
	testq	%rdi, %rdi
	je	LBB268_7
Ltmp141:
	callq	__ZN4core3ptr13drop_in_place17h0436a60f29a0c975E
Ltmp142:
	movq	80(%rbx), %rdi
	movl	$184, %esi
	movl	$8, %edx
	callq	___rust_dealloc
LBB268_7:
	movq	(%r14), %rdi
	movl	$104, %esi
	movl	$8, %edx
	addq	$8, %rsp
	popq	%rbx
	popq	%r14
	popq	%r15
	popq	%rbp
	jmp	___rust_dealloc
LBB268_15:
Ltmp143:
	movq	%rax, %r15
	movq	80(%rbx), %rdi
	callq	__ZN5alloc5alloc8box_free17h8c0c1694fbab9f32E
	jmp	LBB268_14
LBB268_12:
Ltmp137:
	movq	%rax, %r15
	addq	$80, %rbx
Ltmp138:
	movq	%rbx, %rdi
	callq	__ZN4core3ptr13drop_in_place17hdfaf6fa94874628fE
Ltmp139:
	jmp	LBB268_14
LBB268_13:
Ltmp140:
	movq	%rax, %r15
LBB268_14:
	movq	(%r14), %rdi
	callq	__ZN5alloc5alloc8box_free17h9f331b14640c7009E
	movq	%r15, %rdi
	callq	__Unwind_Resume
	ud2
Lfunc_end13:
	.cfi_endproc
	.section	__TEXT,__gcc_except_tab
	.p2align	2
GCC_except_table268:
Lexception13:
	.byte	255
	.byte	255
	.byte	1
	.uleb128 Lcst_end13-Lcst_begin13
Lcst_begin13:
	.uleb128 Ltmp133-Lfunc_begin13
	.uleb128 Ltmp134-Ltmp133
	.uleb128 Ltmp140-Lfunc_begin13
	.byte	0
