	.section	__TEXT,__text,regular,pure_instructions
	.macosx_version_min 10, 7
	.globl	__ZN100_$LT$core..slice..Iter$LT$T$GT$$u20$as$u20$core..iter..traits..double_ended..DoubleEndedIterator$GT$9next_back17h4bd6ca647674033fE
	.p2align	4, 0x90
__ZN100_$LT$core..slice..Iter$LT$T$GT$$u20$as$u20$core..iter..traits..double_ended..DoubleEndedIterator$GT$9next_back17h4bd6ca647674033fE:
	.cfi_startproc
	pushq	%rbp
	.cfi_def_cfa_offset 16
	.cfi_offset %rbp, -16
	movq	%rsp, %rbp
	.cfi_def_cfa_register %rbp
	subq	$80, %rsp
	movq	(%rdi), %rax
	movq	%rdi, -40(%rbp)
	movq	%rax, %rdi
	callq	__ZN4core3ptr8non_null16NonNull$LT$T$GT$6as_ptr17h9f6b4c38258381afE
	movq	%rax, -48(%rbp)
	movq	-48(%rbp), %rdi
	callq	__ZN4core3ptr7mut_ptr31_$LT$impl$u20$$BP$mut$u20$T$GT$7is_null17hc2d0242ff5f1c7f2E
	movq	$240, -24(%rbp)
	movq	-24(%rbp), %rax
	movq	%rax, -56(%rbp)
	movq	-56(%rbp), %rax
	cmpq	$0, %rax
	jne	LBB0_6
	jmp	LBB0_9
LBB0_6:
	movq	-40(%rbp), %rax
	movq	8(%rax), %rdi
	callq	__ZN4core3ptr9const_ptr33_$LT$impl$u20$$BP$const$u20$T$GT$7is_null17h39e48d1d25dea90cE
	jmp	LBB0_9
LBB0_9:
	movq	-40(%rbp), %rax
	movq	(%rax), %rdi
	callq	__ZN4core3ptr8non_null16NonNull$LT$T$GT$6as_ptr17h9f6b4c38258381afE
	movq	%rax, -64(%rbp)
	movq	-64(%rbp), %rax
	movq	-40(%rbp), %rcx
	cmpq	8(%rcx), %rax
	je	LBB0_15
	movq	$240, -8(%rbp)
	cmpq	$0, -8(%rbp)
	je	LBB0_13
	movq	-40(%rbp), %rax
	movq	8(%rax), %rdi
	movq	$-1, %rsi
	callq	__ZN4core3ptr9const_ptr33_$LT$impl$u20$$BP$const$u20$T$GT$6offset17h9a7d814d4ea361daE
	movq	-40(%rbp), %rcx
	movq	%rax, 8(%rcx)
	movq	8(%rcx), %rax
	movq	%rax, -16(%rbp)
	jmp	LBB0_14
LBB0_13:
	movq	-40(%rbp), %rax
	movq	8(%rax), %rcx
	movq	%rcx, %rdi
	movq	$-1, %rsi
	callq	__ZN4core3ptr9const_ptr33_$LT$impl$u20$$BP$const$u20$T$GT$15wrapping_offset17hf01d0f705b451ee2E
	movq	-40(%rbp), %rcx
	movq	%rax, 8(%rcx)
	movq	(%rcx), %rdi
	callq	__ZN4core3ptr8non_null16NonNull$LT$T$GT$6as_ptr17h9f6b4c38258381afE
	movq	%rax, -16(%rbp)
LBB0_14:
	movq	-16(%rbp), %rax
	movq	%rax, -72(%rbp)
	jmp	LBB0_16
LBB0_15:
	movq	$0, -32(%rbp)
	jmp	LBB0_17
LBB0_16:
	movq	-72(%rbp), %rax
	movq	%rax, -32(%rbp)
LBB0_17:
	movq	-32(%rbp), %rax
	addq	$80, %rsp
	popq	%rbp
	retq
	.cfi_endproc

	.globl	__ZN100_$LT$core..slice..Iter$LT$T$GT$$u20$as$u20$core..iter..traits..double_ended..DoubleEndedIterator$GT$9next_back17h9f75f0d9fc172016E
	.p2align	4, 0x90
__ZN100_$LT$core..slice..Iter$LT$T$GT$$u20$as$u20$core..iter..traits..double_ended..DoubleEndedIterator$GT$9next_back17h9f75f0d9fc172016E:
	.cfi_startproc
	pushq	%rbp
	.cfi_def_cfa_offset 16
	.cfi_offset %rbp, -16
	movq	%rsp, %rbp
	.cfi_def_cfa_register %rbp
	subq	$80, %rsp
	movq	(%rdi), %rax
	movq	%rdi, -40(%rbp)
	movq	%rax, %rdi
	callq	__ZN4core3ptr8non_null16NonNull$LT$T$GT$6as_ptr17h1516b7ff16f4b1d1E
	movq	%rax, -48(%rbp)
	movq	-48(%rbp), %rdi
	callq	__ZN4core3ptr7mut_ptr31_$LT$impl$u20$$BP$mut$u20$T$GT$7is_null17h55c983418916aca6E
	movq	$392, -24(%rbp)
	movq	-24(%rbp), %rax
	movq	%rax, -56(%rbp)
	movq	-56(%rbp), %rax
	cmpq	$0, %rax
	jne	LBB1_6
	jmp	LBB1_9
LBB1_6:
	movq	-40(%rbp), %rax
	movq	8(%rax), %rdi
	callq	__ZN4core3ptr9const_ptr33_$LT$impl$u20$$BP$const$u20$T$GT$7is_null17hbbc8d4fe136a70a7E
	jmp	LBB1_9
LBB1_9:
	movq	-40(%rbp), %rax
	movq	(%rax), %rdi
	callq	__ZN4core3ptr8non_null16NonNull$LT$T$GT$6as_ptr17h1516b7ff16f4b1d1E
	movq	%rax, -64(%rbp)
	movq	-64(%rbp), %rax
	movq	-40(%rbp), %rcx
	cmpq	8(%rcx), %rax
	je	LBB1_15
	movq	$392, -8(%rbp)
	cmpq	$0, -8(%rbp)
	je	LBB1_13
	movq	-40(%rbp), %rax
	movq	8(%rax), %rdi
	movq	$-1, %rsi
	callq	__ZN4core3ptr9const_ptr33_$LT$impl$u20$$BP$const$u20$T$GT$6offset17hd3d0ff69f7f3441dE
	movq	-40(%rbp), %rcx
	movq	%rax, 8(%rcx)
	movq	8(%rcx), %rax
	movq	%rax, -16(%rbp)
	jmp	LBB1_14
LBB1_13:
	movq	-40(%rbp), %rax
	movq	8(%rax), %rcx
	movq	%rcx, %rdi
	movq	$-1, %rsi
	callq	__ZN4core3ptr9const_ptr33_$LT$impl$u20$$BP$const$u20$T$GT$15wrapping_offset17hf01d0f705b451ee2E
	movq	-40(%rbp), %rcx
	movq	%rax, 8(%rcx)
	movq	(%rcx), %rdi
	callq	__ZN4core3ptr8non_null16NonNull$LT$T$GT$6as_ptr17h1516b7ff16f4b1d1E
	movq	%rax, -16(%rbp)
LBB1_14:
	movq	-16(%rbp), %rax
	movq	%rax, -72(%rbp)
	jmp	LBB1_16
LBB1_15:
	movq	$0, -32(%rbp)
	jmp	LBB1_17
LBB1_16:
	movq	-72(%rbp), %rax
	movq	%rax, -32(%rbp)
LBB1_17:
	movq	-32(%rbp), %rax
	addq	$80, %rsp
	popq	%rbp
	retq
	.cfi_endproc

	.globl	__ZN100_$LT$syn..punctuated..Iter$LT$T$GT$$u20$as$u20$core..iter..traits..exact_size..ExactSizeIterator$GT$3len17h3b471ba7f5fa64a5E
	.p2align	4, 0x90
__ZN100_$LT$syn..punctuated..Iter$LT$T$GT$$u20$as$u20$core..iter..traits..exact_size..ExactSizeIterator$GT$3len17h3b471ba7f5fa64a5E:
	.cfi_startproc
	pushq	%rbp
	.cfi_def_cfa_offset 16
	.cfi_offset %rbp, -16
	movq	%rsp, %rbp
	.cfi_def_cfa_register %rbp
	subq	$16, %rsp
	callq	__ZN96_$LT$alloc..boxed..Box$LT$I$GT$$u20$as$u20$core..iter..traits..exact_size..ExactSizeIterator$GT$3len17h2855701b46a52eccE
	movq	%rax, -8(%rbp)
	movq	-8(%rbp), %rax
	addq	$16, %rsp
	popq	%rbp
	retq
	.cfi_endproc

	.globl	__ZN100_$LT$syn..punctuated..Iter$LT$T$GT$$u20$as$u20$core..iter..traits..exact_size..ExactSizeIterator$GT$3len17h6644df08c88ddda5E
	.p2align	4, 0x90
__ZN100_$LT$syn..punctuated..Iter$LT$T$GT$$u20$as$u20$core..iter..traits..exact_size..ExactSizeIterator$GT$3len17h6644df08c88ddda5E:
	.cfi_startproc
	pushq	%rbp
	.cfi_def_cfa_offset 16
	.cfi_offset %rbp, -16
	movq	%rsp, %rbp
	.cfi_def_cfa_register %rbp
	subq	$16, %rsp
	callq	__ZN96_$LT$alloc..boxed..Box$LT$I$GT$$u20$as$u20$core..iter..traits..exact_size..ExactSizeIterator$GT$3len17hbd59741d9b4e55c2E
	movq	%rax, -8(%rbp)
	movq	-8(%rbp), %rax
	addq	$16, %rsp
	popq	%rbp
	retq
	.cfi_endproc

	.globl	__ZN100_$LT$syn..punctuated..PrivateIter$LT$T$C$P$GT$$u20$as$u20$core..iter..traits..iterator..Iterator$GT$4next17h43005cb5286d0239E
	.p2align	4, 0x90
__ZN100_$LT$syn..punctuated..PrivateIter$LT$T$C$P$GT$$u20$as$u20$core..iter..traits..iterator..Iterator$GT$4next17h43005cb5286d0239E:
	.cfi_startproc
	pushq	%rbp
	.cfi_def_cfa_offset 16
	.cfi_offset %rbp, -16
	movq	%rsp, %rbp
	.cfi_def_cfa_register %rbp
	subq	$48, %rsp
	movq	%rdi, -24(%rbp)
	movq	-24(%rbp), %rax
	movq	%rax, %rdi
	callq	__ZN85_$LT$core..slice..Iter$LT$T$GT$$u20$as$u20$core..iter..traits..iterator..Iterator$GT$4next17h04cfb74f632b1c5fE
	movq	%rax, -32(%rbp)
	movq	-32(%rbp), %rdi
	callq	__ZN4core6option15Option$LT$T$GT$3map17h96abcf3d986a2757E
	movq	%rax, -40(%rbp)
	leaq	-24(%rbp), %rax
	movq	%rax, -8(%rbp)
	movq	-8(%rbp), %rsi
	movq	-40(%rbp), %rdi
	callq	__ZN4core6option15Option$LT$T$GT$7or_else17hd7db8f6d7d9d43cfE
	movq	%rax, -48(%rbp)
	movq	-48(%rbp), %rax
	addq	$48, %rsp
	popq	%rbp
	retq
	.cfi_endproc

	.globl	__ZN100_$LT$syn..punctuated..PrivateIter$LT$T$C$P$GT$$u20$as$u20$core..iter..traits..iterator..Iterator$GT$4next17h8c562a80b785f445E
	.p2align	4, 0x90
__ZN100_$LT$syn..punctuated..PrivateIter$LT$T$C$P$GT$$u20$as$u20$core..iter..traits..iterator..Iterator$GT$4next17h8c562a80b785f445E:
	.cfi_startproc
	pushq	%rbp
	.cfi_def_cfa_offset 16
	.cfi_offset %rbp, -16
	movq	%rsp, %rbp
	.cfi_def_cfa_register %rbp
	subq	$48, %rsp
	movq	%rdi, -24(%rbp)
	movq	-24(%rbp), %rax
	movq	%rax, %rdi
	callq	__ZN85_$LT$core..slice..Iter$LT$T$GT$$u20$as$u20$core..iter..traits..iterator..Iterator$GT$4next17h2359bf67182d6642E
	movq	%rax, -32(%rbp)
	movq	-32(%rbp), %rdi
	callq	__ZN4core6option15Option$LT$T$GT$3map17he1ca9d6523d2b460E
	movq	%rax, -40(%rbp)
	leaq	-24(%rbp), %rax
	movq	%rax, -8(%rbp)
	movq	-8(%rbp), %rsi
	movq	-40(%rbp), %rdi
	callq	__ZN4core6option15Option$LT$T$GT$7or_else17h0798518b27ea60f2E
	movq	%rax, -48(%rbp)
	movq	-48(%rbp), %rax
	addq	$48, %rsp
	popq	%rbp
	retq
	.cfi_endproc

	.globl	__ZN100_$LT$syn..punctuated..PrivateIter$LT$T$C$P$GT$$u20$as$u20$core..iter..traits..iterator..Iterator$GT$4next28_$u7b$$u7b$closure$u7d$$u7d$17h0cd229caf1411f1eE
	.p2align	4, 0x90
__ZN100_$LT$syn..punctuated..PrivateIter$LT$T$C$P$GT$$u20$as$u20$core..iter..traits..iterator..Iterator$GT$4next28_$u7b$$u7b$closure$u7d$$u7d$17h0cd229caf1411f1eE:
	.cfi_startproc
	pushq	%rbp
	.cfi_def_cfa_offset 16
	.cfi_offset %rbp, -16
	movq	%rsp, %rbp
	.cfi_def_cfa_register %rbp
	movq	%rdi, %rax
	popq	%rbp
	retq
	.cfi_endproc

	.globl	__ZN100_$LT$syn..punctuated..PrivateIter$LT$T$C$P$GT$$u20$as$u20$core..iter..traits..iterator..Iterator$GT$4next28_$u7b$$u7b$closure$u7d$$u7d$17hb248332205e0d368E
	.p2align	4, 0x90
__ZN100_$LT$syn..punctuated..PrivateIter$LT$T$C$P$GT$$u20$as$u20$core..iter..traits..iterator..Iterator$GT$4next28_$u7b$$u7b$closure$u7d$$u7d$17hb248332205e0d368E:
	.cfi_startproc
	pushq	%rbp
	.cfi_def_cfa_offset 16
	.cfi_offset %rbp, -16
	movq	%rsp, %rbp
	.cfi_def_cfa_register %rbp
	subq	$16, %rsp
	movq	(%rdi), %rax
	addq	$16, %rax
	movq	%rax, %rdi
	callq	__ZN90_$LT$core..option..IntoIter$LT$A$GT$$u20$as$u20$core..iter..traits..iterator..Iterator$GT$4next17h4744815c33defca4E
	movq	%rax, -8(%rbp)
	movq	-8(%rbp), %rax
	addq	$16, %rsp
	popq	%rbp
	retq
	.cfi_endproc

	.globl	__ZN100_$LT$syn..punctuated..PrivateIter$LT$T$C$P$GT$$u20$as$u20$core..iter..traits..iterator..Iterator$GT$4next28_$u7b$$u7b$closure$u7d$$u7d$17hbbc017641b7c3595E
	.p2align	4, 0x90
__ZN100_$LT$syn..punctuated..PrivateIter$LT$T$C$P$GT$$u20$as$u20$core..iter..traits..iterator..Iterator$GT$4next28_$u7b$$u7b$closure$u7d$$u7d$17hbbc017641b7c3595E:
	.cfi_startproc
	pushq	%rbp
	.cfi_def_cfa_offset 16
	.cfi_offset %rbp, -16
	movq	%rsp, %rbp
	.cfi_def_cfa_register %rbp
	movq	%rdi, %rax
	popq	%rbp
	retq
	.cfi_endproc

	.globl	__ZN100_$LT$syn..punctuated..PrivateIter$LT$T$C$P$GT$$u20$as$u20$core..iter..traits..iterator..Iterator$GT$4next28_$u7b$$u7b$closure$u7d$$u7d$17hee7482315dddaa03E
	.p2align	4, 0x90
__ZN100_$LT$syn..punctuated..PrivateIter$LT$T$C$P$GT$$u20$as$u20$core..iter..traits..iterator..Iterator$GT$4next28_$u7b$$u7b$closure$u7d$$u7d$17hee7482315dddaa03E:
	.cfi_startproc
	pushq	%rbp
	.cfi_def_cfa_offset 16
	.cfi_offset %rbp, -16
	movq	%rsp, %rbp
	.cfi_def_cfa_register %rbp
	subq	$16, %rsp
	movq	(%rdi), %rax
	addq	$16, %rax
	movq	%rax, %rdi
	callq	__ZN90_$LT$core..option..IntoIter$LT$A$GT$$u20$as$u20$core..iter..traits..iterator..Iterator$GT$4next17h0346690d20268e78E
	movq	%rax, -8(%rbp)
	movq	-8(%rbp), %rax
	addq	$16, %rsp
	popq	%rbp
	retq
	.cfi_endproc

	.globl	__ZN102_$LT$core..iter..adapters..zip..Zip$LT$A$C$B$GT$$u20$as$u20$core..iter..traits..iterator..Iterator$GT$4next17h62da2f2087c1f323E
	.p2align	4, 0x90
__ZN102_$LT$core..iter..adapters..zip..Zip$LT$A$C$B$GT$$u20$as$u20$core..iter..traits..iterator..Iterator$GT$4next17h62da2f2087c1f323E:
	.cfi_startproc
	pushq	%rbp
	.cfi_def_cfa_offset 16
	.cfi_offset %rbp, -16
	movq	%rsp, %rbp
	.cfi_def_cfa_register %rbp
	subq	$16, %rsp
	callq	__ZN111_$LT$core..iter..adapters..zip..Zip$LT$A$C$B$GT$$u20$as$u20$core..iter..adapters..zip..ZipImpl$LT$A$C$B$GT$$GT$4next17h04191fcd553bc0f1E
	movq	%rax, -8(%rbp)
	movq	%rdx, -16(%rbp)
	movq	-8(%rbp), %rax
	movq	-16(%rbp), %rdx
	addq	$16, %rsp
	popq	%rbp
	retq
	.cfi_endproc

	.globl	__ZN105_$LT$syn..punctuated..Punctuated$LT$T$C$P$GT$$u20$as$u20$core..iter..traits..collect..Extend$LT$T$GT$$GT$6extend17h7f0b63f713e9cdafE
	.p2align	4, 0x90
__ZN105_$LT$syn..punctuated..Punctuated$LT$T$C$P$GT$$u20$as$u20$core..iter..traits..collect..Extend$LT$T$GT$$GT$6extend17h7f0b63f713e9cdafE:
Lfunc_begin0:
	.cfi_startproc
	.cfi_personality 155, _rust_eh_personality
	.cfi_lsda 16, Lexception0
	pushq	%rbp
	.cfi_def_cfa_offset 16
	.cfi_offset %rbp, -16
	movq	%rsp, %rbp
	.cfi_def_cfa_register %rbp
	subq	$2528, %rsp
	movb	$0, -17(%rbp)
	movq	(%rsi), %rax
	movq	%rax, -2392(%rbp)
	movq	8(%rsi), %rax
	movq	%rax, -2384(%rbp)
	movq	16(%rsi), %rax
	movq	%rax, -2376(%rbp)
	movq	24(%rsi), %rax
	movq	%rax, -2368(%rbp)
	leaq	-2424(%rbp), %rax
	movq	%rdi, -2432(%rbp)
	movq	%rax, %rdi
	leaq	-2392(%rbp), %rsi
	callq	__ZN63_$LT$I$u20$as$u20$core..iter..traits..collect..IntoIterator$GT$9into_iter17ha02145e36e053a28E
	jmp	LBB11_2
LBB11_1:
	movq	-16(%rbp), %rdi
	callq	__Unwind_Resume
	ud2
LBB11_2:
	movq	-2424(%rbp), %rax
	movq	%rax, -2360(%rbp)
	movq	-2416(%rbp), %rax
	movq	%rax, -2352(%rbp)
	movq	-2408(%rbp), %rax
	movq	%rax, -2344(%rbp)
	movq	-2400(%rbp), %rax
	movq	%rax, -2336(%rbp)
LBB11_3:
Ltmp0:
	leaq	-1944(%rbp), %rdi
	leaq	-2360(%rbp), %rsi
	callq	__ZN88_$LT$alloc..vec..IntoIter$LT$T$GT$$u20$as$u20$core..iter..traits..iterator..Iterator$GT$4next17h7c291a52948b1ec6E
Ltmp1:
	jmp	LBB11_5
LBB11_4:
	leaq	-2360(%rbp), %rdi
	callq	__ZN4core3ptr13drop_in_place17h9131dae9fe2a9624E
	jmp	LBB11_1
LBB11_5:
	movq	-1944(%rbp), %rax
	addq	$-3, %rax
	setne	%cl
	movzbl	%cl, %edx
	movl	%edx, %esi
	je	LBB11_6
	jmp	LBB11_14
LBB11_14:
	jmp	LBB11_8
LBB11_6:
	movb	$0, -17(%rbp)
	leaq	-2360(%rbp), %rdi
	callq	__ZN4core3ptr13drop_in_place17h9131dae9fe2a9624E
	jmp	LBB11_10
	ud2
LBB11_8:
	leaq	-1560(%rbp), %rax
	leaq	-1944(%rbp), %rsi
	movl	$384, %ecx
	movq	%rax, %rdi
	movq	%rcx, %rdx
	movq	%rax, -2440(%rbp)
	movq	%rcx, -2448(%rbp)
	callq	_memcpy
	leaq	-1176(%rbp), %rcx
	movq	%rcx, %rdi
	movq	-2440(%rbp), %rsi
	movq	-2448(%rbp), %rdx
	movq	%rax, -2456(%rbp)
	movq	%rcx, -2464(%rbp)
	callq	_memcpy
	movb	$1, -17(%rbp)
	leaq	-2328(%rbp), %rcx
	movq	%rcx, %rdi
	movq	-2464(%rbp), %rsi
	movq	-2448(%rbp), %rdx
	movq	%rax, -2472(%rbp)
	movq	%rcx, -2480(%rbp)
	callq	_memcpy
	movb	$0, -17(%rbp)
	leaq	-792(%rbp), %rcx
	movq	%rcx, %rdi
	movq	-2480(%rbp), %rsi
	movq	-2448(%rbp), %rdx
	movq	%rax, -2488(%rbp)
	movq	%rcx, -2496(%rbp)
	callq	_memcpy
	leaq	-408(%rbp), %rcx
	movq	%rcx, %rdi
	movq	-2496(%rbp), %rsi
	movq	-2448(%rbp), %rdx
	movq	%rax, -2504(%rbp)
	movq	%rcx, -2512(%rbp)
	callq	_memcpy
Ltmp2:
	movq	-2432(%rbp), %rdi
	movq	-2512(%rbp), %rsi
	movq	%rax, -2520(%rbp)
	callq	__ZN3syn10punctuated23Punctuated$LT$T$C$P$GT$4push17hd5cb41af287e1da7E
Ltmp3:
	jmp	LBB11_9
LBB11_9:
	movb	$0, -17(%rbp)
	jmp	LBB11_3
LBB11_10:
	addq	$2528, %rsp
	popq	%rbp
	retq
LBB11_11:
	movb	$0, -17(%rbp)
	leaq	-2328(%rbp), %rdi
	callq	__ZN4core3ptr13drop_in_place17hfeda7e631319c5c0E
	jmp	LBB11_4
LBB11_12:
	testb	$1, -17(%rbp)
	jne	LBB11_11
	jmp	LBB11_4
LBB11_13:
Ltmp4:
	movq	%rax, -16(%rbp)
	movl	%edx, -8(%rbp)
	jmp	LBB11_12
Lfunc_end0:
	.cfi_endproc
	.section	__TEXT,__gcc_except_tab
	.p2align	2
GCC_except_table11:
Lexception0:
	.byte	255
	.byte	255
	.byte	1
	.uleb128 Lcst_end0-Lcst_begin0
Lcst_begin0:
	.uleb128 Lfunc_begin0-Lfunc_begin0
	.uleb128 Ltmp0-Lfunc_begin0
	.byte	0
	.byte	0
	.uleb128 Ltmp0-Lfunc_begin0
	.uleb128 Ltmp1-Ltmp0
	.uleb128 Ltmp4-Lfunc_begin0
	.byte	0
	.uleb128 Ltmp1-Lfunc_begin0
	.uleb128 Ltmp2-Ltmp1
	.byte	0
	.byte	0
	.uleb128 Ltmp2-Lfunc_begin0
	.uleb128 Ltmp3-Ltmp2
	.uleb128 Ltmp4-Lfunc_begin0
	.byte	0
	.uleb128 Ltmp3-Lfunc_begin0
	.uleb128 Lfunc_end0-Ltmp3
	.byte	0
	.byte	0
Lcst_end0:
	.p2align	2

	.section	__TEXT,__text,regular,pure_instructions
	.globl	__ZN105_$LT$syn..punctuated..Punctuated$LT$T$C$P$GT$$u20$as$u20$core..iter..traits..collect..Extend$LT$T$GT$$GT$6extend17hd466407dab3333dbE
	.p2align	4, 0x90
__ZN105_$LT$syn..punctuated..Punctuated$LT$T$C$P$GT$$u20$as$u20$core..iter..traits..collect..Extend$LT$T$GT$$GT$6extend17hd466407dab3333dbE:
Lfunc_begin1:
	.cfi_startproc
	.cfi_personality 155, _rust_eh_personality
	.cfi_lsda 16, Lexception1
	pushq	%rbp
	.cfi_def_cfa_offset 16
	.cfi_offset %rbp, -16
	movq	%rsp, %rbp
	.cfi_def_cfa_register %rbp
	subq	$2464, %rsp
	movb	$0, -17(%rbp)
	movq	%rdi, -2352(%rbp)
	movq	%rsi, %rdi
	movq	%rdx, %rsi
	callq	__ZN63_$LT$I$u20$as$u20$core..iter..traits..collect..IntoIterator$GT$9into_iter17h54b758d5946c8f31E
	movq	%rax, -2360(%rbp)
	movq	%rdx, -2368(%rbp)
	jmp	LBB12_2
LBB12_1:
	movq	-16(%rbp), %rdi
	callq	__Unwind_Resume
	ud2
LBB12_2:
	movq	-2360(%rbp), %rax
	movq	%rax, -2344(%rbp)
	movq	-2368(%rbp), %rcx
	movq	%rcx, -2336(%rbp)
LBB12_3:
Ltmp5:
	leaq	-1944(%rbp), %rdi
	leaq	-2344(%rbp), %rsi
	callq	__ZN96_$LT$core..iter..adapters..Cloned$LT$I$GT$$u20$as$u20$core..iter..traits..iterator..Iterator$GT$4next17h4f7f67a223a969dcE
Ltmp6:
	jmp	LBB12_5
LBB12_4:
	leaq	-2344(%rbp), %rdi
	callq	__ZN4core3ptr13drop_in_place17h6bfd8c6dad64d630E
	jmp	LBB12_1
LBB12_5:
	movq	-1944(%rbp), %rax
	addq	$-3, %rax
	setne	%cl
	movzbl	%cl, %edx
	movl	%edx, %esi
	je	LBB12_6
	jmp	LBB12_14
LBB12_14:
	jmp	LBB12_8
LBB12_6:
	movb	$0, -17(%rbp)
	leaq	-2344(%rbp), %rdi
	callq	__ZN4core3ptr13drop_in_place17h6bfd8c6dad64d630E
	jmp	LBB12_10
	ud2
LBB12_8:
	leaq	-1560(%rbp), %rax
	leaq	-1944(%rbp), %rsi
	movl	$384, %ecx
	movq	%rax, %rdi
	movq	%rcx, %rdx
	movq	%rax, -2376(%rbp)
	movq	%rcx, -2384(%rbp)
	callq	_memcpy
	leaq	-1176(%rbp), %rcx
	movq	%rcx, %rdi
	movq	-2376(%rbp), %rsi
	movq	-2384(%rbp), %rdx
	movq	%rax, -2392(%rbp)
	movq	%rcx, -2400(%rbp)
	callq	_memcpy
	movb	$1, -17(%rbp)
	leaq	-2328(%rbp), %rcx
	movq	%rcx, %rdi
	movq	-2400(%rbp), %rsi
	movq	-2384(%rbp), %rdx
	movq	%rax, -2408(%rbp)
	movq	%rcx, -2416(%rbp)
	callq	_memcpy
	movb	$0, -17(%rbp)
	leaq	-792(%rbp), %rcx
	movq	%rcx, %rdi
	movq	-2416(%rbp), %rsi
	movq	-2384(%rbp), %rdx
	movq	%rax, -2424(%rbp)
	movq	%rcx, -2432(%rbp)
	callq	_memcpy
	leaq	-408(%rbp), %rcx
	movq	%rcx, %rdi
	movq	-2432(%rbp), %rsi
	movq	-2384(%rbp), %rdx
	movq	%rax, -2440(%rbp)
	movq	%rcx, -2448(%rbp)
	callq	_memcpy
Ltmp7:
	movq	-2352(%rbp), %rdi
	movq	-2448(%rbp), %rsi
	movq	%rax, -2456(%rbp)
	callq	__ZN3syn10punctuated23Punctuated$LT$T$C$P$GT$4push17h9cea68ec854f8f0bE
Ltmp8:
	jmp	LBB12_9
LBB12_9:
	movb	$0, -17(%rbp)
	jmp	LBB12_3
LBB12_10:
	addq	$2464, %rsp
	popq	%rbp
	retq
LBB12_11:
	movb	$0, -17(%rbp)
	leaq	-2328(%rbp), %rdi
	callq	__ZN4core3ptr13drop_in_place17hc8e4d7a17d7460bcE
	jmp	LBB12_4
LBB12_12:
	testb	$1, -17(%rbp)
	jne	LBB12_11
	jmp	LBB12_4
LBB12_13:
Ltmp9:
	movq	%rax, -16(%rbp)
	movl	%edx, -8(%rbp)
	jmp	LBB12_12
Lfunc_end1:
	.cfi_endproc
	.section	__TEXT,__gcc_except_tab
	.p2align	2
GCC_except_table12:
Lexception1:
	.byte	255
	.byte	255
	.byte	1
	.uleb128 Lcst_end1-Lcst_begin1
Lcst_begin1:
	.uleb128 Lfunc_begin1-Lfunc_begin1
	.uleb128 Ltmp5-Lfunc_begin1
	.byte	0
	.byte	0
	.uleb128 Ltmp5-Lfunc_begin1
	.uleb128 Ltmp6-Ltmp5
	.uleb128 Ltmp9-Lfunc_begin1
	.byte	0
	.uleb128 Ltmp6-Lfunc_begin1
	.uleb128 Ltmp7-Ltmp6
	.byte	0
	.byte	0
	.uleb128 Ltmp7-Lfunc_begin1
	.uleb128 Ltmp8-Ltmp7
	.uleb128 Ltmp9-Lfunc_begin1
	.byte	0
	.uleb128 Ltmp8-Lfunc_begin1
	.uleb128 Lfunc_end1-Ltmp8
	.byte	0
	.byte	0
Lcst_end1:
	.p2align	2

	.section	__TEXT,__text,regular,pure_instructions
	.globl	__ZN105_$LT$syn..punctuated..Punctuated$LT$T$C$P$GT$$u20$as$u20$core..iter..traits..collect..Extend$LT$T$GT$$GT$6extend17he2b2498bd80e456bE
	.p2align	4, 0x90
__ZN105_$LT$syn..punctuated..Punctuated$LT$T$C$P$GT$$u20$as$u20$core..iter..traits..collect..Extend$LT$T$GT$$GT$6extend17he2b2498bd80e456bE:
Lfunc_begin2:
	.cfi_startproc
	.cfi_personality 155, _rust_eh_personality
	.cfi_lsda 16, Lexception2
	pushq	%rbp
	.cfi_def_cfa_offset 16
	.cfi_offset %rbp, -16
	movq	%rsp, %rbp
	.cfi_def_cfa_register %rbp
	subq	$2464, %rsp
	movb	$0, -17(%rbp)
	movq	%rdi, -2352(%rbp)
	movq	%rsi, %rdi
	movq	%rdx, %rsi
	callq	__ZN63_$LT$I$u20$as$u20$core..iter..traits..collect..IntoIterator$GT$9into_iter17hcd8c8f3400f8d58bE
	movq	%rax, -2360(%rbp)
	movq	%rdx, -2368(%rbp)
	jmp	LBB13_2
LBB13_1:
	movq	-16(%rbp), %rdi
	callq	__Unwind_Resume
	ud2
LBB13_2:
	movq	-2360(%rbp), %rax
	movq	%rax, -2344(%rbp)
	movq	-2368(%rbp), %rcx
	movq	%rcx, -2336(%rbp)
LBB13_3:
Ltmp10:
	leaq	-1944(%rbp), %rdi
	leaq	-2344(%rbp), %rsi
	callq	__ZN96_$LT$core..iter..adapters..Cloned$LT$I$GT$$u20$as$u20$core..iter..traits..iterator..Iterator$GT$4next17h5af80e7cea6c78f8E
Ltmp11:
	jmp	LBB13_5
LBB13_4:
	jmp	LBB13_1
LBB13_5:
	movq	-1944(%rbp), %rax
	addq	$-3, %rax
	setne	%cl
	movzbl	%cl, %edx
	movl	%edx, %esi
	je	LBB13_6
	jmp	LBB13_14
LBB13_14:
	jmp	LBB13_8
LBB13_6:
	movb	$0, -17(%rbp)
	jmp	LBB13_10
	ud2
LBB13_8:
	leaq	-1560(%rbp), %rax
	leaq	-1944(%rbp), %rsi
	movl	$384, %ecx
	movq	%rax, %rdi
	movq	%rcx, %rdx
	movq	%rax, -2376(%rbp)
	movq	%rcx, -2384(%rbp)
	callq	_memcpy
	leaq	-1176(%rbp), %rcx
	movq	%rcx, %rdi
	movq	-2376(%rbp), %rsi
	movq	-2384(%rbp), %rdx
	movq	%rax, -2392(%rbp)
	movq	%rcx, -2400(%rbp)
	callq	_memcpy
	movb	$1, -17(%rbp)
	leaq	-2328(%rbp), %rcx
	movq	%rcx, %rdi
	movq	-2400(%rbp), %rsi
	movq	-2384(%rbp), %rdx
	movq	%rax, -2408(%rbp)
	movq	%rcx, -2416(%rbp)
	callq	_memcpy
	movb	$0, -17(%rbp)
	leaq	-792(%rbp), %rcx
	movq	%rcx, %rdi
	movq	-2416(%rbp), %rsi
	movq	-2384(%rbp), %rdx
	movq	%rax, -2424(%rbp)
	movq	%rcx, -2432(%rbp)
	callq	_memcpy
	leaq	-408(%rbp), %rcx
	movq	%rcx, %rdi
	movq	-2432(%rbp), %rsi
	movq	-2384(%rbp), %rdx
	movq	%rax, -2440(%rbp)
	movq	%rcx, -2448(%rbp)
	callq	_memcpy
Ltmp12:
	movq	-2352(%rbp), %rdi
	movq	-2448(%rbp), %rsi
	movq	%rax, -2456(%rbp)
	callq	__ZN3syn10punctuated23Punctuated$LT$T$C$P$GT$4push17h9cea68ec854f8f0bE
Ltmp13:
	jmp	LBB13_9
LBB13_9:
	movb	$0, -17(%rbp)
	jmp	LBB13_3
LBB13_10:
	addq	$2464, %rsp
	popq	%rbp
	retq
LBB13_11:
	movb	$0, -17(%rbp)
	leaq	-2328(%rbp), %rdi
	callq	__ZN4core3ptr13drop_in_place17hc8e4d7a17d7460bcE
	jmp	LBB13_4
LBB13_12:
	testb	$1, -17(%rbp)
	jne	LBB13_11
	jmp	LBB13_4
LBB13_13:
Ltmp14:
	movq	%rax, -16(%rbp)
	movl	%edx, -8(%rbp)
	jmp	LBB13_12
Lfunc_end2:
	.cfi_endproc
	.section	__TEXT,__gcc_except_tab
	.p2align	2
GCC_except_table13:
Lexception2:
	.byte	255
	.byte	255
	.byte	1
	.uleb128 Lcst_end2-Lcst_begin2
Lcst_begin2:
	.uleb128 Lfunc_begin2-Lfunc_begin2
	.uleb128 Ltmp10-Lfunc_begin2
	.byte	0
	.byte	0
	.uleb128 Ltmp10-Lfunc_begin2
	.uleb128 Ltmp11-Ltmp10
	.uleb128 Ltmp14-Lfunc_begin2
	.byte	0
	.uleb128 Ltmp11-Lfunc_begin2
	.uleb128 Ltmp12-Ltmp11
	.byte	0
	.byte	0
	.uleb128 Ltmp12-Lfunc_begin2
	.uleb128 Ltmp13-Ltmp12
	.uleb128 Ltmp14-Lfunc_begin2
	.byte	0
	.uleb128 Ltmp13-Lfunc_begin2
	.uleb128 Lfunc_end2-Ltmp13
	.byte	0
	.byte	0
Lcst_end2:
	.p2align	2

	.section	__TEXT,__text,regular,pure_instructions
	.globl	__ZN106_$LT$$RF$syn..punctuated..Punctuated$LT$T$C$P$GT$$u20$as$u20$core..iter..traits..collect..IntoIterator$GT$9into_iter17h5a371c7932e3ef9fE
	.p2align	4, 0x90
__ZN106_$LT$$RF$syn..punctuated..Punctuated$LT$T$C$P$GT$$u20$as$u20$core..iter..traits..collect..IntoIterator$GT$9into_iter17h5a371c7932e3ef9fE:
	.cfi_startproc
	pushq	%rbp
	.cfi_def_cfa_offset 16
	.cfi_offset %rbp, -16
	movq	%rsp, %rbp
	.cfi_def_cfa_register %rbp
	subq	$16, %rsp
	callq	__ZN3syn10punctuated23Punctuated$LT$T$C$P$GT$4iter17ha0cb0eb7e81085deE
	movq	%rax, -8(%rbp)
	movq	%rdx, -16(%rbp)
	movq	-8(%rbp), %rax
	movq	-16(%rbp), %rdx
	addq	$16, %rsp
	popq	%rbp
	retq
	.cfi_endproc

	.globl	__ZN106_$LT$$RF$syn..punctuated..Punctuated$LT$T$C$P$GT$$u20$as$u20$core..iter..traits..collect..IntoIterator$GT$9into_iter17hfddf70b1a7eb42c0E
	.p2align	4, 0x90
__ZN106_$LT$$RF$syn..punctuated..Punctuated$LT$T$C$P$GT$$u20$as$u20$core..iter..traits..collect..IntoIterator$GT$9into_iter17hfddf70b1a7eb42c0E:
	.cfi_startproc
	pushq	%rbp
	.cfi_def_cfa_offset 16
	.cfi_offset %rbp, -16
	movq	%rsp, %rbp
	.cfi_def_cfa_register %rbp
	subq	$16, %rsp
	callq	__ZN3syn10punctuated23Punctuated$LT$T$C$P$GT$4iter17hf5ad04769d07bc98E
	movq	%rax, -8(%rbp)
	movq	%rdx, -16(%rbp)
	movq	-8(%rbp), %rax
	movq	-16(%rbp), %rdx
	addq	$16, %rsp
	popq	%rbp
	retq
	.cfi_endproc

	.globl	__ZN106_$LT$$RF$syn..punctuated..Punctuated$LT$T$C$P$GT$$u20$as$u20$core..iter..traits..collect..IntoIterator$GT$9into_iter17hfff77a8094940560E
	.p2align	4, 0x90
__ZN106_$LT$$RF$syn..punctuated..Punctuated$LT$T$C$P$GT$$u20$as$u20$core..iter..traits..collect..IntoIterator$GT$9into_iter17hfff77a8094940560E:
	.cfi_startproc
	pushq	%rbp
	.cfi_def_cfa_offset 16
	.cfi_offset %rbp, -16
	movq	%rsp, %rbp
	.cfi_def_cfa_register %rbp
	subq	$16, %rsp
	callq	__ZN3syn10punctuated23Punctuated$LT$T$C$P$GT$4iter17h981842669603e93aE
	movq	%rax, -8(%rbp)
	movq	%rdx, -16(%rbp)
	movq	-8(%rbp), %rax
	movq	-16(%rbp), %rdx
	addq	$16, %rsp
	popq	%rbp
	retq
	.cfi_endproc

	.globl	__ZN111_$LT$core..iter..adapters..zip..Zip$LT$A$C$B$GT$$u20$as$u20$core..iter..adapters..zip..ZipImpl$LT$A$C$B$GT$$GT$3new17h1f9a8587b361742fE
	.p2align	4, 0x90
__ZN111_$LT$core..iter..adapters..zip..Zip$LT$A$C$B$GT$$u20$as$u20$core..iter..adapters..zip..ZipImpl$LT$A$C$B$GT$$GT$3new17h1f9a8587b361742fE:
	.cfi_startproc
	pushq	%rbp
	.cfi_def_cfa_offset 16
	.cfi_offset %rbp, -16
	movq	%rsp, %rbp
	.cfi_def_cfa_register %rbp
	movq	%rdi, %rax
	movq	%rsi, (%rdi)
	movq	%rdx, 8(%rdi)
	movq	%rcx, 16(%rdi)
	movq	%r8, 24(%rdi)
	movq	$0, 32(%rdi)
	movq	$0, 40(%rdi)
	popq	%rbp
	retq
	.cfi_endproc

	.globl	__ZN111_$LT$core..iter..adapters..zip..Zip$LT$A$C$B$GT$$u20$as$u20$core..iter..adapters..zip..ZipImpl$LT$A$C$B$GT$$GT$4next17h04191fcd553bc0f1E
	.p2align	4, 0x90
__ZN111_$LT$core..iter..adapters..zip..Zip$LT$A$C$B$GT$$u20$as$u20$core..iter..adapters..zip..ZipImpl$LT$A$C$B$GT$$GT$4next17h04191fcd553bc0f1E:
Lfunc_begin3:
	.cfi_startproc
	.cfi_personality 155, _rust_eh_personality
	.cfi_lsda 16, Lexception3
	pushq	%rbp
	.cfi_def_cfa_offset 16
	.cfi_offset %rbp, -16
	movq	%rsp, %rbp
	.cfi_def_cfa_register %rbp
	subq	$144, %rsp
	movq	%rdi, %rax
	movq	%rdi, -72(%rbp)
	movq	%rax, %rdi
	callq	__ZN85_$LT$core..slice..Iter$LT$T$GT$$u20$as$u20$core..iter..traits..iterator..Iterator$GT$4next17h268c84f77143918fE
	movq	%rax, -80(%rbp)
	jmp	LBB18_2
LBB18_1:
	movq	-16(%rbp), %rdi
	callq	__Unwind_Resume
	ud2
LBB18_2:
	movq	-80(%rbp), %rdi
	callq	__ZN69_$LT$core..option..Option$LT$T$GT$$u20$as$u20$core..ops..try..Try$GT$11into_result17he3d0013659f75824E
	movq	%rax, -48(%rbp)
	movq	-48(%rbp), %rax
	testq	%rax, %rax
	sete	%cl
	movzbl	%cl, %edx
	movl	%edx, %eax
	jne	LBB18_5
	jmp	LBB18_24
LBB18_24:
	jmp	LBB18_7
LBB18_4:
	jmp	LBB18_1
LBB18_5:
	movq	-48(%rbp), %rax
	movq	-72(%rbp), %rcx
	addq	$16, %rcx
Ltmp20:
	movq	%rcx, %rdi
	movq	%rax, -88(%rbp)
	callq	__ZN89_$LT$syn..punctuated..Iter$LT$T$GT$$u20$as$u20$core..iter..traits..iterator..Iterator$GT$4next17h39133e058c750435E
Ltmp21:
	movq	%rax, -96(%rbp)
	jmp	LBB18_12
	ud2
LBB18_7:
Ltmp15:
	callq	__ZN50_$LT$T$u20$as$u20$core..convert..From$LT$T$GT$$GT$4from17h181d52b7b194d4a0E
Ltmp16:
	jmp	LBB18_9
LBB18_8:
	movq	-64(%rbp), %rax
	movq	-56(%rbp), %rdx
	addq	$144, %rsp
	popq	%rbp
	retq
LBB18_9:
Ltmp17:
	callq	__ZN69_$LT$core..option..Option$LT$T$GT$$u20$as$u20$core..ops..try..Try$GT$10from_error17h0e3434dec7a8b7b9E
Ltmp18:
	movq	%rdx, -104(%rbp)
	movq	%rax, -112(%rbp)
	jmp	LBB18_10
LBB18_10:
	movq	-112(%rbp), %rax
	movq	%rax, -64(%rbp)
	movq	-104(%rbp), %rcx
	movq	%rcx, -56(%rbp)
	jmp	LBB18_8
LBB18_11:
	jmp	LBB18_1
LBB18_12:
Ltmp22:
	movq	-96(%rbp), %rdi
	callq	__ZN69_$LT$core..option..Option$LT$T$GT$$u20$as$u20$core..ops..try..Try$GT$11into_result17h7b4bb71ca0fabe09E
Ltmp23:
	movq	%rax, -120(%rbp)
	jmp	LBB18_13
LBB18_13:
	movq	-120(%rbp), %rax
	movq	%rax, -40(%rbp)
	movq	-40(%rbp), %rcx
	testq	%rcx, %rcx
	sete	%dl
	movzbl	%dl, %esi
	movl	%esi, %ecx
	jne	LBB18_15
	jmp	LBB18_25
LBB18_25:
	jmp	LBB18_17
LBB18_14:
	jmp	LBB18_11
LBB18_15:
	movq	-40(%rbp), %rax
	movq	-88(%rbp), %rcx
	movq	%rcx, -32(%rbp)
	movq	%rax, -24(%rbp)
	movq	-32(%rbp), %rax
	movq	-24(%rbp), %rdx
	movq	%rax, -64(%rbp)
	movq	%rdx, -56(%rbp)
	jmp	LBB18_8
	ud2
LBB18_17:
Ltmp25:
	callq	__ZN50_$LT$T$u20$as$u20$core..convert..From$LT$T$GT$$GT$4from17h181d52b7b194d4a0E
Ltmp26:
	jmp	LBB18_18
LBB18_18:
Ltmp27:
	callq	__ZN69_$LT$core..option..Option$LT$T$GT$$u20$as$u20$core..ops..try..Try$GT$10from_error17h0e3434dec7a8b7b9E
Ltmp28:
	movq	%rdx, -128(%rbp)
	movq	%rax, -136(%rbp)
	jmp	LBB18_19
LBB18_19:
	movq	-136(%rbp), %rax
	movq	%rax, -64(%rbp)
	movq	-128(%rbp), %rcx
	movq	%rcx, -56(%rbp)
	jmp	LBB18_8
LBB18_21:
Ltmp19:
	movq	%rax, -16(%rbp)
	movl	%edx, -8(%rbp)
	jmp	LBB18_4
LBB18_22:
Ltmp24:
	movq	%rax, -16(%rbp)
	movl	%edx, -8(%rbp)
	jmp	LBB18_11
LBB18_23:
Ltmp29:
	movq	%rax, -16(%rbp)
	movl	%edx, -8(%rbp)
	jmp	LBB18_14
Lfunc_end3:
	.cfi_endproc
	.section	__TEXT,__gcc_except_tab
	.p2align	2
GCC_except_table18:
Lexception3:
	.byte	255
	.byte	255
	.byte	1
	.uleb128 Lcst_end3-Lcst_begin3
Lcst_begin3:
	.uleb128 Lfunc_begin3-Lfunc_begin3
	.uleb128 Ltmp20-Lfunc_begin3
	.byte	0
	.byte	0
	.uleb128 Ltmp20-Lfunc_begin3
	.uleb128 Ltmp21-Ltmp20
	.uleb128 Ltmp24-Lfunc_begin3
	.byte	0
	.uleb128 Ltmp15-Lfunc_begin3
	.uleb128 Ltmp18-Ltmp15
	.uleb128 Ltmp19-Lfunc_begin3
	.byte	0
	.uleb128 Ltmp22-Lfunc_begin3
	.uleb128 Ltmp23-Ltmp22
	.uleb128 Ltmp24-Lfunc_begin3
	.byte	0
	.uleb128 Ltmp25-Lfunc_begin3
	.uleb128 Ltmp28-Ltmp25
	.uleb128 Ltmp29-Lfunc_begin3
	.byte	0
Lcst_end3:
	.p2align	2

	.section	__TEXT,__text,regular,pure_instructions
	.globl	__ZN111_$LT$syn..punctuated..PrivateIter$LT$T$C$P$GT$$u20$as$u20$core..iter..traits..exact_size..ExactSizeIterator$GT$3len17h9929446947d02134E
	.p2align	4, 0x90
__ZN111_$LT$syn..punctuated..PrivateIter$LT$T$C$P$GT$$u20$as$u20$core..iter..traits..exact_size..ExactSizeIterator$GT$3len17h9929446947d02134E:
	.cfi_startproc
	pushq	%rbp
	.cfi_def_cfa_offset 16
	.cfi_offset %rbp, -16
	movq	%rsp, %rbp
	.cfi_def_cfa_register %rbp
	subq	$96, %rsp
	movq	%rdi, %rax
	movq	(%rdi), %rcx
	movq	%rdi, -32(%rbp)
	movq	%rcx, %rdi
	movq	%rax, -40(%rbp)
	movq	%rcx, -48(%rbp)
	callq	__ZN4core3ptr8non_null16NonNull$LT$T$GT$6as_ptr17h9f6b4c38258381afE
	movq	$240, -8(%rbp)
	movq	-8(%rbp), %rcx
	cmpq	$0, %rcx
	movq	%rcx, -56(%rbp)
	je	LBB19_2
	movq	-40(%rbp), %rax
	movq	8(%rax), %rcx
	movq	-48(%rbp), %rdi
	movq	%rcx, -64(%rbp)
	callq	__ZN4core3ptr8non_null16NonNull$LT$T$GT$6as_ptr17h9f6b4c38258381afE
	movq	-64(%rbp), %rcx
	subq	%rax, %rcx
	movq	%rcx, -16(%rbp)
	movq	-16(%rbp), %rax
	xorl	%edx, %edx
	movq	-56(%rbp), %rcx
	divq	%rcx
	movq	%rax, -24(%rbp)
	jmp	LBB19_3
LBB19_2:
	movq	-40(%rbp), %rax
	movq	8(%rax), %rdi
	movq	-48(%rbp), %rcx
	movq	%rdi, -72(%rbp)
	movq	%rcx, %rdi
	callq	__ZN4core3ptr8non_null16NonNull$LT$T$GT$6as_ptr17h9f6b4c38258381afE
	movq	-72(%rbp), %rdi
	movq	%rax, %rsi
	callq	__ZN4core3num23_$LT$impl$u20$usize$GT$12wrapping_sub17he182784bbf8a3191E
	movq	%rax, -24(%rbp)
LBB19_3:
	movq	-24(%rbp), %rax
	movq	%rax, -80(%rbp)
	movq	-32(%rbp), %rax
	addq	$16, %rax
	movq	%rax, %rdi
	callq	__ZN4core4iter6traits10exact_size17ExactSizeIterator3len17hf2fb546f9b287dbcE
	movq	%rax, -88(%rbp)
	movq	-80(%rbp), %rax
	movq	-88(%rbp), %rcx
	addq	%rcx, %rax
	setb	%dl
	testb	$1, %dl
	movq	%rax, -96(%rbp)
	jne	LBB19_7
	movq	-96(%rbp), %rax
	addq	$96, %rsp
	popq	%rbp
	retq
LBB19_7:
	leaq	_str.0(%rip), %rdi
	leaq	l___unnamed_1(%rip), %rdx
	movl	$28, %esi
	callq	__ZN4core9panicking5panic17h383a6b80ea7021aaE
	.cfi_endproc

	.globl	__ZN111_$LT$syn..punctuated..PrivateIter$LT$T$C$P$GT$$u20$as$u20$core..iter..traits..exact_size..ExactSizeIterator$GT$3len17h9d97d4f30f6d1885E
	.p2align	4, 0x90
__ZN111_$LT$syn..punctuated..PrivateIter$LT$T$C$P$GT$$u20$as$u20$core..iter..traits..exact_size..ExactSizeIterator$GT$3len17h9d97d4f30f6d1885E:
	.cfi_startproc
	pushq	%rbp
	.cfi_def_cfa_offset 16
	.cfi_offset %rbp, -16
	movq	%rsp, %rbp
	.cfi_def_cfa_register %rbp
	subq	$96, %rsp
	movq	%rdi, %rax
	movq	(%rdi), %rcx
	movq	%rdi, -32(%rbp)
	movq	%rcx, %rdi
	movq	%rax, -40(%rbp)
	movq	%rcx, -48(%rbp)
	callq	__ZN4core3ptr8non_null16NonNull$LT$T$GT$6as_ptr17h1516b7ff16f4b1d1E
	movq	$392, -8(%rbp)
	movq	-8(%rbp), %rcx
	cmpq	$0, %rcx
	movq	%rcx, -56(%rbp)
	je	LBB20_2
	movq	-40(%rbp), %rax
	movq	8(%rax), %rcx
	movq	-48(%rbp), %rdi
	movq	%rcx, -64(%rbp)
	callq	__ZN4core3ptr8non_null16NonNull$LT$T$GT$6as_ptr17h1516b7ff16f4b1d1E
	movq	-64(%rbp), %rcx
	subq	%rax, %rcx
	movq	%rcx, -16(%rbp)
	movq	-16(%rbp), %rax
	xorl	%edx, %edx
	movq	-56(%rbp), %rcx
	divq	%rcx
	movq	%rax, -24(%rbp)
	jmp	LBB20_3
LBB20_2:
	movq	-40(%rbp), %rax
	movq	8(%rax), %rdi
	movq	-48(%rbp), %rcx
	movq	%rdi, -72(%rbp)
	movq	%rcx, %rdi
	callq	__ZN4core3ptr8non_null16NonNull$LT$T$GT$6as_ptr17h1516b7ff16f4b1d1E
	movq	-72(%rbp), %rdi
	movq	%rax, %rsi
	callq	__ZN4core3num23_$LT$impl$u20$usize$GT$12wrapping_sub17he182784bbf8a3191E
	movq	%rax, -24(%rbp)
LBB20_3:
	movq	-24(%rbp), %rax
	movq	%rax, -80(%rbp)
	movq	-32(%rbp), %rax
	addq	$16, %rax
	movq	%rax, %rdi
	callq	__ZN4core4iter6traits10exact_size17ExactSizeIterator3len17h87af7b7401d51eeaE
	movq	%rax, -88(%rbp)
	movq	-80(%rbp), %rax
	movq	-88(%rbp), %rcx
	addq	%rcx, %rax
	setb	%dl
	testb	$1, %dl
	movq	%rax, -96(%rbp)
	jne	LBB20_7
	movq	-96(%rbp), %rax
	addq	$96, %rsp
	popq	%rbp
	retq
LBB20_7:
	leaq	_str.0(%rip), %rdi
	leaq	l___unnamed_1(%rip), %rdx
	movl	$28, %esi
	callq	__ZN4core9panicking5panic17h383a6b80ea7021aaE
	.cfi_endproc

	.globl	__ZN115_$LT$syn..punctuated..PrivateIter$LT$T$C$P$GT$$u20$as$u20$core..iter..traits..double_ended..DoubleEndedIterator$GT$9next_back17hee116b00c1f76c56E
	.p2align	4, 0x90
__ZN115_$LT$syn..punctuated..PrivateIter$LT$T$C$P$GT$$u20$as$u20$core..iter..traits..double_ended..DoubleEndedIterator$GT$9next_back17hee116b00c1f76c56E:
	.cfi_startproc
	pushq	%rbp
	.cfi_def_cfa_offset 16
	.cfi_offset %rbp, -16
	movq	%rsp, %rbp
	.cfi_def_cfa_register %rbp
	subq	$32, %rsp
	movq	%rdi, -16(%rbp)
	movq	-16(%rbp), %rax
	addq	$16, %rax
	movq	%rax, %rdi
	callq	__ZN90_$LT$core..option..IntoIter$LT$A$GT$$u20$as$u20$core..iter..traits..iterator..Iterator$GT$4next17h4744815c33defca4E
	movq	%rax, -24(%rbp)
	leaq	-16(%rbp), %rax
	movq	%rax, -8(%rbp)
	movq	-8(%rbp), %rsi
	movq	-24(%rbp), %rdi
	callq	__ZN4core6option15Option$LT$T$GT$7or_else17h4d32ba7257a1a5bdE
	movq	%rax, -32(%rbp)
	movq	-32(%rbp), %rax
	addq	$32, %rsp
	popq	%rbp
	retq
	.cfi_endproc

	.globl	__ZN115_$LT$syn..punctuated..PrivateIter$LT$T$C$P$GT$$u20$as$u20$core..iter..traits..double_ended..DoubleEndedIterator$GT$9next_back17hf1377c4a156fcbe9E
	.p2align	4, 0x90
__ZN115_$LT$syn..punctuated..PrivateIter$LT$T$C$P$GT$$u20$as$u20$core..iter..traits..double_ended..DoubleEndedIterator$GT$9next_back17hf1377c4a156fcbe9E:
	.cfi_startproc
	pushq	%rbp
	.cfi_def_cfa_offset 16
	.cfi_offset %rbp, -16
	movq	%rsp, %rbp
	.cfi_def_cfa_register %rbp
	subq	$32, %rsp
	movq	%rdi, -16(%rbp)
	movq	-16(%rbp), %rax
	addq	$16, %rax
	movq	%rax, %rdi
	callq	__ZN90_$LT$core..option..IntoIter$LT$A$GT$$u20$as$u20$core..iter..traits..iterator..Iterator$GT$4next17h0346690d20268e78E
	movq	%rax, -24(%rbp)
	leaq	-16(%rbp), %rax
	movq	%rax, -8(%rbp)
	movq	-8(%rbp), %rsi
	movq	-24(%rbp), %rdi
	callq	__ZN4core6option15Option$LT$T$GT$7or_else17h639236269cf87665E
	movq	%rax, -32(%rbp)
	movq	-32(%rbp), %rax
	addq	$32, %rsp
	popq	%rbp
	retq
	.cfi_endproc

	.globl	__ZN115_$LT$syn..punctuated..PrivateIter$LT$T$C$P$GT$$u20$as$u20$core..iter..traits..double_ended..DoubleEndedIterator$GT$9next_back28_$u7b$$u7b$closure$u7d$$u7d$17h0e199c7d5876571dE
	.p2align	4, 0x90
__ZN115_$LT$syn..punctuated..PrivateIter$LT$T$C$P$GT$$u20$as$u20$core..iter..traits..double_ended..DoubleEndedIterator$GT$9next_back28_$u7b$$u7b$closure$u7d$$u7d$17h0e199c7d5876571dE:
	.cfi_startproc
	pushq	%rbp
	.cfi_def_cfa_offset 16
	.cfi_offset %rbp, -16
	movq	%rsp, %rbp
	.cfi_def_cfa_register %rbp
	subq	$32, %rsp
	movq	(%rdi), %rax
	movq	%rax, %rdi
	callq	__ZN100_$LT$core..slice..Iter$LT$T$GT$$u20$as$u20$core..iter..traits..double_ended..DoubleEndedIterator$GT$9next_back17h9f75f0d9fc172016E
	movq	%rax, -16(%rbp)
	movq	-16(%rbp), %rdi
	callq	__ZN4core6option15Option$LT$T$GT$3map17h1999e5be9ff6e295E
	movq	%rax, -24(%rbp)
	movq	-24(%rbp), %rax
	addq	$32, %rsp
	popq	%rbp
	retq
	.cfi_endproc

	.globl	__ZN115_$LT$syn..punctuated..PrivateIter$LT$T$C$P$GT$$u20$as$u20$core..iter..traits..double_ended..DoubleEndedIterator$GT$9next_back28_$u7b$$u7b$closure$u7d$$u7d$17h65032290e6ae775dE
	.p2align	4, 0x90
__ZN115_$LT$syn..punctuated..PrivateIter$LT$T$C$P$GT$$u20$as$u20$core..iter..traits..double_ended..DoubleEndedIterator$GT$9next_back28_$u7b$$u7b$closure$u7d$$u7d$17h65032290e6ae775dE:
	.cfi_startproc
	pushq	%rbp
	.cfi_def_cfa_offset 16
	.cfi_offset %rbp, -16
	movq	%rsp, %rbp
	.cfi_def_cfa_register %rbp
	subq	$32, %rsp
	movq	(%rdi), %rax
	movq	%rax, %rdi
	callq	__ZN100_$LT$core..slice..Iter$LT$T$GT$$u20$as$u20$core..iter..traits..double_ended..DoubleEndedIterator$GT$9next_back17h4bd6ca647674033fE
	movq	%rax, -16(%rbp)
	movq	-16(%rbp), %rdi
	callq	__ZN4core6option15Option$LT$T$GT$3map17hc1b11d1779f114caE
	movq	%rax, -24(%rbp)
	movq	-24(%rbp), %rax
	addq	$32, %rsp
	popq	%rbp
	retq
	.cfi_endproc

	.globl	__ZN115_$LT$syn..punctuated..PrivateIter$LT$T$C$P$GT$$u20$as$u20$core..iter..traits..double_ended..DoubleEndedIterator$GT$9next_back28_$u7b$$u7b$closure$u7d$$u7d$28_$u7b$$u7b$closure$u7d$$u7d$17h37c547d1950a97b3E
	.p2align	4, 0x90
__ZN115_$LT$syn..punctuated..PrivateIter$LT$T$C$P$GT$$u20$as$u20$core..iter..traits..double_ended..DoubleEndedIterator$GT$9next_back28_$u7b$$u7b$closure$u7d$$u7d$28_$u7b$$u7b$closure$u7d$$u7d$17h37c547d1950a97b3E:
	.cfi_startproc
	pushq	%rbp
	.cfi_def_cfa_offset 16
	.cfi_offset %rbp, -16
	movq	%rsp, %rbp
	.cfi_def_cfa_register %rbp
	movq	%rdi, %rax
	popq	%rbp
	retq
	.cfi_endproc

	.globl	__ZN115_$LT$syn..punctuated..PrivateIter$LT$T$C$P$GT$$u20$as$u20$core..iter..traits..double_ended..DoubleEndedIterator$GT$9next_back28_$u7b$$u7b$closure$u7d$$u7d$28_$u7b$$u7b$closure$u7d$$u7d$17h9d47c2092e0455aeE
	.p2align	4, 0x90
__ZN115_$LT$syn..punctuated..PrivateIter$LT$T$C$P$GT$$u20$as$u20$core..iter..traits..double_ended..DoubleEndedIterator$GT$9next_back28_$u7b$$u7b$closure$u7d$$u7d$28_$u7b$$u7b$closure$u7d$$u7d$17h9d47c2092e0455aeE:
	.cfi_startproc
	pushq	%rbp
	.cfi_def_cfa_offset 16
	.cfi_offset %rbp, -16
	movq	%rsp, %rbp
	.cfi_def_cfa_register %rbp
	movq	%rdi, %rax
	popq	%rbp
	retq
	.cfi_endproc

	.globl	__ZN138_$LT$$LT$alloc..vec..IntoIter$LT$T$GT$$u20$as$u20$core..ops..drop..Drop$GT$..drop..DropGuard$LT$T$GT$$u20$as$u20$core..ops..drop..Drop$GT$4drop17h5c07868b04ef2142E
	.p2align	4, 0x90
__ZN138_$LT$$LT$alloc..vec..IntoIter$LT$T$GT$$u20$as$u20$core..ops..drop..Drop$GT$..drop..DropGuard$LT$T$GT$$u20$as$u20$core..ops..drop..Drop$GT$4drop17h5c07868b04ef2142E:
	.cfi_startproc
	pushq	%rbp
	.cfi_def_cfa_offset 16
	.cfi_offset %rbp, -16
	movq	%rsp, %rbp
	.cfi_def_cfa_register %rbp
	subq	$32, %rsp
	movq	(%rdi), %rax
	movq	(%rax), %rax
	movq	%rdi, -24(%rbp)
	movq	%rax, %rdi
	callq	__ZN4core3ptr8non_null16NonNull$LT$T$GT$6as_ptr17hb5874d53c0c51dc9E
	movq	%rax, -32(%rbp)
	movq	-24(%rbp), %rax
	movq	(%rax), %rcx
	movq	8(%rcx), %rsi
	movq	-32(%rbp), %rdi
	callq	__ZN5alloc7raw_vec15RawVec$LT$T$GT$14from_raw_parts17h27b53e8fe59a79cdE
	movq	%rdx, -8(%rbp)
	movq	%rax, -16(%rbp)
	leaq	-16(%rbp), %rdi
	callq	__ZN4core3ptr13drop_in_place17h3ab142df8b337339E
	addq	$32, %rsp
	popq	%rbp
	retq
	.cfi_endproc

	.globl	__ZN138_$LT$$LT$alloc..vec..IntoIter$LT$T$GT$$u20$as$u20$core..ops..drop..Drop$GT$..drop..DropGuard$LT$T$GT$$u20$as$u20$core..ops..drop..Drop$GT$4drop17hbf8178dc4b4e7ecdE
	.p2align	4, 0x90
__ZN138_$LT$$LT$alloc..vec..IntoIter$LT$T$GT$$u20$as$u20$core..ops..drop..Drop$GT$..drop..DropGuard$LT$T$GT$$u20$as$u20$core..ops..drop..Drop$GT$4drop17hbf8178dc4b4e7ecdE:
	.cfi_startproc
	pushq	%rbp
	.cfi_def_cfa_offset 16
	.cfi_offset %rbp, -16
	movq	%rsp, %rbp
	.cfi_def_cfa_register %rbp
	subq	$32, %rsp
	movq	(%rdi), %rax
	movq	(%rax), %rax
	movq	%rdi, -24(%rbp)
	movq	%rax, %rdi
	callq	__ZN4core3ptr8non_null16NonNull$LT$T$GT$6as_ptr17hb24c58d5611f058aE
	movq	%rax, -32(%rbp)
	movq	-24(%rbp), %rax
	movq	(%rax), %rcx
	movq	8(%rcx), %rsi
	movq	-32(%rbp), %rdi
	callq	__ZN5alloc7raw_vec15RawVec$LT$T$GT$14from_raw_parts17hcce85f8ba3f2c915E
	movq	%rdx, -8(%rbp)
	movq	%rax, -16(%rbp)
	leaq	-16(%rbp), %rdi
	callq	__ZN4core3ptr13drop_in_place17h08a5b1d3babba6e2E
	addq	$32, %rsp
	popq	%rbp
	retq
	.cfi_endproc

	.globl	__ZN138_$LT$syn..punctuated..Punctuated$LT$T$C$P$GT$$u20$as$u20$core..iter..traits..collect..Extend$LT$syn..punctuated..Pair$LT$T$C$P$GT$$GT$$GT$6extend17h5692f988004d420aE
	.p2align	4, 0x90
__ZN138_$LT$syn..punctuated..Punctuated$LT$T$C$P$GT$$u20$as$u20$core..iter..traits..collect..Extend$LT$syn..punctuated..Pair$LT$T$C$P$GT$$GT$$GT$6extend17h5692f988004d420aE:
Lfunc_begin4:
	.cfi_startproc
	.cfi_personality 155, _rust_eh_personality
	.cfi_lsda 16, Lexception4
	pushq	%rbp
	.cfi_def_cfa_offset 16
	.cfi_offset %rbp, -16
	movq	%rsp, %rbp
	.cfi_def_cfa_register %rbp
	subq	$1808, %rsp
	movb	$0, -20(%rbp)
	movb	$0, -21(%rbp)
	movb	$0, -18(%rbp)
	movb	$0, -19(%rbp)
	movb	$0, -17(%rbp)
	movb	$1, -21(%rbp)
Ltmp30:
	movq	%rdi, -1704(%rbp)
	movq	%rsi, -1712(%rbp)
	callq	__ZN3syn10punctuated23Punctuated$LT$T$C$P$GT$17empty_or_trailing17h07bf2973055205b6E
Ltmp31:
	movb	%al, -1713(%rbp)
	jmp	LBB29_2
LBB29_1:
	movq	-16(%rbp), %rdi
	callq	__Unwind_Resume
	ud2
LBB29_2:
	movb	-1713(%rbp), %al
	xorb	$-1, %al
	testb	$1, %al
	jne	LBB29_4
	movb	$0, -1689(%rbp)
	movb	$0, -21(%rbp)
	movl	$16, %ecx
	leaq	-1560(%rbp), %rax
	movq	%rax, %rdi
	movq	-1712(%rbp), %rsi
	rep;movsq (%rsi), %es:(%rdi)
Ltmp32:
	leaq	-1688(%rbp), %rdi
	movq	%rax, %rsi
	callq	__ZN63_$LT$I$u20$as$u20$core..iter..traits..collect..IntoIterator$GT$9into_iter17h2b10d8ee420070e7E
Ltmp33:
	jmp	LBB29_5
LBB29_4:
Ltmp49:
	leaq	l___unnamed_2(%rip), %rdi
	leaq	l___unnamed_3(%rip), %rdx
	movl	$42, %esi
	callq	__ZN3std9panicking11begin_panic17h673c1ec0952ac37bE
Ltmp50:
	jmp	LBB29_36
LBB29_5:
	leaq	-1432(%rbp), %rax
	leaq	-1688(%rbp), %rcx
	movq	%rax, %rdi
	movq	%rcx, %rsi
	movl	$128, %edx
	callq	_memcpy
LBB29_6:
Ltmp34:
	leaq	-1176(%rbp), %rdi
	leaq	-1432(%rbp), %rsi
	callq	__ZN90_$LT$core..option..IntoIter$LT$A$GT$$u20$as$u20$core..iter..traits..iterator..Iterator$GT$4next17hd923eac7b2055e05E
Ltmp35:
	jmp	LBB29_8
LBB29_7:
	leaq	-1432(%rbp), %rdi
	callq	__ZN4core3ptr13drop_in_place17h1f4ec21dd957bb3cE
	jmp	LBB29_23
LBB29_8:
	movl	-1176(%rbp), %eax
	addl	$-2, %eax
	setne	%cl
	movzbl	%cl, %edx
	movl	%edx, %esi
	je	LBB29_9
	jmp	LBB29_40
LBB29_40:
	jmp	LBB29_11
LBB29_9:
	movb	$0, -20(%rbp)
Ltmp47:
	leaq	-1432(%rbp), %rdi
	callq	__ZN4core3ptr13drop_in_place17h1f4ec21dd957bb3cE
Ltmp48:
	jmp	LBB29_21
	ud2
LBB29_11:
	leaq	-1176(%rbp), %rax
	leaq	-1048(%rbp), %rcx
	movq	%rcx, %rdx
	movq	%rdx, %rdi
	movq	%rax, %rsi
	movl	$128, %eax
	movq	%rax, %rdx
	movq	%rcx, -1728(%rbp)
	movq	%rax, -1736(%rbp)
	callq	_memcpy
	leaq	-920(%rbp), %rax
	movq	%rax, %rcx
	movq	-1728(%rbp), %rdx
	movq	%rcx, %rdi
	movq	%rdx, %rsi
	movq	-1736(%rbp), %rdx
	movq	%rax, -1744(%rbp)
	callq	_memcpy
	movb	$1, -20(%rbp)
	leaq	-1304(%rbp), %rax
	movq	%rax, %rcx
	movq	-1744(%rbp), %rdx
	movq	%rcx, %rdi
	movq	%rdx, %rsi
	movq	-1736(%rbp), %rdx
	movq	%rax, -1752(%rbp)
	callq	_memcpy
	movb	$0, -20(%rbp)
	movb	$1, -19(%rbp)
	movb	$1, -18(%rbp)
	movb	$1, -17(%rbp)
	leaq	-792(%rbp), %rax
	movq	-1752(%rbp), %rcx
	movq	%rax, %rdi
	movq	%rcx, %rsi
	movq	-1736(%rbp), %rdx
	callq	_memcpy
	testb	$1, -1689(%rbp)
	jne	LBB29_13
	movl	-792(%rbp), %eax
	movl	%eax, %ecx
	testq	%rcx, %rcx
	je	LBB29_17
	jmp	LBB29_41
LBB29_41:
	jmp	LBB29_14
LBB29_13:
Ltmp44:
	leaq	l___unnamed_4(%rip), %rdi
	leaq	l___unnamed_3(%rip), %rdx
	movl	$48, %esi
	callq	__ZN3std9panicking11begin_panic17h673c1ec0952ac37bE
Ltmp45:
	jmp	LBB29_36
LBB29_14:
	movb	$0, -17(%rbp)
	leaq	-784(%rbp), %rsi
	movl	$15, %eax
	leaq	-272(%rbp), %rcx
	movq	%rcx, -1760(%rbp)
	movq	%rax, %rcx
	movq	-1760(%rbp), %rdi
	rep;movsq (%rsi), %es:(%rdi)
	leaq	-144(%rbp), %rdi
	movq	%rax, %rcx
	movq	-1760(%rbp), %rsi
	rep;movsq (%rsi), %es:(%rdi)
Ltmp37:
	movl	$120, %edi
	movl	$8, %esi
	callq	__ZN5alloc5alloc15exchange_malloc17h474238982ffc5d0bE
Ltmp38:
	movq	%rax, -1768(%rbp)
	jmp	LBB29_15
LBB29_15:
	movq	-1768(%rbp), %rax
	leaq	-144(%rbp), %rcx
	movq	-1768(%rbp), %rdi
	movq	%rcx, %rsi
	movl	$120, %edx
	movq	%rax, -1776(%rbp)
	callq	_memcpy
	jmp	LBB29_19
	ud2
LBB29_17:
	movb	$0, -18(%rbp)
	leaq	-784(%rbp), %rsi
	movl	$15, %eax
	leaq	-656(%rbp), %rcx
	movq	%rcx, -1784(%rbp)
	movq	%rax, %rcx
	movq	-1784(%rbp), %rdi
	rep;movsq (%rsi), %es:(%rdi)
	movb	$0, -19(%rbp)
	movl	-788(%rbp), %edx
	movl	%edx, -536(%rbp)
	leaq	-400(%rbp), %rcx
	movq	%rcx, -1792(%rbp)
	movq	%rax, %rcx
	movq	-1792(%rbp), %rdi
	movq	-1784(%rbp), %rsi
	rep;movsq (%rsi), %es:(%rdi)
	movl	-536(%rbp), %edx
	movl	%edx, -280(%rbp)
	leaq	-528(%rbp), %rcx
	movq	%rcx, -1800(%rbp)
	movq	%rax, %rcx
	movq	-1800(%rbp), %rdi
	movq	-1792(%rbp), %rsi
	rep;movsq (%rsi), %es:(%rdi)
	movl	-280(%rbp), %edx
	movl	%edx, -408(%rbp)
Ltmp42:
	movq	-1704(%rbp), %rdi
	movq	-1800(%rbp), %rsi
	callq	__ZN5alloc3vec12Vec$LT$T$GT$4push17h8c543c995017a084E
Ltmp43:
	jmp	LBB29_18
LBB29_18:
	jmp	LBB29_20
LBB29_19:
	movq	-1776(%rbp), %rax
	movq	%rax, -152(%rbp)
	movq	-1704(%rbp), %rcx
	addq	$24, %rcx
Ltmp39:
	movq	%rcx, %rdi
	callq	__ZN4core3ptr13drop_in_place17h911176e68ce4036eE
Ltmp40:
	jmp	LBB29_34
LBB29_20:
	movb	$0, -19(%rbp)
	movb	$0, -18(%rbp)
	movb	$0, -17(%rbp)
	movb	$0, -20(%rbp)
	jmp	LBB29_6
LBB29_21:
	addq	$1808, %rsp
	popq	%rbp
	retq
LBB29_22:
	movb	$0, -21(%rbp)
	movq	-1712(%rbp), %rdi
	callq	__ZN4core3ptr13drop_in_place17h1f4ec21dd957bb3cE
	jmp	LBB29_1
LBB29_23:
	testb	$1, -21(%rbp)
	jne	LBB29_22
	jmp	LBB29_1
LBB29_24:
	movb	$0, -20(%rbp)
	leaq	-1304(%rbp), %rdi
	callq	__ZN4core3ptr13drop_in_place17h0f2d7dcf3c0a2a54E
	jmp	LBB29_7
LBB29_25:
	testb	$1, -20(%rbp)
	jne	LBB29_24
	jmp	LBB29_7
LBB29_26:
	testb	$1, -19(%rbp)
	je	LBB29_25
	movb	$0, -19(%rbp)
	jmp	LBB29_25
LBB29_28:
	testb	$1, -18(%rbp)
	je	LBB29_26
	movb	$0, -18(%rbp)
	leaq	-792(%rbp), %rax
	addq	$8, %rax
	movq	%rax, %rdi
	callq	__ZN4core3ptr13drop_in_place17h7c6cf1d365d93b03E
	jmp	LBB29_26
LBB29_30:
	testb	$1, -17(%rbp)
	je	LBB29_25
	movb	$0, -17(%rbp)
	leaq	-792(%rbp), %rax
	addq	$8, %rax
	movq	%rax, %rdi
	callq	__ZN4core3ptr13drop_in_place17h7c6cf1d365d93b03E
	jmp	LBB29_25
LBB29_32:
	movl	-792(%rbp), %eax
	movl	%eax, %ecx
	cmpq	$0, %rcx
	je	LBB29_28
	jmp	LBB29_30
LBB29_33:
	movq	-152(%rbp), %rax
	movq	-1704(%rbp), %rcx
	movq	%rax, 24(%rcx)
	jmp	LBB29_32
LBB29_34:
	movq	-152(%rbp), %rax
	movq	-1704(%rbp), %rcx
	movq	%rax, 24(%rcx)
	movb	$1, -1689(%rbp)
	jmp	LBB29_20
LBB29_35:
Ltmp51:
	movq	%rax, -16(%rbp)
	movl	%edx, -8(%rbp)
	jmp	LBB29_23
LBB29_36:
	ud2
LBB29_37:
Ltmp36:
	movq	%rax, -16(%rbp)
	movl	%edx, -8(%rbp)
	jmp	LBB29_25
LBB29_38:
Ltmp46:
	movq	%rax, -16(%rbp)
	movl	%edx, -8(%rbp)
	jmp	LBB29_32
LBB29_39:
Ltmp41:
	movq	%rax, -16(%rbp)
	movl	%edx, -8(%rbp)
	jmp	LBB29_33
Lfunc_end4:
	.cfi_endproc
	.section	__TEXT,__gcc_except_tab
	.p2align	2
GCC_except_table29:
Lexception4:
	.byte	255
	.byte	255
	.byte	1
	.uleb128 Lcst_end4-Lcst_begin4
Lcst_begin4:
	.uleb128 Ltmp30-Lfunc_begin4
	.uleb128 Ltmp31-Ltmp30
	.uleb128 Ltmp51-Lfunc_begin4
	.byte	0
	.uleb128 Ltmp31-Lfunc_begin4
	.uleb128 Ltmp32-Ltmp31
	.byte	0
	.byte	0
	.uleb128 Ltmp32-Lfunc_begin4
	.uleb128 Ltmp50-Ltmp32
	.uleb128 Ltmp51-Lfunc_begin4
	.byte	0
	.uleb128 Ltmp50-Lfunc_begin4
	.uleb128 Ltmp34-Ltmp50
	.byte	0
	.byte	0
	.uleb128 Ltmp34-Lfunc_begin4
	.uleb128 Ltmp35-Ltmp34
	.uleb128 Ltmp36-Lfunc_begin4
	.byte	0
	.uleb128 Ltmp35-Lfunc_begin4
	.uleb128 Ltmp47-Ltmp35
	.byte	0
	.byte	0
	.uleb128 Ltmp47-Lfunc_begin4
	.uleb128 Ltmp48-Ltmp47
	.uleb128 Ltmp51-Lfunc_begin4
	.byte	0
	.uleb128 Ltmp48-Lfunc_begin4
	.uleb128 Ltmp44-Ltmp48
	.byte	0
	.byte	0
	.uleb128 Ltmp44-Lfunc_begin4
	.uleb128 Ltmp38-Ltmp44
	.uleb128 Ltmp46-Lfunc_begin4
	.byte	0
	.uleb128 Ltmp38-Lfunc_begin4
	.uleb128 Ltmp42-Ltmp38
	.byte	0
	.byte	0
	.uleb128 Ltmp42-Lfunc_begin4
	.uleb128 Ltmp43-Ltmp42
	.uleb128 Ltmp46-Lfunc_begin4
	.byte	0
	.uleb128 Ltmp39-Lfunc_begin4
	.uleb128 Ltmp40-Ltmp39
	.uleb128 Ltmp41-Lfunc_begin4
	.byte	0
	.uleb128 Ltmp40-Lfunc_begin4
	.uleb128 Lfunc_end4-Ltmp40
	.byte	0
	.byte	0
Lcst_end4:
	.p2align	2

	.section	__TEXT,__text,regular,pure_instructions
	.globl	__ZN144_$LT$syn..punctuated..Punctuated$LT$T$C$P$GT$$u20$as$u20$core..iter..traits..collect..FromIterator$LT$syn..punctuated..Pair$LT$T$C$P$GT$$GT$$GT$9from_iter17h6b028898e48f2260E
	.p2align	4, 0x90
__ZN144_$LT$syn..punctuated..Punctuated$LT$T$C$P$GT$$u20$as$u20$core..iter..traits..collect..FromIterator$LT$syn..punctuated..Pair$LT$T$C$P$GT$$GT$$GT$9from_iter17h6b028898e48f2260E:
Lfunc_begin5:
	.cfi_startproc
	.cfi_personality 155, _rust_eh_personality
	.cfi_lsda 16, Lexception5
	pushq	%rbp
	.cfi_def_cfa_offset 16
	.cfi_offset %rbp, -16
	movq	%rsp, %rbp
	.cfi_def_cfa_register %rbp
	subq	$176, %rsp
	movq	%rdi, %rax
	movb	$0, -17(%rbp)
	movb	$1, -17(%rbp)
Ltmp52:
	movq	%rdi, -160(%rbp)
	movq	%rsi, -168(%rbp)
	movq	%rax, -176(%rbp)
	callq	__ZN3syn10punctuated23Punctuated$LT$T$C$P$GT$3new17hcc927eef8c5cb90aE
Ltmp53:
	jmp	LBB30_2
LBB30_1:
	movq	-16(%rbp), %rdi
	callq	__Unwind_Resume
	ud2
LBB30_2:
	movb	$0, -17(%rbp)
	movl	$16, %ecx
	leaq	-152(%rbp), %rax
	movq	%rax, %rdi
	movq	-168(%rbp), %rsi
	rep;movsq (%rsi), %es:(%rdi)
Ltmp55:
	movq	-160(%rbp), %rdi
	movq	%rax, %rsi
	callq	__ZN138_$LT$syn..punctuated..Punctuated$LT$T$C$P$GT$$u20$as$u20$core..iter..traits..collect..Extend$LT$syn..punctuated..Pair$LT$T$C$P$GT$$GT$$GT$6extend17h5692f988004d420aE
Ltmp56:
	jmp	LBB30_3
LBB30_3:
	movq	-176(%rbp), %rax
	addq	$176, %rsp
	popq	%rbp
	retq
LBB30_4:
	movq	-160(%rbp), %rdi
	callq	__ZN4core3ptr13drop_in_place17hc52837421515a0d5E
	jmp	LBB30_6
LBB30_5:
	movb	$0, -17(%rbp)
	movq	-168(%rbp), %rdi
	callq	__ZN4core3ptr13drop_in_place17h1f4ec21dd957bb3cE
	jmp	LBB30_1
LBB30_6:
	testb	$1, -17(%rbp)
	jne	LBB30_5
	jmp	LBB30_1
LBB30_7:
Ltmp54:
	movq	%rax, -16(%rbp)
	movl	%edx, -8(%rbp)
	jmp	LBB30_6
LBB30_8:
Ltmp57:
	movq	%rax, -16(%rbp)
	movl	%edx, -8(%rbp)
	jmp	LBB30_4
Lfunc_end5:
	.cfi_endproc
	.section	__TEXT,__gcc_except_tab
	.p2align	2
GCC_except_table30:
Lexception5:
	.byte	255
	.byte	255
	.byte	1
	.uleb128 Lcst_end5-Lcst_begin5
Lcst_begin5:
	.uleb128 Ltmp52-Lfunc_begin5
	.uleb128 Ltmp53-Ltmp52
	.uleb128 Ltmp54-Lfunc_begin5
	.byte	0
	.uleb128 Ltmp53-Lfunc_begin5
	.uleb128 Ltmp55-Ltmp53
	.byte	0
	.byte	0
	.uleb128 Ltmp55-Lfunc_begin5
	.uleb128 Ltmp56-Ltmp55
	.uleb128 Ltmp57-Lfunc_begin5
	.byte	0
	.uleb128 Ltmp56-Lfunc_begin5
	.uleb128 Lfunc_end5-Ltmp56
	.byte	0
	.byte	0
Lcst_end5:
	.p2align	2

	.section	__TEXT,__text,regular,pure_instructions
	.p2align	4, 0x90
__ZN3std11collections4hash3map11RandomState3new17hefb2c234c985ddb4E:
	.cfi_startproc
	pushq	%rbp
	.cfi_def_cfa_offset 16
	.cfi_offset %rbp, -16
	movq	%rsp, %rbp
	.cfi_def_cfa_register %rbp
	subq	$16, %rsp
	movq	l___unnamed_5(%rip), %rdi
	callq	__ZN3std6thread5local17LocalKey$LT$T$GT$4with17h8ed6f151be042849E
	movq	%rax, -8(%rbp)
	movq	%rdx, -16(%rbp)
	movq	-8(%rbp), %rax
	movq	-16(%rbp), %rdx
	addq	$16, %rsp
	popq	%rbp
	retq
	.cfi_endproc

	.globl	__ZN3std11collections4hash3map11RandomState3new28_$u7b$$u7b$closure$u7d$$u7d$17h374897ac8404a468E
	.p2align	4, 0x90
__ZN3std11collections4hash3map11RandomState3new28_$u7b$$u7b$closure$u7d$$u7d$17h374897ac8404a468E:
	.cfi_startproc
	pushq	%rbp
	.cfi_def_cfa_offset 16
	.cfi_offset %rbp, -16
	movq	%rsp, %rbp
	.cfi_def_cfa_register %rbp
	subq	$64, %rsp
	movq	%rdi, -40(%rbp)
	callq	__ZN4core4cell13Cell$LT$T$GT$3get17h163805f64aa85b60E
	movq	%rax, -48(%rbp)
	movq	%rdx, -56(%rbp)
	movq	-48(%rbp), %rdi
	movl	$1, %esi
	callq	__ZN4core3num21_$LT$impl$u20$u64$GT$12wrapping_add17h59a81ce06c2779efE
	movq	%rax, -64(%rbp)
	movq	-64(%rbp), %rax
	movq	%rax, -16(%rbp)
	movq	-56(%rbp), %rcx
	movq	%rcx, -8(%rbp)
	movq	-16(%rbp), %rsi
	movq	-8(%rbp), %rdx
	movq	-40(%rbp), %rdi
	callq	__ZN4core4cell13Cell$LT$T$GT$3set17h7bcf9c8fd345860bE
	movq	-48(%rbp), %rax
	movq	%rax, -32(%rbp)
	movq	-56(%rbp), %rcx
	movq	%rcx, -24(%rbp)
	movq	-32(%rbp), %rax
	movq	-24(%rbp), %rdx
	addq	$64, %rsp
	popq	%rbp
	retq
	.cfi_endproc

	.globl	__ZN3std11collections4hash3map20HashMap$LT$K$C$V$GT$3new17h392620b8274dc10eE
	.p2align	4, 0x90
__ZN3std11collections4hash3map20HashMap$LT$K$C$V$GT$3new17h392620b8274dc10eE:
	.cfi_startproc
	pushq	%rbp
	.cfi_def_cfa_offset 16
	.cfi_offset %rbp, -16
	movq	%rsp, %rbp
	.cfi_def_cfa_register %rbp
	subq	$16, %rsp
	movq	%rdi, %rax
	movq	%rax, -8(%rbp)
	callq	__ZN96_$LT$std..collections..hash..map..HashMap$LT$K$C$V$C$S$GT$$u20$as$u20$core..default..Default$GT$7default17hb7d3d8a895198b66E
	movq	-8(%rbp), %rax
	addq	$16, %rsp
	popq	%rbp
	retq
	.cfi_endproc

	.globl	__ZN3std11collections4hash3map24HashMap$LT$K$C$V$C$S$GT$11with_hasher17hbeed0ef34a56d057E
	.p2align	4, 0x90
__ZN3std11collections4hash3map24HashMap$LT$K$C$V$C$S$GT$11with_hasher17hbeed0ef34a56d057E:
	.cfi_startproc
	pushq	%rbp
	.cfi_def_cfa_offset 16
	.cfi_offset %rbp, -16
	movq	%rsp, %rbp
	.cfi_def_cfa_register %rbp
	subq	$80, %rsp
	movq	%rdi, %rax
	leaq	-56(%rbp), %rcx
	movq	%rdi, -64(%rbp)
	movq	%rcx, %rdi
	movq	%rax, -72(%rbp)
	callq	__ZN9hashbrown3map24HashMap$LT$K$C$V$C$S$GT$11with_hasher17h3cf4dc1365379057E
	movq	-64(%rbp), %rax
	leaq	-56(%rbp), %rcx
	movq	%rax, %rdi
	movq	%rcx, %rsi
	movl	$56, %edx
	callq	_memcpy
	movq	-72(%rbp), %rax
	addq	$80, %rsp
	popq	%rbp
	retq
	.cfi_endproc

	.globl	__ZN3std11collections4hash3map24HashMap$LT$K$C$V$C$S$GT$12contains_key17hf23b82bdf6f2b9ddE
	.p2align	4, 0x90
__ZN3std11collections4hash3map24HashMap$LT$K$C$V$C$S$GT$12contains_key17hf23b82bdf6f2b9ddE:
	.cfi_startproc
	pushq	%rbp
	.cfi_def_cfa_offset 16
	.cfi_offset %rbp, -16
	movq	%rsp, %rbp
	.cfi_def_cfa_register %rbp
	subq	$16, %rsp
	callq	__ZN9hashbrown3map24HashMap$LT$K$C$V$C$S$GT$12contains_key17h9dc50026ebee48baE
	movb	%al, -1(%rbp)
	movb	-1(%rbp), %al
	andb	$1, %al
	movzbl	%al, %eax
	addq	$16, %rsp
	popq	%rbp
	retq
	.cfi_endproc

	.globl	__ZN3std11collections4hash3map24HashMap$LT$K$C$V$C$S$GT$6insert17ha01f2f83700f7110E
	.p2align	4, 0x90
__ZN3std11collections4hash3map24HashMap$LT$K$C$V$C$S$GT$6insert17ha01f2f83700f7110E:
	.cfi_startproc
	pushq	%rbp
	.cfi_def_cfa_offset 16
	.cfi_offset %rbp, -16
	movq	%rsp, %rbp
	.cfi_def_cfa_register %rbp
	subq	$208, %rsp
	leaq	-184(%rbp), %rax
	movq	%rax, %rcx
	movq	%rdi, -192(%rbp)
	movq	%rcx, %rdi
	movl	$184, %edx
	movq	%rax, -200(%rbp)
	callq	_memcpy
	movq	-192(%rbp), %rdi
	movq	-200(%rbp), %rsi
	callq	__ZN9hashbrown3map24HashMap$LT$K$C$V$C$S$GT$6insert17h091273045f486180E
	movb	%al, -201(%rbp)
	movb	-201(%rbp), %al
	andb	$1, %al
	movzbl	%al, %eax
	addq	$208, %rsp
	popq	%rbp
	retq
	.cfi_endproc

	.globl	__ZN3std11collections4hash3set16HashSet$LT$T$GT$3new17h9770d1551a9b9ca5E
	.p2align	4, 0x90
__ZN3std11collections4hash3set16HashSet$LT$T$GT$3new17h9770d1551a9b9ca5E:
	.cfi_startproc
	pushq	%rbp
	.cfi_def_cfa_offset 16
	.cfi_offset %rbp, -16
	movq	%rsp, %rbp
	.cfi_def_cfa_register %rbp
	subq	$80, %rsp
	movq	%rdi, %rax
	leaq	-56(%rbp), %rcx
	movq	%rdi, -64(%rbp)
	movq	%rcx, %rdi
	movq	%rax, -72(%rbp)
	callq	__ZN3std11collections4hash3map20HashMap$LT$K$C$V$GT$3new17h392620b8274dc10eE
	movq	-64(%rbp), %rax
	leaq	-56(%rbp), %rcx
	movq	%rax, %rdi
	movq	%rcx, %rsi
	movl	$56, %edx
	callq	_memcpy
	movq	-72(%rbp), %rax
	addq	$80, %rsp
	popq	%rbp
	retq
	.cfi_endproc

	.globl	__ZN3std11collections4hash3set20HashSet$LT$T$C$S$GT$6insert17hfe22f889a76e2e93E
	.p2align	4, 0x90
__ZN3std11collections4hash3set20HashSet$LT$T$C$S$GT$6insert17hfe22f889a76e2e93E:
	.cfi_startproc
	pushq	%rbp
	.cfi_def_cfa_offset 16
	.cfi_offset %rbp, -16
	movq	%rsp, %rbp
	.cfi_def_cfa_register %rbp
	subq	$224, %rsp
	leaq	-184(%rbp), %rax
	movq	%rax, %rcx
	movq	%rdi, -200(%rbp)
	movq	%rcx, %rdi
	movl	$184, %edx
	movq	%rax, -208(%rbp)
	callq	_memcpy
	movq	-200(%rbp), %rdi
	movq	-208(%rbp), %rsi
	callq	__ZN3std11collections4hash3map24HashMap$LT$K$C$V$C$S$GT$6insert17ha01f2f83700f7110E
	andb	$1, %al
	movb	%al, -185(%rbp)
	leaq	-185(%rbp), %rdi
	callq	__ZN4core6option15Option$LT$T$GT$7is_none17h1aad5e203ecf1f3cE
	movb	%al, -209(%rbp)
	movb	-209(%rbp), %al
	andb	$1, %al
	movzbl	%al, %eax
	addq	$224, %rsp
	popq	%rbp
	retq
	.cfi_endproc

	.globl	__ZN3std11collections4hash3set20HashSet$LT$T$C$S$GT$8contains17hfed49082054ebb2dE
	.p2align	4, 0x90
__ZN3std11collections4hash3set20HashSet$LT$T$C$S$GT$8contains17hfed49082054ebb2dE:
	.cfi_startproc
	pushq	%rbp
	.cfi_def_cfa_offset 16
	.cfi_offset %rbp, -16
	movq	%rsp, %rbp
	.cfi_def_cfa_register %rbp
	subq	$16, %rsp
	callq	__ZN3std11collections4hash3map24HashMap$LT$K$C$V$C$S$GT$12contains_key17hf23b82bdf6f2b9ddE
	movb	%al, -1(%rbp)
	movb	-1(%rbp), %al
	andb	$1, %al
	movzbl	%al, %eax
	addq	$16, %rsp
	popq	%rbp
	retq
	.cfi_endproc

	.globl	__ZN3std6thread5local17LocalKey$LT$T$GT$4with17h8ed6f151be042849E
	.p2align	4, 0x90
__ZN3std6thread5local17LocalKey$LT$T$GT$4with17h8ed6f151be042849E:
	.cfi_startproc
	pushq	%rbp
	.cfi_def_cfa_offset 16
	.cfi_offset %rbp, -16
	movq	%rsp, %rbp
	.cfi_def_cfa_register %rbp
	subq	$48, %rsp
	leaq	-24(%rbp), %rax
	movq	%rdi, -32(%rbp)
	movq	%rax, %rdi
	movq	-32(%rbp), %rsi
	callq	__ZN3std6thread5local17LocalKey$LT$T$GT$8try_with17h9fa3965b26ee9d2bE
	leaq	l___unnamed_6(%rip), %rax
	leaq	l___unnamed_7(%rip), %rcx
	leaq	-24(%rbp), %rdi
	movq	%rax, %rsi
	movl	$70, %edx
	callq	__ZN4core6result19Result$LT$T$C$E$GT$6expect17h0ae53837f372db40E
	movq	%rax, -40(%rbp)
	movq	%rdx, -48(%rbp)
	movq	-40(%rbp), %rax
	movq	-48(%rbp), %rdx
	addq	$48, %rsp
	popq	%rbp
	retq
	.cfi_endproc

	.globl	__ZN3std6thread5local17LocalKey$LT$T$GT$8try_with17h9fa3965b26ee9d2bE
	.p2align	4, 0x90
__ZN3std6thread5local17LocalKey$LT$T$GT$8try_with17h9fa3965b26ee9d2bE:
Lfunc_begin6:
	.cfi_startproc
	.cfi_personality 155, _rust_eh_personality
	.cfi_lsda 16, Lexception6
	pushq	%rbp
	.cfi_def_cfa_offset 16
	.cfi_offset %rbp, -16
	movq	%rsp, %rbp
	.cfi_def_cfa_register %rbp
	subq	$96, %rsp
	movq	%rdi, %rax
	movb	$0, -17(%rbp)
	movb	$1, -17(%rbp)
	movq	(%rsi), %rcx
Ltmp58:
	movq	%rdi, -48(%rbp)
	movq	%rax, -56(%rbp)
	callq	*%rcx
Ltmp59:
	movq	%rax, -64(%rbp)
	jmp	LBB41_2
LBB41_1:
	movq	-16(%rbp), %rdi
	callq	__Unwind_Resume
	ud2
LBB41_2:
Ltmp60:
	movq	-64(%rbp), %rdi
	callq	__ZN4core6option15Option$LT$T$GT$5ok_or17h85ebced76a2f3ddaE
Ltmp61:
	movq	%rax, -72(%rbp)
	jmp	LBB41_3
LBB41_3:
Ltmp62:
	movq	-72(%rbp), %rdi
	callq	__ZN73_$LT$core..result..Result$LT$T$C$E$GT$$u20$as$u20$core..ops..try..Try$GT$11into_result17hc610e1e17eb4872cE
Ltmp63:
	movq	%rax, -80(%rbp)
	jmp	LBB41_4
LBB41_4:
	movq	-80(%rbp), %rax
	movq	%rax, -40(%rbp)
	movq	-40(%rbp), %rcx
	testq	%rcx, %rcx
	sete	%dl
	movzbl	%dl, %esi
	movl	%esi, %ecx
	jne	LBB41_5
	jmp	LBB41_15
LBB41_15:
	jmp	LBB41_7
LBB41_5:
	movq	-40(%rbp), %rax
	movb	$0, -17(%rbp)
	movq	%rax, -32(%rbp)
	movq	-32(%rbp), %rdi
Ltmp68:
	callq	__ZN3std11collections4hash3map11RandomState3new28_$u7b$$u7b$closure$u7d$$u7d$17h374897ac8404a468E
Ltmp69:
	movq	%rdx, -88(%rbp)
	movq	%rax, -96(%rbp)
	jmp	LBB41_11
	ud2
LBB41_7:
Ltmp64:
	callq	__ZN50_$LT$T$u20$as$u20$core..convert..From$LT$T$GT$$GT$4from17h14c5362fead44bd2E
Ltmp65:
	jmp	LBB41_9
LBB41_8:
	movq	-56(%rbp), %rax
	addq	$96, %rsp
	popq	%rbp
	retq
LBB41_9:
Ltmp66:
	movq	-48(%rbp), %rdi
	callq	__ZN73_$LT$core..result..Result$LT$T$C$E$GT$$u20$as$u20$core..ops..try..Try$GT$10from_error17h29ed40f0d98ea1e7E
Ltmp67:
	jmp	LBB41_10
LBB41_10:
	movb	$0, -17(%rbp)
	jmp	LBB41_8
LBB41_11:
	movq	-48(%rbp), %rax
	movq	-96(%rbp), %rcx
	movq	%rcx, 8(%rax)
	movq	-88(%rbp), %rcx
	movq	%rcx, 16(%rax)
	movq	$0, (%rax)
	jmp	LBB41_8
LBB41_12:
	movb	$0, -17(%rbp)
	jmp	LBB41_1
LBB41_13:
	testb	$1, -17(%rbp)
	jne	LBB41_12
	jmp	LBB41_1
LBB41_14:
Ltmp70:
	movq	%rax, -16(%rbp)
	movl	%edx, -8(%rbp)
	jmp	LBB41_13
Lfunc_end6:
	.cfi_endproc
	.section	__TEXT,__gcc_except_tab
	.p2align	2
GCC_except_table41:
Lexception6:
	.byte	255
	.byte	255
	.byte	1
	.uleb128 Lcst_end6-Lcst_begin6
Lcst_begin6:
	.uleb128 Ltmp58-Lfunc_begin6
	.uleb128 Ltmp59-Ltmp58
	.uleb128 Ltmp70-Lfunc_begin6
	.byte	0
	.uleb128 Ltmp59-Lfunc_begin6
	.uleb128 Ltmp60-Ltmp59
	.byte	0
	.byte	0
	.uleb128 Ltmp60-Lfunc_begin6
	.uleb128 Ltmp67-Ltmp60
	.uleb128 Ltmp70-Lfunc_begin6
	.byte	0
Lcst_end6:
	.p2align	2

	.section	__TEXT,__text,regular,pure_instructions
	.globl	__ZN3syn10punctuated17Pair$LT$T$C$P$GT$10into_tuple17h0b96dcb4eaa360e7E
	.p2align	4, 0x90
__ZN3syn10punctuated17Pair$LT$T$C$P$GT$10into_tuple17h0b96dcb4eaa360e7E:
	.cfi_startproc
	pushq	%rbp
	.cfi_def_cfa_offset 16
	.cfi_offset %rbp, -16
	movq	%rsp, %rbp
	.cfi_def_cfa_register %rbp
	subq	$40, %rsp
	movq	(%rdi), %rax
	testq	%rax, %rax
	movq	%rdi, -40(%rbp)
	je	LBB42_3
	jmp	LBB42_5
LBB42_5:
	movq	-40(%rbp), %rax
	movq	8(%rax), %rcx
	movq	$0, -8(%rbp)
	movq	%rcx, -32(%rbp)
	movq	-8(%rbp), %rcx
	movq	%rcx, -24(%rbp)
	jmp	LBB42_4
	ud2
LBB42_3:
	movq	-40(%rbp), %rax
	movq	8(%rax), %rcx
	movq	16(%rax), %rdx
	movq	%rdx, -16(%rbp)
	movq	%rcx, -32(%rbp)
	movq	-16(%rbp), %rcx
	movq	%rcx, -24(%rbp)
LBB42_4:
	movq	-32(%rbp), %rax
	movq	-24(%rbp), %rdx
	addq	$40, %rsp
	popq	%rbp
	retq
	.cfi_endproc

	.globl	__ZN3syn10punctuated17Pair$LT$T$C$P$GT$10into_tuple17h1d35372dde1a548fE
	.p2align	4, 0x90
__ZN3syn10punctuated17Pair$LT$T$C$P$GT$10into_tuple17h1d35372dde1a548fE:
	.cfi_startproc
	pushq	%rbp
	.cfi_def_cfa_offset 16
	.cfi_offset %rbp, -16
	movq	%rsp, %rbp
	.cfi_def_cfa_register %rbp
	subq	$40, %rsp
	movq	(%rdi), %rax
	testq	%rax, %rax
	movq	%rdi, -40(%rbp)
	je	LBB43_3
	jmp	LBB43_5
LBB43_5:
	movq	-40(%rbp), %rax
	movq	8(%rax), %rcx
	movq	$0, -8(%rbp)
	movq	%rcx, -32(%rbp)
	movq	-8(%rbp), %rcx
	movq	%rcx, -24(%rbp)
	jmp	LBB43_4
	ud2
LBB43_3:
	movq	-40(%rbp), %rax
	movq	8(%rax), %rcx
	movq	16(%rax), %rdx
	movq	%rdx, -16(%rbp)
	movq	%rcx, -32(%rbp)
	movq	-16(%rbp), %rcx
	movq	%rcx, -24(%rbp)
LBB43_4:
	movq	-32(%rbp), %rax
	movq	-24(%rbp), %rdx
	addq	$40, %rsp
	popq	%rbp
	retq
	.cfi_endproc

	.globl	__ZN3syn10punctuated17Pair$LT$T$C$P$GT$10into_tuple17h2115d48d695690d2E
	.p2align	4, 0x90
__ZN3syn10punctuated17Pair$LT$T$C$P$GT$10into_tuple17h2115d48d695690d2E:
	.cfi_startproc
	pushq	%rbp
	.cfi_def_cfa_offset 16
	.cfi_offset %rbp, -16
	movq	%rsp, %rbp
	.cfi_def_cfa_register %rbp
	subq	$40, %rsp
	movq	(%rdi), %rax
	testq	%rax, %rax
	movq	%rdi, -40(%rbp)
	je	LBB44_3
	jmp	LBB44_5
LBB44_5:
	movq	-40(%rbp), %rax
	movq	8(%rax), %rcx
	movq	$0, -8(%rbp)
	movq	%rcx, -32(%rbp)
	movq	-8(%rbp), %rcx
	movq	%rcx, -24(%rbp)
	jmp	LBB44_4
	ud2
LBB44_3:
	movq	-40(%rbp), %rax
	movq	8(%rax), %rcx
	movq	16(%rax), %rdx
	movq	%rdx, -16(%rbp)
	movq	%rcx, -32(%rbp)
	movq	-16(%rbp), %rcx
	movq	%rcx, -24(%rbp)
LBB44_4:
	movq	-32(%rbp), %rax
	movq	-24(%rbp), %rdx
	addq	$40, %rsp
	popq	%rbp
	retq
	.cfi_endproc

	.globl	__ZN3syn10punctuated17Pair$LT$T$C$P$GT$10into_tuple17h4c9c5186240ebe86E
	.p2align	4, 0x90
__ZN3syn10punctuated17Pair$LT$T$C$P$GT$10into_tuple17h4c9c5186240ebe86E:
	.cfi_startproc
	pushq	%rbp
	.cfi_def_cfa_offset 16
	.cfi_offset %rbp, -16
	movq	%rsp, %rbp
	.cfi_def_cfa_register %rbp
	subq	$40, %rsp
	movq	(%rdi), %rax
	testq	%rax, %rax
	movq	%rdi, -40(%rbp)
	je	LBB45_3
	jmp	LBB45_5
LBB45_5:
	movq	-40(%rbp), %rax
	movq	8(%rax), %rcx
	movq	$0, -8(%rbp)
	movq	%rcx, -32(%rbp)
	movq	-8(%rbp), %rcx
	movq	%rcx, -24(%rbp)
	jmp	LBB45_4
	ud2
LBB45_3:
	movq	-40(%rbp), %rax
	movq	8(%rax), %rcx
	movq	16(%rax), %rdx
	movq	%rdx, -16(%rbp)
	movq	%rcx, -32(%rbp)
	movq	-16(%rbp), %rcx
	movq	%rcx, -24(%rbp)
LBB45_4:
	movq	-32(%rbp), %rax
	movq	-24(%rbp), %rdx
	addq	$40, %rsp
	popq	%rbp
	retq
	.cfi_endproc

	.globl	__ZN3syn10punctuated17Pair$LT$T$C$P$GT$10into_tuple17h7595410eaa66d810E
	.p2align	4, 0x90
__ZN3syn10punctuated17Pair$LT$T$C$P$GT$10into_tuple17h7595410eaa66d810E:
	.cfi_startproc
	pushq	%rbp
	.cfi_def_cfa_offset 16
	.cfi_offset %rbp, -16
	movq	%rsp, %rbp
	.cfi_def_cfa_register %rbp
	subq	$40, %rsp
	movq	(%rdi), %rax
	testq	%rax, %rax
	movq	%rdi, -40(%rbp)
	je	LBB46_3
	jmp	LBB46_5
LBB46_5:
	movq	-40(%rbp), %rax
	movq	8(%rax), %rcx
	movq	$0, -8(%rbp)
	movq	%rcx, -32(%rbp)
	movq	-8(%rbp), %rcx
	movq	%rcx, -24(%rbp)
	jmp	LBB46_4
	ud2
LBB46_3:
	movq	-40(%rbp), %rax
	movq	8(%rax), %rcx
	movq	16(%rax), %rdx
	movq	%rdx, -16(%rbp)
	movq	%rcx, -32(%rbp)
	movq	-16(%rbp), %rcx
	movq	%rcx, -24(%rbp)
LBB46_4:
	movq	-32(%rbp), %rax
	movq	-24(%rbp), %rdx
	addq	$40, %rsp
	popq	%rbp
	retq
	.cfi_endproc

	.globl	__ZN3syn10punctuated17Pair$LT$T$C$P$GT$10into_tuple17h82d401df63f5d736E
	.p2align	4, 0x90
__ZN3syn10punctuated17Pair$LT$T$C$P$GT$10into_tuple17h82d401df63f5d736E:
	.cfi_startproc
	pushq	%rbp
	.cfi_def_cfa_offset 16
	.cfi_offset %rbp, -16
	movq	%rsp, %rbp
	.cfi_def_cfa_register %rbp
	subq	$40, %rsp
	movq	(%rdi), %rax
	testq	%rax, %rax
	movq	%rdi, -40(%rbp)
	je	LBB47_3
	jmp	LBB47_5
LBB47_5:
	movq	-40(%rbp), %rax
	movq	8(%rax), %rcx
	movq	$0, -8(%rbp)
	movq	%rcx, -32(%rbp)
	movq	-8(%rbp), %rcx
	movq	%rcx, -24(%rbp)
	jmp	LBB47_4
	ud2
LBB47_3:
	movq	-40(%rbp), %rax
	movq	8(%rax), %rcx
	movq	16(%rax), %rdx
	movq	%rdx, -16(%rbp)
	movq	%rcx, -32(%rbp)
	movq	-16(%rbp), %rcx
	movq	%rcx, -24(%rbp)
LBB47_4:
	movq	-32(%rbp), %rax
	movq	-24(%rbp), %rdx
	addq	$40, %rsp
	popq	%rbp
	retq
	.cfi_endproc

	.globl	__ZN3syn10punctuated17Pair$LT$T$C$P$GT$10into_tuple17hbce709889ef7d754E
	.p2align	4, 0x90
__ZN3syn10punctuated17Pair$LT$T$C$P$GT$10into_tuple17hbce709889ef7d754E:
	.cfi_startproc
	pushq	%rbp
	.cfi_def_cfa_offset 16
	.cfi_offset %rbp, -16
	movq	%rsp, %rbp
	.cfi_def_cfa_register %rbp
	subq	$40, %rsp
	movq	(%rdi), %rax
	testq	%rax, %rax
	movq	%rdi, -40(%rbp)
	je	LBB48_3
	jmp	LBB48_5
LBB48_5:
	movq	-40(%rbp), %rax
	movq	8(%rax), %rcx
	movq	$0, -8(%rbp)
	movq	%rcx, -32(%rbp)
	movq	-8(%rbp), %rcx
	movq	%rcx, -24(%rbp)
	jmp	LBB48_4
	ud2
LBB48_3:
	movq	-40(%rbp), %rax
	movq	8(%rax), %rcx
	movq	16(%rax), %rdx
	movq	%rdx, -16(%rbp)
	movq	%rcx, -32(%rbp)
	movq	-16(%rbp), %rcx
	movq	%rcx, -24(%rbp)
LBB48_4:
	movq	-32(%rbp), %rax
	movq	-24(%rbp), %rdx
	addq	$40, %rsp
	popq	%rbp
	retq
	.cfi_endproc

	.globl	__ZN3syn10punctuated17Pair$LT$T$C$P$GT$10into_tuple17he3631bdd10590eaaE
	.p2align	4, 0x90
__ZN3syn10punctuated17Pair$LT$T$C$P$GT$10into_tuple17he3631bdd10590eaaE:
	.cfi_startproc
	pushq	%rbp
	.cfi_def_cfa_offset 16
	.cfi_offset %rbp, -16
	movq	%rsp, %rbp
	.cfi_def_cfa_register %rbp
	subq	$40, %rsp
	movq	(%rdi), %rax
	testq	%rax, %rax
	movq	%rdi, -40(%rbp)
	je	LBB49_3
	jmp	LBB49_5
LBB49_5:
	movq	-40(%rbp), %rax
	movq	8(%rax), %rcx
	movq	$0, -8(%rbp)
	movq	%rcx, -32(%rbp)
	movq	-8(%rbp), %rcx
	movq	%rcx, -24(%rbp)
	jmp	LBB49_4
	ud2
LBB49_3:
	movq	-40(%rbp), %rax
	movq	8(%rax), %rcx
	movq	16(%rax), %rdx
	movq	%rdx, -16(%rbp)
	movq	%rcx, -32(%rbp)
	movq	-16(%rbp), %rcx
	movq	%rcx, -24(%rbp)
LBB49_4:
	movq	-32(%rbp), %rax
	movq	-24(%rbp), %rdx
	addq	$40, %rsp
	popq	%rbp
	retq
	.cfi_endproc

	.globl	__ZN3syn10punctuated23Punctuated$LT$T$C$P$GT$3len17h4f4f4513b793a7b9E
	.p2align	4, 0x90
__ZN3syn10punctuated23Punctuated$LT$T$C$P$GT$3len17h4f4f4513b793a7b9E:
	.cfi_startproc
	pushq	%rbp
	.cfi_def_cfa_offset 16
	.cfi_offset %rbp, -16
	movq	%rsp, %rbp
	.cfi_def_cfa_register %rbp
	subq	$48, %rsp
	movq	%rdi, %rax
	movq	%rdi, -16(%rbp)
	movq	%rax, %rdi
	callq	__ZN5alloc3vec12Vec$LT$T$GT$3len17he0c6339cf214f0c3E
	movq	%rax, -24(%rbp)
	movq	-16(%rbp), %rax
	addq	$24, %rax
	movq	%rax, %rdi
	callq	__ZN4core6option15Option$LT$T$GT$7is_some17h975520c04b3908c0E
	movb	%al, -25(%rbp)
	movb	-25(%rbp), %al
	testb	$1, %al
	jne	LBB50_4
	jmp	LBB50_3
LBB50_3:
	movq	$0, -8(%rbp)
	jmp	LBB50_5
LBB50_4:
	movq	$1, -8(%rbp)
LBB50_5:
	movq	-24(%rbp), %rax
	addq	-8(%rbp), %rax
	setb	%cl
	testb	$1, %cl
	movq	%rax, -40(%rbp)
	jne	LBB50_7
	movq	-40(%rbp), %rax
	addq	$48, %rsp
	popq	%rbp
	retq
LBB50_7:
	leaq	_str.0(%rip), %rdi
	leaq	l___unnamed_8(%rip), %rdx
	movl	$28, %esi
	callq	__ZN4core9panicking5panic17h383a6b80ea7021aaE
	.cfi_endproc

	.globl	__ZN3syn10punctuated23Punctuated$LT$T$C$P$GT$4iter17h981842669603e93aE
	.p2align	4, 0x90
__ZN3syn10punctuated23Punctuated$LT$T$C$P$GT$4iter17h981842669603e93aE:
	.cfi_startproc
	pushq	%rbp
	.cfi_def_cfa_offset 16
	.cfi_offset %rbp, -16
	movq	%rsp, %rbp
	.cfi_def_cfa_register %rbp
	subq	$112, %rsp
	movq	%rdi, %rax
	movq	%rdi, -48(%rbp)
	movq	%rax, %rdi
	callq	__ZN68_$LT$alloc..vec..Vec$LT$T$GT$$u20$as$u20$core..ops..deref..Deref$GT$5deref17hb7b3b9dea862dd97E
	movq	%rax, -56(%rbp)
	movq	%rdx, -64(%rbp)
	movq	-56(%rbp), %rdi
	movq	-64(%rbp), %rsi
	callq	__ZN4core5slice29_$LT$impl$u20$$u5b$T$u5d$$GT$4iter17hc8e71f2d49894f06E
	movq	%rax, -72(%rbp)
	movq	%rdx, -80(%rbp)
	movq	-48(%rbp), %rax
	addq	$24, %rax
	movq	%rax, %rdi
	callq	__ZN4core6option15Option$LT$T$GT$6as_ref17h213a9ccd02c75e5eE
	movq	%rax, -88(%rbp)
	movq	-88(%rbp), %rdi
	callq	__ZN4core6option15Option$LT$T$GT$3map17h622c194dd65a522eE
	movq	%rax, -96(%rbp)
	movq	-96(%rbp), %rdi
	callq	__ZN91_$LT$core..option..Option$LT$T$GT$$u20$as$u20$core..iter..traits..collect..IntoIterator$GT$9into_iter17h94bf7dba115664dbE
	movq	%rax, -104(%rbp)
	movq	-72(%rbp), %rax
	movq	%rax, -24(%rbp)
	movq	-80(%rbp), %rcx
	movq	%rcx, -16(%rbp)
	movq	-104(%rbp), %rdx
	movq	%rdx, -8(%rbp)
	movl	$24, %edi
	movl	$8, %esi
	callq	__ZN5alloc5alloc15exchange_malloc17h474238982ffc5d0bE
	movq	%rax, %rcx
	movq	-24(%rbp), %rdx
	movq	%rdx, (%rax)
	movq	-16(%rbp), %rdx
	movq	%rdx, 8(%rax)
	movq	-8(%rbp), %rdx
	movq	%rdx, 16(%rax)
	movq	%rcx, -112(%rbp)
	movq	-112(%rbp), %rax
	movq	%rax, -40(%rbp)
	leaq	l___unnamed_9(%rip), %rcx
	movq	%rcx, -32(%rbp)
	movq	-40(%rbp), %rax
	movq	-32(%rbp), %rdx
	addq	$112, %rsp
	popq	%rbp
	retq
	.cfi_endproc

	.globl	__ZN3syn10punctuated23Punctuated$LT$T$C$P$GT$4iter17h9b65852c77c36ac3E
	.p2align	4, 0x90
__ZN3syn10punctuated23Punctuated$LT$T$C$P$GT$4iter17h9b65852c77c36ac3E:
	.cfi_startproc
	pushq	%rbp
	.cfi_def_cfa_offset 16
	.cfi_offset %rbp, -16
	movq	%rsp, %rbp
	.cfi_def_cfa_register %rbp
	subq	$112, %rsp
	movq	%rdi, %rax
	movq	%rdi, -48(%rbp)
	movq	%rax, %rdi
	callq	__ZN68_$LT$alloc..vec..Vec$LT$T$GT$$u20$as$u20$core..ops..deref..Deref$GT$5deref17h534ffee81655bdc0E
	movq	%rax, -56(%rbp)
	movq	%rdx, -64(%rbp)
	movq	-56(%rbp), %rdi
	movq	-64(%rbp), %rsi
	callq	__ZN4core5slice29_$LT$impl$u20$$u5b$T$u5d$$GT$4iter17he1f37720227b0195E
	movq	%rax, -72(%rbp)
	movq	%rdx, -80(%rbp)
	movq	-48(%rbp), %rax
	addq	$24, %rax
	movq	%rax, %rdi
	callq	__ZN4core6option15Option$LT$T$GT$6as_ref17h5bf5be5762cbd5daE
	movq	%rax, -88(%rbp)
	movq	-88(%rbp), %rdi
	callq	__ZN4core6option15Option$LT$T$GT$3map17hf5022f136c848360E
	movq	%rax, -96(%rbp)
	movq	-96(%rbp), %rdi
	callq	__ZN91_$LT$core..option..Option$LT$T$GT$$u20$as$u20$core..iter..traits..collect..IntoIterator$GT$9into_iter17h27cf6d685cd65056E
	movq	%rax, -104(%rbp)
	movq	-72(%rbp), %rax
	movq	%rax, -24(%rbp)
	movq	-80(%rbp), %rcx
	movq	%rcx, -16(%rbp)
	movq	-104(%rbp), %rdx
	movq	%rdx, -8(%rbp)
	movl	$24, %edi
	movl	$8, %esi
	callq	__ZN5alloc5alloc15exchange_malloc17h474238982ffc5d0bE
	movq	%rax, %rcx
	movq	-24(%rbp), %rdx
	movq	%rdx, (%rax)
	movq	-16(%rbp), %rdx
	movq	%rdx, 8(%rax)
	movq	-8(%rbp), %rdx
	movq	%rdx, 16(%rax)
	movq	%rcx, -112(%rbp)
	movq	-112(%rbp), %rax
	movq	%rax, -40(%rbp)
	leaq	l___unnamed_10(%rip), %rcx
	movq	%rcx, -32(%rbp)
	movq	-40(%rbp), %rax
	movq	-32(%rbp), %rdx
	addq	$112, %rsp
	popq	%rbp
	retq
	.cfi_endproc

	.globl	__ZN3syn10punctuated23Punctuated$LT$T$C$P$GT$4push17h9cea68ec854f8f0bE
	.p2align	4, 0x90
__ZN3syn10punctuated23Punctuated$LT$T$C$P$GT$4push17h9cea68ec854f8f0bE:
Lfunc_begin7:
	.cfi_startproc
	.cfi_personality 155, _rust_eh_personality
	.cfi_lsda 16, Lexception7
	pushq	%rbp
	.cfi_def_cfa_offset 16
	.cfi_offset %rbp, -16
	movq	%rsp, %rbp
	.cfi_def_cfa_register %rbp
	subq	$464, %rsp
	movb	$0, -25(%rbp)
	movb	$1, -25(%rbp)
Ltmp71:
	movq	%rdi, -432(%rbp)
	movq	%rsi, -440(%rbp)
	callq	__ZN3syn10punctuated23Punctuated$LT$T$C$P$GT$17empty_or_trailing17h25d65f1b54033f9dE
Ltmp72:
	movb	%al, -441(%rbp)
	jmp	LBB53_2
LBB53_1:
	movq	-24(%rbp), %rdi
	callq	__Unwind_Resume
	ud2
LBB53_2:
	movb	-441(%rbp), %al
	xorb	$-1, %al
	testb	$1, %al
	jne	LBB53_4
	jmp	LBB53_7
LBB53_4:
Ltmp73:
	callq	__ZN60_$LT$syn..token..Comma$u20$as$u20$core..default..Default$GT$7default17h3823d841d6adbe9bE
Ltmp74:
	movl	%eax, -448(%rbp)
	jmp	LBB53_5
LBB53_5:
	movl	-448(%rbp), %eax
	movl	%eax, -4(%rbp)
	movl	-4(%rbp), %ecx
	movl	%ecx, -424(%rbp)
	movl	-424(%rbp), %esi
Ltmp75:
	movq	-432(%rbp), %rdi
	callq	__ZN3syn10punctuated23Punctuated$LT$T$C$P$GT$10push_punct17h5569e578163b6c03E
Ltmp76:
	jmp	LBB53_6
LBB53_6:
	jmp	LBB53_7
LBB53_7:
	movb	$0, -25(%rbp)
	leaq	-416(%rbp), %rax
	movl	$384, %edx
	movq	%rax, %rdi
	movq	-440(%rbp), %rsi
	movq	%rax, -456(%rbp)
	callq	_memcpy
Ltmp77:
	movq	-432(%rbp), %rdi
	movq	-456(%rbp), %rsi
	movq	%rax, -464(%rbp)
	callq	__ZN3syn10punctuated23Punctuated$LT$T$C$P$GT$10push_value17h2febe24ad8dfc4d2E
Ltmp78:
	jmp	LBB53_8
LBB53_8:
	addq	$464, %rsp
	popq	%rbp
	retq
LBB53_9:
	movb	$0, -25(%rbp)
	movq	-440(%rbp), %rdi
	callq	__ZN4core3ptr13drop_in_place17hc8e4d7a17d7460bcE
	jmp	LBB53_1
LBB53_10:
	testb	$1, -25(%rbp)
	jne	LBB53_9
	jmp	LBB53_1
LBB53_11:
Ltmp79:
	movq	%rax, -24(%rbp)
	movl	%edx, -16(%rbp)
	jmp	LBB53_10
Lfunc_end7:
	.cfi_endproc
	.section	__TEXT,__gcc_except_tab
	.p2align	2
GCC_except_table53:
Lexception7:
	.byte	255
	.byte	255
	.byte	1
	.uleb128 Lcst_end7-Lcst_begin7
Lcst_begin7:
	.uleb128 Ltmp71-Lfunc_begin7
	.uleb128 Ltmp72-Ltmp71
	.uleb128 Ltmp79-Lfunc_begin7
	.byte	0
	.uleb128 Ltmp72-Lfunc_begin7
	.uleb128 Ltmp73-Ltmp72
	.byte	0
	.byte	0
	.uleb128 Ltmp73-Lfunc_begin7
	.uleb128 Ltmp76-Ltmp73
	.uleb128 Ltmp79-Lfunc_begin7
	.byte	0
	.uleb128 Ltmp76-Lfunc_begin7
	.uleb128 Ltmp77-Ltmp76
	.byte	0
	.byte	0
	.uleb128 Ltmp77-Lfunc_begin7
	.uleb128 Ltmp78-Ltmp77
	.uleb128 Ltmp79-Lfunc_begin7
	.byte	0
	.uleb128 Ltmp78-Lfunc_begin7
	.uleb128 Lfunc_end7-Ltmp78
	.byte	0
	.byte	0
Lcst_end7:
	.p2align	2

	.section	__TEXT,__text,regular,pure_instructions
	.globl	__ZN3syn10punctuated23Punctuated$LT$T$C$P$GT$4push17hd5cb41af287e1da7E
	.p2align	4, 0x90
__ZN3syn10punctuated23Punctuated$LT$T$C$P$GT$4push17hd5cb41af287e1da7E:
Lfunc_begin8:
	.cfi_startproc
	.cfi_personality 155, _rust_eh_personality
	.cfi_lsda 16, Lexception8
	pushq	%rbp
	.cfi_def_cfa_offset 16
	.cfi_offset %rbp, -16
	movq	%rsp, %rbp
	.cfi_def_cfa_register %rbp
	subq	$464, %rsp
	movb	$0, -25(%rbp)
	movb	$1, -25(%rbp)
Ltmp80:
	movq	%rdi, -432(%rbp)
	movq	%rsi, -440(%rbp)
	callq	__ZN3syn10punctuated23Punctuated$LT$T$C$P$GT$17empty_or_trailing17hb00daa22898dfb82E
Ltmp81:
	movb	%al, -441(%rbp)
	jmp	LBB54_2
LBB54_1:
	movq	-24(%rbp), %rdi
	callq	__Unwind_Resume
	ud2
LBB54_2:
	movb	-441(%rbp), %al
	xorb	$-1, %al
	testb	$1, %al
	jne	LBB54_4
	jmp	LBB54_7
LBB54_4:
Ltmp82:
	callq	__ZN60_$LT$syn..token..Comma$u20$as$u20$core..default..Default$GT$7default17h3823d841d6adbe9bE
Ltmp83:
	movl	%eax, -448(%rbp)
	jmp	LBB54_5
LBB54_5:
	movl	-448(%rbp), %eax
	movl	%eax, -4(%rbp)
	movl	-4(%rbp), %ecx
	movl	%ecx, -424(%rbp)
	movl	-424(%rbp), %esi
Ltmp84:
	movq	-432(%rbp), %rdi
	callq	__ZN3syn10punctuated23Punctuated$LT$T$C$P$GT$10push_punct17ha2945ac68cc95614E
Ltmp85:
	jmp	LBB54_6
LBB54_6:
	jmp	LBB54_7
LBB54_7:
	movb	$0, -25(%rbp)
	leaq	-416(%rbp), %rax
	movl	$384, %edx
	movq	%rax, %rdi
	movq	-440(%rbp), %rsi
	movq	%rax, -456(%rbp)
	callq	_memcpy
Ltmp86:
	movq	-432(%rbp), %rdi
	movq	-456(%rbp), %rsi
	movq	%rax, -464(%rbp)
	callq	__ZN3syn10punctuated23Punctuated$LT$T$C$P$GT$10push_value17h65d9e4c487af2585E
Ltmp87:
	jmp	LBB54_8
LBB54_8:
	addq	$464, %rsp
	popq	%rbp
	retq
LBB54_9:
	movb	$0, -25(%rbp)
	movq	-440(%rbp), %rdi
	callq	__ZN4core3ptr13drop_in_place17hfeda7e631319c5c0E
	jmp	LBB54_1
LBB54_10:
	testb	$1, -25(%rbp)
	jne	LBB54_9
	jmp	LBB54_1
LBB54_11:
Ltmp88:
	movq	%rax, -24(%rbp)
	movl	%edx, -16(%rbp)
	jmp	LBB54_10
Lfunc_end8:
	.cfi_endproc
	.section	__TEXT,__gcc_except_tab
	.p2align	2
GCC_except_table54:
Lexception8:
	.byte	255
	.byte	255
	.byte	1
	.uleb128 Lcst_end8-Lcst_begin8
Lcst_begin8:
	.uleb128 Ltmp80-Lfunc_begin8
	.uleb128 Ltmp81-Ltmp80
	.uleb128 Ltmp88-Lfunc_begin8
	.byte	0
	.uleb128 Ltmp81-Lfunc_begin8
	.uleb128 Ltmp82-Ltmp81
	.byte	0
	.byte	0
	.uleb128 Ltmp82-Lfunc_begin8
	.uleb128 Ltmp85-Ltmp82
	.uleb128 Ltmp88-Lfunc_begin8
	.byte	0
	.uleb128 Ltmp85-Lfunc_begin8
	.uleb128 Ltmp86-Ltmp85
	.byte	0
	.byte	0
	.uleb128 Ltmp86-Lfunc_begin8
	.uleb128 Ltmp87-Ltmp86
	.uleb128 Ltmp88-Lfunc_begin8
	.byte	0
	.uleb128 Ltmp87-Lfunc_begin8
	.uleb128 Lfunc_end8-Ltmp87
	.byte	0
	.byte	0
Lcst_end8:
	.p2align	2

	.section	__TEXT,__text,regular,pure_instructions
	.globl	__ZN3syn10punctuated23Punctuated$LT$T$C$P$GT$5first17h8023b033b7a1f177E
	.p2align	4, 0x90
__ZN3syn10punctuated23Punctuated$LT$T$C$P$GT$5first17h8023b033b7a1f177E:
Lfunc_begin9:
	.cfi_startproc
	.cfi_personality 155, _rust_eh_personality
	.cfi_lsda 16, Lexception9
	pushq	%rbp
	.cfi_def_cfa_offset 16
	.cfi_offset %rbp, -16
	movq	%rsp, %rbp
	.cfi_def_cfa_register %rbp
	subq	$48, %rsp
	callq	__ZN3syn10punctuated23Punctuated$LT$T$C$P$GT$4iter17h561c4560d88a8ecaE
	movq	%rdx, -24(%rbp)
	movq	%rax, -32(%rbp)
	jmp	LBB55_2
LBB55_1:
	movq	-16(%rbp), %rdi
	callq	__Unwind_Resume
	ud2
LBB55_2:
Ltmp89:
	leaq	-32(%rbp), %rdi
	callq	__ZN89_$LT$syn..punctuated..Iter$LT$T$GT$$u20$as$u20$core..iter..traits..iterator..Iterator$GT$4next17h691fc7e04ed23ad6E
Ltmp90:
	movq	%rax, -40(%rbp)
	jmp	LBB55_3
LBB55_3:
	leaq	-32(%rbp), %rdi
	callq	__ZN4core3ptr13drop_in_place17hffe6aa32cf7715edE
	jmp	LBB55_5
LBB55_4:
	leaq	-32(%rbp), %rdi
	callq	__ZN4core3ptr13drop_in_place17hffe6aa32cf7715edE
	jmp	LBB55_1
LBB55_5:
	movq	-40(%rbp), %rax
	addq	$48, %rsp
	popq	%rbp
	retq
LBB55_6:
Ltmp91:
	movq	%rax, -16(%rbp)
	movl	%edx, -8(%rbp)
	jmp	LBB55_4
Lfunc_end9:
	.cfi_endproc
	.section	__TEXT,__gcc_except_tab
	.p2align	2
GCC_except_table55:
Lexception9:
	.byte	255
	.byte	255
	.byte	1
	.uleb128 Lcst_end9-Lcst_begin9
Lcst_begin9:
	.uleb128 Lfunc_begin9-Lfunc_begin9
	.uleb128 Ltmp89-Lfunc_begin9
	.byte	0
	.byte	0
	.uleb128 Ltmp89-Lfunc_begin9
	.uleb128 Ltmp90-Ltmp89
	.uleb128 Ltmp91-Lfunc_begin9
	.byte	0
	.uleb128 Ltmp90-Lfunc_begin9
	.uleb128 Lfunc_end9-Ltmp90
	.byte	0
	.byte	0
Lcst_end9:
	.p2align	2

	.section	__TEXT,__text,regular,pure_instructions
	.globl	__ZN3syn3gen5visit10visit_expr17h3400edaed82931f3E
	.p2align	4, 0x90
__ZN3syn3gen5visit10visit_expr17h3400edaed82931f3E:
	.cfi_startproc
	pushq	%rbp
	.cfi_def_cfa_offset 16
	.cfi_offset %rbp, -16
	movq	%rsp, %rbp
	.cfi_def_cfa_register %rbp
	subq	$32, %rsp
	movq	(%rsi), %rax
	movq	%rax, %rcx
	subq	$39, %rcx
	movq	%rdi, -16(%rbp)
	movq	%rsi, -24(%rbp)
	movq	%rax, -32(%rbp)
	ja	LBB56_1
	leaq	LJTI56_0(%rip), %rax
	movq	-32(%rbp), %rcx
	movslq	(%rax,%rcx,4), %rdx
	addq	%rax, %rdx
	jmpq	*%rdx
LBB56_1:
	leaq	l___unnamed_11(%rip), %rdi
	leaq	l___unnamed_3(%rip), %rdx
	movl	$40, %esi
	callq	__ZN3std9panicking11begin_panic17h673c1ec0952ac37bE
LBB56_2:
	leaq	l___unnamed_11(%rip), %rdi
	leaq	l___unnamed_3(%rip), %rdx
	movl	$40, %esi
	callq	__ZN3std9panicking11begin_panic17h673c1ec0952ac37bE
LBB56_3:
	leaq	l___unnamed_11(%rip), %rdi
	leaq	l___unnamed_3(%rip), %rdx
	movl	$40, %esi
	callq	__ZN3std9panicking11begin_panic17h673c1ec0952ac37bE
LBB56_4:
	leaq	l___unnamed_11(%rip), %rdi
	leaq	l___unnamed_3(%rip), %rdx
	movl	$40, %esi
	callq	__ZN3std9panicking11begin_panic17h673c1ec0952ac37bE
LBB56_5:
	leaq	l___unnamed_11(%rip), %rdi
	leaq	l___unnamed_3(%rip), %rdx
	movl	$40, %esi
	callq	__ZN3std9panicking11begin_panic17h673c1ec0952ac37bE
LBB56_6:
	leaq	l___unnamed_11(%rip), %rdi
	leaq	l___unnamed_3(%rip), %rdx
	movl	$40, %esi
	callq	__ZN3std9panicking11begin_panic17h673c1ec0952ac37bE
LBB56_7:
	movq	-24(%rbp), %rax
	addq	$8, %rax
	movq	-16(%rbp), %rdi
	movq	%rax, %rsi
	callq	__ZN3syn3gen5visit5Visit17visit_expr_binary17h4ca082e1f1839951E
	jmp	LBB56_51
LBB56_9:
	leaq	l___unnamed_11(%rip), %rdi
	leaq	l___unnamed_3(%rip), %rdx
	movl	$40, %esi
	callq	__ZN3std9panicking11begin_panic17h673c1ec0952ac37bE
LBB56_10:
	leaq	l___unnamed_11(%rip), %rdi
	leaq	l___unnamed_3(%rip), %rdx
	movl	$40, %esi
	callq	__ZN3std9panicking11begin_panic17h673c1ec0952ac37bE
LBB56_11:
	leaq	l___unnamed_11(%rip), %rdi
	leaq	l___unnamed_3(%rip), %rdx
	movl	$40, %esi
	callq	__ZN3std9panicking11begin_panic17h673c1ec0952ac37bE
LBB56_12:
	movq	-24(%rbp), %rax
	addq	$8, %rax
	movq	-16(%rbp), %rdi
	movq	%rax, %rsi
	callq	__ZN3syn3gen5visit5Visit15visit_expr_call17ha67277e3734d433eE
	jmp	LBB56_51
LBB56_14:
	movq	-24(%rbp), %rax
	addq	$8, %rax
	movq	-16(%rbp), %rdi
	movq	%rax, %rsi
	callq	__ZN3syn3gen5visit5Visit15visit_expr_cast17h19aa4caafaf355a8E
	jmp	LBB56_51
LBB56_16:
	leaq	l___unnamed_11(%rip), %rdi
	leaq	l___unnamed_3(%rip), %rdx
	movl	$40, %esi
	callq	__ZN3std9panicking11begin_panic17h673c1ec0952ac37bE
LBB56_17:
	leaq	l___unnamed_11(%rip), %rdi
	leaq	l___unnamed_3(%rip), %rdx
	movl	$40, %esi
	callq	__ZN3std9panicking11begin_panic17h673c1ec0952ac37bE
LBB56_18:
	movq	-24(%rbp), %rax
	addq	$8, %rax
	movq	-16(%rbp), %rdi
	movq	%rax, %rsi
	callq	__ZN3syn3gen5visit5Visit16visit_expr_field17hfbcdb24af02e7c8aE
	jmp	LBB56_51
LBB56_20:
	leaq	l___unnamed_11(%rip), %rdi
	leaq	l___unnamed_3(%rip), %rdx
	movl	$40, %esi
	callq	__ZN3std9panicking11begin_panic17h673c1ec0952ac37bE
LBB56_21:
	leaq	l___unnamed_11(%rip), %rdi
	leaq	l___unnamed_3(%rip), %rdx
	movl	$40, %esi
	callq	__ZN3std9panicking11begin_panic17h673c1ec0952ac37bE
LBB56_22:
	leaq	l___unnamed_11(%rip), %rdi
	leaq	l___unnamed_3(%rip), %rdx
	movl	$40, %esi
	callq	__ZN3std9panicking11begin_panic17h673c1ec0952ac37bE
LBB56_23:
	movq	-24(%rbp), %rax
	addq	$8, %rax
	movq	-16(%rbp), %rdi
	movq	%rax, %rsi
	callq	__ZN3syn3gen5visit5Visit16visit_expr_index17h0ecd98cb929c34e6E
	jmp	LBB56_51
LBB56_25:
	leaq	l___unnamed_11(%rip), %rdi
	leaq	l___unnamed_3(%rip), %rdx
	movl	$40, %esi
	callq	__ZN3std9panicking11begin_panic17h673c1ec0952ac37bE
LBB56_26:
	movq	-24(%rbp), %rax
	addq	$8, %rax
	movq	-16(%rbp), %rdi
	movq	%rax, %rsi
	callq	__ZN3syn3gen5visit5Visit14visit_expr_lit17hde8c012a9312e082E
	jmp	LBB56_51
LBB56_28:
	leaq	l___unnamed_11(%rip), %rdi
	leaq	l___unnamed_3(%rip), %rdx
	movl	$40, %esi
	callq	__ZN3std9panicking11begin_panic17h673c1ec0952ac37bE
LBB56_29:
	leaq	l___unnamed_11(%rip), %rdi
	leaq	l___unnamed_3(%rip), %rdx
	movl	$40, %esi
	callq	__ZN3std9panicking11begin_panic17h673c1ec0952ac37bE
LBB56_30:
	leaq	l___unnamed_11(%rip), %rdi
	leaq	l___unnamed_3(%rip), %rdx
	movl	$40, %esi
	callq	__ZN3std9panicking11begin_panic17h673c1ec0952ac37bE
LBB56_31:
	leaq	l___unnamed_11(%rip), %rdi
	leaq	l___unnamed_3(%rip), %rdx
	movl	$40, %esi
	callq	__ZN3std9panicking11begin_panic17h673c1ec0952ac37bE
LBB56_32:
	movq	-24(%rbp), %rax
	addq	$8, %rax
	movq	-16(%rbp), %rdi
	movq	%rax, %rsi
	callq	__ZN3syn3gen5visit5Visit16visit_expr_paren17h58e7c1c36de87bb6E
	jmp	LBB56_51
LBB56_34:
	movq	-24(%rbp), %rax
	addq	$8, %rax
	movq	-16(%rbp), %rdi
	movq	%rax, %rsi
	callq	__ZN3syn3gen5visit5Visit15visit_expr_path17hfeef478495f182c6E
	jmp	LBB56_51
LBB56_36:
	leaq	l___unnamed_11(%rip), %rdi
	leaq	l___unnamed_3(%rip), %rdx
	movl	$40, %esi
	callq	__ZN3std9panicking11begin_panic17h673c1ec0952ac37bE
LBB56_37:
	leaq	l___unnamed_11(%rip), %rdi
	leaq	l___unnamed_3(%rip), %rdx
	movl	$40, %esi
	callq	__ZN3std9panicking11begin_panic17h673c1ec0952ac37bE
LBB56_38:
	leaq	l___unnamed_11(%rip), %rdi
	leaq	l___unnamed_3(%rip), %rdx
	movl	$40, %esi
	callq	__ZN3std9panicking11begin_panic17h673c1ec0952ac37bE
LBB56_39:
	leaq	l___unnamed_11(%rip), %rdi
	leaq	l___unnamed_3(%rip), %rdx
	movl	$40, %esi
	callq	__ZN3std9panicking11begin_panic17h673c1ec0952ac37bE
LBB56_40:
	leaq	l___unnamed_11(%rip), %rdi
	leaq	l___unnamed_3(%rip), %rdx
	movl	$40, %esi
	callq	__ZN3std9panicking11begin_panic17h673c1ec0952ac37bE
LBB56_41:
	leaq	l___unnamed_11(%rip), %rdi
	leaq	l___unnamed_3(%rip), %rdx
	movl	$40, %esi
	callq	__ZN3std9panicking11begin_panic17h673c1ec0952ac37bE
LBB56_42:
	leaq	l___unnamed_11(%rip), %rdi
	leaq	l___unnamed_3(%rip), %rdx
	movl	$40, %esi
	callq	__ZN3std9panicking11begin_panic17h673c1ec0952ac37bE
LBB56_43:
	leaq	l___unnamed_11(%rip), %rdi
	leaq	l___unnamed_3(%rip), %rdx
	movl	$40, %esi
	callq	__ZN3std9panicking11begin_panic17h673c1ec0952ac37bE
LBB56_44:
	leaq	l___unnamed_11(%rip), %rdi
	leaq	l___unnamed_3(%rip), %rdx
	movl	$40, %esi
	callq	__ZN3std9panicking11begin_panic17h673c1ec0952ac37bE
LBB56_45:
	movq	-24(%rbp), %rax
	addq	$8, %rax
	movq	-16(%rbp), %rdi
	movq	%rax, %rsi
	callq	__ZN3syn3gen5visit5Visit16visit_expr_unary17h3ed7442bf7054bccE
	jmp	LBB56_51
LBB56_47:
	leaq	l___unnamed_11(%rip), %rdi
	leaq	l___unnamed_3(%rip), %rdx
	movl	$40, %esi
	callq	__ZN3std9panicking11begin_panic17h673c1ec0952ac37bE
LBB56_48:
	jmp	LBB56_51
LBB56_49:
	leaq	l___unnamed_11(%rip), %rdi
	leaq	l___unnamed_3(%rip), %rdx
	movl	$40, %esi
	callq	__ZN3std9panicking11begin_panic17h673c1ec0952ac37bE
LBB56_50:
	leaq	l___unnamed_11(%rip), %rdi
	leaq	l___unnamed_3(%rip), %rdx
	movl	$40, %esi
	callq	__ZN3std9panicking11begin_panic17h673c1ec0952ac37bE
LBB56_51:
	addq	$32, %rsp
	popq	%rbp
	retq
	.cfi_endproc
	.p2align	2, 0x90
	.data_region jt32
.set L56_0_set_2, LBB56_2-LJTI56_0
.set L56_0_set_3, LBB56_3-LJTI56_0
.set L56_0_set_4, LBB56_4-LJTI56_0
.set L56_0_set_5, LBB56_5-LJTI56_0
.set L56_0_set_6, LBB56_6-LJTI56_0
.set L56_0_set_7, LBB56_7-LJTI56_0
.set L56_0_set_9, LBB56_9-LJTI56_0
.set L56_0_set_10, LBB56_10-LJTI56_0
.set L56_0_set_11, LBB56_11-LJTI56_0
.set L56_0_set_12, LBB56_12-LJTI56_0
.set L56_0_set_14, LBB56_14-LJTI56_0
.set L56_0_set_16, LBB56_16-LJTI56_0
.set L56_0_set_17, LBB56_17-LJTI56_0
.set L56_0_set_18, LBB56_18-LJTI56_0
.set L56_0_set_20, LBB56_20-LJTI56_0
.set L56_0_set_21, LBB56_21-LJTI56_0
.set L56_0_set_22, LBB56_22-LJTI56_0
.set L56_0_set_23, LBB56_23-LJTI56_0
.set L56_0_set_25, LBB56_25-LJTI56_0
.set L56_0_set_26, LBB56_26-LJTI56_0
.set L56_0_set_28, LBB56_28-LJTI56_0
.set L56_0_set_29, LBB56_29-LJTI56_0
.set L56_0_set_30, LBB56_30-LJTI56_0
.set L56_0_set_31, LBB56_31-LJTI56_0
.set L56_0_set_32, LBB56_32-LJTI56_0
.set L56_0_set_34, LBB56_34-LJTI56_0
.set L56_0_set_36, LBB56_36-LJTI56_0
.set L56_0_set_37, LBB56_37-LJTI56_0
.set L56_0_set_38, LBB56_38-LJTI56_0
.set L56_0_set_39, LBB56_39-LJTI56_0
.set L56_0_set_40, LBB56_40-LJTI56_0
.set L56_0_set_41, LBB56_41-LJTI56_0
.set L56_0_set_42, LBB56_42-LJTI56_0
.set L56_0_set_43, LBB56_43-LJTI56_0
.set L56_0_set_44, LBB56_44-LJTI56_0
.set L56_0_set_45, LBB56_45-LJTI56_0
.set L56_0_set_47, LBB56_47-LJTI56_0
.set L56_0_set_48, LBB56_48-LJTI56_0
.set L56_0_set_49, LBB56_49-LJTI56_0
.set L56_0_set_50, LBB56_50-LJTI56_0
LJTI56_0:
	.long	L56_0_set_2
	.long	L56_0_set_3
	.long	L56_0_set_4
	.long	L56_0_set_5
	.long	L56_0_set_6
	.long	L56_0_set_7
	.long	L56_0_set_9
	.long	L56_0_set_10
	.long	L56_0_set_11
	.long	L56_0_set_12
	.long	L56_0_set_14
	.long	L56_0_set_16
	.long	L56_0_set_17
	.long	L56_0_set_18
	.long	L56_0_set_20
	.long	L56_0_set_21
	.long	L56_0_set_22
	.long	L56_0_set_23
	.long	L56_0_set_25
	.long	L56_0_set_26
	.long	L56_0_set_28
	.long	L56_0_set_29
	.long	L56_0_set_30
	.long	L56_0_set_31
	.long	L56_0_set_32
	.long	L56_0_set_34
	.long	L56_0_set_36
	.long	L56_0_set_37
	.long	L56_0_set_38
	.long	L56_0_set_39
	.long	L56_0_set_40
	.long	L56_0_set_41
	.long	L56_0_set_42
	.long	L56_0_set_43
	.long	L56_0_set_44
	.long	L56_0_set_45
	.long	L56_0_set_47
	.long	L56_0_set_48
	.long	L56_0_set_49
	.long	L56_0_set_50
	.end_data_region

	.globl	__ZN3syn3gen5visit10visit_path17h00c7cf81a4b89d48E
	.p2align	4, 0x90
__ZN3syn3gen5visit10visit_path17h00c7cf81a4b89d48E:
	.cfi_startproc
	pushq	%rbp
	.cfi_def_cfa_offset 16
	.cfi_offset %rbp, -16
	movq	%rsp, %rbp
	.cfi_def_cfa_register %rbp
	subq	$272, %rsp
	movq	%rsi, %rax
	addq	$32, %rax
	movl	32(%rsi), %ecx
	movl	%ecx, %edx
	cmpq	$1, %rdx
	movq	%rdi, -240(%rbp)
	movq	%rsi, -248(%rbp)
	movq	%rax, -256(%rbp)
	je	LBB57_2
	jmp	LBB57_4
LBB57_2:
	movq	-256(%rbp), %rax
	addq	$4, %rax
	movq	-240(%rbp), %rdi
	movq	%rax, %rsi
	callq	__ZN3syn3gen6helper5visit13tokens_helper17h711609849b703e9dE
	jmp	LBB57_4
LBB57_4:
	movq	-248(%rbp), %rax
	leaq	-200(%rbp), %rdi
	movq	%rax, %rsi
	callq	__ZN3syn10punctuated23Punctuated$LT$T$C$P$GT$5pairs17ha1d7767cc6dcd693E
	leaq	-224(%rbp), %rdi
	leaq	-200(%rbp), %rsi
	callq	__ZN63_$LT$I$u20$as$u20$core..iter..traits..collect..IntoIterator$GT$9into_iter17hc076d22eebc294f6E
	movq	-224(%rbp), %rax
	movq	%rax, -176(%rbp)
	movq	-216(%rbp), %rax
	movq	%rax, -168(%rbp)
	movq	-208(%rbp), %rax
	movq	%rax, -160(%rbp)
LBB57_7:
	leaq	-128(%rbp), %rdi
	leaq	-176(%rbp), %rsi
	callq	__ZN94_$LT$syn..punctuated..Pairs$LT$T$C$P$GT$$u20$as$u20$core..iter..traits..iterator..Iterator$GT$4next17h409a6625f3005fedE
	movq	-128(%rbp), %rax
	addq	$-2, %rax
	setne	%cl
	movzbl	%cl, %edx
	movl	%edx, %esi
	je	LBB57_9
	jmp	LBB57_18
LBB57_18:
	jmp	LBB57_11
LBB57_9:
	addq	$272, %rsp
	popq	%rbp
	retq
	ud2
LBB57_11:
	movq	-128(%rbp), %rax
	movq	%rax, -104(%rbp)
	movq	-120(%rbp), %rax
	movq	%rax, -96(%rbp)
	movq	-112(%rbp), %rax
	movq	%rax, -88(%rbp)
	movq	-104(%rbp), %rax
	movq	%rax, -80(%rbp)
	movq	-96(%rbp), %rax
	movq	%rax, -72(%rbp)
	movq	-88(%rbp), %rax
	movq	%rax, -64(%rbp)
	movq	-80(%rbp), %rax
	movq	%rax, -152(%rbp)
	movq	-72(%rbp), %rax
	movq	%rax, -144(%rbp)
	movq	-64(%rbp), %rax
	movq	%rax, -136(%rbp)
	movq	-152(%rbp), %rax
	movq	%rax, -56(%rbp)
	movq	-144(%rbp), %rax
	movq	%rax, -48(%rbp)
	movq	-136(%rbp), %rax
	movq	%rax, -40(%rbp)
	movq	-56(%rbp), %rax
	movq	%rax, -24(%rbp)
	movq	-48(%rbp), %rax
	movq	%rax, -16(%rbp)
	movq	-40(%rbp), %rax
	movq	%rax, -8(%rbp)
	leaq	-24(%rbp), %rdi
	callq	__ZN3syn10punctuated17Pair$LT$T$C$P$GT$10into_tuple17h1d35372dde1a548fE
	movq	%rax, -264(%rbp)
	movq	%rdx, -272(%rbp)
	movq	-264(%rbp), %rax
	movq	-272(%rbp), %rcx
	movq	%rcx, -32(%rbp)
	movq	-240(%rbp), %rdi
	movq	%rax, %rsi
	callq	__ZN3syn3gen5visit5Visit18visit_path_segment17h7fff2a9dab42933dE
	xorl	%eax, %eax
	movl	%eax, %ecx
	cmpq	$0, -32(%rbp)
	movl	$1, %edx
	cmovbeq	%rcx, %rdx
	cmpq	$1, %rdx
	je	LBB57_15
	jmp	LBB57_17
LBB57_15:
	movq	-32(%rbp), %rax
	movq	-240(%rbp), %rdi
	movq	%rax, %rsi
	callq	__ZN3syn3gen6helper5visit13tokens_helper17h711609849b703e9dE
	jmp	LBB57_17
LBB57_17:
	jmp	LBB57_7
	.cfi_endproc

	.globl	__ZN3syn3gen5visit10visit_span17hf099e8cab874f2e2E
	.p2align	4, 0x90
__ZN3syn3gen5visit10visit_span17hf099e8cab874f2e2E:
	.cfi_startproc
	pushq	%rbp
	.cfi_def_cfa_offset 16
	.cfi_offset %rbp, -16
	movq	%rsp, %rbp
	.cfi_def_cfa_register %rbp
	popq	%rbp
	retq
	.cfi_endproc

	.globl	__ZN3syn3gen5visit10visit_type17h6cb0e77cb564141dE
	.p2align	4, 0x90
__ZN3syn3gen5visit10visit_type17h6cb0e77cb564141dE:
	.cfi_startproc
	pushq	%rbp
	.cfi_def_cfa_offset 16
	.cfi_offset %rbp, -16
	movq	%rsp, %rbp
	.cfi_def_cfa_register %rbp
	subq	$32, %rsp
	movl	(%rsi), %eax
	movl	%eax, %ecx
	movq	%rcx, %rdx
	subq	$14, %rdx
	movq	%rdi, -16(%rbp)
	movq	%rsi, -24(%rbp)
	movq	%rcx, -32(%rbp)
	ja	LBB59_1
	leaq	LJTI59_0(%rip), %rax
	movq	-32(%rbp), %rcx
	movslq	(%rax,%rcx,4), %rdx
	addq	%rax, %rdx
	jmpq	*%rdx
LBB59_1:
	leaq	l___unnamed_11(%rip), %rdi
	leaq	l___unnamed_3(%rip), %rdx
	movl	$40, %esi
	callq	__ZN3std9panicking11begin_panic17h673c1ec0952ac37bE
LBB59_2:
	movq	-24(%rbp), %rax
	addq	$8, %rax
	movq	-16(%rbp), %rdi
	movq	%rax, %rsi
	callq	__ZN3syn3gen5visit5Visit16visit_type_array17h208af3b3f21e12c0E
	jmp	LBB59_31
LBB59_4:
	movq	-24(%rbp), %rax
	addq	$8, %rax
	movq	-16(%rbp), %rdi
	movq	%rax, %rsi
	callq	__ZN3syn3gen5visit5Visit18visit_type_bare_fn17hba847e6b40a393a7E
	jmp	LBB59_31
LBB59_6:
	movq	-24(%rbp), %rax
	addq	$8, %rax
	movq	-16(%rbp), %rdi
	movq	%rax, %rsi
	callq	__ZN3syn3gen5visit5Visit16visit_type_group17ha824d8cccc78b9a5E
	jmp	LBB59_31
LBB59_8:
	movq	-24(%rbp), %rax
	addq	$8, %rax
	movq	-16(%rbp), %rdi
	movq	%rax, %rsi
	callq	__ZN3syn3gen5visit5Visit21visit_type_impl_trait17h498027fc13b2fa73E
	jmp	LBB59_31
LBB59_10:
	movq	-24(%rbp), %rax
	addq	$4, %rax
	movq	-16(%rbp), %rdi
	movq	%rax, %rsi
	callq	__ZN3syn3gen5visit5Visit16visit_type_infer17h57fc6fdd2570b235E
	jmp	LBB59_31
LBB59_12:
	movq	-24(%rbp), %rax
	addq	$8, %rax
	movq	-16(%rbp), %rdi
	movq	%rax, %rsi
	callq	__ZN88_$LT$synstructure..get_ty_params..BoundTypeLocator$u20$as$u20$syn..gen..visit..Visit$GT$16visit_type_macro17h0dd958cd7d3eef19E
	jmp	LBB59_31
LBB59_14:
	movq	-24(%rbp), %rax
	addq	$4, %rax
	movq	-16(%rbp), %rdi
	movq	%rax, %rsi
	callq	__ZN3syn3gen5visit5Visit16visit_type_never17haedd9b8c02fe74b3E
	jmp	LBB59_31
LBB59_16:
	movq	-24(%rbp), %rax
	addq	$8, %rax
	movq	-16(%rbp), %rdi
	movq	%rax, %rsi
	callq	__ZN3syn3gen5visit5Visit16visit_type_paren17h68ab0f649ca2b67cE
	jmp	LBB59_31
LBB59_18:
	movq	-24(%rbp), %rax
	addq	$8, %rax
	movq	-16(%rbp), %rdi
	movq	%rax, %rsi
	callq	__ZN3syn3gen5visit5Visit15visit_type_path17h9fd673025c25924dE
	jmp	LBB59_31
LBB59_20:
	movq	-24(%rbp), %rax
	addq	$8, %rax
	movq	-16(%rbp), %rdi
	movq	%rax, %rsi
	callq	__ZN3syn3gen5visit5Visit14visit_type_ptr17h31b64331e578e53eE
	jmp	LBB59_31
LBB59_22:
	movq	-24(%rbp), %rax
	addq	$8, %rax
	movq	-16(%rbp), %rdi
	movq	%rax, %rsi
	callq	__ZN3syn3gen5visit5Visit20visit_type_reference17he628da175f2373c6E
	jmp	LBB59_31
LBB59_24:
	movq	-24(%rbp), %rax
	addq	$8, %rax
	movq	-16(%rbp), %rdi
	movq	%rax, %rsi
	callq	__ZN3syn3gen5visit5Visit16visit_type_slice17h5f61c8f6a1aadd18E
	jmp	LBB59_31
LBB59_26:
	movq	-24(%rbp), %rax
	addq	$8, %rax
	movq	-16(%rbp), %rdi
	movq	%rax, %rsi
	callq	__ZN3syn3gen5visit5Visit23visit_type_trait_object17h957178a68825c656E
	jmp	LBB59_31
LBB59_28:
	movq	-24(%rbp), %rax
	addq	$8, %rax
	movq	-16(%rbp), %rdi
	movq	%rax, %rsi
	callq	__ZN3syn3gen5visit5Visit16visit_type_tuple17h2196a1a107f25224E
	jmp	LBB59_31
LBB59_30:
LBB59_31:
	addq	$32, %rsp
	popq	%rbp
	retq
	.cfi_endproc
	.p2align	2, 0x90
	.data_region jt32
.set L59_0_set_2, LBB59_2-LJTI59_0
.set L59_0_set_4, LBB59_4-LJTI59_0
.set L59_0_set_6, LBB59_6-LJTI59_0
.set L59_0_set_8, LBB59_8-LJTI59_0
.set L59_0_set_10, LBB59_10-LJTI59_0
.set L59_0_set_12, LBB59_12-LJTI59_0
.set L59_0_set_14, LBB59_14-LJTI59_0
.set L59_0_set_16, LBB59_16-LJTI59_0
.set L59_0_set_18, LBB59_18-LJTI59_0
.set L59_0_set_20, LBB59_20-LJTI59_0
.set L59_0_set_22, LBB59_22-LJTI59_0
.set L59_0_set_24, LBB59_24-LJTI59_0
.set L59_0_set_26, LBB59_26-LJTI59_0
.set L59_0_set_28, LBB59_28-LJTI59_0
.set L59_0_set_30, LBB59_30-LJTI59_0
LJTI59_0:
	.long	L59_0_set_2
	.long	L59_0_set_4
	.long	L59_0_set_6
	.long	L59_0_set_8
	.long	L59_0_set_10
	.long	L59_0_set_12
	.long	L59_0_set_14
	.long	L59_0_set_16
	.long	L59_0_set_18
	.long	L59_0_set_20
	.long	L59_0_set_22
	.long	L59_0_set_24
	.long	L59_0_set_26
	.long	L59_0_set_28
	.long	L59_0_set_30
	.end_data_region

	.globl	__ZN3syn3gen5visit11visit_index17hd11fe31a136069ccE
	.p2align	4, 0x90
__ZN3syn3gen5visit11visit_index17hd11fe31a136069ccE:
	.cfi_startproc
	pushq	%rbp
	.cfi_def_cfa_offset 16
	.cfi_offset %rbp, -16
	movq	%rsp, %rbp
	.cfi_def_cfa_register %rbp
	addq	$4, %rsi
	callq	__ZN3syn3gen5visit5Visit10visit_span17h646f20d69c46edfeE
	popq	%rbp
	retq
	.cfi_endproc

	.globl	__ZN3syn3gen5visit11visit_macro17h247d16b4eec79e0dE
	.p2align	4, 0x90
__ZN3syn3gen5visit11visit_macro17h247d16b4eec79e0dE:
	.cfi_startproc
	pushq	%rbp
	.cfi_def_cfa_offset 16
	.cfi_offset %rbp, -16
	movq	%rsp, %rbp
	.cfi_def_cfa_register %rbp
	subq	$16, %rsp
	movq	%rsi, %rax
	movq	%rdi, -8(%rbp)
	movq	%rsi, -16(%rbp)
	movq	%rax, %rsi
	callq	__ZN3syn3gen5visit5Visit10visit_path17h102650d9b1d89885E
	movq	-16(%rbp), %rax
	addq	$88, %rax
	movq	-8(%rbp), %rdi
	movq	%rax, %rsi
	callq	__ZN3syn3gen6helper5visit13tokens_helper17hf94adaee820ffee6E
	movq	-16(%rbp), %rax
	addq	$92, %rax
	movq	-8(%rbp), %rdi
	movq	%rax, %rsi
	callq	__ZN3syn3gen5visit5Visit21visit_macro_delimiter17h85e33a3e7e2ebb3dE
	addq	$16, %rsp
	popq	%rbp
	retq
	.cfi_endproc

	.globl	__ZN3syn3gen5visit11visit_qself17h0da3a321938cc4caE
	.p2align	4, 0x90
__ZN3syn3gen5visit11visit_qself17h0da3a321938cc4caE:
	.cfi_startproc
	pushq	%rbp
	.cfi_def_cfa_offset 16
	.cfi_offset %rbp, -16
	movq	%rsp, %rbp
	.cfi_def_cfa_register %rbp
	subq	$32, %rsp
	movq	%rsi, %rax
	addq	$16, %rax
	movq	%rdi, -16(%rbp)
	movq	%rsi, -24(%rbp)
	movq	%rax, %rsi
	callq	__ZN3syn3gen6helper5visit13tokens_helper17hf94adaee820ffee6E
	movq	-24(%rbp), %rax
	movq	(%rax), %rsi
	movq	-16(%rbp), %rdi
	callq	__ZN3syn3gen5visit5Visit10visit_type17h3d7013057020e8d4E
	movq	-24(%rbp), %rax
	addq	$20, %rax
	movq	-24(%rbp), %rcx
	movl	20(%rcx), %edx
	movl	%edx, %esi
	cmpq	$1, %rsi
	movq	%rax, -32(%rbp)
	je	LBB62_4
	jmp	LBB62_6
LBB62_4:
	movq	-32(%rbp), %rax
	addq	$4, %rax
	movq	-16(%rbp), %rdi
	movq	%rax, %rsi
	callq	__ZN3syn3gen6helper5visit13tokens_helper17h18c9f68a4dc2f9c4E
	jmp	LBB62_6
LBB62_6:
	movq	-24(%rbp), %rax
	addq	$28, %rax
	movq	-16(%rbp), %rdi
	movq	%rax, %rsi
	callq	__ZN3syn3gen6helper5visit13tokens_helper17hf94adaee820ffee6E
	addq	$32, %rsp
	popq	%rbp
	retq
	.cfi_endproc

	.globl	__ZN3syn3gen5visit11visit_un_op17hbc575e004a4d8528E
	.p2align	4, 0x90
__ZN3syn3gen5visit11visit_un_op17hbc575e004a4d8528E:
	.cfi_startproc
	pushq	%rbp
	.cfi_def_cfa_offset 16
	.cfi_offset %rbp, -16
	movq	%rsp, %rbp
	.cfi_def_cfa_register %rbp
	subq	$32, %rsp
	movl	(%rsi), %eax
	movl	%eax, %ecx
	testq	%rcx, %rcx
	movq	%rdi, -16(%rbp)
	movq	%rsi, -24(%rbp)
	movq	%rcx, -32(%rbp)
	je	LBB63_3
	jmp	LBB63_9
LBB63_9:
	movq	-32(%rbp), %rax
	subq	$1, %rax
	je	LBB63_5
	jmp	LBB63_10
LBB63_10:
	movq	-24(%rbp), %rax
	addq	$4, %rax
	movq	-16(%rbp), %rdi
	movq	%rax, %rsi
	callq	__ZN3syn3gen6helper5visit13tokens_helper17hf94adaee820ffee6E
	jmp	LBB63_7
	ud2
LBB63_3:
	movq	-24(%rbp), %rax
	addq	$4, %rax
	movq	-16(%rbp), %rdi
	movq	%rax, %rsi
	callq	__ZN3syn3gen6helper5visit13tokens_helper17hf94adaee820ffee6E
	jmp	LBB63_8
LBB63_5:
	movq	-24(%rbp), %rax
	addq	$4, %rax
	movq	-16(%rbp), %rdi
	movq	%rax, %rsi
	callq	__ZN3syn3gen6helper5visit13tokens_helper17hf94adaee820ffee6E
	jmp	LBB63_8
LBB63_7:
	jmp	LBB63_8
LBB63_8:
	addq	$32, %rsp
	popq	%rbp
	retq
	.cfi_endproc

	.globl	__ZN3syn3gen5visit12visit_bin_op17h21b6ff5c52e8ca0cE
	.p2align	4, 0x90
__ZN3syn3gen5visit12visit_bin_op17h21b6ff5c52e8ca0cE:
	.cfi_startproc
	pushq	%rbp
	.cfi_def_cfa_offset 16
	.cfi_offset %rbp, -16
	movq	%rsp, %rbp
	.cfi_def_cfa_register %rbp
	subq	$32, %rsp
	movl	(%rsi), %eax
	movl	%eax, %ecx
	movq	%rdi, -16(%rbp)
	movq	%rsi, -24(%rbp)
	movq	%rcx, -32(%rbp)
	leaq	LJTI64_0(%rip), %rax
	movq	-32(%rbp), %rcx
	movslq	(%rax,%rcx,4), %rdx
	addq	%rax, %rdx
	jmpq	*%rdx
LBB64_1:
	movq	-24(%rbp), %rax
	addq	$4, %rax
	movq	-16(%rbp), %rdi
	movq	%rax, %rsi
	callq	__ZN3syn3gen6helper5visit13tokens_helper17h165c91f8835a0221E
	jmp	LBB64_57
	ud2
LBB64_3:
	movq	-24(%rbp), %rax
	addq	$4, %rax
	movq	-16(%rbp), %rdi
	movq	%rax, %rsi
	callq	__ZN3syn3gen6helper5visit13tokens_helper17hf94adaee820ffee6E
	jmp	LBB64_58
LBB64_5:
	movq	-24(%rbp), %rax
	addq	$4, %rax
	movq	-16(%rbp), %rdi
	movq	%rax, %rsi
	callq	__ZN3syn3gen6helper5visit13tokens_helper17hf94adaee820ffee6E
	jmp	LBB64_58
LBB64_7:
	movq	-24(%rbp), %rax
	addq	$4, %rax
	movq	-16(%rbp), %rdi
	movq	%rax, %rsi
	callq	__ZN3syn3gen6helper5visit13tokens_helper17hf94adaee820ffee6E
	jmp	LBB64_58
LBB64_9:
	movq	-24(%rbp), %rax
	addq	$4, %rax
	movq	-16(%rbp), %rdi
	movq	%rax, %rsi
	callq	__ZN3syn3gen6helper5visit13tokens_helper17hf94adaee820ffee6E
	jmp	LBB64_58
LBB64_11:
	movq	-24(%rbp), %rax
	addq	$4, %rax
	movq	-16(%rbp), %rdi
	movq	%rax, %rsi
	callq	__ZN3syn3gen6helper5visit13tokens_helper17hf94adaee820ffee6E
	jmp	LBB64_58
LBB64_13:
	movq	-24(%rbp), %rax
	addq	$4, %rax
	movq	-16(%rbp), %rdi
	movq	%rax, %rsi
	callq	__ZN3syn3gen6helper5visit13tokens_helper17h711609849b703e9dE
	jmp	LBB64_58
LBB64_15:
	movq	-24(%rbp), %rax
	addq	$4, %rax
	movq	-16(%rbp), %rdi
	movq	%rax, %rsi
	callq	__ZN3syn3gen6helper5visit13tokens_helper17h711609849b703e9dE
	jmp	LBB64_58
LBB64_17:
	movq	-24(%rbp), %rax
	addq	$4, %rax
	movq	-16(%rbp), %rdi
	movq	%rax, %rsi
	callq	__ZN3syn3gen6helper5visit13tokens_helper17hf94adaee820ffee6E
	jmp	LBB64_58
LBB64_19:
	movq	-24(%rbp), %rax
	addq	$4, %rax
	movq	-16(%rbp), %rdi
	movq	%rax, %rsi
	callq	__ZN3syn3gen6helper5visit13tokens_helper17hf94adaee820ffee6E
	jmp	LBB64_58
LBB64_21:
	movq	-24(%rbp), %rax
	addq	$4, %rax
	movq	-16(%rbp), %rdi
	movq	%rax, %rsi
	callq	__ZN3syn3gen6helper5visit13tokens_helper17hf94adaee820ffee6E
	jmp	LBB64_58
LBB64_23:
	movq	-24(%rbp), %rax
	addq	$4, %rax
	movq	-16(%rbp), %rdi
	movq	%rax, %rsi
	callq	__ZN3syn3gen6helper5visit13tokens_helper17h711609849b703e9dE
	jmp	LBB64_58
LBB64_25:
	movq	-24(%rbp), %rax
	addq	$4, %rax
	movq	-16(%rbp), %rdi
	movq	%rax, %rsi
	callq	__ZN3syn3gen6helper5visit13tokens_helper17h711609849b703e9dE
	jmp	LBB64_58
LBB64_27:
	movq	-24(%rbp), %rax
	addq	$4, %rax
	movq	-16(%rbp), %rdi
	movq	%rax, %rsi
	callq	__ZN3syn3gen6helper5visit13tokens_helper17h711609849b703e9dE
	jmp	LBB64_58
LBB64_29:
	movq	-24(%rbp), %rax
	addq	$4, %rax
	movq	-16(%rbp), %rdi
	movq	%rax, %rsi
	callq	__ZN3syn3gen6helper5visit13tokens_helper17hf94adaee820ffee6E
	jmp	LBB64_58
LBB64_31:
	movq	-24(%rbp), %rax
	addq	$4, %rax
	movq	-16(%rbp), %rdi
	movq	%rax, %rsi
	callq	__ZN3syn3gen6helper5visit13tokens_helper17h711609849b703e9dE
	jmp	LBB64_58
LBB64_33:
	movq	-24(%rbp), %rax
	addq	$4, %rax
	movq	-16(%rbp), %rdi
	movq	%rax, %rsi
	callq	__ZN3syn3gen6helper5visit13tokens_helper17h711609849b703e9dE
	jmp	LBB64_58
LBB64_35:
	movq	-24(%rbp), %rax
	addq	$4, %rax
	movq	-16(%rbp), %rdi
	movq	%rax, %rsi
	callq	__ZN3syn3gen6helper5visit13tokens_helper17h711609849b703e9dE
	jmp	LBB64_58
LBB64_37:
	movq	-24(%rbp), %rax
	addq	$4, %rax
	movq	-16(%rbp), %rdi
	movq	%rax, %rsi
	callq	__ZN3syn3gen6helper5visit13tokens_helper17hf94adaee820ffee6E
	jmp	LBB64_58
LBB64_39:
	movq	-24(%rbp), %rax
	addq	$4, %rax
	movq	-16(%rbp), %rdi
	movq	%rax, %rsi
	callq	__ZN3syn3gen6helper5visit13tokens_helper17h711609849b703e9dE
	jmp	LBB64_58
LBB64_41:
	movq	-24(%rbp), %rax
	addq	$4, %rax
	movq	-16(%rbp), %rdi
	movq	%rax, %rsi
	callq	__ZN3syn3gen6helper5visit13tokens_helper17h711609849b703e9dE
	jmp	LBB64_58
LBB64_43:
	movq	-24(%rbp), %rax
	addq	$4, %rax
	movq	-16(%rbp), %rdi
	movq	%rax, %rsi
	callq	__ZN3syn3gen6helper5visit13tokens_helper17h711609849b703e9dE
	jmp	LBB64_58
LBB64_45:
	movq	-24(%rbp), %rax
	addq	$4, %rax
	movq	-16(%rbp), %rdi
	movq	%rax, %rsi
	callq	__ZN3syn3gen6helper5visit13tokens_helper17h711609849b703e9dE
	jmp	LBB64_58
LBB64_47:
	movq	-24(%rbp), %rax
	addq	$4, %rax
	movq	-16(%rbp), %rdi
	movq	%rax, %rsi
	callq	__ZN3syn3gen6helper5visit13tokens_helper17h711609849b703e9dE
	jmp	LBB64_58
LBB64_49:
	movq	-24(%rbp), %rax
	addq	$4, %rax
	movq	-16(%rbp), %rdi
	movq	%rax, %rsi
	callq	__ZN3syn3gen6helper5visit13tokens_helper17h711609849b703e9dE
	jmp	LBB64_58
LBB64_51:
	movq	-24(%rbp), %rax
	addq	$4, %rax
	movq	-16(%rbp), %rdi
	movq	%rax, %rsi
	callq	__ZN3syn3gen6helper5visit13tokens_helper17h711609849b703e9dE
	jmp	LBB64_58
LBB64_53:
	movq	-24(%rbp), %rax
	addq	$4, %rax
	movq	-16(%rbp), %rdi
	movq	%rax, %rsi
	callq	__ZN3syn3gen6helper5visit13tokens_helper17h711609849b703e9dE
	jmp	LBB64_58
LBB64_55:
	movq	-24(%rbp), %rax
	addq	$4, %rax
	movq	-16(%rbp), %rdi
	movq	%rax, %rsi
	callq	__ZN3syn3gen6helper5visit13tokens_helper17h165c91f8835a0221E
	jmp	LBB64_58
LBB64_57:
	jmp	LBB64_58
LBB64_58:
	addq	$32, %rsp
	popq	%rbp
	retq
	.cfi_endproc
	.p2align	2, 0x90
	.data_region jt32
.set L64_0_set_3, LBB64_3-LJTI64_0
.set L64_0_set_5, LBB64_5-LJTI64_0
.set L64_0_set_7, LBB64_7-LJTI64_0
.set L64_0_set_9, LBB64_9-LJTI64_0
.set L64_0_set_11, LBB64_11-LJTI64_0
.set L64_0_set_13, LBB64_13-LJTI64_0
.set L64_0_set_15, LBB64_15-LJTI64_0
.set L64_0_set_17, LBB64_17-LJTI64_0
.set L64_0_set_19, LBB64_19-LJTI64_0
.set L64_0_set_21, LBB64_21-LJTI64_0
.set L64_0_set_23, LBB64_23-LJTI64_0
.set L64_0_set_25, LBB64_25-LJTI64_0
.set L64_0_set_27, LBB64_27-LJTI64_0
.set L64_0_set_29, LBB64_29-LJTI64_0
.set L64_0_set_31, LBB64_31-LJTI64_0
.set L64_0_set_33, LBB64_33-LJTI64_0
.set L64_0_set_35, LBB64_35-LJTI64_0
.set L64_0_set_37, LBB64_37-LJTI64_0
.set L64_0_set_39, LBB64_39-LJTI64_0
.set L64_0_set_41, LBB64_41-LJTI64_0
.set L64_0_set_43, LBB64_43-LJTI64_0
.set L64_0_set_45, LBB64_45-LJTI64_0
.set L64_0_set_47, LBB64_47-LJTI64_0
.set L64_0_set_49, LBB64_49-LJTI64_0
.set L64_0_set_51, LBB64_51-LJTI64_0
.set L64_0_set_53, LBB64_53-LJTI64_0
.set L64_0_set_55, LBB64_55-LJTI64_0
.set L64_0_set_1, LBB64_1-LJTI64_0
LJTI64_0:
	.long	L64_0_set_3
	.long	L64_0_set_5
	.long	L64_0_set_7
	.long	L64_0_set_9
	.long	L64_0_set_11
	.long	L64_0_set_13
	.long	L64_0_set_15
	.long	L64_0_set_17
	.long	L64_0_set_19
	.long	L64_0_set_21
	.long	L64_0_set_23
	.long	L64_0_set_25
	.long	L64_0_set_27
	.long	L64_0_set_29
	.long	L64_0_set_31
	.long	L64_0_set_33
	.long	L64_0_set_35
	.long	L64_0_set_37
	.long	L64_0_set_39
	.long	L64_0_set_41
	.long	L64_0_set_43
	.long	L64_0_set_45
	.long	L64_0_set_47
	.long	L64_0_set_49
	.long	L64_0_set_51
	.long	L64_0_set_53
	.long	L64_0_set_55
	.long	L64_0_set_1
	.end_data_region

	.globl	__ZN3syn3gen5visit12visit_member17h4dcfdcab4aa70830E
	.p2align	4, 0x90
__ZN3syn3gen5visit12visit_member17h4dcfdcab4aa70830E:
	.cfi_startproc
	pushq	%rbp
	.cfi_def_cfa_offset 16
	.cfi_offset %rbp, -16
	movq	%rsp, %rbp
	.cfi_def_cfa_register %rbp
	subq	$32, %rsp
	movl	(%rsi), %eax
	movl	%eax, %ecx
	testq	%rcx, %rcx
	movq	%rdi, -16(%rbp)
	movq	%rsi, -24(%rbp)
	je	LBB65_3
	jmp	LBB65_7
LBB65_7:
	movq	-24(%rbp), %rax
	addq	$4, %rax
	movq	-16(%rbp), %rdi
	movq	%rax, %rsi
	callq	__ZN3syn3gen5visit5Visit11visit_index17h38d5cebaebf26e92E
	jmp	LBB65_5
	ud2
LBB65_3:
	movq	-24(%rbp), %rax
	addq	$8, %rax
	movq	-16(%rbp), %rdi
	movq	%rax, %rsi
	callq	__ZN88_$LT$synstructure..get_ty_params..BoundTypeLocator$u20$as$u20$syn..gen..visit..Visit$GT$11visit_ident17h3365fed3b29128c4E
	jmp	LBB65_6
LBB65_5:
	jmp	LBB65_6
LBB65_6:
	addq	$32, %rsp
	popq	%rbp
	retq
	.cfi_endproc

	.globl	__ZN3syn3gen5visit13visit_binding17h491f31d8ccc367cfE
	.p2align	4, 0x90
__ZN3syn3gen5visit13visit_binding17h491f31d8ccc367cfE:
	.cfi_startproc
	pushq	%rbp
	.cfi_def_cfa_offset 16
	.cfi_offset %rbp, -16
	movq	%rsp, %rbp
	.cfi_def_cfa_register %rbp
	subq	$16, %rsp
	movq	%rsi, %rax
	movq	%rdi, -8(%rbp)
	movq	%rsi, -16(%rbp)
	movq	%rax, %rsi
	callq	__ZN88_$LT$synstructure..get_ty_params..BoundTypeLocator$u20$as$u20$syn..gen..visit..Visit$GT$11visit_ident17h3365fed3b29128c4E
	movq	-16(%rbp), %rax
	addq	$224, %rax
	movq	-8(%rbp), %rdi
	movq	%rax, %rsi
	callq	__ZN3syn3gen6helper5visit13tokens_helper17hf94adaee820ffee6E
	movq	-16(%rbp), %rax
	addq	$40, %rax
	movq	-8(%rbp), %rdi
	movq	%rax, %rsi
	callq	__ZN3syn3gen5visit5Visit10visit_type17h3d7013057020e8d4E
	addq	$16, %rsp
	popq	%rbp
	retq
	.cfi_endproc

	.globl	__ZN3syn3gen5visit13visit_lit_int17h564df08d04e6cc48E
	.p2align	4, 0x90
__ZN3syn3gen5visit13visit_lit_int17h564df08d04e6cc48E:
	.cfi_startproc
	pushq	%rbp
	.cfi_def_cfa_offset 16
	.cfi_offset %rbp, -16
	movq	%rsp, %rbp
	.cfi_def_cfa_register %rbp
	popq	%rbp
	retq
	.cfi_endproc

	.globl	__ZN3syn3gen5visit13visit_lit_str17h427b187a474ea5daE
	.p2align	4, 0x90
__ZN3syn3gen5visit13visit_lit_str17h427b187a474ea5daE:
	.cfi_startproc
	pushq	%rbp
	.cfi_def_cfa_offset 16
	.cfi_offset %rbp, -16
	movq	%rsp, %rbp
	.cfi_def_cfa_register %rbp
	popq	%rbp
	retq
	.cfi_endproc

	.globl	__ZN3syn3gen5visit14visit_expr_lit17hf491b96d889b00e5E
	.p2align	4, 0x90
__ZN3syn3gen5visit14visit_expr_lit17hf491b96d889b00e5E:
	.cfi_startproc
	pushq	%rbp
	.cfi_def_cfa_offset 16
	.cfi_offset %rbp, -16
	movq	%rsp, %rbp
	.cfi_def_cfa_register %rbp
	subq	$64, %rsp
	movq	%rsi, %rax
	movq	%rdi, -32(%rbp)
	movq	%rax, %rdi
	movq	%rsi, -40(%rbp)
	callq	__ZN90_$LT$$RF$alloc..vec..Vec$LT$T$GT$$u20$as$u20$core..iter..traits..collect..IntoIterator$GT$9into_iter17h20219f297f33a218E
	movq	%rax, -48(%rbp)
	movq	%rdx, -56(%rbp)
	movq	-48(%rbp), %rax
	movq	%rax, -24(%rbp)
	movq	-56(%rbp), %rcx
	movq	%rcx, -16(%rbp)
LBB69_2:
	leaq	-24(%rbp), %rdi
	callq	__ZN85_$LT$core..slice..Iter$LT$T$GT$$u20$as$u20$core..iter..traits..iterator..Iterator$GT$4next17h40a3bfa01ed102f7E
	movq	%rax, -8(%rbp)
	movq	-8(%rbp), %rax
	testq	%rax, %rax
	setne	%cl
	movzbl	%cl, %edx
	movl	%edx, %eax
	je	LBB69_4
	jmp	LBB69_9
LBB69_9:
	jmp	LBB69_6
LBB69_4:
	movq	-40(%rbp), %rax
	addq	$24, %rax
	movq	-32(%rbp), %rdi
	movq	%rax, %rsi
	callq	__ZN3syn3gen5visit5Visit9visit_lit17h8c816e47508b47aaE
	jmp	LBB69_8
	ud2
LBB69_6:
	movq	-8(%rbp), %rsi
	movq	-32(%rbp), %rdi
	callq	__ZN3syn3gen5visit5Visit15visit_attribute17h6c24c1446258a1f7E
	jmp	LBB69_2
LBB69_8:
	addq	$64, %rsp
	popq	%rbp
	retq
	.cfi_endproc

	.globl	__ZN3syn3gen5visit14visit_lifetime17h615112e22af4e652E
	.p2align	4, 0x90
__ZN3syn3gen5visit14visit_lifetime17h615112e22af4e652E:
	.cfi_startproc
	pushq	%rbp
	.cfi_def_cfa_offset 16
	.cfi_offset %rbp, -16
	movq	%rsp, %rbp
	.cfi_def_cfa_register %rbp
	subq	$16, %rsp
	movq	%rsi, %rax
	addq	$40, %rax
	movq	%rdi, -8(%rbp)
	movq	%rsi, -16(%rbp)
	movq	%rax, %rsi
	callq	__ZN3syn3gen5visit5Visit10visit_span17h646f20d69c46edfeE
	movq	-16(%rbp), %rax
	movq	-8(%rbp), %rdi
	movq	%rax, %rsi
	callq	__ZN88_$LT$synstructure..get_ty_params..BoundTypeLocator$u20$as$u20$syn..gen..visit..Visit$GT$11visit_ident17h3365fed3b29128c4E
	addq	$16, %rsp
	popq	%rbp
	retq
	.cfi_endproc

	.globl	__ZN3syn3gen5visit14visit_lit_bool17h8a9f7c9c486dbab3E
	.p2align	4, 0x90
__ZN3syn3gen5visit14visit_lit_bool17h8a9f7c9c486dbab3E:
	.cfi_startproc
	pushq	%rbp
	.cfi_def_cfa_offset 16
	.cfi_offset %rbp, -16
	movq	%rsp, %rbp
	.cfi_def_cfa_register %rbp
	callq	__ZN3syn3gen5visit5Visit10visit_span17h646f20d69c46edfeE
	popq	%rbp
	retq
	.cfi_endproc

	.globl	__ZN3syn3gen5visit14visit_lit_byte17hf02d4b735f7f08c9E
	.p2align	4, 0x90
__ZN3syn3gen5visit14visit_lit_byte17hf02d4b735f7f08c9E:
	.cfi_startproc
	pushq	%rbp
	.cfi_def_cfa_offset 16
	.cfi_offset %rbp, -16
	movq	%rsp, %rbp
	.cfi_def_cfa_register %rbp
	popq	%rbp
	retq
	.cfi_endproc

	.globl	__ZN3syn3gen5visit14visit_lit_char17h4e67550dbd6ecb93E
	.p2align	4, 0x90
__ZN3syn3gen5visit14visit_lit_char17h4e67550dbd6ecb93E:
	.cfi_startproc
	pushq	%rbp
	.cfi_def_cfa_offset 16
	.cfi_offset %rbp, -16
	movq	%rsp, %rbp
	.cfi_def_cfa_register %rbp
	popq	%rbp
	retq
	.cfi_endproc

	.globl	__ZN3syn3gen5visit14visit_type_ptr17hbb4a994a1a4b1760E
	.p2align	4, 0x90
__ZN3syn3gen5visit14visit_type_ptr17hbb4a994a1a4b1760E:
	.cfi_startproc
	pushq	%rbp
	.cfi_def_cfa_offset 16
	.cfi_offset %rbp, -16
	movq	%rsp, %rbp
	.cfi_def_cfa_register %rbp
	subq	$48, %rsp
	movq	%rsi, %rax
	addq	$8, %rax
	movq	%rdi, -24(%rbp)
	movq	%rsi, -32(%rbp)
	movq	%rax, %rsi
	callq	__ZN3syn3gen6helper5visit13tokens_helper17hf94adaee820ffee6E
	movq	-32(%rbp), %rax
	addq	$12, %rax
	movq	-32(%rbp), %rcx
	movl	12(%rcx), %edx
	movl	%edx, %esi
	cmpq	$1, %rsi
	movq	%rax, -40(%rbp)
	je	LBB74_3
	jmp	LBB74_5
LBB74_3:
	movq	-40(%rbp), %rax
	addq	$4, %rax
	movq	-24(%rbp), %rdi
	movq	%rax, %rsi
	callq	__ZN3syn3gen6helper5visit13tokens_helper17h18c9f68a4dc2f9c4E
	jmp	LBB74_5
LBB74_5:
	movq	-32(%rbp), %rax
	addq	$20, %rax
	movq	-32(%rbp), %rcx
	movl	20(%rcx), %edx
	movl	%edx, %esi
	cmpq	$1, %rsi
	movq	%rax, -48(%rbp)
	je	LBB74_7
	jmp	LBB74_9
LBB74_7:
	movq	-48(%rbp), %rax
	addq	$4, %rax
	movq	-24(%rbp), %rdi
	movq	%rax, %rsi
	callq	__ZN3syn3gen6helper5visit13tokens_helper17h18c9f68a4dc2f9c4E
	jmp	LBB74_9
LBB74_9:
	movq	-32(%rbp), %rax
	movq	(%rax), %rsi
	movq	-24(%rbp), %rdi
	callq	__ZN3syn3gen5visit5Visit10visit_type17h3d7013057020e8d4E
	addq	$48, %rsp
	popq	%rbp
	retq
	.cfi_endproc

	.globl	__ZN3syn3gen5visit14visit_variadic17hb7c2d634f7fa9a9fE
	.p2align	4, 0x90
__ZN3syn3gen5visit14visit_variadic17hb7c2d634f7fa9a9fE:
	.cfi_startproc
	pushq	%rbp
	.cfi_def_cfa_offset 16
	.cfi_offset %rbp, -16
	movq	%rsp, %rbp
	.cfi_def_cfa_register %rbp
	subq	$64, %rsp
	movq	%rsi, %rax
	movq	%rdi, -32(%rbp)
	movq	%rax, %rdi
	movq	%rsi, -40(%rbp)
	callq	__ZN90_$LT$$RF$alloc..vec..Vec$LT$T$GT$$u20$as$u20$core..iter..traits..collect..IntoIterator$GT$9into_iter17h20219f297f33a218E
	movq	%rax, -48(%rbp)
	movq	%rdx, -56(%rbp)
	movq	-48(%rbp), %rax
	movq	%rax, -24(%rbp)
	movq	-56(%rbp), %rcx
	movq	%rcx, -16(%rbp)
LBB75_2:
	leaq	-24(%rbp), %rdi
	callq	__ZN85_$LT$core..slice..Iter$LT$T$GT$$u20$as$u20$core..iter..traits..iterator..Iterator$GT$4next17h40a3bfa01ed102f7E
	movq	%rax, -8(%rbp)
	movq	-8(%rbp), %rax
	testq	%rax, %rax
	setne	%cl
	movzbl	%cl, %edx
	movl	%edx, %eax
	je	LBB75_4
	jmp	LBB75_9
LBB75_9:
	jmp	LBB75_6
LBB75_4:
	movq	-40(%rbp), %rax
	addq	$24, %rax
	movq	-32(%rbp), %rdi
	movq	%rax, %rsi
	callq	__ZN3syn3gen6helper5visit13tokens_helper17h165c91f8835a0221E
	jmp	LBB75_8
	ud2
LBB75_6:
	movq	-8(%rbp), %rsi
	movq	-32(%rbp), %rdi
	callq	__ZN3syn3gen5visit5Visit15visit_attribute17h6c24c1446258a1f7E
	jmp	LBB75_2
LBB75_8:
	addq	$64, %rsp
	popq	%rbp
	retq
	.cfi_endproc

	.globl	__ZN3syn3gen5visit15visit_attribute17ha9882d3879a46271E
	.p2align	4, 0x90
__ZN3syn3gen5visit15visit_attribute17ha9882d3879a46271E:
	.cfi_startproc
	pushq	%rbp
	.cfi_def_cfa_offset 16
	.cfi_offset %rbp, -16
	movq	%rsp, %rbp
	.cfi_def_cfa_register %rbp
	subq	$16, %rsp
	movq	%rsi, %rax
	addq	$88, %rax
	movq	%rdi, -8(%rbp)
	movq	%rsi, -16(%rbp)
	movq	%rax, %rsi
	callq	__ZN3syn3gen6helper5visit13tokens_helper17hf94adaee820ffee6E
	movq	-16(%rbp), %rax
	addq	$92, %rax
	movq	-8(%rbp), %rdi
	movq	%rax, %rsi
	callq	__ZN3syn3gen5visit5Visit16visit_attr_style17h1f893a69c55e8442E
	movq	-16(%rbp), %rax
	addq	$100, %rax
	movq	-8(%rbp), %rdi
	movq	%rax, %rsi
	callq	__ZN3syn3gen6helper5visit13tokens_helper17h18c9f68a4dc2f9c4E
	movq	-16(%rbp), %rax
	movq	-8(%rbp), %rdi
	movq	%rax, %rsi
	callq	__ZN3syn3gen5visit5Visit10visit_path17h102650d9b1d89885E
	addq	$16, %rsp
	popq	%rbp
	retq
	.cfi_endproc

	.globl	__ZN3syn3gen5visit15visit_expr_call17h2155103a8becc797E
	.p2align	4, 0x90
__ZN3syn3gen5visit15visit_expr_call17h2155103a8becc797E:
	.cfi_startproc
	pushq	%rbp
	.cfi_def_cfa_offset 16
	.cfi_offset %rbp, -16
	movq	%rsp, %rbp
	.cfi_def_cfa_register %rbp
	subq	$304, %rsp
	movq	%rsi, %rax
	movq	%rdi, -256(%rbp)
	movq	%rax, %rdi
	movq	%rsi, -264(%rbp)
	callq	__ZN90_$LT$$RF$alloc..vec..Vec$LT$T$GT$$u20$as$u20$core..iter..traits..collect..IntoIterator$GT$9into_iter17h20219f297f33a218E
	movq	%rax, -272(%rbp)
	movq	%rdx, -280(%rbp)
	movq	-272(%rbp), %rax
	movq	%rax, -248(%rbp)
	movq	-280(%rbp), %rcx
	movq	%rcx, -240(%rbp)
LBB77_2:
	leaq	-248(%rbp), %rdi
	callq	__ZN85_$LT$core..slice..Iter$LT$T$GT$$u20$as$u20$core..iter..traits..iterator..Iterator$GT$4next17h40a3bfa01ed102f7E
	movq	%rax, -232(%rbp)
	movq	-232(%rbp), %rax
	testq	%rax, %rax
	setne	%cl
	movzbl	%cl, %edx
	movl	%edx, %eax
	je	LBB77_4
	jmp	LBB77_23
LBB77_23:
	jmp	LBB77_6
LBB77_4:
	movq	-264(%rbp), %rax
	movq	24(%rax), %rsi
	movq	-256(%rbp), %rdi
	callq	__ZN3syn3gen5visit5Visit10visit_expr17h51cb5c4d95cbbf12E
	jmp	LBB77_8
	ud2
LBB77_6:
	movq	-232(%rbp), %rsi
	movq	-256(%rbp), %rdi
	callq	__ZN3syn3gen5visit5Visit15visit_attribute17h6c24c1446258a1f7E
	jmp	LBB77_2
LBB77_8:
	movq	-264(%rbp), %rax
	addq	$64, %rax
	movq	-256(%rbp), %rdi
	movq	%rax, %rsi
	callq	__ZN3syn3gen6helper5visit13tokens_helper17h18c9f68a4dc2f9c4E
	movq	-264(%rbp), %rax
	addq	$32, %rax
	leaq	-200(%rbp), %rdi
	movq	%rax, %rsi
	callq	__ZN3syn10punctuated23Punctuated$LT$T$C$P$GT$5pairs17hac8f055a7d1c9f0dE
	leaq	-224(%rbp), %rdi
	leaq	-200(%rbp), %rsi
	callq	__ZN63_$LT$I$u20$as$u20$core..iter..traits..collect..IntoIterator$GT$9into_iter17h9bc074a1a2f66ba7E
	movq	-224(%rbp), %rax
	movq	%rax, -176(%rbp)
	movq	-216(%rbp), %rax
	movq	%rax, -168(%rbp)
	movq	-208(%rbp), %rax
	movq	%rax, -160(%rbp)
LBB77_12:
	leaq	-128(%rbp), %rdi
	leaq	-176(%rbp), %rsi
	callq	__ZN94_$LT$syn..punctuated..Pairs$LT$T$C$P$GT$$u20$as$u20$core..iter..traits..iterator..Iterator$GT$4next17h41824221f5f6bb64E
	movq	-128(%rbp), %rax
	addq	$-2, %rax
	setne	%cl
	movzbl	%cl, %edx
	movl	%edx, %esi
	je	LBB77_14
	jmp	LBB77_24
LBB77_24:
	jmp	LBB77_16
LBB77_14:
	addq	$304, %rsp
	popq	%rbp
	retq
	ud2
LBB77_16:
	movq	-128(%rbp), %rax
	movq	%rax, -104(%rbp)
	movq	-120(%rbp), %rax
	movq	%rax, -96(%rbp)
	movq	-112(%rbp), %rax
	movq	%rax, -88(%rbp)
	movq	-104(%rbp), %rax
	movq	%rax, -80(%rbp)
	movq	-96(%rbp), %rax
	movq	%rax, -72(%rbp)
	movq	-88(%rbp), %rax
	movq	%rax, -64(%rbp)
	movq	-80(%rbp), %rax
	movq	%rax, -152(%rbp)
	movq	-72(%rbp), %rax
	movq	%rax, -144(%rbp)
	movq	-64(%rbp), %rax
	movq	%rax, -136(%rbp)
	movq	-152(%rbp), %rax
	movq	%rax, -56(%rbp)
	movq	-144(%rbp), %rax
	movq	%rax, -48(%rbp)
	movq	-136(%rbp), %rax
	movq	%rax, -40(%rbp)
	movq	-56(%rbp), %rax
	movq	%rax, -24(%rbp)
	movq	-48(%rbp), %rax
	movq	%rax, -16(%rbp)
	movq	-40(%rbp), %rax
	movq	%rax, -8(%rbp)
	leaq	-24(%rbp), %rdi
	callq	__ZN3syn10punctuated17Pair$LT$T$C$P$GT$10into_tuple17h7595410eaa66d810E
	movq	%rax, -288(%rbp)
	movq	%rdx, -296(%rbp)
	movq	-288(%rbp), %rax
	movq	-296(%rbp), %rcx
	movq	%rcx, -32(%rbp)
	movq	-256(%rbp), %rdi
	movq	%rax, %rsi
	callq	__ZN3syn3gen5visit5Visit10visit_expr17h51cb5c4d95cbbf12E
	xorl	%eax, %eax
	movl	%eax, %ecx
	cmpq	$0, -32(%rbp)
	movl	$1, %edx
	cmovbeq	%rcx, %rdx
	cmpq	$1, %rdx
	je	LBB77_20
	jmp	LBB77_22
LBB77_20:
	movq	-32(%rbp), %rax
	movq	-256(%rbp), %rdi
	movq	%rax, %rsi
	callq	__ZN3syn3gen6helper5visit13tokens_helper17hf94adaee820ffee6E
	jmp	LBB77_22
LBB77_22:
	jmp	LBB77_12
	.cfi_endproc

	.globl	__ZN3syn3gen5visit15visit_expr_cast17hf1b809a8b4010c66E
	.p2align	4, 0x90
__ZN3syn3gen5visit15visit_expr_cast17hf1b809a8b4010c66E:
	.cfi_startproc
	pushq	%rbp
	.cfi_def_cfa_offset 16
	.cfi_offset %rbp, -16
	movq	%rsp, %rbp
	.cfi_def_cfa_register %rbp
	subq	$64, %rsp
	movq	%rsi, %rax
	movq	%rdi, -32(%rbp)
	movq	%rax, %rdi
	movq	%rsi, -40(%rbp)
	callq	__ZN90_$LT$$RF$alloc..vec..Vec$LT$T$GT$$u20$as$u20$core..iter..traits..collect..IntoIterator$GT$9into_iter17h20219f297f33a218E
	movq	%rax, -48(%rbp)
	movq	%rdx, -56(%rbp)
	movq	-48(%rbp), %rax
	movq	%rax, -24(%rbp)
	movq	-56(%rbp), %rcx
	movq	%rcx, -16(%rbp)
LBB78_2:
	leaq	-24(%rbp), %rdi
	callq	__ZN85_$LT$core..slice..Iter$LT$T$GT$$u20$as$u20$core..iter..traits..iterator..Iterator$GT$4next17h40a3bfa01ed102f7E
	movq	%rax, -8(%rbp)
	movq	-8(%rbp), %rax
	testq	%rax, %rax
	setne	%cl
	movzbl	%cl, %edx
	movl	%edx, %eax
	je	LBB78_4
	jmp	LBB78_11
LBB78_11:
	jmp	LBB78_6
LBB78_4:
	movq	-40(%rbp), %rax
	movq	24(%rax), %rsi
	movq	-32(%rbp), %rdi
	callq	__ZN3syn3gen5visit5Visit10visit_expr17h51cb5c4d95cbbf12E
	jmp	LBB78_8
	ud2
LBB78_6:
	movq	-8(%rbp), %rsi
	movq	-32(%rbp), %rdi
	callq	__ZN3syn3gen5visit5Visit15visit_attribute17h6c24c1446258a1f7E
	jmp	LBB78_2
LBB78_8:
	movq	-40(%rbp), %rax
	addq	$40, %rax
	movq	-32(%rbp), %rdi
	movq	%rax, %rsi
	callq	__ZN3syn3gen6helper5visit13tokens_helper17h18c9f68a4dc2f9c4E
	movq	-40(%rbp), %rax
	movq	32(%rax), %rsi
	movq	-32(%rbp), %rdi
	callq	__ZN3syn3gen5visit5Visit10visit_type17h3d7013057020e8d4E
	addq	$64, %rsp
	popq	%rbp
	retq
	.cfi_endproc

	.globl	__ZN3syn3gen5visit15visit_expr_path17h6c186b24d80986daE
	.p2align	4, 0x90
__ZN3syn3gen5visit15visit_expr_path17h6c186b24d80986daE:
	.cfi_startproc
	pushq	%rbp
	.cfi_def_cfa_offset 16
	.cfi_offset %rbp, -16
	movq	%rsp, %rbp
	.cfi_def_cfa_register %rbp
	subq	$80, %rsp
	movq	%rsi, %rax
	movq	%rdi, -40(%rbp)
	movq	%rax, %rdi
	movq	%rsi, -48(%rbp)
	callq	__ZN90_$LT$$RF$alloc..vec..Vec$LT$T$GT$$u20$as$u20$core..iter..traits..collect..IntoIterator$GT$9into_iter17h20219f297f33a218E
	movq	%rax, -56(%rbp)
	movq	%rdx, -64(%rbp)
	movq	-56(%rbp), %rax
	movq	%rax, -32(%rbp)
	movq	-64(%rbp), %rcx
	movq	%rcx, -24(%rbp)
LBB79_2:
	leaq	-32(%rbp), %rdi
	callq	__ZN85_$LT$core..slice..Iter$LT$T$GT$$u20$as$u20$core..iter..traits..iterator..Iterator$GT$4next17h40a3bfa01ed102f7E
	movq	%rax, -16(%rbp)
	movq	-16(%rbp), %rax
	testq	%rax, %rax
	setne	%cl
	movzbl	%cl, %edx
	movl	%edx, %eax
	je	LBB79_4
	jmp	LBB79_13
LBB79_13:
	jmp	LBB79_6
LBB79_4:
	xorl	%eax, %eax
	movl	%eax, %ecx
	movq	-48(%rbp), %rdx
	addq	$24, %rdx
	movq	-48(%rbp), %rsi
	movl	44(%rsi), %eax
	subl	$2, %eax
	cmpl	$0, %eax
	movl	$1, %edi
	cmovbeq	%rcx, %rdi
	cmpq	$1, %rdi
	movq	%rdx, -72(%rbp)
	je	LBB79_9
	jmp	LBB79_8
	ud2
LBB79_6:
	movq	-16(%rbp), %rsi
	movq	-40(%rbp), %rdi
	callq	__ZN3syn3gen5visit5Visit15visit_attribute17h6c24c1446258a1f7E
	jmp	LBB79_2
LBB79_8:
	jmp	LBB79_11
LBB79_9:
	movq	-72(%rbp), %rax
	movq	-40(%rbp), %rdi
	movq	%rax, %rsi
	callq	__ZN3syn3gen5visit5Visit11visit_qself17h45449a511bc0ea5fE
	jmp	LBB79_11
LBB79_11:
	movq	-48(%rbp), %rax
	addq	$56, %rax
	movq	-40(%rbp), %rdi
	movq	%rax, %rsi
	callq	__ZN3syn3gen5visit5Visit10visit_path17h102650d9b1d89885E
	addq	$80, %rsp
	popq	%rbp
	retq
	.cfi_endproc

	.globl	__ZN3syn3gen5visit15visit_lit_float17hf68339ebc63e2b52E
	.p2align	4, 0x90
__ZN3syn3gen5visit15visit_lit_float17hf68339ebc63e2b52E:
	.cfi_startproc
	pushq	%rbp
	.cfi_def_cfa_offset 16
	.cfi_offset %rbp, -16
	movq	%rsp, %rbp
	.cfi_def_cfa_register %rbp
	popq	%rbp
	retq
	.cfi_endproc

	.globl	__ZN3syn3gen5visit15visit_type_path17h75ad1da08536ece2E
	.p2align	4, 0x90
__ZN3syn3gen5visit15visit_type_path17h75ad1da08536ece2E:
	.cfi_startproc
	pushq	%rbp
	.cfi_def_cfa_offset 16
	.cfi_offset %rbp, -16
	movq	%rsp, %rbp
	.cfi_def_cfa_register %rbp
	subq	$32, %rsp
	xorl	%eax, %eax
	movl	%eax, %ecx
	movq	%rsi, %rdx
	movl	20(%rsi), %eax
	subl	$2, %eax
	cmpl	$0, %eax
	movl	$1, %r8d
	cmovbeq	%rcx, %r8
	cmpq	$1, %r8
	movq	%rdi, -16(%rbp)
	movq	%rsi, -24(%rbp)
	movq	%rdx, -32(%rbp)
	je	LBB81_2
	jmp	LBB81_4
LBB81_2:
	movq	-32(%rbp), %rax
	movq	-16(%rbp), %rdi
	movq	%rax, %rsi
	callq	__ZN3syn3gen5visit5Visit11visit_qself17h45449a511bc0ea5fE
	jmp	LBB81_4
LBB81_4:
	movq	-24(%rbp), %rax
	addq	$32, %rax
	movq	-16(%rbp), %rdi
	movq	%rax, %rsi
	callq	__ZN3syn3gen5visit5Visit10visit_path17h102650d9b1d89885E
	addq	$32, %rsp
	popq	%rbp
	retq
	.cfi_endproc

	.globl	__ZN3syn3gen5visit16visit_attr_style17h6621383d1ebe3d45E
	.p2align	4, 0x90
__ZN3syn3gen5visit16visit_attr_style17h6621383d1ebe3d45E:
	.cfi_startproc
	pushq	%rbp
	.cfi_def_cfa_offset 16
	.cfi_offset %rbp, -16
	movq	%rsp, %rbp
	.cfi_def_cfa_register %rbp
	subq	$32, %rsp
	movl	(%rsi), %eax
	movl	%eax, %ecx
	testq	%rcx, %rcx
	movq	%rdi, -16(%rbp)
	movq	%rsi, -24(%rbp)
	je	LBB82_3
	jmp	LBB82_6
LBB82_6:
	movq	-24(%rbp), %rax
	addq	$4, %rax
	movq	-16(%rbp), %rdi
	movq	%rax, %rsi
	callq	__ZN3syn3gen6helper5visit13tokens_helper17hf94adaee820ffee6E
	jmp	LBB82_4
	ud2
LBB82_3:
	jmp	LBB82_5
LBB82_4:
	jmp	LBB82_5
LBB82_5:
	addq	$32, %rsp
	popq	%rbp
	retq
	.cfi_endproc

	.globl	__ZN3syn3gen5visit16visit_constraint17hba9aa8408ade8695E
	.p2align	4, 0x90
__ZN3syn3gen5visit16visit_constraint17hba9aa8408ade8695E:
	.cfi_startproc
	pushq	%rbp
	.cfi_def_cfa_offset 16
	.cfi_offset %rbp, -16
	movq	%rsp, %rbp
	.cfi_def_cfa_register %rbp
	subq	$256, %rsp
	movq	%rsi, %rax
	movq	%rdi, -232(%rbp)
	movq	%rsi, -240(%rbp)
	movq	%rax, %rsi
	callq	__ZN88_$LT$synstructure..get_ty_params..BoundTypeLocator$u20$as$u20$syn..gen..visit..Visit$GT$11visit_ident17h3365fed3b29128c4E
	movq	-240(%rbp), %rax
	addq	$72, %rax
	movq	-232(%rbp), %rdi
	movq	%rax, %rsi
	callq	__ZN3syn3gen6helper5visit13tokens_helper17hf94adaee820ffee6E
	movq	-240(%rbp), %rax
	addq	$40, %rax
	leaq	-200(%rbp), %rdi
	movq	%rax, %rsi
	callq	__ZN3syn10punctuated23Punctuated$LT$T$C$P$GT$5pairs17he88ef2b4b5e882e4E
	leaq	-224(%rbp), %rdi
	leaq	-200(%rbp), %rsi
	callq	__ZN63_$LT$I$u20$as$u20$core..iter..traits..collect..IntoIterator$GT$9into_iter17hd4d4f75c63fbee68E
	movq	-224(%rbp), %rax
	movq	%rax, -176(%rbp)
	movq	-216(%rbp), %rax
	movq	%rax, -168(%rbp)
	movq	-208(%rbp), %rax
	movq	%rax, -160(%rbp)
LBB83_5:
	leaq	-128(%rbp), %rdi
	leaq	-176(%rbp), %rsi
	callq	__ZN94_$LT$syn..punctuated..Pairs$LT$T$C$P$GT$$u20$as$u20$core..iter..traits..iterator..Iterator$GT$4next17h09742e6916a34a94E
	movq	-128(%rbp), %rax
	addq	$-2, %rax
	setne	%cl
	movzbl	%cl, %edx
	movl	%edx, %esi
	je	LBB83_7
	jmp	LBB83_16
LBB83_16:
	jmp	LBB83_9
LBB83_7:
	addq	$256, %rsp
	popq	%rbp
	retq
	ud2
LBB83_9:
	movq	-128(%rbp), %rax
	movq	%rax, -104(%rbp)
	movq	-120(%rbp), %rax
	movq	%rax, -96(%rbp)
	movq	-112(%rbp), %rax
	movq	%rax, -88(%rbp)
	movq	-104(%rbp), %rax
	movq	%rax, -80(%rbp)
	movq	-96(%rbp), %rax
	movq	%rax, -72(%rbp)
	movq	-88(%rbp), %rax
	movq	%rax, -64(%rbp)
	movq	-80(%rbp), %rax
	movq	%rax, -152(%rbp)
	movq	-72(%rbp), %rax
	movq	%rax, -144(%rbp)
	movq	-64(%rbp), %rax
	movq	%rax, -136(%rbp)
	movq	-152(%rbp), %rax
	movq	%rax, -56(%rbp)
	movq	-144(%rbp), %rax
	movq	%rax, -48(%rbp)
	movq	-136(%rbp), %rax
	movq	%rax, -40(%rbp)
	movq	-56(%rbp), %rax
	movq	%rax, -24(%rbp)
	movq	-48(%rbp), %rax
	movq	%rax, -16(%rbp)
	movq	-40(%rbp), %rax
	movq	%rax, -8(%rbp)
	leaq	-24(%rbp), %rdi
	callq	__ZN3syn10punctuated17Pair$LT$T$C$P$GT$10into_tuple17he3631bdd10590eaaE
	movq	%rax, -248(%rbp)
	movq	%rdx, -256(%rbp)
	movq	-248(%rbp), %rax
	movq	-256(%rbp), %rcx
	movq	%rcx, -32(%rbp)
	movq	-232(%rbp), %rdi
	movq	%rax, %rsi
	callq	__ZN3syn3gen5visit5Visit22visit_type_param_bound17h6518873d02dad80dE
	xorl	%eax, %eax
	movl	%eax, %ecx
	cmpq	$0, -32(%rbp)
	movl	$1, %edx
	cmovbeq	%rcx, %rdx
	cmpq	$1, %rdx
	je	LBB83_13
	jmp	LBB83_15
LBB83_13:
	movq	-32(%rbp), %rax
	movq	-232(%rbp), %rdi
	movq	%rax, %rsi
	callq	__ZN3syn3gen6helper5visit13tokens_helper17hf94adaee820ffee6E
	jmp	LBB83_15
LBB83_15:
	jmp	LBB83_5
	.cfi_endproc

	.globl	__ZN3syn3gen5visit16visit_expr_field17h944e0400de205964E
	.p2align	4, 0x90
__ZN3syn3gen5visit16visit_expr_field17h944e0400de205964E:
	.cfi_startproc
	pushq	%rbp
	.cfi_def_cfa_offset 16
	.cfi_offset %rbp, -16
	movq	%rsp, %rbp
	.cfi_def_cfa_register %rbp
	subq	$64, %rsp
	movq	%rsi, %rax
	movq	%rdi, -32(%rbp)
	movq	%rax, %rdi
	movq	%rsi, -40(%rbp)
	callq	__ZN90_$LT$$RF$alloc..vec..Vec$LT$T$GT$$u20$as$u20$core..iter..traits..collect..IntoIterator$GT$9into_iter17h20219f297f33a218E
	movq	%rax, -48(%rbp)
	movq	%rdx, -56(%rbp)
	movq	-48(%rbp), %rax
	movq	%rax, -24(%rbp)
	movq	-56(%rbp), %rcx
	movq	%rcx, -16(%rbp)
LBB84_2:
	leaq	-24(%rbp), %rdi
	callq	__ZN85_$LT$core..slice..Iter$LT$T$GT$$u20$as$u20$core..iter..traits..iterator..Iterator$GT$4next17h40a3bfa01ed102f7E
	movq	%rax, -8(%rbp)
	movq	-8(%rbp), %rax
	testq	%rax, %rax
	setne	%cl
	movzbl	%cl, %edx
	movl	%edx, %eax
	je	LBB84_4
	jmp	LBB84_11
LBB84_11:
	jmp	LBB84_6
LBB84_4:
	movq	-40(%rbp), %rax
	movq	24(%rax), %rsi
	movq	-32(%rbp), %rdi
	callq	__ZN3syn3gen5visit5Visit10visit_expr17h51cb5c4d95cbbf12E
	jmp	LBB84_8
	ud2
LBB84_6:
	movq	-8(%rbp), %rsi
	movq	-32(%rbp), %rdi
	callq	__ZN3syn3gen5visit5Visit15visit_attribute17h6c24c1446258a1f7E
	jmp	LBB84_2
LBB84_8:
	movq	-40(%rbp), %rax
	addq	$80, %rax
	movq	-32(%rbp), %rdi
	movq	%rax, %rsi
	callq	__ZN3syn3gen6helper5visit13tokens_helper17hf94adaee820ffee6E
	movq	-40(%rbp), %rax
	addq	$32, %rax
	movq	-32(%rbp), %rdi
	movq	%rax, %rsi
	callq	__ZN3syn3gen5visit5Visit12visit_member17hdce6d9f3cf351356E
	addq	$64, %rsp
	popq	%rbp
	retq
	.cfi_endproc

	.globl	__ZN3syn3gen5visit16visit_expr_index17hf4a9cfe2c61d5ff8E
	.p2align	4, 0x90
__ZN3syn3gen5visit16visit_expr_index17hf4a9cfe2c61d5ff8E:
	.cfi_startproc
	pushq	%rbp
	.cfi_def_cfa_offset 16
	.cfi_offset %rbp, -16
	movq	%rsp, %rbp
	.cfi_def_cfa_register %rbp
	subq	$64, %rsp
	movq	%rsi, %rax
	movq	%rdi, -32(%rbp)
	movq	%rax, %rdi
	movq	%rsi, -40(%rbp)
	callq	__ZN90_$LT$$RF$alloc..vec..Vec$LT$T$GT$$u20$as$u20$core..iter..traits..collect..IntoIterator$GT$9into_iter17h20219f297f33a218E
	movq	%rax, -48(%rbp)
	movq	%rdx, -56(%rbp)
	movq	-48(%rbp), %rax
	movq	%rax, -24(%rbp)
	movq	-56(%rbp), %rcx
	movq	%rcx, -16(%rbp)
LBB85_2:
	leaq	-24(%rbp), %rdi
	callq	__ZN85_$LT$core..slice..Iter$LT$T$GT$$u20$as$u20$core..iter..traits..iterator..Iterator$GT$4next17h40a3bfa01ed102f7E
	movq	%rax, -8(%rbp)
	movq	-8(%rbp), %rax
	testq	%rax, %rax
	setne	%cl
	movzbl	%cl, %edx
	movl	%edx, %eax
	je	LBB85_4
	jmp	LBB85_11
LBB85_11:
	jmp	LBB85_6
LBB85_4:
	movq	-40(%rbp), %rax
	movq	24(%rax), %rsi
	movq	-32(%rbp), %rdi
	callq	__ZN3syn3gen5visit5Visit10visit_expr17h51cb5c4d95cbbf12E
	jmp	LBB85_8
	ud2
LBB85_6:
	movq	-8(%rbp), %rsi
	movq	-32(%rbp), %rdi
	callq	__ZN3syn3gen5visit5Visit15visit_attribute17h6c24c1446258a1f7E
	jmp	LBB85_2
LBB85_8:
	movq	-40(%rbp), %rax
	addq	$40, %rax
	movq	-32(%rbp), %rdi
	movq	%rax, %rsi
	callq	__ZN3syn3gen6helper5visit13tokens_helper17h18c9f68a4dc2f9c4E
	movq	-40(%rbp), %rax
	movq	32(%rax), %rsi
	movq	-32(%rbp), %rdi
	callq	__ZN3syn3gen5visit5Visit10visit_expr17h51cb5c4d95cbbf12E
	addq	$64, %rsp
	popq	%rbp
	retq
	.cfi_endproc

	.globl	__ZN3syn3gen5visit16visit_expr_paren17h61eb68dcaac143c6E
	.p2align	4, 0x90
__ZN3syn3gen5visit16visit_expr_paren17h61eb68dcaac143c6E:
	.cfi_startproc
	pushq	%rbp
	.cfi_def_cfa_offset 16
	.cfi_offset %rbp, -16
	movq	%rsp, %rbp
	.cfi_def_cfa_register %rbp
	subq	$64, %rsp
	movq	%rsi, %rax
	movq	%rdi, -32(%rbp)
	movq	%rax, %rdi
	movq	%rsi, -40(%rbp)
	callq	__ZN90_$LT$$RF$alloc..vec..Vec$LT$T$GT$$u20$as$u20$core..iter..traits..collect..IntoIterator$GT$9into_iter17h20219f297f33a218E
	movq	%rax, -48(%rbp)
	movq	%rdx, -56(%rbp)
	movq	-48(%rbp), %rax
	movq	%rax, -24(%rbp)
	movq	-56(%rbp), %rcx
	movq	%rcx, -16(%rbp)
LBB86_2:
	leaq	-24(%rbp), %rdi
	callq	__ZN85_$LT$core..slice..Iter$LT$T$GT$$u20$as$u20$core..iter..traits..iterator..Iterator$GT$4next17h40a3bfa01ed102f7E
	movq	%rax, -8(%rbp)
	movq	-8(%rbp), %rax
	testq	%rax, %rax
	setne	%cl
	movzbl	%cl, %edx
	movl	%edx, %eax
	je	LBB86_4
	jmp	LBB86_10
LBB86_10:
	jmp	LBB86_6
LBB86_4:
	movq	-40(%rbp), %rax
	addq	$32, %rax
	movq	-32(%rbp), %rdi
	movq	%rax, %rsi
	callq	__ZN3syn3gen6helper5visit13tokens_helper17h18c9f68a4dc2f9c4E
	jmp	LBB86_8
	ud2
LBB86_6:
	movq	-8(%rbp), %rsi
	movq	-32(%rbp), %rdi
	callq	__ZN3syn3gen5visit5Visit15visit_attribute17h6c24c1446258a1f7E
	jmp	LBB86_2
LBB86_8:
	movq	-40(%rbp), %rax
	movq	24(%rax), %rsi
	movq	-32(%rbp), %rdi
	callq	__ZN3syn3gen5visit5Visit10visit_expr17h51cb5c4d95cbbf12E
	addq	$64, %rsp
	popq	%rbp
	retq
	.cfi_endproc

	.globl	__ZN3syn3gen5visit16visit_expr_unary17h5c49e32657ded1efE
	.p2align	4, 0x90
__ZN3syn3gen5visit16visit_expr_unary17h5c49e32657ded1efE:
	.cfi_startproc
	pushq	%rbp
	.cfi_def_cfa_offset 16
	.cfi_offset %rbp, -16
	movq	%rsp, %rbp
	.cfi_def_cfa_register %rbp
	subq	$64, %rsp
	movq	%rsi, %rax
	movq	%rdi, -32(%rbp)
	movq	%rax, %rdi
	movq	%rsi, -40(%rbp)
	callq	__ZN90_$LT$$RF$alloc..vec..Vec$LT$T$GT$$u20$as$u20$core..iter..traits..collect..IntoIterator$GT$9into_iter17h20219f297f33a218E
	movq	%rax, -48(%rbp)
	movq	%rdx, -56(%rbp)
	movq	-48(%rbp), %rax
	movq	%rax, -24(%rbp)
	movq	-56(%rbp), %rcx
	movq	%rcx, -16(%rbp)
LBB87_2:
	leaq	-24(%rbp), %rdi
	callq	__ZN85_$LT$core..slice..Iter$LT$T$GT$$u20$as$u20$core..iter..traits..iterator..Iterator$GT$4next17h40a3bfa01ed102f7E
	movq	%rax, -8(%rbp)
	movq	-8(%rbp), %rax
	testq	%rax, %rax
	setne	%cl
	movzbl	%cl, %edx
	movl	%edx, %eax
	je	LBB87_4
	jmp	LBB87_10
LBB87_10:
	jmp	LBB87_6
LBB87_4:
	movq	-40(%rbp), %rax
	addq	$32, %rax
	movq	-32(%rbp), %rdi
	movq	%rax, %rsi
	callq	__ZN3syn3gen5visit5Visit11visit_un_op17hd115ed457849b3ccE
	jmp	LBB87_8
	ud2
LBB87_6:
	movq	-8(%rbp), %rsi
	movq	-32(%rbp), %rdi
	callq	__ZN3syn3gen5visit5Visit15visit_attribute17h6c24c1446258a1f7E
	jmp	LBB87_2
LBB87_8:
	movq	-40(%rbp), %rax
	movq	24(%rax), %rsi
	movq	-32(%rbp), %rdi
	callq	__ZN3syn3gen5visit5Visit10visit_expr17h51cb5c4d95cbbf12E
	addq	$64, %rsp
	popq	%rbp
	retq
	.cfi_endproc

	.globl	__ZN3syn3gen5visit16visit_type_array17hb7a2ece8ef7d860dE
	.p2align	4, 0x90
__ZN3syn3gen5visit16visit_type_array17hb7a2ece8ef7d860dE:
	.cfi_startproc
	pushq	%rbp
	.cfi_def_cfa_offset 16
	.cfi_offset %rbp, -16
	movq	%rsp, %rbp
	.cfi_def_cfa_register %rbp
	subq	$16, %rsp
	movq	%rsi, %rax
	addq	$120, %rax
	movq	%rdi, -8(%rbp)
	movq	%rsi, -16(%rbp)
	movq	%rax, %rsi
	callq	__ZN3syn3gen6helper5visit13tokens_helper17h18c9f68a4dc2f9c4E
	movq	-16(%rbp), %rax
	movq	(%rax), %rsi
	movq	-8(%rbp), %rdi
	callq	__ZN3syn3gen5visit5Visit10visit_type17h3d7013057020e8d4E
	movq	-16(%rbp), %rax
	addq	$124, %rax
	movq	-8(%rbp), %rdi
	movq	%rax, %rsi
	callq	__ZN3syn3gen6helper5visit13tokens_helper17hf94adaee820ffee6E
	movq	-16(%rbp), %rax
	addq	$8, %rax
	movq	-8(%rbp), %rdi
	movq	%rax, %rsi
	callq	__ZN3syn3gen5visit5Visit10visit_expr17h51cb5c4d95cbbf12E
	addq	$16, %rsp
	popq	%rbp
	retq
	.cfi_endproc

	.globl	__ZN3syn3gen5visit16visit_type_group17h73e4ed092c7ebeb5E
	.p2align	4, 0x90
__ZN3syn3gen5visit16visit_type_group17h73e4ed092c7ebeb5E:
	.cfi_startproc
	pushq	%rbp
	.cfi_def_cfa_offset 16
	.cfi_offset %rbp, -16
	movq	%rsp, %rbp
	.cfi_def_cfa_register %rbp
	subq	$16, %rsp
	movq	%rsi, %rax
	addq	$8, %rax
	movq	%rdi, -8(%rbp)
	movq	%rsi, -16(%rbp)
	movq	%rax, %rsi
	callq	__ZN3syn3gen6helper5visit13tokens_helper17h18c9f68a4dc2f9c4E
	movq	-16(%rbp), %rax
	movq	(%rax), %rsi
	movq	-8(%rbp), %rdi
	callq	__ZN3syn3gen5visit5Visit10visit_type17h3d7013057020e8d4E
	addq	$16, %rsp
	popq	%rbp
	retq
	.cfi_endproc

	.globl	__ZN3syn3gen5visit16visit_type_infer17hecf825a2b5ba88d8E
	.p2align	4, 0x90
__ZN3syn3gen5visit16visit_type_infer17hecf825a2b5ba88d8E:
	.cfi_startproc
	pushq	%rbp
	.cfi_def_cfa_offset 16
	.cfi_offset %rbp, -16
	movq	%rsp, %rbp
	.cfi_def_cfa_register %rbp
	callq	__ZN3syn3gen6helper5visit13tokens_helper17hf94adaee820ffee6E
	popq	%rbp
	retq
	.cfi_endproc

	.globl	__ZN3syn3gen5visit16visit_type_macro17h83ad8cd9a6b3bf19E
	.p2align	4, 0x90
__ZN3syn3gen5visit16visit_type_macro17h83ad8cd9a6b3bf19E:
	.cfi_startproc
	pushq	%rbp
	.cfi_def_cfa_offset 16
	.cfi_offset %rbp, -16
	movq	%rsp, %rbp
	.cfi_def_cfa_register %rbp
	callq	__ZN3syn3gen5visit5Visit11visit_macro17h2b49349fc506bf86E
	popq	%rbp
	retq
	.cfi_endproc

	.globl	__ZN3syn3gen5visit16visit_type_never17h8f83729a66c1f6cbE
	.p2align	4, 0x90
__ZN3syn3gen5visit16visit_type_never17h8f83729a66c1f6cbE:
	.cfi_startproc
	pushq	%rbp
	.cfi_def_cfa_offset 16
	.cfi_offset %rbp, -16
	movq	%rsp, %rbp
	.cfi_def_cfa_register %rbp
	callq	__ZN3syn3gen6helper5visit13tokens_helper17hf94adaee820ffee6E
	popq	%rbp
	retq
	.cfi_endproc

	.globl	__ZN3syn3gen5visit16visit_type_paren17h84a51d9963e12e33E
	.p2align	4, 0x90
__ZN3syn3gen5visit16visit_type_paren17h84a51d9963e12e33E:
	.cfi_startproc
	pushq	%rbp
	.cfi_def_cfa_offset 16
	.cfi_offset %rbp, -16
	movq	%rsp, %rbp
	.cfi_def_cfa_register %rbp
	subq	$16, %rsp
	movq	%rsi, %rax
	addq	$8, %rax
	movq	%rdi, -8(%rbp)
	movq	%rsi, -16(%rbp)
	movq	%rax, %rsi
	callq	__ZN3syn3gen6helper5visit13tokens_helper17h18c9f68a4dc2f9c4E
	movq	-16(%rbp), %rax
	movq	(%rax), %rsi
	movq	-8(%rbp), %rdi
	callq	__ZN3syn3gen5visit5Visit10visit_type17h3d7013057020e8d4E
	addq	$16, %rsp
	popq	%rbp
	retq
	.cfi_endproc

	.globl	__ZN3syn3gen5visit16visit_type_slice17h30b980e9b8dd2790E
	.p2align	4, 0x90
__ZN3syn3gen5visit16visit_type_slice17h30b980e9b8dd2790E:
	.cfi_startproc
	pushq	%rbp
	.cfi_def_cfa_offset 16
	.cfi_offset %rbp, -16
	movq	%rsp, %rbp
	.cfi_def_cfa_register %rbp
	subq	$16, %rsp
	movq	%rsi, %rax
	addq	$8, %rax
	movq	%rdi, -8(%rbp)
	movq	%rsi, -16(%rbp)
	movq	%rax, %rsi
	callq	__ZN3syn3gen6helper5visit13tokens_helper17h18c9f68a4dc2f9c4E
	movq	-16(%rbp), %rax
	movq	(%rax), %rsi
	movq	-8(%rbp), %rdi
	callq	__ZN3syn3gen5visit5Visit10visit_type17h3d7013057020e8d4E
	addq	$16, %rsp
	popq	%rbp
	retq
	.cfi_endproc

	.globl	__ZN3syn3gen5visit16visit_type_tuple17hdeeb2331586d0a22E
	.p2align	4, 0x90
__ZN3syn3gen5visit16visit_type_tuple17hdeeb2331586d0a22E:
	.cfi_startproc
	pushq	%rbp
	.cfi_def_cfa_offset 16
	.cfi_offset %rbp, -16
	movq	%rsp, %rbp
	.cfi_def_cfa_register %rbp
	subq	$256, %rsp
	movq	%rsi, %rax
	addq	$32, %rax
	movq	%rdi, -232(%rbp)
	movq	%rsi, -240(%rbp)
	movq	%rax, %rsi
	callq	__ZN3syn3gen6helper5visit13tokens_helper17h18c9f68a4dc2f9c4E
	movq	-240(%rbp), %rax
	leaq	-200(%rbp), %rdi
	movq	%rax, %rsi
	callq	__ZN3syn10punctuated23Punctuated$LT$T$C$P$GT$5pairs17ha22c902408d9519bE
	leaq	-224(%rbp), %rdi
	leaq	-200(%rbp), %rsi
	callq	__ZN63_$LT$I$u20$as$u20$core..iter..traits..collect..IntoIterator$GT$9into_iter17h59955eecc1720e8cE
	movq	-224(%rbp), %rax
	movq	%rax, -176(%rbp)
	movq	-216(%rbp), %rax
	movq	%rax, -168(%rbp)
	movq	-208(%rbp), %rax
	movq	%rax, -160(%rbp)
LBB95_4:
	leaq	-128(%rbp), %rdi
	leaq	-176(%rbp), %rsi
	callq	__ZN94_$LT$syn..punctuated..Pairs$LT$T$C$P$GT$$u20$as$u20$core..iter..traits..iterator..Iterator$GT$4next17hef03e2604d62ea43E
	movq	-128(%rbp), %rax
	addq	$-2, %rax
	setne	%cl
	movzbl	%cl, %edx
	movl	%edx, %esi
	je	LBB95_6
	jmp	LBB95_15
LBB95_15:
	jmp	LBB95_8
LBB95_6:
	addq	$256, %rsp
	popq	%rbp
	retq
	ud2
LBB95_8:
	movq	-128(%rbp), %rax
	movq	%rax, -104(%rbp)
	movq	-120(%rbp), %rax
	movq	%rax, -96(%rbp)
	movq	-112(%rbp), %rax
	movq	%rax, -88(%rbp)
	movq	-104(%rbp), %rax
	movq	%rax, -80(%rbp)
	movq	-96(%rbp), %rax
	movq	%rax, -72(%rbp)
	movq	-88(%rbp), %rax
	movq	%rax, -64(%rbp)
	movq	-80(%rbp), %rax
	movq	%rax, -152(%rbp)
	movq	-72(%rbp), %rax
	movq	%rax, -144(%rbp)
	movq	-64(%rbp), %rax
	movq	%rax, -136(%rbp)
	movq	-152(%rbp), %rax
	movq	%rax, -56(%rbp)
	movq	-144(%rbp), %rax
	movq	%rax, -48(%rbp)
	movq	-136(%rbp), %rax
	movq	%rax, -40(%rbp)
	movq	-56(%rbp), %rax
	movq	%rax, -24(%rbp)
	movq	-48(%rbp), %rax
	movq	%rax, -16(%rbp)
	movq	-40(%rbp), %rax
	movq	%rax, -8(%rbp)
	leaq	-24(%rbp), %rdi
	callq	__ZN3syn10punctuated17Pair$LT$T$C$P$GT$10into_tuple17h0b96dcb4eaa360e7E
	movq	%rax, -248(%rbp)
	movq	%rdx, -256(%rbp)
	movq	-248(%rbp), %rax
	movq	-256(%rbp), %rcx
	movq	%rcx, -32(%rbp)
	movq	-232(%rbp), %rdi
	movq	%rax, %rsi
	callq	__ZN3syn3gen5visit5Visit10visit_type17h3d7013057020e8d4E
	xorl	%eax, %eax
	movl	%eax, %ecx
	cmpq	$0, -32(%rbp)
	movl	$1, %edx
	cmovbeq	%rcx, %rdx
	cmpq	$1, %rdx
	je	LBB95_12
	jmp	LBB95_14
LBB95_12:
	movq	-32(%rbp), %rax
	movq	-232(%rbp), %rdi
	movq	%rax, %rsi
	callq	__ZN3syn3gen6helper5visit13tokens_helper17hf94adaee820ffee6E
	jmp	LBB95_14
LBB95_14:
	jmp	LBB95_4
	.cfi_endproc

	.globl	__ZN3syn3gen5visit17visit_bare_fn_arg17h14609ce3a76826dbE
	.p2align	4, 0x90
__ZN3syn3gen5visit17visit_bare_fn_arg17h14609ce3a76826dbE:
	.cfi_startproc
	pushq	%rbp
	.cfi_def_cfa_offset 16
	.cfi_offset %rbp, -16
	movq	%rsp, %rbp
	.cfi_def_cfa_register %rbp
	subq	$80, %rsp
	movq	%rsi, %rax
	movq	%rdi, -32(%rbp)
	movq	%rax, %rdi
	movq	%rsi, -40(%rbp)
	callq	__ZN90_$LT$$RF$alloc..vec..Vec$LT$T$GT$$u20$as$u20$core..iter..traits..collect..IntoIterator$GT$9into_iter17h20219f297f33a218E
	movq	%rax, -48(%rbp)
	movq	%rdx, -56(%rbp)
	movq	-48(%rbp), %rax
	movq	%rax, -24(%rbp)
	movq	-56(%rbp), %rcx
	movq	%rcx, -16(%rbp)
LBB96_2:
	leaq	-24(%rbp), %rdi
	callq	__ZN85_$LT$core..slice..Iter$LT$T$GT$$u20$as$u20$core..iter..traits..iterator..Iterator$GT$4next17h40a3bfa01ed102f7E
	movq	%rax, -8(%rbp)
	movq	-8(%rbp), %rax
	testq	%rax, %rax
	setne	%cl
	movzbl	%cl, %edx
	movl	%edx, %eax
	je	LBB96_4
	jmp	LBB96_14
LBB96_14:
	jmp	LBB96_6
LBB96_4:
	xorl	%eax, %eax
	movl	%eax, %ecx
	movq	-40(%rbp), %rdx
	addq	$24, %rdx
	movq	-40(%rbp), %rsi
	movl	24(%rsi), %eax
	subl	$2, %eax
	cmpl	$0, %eax
	movl	$1, %edi
	cmovbeq	%rcx, %rdi
	cmpq	$1, %rdi
	movq	%rdx, -64(%rbp)
	je	LBB96_9
	jmp	LBB96_8
	ud2
LBB96_6:
	movq	-8(%rbp), %rsi
	movq	-32(%rbp), %rdi
	callq	__ZN3syn3gen5visit5Visit15visit_attribute17h6c24c1446258a1f7E
	jmp	LBB96_2
LBB96_8:
	jmp	LBB96_12
LBB96_9:
	movq	-64(%rbp), %rax
	movq	%rax, %rcx
	movq	-32(%rbp), %rdi
	movq	%rcx, %rsi
	movq	%rax, -72(%rbp)
	callq	__ZN88_$LT$synstructure..get_ty_params..BoundTypeLocator$u20$as$u20$syn..gen..visit..Visit$GT$11visit_ident17h3365fed3b29128c4E
	movq	-72(%rbp), %rax
	addq	$40, %rax
	movq	-32(%rbp), %rdi
	movq	%rax, %rsi
	callq	__ZN3syn3gen6helper5visit13tokens_helper17hf94adaee820ffee6E
	jmp	LBB96_12
LBB96_12:
	movq	-40(%rbp), %rax
	addq	$72, %rax
	movq	-32(%rbp), %rdi
	movq	%rax, %rsi
	callq	__ZN3syn3gen5visit5Visit10visit_type17h3d7013057020e8d4E
	addq	$80, %rsp
	popq	%rbp
	retq
	.cfi_endproc

	.globl	__ZN3syn3gen5visit17visit_expr_binary17hc66f6d891d1177a9E
	.p2align	4, 0x90
__ZN3syn3gen5visit17visit_expr_binary17hc66f6d891d1177a9E:
	.cfi_startproc
	pushq	%rbp
	.cfi_def_cfa_offset 16
	.cfi_offset %rbp, -16
	movq	%rsp, %rbp
	.cfi_def_cfa_register %rbp
	subq	$64, %rsp
	movq	%rsi, %rax
	movq	%rdi, -32(%rbp)
	movq	%rax, %rdi
	movq	%rsi, -40(%rbp)
	callq	__ZN90_$LT$$RF$alloc..vec..Vec$LT$T$GT$$u20$as$u20$core..iter..traits..collect..IntoIterator$GT$9into_iter17h20219f297f33a218E
	movq	%rax, -48(%rbp)
	movq	%rdx, -56(%rbp)
	movq	-48(%rbp), %rax
	movq	%rax, -24(%rbp)
	movq	-56(%rbp), %rcx
	movq	%rcx, -16(%rbp)
LBB97_2:
	leaq	-24(%rbp), %rdi
	callq	__ZN85_$LT$core..slice..Iter$LT$T$GT$$u20$as$u20$core..iter..traits..iterator..Iterator$GT$4next17h40a3bfa01ed102f7E
	movq	%rax, -8(%rbp)
	movq	-8(%rbp), %rax
	testq	%rax, %rax
	setne	%cl
	movzbl	%cl, %edx
	movl	%edx, %eax
	je	LBB97_4
	jmp	LBB97_11
LBB97_11:
	jmp	LBB97_6
LBB97_4:
	movq	-40(%rbp), %rax
	movq	24(%rax), %rsi
	movq	-32(%rbp), %rdi
	callq	__ZN3syn3gen5visit5Visit10visit_expr17h51cb5c4d95cbbf12E
	jmp	LBB97_8
	ud2
LBB97_6:
	movq	-8(%rbp), %rsi
	movq	-32(%rbp), %rdi
	callq	__ZN3syn3gen5visit5Visit15visit_attribute17h6c24c1446258a1f7E
	jmp	LBB97_2
LBB97_8:
	movq	-40(%rbp), %rax
	addq	$40, %rax
	movq	-32(%rbp), %rdi
	movq	%rax, %rsi
	callq	__ZN3syn3gen5visit5Visit12visit_bin_op17h609f01e5be81d61aE
	movq	-40(%rbp), %rax
	movq	32(%rax), %rsi
	movq	-32(%rbp), %rdi
	callq	__ZN3syn3gen5visit5Visit10visit_expr17h51cb5c4d95cbbf12E
	addq	$64, %rsp
	popq	%rbp
	retq
	.cfi_endproc

	.globl	__ZN3syn3gen5visit17visit_return_type17ha6e7139745b69b3fE
	.p2align	4, 0x90
__ZN3syn3gen5visit17visit_return_type17ha6e7139745b69b3fE:
	.cfi_startproc
	pushq	%rbp
	.cfi_def_cfa_offset 16
	.cfi_offset %rbp, -16
	movq	%rsp, %rbp
	.cfi_def_cfa_register %rbp
	subq	$32, %rsp
	movq	(%rsi), %rax
	testq	%rax, %rax
	setne	%cl
	movzbl	%cl, %edx
	movl	%edx, %eax
	movq	%rdi, -16(%rbp)
	movq	%rsi, -24(%rbp)
	je	LBB98_3
	jmp	LBB98_7
LBB98_7:
	movq	-24(%rbp), %rax
	addq	$8, %rax
	movq	-24(%rbp), %rcx
	movq	-16(%rbp), %rdi
	movq	%rax, %rsi
	movq	%rcx, -32(%rbp)
	callq	__ZN3syn3gen6helper5visit13tokens_helper17h711609849b703e9dE
	jmp	LBB98_4
	ud2
LBB98_3:
	jmp	LBB98_6
LBB98_4:
	movq	-32(%rbp), %rax
	movq	(%rax), %rsi
	movq	-16(%rbp), %rdi
	callq	__ZN3syn3gen5visit5Visit10visit_type17h3d7013057020e8d4E
	jmp	LBB98_6
LBB98_6:
	addq	$32, %rsp
	popq	%rbp
	retq
	.cfi_endproc

	.globl	__ZN3syn3gen5visit17visit_trait_bound17h53815d2afe090d07E
	.p2align	4, 0x90
__ZN3syn3gen5visit17visit_trait_bound17h53815d2afe090d07E:
	.cfi_startproc
	pushq	%rbp
	.cfi_def_cfa_offset 16
	.cfi_offset %rbp, -16
	movq	%rsp, %rbp
	.cfi_def_cfa_register %rbp
	subq	$48, %rsp
	movq	%rsi, %rax
	addq	$96, %rax
	movl	96(%rsi), %ecx
	movl	%ecx, %edx
	cmpq	$1, %rdx
	movq	%rdi, -24(%rbp)
	movq	%rsi, -32(%rbp)
	movq	%rax, -40(%rbp)
	je	LBB99_2
	jmp	LBB99_4
LBB99_2:
	movq	-40(%rbp), %rax
	addq	$4, %rax
	movq	-24(%rbp), %rdi
	movq	%rax, %rsi
	callq	__ZN3syn3gen6helper5visit13tokens_helper17h18c9f68a4dc2f9c4E
	jmp	LBB99_4
LBB99_4:
	movq	-32(%rbp), %rax
	addq	$104, %rax
	movq	-24(%rbp), %rdi
	movq	%rax, %rsi
	callq	__ZN3syn3gen5visit5Visit26visit_trait_bound_modifier17hc614cc8370be2c10E
	xorl	%eax, %eax
	movl	%eax, %ecx
	movq	-32(%rbp), %rdx
	movq	-32(%rbp), %rsi
	cmpq	$0, (%rsi)
	movl	$1, %edi
	cmovbeq	%rcx, %rdi
	cmpq	$1, %rdi
	movq	%rdx, -48(%rbp)
	je	LBB99_7
	jmp	LBB99_9
LBB99_7:
	movq	-48(%rbp), %rax
	movq	-24(%rbp), %rdi
	movq	%rax, %rsi
	callq	__ZN3syn3gen5visit5Visit21visit_bound_lifetimes17hdc00f1b8e3ceaf0dE
	jmp	LBB99_9
LBB99_9:
	movq	-32(%rbp), %rax
	addq	$48, %rax
	movq	-24(%rbp), %rdi
	movq	%rax, %rsi
	callq	__ZN3syn3gen5visit5Visit10visit_path17h102650d9b1d89885E
	addq	$48, %rsp
	popq	%rbp
	retq
	.cfi_endproc

	.globl	__ZN3syn3gen5visit18visit_lifetime_def17h974b6513cd137898E
	.p2align	4, 0x90
__ZN3syn3gen5visit18visit_lifetime_def17h974b6513cd137898E:
	.cfi_startproc
	pushq	%rbp
	.cfi_def_cfa_offset 16
	.cfi_offset %rbp, -16
	movq	%rsp, %rbp
	.cfi_def_cfa_register %rbp
	subq	$320, %rsp
	movq	%rsi, %rax
	movq	%rdi, -264(%rbp)
	movq	%rax, %rdi
	movq	%rsi, -272(%rbp)
	callq	__ZN90_$LT$$RF$alloc..vec..Vec$LT$T$GT$$u20$as$u20$core..iter..traits..collect..IntoIterator$GT$9into_iter17h20219f297f33a218E
	movq	%rax, -280(%rbp)
	movq	%rdx, -288(%rbp)
	movq	-280(%rbp), %rax
	movq	%rax, -256(%rbp)
	movq	-288(%rbp), %rcx
	movq	%rcx, -248(%rbp)
LBB100_2:
	leaq	-256(%rbp), %rdi
	callq	__ZN85_$LT$core..slice..Iter$LT$T$GT$$u20$as$u20$core..iter..traits..iterator..Iterator$GT$4next17h40a3bfa01ed102f7E
	movq	%rax, -240(%rbp)
	movq	-240(%rbp), %rax
	testq	%rax, %rax
	setne	%cl
	movzbl	%cl, %edx
	movl	%edx, %eax
	je	LBB100_4
	jmp	LBB100_26
LBB100_26:
	jmp	LBB100_6
LBB100_4:
	movq	-272(%rbp), %rax
	addq	$24, %rax
	movq	-264(%rbp), %rdi
	movq	%rax, %rsi
	callq	__ZN3syn3gen5visit5Visit14visit_lifetime17h5e3c0b5117f2cf4bE
	jmp	LBB100_8
	ud2
LBB100_6:
	movq	-240(%rbp), %rsi
	movq	-264(%rbp), %rdi
	callq	__ZN3syn3gen5visit5Visit15visit_attribute17h6c24c1446258a1f7E
	jmp	LBB100_2
LBB100_8:
	movq	-272(%rbp), %rax
	addq	$104, %rax
	movq	-272(%rbp), %rcx
	movl	104(%rcx), %edx
	movl	%edx, %esi
	cmpq	$1, %rsi
	movq	%rax, -296(%rbp)
	je	LBB100_10
	jmp	LBB100_12
LBB100_10:
	movq	-296(%rbp), %rax
	addq	$4, %rax
	movq	-264(%rbp), %rdi
	movq	%rax, %rsi
	callq	__ZN3syn3gen6helper5visit13tokens_helper17hf94adaee820ffee6E
	jmp	LBB100_12
LBB100_12:
	movq	-272(%rbp), %rax
	addq	$72, %rax
	leaq	-200(%rbp), %rdi
	movq	%rax, %rsi
	callq	__ZN3syn10punctuated23Punctuated$LT$T$C$P$GT$5pairs17h9bd36a007aa8f431E
	leaq	-224(%rbp), %rdi
	leaq	-200(%rbp), %rsi
	callq	__ZN63_$LT$I$u20$as$u20$core..iter..traits..collect..IntoIterator$GT$9into_iter17h538d57ef2e537502E
	movq	-224(%rbp), %rax
	movq	%rax, -176(%rbp)
	movq	-216(%rbp), %rax
	movq	%rax, -168(%rbp)
	movq	-208(%rbp), %rax
	movq	%rax, -160(%rbp)
LBB100_15:
	leaq	-128(%rbp), %rdi
	leaq	-176(%rbp), %rsi
	callq	__ZN94_$LT$syn..punctuated..Pairs$LT$T$C$P$GT$$u20$as$u20$core..iter..traits..iterator..Iterator$GT$4next17he1f94607feeebaa7E
	movq	-128(%rbp), %rax
	addq	$-2, %rax
	setne	%cl
	movzbl	%cl, %edx
	movl	%edx, %esi
	je	LBB100_17
	jmp	LBB100_27
LBB100_27:
	jmp	LBB100_19
LBB100_17:
	addq	$320, %rsp
	popq	%rbp
	retq
	ud2
LBB100_19:
	movq	-128(%rbp), %rax
	movq	%rax, -104(%rbp)
	movq	-120(%rbp), %rax
	movq	%rax, -96(%rbp)
	movq	-112(%rbp), %rax
	movq	%rax, -88(%rbp)
	movq	-104(%rbp), %rax
	movq	%rax, -80(%rbp)
	movq	-96(%rbp), %rax
	movq	%rax, -72(%rbp)
	movq	-88(%rbp), %rax
	movq	%rax, -64(%rbp)
	movq	-80(%rbp), %rax
	movq	%rax, -152(%rbp)
	movq	-72(%rbp), %rax
	movq	%rax, -144(%rbp)
	movq	-64(%rbp), %rax
	movq	%rax, -136(%rbp)
	movq	-152(%rbp), %rax
	movq	%rax, -56(%rbp)
	movq	-144(%rbp), %rax
	movq	%rax, -48(%rbp)
	movq	-136(%rbp), %rax
	movq	%rax, -40(%rbp)
	movq	-56(%rbp), %rax
	movq	%rax, -24(%rbp)
	movq	-48(%rbp), %rax
	movq	%rax, -16(%rbp)
	movq	-40(%rbp), %rax
	movq	%rax, -8(%rbp)
	leaq	-24(%rbp), %rdi
	callq	__ZN3syn10punctuated17Pair$LT$T$C$P$GT$10into_tuple17hbce709889ef7d754E
	movq	%rax, -304(%rbp)
	movq	%rdx, -312(%rbp)
	movq	-304(%rbp), %rax
	movq	-312(%rbp), %rcx
	movq	%rcx, -32(%rbp)
	movq	-264(%rbp), %rdi
	movq	%rax, %rsi
	callq	__ZN3syn3gen5visit5Visit14visit_lifetime17h5e3c0b5117f2cf4bE
	xorl	%eax, %eax
	movl	%eax, %ecx
	cmpq	$0, -32(%rbp)
	movl	$1, %edx
	cmovbeq	%rcx, %rdx
	cmpq	$1, %rdx
	je	LBB100_23
	jmp	LBB100_25
LBB100_23:
	movq	-32(%rbp), %rax
	movq	-264(%rbp), %rdi
	movq	%rax, %rsi
	callq	__ZN3syn3gen6helper5visit13tokens_helper17hf94adaee820ffee6E
	jmp	LBB100_25
LBB100_25:
	jmp	LBB100_15
	.cfi_endproc

	.globl	__ZN3syn3gen5visit18visit_lit_byte_str17h6e0f350ceeeccb6fE
	.p2align	4, 0x90
__ZN3syn3gen5visit18visit_lit_byte_str17h6e0f350ceeeccb6fE:
	.cfi_startproc
	pushq	%rbp
	.cfi_def_cfa_offset 16
	.cfi_offset %rbp, -16
	movq	%rsp, %rbp
	.cfi_def_cfa_register %rbp
	popq	%rbp
	retq
	.cfi_endproc

	.globl	__ZN3syn3gen5visit18visit_path_segment17h4690be5604f73118E
	.p2align	4, 0x90
__ZN3syn3gen5visit18visit_path_segment17h4690be5604f73118E:
	.cfi_startproc
	pushq	%rbp
	.cfi_def_cfa_offset 16
	.cfi_offset %rbp, -16
	movq	%rsp, %rbp
	.cfi_def_cfa_register %rbp
	subq	$16, %rsp
	movq	%rsi, %rax
	movq	%rdi, -8(%rbp)
	movq	%rsi, -16(%rbp)
	movq	%rax, %rsi
	callq	__ZN88_$LT$synstructure..get_ty_params..BoundTypeLocator$u20$as$u20$syn..gen..visit..Visit$GT$11visit_ident17h3365fed3b29128c4E
	movq	-16(%rbp), %rax
	addq	$40, %rax
	movq	-8(%rbp), %rdi
	movq	%rax, %rsi
	callq	__ZN3syn3gen5visit5Visit20visit_path_arguments17h0c872337ada439c0E
	addq	$16, %rsp
	popq	%rbp
	retq
	.cfi_endproc

	.globl	__ZN3syn3gen5visit18visit_type_bare_fn17hc68a226cb1121ca9E
	.p2align	4, 0x90
__ZN3syn3gen5visit18visit_type_bare_fn17hc68a226cb1121ca9E:
	.cfi_startproc
	pushq	%rbp
	.cfi_def_cfa_offset 16
	.cfi_offset %rbp, -16
	movq	%rsp, %rbp
	.cfi_def_cfa_register %rbp
	subq	$320, %rsp
	xorl	%eax, %eax
	movl	%eax, %ecx
	movq	%rsi, %rdx
	cmpq	$0, (%rsi)
	movl	$1, %r8d
	cmovbeq	%rcx, %r8
	cmpq	$1, %r8
	movq	%rdi, -264(%rbp)
	movq	%rsi, -272(%rbp)
	movq	%rdx, -280(%rbp)
	je	LBB103_2
	jmp	LBB103_4
LBB103_2:
	movq	-280(%rbp), %rax
	movq	-264(%rbp), %rdi
	movq	%rax, %rsi
	callq	__ZN3syn3gen5visit5Visit21visit_bound_lifetimes17hdc00f1b8e3ceaf0dE
	jmp	LBB103_4
LBB103_4:
	movq	-272(%rbp), %rax
	addq	$160, %rax
	movq	-272(%rbp), %rcx
	movl	160(%rcx), %edx
	movl	%edx, %esi
	cmpq	$1, %rsi
	movq	%rax, -288(%rbp)
	je	LBB103_6
	jmp	LBB103_8
LBB103_6:
	movq	-288(%rbp), %rax
	addq	$4, %rax
	movq	-264(%rbp), %rdi
	movq	%rax, %rsi
	callq	__ZN3syn3gen6helper5visit13tokens_helper17h18c9f68a4dc2f9c4E
	jmp	LBB103_8
LBB103_8:
	movq	-272(%rbp), %rax
	addq	$48, %rax
	movq	-272(%rbp), %rcx
	cmpq	$1, 48(%rcx)
	movq	%rax, -296(%rbp)
	je	LBB103_10
	jmp	LBB103_12
LBB103_10:
	movq	-296(%rbp), %rax
	addq	$8, %rax
	movq	-264(%rbp), %rdi
	movq	%rax, %rsi
	callq	__ZN3syn3gen5visit5Visit9visit_abi17h51f7d4ad0929187eE
	jmp	LBB103_12
LBB103_12:
	movq	-272(%rbp), %rax
	addq	$168, %rax
	movq	-264(%rbp), %rdi
	movq	%rax, %rsi
	callq	__ZN3syn3gen6helper5visit13tokens_helper17h18c9f68a4dc2f9c4E
	movq	-272(%rbp), %rax
	addq	$172, %rax
	movq	-264(%rbp), %rdi
	movq	%rax, %rsi
	callq	__ZN3syn3gen6helper5visit13tokens_helper17h18c9f68a4dc2f9c4E
	movq	-272(%rbp), %rax
	addq	$72, %rax
	leaq	-208(%rbp), %rdi
	movq	%rax, %rsi
	callq	__ZN3syn10punctuated23Punctuated$LT$T$C$P$GT$5pairs17hbdcfe96e2fa663e5E
	leaq	-232(%rbp), %rdi
	leaq	-208(%rbp), %rsi
	callq	__ZN63_$LT$I$u20$as$u20$core..iter..traits..collect..IntoIterator$GT$9into_iter17h5a5a42f40afc084dE
	movq	-232(%rbp), %rax
	movq	%rax, -184(%rbp)
	movq	-224(%rbp), %rax
	movq	%rax, -176(%rbp)
	movq	-216(%rbp), %rax
	movq	%rax, -168(%rbp)
LBB103_17:
	leaq	-136(%rbp), %rdi
	leaq	-184(%rbp), %rsi
	callq	__ZN94_$LT$syn..punctuated..Pairs$LT$T$C$P$GT$$u20$as$u20$core..iter..traits..iterator..Iterator$GT$4next17h9c783b241a3e00b4E
	movq	-136(%rbp), %rax
	addq	$-2, %rax
	setne	%cl
	movzbl	%cl, %edx
	movl	%edx, %esi
	je	LBB103_19
	jmp	LBB103_33
LBB103_33:
	jmp	LBB103_21
LBB103_19:
	xorl	%eax, %eax
	movl	%eax, %ecx
	movq	-272(%rbp), %rdx
	addq	$104, %rdx
	movq	-272(%rbp), %rsi
	cmpq	$0, 104(%rsi)
	movl	$1, %edi
	cmovbeq	%rcx, %rdi
	cmpq	$1, %rdi
	movq	%rdx, -304(%rbp)
	je	LBB103_29
	jmp	LBB103_28
	ud2
LBB103_21:
	movq	-136(%rbp), %rax
	movq	%rax, -112(%rbp)
	movq	-128(%rbp), %rax
	movq	%rax, -104(%rbp)
	movq	-120(%rbp), %rax
	movq	%rax, -96(%rbp)
	movq	-112(%rbp), %rax
	movq	%rax, -88(%rbp)
	movq	-104(%rbp), %rax
	movq	%rax, -80(%rbp)
	movq	-96(%rbp), %rax
	movq	%rax, -72(%rbp)
	movq	-88(%rbp), %rax
	movq	%rax, -160(%rbp)
	movq	-80(%rbp), %rax
	movq	%rax, -152(%rbp)
	movq	-72(%rbp), %rax
	movq	%rax, -144(%rbp)
	movq	-160(%rbp), %rax
	movq	%rax, -64(%rbp)
	movq	-152(%rbp), %rax
	movq	%rax, -56(%rbp)
	movq	-144(%rbp), %rax
	movq	%rax, -48(%rbp)
	movq	-64(%rbp), %rax
	movq	%rax, -32(%rbp)
	movq	-56(%rbp), %rax
	movq	%rax, -24(%rbp)
	movq	-48(%rbp), %rax
	movq	%rax, -16(%rbp)
	leaq	-32(%rbp), %rdi
	callq	__ZN3syn10punctuated17Pair$LT$T$C$P$GT$10into_tuple17h2115d48d695690d2E
	movq	%rax, -312(%rbp)
	movq	%rdx, -320(%rbp)
	movq	-312(%rbp), %rax
	movq	-320(%rbp), %rcx
	movq	%rcx, -40(%rbp)
	movq	-264(%rbp), %rdi
	movq	%rax, %rsi
	callq	__ZN3syn3gen5visit5Visit17visit_bare_fn_arg17h92a65400d5709623E
	xorl	%eax, %eax
	movl	%eax, %ecx
	cmpq	$0, -40(%rbp)
	movl	$1, %edx
	cmovbeq	%rcx, %rdx
	cmpq	$1, %rdx
	je	LBB103_25
	jmp	LBB103_27
LBB103_25:
	movq	-40(%rbp), %rax
	movq	-264(%rbp), %rdi
	movq	%rax, %rsi
	callq	__ZN3syn3gen6helper5visit13tokens_helper17hf94adaee820ffee6E
	jmp	LBB103_27
LBB103_27:
	jmp	LBB103_17
LBB103_28:
	jmp	LBB103_31
LBB103_29:
	movq	-304(%rbp), %rax
	movq	-264(%rbp), %rdi
	movq	%rax, %rsi
	callq	__ZN3syn3gen5visit5Visit14visit_variadic17hb4a4d5d6a7fc4987E
	jmp	LBB103_31
LBB103_31:
	movq	-272(%rbp), %rax
	addq	$144, %rax
	movq	-264(%rbp), %rdi
	movq	%rax, %rsi
	callq	__ZN3syn3gen5visit5Visit17visit_return_type17hdf86b18f3269759aE
	addq	$320, %rsp
	popq	%rbp
	retq
	.cfi_endproc

	.globl	__ZN3syn3gen5visit20visit_path_arguments17h8a0de947d9713511E
	.p2align	4, 0x90
__ZN3syn3gen5visit20visit_path_arguments17h8a0de947d9713511E:
	.cfi_startproc
	pushq	%rbp
	.cfi_def_cfa_offset 16
	.cfi_offset %rbp, -16
	movq	%rsp, %rbp
	.cfi_def_cfa_register %rbp
	subq	$32, %rsp
	movq	(%rsi), %rax
	testq	%rax, %rax
	movq	%rdi, -16(%rbp)
	movq	%rsi, -24(%rbp)
	movq	%rax, -32(%rbp)
	je	LBB104_3
	jmp	LBB104_8
LBB104_8:
	movq	-32(%rbp), %rax
	subq	$1, %rax
	je	LBB104_4
	jmp	LBB104_9
LBB104_9:
	movq	-24(%rbp), %rax
	addq	$8, %rax
	movq	-16(%rbp), %rdi
	movq	%rax, %rsi
	callq	__ZN3syn3gen5visit5Visit37visit_parenthesized_generic_arguments17h9ad2266f9c1f5be6E
	jmp	LBB104_6
	ud2
LBB104_3:
	jmp	LBB104_7
LBB104_4:
	movq	-24(%rbp), %rax
	addq	$8, %rax
	movq	-16(%rbp), %rdi
	movq	%rax, %rsi
	callq	__ZN3syn3gen5visit5Visit39visit_angle_bracketed_generic_arguments17hf8be22be96b88de9E
	jmp	LBB104_7
LBB104_6:
	jmp	LBB104_7
LBB104_7:
	addq	$32, %rsp
	popq	%rbp
	retq
	.cfi_endproc

	.globl	__ZN3syn3gen5visit20visit_type_reference17h3ed682381f5ef431E
	.p2align	4, 0x90
__ZN3syn3gen5visit20visit_type_reference17h3ed682381f5ef431E:
	.cfi_startproc
	pushq	%rbp
	.cfi_def_cfa_offset 16
	.cfi_offset %rbp, -16
	movq	%rsp, %rbp
	.cfi_def_cfa_register %rbp
	subq	$48, %rsp
	movq	%rsi, %rax
	addq	$56, %rax
	movq	%rdi, -24(%rbp)
	movq	%rsi, -32(%rbp)
	movq	%rax, %rsi
	callq	__ZN3syn3gen6helper5visit13tokens_helper17hf94adaee820ffee6E
	xorl	%eax, %eax
	movl	%eax, %ecx
	movq	-32(%rbp), %rdx
	movq	-32(%rbp), %rsi
	movl	(%rsi), %eax
	subl	$2, %eax
	cmpl	$0, %eax
	movl	$1, %edi
	cmovbeq	%rcx, %rdi
	cmpq	$1, %rdi
	movq	%rdx, -40(%rbp)
	je	LBB105_3
	jmp	LBB105_5
LBB105_3:
	movq	-40(%rbp), %rax
	movq	-24(%rbp), %rdi
	movq	%rax, %rsi
	callq	__ZN3syn3gen5visit5Visit14visit_lifetime17h5e3c0b5117f2cf4bE
	jmp	LBB105_5
LBB105_5:
	movq	-32(%rbp), %rax
	addq	$60, %rax
	movq	-32(%rbp), %rcx
	movl	60(%rcx), %edx
	movl	%edx, %esi
	cmpq	$1, %rsi
	movq	%rax, -48(%rbp)
	je	LBB105_7
	jmp	LBB105_9
LBB105_7:
	movq	-48(%rbp), %rax
	addq	$4, %rax
	movq	-24(%rbp), %rdi
	movq	%rax, %rsi
	callq	__ZN3syn3gen6helper5visit13tokens_helper17h18c9f68a4dc2f9c4E
	jmp	LBB105_9
LBB105_9:
	movq	-32(%rbp), %rax
	movq	48(%rax), %rsi
	movq	-24(%rbp), %rdi
	callq	__ZN3syn3gen5visit5Visit10visit_type17h3d7013057020e8d4E
	addq	$48, %rsp
	popq	%rbp
	retq
	.cfi_endproc

	.globl	__ZN3syn3gen5visit21visit_bound_lifetimes17h223e6d63651bda67E
	.p2align	4, 0x90
__ZN3syn3gen5visit21visit_bound_lifetimes17h223e6d63651bda67E:
	.cfi_startproc
	pushq	%rbp
	.cfi_def_cfa_offset 16
	.cfi_offset %rbp, -16
	movq	%rsp, %rbp
	.cfi_def_cfa_register %rbp
	subq	$256, %rsp
	movq	%rsi, %rax
	addq	$32, %rax
	movq	%rdi, -232(%rbp)
	movq	%rsi, -240(%rbp)
	movq	%rax, %rsi
	callq	__ZN3syn3gen6helper5visit13tokens_helper17h18c9f68a4dc2f9c4E
	movq	-240(%rbp), %rax
	addq	$36, %rax
	movq	-232(%rbp), %rdi
	movq	%rax, %rsi
	callq	__ZN3syn3gen6helper5visit13tokens_helper17hf94adaee820ffee6E
	movq	-240(%rbp), %rax
	leaq	-200(%rbp), %rdi
	movq	%rax, %rsi
	callq	__ZN3syn10punctuated23Punctuated$LT$T$C$P$GT$5pairs17h6f8132a1268a9070E
	leaq	-224(%rbp), %rdi
	leaq	-200(%rbp), %rsi
	callq	__ZN63_$LT$I$u20$as$u20$core..iter..traits..collect..IntoIterator$GT$9into_iter17hc80e7b3d0e9c1828E
	movq	-224(%rbp), %rax
	movq	%rax, -176(%rbp)
	movq	-216(%rbp), %rax
	movq	%rax, -168(%rbp)
	movq	-208(%rbp), %rax
	movq	%rax, -160(%rbp)
LBB106_5:
	leaq	-128(%rbp), %rdi
	leaq	-176(%rbp), %rsi
	callq	__ZN94_$LT$syn..punctuated..Pairs$LT$T$C$P$GT$$u20$as$u20$core..iter..traits..iterator..Iterator$GT$4next17h9a22688682a31cdbE
	movq	-128(%rbp), %rax
	addq	$-2, %rax
	setne	%cl
	movzbl	%cl, %edx
	movl	%edx, %esi
	je	LBB106_7
	jmp	LBB106_17
LBB106_17:
	jmp	LBB106_9
LBB106_7:
	movq	-240(%rbp), %rax
	addq	$40, %rax
	movq	-232(%rbp), %rdi
	movq	%rax, %rsi
	callq	__ZN3syn3gen6helper5visit13tokens_helper17hf94adaee820ffee6E
	jmp	LBB106_16
	ud2
LBB106_9:
	movq	-128(%rbp), %rax
	movq	%rax, -104(%rbp)
	movq	-120(%rbp), %rax
	movq	%rax, -96(%rbp)
	movq	-112(%rbp), %rax
	movq	%rax, -88(%rbp)
	movq	-104(%rbp), %rax
	movq	%rax, -80(%rbp)
	movq	-96(%rbp), %rax
	movq	%rax, -72(%rbp)
	movq	-88(%rbp), %rax
	movq	%rax, -64(%rbp)
	movq	-80(%rbp), %rax
	movq	%rax, -152(%rbp)
	movq	-72(%rbp), %rax
	movq	%rax, -144(%rbp)
	movq	-64(%rbp), %rax
	movq	%rax, -136(%rbp)
	movq	-152(%rbp), %rax
	movq	%rax, -56(%rbp)
	movq	-144(%rbp), %rax
	movq	%rax, -48(%rbp)
	movq	-136(%rbp), %rax
	movq	%rax, -40(%rbp)
	movq	-56(%rbp), %rax
	movq	%rax, -24(%rbp)
	movq	-48(%rbp), %rax
	movq	%rax, -16(%rbp)
	movq	-40(%rbp), %rax
	movq	%rax, -8(%rbp)
	leaq	-24(%rbp), %rdi
	callq	__ZN3syn10punctuated17Pair$LT$T$C$P$GT$10into_tuple17h82d401df63f5d736E
	movq	%rax, -248(%rbp)
	movq	%rdx, -256(%rbp)
	movq	-248(%rbp), %rax
	movq	-256(%rbp), %rcx
	movq	%rcx, -32(%rbp)
	movq	-232(%rbp), %rdi
	movq	%rax, %rsi
	callq	__ZN3syn3gen5visit5Visit18visit_lifetime_def17h9268366086ce985eE
	xorl	%eax, %eax
	movl	%eax, %ecx
	cmpq	$0, -32(%rbp)
	movl	$1, %edx
	cmovbeq	%rcx, %rdx
	cmpq	$1, %rdx
	je	LBB106_13
	jmp	LBB106_15
LBB106_13:
	movq	-32(%rbp), %rax
	movq	-232(%rbp), %rdi
	movq	%rax, %rsi
	callq	__ZN3syn3gen6helper5visit13tokens_helper17hf94adaee820ffee6E
	jmp	LBB106_15
LBB106_15:
	jmp	LBB106_5
LBB106_16:
	addq	$256, %rsp
	popq	%rbp
	retq
	.cfi_endproc

	.globl	__ZN3syn3gen5visit21visit_macro_delimiter17h3d8745c4693e230fE
	.p2align	4, 0x90
__ZN3syn3gen5visit21visit_macro_delimiter17h3d8745c4693e230fE:
	.cfi_startproc
	pushq	%rbp
	.cfi_def_cfa_offset 16
	.cfi_offset %rbp, -16
	movq	%rsp, %rbp
	.cfi_def_cfa_register %rbp
	subq	$32, %rsp
	movl	(%rsi), %eax
	movl	%eax, %ecx
	testq	%rcx, %rcx
	movq	%rdi, -16(%rbp)
	movq	%rsi, -24(%rbp)
	movq	%rcx, -32(%rbp)
	je	LBB107_3
	jmp	LBB107_9
LBB107_9:
	movq	-32(%rbp), %rax
	subq	$1, %rax
	je	LBB107_5
	jmp	LBB107_10
LBB107_10:
	movq	-24(%rbp), %rax
	addq	$4, %rax
	movq	-16(%rbp), %rdi
	movq	%rax, %rsi
	callq	__ZN3syn3gen6helper5visit13tokens_helper17h18c9f68a4dc2f9c4E
	jmp	LBB107_7
	ud2
LBB107_3:
	movq	-24(%rbp), %rax
	addq	$4, %rax
	movq	-16(%rbp), %rdi
	movq	%rax, %rsi
	callq	__ZN3syn3gen6helper5visit13tokens_helper17h18c9f68a4dc2f9c4E
	jmp	LBB107_8
LBB107_5:
	movq	-24(%rbp), %rax
	addq	$4, %rax
	movq	-16(%rbp), %rdi
	movq	%rax, %rsi
	callq	__ZN3syn3gen6helper5visit13tokens_helper17h18c9f68a4dc2f9c4E
	jmp	LBB107_8
LBB107_7:
	jmp	LBB107_8
LBB107_8:
	addq	$32, %rsp
	popq	%rbp
	retq
	.cfi_endproc

	.globl	__ZN3syn3gen5visit21visit_type_impl_trait17h6c31548cf2c8339dE
	.p2align	4, 0x90
__ZN3syn3gen5visit21visit_type_impl_trait17h6c31548cf2c8339dE:
	.cfi_startproc
	pushq	%rbp
	.cfi_def_cfa_offset 16
	.cfi_offset %rbp, -16
	movq	%rsp, %rbp
	.cfi_def_cfa_register %rbp
	subq	$256, %rsp
	movq	%rsi, %rax
	addq	$32, %rax
	movq	%rdi, -232(%rbp)
	movq	%rsi, -240(%rbp)
	movq	%rax, %rsi
	callq	__ZN3syn3gen6helper5visit13tokens_helper17h18c9f68a4dc2f9c4E
	movq	-240(%rbp), %rax
	leaq	-200(%rbp), %rdi
	movq	%rax, %rsi
	callq	__ZN3syn10punctuated23Punctuated$LT$T$C$P$GT$5pairs17he88ef2b4b5e882e4E
	leaq	-224(%rbp), %rdi
	leaq	-200(%rbp), %rsi
	callq	__ZN63_$LT$I$u20$as$u20$core..iter..traits..collect..IntoIterator$GT$9into_iter17hd4d4f75c63fbee68E
	movq	-224(%rbp), %rax
	movq	%rax, -176(%rbp)
	movq	-216(%rbp), %rax
	movq	%rax, -168(%rbp)
	movq	-208(%rbp), %rax
	movq	%rax, -160(%rbp)
LBB108_4:
	leaq	-128(%rbp), %rdi
	leaq	-176(%rbp), %rsi
	callq	__ZN94_$LT$syn..punctuated..Pairs$LT$T$C$P$GT$$u20$as$u20$core..iter..traits..iterator..Iterator$GT$4next17h09742e6916a34a94E
	movq	-128(%rbp), %rax
	addq	$-2, %rax
	setne	%cl
	movzbl	%cl, %edx
	movl	%edx, %esi
	je	LBB108_6
	jmp	LBB108_15
LBB108_15:
	jmp	LBB108_8
LBB108_6:
	addq	$256, %rsp
	popq	%rbp
	retq
	ud2
LBB108_8:
	movq	-128(%rbp), %rax
	movq	%rax, -104(%rbp)
	movq	-120(%rbp), %rax
	movq	%rax, -96(%rbp)
	movq	-112(%rbp), %rax
	movq	%rax, -88(%rbp)
	movq	-104(%rbp), %rax
	movq	%rax, -80(%rbp)
	movq	-96(%rbp), %rax
	movq	%rax, -72(%rbp)
	movq	-88(%rbp), %rax
	movq	%rax, -64(%rbp)
	movq	-80(%rbp), %rax
	movq	%rax, -152(%rbp)
	movq	-72(%rbp), %rax
	movq	%rax, -144(%rbp)
	movq	-64(%rbp), %rax
	movq	%rax, -136(%rbp)
	movq	-152(%rbp), %rax
	movq	%rax, -56(%rbp)
	movq	-144(%rbp), %rax
	movq	%rax, -48(%rbp)
	movq	-136(%rbp), %rax
	movq	%rax, -40(%rbp)
	movq	-56(%rbp), %rax
	movq	%rax, -24(%rbp)
	movq	-48(%rbp), %rax
	movq	%rax, -16(%rbp)
	movq	-40(%rbp), %rax
	movq	%rax, -8(%rbp)
	leaq	-24(%rbp), %rdi
	callq	__ZN3syn10punctuated17Pair$LT$T$C$P$GT$10into_tuple17he3631bdd10590eaaE
	movq	%rax, -248(%rbp)
	movq	%rdx, -256(%rbp)
	movq	-248(%rbp), %rax
	movq	-256(%rbp), %rcx
	movq	%rcx, -32(%rbp)
	movq	-232(%rbp), %rdi
	movq	%rax, %rsi
	callq	__ZN3syn3gen5visit5Visit22visit_type_param_bound17h6518873d02dad80dE
	xorl	%eax, %eax
	movl	%eax, %ecx
	cmpq	$0, -32(%rbp)
	movl	$1, %edx
	cmovbeq	%rcx, %rdx
	cmpq	$1, %rdx
	je	LBB108_12
	jmp	LBB108_14
LBB108_12:
	movq	-32(%rbp), %rax
	movq	-232(%rbp), %rdi
	movq	%rax, %rsi
	callq	__ZN3syn3gen6helper5visit13tokens_helper17hf94adaee820ffee6E
	jmp	LBB108_14
LBB108_14:
	jmp	LBB108_4
	.cfi_endproc

	.globl	__ZN3syn3gen5visit22visit_generic_argument17h82d055b2f6c689deE
	.p2align	4, 0x90
__ZN3syn3gen5visit22visit_generic_argument17h82d055b2f6c689deE:
	.cfi_startproc
	pushq	%rbp
	.cfi_def_cfa_offset 16
	.cfi_offset %rbp, -16
	movq	%rsp, %rbp
	.cfi_def_cfa_register %rbp
	subq	$32, %rsp
	movq	(%rsi), %rax
	movq	%rdi, -16(%rbp)
	movq	%rsi, -24(%rbp)
	movq	%rax, -32(%rbp)
	leaq	LJTI109_0(%rip), %rax
	movq	-32(%rbp), %rcx
	movslq	(%rax,%rcx,4), %rdx
	addq	%rax, %rdx
	jmpq	*%rdx
LBB109_1:
	movq	-24(%rbp), %rax
	addq	$8, %rax
	movq	-16(%rbp), %rdi
	movq	%rax, %rsi
	callq	__ZN3syn3gen5visit5Visit10visit_expr17h51cb5c4d95cbbf12E
	jmp	LBB109_11
	ud2
LBB109_3:
	movq	-24(%rbp), %rax
	addq	$8, %rax
	movq	-16(%rbp), %rdi
	movq	%rax, %rsi
	callq	__ZN3syn3gen5visit5Visit14visit_lifetime17h5e3c0b5117f2cf4bE
	jmp	LBB109_12
LBB109_5:
	movq	-24(%rbp), %rax
	addq	$8, %rax
	movq	-16(%rbp), %rdi
	movq	%rax, %rsi
	callq	__ZN3syn3gen5visit5Visit10visit_type17h3d7013057020e8d4E
	jmp	LBB109_12
LBB109_7:
	movq	-24(%rbp), %rax
	addq	$8, %rax
	movq	-16(%rbp), %rdi
	movq	%rax, %rsi
	callq	__ZN3syn3gen5visit5Visit13visit_binding17h42943de97213f874E
	jmp	LBB109_12
LBB109_9:
	movq	-24(%rbp), %rax
	addq	$8, %rax
	movq	-16(%rbp), %rdi
	movq	%rax, %rsi
	callq	__ZN3syn3gen5visit5Visit16visit_constraint17h2ca411d224e21038E
	jmp	LBB109_12
LBB109_11:
	jmp	LBB109_12
LBB109_12:
	addq	$32, %rsp
	popq	%rbp
	retq
	.cfi_endproc
	.p2align	2, 0x90
	.data_region jt32
.set L109_0_set_3, LBB109_3-LJTI109_0
.set L109_0_set_5, LBB109_5-LJTI109_0
.set L109_0_set_7, LBB109_7-LJTI109_0
.set L109_0_set_9, LBB109_9-LJTI109_0
.set L109_0_set_1, LBB109_1-LJTI109_0
LJTI109_0:
	.long	L109_0_set_3
	.long	L109_0_set_5
	.long	L109_0_set_7
	.long	L109_0_set_9
	.long	L109_0_set_1
	.end_data_region

	.globl	__ZN3syn3gen5visit22visit_type_param_bound17h4e5e90dfa8a40cc8E
	.p2align	4, 0x90
__ZN3syn3gen5visit22visit_type_param_bound17h4e5e90dfa8a40cc8E:
	.cfi_startproc
	pushq	%rbp
	.cfi_def_cfa_offset 16
	.cfi_offset %rbp, -16
	movq	%rsp, %rbp
	.cfi_def_cfa_register %rbp
	subq	$32, %rsp
	movq	(%rsi), %rax
	testq	%rax, %rax
	movq	%rdi, -16(%rbp)
	movq	%rsi, -24(%rbp)
	je	LBB110_3
	jmp	LBB110_7
LBB110_7:
	movq	-24(%rbp), %rax
	addq	$8, %rax
	movq	-16(%rbp), %rdi
	movq	%rax, %rsi
	callq	__ZN3syn3gen5visit5Visit14visit_lifetime17h5e3c0b5117f2cf4bE
	jmp	LBB110_5
	ud2
LBB110_3:
	movq	-24(%rbp), %rax
	addq	$8, %rax
	movq	-16(%rbp), %rdi
	movq	%rax, %rsi
	callq	__ZN3syn3gen5visit5Visit17visit_trait_bound17h370d20c746a2984dE
	jmp	LBB110_6
LBB110_5:
	jmp	LBB110_6
LBB110_6:
	addq	$32, %rsp
	popq	%rbp
	retq
	.cfi_endproc

	.globl	__ZN3syn3gen5visit23visit_type_trait_object17hc8d751b5e7206764E
	.p2align	4, 0x90
__ZN3syn3gen5visit23visit_type_trait_object17hc8d751b5e7206764E:
	.cfi_startproc
	pushq	%rbp
	.cfi_def_cfa_offset 16
	.cfi_offset %rbp, -16
	movq	%rsp, %rbp
	.cfi_def_cfa_register %rbp
	subq	$272, %rsp
	movq	%rsi, %rax
	addq	$32, %rax
	movl	32(%rsi), %ecx
	movl	%ecx, %edx
	cmpq	$1, %rdx
	movq	%rdi, -240(%rbp)
	movq	%rsi, -248(%rbp)
	movq	%rax, -256(%rbp)
	je	LBB111_2
	jmp	LBB111_4
LBB111_2:
	movq	-256(%rbp), %rax
	addq	$4, %rax
	movq	-240(%rbp), %rdi
	movq	%rax, %rsi
	callq	__ZN3syn3gen6helper5visit13tokens_helper17h18c9f68a4dc2f9c4E
	jmp	LBB111_4
LBB111_4:
	movq	-248(%rbp), %rax
	leaq	-200(%rbp), %rdi
	movq	%rax, %rsi
	callq	__ZN3syn10punctuated23Punctuated$LT$T$C$P$GT$5pairs17he88ef2b4b5e882e4E
	leaq	-224(%rbp), %rdi
	leaq	-200(%rbp), %rsi
	callq	__ZN63_$LT$I$u20$as$u20$core..iter..traits..collect..IntoIterator$GT$9into_iter17hd4d4f75c63fbee68E
	movq	-224(%rbp), %rax
	movq	%rax, -176(%rbp)
	movq	-216(%rbp), %rax
	movq	%rax, -168(%rbp)
	movq	-208(%rbp), %rax
	movq	%rax, -160(%rbp)
LBB111_7:
	leaq	-128(%rbp), %rdi
	leaq	-176(%rbp), %rsi
	callq	__ZN94_$LT$syn..punctuated..Pairs$LT$T$C$P$GT$$u20$as$u20$core..iter..traits..iterator..Iterator$GT$4next17h09742e6916a34a94E
	movq	-128(%rbp), %rax
	addq	$-2, %rax
	setne	%cl
	movzbl	%cl, %edx
	movl	%edx, %esi
	je	LBB111_9
	jmp	LBB111_18
LBB111_18:
	jmp	LBB111_11
LBB111_9:
	addq	$272, %rsp
	popq	%rbp
	retq
	ud2
LBB111_11:
	movq	-128(%rbp), %rax
	movq	%rax, -104(%rbp)
	movq	-120(%rbp), %rax
	movq	%rax, -96(%rbp)
	movq	-112(%rbp), %rax
	movq	%rax, -88(%rbp)
	movq	-104(%rbp), %rax
	movq	%rax, -80(%rbp)
	movq	-96(%rbp), %rax
	movq	%rax, -72(%rbp)
	movq	-88(%rbp), %rax
	movq	%rax, -64(%rbp)
	movq	-80(%rbp), %rax
	movq	%rax, -152(%rbp)
	movq	-72(%rbp), %rax
	movq	%rax, -144(%rbp)
	movq	-64(%rbp), %rax
	movq	%rax, -136(%rbp)
	movq	-152(%rbp), %rax
	movq	%rax, -56(%rbp)
	movq	-144(%rbp), %rax
	movq	%rax, -48(%rbp)
	movq	-136(%rbp), %rax
	movq	%rax, -40(%rbp)
	movq	-56(%rbp), %rax
	movq	%rax, -24(%rbp)
	movq	-48(%rbp), %rax
	movq	%rax, -16(%rbp)
	movq	-40(%rbp), %rax
	movq	%rax, -8(%rbp)
	leaq	-24(%rbp), %rdi
	callq	__ZN3syn10punctuated17Pair$LT$T$C$P$GT$10into_tuple17he3631bdd10590eaaE
	movq	%rax, -264(%rbp)
	movq	%rdx, -272(%rbp)
	movq	-264(%rbp), %rax
	movq	-272(%rbp), %rcx
	movq	%rcx, -32(%rbp)
	movq	-240(%rbp), %rdi
	movq	%rax, %rsi
	callq	__ZN3syn3gen5visit5Visit22visit_type_param_bound17h6518873d02dad80dE
	xorl	%eax, %eax
	movl	%eax, %ecx
	cmpq	$0, -32(%rbp)
	movl	$1, %edx
	cmovbeq	%rcx, %rdx
	cmpq	$1, %rdx
	je	LBB111_15
	jmp	LBB111_17
LBB111_15:
	movq	-32(%rbp), %rax
	movq	-240(%rbp), %rdi
	movq	%rax, %rsi
	callq	__ZN3syn3gen6helper5visit13tokens_helper17hf94adaee820ffee6E
	jmp	LBB111_17
LBB111_17:
	jmp	LBB111_7
	.cfi_endproc

	.globl	__ZN3syn3gen5visit26visit_trait_bound_modifier17he1739be24e29f2edE
	.p2align	4, 0x90
__ZN3syn3gen5visit26visit_trait_bound_modifier17he1739be24e29f2edE:
	.cfi_startproc
	pushq	%rbp
	.cfi_def_cfa_offset 16
	.cfi_offset %rbp, -16
	movq	%rsp, %rbp
	.cfi_def_cfa_register %rbp
	subq	$32, %rsp
	movl	(%rsi), %eax
	movl	%eax, %ecx
	testq	%rcx, %rcx
	movq	%rdi, -16(%rbp)
	movq	%rsi, -24(%rbp)
	je	LBB112_3
	jmp	LBB112_6
LBB112_6:
	movq	-24(%rbp), %rax
	addq	$4, %rax
	movq	-16(%rbp), %rdi
	movq	%rax, %rsi
	callq	__ZN3syn3gen6helper5visit13tokens_helper17hf94adaee820ffee6E
	jmp	LBB112_4
	ud2
LBB112_3:
	jmp	LBB112_5
LBB112_4:
	jmp	LBB112_5
LBB112_5:
	addq	$32, %rsp
	popq	%rbp
	retq
	.cfi_endproc

	.globl	__ZN3syn3gen5visit37visit_parenthesized_generic_arguments17h51aabd7eb479a7aeE
	.p2align	4, 0x90
__ZN3syn3gen5visit37visit_parenthesized_generic_arguments17h51aabd7eb479a7aeE:
	.cfi_startproc
	pushq	%rbp
	.cfi_def_cfa_offset 16
	.cfi_offset %rbp, -16
	movq	%rsp, %rbp
	.cfi_def_cfa_register %rbp
	subq	$256, %rsp
	movq	%rsi, %rax
	addq	$48, %rax
	movq	%rdi, -232(%rbp)
	movq	%rsi, -240(%rbp)
	movq	%rax, %rsi
	callq	__ZN3syn3gen6helper5visit13tokens_helper17h18c9f68a4dc2f9c4E
	movq	-240(%rbp), %rax
	leaq	-200(%rbp), %rdi
	movq	%rax, %rsi
	callq	__ZN3syn10punctuated23Punctuated$LT$T$C$P$GT$5pairs17ha22c902408d9519bE
	leaq	-224(%rbp), %rdi
	leaq	-200(%rbp), %rsi
	callq	__ZN63_$LT$I$u20$as$u20$core..iter..traits..collect..IntoIterator$GT$9into_iter17h59955eecc1720e8cE
	movq	-224(%rbp), %rax
	movq	%rax, -176(%rbp)
	movq	-216(%rbp), %rax
	movq	%rax, -168(%rbp)
	movq	-208(%rbp), %rax
	movq	%rax, -160(%rbp)
LBB113_4:
	leaq	-128(%rbp), %rdi
	leaq	-176(%rbp), %rsi
	callq	__ZN94_$LT$syn..punctuated..Pairs$LT$T$C$P$GT$$u20$as$u20$core..iter..traits..iterator..Iterator$GT$4next17hef03e2604d62ea43E
	movq	-128(%rbp), %rax
	addq	$-2, %rax
	setne	%cl
	movzbl	%cl, %edx
	movl	%edx, %esi
	je	LBB113_6
	jmp	LBB113_16
LBB113_16:
	jmp	LBB113_8
LBB113_6:
	movq	-240(%rbp), %rax
	addq	$32, %rax
	movq	-232(%rbp), %rdi
	movq	%rax, %rsi
	callq	__ZN3syn3gen5visit5Visit17visit_return_type17hdf86b18f3269759aE
	jmp	LBB113_15
	ud2
LBB113_8:
	movq	-128(%rbp), %rax
	movq	%rax, -104(%rbp)
	movq	-120(%rbp), %rax
	movq	%rax, -96(%rbp)
	movq	-112(%rbp), %rax
	movq	%rax, -88(%rbp)
	movq	-104(%rbp), %rax
	movq	%rax, -80(%rbp)
	movq	-96(%rbp), %rax
	movq	%rax, -72(%rbp)
	movq	-88(%rbp), %rax
	movq	%rax, -64(%rbp)
	movq	-80(%rbp), %rax
	movq	%rax, -152(%rbp)
	movq	-72(%rbp), %rax
	movq	%rax, -144(%rbp)
	movq	-64(%rbp), %rax
	movq	%rax, -136(%rbp)
	movq	-152(%rbp), %rax
	movq	%rax, -56(%rbp)
	movq	-144(%rbp), %rax
	movq	%rax, -48(%rbp)
	movq	-136(%rbp), %rax
	movq	%rax, -40(%rbp)
	movq	-56(%rbp), %rax
	movq	%rax, -24(%rbp)
	movq	-48(%rbp), %rax
	movq	%rax, -16(%rbp)
	movq	-40(%rbp), %rax
	movq	%rax, -8(%rbp)
	leaq	-24(%rbp), %rdi
	callq	__ZN3syn10punctuated17Pair$LT$T$C$P$GT$10into_tuple17h0b96dcb4eaa360e7E
	movq	%rax, -248(%rbp)
	movq	%rdx, -256(%rbp)
	movq	-248(%rbp), %rax
	movq	-256(%rbp), %rcx
	movq	%rcx, -32(%rbp)
	movq	-232(%rbp), %rdi
	movq	%rax, %rsi
	callq	__ZN3syn3gen5visit5Visit10visit_type17h3d7013057020e8d4E
	xorl	%eax, %eax
	movl	%eax, %ecx
	cmpq	$0, -32(%rbp)
	movl	$1, %edx
	cmovbeq	%rcx, %rdx
	cmpq	$1, %rdx
	je	LBB113_12
	jmp	LBB113_14
LBB113_12:
	movq	-32(%rbp), %rax
	movq	-232(%rbp), %rdi
	movq	%rax, %rsi
	callq	__ZN3syn3gen6helper5visit13tokens_helper17hf94adaee820ffee6E
	jmp	LBB113_14
LBB113_14:
	jmp	LBB113_4
LBB113_15:
	addq	$256, %rsp
	popq	%rbp
	retq
	.cfi_endproc

	.globl	__ZN3syn3gen5visit39visit_angle_bracketed_generic_arguments17h19ff9a5e265a65c0E
	.p2align	4, 0x90
__ZN3syn3gen5visit39visit_angle_bracketed_generic_arguments17h19ff9a5e265a65c0E:
	.cfi_startproc
	pushq	%rbp
	.cfi_def_cfa_offset 16
	.cfi_offset %rbp, -16
	movq	%rsp, %rbp
	.cfi_def_cfa_register %rbp
	subq	$272, %rsp
	movq	%rsi, %rax
	addq	$32, %rax
	movl	32(%rsi), %ecx
	movl	%ecx, %edx
	cmpq	$1, %rdx
	movq	%rdi, -240(%rbp)
	movq	%rsi, -248(%rbp)
	movq	%rax, -256(%rbp)
	je	LBB114_2
	jmp	LBB114_4
LBB114_2:
	movq	-256(%rbp), %rax
	addq	$4, %rax
	movq	-240(%rbp), %rdi
	movq	%rax, %rsi
	callq	__ZN3syn3gen6helper5visit13tokens_helper17h711609849b703e9dE
	jmp	LBB114_4
LBB114_4:
	movq	-248(%rbp), %rax
	addq	$44, %rax
	movq	-240(%rbp), %rdi
	movq	%rax, %rsi
	callq	__ZN3syn3gen6helper5visit13tokens_helper17hf94adaee820ffee6E
	movq	-248(%rbp), %rax
	leaq	-200(%rbp), %rdi
	movq	%rax, %rsi
	callq	__ZN3syn10punctuated23Punctuated$LT$T$C$P$GT$5pairs17h11e19eda1d0d467aE
	leaq	-224(%rbp), %rdi
	leaq	-200(%rbp), %rsi
	callq	__ZN63_$LT$I$u20$as$u20$core..iter..traits..collect..IntoIterator$GT$9into_iter17he00e6e90ef3b2da0E
	movq	-224(%rbp), %rax
	movq	%rax, -176(%rbp)
	movq	-216(%rbp), %rax
	movq	%rax, -168(%rbp)
	movq	-208(%rbp), %rax
	movq	%rax, -160(%rbp)
LBB114_8:
	leaq	-128(%rbp), %rdi
	leaq	-176(%rbp), %rsi
	callq	__ZN94_$LT$syn..punctuated..Pairs$LT$T$C$P$GT$$u20$as$u20$core..iter..traits..iterator..Iterator$GT$4next17h4716b8f5ac78ffdcE
	movq	-128(%rbp), %rax
	addq	$-2, %rax
	setne	%cl
	movzbl	%cl, %edx
	movl	%edx, %esi
	je	LBB114_10
	jmp	LBB114_20
LBB114_20:
	jmp	LBB114_12
LBB114_10:
	movq	-248(%rbp), %rax
	addq	$48, %rax
	movq	-240(%rbp), %rdi
	movq	%rax, %rsi
	callq	__ZN3syn3gen6helper5visit13tokens_helper17hf94adaee820ffee6E
	jmp	LBB114_19
	ud2
LBB114_12:
	movq	-128(%rbp), %rax
	movq	%rax, -104(%rbp)
	movq	-120(%rbp), %rax
	movq	%rax, -96(%rbp)
	movq	-112(%rbp), %rax
	movq	%rax, -88(%rbp)
	movq	-104(%rbp), %rax
	movq	%rax, -80(%rbp)
	movq	-96(%rbp), %rax
	movq	%rax, -72(%rbp)
	movq	-88(%rbp), %rax
	movq	%rax, -64(%rbp)
	movq	-80(%rbp), %rax
	movq	%rax, -152(%rbp)
	movq	-72(%rbp), %rax
	movq	%rax, -144(%rbp)
	movq	-64(%rbp), %rax
	movq	%rax, -136(%rbp)
	movq	-152(%rbp), %rax
	movq	%rax, -56(%rbp)
	movq	-144(%rbp), %rax
	movq	%rax, -48(%rbp)
	movq	-136(%rbp), %rax
	movq	%rax, -40(%rbp)
	movq	-56(%rbp), %rax
	movq	%rax, -24(%rbp)
	movq	-48(%rbp), %rax
	movq	%rax, -16(%rbp)
	movq	-40(%rbp), %rax
	movq	%rax, -8(%rbp)
	leaq	-24(%rbp), %rdi
	callq	__ZN3syn10punctuated17Pair$LT$T$C$P$GT$10into_tuple17h4c9c5186240ebe86E
	movq	%rax, -264(%rbp)
	movq	%rdx, -272(%rbp)
	movq	-264(%rbp), %rax
	movq	-272(%rbp), %rcx
	movq	%rcx, -32(%rbp)
	movq	-240(%rbp), %rdi
	movq	%rax, %rsi
	callq	__ZN3syn3gen5visit5Visit22visit_generic_argument17hcd116f1d95595c8fE
	xorl	%eax, %eax
	movl	%eax, %ecx
	cmpq	$0, -32(%rbp)
	movl	$1, %edx
	cmovbeq	%rcx, %rdx
	cmpq	$1, %rdx
	je	LBB114_16
	jmp	LBB114_18
LBB114_16:
	movq	-32(%rbp), %rax
	movq	-240(%rbp), %rdi
	movq	%rax, %rsi
	callq	__ZN3syn3gen6helper5visit13tokens_helper17hf94adaee820ffee6E
	jmp	LBB114_18
LBB114_18:
	jmp	LBB114_8
LBB114_19:
	addq	$272, %rsp
	popq	%rbp
	retq
	.cfi_endproc

	.globl	__ZN3syn3gen5visit5Visit10visit_expr17h51cb5c4d95cbbf12E
	.p2align	4, 0x90
__ZN3syn3gen5visit5Visit10visit_expr17h51cb5c4d95cbbf12E:
	.cfi_startproc
	pushq	%rbp
	.cfi_def_cfa_offset 16
	.cfi_offset %rbp, -16
	movq	%rsp, %rbp
	.cfi_def_cfa_register %rbp
	callq	__ZN3syn3gen5visit10visit_expr17h3400edaed82931f3E
	popq	%rbp
	retq
	.cfi_endproc

	.globl	__ZN3syn3gen5visit5Visit10visit_path17h102650d9b1d89885E
	.p2align	4, 0x90
__ZN3syn3gen5visit5Visit10visit_path17h102650d9b1d89885E:
	.cfi_startproc
	pushq	%rbp
	.cfi_def_cfa_offset 16
	.cfi_offset %rbp, -16
	movq	%rsp, %rbp
	.cfi_def_cfa_register %rbp
	callq	__ZN3syn3gen5visit10visit_path17h00c7cf81a4b89d48E
	popq	%rbp
	retq
	.cfi_endproc

	.globl	__ZN3syn3gen5visit5Visit10visit_span17h646f20d69c46edfeE
	.p2align	4, 0x90
__ZN3syn3gen5visit5Visit10visit_span17h646f20d69c46edfeE:
	.cfi_startproc
	pushq	%rbp
	.cfi_def_cfa_offset 16
	.cfi_offset %rbp, -16
	movq	%rsp, %rbp
	.cfi_def_cfa_register %rbp
	callq	__ZN3syn3gen5visit10visit_span17hf099e8cab874f2e2E
	popq	%rbp
	retq
	.cfi_endproc

	.globl	__ZN3syn3gen5visit5Visit10visit_type17h3d7013057020e8d4E
	.p2align	4, 0x90
__ZN3syn3gen5visit5Visit10visit_type17h3d7013057020e8d4E:
	.cfi_startproc
	pushq	%rbp
	.cfi_def_cfa_offset 16
	.cfi_offset %rbp, -16
	movq	%rsp, %rbp
	.cfi_def_cfa_register %rbp
	callq	__ZN3syn3gen5visit10visit_type17h6cb0e77cb564141dE
	popq	%rbp
	retq
	.cfi_endproc

	.globl	__ZN3syn3gen5visit5Visit11visit_index17h38d5cebaebf26e92E
	.p2align	4, 0x90
__ZN3syn3gen5visit5Visit11visit_index17h38d5cebaebf26e92E:
	.cfi_startproc
	pushq	%rbp
	.cfi_def_cfa_offset 16
	.cfi_offset %rbp, -16
	movq	%rsp, %rbp
	.cfi_def_cfa_register %rbp
	callq	__ZN3syn3gen5visit11visit_index17hd11fe31a136069ccE
	popq	%rbp
	retq
	.cfi_endproc

	.globl	__ZN3syn3gen5visit5Visit11visit_macro17h2b49349fc506bf86E
	.p2align	4, 0x90
__ZN3syn3gen5visit5Visit11visit_macro17h2b49349fc506bf86E:
	.cfi_startproc
	pushq	%rbp
	.cfi_def_cfa_offset 16
	.cfi_offset %rbp, -16
	movq	%rsp, %rbp
	.cfi_def_cfa_register %rbp
	callq	__ZN3syn3gen5visit11visit_macro17h247d16b4eec79e0dE
	popq	%rbp
	retq
	.cfi_endproc

	.globl	__ZN3syn3gen5visit5Visit11visit_qself17h45449a511bc0ea5fE
	.p2align	4, 0x90
__ZN3syn3gen5visit5Visit11visit_qself17h45449a511bc0ea5fE:
	.cfi_startproc
	pushq	%rbp
	.cfi_def_cfa_offset 16
	.cfi_offset %rbp, -16
	movq	%rsp, %rbp
	.cfi_def_cfa_register %rbp
	callq	__ZN3syn3gen5visit11visit_qself17h0da3a321938cc4caE
	popq	%rbp
	retq
	.cfi_endproc

	.globl	__ZN3syn3gen5visit5Visit11visit_un_op17hd115ed457849b3ccE
	.p2align	4, 0x90
__ZN3syn3gen5visit5Visit11visit_un_op17hd115ed457849b3ccE:
	.cfi_startproc
	pushq	%rbp
	.cfi_def_cfa_offset 16
	.cfi_offset %rbp, -16
	movq	%rsp, %rbp
	.cfi_def_cfa_register %rbp
	callq	__ZN3syn3gen5visit11visit_un_op17hbc575e004a4d8528E
	popq	%rbp
	retq
	.cfi_endproc

	.globl	__ZN3syn3gen5visit5Visit12visit_bin_op17h609f01e5be81d61aE
	.p2align	4, 0x90
__ZN3syn3gen5visit5Visit12visit_bin_op17h609f01e5be81d61aE:
	.cfi_startproc
	pushq	%rbp
	.cfi_def_cfa_offset 16
	.cfi_offset %rbp, -16
	movq	%rsp, %rbp
	.cfi_def_cfa_register %rbp
	callq	__ZN3syn3gen5visit12visit_bin_op17h21b6ff5c52e8ca0cE
	popq	%rbp
	retq
	.cfi_endproc

	.globl	__ZN3syn3gen5visit5Visit12visit_member17hdce6d9f3cf351356E
	.p2align	4, 0x90
__ZN3syn3gen5visit5Visit12visit_member17hdce6d9f3cf351356E:
	.cfi_startproc
	pushq	%rbp
	.cfi_def_cfa_offset 16
	.cfi_offset %rbp, -16
	movq	%rsp, %rbp
	.cfi_def_cfa_register %rbp
	callq	__ZN3syn3gen5visit12visit_member17h4dcfdcab4aa70830E
	popq	%rbp
	retq
	.cfi_endproc

	.globl	__ZN3syn3gen5visit5Visit13visit_binding17h42943de97213f874E
	.p2align	4, 0x90
__ZN3syn3gen5visit5Visit13visit_binding17h42943de97213f874E:
	.cfi_startproc
	pushq	%rbp
	.cfi_def_cfa_offset 16
	.cfi_offset %rbp, -16
	movq	%rsp, %rbp
	.cfi_def_cfa_register %rbp
	callq	__ZN3syn3gen5visit13visit_binding17h491f31d8ccc367cfE
	popq	%rbp
	retq
	.cfi_endproc

	.globl	__ZN3syn3gen5visit5Visit13visit_lit_int17h6ad4ccceab3dbe34E
	.p2align	4, 0x90
__ZN3syn3gen5visit5Visit13visit_lit_int17h6ad4ccceab3dbe34E:
	.cfi_startproc
	pushq	%rbp
	.cfi_def_cfa_offset 16
	.cfi_offset %rbp, -16
	movq	%rsp, %rbp
	.cfi_def_cfa_register %rbp
	callq	__ZN3syn3gen5visit13visit_lit_int17h564df08d04e6cc48E
	popq	%rbp
	retq
	.cfi_endproc

	.globl	__ZN3syn3gen5visit5Visit13visit_lit_str17hc333819e25ccbadeE
	.p2align	4, 0x90
__ZN3syn3gen5visit5Visit13visit_lit_str17hc333819e25ccbadeE:
	.cfi_startproc
	pushq	%rbp
	.cfi_def_cfa_offset 16
	.cfi_offset %rbp, -16
	movq	%rsp, %rbp
	.cfi_def_cfa_register %rbp
	callq	__ZN3syn3gen5visit13visit_lit_str17h427b187a474ea5daE
	popq	%rbp
	retq
	.cfi_endproc

	.globl	__ZN3syn3gen5visit5Visit14visit_expr_lit17hde8c012a9312e082E
	.p2align	4, 0x90
__ZN3syn3gen5visit5Visit14visit_expr_lit17hde8c012a9312e082E:
	.cfi_startproc
	pushq	%rbp
	.cfi_def_cfa_offset 16
	.cfi_offset %rbp, -16
	movq	%rsp, %rbp
	.cfi_def_cfa_register %rbp
	callq	__ZN3syn3gen5visit14visit_expr_lit17hf491b96d889b00e5E
	popq	%rbp
	retq
	.cfi_endproc

	.globl	__ZN3syn3gen5visit5Visit14visit_lifetime17h5e3c0b5117f2cf4bE
	.p2align	4, 0x90
__ZN3syn3gen5visit5Visit14visit_lifetime17h5e3c0b5117f2cf4bE:
	.cfi_startproc
	pushq	%rbp
	.cfi_def_cfa_offset 16
	.cfi_offset %rbp, -16
	movq	%rsp, %rbp
	.cfi_def_cfa_register %rbp
	callq	__ZN3syn3gen5visit14visit_lifetime17h615112e22af4e652E
	popq	%rbp
	retq
	.cfi_endproc

	.globl	__ZN3syn3gen5visit5Visit14visit_lit_bool17he78663e741a26156E
	.p2align	4, 0x90
__ZN3syn3gen5visit5Visit14visit_lit_bool17he78663e741a26156E:
	.cfi_startproc
	pushq	%rbp
	.cfi_def_cfa_offset 16
	.cfi_offset %rbp, -16
	movq	%rsp, %rbp
	.cfi_def_cfa_register %rbp
	callq	__ZN3syn3gen5visit14visit_lit_bool17h8a9f7c9c486dbab3E
	popq	%rbp
	retq
	.cfi_endproc

	.globl	__ZN3syn3gen5visit5Visit14visit_lit_byte17hb8e94fafb4a48b95E
	.p2align	4, 0x90
__ZN3syn3gen5visit5Visit14visit_lit_byte17hb8e94fafb4a48b95E:
	.cfi_startproc
	pushq	%rbp
	.cfi_def_cfa_offset 16
	.cfi_offset %rbp, -16
	movq	%rsp, %rbp
	.cfi_def_cfa_register %rbp
	callq	__ZN3syn3gen5visit14visit_lit_byte17hf02d4b735f7f08c9E
	popq	%rbp
	retq
	.cfi_endproc

	.globl	__ZN3syn3gen5visit5Visit14visit_lit_char17h5a1f4924009c0d72E
	.p2align	4, 0x90
__ZN3syn3gen5visit5Visit14visit_lit_char17h5a1f4924009c0d72E:
	.cfi_startproc
	pushq	%rbp
	.cfi_def_cfa_offset 16
	.cfi_offset %rbp, -16
	movq	%rsp, %rbp
	.cfi_def_cfa_register %rbp
	callq	__ZN3syn3gen5visit14visit_lit_char17h4e67550dbd6ecb93E
	popq	%rbp
	retq
	.cfi_endproc

	.globl	__ZN3syn3gen5visit5Visit14visit_type_ptr17h31b64331e578e53eE
	.p2align	4, 0x90
__ZN3syn3gen5visit5Visit14visit_type_ptr17h31b64331e578e53eE:
	.cfi_startproc
	pushq	%rbp
	.cfi_def_cfa_offset 16
	.cfi_offset %rbp, -16
	movq	%rsp, %rbp
	.cfi_def_cfa_register %rbp
	callq	__ZN3syn3gen5visit14visit_type_ptr17hbb4a994a1a4b1760E
	popq	%rbp
	retq
	.cfi_endproc

	.globl	__ZN3syn3gen5visit5Visit14visit_variadic17hb4a4d5d6a7fc4987E
	.p2align	4, 0x90
__ZN3syn3gen5visit5Visit14visit_variadic17hb4a4d5d6a7fc4987E:
	.cfi_startproc
	pushq	%rbp
	.cfi_def_cfa_offset 16
	.cfi_offset %rbp, -16
	movq	%rsp, %rbp
	.cfi_def_cfa_register %rbp
	callq	__ZN3syn3gen5visit14visit_variadic17hb7c2d634f7fa9a9fE
	popq	%rbp
	retq
	.cfi_endproc

	.globl	__ZN3syn3gen5visit5Visit15visit_attribute17h6c24c1446258a1f7E
	.p2align	4, 0x90
__ZN3syn3gen5visit5Visit15visit_attribute17h6c24c1446258a1f7E:
	.cfi_startproc
	pushq	%rbp
	.cfi_def_cfa_offset 16
	.cfi_offset %rbp, -16
	movq	%rsp, %rbp
	.cfi_def_cfa_register %rbp
	callq	__ZN3syn3gen5visit15visit_attribute17ha9882d3879a46271E
	popq	%rbp
	retq
	.cfi_endproc

	.globl	__ZN3syn3gen5visit5Visit15visit_expr_call17ha67277e3734d433eE
	.p2align	4, 0x90
__ZN3syn3gen5visit5Visit15visit_expr_call17ha67277e3734d433eE:
	.cfi_startproc
	pushq	%rbp
	.cfi_def_cfa_offset 16
	.cfi_offset %rbp, -16
	movq	%rsp, %rbp
	.cfi_def_cfa_register %rbp
	callq	__ZN3syn3gen5visit15visit_expr_call17h2155103a8becc797E
	popq	%rbp
	retq
	.cfi_endproc

	.globl	__ZN3syn3gen5visit5Visit15visit_expr_cast17h19aa4caafaf355a8E
	.p2align	4, 0x90
__ZN3syn3gen5visit5Visit15visit_expr_cast17h19aa4caafaf355a8E:
	.cfi_startproc
	pushq	%rbp
	.cfi_def_cfa_offset 16
	.cfi_offset %rbp, -16
	movq	%rsp, %rbp
	.cfi_def_cfa_register %rbp
	callq	__ZN3syn3gen5visit15visit_expr_cast17hf1b809a8b4010c66E
	popq	%rbp
	retq
	.cfi_endproc

	.globl	__ZN3syn3gen5visit5Visit15visit_expr_path17hfeef478495f182c6E
	.p2align	4, 0x90
__ZN3syn3gen5visit5Visit15visit_expr_path17hfeef478495f182c6E:
	.cfi_startproc
	pushq	%rbp
	.cfi_def_cfa_offset 16
	.cfi_offset %rbp, -16
	movq	%rsp, %rbp
	.cfi_def_cfa_register %rbp
	callq	__ZN3syn3gen5visit15visit_expr_path17h6c186b24d80986daE
	popq	%rbp
	retq
	.cfi_endproc

	.globl	__ZN3syn3gen5visit5Visit15visit_lit_float17h0b379a3ca8a58303E
	.p2align	4, 0x90
__ZN3syn3gen5visit5Visit15visit_lit_float17h0b379a3ca8a58303E:
	.cfi_startproc
	pushq	%rbp
	.cfi_def_cfa_offset 16
	.cfi_offset %rbp, -16
	movq	%rsp, %rbp
	.cfi_def_cfa_register %rbp
	callq	__ZN3syn3gen5visit15visit_lit_float17hf68339ebc63e2b52E
	popq	%rbp
	retq
	.cfi_endproc

	.globl	__ZN3syn3gen5visit5Visit15visit_type_path17h9fd673025c25924dE
	.p2align	4, 0x90
__ZN3syn3gen5visit5Visit15visit_type_path17h9fd673025c25924dE:
	.cfi_startproc
	pushq	%rbp
	.cfi_def_cfa_offset 16
	.cfi_offset %rbp, -16
	movq	%rsp, %rbp
	.cfi_def_cfa_register %rbp
	callq	__ZN3syn3gen5visit15visit_type_path17h75ad1da08536ece2E
	popq	%rbp
	retq
	.cfi_endproc

	.globl	__ZN3syn3gen5visit5Visit16visit_attr_style17h1f893a69c55e8442E
	.p2align	4, 0x90
__ZN3syn3gen5visit5Visit16visit_attr_style17h1f893a69c55e8442E:
	.cfi_startproc
	pushq	%rbp
	.cfi_def_cfa_offset 16
	.cfi_offset %rbp, -16
	movq	%rsp, %rbp
	.cfi_def_cfa_register %rbp
	callq	__ZN3syn3gen5visit16visit_attr_style17h6621383d1ebe3d45E
	popq	%rbp
	retq
	.cfi_endproc

	.globl	__ZN3syn3gen5visit5Visit16visit_constraint17h2ca411d224e21038E
	.p2align	4, 0x90
__ZN3syn3gen5visit5Visit16visit_constraint17h2ca411d224e21038E:
	.cfi_startproc
	pushq	%rbp
	.cfi_def_cfa_offset 16
	.cfi_offset %rbp, -16
	movq	%rsp, %rbp
	.cfi_def_cfa_register %rbp
	callq	__ZN3syn3gen5visit16visit_constraint17hba9aa8408ade8695E
	popq	%rbp
	retq
	.cfi_endproc

	.globl	__ZN3syn3gen5visit5Visit16visit_expr_field17hfbcdb24af02e7c8aE
	.p2align	4, 0x90
__ZN3syn3gen5visit5Visit16visit_expr_field17hfbcdb24af02e7c8aE:
	.cfi_startproc
	pushq	%rbp
	.cfi_def_cfa_offset 16
	.cfi_offset %rbp, -16
	movq	%rsp, %rbp
	.cfi_def_cfa_register %rbp
	callq	__ZN3syn3gen5visit16visit_expr_field17h944e0400de205964E
	popq	%rbp
	retq
	.cfi_endproc

	.globl	__ZN3syn3gen5visit5Visit16visit_expr_index17h0ecd98cb929c34e6E
	.p2align	4, 0x90
__ZN3syn3gen5visit5Visit16visit_expr_index17h0ecd98cb929c34e6E:
	.cfi_startproc
	pushq	%rbp
	.cfi_def_cfa_offset 16
	.cfi_offset %rbp, -16
	movq	%rsp, %rbp
	.cfi_def_cfa_register %rbp
	callq	__ZN3syn3gen5visit16visit_expr_index17hf4a9cfe2c61d5ff8E
	popq	%rbp
	retq
	.cfi_endproc

	.globl	__ZN3syn3gen5visit5Visit16visit_expr_paren17h58e7c1c36de87bb6E
	.p2align	4, 0x90
__ZN3syn3gen5visit5Visit16visit_expr_paren17h58e7c1c36de87bb6E:
	.cfi_startproc
	pushq	%rbp
	.cfi_def_cfa_offset 16
	.cfi_offset %rbp, -16
	movq	%rsp, %rbp
	.cfi_def_cfa_register %rbp
	callq	__ZN3syn3gen5visit16visit_expr_paren17h61eb68dcaac143c6E
	popq	%rbp
	retq
	.cfi_endproc

	.globl	__ZN3syn3gen5visit5Visit16visit_expr_unary17h3ed7442bf7054bccE
	.p2align	4, 0x90
__ZN3syn3gen5visit5Visit16visit_expr_unary17h3ed7442bf7054bccE:
	.cfi_startproc
	pushq	%rbp
	.cfi_def_cfa_offset 16
	.cfi_offset %rbp, -16
	movq	%rsp, %rbp
	.cfi_def_cfa_register %rbp
	callq	__ZN3syn3gen5visit16visit_expr_unary17h5c49e32657ded1efE
	popq	%rbp
	retq
	.cfi_endproc

	.globl	__ZN3syn3gen5visit5Visit16visit_type_array17h208af3b3f21e12c0E
	.p2align	4, 0x90
__ZN3syn3gen5visit5Visit16visit_type_array17h208af3b3f21e12c0E:
	.cfi_startproc
	pushq	%rbp
	.cfi_def_cfa_offset 16
	.cfi_offset %rbp, -16
	movq	%rsp, %rbp
	.cfi_def_cfa_register %rbp
	callq	__ZN3syn3gen5visit16visit_type_array17hb7a2ece8ef7d860dE
	popq	%rbp
	retq
	.cfi_endproc

	.globl	__ZN3syn3gen5visit5Visit16visit_type_group17ha824d8cccc78b9a5E
	.p2align	4, 0x90
__ZN3syn3gen5visit5Visit16visit_type_group17ha824d8cccc78b9a5E:
	.cfi_startproc
	pushq	%rbp
	.cfi_def_cfa_offset 16
	.cfi_offset %rbp, -16
	movq	%rsp, %rbp
	.cfi_def_cfa_register %rbp
	callq	__ZN3syn3gen5visit16visit_type_group17h73e4ed092c7ebeb5E
	popq	%rbp
	retq
	.cfi_endproc

	.globl	__ZN3syn3gen5visit5Visit16visit_type_infer17h57fc6fdd2570b235E
	.p2align	4, 0x90
__ZN3syn3gen5visit5Visit16visit_type_infer17h57fc6fdd2570b235E:
	.cfi_startproc
	pushq	%rbp
	.cfi_def_cfa_offset 16
	.cfi_offset %rbp, -16
	movq	%rsp, %rbp
	.cfi_def_cfa_register %rbp
	callq	__ZN3syn3gen5visit16visit_type_infer17hecf825a2b5ba88d8E
	popq	%rbp
	retq
	.cfi_endproc

	.globl	__ZN3syn3gen5visit5Visit16visit_type_never17haedd9b8c02fe74b3E
	.p2align	4, 0x90
__ZN3syn3gen5visit5Visit16visit_type_never17haedd9b8c02fe74b3E:
	.cfi_startproc
	pushq	%rbp
	.cfi_def_cfa_offset 16
	.cfi_offset %rbp, -16
	movq	%rsp, %rbp
	.cfi_def_cfa_register %rbp
	callq	__ZN3syn3gen5visit16visit_type_never17h8f83729a66c1f6cbE
	popq	%rbp
	retq
	.cfi_endproc

	.globl	__ZN3syn3gen5visit5Visit16visit_type_paren17h68ab0f649ca2b67cE
	.p2align	4, 0x90
__ZN3syn3gen5visit5Visit16visit_type_paren17h68ab0f649ca2b67cE:
	.cfi_startproc
	pushq	%rbp
	.cfi_def_cfa_offset 16
	.cfi_offset %rbp, -16
	movq	%rsp, %rbp
	.cfi_def_cfa_register %rbp
	callq	__ZN3syn3gen5visit16visit_type_paren17h84a51d9963e12e33E
	popq	%rbp
	retq
	.cfi_endproc

	.globl	__ZN3syn3gen5visit5Visit16visit_type_slice17h5f61c8f6a1aadd18E
	.p2align	4, 0x90
__ZN3syn3gen5visit5Visit16visit_type_slice17h5f61c8f6a1aadd18E:
	.cfi_startproc
	pushq	%rbp
	.cfi_def_cfa_offset 16
	.cfi_offset %rbp, -16
	movq	%rsp, %rbp
	.cfi_def_cfa_register %rbp
	callq	__ZN3syn3gen5visit16visit_type_slice17h30b980e9b8dd2790E
	popq	%rbp
	retq
	.cfi_endproc

	.globl	__ZN3syn3gen5visit5Visit16visit_type_tuple17h2196a1a107f25224E
	.p2align	4, 0x90
__ZN3syn3gen5visit5Visit16visit_type_tuple17h2196a1a107f25224E:
	.cfi_startproc
	pushq	%rbp
	.cfi_def_cfa_offset 16
	.cfi_offset %rbp, -16
	movq	%rsp, %rbp
	.cfi_def_cfa_register %rbp
	callq	__ZN3syn3gen5visit16visit_type_tuple17hdeeb2331586d0a22E
	popq	%rbp
	retq
	.cfi_endproc

	.globl	__ZN3syn3gen5visit5Visit17visit_bare_fn_arg17h92a65400d5709623E
	.p2align	4, 0x90
__ZN3syn3gen5visit5Visit17visit_bare_fn_arg17h92a65400d5709623E:
	.cfi_startproc
	pushq	%rbp
	.cfi_def_cfa_offset 16
	.cfi_offset %rbp, -16
	movq	%rsp, %rbp
	.cfi_def_cfa_register %rbp
	callq	__ZN3syn3gen5visit17visit_bare_fn_arg17h14609ce3a76826dbE
	popq	%rbp
	retq
	.cfi_endproc

	.globl	__ZN3syn3gen5visit5Visit17visit_expr_binary17h4ca082e1f1839951E
	.p2align	4, 0x90
__ZN3syn3gen5visit5Visit17visit_expr_binary17h4ca082e1f1839951E:
	.cfi_startproc
	pushq	%rbp
	.cfi_def_cfa_offset 16
	.cfi_offset %rbp, -16
	movq	%rsp, %rbp
	.cfi_def_cfa_register %rbp
	callq	__ZN3syn3gen5visit17visit_expr_binary17hc66f6d891d1177a9E
	popq	%rbp
	retq
	.cfi_endproc

	.globl	__ZN3syn3gen5visit5Visit17visit_return_type17hdf86b18f3269759aE
	.p2align	4, 0x90
__ZN3syn3gen5visit5Visit17visit_return_type17hdf86b18f3269759aE:
	.cfi_startproc
	pushq	%rbp
	.cfi_def_cfa_offset 16
	.cfi_offset %rbp, -16
	movq	%rsp, %rbp
	.cfi_def_cfa_register %rbp
	callq	__ZN3syn3gen5visit17visit_return_type17ha6e7139745b69b3fE
	popq	%rbp
	retq
	.cfi_endproc

	.globl	__ZN3syn3gen5visit5Visit17visit_trait_bound17h370d20c746a2984dE
	.p2align	4, 0x90
__ZN3syn3gen5visit5Visit17visit_trait_bound17h370d20c746a2984dE:
	.cfi_startproc
	pushq	%rbp
	.cfi_def_cfa_offset 16
	.cfi_offset %rbp, -16
	movq	%rsp, %rbp
	.cfi_def_cfa_register %rbp
	callq	__ZN3syn3gen5visit17visit_trait_bound17h53815d2afe090d07E
	popq	%rbp
	retq
	.cfi_endproc

	.globl	__ZN3syn3gen5visit5Visit18visit_lifetime_def17h9268366086ce985eE
	.p2align	4, 0x90
__ZN3syn3gen5visit5Visit18visit_lifetime_def17h9268366086ce985eE:
	.cfi_startproc
	pushq	%rbp
	.cfi_def_cfa_offset 16
	.cfi_offset %rbp, -16
	movq	%rsp, %rbp
	.cfi_def_cfa_register %rbp
	callq	__ZN3syn3gen5visit18visit_lifetime_def17h974b6513cd137898E
	popq	%rbp
	retq
	.cfi_endproc

	.globl	__ZN3syn3gen5visit5Visit18visit_lit_byte_str17h7ed7c2020b33703aE
	.p2align	4, 0x90
__ZN3syn3gen5visit5Visit18visit_lit_byte_str17h7ed7c2020b33703aE:
	.cfi_startproc
	pushq	%rbp
	.cfi_def_cfa_offset 16
	.cfi_offset %rbp, -16
	movq	%rsp, %rbp
	.cfi_def_cfa_register %rbp
	callq	__ZN3syn3gen5visit18visit_lit_byte_str17h6e0f350ceeeccb6fE
	popq	%rbp
	retq
	.cfi_endproc

	.globl	__ZN3syn3gen5visit5Visit18visit_path_segment17h7fff2a9dab42933dE
	.p2align	4, 0x90
__ZN3syn3gen5visit5Visit18visit_path_segment17h7fff2a9dab42933dE:
	.cfi_startproc
	pushq	%rbp
	.cfi_def_cfa_offset 16
	.cfi_offset %rbp, -16
	movq	%rsp, %rbp
	.cfi_def_cfa_register %rbp
	callq	__ZN3syn3gen5visit18visit_path_segment17h4690be5604f73118E
	popq	%rbp
	retq
	.cfi_endproc

	.globl	__ZN3syn3gen5visit5Visit18visit_type_bare_fn17hba847e6b40a393a7E
	.p2align	4, 0x90
__ZN3syn3gen5visit5Visit18visit_type_bare_fn17hba847e6b40a393a7E:
	.cfi_startproc
	pushq	%rbp
	.cfi_def_cfa_offset 16
	.cfi_offset %rbp, -16
	movq	%rsp, %rbp
	.cfi_def_cfa_register %rbp
	callq	__ZN3syn3gen5visit18visit_type_bare_fn17hc68a226cb1121ca9E
	popq	%rbp
	retq
	.cfi_endproc

	.globl	__ZN3syn3gen5visit5Visit20visit_path_arguments17h0c872337ada439c0E
	.p2align	4, 0x90
__ZN3syn3gen5visit5Visit20visit_path_arguments17h0c872337ada439c0E:
	.cfi_startproc
	pushq	%rbp
	.cfi_def_cfa_offset 16
	.cfi_offset %rbp, -16
	movq	%rsp, %rbp
	.cfi_def_cfa_register %rbp
	callq	__ZN3syn3gen5visit20visit_path_arguments17h8a0de947d9713511E
	popq	%rbp
	retq
	.cfi_endproc

	.globl	__ZN3syn3gen5visit5Visit20visit_type_reference17he628da175f2373c6E
	.p2align	4, 0x90
__ZN3syn3gen5visit5Visit20visit_type_reference17he628da175f2373c6E:
	.cfi_startproc
	pushq	%rbp
	.cfi_def_cfa_offset 16
	.cfi_offset %rbp, -16
	movq	%rsp, %rbp
	.cfi_def_cfa_register %rbp
	callq	__ZN3syn3gen5visit20visit_type_reference17h3ed682381f5ef431E
	popq	%rbp
	retq
	.cfi_endproc

	.globl	__ZN3syn3gen5visit5Visit21visit_bound_lifetimes17hdc00f1b8e3ceaf0dE
	.p2align	4, 0x90
__ZN3syn3gen5visit5Visit21visit_bound_lifetimes17hdc00f1b8e3ceaf0dE:
	.cfi_startproc
	pushq	%rbp
	.cfi_def_cfa_offset 16
	.cfi_offset %rbp, -16
	movq	%rsp, %rbp
	.cfi_def_cfa_register %rbp
	callq	__ZN3syn3gen5visit21visit_bound_lifetimes17h223e6d63651bda67E
	popq	%rbp
	retq
	.cfi_endproc

	.globl	__ZN3syn3gen5visit5Visit21visit_macro_delimiter17h85e33a3e7e2ebb3dE
	.p2align	4, 0x90
__ZN3syn3gen5visit5Visit21visit_macro_delimiter17h85e33a3e7e2ebb3dE:
	.cfi_startproc
	pushq	%rbp
	.cfi_def_cfa_offset 16
	.cfi_offset %rbp, -16
	movq	%rsp, %rbp
	.cfi_def_cfa_register %rbp
	callq	__ZN3syn3gen5visit21visit_macro_delimiter17h3d8745c4693e230fE
	popq	%rbp
	retq
	.cfi_endproc

	.globl	__ZN3syn3gen5visit5Visit21visit_type_impl_trait17h498027fc13b2fa73E
	.p2align	4, 0x90
__ZN3syn3gen5visit5Visit21visit_type_impl_trait17h498027fc13b2fa73E:
	.cfi_startproc
	pushq	%rbp
	.cfi_def_cfa_offset 16
	.cfi_offset %rbp, -16
	movq	%rsp, %rbp
	.cfi_def_cfa_register %rbp
	callq	__ZN3syn3gen5visit21visit_type_impl_trait17h6c31548cf2c8339dE
	popq	%rbp
	retq
	.cfi_endproc

	.globl	__ZN3syn3gen5visit5Visit22visit_generic_argument17hcd116f1d95595c8fE
	.p2align	4, 0x90
__ZN3syn3gen5visit5Visit22visit_generic_argument17hcd116f1d95595c8fE:
	.cfi_startproc
	pushq	%rbp
	.cfi_def_cfa_offset 16
	.cfi_offset %rbp, -16
	movq	%rsp, %rbp
	.cfi_def_cfa_register %rbp
	callq	__ZN3syn3gen5visit22visit_generic_argument17h82d055b2f6c689deE
	popq	%rbp
	retq
	.cfi_endproc

	.globl	__ZN3syn3gen5visit5Visit22visit_type_param_bound17h6518873d02dad80dE
	.p2align	4, 0x90
__ZN3syn3gen5visit5Visit22visit_type_param_bound17h6518873d02dad80dE:
	.cfi_startproc
	pushq	%rbp
	.cfi_def_cfa_offset 16
	.cfi_offset %rbp, -16
	movq	%rsp, %rbp
	.cfi_def_cfa_register %rbp
	callq	__ZN3syn3gen5visit22visit_type_param_bound17h4e5e90dfa8a40cc8E
	popq	%rbp
	retq
	.cfi_endproc

	.globl	__ZN3syn3gen5visit5Visit23visit_type_trait_object17h957178a68825c656E
	.p2align	4, 0x90
__ZN3syn3gen5visit5Visit23visit_type_trait_object17h957178a68825c656E:
	.cfi_startproc
	pushq	%rbp
	.cfi_def_cfa_offset 16
	.cfi_offset %rbp, -16
	movq	%rsp, %rbp
	.cfi_def_cfa_register %rbp
	callq	__ZN3syn3gen5visit23visit_type_trait_object17hc8d751b5e7206764E
	popq	%rbp
	retq
	.cfi_endproc

	.globl	__ZN3syn3gen5visit5Visit26visit_trait_bound_modifier17hc614cc8370be2c10E
	.p2align	4, 0x90
__ZN3syn3gen5visit5Visit26visit_trait_bound_modifier17hc614cc8370be2c10E:
	.cfi_startproc
	pushq	%rbp
	.cfi_def_cfa_offset 16
	.cfi_offset %rbp, -16
	movq	%rsp, %rbp
	.cfi_def_cfa_register %rbp
	callq	__ZN3syn3gen5visit26visit_trait_bound_modifier17he1739be24e29f2edE
	popq	%rbp
	retq
	.cfi_endproc

	.globl	__ZN3syn3gen5visit5Visit37visit_parenthesized_generic_arguments17h9ad2266f9c1f5be6E
	.p2align	4, 0x90
__ZN3syn3gen5visit5Visit37visit_parenthesized_generic_arguments17h9ad2266f9c1f5be6E:
	.cfi_startproc
	pushq	%rbp
	.cfi_def_cfa_offset 16
	.cfi_offset %rbp, -16
	movq	%rsp, %rbp
	.cfi_def_cfa_register %rbp
	callq	__ZN3syn3gen5visit37visit_parenthesized_generic_arguments17h51aabd7eb479a7aeE
	popq	%rbp
	retq
	.cfi_endproc

	.globl	__ZN3syn3gen5visit5Visit39visit_angle_bracketed_generic_arguments17hf8be22be96b88de9E
	.p2align	4, 0x90
__ZN3syn3gen5visit5Visit39visit_angle_bracketed_generic_arguments17hf8be22be96b88de9E:
	.cfi_startproc
	pushq	%rbp
	.cfi_def_cfa_offset 16
	.cfi_offset %rbp, -16
	movq	%rsp, %rbp
	.cfi_def_cfa_register %rbp
	callq	__ZN3syn3gen5visit39visit_angle_bracketed_generic_arguments17h19ff9a5e265a65c0E
	popq	%rbp
	retq
	.cfi_endproc

	.globl	__ZN3syn3gen5visit5Visit9visit_abi17h51f7d4ad0929187eE
	.p2align	4, 0x90
__ZN3syn3gen5visit5Visit9visit_abi17h51f7d4ad0929187eE:
	.cfi_startproc
	pushq	%rbp
	.cfi_def_cfa_offset 16
	.cfi_offset %rbp, -16
	movq	%rsp, %rbp
	.cfi_def_cfa_register %rbp
	callq	__ZN3syn3gen5visit9visit_abi17h9042cd4896cebd32E
	popq	%rbp
	retq
	.cfi_endproc

	.globl	__ZN3syn3gen5visit5Visit9visit_lit17h8c816e47508b47aaE
	.p2align	4, 0x90
__ZN3syn3gen5visit5Visit9visit_lit17h8c816e47508b47aaE:
	.cfi_startproc
	pushq	%rbp
	.cfi_def_cfa_offset 16
	.cfi_offset %rbp, -16
	movq	%rsp, %rbp
	.cfi_def_cfa_register %rbp
	callq	__ZN3syn3gen5visit9visit_lit17hbc2d388386462991E
	popq	%rbp
	retq
	.cfi_endproc

	.globl	__ZN3syn3gen5visit9visit_abi17h9042cd4896cebd32E
	.p2align	4, 0x90
__ZN3syn3gen5visit9visit_abi17h9042cd4896cebd32E:
	.cfi_startproc
	pushq	%rbp
	.cfi_def_cfa_offset 16
	.cfi_offset %rbp, -16
	movq	%rsp, %rbp
	.cfi_def_cfa_register %rbp
	subq	$32, %rsp
	movq	%rsi, %rax
	addq	$8, %rax
	movq	%rdi, -16(%rbp)
	movq	%rsi, -24(%rbp)
	movq	%rax, %rsi
	callq	__ZN3syn3gen6helper5visit13tokens_helper17h18c9f68a4dc2f9c4E
	xorl	%eax, %eax
	movl	%eax, %ecx
	movq	-24(%rbp), %rdx
	movq	-24(%rbp), %rsi
	cmpq	$0, (%rsi)
	movl	$1, %edi
	cmovbeq	%rcx, %rdi
	cmpq	$1, %rdi
	movq	%rdx, -32(%rbp)
	je	LBB175_3
	jmp	LBB175_5
LBB175_3:
	movq	-16(%rbp), %rdi
	movq	-32(%rbp), %rsi
	callq	__ZN3syn3gen5visit5Visit13visit_lit_str17hc333819e25ccbadeE
	jmp	LBB175_5
LBB175_5:
	addq	$32, %rsp
	popq	%rbp
	retq
	.cfi_endproc

	.globl	__ZN3syn3gen5visit9visit_lit17hbc2d388386462991E
	.p2align	4, 0x90
__ZN3syn3gen5visit9visit_lit17hbc2d388386462991E:
	.cfi_startproc
	pushq	%rbp
	.cfi_def_cfa_offset 16
	.cfi_offset %rbp, -16
	movq	%rsp, %rbp
	.cfi_def_cfa_register %rbp
	subq	$32, %rsp
	movl	(%rsi), %eax
	movl	%eax, %ecx
	movq	%rdi, -16(%rbp)
	movq	%rsi, -24(%rbp)
	movq	%rcx, -32(%rbp)
	leaq	LJTI176_0(%rip), %rax
	movq	-32(%rbp), %rcx
	movslq	(%rax,%rcx,4), %rdx
	addq	%rax, %rdx
	jmpq	*%rdx
LBB176_1:
	jmp	LBB176_17
	ud2
LBB176_3:
	movq	-24(%rbp), %rax
	addq	$8, %rax
	movq	-16(%rbp), %rdi
	movq	%rax, %rsi
	callq	__ZN3syn3gen5visit5Visit13visit_lit_str17hc333819e25ccbadeE
	jmp	LBB176_17
LBB176_5:
	movq	-24(%rbp), %rax
	addq	$8, %rax
	movq	-16(%rbp), %rdi
	movq	%rax, %rsi
	callq	__ZN3syn3gen5visit5Visit18visit_lit_byte_str17h7ed7c2020b33703aE
	jmp	LBB176_17
LBB176_7:
	movq	-24(%rbp), %rax
	addq	$8, %rax
	movq	-16(%rbp), %rdi
	movq	%rax, %rsi
	callq	__ZN3syn3gen5visit5Visit14visit_lit_byte17hb8e94fafb4a48b95E
	jmp	LBB176_17
LBB176_9:
	movq	-24(%rbp), %rax
	addq	$8, %rax
	movq	-16(%rbp), %rdi
	movq	%rax, %rsi
	callq	__ZN3syn3gen5visit5Visit14visit_lit_char17h5a1f4924009c0d72E
	jmp	LBB176_17
LBB176_11:
	movq	-24(%rbp), %rax
	addq	$8, %rax
	movq	-16(%rbp), %rdi
	movq	%rax, %rsi
	callq	__ZN3syn3gen5visit5Visit13visit_lit_int17h6ad4ccceab3dbe34E
	jmp	LBB176_17
LBB176_13:
	movq	-24(%rbp), %rax
	addq	$8, %rax
	movq	-16(%rbp), %rdi
	movq	%rax, %rsi
	callq	__ZN3syn3gen5visit5Visit15visit_lit_float17h0b379a3ca8a58303E
	jmp	LBB176_17
LBB176_15:
	movq	-24(%rbp), %rax
	addq	$4, %rax
	movq	-16(%rbp), %rdi
	movq	%rax, %rsi
	callq	__ZN3syn3gen5visit5Visit14visit_lit_bool17he78663e741a26156E
	jmp	LBB176_17
LBB176_17:
	addq	$32, %rsp
	popq	%rbp
	retq
	.cfi_endproc
	.p2align	2, 0x90
	.data_region jt32
.set L176_0_set_3, LBB176_3-LJTI176_0
.set L176_0_set_5, LBB176_5-LJTI176_0
.set L176_0_set_7, LBB176_7-LJTI176_0
.set L176_0_set_9, LBB176_9-LJTI176_0
.set L176_0_set_11, LBB176_11-LJTI176_0
.set L176_0_set_13, LBB176_13-LJTI176_0
.set L176_0_set_15, LBB176_15-LJTI176_0
.set L176_0_set_1, LBB176_1-LJTI176_0
LJTI176_0:
	.long	L176_0_set_3
	.long	L176_0_set_5
	.long	L176_0_set_7
	.long	L176_0_set_9
	.long	L176_0_set_11
	.long	L176_0_set_13
	.long	L176_0_set_15
	.long	L176_0_set_1
	.end_data_region

	.globl	__ZN3syn3gen6helper5visit13tokens_helper17h165c91f8835a0221E
	.p2align	4, 0x90
__ZN3syn3gen6helper5visit13tokens_helper17h165c91f8835a0221E:
	.cfi_startproc
	pushq	%rbp
	.cfi_def_cfa_offset 16
	.cfi_offset %rbp, -16
	movq	%rsp, %rbp
	.cfi_def_cfa_register %rbp
	subq	$16, %rsp
	movq	%rdi, -8(%rbp)
	movq	%rsi, %rdi
	movq	-8(%rbp), %rsi
	callq	__ZN89_$LT$$u5b$proc_macro2..Span$u3b$$u20$3$u5d$$u20$as$u20$syn..gen..helper..visit..Spans$GT$5visit17hb52c59b63fdb4456E
	addq	$16, %rsp
	popq	%rbp
	retq
	.cfi_endproc

	.globl	__ZN3syn3gen6helper5visit13tokens_helper17h18c9f68a4dc2f9c4E
	.p2align	4, 0x90
__ZN3syn3gen6helper5visit13tokens_helper17h18c9f68a4dc2f9c4E:
	.cfi_startproc
	pushq	%rbp
	.cfi_def_cfa_offset 16
	.cfi_offset %rbp, -16
	movq	%rsp, %rbp
	.cfi_def_cfa_register %rbp
	subq	$16, %rsp
	movq	%rdi, -8(%rbp)
	movq	%rsi, %rdi
	movq	-8(%rbp), %rsi
	callq	__ZN68_$LT$proc_macro2..Span$u20$as$u20$syn..gen..helper..visit..Spans$GT$5visit17h556219dbc8fcd909E
	addq	$16, %rsp
	popq	%rbp
	retq
	.cfi_endproc

	.globl	__ZN3syn3gen6helper5visit13tokens_helper17h711609849b703e9dE
	.p2align	4, 0x90
__ZN3syn3gen6helper5visit13tokens_helper17h711609849b703e9dE:
	.cfi_startproc
	pushq	%rbp
	.cfi_def_cfa_offset 16
	.cfi_offset %rbp, -16
	movq	%rsp, %rbp
	.cfi_def_cfa_register %rbp
	subq	$16, %rsp
	movq	%rdi, -8(%rbp)
	movq	%rsi, %rdi
	movq	-8(%rbp), %rsi
	callq	__ZN89_$LT$$u5b$proc_macro2..Span$u3b$$u20$2$u5d$$u20$as$u20$syn..gen..helper..visit..Spans$GT$5visit17h7c511b7fc9a6bfe6E
	addq	$16, %rsp
	popq	%rbp
	retq
	.cfi_endproc

	.globl	__ZN3syn3gen6helper5visit13tokens_helper17hf94adaee820ffee6E
	.p2align	4, 0x90
__ZN3syn3gen6helper5visit13tokens_helper17hf94adaee820ffee6E:
	.cfi_startproc
	pushq	%rbp
	.cfi_def_cfa_offset 16
	.cfi_offset %rbp, -16
	movq	%rsp, %rbp
	.cfi_def_cfa_register %rbp
	subq	$16, %rsp
	movq	%rdi, -8(%rbp)
	movq	%rsi, %rdi
	movq	-8(%rbp), %rsi
	callq	__ZN89_$LT$$u5b$proc_macro2..Span$u3b$$u20$1$u5d$$u20$as$u20$syn..gen..helper..visit..Spans$GT$5visit17hbec2d8d35bfde729E
	addq	$16, %rsp
	popq	%rbp
	retq
	.cfi_endproc

	.globl	__ZN3syn5error5Error11new_spanned17h13c661d38fe44918E
	.p2align	4, 0x90
__ZN3syn5error5Error11new_spanned17h13c661d38fe44918E:
Lfunc_begin10:
	.cfi_startproc
	.cfi_personality 155, _rust_eh_personality
	.cfi_lsda 16, Lexception10
	pushq	%rbp
	.cfi_def_cfa_offset 16
	.cfi_offset %rbp, -16
	movq	%rsp, %rbp
	.cfi_def_cfa_register %rbp
	subq	$480, %rsp
	movq	%rdi, %rax
	movb	$0, -25(%rbp)
Ltmp92:
	leaq	-408(%rbp), %rcx
	movq	%rdi, -456(%rbp)
	movq	%rcx, %rdi
	movq	%rdx, -464(%rbp)
	movq	%rax, -472(%rbp)
	callq	__ZN5quote9to_tokens8ToTokens17into_token_stream17h60cad9343fa741eeE
Ltmp93:
	jmp	LBB181_1
LBB181_1:
Ltmp94:
	leaq	-448(%rbp), %rdi
	leaq	-408(%rbp), %rsi
	callq	__ZN11proc_macro212token_stream96_$LT$impl$u20$core..iter..traits..collect..IntoIterator$u20$for$u20$proc_macro2..TokenStream$GT$9into_iter17h04915aefccd62113E
Ltmp95:
	jmp	LBB181_4
LBB181_2:
	movq	-24(%rbp), %rdi
	callq	__Unwind_Resume
	ud2
LBB181_3:
	movq	-464(%rbp), %rdi
	callq	__ZN4core3ptr13drop_in_place17h06786e25de60db61E
	jmp	LBB181_2
LBB181_4:
	movb	$1, -25(%rbp)
Ltmp97:
	leaq	-360(%rbp), %rdi
	leaq	-448(%rbp), %rsi
	callq	__ZN94_$LT$proc_macro2..token_stream..IntoIter$u20$as$u20$core..iter..traits..iterator..Iterator$GT$4next17h25b146b4c5a6151fE
Ltmp98:
	jmp	LBB181_5
LBB181_5:
Ltmp99:
	leaq	-360(%rbp), %rdi
	callq	__ZN4core6option15Option$LT$T$GT$11map_or_else17h76daf839383b3ddeE
Ltmp100:
	movl	%eax, -476(%rbp)
	jmp	LBB181_6
LBB181_6:
	movl	-476(%rbp), %eax
	movl	%eax, -8(%rbp)
	movl	-8(%rbp), %ecx
	movl	%ecx, -368(%rbp)
	movb	$0, -25(%rbp)
	movq	-416(%rbp), %rdx
	movq	%rdx, -216(%rbp)
	movq	-424(%rbp), %rdx
	movq	%rdx, -224(%rbp)
	movq	-432(%rbp), %rdx
	movq	%rdx, -232(%rbp)
	movq	-448(%rbp), %rdx
	movq	-440(%rbp), %rsi
	movq	%rsi, -240(%rbp)
	movq	%rdx, -248(%rbp)
Ltmp101:
	leaq	-296(%rbp), %rdi
	leaq	-248(%rbp), %rsi
	callq	__ZN4core4iter6traits8iterator8Iterator4last17hbd633d5bc9b3eb9eE
Ltmp102:
	jmp	LBB181_7
LBB181_7:
	movl	-368(%rbp), %eax
	movl	%eax, -208(%rbp)
	movl	-208(%rbp), %esi
Ltmp103:
	leaq	-296(%rbp), %rdi
	callq	__ZN4core6option15Option$LT$T$GT$6map_or17h827cfb76cc8c930dE
Ltmp104:
	movl	%eax, -480(%rbp)
	jmp	LBB181_8
LBB181_8:
	movl	-480(%rbp), %eax
	movl	%eax, -4(%rbp)
	movl	-4(%rbp), %ecx
	movl	%ecx, -304(%rbp)
	movl	$56, %edi
	movl	$8, %esi
	callq	__ZN5alloc5alloc15exchange_malloc17h474238982ffc5d0bE
	movq	%rax, -168(%rbp)
	movl	-368(%rbp), %ecx
	movl	%ecx, -88(%rbp)
	movl	-88(%rbp), %esi
Ltmp105:
	leaq	-104(%rbp), %rdi
	callq	__ZN3syn6thread20ThreadBound$LT$T$GT$3new17hd89935d028edfe8dE
Ltmp106:
	jmp	LBB181_9
LBB181_9:
	movl	-304(%rbp), %eax
	movl	%eax, -64(%rbp)
	movl	-64(%rbp), %esi
Ltmp107:
	leaq	-80(%rbp), %rdi
	callq	__ZN3syn6thread20ThreadBound$LT$T$GT$3new17hd89935d028edfe8dE
Ltmp108:
	jmp	LBB181_10
LBB181_10:
Ltmp109:
	leaq	-56(%rbp), %rdi
	movq	-464(%rbp), %rsi
	callq	__ZN65_$LT$alloc..string..String$u20$as$u20$alloc..string..ToString$GT$9to_string17hb1ab6c54ea513f0fE
Ltmp110:
	jmp	LBB181_11
LBB181_11:
	movq	-104(%rbp), %rax
	movq	-96(%rbp), %rcx
	movq	%rcx, -152(%rbp)
	movq	%rax, -160(%rbp)
	movq	-80(%rbp), %rax
	movq	-72(%rbp), %rcx
	movq	%rcx, -136(%rbp)
	movq	%rax, -144(%rbp)
	movq	-40(%rbp), %rax
	movq	%rax, -112(%rbp)
	movq	-56(%rbp), %rax
	movq	-48(%rbp), %rcx
	movq	%rcx, -120(%rbp)
	movq	%rax, -128(%rbp)
	movq	-168(%rbp), %rax
	movq	-112(%rbp), %rcx
	movq	%rcx, 48(%rax)
	movq	-120(%rbp), %rcx
	movq	%rcx, 40(%rax)
	movq	-128(%rbp), %rcx
	movq	%rcx, 32(%rax)
	movq	-136(%rbp), %rcx
	movq	%rcx, 24(%rax)
	movq	-144(%rbp), %rcx
	movq	%rcx, 16(%rax)
	movq	-160(%rbp), %rcx
	movq	-152(%rbp), %rdx
	movq	%rdx, 8(%rax)
	movq	%rcx, (%rax)
	movq	-168(%rbp), %rsi
Ltmp112:
	leaq	-192(%rbp), %rdi
	movl	$1, %edx
	callq	__ZN5alloc5slice29_$LT$impl$u20$$u5b$T$u5d$$GT$8into_vec17h8d1e5c50512a7076E
Ltmp113:
	jmp	LBB181_12
LBB181_12:
	movq	-192(%rbp), %rax
	movq	-456(%rbp), %rcx
	movq	%rax, (%rcx)
	movq	-184(%rbp), %rax
	movq	%rax, 8(%rcx)
	movq	-176(%rbp), %rax
	movq	%rax, 16(%rcx)
	movb	$0, -25(%rbp)
	movq	-464(%rbp), %rdi
	callq	__ZN4core3ptr13drop_in_place17h06786e25de60db61E
	movq	-472(%rbp), %rax
	addq	$480, %rsp
	popq	%rbp
	retq
LBB181_14:
	movb	$0, -25(%rbp)
	leaq	-448(%rbp), %rdi
	callq	__ZN4core3ptr13drop_in_place17hc5bac1a3836d3cfaE
	jmp	LBB181_3
LBB181_15:
	testb	$1, -25(%rbp)
	jne	LBB181_14
	jmp	LBB181_3
LBB181_16:
	movq	-168(%rbp), %rdi
	callq	__ZN5alloc5alloc8box_free17h3f09619584195de1E
	jmp	LBB181_15
LBB181_17:
Ltmp96:
	movq	%rax, -24(%rbp)
	movl	%edx, -16(%rbp)
	jmp	LBB181_3
LBB181_18:
Ltmp114:
	movq	%rax, -24(%rbp)
	movl	%edx, -16(%rbp)
	jmp	LBB181_15
LBB181_19:
Ltmp111:
	movq	%rax, -24(%rbp)
	movl	%edx, -16(%rbp)
	jmp	LBB181_16
Lfunc_end10:
	.cfi_endproc
	.section	__TEXT,__gcc_except_tab
	.p2align	2
GCC_except_table181:
Lexception10:
	.byte	255
	.byte	255
	.byte	1
	.uleb128 Lcst_end10-Lcst_begin10
Lcst_begin10:
	.uleb128 Ltmp92-Lfunc_begin10
	.uleb128 Ltmp95-Ltmp92
	.uleb128 Ltmp96-Lfunc_begin10
	.byte	0
	.uleb128 Ltmp95-Lfunc_begin10
	.uleb128 Ltmp97-Ltmp95
	.byte	0
	.byte	0
	.uleb128 Ltmp97-Lfunc_begin10
	.uleb128 Ltmp104-Ltmp97
	.uleb128 Ltmp114-Lfunc_begin10
	.byte	0
	.uleb128 Ltmp104-Lfunc_begin10
	.uleb128 Ltmp105-Ltmp104
	.byte	0
	.byte	0
	.uleb128 Ltmp105-Lfunc_begin10
	.uleb128 Ltmp110-Ltmp105
	.uleb128 Ltmp111-Lfunc_begin10
	.byte	0
	.uleb128 Ltmp112-Lfunc_begin10
	.uleb128 Ltmp113-Ltmp112
	.uleb128 Ltmp114-Lfunc_begin10
	.byte	0
	.uleb128 Ltmp113-Lfunc_begin10
	.uleb128 Lfunc_end10-Ltmp113
	.byte	0
	.byte	0
Lcst_end10:
	.p2align	2

	.section	__TEXT,__text,regular,pure_instructions
	.globl	__ZN3syn5error5Error11new_spanned17h38a00e1d2a78d91aE
	.p2align	4, 0x90
__ZN3syn5error5Error11new_spanned17h38a00e1d2a78d91aE:
Lfunc_begin11:
	.cfi_startproc
	.cfi_personality 155, _rust_eh_personality
	.cfi_lsda 16, Lexception11
	pushq	%rbp
	.cfi_def_cfa_offset 16
	.cfi_offset %rbp, -16
	movq	%rsp, %rbp
	.cfi_def_cfa_register %rbp
	subq	$496, %rsp
	movq	%rdi, %rax
	movq	%rdx, -464(%rbp)
	movq	%rcx, -456(%rbp)
	movb	$0, -25(%rbp)
Ltmp115:
	leaq	-408(%rbp), %rcx
	movq	%rdi, -472(%rbp)
	movq	%rcx, %rdi
	movq	%rax, -480(%rbp)
	callq	__ZN5quote9to_tokens8ToTokens17into_token_stream17h16a10025aacb82d3E
Ltmp116:
	jmp	LBB182_1
LBB182_1:
Ltmp117:
	leaq	-448(%rbp), %rdi
	leaq	-408(%rbp), %rsi
	callq	__ZN11proc_macro212token_stream96_$LT$impl$u20$core..iter..traits..collect..IntoIterator$u20$for$u20$proc_macro2..TokenStream$GT$9into_iter17h04915aefccd62113E
Ltmp118:
	jmp	LBB182_4
LBB182_2:
	movq	-24(%rbp), %rdi
	callq	__Unwind_Resume
	ud2
LBB182_3:
	jmp	LBB182_2
LBB182_4:
	movb	$1, -25(%rbp)
Ltmp120:
	leaq	-360(%rbp), %rdi
	leaq	-448(%rbp), %rsi
	callq	__ZN94_$LT$proc_macro2..token_stream..IntoIter$u20$as$u20$core..iter..traits..iterator..Iterator$GT$4next17h25b146b4c5a6151fE
Ltmp121:
	jmp	LBB182_5
LBB182_5:
Ltmp122:
	leaq	-360(%rbp), %rdi
	callq	__ZN4core6option15Option$LT$T$GT$11map_or_else17hdde83ef5916db6f6E
Ltmp123:
	movl	%eax, -484(%rbp)
	jmp	LBB182_6
LBB182_6:
	movl	-484(%rbp), %eax
	movl	%eax, -8(%rbp)
	movl	-8(%rbp), %ecx
	movl	%ecx, -368(%rbp)
	movb	$0, -25(%rbp)
	movq	-416(%rbp), %rdx
	movq	%rdx, -216(%rbp)
	movq	-424(%rbp), %rdx
	movq	%rdx, -224(%rbp)
	movq	-432(%rbp), %rdx
	movq	%rdx, -232(%rbp)
	movq	-448(%rbp), %rdx
	movq	-440(%rbp), %rsi
	movq	%rsi, -240(%rbp)
	movq	%rdx, -248(%rbp)
Ltmp124:
	leaq	-296(%rbp), %rdi
	leaq	-248(%rbp), %rsi
	callq	__ZN4core4iter6traits8iterator8Iterator4last17hbd633d5bc9b3eb9eE
Ltmp125:
	jmp	LBB182_7
LBB182_7:
	movl	-368(%rbp), %eax
	movl	%eax, -208(%rbp)
	movl	-208(%rbp), %esi
Ltmp126:
	leaq	-296(%rbp), %rdi
	callq	__ZN4core6option15Option$LT$T$GT$6map_or17hbfbfe8a115e3b00cE
Ltmp127:
	movl	%eax, -488(%rbp)
	jmp	LBB182_8
LBB182_8:
	movl	-488(%rbp), %eax
	movl	%eax, -4(%rbp)
	movl	-4(%rbp), %ecx
	movl	%ecx, -304(%rbp)
	movl	$56, %edi
	movl	$8, %esi
	callq	__ZN5alloc5alloc15exchange_malloc17h474238982ffc5d0bE
	movq	%rax, -168(%rbp)
	movl	-368(%rbp), %ecx
	movl	%ecx, -88(%rbp)
	movl	-88(%rbp), %esi
Ltmp128:
	leaq	-104(%rbp), %rdi
	callq	__ZN3syn6thread20ThreadBound$LT$T$GT$3new17hd89935d028edfe8dE
Ltmp129:
	jmp	LBB182_9
LBB182_9:
	movl	-304(%rbp), %eax
	movl	%eax, -64(%rbp)
	movl	-64(%rbp), %esi
Ltmp130:
	leaq	-80(%rbp), %rdi
	callq	__ZN3syn6thread20ThreadBound$LT$T$GT$3new17hd89935d028edfe8dE
Ltmp131:
	jmp	LBB182_10
LBB182_10:
Ltmp132:
	leaq	-56(%rbp), %rdi
	leaq	-464(%rbp), %rsi
	callq	__ZN45_$LT$T$u20$as$u20$alloc..string..ToString$GT$9to_string17h9492fb04fe8ac4b9E
Ltmp133:
	jmp	LBB182_11
LBB182_11:
	movq	-104(%rbp), %rax
	movq	-96(%rbp), %rcx
	movq	%rcx, -152(%rbp)
	movq	%rax, -160(%rbp)
	movq	-80(%rbp), %rax
	movq	-72(%rbp), %rcx
	movq	%rcx, -136(%rbp)
	movq	%rax, -144(%rbp)
	movq	-40(%rbp), %rax
	movq	%rax, -112(%rbp)
	movq	-56(%rbp), %rax
	movq	-48(%rbp), %rcx
	movq	%rcx, -120(%rbp)
	movq	%rax, -128(%rbp)
	movq	-168(%rbp), %rax
	movq	-112(%rbp), %rcx
	movq	%rcx, 48(%rax)
	movq	-120(%rbp), %rcx
	movq	%rcx, 40(%rax)
	movq	-128(%rbp), %rcx
	movq	%rcx, 32(%rax)
	movq	-136(%rbp), %rcx
	movq	%rcx, 24(%rax)
	movq	-144(%rbp), %rcx
	movq	%rcx, 16(%rax)
	movq	-160(%rbp), %rcx
	movq	-152(%rbp), %rdx
	movq	%rdx, 8(%rax)
	movq	%rcx, (%rax)
	movq	-168(%rbp), %rsi
Ltmp135:
	leaq	-192(%rbp), %rdi
	movl	$1, %edx
	callq	__ZN5alloc5slice29_$LT$impl$u20$$u5b$T$u5d$$GT$8into_vec17h8d1e5c50512a7076E
Ltmp136:
	jmp	LBB182_12
LBB182_12:
	movq	-192(%rbp), %rax
	movq	-472(%rbp), %rcx
	movq	%rax, (%rcx)
	movq	-184(%rbp), %rax
	movq	%rax, 8(%rcx)
	movq	-176(%rbp), %rax
	movq	%rax, 16(%rcx)
	movb	$0, -25(%rbp)
	movq	-480(%rbp), %rax
	addq	$496, %rsp
	popq	%rbp
	retq
LBB182_14:
	movb	$0, -25(%rbp)
	leaq	-448(%rbp), %rdi
	callq	__ZN4core3ptr13drop_in_place17hc5bac1a3836d3cfaE
	jmp	LBB182_3
LBB182_15:
	testb	$1, -25(%rbp)
	jne	LBB182_14
	jmp	LBB182_3
LBB182_16:
	movq	-168(%rbp), %rdi
	callq	__ZN5alloc5alloc8box_free17h3f09619584195de1E
	jmp	LBB182_15
LBB182_17:
Ltmp119:
	movq	%rax, -24(%rbp)
	movl	%edx, -16(%rbp)
	jmp	LBB182_3
LBB182_18:
Ltmp137:
	movq	%rax, -24(%rbp)
	movl	%edx, -16(%rbp)
	jmp	LBB182_15
LBB182_19:
Ltmp134:
	movq	%rax, -24(%rbp)
	movl	%edx, -16(%rbp)
	jmp	LBB182_16
Lfunc_end11:
	.cfi_endproc
	.section	__TEXT,__gcc_except_tab
	.p2align	2
GCC_except_table182:
Lexception11:
	.byte	255
	.byte	255
	.byte	1
	.uleb128 Lcst_end11-Lcst_begin11
Lcst_begin11:
	.uleb128 Ltmp115-Lfunc_begin11
	.uleb128 Ltmp118-Ltmp115
	.uleb128 Ltmp119-Lfunc_begin11
	.byte	0
	.uleb128 Ltmp118-Lfunc_begin11
	.uleb128 Ltmp120-Ltmp118
	.byte	0
	.byte	0
	.uleb128 Ltmp120-Lfunc_begin11
	.uleb128 Ltmp127-Ltmp120
	.uleb128 Ltmp137-Lfunc_begin11
	.byte	0
	.uleb128 Ltmp127-Lfunc_begin11
	.uleb128 Ltmp128-Ltmp127
	.byte	0
	.byte	0
	.uleb128 Ltmp128-Lfunc_begin11
	.uleb128 Ltmp133-Ltmp128
	.uleb128 Ltmp134-Lfunc_begin11
	.byte	0
	.uleb128 Ltmp135-Lfunc_begin11
	.uleb128 Ltmp136-Ltmp135
	.uleb128 Ltmp137-Lfunc_begin11
	.byte	0
	.uleb128 Ltmp136-Lfunc_begin11
	.uleb128 Lfunc_end11-Ltmp136
	.byte	0
	.byte	0
Lcst_end11:
	.p2align	2

	.section	__TEXT,__text,regular,pure_instructions
	.globl	__ZN3syn5error5Error11new_spanned28_$u7b$$u7b$closure$u7d$$u7d$17h27efddb666529c84E
	.p2align	4, 0x90
__ZN3syn5error5Error11new_spanned28_$u7b$$u7b$closure$u7d$$u7d$17h27efddb666529c84E:
Lfunc_begin12:
	.cfi_startproc
	.cfi_personality 155, _rust_eh_personality
	.cfi_lsda 16, Lexception12
	pushq	%rbp
	.cfi_def_cfa_offset 16
	.cfi_offset %rbp, -16
	movq	%rsp, %rbp
	.cfi_def_cfa_register %rbp
	subq	$48, %rsp
Ltmp138:
	movq	%rdi, -40(%rbp)
	callq	__ZN11proc_macro29TokenTree4span17h5115176b3b980df3E
Ltmp139:
	movl	%eax, -44(%rbp)
	jmp	LBB183_2
LBB183_1:
	movq	-24(%rbp), %rdi
	callq	__Unwind_Resume
	ud2
LBB183_2:
	movl	-44(%rbp), %eax
	movl	%eax, -4(%rbp)
	movl	-4(%rbp), %ecx
	movl	%ecx, -32(%rbp)
	movq	-40(%rbp), %rdi
	callq	__ZN4core3ptr13drop_in_place17hf1782ff03d96ed31E
	jmp	LBB183_4
LBB183_3:
	movq	-40(%rbp), %rdi
	callq	__ZN4core3ptr13drop_in_place17hf1782ff03d96ed31E
	jmp	LBB183_1
LBB183_4:
	movl	-32(%rbp), %eax
	addq	$48, %rsp
	popq	%rbp
	retq
LBB183_5:
Ltmp140:
	movq	%rax, -24(%rbp)
	movl	%edx, -16(%rbp)
	jmp	LBB183_3
Lfunc_end12:
	.cfi_endproc
	.section	__TEXT,__gcc_except_tab
	.p2align	2
GCC_except_table183:
Lexception12:
	.byte	255
	.byte	255
	.byte	1
	.uleb128 Lcst_end12-Lcst_begin12
Lcst_begin12:
	.uleb128 Ltmp138-Lfunc_begin12
	.uleb128 Ltmp139-Ltmp138
	.uleb128 Ltmp140-Lfunc_begin12
	.byte	0
	.uleb128 Ltmp139-Lfunc_begin12
	.uleb128 Lfunc_end12-Ltmp139
	.byte	0
	.byte	0
Lcst_end12:
	.p2align	2

	.section	__TEXT,__text,regular,pure_instructions
	.globl	__ZN3syn5error5Error11new_spanned28_$u7b$$u7b$closure$u7d$$u7d$17h4d420deafc3ba137E
	.p2align	4, 0x90
__ZN3syn5error5Error11new_spanned28_$u7b$$u7b$closure$u7d$$u7d$17h4d420deafc3ba137E:
Lfunc_begin13:
	.cfi_startproc
	.cfi_personality 155, _rust_eh_personality
	.cfi_lsda 16, Lexception13
	pushq	%rbp
	.cfi_def_cfa_offset 16
	.cfi_offset %rbp, -16
	movq	%rsp, %rbp
	.cfi_def_cfa_register %rbp
	subq	$48, %rsp
Ltmp141:
	movq	%rdi, -40(%rbp)
	callq	__ZN11proc_macro29TokenTree4span17h5115176b3b980df3E
Ltmp142:
	movl	%eax, -44(%rbp)
	jmp	LBB184_2
LBB184_1:
	movq	-24(%rbp), %rdi
	callq	__Unwind_Resume
	ud2
LBB184_2:
	movl	-44(%rbp), %eax
	movl	%eax, -4(%rbp)
	movl	-4(%rbp), %ecx
	movl	%ecx, -32(%rbp)
	movq	-40(%rbp), %rdi
	callq	__ZN4core3ptr13drop_in_place17hf1782ff03d96ed31E
	jmp	LBB184_4
LBB184_3:
	movq	-40(%rbp), %rdi
	callq	__ZN4core3ptr13drop_in_place17hf1782ff03d96ed31E
	jmp	LBB184_1
LBB184_4:
	movl	-32(%rbp), %eax
	addq	$48, %rsp
	popq	%rbp
	retq
LBB184_5:
Ltmp143:
	movq	%rax, -24(%rbp)
	movl	%edx, -16(%rbp)
	jmp	LBB184_3
Lfunc_end13:
	.cfi_endproc
	.section	__TEXT,__gcc_except_tab
	.p2align	2
GCC_except_table184:
Lexception13:
	.byte	255
	.byte	255
	.byte	1
	.uleb128 Lcst_end13-Lcst_begin13
Lcst_begin13:
	.uleb128 Ltmp141-Lfunc_begin13
	.uleb128 Ltmp142-Ltmp141
	.uleb128 Ltmp143-Lfunc_begin13
	.byte	0
	.uleb128 Ltmp142-Lfunc_begin13
	.uleb128 Lfunc_end13-Ltmp142
	.byte	0
	.byte	0
Lcst_end13:
	.p2align	2

	.section	__TEXT,__text,regular,pure_instructions
	.globl	__ZN3syn5error5Error11new_spanned28_$u7b$$u7b$closure$u7d$$u7d$17h69ef156ccdaf61b0E
	.p2align	4, 0x90
__ZN3syn5error5Error11new_spanned28_$u7b$$u7b$closure$u7d$$u7d$17h69ef156ccdaf61b0E:
Lfunc_begin14:
	.cfi_startproc
	.cfi_personality 155, _rust_eh_personality
	.cfi_lsda 16, Lexception14
	pushq	%rbp
	.cfi_def_cfa_offset 16
	.cfi_offset %rbp, -16
	movq	%rsp, %rbp
	.cfi_def_cfa_register %rbp
	subq	$48, %rsp
Ltmp144:
	movq	%rdi, -40(%rbp)
	callq	__ZN11proc_macro29TokenTree4span17h5115176b3b980df3E
Ltmp145:
	movl	%eax, -44(%rbp)
	jmp	LBB185_2
LBB185_1:
	movq	-24(%rbp), %rdi
	callq	__Unwind_Resume
	ud2
LBB185_2:
	movl	-44(%rbp), %eax
	movl	%eax, -4(%rbp)
	movl	-4(%rbp), %ecx
	movl	%ecx, -32(%rbp)
	movq	-40(%rbp), %rdi
	callq	__ZN4core3ptr13drop_in_place17hf1782ff03d96ed31E
	jmp	LBB185_4
LBB185_3:
	movq	-40(%rbp), %rdi
	callq	__ZN4core3ptr13drop_in_place17hf1782ff03d96ed31E
	jmp	LBB185_1
LBB185_4:
	movl	-32(%rbp), %eax
	addq	$48, %rsp
	popq	%rbp
	retq
LBB185_5:
Ltmp146:
	movq	%rax, -24(%rbp)
	movl	%edx, -16(%rbp)
	jmp	LBB185_3
Lfunc_end14:
	.cfi_endproc
	.section	__TEXT,__gcc_except_tab
	.p2align	2
GCC_except_table185:
Lexception14:
	.byte	255
	.byte	255
	.byte	1
	.uleb128 Lcst_end14-Lcst_begin14
Lcst_begin14:
	.uleb128 Ltmp144-Lfunc_begin14
	.uleb128 Ltmp145-Ltmp144
	.uleb128 Ltmp146-Lfunc_begin14
	.byte	0
	.uleb128 Ltmp145-Lfunc_begin14
	.uleb128 Lfunc_end14-Ltmp145
	.byte	0
	.byte	0
Lcst_end14:
	.p2align	2

	.section	__TEXT,__text,regular,pure_instructions
	.globl	__ZN3syn5error5Error11new_spanned28_$u7b$$u7b$closure$u7d$$u7d$17h74bc9fe602d2d822E
	.p2align	4, 0x90
__ZN3syn5error5Error11new_spanned28_$u7b$$u7b$closure$u7d$$u7d$17h74bc9fe602d2d822E:
Lfunc_begin15:
	.cfi_startproc
	.cfi_personality 155, _rust_eh_personality
	.cfi_lsda 16, Lexception15
	pushq	%rbp
	.cfi_def_cfa_offset 16
	.cfi_offset %rbp, -16
	movq	%rsp, %rbp
	.cfi_def_cfa_register %rbp
	subq	$48, %rsp
Ltmp147:
	movq	%rdi, -40(%rbp)
	callq	__ZN11proc_macro29TokenTree4span17h5115176b3b980df3E
Ltmp148:
	movl	%eax, -44(%rbp)
	jmp	LBB186_2
LBB186_1:
	movq	-24(%rbp), %rdi
	callq	__Unwind_Resume
	ud2
LBB186_2:
	movl	-44(%rbp), %eax
	movl	%eax, -4(%rbp)
	movl	-4(%rbp), %ecx
	movl	%ecx, -32(%rbp)
	movq	-40(%rbp), %rdi
	callq	__ZN4core3ptr13drop_in_place17hf1782ff03d96ed31E
	jmp	LBB186_4
LBB186_3:
	movq	-40(%rbp), %rdi
	callq	__ZN4core3ptr13drop_in_place17hf1782ff03d96ed31E
	jmp	LBB186_1
LBB186_4:
	movl	-32(%rbp), %eax
	addq	$48, %rsp
	popq	%rbp
	retq
LBB186_5:
Ltmp149:
	movq	%rax, -24(%rbp)
	movl	%edx, -16(%rbp)
	jmp	LBB186_3
Lfunc_end15:
	.cfi_endproc
	.section	__TEXT,__gcc_except_tab
	.p2align	2
GCC_except_table186:
Lexception15:
	.byte	255
	.byte	255
	.byte	1
	.uleb128 Lcst_end15-Lcst_begin15
Lcst_begin15:
	.uleb128 Ltmp147-Lfunc_begin15
	.uleb128 Ltmp148-Ltmp147
	.uleb128 Ltmp149-Lfunc_begin15
	.byte	0
	.uleb128 Ltmp148-Lfunc_begin15
	.uleb128 Lfunc_end15-Ltmp148
	.byte	0
	.byte	0
Lcst_end15:
	.p2align	2

	.section	__TEXT,__text,regular,pure_instructions
	.globl	__ZN3syn5parse11ParseBuffer5parse17h62b356a848456a88E
	.p2align	4, 0x90
__ZN3syn5parse11ParseBuffer5parse17h62b356a848456a88E:
	.cfi_startproc
	pushq	%rbp
	.cfi_def_cfa_offset 16
	.cfi_offset %rbp, -16
	movq	%rsp, %rbp
	.cfi_def_cfa_register %rbp
	subq	$16, %rsp
	movq	%rdi, %rax
	movq	%rax, -8(%rbp)
	callq	__ZN52_$LT$syn..token..At$u20$as$u20$syn..parse..Parse$GT$5parse17hbb784f8e4a48f989E
	movq	-8(%rbp), %rax
	addq	$16, %rsp
	popq	%rbp
	retq
	.cfi_endproc

	.globl	__ZN3syn5parse11ParseBuffer5parse17hf78d1c599bd7735bE
	.p2align	4, 0x90
__ZN3syn5parse11ParseBuffer5parse17hf78d1c599bd7735bE:
	.cfi_startproc
	pushq	%rbp
	.cfi_def_cfa_offset 16
	.cfi_offset %rbp, -16
	movq	%rsp, %rbp
	.cfi_def_cfa_register %rbp
	subq	$16, %rsp
	movq	%rdi, %rax
	movq	%rax, -8(%rbp)
	callq	__ZN58_$LT$syn..token..SelfType$u20$as$u20$syn..parse..Parse$GT$5parse17hf592befdd90fa24aE
	movq	-8(%rbp), %rax
	addq	$16, %rsp
	popq	%rbp
	retq
	.cfi_endproc

	.globl	__ZN3syn5parse11ParseBuffer5parse17hf9c4df42a1013cf3E
	.p2align	4, 0x90
__ZN3syn5parse11ParseBuffer5parse17hf9c4df42a1013cf3E:
	.cfi_startproc
	pushq	%rbp
	.cfi_def_cfa_offset 16
	.cfi_offset %rbp, -16
	movq	%rsp, %rbp
	.cfi_def_cfa_register %rbp
	subq	$16, %rsp
	movq	%rdi, %rax
	movq	%rax, -8(%rbp)
	callq	__ZN60_$LT$proc_macro2..TokenTree$u20$as$u20$syn..parse..Parse$GT$5parse17h1d20cc997bace3b5E
	movq	-8(%rbp), %rax
	addq	$16, %rsp
	popq	%rbp
	retq
	.cfi_endproc

	.globl	__ZN3syn5token5Brace8surround17h8e8e5265dd243f64E
	.p2align	4, 0x90
__ZN3syn5token5Brace8surround17h8e8e5265dd243f64E:
	.cfi_startproc
	pushq	%rbp
	.cfi_def_cfa_offset 16
	.cfi_offset %rbp, -16
	movq	%rsp, %rbp
	.cfi_def_cfa_register %rbp
	subq	$32, %rsp
	leaq	l___unnamed_12(%rip), %rax
	movl	(%rdi), %ecx
	movl	%ecx, -8(%rbp)
	movl	-8(%rbp), %ecx
	movq	%rax, %rdi
	movl	$1, %eax
	movq	%rsi, -16(%rbp)
	movq	%rax, %rsi
	movq	%rdx, -24(%rbp)
	movl	%ecx, %edx
	movq	-16(%rbp), %rcx
	movq	-24(%rbp), %r8
	callq	__ZN3syn5token8printing5delim17h1e25372d4aebef34E
	addq	$32, %rsp
	popq	%rbp
	retq
	.cfi_endproc

	.globl	__ZN3syn5token5Paren8surround17h7a11235820d1380aE
	.p2align	4, 0x90
__ZN3syn5token5Paren8surround17h7a11235820d1380aE:
	.cfi_startproc
	pushq	%rbp
	.cfi_def_cfa_offset 16
	.cfi_offset %rbp, -16
	movq	%rsp, %rbp
	.cfi_def_cfa_register %rbp
	subq	$32, %rsp
	leaq	l___unnamed_13(%rip), %rax
	movl	(%rdi), %ecx
	movl	%ecx, -8(%rbp)
	movl	-8(%rbp), %ecx
	movq	%rax, %rdi
	movl	$1, %eax
	movq	%rsi, -16(%rbp)
	movq	%rax, %rsi
	movq	%rdx, -24(%rbp)
	movl	%ecx, %edx
	movq	-16(%rbp), %rcx
	movq	-24(%rbp), %r8
	callq	__ZN3syn5token8printing5delim17hd2404bf8a01fb4a8E
	addq	$32, %rsp
	popq	%rbp
	retq
	.cfi_endproc

	.globl	__ZN3syn5token8printing5delim17h1e25372d4aebef34E
	.p2align	4, 0x90
__ZN3syn5token8printing5delim17h1e25372d4aebef34E:
Lfunc_begin16:
	.cfi_startproc
	.cfi_personality 155, _rust_eh_personality
	.cfi_lsda 16, Lexception16
	pushq	%rbp
	.cfi_def_cfa_offset 16
	.cfi_offset %rbp, -16
	movq	%rsp, %rbp
	.cfi_def_cfa_register %rbp
	subq	$368, %rsp
	movq	%rdi, -304(%rbp)
	movq	%rsi, -296(%rbp)
	movl	%edx, -280(%rbp)
	movl	-280(%rbp), %eax
	movl	%eax, -288(%rbp)
	movb	$0, -19(%rbp)
	movb	$0, -18(%rbp)
	movb	$0, -17(%rbp)
	movb	$1, -19(%rbp)
	movq	-304(%rbp), %rdi
	movq	-296(%rbp), %rsi
Ltmp150:
	leaq	l___unnamed_13(%rip), %rdx
	movl	$1, %r9d
	movq	%rcx, -312(%rbp)
	movq	%r9, %rcx
	movq	%r8, -320(%rbp)
	callq	__ZN4core3str6traits54_$LT$impl$u20$core..cmp..PartialEq$u20$for$u20$str$GT$2eq17h291d2cc0f093d425E
Ltmp151:
	movb	%al, -321(%rbp)
	jmp	LBB192_2
LBB192_1:
	movq	-16(%rbp), %rdi
	callq	__Unwind_Resume
	ud2
LBB192_2:
	movb	-321(%rbp), %al
	testb	$1, %al
	jne	LBB192_10
	jmp	LBB192_3
LBB192_3:
	movq	-304(%rbp), %rdi
	movq	-296(%rbp), %rsi
Ltmp152:
	leaq	l___unnamed_14(%rip), %rdx
	movl	$1, %ecx
	callq	__ZN4core3str6traits54_$LT$impl$u20$core..cmp..PartialEq$u20$for$u20$str$GT$2eq17h291d2cc0f093d425E
Ltmp153:
	movb	%al, -322(%rbp)
	jmp	LBB192_4
LBB192_4:
	movb	-322(%rbp), %al
	testb	$1, %al
	jne	LBB192_11
	jmp	LBB192_5
LBB192_5:
	movq	-304(%rbp), %rdi
	movq	-296(%rbp), %rsi
Ltmp154:
	leaq	l___unnamed_12(%rip), %rdx
	movl	$1, %ecx
	callq	__ZN4core3str6traits54_$LT$impl$u20$core..cmp..PartialEq$u20$for$u20$str$GT$2eq17h291d2cc0f093d425E
Ltmp155:
	movb	%al, -323(%rbp)
	jmp	LBB192_6
LBB192_6:
	movb	-323(%rbp), %al
	testb	$1, %al
	jne	LBB192_12
	jmp	LBB192_7
LBB192_7:
	movq	-304(%rbp), %rdi
	movq	-296(%rbp), %rsi
Ltmp156:
	leaq	l___unnamed_15(%rip), %rdx
	movl	$1, %ecx
	callq	__ZN4core3str6traits54_$LT$impl$u20$core..cmp..PartialEq$u20$for$u20$str$GT$2eq17h291d2cc0f093d425E
Ltmp157:
	movb	%al, -324(%rbp)
	jmp	LBB192_8
LBB192_8:
	movb	-324(%rbp), %al
	testb	$1, %al
	jne	LBB192_13
	jmp	LBB192_9
LBB192_9:
	movq	l___unnamed_16(%rip), %rsi
	leaq	-304(%rbp), %rax
	movq	%rax, -208(%rbp)
	movq	-208(%rbp), %rdi
Ltmp158:
	movq	__ZN44_$LT$$RF$T$u20$as$u20$core..fmt..Display$GT$3fmt17hd3b8bf8b44ef5755E@GOTPCREL(%rip), %rax
	movq	%rsi, -336(%rbp)
	movq	%rax, %rsi
	callq	__ZN4core3fmt10ArgumentV13new17h055022955550cabdE
Ltmp159:
	movq	%rdx, -344(%rbp)
	movq	%rax, -352(%rbp)
	jmp	LBB192_14
LBB192_10:
	movb	$0, -273(%rbp)
	jmp	LBB192_16
LBB192_11:
	movb	$2, -273(%rbp)
	jmp	LBB192_16
LBB192_12:
	movb	$1, -273(%rbp)
	jmp	LBB192_16
LBB192_13:
	movb	$3, -273(%rbp)
	jmp	LBB192_16
LBB192_14:
	movq	-352(%rbp), %rax
	movq	%rax, -224(%rbp)
	movq	-344(%rbp), %rcx
	movq	%rcx, -216(%rbp)
Ltmp160:
	leaq	-272(%rbp), %rdi
	leaq	-224(%rbp), %rcx
	movl	$1, %edx
	movq	-336(%rbp), %rsi
	movq	%rdx, -360(%rbp)
	movq	-360(%rbp), %r8
	callq	__ZN4core3fmt9Arguments6new_v117h8b9acdf894928ca8E
Ltmp161:
	jmp	LBB192_15
LBB192_15:
Ltmp162:
	leaq	l___unnamed_17(%rip), %rsi
	leaq	-272(%rbp), %rdi
	callq	__ZN3std9panicking15begin_panic_fmt17h8712912d987f10a1E
Ltmp163:
	jmp	LBB192_31
LBB192_16:
Ltmp164:
	leaq	-200(%rbp), %rdi
	callq	__ZN11proc_macro211TokenStream3new17hd812f3610469681cE
Ltmp165:
	jmp	LBB192_17
LBB192_17:
	movb	$1, -18(%rbp)
	movb	$0, -19(%rbp)
	leaq	-200(%rbp), %rax
	movq	%rax, -160(%rbp)
	movq	-160(%rbp), %rsi
Ltmp167:
	movq	-320(%rbp), %rdi
	callq	__ZN12synstructure11VariantInfo3pat28_$u7b$$u7b$closure$u7d$$u7d$17h1e956352ec7d9c58E
Ltmp168:
	jmp	LBB192_18
LBB192_18:
	movzbl	-273(%rbp), %esi
	movb	$0, -18(%rbp)
	movq	-168(%rbp), %rax
	movq	%rax, -80(%rbp)
	movq	-176(%rbp), %rax
	movq	%rax, -88(%rbp)
	movq	-184(%rbp), %rax
	movq	%rax, -96(%rbp)
	movq	-200(%rbp), %rax
	movq	-192(%rbp), %rcx
	movq	%rcx, -104(%rbp)
	movq	%rax, -112(%rbp)
Ltmp169:
	leaq	-152(%rbp), %rdi
	leaq	-112(%rbp), %rdx
	callq	__ZN11proc_macro25Group3new17h059dcc874d9df1f9E
Ltmp170:
	jmp	LBB192_19
LBB192_19:
	movb	$1, -17(%rbp)
	movl	-288(%rbp), %eax
	movl	%eax, -72(%rbp)
	movl	-72(%rbp), %esi
Ltmp172:
	leaq	-152(%rbp), %rdi
	callq	__ZN11proc_macro25Group8set_span17hf8217686a4ea750dE
Ltmp173:
	jmp	LBB192_20
LBB192_20:
	movb	$0, -17(%rbp)
	movq	-120(%rbp), %rax
	movq	%rax, -32(%rbp)
	movq	-128(%rbp), %rax
	movq	%rax, -40(%rbp)
	movq	-136(%rbp), %rax
	movq	%rax, -48(%rbp)
	movq	-152(%rbp), %rax
	movq	-144(%rbp), %rcx
	movq	%rcx, -56(%rbp)
	movq	%rax, -64(%rbp)
Ltmp174:
	leaq	-64(%rbp), %rsi
	movq	-312(%rbp), %rdi
	callq	__ZN71_$LT$proc_macro2..TokenStream$u20$as$u20$quote..ext..TokenStreamExt$GT$6append17h426b03078e2ffc17E
Ltmp175:
	jmp	LBB192_21
LBB192_21:
	movb	$0, -17(%rbp)
	movb	$0, -18(%rbp)
	addq	$368, %rsp
	popq	%rbp
	retq
LBB192_22:
	movb	$0, -19(%rbp)
	jmp	LBB192_1
LBB192_23:
	testb	$1, -19(%rbp)
	jne	LBB192_22
	jmp	LBB192_1
LBB192_24:
	movb	$0, -18(%rbp)
	leaq	-200(%rbp), %rdi
	callq	__ZN4core3ptr13drop_in_place17h32302694d018b805E
	jmp	LBB192_23
LBB192_25:
	testb	$1, -18(%rbp)
	jne	LBB192_24
	jmp	LBB192_23
LBB192_26:
	movb	$0, -17(%rbp)
	leaq	-152(%rbp), %rdi
	callq	__ZN4core3ptr13drop_in_place17h2b6a7bbf0f46f80aE
	jmp	LBB192_25
LBB192_27:
	testb	$1, -17(%rbp)
	jne	LBB192_26
	jmp	LBB192_25
LBB192_28:
Ltmp166:
	movq	%rax, -16(%rbp)
	movl	%edx, -8(%rbp)
	jmp	LBB192_23
LBB192_29:
Ltmp171:
	movq	%rax, -16(%rbp)
	movl	%edx, -8(%rbp)
	jmp	LBB192_25
LBB192_30:
Ltmp176:
	movq	%rax, -16(%rbp)
	movl	%edx, -8(%rbp)
	jmp	LBB192_27
LBB192_31:
	ud2
Lfunc_end16:
	.cfi_endproc
	.section	__TEXT,__gcc_except_tab
	.p2align	2
GCC_except_table192:
Lexception16:
	.byte	255
	.byte	255
	.byte	1
	.uleb128 Lcst_end16-Lcst_begin16
Lcst_begin16:
	.uleb128 Ltmp150-Lfunc_begin16
	.uleb128 Ltmp151-Ltmp150
	.uleb128 Ltmp166-Lfunc_begin16
	.byte	0
	.uleb128 Ltmp151-Lfunc_begin16
	.uleb128 Ltmp152-Ltmp151
	.byte	0
	.byte	0
	.uleb128 Ltmp152-Lfunc_begin16
	.uleb128 Ltmp165-Ltmp152
	.uleb128 Ltmp166-Lfunc_begin16
	.byte	0
	.uleb128 Ltmp167-Lfunc_begin16
	.uleb128 Ltmp170-Ltmp167
	.uleb128 Ltmp171-Lfunc_begin16
	.byte	0
	.uleb128 Ltmp172-Lfunc_begin16
	.uleb128 Ltmp175-Ltmp172
	.uleb128 Ltmp176-Lfunc_begin16
	.byte	0
	.uleb128 Ltmp175-Lfunc_begin16
	.uleb128 Lfunc_end16-Ltmp175
	.byte	0
	.byte	0
Lcst_end16:
	.p2align	2

	.section	__TEXT,__text,regular,pure_instructions
	.globl	__ZN3syn5token8printing5delim17hd2404bf8a01fb4a8E
	.p2align	4, 0x90
__ZN3syn5token8printing5delim17hd2404bf8a01fb4a8E:
Lfunc_begin17:
	.cfi_startproc
	.cfi_personality 155, _rust_eh_personality
	.cfi_lsda 16, Lexception17
	pushq	%rbp
	.cfi_def_cfa_offset 16
	.cfi_offset %rbp, -16
	movq	%rsp, %rbp
	.cfi_def_cfa_register %rbp
	subq	$368, %rsp
	movq	%rdi, -304(%rbp)
	movq	%rsi, -296(%rbp)
	movl	%edx, -280(%rbp)
	movl	-280(%rbp), %eax
	movl	%eax, -288(%rbp)
	movb	$0, -19(%rbp)
	movb	$0, -18(%rbp)
	movb	$0, -17(%rbp)
	movb	$1, -19(%rbp)
	movq	-304(%rbp), %rdi
	movq	-296(%rbp), %rsi
Ltmp177:
	leaq	l___unnamed_13(%rip), %rdx
	movl	$1, %r9d
	movq	%rcx, -312(%rbp)
	movq	%r9, %rcx
	movq	%r8, -320(%rbp)
	callq	__ZN4core3str6traits54_$LT$impl$u20$core..cmp..PartialEq$u20$for$u20$str$GT$2eq17h291d2cc0f093d425E
Ltmp178:
	movb	%al, -321(%rbp)
	jmp	LBB193_2
LBB193_1:
	movq	-16(%rbp), %rdi
	callq	__Unwind_Resume
	ud2
LBB193_2:
	movb	-321(%rbp), %al
	testb	$1, %al
	jne	LBB193_10
	jmp	LBB193_3
LBB193_3:
	movq	-304(%rbp), %rdi
	movq	-296(%rbp), %rsi
Ltmp179:
	leaq	l___unnamed_14(%rip), %rdx
	movl	$1, %ecx
	callq	__ZN4core3str6traits54_$LT$impl$u20$core..cmp..PartialEq$u20$for$u20$str$GT$2eq17h291d2cc0f093d425E
Ltmp180:
	movb	%al, -322(%rbp)
	jmp	LBB193_4
LBB193_4:
	movb	-322(%rbp), %al
	testb	$1, %al
	jne	LBB193_11
	jmp	LBB193_5
LBB193_5:
	movq	-304(%rbp), %rdi
	movq	-296(%rbp), %rsi
Ltmp181:
	leaq	l___unnamed_12(%rip), %rdx
	movl	$1, %ecx
	callq	__ZN4core3str6traits54_$LT$impl$u20$core..cmp..PartialEq$u20$for$u20$str$GT$2eq17h291d2cc0f093d425E
Ltmp182:
	movb	%al, -323(%rbp)
	jmp	LBB193_6
LBB193_6:
	movb	-323(%rbp), %al
	testb	$1, %al
	jne	LBB193_12
	jmp	LBB193_7
LBB193_7:
	movq	-304(%rbp), %rdi
	movq	-296(%rbp), %rsi
Ltmp183:
	leaq	l___unnamed_15(%rip), %rdx
	movl	$1, %ecx
	callq	__ZN4core3str6traits54_$LT$impl$u20$core..cmp..PartialEq$u20$for$u20$str$GT$2eq17h291d2cc0f093d425E
Ltmp184:
	movb	%al, -324(%rbp)
	jmp	LBB193_8
LBB193_8:
	movb	-324(%rbp), %al
	testb	$1, %al
	jne	LBB193_13
	jmp	LBB193_9
LBB193_9:
	movq	l___unnamed_16(%rip), %rsi
	leaq	-304(%rbp), %rax
	movq	%rax, -208(%rbp)
	movq	-208(%rbp), %rdi
Ltmp185:
	movq	__ZN44_$LT$$RF$T$u20$as$u20$core..fmt..Display$GT$3fmt17hd3b8bf8b44ef5755E@GOTPCREL(%rip), %rax
	movq	%rsi, -336(%rbp)
	movq	%rax, %rsi
	callq	__ZN4core3fmt10ArgumentV13new17h055022955550cabdE
Ltmp186:
	movq	%rdx, -344(%rbp)
	movq	%rax, -352(%rbp)
	jmp	LBB193_14
LBB193_10:
	movb	$0, -273(%rbp)
	jmp	LBB193_16
LBB193_11:
	movb	$2, -273(%rbp)
	jmp	LBB193_16
LBB193_12:
	movb	$1, -273(%rbp)
	jmp	LBB193_16
LBB193_13:
	movb	$3, -273(%rbp)
	jmp	LBB193_16
LBB193_14:
	movq	-352(%rbp), %rax
	movq	%rax, -224(%rbp)
	movq	-344(%rbp), %rcx
	movq	%rcx, -216(%rbp)
Ltmp187:
	leaq	-272(%rbp), %rdi
	leaq	-224(%rbp), %rcx
	movl	$1, %edx
	movq	-336(%rbp), %rsi
	movq	%rdx, -360(%rbp)
	movq	-360(%rbp), %r8
	callq	__ZN4core3fmt9Arguments6new_v117h8b9acdf894928ca8E
Ltmp188:
	jmp	LBB193_15
LBB193_15:
Ltmp189:
	leaq	l___unnamed_17(%rip), %rsi
	leaq	-272(%rbp), %rdi
	callq	__ZN3std9panicking15begin_panic_fmt17h8712912d987f10a1E
Ltmp190:
	jmp	LBB193_31
LBB193_16:
Ltmp191:
	leaq	-200(%rbp), %rdi
	callq	__ZN11proc_macro211TokenStream3new17hd812f3610469681cE
Ltmp192:
	jmp	LBB193_17
LBB193_17:
	movb	$1, -18(%rbp)
	movb	$0, -19(%rbp)
	leaq	-200(%rbp), %rax
	movq	%rax, -160(%rbp)
	movq	-160(%rbp), %rsi
Ltmp194:
	movq	-320(%rbp), %rdi
	callq	__ZN12synstructure11VariantInfo3pat28_$u7b$$u7b$closure$u7d$$u7d$17h2b3a91f8bfffa916E
Ltmp195:
	jmp	LBB193_18
LBB193_18:
	movzbl	-273(%rbp), %esi
	movb	$0, -18(%rbp)
	movq	-168(%rbp), %rax
	movq	%rax, -80(%rbp)
	movq	-176(%rbp), %rax
	movq	%rax, -88(%rbp)
	movq	-184(%rbp), %rax
	movq	%rax, -96(%rbp)
	movq	-200(%rbp), %rax
	movq	-192(%rbp), %rcx
	movq	%rcx, -104(%rbp)
	movq	%rax, -112(%rbp)
Ltmp196:
	leaq	-152(%rbp), %rdi
	leaq	-112(%rbp), %rdx
	callq	__ZN11proc_macro25Group3new17h059dcc874d9df1f9E
Ltmp197:
	jmp	LBB193_19
LBB193_19:
	movb	$1, -17(%rbp)
	movl	-288(%rbp), %eax
	movl	%eax, -72(%rbp)
	movl	-72(%rbp), %esi
Ltmp199:
	leaq	-152(%rbp), %rdi
	callq	__ZN11proc_macro25Group8set_span17hf8217686a4ea750dE
Ltmp200:
	jmp	LBB193_20
LBB193_20:
	movb	$0, -17(%rbp)
	movq	-120(%rbp), %rax
	movq	%rax, -32(%rbp)
	movq	-128(%rbp), %rax
	movq	%rax, -40(%rbp)
	movq	-136(%rbp), %rax
	movq	%rax, -48(%rbp)
	movq	-152(%rbp), %rax
	movq	-144(%rbp), %rcx
	movq	%rcx, -56(%rbp)
	movq	%rax, -64(%rbp)
Ltmp201:
	leaq	-64(%rbp), %rsi
	movq	-312(%rbp), %rdi
	callq	__ZN71_$LT$proc_macro2..TokenStream$u20$as$u20$quote..ext..TokenStreamExt$GT$6append17h426b03078e2ffc17E
Ltmp202:
	jmp	LBB193_21
LBB193_21:
	movb	$0, -17(%rbp)
	movb	$0, -18(%rbp)
	addq	$368, %rsp
	popq	%rbp
	retq
LBB193_22:
	movb	$0, -19(%rbp)
	jmp	LBB193_1
LBB193_23:
	testb	$1, -19(%rbp)
	jne	LBB193_22
	jmp	LBB193_1
LBB193_24:
	movb	$0, -18(%rbp)
	leaq	-200(%rbp), %rdi
	callq	__ZN4core3ptr13drop_in_place17h32302694d018b805E
	jmp	LBB193_23
LBB193_25:
	testb	$1, -18(%rbp)
	jne	LBB193_24
	jmp	LBB193_23
LBB193_26:
	movb	$0, -17(%rbp)
	leaq	-152(%rbp), %rdi
	callq	__ZN4core3ptr13drop_in_place17h2b6a7bbf0f46f80aE
	jmp	LBB193_25
LBB193_27:
	testb	$1, -17(%rbp)
	jne	LBB193_26
	jmp	LBB193_25
LBB193_28:
Ltmp193:
	movq	%rax, -16(%rbp)
	movl	%edx, -8(%rbp)
	jmp	LBB193_23
LBB193_29:
Ltmp198:
	movq	%rax, -16(%rbp)
	movl	%edx, -8(%rbp)
	jmp	LBB193_25
LBB193_30:
Ltmp203:
	movq	%rax, -16(%rbp)
	movl	%edx, -8(%rbp)
	jmp	LBB193_27
LBB193_31:
	ud2
Lfunc_end17:
	.cfi_endproc
	.section	__TEXT,__gcc_except_tab
	.p2align	2
GCC_except_table193:
Lexception17:
	.byte	255
	.byte	255
	.byte	1
	.uleb128 Lcst_end17-Lcst_begin17
Lcst_begin17:
	.uleb128 Ltmp177-Lfunc_begin17
	.uleb128 Ltmp178-Ltmp177
	.uleb128 Ltmp193-Lfunc_begin17
	.byte	0
	.uleb128 Ltmp178-Lfunc_begin17
	.uleb128 Ltmp179-Ltmp178
	.byte	0
	.byte	0
	.uleb128 Ltmp179-Lfunc_begin17
	.uleb128 Ltmp192-Ltmp179
	.uleb128 Ltmp193-Lfunc_begin17
	.byte	0
	.uleb128 Ltmp194-Lfunc_begin17
	.uleb128 Ltmp197-Ltmp194
	.uleb128 Ltmp198-Lfunc_begin17
	.byte	0
	.uleb128 Ltmp199-Lfunc_begin17
	.uleb128 Ltmp202-Ltmp199
	.uleb128 Ltmp203-Lfunc_begin17
	.byte	0
	.uleb128 Ltmp202-Lfunc_begin17
	.uleb128 Lfunc_end17-Ltmp202
	.byte	0
	.byte	0
Lcst_end17:
	.p2align	2

	.section	__TEXT,__text,regular,pure_instructions
	.globl	__ZN3syn6parse217h9d10de0164db485aE
	.p2align	4, 0x90
__ZN3syn6parse217h9d10de0164db485aE:
	.cfi_startproc
	pushq	%rbp
	.cfi_def_cfa_offset 16
	.cfi_offset %rbp, -16
	movq	%rsp, %rbp
	.cfi_def_cfa_register %rbp
	subq	$64, %rsp
	movq	%rdi, %rax
	leaq	-40(%rbp), %rcx
	movq	%rcx, %rdx
	movq	%rdi, -48(%rbp)
	movq	%rdx, %rdi
	movl	$40, %edx
	movq	%rax, -56(%rbp)
	movq	%rcx, -64(%rbp)
	callq	_memcpy
	movq	-48(%rbp), %rdi
	movq	-64(%rbp), %rsi
	callq	__ZN40_$LT$F$u20$as$u20$syn..parse..Parser$GT$6parse217he4bab0f8f8eb0300E
	movq	-56(%rbp), %rax
	addq	$64, %rsp
	popq	%rbp
	retq
	.cfi_endproc

	.globl	__ZN40_$LT$F$u20$as$u20$syn..parse..Parser$GT$6parse217hafafcbdbce6dbf16E
	.p2align	4, 0x90
__ZN40_$LT$F$u20$as$u20$syn..parse..Parser$GT$6parse217hafafcbdbce6dbf16E:
Lfunc_begin18:
	.cfi_startproc
	.cfi_personality 155, _rust_eh_personality
	.cfi_lsda 16, Lexception18
	pushq	%rbp
	.cfi_def_cfa_offset 16
	.cfi_offset %rbp, -16
	movq	%rsp, %rbp
	.cfi_def_cfa_register %rbp
	subq	$672, %rsp
	movq	%rdi, %rax
	movb	$0, -25(%rbp)
	movb	$0, -26(%rbp)
	movb	$1, -26(%rbp)
	movq	32(%rdx), %rcx
	movq	%rcx, -536(%rbp)
	movq	24(%rdx), %rcx
	movq	%rcx, -544(%rbp)
	movq	16(%rdx), %rcx
	movq	%rcx, -552(%rbp)
	movq	(%rdx), %rcx
	movq	8(%rdx), %rdx
	movq	%rdx, -560(%rbp)
	movq	%rcx, -568(%rbp)
Ltmp204:
	leaq	-568(%rbp), %rcx
	movq	%rdi, -592(%rbp)
	movq	%rcx, %rdi
	movq	%rsi, -600(%rbp)
	movq	%rax, -608(%rbp)
	callq	__ZN3syn6buffer11TokenBuffer4new217h9c9864fad5ab7ba2E
Ltmp205:
	movq	%rdx, -616(%rbp)
	movq	%rax, -624(%rbp)
	jmp	LBB195_2
LBB195_1:
	movq	-24(%rbp), %rdi
	callq	__Unwind_Resume
	ud2
LBB195_2:
	movq	-624(%rbp), %rax
	movq	%rax, -584(%rbp)
	movq	-616(%rbp), %rcx
	movq	%rcx, -576(%rbp)
Ltmp206:
	leaq	-528(%rbp), %rdi
	leaq	-584(%rbp), %rsi
	callq	__ZN3syn5parse22tokens_to_parse_buffer17he69c91137a7d7bebE
Ltmp207:
	jmp	LBB195_3
LBB195_3:
	movb	$0, -26(%rbp)
	leaq	-528(%rbp), %rax
	movq	%rax, -360(%rbp)
	movq	-360(%rbp), %rdx
Ltmp208:
	leaq	-408(%rbp), %rdi
	movq	-600(%rbp), %rsi
	callq	__ZN4core3ops8function6FnOnce9call_once17h76168d1e440ee4abE
Ltmp209:
	jmp	LBB195_5
LBB195_4:
	leaq	-584(%rbp), %rdi
	callq	__ZN4core3ptr13drop_in_place17h940a5b30f6bc1232E
	jmp	LBB195_38
LBB195_5:
Ltmp210:
	leaq	-456(%rbp), %rdi
	leaq	-408(%rbp), %rsi
	callq	__ZN73_$LT$core..result..Result$LT$T$C$E$GT$$u20$as$u20$core..ops..try..Try$GT$11into_result17hff87998d41205f33E
Ltmp211:
	jmp	LBB195_7
LBB195_6:
	leaq	-528(%rbp), %rdi
	callq	__ZN4core3ptr13drop_in_place17ha7fefe3ba66bec1cE
	jmp	LBB195_4
LBB195_7:
	movq	-456(%rbp), %rax
	testq	%rax, %rax
	je	LBB195_9
	jmp	LBB195_46
LBB195_46:
	jmp	LBB195_11
LBB195_8:
	jmp	LBB195_6
LBB195_9:
	movq	-416(%rbp), %rax
	movq	%rax, -248(%rbp)
	movq	-424(%rbp), %rax
	movq	%rax, -256(%rbp)
	movq	-432(%rbp), %rax
	movq	%rax, -264(%rbp)
	movq	-448(%rbp), %rax
	movq	-440(%rbp), %rcx
	movq	%rcx, -272(%rbp)
	movq	%rax, -280(%rbp)
	movb	$1, -25(%rbp)
	movq	-248(%rbp), %rax
	movq	%rax, -464(%rbp)
	movq	-256(%rbp), %rax
	movq	%rax, -472(%rbp)
	movq	-264(%rbp), %rax
	movq	%rax, -480(%rbp)
	movq	-280(%rbp), %rax
	movq	-272(%rbp), %rcx
	movq	%rcx, -488(%rbp)
	movq	%rax, -496(%rbp)
Ltmp217:
	leaq	-216(%rbp), %rdi
	leaq	-528(%rbp), %rsi
	callq	__ZN3syn5parse11ParseBuffer16check_unexpected17h87fbcdf817e6b882E
Ltmp218:
	jmp	LBB195_19
	ud2
LBB195_11:
	movq	-432(%rbp), %rax
	movq	%rax, -336(%rbp)
	movq	-448(%rbp), %rax
	movq	-440(%rbp), %rcx
	movq	%rcx, -344(%rbp)
	movq	%rax, -352(%rbp)
	movq	-336(%rbp), %rax
	movq	%rax, -288(%rbp)
	movq	-352(%rbp), %rax
	movq	-344(%rbp), %rcx
	movq	%rcx, -296(%rbp)
	movq	%rax, -304(%rbp)
Ltmp212:
	leaq	-328(%rbp), %rdi
	leaq	-304(%rbp), %rsi
	callq	__ZN50_$LT$T$u20$as$u20$core..convert..From$LT$T$GT$$GT$4from17hed6d4a54d5eec626E
Ltmp213:
	jmp	LBB195_13
LBB195_12:
	movq	-608(%rbp), %rax
	addq	$672, %rsp
	popq	%rbp
	retq
LBB195_13:
Ltmp214:
	leaq	-328(%rbp), %rsi
	movq	-592(%rbp), %rdi
	callq	__ZN73_$LT$core..result..Result$LT$T$C$E$GT$$u20$as$u20$core..ops..try..Try$GT$10from_error17h26799935e49e5a0dE
Ltmp215:
	jmp	LBB195_14
LBB195_14:
	movb	$0, -25(%rbp)
LBB195_15:
Ltmp228:
	leaq	-528(%rbp), %rdi
	callq	__ZN4core3ptr13drop_in_place17ha7fefe3ba66bec1cE
Ltmp229:
	jmp	LBB195_16
LBB195_16:
Ltmp230:
	leaq	-584(%rbp), %rdi
	callq	__ZN4core3ptr13drop_in_place17h940a5b30f6bc1232E
Ltmp231:
	jmp	LBB195_17
LBB195_17:
	jmp	LBB195_12
LBB195_18:
	movb	$0, -25(%rbp)
	leaq	-496(%rbp), %rdi
	callq	__ZN4core3ptr13drop_in_place17h32302694d018b805E
	jmp	LBB195_6
LBB195_19:
Ltmp219:
	leaq	-240(%rbp), %rdi
	leaq	-216(%rbp), %rsi
	callq	__ZN73_$LT$core..result..Result$LT$T$C$E$GT$$u20$as$u20$core..ops..try..Try$GT$11into_result17h0536305ca2c9908eE
Ltmp220:
	jmp	LBB195_20
LBB195_20:
	movq	-240(%rbp), %rax
	testq	%rax, %rax
	setne	%cl
	movzbl	%cl, %edx
	movl	%edx, %eax
	je	LBB195_22
	jmp	LBB195_47
LBB195_47:
	jmp	LBB195_24
LBB195_21:
	jmp	LBB195_18
LBB195_22:
Ltmp232:
	leaq	-528(%rbp), %rdi
	callq	__ZN3syn5parse11ParseBuffer6cursor17h7c8e4b135f72e810E
Ltmp233:
	movq	%rdx, -632(%rbp)
	movq	%rax, -640(%rbp)
	jmp	LBB195_28
	ud2
LBB195_24:
	movq	-224(%rbp), %rax
	movq	%rax, -176(%rbp)
	movq	-240(%rbp), %rax
	movq	-232(%rbp), %rcx
	movq	%rcx, -184(%rbp)
	movq	%rax, -192(%rbp)
	movq	-176(%rbp), %rax
	movq	%rax, -128(%rbp)
	movq	-192(%rbp), %rax
	movq	-184(%rbp), %rcx
	movq	%rcx, -136(%rbp)
	movq	%rax, -144(%rbp)
Ltmp221:
	leaq	-168(%rbp), %rdi
	leaq	-144(%rbp), %rsi
	callq	__ZN50_$LT$T$u20$as$u20$core..convert..From$LT$T$GT$$GT$4from17hed6d4a54d5eec626E
Ltmp222:
	jmp	LBB195_25
LBB195_25:
Ltmp223:
	leaq	-168(%rbp), %rsi
	movq	-592(%rbp), %rdi
	callq	__ZN73_$LT$core..result..Result$LT$T$C$E$GT$$u20$as$u20$core..ops..try..Try$GT$10from_error17h26799935e49e5a0dE
Ltmp224:
	jmp	LBB195_26
LBB195_26:
	movb	$0, -25(%rbp)
Ltmp226:
	leaq	-496(%rbp), %rdi
	callq	__ZN4core3ptr13drop_in_place17h32302694d018b805E
Ltmp227:
	jmp	LBB195_27
LBB195_27:
	movb	$0, -25(%rbp)
	jmp	LBB195_15
LBB195_28:
Ltmp234:
	movq	-640(%rbp), %rdi
	movq	-632(%rbp), %rsi
	callq	__ZN3syn5parse33span_of_unexpected_ignoring_nones17h6c157675942dfe1fE
Ltmp235:
	movq	%rax, -648(%rbp)
	jmp	LBB195_29
LBB195_29:
	movq	-648(%rbp), %rax
	movq	%rax, -8(%rbp)
	movq	-8(%rbp), %rcx
	movq	%rcx, -120(%rbp)
	movl	-120(%rbp), %edx
	movl	%edx, %ecx
	cmpq	$1, %rcx
	je	LBB195_31
	movb	$0, -25(%rbp)
	leaq	-72(%rbp), %rax
	movq	%rax, %rcx
	leaq	-496(%rbp), %rdx
	movq	%rcx, %rdi
	movq	%rdx, %rsi
	movl	$40, %ecx
	movq	%rcx, %rdx
	movq	%rax, -656(%rbp)
	movq	%rcx, -664(%rbp)
	callq	_memcpy
	movq	-592(%rbp), %rax
	addq	$8, %rax
	movq	-656(%rbp), %rcx
	movq	%rax, %rdi
	movq	%rcx, %rsi
	movq	-664(%rbp), %rdx
	callq	_memcpy
	movq	-592(%rbp), %rax
	movq	$0, (%rax)
	jmp	LBB195_33
LBB195_31:
	movl	-116(%rbp), %eax
	movl	%eax, -112(%rbp)
	movl	-112(%rbp), %eax
	movl	%eax, -80(%rbp)
	movl	-80(%rbp), %esi
Ltmp236:
	leaq	L___unnamed_18(%rip), %rdx
	leaq	-104(%rbp), %rdi
	movl	$16, %ecx
	callq	__ZN3syn5error5Error3new17h7e25014417631d0bE
Ltmp237:
	jmp	LBB195_32
LBB195_32:
	movq	-104(%rbp), %rax
	movq	-592(%rbp), %rcx
	movq	%rax, 8(%rcx)
	movq	-96(%rbp), %rax
	movq	%rax, 16(%rcx)
	movq	-88(%rbp), %rax
	movq	%rax, 24(%rcx)
	movq	$1, (%rcx)
LBB195_33:
	testb	$1, -25(%rbp)
	jne	LBB195_39
LBB195_34:
	movb	$0, -25(%rbp)
Ltmp242:
	leaq	-528(%rbp), %rdi
	callq	__ZN4core3ptr13drop_in_place17ha7fefe3ba66bec1cE
Ltmp243:
	jmp	LBB195_35
LBB195_35:
Ltmp245:
	leaq	-584(%rbp), %rdi
	callq	__ZN4core3ptr13drop_in_place17h940a5b30f6bc1232E
Ltmp246:
	jmp	LBB195_36
LBB195_36:
	jmp	LBB195_12
LBB195_37:
	movb	$0, -26(%rbp)
	jmp	LBB195_1
LBB195_38:
	testb	$1, -26(%rbp)
	jne	LBB195_37
	jmp	LBB195_1
LBB195_39:
	movb	$0, -25(%rbp)
Ltmp239:
	leaq	-496(%rbp), %rdi
	callq	__ZN4core3ptr13drop_in_place17h32302694d018b805E
Ltmp240:
	jmp	LBB195_34
LBB195_40:
Ltmp247:
	movq	%rax, -24(%rbp)
	movl	%edx, -16(%rbp)
	jmp	LBB195_38
LBB195_41:
Ltmp244:
	movq	%rax, -24(%rbp)
	movl	%edx, -16(%rbp)
	jmp	LBB195_4
LBB195_42:
Ltmp241:
	movq	%rax, -24(%rbp)
	movl	%edx, -16(%rbp)
	jmp	LBB195_6
LBB195_43:
Ltmp216:
	movq	%rax, -24(%rbp)
	movl	%edx, -16(%rbp)
	jmp	LBB195_8
LBB195_44:
Ltmp238:
	movq	%rax, -24(%rbp)
	movl	%edx, -16(%rbp)
	jmp	LBB195_18
LBB195_45:
Ltmp225:
	movq	%rax, -24(%rbp)
	movl	%edx, -16(%rbp)
	jmp	LBB195_21
Lfunc_end18:
	.cfi_endproc
	.section	__TEXT,__gcc_except_tab
	.p2align	2
GCC_except_table195:
Lexception18:
	.byte	255
	.byte	255
	.byte	1
	.uleb128 Lcst_end18-Lcst_begin18
Lcst_begin18:
	.uleb128 Ltmp204-Lfunc_begin18
	.uleb128 Ltmp205-Ltmp204
	.uleb128 Ltmp247-Lfunc_begin18
	.byte	0
	.uleb128 Ltmp205-Lfunc_begin18
	.uleb128 Ltmp206-Ltmp205
	.byte	0
	.byte	0
	.uleb128 Ltmp206-Lfunc_begin18
	.uleb128 Ltmp207-Ltmp206
	.uleb128 Ltmp244-Lfunc_begin18
	.byte	0
	.uleb128 Ltmp208-Lfunc_begin18
	.uleb128 Ltmp209-Ltmp208
	.uleb128 Ltmp241-Lfunc_begin18
	.byte	0
	.uleb128 Ltmp209-Lfunc_begin18
	.uleb128 Ltmp210-Ltmp209
	.byte	0
	.byte	0
	.uleb128 Ltmp210-Lfunc_begin18
	.uleb128 Ltmp211-Ltmp210
	.uleb128 Ltmp241-Lfunc_begin18
	.byte	0
	.uleb128 Ltmp211-Lfunc_begin18
	.uleb128 Ltmp217-Ltmp211
	.byte	0
	.byte	0
	.uleb128 Ltmp217-Lfunc_begin18
	.uleb128 Ltmp218-Ltmp217
	.uleb128 Ltmp238-Lfunc_begin18
	.byte	0
	.uleb128 Ltmp212-Lfunc_begin18
	.uleb128 Ltmp215-Ltmp212
	.uleb128 Ltmp216-Lfunc_begin18
	.byte	0
	.uleb128 Ltmp228-Lfunc_begin18
	.uleb128 Ltmp229-Ltmp228
	.uleb128 Ltmp244-Lfunc_begin18
	.byte	0
	.uleb128 Ltmp230-Lfunc_begin18
	.uleb128 Ltmp231-Ltmp230
	.uleb128 Ltmp247-Lfunc_begin18
	.byte	0
	.uleb128 Ltmp231-Lfunc_begin18
	.uleb128 Ltmp219-Ltmp231
	.byte	0
	.byte	0
	.uleb128 Ltmp219-Lfunc_begin18
	.uleb128 Ltmp233-Ltmp219
	.uleb128 Ltmp238-Lfunc_begin18
	.byte	0
	.uleb128 Ltmp221-Lfunc_begin18
	.uleb128 Ltmp224-Ltmp221
	.uleb128 Ltmp225-Lfunc_begin18
	.byte	0
	.uleb128 Ltmp226-Lfunc_begin18
	.uleb128 Ltmp227-Ltmp226
	.uleb128 Ltmp241-Lfunc_begin18
	.byte	0
	.uleb128 Ltmp234-Lfunc_begin18
	.uleb128 Ltmp235-Ltmp234
	.uleb128 Ltmp238-Lfunc_begin18
	.byte	0
	.uleb128 Ltmp235-Lfunc_begin18
	.uleb128 Ltmp236-Ltmp235
	.byte	0
	.byte	0
	.uleb128 Ltmp236-Lfunc_begin18
	.uleb128 Ltmp237-Ltmp236
	.uleb128 Ltmp238-Lfunc_begin18
	.byte	0
	.uleb128 Ltmp242-Lfunc_begin18
	.uleb128 Ltmp243-Ltmp242
	.uleb128 Ltmp244-Lfunc_begin18
	.byte	0
	.uleb128 Ltmp245-Lfunc_begin18
	.uleb128 Ltmp246-Ltmp245
	.uleb128 Ltmp247-Lfunc_begin18
	.byte	0
	.uleb128 Ltmp239-Lfunc_begin18
	.uleb128 Ltmp240-Ltmp239
	.uleb128 Ltmp241-Lfunc_begin18
	.byte	0
Lcst_end18:
	.p2align	2

	.section	__TEXT,__text,regular,pure_instructions
	.globl	__ZN40_$LT$F$u20$as$u20$syn..parse..Parser$GT$6parse217he4bab0f8f8eb0300E
	.p2align	4, 0x90
__ZN40_$LT$F$u20$as$u20$syn..parse..Parser$GT$6parse217he4bab0f8f8eb0300E:
Lfunc_begin19:
	.cfi_startproc
	.cfi_personality 155, _rust_eh_personality
	.cfi_lsda 16, Lexception19
	pushq	%rbp
	.cfi_def_cfa_offset 16
	.cfi_offset %rbp, -16
	movq	%rsp, %rbp
	.cfi_def_cfa_register %rbp
	subq	$1024, %rsp
	movq	%rdi, %rax
	movb	$0, -25(%rbp)
	movb	$0, -26(%rbp)
	movb	$1, -26(%rbp)
	movq	32(%rsi), %rcx
	movq	%rcx, -896(%rbp)
	movq	24(%rsi), %rcx
	movq	%rcx, -904(%rbp)
	movq	16(%rsi), %rcx
	movq	%rcx, -912(%rbp)
	movq	(%rsi), %rcx
	movq	8(%rsi), %rdx
	movq	%rdx, -920(%rbp)
	movq	%rcx, -928(%rbp)
Ltmp248:
	leaq	-928(%rbp), %rcx
	movq	%rdi, -952(%rbp)
	movq	%rcx, %rdi
	movq	%rax, -960(%rbp)
	callq	__ZN3syn6buffer11TokenBuffer4new217h9c9864fad5ab7ba2E
Ltmp249:
	movq	%rdx, -968(%rbp)
	movq	%rax, -976(%rbp)
	jmp	LBB196_2
LBB196_1:
	movq	-24(%rbp), %rdi
	callq	__Unwind_Resume
	ud2
LBB196_2:
	movq	-976(%rbp), %rax
	movq	%rax, -944(%rbp)
	movq	-968(%rbp), %rcx
	movq	%rcx, -936(%rbp)
Ltmp250:
	leaq	-888(%rbp), %rdi
	leaq	-944(%rbp), %rsi
	callq	__ZN3syn5parse22tokens_to_parse_buffer17he69c91137a7d7bebE
Ltmp251:
	jmp	LBB196_3
LBB196_3:
	movb	$0, -26(%rbp)
	leaq	-888(%rbp), %rax
	movq	%rax, -504(%rbp)
	movq	-504(%rbp), %rsi
Ltmp252:
	leaq	-624(%rbp), %rdi
	callq	__ZN4core3ops8function6FnOnce9call_once17hc54a6ceca3db5d55E
Ltmp253:
	jmp	LBB196_5
LBB196_4:
	leaq	-944(%rbp), %rdi
	callq	__ZN4core3ptr13drop_in_place17h940a5b30f6bc1232E
	jmp	LBB196_38
LBB196_5:
Ltmp254:
	leaq	-744(%rbp), %rdi
	leaq	-624(%rbp), %rsi
	callq	__ZN73_$LT$core..result..Result$LT$T$C$E$GT$$u20$as$u20$core..ops..try..Try$GT$11into_result17hf2deaf31a1087e8bE
Ltmp255:
	jmp	LBB196_7
LBB196_6:
	leaq	-888(%rbp), %rdi
	callq	__ZN4core3ptr13drop_in_place17ha7fefe3ba66bec1cE
	jmp	LBB196_4
LBB196_7:
	movq	-744(%rbp), %rax
	testq	%rax, %rax
	je	LBB196_9
	jmp	LBB196_46
LBB196_46:
	jmp	LBB196_11
LBB196_8:
	jmp	LBB196_6
LBB196_9:
	leaq	-736(%rbp), %rsi
	movl	$14, %eax
	leaq	-424(%rbp), %rcx
	movq	%rcx, -984(%rbp)
	movq	%rax, %rcx
	movq	-984(%rbp), %rdi
	rep;movsq (%rsi), %es:(%rdi)
	movb	$1, -25(%rbp)
	leaq	-856(%rbp), %rdi
	movq	%rax, %rcx
	movq	-984(%rbp), %rsi
	rep;movsq (%rsi), %es:(%rdi)
Ltmp261:
	leaq	-288(%rbp), %rdi
	leaq	-888(%rbp), %rsi
	callq	__ZN3syn5parse11ParseBuffer16check_unexpected17h87fbcdf817e6b882E
Ltmp262:
	jmp	LBB196_19
	ud2
LBB196_11:
	movq	-720(%rbp), %rax
	movq	%rax, -480(%rbp)
	movq	-736(%rbp), %rax
	movq	-728(%rbp), %rcx
	movq	%rcx, -488(%rbp)
	movq	%rax, -496(%rbp)
	movq	-480(%rbp), %rax
	movq	%rax, -432(%rbp)
	movq	-496(%rbp), %rax
	movq	-488(%rbp), %rcx
	movq	%rcx, -440(%rbp)
	movq	%rax, -448(%rbp)
Ltmp256:
	leaq	-472(%rbp), %rdi
	leaq	-448(%rbp), %rsi
	callq	__ZN50_$LT$T$u20$as$u20$core..convert..From$LT$T$GT$$GT$4from17hed6d4a54d5eec626E
Ltmp257:
	jmp	LBB196_13
LBB196_12:
	movq	-960(%rbp), %rax
	addq	$1024, %rsp
	popq	%rbp
	retq
LBB196_13:
Ltmp258:
	leaq	-472(%rbp), %rsi
	movq	-952(%rbp), %rdi
	callq	__ZN73_$LT$core..result..Result$LT$T$C$E$GT$$u20$as$u20$core..ops..try..Try$GT$10from_error17h6efe43e0cedab1aeE
Ltmp259:
	jmp	LBB196_14
LBB196_14:
	movb	$0, -25(%rbp)
LBB196_15:
Ltmp272:
	leaq	-888(%rbp), %rdi
	callq	__ZN4core3ptr13drop_in_place17ha7fefe3ba66bec1cE
Ltmp273:
	jmp	LBB196_16
LBB196_16:
Ltmp274:
	leaq	-944(%rbp), %rdi
	callq	__ZN4core3ptr13drop_in_place17h940a5b30f6bc1232E
Ltmp275:
	jmp	LBB196_17
LBB196_17:
	jmp	LBB196_12
LBB196_18:
	movb	$0, -25(%rbp)
	leaq	-856(%rbp), %rdi
	callq	__ZN4core3ptr13drop_in_place17h50fb771e680ed1c9E
	jmp	LBB196_6
LBB196_19:
Ltmp263:
	leaq	-312(%rbp), %rdi
	leaq	-288(%rbp), %rsi
	callq	__ZN73_$LT$core..result..Result$LT$T$C$E$GT$$u20$as$u20$core..ops..try..Try$GT$11into_result17h0536305ca2c9908eE
Ltmp264:
	jmp	LBB196_20
LBB196_20:
	movq	-312(%rbp), %rax
	testq	%rax, %rax
	setne	%cl
	movzbl	%cl, %edx
	movl	%edx, %eax
	je	LBB196_22
	jmp	LBB196_47
LBB196_47:
	jmp	LBB196_24
LBB196_21:
	jmp	LBB196_18
LBB196_22:
Ltmp276:
	leaq	-888(%rbp), %rdi
	callq	__ZN3syn5parse11ParseBuffer6cursor17h7c8e4b135f72e810E
Ltmp277:
	movq	%rdx, -992(%rbp)
	movq	%rax, -1000(%rbp)
	jmp	LBB196_28
	ud2
LBB196_24:
	movq	-296(%rbp), %rax
	movq	%rax, -248(%rbp)
	movq	-312(%rbp), %rax
	movq	-304(%rbp), %rcx
	movq	%rcx, -256(%rbp)
	movq	%rax, -264(%rbp)
	movq	-248(%rbp), %rax
	movq	%rax, -200(%rbp)
	movq	-264(%rbp), %rax
	movq	-256(%rbp), %rcx
	movq	%rcx, -208(%rbp)
	movq	%rax, -216(%rbp)
Ltmp265:
	leaq	-240(%rbp), %rdi
	leaq	-216(%rbp), %rsi
	callq	__ZN50_$LT$T$u20$as$u20$core..convert..From$LT$T$GT$$GT$4from17hed6d4a54d5eec626E
Ltmp266:
	jmp	LBB196_25
LBB196_25:
Ltmp267:
	leaq	-240(%rbp), %rsi
	movq	-952(%rbp), %rdi
	callq	__ZN73_$LT$core..result..Result$LT$T$C$E$GT$$u20$as$u20$core..ops..try..Try$GT$10from_error17h6efe43e0cedab1aeE
Ltmp268:
	jmp	LBB196_26
LBB196_26:
	movb	$0, -25(%rbp)
Ltmp270:
	leaq	-856(%rbp), %rdi
	callq	__ZN4core3ptr13drop_in_place17h50fb771e680ed1c9E
Ltmp271:
	jmp	LBB196_27
LBB196_27:
	movb	$0, -25(%rbp)
	jmp	LBB196_15
LBB196_28:
Ltmp278:
	movq	-1000(%rbp), %rdi
	movq	-992(%rbp), %rsi
	callq	__ZN3syn5parse33span_of_unexpected_ignoring_nones17h6c157675942dfe1fE
Ltmp279:
	movq	%rax, -1008(%rbp)
	jmp	LBB196_29
LBB196_29:
	movq	-1008(%rbp), %rax
	movq	%rax, -8(%rbp)
	movq	-8(%rbp), %rcx
	movq	%rcx, -192(%rbp)
	movl	-192(%rbp), %edx
	movl	%edx, %ecx
	cmpq	$1, %rcx
	je	LBB196_31
	movb	$0, -25(%rbp)
	leaq	-144(%rbp), %rax
	movq	%rax, %rcx
	leaq	-856(%rbp), %rdx
	movq	%rcx, %rdi
	movq	%rdx, %rsi
	movl	$112, %ecx
	movq	%rcx, %rdx
	movq	%rax, -1016(%rbp)
	movq	%rcx, -1024(%rbp)
	callq	_memcpy
	movq	-952(%rbp), %rax
	addq	$8, %rax
	movq	-1016(%rbp), %rcx
	movq	%rax, %rdi
	movq	%rcx, %rsi
	movq	-1024(%rbp), %rdx
	callq	_memcpy
	movq	-952(%rbp), %rax
	movq	$0, (%rax)
	jmp	LBB196_33
LBB196_31:
	movl	-188(%rbp), %eax
	movl	%eax, -184(%rbp)
	movl	-184(%rbp), %eax
	movl	%eax, -152(%rbp)
	movl	-152(%rbp), %esi
Ltmp280:
	leaq	L___unnamed_18(%rip), %rdx
	leaq	-176(%rbp), %rdi
	movl	$16, %ecx
	callq	__ZN3syn5error5Error3new17h7e25014417631d0bE
Ltmp281:
	jmp	LBB196_32
LBB196_32:
	movq	-176(%rbp), %rax
	movq	-952(%rbp), %rcx
	movq	%rax, 8(%rcx)
	movq	-168(%rbp), %rax
	movq	%rax, 16(%rcx)
	movq	-160(%rbp), %rax
	movq	%rax, 24(%rcx)
	movq	$1, (%rcx)
LBB196_33:
	testb	$1, -25(%rbp)
	jne	LBB196_39
LBB196_34:
	movb	$0, -25(%rbp)
Ltmp286:
	leaq	-888(%rbp), %rdi
	callq	__ZN4core3ptr13drop_in_place17ha7fefe3ba66bec1cE
Ltmp287:
	jmp	LBB196_35
LBB196_35:
Ltmp289:
	leaq	-944(%rbp), %rdi
	callq	__ZN4core3ptr13drop_in_place17h940a5b30f6bc1232E
Ltmp290:
	jmp	LBB196_36
LBB196_36:
	jmp	LBB196_12
LBB196_37:
	movb	$0, -26(%rbp)
	jmp	LBB196_1
LBB196_38:
	testb	$1, -26(%rbp)
	jne	LBB196_37
	jmp	LBB196_1
LBB196_39:
	movb	$0, -25(%rbp)
Ltmp283:
	leaq	-856(%rbp), %rdi
	callq	__ZN4core3ptr13drop_in_place17h50fb771e680ed1c9E
Ltmp284:
	jmp	LBB196_34
LBB196_40:
Ltmp291:
	movq	%rax, -24(%rbp)
	movl	%edx, -16(%rbp)
	jmp	LBB196_38
LBB196_41:
Ltmp288:
	movq	%rax, -24(%rbp)
	movl	%edx, -16(%rbp)
	jmp	LBB196_4
LBB196_42:
Ltmp285:
	movq	%rax, -24(%rbp)
	movl	%edx, -16(%rbp)
	jmp	LBB196_6
LBB196_43:
Ltmp260:
	movq	%rax, -24(%rbp)
	movl	%edx, -16(%rbp)
	jmp	LBB196_8
LBB196_44:
Ltmp282:
	movq	%rax, -24(%rbp)
	movl	%edx, -16(%rbp)
	jmp	LBB196_18
LBB196_45:
Ltmp269:
	movq	%rax, -24(%rbp)
	movl	%edx, -16(%rbp)
	jmp	LBB196_21
Lfunc_end19:
	.cfi_endproc
	.section	__TEXT,__gcc_except_tab
	.p2align	2
GCC_except_table196:
Lexception19:
	.byte	255
	.byte	255
	.byte	1
	.uleb128 Lcst_end19-Lcst_begin19
Lcst_begin19:
	.uleb128 Ltmp248-Lfunc_begin19
	.uleb128 Ltmp249-Ltmp248
	.uleb128 Ltmp291-Lfunc_begin19
	.byte	0
	.uleb128 Ltmp249-Lfunc_begin19
	.uleb128 Ltmp250-Ltmp249
	.byte	0
	.byte	0
	.uleb128 Ltmp250-Lfunc_begin19
	.uleb128 Ltmp251-Ltmp250
	.uleb128 Ltmp288-Lfunc_begin19
	.byte	0
	.uleb128 Ltmp252-Lfunc_begin19
	.uleb128 Ltmp253-Ltmp252
	.uleb128 Ltmp285-Lfunc_begin19
	.byte	0
	.uleb128 Ltmp253-Lfunc_begin19
	.uleb128 Ltmp254-Ltmp253
	.byte	0
	.byte	0
	.uleb128 Ltmp254-Lfunc_begin19
	.uleb128 Ltmp255-Ltmp254
	.uleb128 Ltmp285-Lfunc_begin19
	.byte	0
	.uleb128 Ltmp255-Lfunc_begin19
	.uleb128 Ltmp261-Ltmp255
	.byte	0
	.byte	0
	.uleb128 Ltmp261-Lfunc_begin19
	.uleb128 Ltmp262-Ltmp261
	.uleb128 Ltmp282-Lfunc_begin19
	.byte	0
	.uleb128 Ltmp256-Lfunc_begin19
	.uleb128 Ltmp259-Ltmp256
	.uleb128 Ltmp260-Lfunc_begin19
	.byte	0
	.uleb128 Ltmp272-Lfunc_begin19
	.uleb128 Ltmp273-Ltmp272
	.uleb128 Ltmp288-Lfunc_begin19
	.byte	0
	.uleb128 Ltmp274-Lfunc_begin19
	.uleb128 Ltmp275-Ltmp274
	.uleb128 Ltmp291-Lfunc_begin19
	.byte	0
	.uleb128 Ltmp275-Lfunc_begin19
	.uleb128 Ltmp263-Ltmp275
	.byte	0
	.byte	0
	.uleb128 Ltmp263-Lfunc_begin19
	.uleb128 Ltmp277-Ltmp263
	.uleb128 Ltmp282-Lfunc_begin19
	.byte	0
	.uleb128 Ltmp265-Lfunc_begin19
	.uleb128 Ltmp268-Ltmp265
	.uleb128 Ltmp269-Lfunc_begin19
	.byte	0
	.uleb128 Ltmp270-Lfunc_begin19
	.uleb128 Ltmp271-Ltmp270
	.uleb128 Ltmp285-Lfunc_begin19
	.byte	0
	.uleb128 Ltmp278-Lfunc_begin19
	.uleb128 Ltmp279-Ltmp278
	.uleb128 Ltmp282-Lfunc_begin19
	.byte	0
	.uleb128 Ltmp279-Lfunc_begin19
	.uleb128 Ltmp280-Ltmp279
	.byte	0
	.byte	0
	.uleb128 Ltmp280-Lfunc_begin19
	.uleb128 Ltmp281-Ltmp280
	.uleb128 Ltmp282-Lfunc_begin19
	.byte	0
	.uleb128 Ltmp286-Lfunc_begin19
	.uleb128 Ltmp287-Ltmp286
	.uleb128 Ltmp288-Lfunc_begin19
	.byte	0
	.uleb128 Ltmp289-Lfunc_begin19
	.uleb128 Ltmp290-Ltmp289
	.uleb128 Ltmp291-Lfunc_begin19
	.byte	0
	.uleb128 Ltmp283-Lfunc_begin19
	.uleb128 Ltmp284-Ltmp283
