	.section	__TEXT,__text,regular,pure_instructions
	.macosx_version_min 10, 7
	.p2align	4, 0x90
__ZN100_$LT$syn..punctuated..PrivateIter$LT$T$C$P$GT$$u20$as$u20$core..iter..traits..iterator..Iterator$GT$4next17h04d83184b418f162E:
	.cfi_startproc
	pushq	%rbp
	.cfi_def_cfa_offset 16
	.cfi_offset %rbp, -16
	movq	%rsp, %rbp
	.cfi_def_cfa_register %rbp
	movq	(%rdi), %rax
	cmpq	8(%rdi), %rax
	je	LBB0_2
	leaq	392(%rax), %rcx
	movq	%rcx, (%rdi)
	popq	%rbp
	retq
LBB0_2:
	movq	16(%rdi), %rax
	movq	$0, 16(%rdi)
	popq	%rbp
	retq
	.cfi_endproc

	.p2align	4, 0x90
__ZN100_$LT$syn..punctuated..PrivateIter$LT$T$C$P$GT$$u20$as$u20$core..iter..traits..iterator..Iterator$GT$4next17h1a4815e94522e488E:
	.cfi_startproc
	pushq	%rbp
	.cfi_def_cfa_offset 16
	.cfi_offset %rbp, -16
	movq	%rsp, %rbp
	.cfi_def_cfa_register %rbp
	movq	(%rdi), %rax
	cmpq	8(%rdi), %rax
	je	LBB1_2
	leaq	296(%rax), %rcx
	movq	%rcx, (%rdi)
	popq	%rbp
	retq
LBB1_2:
	movq	16(%rdi), %rax
	movq	$0, 16(%rdi)
	popq	%rbp
	retq
	.cfi_endproc

	.p2align	4, 0x90
__ZN100_$LT$syn..punctuated..PrivateIter$LT$T$C$P$GT$$u20$as$u20$core..iter..traits..iterator..Iterator$GT$4next17hd7f9a74584bdd6d0E:
	.cfi_startproc
	pushq	%rbp
	.cfi_def_cfa_offset 16
	.cfi_offset %rbp, -16
	movq	%rsp, %rbp
	.cfi_def_cfa_register %rbp
	movq	(%rdi), %rax
	cmpq	8(%rdi), %rax
	je	LBB2_2
	leaq	240(%rax), %rcx
	movq	%rcx, (%rdi)
	popq	%rbp
	retq
LBB2_2:
	movq	16(%rdi), %rax
	movq	$0, 16(%rdi)
	popq	%rbp
	retq
	.cfi_endproc

	.p2align	4, 0x90
__ZN111_$LT$syn..punctuated..PrivateIter$LT$T$C$P$GT$$u20$as$u20$core..iter..traits..exact_size..ExactSizeIterator$GT$3len17h13b6eb0ebadf78a0E:
	.cfi_startproc
	pushq	%rbp
	.cfi_def_cfa_offset 16
	.cfi_offset %rbp, -16
	movq	%rsp, %rbp
	.cfi_def_cfa_register %rbp
	movq	8(%rdi), %rax
	subq	(%rdi), %rax
	movabsq	$-8608480567731124087, %rcx
	mulq	%rcx
	movq	%rdx, %rax
	shrq	$7, %rax
	cmpq	$1, 16(%rdi)
	sbbq	$-1, %rax
	popq	%rbp
	retq
	.cfi_endproc

	.p2align	4, 0x90
__ZN111_$LT$syn..punctuated..PrivateIter$LT$T$C$P$GT$$u20$as$u20$core..iter..traits..exact_size..ExactSizeIterator$GT$3len17h19c725adeb2398ebE:
	.cfi_startproc
	pushq	%rbp
	.cfi_def_cfa_offset 16
	.cfi_offset %rbp, -16
	movq	%rsp, %rbp
	.cfi_def_cfa_register %rbp
	movq	8(%rdi), %rax
	subq	(%rdi), %rax
	shrq	$3, %rax
	movabsq	$3011713318156661489, %rcx
	mulq	%rcx
	movq	%rdx, %rax
	shrq	$3, %rax
	cmpq	$1, 16(%rdi)
	sbbq	$-1, %rax
	popq	%rbp
	retq
	.cfi_endproc

	.p2align	4, 0x90
__ZN111_$LT$syn..punctuated..PrivateIter$LT$T$C$P$GT$$u20$as$u20$core..iter..traits..exact_size..ExactSizeIterator$GT$3len17hca93ca6a8cf49699E:
	.cfi_startproc
	pushq	%rbp
	.cfi_def_cfa_offset 16
	.cfi_offset %rbp, -16
	movq	%rsp, %rbp
	.cfi_def_cfa_register %rbp
	movq	8(%rdi), %rax
	subq	(%rdi), %rax
	movabsq	$-2492803253203993461, %rcx
	mulq	%rcx
	movq	%rdx, %rax
	shrq	$8, %rax
	cmpq	$1, 16(%rdi)
	sbbq	$-1, %rax
	popq	%rbp
	retq
	.cfi_endproc

	.p2align	4, 0x90
__ZN115_$LT$syn..punctuated..PrivateIter$LT$T$C$P$GT$$u20$as$u20$core..iter..traits..double_ended..DoubleEndedIterator$GT$9next_back17h22396a6536a27debE:
	.cfi_startproc
	pushq	%rbp
	.cfi_def_cfa_offset 16
	.cfi_offset %rbp, -16
	movq	%rsp, %rbp
	.cfi_def_cfa_register %rbp
	movq	16(%rdi), %rax
	movq	$0, 16(%rdi)
	testq	%rax, %rax
	je	LBB6_1
	popq	%rbp
	retq
LBB6_1:
	movq	8(%rdi), %rax
	cmpq	%rax, (%rdi)
	je	LBB6_2
	addq	$-296, %rax
	movq	%rax, 8(%rdi)
	popq	%rbp
	retq
LBB6_2:
	xorl	%eax, %eax
	popq	%rbp
	retq
	.cfi_endproc

	.p2align	4, 0x90
__ZN115_$LT$syn..punctuated..PrivateIter$LT$T$C$P$GT$$u20$as$u20$core..iter..traits..double_ended..DoubleEndedIterator$GT$9next_back17h375db0a879f2b7dfE:
	.cfi_startproc
	pushq	%rbp
	.cfi_def_cfa_offset 16
	.cfi_offset %rbp, -16
	movq	%rsp, %rbp
	.cfi_def_cfa_register %rbp
	movq	16(%rdi), %rax
	movq	$0, 16(%rdi)
	testq	%rax, %rax
	je	LBB7_1
	popq	%rbp
	retq
LBB7_1:
	movq	8(%rdi), %rax
	cmpq	%rax, (%rdi)
	je	LBB7_2
	addq	$-392, %rax
	movq	%rax, 8(%rdi)
	popq	%rbp
	retq
LBB7_2:
	xorl	%eax, %eax
	popq	%rbp
	retq
	.cfi_endproc

	.p2align	4, 0x90
__ZN115_$LT$syn..punctuated..PrivateIter$LT$T$C$P$GT$$u20$as$u20$core..iter..traits..double_ended..DoubleEndedIterator$GT$9next_back17hf943d9f0688a017dE:
	.cfi_startproc
	pushq	%rbp
	.cfi_def_cfa_offset 16
	.cfi_offset %rbp, -16
	movq	%rsp, %rbp
	.cfi_def_cfa_register %rbp
	movq	16(%rdi), %rax
	movq	$0, 16(%rdi)
	testq	%rax, %rax
	je	LBB8_1
	popq	%rbp
	retq
LBB8_1:
	movq	8(%rdi), %rax
	cmpq	%rax, (%rdi)
	je	LBB8_2
	addq	$-240, %rax
	movq	%rax, 8(%rdi)
	popq	%rbp
	retq
LBB8_2:
	xorl	%eax, %eax
	popq	%rbp
	retq
	.cfi_endproc

	.p2align	4, 0x90
__ZN36_$LT$T$u20$as$u20$core..any..Any$GT$7type_id17he8cbd83a62c61e52E:
	.cfi_startproc
	pushq	%rbp
	.cfi_def_cfa_offset 16
	.cfi_offset %rbp, -16
	movq	%rsp, %rbp
	.cfi_def_cfa_register %rbp
	movabsq	$1229646359891580772, %rax
	popq	%rbp
	retq
	.cfi_endproc

	.p2align	4, 0x90
__ZN3std9panicking11begin_panic17hf072fe08496aac7aE:
	.cfi_startproc
	pushq	%rbp
	.cfi_def_cfa_offset 16
	.cfi_offset %rbp, -16
	movq	%rsp, %rbp
	.cfi_def_cfa_register %rbp
	subq	$16, %rsp
	movq	%rdi, -16(%rbp)
	movq	%rsi, -8(%rbp)
	movq	%rdx, %rdi
	callq	__ZN4core5panic8Location6caller17hf55c9a52d6249cfcE
	leaq	l___unnamed_1(%rip), %rsi
	leaq	-16(%rbp), %rdi
	xorl	%edx, %edx
	movq	%rax, %rcx
	callq	__ZN3std9panicking20rust_panic_with_hook17hf8b9378dd2e7986aE
	.cfi_endproc

	.p2align	4, 0x90
__ZN3syn10punctuated23Punctuated$LT$T$C$P$GT$4push17h597f376295a247efE:
Lfunc_begin0:
	.cfi_startproc
	.cfi_personality 155, _rust_eh_personality
	.cfi_lsda 16, Lexception0
	pushq	%rbp
	.cfi_def_cfa_offset 16
	.cfi_offset %rbp, -16
	movq	%rsp, %rbp
	.cfi_def_cfa_register %rbp
	pushq	%r15
	pushq	%r14
	pushq	%r12
	pushq	%rbx
	subq	$784, %rsp
	.cfi_offset %rbx, -48
	.cfi_offset %r12, -40
	.cfi_offset %r14, -32
	.cfi_offset %r15, -24
	movq	%rsi, %r14
	movq	%rdi, %r12
	cmpq	$0, 24(%rdi)
	je	LBB11_1
Ltmp0:
	callq	__ZN60_$LT$syn..token..Comma$u20$as$u20$core..default..Default$GT$7default17hceed94bc3dccbcc1E
Ltmp1:
	movq	24(%r12), %r15
	testq	%r15, %r15
	je	LBB11_4
	movl	%eax, %ebx
	movq	$0, 24(%r12)
	leaq	-424(%rbp), %rdi
	movl	$384, %edx
	movq	%r15, %rsi
	callq	_memmove
	movl	%ebx, -40(%rbp)
	movq	16(%r12), %rcx
	cmpq	8(%r12), %rcx
	jne	LBB11_9
Ltmp3:
	movl	$1, %esi
	movq	%r12, %rdi
	callq	__ZN5alloc3vec12Vec$LT$T$GT$7reserve17h5d00f243af355ca1E
Ltmp4:
	movq	16(%r12), %rcx
LBB11_9:
	imulq	$392, %rcx, %rdi
	addq	(%r12), %rdi
	leaq	-424(%rbp), %rsi
	movl	$392, %edx
	callq	_memmove
	incq	16(%r12)
	movl	$384, %esi
	movl	$8, %edx
	movq	%r15, %rdi
	callq	___rust_dealloc
	movq	24(%r12), %r15
	leaq	-808(%rbp), %rbx
	movl	$384, %edx
	movq	%rbx, %rdi
	movq	%r14, %rsi
	callq	_memcpy
	testq	%r15, %r15
	je	LBB11_10
Ltmp9:
	leaq	l___unnamed_2(%rip), %rdi
	leaq	l___unnamed_3(%rip), %rdx
	movl	$42, %esi
	callq	__ZN3std9panicking11begin_panic17hf072fe08496aac7aE
Ltmp10:
	jmp	LBB11_5
LBB11_1:
	leaq	-808(%rbp), %rbx
	movl	$384, %edx
	movq	%rbx, %rdi
	movq	%r14, %rsi
	callq	_memcpy
LBB11_10:
	leaq	-424(%rbp), %rdi
	movl	$384, %edx
	movq	%rbx, %rsi
	callq	_memcpy
	movl	$384, %edi
	movl	$8, %esi
	callq	___rust_alloc
	testq	%rax, %rax
	je	LBB11_11
	movq	%rax, %rbx
	leaq	-424(%rbp), %rsi
	movl	$384, %edx
	movq	%rax, %rdi
	callq	_memcpy
	movq	%rbx, 24(%r12)
	addq	$784, %rsp
	popq	%rbx
	popq	%r12
	popq	%r14
	popq	%r15
	popq	%rbp
	retq
LBB11_11:
	movl	$384, %edi
	movl	$8, %esi
	callq	__ZN5alloc5alloc18handle_alloc_error17hbc0ab0ed90816c07E
LBB11_4:
Ltmp12:
	leaq	l___unnamed_4(%rip), %rdi
	leaq	l___unnamed_3(%rip), %rdx
	movl	$37, %esi
	callq	__ZN3std9panicking11begin_panic17hf072fe08496aac7aE
Ltmp13:
LBB11_5:
	ud2
LBB11_13:
Ltmp14:
	jmp	LBB11_20
LBB11_16:
Ltmp11:
	movq	%rax, %rbx
	leaq	-808(%rbp), %r14
	jmp	LBB11_21
LBB11_12:
Ltmp5:
	movq	%rax, %rbx
Ltmp6:
	leaq	-424(%rbp), %rdi
	callq	__ZN4core3ptr13drop_in_place17h3a3bbda48e08754fE
Ltmp7:
LBB11_15:
	movq	%r15, %rdi
	callq	__ZN5alloc5alloc8box_free17h7aee8bfb15c768c7E
	jmp	LBB11_21
LBB11_14:
Ltmp8:
	movq	%rax, %rbx
	jmp	LBB11_15
LBB11_19:
Ltmp2:
LBB11_20:
	movq	%rax, %rbx
LBB11_21:
	movq	%r14, %rdi
	callq	__ZN4core3ptr13drop_in_place17h6cd689ac8fc3fb28E
	movq	%rbx, %rdi
	callq	__Unwind_Resume
	ud2
Lfunc_end0:
	.cfi_endproc
	.section	__TEXT,__gcc_except_tab
	.p2align	2
GCC_except_table11:
Lexception0:
	.byte	255
	.byte	255
	.byte	1
	.uleb128 Lcst_end0-Lcst_begin0
Lcst_begin0:
	.uleb128 Ltmp0-Lfunc_begin0
	.uleb128 Ltmp1-Ltmp0
	.uleb128 Ltmp2-Lfunc_begin0
	.byte	0
	.uleb128 Ltmp1-Lfunc_begin0
	.uleb128 Ltmp3-Ltmp1
	.byte	0
	.byte	0
	.uleb128 Ltmp3-Lfunc_begin0
	.uleb128 Ltmp4-Ltmp3
	.uleb128 Ltmp5-Lfunc_begin0
	.byte	0
	.uleb128 Ltmp4-Lfunc_begin0
	.uleb128 Ltmp9-Ltmp4
	.byte	0
	.byte	0
	.uleb128 Ltmp9-Lfunc_begin0
	.uleb128 Ltmp10-Ltmp9
	.uleb128 Ltmp11-Lfunc_begin0
	.byte	0
	.uleb128 Ltmp10-Lfunc_begin0
	.uleb128 Ltmp12-Ltmp10
	.byte	0
	.byte	0
	.uleb128 Ltmp12-Lfunc_begin0
	.uleb128 Ltmp13-Ltmp12
	.uleb128 Ltmp14-Lfunc_begin0
	.byte	0
	.uleb128 Ltmp6-Lfunc_begin0
	.uleb128 Ltmp7-Ltmp6
	.uleb128 Ltmp8-Lfunc_begin0
	.byte	0
	.uleb128 Ltmp7-Lfunc_begin0
	.uleb128 Lfunc_end0-Ltmp7
	.byte	0
	.byte	0
Lcst_end0:
	.p2align	2

	.section	__TEXT,__text,regular,pure_instructions
	.p2align	4, 0x90
__ZN3syn10punctuated23Punctuated$LT$T$C$P$GT$4push17hf4dccc15d1fa4cf3E:
Lfunc_begin1:
	.cfi_startproc
	.cfi_personality 155, _rust_eh_personality
	.cfi_lsda 16, Lexception1
	pushq	%rbp
	.cfi_def_cfa_offset 16
	.cfi_offset %rbp, -16
	movq	%rsp, %rbp
	.cfi_def_cfa_register %rbp
	pushq	%r15
	pushq	%r14
	pushq	%r12
	pushq	%rbx
	subq	$784, %rsp
	.cfi_offset %rbx, -48
	.cfi_offset %r12, -40
	.cfi_offset %r14, -32
	.cfi_offset %r15, -24
	movq	%rsi, %r14
	movq	%rdi, %r12
	cmpq	$0, 24(%rdi)
	je	LBB12_1
Ltmp15:
	callq	__ZN60_$LT$syn..token..Comma$u20$as$u20$core..default..Default$GT$7default17hceed94bc3dccbcc1E
Ltmp16:
	movq	24(%r12), %r15
	testq	%r15, %r15
	je	LBB12_4
	movl	%eax, %ebx
	movq	$0, 24(%r12)
	leaq	-424(%rbp), %rdi
	movl	$384, %edx
	movq	%r15, %rsi
	callq	_memmove
	movl	%ebx, -40(%rbp)
	movq	16(%r12), %rcx
	cmpq	8(%r12), %rcx
	jne	LBB12_9
Ltmp18:
	movl	$1, %esi
	movq	%r12, %rdi
	callq	__ZN5alloc3vec12Vec$LT$T$GT$7reserve17h5d00f243af355ca1E
Ltmp19:
	movq	16(%r12), %rcx
LBB12_9:
	imulq	$392, %rcx, %rdi
	addq	(%r12), %rdi
	leaq	-424(%rbp), %rsi
	movl	$392, %edx
	callq	_memmove
	incq	16(%r12)
	movl	$384, %esi
	movl	$8, %edx
	movq	%r15, %rdi
	callq	___rust_dealloc
	movq	24(%r12), %r15
	leaq	-808(%rbp), %rbx
	movl	$384, %edx
	movq	%rbx, %rdi
	movq	%r14, %rsi
	callq	_memcpy
	testq	%r15, %r15
	je	LBB12_10
Ltmp24:
	leaq	l___unnamed_2(%rip), %rdi
	leaq	l___unnamed_3(%rip), %rdx
	movl	$42, %esi
	callq	__ZN3std9panicking11begin_panic17hf072fe08496aac7aE
Ltmp25:
	jmp	LBB12_5
LBB12_1:
	leaq	-808(%rbp), %rbx
	movl	$384, %edx
	movq	%rbx, %rdi
	movq	%r14, %rsi
	callq	_memcpy
LBB12_10:
	leaq	-424(%rbp), %rdi
	movl	$384, %edx
	movq	%rbx, %rsi
	callq	_memcpy
	movl	$384, %edi
	movl	$8, %esi
	callq	___rust_alloc
	testq	%rax, %rax
	je	LBB12_11
	movq	%rax, %rbx
	leaq	-424(%rbp), %rsi
	movl	$384, %edx
	movq	%rax, %rdi
	callq	_memcpy
	movq	%rbx, 24(%r12)
	addq	$784, %rsp
	popq	%rbx
	popq	%r12
	popq	%r14
	popq	%r15
	popq	%rbp
	retq
LBB12_11:
	movl	$384, %edi
	movl	$8, %esi
	callq	__ZN5alloc5alloc18handle_alloc_error17hbc0ab0ed90816c07E
LBB12_4:
Ltmp27:
	leaq	l___unnamed_4(%rip), %rdi
	leaq	l___unnamed_3(%rip), %rdx
	movl	$37, %esi
	callq	__ZN3std9panicking11begin_panic17hf072fe08496aac7aE
Ltmp28:
LBB12_5:
	ud2
LBB12_13:
Ltmp29:
	jmp	LBB12_20
LBB12_16:
Ltmp26:
	movq	%rax, %rbx
	leaq	-808(%rbp), %r14
	jmp	LBB12_21
LBB12_12:
Ltmp20:
	movq	%rax, %rbx
Ltmp21:
	leaq	-424(%rbp), %rdi
	callq	__ZN4core3ptr13drop_in_place17h624a23237b2d9041E
Ltmp22:
LBB12_15:
	movq	%r15, %rdi
	callq	__ZN5alloc5alloc8box_free17h7aee8bfb15c768c7E
	jmp	LBB12_21
LBB12_14:
Ltmp23:
	movq	%rax, %rbx
	jmp	LBB12_15
LBB12_19:
Ltmp17:
LBB12_20:
	movq	%rax, %rbx
LBB12_21:
	movq	%r14, %rdi
	callq	__ZN4core3ptr13drop_in_place17h3458d2d6706aebd4E
	movq	%rbx, %rdi
	callq	__Unwind_Resume
	ud2
Lfunc_end1:
	.cfi_endproc
	.section	__TEXT,__gcc_except_tab
	.p2align	2
GCC_except_table12:
Lexception1:
	.byte	255
	.byte	255
	.byte	1
	.uleb128 Lcst_end1-Lcst_begin1
Lcst_begin1:
	.uleb128 Ltmp15-Lfunc_begin1
	.uleb128 Ltmp16-Ltmp15
	.uleb128 Ltmp17-Lfunc_begin1
	.byte	0
	.uleb128 Ltmp16-Lfunc_begin1
	.uleb128 Ltmp18-Ltmp16
	.byte	0
	.byte	0
	.uleb128 Ltmp18-Lfunc_begin1
	.uleb128 Ltmp19-Ltmp18
	.uleb128 Ltmp20-Lfunc_begin1
	.byte	0
	.uleb128 Ltmp19-Lfunc_begin1
	.uleb128 Ltmp24-Ltmp19
	.byte	0
	.byte	0
	.uleb128 Ltmp24-Lfunc_begin1
	.uleb128 Ltmp25-Ltmp24
	.uleb128 Ltmp26-Lfunc_begin1
	.byte	0
	.uleb128 Ltmp25-Lfunc_begin1
	.uleb128 Ltmp27-Ltmp25
	.byte	0
	.byte	0
	.uleb128 Ltmp27-Lfunc_begin1
	.uleb128 Ltmp28-Ltmp27
	.uleb128 Ltmp29-Lfunc_begin1
	.byte	0
	.uleb128 Ltmp21-Lfunc_begin1
	.uleb128 Ltmp22-Ltmp21
	.uleb128 Ltmp23-Lfunc_begin1
	.byte	0
	.uleb128 Ltmp22-Lfunc_begin1
	.uleb128 Lfunc_end1-Ltmp22
	.byte	0
	.byte	0
Lcst_end1:
	.p2align	2

	.section	__TEXT,__text,regular,pure_instructions
	.p2align	4, 0x90
__ZN3syn3gen5visit10visit_expr17ha717e805c7344791E:
	.cfi_startproc
	pushq	%rbp
	.cfi_def_cfa_offset 16
	.cfi_offset %rbp, -16
	movq	%rsp, %rbp
	.cfi_def_cfa_register %rbp
	pushq	%r15
	pushq	%r14
	pushq	%r13
	pushq	%r12
	pushq	%rbx
	pushq	%rax
	.cfi_offset %rbx, -56
	.cfi_offset %r12, -48
	.cfi_offset %r13, -40
	.cfi_offset %r14, -32
	.cfi_offset %r15, -24
	movq	%rsi, %r14
	movq	%rdi, %r15
	leaq	LJTI13_0(%rip), %r12
	movq	(%r14), %rax
	cmpq	$39, %rax
	ja	LBB13_45
LBB13_2:
	movslq	(%r12,%rax,4), %rax
	addq	%r12, %rax
	jmpq	*%rax
LBB13_3:
	movq	24(%r14), %rax
	testq	%rax, %rax
	je	LBB13_6
	movq	8(%r14), %rbx
	imulq	$104, %rax, %r13
	.p2align	4, 0x90
LBB13_5:
	movq	%rbx, %rsi
	addq	$104, %rbx
	movq	%r15, %rdi
	callq	__ZN3syn3gen5visit10visit_path17h0456cb7221010318E
	addq	$-104, %r13
	jne	LBB13_5
	jmp	LBB13_6
LBB13_25:
	movq	24(%r14), %rax
	testq	%rax, %rax
	je	LBB13_6
	movq	8(%r14), %rbx
	imulq	$104, %rax, %r13
	.p2align	4, 0x90
LBB13_27:
	movq	%rbx, %rsi
	addq	$104, %rbx
	movq	%r15, %rdi
	callq	__ZN3syn3gen5visit10visit_path17h0456cb7221010318E
	addq	$-104, %r13
	jne	LBB13_27
LBB13_6:
	movq	32(%r14), %rsi
	movq	%r15, %rdi
	callq	__ZN3syn3gen5visit10visit_expr17ha717e805c7344791E
	addq	$40, %r14
	movq	(%r14), %r14
	movq	(%r14), %rax
	cmpq	$39, %rax
	jbe	LBB13_2
	jmp	LBB13_45
LBB13_32:
	movq	24(%r14), %rax
	testq	%rax, %rax
	je	LBB13_35
	movq	8(%r14), %rbx
	imulq	$104, %rax, %r13
	.p2align	4, 0x90
LBB13_34:
	movq	%rbx, %rsi
	addq	$104, %rbx
	movq	%r15, %rdi
	callq	__ZN3syn3gen5visit10visit_path17h0456cb7221010318E
	addq	$-104, %r13
	jne	LBB13_34
	jmp	LBB13_35
LBB13_42:
	movq	24(%r14), %rax
	testq	%rax, %rax
	je	LBB13_35
	movq	8(%r14), %rbx
	imulq	$104, %rax, %r13
	.p2align	4, 0x90
LBB13_44:
	movq	%rbx, %rsi
	addq	$104, %rbx
	movq	%r15, %rdi
	callq	__ZN3syn3gen5visit10visit_path17h0456cb7221010318E
	addq	$-104, %r13
	jne	LBB13_44
LBB13_35:
	addq	$32, %r14
	movq	(%r14), %r14
	movq	(%r14), %rax
	cmpq	$39, %rax
	jbe	LBB13_2
LBB13_45:
	leaq	l___unnamed_5(%rip), %rdi
	leaq	l___unnamed_3(%rip), %rdx
	movl	$40, %esi
	callq	__ZN3std9panicking11begin_panic17hf072fe08496aac7aE
LBB13_7:
	movq	24(%r14), %rax
	testq	%rax, %rax
	je	LBB13_10
	movq	8(%r14), %rbx
	imulq	$104, %rax, %r12
	.p2align	4, 0x90
LBB13_9:
	movq	%rbx, %rsi
	addq	$104, %rbx
	movq	%r15, %rdi
	callq	__ZN3syn3gen5visit10visit_path17h0456cb7221010318E
	addq	$-104, %r12
	jne	LBB13_9
LBB13_10:
	movq	32(%r14), %rsi
	movq	%r15, %rdi
	callq	__ZN3syn3gen5visit10visit_expr17ha717e805c7344791E
	movq	40(%r14), %rsi
	movq	64(%r14), %r12
	imulq	$120, 56(%r14), %r14
	addq	%rsi, %r14
	cmpq	%r14, %rsi
	je	LBB13_12
	.p2align	4, 0x90
LBB13_14:
	leaq	120(%rsi), %rbx
LBB13_15:
	movq	%r15, %rdi
	callq	__ZN3syn3gen5visit10visit_expr17ha717e805c7344791E
	movq	%rbx, %rsi
	cmpq	%r14, %rsi
	jne	LBB13_14
LBB13_12:
	testq	%r12, %r12
	je	LBB13_31
	movq	%r14, %rbx
	movq	%r12, %rsi
	xorl	%r12d, %r12d
	jmp	LBB13_15
LBB13_16:
	movq	24(%r14), %rax
	testq	%rax, %rax
	je	LBB13_19
	movq	8(%r14), %rbx
	imulq	$104, %rax, %r12
	.p2align	4, 0x90
LBB13_18:
	movq	%rbx, %rsi
	addq	$104, %rbx
	movq	%r15, %rdi
	callq	__ZN3syn3gen5visit10visit_path17h0456cb7221010318E
	addq	$-104, %r12
	jne	LBB13_18
LBB13_19:
	movq	32(%r14), %rsi
	movq	%r15, %rdi
	callq	__ZN3syn3gen5visit10visit_expr17ha717e805c7344791E
	movq	40(%r14), %rsi
	movq	%r15, %rdi
	addq	$8, %rsp
	popq	%rbx
	popq	%r12
	popq	%r13
	popq	%r14
	popq	%r15
	popq	%rbp
	jmp	__ZN3syn3gen5visit10visit_type17hb24a2a50fb031906E
LBB13_20:
	movq	24(%r14), %rax
	testq	%rax, %rax
	je	LBB13_23
	movq	8(%r14), %rbx
	imulq	$104, %rax, %r12
	.p2align	4, 0x90
LBB13_22:
	movq	%rbx, %rsi
	addq	$104, %rbx
	movq	%r15, %rdi
	callq	__ZN3syn3gen5visit10visit_path17h0456cb7221010318E
	addq	$-104, %r12
	jne	LBB13_22
LBB13_23:
	movq	32(%r14), %rsi
	movq	%r15, %rdi
	callq	__ZN3syn3gen5visit10visit_expr17ha717e805c7344791E
	cmpl	$1, 40(%r14)
	je	LBB13_31
	addq	$48, %r14
	movq	%r15, %rdi
	movq	%r14, %rsi
	addq	$8, %rsp
	popq	%rbx
	popq	%r12
	popq	%r13
	popq	%r14
	popq	%r15
	popq	%rbp
	jmp	__ZN88_$LT$synstructure..get_ty_params..BoundTypeLocator$u20$as$u20$syn..gen..visit..Visit$GT$11visit_ident17h7ea5f3f875533613E
LBB13_28:
	movq	24(%r14), %rax
	testq	%rax, %rax
	je	LBB13_31
	movq	8(%r14), %rbx
	imulq	$104, %rax, %r14
	.p2align	4, 0x90
LBB13_30:
	movq	%rbx, %rsi
	addq	$104, %rbx
	movq	%r15, %rdi
	callq	__ZN3syn3gen5visit10visit_path17h0456cb7221010318E
	addq	$-104, %r14
	jne	LBB13_30
LBB13_31:
	addq	$8, %rsp
	popq	%rbx
	popq	%r12
	popq	%r13
	popq	%r14
	popq	%r15
	popq	%rbp
	retq
LBB13_36:
	movq	24(%r14), %rax
	testq	%rax, %rax
	je	LBB13_39
	movq	8(%r14), %rbx
	imulq	$104, %rax, %r12
	.p2align	4, 0x90
LBB13_38:
	movq	%rbx, %rsi
	addq	$104, %rbx
	movq	%r15, %rdi
	callq	__ZN3syn3gen5visit10visit_path17h0456cb7221010318E
	addq	$-104, %r12
	jne	LBB13_38
LBB13_39:
	cmpl	$2, 52(%r14)
	je	LBB13_41
	movq	32(%r14), %rsi
	movq	%r15, %rdi
	callq	__ZN3syn3gen5visit10visit_type17hb24a2a50fb031906E
LBB13_41:
	addq	$64, %r14
	movq	%r15, %rdi
	movq	%r14, %rsi
	addq	$8, %rsp
	popq	%rbx
	popq	%r12
	popq	%r13
	popq	%r14
	popq	%r15
	popq	%rbp
	jmp	__ZN3syn3gen5visit10visit_path17h0456cb7221010318E
	.cfi_endproc
	.p2align	2, 0x90
	.data_region jt32
.set L13_0_set_45, LBB13_45-LJTI13_0
.set L13_0_set_3, LBB13_3-LJTI13_0
.set L13_0_set_7, LBB13_7-LJTI13_0
.set L13_0_set_16, LBB13_16-LJTI13_0
.set L13_0_set_20, LBB13_20-LJTI13_0
.set L13_0_set_25, LBB13_25-LJTI13_0
.set L13_0_set_28, LBB13_28-LJTI13_0
.set L13_0_set_32, LBB13_32-LJTI13_0
.set L13_0_set_36, LBB13_36-LJTI13_0
.set L13_0_set_42, LBB13_42-LJTI13_0
.set L13_0_set_31, LBB13_31-LJTI13_0
LJTI13_0:
	.long	L13_0_set_45
	.long	L13_0_set_45
	.long	L13_0_set_45
	.long	L13_0_set_45
	.long	L13_0_set_45
	.long	L13_0_set_3
	.long	L13_0_set_45
	.long	L13_0_set_45
	.long	L13_0_set_45
	.long	L13_0_set_7
	.long	L13_0_set_16
	.long	L13_0_set_45
	.long	L13_0_set_45
	.long	L13_0_set_20
	.long	L13_0_set_45
	.long	L13_0_set_45
	.long	L13_0_set_45
	.long	L13_0_set_25
	.long	L13_0_set_45
	.long	L13_0_set_28
	.long	L13_0_set_45
	.long	L13_0_set_45
	.long	L13_0_set_45
	.long	L13_0_set_45
	.long	L13_0_set_32
	.long	L13_0_set_36
	.long	L13_0_set_45
	.long	L13_0_set_45
	.long	L13_0_set_45
	.long	L13_0_set_45
	.long	L13_0_set_45
	.long	L13_0_set_45
	.long	L13_0_set_45
	.long	L13_0_set_45
	.long	L13_0_set_45
	.long	L13_0_set_42
	.long	L13_0_set_45
	.long	L13_0_set_31
	.long	L13_0_set_45
	.long	L13_0_set_45
	.end_data_region

	.p2align	4, 0x90
__ZN3syn3gen5visit10visit_path17h0456cb7221010318E:
	.cfi_startproc
	pushq	%rbp
	.cfi_def_cfa_offset 16
	.cfi_offset %rbp, -16
	movq	%rsp, %rbp
	.cfi_def_cfa_register %rbp
	pushq	%r15
	pushq	%r14
	pushq	%r13
	pushq	%r12
	pushq	%rbx
	subq	$24, %rsp
	.cfi_offset %rbx, -56
	.cfi_offset %r12, -48
	.cfi_offset %r13, -40
	.cfi_offset %r14, -32
	.cfi_offset %r15, -24
	movq	%rdi, %rbx
	movq	(%rsi), %rax
	movq	24(%rsi), %r12
	imulq	$112, 16(%rsi), %r15
	addq	%rax, %r15
	movq	%r15, -48(%rbp)
	cmpq	%r15, %rax
	jne	LBB14_5
	jmp	LBB14_2
	.p2align	4, 0x90
LBB14_16:
	addq	$48, %r14
	movq	%rbx, %rdi
	movq	%r14, %rsi
	callq	__ZN3syn3gen5visit39visit_angle_bracketed_generic_arguments17hffea3f6fb744bbd0E
	movq	%r13, %rax
LBB14_1:
	cmpq	%r15, %rax
	je	LBB14_2
LBB14_5:
	leaq	112(%rax), %r13
	movq	%rax, %r14
	jmp	LBB14_6
	.p2align	4, 0x90
LBB14_2:
	testq	%r12, %r12
	je	LBB14_4
	movq	%r15, %r13
	movq	%r12, %r14
	xorl	%r12d, %r12d
LBB14_6:
	movq	%rbx, %rdi
	movq	%r14, %rsi
	callq	__ZN88_$LT$synstructure..get_ty_params..BoundTypeLocator$u20$as$u20$syn..gen..visit..Visit$GT$11visit_ident17h7ea5f3f875533613E
	movq	40(%r14), %rcx
	movq	%r13, %rax
	testq	%rcx, %rcx
	je	LBB14_1
	cmpq	$1, %rcx
	je	LBB14_16
	movq	%r13, -56(%rbp)
	movq	%r12, -64(%rbp)
	movq	48(%r14), %rsi
	movq	64(%r14), %rax
	leaq	(%rax,%rax,2), %r13
	shlq	$6, %r13
	addq	%rsi, %r13
	movq	72(%r14), %r15
	cmpq	%r13, %rsi
	je	LBB14_10
	.p2align	4, 0x90
LBB14_14:
	leaq	192(%rsi), %r12
LBB14_15:
	movq	%rbx, %rdi
	callq	__ZN3syn3gen5visit10visit_type17hb24a2a50fb031906E
	movq	%r12, %rsi
	cmpq	%r13, %rsi
	jne	LBB14_14
LBB14_10:
	testq	%r15, %r15
	je	LBB14_12
	movq	%r15, %rsi
	xorl	%r15d, %r15d
	movq	%r13, %r12
	jmp	LBB14_15
	.p2align	4, 0x90
LBB14_12:
	movq	80(%r14), %rsi
	movq	-56(%rbp), %r14
	movq	%r14, %rax
	testq	%rsi, %rsi
	movq	-48(%rbp), %r15
	movq	-64(%rbp), %r12
	je	LBB14_1
	movq	%rbx, %rdi
	callq	__ZN3syn3gen5visit10visit_type17hb24a2a50fb031906E
	movq	%r14, %rax
	cmpq	%r15, %rax
	jne	LBB14_5
	jmp	LBB14_2
LBB14_4:
	addq	$24, %rsp
	popq	%rbx
	popq	%r12
	popq	%r13
	popq	%r14
	popq	%r15
	popq	%rbp
	retq
	.cfi_endproc

	.p2align	4, 0x90
__ZN3syn3gen5visit10visit_type17hb24a2a50fb031906E:
	.cfi_startproc
	pushq	%rbp
	.cfi_def_cfa_offset 16
	.cfi_offset %rbp, -16
	movq	%rsp, %rbp
	.cfi_def_cfa_register %rbp
	pushq	%r15
	pushq	%r14
	pushq	%r13
	pushq	%r12
	pushq	%rbx
	subq	$24, %rsp
	.cfi_offset %rbx, -56
	.cfi_offset %r12, -48
	.cfi_offset %r13, -40
	.cfi_offset %r14, -32
	.cfi_offset %r15, -24
	movq	%rsi, %r15
	movq	%rdi, %r12
	leaq	LJTI15_0(%rip), %r14
	movl	(%r15), %eax
	cmpq	$14, %rax
	ja	LBB15_3
LBB15_2:
	movslq	(%r14,%rax,4), %rax
	addq	%r14, %rax
	jmpq	*%rax
LBB15_53:
	addq	$8, %r15
	movq	(%r15), %r15
	movl	(%r15), %eax
	cmpq	$14, %rax
	jbe	LBB15_2
	jmp	LBB15_3
LBB15_5:
	movq	%r15, -48(%rbp)
	movq	8(%r15), %rsi
	testq	%rsi, %rsi
	je	LBB15_12
	movq	-48(%rbp), %rax
	imulq	$120, 24(%rax), %r15
	addq	%rsi, %r15
	movq	32(%rax), %r14
	cmpq	%r15, %rsi
	je	LBB15_8
	.p2align	4, 0x90
LBB15_10:
	leaq	120(%rsi), %rbx
LBB15_11:
	movq	%r12, %rdi
	callq	__ZN3syn3gen5visit18visit_lifetime_def17h8d0a0a8ab1e7d83aE
	movq	%rbx, %rsi
	cmpq	%r15, %rsi
	jne	LBB15_10
LBB15_8:
	testq	%r14, %r14
	je	LBB15_12
	movq	%r14, %rsi
	xorl	%r14d, %r14d
	movq	%r15, %rbx
	jmp	LBB15_11
LBB15_12:
	movq	-48(%rbp), %rdx
	movq	80(%rdx), %r15
	movq	96(%rdx), %rax
	movq	%rax, %rcx
	shlq	$8, %rcx
	leaq	(%rcx,%rax,8), %rax
	addq	%r15, %rax
	movq	%rax, -64(%rbp)
	movq	104(%rdx), %rax
	movq	%rax, -56(%rbp)
	cmpq	-64(%rbp), %r15
	jne	LBB15_16
	jmp	LBB15_14
	.p2align	4, 0x90
LBB15_22:
	addq	$72, %r15
	movq	%r12, %rdi
	movq	%r15, %rsi
	callq	__ZN3syn3gen5visit10visit_type17hb24a2a50fb031906E
	movq	%r13, %r15
	cmpq	-64(%rbp), %r15
	je	LBB15_14
LBB15_16:
	leaq	264(%r15), %r13
	movq	16(%r15), %rax
	testq	%rax, %rax
	jne	LBB15_18
	jmp	LBB15_20
	.p2align	4, 0x90
LBB15_14:
	movq	-56(%rbp), %r15
	testq	%r15, %r15
	je	LBB15_23
	movq	-64(%rbp), %r13
	xorl	%eax, %eax
	movq	%rax, -56(%rbp)
	movq	16(%r15), %rax
	testq	%rax, %rax
	je	LBB15_20
LBB15_18:
	movq	(%r15), %rbx
	imulq	$104, %rax, %r14
	.p2align	4, 0x90
LBB15_19:
	movq	%rbx, %rsi
	addq	$104, %rbx
	movq	%r12, %rdi
	callq	__ZN3syn3gen5visit10visit_path17h0456cb7221010318E
	addq	$-104, %r14
	jne	LBB15_19
LBB15_20:
	cmpl	$2, 24(%r15)
	je	LBB15_22
	leaq	24(%r15), %rsi
	movq	%r12, %rdi
	callq	__ZN88_$LT$synstructure..get_ty_params..BoundTypeLocator$u20$as$u20$syn..gen..visit..Visit$GT$11visit_ident17h7ea5f3f875533613E
	jmp	LBB15_22
LBB15_23:
	movq	-48(%rbp), %rax
	movq	112(%rax), %r15
	testq	%r15, %r15
	je	LBB15_27
	movq	-48(%rbp), %rax
	movq	128(%rax), %rax
	testq	%rax, %rax
	je	LBB15_27
	imulq	$104, %rax, %rbx
	.p2align	4, 0x90
LBB15_26:
	movq	%r15, %rsi
	addq	$104, %r15
	movq	%r12, %rdi
	callq	__ZN3syn3gen5visit10visit_path17h0456cb7221010318E
	addq	$-104, %rbx
	jne	LBB15_26
LBB15_27:
	movq	-48(%rbp), %r15
	cmpq	$0, 152(%r15)
	leaq	LJTI15_0(%rip), %r14
	je	LBB15_62
	addq	$152, %r15
	movq	(%r15), %r15
	movl	(%r15), %eax
	cmpq	$14, %rax
	jbe	LBB15_2
	jmp	LBB15_3
LBB15_50:
	cmpl	$2, 8(%r15)
	je	LBB15_52
	leaq	8(%r15), %rsi
	movq	%r12, %rdi
	callq	__ZN88_$LT$synstructure..get_ty_params..BoundTypeLocator$u20$as$u20$syn..gen..visit..Visit$GT$11visit_ident17h7ea5f3f875533613E
LBB15_52:
	addq	$56, %r15
	movq	(%r15), %r15
	movl	(%r15), %eax
	cmpq	$14, %rax
	jbe	LBB15_2
LBB15_3:
	leaq	l___unnamed_5(%rip), %rdi
	leaq	l___unnamed_3(%rip), %rdx
	movl	$40, %esi
	callq	__ZN3std9panicking11begin_panic17hf072fe08496aac7aE
LBB15_4:
	movq	8(%r15), %rsi
	movq	%r12, %rdi
	callq	__ZN3syn3gen5visit10visit_type17hb24a2a50fb031906E
	addq	$16, %r15
	movq	%r12, %rdi
	movq	%r15, %rsi
	addq	$24, %rsp
	popq	%rbx
	popq	%r12
	popq	%r13
	popq	%r14
	popq	%r15
	popq	%rbp
	jmp	__ZN3syn3gen5visit10visit_expr17ha717e805c7344791E
LBB15_29:
	movq	8(%r15), %rbx
	movq	24(%r15), %r13
	shlq	$7, %r13
	addq	%rbx, %r13
	movq	32(%r15), %r15
	movq	%r13, -48(%rbp)
	cmpq	%r13, %rbx
	jne	LBB15_33
	jmp	LBB15_31
	.p2align	4, 0x90
LBB15_43:
	addq	$56, %r14
	movq	%r12, %rdi
	movq	%r14, %rsi
	callq	__ZN3syn3gen5visit10visit_path17h0456cb7221010318E
	movq	-48(%rbp), %r13
	movq	-64(%rbp), %r15
	movq	-56(%rbp), %rbx
	cmpq	%r13, %rbx
	je	LBB15_31
LBB15_33:
	movq	%rbx, %r14
	addq	$128, %rbx
	leaq	8(%r14), %rsi
	cmpq	$1, (%r14)
	jne	LBB15_36
LBB15_35:
	movq	%r12, %rdi
	callq	__ZN88_$LT$synstructure..get_ty_params..BoundTypeLocator$u20$as$u20$syn..gen..visit..Visit$GT$11visit_ident17h7ea5f3f875533613E
	cmpq	%r13, %rbx
	jne	LBB15_33
LBB15_31:
	testq	%r15, %r15
	je	LBB15_62
	movq	%r15, %r14
	xorl	%r15d, %r15d
	movq	%r13, %rbx
	leaq	8(%r14), %rsi
	cmpq	$1, (%r14)
	je	LBB15_35
LBB15_36:
	movq	%rbx, -56(%rbp)
	movq	%r15, -64(%rbp)
	movq	(%rsi), %rsi
	testq	%rsi, %rsi
	je	LBB15_43
	imulq	$120, 24(%r14), %rbx
	addq	%rsi, %rbx
	movq	32(%r14), %r13
	cmpq	%rbx, %rsi
	je	LBB15_39
	.p2align	4, 0x90
LBB15_41:
	leaq	120(%rsi), %r15
LBB15_42:
	movq	%r12, %rdi
	callq	__ZN3syn3gen5visit18visit_lifetime_def17h8d0a0a8ab1e7d83aE
	movq	%r15, %rsi
	cmpq	%rbx, %rsi
	jne	LBB15_41
LBB15_39:
	testq	%r13, %r13
	je	LBB15_43
	movq	%r13, %rsi
	xorl	%r13d, %r13d
	movq	%rbx, %r15
	jmp	LBB15_42
LBB15_44:
	addq	$8, %r15
	movq	16(%r12), %rdx
	testq	%rdx, %rdx
	je	LBB15_46
	movq	(%r12), %rdi
	movl	$1, %esi
	callq	_memset
	jmp	LBB15_46
LBB15_56:
	movq	8(%r15), %rsi
	movq	24(%r15), %rax
	movq	%r15, %rbx
	leaq	(%rax,%rax,2), %r15
	shlq	$6, %r15
	addq	%rsi, %r15
	movq	32(%rbx), %r14
	cmpq	%r15, %rsi
	je	LBB15_58
	.p2align	4, 0x90
LBB15_60:
	leaq	192(%rsi), %rbx
LBB15_61:
	movq	%r12, %rdi
	callq	__ZN3syn3gen5visit10visit_type17hb24a2a50fb031906E
	movq	%rbx, %rsi
	cmpq	%r15, %rsi
	jne	LBB15_60
LBB15_58:
	testq	%r14, %r14
	je	LBB15_62
	movq	%r14, %rsi
	xorl	%r14d, %r14d
	movq	%r15, %rbx
	jmp	LBB15_61
LBB15_62:
	addq	$24, %rsp
	popq	%rbx
	popq	%r12
	popq	%r13
	popq	%r14
	popq	%r15
	popq	%rbp
	retq
LBB15_47:
	cmpl	$2, 28(%r15)
	je	LBB15_49
	movq	8(%r15), %rsi
	movq	%r12, %rdi
	callq	__ZN3syn3gen5visit10visit_type17hb24a2a50fb031906E
LBB15_49:
	addq	$40, %r15
LBB15_46:
	movq	%r12, %rdi
	movq	%r15, %rsi
	addq	$24, %rsp
	popq	%rbx
	popq	%r12
	popq	%r13
	popq	%r14
	popq	%r15
	popq	%rbp
	jmp	__ZN3syn3gen5visit10visit_path17h0456cb7221010318E
LBB15_55:
	addq	$8, %r15
	movq	%r12, %rdi
	movq	%r15, %rsi
	addq	$24, %rsp
	popq	%rbx
	popq	%r12
	popq	%r13
	popq	%r14
	popq	%r15
	popq	%rbp
	jmp	__ZN3syn3gen5visit23visit_type_trait_object17h3a675d3dfae0d078E
	.cfi_endproc
	.p2align	2, 0x90
	.data_region jt32
.set L15_0_set_4, LBB15_4-LJTI15_0
.set L15_0_set_5, LBB15_5-LJTI15_0
.set L15_0_set_53, LBB15_53-LJTI15_0
.set L15_0_set_29, LBB15_29-LJTI15_0
.set L15_0_set_62, LBB15_62-LJTI15_0
.set L15_0_set_44, LBB15_44-LJTI15_0
.set L15_0_set_47, LBB15_47-LJTI15_0
.set L15_0_set_50, LBB15_50-LJTI15_0
.set L15_0_set_55, LBB15_55-LJTI15_0
.set L15_0_set_56, LBB15_56-LJTI15_0
LJTI15_0:
	.long	L15_0_set_4
	.long	L15_0_set_5
	.long	L15_0_set_53
	.long	L15_0_set_29
	.long	L15_0_set_62
	.long	L15_0_set_44
	.long	L15_0_set_62
	.long	L15_0_set_53
	.long	L15_0_set_47
	.long	L15_0_set_53
	.long	L15_0_set_50
	.long	L15_0_set_53
	.long	L15_0_set_55
	.long	L15_0_set_56
	.long	L15_0_set_62
	.end_data_region

	.p2align	4, 0x90
__ZN3syn3gen5visit16visit_constraint17h2c7087e417ae14c1E:
	.cfi_startproc
	pushq	%rbp
	.cfi_def_cfa_offset 16
	.cfi_offset %rbp, -16
	movq	%rsp, %rbp
	.cfi_def_cfa_register %rbp
	pushq	%r15
	pushq	%r14
	pushq	%r13
	pushq	%r12
	pushq	%rbx
	subq	$24, %rsp
	.cfi_offset %rbx, -56
	.cfi_offset %r12, -48
	.cfi_offset %r13, -40
	.cfi_offset %r14, -32
	.cfi_offset %r15, -24
	movq	%rsi, %r15
	movq	%rdi, %rbx
	callq	__ZN88_$LT$synstructure..get_ty_params..BoundTypeLocator$u20$as$u20$syn..gen..visit..Visit$GT$11visit_ident17h7ea5f3f875533613E
	movq	40(%r15), %r14
	movq	56(%r15), %r12
	shlq	$7, %r12
	addq	%r14, %r12
	movq	64(%r15), %rax
	movq	%rax, -48(%rbp)
	movq	%r12, -56(%rbp)
	cmpq	%r12, %r14
	jne	LBB16_5
	jmp	LBB16_2
	.p2align	4, 0x90
LBB16_15:
	addq	$56, %r14
	movq	%rbx, %rdi
	movq	%r14, %rsi
	callq	__ZN3syn3gen5visit10visit_path17h0456cb7221010318E
	movq	-64(%rbp), %r14
	movq	-56(%rbp), %r12
	cmpq	%r12, %r14
	je	LBB16_2
LBB16_5:
	leaq	128(%r14), %r15
	leaq	8(%r14), %rsi
	cmpq	$1, (%r14)
	jne	LBB16_8
LBB16_7:
	movq	%rbx, %rdi
	callq	__ZN88_$LT$synstructure..get_ty_params..BoundTypeLocator$u20$as$u20$syn..gen..visit..Visit$GT$11visit_ident17h7ea5f3f875533613E
	movq	%r15, %r14
	cmpq	%r12, %r14
	jne	LBB16_5
LBB16_2:
	movq	-48(%rbp), %r14
	testq	%r14, %r14
	je	LBB16_4
	movq	%r12, %r15
	xorl	%eax, %eax
	movq	%rax, -48(%rbp)
	leaq	8(%r14), %rsi
	cmpq	$1, (%r14)
	je	LBB16_7
LBB16_8:
	movq	%r15, -64(%rbp)
	movq	(%rsi), %rsi
	testq	%rsi, %rsi
	je	LBB16_15
	imulq	$120, 24(%r14), %r13
	addq	%rsi, %r13
	movq	32(%r14), %r12
	cmpq	%r13, %rsi
	je	LBB16_11
	.p2align	4, 0x90
LBB16_13:
	leaq	120(%rsi), %r15
LBB16_14:
	movq	%rbx, %rdi
	callq	__ZN3syn3gen5visit18visit_lifetime_def17h8d0a0a8ab1e7d83aE
	movq	%r15, %rsi
	cmpq	%r13, %rsi
	jne	LBB16_13
LBB16_11:
	testq	%r12, %r12
	je	LBB16_15
	movq	%r12, %rsi
	xorl	%r12d, %r12d
	movq	%r13, %r15
	jmp	LBB16_14
LBB16_4:
	addq	$24, %rsp
	popq	%rbx
	popq	%r12
	popq	%r13
	popq	%r14
	popq	%r15
	popq	%rbp
	retq
	.cfi_endproc

	.p2align	4, 0x90
__ZN3syn3gen5visit18visit_lifetime_def17h8d0a0a8ab1e7d83aE:
	.cfi_startproc
	pushq	%rbp
	.cfi_def_cfa_offset 16
	.cfi_offset %rbp, -16
	movq	%rsp, %rbp
	.cfi_def_cfa_register %rbp
	pushq	%r15
	pushq	%r14
	pushq	%r12
	pushq	%rbx
	.cfi_offset %rbx, -48
	.cfi_offset %r12, -40
	.cfi_offset %r14, -32
	.cfi_offset %r15, -24
	movq	%rsi, %r14
	movq	%rdi, %r15
	movq	16(%rsi), %rax
	testq	%rax, %rax
	je	LBB17_3
	movq	(%r14), %rbx
	imulq	$104, %rax, %r12
	.p2align	4, 0x90
LBB17_2:
	movq	%rbx, %rsi
	addq	$104, %rbx
	movq	%r15, %rdi
	callq	__ZN3syn3gen5visit10visit_path17h0456cb7221010318E
	addq	$-104, %r12
	jne	LBB17_2
LBB17_3:
	leaq	24(%r14), %rsi
	movq	%r15, %rdi
	callq	__ZN88_$LT$synstructure..get_ty_params..BoundTypeLocator$u20$as$u20$syn..gen..visit..Visit$GT$11visit_ident17h7ea5f3f875533613E
	movq	72(%r14), %rsi
	movq	96(%r14), %r12
	imulq	$56, 88(%r14), %r14
	addq	%rsi, %r14
	cmpq	%r14, %rsi
	je	LBB17_5
	.p2align	4, 0x90
LBB17_8:
	leaq	56(%rsi), %rbx
LBB17_9:
	movq	%r15, %rdi
	callq	__ZN88_$LT$synstructure..get_ty_params..BoundTypeLocator$u20$as$u20$syn..gen..visit..Visit$GT$11visit_ident17h7ea5f3f875533613E
	movq	%rbx, %rsi
	cmpq	%r14, %rsi
	jne	LBB17_8
LBB17_5:
	testq	%r12, %r12
	je	LBB17_7
	movq	%r12, %rsi
	xorl	%r12d, %r12d
	movq	%r14, %rbx
	jmp	LBB17_9
LBB17_7:
	popq	%rbx
	popq	%r12
	popq	%r14
	popq	%r15
	popq	%rbp
	retq
	.cfi_endproc

	.p2align	4, 0x90
__ZN3syn3gen5visit23visit_type_trait_object17h3a675d3dfae0d078E:
	.cfi_startproc
	pushq	%rbp
	.cfi_def_cfa_offset 16
	.cfi_offset %rbp, -16
	movq	%rsp, %rbp
	.cfi_def_cfa_register %rbp
	pushq	%r15
	pushq	%r14
	pushq	%r13
	pushq	%r12
	pushq	%rbx
	subq	$24, %rsp
	.cfi_offset %rbx, -56
	.cfi_offset %r12, -48
	.cfi_offset %r13, -40
	.cfi_offset %r14, -32
	.cfi_offset %r15, -24
	movq	%rdi, %rbx
	movq	(%rsi), %r14
	movq	16(%rsi), %r15
	shlq	$7, %r15
	addq	%r14, %r15
	movq	24(%rsi), %rax
	movq	%rax, -48(%rbp)
	movq	%r15, -56(%rbp)
	cmpq	%r15, %r14
	jne	LBB18_5
	jmp	LBB18_2
	.p2align	4, 0x90
LBB18_15:
	addq	$56, %r14
	movq	%rbx, %rdi
	movq	%r14, %rsi
	callq	__ZN3syn3gen5visit10visit_path17h0456cb7221010318E
	movq	-64(%rbp), %r14
	movq	-56(%rbp), %r15
	cmpq	%r15, %r14
	je	LBB18_2
LBB18_5:
	leaq	128(%r14), %r12
	leaq	8(%r14), %rsi
	cmpq	$1, (%r14)
	jne	LBB18_8
LBB18_7:
	movq	%rbx, %rdi
	callq	__ZN88_$LT$synstructure..get_ty_params..BoundTypeLocator$u20$as$u20$syn..gen..visit..Visit$GT$11visit_ident17h7ea5f3f875533613E
	movq	%r12, %r14
	cmpq	%r15, %r14
	jne	LBB18_5
LBB18_2:
	movq	-48(%rbp), %r14
	testq	%r14, %r14
	je	LBB18_4
	movq	%r15, %r12
	xorl	%eax, %eax
	movq	%rax, -48(%rbp)
	leaq	8(%r14), %rsi
	cmpq	$1, (%r14)
	je	LBB18_7
LBB18_8:
	movq	%r12, -64(%rbp)
	movq	(%rsi), %rsi
	testq	%rsi, %rsi
	je	LBB18_15
	imulq	$120, 24(%r14), %r13
	addq	%rsi, %r13
	movq	32(%r14), %r15
	cmpq	%r13, %rsi
	je	LBB18_11
	.p2align	4, 0x90
LBB18_13:
	leaq	120(%rsi), %r12
LBB18_14:
	movq	%rbx, %rdi
	callq	__ZN3syn3gen5visit18visit_lifetime_def17h8d0a0a8ab1e7d83aE
	movq	%r12, %rsi
	cmpq	%r13, %rsi
	jne	LBB18_13
LBB18_11:
	testq	%r15, %r15
	je	LBB18_15
	movq	%r15, %rsi
	xorl	%r15d, %r15d
	movq	%r13, %r12
	jmp	LBB18_14
LBB18_4:
	addq	$24, %rsp
	popq	%rbx
	popq	%r12
	popq	%r13
	popq	%r14
	popq	%r15
	popq	%rbp
	retq
	.cfi_endproc

	.p2align	4, 0x90
__ZN3syn3gen5visit39visit_angle_bracketed_generic_arguments17hffea3f6fb744bbd0E:
	.cfi_startproc
	pushq	%rbp
	.cfi_def_cfa_offset 16
	.cfi_offset %rbp, -16
	movq	%rsp, %rbp
	.cfi_def_cfa_register %rbp
	pushq	%r15
	pushq	%r14
	pushq	%r13
	pushq	%r12
	pushq	%rbx
	pushq	%rax
	.cfi_offset %rbx, -56
	.cfi_offset %r12, -48
	.cfi_offset %r13, -40
	.cfi_offset %r14, -32
	.cfi_offset %r15, -24
	movq	%rdi, %r14
	movq	(%rsi), %rbx
	movq	24(%rsi), %r12
	imulq	$248, 16(%rsi), %r13
	addq	%rbx, %r13
	cmpq	%r13, %rbx
	jne	LBB19_5
	jmp	LBB19_2
	.p2align	4, 0x90
LBB19_9:
	addq	$8, %rbx
LBB19_10:
	movq	%r14, %rdi
	movq	%rbx, %rsi
	callq	__ZN3syn3gen5visit10visit_type17hb24a2a50fb031906E
	movq	%r15, %rbx
	cmpq	%r13, %rbx
	je	LBB19_2
LBB19_5:
	leaq	248(%rbx), %r15
	jmp	LBB19_6
	.p2align	4, 0x90
LBB19_2:
	testq	%r12, %r12
	je	LBB19_4
	movq	%r12, %rbx
	xorl	%r12d, %r12d
	movq	%r13, %r15
LBB19_6:
	movq	(%rbx), %rax
	leaq	LJTI19_0(%rip), %rcx
	movslq	(%rcx,%rax,4), %rax
	addq	%rcx, %rax
	jmpq	*%rax
LBB19_8:
	addq	$8, %rbx
	movq	%r14, %rdi
	movq	%rbx, %rsi
	callq	__ZN88_$LT$synstructure..get_ty_params..BoundTypeLocator$u20$as$u20$syn..gen..visit..Visit$GT$11visit_ident17h7ea5f3f875533613E
	movq	%r15, %rbx
	cmpq	%r13, %rbx
	jne	LBB19_5
	jmp	LBB19_2
	.p2align	4, 0x90
LBB19_11:
	leaq	8(%rbx), %rsi
	movq	%r14, %rdi
	callq	__ZN88_$LT$synstructure..get_ty_params..BoundTypeLocator$u20$as$u20$syn..gen..visit..Visit$GT$11visit_ident17h7ea5f3f875533613E
	addq	$48, %rbx
	jmp	LBB19_10
	.p2align	4, 0x90
LBB19_12:
	addq	$8, %rbx
	movq	%r14, %rdi
	movq	%rbx, %rsi
	callq	__ZN3syn3gen5visit16visit_constraint17h2c7087e417ae14c1E
	movq	%r15, %rbx
	cmpq	%r13, %rbx
	jne	LBB19_5
	jmp	LBB19_2
	.p2align	4, 0x90
LBB19_7:
	addq	$8, %rbx
	movq	%r14, %rdi
	movq	%rbx, %rsi
	callq	__ZN3syn3gen5visit10visit_expr17ha717e805c7344791E
	movq	%r15, %rbx
	cmpq	%r13, %rbx
	jne	LBB19_5
	jmp	LBB19_2
LBB19_4:
	addq	$8, %rsp
	popq	%rbx
	popq	%r12
	popq	%r13
	popq	%r14
	popq	%r15
	popq	%rbp
	retq
	.cfi_endproc
	.p2align	2, 0x90
	.data_region jt32
.set L19_0_set_8, LBB19_8-LJTI19_0
.set L19_0_set_9, LBB19_9-LJTI19_0
.set L19_0_set_11, LBB19_11-LJTI19_0
.set L19_0_set_12, LBB19_12-LJTI19_0
.set L19_0_set_7, LBB19_7-LJTI19_0
LJTI19_0:
	.long	L19_0_set_8
	.long	L19_0_set_9
	.long	L19_0_set_11
	.long	L19_0_set_12
	.long	L19_0_set_7
	.end_data_region

	.section	__TEXT,__literal16,16byte_literals
	.p2align	4
LCPI20_0:
	.quad	1
	.quad	1
	.section	__TEXT,__text,regular,pure_instructions
	.p2align	4, 0x90
__ZN3syn5error5Error11new_spanned17h34b84cfda9e6656eE:
Lfunc_begin2:
	.cfi_startproc
	.cfi_personality 155, _rust_eh_personality
	.cfi_lsda 16, Lexception2
	pushq	%rbp
	.cfi_def_cfa_offset 16
	.cfi_offset %rbp, -16
	movq	%rsp, %rbp
	.cfi_def_cfa_register %rbp
	pushq	%r15
	pushq	%r14
	pushq	%r13
	pushq	%r12
	pushq	%rbx
	subq	$360, %rsp
	.cfi_offset %rbx, -56
	.cfi_offset %r12, -48
	.cfi_offset %r13, -40
	.cfi_offset %r14, -32
	.cfi_offset %r15, -24
	movq	%rdx, %r14
	movq	%rsi, %rbx
	movq	%rdi, %r15
Ltmp30:
	leaq	-192(%rbp), %rdi
	movq	%rdx, -48(%rbp)
	callq	__ZN11proc_macro211TokenStream3new17hf7416635501665dfE
Ltmp31:
Ltmp32:
	leaq	-192(%rbp), %rsi
	movq	%rbx, %rdi
	callq	__ZN74_$LT$syn..generics..GenericParam$u20$as$u20$quote..to_tokens..ToTokens$GT$9to_tokens17h0ba3c122cefb5aa1E
Ltmp33:
	movq	-160(%rbp), %rax
	movq	%rax, -64(%rbp)
	vmovups	-192(%rbp), %ymm0
	vmovups	%ymm0, -96(%rbp)
Ltmp37:
	leaq	-344(%rbp), %rdi
	leaq	-96(%rbp), %rsi
	vzeroupper
	callq	__ZN11proc_macro212token_stream96_$LT$impl$u20$core..iter..traits..collect..IntoIterator$u20$for$u20$proc_macro2..TokenStream$GT$9into_iter17h39488ab0ef27fd69E
Ltmp38:
Ltmp40:
	leaq	-96(%rbp), %rdi
	leaq	-344(%rbp), %rsi
	callq	__ZN94_$LT$proc_macro2..token_stream..IntoIter$u20$as$u20$core..iter..traits..iterator..Iterator$GT$4next17h494f009746b15d02E
Ltmp41:
	cmpl	$4, -96(%rbp)
	movq	%r15, -200(%rbp)
	jne	LBB20_9
Ltmp49:
	callq	__ZN11proc_macro24Span9call_site17h3fa4f93ba68e9f8fE
Ltmp50:
	movl	%eax, %r12d
	jmp	LBB20_11
LBB20_9:
	vmovups	-96(%rbp), %ymm0
	vmovups	-80(%rbp), %ymm1
	vmovups	%ymm1, -176(%rbp)
	vmovups	%ymm0, -192(%rbp)
Ltmp42:
	leaq	-192(%rbp), %rdi
	vzeroupper
	callq	__ZN11proc_macro29TokenTree4span17hd9f5536426d4749aE
Ltmp43:
	movl	%eax, %r12d
Ltmp47:
	leaq	-192(%rbp), %rdi
	callq	__ZN4core3ptr13drop_in_place17h3b0504de734257e5E
Ltmp48:
LBB20_11:
	movq	-312(%rbp), %rax
	vmovups	-344(%rbp), %ymm0
	vmovups	%ymm0, -304(%rbp)
	movq	%rax, -272(%rbp)
	movl	$4, -256(%rbp)
	leaq	-144(%rbp), %rbx
	leaq	-392(%rbp), %r14
	leaq	-304(%rbp), %r15
	leaq	-192(%rbp), %r13
	jmp	LBB20_12
	.p2align	4, 0x90
LBB20_16:
	vmovups	-96(%rbp), %ymm0
	vmovups	-80(%rbp), %ymm1
	vmovups	%ymm0, -256(%rbp)
	vmovups	%ymm1, -240(%rbp)
LBB20_12:
Ltmp52:
	movq	%r14, %rdi
	movq	%r15, %rsi
	vzeroupper
	callq	__ZN94_$LT$proc_macro2..token_stream..IntoIter$u20$as$u20$core..iter..traits..iterator..Iterator$GT$4next17h494f009746b15d02E
Ltmp53:
	cmpl	$4, -392(%rbp)
	je	LBB20_22
	vmovups	-256(%rbp), %ymm0
	vmovups	-240(%rbp), %ymm1
	vmovups	%ymm1, -176(%rbp)
	vmovups	%ymm0, -192(%rbp)
	vmovups	-392(%rbp), %ymm0
	vmovups	-376(%rbp), %ymm1
	vmovups	%ymm1, 16(%rbx)
	vmovups	%ymm0, (%rbx)
	vmovups	-392(%rbp), %ymm0
	vmovups	-376(%rbp), %ymm1
	vmovups	%ymm0, -96(%rbp)
	vmovups	%ymm1, -80(%rbp)
	cmpl	$4, -192(%rbp)
	je	LBB20_16
Ltmp58:
	movq	%r13, %rdi
	vzeroupper
	callq	__ZN4core3ptr13drop_in_place17h3b0504de734257e5E
Ltmp59:
	jmp	LBB20_16
LBB20_22:
	movl	-256(%rbp), %ebx
	vmovups	-252(%rbp), %ymm0
	vmovups	%ymm0, -96(%rbp)
	vmovups	-240(%rbp), %ymm0
	vmovups	%ymm0, -84(%rbp)
Ltmp63:
	leaq	-304(%rbp), %rdi
	vzeroupper
	callq	__ZN4core3ptr13drop_in_place17h610f7686eb66bbc7E
Ltmp64:
	movl	%r12d, %r13d
	cmpl	$4, %ebx
	je	LBB20_26
	movl	%ebx, -192(%rbp)
	vmovups	-96(%rbp), %ymm0
	vmovups	-84(%rbp), %ymm1
	vmovups	%ymm0, -188(%rbp)
	vmovups	%ymm1, -176(%rbp)
Ltmp65:
	leaq	-192(%rbp), %rdi
	vzeroupper
	callq	__ZN11proc_macro29TokenTree4span17hd9f5536426d4749aE
Ltmp66:
	movl	%eax, %r13d
Ltmp70:
	leaq	-192(%rbp), %rdi
	callq	__ZN4core3ptr13drop_in_place17h3b0504de734257e5E
Ltmp71:
LBB20_26:
	movl	$56, %edi
	movl	$8, %esi
	callq	___rust_alloc
	testq	%rax, %rax
	je	LBB20_27
	movq	%rax, %rbx
Ltmp73:
	callq	__ZN3std6thread7current17hd901c0ead2f9a6c7E
Ltmp74:
	movq	%rax, -192(%rbp)
Ltmp76:
	leaq	-192(%rbp), %rdi
	callq	__ZN3std6thread6Thread2id17he4130b41e7b6a502E
Ltmp77:
	movq	%rax, %r14
	movq	-192(%rbp), %rax
	lock		decq	(%rax)
	jne	LBB20_33
	##MEMBARRIER
Ltmp81:
	leaq	-192(%rbp), %rdi
	callq	__ZN5alloc4sync12Arc$LT$T$GT$9drop_slow17he00048d7a746e7b3E
Ltmp82:
LBB20_33:
Ltmp83:
	callq	__ZN3std6thread7current17hd901c0ead2f9a6c7E
Ltmp84:
	movq	%rax, -192(%rbp)
Ltmp86:
	leaq	-192(%rbp), %rdi
	callq	__ZN3std6thread6Thread2id17he4130b41e7b6a502E
Ltmp87:
	movq	%rax, %r15
	movq	-192(%rbp), %rax
	lock		decq	(%rax)
	jne	LBB20_37
	##MEMBARRIER
Ltmp91:
	leaq	-192(%rbp), %rdi
	callq	__ZN5alloc4sync12Arc$LT$T$GT$9drop_slow17he00048d7a746e7b3E
Ltmp92:
LBB20_37:
Ltmp93:
	leaq	-192(%rbp), %rdi
	movq	-48(%rbp), %rsi
	callq	__ZN60_$LT$alloc..string..String$u20$as$u20$core..clone..Clone$GT$5clone17h58f2d97d6470fc46E
Ltmp94:
	movq	-176(%rbp), %rax
	movq	%rax, -80(%rbp)
	vmovups	-192(%rbp), %xmm0
	vmovaps	%xmm0, -96(%rbp)
	movq	%r14, (%rbx)
	movl	%r12d, 8(%rbx)
	movq	%r15, 16(%rbx)
	movl	%r13d, 24(%rbx)
	vmovaps	-96(%rbp), %xmm0
	vmovups	%xmm0, 32(%rbx)
	movq	-80(%rbp), %rax
	movq	%rax, 48(%rbx)
	movq	-200(%rbp), %rax
	movq	%rbx, (%rax)
	vmovaps	LCPI20_0(%rip), %xmm0
	vmovups	%xmm0, 8(%rax)
	movq	-48(%rbp), %rax
	movq	(%rax), %rdi
	testq	%rdi, %rdi
	je	LBB20_41
	movq	8(%rax), %rsi
	testq	%rsi, %rsi
	je	LBB20_41
	movl	$1, %edx
	callq	___rust_dealloc
LBB20_41:
	addq	$360, %rsp
	popq	%rbx
	popq	%r12
	popq	%r13
	popq	%r14
	popq	%r15
	popq	%rbp
	retq
LBB20_27:
	movl	$56, %edi
	movl	$8, %esi
	callq	__ZN5alloc5alloc18handle_alloc_error17hbc0ab0ed90816c07E
LBB20_28:
Ltmp67:
	movq	%rax, %r15
Ltmp68:
	leaq	-192(%rbp), %rdi
	callq	__ZN4core3ptr13drop_in_place17h3b0504de734257e5E
Ltmp69:
	jmp	LBB20_51
LBB20_8:
Ltmp44:
	movq	%rax, %r15
Ltmp45:
	leaq	-192(%rbp), %rdi
	callq	__ZN4core3ptr13drop_in_place17h3b0504de734257e5E
Ltmp46:
	jmp	LBB20_47
LBB20_45:
Ltmp88:
	movq	%rax, %r15
Ltmp89:
	leaq	-192(%rbp), %rdi
	callq	__ZN4core3ptr13drop_in_place17hba37cb38e4717ec7E
Ltmp90:
	jmp	LBB20_54
LBB20_44:
Ltmp85:
	jmp	LBB20_53
LBB20_43:
Ltmp78:
	movq	%rax, %r15
Ltmp79:
	leaq	-192(%rbp), %rdi
	callq	__ZN4core3ptr13drop_in_place17hba37cb38e4717ec7E
Ltmp80:
	jmp	LBB20_54
LBB20_42:
Ltmp75:
	jmp	LBB20_53
LBB20_7:
Ltmp34:
	movq	%rax, %r15
Ltmp35:
	leaq	-192(%rbp), %rdi
	callq	__ZN4core3ptr13drop_in_place17hf11c826f77c0a0bdE
Ltmp36:
	jmp	LBB20_51
LBB20_52:
Ltmp95:
LBB20_53:
	movq	%rax, %r15
LBB20_54:
	movq	%rbx, %rdi
	callq	__ZN5alloc5alloc8box_free17hd106bd6f8f424a24E
	jmp	LBB20_51
LBB20_46:
Ltmp51:
	movq	%rax, %r15
LBB20_47:
	leaq	-344(%rbp), %rdi
	callq	__ZN4core3ptr13drop_in_place17h610f7686eb66bbc7E
	jmp	LBB20_51
LBB20_49:
Ltmp39:
	jmp	LBB20_50
LBB20_18:
Ltmp60:
LBB20_19:
	movq	%rax, %r15
	jmp	LBB20_20
LBB20_17:
Ltmp54:
	movq	%rax, %r15
Ltmp55:
	leaq	-256(%rbp), %rdi
	callq	__ZN4core3ptr13drop_in_place17hd5a83fc63e5b6105E
Ltmp56:
LBB20_20:
Ltmp61:
	leaq	-304(%rbp), %rdi
	callq	__ZN4core3ptr13drop_in_place17h610f7686eb66bbc7E
Ltmp62:
LBB20_51:
	movq	-48(%rbp), %rdi
	callq	__ZN4core3ptr13drop_in_place17h0c020e49c6cb0f14E
	movq	%r15, %rdi
	callq	__Unwind_Resume
	ud2
LBB20_21:
Ltmp57:
	jmp	LBB20_19
LBB20_48:
Ltmp72:
LBB20_50:
	movq	%rax, %r15
	jmp	LBB20_51
Lfunc_end2:
	.cfi_endproc
	.section	__TEXT,__gcc_except_tab
	.p2align	2
GCC_except_table20:
Lexception2:
	.byte	255
	.byte	255
	.byte	1
	.uleb128 Lcst_end2-Lcst_begin2
Lcst_begin2:
	.uleb128 Ltmp30-Lfunc_begin2
	.uleb128 Ltmp31-Ltmp30
	.uleb128 Ltmp39-Lfunc_begin2
	.byte	0
	.uleb128 Ltmp32-Lfunc_begin2
	.uleb128 Ltmp33-Ltmp32
	.uleb128 Ltmp34-Lfunc_begin2
	.byte	0
	.uleb128 Ltmp37-Lfunc_begin2
	.uleb128 Ltmp38-Ltmp37
	.uleb128 Ltmp39-Lfunc_begin2
	.byte	0
	.uleb128 Ltmp40-Lfunc_begin2
	.uleb128 Ltmp50-Ltmp40
	.uleb128 Ltmp51-Lfunc_begin2
	.byte	0
	.uleb128 Ltmp42-Lfunc_begin2
	.uleb128 Ltmp43-Ltmp42
	.uleb128 Ltmp44-Lfunc_begin2
	.byte	0
	.uleb128 Ltmp47-Lfunc_begin2
	.uleb128 Ltmp48-Ltmp47
	.uleb128 Ltmp51-Lfunc_begin2
	.byte	0
	.uleb128 Ltmp52-Lfunc_begin2
	.uleb128 Ltmp53-Ltmp52
	.uleb128 Ltmp54-Lfunc_begin2
	.byte	0
	.uleb128 Ltmp58-Lfunc_begin2
	.uleb128 Ltmp59-Ltmp58
	.uleb128 Ltmp60-Lfunc_begin2
	.byte	0
	.uleb128 Ltmp63-Lfunc_begin2
	.uleb128 Ltmp64-Ltmp63
	.uleb128 Ltmp72-Lfunc_begin2
	.byte	0
	.uleb128 Ltmp65-Lfunc_begin2
	.uleb128 Ltmp66-Ltmp65
	.uleb128 Ltmp67-Lfunc_begin2
	.byte	0
	.uleb128 Ltmp70-Lfunc_begin2
	.uleb128 Ltmp71-Ltmp70
	.uleb128 Ltmp72-Lfunc_begin2
	.byte	0
	.uleb128 Ltmp73-Lfunc_begin2
	.uleb128 Ltmp74-Ltmp73
	.uleb128 Ltmp75-Lfunc_begin2
	.byte	0
	.uleb128 Ltmp76-Lfunc_begin2
	.uleb128 Ltmp77-Ltmp76
	.uleb128 Ltmp78-Lfunc_begin2
	.byte	0
	.uleb128 Ltmp81-Lfunc_begin2
	.uleb128 Ltmp82-Ltmp81
	.uleb128 Ltmp95-Lfunc_begin2
	.byte	0
	.uleb128 Ltmp83-Lfunc_begin2
	.uleb128 Ltmp84-Ltmp83
	.uleb128 Ltmp85-Lfunc_begin2
	.byte	0
	.uleb128 Ltmp86-Lfunc_begin2
	.uleb128 Ltmp87-Ltmp86
	.uleb128 Ltmp88-Lfunc_begin2
	.byte	0
	.uleb128 Ltmp91-Lfunc_begin2
	.uleb128 Ltmp94-Ltmp91
	.uleb128 Ltmp95-Lfunc_begin2
	.byte	0
	.uleb128 Ltmp68-Lfunc_begin2
	.uleb128 Ltmp69-Ltmp68
	.uleb128 Ltmp72-Lfunc_begin2
	.byte	0
	.uleb128 Ltmp45-Lfunc_begin2
	.uleb128 Ltmp46-Ltmp45
	.uleb128 Ltmp51-Lfunc_begin2
	.byte	0
	.uleb128 Ltmp89-Lfunc_begin2
	.uleb128 Ltmp80-Ltmp89
	.uleb128 Ltmp95-Lfunc_begin2
	.byte	0
	.uleb128 Ltmp35-Lfunc_begin2
	.uleb128 Ltmp36-Ltmp35
	.uleb128 Ltmp39-Lfunc_begin2
	.byte	0
	.uleb128 Ltmp36-Lfunc_begin2
	.uleb128 Ltmp55-Ltmp36
	.byte	0
	.byte	0
	.uleb128 Ltmp55-Lfunc_begin2
	.uleb128 Ltmp56-Ltmp55
	.uleb128 Ltmp57-Lfunc_begin2
	.byte	0
	.uleb128 Ltmp61-Lfunc_begin2
	.uleb128 Ltmp62-Ltmp61
	.uleb128 Ltmp72-Lfunc_begin2
	.byte	0
	.uleb128 Ltmp62-Lfunc_begin2
	.uleb128 Lfunc_end2-Ltmp62
	.byte	0
	.byte	0
Lcst_end2:
	.p2align	2

	.section	__TEXT,__literal16,16byte_literals
	.p2align	4
LCPI21_0:
	.quad	1
	.quad	1
	.section	__TEXT,__text,regular,pure_instructions
	.p2align	4, 0x90
__ZN3syn5error5Error3new17hc432ea88049ed180E:
Lfunc_begin3:
	.cfi_startproc
	.cfi_personality 155, _rust_eh_personality
	.cfi_lsda 16, Lexception3
	pushq	%rbp
	.cfi_def_cfa_offset 16
	.cfi_offset %rbp, -16
	movq	%rsp, %rbp
	.cfi_def_cfa_register %rbp
	pushq	%r15
	pushq	%r14
	pushq	%r13
	pushq	%r12
	pushq	%rbx
	subq	$136, %rsp
	.cfi_offset %rbx, -56
	.cfi_offset %r12, -48
	.cfi_offset %r13, -40
	.cfi_offset %r14, -32
	.cfi_offset %r15, -24
	movl	%esi, %r13d
	movq	%rdi, %r15
	movq	%rdx, -152(%rbp)
	movq	%rcx, -144(%rbp)
	movl	$56, %edi
	movl	$8, %esi
	callq	___rust_alloc
	testq	%rax, %rax
	je	LBB21_32
	movq	%rax, %rbx
Ltmp96:
	callq	__ZN3std6thread7current17hd901c0ead2f9a6c7E
Ltmp97:
	movq	%rax, -112(%rbp)
Ltmp99:
	leaq	-112(%rbp), %rdi
	callq	__ZN3std6thread6Thread2id17he4130b41e7b6a502E
Ltmp100:
	movq	%rax, %r12
	movq	-112(%rbp), %rax
	lock		decq	(%rax)
	jne	LBB21_5
	##MEMBARRIER
Ltmp104:
	leaq	-112(%rbp), %rdi
	callq	__ZN5alloc4sync12Arc$LT$T$GT$9drop_slow17he00048d7a746e7b3E
Ltmp105:
LBB21_5:
Ltmp106:
	callq	__ZN3std6thread7current17hd901c0ead2f9a6c7E
Ltmp107:
	movq	%rax, -112(%rbp)
Ltmp109:
	leaq	-112(%rbp), %rdi
	callq	__ZN3std6thread6Thread2id17he4130b41e7b6a502E
Ltmp110:
	movq	%rax, -120(%rbp)
	movq	-112(%rbp), %rax
	lock		decq	(%rax)
	jne	LBB21_9
	##MEMBARRIER
Ltmp114:
	leaq	-112(%rbp), %rdi
	callq	__ZN5alloc4sync12Arc$LT$T$GT$9drop_slow17he00048d7a746e7b3E
Ltmp115:
LBB21_9:
	leaq	-152(%rbp), %rax
	movq	%rax, -128(%rbp)
	movq	$1, -64(%rbp)
	vxorps	%xmm0, %xmm0, %xmm0
	vmovups	%xmm0, -56(%rbp)
	leaq	-128(%rbp), %rax
	movq	%rax, -168(%rbp)
	leaq	__ZN44_$LT$$RF$T$u20$as$u20$core..fmt..Display$GT$3fmt17h3320d91cc9603c75E(%rip), %rax
	movq	%rax, -160(%rbp)
	leaq	-64(%rbp), %rax
	movq	%rax, -136(%rbp)
	leaq	l___unnamed_6(%rip), %rax
	movq	%rax, -112(%rbp)
	movq	$1, -104(%rbp)
	movq	$0, -96(%rbp)
	leaq	-168(%rbp), %rax
	movq	%rax, -80(%rbp)
	movq	$1, -72(%rbp)
Ltmp117:
	leaq	l___unnamed_7(%rip), %rsi
	leaq	-136(%rbp), %rdi
	leaq	-112(%rbp), %rdx
	callq	__ZN4core3fmt5write17h26bd57c1fd6e9c98E
Ltmp118:
	testb	%al, %al
	jne	LBB21_11
	movq	%r12, %r14
	movq	-56(%rbp), %rsi
	movq	-48(%rbp), %r12
	cmpq	%r12, %rsi
	je	LBB21_25
	jb	LBB21_22
	testq	%rsi, %rsi
	je	LBB21_25
	movq	-64(%rbp), %rdi
	testq	%rdi, %rdi
	je	LBB21_25
	movl	$1, %edx
	testq	%r12, %r12
	je	LBB21_21
	movq	%r12, %rcx
	callq	___rust_realloc
	testq	%rax, %rax
	jne	LBB21_24
	movl	$1, %esi
	movq	%r12, %rdi
	callq	__ZN5alloc5alloc18handle_alloc_error17hbc0ab0ed90816c07E
LBB21_21:
	callq	___rust_dealloc
	movl	$1, %eax
LBB21_24:
	movq	%rax, -64(%rbp)
	movq	%r12, -56(%rbp)
LBB21_25:
	movq	-48(%rbp), %rax
	movq	%rax, -96(%rbp)
	movq	-64(%rbp), %rax
	movq	%rax, -112(%rbp)
	movq	-56(%rbp), %rax
	movq	%rax, -104(%rbp)
	movq	%r14, (%rbx)
	movl	%r13d, 8(%rbx)
	movq	-120(%rbp), %rax
	movq	%rax, 16(%rbx)
	movl	%r13d, 24(%rbx)
	movq	-112(%rbp), %rax
	movq	%rax, 32(%rbx)
	movq	-104(%rbp), %rax
	movq	%rax, 40(%rbx)
	movq	-96(%rbp), %rax
	movq	%rax, 48(%rbx)
	movq	%rbx, (%r15)
	vmovaps	LCPI21_0(%rip), %xmm0
	vmovups	%xmm0, 8(%r15)
	addq	$136, %rsp
	popq	%rbx
	popq	%r12
	popq	%r13
	popq	%r14
	popq	%r15
	popq	%rbp
	retq
LBB21_32:
	movl	$56, %edi
	movl	$8, %esi
	callq	__ZN5alloc5alloc18handle_alloc_error17hbc0ab0ed90816c07E
LBB21_11:
Ltmp121:
	leaq	l___unnamed_8(%rip), %rdi
	leaq	l___unnamed_9(%rip), %rcx
	leaq	l___unnamed_10(%rip), %r8
	leaq	-112(%rbp), %rdx
	movl	$55, %esi
	callq	__ZN4core6result13unwrap_failed17hb5a510096a5fc85fE
Ltmp122:
	jmp	LBB21_12
LBB21_22:
Ltmp119:
	leaq	l___unnamed_11(%rip), %rdi
	leaq	l___unnamed_12(%rip), %rdx
	movl	$36, %esi
	callq	__ZN4core9panicking5panic17h736ee47a631475c0E
Ltmp120:
LBB21_12:
	ud2
LBB21_27:
Ltmp123:
	movq	%rax, %r14
	leaq	-64(%rbp), %rdi
	callq	__ZN4core3ptr13drop_in_place17h0c020e49c6cb0f14E
	jmp	LBB21_30
LBB21_15:
Ltmp111:
	movq	%rax, %r14
Ltmp112:
	leaq	-112(%rbp), %rdi
	callq	__ZN4core3ptr13drop_in_place17hba37cb38e4717ec7E
Ltmp113:
	jmp	LBB21_30
LBB21_14:
Ltmp108:
	jmp	LBB21_29
LBB21_13:
Ltmp101:
	movq	%rax, %r14
Ltmp102:
	leaq	-112(%rbp), %rdi
	callq	__ZN4core3ptr13drop_in_place17hba37cb38e4717ec7E
Ltmp103:
	jmp	LBB21_30
LBB21_31:
Ltmp116:
	jmp	LBB21_29
LBB21_28:
Ltmp98:
LBB21_29:
	movq	%rax, %r14
LBB21_30:
	movq	%rbx, %rdi
	callq	__ZN5alloc5alloc8box_free17hd106bd6f8f424a24E
	movq	%r14, %rdi
	callq	__Unwind_Resume
	ud2
Lfunc_end3:
	.cfi_endproc
	.section	__TEXT,__gcc_except_tab
	.p2align	2
GCC_except_table21:
Lexception3:
	.byte	255
	.byte	255
	.byte	1
	.uleb128 Lcst_end3-Lcst_begin3
Lcst_begin3:
	.uleb128 Ltmp96-Lfunc_begin3
	.uleb128 Ltmp97-Ltmp96
	.uleb128 Ltmp98-Lfunc_begin3
	.byte	0
	.uleb128 Ltmp99-Lfunc_begin3
	.uleb128 Ltmp100-Ltmp99
	.uleb128 Ltmp101-Lfunc_begin3
	.byte	0
	.uleb128 Ltmp104-Lfunc_begin3
	.uleb128 Ltmp105-Ltmp104
	.uleb128 Ltmp116-Lfunc_begin3
	.byte	0
	.uleb128 Ltmp106-Lfunc_begin3
	.uleb128 Ltmp107-Ltmp106
	.uleb128 Ltmp108-Lfunc_begin3
	.byte	0
	.uleb128 Ltmp109-Lfunc_begin3
	.uleb128 Ltmp110-Ltmp109
	.uleb128 Ltmp111-Lfunc_begin3
	.byte	0
	.uleb128 Ltmp114-Lfunc_begin3
	.uleb128 Ltmp115-Ltmp114
	.uleb128 Ltmp116-Lfunc_begin3
	.byte	0
	.uleb128 Ltmp117-Lfunc_begin3
	.uleb128 Ltmp120-Ltmp117
	.uleb128 Ltmp123-Lfunc_begin3
	.byte	0
	.uleb128 Ltmp112-Lfunc_begin3
	.uleb128 Ltmp103-Ltmp112
	.uleb128 Ltmp116-Lfunc_begin3
	.byte	0
	.uleb128 Ltmp103-Lfunc_begin3
	.uleb128 Lfunc_end3-Ltmp103
	.byte	0
	.byte	0
Lcst_end3:
	.p2align	2

	.section	__TEXT,__text,regular,pure_instructions
	.p2align	4, 0x90
__ZN42_$LT$$RF$T$u20$as$u20$core..fmt..Debug$GT$3fmt17h040b83a9243c4a5eE:
	.cfi_startproc
	pushq	%rbp
	.cfi_def_cfa_offset 16
	.cfi_offset %rbp, -16
	movq	%rsp, %rbp
	.cfi_def_cfa_register %rbp
	movq	(%rdi), %rdi
	popq	%rbp
	jmp	__ZN51_$LT$syn..token..Eq$u20$as$u20$core..fmt..Debug$GT$3fmt17h35b8459dae30ff6aE
	.cfi_endproc

	.p2align	4, 0x90
__ZN42_$LT$$RF$T$u20$as$u20$core..fmt..Debug$GT$3fmt17h06d22aa6bf166621E:
	.cfi_startproc
	pushq	%rbp
	.cfi_def_cfa_offset 16
	.cfi_offset %rbp, -16
	movq	%rsp, %rbp
	.cfi_def_cfa_register %rbp
	movq	(%rdi), %rdi
	popq	%rbp
	jmp	__ZN57_$LT$syn..attr..Attribute$u20$as$u20$core..fmt..Debug$GT$3fmt17hbe36b66fa9b49e72E
	.cfi_endproc

	.p2align	4, 0x90
__ZN42_$LT$$RF$T$u20$as$u20$core..fmt..Debug$GT$3fmt17h099b41f4f93bcbe0E:
	.cfi_startproc
	pushq	%rbp
	.cfi_def_cfa_offset 16
	.cfi_offset %rbp, -16
	movq	%rsp, %rbp
	.cfi_def_cfa_register %rbp
	pushq	%r15
	pushq	%r14
	pushq	%r13
	pushq	%r12
	pushq	%rbx
	subq	$24, %rsp
	.cfi_offset %rbx, -56
	.cfi_offset %r12, -48
	.cfi_offset %r13, -40
	.cfi_offset %r14, -32
	.cfi_offset %r15, -24
	movq	(%rdi), %rax
	movq	(%rax), %r13
	movq	16(%rax), %rbx
	leaq	-64(%rbp), %rdi
	callq	__ZN4core3fmt9Formatter10debug_list17hd054f0986422feb9E
	testq	%rbx, %rbx
	je	LBB24_3
	shlq	$7, %rbx
	leaq	(%rbx,%rbx,2), %rbx
	leaq	l___unnamed_13(%rip), %r14
	leaq	-64(%rbp), %r15
	leaq	-48(%rbp), %r12
	.p2align	4, 0x90
LBB24_2:
	movq	%r13, -48(%rbp)
	addq	$384, %r13
	movq	%r15, %rdi
	movq	%r12, %rsi
	movq	%r14, %rdx
	callq	__ZN4core3fmt8builders9DebugList5entry17h5c0dec54538196dfE
	addq	$-384, %rbx
	jne	LBB24_2
LBB24_3:
	leaq	-64(%rbp), %rdi
	callq	__ZN4core3fmt8builders9DebugList6finish17h3635bd6af9b1c5a6E
	addq	$24, %rsp
	popq	%rbx
	popq	%r12
	popq	%r13
	popq	%r14
	popq	%r15
	popq	%rbp
	retq
	.cfi_endproc

	.p2align	4, 0x90
__ZN42_$LT$$RF$T$u20$as$u20$core..fmt..Debug$GT$3fmt17h0a13ca1753271648E:
	.cfi_startproc
	pushq	%rbp
	.cfi_def_cfa_offset 16
	.cfi_offset %rbp, -16
	movq	%rsp, %rbp
	.cfi_def_cfa_register %rbp
	movq	(%rdi), %rax
	movq	(%rax), %rdi
	popq	%rbp
	jmp	__ZN55_$LT$proc_macro2..Ident$u20$as$u20$core..fmt..Debug$GT$3fmt17h7fde98d30fd73473E
	.cfi_endproc

	.p2align	4, 0x90
__ZN42_$LT$$RF$T$u20$as$u20$core..fmt..Debug$GT$3fmt17h0aad0a77d7c33b4cE:
	.cfi_startproc
	pushq	%rbp
	.cfi_def_cfa_offset 16
	.cfi_offset %rbp, -16
	movq	%rsp, %rbp
	.cfi_def_cfa_register %rbp
	pushq	%r15
	pushq	%r14
	pushq	%r13
	pushq	%r12
	pushq	%rbx
	subq	$24, %rsp
	.cfi_offset %rbx, -56
	.cfi_offset %r12, -48
	.cfi_offset %r13, -40
	.cfi_offset %r14, -32
	.cfi_offset %r15, -24
	movq	(%rdi), %rax
	movq	(%rax), %rbx
	movq	16(%rax), %r13
	leaq	-64(%rbp), %rdi
	callq	__ZN4core3fmt9Formatter10debug_list17hd054f0986422feb9E
	testq	%r13, %r13
	je	LBB26_3
	leaq	l___unnamed_14(%rip), %r14
	leaq	-64(%rbp), %r15
	leaq	-48(%rbp), %r12
	.p2align	4, 0x90
LBB26_2:
	movq	%rbx, -48(%rbp)
	movq	%r15, %rdi
	movq	%r12, %rsi
	movq	%r14, %rdx
	callq	__ZN4core3fmt8builders9DebugList5entry17h5c0dec54538196dfE
	incq	%rbx
	decq	%r13
	jne	LBB26_2
LBB26_3:
	leaq	-64(%rbp), %rdi
	callq	__ZN4core3fmt8builders9DebugList6finish17h3635bd6af9b1c5a6E
	addq	$24, %rsp
	popq	%rbx
	popq	%r12
	popq	%r13
	popq	%r14
	popq	%r15
	popq	%rbp
	retq
	.cfi_endproc

	.p2align	4, 0x90
__ZN42_$LT$$RF$T$u20$as$u20$core..fmt..Debug$GT$3fmt17h0d6835f3c4d0cf54E:
	.cfi_startproc
	pushq	%rbp
	.cfi_def_cfa_offset 16
	.cfi_offset %rbp, -16
	movq	%rsp, %rbp
	.cfi_def_cfa_register %rbp
	pushq	%r14
	pushq	%rbx
	subq	$32, %rsp
	.cfi_offset %rbx, -32
	.cfi_offset %r14, -24
	movq	(%rdi), %rbx
	cmpq	$0, (%rbx)
	je	LBB27_2
	leaq	-48(%rbp), %r14
	leaq	L___unnamed_15(%rip), %rdx
	movl	$4, %ecx
	movq	%r14, %rdi
	callq	__ZN4core3fmt9Formatter11debug_tuple17h15ca25ad759edd1cE
	movq	%rbx, -24(%rbp)
	leaq	l___unnamed_16(%rip), %rdx
	leaq	-24(%rbp), %rsi
	movq	%r14, %rdi
	callq	__ZN4core3fmt8builders10DebugTuple5field17hf36121153a94f236E
	jmp	LBB27_3
LBB27_2:
	leaq	-48(%rbp), %r14
	leaq	L___unnamed_17(%rip), %rdx
	movl	$4, %ecx
	movq	%r14, %rdi
	callq	__ZN4core3fmt9Formatter11debug_tuple17h15ca25ad759edd1cE
LBB27_3:
	movq	%r14, %rdi
	callq	__ZN4core3fmt8builders10DebugTuple6finish17h68acf09c6f6593f2E
	addq	$32, %rsp
	popq	%rbx
	popq	%r14
	popq	%rbp
	retq
	.cfi_endproc

	.p2align	4, 0x90
__ZN42_$LT$$RF$T$u20$as$u20$core..fmt..Debug$GT$3fmt17h10f8826493f404dbE:
	.cfi_startproc
	pushq	%rbp
	.cfi_def_cfa_offset 16
	.cfi_offset %rbp, -16
	movq	%rsp, %rbp
	.cfi_def_cfa_register %rbp
	pushq	%r15
	pushq	%r14
	pushq	%r13
	pushq	%r12
	pushq	%rbx
	subq	$24, %rsp
	.cfi_offset %rbx, -56
	.cfi_offset %r12, -48
	.cfi_offset %r13, -40
	.cfi_offset %r14, -32
	.cfi_offset %r15, -24
	movq	(%rdi), %rax
	movq	(%rax), %r13
	movq	16(%rax), %rbx
	leaq	-64(%rbp), %rdi
	callq	__ZN4core3fmt9Formatter10debug_list17hd054f0986422feb9E
	testq	%rbx, %rbx
	je	LBB28_3
	shlq	$7, %rbx
	leaq	(%rbx,%rbx,2), %rbx
	leaq	l___unnamed_18(%rip), %r14
	leaq	-64(%rbp), %r15
	leaq	-48(%rbp), %r12
	.p2align	4, 0x90
LBB28_2:
	movq	%r13, -48(%rbp)
	addq	$384, %r13
	movq	%r15, %rdi
	movq	%r12, %rsi
	movq	%r14, %rdx
	callq	__ZN4core3fmt8builders9DebugList5entry17h5c0dec54538196dfE
	addq	$-384, %rbx
	jne	LBB28_2
LBB28_3:
	leaq	-64(%rbp), %rdi
	callq	__ZN4core3fmt8builders9DebugList6finish17h3635bd6af9b1c5a6E
	addq	$24, %rsp
	popq	%rbx
	popq	%r12
	popq	%r13
	popq	%r14
	popq	%r15
	popq	%rbp
	retq
	.cfi_endproc

	.p2align	4, 0x90
__ZN42_$LT$$RF$T$u20$as$u20$core..fmt..Debug$GT$3fmt17h2a1dfe791d711b5cE:
	.cfi_startproc
	pushq	%rbp
	.cfi_def_cfa_offset 16
	.cfi_offset %rbp, -16
	movq	%rsp, %rbp
	.cfi_def_cfa_register %rbp
	movq	(%rdi), %rax
	movq	(%rax), %rdi
	popq	%rbp
	jmp	__ZN53_$LT$syn..data..Field$u20$as$u20$core..fmt..Debug$GT$3fmt17hae2f8c76ff4d81acE
	.cfi_endproc

	.p2align	4, 0x90
__ZN42_$LT$$RF$T$u20$as$u20$core..fmt..Debug$GT$3fmt17h53f266991960a622E:
	.cfi_startproc
	pushq	%rbp
	.cfi_def_cfa_offset 16
	.cfi_offset %rbp, -16
	movq	%rsp, %rbp
	.cfi_def_cfa_register %rbp
	movq	(%rdi), %rdi
	popq	%rbp
	jmp	__ZN64_$LT$syn..generics..GenericParam$u20$as$u20$core..fmt..Debug$GT$3fmt17hf1e2ebdc6ef54663E
	.cfi_endproc

	.p2align	4, 0x90
__ZN42_$LT$$RF$T$u20$as$u20$core..fmt..Debug$GT$3fmt17h5de66b26aa1cbc21E:
	.cfi_startproc
	pushq	%rbp
	.cfi_def_cfa_offset 16
	.cfi_offset %rbp, -16
	movq	%rsp, %rbp
	.cfi_def_cfa_register %rbp
	pushq	%r15
	pushq	%r14
	pushq	%r13
	pushq	%r12
	pushq	%rbx
	subq	$24, %rsp
	.cfi_offset %rbx, -56
	.cfi_offset %r12, -48
	.cfi_offset %r13, -40
	.cfi_offset %r14, -32
	.cfi_offset %r15, -24
	movq	(%rdi), %rbx
	leaq	l___unnamed_19(%rip), %rdx
	leaq	-64(%rbp), %r15
	movl	$10, %ecx
	movq	%r15, %rdi
	callq	__ZN4core3fmt9Formatter12debug_struct17h985c0158d1fc7193E
	movq	%rbx, -48(%rbp)
	leaq	16(%rbx), %r12
	leaq	24(%rbx), %r13
	leaq	32(%rbx), %r14
	leaq	l___unnamed_20(%rip), %rsi
	leaq	l___unnamed_21(%rip), %r8
	leaq	-48(%rbp), %rcx
	movl	$5, %edx
	movq	%r15, %rdi
	callq	__ZN4core3fmt8builders11DebugStruct5field17h9c15dc155278eed2E
	movq	%r12, -48(%rbp)
	leaq	l___unnamed_22(%rip), %rsi
	leaq	l___unnamed_16(%rip), %r8
	leaq	-48(%rbp), %rcx
	movl	$5, %edx
	movq	%r15, %rdi
	callq	__ZN4core3fmt8builders11DebugStruct5field17h9c15dc155278eed2E
	movq	%r13, -48(%rbp)
	leaq	l___unnamed_23(%rip), %rsi
	leaq	l___unnamed_24(%rip), %r8
	leaq	-48(%rbp), %rcx
	movl	$6, %edx
	movq	%r15, %rdi
	callq	__ZN4core3fmt8builders11DebugStruct5field17h9c15dc155278eed2E
	movq	%r14, -48(%rbp)
	leaq	l___unnamed_25(%rip), %rsi
	leaq	l___unnamed_26(%rip), %r8
	leaq	-48(%rbp), %rcx
	movl	$12, %edx
	movq	%r15, %rdi
	callq	__ZN4core3fmt8builders11DebugStruct5field17h9c15dc155278eed2E
	movq	%r15, %rdi
	callq	__ZN4core3fmt8builders11DebugStruct6finish17h26808393f3fed630E
	addq	$24, %rsp
	popq	%rbx
	popq	%r12
	popq	%r13
	popq	%r14
	popq	%r15
	popq	%rbp
	retq
	.cfi_endproc

	.p2align	4, 0x90
__ZN42_$LT$$RF$T$u20$as$u20$core..fmt..Debug$GT$3fmt17h6288a2fc3c29502aE:
	.cfi_startproc
	pushq	%rbp
	.cfi_def_cfa_offset 16
	.cfi_offset %rbp, -16
	movq	%rsp, %rbp
	.cfi_def_cfa_register %rbp
	pushq	%r14
	pushq	%rbx
	subq	$32, %rsp
	.cfi_offset %rbx, -32
	.cfi_offset %r14, -24
	movq	(%rdi), %rax
	movq	(%rax), %rbx
	cmpq	$41, 8(%rbx)
	jne	LBB32_1
	leaq	-48(%rbp), %r14
	leaq	L___unnamed_17(%rip), %rdx
	movl	$4, %ecx
	movq	%r14, %rdi
	callq	__ZN4core3fmt9Formatter11debug_tuple17h15ca25ad759edd1cE
	jmp	LBB32_3
LBB32_1:
	leaq	-48(%rbp), %r14
	leaq	L___unnamed_15(%rip), %rdx
	movl	$4, %ecx
	movq	%r14, %rdi
	callq	__ZN4core3fmt9Formatter11debug_tuple17h15ca25ad759edd1cE
	movq	%rbx, -24(%rbp)
	leaq	l___unnamed_27(%rip), %rdx
	leaq	-24(%rbp), %rsi
	movq	%r14, %rdi
	callq	__ZN4core3fmt8builders10DebugTuple5field17hf36121153a94f236E
LBB32_3:
	movq	%r14, %rdi
	callq	__ZN4core3fmt8builders10DebugTuple6finish17h68acf09c6f6593f2E
	addq	$32, %rsp
	popq	%rbx
	popq	%r14
	popq	%rbp
	retq
	.cfi_endproc

	.p2align	4, 0x90
__ZN42_$LT$$RF$T$u20$as$u20$core..fmt..Debug$GT$3fmt17h6e9b173f7db19b1cE:
	.cfi_startproc
	pushq	%rbp
	.cfi_def_cfa_offset 16
	.cfi_offset %rbp, -16
	movq	%rsp, %rbp
	.cfi_def_cfa_register %rbp
	movq	(%rdi), %rdi
	popq	%rbp
	jmp	__ZN66_$LT$syn..generics..WherePredicate$u20$as$u20$core..fmt..Debug$GT$3fmt17h547fa23f657bcec3E
	.cfi_endproc

	.p2align	4, 0x90
__ZN42_$LT$$RF$T$u20$as$u20$core..fmt..Debug$GT$3fmt17h7d6a515175f6114dE:
	.cfi_startproc
	pushq	%rbp
	.cfi_def_cfa_offset 16
	.cfi_offset %rbp, -16
	movq	%rsp, %rbp
	.cfi_def_cfa_register %rbp
	pushq	%r15
	pushq	%r14
	pushq	%r13
	pushq	%r12
	pushq	%rbx
	subq	$24, %rsp
	.cfi_offset %rbx, -56
	.cfi_offset %r12, -48
	.cfi_offset %r13, -40
	.cfi_offset %r14, -32
	.cfi_offset %r15, -24
	movq	(%rdi), %rbx
	leaq	l___unnamed_28(%rip), %rdx
	leaq	-64(%rbp), %r12
	movl	$11, %ecx
	movq	%r12, %rdi
	callq	__ZN4core3fmt9Formatter12debug_struct17h985c0158d1fc7193E
	movq	%rbx, -48(%rbp)
	leaq	8(%rbx), %r13
	leaq	80(%rbx), %r14
	leaq	32(%rbx), %r15
	leaq	72(%rbx), %rbx
	leaq	l___unnamed_29(%rip), %rsi
	leaq	l___unnamed_30(%rip), %r8
	leaq	-48(%rbp), %rcx
	movl	$6, %edx
	movq	%r12, %rdi
	callq	__ZN4core3fmt8builders11DebugStruct5field17h9c15dc155278eed2E
	movq	%r13, -48(%rbp)
	leaq	L___unnamed_31(%rip), %rsi
	leaq	l___unnamed_32(%rip), %r8
	leaq	-48(%rbp), %rcx
	movl	$8, %edx
	movq	%r12, %rdi
	callq	__ZN4core3fmt8builders11DebugStruct5field17h9c15dc155278eed2E
	movq	%r14, -48(%rbp)
	leaq	l___unnamed_33(%rip), %rsi
	leaq	l___unnamed_14(%rip), %r8
	leaq	-48(%rbp), %rcx
	movl	$14, %edx
	movq	%r12, %rdi
	callq	__ZN4core3fmt8builders11DebugStruct5field17h9c15dc155278eed2E
	movq	%r15, -48(%rbp)
	leaq	l___unnamed_34(%rip), %rsi
	leaq	l___unnamed_35(%rip), %r8
	leaq	-48(%rbp), %rcx
	movl	$3, %edx
	movq	%r12, %rdi
	callq	__ZN4core3fmt8builders11DebugStruct5field17h9c15dc155278eed2E
	movq	%rbx, -48(%rbp)
	leaq	L___unnamed_36(%rip), %rsi
	leaq	l___unnamed_37(%rip), %r8
	leaq	-48(%rbp), %rcx
	movl	$8, %edx
	movq	%r12, %rdi
	callq	__ZN4core3fmt8builders11DebugStruct5field17h9c15dc155278eed2E
	movq	%r12, %rdi
	callq	__ZN4core3fmt8builders11DebugStruct6finish17h26808393f3fed630E
	addq	$24, %rsp
	popq	%rbx
	popq	%r12
	popq	%r13
	popq	%r14
	popq	%r15
	popq	%rbp
	retq
	.cfi_endproc

	.p2align	4, 0x90
__ZN42_$LT$$RF$T$u20$as$u20$core..fmt..Debug$GT$3fmt17h833e6b3696c8a1d2E:
	.cfi_startproc
	pushq	%rbp
	.cfi_def_cfa_offset 16
	.cfi_offset %rbp, -16
	movq	%rsp, %rbp
	.cfi_def_cfa_register %rbp
	pushq	%r14
	pushq	%rbx
	subq	$48, %rsp
	.cfi_offset %rbx, -32
	.cfi_offset %r14, -24
	movq	(%rdi), %rbx
	leaq	l___unnamed_38(%rip), %rdx
	leaq	-56(%rbp), %r14
	movq	%r14, %rdi
	xorl	%ecx, %ecx
	callq	__ZN4core3fmt9Formatter11debug_tuple17h15ca25ad759edd1cE
	movq	%rbx, -24(%rbp)
	addq	$8, %rbx
	movq	%rbx, -32(%rbp)
	leaq	l___unnamed_39(%rip), %rdx
	leaq	-24(%rbp), %rsi
	movq	%r14, %rdi
	callq	__ZN4core3fmt8builders10DebugTuple5field17hf36121153a94f236E
	leaq	l___unnamed_40(%rip), %rdx
	leaq	-32(%rbp), %rsi
	movq	%r14, %rdi
	callq	__ZN4core3fmt8builders10DebugTuple5field17hf36121153a94f236E
	movq	%r14, %rdi
	callq	__ZN4core3fmt8builders10DebugTuple6finish17h68acf09c6f6593f2E
	addq	$48, %rsp
	popq	%rbx
	popq	%r14
	popq	%rbp
	retq
	.cfi_endproc

	.p2align	4, 0x90
__ZN42_$LT$$RF$T$u20$as$u20$core..fmt..Debug$GT$3fmt17h979056432d215d35E:
	.cfi_startproc
	pushq	%rbp
	.cfi_def_cfa_offset 16
	.cfi_offset %rbp, -16
	movq	%rsp, %rbp
	.cfi_def_cfa_register %rbp
	pushq	%r15
	pushq	%r14
	pushq	%r13
	pushq	%r12
	pushq	%rbx
	subq	$24, %rsp
	.cfi_offset %rbx, -56
	.cfi_offset %r12, -48
	.cfi_offset %r13, -40
	.cfi_offset %r14, -32
	.cfi_offset %r15, -24
	movq	(%rdi), %rbx
	leaq	l___unnamed_41(%rip), %rdx
	leaq	-64(%rbp), %r12
	movl	$11, %ecx
	movq	%r12, %rdi
	callq	__ZN4core3fmt9Formatter12debug_struct17h985c0158d1fc7193E
	movq	%rbx, -48(%rbp)
	leaq	80(%rbx), %r13
	leaq	40(%rbx), %r14
	leaq	48(%rbx), %r15
	leaq	56(%rbx), %rbx
	leaq	l___unnamed_42(%rip), %rsi
	leaq	l___unnamed_43(%rip), %r8
	leaq	-48(%rbp), %rcx
	movl	$7, %edx
	movq	%r12, %rdi
	callq	__ZN4core3fmt8builders11DebugStruct5field17h9c15dc155278eed2E
	movq	%r13, -48(%rbp)
	leaq	l___unnamed_44(%rip), %rsi
	leaq	l___unnamed_45(%rip), %r8
	leaq	-48(%rbp), %rcx
	movl	$5, %edx
	movq	%r12, %rdi
	callq	__ZN4core3fmt8builders11DebugStruct5field17h9c15dc155278eed2E
	movq	%r14, -48(%rbp)
	leaq	l___unnamed_46(%rip), %rsi
	leaq	l___unnamed_47(%rip), %r8
	leaq	-48(%rbp), %rcx
	movl	$5, %edx
	movq	%r12, %rdi
	callq	__ZN4core3fmt8builders11DebugStruct5field17h9c15dc155278eed2E
	movq	%r15, -48(%rbp)
	leaq	L___unnamed_36(%rip), %rsi
	leaq	l___unnamed_37(%rip), %r8
	leaq	-48(%rbp), %rcx
	movl	$8, %edx
	movq	%r12, %rdi
	callq	__ZN4core3fmt8builders11DebugStruct5field17h9c15dc155278eed2E
	movq	%rbx, -48(%rbp)
	leaq	l___unnamed_48(%rip), %rsi
	leaq	l___unnamed_49(%rip), %r8
	leaq	-48(%rbp), %rcx
	movl	$13, %edx
	movq	%r12, %rdi
	callq	__ZN4core3fmt8builders11DebugStruct5field17h9c15dc155278eed2E
	movq	%r12, %rdi
	callq	__ZN4core3fmt8builders11DebugStruct6finish17h26808393f3fed630E
	addq	$24, %rsp
	popq	%rbx
	popq	%r12
	popq	%r13
	popq	%r14
	popq	%r15
	popq	%rbp
	retq
	.cfi_endproc

	.p2align	4, 0x90
__ZN42_$LT$$RF$T$u20$as$u20$core..fmt..Debug$GT$3fmt17h9a6991568d8a8118E:
	.cfi_startproc
	pushq	%rbp
	.cfi_def_cfa_offset 16
	.cfi_offset %rbp, -16
	movq	%rsp, %rbp
	.cfi_def_cfa_register %rbp
	movq	(%rdi), %rax
	movq	(%rax), %rdi
	popq	%rbp
	jmp	__ZN61_$LT$syn..derive..DeriveInput$u20$as$u20$core..fmt..Debug$GT$3fmt17h26458010876d13bfE
	.cfi_endproc

	.p2align	4, 0x90
__ZN42_$LT$$RF$T$u20$as$u20$core..fmt..Debug$GT$3fmt17h9c2cdf35a45418c8E:
	.cfi_startproc
	pushq	%rbp
	.cfi_def_cfa_offset 16
	.cfi_offset %rbp, -16
	movq	%rsp, %rbp
	.cfi_def_cfa_register %rbp
	pushq	%r15
	pushq	%r14
	pushq	%r13
	pushq	%r12
	pushq	%rbx
	subq	$24, %rsp
	.cfi_offset %rbx, -56
	.cfi_offset %r12, -48
	.cfi_offset %r13, -40
	.cfi_offset %r14, -32
	.cfi_offset %r15, -24
	movq	(%rdi), %rax
	movq	(%rax), %r13
	movq	16(%rax), %rbx
	leaq	-64(%rbp), %rdi
	callq	__ZN4core3fmt9Formatter10debug_list17hd054f0986422feb9E
	testq	%rbx, %rbx
	je	LBB38_3
	imulq	$88, %rbx, %rbx
	leaq	l___unnamed_50(%rip), %r14
	leaq	-64(%rbp), %r15
	leaq	-48(%rbp), %r12
	.p2align	4, 0x90
LBB38_2:
	movq	%r13, -48(%rbp)
	addq	$88, %r13
	movq	%r15, %rdi
	movq	%r12, %rsi
	movq	%r14, %rdx
	callq	__ZN4core3fmt8builders9DebugList5entry17h5c0dec54538196dfE
	addq	$-88, %rbx
	jne	LBB38_2
LBB38_3:
	leaq	-64(%rbp), %rdi
	callq	__ZN4core3fmt8builders9DebugList6finish17h3635bd6af9b1c5a6E
	addq	$24, %rsp
	popq	%rbx
	popq	%r12
	popq	%r13
	popq	%r14
	popq	%r15
	popq	%rbp
	retq
	.cfi_endproc

	.p2align	4, 0x90
__ZN42_$LT$$RF$T$u20$as$u20$core..fmt..Debug$GT$3fmt17h9f03bd37f0112ff7E:
	.cfi_startproc
	pushq	%rbp
	.cfi_def_cfa_offset 16
	.cfi_offset %rbp, -16
	movq	%rsp, %rbp
	.cfi_def_cfa_register %rbp
	pushq	%r15
	pushq	%r14
	pushq	%r13
	pushq	%r12
	pushq	%rbx
	subq	$24, %rsp
	.cfi_offset %rbx, -56
	.cfi_offset %r12, -48
	.cfi_offset %r13, -40
	.cfi_offset %r14, -32
	.cfi_offset %r15, -24
	movq	(%rdi), %rax
	movq	(%rax), %r13
	movq	16(%rax), %rbx
	leaq	-64(%rbp), %rdi
	callq	__ZN4core3fmt9Formatter10debug_list17hd054f0986422feb9E
	testq	%rbx, %rbx
	je	LBB39_3
	imulq	$88, %rbx, %rbx
	leaq	l___unnamed_51(%rip), %r14
	leaq	-64(%rbp), %r15
	leaq	-48(%rbp), %r12
	.p2align	4, 0x90
LBB39_2:
	movq	%r13, -48(%rbp)
	addq	$88, %r13
	movq	%r15, %rdi
	movq	%r12, %rsi
	movq	%r14, %rdx
	callq	__ZN4core3fmt8builders9DebugList5entry17h5c0dec54538196dfE
	addq	$-88, %rbx
	jne	LBB39_2
LBB39_3:
	leaq	-64(%rbp), %rdi
	callq	__ZN4core3fmt8builders9DebugList6finish17h3635bd6af9b1c5a6E
	addq	$24, %rsp
	popq	%rbx
	popq	%r12
	popq	%r13
	popq	%r14
	popq	%r15
	popq	%rbp
	retq
	.cfi_endproc

	.p2align	4, 0x90
__ZN42_$LT$$RF$T$u20$as$u20$core..fmt..Debug$GT$3fmt17ha6d9ad9f2f72ffb3E:
	.cfi_startproc
	pushq	%rbp
	.cfi_def_cfa_offset 16
	.cfi_offset %rbp, -16
	movq	%rsp, %rbp
	.cfi_def_cfa_register %rbp
	movq	(%rdi), %rdi
	popq	%rbp
	jmp	__ZN43_$LT$bool$u20$as$u20$core..fmt..Display$GT$3fmt17hf36463fa8b480ab4E
	.cfi_endproc

	.p2align	4, 0x90
__ZN42_$LT$$RF$T$u20$as$u20$core..fmt..Debug$GT$3fmt17ha6eb46ecd058ee2bE:
	.cfi_startproc
	pushq	%rbp
	.cfi_def_cfa_offset 16
	.cfi_offset %rbp, -16
	movq	%rsp, %rbp
	.cfi_def_cfa_register %rbp
	pushq	%r15
	pushq	%r14
	pushq	%r13
	pushq	%r12
	pushq	%rbx
	subq	$24, %rsp
	.cfi_offset %rbx, -56
	.cfi_offset %r12, -48
	.cfi_offset %r13, -40
	.cfi_offset %r14, -32
	.cfi_offset %r15, -24
	movq	(%rdi), %rax
	movq	(%rax), %r13
	movq	8(%rax), %rbx
	leaq	-64(%rbp), %rdi
	callq	__ZN4core3fmt9Formatter10debug_list17hd054f0986422feb9E
	testq	%rbx, %rbx
	je	LBB41_3
	imulq	$104, %rbx, %rbx
	leaq	l___unnamed_52(%rip), %r14
	leaq	-64(%rbp), %r15
	leaq	-48(%rbp), %r12
	.p2align	4, 0x90
LBB41_2:
	movq	%r13, -48(%rbp)
	addq	$104, %r13
	movq	%r15, %rdi
	movq	%r12, %rsi
	movq	%r14, %rdx
	callq	__ZN4core3fmt8builders9DebugList5entry17h5c0dec54538196dfE
	addq	$-104, %rbx
	jne	LBB41_2
LBB41_3:
	leaq	-64(%rbp), %rdi
	callq	__ZN4core3fmt8builders9DebugList6finish17h3635bd6af9b1c5a6E
	addq	$24, %rsp
	popq	%rbx
	popq	%r12
	popq	%r13
	popq	%r14
	popq	%r15
	popq	%rbp
	retq
	.cfi_endproc

	.p2align	4, 0x90
__ZN42_$LT$$RF$T$u20$as$u20$core..fmt..Debug$GT$3fmt17hc0bdb38802b1b698E:
	.cfi_startproc
	pushq	%rbp
	.cfi_def_cfa_offset 16
	.cfi_offset %rbp, -16
	movq	%rsp, %rbp
	.cfi_def_cfa_register %rbp
	movq	(%rdi), %rdi
	popq	%rbp
	jmp	__ZN55_$LT$proc_macro2..Ident$u20$as$u20$core..fmt..Debug$GT$3fmt17h7fde98d30fd73473E
	.cfi_endproc

	.p2align	4, 0x90
__ZN42_$LT$$RF$T$u20$as$u20$core..fmt..Debug$GT$3fmt17hc83d2ad02a85be5fE:
	.cfi_startproc
	pushq	%rbp
	.cfi_def_cfa_offset 16
	.cfi_offset %rbp, -16
	movq	%rsp, %rbp
	.cfi_def_cfa_register %rbp
	movq	(%rdi), %rax
	movq	(%rax), %rdi
	popq	%rbp
	jmp	__ZN54_$LT$syn..data..Fields$u20$as$u20$core..fmt..Debug$GT$3fmt17h00ff937324e8cad5E
	.cfi_endproc

	.p2align	4, 0x90
__ZN42_$LT$$RF$T$u20$as$u20$core..fmt..Debug$GT$3fmt17he30a547b10e3d45dE:
	.cfi_startproc
	pushq	%rbp
	.cfi_def_cfa_offset 16
	.cfi_offset %rbp, -16
	movq	%rsp, %rbp
	.cfi_def_cfa_register %rbp
	movq	(%rdi), %rdi
	popq	%rbp
	jmp	__ZN60_$LT$synstructure..BindStyle$u20$as$u20$core..fmt..Debug$GT$3fmt17h41658cd55c8bdc5cE
	.cfi_endproc

	.p2align	4, 0x90
__ZN42_$LT$$RF$T$u20$as$u20$core..fmt..Debug$GT$3fmt17he3bcb81d1a6dae19E:
	.cfi_startproc
	pushq	%rbp
	.cfi_def_cfa_offset 16
	.cfi_offset %rbp, -16
	movq	%rsp, %rbp
	.cfi_def_cfa_register %rbp
	movq	(%rdi), %rdi
	popq	%rbp
	jmp	__ZN60_$LT$synstructure..AddBounds$u20$as$u20$core..fmt..Debug$GT$3fmt17h133e621e697fa7c2E
	.cfi_endproc

	.p2align	4, 0x90
__ZN42_$LT$$RF$T$u20$as$u20$core..fmt..Debug$GT$3fmt17he859cff8d2e46c35E:
	.cfi_startproc
	pushq	%rbp
	.cfi_def_cfa_offset 16
	.cfi_offset %rbp, -16
	movq	%rsp, %rbp
	.cfi_def_cfa_register %rbp
	movq	(%rdi), %rax
	movq	(%rax), %rdi
	popq	%rbp
	jmp	__ZN60_$LT$syn..generics..Generics$u20$as$u20$core..fmt..Debug$GT$3fmt17he316e5a434519861E
	.cfi_endproc

	.p2align	4, 0x90
__ZN42_$LT$$RF$T$u20$as$u20$core..fmt..Debug$GT$3fmt17hfabb423662d59f42E:
	.cfi_startproc
	pushq	%rbp
	.cfi_def_cfa_offset 16
	.cfi_offset %rbp, -16
	movq	%rsp, %rbp
	.cfi_def_cfa_register %rbp
	movq	(%rdi), %rdi
	popq	%rbp
	jmp	__ZN52_$LT$syn..expr..Expr$u20$as$u20$core..fmt..Debug$GT$3fmt17h8f508d185000dc6dE
	.cfi_endproc

	.p2align	4, 0x90
__ZN44_$LT$$RF$T$u20$as$u20$core..fmt..Display$GT$3fmt17h201867f990259ac0E:
	.cfi_startproc
	pushq	%rbp
	.cfi_def_cfa_offset 16
	.cfi_offset %rbp, -16
	movq	%rsp, %rbp
	.cfi_def_cfa_register %rbp
	movq	%rsi, %rdx
	movq	(%rdi), %rax
	movq	8(%rdi), %rsi
	movq	%rax, %rdi
	popq	%rbp
	jmp	__ZN42_$LT$str$u20$as$u20$core..fmt..Display$GT$3fmt17hd4dee1c1c4ccf892E
	.cfi_endproc

	.p2align	4, 0x90
__ZN44_$LT$$RF$T$u20$as$u20$core..fmt..Display$GT$3fmt17h3320d91cc9603c75E:
	.cfi_startproc
	pushq	%rbp
	.cfi_def_cfa_offset 16
	.cfi_offset %rbp, -16
	movq	%rsp, %rbp
	.cfi_def_cfa_register %rbp
	movq	%rsi, %rdx
	movq	(%rdi), %rax
	movq	(%rax), %rdi
	movq	8(%rax), %rsi
	popq	%rbp
	jmp	__ZN42_$LT$str$u20$as$u20$core..fmt..Display$GT$3fmt17hd4dee1c1c4ccf892E
	.cfi_endproc

	.p2align	4, 0x90
__ZN44_$LT$$RF$T$u20$as$u20$core..fmt..Display$GT$3fmt17h59ee27e631d09cc0E:
	.cfi_startproc
	pushq	%rbp
	.cfi_def_cfa_offset 16
	.cfi_offset %rbp, -16
	movq	%rsp, %rbp
	.cfi_def_cfa_register %rbp
	movq	(%rdi), %rdi
	popq	%rbp
	jmp	__ZN57_$LT$proc_macro2..Ident$u20$as$u20$core..fmt..Display$GT$3fmt17h03e760d1db8acc9dE
	.cfi_endproc

	.p2align	4, 0x90
__ZN44_$LT$$RF$T$u20$as$u20$core..fmt..Display$GT$3fmt17h6a0a5e2a6f9e761aE:
	.cfi_startproc
	pushq	%rbp
	.cfi_def_cfa_offset 16
	.cfi_offset %rbp, -16
	movq	%rsp, %rbp
	.cfi_def_cfa_register %rbp
	movq	(%rdi), %rdi
	popq	%rbp
	jmp	__ZN59_$LT$proc_macro2..Literal$u20$as$u20$core..fmt..Display$GT$3fmt17h3429fe76352e3b2eE
	.cfi_endproc

	.p2align	4, 0x90
__ZN4core3ops8function5FnMut8call_mut17h3e20a7c410664cb2E:
Lfunc_begin4:
	.cfi_startproc
	.cfi_personality 155, _rust_eh_personality
	.cfi_lsda 16, Lexception4
	pushq	%rbp
	.cfi_def_cfa_offset 16
	.cfi_offset %rbp, -16
	movq	%rsp, %rbp
	.cfi_def_cfa_register %rbp
	pushq	%r15
	pushq	%r14
	pushq	%r12
	pushq	%rbx
	subq	$128, %rsp
	.cfi_offset %rbx, -48
	.cfi_offset %r12, -40
	.cfi_offset %r14, -32
	.cfi_offset %r15, -24
	movq	%rsi, %r12
	movq	%rdi, %r14
	movq	(%rsi), %rsi
	movq	16(%r12), %rdx
	leaq	-120(%rbp), %rdi
	callq	__ZN5alloc5slice29_$LT$impl$u20$$u5b$T$u5d$$GT$6to_vec17hb85227a768a2c978E
	movl	64(%r12), %r15d
	cmpl	$1, 24(%r12)
	jne	LBB52_3
	leaq	32(%r12), %rsi
Ltmp124:
	leaq	-88(%rbp), %rdi
	callq	__ZN60_$LT$alloc..string..String$u20$as$u20$core..clone..Clone$GT$5clone17h58f2d97d6470fc46E
Ltmp125:
	cmpb	$0, 56(%r12)
	setne	%r8b
	movl	$1, %edx
	jmp	LBB52_4
LBB52_3:
	movl	28(%r12), %ecx
	xorl	%edx, %edx
LBB52_4:
	leaq	72(%r12), %rsi
	movq	-72(%rbp), %rdi
	vmovups	-88(%rbp), %xmm0
	vmovaps	%xmm0, -160(%rbp)
	movq	%rdi, -144(%rbp)
	movl	-95(%rbp), %ebx
	movl	-92(%rbp), %eax
	movl	%ebx, -40(%rbp)
	movl	%eax, -37(%rbp)
	movl	%r15d, -48(%rbp)
	movl	%edx, -88(%rbp)
	movl	%ecx, -84(%rbp)
	vmovups	%xmm0, -80(%rbp)
	movq	%rdi, -64(%rbp)
	movb	%r8b, -56(%rbp)
	movl	-40(%rbp), %eax
	movl	-37(%rbp), %ecx
	movl	%ecx, -52(%rbp)
	movl	%eax, -55(%rbp)
	movl	104(%r12), %r15d
	movl	108(%r12), %ebx
Ltmp127:
	leaq	-160(%rbp), %rdi
	callq	__ZN79_$LT$syn..punctuated..Punctuated$LT$T$C$P$GT$$u20$as$u20$core..clone..Clone$GT$5clone17hcdddda36fadf5bc3E
Ltmp128:
	shlq	$32, %rbx
	xorl	%eax, %eax
	cmpl	$1, %r15d
	cmoveq	%rbx, %rax
	orq	%r15, %rax
	movq	-104(%rbp), %rcx
	movq	%rcx, 16(%r14)
	vmovups	-120(%rbp), %xmm0
	vmovups	%xmm0, (%r14)
	vmovups	-88(%rbp), %ymm0
	vmovups	-72(%rbp), %ymm1
	vmovups	%ymm0, 24(%r14)
	vmovups	%ymm1, 40(%r14)
	movq	%rax, 104(%r14)
	vmovups	-160(%rbp), %ymm0
	vmovups	%ymm0, 72(%r14)
	movl	112(%r12), %eax
	movl	%eax, 112(%r14)
	addq	$128, %rsp
	popq	%rbx
	popq	%r12
	popq	%r14
	popq	%r15
	popq	%rbp
	vzeroupper
	retq
LBB52_6:
Ltmp126:
	movq	%rax, %rbx
	jmp	LBB52_7
LBB52_8:
Ltmp129:
	movq	%rax, %rbx
	leaq	-88(%rbp), %rdi
	callq	__ZN4core3ptr13drop_in_place17h3aea0d3733c9cca1E
LBB52_7:
	leaq	-120(%rbp), %rdi
	callq	__ZN4core3ptr13drop_in_place17h91df1ac22d461314E
	movq	%rbx, %rdi
	callq	__Unwind_Resume
	ud2
Lfunc_end4:
	.cfi_endproc
	.section	__TEXT,__gcc_except_tab
	.p2align	2
GCC_except_table52:
Lexception4:
	.byte	255
	.byte	255
	.byte	1
	.uleb128 Lcst_end4-Lcst_begin4
Lcst_begin4:
	.uleb128 Lfunc_begin4-Lfunc_begin4
	.uleb128 Ltmp124-Lfunc_begin4
	.byte	0
	.byte	0
	.uleb128 Ltmp124-Lfunc_begin4
	.uleb128 Ltmp125-Ltmp124
	.uleb128 Ltmp126-Lfunc_begin4
	.byte	0
	.uleb128 Ltmp127-Lfunc_begin4
	.uleb128 Ltmp128-Ltmp127
	.uleb128 Ltmp129-Lfunc_begin4
	.byte	0
	.uleb128 Ltmp128-Lfunc_begin4
	.uleb128 Lfunc_end4-Ltmp128
	.byte	0
	.byte	0
Lcst_end4:
	.p2align	2

	.section	__TEXT,__text,regular,pure_instructions
	.p2align	4, 0x90
__ZN4core3ptr13drop_in_place17h003e9b8442192021E:
	.cfi_startproc
	pushq	%rbp
	.cfi_def_cfa_offset 16
	.cfi_offset %rbp, -16
	movq	%rsp, %rbp
	.cfi_def_cfa_register %rbp
	testq	%rsi, %rsi
	je	LBB53_3
	testq	%rdi, %rdi
	je	LBB53_3
	shlq	$7, %rsi
	leaq	(%rsi,%rsi,2), %rsi
	testq	%rsi, %rsi
	je	LBB53_3
	movl	$8, %edx
	popq	%rbp
	jmp	___rust_dealloc
LBB53_3:
	popq	%rbp
	retq
	.cfi_endproc

	.p2align	4, 0x90
__ZN4core3ptr13drop_in_place17h01321f27204b59d5E:
	.cfi_startproc
	pushq	%rbp
	.cfi_def_cfa_offset 16
	.cfi_offset %rbp, -16
	movq	%rsp, %rbp
	.cfi_def_cfa_register %rbp
	popq	%rbp
	retq
	.cfi_endproc

	.p2align	4, 0x90
__ZN4core3ptr13drop_in_place17h0213ef2fe2fd6a74E:
	.cfi_startproc
	pushq	%rbp
	.cfi_def_cfa_offset 16
	.cfi_offset %rbp, -16
	movq	%rsp, %rbp
	.cfi_def_cfa_register %rbp
	movq	8(%rdi), %rax
	movq	16(%rdi), %rcx
	movq	%rcx, (%rax)
	popq	%rbp
	retq
	.cfi_endproc

	.p2align	4, 0x90
__ZN4core3ptr13drop_in_place17h04034b85da457677E:
	.cfi_startproc
	pushq	%rbp
	.cfi_def_cfa_offset 16
	.cfi_offset %rbp, -16
	movq	%rsp, %rbp
	.cfi_def_cfa_register %rbp
	addq	$16, %rdi
	popq	%rbp
	jmp	__ZN4core3ptr13drop_in_place17hc61d1fe9064d3c40E
	.cfi_endproc

	.p2align	4, 0x90
__ZN4core3ptr13drop_in_place17h0641373cc8362346E:
Lfunc_begin5:
	.cfi_startproc
	.cfi_personality 155, _rust_eh_personality
	.cfi_lsda 16, Lexception5
	pushq	%rbp
	.cfi_def_cfa_offset 16
	.cfi_offset %rbp, -16
	movq	%rsp, %rbp
	.cfi_def_cfa_register %rbp
	pushq	%r15
	pushq	%r14
	pushq	%r12
	pushq	%rbx
	.cfi_offset %rbx, -48
	.cfi_offset %r12, -40
	.cfi_offset %r14, -32
	.cfi_offset %r15, -24
	movq	%rdi, %r15
	movq	(%rdi), %rbx
	imulq	$392, 16(%rdi), %r12
	.p2align	4, 0x90
LBB57_5:
	testq	%r12, %r12
	je	LBB57_6
	addq	$-392, %r12
Ltmp130:
	movq	%rbx, %rdi
	addq	$392, %rbx
	callq	__ZN4core3ptr13drop_in_place17h6cd689ac8fc3fb28E
Ltmp131:
	jmp	LBB57_5
LBB57_6:
	movq	8(%r15), %rax
	testq	%rax, %rax
	je	LBB57_10
	movq	(%r15), %rdi
	testq	%rdi, %rdi
	je	LBB57_10
	imulq	$392, %rax, %rsi
	testq	%rsi, %rsi
	je	LBB57_10
	movl	$8, %edx
	callq	___rust_dealloc
LBB57_10:
	movq	24(%r15), %rdi
	testq	%rdi, %rdi
	je	LBB57_13
Ltmp139:
	callq	__ZN4core3ptr13drop_in_place17h6cd689ac8fc3fb28E
Ltmp140:
	movq	24(%r15), %rdi
	movl	$384, %esi
	movl	$8, %edx
	callq	___rust_dealloc
LBB57_13:
	addq	$32, %r15
	movq	%r15, %rdi
	popq	%rbx
	popq	%r12
	popq	%r14
	popq	%r15
	popq	%rbp
	jmp	__ZN4core3ptr13drop_in_place17h9a40b786904c78ddE
LBB57_16:
Ltmp141:
	movq	%rax, %r14
	movq	24(%r15), %rdi
	callq	__ZN5alloc5alloc8box_free17h7aee8bfb15c768c7E
	jmp	LBB57_18
LBB57_1:
Ltmp132:
	movq	%rax, %r14
	testq	%r12, %r12
	je	LBB57_15
	.p2align	4, 0x90
LBB57_2:
Ltmp133:
	movq	%rbx, %rdi
	callq	__ZN4core3ptr13drop_in_place17h3a3bbda48e08754fE
Ltmp134:
	addq	$392, %rbx
	addq	$-392, %r12
	jne	LBB57_2
	jmp	LBB57_15
LBB57_14:
Ltmp135:
	movq	%rax, %r14
LBB57_15:
	movq	(%r15), %rdi
	movq	8(%r15), %rsi
	callq	__ZN4core3ptr13drop_in_place17h9b42934d29d4d7b4E
	leaq	24(%r15), %rdi
Ltmp136:
	callq	__ZN4core3ptr13drop_in_place17ha0d162522919c7eaE
Ltmp137:
LBB57_18:
	addq	$32, %r15
	movq	%r15, %rdi
	callq	__ZN4core3ptr13drop_in_place17h9a40b786904c78ddE
	movq	%r14, %rdi
	callq	__Unwind_Resume
	ud2
LBB57_17:
Ltmp138:
	movq	%rax, %r14
	jmp	LBB57_18
Lfunc_end5:
	.cfi_endproc
	.section	__TEXT,__gcc_except_tab
	.p2align	2
GCC_except_table57:
Lexception5:
	.byte	255
	.byte	255
	.byte	1
	.uleb128 Lcst_end5-Lcst_begin5
Lcst_begin5:
	.uleb128 Ltmp130-Lfunc_begin5
	.uleb128 Ltmp131-Ltmp130
	.uleb128 Ltmp132-Lfunc_begin5
	.byte	0
	.uleb128 Ltmp139-Lfunc_begin5
	.uleb128 Ltmp140-Ltmp139
	.uleb128 Ltmp141-Lfunc_begin5
	.byte	0
	.uleb128 Ltmp140-Lfunc_begin5
	.uleb128 Ltmp133-Ltmp140
	.byte	0
	.byte	0
	.uleb128 Ltmp133-Lfunc_begin5
	.uleb128 Ltmp134-Ltmp133
	.uleb128 Ltmp135-Lfunc_begin5
	.byte	0
	.uleb128 Ltmp136-Lfunc_begin5
	.uleb128 Ltmp137-Ltmp136
	.uleb128 Ltmp138-Lfunc_begin5
	.byte	0
	.uleb128 Ltmp137-Lfunc_begin5
	.uleb128 Lfunc_end5-Ltmp137
	.byte	0
	.byte	0
Lcst_end5:
	.p2align	2

	.section	__TEXT,__text,regular,pure_instructions
	.p2align	4, 0x90
__ZN4core3ptr13drop_in_place17h0672edd15533b3d4E:
Lfunc_begin6:
	.cfi_startproc
	.cfi_personality 155, _rust_eh_personality
	.cfi_lsda 16, Lexception6
	pushq	%rbp
	.cfi_def_cfa_offset 16
	.cfi_offset %rbp, -16
	movq	%rsp, %rbp
	.cfi_def_cfa_register %rbp
	pushq	%r15
	pushq	%r14
	pushq	%r12
	pushq	%rbx
	.cfi_offset %rbx, -48
	.cfi_offset %r12, -40
	.cfi_offset %r14, -32
	.cfi_offset %r15, -24
	movq	(%rdi), %r12
	testq	%r12, %r12
	je	LBB58_12
	movq	%rdi, %r14
	imulq	$104, 16(%rdi), %rbx
	.p2align	4, 0x90
LBB58_5:
	testq	%rbx, %rbx
	je	LBB58_6
	addq	$-104, %rbx
Ltmp142:
	movq	%r12, %rdi
	addq	$104, %r12
	callq	__ZN4core3ptr13drop_in_place17h42f877d1ceb7cb9dE
Ltmp143:
	jmp	LBB58_5
LBB58_6:
	movq	8(%r14), %rax
	testq	%rax, %rax
	je	LBB58_12
	movq	(%r14), %rdi
	testq	%rdi, %rdi
	je	LBB58_12
	imulq	$104, %rax, %rsi
	testq	%rsi, %rsi
	je	LBB58_12
	movl	$8, %edx
	popq	%rbx
	popq	%r12
	popq	%r14
	popq	%r15
	popq	%rbp
	jmp	___rust_dealloc
LBB58_12:
	popq	%rbx
	popq	%r12
	popq	%r14
	popq	%r15
	popq	%rbp
	retq
LBB58_13:
Ltmp144:
	movq	%rax, %r15
	.p2align	4, 0x90
LBB58_3:
	testq	%rbx, %rbx
	je	LBB58_11
	addq	$-104, %rbx
Ltmp145:
	movq	%r12, %rdi
	addq	$104, %r12
	callq	__ZN4core3ptr13drop_in_place17h42f877d1ceb7cb9dE
Ltmp146:
	jmp	LBB58_3
LBB58_10:
Ltmp147:
	movq	%rax, %r15
LBB58_11:
	movq	(%r14), %rdi
	movq	8(%r14), %rsi
	callq	__ZN4core3ptr13drop_in_place17hfd19d49573e256e2E
	movq	%r15, %rdi
	callq	__Unwind_Resume
	ud2
Lfunc_end6:
	.cfi_endproc
	.section	__TEXT,__gcc_except_tab
	.p2align	2
GCC_except_table58:
Lexception6:
	.byte	255
	.byte	255
	.byte	1
	.uleb128 Lcst_end6-Lcst_begin6
Lcst_begin6:
	.uleb128 Ltmp142-Lfunc_begin6
	.uleb128 Ltmp143-Ltmp142
	.uleb128 Ltmp144-Lfunc_begin6
	.byte	0
	.uleb128 Ltmp145-Lfunc_begin6
	.uleb128 Ltmp146-Ltmp145
	.uleb128 Ltmp147-Lfunc_begin6
	.byte	0
	.uleb128 Ltmp146-Lfunc_begin6
	.uleb128 Lfunc_end6-Ltmp146
	.byte	0
	.byte	0
Lcst_end6:
	.p2align	2

	.section	__TEXT,__text,regular,pure_instructions
	.p2align	4, 0x90
__ZN4core3ptr13drop_in_place17h0a5f19e1d1084474E:
Lfunc_begin7:
	.cfi_startproc
	.cfi_personality 155, _rust_eh_personality
	.cfi_lsda 16, Lexception7
	pushq	%rbp
	.cfi_def_cfa_offset 16
	.cfi_offset %rbp, -16
	movq	%rsp, %rbp
	.cfi_def_cfa_register %rbp
	pushq	%r15
	pushq	%r14
	pushq	%r12
	pushq	%rbx
	.cfi_offset %rbx, -48
	.cfi_offset %r12, -40
	.cfi_offset %r14, -32
	.cfi_offset %r15, -24
	movq	%rdi, %r14
	movq	(%rdi), %r12
	movq	16(%rdi), %rbx
	shlq	$7, %rbx
	.p2align	4, 0x90
LBB59_4:
	testq	%rbx, %rbx
	je	LBB59_5
	addq	$-128, %rbx
Ltmp148:
	movq	%r12, %rdi
	addq	$128, %r12
	callq	__ZN4core3ptr13drop_in_place17h7700b212482e2130E
Ltmp149:
	jmp	LBB59_4
LBB59_5:
	movq	8(%r14), %rsi
	testq	%rsi, %rsi
	je	LBB59_8
	movq	(%r14), %rdi
	testq	%rdi, %rdi
	je	LBB59_8
	shlq	$7, %rsi
	je	LBB59_8
	movl	$8, %edx
	popq	%rbx
	popq	%r12
	popq	%r14
	popq	%r15
	popq	%rbp
	jmp	___rust_dealloc
LBB59_8:
	popq	%rbx
	popq	%r12
	popq	%r14
	popq	%r15
	popq	%rbp
	retq
LBB59_11:
Ltmp150:
	movq	%rax, %r15
	.p2align	4, 0x90
LBB59_2:
	testq	%rbx, %rbx
	je	LBB59_10
	addq	$-128, %rbx
Ltmp151:
	movq	%r12, %rdi
	addq	$128, %r12
	callq	__ZN4core3ptr13drop_in_place17h7700b212482e2130E
Ltmp152:
	jmp	LBB59_2
LBB59_9:
Ltmp153:
	movq	%rax, %r15
LBB59_10:
	movq	(%r14), %rdi
	movq	8(%r14), %rsi
	callq	__ZN4core3ptr13drop_in_place17h54d675d1d3ba9abaE
	movq	%r15, %rdi
	callq	__Unwind_Resume
	ud2
Lfunc_end7:
	.cfi_endproc
	.section	__TEXT,__gcc_except_tab
	.p2align	2
GCC_except_table59:
Lexception7:
	.byte	255
	.byte	255
	.byte	1
	.uleb128 Lcst_end7-Lcst_begin7
Lcst_begin7:
	.uleb128 Ltmp148-Lfunc_begin7
	.uleb128 Ltmp149-Ltmp148
	.uleb128 Ltmp150-Lfunc_begin7
	.byte	0
	.uleb128 Ltmp151-Lfunc_begin7
	.uleb128 Ltmp152-Ltmp151
	.uleb128 Ltmp153-Lfunc_begin7
	.byte	0
	.uleb128 Ltmp152-Lfunc_begin7
	.uleb128 Lfunc_end7-Ltmp152
	.byte	0
	.byte	0
Lcst_end7:
	.p2align	2

	.section	__TEXT,__text,regular,pure_instructions
	.p2align	4, 0x90
__ZN4core3ptr13drop_in_place17h0c020e49c6cb0f14E:
	.cfi_startproc
	pushq	%rbp
	.cfi_def_cfa_offset 16
	.cfi_offset %rbp, -16
	movq	%rsp, %rbp
	.cfi_def_cfa_register %rbp
	movq	%rdi, %rax
	movq	(%rdi), %rdi
	testq	%rdi, %rdi
	je	LBB60_2
	movq	8(%rax), %rsi
	testq	%rsi, %rsi
	je	LBB60_2
	movl	$1, %edx
	popq	%rbp
	jmp	___rust_dealloc
LBB60_2:
	popq	%rbp
	retq
	.cfi_endproc

	.p2align	4, 0x90
__ZN4core3ptr13drop_in_place17h0e18319d196d445bE:
	.cfi_startproc
	pushq	%rbp
	.cfi_def_cfa_offset 16
	.cfi_offset %rbp, -16
	movq	%rsp, %rbp
	.cfi_def_cfa_register %rbp
	movq	(%rdi), %rdi
	movl	$48, %esi
	movl	$8, %edx
	popq	%rbp
	jmp	___rust_dealloc
	.cfi_endproc

	.p2align	4, 0x90
__ZN4core3ptr13drop_in_place17h103222b16c0a8397E:
	.cfi_startproc
	pushq	%rbp
	.cfi_def_cfa_offset 16
	.cfi_offset %rbp, -16
	movq	%rsp, %rbp
	.cfi_def_cfa_register %rbp
	movq	(%rdi), %rcx
	testq	%rcx, %rcx
	je	LBB62_6
	leaq	1(%rcx), %rax
	movl	$184, %edx
	xorl	%esi, %esi
	mulq	%rdx
	setno	%dl
	jo	LBB62_2
	movb	%dl, %sil
	shlq	$3, %rsi
	leaq	(%rcx,%rsi), %rdx
	addq	$16, %rdx
	addq	$17, %rcx
	negq	%rsi
	andq	%rdx, %rsi
	subq	%rcx, %rsi
	addq	%rcx, %rsi
	jae	LBB62_4
LBB62_2:
	xorl	%edx, %edx
	movq	8(%rdi), %rdi
	popq	%rbp
	jmp	___rust_dealloc
LBB62_6:
	popq	%rbp
	retq
LBB62_4:
	leaq	(%rsi,%rax), %rdx
	xorl	%ecx, %ecx
	cmpq	$-15, %rdx
	setb	%cl
	shlq	$4, %rcx
	xorl	%edx, %edx
	addq	%rax, %rsi
	cmovaeq	%rcx, %rdx
	movq	8(%rdi), %rdi
	popq	%rbp
	jmp	___rust_dealloc
	.cfi_endproc

	.p2align	4, 0x90
__ZN4core3ptr13drop_in_place17h119861a587510d42E:
	.cfi_startproc
	pushq	%rbp
	.cfi_def_cfa_offset 16
	.cfi_offset %rbp, -16
	movq	%rsp, %rbp
	.cfi_def_cfa_register %rbp
	movq	8(%rdi), %rsi
	testq	%rsi, %rsi
	je	LBB63_2
	shlq	$3, %rsi
	testq	%rsi, %rsi
	je	LBB63_2
	movq	(%rdi), %rdi
	movl	$8, %edx
	popq	%rbp
	jmp	___rust_dealloc
LBB63_2:
	popq	%rbp
	retq
	.cfi_endproc

	.p2align	4, 0x90
__ZN4core3ptr13drop_in_place17h13cc635f23d04ae7E:
Lfunc_begin8:
	.cfi_startproc
	.cfi_personality 155, _rust_eh_personality
	.cfi_lsda 16, Lexception8
	pushq	%rbp
	.cfi_def_cfa_offset 16
	.cfi_offset %rbp, -16
	movq	%rsp, %rbp
	.cfi_def_cfa_register %rbp
	pushq	%r14
	pushq	%rbx
	.cfi_offset %rbx, -32
	.cfi_offset %r14, -24
	movq	%rdi, %rbx
	movq	(%rdi), %rdi
	movq	16(%rbx), %rsi
Ltmp154:
	callq	__ZN4core3ptr13drop_in_place17he8215beb8ca0621cE
Ltmp155:
	movq	8(%rbx), %rax
	testq	%rax, %rax
	je	LBB64_4
	movq	(%rbx), %rdi
	testq	%rdi, %rdi
	je	LBB64_4
	imulq	$88, %rax, %rsi
	testq	%rsi, %rsi
	je	LBB64_4
	movl	$8, %edx
	popq	%rbx
	popq	%r14
	popq	%rbp
	jmp	___rust_dealloc
LBB64_4:
	popq	%rbx
	popq	%r14
	popq	%rbp
	retq
LBB64_5:
Ltmp156:
	movq	%rax, %r14
	movq	(%rbx), %rdi
	movq	8(%rbx), %rsi
	callq	__ZN4core3ptr13drop_in_place17hb0c12811f381850eE
	movq	%r14, %rdi
	callq	__Unwind_Resume
	ud2
Lfunc_end8:
	.cfi_endproc
	.section	__TEXT,__gcc_except_tab
	.p2align	2
GCC_except_table64:
Lexception8:
	.byte	255
	.byte	255
	.byte	1
	.uleb128 Lcst_end8-Lcst_begin8
Lcst_begin8:
	.uleb128 Ltmp154-Lfunc_begin8
	.uleb128 Ltmp155-Ltmp154
	.uleb128 Ltmp156-Lfunc_begin8
	.byte	0
	.uleb128 Ltmp155-Lfunc_begin8
	.uleb128 Lfunc_end8-Ltmp155
	.byte	0
	.byte	0
Lcst_end8:
	.p2align	2

	.section	__TEXT,__text,regular,pure_instructions
	.p2align	4, 0x90
__ZN4core3ptr13drop_in_place17h1456ccad401097fcE:
	.cfi_startproc
	pushq	%rbp
	.cfi_def_cfa_offset 16
	.cfi_offset %rbp, -16
	movq	%rsp, %rbp
	.cfi_def_cfa_register %rbp
	cmpq	$0, (%rdi)
	je	LBB65_2
	cmpq	$0, 8(%rdi)
	je	LBB65_2
	addq	$8, %rdi
	popq	%rbp
	jmp	__ZN4core3ptr13drop_in_place17h7be3b27f69cc22eaE
LBB65_2:
	popq	%rbp
	retq
	.cfi_endproc

	.p2align	4, 0x90
__ZN4core3ptr13drop_in_place17h164ee382942ed9fdE:
Lfunc_begin9:
	.cfi_startproc
	.cfi_personality 155, _rust_eh_personality
	.cfi_lsda 16, Lexception9
	pushq	%rbp
	.cfi_def_cfa_offset 16
	.cfi_offset %rbp, -16
	movq	%rsp, %rbp
	.cfi_def_cfa_register %rbp
	pushq	%r15
	pushq	%r14
	pushq	%r12
	pushq	%rbx
	.cfi_offset %rbx, -48
	.cfi_offset %r12, -40
	.cfi_offset %r14, -32
	.cfi_offset %r15, -24
	movq	%rdi, %r14
	movq	(%rdi), %r12
	movq	16(%rdi), %rax
	movq	%rax, %rcx
	shlq	$8, %rcx
	leaq	(%rcx,%rax,8), %rbx
	.p2align	4, 0x90
LBB66_4:
	testq	%rbx, %rbx
	je	LBB66_5
	addq	$-264, %rbx
Ltmp157:
	movq	%r12, %rdi
	addq	$264, %r12
	callq	__ZN4core3ptr13drop_in_place17hd3c7b7f1bcff3130E
Ltmp158:
	jmp	LBB66_4
LBB66_5:
	movq	8(%r14), %rax
	testq	%rax, %rax
	je	LBB66_8
	movq	(%r14), %rdi
	testq	%rdi, %rdi
	je	LBB66_8
	movq	%rax, %rcx
	shlq	$8, %rcx
	leaq	(%rcx,%rax,8), %rsi
	testq	%rsi, %rsi
	je	LBB66_8
	movl	$8, %edx
	popq	%rbx
	popq	%r12
	popq	%r14
	popq	%r15
	popq	%rbp
	jmp	___rust_dealloc
LBB66_8:
	popq	%rbx
	popq	%r12
	popq	%r14
	popq	%r15
	popq	%rbp
	retq
LBB66_11:
Ltmp159:
	movq	%rax, %r15
	.p2align	4, 0x90
LBB66_2:
	testq	%rbx, %rbx
	je	LBB66_10
	addq	$-264, %rbx
Ltmp160:
	movq	%r12, %rdi
	addq	$264, %r12
	callq	__ZN4core3ptr13drop_in_place17h79af60a7ad3f3033E
Ltmp161:
	jmp	LBB66_2
LBB66_9:
Ltmp162:
	movq	%rax, %r15
LBB66_10:
	movq	(%r14), %rdi
	movq	8(%r14), %rsi
	callq	__ZN4core3ptr13drop_in_place17he33e467ffa54d9d8E
	movq	%r15, %rdi
	callq	__Unwind_Resume
	ud2
Lfunc_end9:
	.cfi_endproc
	.section	__TEXT,__gcc_except_tab
	.p2align	2
GCC_except_table66:
Lexception9:
	.byte	255
	.byte	255
	.byte	1
	.uleb128 Lcst_end9-Lcst_begin9
Lcst_begin9:
	.uleb128 Ltmp157-Lfunc_begin9
	.uleb128 Ltmp158-Ltmp157
	.uleb128 Ltmp159-Lfunc_begin9
	.byte	0
	.uleb128 Ltmp160-Lfunc_begin9
	.uleb128 Ltmp161-Ltmp160
	.uleb128 Ltmp162-Lfunc_begin9
	.byte	0
	.uleb128 Ltmp161-Lfunc_begin9
	.uleb128 Lfunc_end9-Ltmp161
	.byte	0
	.byte	0
Lcst_end9:
	.p2align	2

	.section	__TEXT,__text,regular,pure_instructions
	.p2align	4, 0x90
__ZN4core3ptr13drop_in_place17h16d3ed2d1b31f362E:
Lfunc_begin10:
	.cfi_startproc
	.cfi_personality 155, _rust_eh_personality
	.cfi_lsda 16, Lexception10
	pushq	%rbp
	.cfi_def_cfa_offset 16
	.cfi_offset %rbp, -16
	movq	%rsp, %rbp
	.cfi_def_cfa_register %rbp
	pushq	%r14
	pushq	%rbx
	.cfi_offset %rbx, -32
	.cfi_offset %r14, -24
	movq	%rdi, %rbx
	movq	(%rdi), %rdi
	testq	%rdi, %rdi
	je	LBB67_3
Ltmp163:
	callq	__ZN4core3ptr13drop_in_place17h3458d2d6706aebd4E
Ltmp164:
	movq	(%rbx), %rdi
	movl	$384, %esi
	movl	$8, %edx
	popq	%rbx
	popq	%r14
	popq	%rbp
	jmp	___rust_dealloc
LBB67_3:
	popq	%rbx
	popq	%r14
	popq	%rbp
	retq
LBB67_4:
Ltmp165:
	movq	%rax, %r14
	movq	(%rbx), %rdi
	callq	__ZN5alloc5alloc8box_free17h7aee8bfb15c768c7E
	movq	%r14, %rdi
	callq	__Unwind_Resume
	ud2
Lfunc_end10:
	.cfi_endproc
	.section	__TEXT,__gcc_except_tab
	.p2align	2
GCC_except_table67:
Lexception10:
	.byte	255
	.byte	255
	.byte	1
	.uleb128 Lcst_end10-Lcst_begin10
Lcst_begin10:
	.uleb128 Ltmp163-Lfunc_begin10
	.uleb128 Ltmp164-Ltmp163
	.uleb128 Ltmp165-Lfunc_begin10
	.byte	0
	.uleb128 Ltmp164-Lfunc_begin10
	.uleb128 Lfunc_end10-Ltmp164
	.byte	0
	.byte	0
Lcst_end10:
	.p2align	2

	.section	__TEXT,__text,regular,pure_instructions
	.p2align	4, 0x90
__ZN4core3ptr13drop_in_place17h1977e1a3775e52fcE:
Lfunc_begin11:
	.cfi_startproc
	.cfi_personality 155, _rust_eh_personality
	.cfi_lsda 16, Lexception11
	pushq	%rbp
	.cfi_def_cfa_offset 16
	.cfi_offset %rbp, -16
	movq	%rsp, %rbp
	.cfi_def_cfa_register %rbp
	pushq	%r14
	pushq	%rbx
	.cfi_offset %rbx, -32
	.cfi_offset %r14, -24
	movq	%rdi, %rbx
	movq	(%rdi), %rdi
	testq	%rdi, %rdi
	je	LBB68_3
Ltmp166:
	callq	__ZN4core3ptr13drop_in_place17h3087da7ef2274124E
Ltmp167:
	movq	(%rbx), %rdi
	movl	$104, %esi
	movl	$8, %edx
	popq	%rbx
	popq	%r14
	popq	%rbp
	jmp	___rust_dealloc
LBB68_3:
	popq	%rbx
	popq	%r14
	popq	%rbp
	retq
LBB68_4:
Ltmp168:
	movq	%rax, %r14
	movq	(%rbx), %rdi
	callq	__ZN5alloc5alloc8box_free17hd946ac010d0783fbE
	movq	%r14, %rdi
	callq	__Unwind_Resume
	ud2
Lfunc_end11:
	.cfi_endproc
	.section	__TEXT,__gcc_except_tab
	.p2align	2
GCC_except_table68:
Lexception11:
	.byte	255
	.byte	255
	.byte	1
	.uleb128 Lcst_end11-Lcst_begin11
Lcst_begin11:
	.uleb128 Ltmp166-Lfunc_begin11
	.uleb128 Ltmp167-Ltmp166
	.uleb128 Ltmp168-Lfunc_begin11
	.byte	0
	.uleb128 Ltmp167-Lfunc_begin11
	.uleb128 Lfunc_end11-Ltmp167
	.byte	0
	.byte	0
Lcst_end11:
	.p2align	2

	.section	__TEXT,__text,regular,pure_instructions
	.p2align	4, 0x90
__ZN4core3ptr13drop_in_place17h1df138938ffd3e61E:
Lfunc_begin12:
	.cfi_startproc
	.cfi_personality 155, _rust_eh_personality
	.cfi_lsda 16, Lexception12
	pushq	%rbp
	.cfi_def_cfa_offset 16
	.cfi_offset %rbp, -16
	movq	%rsp, %rbp
	.cfi_def_cfa_register %rbp
	pushq	%r14
	pushq	%rbx
	.cfi_offset %rbx, -32
	.cfi_offset %r14, -24
	movq	%rdi, %rbx
	movq	(%rdi), %rdi
	testq	%rdi, %rdi
	je	LBB69_3
Ltmp169:
	callq	__ZN4core3ptr13drop_in_place17h7700b212482e2130E
Ltmp170:
	movq	(%rbx), %rdi
	movl	$120, %esi
	movl	$8, %edx
	popq	%rbx
	popq	%r14
	popq	%rbp
	jmp	___rust_dealloc
LBB69_3:
	popq	%rbx
	popq	%r14
	popq	%rbp
	retq
LBB69_4:
Ltmp171:
	movq	%rax, %r14
	movq	(%rbx), %rdi
	callq	__ZN5alloc5alloc8box_free17h27f0ef46b5c8b130E
	movq	%r14, %rdi
	callq	__Unwind_Resume
	ud2
Lfunc_end12:
	.cfi_endproc
	.section	__TEXT,__gcc_except_tab
	.p2align	2
GCC_except_table69:
Lexception12:
	.byte	255
	.byte	255
	.byte	1
	.uleb128 Lcst_end12-Lcst_begin12
Lcst_begin12:
	.uleb128 Ltmp169-Lfunc_begin12
	.uleb128 Ltmp170-Ltmp169
	.uleb128 Ltmp171-Lfunc_begin12
	.byte	0
	.uleb128 Ltmp170-Lfunc_begin12
	.uleb128 Lfunc_end12-Ltmp170
	.byte	0
	.byte	0
Lcst_end12:
	.p2align	2

	.section	__TEXT,__text,regular,pure_instructions
	.p2align	4, 0x90
__ZN4core3ptr13drop_in_place17h1fd25e76c3bc6a20E:
Lfunc_begin13:
	.cfi_startproc
	.cfi_personality 155, _rust_eh_personality
	.cfi_lsda 16, Lexception13
	pushq	%rbp
	.cfi_def_cfa_offset 16
	.cfi_offset %rbp, -16
	movq	%rsp, %rbp
	.cfi_def_cfa_register %rbp
	pushq	%r15
	pushq	%r14
	pushq	%r13
	pushq	%r12
	pushq	%rbx
	pushq	%rax
	.cfi_offset %rbx, -56
	.cfi_offset %r12, -48
	.cfi_offset %r13, -40
	.cfi_offset %r14, -32
	.cfi_offset %r15, -24
	movq	(%rdi), %r12
	testq	%r12, %r12
	je	LBB70_17
	movq	%rdi, %r14
	movq	(%r12), %r13
	imulq	$104, 16(%r12), %rbx
	.p2align	4, 0x90
LBB70_5:
	testq	%rbx, %rbx
	je	LBB70_6
	addq	$-104, %rbx
Ltmp172:
	movq	%r13, %rdi
	addq	$104, %r13
	callq	__ZN4core3ptr13drop_in_place17h42f877d1ceb7cb9dE
Ltmp173:
	jmp	LBB70_5
LBB70_6:
	movq	8(%r12), %rax
	testq	%rax, %rax
	je	LBB70_10
	movq	(%r12), %rdi
	testq	%rdi, %rdi
	je	LBB70_10
	imulq	$104, %rax, %rsi
	testq	%rsi, %rsi
	je	LBB70_10
	movl	$8, %edx
	callq	___rust_dealloc
LBB70_10:
	cmpl	$0, 24(%r12)
	je	LBB70_14
	movq	32(%r12), %rdi
	testq	%rdi, %rdi
	je	LBB70_14
	movq	40(%r12), %rsi
	testq	%rsi, %rsi
	je	LBB70_14
	movl	$1, %edx
	callq	___rust_dealloc
LBB70_14:
	addq	$72, %r12
	movq	%r12, %rdi
	callq	__ZN4core3ptr13drop_in_place17h2d2c1be63b04d6f8E
	movq	(%r14), %rdi
	movl	$112, %esi
	movl	$8, %edx
	addq	$8, %rsp
	popq	%rbx
	popq	%r12
	popq	%r13
	popq	%r14
	popq	%r15
	popq	%rbp
	jmp	___rust_dealloc
LBB70_17:
	addq	$8, %rsp
	popq	%rbx
	popq	%r12
	popq	%r13
	popq	%r14
	popq	%r15
	popq	%rbp
	retq
LBB70_18:
Ltmp174:
	movq	%rax, %r15
	.p2align	4, 0x90
LBB70_3:
	testq	%rbx, %rbx
	je	LBB70_16
	addq	$-104, %rbx
Ltmp175:
	movq	%r13, %rdi
	addq	$104, %r13
	callq	__ZN4core3ptr13drop_in_place17h42f877d1ceb7cb9dE
Ltmp176:
	jmp	LBB70_3
LBB70_15:
Ltmp177:
	movq	%rax, %r15
LBB70_16:
	movq	(%r12), %rdi
	movq	8(%r12), %rsi
	callq	__ZN4core3ptr13drop_in_place17hfd19d49573e256e2E
	leaq	24(%r12), %rdi
	callq	__ZN4core3ptr13drop_in_place17h3aea0d3733c9cca1E
	addq	$72, %r12
	movq	%r12, %rdi
	callq	__ZN4core3ptr13drop_in_place17h2d2c1be63b04d6f8E
	movq	(%r14), %rdi
	callq	__ZN5alloc5alloc8box_free17h6e3c3ce0c47a1513E
	movq	%r15, %rdi
	callq	__Unwind_Resume
	ud2
Lfunc_end13:
	.cfi_endproc
	.section	__TEXT,__gcc_except_tab
	.p2align	2
GCC_except_table70:
Lexception13:
	.byte	255
	.byte	255
	.byte	1
	.uleb128 Lcst_end13-Lcst_begin13
Lcst_begin13:
	.uleb128 Ltmp172-Lfunc_begin13
	.uleb128 Ltmp173-Ltmp172
	.uleb128 Ltmp174-Lfunc_begin13
	.byte	0
	.uleb128 Ltmp175-Lfunc_begin13
	.uleb128 Ltmp176-Ltmp175
	.uleb128 Ltmp177-Lfunc_begin13
	.byte	0
	.uleb128 Ltmp176-Lfunc_begin13
	.uleb128 Lfunc_end13-Ltmp176
	.byte	0
	.byte	0
Lcst_end13:
	.p2align	2

	.section	__TEXT,__text,regular,pure_instructions
	.p2align	4, 0x90
__ZN4core3ptr13drop_in_place17h2370988de66c3054E:
	.cfi_startproc
	pushq	%rbp
	.cfi_def_cfa_offset 16
	.cfi_offset %rbp, -16
	movq	%rsp, %rbp
	.cfi_def_cfa_register %rbp
	testq	%rsi, %rsi
	je	LBB71_3
	testq	%rdi, %rdi
	je	LBB71_3
	imulq	$120, %rsi, %rsi
	testq	%rsi, %rsi
	je	LBB71_3
	movl	$8, %edx
	popq	%rbp
	jmp	___rust_dealloc
LBB71_3:
	popq	%rbp
	retq
	.cfi_endproc

	.p2align	4, 0x90
__ZN4core3ptr13drop_in_place17h266442b2559d74a5E:
Lfunc_begin14:
	.cfi_startproc
	.cfi_personality 155, _rust_eh_personality
	.cfi_lsda 16, Lexception14
	pushq	%rbp
	.cfi_def_cfa_offset 16
	.cfi_offset %rbp, -16
	movq	%rsp, %rbp
	.cfi_def_cfa_register %rbp
	pushq	%r15
	pushq	%r14
	pushq	%r12
	pushq	%rbx
	.cfi_offset %rbx, -48
	.cfi_offset %r12, -40
	.cfi_offset %r14, -32
	.cfi_offset %r15, -24
	movq	%rdi, %r14
	movq	(%rdi), %r12
	movq	8(%rdi), %rbx
	shlq	$6, %rbx
	.p2align	4, 0x90
LBB72_4:
	testq	%rbx, %rbx
	je	LBB72_5
	addq	$-64, %rbx
Ltmp178:
	movq	%r12, %rdi
	addq	$64, %r12
	callq	__ZN4core3ptr13drop_in_place17h386352c90607c7e3E
Ltmp179:
	jmp	LBB72_4
LBB72_5:
	movq	8(%r14), %rsi
	shlq	$6, %rsi
	je	LBB72_9
	movq	(%r14), %rdi
	movl	$8, %edx
	popq	%rbx
	popq	%r12
	popq	%r14
	popq	%r15
	popq	%rbp
	jmp	___rust_dealloc
LBB72_9:
	popq	%rbx
	popq	%r12
	popq	%r14
	popq	%r15
	popq	%rbp
	retq
LBB72_10:
Ltmp180:
	movq	%rax, %r15
	.p2align	4, 0x90
LBB72_2:
	testq	%rbx, %rbx
	je	LBB72_8
	addq	$-64, %rbx
Ltmp181:
	movq	%r12, %rdi
	addq	$64, %r12
	callq	__ZN4core3ptr13drop_in_place17h386352c90607c7e3E
Ltmp182:
	jmp	LBB72_2
LBB72_7:
Ltmp183:
	movq	%rax, %r15
LBB72_8:
	movq	(%r14), %rdi
	movq	8(%r14), %rsi
	callq	__ZN5alloc5alloc8box_free17h861f675986cbc64dE
	movq	%r15, %rdi
	callq	__Unwind_Resume
	ud2
Lfunc_end14:
	.cfi_endproc
	.section	__TEXT,__gcc_except_tab
	.p2align	2
GCC_except_table72:
Lexception14:
	.byte	255
	.byte	255
	.byte	1
	.uleb128 Lcst_end14-Lcst_begin14
Lcst_begin14:
	.uleb128 Ltmp178-Lfunc_begin14
	.uleb128 Ltmp179-Ltmp178
	.uleb128 Ltmp180-Lfunc_begin14
	.byte	0
	.uleb128 Ltmp181-Lfunc_begin14
	.uleb128 Ltmp182-Ltmp181
	.uleb128 Ltmp183-Lfunc_begin14
	.byte	0
	.uleb128 Ltmp182-Lfunc_begin14
	.uleb128 Lfunc_end14-Ltmp182
	.byte	0
	.byte	0
Lcst_end14:
	.p2align	2

	.section	__TEXT,__text,regular,pure_instructions
	.p2align	4, 0x90
__ZN4core3ptr13drop_in_place17h29adb06a90a60a4dE:
	.cfi_startproc
	pushq	%rbp
	.cfi_def_cfa_offset 16
	.cfi_offset %rbp, -16
	movq	%rsp, %rbp
	.cfi_def_cfa_register %rbp
	pushq	%r15
	pushq	%r14
	pushq	%r12
	pushq	%rbx
	.cfi_offset %rbx, -48
	.cfi_offset %r12, -40
	.cfi_offset %r14, -32
	.cfi_offset %r15, -24
	movq	%rdi, %r14
	movq	(%rdi), %r12
	movq	16(%rdi), %rax
	testq	%rax, %rax
	je	LBB73_8
	imulq	$56, %rax, %r15
	xorl	%ebx, %ebx
	cmpl	$0, (%r12,%rbx)
	jne	LBB73_3
	.p2align	4, 0x90
LBB73_6:
	addq	$56, %rbx
	cmpq	%rbx, %r15
	je	LBB73_7
LBB73_2:
	cmpl	$0, (%r12,%rbx)
	je	LBB73_6
LBB73_3:
	movq	8(%r12,%rbx), %rdi
	testq	%rdi, %rdi
	je	LBB73_6
	movq	16(%r12,%rbx), %rsi
	testq	%rsi, %rsi
	je	LBB73_6
	movl	$1, %edx
	callq	___rust_dealloc
	addq	$56, %rbx
	cmpq	%rbx, %r15
	jne	LBB73_2
LBB73_7:
	movq	(%r14), %r12
LBB73_8:
	movq	8(%r14), %rax
	testq	%rax, %rax
	je	LBB73_11
	testq	%r12, %r12
	je	LBB73_11
	imulq	$56, %rax, %rsi
	testq	%rsi, %rsi
	je	LBB73_11
	movl	$8, %edx
	movq	%r12, %rdi
	popq	%rbx
	popq	%r12
	popq	%r14
	popq	%r15
	popq	%rbp
	jmp	___rust_dealloc
LBB73_11:
	popq	%rbx
	popq	%r12
	popq	%r14
	popq	%r15
	popq	%rbp
	retq
	.cfi_endproc

	.p2align	4, 0x90
__ZN4core3ptr13drop_in_place17h29d5898f0d2a32f9E:
Lfunc_begin15:
	.cfi_startproc
	.cfi_personality 155, _rust_eh_personality
	.cfi_lsda 16, Lexception15
	pushq	%rbp
	.cfi_def_cfa_offset 16
	.cfi_offset %rbp, -16
	movq	%rsp, %rbp
	.cfi_def_cfa_register %rbp
	pushq	%r15
	pushq	%r14
	pushq	%r12
	pushq	%rbx
	.cfi_offset %rbx, -48
	.cfi_offset %r12, -40
	.cfi_offset %r14, -32
	.cfi_offset %r15, -24
	movq	%rdi, %r14
	movq	(%rdi), %r12
	movq	16(%rdi), %rbx
	shlq	$7, %rbx
	.p2align	4, 0x90
LBB74_4:
	testq	%rbx, %rbx
	je	LBB74_5
	addq	$-128, %rbx
Ltmp184:
	movq	%r12, %rdi
	addq	$128, %r12
	callq	__ZN4core3ptr13drop_in_place17h7700b212482e2130E
Ltmp185:
	jmp	LBB74_4
LBB74_5:
	movq	8(%r14), %rsi
	testq	%rsi, %rsi
	je	LBB74_9
	movq	(%r14), %rdi
	testq	%rdi, %rdi
	je	LBB74_9
	shlq	$7, %rsi
	je	LBB74_9
	movl	$8, %edx
	callq	___rust_dealloc
LBB74_9:
	cmpq	$0, 24(%r14)
	je	LBB74_13
	addq	$24, %r14
	movq	%r14, %rdi
	popq	%rbx
	popq	%r12
	popq	%r14
	popq	%r15
	popq	%rbp
	jmp	__ZN4core3ptr13drop_in_place17h675ec3357fbf5780E
LBB74_13:
	popq	%rbx
	popq	%r12
	popq	%r14
	popq	%r15
	popq	%rbp
	retq
LBB74_14:
Ltmp186:
	movq	%rax, %r15
	.p2align	4, 0x90
LBB74_2:
	testq	%rbx, %rbx
	je	LBB74_12
	addq	$-128, %rbx
Ltmp187:
	movq	%r12, %rdi
	addq	$128, %r12
	callq	__ZN4core3ptr13drop_in_place17h7700b212482e2130E
Ltmp188:
	jmp	LBB74_2
LBB74_11:
Ltmp189:
	movq	%rax, %r15
LBB74_12:
	movq	(%r14), %rdi
	movq	8(%r14), %rsi
	callq	__ZN4core3ptr13drop_in_place17h54d675d1d3ba9abaE
	addq	$24, %r14
	movq	%r14, %rdi
	callq	__ZN4core3ptr13drop_in_place17h1df138938ffd3e61E
	movq	%r15, %rdi
	callq	__Unwind_Resume
	ud2
Lfunc_end15:
	.cfi_endproc
	.section	__TEXT,__gcc_except_tab
	.p2align	2
GCC_except_table74:
Lexception15:
	.byte	255
	.byte	255
	.byte	1
	.uleb128 Lcst_end15-Lcst_begin15
Lcst_begin15:
	.uleb128 Ltmp184-Lfunc_begin15
	.uleb128 Ltmp185-Ltmp184
	.uleb128 Ltmp186-Lfunc_begin15
	.byte	0
	.uleb128 Ltmp185-Lfunc_begin15
	.uleb128 Ltmp187-Ltmp185
	.byte	0
	.byte	0
	.uleb128 Ltmp187-Lfunc_begin15
	.uleb128 Ltmp188-Ltmp187
	.uleb128 Ltmp189-Lfunc_begin15
	.byte	0
	.uleb128 Ltmp188-Lfunc_begin15
	.uleb128 Lfunc_end15-Ltmp188
	.byte	0
	.byte	0
Lcst_end15:
	.p2align	2

	.section	__TEXT,__text,regular,pure_instructions
	.p2align	4, 0x90
__ZN4core3ptr13drop_in_place17h29da96e201cbb58aE:
	.cfi_startproc
	pushq	%rbp
	.cfi_def_cfa_offset 16
	.cfi_offset %rbp, -16
	movq	%rsp, %rbp
	.cfi_def_cfa_register %rbp
	movq	8(%rdi), %rsi
	testq	%rsi, %rsi
	je	LBB75_3
	movq	(%rdi), %rdi
	testq	%rdi, %rdi
	je	LBB75_3
	shlq	$3, %rsi
	testq	%rsi, %rsi
	je	LBB75_3
	movl	$8, %edx
	popq	%rbp
	jmp	___rust_dealloc
LBB75_3:
	popq	%rbp
	retq
	.cfi_endproc

	.p2align	4, 0x90
__ZN4core3ptr13drop_in_place17h2d2c1be63b04d6f8E:
	.cfi_startproc
	pushq	%rbp
	.cfi_def_cfa_offset 16
	.cfi_offset %rbp, -16
	movq	%rsp, %rbp
	.cfi_def_cfa_register %rbp
	pushq	%r15
	pushq	%r14
	pushq	%r12
	pushq	%rbx
	.cfi_offset %rbx, -48
	.cfi_offset %r12, -40
	.cfi_offset %r14, -32
	.cfi_offset %r15, -24
	movq	%rdi, %r14
	movq	(%rdi), %r12
	movq	16(%rdi), %rax
	testq	%rax, %rax
	je	LBB76_8
	imulq	$56, %rax, %r15
	xorl	%ebx, %ebx
	cmpl	$0, (%r12,%rbx)
	jne	LBB76_3
	.p2align	4, 0x90
LBB76_6:
	addq	$56, %rbx
	cmpq	%rbx, %r15
	je	LBB76_7
LBB76_2:
	cmpl	$0, (%r12,%rbx)
	je	LBB76_6
LBB76_3:
	movq	8(%r12,%rbx), %rdi
	testq	%rdi, %rdi
	je	LBB76_6
	movq	16(%r12,%rbx), %rsi
	testq	%rsi, %rsi
	je	LBB76_6
	movl	$1, %edx
	callq	___rust_dealloc
	addq	$56, %rbx
	cmpq	%rbx, %r15
	jne	LBB76_2
LBB76_7:
	movq	(%r14), %r12
LBB76_8:
	movq	8(%r14), %rax
	testq	%rax, %rax
	je	LBB76_12
	testq	%r12, %r12
	je	LBB76_12
	imulq	$56, %rax, %rsi
	testq	%rsi, %rsi
	je	LBB76_12
	movl	$8, %edx
	movq	%r12, %rdi
	callq	___rust_dealloc
LBB76_12:
	movq	24(%r14), %rdi
	testq	%rdi, %rdi
	je	LBB76_18
	cmpl	$0, (%rdi)
	je	LBB76_17
	movq	8(%rdi), %rax
	testq	%rax, %rax
	je	LBB76_17
	movq	16(%rdi), %rsi
	testq	%rsi, %rsi
	je	LBB76_17
	movl	$1, %edx
	movq	%rax, %rdi
	callq	___rust_dealloc
	movq	24(%r14), %rdi
LBB76_17:
	movl	$48, %esi
	movl	$8, %edx
	popq	%rbx
	popq	%r12
	popq	%r14
	popq	%r15
	popq	%rbp
	jmp	___rust_dealloc
LBB76_18:
	popq	%rbx
	popq	%r12
	popq	%r14
	popq	%r15
	popq	%rbp
	retq
	.cfi_endproc

	.p2align	4, 0x90
__ZN4core3ptr13drop_in_place17h305796b0c0b5eb11E:
Lfunc_begin16:
	.cfi_startproc
	.cfi_personality 155, _rust_eh_personality
	.cfi_lsda 16, Lexception16
	pushq	%rbp
	.cfi_def_cfa_offset 16
	.cfi_offset %rbp, -16
	movq	%rsp, %rbp
	.cfi_def_cfa_register %rbp
	pushq	%r14
	pushq	%rbx
	.cfi_offset %rbx, -32
	.cfi_offset %r14, -24
	cmpl	$2, 20(%rdi)
	jne	LBB77_1
	popq	%rbx
	popq	%r14
	popq	%rbp
	retq
LBB77_1:
	movq	%rdi, %rbx
	movq	(%rdi), %rdi
Ltmp190:
	callq	__ZN4core3ptr13drop_in_place17hf161d33ff50401f0E
Ltmp191:
	movq	(%rbx), %rdi
	movl	$184, %esi
	movl	$8, %edx
	popq	%rbx
	popq	%r14
	popq	%rbp
	jmp	___rust_dealloc
LBB77_4:
Ltmp192:
	movq	%rax, %r14
	movq	(%rbx), %rdi
	callq	__ZN5alloc5alloc8box_free17hfab518436e4c9d16E
	movq	%r14, %rdi
	callq	__Unwind_Resume
	ud2
Lfunc_end16:
	.cfi_endproc
	.section	__TEXT,__gcc_except_tab
	.p2align	2
GCC_except_table77:
Lexception16:
	.byte	255
	.byte	255
	.byte	1
	.uleb128 Lcst_end16-Lcst_begin16
Lcst_begin16:
	.uleb128 Ltmp190-Lfunc_begin16
	.uleb128 Ltmp191-Ltmp190
	.uleb128 Ltmp192-Lfunc_begin16
	.byte	0
	.uleb128 Ltmp191-Lfunc_begin16
	.uleb128 Lfunc_end16-Ltmp191
	.byte	0
	.byte	0
Lcst_end16:
	.p2align	2

	.section	__TEXT,__text,regular,pure_instructions
	.p2align	4, 0x90
__ZN4core3ptr13drop_in_place17h3068eff266986d7cE:
	.cfi_startproc
	pushq	%rbp
	.cfi_def_cfa_offset 16
	.cfi_offset %rbp, -16
	movq	%rsp, %rbp
	.cfi_def_cfa_register %rbp
	movl	(%rdi), %ecx
	orl	$2, %ecx
	cmpl	$2, %ecx
	jne	LBB78_1
LBB78_3:
	popq	%rbp
	retq
LBB78_1:
	movq	%rdi, %rax
	movq	8(%rdi), %rdi
	testq	%rdi, %rdi
	je	LBB78_3
	movq	16(%rax), %rsi
	testq	%rsi, %rsi
	je	LBB78_3
	movl	$1, %edx
	popq	%rbp
	jmp	___rust_dealloc
	.cfi_endproc

	.p2align	4, 0x90
__ZN4core3ptr13drop_in_place17h3087da7ef2274124E:
Lfunc_begin17:
	.cfi_startproc
	.cfi_personality 155, _rust_eh_personality
	.cfi_lsda 16, Lexception17
	pushq	%rbp
	.cfi_def_cfa_offset 16
	.cfi_offset %rbp, -16
	movq	%rsp, %rbp
	.cfi_def_cfa_register %rbp
	pushq	%r15
	pushq	%r14
	pushq	%r12
	pushq	%rbx
	.cfi_offset %rbx, -48
	.cfi_offset %r12, -40
	.cfi_offset %r14, -32
	.cfi_offset %r15, -24
	movq	%rdi, %r15
	cmpl	$0, (%rdi)
	je	LBB79_4
	movq	8(%r15), %rdi
	testq	%rdi, %rdi
	je	LBB79_4
	movq	16(%r15), %rsi
	testq	%rsi, %rsi
	je	LBB79_4
	movl	$1, %edx
	callq	___rust_dealloc
LBB79_4:
	movq	40(%r15), %rax
	testq	%rax, %rax
	je	LBB79_26
	cmpq	$1, %rax
	jne	LBB79_22
	movq	48(%r15), %r12
	imulq	$248, 64(%r15), %rbx
	.p2align	4, 0x90
LBB79_10:
	testq	%rbx, %rbx
	je	LBB79_11
	addq	$-248, %rbx
Ltmp193:
	movq	%r12, %rdi
	addq	$248, %r12
	callq	__ZN4core3ptr13drop_in_place17hfc462ea42a0b8b35E
Ltmp194:
	jmp	LBB79_10
LBB79_22:
	leaq	48(%r15), %rdi
Ltmp202:
	callq	__ZN4core3ptr13drop_in_place17hc3641024c8be2426E
Ltmp203:
	movq	80(%r15), %rdi
	testq	%rdi, %rdi
	je	LBB79_26
Ltmp205:
	callq	__ZN4core3ptr13drop_in_place17hf161d33ff50401f0E
Ltmp206:
	movq	80(%r15), %rdi
	movl	$184, %esi
	jmp	LBB79_18
LBB79_11:
	movq	56(%r15), %rax
	testq	%rax, %rax
	je	LBB79_15
	movq	48(%r15), %rdi
	testq	%rdi, %rdi
	je	LBB79_15
	imulq	$248, %rax, %rsi
	testq	%rsi, %rsi
	je	LBB79_15
	movl	$8, %edx
	callq	___rust_dealloc
LBB79_15:
	movq	72(%r15), %rdi
	testq	%rdi, %rdi
	je	LBB79_26
Ltmp199:
	callq	__ZN4core3ptr13drop_in_place17hfc462ea42a0b8b35E
Ltmp200:
	movq	72(%r15), %rdi
	movl	$240, %esi
LBB79_18:
	movl	$8, %edx
	popq	%rbx
	popq	%r12
	popq	%r14
	popq	%r15
	popq	%rbp
	jmp	___rust_dealloc
LBB79_26:
	popq	%rbx
	popq	%r12
	popq	%r14
	popq	%r15
	popq	%rbp
	retq
LBB79_27:
Ltmp201:
	movq	%rax, %r14
	movq	72(%r15), %rdi
	callq	__ZN5alloc5alloc8box_free17h78caf3d7f62faf86E
	movq	%r14, %rdi
	callq	__Unwind_Resume
	ud2
LBB79_30:
Ltmp207:
	movq	%rax, %r14
	movq	80(%r15), %rdi
	callq	__ZN5alloc5alloc8box_free17hfab518436e4c9d16E
	movq	%r14, %rdi
	callq	__Unwind_Resume
	ud2
LBB79_21:
Ltmp204:
	movq	%rax, %r14
	addq	$80, %r15
	movq	%r15, %rdi
	callq	__ZN4core3ptr13drop_in_place17h41a75dae43233801E
	movq	%r14, %rdi
	callq	__Unwind_Resume
	ud2
LBB79_29:
Ltmp195:
	movq	%rax, %r14
	.p2align	4, 0x90
LBB79_8:
	testq	%rbx, %rbx
	je	LBB79_20
	addq	$-248, %rbx
Ltmp196:
	movq	%r12, %rdi
	addq	$248, %r12
	callq	__ZN4core3ptr13drop_in_place17h7441cb778749b635E
Ltmp197:
	jmp	LBB79_8
LBB79_19:
Ltmp198:
	movq	%rax, %r14
LBB79_20:
	movq	48(%r15), %rdi
	movq	56(%r15), %rsi
	callq	__ZN4core3ptr13drop_in_place17hc44b7eec31c11c52E
	addq	$72, %r15
	movq	%r15, %rdi
	callq	__ZN4core3ptr13drop_in_place17ha0321728cc8a1039E
	movq	%r14, %rdi
	callq	__Unwind_Resume
	ud2
Lfunc_end17:
	.cfi_endproc
	.section	__TEXT,__gcc_except_tab
	.p2align	2
GCC_except_table79:
Lexception17:
	.byte	255
	.byte	255
	.byte	1
	.uleb128 Lcst_end17-Lcst_begin17
Lcst_begin17:
	.uleb128 Ltmp193-Lfunc_begin17
	.uleb128 Ltmp194-Ltmp193
	.uleb128 Ltmp195-Lfunc_begin17
	.byte	0
	.uleb128 Ltmp202-Lfunc_begin17
	.uleb128 Ltmp203-Ltmp202
	.uleb128 Ltmp204-Lfunc_begin17
	.byte	0
	.uleb128 Ltmp205-Lfunc_begin17
	.uleb128 Ltmp206-Ltmp205
	.uleb128 Ltmp207-Lfunc_begin17
	.byte	0
	.uleb128 Ltmp199-Lfunc_begin17
	.uleb128 Ltmp200-Ltmp199
	.uleb128 Ltmp201-Lfunc_begin17
	.byte	0
	.uleb128 Ltmp200-Lfunc_begin17
	.uleb128 Ltmp196-Ltmp200
	.byte	0
	.byte	0
	.uleb128 Ltmp196-Lfunc_begin17
	.uleb128 Ltmp197-Ltmp196
	.uleb128 Ltmp198-Lfunc_begin17
	.byte	0
	.uleb128 Ltmp197-Lfunc_begin17
	.uleb128 Lfunc_end17-Ltmp197
	.byte	0
	.byte	0
Lcst_end17:
	.p2align	2

	.section	__TEXT,__text,regular,pure_instructions
	.p2align	4, 0x90
__ZN4core3ptr13drop_in_place17h319b34b88aa4e8dcE:
Lfunc_begin18:
	.cfi_startproc
	.cfi_personality 155, _rust_eh_personality
	.cfi_lsda 16, Lexception18
	pushq	%rbp
	.cfi_def_cfa_offset 16
	.cfi_offset %rbp, -16
	movq	%rsp, %rbp
	.cfi_def_cfa_register %rbp
	pushq	%r14
	pushq	%rbx
	.cfi_offset %rbx, -32
	.cfi_offset %r14, -24
	movq	%rdi, %rbx
Ltmp208:
	callq	__ZN4core3ptr13drop_in_place17hcf7028beebe618efE
Ltmp209:
	movq	24(%rbx), %rdi
	testq	%rdi, %rdi
	je	LBB80_4
Ltmp211:
	callq	__ZN4core3ptr13drop_in_place17h6cd689ac8fc3fb28E
Ltmp212:
	movq	24(%rbx), %rdi
	movl	$384, %esi
	movl	$8, %edx
	popq	%rbx
	popq	%r14
	popq	%rbp
	jmp	___rust_dealloc
LBB80_4:
	popq	%rbx
	popq	%r14
	popq	%rbp
	retq
LBB80_7:
Ltmp213:
	movq	%rax, %r14
	movq	24(%rbx), %rdi
	callq	__ZN5alloc5alloc8box_free17h7aee8bfb15c768c7E
	movq	%r14, %rdi
	callq	__Unwind_Resume
	ud2
LBB80_5:
Ltmp210:
	movq	%rax, %r14
	addq	$24, %rbx
	movq	%rbx, %rdi
	callq	__ZN4core3ptr13drop_in_place17ha0d162522919c7eaE
	movq	%r14, %rdi
	callq	__Unwind_Resume
	ud2
Lfunc_end18:
	.cfi_endproc
	.section	__TEXT,__gcc_except_tab
	.p2align	2
GCC_except_table80:
Lexception18:
	.byte	255
	.byte	255
	.byte	1
	.uleb128 Lcst_end18-Lcst_begin18
Lcst_begin18:
	.uleb128 Ltmp208-Lfunc_begin18
	.uleb128 Ltmp209-Ltmp208
	.uleb128 Ltmp210-Lfunc_begin18
	.byte	0
	.uleb128 Ltmp211-Lfunc_begin18
	.uleb128 Ltmp212-Ltmp211
	.uleb128 Ltmp213-Lfunc_begin18
	.byte	0
	.uleb128 Ltmp212-Lfunc_begin18
	.uleb128 Lfunc_end18-Ltmp212
	.byte	0
	.byte	0
Lcst_end18:
	.p2align	2

	.section	__TEXT,__text,regular,pure_instructions
	.p2align	4, 0x90
__ZN4core3ptr13drop_in_place17h34270e03c18c94f6E:
Lfunc_begin19:
	.cfi_startproc
	.cfi_personality 155, _rust_eh_personality
	.cfi_lsda 16, Lexception19
	pushq	%rbp
	.cfi_def_cfa_offset 16
	.cfi_offset %rbp, -16
	movq	%rsp, %rbp
	.cfi_def_cfa_register %rbp
	pushq	%r15
	pushq	%r14
	pushq	%r12
	pushq	%rbx
	.cfi_offset %rbx, -48
	.cfi_offset %r12, -40
	.cfi_offset %r14, -32
	.cfi_offset %r15, -24
	movq	%rdi, %r15
	movq	(%rdi), %r12
	imulq	$112, 16(%rdi), %rbx
	.p2align	4, 0x90
LBB81_4:
	testq	%rbx, %rbx
	je	LBB81_5
	addq	$-112, %rbx
Ltmp214:
	movq	%r12, %rdi
	addq	$112, %r12
	callq	__ZN4core3ptr13drop_in_place17h3087da7ef2274124E
Ltmp215:
	jmp	LBB81_4
LBB81_5:
	movq	8(%r15), %rax
	testq	%rax, %rax
	je	LBB81_9
	movq	(%r15), %rdi
	testq	%rdi, %rdi
	je	LBB81_9
	imulq	$112, %rax, %rsi
	testq	%rsi, %rsi
	je	LBB81_9
	movl	$8, %edx
	callq	___rust_dealloc
LBB81_9:
	movq	24(%r15), %rdi
	testq	%rdi, %rdi
	je	LBB81_14
Ltmp220:
	callq	__ZN4core3ptr13drop_in_place17h3087da7ef2274124E
Ltmp221:
	movq	24(%r15), %rdi
	movl	$104, %esi
	movl	$8, %edx
	popq	%rbx
	popq	%r12
	popq	%r14
	popq	%r15
	popq	%rbp
	jmp	___rust_dealloc
LBB81_14:
	popq	%rbx
	popq	%r12
	popq	%r14
	popq	%r15
	popq	%rbp
	retq
LBB81_15:
Ltmp222:
	movq	%rax, %r14
	movq	24(%r15), %rdi
	callq	__ZN5alloc5alloc8box_free17hd946ac010d0783fbE
	movq	%r14, %rdi
	callq	__Unwind_Resume
	ud2
LBB81_17:
Ltmp216:
	movq	%rax, %r14
	.p2align	4, 0x90
LBB81_2:
	testq	%rbx, %rbx
	je	LBB81_13
	addq	$-112, %rbx
Ltmp217:
	movq	%r12, %rdi
	addq	$112, %r12
	callq	__ZN4core3ptr13drop_in_place17h9b40471bcf5f1174E
Ltmp218:
	jmp	LBB81_2
LBB81_12:
Ltmp219:
	movq	%rax, %r14
LBB81_13:
	movq	(%r15), %rdi
	movq	8(%r15), %rsi
	callq	__ZN4core3ptr13drop_in_place17h9989c93b8e589b61E
	addq	$24, %r15
	movq	%r15, %rdi
	callq	__ZN4core3ptr13drop_in_place17h1977e1a3775e52fcE
	movq	%r14, %rdi
	callq	__Unwind_Resume
	ud2
Lfunc_end19:
	.cfi_endproc
	.section	__TEXT,__gcc_except_tab
	.p2align	2
GCC_except_table81:
Lexception19:
	.byte	255
	.byte	255
	.byte	1
	.uleb128 Lcst_end19-Lcst_begin19
Lcst_begin19:
	.uleb128 Ltmp214-Lfunc_begin19
	.uleb128 Ltmp215-Ltmp214
	.uleb128 Ltmp216-Lfunc_begin19
	.byte	0
	.uleb128 Ltmp220-Lfunc_begin19
	.uleb128 Ltmp221-Ltmp220
	.uleb128 Ltmp222-Lfunc_begin19
	.byte	0
	.uleb128 Ltmp221-Lfunc_begin19
	.uleb128 Ltmp217-Ltmp221
	.byte	0
	.byte	0
	.uleb128 Ltmp217-Lfunc_begin19
	.uleb128 Ltmp218-Ltmp217
	.uleb128 Ltmp219-Lfunc_begin19
	.byte	0
	.uleb128 Ltmp218-Lfunc_begin19
	.uleb128 Lfunc_end19-Ltmp218
	.byte	0
	.byte	0
Lcst_end19:
	.p2align	2

	.section	__TEXT,__text,regular,pure_instructions
	.p2align	4, 0x90
__ZN4core3ptr13drop_in_place17h3458d2d6706aebd4E:
Lfunc_begin20:
	.cfi_startproc
	.cfi_personality 155, _rust_eh_personality
	.cfi_lsda 16, Lexception20
	pushq	%rbp
	.cfi_def_cfa_offset 16
	.cfi_offset %rbp, -16
	movq	%rsp, %rbp
	.cfi_def_cfa_register %rbp
	pushq	%r14
	pushq	%rbx
	.cfi_offset %rbx, -32
	.cfi_offset %r14, -24
	movq	%rdi, %rbx
	movq	(%rdi), %rax
	cmpq	$1, %rax
	je	LBB82_8
	leaq	8(%rbx), %rdi
	testq	%rax, %rax
	jne	LBB82_13
Ltmp223:
	callq	__ZN4core3ptr13drop_in_place17h5522285a3da3a9b4E
Ltmp224:
	leaq	56(%rbx), %rdi
Ltmp226:
	callq	__ZN4core3ptr13drop_in_place17hf161d33ff50401f0E
Ltmp227:
	addq	$240, %rbx
	movq	%rbx, %rdi
	popq	%rbx
	popq	%r14
	popq	%rbp
	jmp	__ZN4core3ptr13drop_in_place17h29d5898f0d2a32f9E
LBB82_8:
	cmpl	$0, 8(%rbx)
	je	LBB82_12
	movq	16(%rbx), %rdi
	testq	%rdi, %rdi
	je	LBB82_12
	movq	24(%rbx), %rsi
	testq	%rsi, %rsi
	je	LBB82_12
	movl	$1, %edx
	callq	___rust_dealloc
LBB82_12:
	addq	$56, %rbx
	movq	%rbx, %rdi
	popq	%rbx
	popq	%r14
	popq	%rbp
	jmp	__ZN4core3ptr13drop_in_place17h2d2c1be63b04d6f8E
LBB82_13:
Ltmp229:
	callq	__ZN4core3ptr13drop_in_place17hf161d33ff50401f0E
Ltmp230:
	addq	$192, %rbx
	movq	%rbx, %rdi
	popq	%rbx
	popq	%r14
	popq	%rbp
	jmp	__ZN4core3ptr13drop_in_place17hf161d33ff50401f0E
LBB82_15:
Ltmp231:
	movq	%rax, %r14
	addq	$192, %rbx
	movq	%rbx, %rdi
	callq	__ZN4core3ptr13drop_in_place17hf161d33ff50401f0E
	movq	%r14, %rdi
	callq	__Unwind_Resume
	ud2
LBB82_7:
Ltmp228:
	movq	%rax, %r14
	jmp	LBB82_6
LBB82_5:
Ltmp225:
	movq	%rax, %r14
	leaq	56(%rbx), %rdi
	callq	__ZN4core3ptr13drop_in_place17hf161d33ff50401f0E
LBB82_6:
	addq	$240, %rbx
	movq	%rbx, %rdi
	callq	__ZN4core3ptr13drop_in_place17h29d5898f0d2a32f9E
	movq	%r14, %rdi
	callq	__Unwind_Resume
	ud2
Lfunc_end20:
	.cfi_endproc
	.section	__TEXT,__gcc_except_tab
	.p2align	2
GCC_except_table82:
Lexception20:
	.byte	255
	.byte	255
	.byte	1
	.uleb128 Lcst_end20-Lcst_begin20
Lcst_begin20:
	.uleb128 Ltmp223-Lfunc_begin20
	.uleb128 Ltmp224-Ltmp223
	.uleb128 Ltmp225-Lfunc_begin20
	.byte	0
	.uleb128 Ltmp226-Lfunc_begin20
	.uleb128 Ltmp227-Ltmp226
	.uleb128 Ltmp228-Lfunc_begin20
	.byte	0
	.uleb128 Ltmp227-Lfunc_begin20
	.uleb128 Ltmp229-Ltmp227
	.byte	0
	.byte	0
	.uleb128 Ltmp229-Lfunc_begin20
	.uleb128 Ltmp230-Ltmp229
	.uleb128 Ltmp231-Lfunc_begin20
	.byte	0
	.uleb128 Ltmp230-Lfunc_begin20
	.uleb128 Lfunc_end20-Ltmp230
	.byte	0
	.byte	0
Lcst_end20:
	.p2align	2

	.section	__TEXT,__text,regular,pure_instructions
	.p2align	4, 0x90
__ZN4core3ptr13drop_in_place17h37f5d5fc65e16395E:
Lfunc_begin21:
	.cfi_startproc
	.cfi_personality 155, _rust_eh_personality
	.cfi_lsda 16, Lexception21
	pushq	%rbp
	.cfi_def_cfa_offset 16
	.cfi_offset %rbp, -16
	movq	%rsp, %rbp
	.cfi_def_cfa_register %rbp
	pushq	%r15
	pushq	%r14
	pushq	%rbx
	pushq	%rax
	.cfi_offset %rbx, -40
	.cfi_offset %r14, -32
	.cfi_offset %r15, -24
	movq	%rdi, %rbx
	movl	(%rdi), %eax
	cmpq	$6, %rax
	ja	LBB83_18
	leaq	LJTI83_0(%rip), %rcx
	movslq	(%rcx,%rax,4), %rax
	addq	%rcx, %rax
	jmpq	*%rax
LBB83_3:
	addq	$8, %rbx
	movq	%rbx, %rdi
	addq	$8, %rsp
	popq	%rbx
	popq	%r14
	popq	%r15
	popq	%rbp
	jmp	__ZN4core3ptr13drop_in_place17h7be3b27f69cc22eaE
LBB83_18:
	cmpl	$0, 8(%rbx)
	je	LBB83_23
	movq	16(%rbx), %rdi
	testq	%rdi, %rdi
	je	LBB83_2
	movq	24(%rbx), %rsi
	testq	%rsi, %rsi
	je	LBB83_2
	movl	$1, %edx
	jmp	LBB83_22
LBB83_2:
	addq	$8, %rsp
	popq	%rbx
	popq	%r14
	popq	%r15
	popq	%rbp
	retq
LBB83_4:
	movq	8(%rbx), %r14
	cmpl	$0, (%r14)
	jne	LBB83_6
	leaq	4(%r14), %rdi
Ltmp235:
	callq	__ZN77_$LT$proc_macro..bridge..client..Literal$u20$as$u20$core..ops..drop..Drop$GT$4drop17he2aea19d6a82f53dE
Ltmp236:
	jmp	LBB83_9
LBB83_16:
	movq	8(%rbx), %r14
	cmpl	$0, (%r14)
	je	LBB83_17
LBB83_6:
	movq	8(%r14), %rdi
	testq	%rdi, %rdi
	je	LBB83_9
	movq	16(%r14), %rsi
	testq	%rsi, %rsi
	je	LBB83_9
	movl	$1, %edx
	callq	___rust_dealloc
	movq	40(%r14), %rsi
	testq	%rsi, %rsi
	jne	LBB83_10
	jmp	LBB83_11
LBB83_23:
	addq	$12, %rbx
	movq	%rbx, %rdi
	addq	$8, %rsp
	popq	%rbx
	popq	%r14
	popq	%r15
	popq	%rbp
	jmp	__ZN77_$LT$proc_macro..bridge..client..Literal$u20$as$u20$core..ops..drop..Drop$GT$4drop17he2aea19d6a82f53dE
LBB83_17:
	leaq	4(%r14), %rdi
Ltmp232:
	callq	__ZN77_$LT$proc_macro..bridge..client..Literal$u20$as$u20$core..ops..drop..Drop$GT$4drop17he2aea19d6a82f53dE
Ltmp233:
LBB83_9:
	movq	40(%r14), %rsi
	testq	%rsi, %rsi
	je	LBB83_11
LBB83_10:
	movq	32(%r14), %rdi
	movl	$1, %edx
	callq	___rust_dealloc
LBB83_11:
	movq	56(%r14), %rsi
	testq	%rsi, %rsi
	je	LBB83_13
	movq	48(%r14), %rdi
	movl	$1, %edx
	callq	___rust_dealloc
LBB83_13:
	movq	8(%rbx), %rdi
	movl	$64, %esi
	movl	$8, %edx
LBB83_22:
	addq	$8, %rsp
	popq	%rbx
	popq	%r14
	popq	%r15
	popq	%rbp
	jmp	___rust_dealloc
LBB83_24:
Ltmp234:
	jmp	LBB83_15
LBB83_14:
Ltmp237:
LBB83_15:
	movq	%rax, %r15
	leaq	32(%r14), %rdi
	callq	__ZN4core3ptr13drop_in_place17h8d6b0d58785539efE
	addq	$48, %r14
	movq	%r14, %rdi
	callq	__ZN4core3ptr13drop_in_place17h8d6b0d58785539efE
	movq	8(%rbx), %rdi
	callq	__ZN5alloc5alloc8box_free17h6547c8529131e391E
	movq	%r15, %rdi
	callq	__Unwind_Resume
	ud2
Lfunc_end21:
	.cfi_endproc
	.p2align	2, 0x90
	.data_region jt32
.set L83_0_set_3, LBB83_3-LJTI83_0
.set L83_0_set_4, LBB83_4-LJTI83_0
.set L83_0_set_16, LBB83_16-LJTI83_0
.set L83_0_set_2, LBB83_2-LJTI83_0
LJTI83_0:
	.long	L83_0_set_3
	.long	L83_0_set_3
	.long	L83_0_set_3
	.long	L83_0_set_3
	.long	L83_0_set_4
	.long	L83_0_set_16
	.long	L83_0_set_2
	.end_data_region
	.section	__TEXT,__gcc_except_tab
	.p2align	2
GCC_except_table83:
Lexception21:
	.byte	255
	.byte	255
	.byte	1
	.uleb128 Lcst_end21-Lcst_begin21
Lcst_begin21:
	.uleb128 Lfunc_begin21-Lfunc_begin21
	.uleb128 Ltmp235-Lfunc_begin21
	.byte	0
	.byte	0
	.uleb128 Ltmp235-Lfunc_begin21
	.uleb128 Ltmp236-Ltmp235
	.uleb128 Ltmp237-Lfunc_begin21
	.byte	0
	.uleb128 Ltmp236-Lfunc_begin21
	.uleb128 Ltmp232-Ltmp236
	.byte	0
	.byte	0
	.uleb128 Ltmp232-Lfunc_begin21
	.uleb128 Ltmp233-Ltmp232
	.uleb128 Ltmp234-Lfunc_begin21
	.byte	0
	.uleb128 Ltmp233-Lfunc_begin21
	.uleb128 Lfunc_end21-Ltmp233
	.byte	0
	.byte	0
Lcst_end21:
	.p2align	2

	.section	__TEXT,__text,regular,pure_instructions
	.p2align	4, 0x90
__ZN4core3ptr13drop_in_place17h386352c90607c7e3E:
Lfunc_begin22:
	.cfi_startproc
	.cfi_personality 155, _rust_eh_personality
	.cfi_lsda 16, Lexception22
	pushq	%rbp
	.cfi_def_cfa_offset 16
	.cfi_offset %rbp, -16
	movq	%rsp, %rbp
	.cfi_def_cfa_register %rbp
	pushq	%r15
	pushq	%r14
	pushq	%r12
	pushq	%rbx
	.cfi_offset %rbx, -48
	.cfi_offset %r12, -40
	.cfi_offset %r14, -32
	.cfi_offset %r15, -24
	movq	%rdi, %r15
	movl	(%rdi), %eax
	testq	%rax, %rax
	je	LBB84_12
	cmpq	$1, %rax
	je	LBB84_16
	cmpq	$3, %rax
	jne	LBB84_3
	cmpl	$0, 8(%r15)
	jne	LBB84_17
	addq	$12, %r15
	movq	%r15, %rdi
	popq	%rbx
	popq	%r12
	popq	%r14
	popq	%r15
	popq	%rbp
	jmp	__ZN77_$LT$proc_macro..bridge..client..Literal$u20$as$u20$core..ops..drop..Drop$GT$4drop17he2aea19d6a82f53dE
LBB84_16:
	cmpl	$0, 8(%r15)
	je	LBB84_3
LBB84_17:
	movq	16(%r15), %rdi
	testq	%rdi, %rdi
	je	LBB84_3
	movq	24(%r15), %rsi
	testq	%rsi, %rsi
	je	LBB84_3
	movl	$1, %edx
	jmp	LBB84_20
LBB84_12:
	cmpl	$0, 8(%r15)
	je	LBB84_13
	leaq	16(%r15), %rdi
Ltmp238:
	callq	__ZN4core3ptr13drop_in_place17hba372edf174587bdE
Ltmp239:
	jmp	LBB84_15
LBB84_13:
	leaq	12(%r15), %rdi
Ltmp240:
	callq	__ZN75_$LT$proc_macro..bridge..client..Group$u20$as$u20$core..ops..drop..Drop$GT$4drop17he3c88ef672dde681E
Ltmp241:
LBB84_15:
	movq	48(%r15), %r12
	movq	56(%r15), %rbx
	shlq	$6, %rbx
	.p2align	4, 0x90
LBB84_7:
	testq	%rbx, %rbx
	je	LBB84_8
	addq	$-64, %rbx
Ltmp243:
	movq	%r12, %rdi
	addq	$64, %r12
	callq	__ZN4core3ptr13drop_in_place17h386352c90607c7e3E
Ltmp244:
	jmp	LBB84_7
LBB84_8:
	movq	56(%r15), %rsi
	shlq	$6, %rsi
	je	LBB84_3
	movq	48(%r15), %rdi
	movl	$8, %edx
LBB84_20:
	popq	%rbx
	popq	%r12
	popq	%r14
	popq	%r15
	popq	%rbp
	jmp	___rust_dealloc
LBB84_3:
	popq	%rbx
	popq	%r12
	popq	%r14
	popq	%r15
	popq	%rbp
	retq
LBB84_23:
Ltmp242:
	movq	%rax, %r14
	addq	$48, %r15
	movq	%r15, %rdi
	callq	__ZN4core3ptr13drop_in_place17h266442b2559d74a5E
	movq	%r14, %rdi
	callq	__Unwind_Resume
	ud2
LBB84_25:
Ltmp245:
	movq	%rax, %r14
	.p2align	4, 0x90
LBB84_5:
	testq	%rbx, %rbx
	je	LBB84_11
	addq	$-64, %rbx
Ltmp246:
	movq	%r12, %rdi
	addq	$64, %r12
	callq	__ZN4core3ptr13drop_in_place17h386352c90607c7e3E
Ltmp247:
	jmp	LBB84_5
LBB84_10:
Ltmp248:
	movq	%rax, %r14
LBB84_11:
	movq	48(%r15), %rdi
	movq	56(%r15), %rsi
	callq	__ZN5alloc5alloc8box_free17h861f675986cbc64dE
	movq	%r14, %rdi
	callq	__Unwind_Resume
	ud2
Lfunc_end22:
	.cfi_endproc
	.section	__TEXT,__gcc_except_tab
	.p2align	2
GCC_except_table84:
Lexception22:
	.byte	255
	.byte	255
	.byte	1
	.uleb128 Lcst_end22-Lcst_begin22
Lcst_begin22:
	.uleb128 Lfunc_begin22-Lfunc_begin22
	.uleb128 Ltmp238-Lfunc_begin22
	.byte	0
	.byte	0
	.uleb128 Ltmp238-Lfunc_begin22
	.uleb128 Ltmp241-Ltmp238
	.uleb128 Ltmp242-Lfunc_begin22
	.byte	0
	.uleb128 Ltmp243-Lfunc_begin22
	.uleb128 Ltmp244-Ltmp243
	.uleb128 Ltmp245-Lfunc_begin22
	.byte	0
	.uleb128 Ltmp244-Lfunc_begin22
	.uleb128 Ltmp246-Ltmp244
	.byte	0
	.byte	0
	.uleb128 Ltmp246-Lfunc_begin22
	.uleb128 Ltmp247-Ltmp246
	.uleb128 Ltmp248-Lfunc_begin22
	.byte	0
	.uleb128 Ltmp247-Lfunc_begin22
	.uleb128 Lfunc_end22-Ltmp247
	.byte	0
	.byte	0
Lcst_end22:
	.p2align	2

	.section	__TEXT,__text,regular,pure_instructions
	.p2align	4, 0x90
__ZN4core3ptr13drop_in_place17h3a3bbda48e08754fE:
	.cfi_startproc
	pushq	%rbp
	.cfi_def_cfa_offset 16
	.cfi_offset %rbp, -16
	movq	%rsp, %rbp
	.cfi_def_cfa_register %rbp
	popq	%rbp
	jmp	__ZN4core3ptr13drop_in_place17h6cd689ac8fc3fb28E
	.cfi_endproc

	.p2align	4, 0x90
__ZN4core3ptr13drop_in_place17h3aea0d3733c9cca1E:
	.cfi_startproc
	pushq	%rbp
	.cfi_def_cfa_offset 16
	.cfi_offset %rbp, -16
	movq	%rsp, %rbp
	.cfi_def_cfa_register %rbp
	cmpl	$0, (%rdi)
	je	LBB86_3
	movq	%rdi, %rax
	movq	8(%rdi), %rdi
	testq	%rdi, %rdi
	je	LBB86_3
	movq	16(%rax), %rsi
	testq	%rsi, %rsi
	je	LBB86_3
	movl	$1, %edx
	popq	%rbp
	jmp	___rust_dealloc
LBB86_3:
	popq	%rbp
	retq
	.cfi_endproc

	.p2align	4, 0x90
__ZN4core3ptr13drop_in_place17h3b0504de734257e5E:
	.cfi_startproc
	pushq	%rbp
	.cfi_def_cfa_offset 16
	.cfi_offset %rbp, -16
	movq	%rsp, %rbp
	.cfi_def_cfa_register %rbp
	movl	(%rdi), %eax
	testq	%rax, %rax
	je	LBB87_4
	cmpq	$1, %rax
	je	LBB87_6
	cmpq	$2, %rax
	je	LBB87_3
	cmpl	$0, 8(%rdi)
	jne	LBB87_7
	addq	$12, %rdi
	popq	%rbp
	jmp	__ZN77_$LT$proc_macro..bridge..client..Literal$u20$as$u20$core..ops..drop..Drop$GT$4drop17he2aea19d6a82f53dE
LBB87_4:
	cmpl	$0, 8(%rdi)
	je	LBB87_12
	addq	$16, %rdi
	popq	%rbp
	jmp	__ZN4core3ptr13drop_in_place17hba372edf174587bdE
LBB87_6:
	cmpl	$0, 8(%rdi)
	je	LBB87_3
LBB87_7:
	movq	16(%rdi), %rax
	testq	%rax, %rax
	je	LBB87_3
	movq	24(%rdi), %rsi
	testq	%rsi, %rsi
	je	LBB87_3
	movl	$1, %edx
	movq	%rax, %rdi
	popq	%rbp
	jmp	___rust_dealloc
LBB87_3:
	popq	%rbp
	retq
LBB87_12:
	addq	$12, %rdi
	popq	%rbp
	jmp	__ZN75_$LT$proc_macro..bridge..client..Group$u20$as$u20$core..ops..drop..Drop$GT$4drop17he3c88ef672dde681E
	.cfi_endproc

	.p2align	4, 0x90
__ZN4core3ptr13drop_in_place17h41a75dae43233801E:
Lfunc_begin23:
	.cfi_startproc
	.cfi_personality 155, _rust_eh_personality
	.cfi_lsda 16, Lexception23
	pushq	%rbp
	.cfi_def_cfa_offset 16
	.cfi_offset %rbp, -16
	movq	%rsp, %rbp
	.cfi_def_cfa_register %rbp
	pushq	%r14
	pushq	%rbx
	.cfi_offset %rbx, -32
	.cfi_offset %r14, -24
	movq	%rdi, %rbx
	movq	(%rdi), %rdi
	testq	%rdi, %rdi
	je	LBB88_3
Ltmp249:
	callq	__ZN4core3ptr13drop_in_place17hf161d33ff50401f0E
Ltmp250:
	movq	(%rbx), %rdi
	movl	$184, %esi
	movl	$8, %edx
	popq	%rbx
	popq	%r14
	popq	%rbp
	jmp	___rust_dealloc
LBB88_3:
	popq	%rbx
	popq	%r14
	popq	%rbp
	retq
LBB88_4:
Ltmp251:
	movq	%rax, %r14
	movq	(%rbx), %rdi
	callq	__ZN5alloc5alloc8box_free17hfab518436e4c9d16E
	movq	%r14, %rdi
	callq	__Unwind_Resume
	ud2
Lfunc_end23:
	.cfi_endproc
	.section	__TEXT,__gcc_except_tab
	.p2align	2
GCC_except_table88:
Lexception23:
	.byte	255
	.byte	255
	.byte	1
	.uleb128 Lcst_end23-Lcst_begin23
Lcst_begin23:
	.uleb128 Ltmp249-Lfunc_begin23
	.uleb128 Ltmp250-Ltmp249
	.uleb128 Ltmp251-Lfunc_begin23
	.byte	0
	.uleb128 Ltmp250-Lfunc_begin23
	.uleb128 Lfunc_end23-Ltmp250
	.byte	0
	.byte	0
Lcst_end23:
	.p2align	2

	.section	__TEXT,__text,regular,pure_instructions
	.p2align	4, 0x90
__ZN4core3ptr13drop_in_place17h4206e1544b32d1a8E:
	.cfi_startproc
	pushq	%rbp
	.cfi_def_cfa_offset 16
	.cfi_offset %rbp, -16
	movq	%rsp, %rbp
	.cfi_def_cfa_register %rbp
	testq	%rsi, %rsi
	je	LBB89_3
	testq	%rdi, %rdi
	je	LBB89_3
	shlq	$3, %rsi
	testq	%rsi, %rsi
	je	LBB89_3
	movl	$4, %edx
	popq	%rbp
	jmp	___rust_dealloc
LBB89_3:
	popq	%rbp
	retq
	.cfi_endproc

	.p2align	4, 0x90
__ZN4core3ptr13drop_in_place17h42864d7ad65f6937E:
Lfunc_begin24:
	.cfi_startproc
	.cfi_personality 155, _rust_eh_personality
	.cfi_lsda 16, Lexception24
	pushq	%rbp
	.cfi_def_cfa_offset 16
	.cfi_offset %rbp, -16
	movq	%rsp, %rbp
	.cfi_def_cfa_register %rbp
	pushq	%r15
	pushq	%r14
	pushq	%r12
	pushq	%rbx
	.cfi_offset %rbx, -48
	.cfi_offset %r12, -40
	.cfi_offset %r14, -32
	.cfi_offset %r15, -24
	movq	%rdi, %r14
	movq	(%rdi), %r12
	movq	16(%rdi), %rax
	shlq	$4, %rax
	leaq	(%rax,%rax,2), %rbx
	.p2align	4, 0x90
LBB90_4:
	testq	%rbx, %rbx
	je	LBB90_5
	addq	$-48, %rbx
Ltmp252:
	movq	%r12, %rdi
	addq	$48, %r12
	callq	__ZN4core3ptr13drop_in_place17h3b0504de734257e5E
Ltmp253:
	jmp	LBB90_4
LBB90_5:
	movq	8(%r14), %rax
	testq	%rax, %rax
	je	LBB90_8
	movq	(%r14), %rdi
	testq	%rdi, %rdi
	je	LBB90_8
	shlq	$4, %rax
	leaq	(%rax,%rax,2), %rsi
	testq	%rsi, %rsi
	je	LBB90_8
	movl	$8, %edx
	popq	%rbx
	popq	%r12
	popq	%r14
	popq	%r15
	popq	%rbp
	jmp	___rust_dealloc
LBB90_8:
	popq	%rbx
	popq	%r12
	popq	%r14
	popq	%r15
	popq	%rbp
	retq
LBB90_11:
Ltmp254:
	movq	%rax, %r15
	.p2align	4, 0x90
LBB90_2:
	testq	%rbx, %rbx
	je	LBB90_10
	addq	$-48, %rbx
Ltmp255:
	movq	%r12, %rdi
	addq	$48, %r12
	callq	__ZN4core3ptr13drop_in_place17h3b0504de734257e5E
Ltmp256:
	jmp	LBB90_2
LBB90_9:
Ltmp257:
	movq	%rax, %r15
LBB90_10:
	movq	(%r14), %rdi
	movq	8(%r14), %rsi
	callq	__ZN4core3ptr13drop_in_place17h6d43e1ac3950e2a2E
	movq	%r15, %rdi
	callq	__Unwind_Resume
	ud2
Lfunc_end24:
	.cfi_endproc
	.section	__TEXT,__gcc_except_tab
	.p2align	2
GCC_except_table90:
Lexception24:
	.byte	255
	.byte	255
	.byte	1
	.uleb128 Lcst_end24-Lcst_begin24
Lcst_begin24:
	.uleb128 Ltmp252-Lfunc_begin24
	.uleb128 Ltmp253-Ltmp252
	.uleb128 Ltmp254-Lfunc_begin24
	.byte	0
	.uleb128 Ltmp255-Lfunc_begin24
	.uleb128 Ltmp256-Ltmp255
	.uleb128 Ltmp257-Lfunc_begin24
	.byte	0
	.uleb128 Ltmp256-Lfunc_begin24
	.uleb128 Lfunc_end24-Ltmp256
	.byte	0
	.byte	0
Lcst_end24:
	.p2align	2

	.section	__TEXT,__text,regular,pure_instructions
	.p2align	4, 0x90
__ZN4core3ptr13drop_in_place17h42f877d1ceb7cb9dE:
Lfunc_begin25:
	.cfi_startproc
	.cfi_personality 155, _rust_eh_personality
	.cfi_lsda 16, Lexception25
	pushq	%rbp
	.cfi_def_cfa_offset 16
	.cfi_offset %rbp, -16
	movq	%rsp, %rbp
	.cfi_def_cfa_register %rbp
	pushq	%r15
	pushq	%r14
	pushq	%r12
	pushq	%rbx
	.cfi_offset %rbx, -48
	.cfi_offset %r12, -40
	.cfi_offset %r14, -32
	.cfi_offset %r15, -24
	movq	%rdi, %r15
	movq	(%rdi), %r12
	imulq	$112, 16(%rdi), %rbx
	.p2align	4, 0x90
LBB91_4:
	testq	%rbx, %rbx
	je	LBB91_5
	addq	$-112, %rbx
Ltmp258:
	movq	%r12, %rdi
	addq	$112, %r12
	callq	__ZN4core3ptr13drop_in_place17h3087da7ef2274124E
Ltmp259:
	jmp	LBB91_4
LBB91_5:
	movq	8(%r15), %rax
	testq	%rax, %rax
	je	LBB91_9
	movq	(%r15), %rdi
	testq	%rdi, %rdi
	je	LBB91_9
	imulq	$112, %rax, %rsi
	testq	%rsi, %rsi
	je	LBB91_9
	movl	$8, %edx
	callq	___rust_dealloc
LBB91_9:
	movq	24(%r15), %rdi
	testq	%rdi, %rdi
	je	LBB91_12
Ltmp267:
	callq	__ZN4core3ptr13drop_in_place17h3087da7ef2274124E
Ltmp268:
	movq	24(%r15), %rdi
	movl	$104, %esi
	movl	$8, %edx
	callq	___rust_dealloc
LBB91_12:
	leaq	56(%r15), %rbx
	cmpq	$0, 48(%r15)
	je	LBB91_13
	movq	%rbx, %rdi
	popq	%rbx
	popq	%r12
	popq	%r14
	popq	%r15
	popq	%rbp
	jmp	__ZN4core3ptr13drop_in_place17hba372edf174587bdE
LBB91_13:
	addq	$80, %r15
Ltmp270:
	movq	%r15, %rdi
	callq	__ZN81_$LT$proc_macro..bridge..client..TokenStream$u20$as$u20$core..ops..drop..Drop$GT$4drop17h41a2e5513f89cb12E
Ltmp271:
	movq	%rbx, %rdi
	popq	%rbx
	popq	%r12
	popq	%r14
	popq	%r15
	popq	%rbp
	jmp	__ZN4core3ptr13drop_in_place17h94e3c837d9ad02b9E
LBB91_18:
Ltmp272:
	movq	%rax, %r14
	movq	%rbx, %rdi
	callq	__ZN4core3ptr13drop_in_place17h94e3c837d9ad02b9E
	movq	%r14, %rdi
	callq	__Unwind_Resume
	ud2
LBB91_17:
Ltmp269:
	movq	%rax, %r14
	movq	24(%r15), %rdi
	callq	__ZN5alloc5alloc8box_free17hd946ac010d0783fbE
	jmp	LBB91_21
LBB91_23:
Ltmp260:
	movq	%rax, %r14
	.p2align	4, 0x90
LBB91_2:
	testq	%rbx, %rbx
	je	LBB91_16
	addq	$-112, %rbx
Ltmp261:
	movq	%r12, %rdi
	addq	$112, %r12
	callq	__ZN4core3ptr13drop_in_place17h9b40471bcf5f1174E
Ltmp262:
	jmp	LBB91_2
LBB91_15:
Ltmp263:
	movq	%rax, %r14
LBB91_16:
	movq	(%r15), %rdi
	movq	8(%r15), %rsi
	callq	__ZN4core3ptr13drop_in_place17h9989c93b8e589b61E
	leaq	24(%r15), %rdi
Ltmp264:
	callq	__ZN4core3ptr13drop_in_place17h1977e1a3775e52fcE
Ltmp265:
LBB91_21:
	addq	$48, %r15
	movq	%r15, %rdi
	callq	__ZN4core3ptr13drop_in_place17hf11c826f77c0a0bdE
	movq	%r14, %rdi
	callq	__Unwind_Resume
	ud2
LBB91_20:
Ltmp266:
	movq	%rax, %r14
	jmp	LBB91_21
Lfunc_end25:
	.cfi_endproc
	.section	__TEXT,__gcc_except_tab
	.p2align	2
GCC_except_table91:
Lexception25:
	.byte	255
	.byte	255
	.byte	1
	.uleb128 Lcst_end25-Lcst_begin25
Lcst_begin25:
	.uleb128 Ltmp258-Lfunc_begin25
	.uleb128 Ltmp259-Ltmp258
	.uleb128 Ltmp260-Lfunc_begin25
	.byte	0
	.uleb128 Ltmp267-Lfunc_begin25
	.uleb128 Ltmp268-Ltmp267
	.uleb128 Ltmp269-Lfunc_begin25
	.byte	0
	.uleb128 Ltmp268-Lfunc_begin25
	.uleb128 Ltmp270-Ltmp268
	.byte	0
	.byte	0
	.uleb128 Ltmp270-Lfunc_begin25
	.uleb128 Ltmp271-Ltmp270
	.uleb128 Ltmp272-Lfunc_begin25
	.byte	0
	.uleb128 Ltmp271-Lfunc_begin25
	.uleb128 Ltmp261-Ltmp271
	.byte	0
	.byte	0
	.uleb128 Ltmp261-Lfunc_begin25
	.uleb128 Ltmp262-Ltmp261
	.uleb128 Ltmp263-Lfunc_begin25
	.byte	0
	.uleb128 Ltmp264-Lfunc_begin25
	.uleb128 Ltmp265-Ltmp264
	.uleb128 Ltmp266-Lfunc_begin25
	.byte	0
	.uleb128 Ltmp265-Lfunc_begin25
	.uleb128 Lfunc_end25-Ltmp265
	.byte	0
	.byte	0
Lcst_end25:
	.p2align	2

	.section	__TEXT,__text,regular,pure_instructions
	.p2align	4, 0x90
__ZN4core3ptr13drop_in_place17h4c3b1fffec5b7a77E:
Lfunc_begin26:
	.cfi_startproc
	.cfi_personality 155, _rust_eh_personality
	.cfi_lsda 16, Lexception26
	pushq	%rbp
	.cfi_def_cfa_offset 16
	.cfi_offset %rbp, -16
	movq	%rsp, %rbp
	.cfi_def_cfa_register %rbp
	pushq	%r15
	pushq	%r14
	pushq	%r12
	pushq	%rbx
	.cfi_offset %rbx, -48
	.cfi_offset %r12, -40
	.cfi_offset %r14, -32
	.cfi_offset %r15, -24
	movq	(%rdi), %rax
	addq	$-5, %rax
	cmpq	$32, %rax
	ja	LBB92_82
	movq	%rdi, %r15
	leaq	LJTI92_0(%rip), %rcx
	movslq	(%rcx,%rax,4), %rax
	addq	%rcx, %rax
	jmpq	*%rax
LBB92_2:
	movq	8(%r15), %r12
	imulq	$104, 24(%r15), %rbx
	.p2align	4, 0x90
LBB92_6:
	testq	%rbx, %rbx
	je	LBB92_7
	addq	$-104, %rbx
Ltmp324:
	movq	%r12, %rdi
	addq	$104, %r12
	callq	__ZN4core3ptr13drop_in_place17h42f877d1ceb7cb9dE
Ltmp325:
	jmp	LBB92_6
LBB92_26:
	movq	8(%r15), %r12
	imulq	$104, 24(%r15), %rbx
	.p2align	4, 0x90
LBB92_30:
	testq	%rbx, %rbx
	je	LBB92_31
	addq	$-104, %rbx
Ltmp273:
	movq	%r12, %rdi
	addq	$104, %r12
	callq	__ZN4core3ptr13drop_in_place17h42f877d1ceb7cb9dE
Ltmp274:
	jmp	LBB92_30
LBB92_54:
	movq	8(%r15), %r12
	imulq	$104, 24(%r15), %rbx
	.p2align	4, 0x90
LBB92_58:
	testq	%rbx, %rbx
	je	LBB92_59
	addq	$-104, %rbx
Ltmp291:
	movq	%r12, %rdi
	addq	$104, %r12
	callq	__ZN4core3ptr13drop_in_place17h42f877d1ceb7cb9dE
Ltmp292:
	jmp	LBB92_58
LBB92_71:
	movq	8(%r15), %r12
	imulq	$104, 24(%r15), %rbx
	.p2align	4, 0x90
LBB92_75:
	testq	%rbx, %rbx
	je	LBB92_76
	addq	$-104, %rbx
Ltmp303:
	movq	%r12, %rdi
	addq	$104, %r12
	callq	__ZN4core3ptr13drop_in_place17h42f877d1ceb7cb9dE
Ltmp304:
	jmp	LBB92_75
LBB92_91:
	movq	8(%r15), %r12
	imulq	$104, 24(%r15), %rbx
	.p2align	4, 0x90
LBB92_95:
	testq	%rbx, %rbx
	je	LBB92_96
	addq	$-104, %rbx
Ltmp312:
	movq	%r12, %rdi
	addq	$104, %r12
	callq	__ZN4core3ptr13drop_in_place17h42f877d1ceb7cb9dE
Ltmp313:
	jmp	LBB92_95
LBB92_105:
	movq	8(%r15), %r12
	imulq	$104, 24(%r15), %rbx
	.p2align	4, 0x90
LBB92_109:
	testq	%rbx, %rbx
	je	LBB92_110
	addq	$-104, %rbx
Ltmp336:
	movq	%r12, %rdi
	addq	$104, %r12
	callq	__ZN4core3ptr13drop_in_place17h42f877d1ceb7cb9dE
Ltmp337:
	jmp	LBB92_109
LBB92_117:
	movq	8(%r15), %r12
	imulq	$104, 24(%r15), %rbx
	.p2align	4, 0x90
LBB92_121:
	testq	%rbx, %rbx
	je	LBB92_122
	addq	$-104, %rbx
Ltmp342:
	movq	%r12, %rdi
	addq	$104, %r12
	callq	__ZN4core3ptr13drop_in_place17h42f877d1ceb7cb9dE
Ltmp343:
	jmp	LBB92_121
LBB92_133:
	movq	8(%r15), %r12
	imulq	$104, 24(%r15), %rbx
	.p2align	4, 0x90
LBB92_137:
	testq	%rbx, %rbx
	je	LBB92_138
	addq	$-104, %rbx
Ltmp351:
	movq	%r12, %rdi
	addq	$104, %r12
	callq	__ZN4core3ptr13drop_in_place17h42f877d1ceb7cb9dE
Ltmp352:
	jmp	LBB92_137
LBB92_164:
	movq	8(%r15), %r12
	imulq	$104, 24(%r15), %rbx
	.p2align	4, 0x90
LBB92_168:
	testq	%rbx, %rbx
	je	LBB92_169
	addq	$-104, %rbx
Ltmp369:
	movq	%r12, %rdi
	addq	$104, %r12
	callq	__ZN4core3ptr13drop_in_place17h42f877d1ceb7cb9dE
Ltmp370:
	jmp	LBB92_168
LBB92_176:
	leaq	16(%r15), %rbx
	cmpq	$0, 8(%r15)
	je	LBB92_177
	movq	%rbx, %rdi
	popq	%rbx
	popq	%r12
	popq	%r14
	popq	%r15
	popq	%rbp
	jmp	__ZN4core3ptr13drop_in_place17hba372edf174587bdE
LBB92_7:
	movq	16(%r15), %rax
	testq	%rax, %rax
	je	LBB92_11
	movq	8(%r15), %rdi
	testq	%rdi, %rdi
	je	LBB92_11
	imulq	$104, %rax, %rsi
	testq	%rsi, %rsi
	je	LBB92_11
	movl	$8, %edx
	callq	___rust_dealloc
LBB92_11:
	movq	32(%r15), %rdi
Ltmp330:
	callq	__ZN4core3ptr13drop_in_place17h4c3b1fffec5b7a77E
Ltmp331:
	movq	32(%r15), %rdi
	movl	$112, %esi
	movl	$8, %edx
	callq	___rust_dealloc
	movq	40(%r15), %rdi
Ltmp333:
	callq	__ZN4core3ptr13drop_in_place17h4c3b1fffec5b7a77E
Ltmp334:
	jmp	LBB92_13
LBB92_31:
	movq	16(%r15), %rax
	testq	%rax, %rax
	je	LBB92_35
	movq	8(%r15), %rdi
	testq	%rdi, %rdi
	je	LBB92_35
	imulq	$104, %rax, %rsi
	testq	%rsi, %rsi
	je	LBB92_35
	movl	$8, %edx
	callq	___rust_dealloc
LBB92_35:
	movq	32(%r15), %rdi
Ltmp279:
	callq	__ZN4core3ptr13drop_in_place17h4c3b1fffec5b7a77E
Ltmp280:
	movq	32(%r15), %rdi
	movl	$112, %esi
	movl	$8, %edx
	callq	___rust_dealloc
	movq	40(%r15), %r12
	imulq	$120, 56(%r15), %rbx
	.p2align	4, 0x90
LBB92_47:
	testq	%rbx, %rbx
	je	LBB92_48
	addq	$-120, %rbx
Ltmp282:
	movq	%r12, %rdi
	addq	$120, %r12
	callq	__ZN4core3ptr13drop_in_place17h4c3b1fffec5b7a77E
Ltmp283:
	jmp	LBB92_47
LBB92_59:
	movq	16(%r15), %rax
	testq	%rax, %rax
	je	LBB92_63
	movq	8(%r15), %rdi
	testq	%rdi, %rdi
	je	LBB92_63
	imulq	$104, %rax, %rsi
	testq	%rsi, %rsi
	je	LBB92_63
	movl	$8, %edx
	callq	___rust_dealloc
LBB92_63:
	movq	32(%r15), %rdi
Ltmp297:
	callq	__ZN4core3ptr13drop_in_place17h4c3b1fffec5b7a77E
Ltmp298:
	movq	32(%r15), %rdi
	movl	$112, %esi
	movl	$8, %edx
	callq	___rust_dealloc
	movq	40(%r15), %rdi
Ltmp300:
	callq	__ZN4core3ptr13drop_in_place17hf161d33ff50401f0E
Ltmp301:
	movq	40(%r15), %rdi
	movl	$184, %esi
	jmp	LBB92_15
LBB92_76:
	movq	16(%r15), %rax
	testq	%rax, %rax
	je	LBB92_80
	movq	8(%r15), %rdi
	testq	%rdi, %rdi
	je	LBB92_80
	imulq	$104, %rax, %rsi
	testq	%rsi, %rsi
	je	LBB92_80
	movl	$8, %edx
	callq	___rust_dealloc
LBB92_80:
	movq	32(%r15), %rdi
Ltmp309:
	callq	__ZN4core3ptr13drop_in_place17h4c3b1fffec5b7a77E
Ltmp310:
	movq	32(%r15), %rdi
	movl	$112, %esi
	movl	$8, %edx
	callq	___rust_dealloc
	cmpl	$0, 40(%r15)
	jne	LBB92_82
	cmpl	$0, 48(%r15)
	je	LBB92_82
	movq	56(%r15), %rdi
	testq	%rdi, %rdi
	je	LBB92_82
	movq	64(%r15), %rsi
	testq	%rsi, %rsi
	je	LBB92_82
	movl	$1, %edx
	jmp	LBB92_16
LBB92_96:
	movq	16(%r15), %rax
	testq	%rax, %rax
	je	LBB92_100
	movq	8(%r15), %rdi
	testq	%rdi, %rdi
	je	LBB92_100
	imulq	$104, %rax, %rsi
	testq	%rsi, %rsi
	je	LBB92_100
	movl	$8, %edx
	callq	___rust_dealloc
LBB92_100:
	movq	32(%r15), %rdi
Ltmp318:
	callq	__ZN4core3ptr13drop_in_place17h4c3b1fffec5b7a77E
Ltmp319:
	movq	32(%r15), %rdi
	movl	$112, %esi
	movl	$8, %edx
	callq	___rust_dealloc
	movq	40(%r15), %rdi
Ltmp321:
	callq	__ZN4core3ptr13drop_in_place17h4c3b1fffec5b7a77E
Ltmp322:
LBB92_13:
	movq	40(%r15), %rdi
	jmp	LBB92_14
LBB92_110:
	movq	16(%r15), %rax
	testq	%rax, %rax
	je	LBB92_114
	movq	8(%r15), %rdi
	testq	%rdi, %rdi
	je	LBB92_114
	imulq	$104, %rax, %rsi
	testq	%rsi, %rsi
	je	LBB92_114
	movl	$8, %edx
	callq	___rust_dealloc
LBB92_114:
	addq	$32, %r15
	movq	%r15, %rdi
	popq	%rbx
	popq	%r12
	popq	%r14
	popq	%r15
	popq	%rbp
	jmp	__ZN4core3ptr13drop_in_place17h37f5d5fc65e16395E
LBB92_122:
	movq	16(%r15), %rax
	testq	%rax, %rax
	je	LBB92_126
	movq	8(%r15), %rdi
	testq	%rdi, %rdi
	je	LBB92_126
	imulq	$104, %rax, %rsi
	testq	%rsi, %rsi
	je	LBB92_126
	movl	$8, %edx
	callq	___rust_dealloc
LBB92_126:
	movq	32(%r15), %rdi
Ltmp348:
	callq	__ZN4core3ptr13drop_in_place17h4c3b1fffec5b7a77E
Ltmp349:
	jmp	LBB92_127
LBB92_138:
	movq	16(%r15), %rax
	testq	%rax, %rax
	je	LBB92_142
	movq	8(%r15), %rdi
	testq	%rdi, %rdi
	je	LBB92_142
	imulq	$104, %rax, %rsi
	testq	%rsi, %rsi
	je	LBB92_142
	movl	$8, %edx
	callq	___rust_dealloc
LBB92_142:
	cmpl	$2, 52(%r15)
	je	LBB92_145
	movq	32(%r15), %rdi
Ltmp357:
	callq	__ZN4core3ptr13drop_in_place17hf161d33ff50401f0E
Ltmp358:
	movq	32(%r15), %rdi
	movl	$184, %esi
	movl	$8, %edx
	callq	___rust_dealloc
LBB92_145:
	movq	64(%r15), %r12
	imulq	$112, 80(%r15), %rbx
	.p2align	4, 0x90
LBB92_153:
	testq	%rbx, %rbx
	je	LBB92_154
	addq	$-112, %rbx
Ltmp360:
	movq	%r12, %rdi
	addq	$112, %r12
	callq	__ZN4core3ptr13drop_in_place17h3087da7ef2274124E
Ltmp361:
	jmp	LBB92_153
LBB92_169:
	movq	16(%r15), %rax
	testq	%rax, %rax
	je	LBB92_173
	movq	8(%r15), %rdi
	testq	%rdi, %rdi
	je	LBB92_173
	imulq	$104, %rax, %rsi
	testq	%rsi, %rsi
	je	LBB92_173
	movl	$8, %edx
	callq	___rust_dealloc
LBB92_173:
	movq	32(%r15), %rdi
Ltmp375:
	callq	__ZN4core3ptr13drop_in_place17h4c3b1fffec5b7a77E
Ltmp376:
LBB92_127:
	movq	32(%r15), %rdi
	jmp	LBB92_14
LBB92_154:
	movq	72(%r15), %rax
	testq	%rax, %rax
	je	LBB92_158
	movq	64(%r15), %rdi
	testq	%rdi, %rdi
	je	LBB92_158
	imulq	$112, %rax, %rsi
	testq	%rsi, %rsi
	je	LBB92_158
	movl	$8, %edx
	callq	___rust_dealloc
LBB92_158:
	movq	88(%r15), %rdi
	testq	%rdi, %rdi
	je	LBB92_82
Ltmp366:
	callq	__ZN4core3ptr13drop_in_place17h3087da7ef2274124E
Ltmp367:
	movq	88(%r15), %rdi
	movl	$104, %esi
	jmp	LBB92_15
LBB92_48:
	movq	48(%r15), %rax
	testq	%rax, %rax
	je	LBB92_40
	movq	40(%r15), %rdi
	testq	%rdi, %rdi
	je	LBB92_40
	imulq	$120, %rax, %rsi
	testq	%rsi, %rsi
	je	LBB92_40
	movl	$8, %edx
	callq	___rust_dealloc
LBB92_40:
	movq	64(%r15), %rdi
	testq	%rdi, %rdi
	je	LBB92_82
Ltmp288:
	callq	__ZN4core3ptr13drop_in_place17h4c3b1fffec5b7a77E
Ltmp289:
	movq	64(%r15), %rdi
LBB92_14:
	movl	$112, %esi
LBB92_15:
	movl	$8, %edx
LBB92_16:
	popq	%rbx
	popq	%r12
	popq	%r14
	popq	%r15
	popq	%rbp
	jmp	___rust_dealloc
LBB92_82:
	popq	%rbx
	popq	%r12
	popq	%r14
	popq	%r15
	popq	%rbp
	retq
LBB92_177:
	addq	$40, %r15
Ltmp378:
	movq	%r15, %rdi
	callq	__ZN81_$LT$proc_macro..bridge..client..TokenStream$u20$as$u20$core..ops..drop..Drop$GT$4drop17h41a2e5513f89cb12E
Ltmp379:
	movq	%rbx, %rdi
	popq	%rbx
	popq	%r12
	popq	%r14
	popq	%r15
	popq	%rbp
	jmp	__ZN4core3ptr13drop_in_place17h94e3c837d9ad02b9E
LBB92_194:
Ltmp380:
	movq	%rax, %r14
	movq	%rbx, %rdi
	callq	__ZN4core3ptr13drop_in_place17h94e3c837d9ad02b9E
	movq	%r14, %rdi
	callq	__Unwind_Resume
	ud2
LBB92_149:
Ltmp359:
	movq	%rax, %r14
	movq	32(%r15), %rdi
	callq	__ZN5alloc5alloc8box_free17hfab518436e4c9d16E
	jmp	LBB92_148
LBB92_180:
Ltmp290:
	movq	%rax, %r14
	movq	64(%r15), %rdi
	jmp	LBB92_181
LBB92_163:
Ltmp368:
	movq	%rax, %r14
	movq	88(%r15), %rdi
	callq	__ZN5alloc5alloc8box_free17hd946ac010d0783fbE
	movq	%r14, %rdi
	callq	__Unwind_Resume
	ud2
LBB92_175:
Ltmp377:
	jmp	LBB92_132
LBB92_131:
Ltmp350:
LBB92_132:
	movq	%rax, %r14
	movq	32(%r15), %rdi
	jmp	LBB92_181
LBB92_103:
Ltmp323:
	jmp	LBB92_23
LBB92_104:
Ltmp320:
	jmp	LBB92_25
LBB92_90:
Ltmp311:
	movq	%rax, %r14
	movq	32(%r15), %rdi
	callq	__ZN5alloc5alloc8box_free17h6e3c3ce0c47a1513E
	jmp	LBB92_85
LBB92_69:
Ltmp302:
	movq	%rax, %r14
	movq	40(%r15), %rdi
	callq	__ZN5alloc5alloc8box_free17hfab518436e4c9d16E
	movq	%r14, %rdi
	callq	__Unwind_Resume
	ud2
LBB92_70:
Ltmp299:
	movq	%rax, %r14
	movq	32(%r15), %rdi
	callq	__ZN5alloc5alloc8box_free17h6e3c3ce0c47a1513E
	jmp	LBB92_68
LBB92_43:
Ltmp281:
	movq	%rax, %r14
	movq	32(%r15), %rdi
	callq	__ZN5alloc5alloc8box_free17h6e3c3ce0c47a1513E
	jmp	LBB92_39
LBB92_22:
Ltmp335:
LBB92_23:
	movq	%rax, %r14
	movq	40(%r15), %rdi
LBB92_181:
	callq	__ZN5alloc5alloc8box_free17h6e3c3ce0c47a1513E
	movq	%r14, %rdi
	callq	__Unwind_Resume
	ud2
LBB92_24:
Ltmp332:
LBB92_25:
	movq	%rax, %r14
	movq	32(%r15), %rdi
	callq	__ZN5alloc5alloc8box_free17h6e3c3ce0c47a1513E
	jmp	LBB92_20
LBB92_192:
Ltmp362:
	movq	%rax, %r14
	.p2align	4, 0x90
LBB92_151:
	testq	%rbx, %rbx
	je	LBB92_162
	addq	$-112, %rbx
Ltmp363:
	movq	%r12, %rdi
	addq	$112, %r12
	callq	__ZN4core3ptr13drop_in_place17h9b40471bcf5f1174E
Ltmp364:
	jmp	LBB92_151
LBB92_161:
Ltmp365:
	movq	%rax, %r14
LBB92_162:
	movq	64(%r15), %rdi
	movq	72(%r15), %rsi
	callq	__ZN4core3ptr13drop_in_place17h9989c93b8e589b61E
	addq	$88, %r15
	movq	%r15, %rdi
	callq	__ZN4core3ptr13drop_in_place17h1977e1a3775e52fcE
	movq	%r14, %rdi
	callq	__Unwind_Resume
	ud2
LBB92_185:
Ltmp284:
	movq	%rax, %r14
	.p2align	4, 0x90
LBB92_45:
	testq	%rbx, %rbx
	je	LBB92_53
	addq	$-120, %rbx
Ltmp285:
	movq	%r12, %rdi
	addq	$120, %r12
	callq	__ZN4core3ptr13drop_in_place17h93cdc8dc6eed4630E
Ltmp286:
	jmp	LBB92_45
LBB92_52:
Ltmp287:
	movq	%rax, %r14
LBB92_53:
	movq	40(%r15), %rdi
	movq	48(%r15), %rsi
	callq	__ZN4core3ptr13drop_in_place17h2370988de66c3054E
	addq	$64, %r15
	movq	%r15, %rdi
	callq	__ZN4core3ptr13drop_in_place17hc9392b57300011e2E
	movq	%r14, %rdi
	callq	__Unwind_Resume
	ud2
LBB92_193:
Ltmp371:
	movq	%rax, %r14
	.p2align	4, 0x90
LBB92_166:
	testq	%rbx, %rbx
	je	LBB92_130
	addq	$-104, %rbx
Ltmp372:
	movq	%r12, %rdi
	addq	$104, %r12
	callq	__ZN4core3ptr13drop_in_place17h42f877d1ceb7cb9dE
Ltmp373:
	jmp	LBB92_166
LBB92_174:
Ltmp374:
	jmp	LBB92_129
LBB92_191:
Ltmp353:
	movq	%rax, %r14
	.p2align	4, 0x90
LBB92_135:
	testq	%rbx, %rbx
	je	LBB92_147
	addq	$-104, %rbx
Ltmp354:
	movq	%r12, %rdi
	addq	$104, %r12
	callq	__ZN4core3ptr13drop_in_place17h42f877d1ceb7cb9dE
Ltmp355:
	jmp	LBB92_135
LBB92_146:
Ltmp356:
	movq	%rax, %r14
LBB92_147:
	movq	8(%r15), %rdi
	movq	16(%r15), %rsi
	callq	__ZN4core3ptr13drop_in_place17hfd19d49573e256e2E
	leaq	32(%r15), %rdi
	callq	__ZN4core3ptr13drop_in_place17h305796b0c0b5eb11E
LBB92_148:
	addq	$64, %r15
	movq	%r15, %rdi
	callq	__ZN4core3ptr13drop_in_place17h34270e03c18c94f6E
	movq	%r14, %rdi
	callq	__Unwind_Resume
	ud2
LBB92_190:
Ltmp344:
	movq	%rax, %r14
	.p2align	4, 0x90
LBB92_119:
	testq	%rbx, %rbx
	je	LBB92_130
	addq	$-104, %rbx
Ltmp345:
	movq	%r12, %rdi
	addq	$104, %r12
	callq	__ZN4core3ptr13drop_in_place17h42f877d1ceb7cb9dE
Ltmp346:
	jmp	LBB92_119
LBB92_128:
Ltmp347:
LBB92_129:
	movq	%rax, %r14
LBB92_130:
	movq	8(%r15), %rdi
	movq	16(%r15), %rsi
	callq	__ZN4core3ptr13drop_in_place17hfd19d49573e256e2E
	addq	$32, %r15
	jmp	LBB92_21
LBB92_189:
Ltmp338:
	movq	%rax, %r14
	.p2align	4, 0x90
LBB92_107:
	testq	%rbx, %rbx
	je	LBB92_116
	addq	$-104, %rbx
Ltmp339:
	movq	%r12, %rdi
	addq	$104, %r12
	callq	__ZN4core3ptr13drop_in_place17h42f877d1ceb7cb9dE
Ltmp340:
	jmp	LBB92_107
LBB92_115:
Ltmp341:
	movq	%rax, %r14
LBB92_116:
	movq	8(%r15), %rdi
	movq	16(%r15), %rsi
	callq	__ZN4core3ptr13drop_in_place17hfd19d49573e256e2E
	addq	$32, %r15
	movq	%r15, %rdi
	callq	__ZN4core3ptr13drop_in_place17h37f5d5fc65e16395E
	movq	%r14, %rdi
	callq	__Unwind_Resume
	ud2
LBB92_188:
Ltmp314:
	movq	%rax, %r14
	.p2align	4, 0x90
LBB92_93:
	testq	%rbx, %rbx
	je	LBB92_19
	addq	$-104, %rbx
Ltmp315:
	movq	%r12, %rdi
	addq	$104, %r12
	callq	__ZN4core3ptr13drop_in_place17h42f877d1ceb7cb9dE
Ltmp316:
	jmp	LBB92_93
LBB92_102:
Ltmp317:
	jmp	LBB92_18
LBB92_187:
Ltmp305:
	movq	%rax, %r14
	.p2align	4, 0x90
LBB92_73:
	testq	%rbx, %rbx
	je	LBB92_84
	addq	$-104, %rbx
Ltmp306:
	movq	%r12, %rdi
	addq	$104, %r12
	callq	__ZN4core3ptr13drop_in_place17h42f877d1ceb7cb9dE
Ltmp307:
	jmp	LBB92_73
LBB92_83:
Ltmp308:
	movq	%rax, %r14
LBB92_84:
	movq	8(%r15), %rdi
	movq	16(%r15), %rsi
	callq	__ZN4core3ptr13drop_in_place17hfd19d49573e256e2E
	leaq	32(%r15), %rdi
	callq	__ZN4core3ptr13drop_in_place17hda50d7a998831a2fE
LBB92_85:
	addq	$40, %r15
	movq	%r15, %rdi
	callq	__ZN4core3ptr13drop_in_place17ha1cf930dd229cd12E
	movq	%r14, %rdi
	callq	__Unwind_Resume
	ud2
LBB92_186:
Ltmp293:
	movq	%rax, %r14
	.p2align	4, 0x90
LBB92_56:
	testq	%rbx, %rbx
	je	LBB92_67
	addq	$-104, %rbx
Ltmp294:
	movq	%r12, %rdi
	addq	$104, %r12
	callq	__ZN4core3ptr13drop_in_place17h42f877d1ceb7cb9dE
Ltmp295:
	jmp	LBB92_56
LBB92_66:
Ltmp296:
	movq	%rax, %r14
LBB92_67:
	movq	8(%r15), %rdi
	movq	16(%r15), %rsi
	callq	__ZN4core3ptr13drop_in_place17hfd19d49573e256e2E
	leaq	32(%r15), %rdi
	callq	__ZN4core3ptr13drop_in_place17hda50d7a998831a2fE
LBB92_68:
	addq	$40, %r15
	movq	%r15, %rdi
	callq	__ZN4core3ptr13drop_in_place17h8994f9724edbb010E
	movq	%r14, %rdi
	callq	__Unwind_Resume
	ud2
LBB92_184:
Ltmp275:
	movq	%rax, %r14
	.p2align	4, 0x90
LBB92_28:
	testq	%rbx, %rbx
	je	LBB92_38
	addq	$-104, %rbx
Ltmp276:
	movq	%r12, %rdi
	addq	$104, %r12
	callq	__ZN4core3ptr13drop_in_place17h42f877d1ceb7cb9dE
Ltmp277:
	jmp	LBB92_28
LBB92_37:
Ltmp278:
	movq	%rax, %r14
LBB92_38:
	movq	8(%r15), %rdi
	movq	16(%r15), %rsi
	callq	__ZN4core3ptr13drop_in_place17hfd19d49573e256e2E
	leaq	32(%r15), %rdi
	callq	__ZN4core3ptr13drop_in_place17hda50d7a998831a2fE
LBB92_39:
	addq	$40, %r15
	movq	%r15, %rdi
	callq	__ZN4core3ptr13drop_in_place17hdeb698ba5ecd572fE
	movq	%r14, %rdi
	callq	__Unwind_Resume
	ud2
LBB92_183:
Ltmp326:
	movq	%rax, %r14
	.p2align	4, 0x90
LBB92_4:
	testq	%rbx, %rbx
	je	LBB92_19
	addq	$-104, %rbx
Ltmp327:
	movq	%r12, %rdi
	addq	$104, %r12
	callq	__ZN4core3ptr13drop_in_place17h42f877d1ceb7cb9dE
Ltmp328:
	jmp	LBB92_4
LBB92_17:
Ltmp329:
LBB92_18:
	movq	%rax, %r14
LBB92_19:
	movq	8(%r15), %rdi
	movq	16(%r15), %rsi
	callq	__ZN4core3ptr13drop_in_place17hfd19d49573e256e2E
	leaq	32(%r15), %rdi
	callq	__ZN4core3ptr13drop_in_place17hda50d7a998831a2fE
LBB92_20:
	addq	$40, %r15
LBB92_21:
	movq	%r15, %rdi
	callq	__ZN4core3ptr13drop_in_place17hda50d7a998831a2fE
	movq	%r14, %rdi
	callq	__Unwind_Resume
	ud2
Lfunc_end26:
	.cfi_endproc
	.p2align	2, 0x90
	.data_region jt32
.set L92_0_set_2, LBB92_2-LJTI92_0
.set L92_0_set_82, LBB92_82-LJTI92_0
.set L92_0_set_26, LBB92_26-LJTI92_0
.set L92_0_set_54, LBB92_54-LJTI92_0
.set L92_0_set_71, LBB92_71-LJTI92_0
.set L92_0_set_91, LBB92_91-LJTI92_0
.set L92_0_set_105, LBB92_105-LJTI92_0
.set L92_0_set_117, LBB92_117-LJTI92_0
.set L92_0_set_133, LBB92_133-LJTI92_0
.set L92_0_set_164, LBB92_164-LJTI92_0
.set L92_0_set_176, LBB92_176-LJTI92_0
LJTI92_0:
	.long	L92_0_set_2
	.long	L92_0_set_82
	.long	L92_0_set_82
	.long	L92_0_set_82
	.long	L92_0_set_26
	.long	L92_0_set_54
	.long	L92_0_set_82
	.long	L92_0_set_82
	.long	L92_0_set_71
	.long	L92_0_set_82
	.long	L92_0_set_82
	.long	L92_0_set_82
	.long	L92_0_set_91
	.long	L92_0_set_82
	.long	L92_0_set_105
	.long	L92_0_set_82
	.long	L92_0_set_82
	.long	L92_0_set_82
	.long	L92_0_set_82
	.long	L92_0_set_117
	.long	L92_0_set_133
	.long	L92_0_set_82
	.long	L92_0_set_82
	.long	L92_0_set_82
	.long	L92_0_set_82
	.long	L92_0_set_82
	.long	L92_0_set_82
	.long	L92_0_set_82
	.long	L92_0_set_82
	.long	L92_0_set_82
	.long	L92_0_set_164
	.long	L92_0_set_82
	.long	L92_0_set_176
	.end_data_region
	.section	__TEXT,__gcc_except_tab
	.p2align	2
GCC_except_table92:
Lexception26:
	.byte	255
	.byte	255
	.byte	1
	.uleb128 Lcst_end26-Lcst_begin26
Lcst_begin26:
	.uleb128 Ltmp324-Lfunc_begin26
	.uleb128 Ltmp325-Ltmp324
	.uleb128 Ltmp326-Lfunc_begin26
	.byte	0
	.uleb128 Ltmp273-Lfunc_begin26
	.uleb128 Ltmp274-Ltmp273
	.uleb128 Ltmp275-Lfunc_begin26
	.byte	0
	.uleb128 Ltmp291-Lfunc_begin26
	.uleb128 Ltmp292-Ltmp291
	.uleb128 Ltmp293-Lfunc_begin26
	.byte	0
	.uleb128 Ltmp303-Lfunc_begin26
	.uleb128 Ltmp304-Ltmp303
	.uleb128 Ltmp305-Lfunc_begin26
	.byte	0
	.uleb128 Ltmp312-Lfunc_begin26
	.uleb128 Ltmp313-Ltmp312
	.uleb128 Ltmp314-Lfunc_begin26
	.byte	0
	.uleb128 Ltmp336-Lfunc_begin26
	.uleb128 Ltmp337-Ltmp336
	.uleb128 Ltmp338-Lfunc_begin26
	.byte	0
	.uleb128 Ltmp342-Lfunc_begin26
	.uleb128 Ltmp343-Ltmp342
	.uleb128 Ltmp344-Lfunc_begin26
	.byte	0
	.uleb128 Ltmp351-Lfunc_begin26
	.uleb128 Ltmp352-Ltmp351
	.uleb128 Ltmp353-Lfunc_begin26
	.byte	0
	.uleb128 Ltmp369-Lfunc_begin26
	.uleb128 Ltmp370-Ltmp369
	.uleb128 Ltmp371-Lfunc_begin26
	.byte	0
	.uleb128 Ltmp370-Lfunc_begin26
	.uleb128 Ltmp330-Ltmp370
	.byte	0
	.byte	0
	.uleb128 Ltmp330-Lfunc_begin26
	.uleb128 Ltmp331-Ltmp330
	.uleb128 Ltmp332-Lfunc_begin26
	.byte	0
	.uleb128 Ltmp333-Lfunc_begin26
	.uleb128 Ltmp334-Ltmp333
	.uleb128 Ltmp335-Lfunc_begin26
	.byte	0
	.uleb128 Ltmp279-Lfunc_begin26
	.uleb128 Ltmp280-Ltmp279
	.uleb128 Ltmp281-Lfunc_begin26
	.byte	0
	.uleb128 Ltmp282-Lfunc_begin26
	.uleb128 Ltmp283-Ltmp282
	.uleb128 Ltmp284-Lfunc_begin26
	.byte	0
	.uleb128 Ltmp297-Lfunc_begin26
	.uleb128 Ltmp298-Ltmp297
	.uleb128 Ltmp299-Lfunc_begin26
	.byte	0
	.uleb128 Ltmp300-Lfunc_begin26
	.uleb128 Ltmp301-Ltmp300
	.uleb128 Ltmp302-Lfunc_begin26
	.byte	0
	.uleb128 Ltmp309-Lfunc_begin26
	.uleb128 Ltmp310-Ltmp309
	.uleb128 Ltmp311-Lfunc_begin26
	.byte	0
	.uleb128 Ltmp318-Lfunc_begin26
	.uleb128 Ltmp319-Ltmp318
	.uleb128 Ltmp320-Lfunc_begin26
	.byte	0
	.uleb128 Ltmp321-Lfunc_begin26
	.uleb128 Ltmp322-Ltmp321
	.uleb128 Ltmp323-Lfunc_begin26
	.byte	0
	.uleb128 Ltmp322-Lfunc_begin26
	.uleb128 Ltmp348-Ltmp322
	.byte	0
	.byte	0
	.uleb128 Ltmp348-Lfunc_begin26
	.uleb128 Ltmp349-Ltmp348
	.uleb128 Ltmp350-Lfunc_begin26
	.byte	0
	.uleb128 Ltmp357-Lfunc_begin26
	.uleb128 Ltmp358-Ltmp357
	.uleb128 Ltmp359-Lfunc_begin26
	.byte	0
	.uleb128 Ltmp360-Lfunc_begin26
	.uleb128 Ltmp361-Ltmp360
	.uleb128 Ltmp362-Lfunc_begin26
	.byte	0
	.uleb128 Ltmp375-Lfunc_begin26
	.uleb128 Ltmp376-Ltmp375
	.uleb128 Ltmp377-Lfunc_begin26
	.byte	0
	.uleb128 Ltmp366-Lfunc_begin26
	.uleb128 Ltmp367-Ltmp366
	.uleb128 Ltmp368-Lfunc_begin26
	.byte	0
	.uleb128 Ltmp288-Lfunc_begin26
	.uleb128 Ltmp289-Ltmp288
	.uleb128 Ltmp290-Lfunc_begin26
	.byte	0
	.uleb128 Ltmp378-Lfunc_begin26
	.uleb128 Ltmp379-Ltmp378
	.uleb128 Ltmp380-Lfunc_begin26
	.byte	0
	.uleb128 Ltmp379-Lfunc_begin26
	.uleb128 Ltmp363-Ltmp379
	.byte	0
	.byte	0
	.uleb128 Ltmp363-Lfunc_begin26
	.uleb128 Ltmp364-Ltmp363
	.uleb128 Ltmp365-Lfunc_begin26
	.byte	0
	.uleb128 Ltmp364-Lfunc_begin26
	.uleb128 Ltmp285-Ltmp364
	.byte	0
	.byte	0
	.uleb128 Ltmp285-Lfunc_begin26
	.uleb128 Ltmp286-Ltmp285
	.uleb128 Ltmp287-Lfunc_begin26
	.byte	0
	.uleb128 Ltmp286-Lfunc_begin26
	.uleb128 Ltmp372-Ltmp286
	.byte	0
	.byte	0
	.uleb128 Ltmp372-Lfunc_begin26
	.uleb128 Ltmp373-Ltmp372
	.uleb128 Ltmp374-Lfunc_begin26
	.byte	0
	.uleb128 Ltmp354-Lfunc_begin26
	.uleb128 Ltmp355-Ltmp354
	.uleb128 Ltmp356-Lfunc_begin26
	.byte	0
	.uleb128 Ltmp355-Lfunc_begin26
	.uleb128 Ltmp345-Ltmp355
	.byte	0
	.byte	0
	.uleb128 Ltmp345-Lfunc_begin26
	.uleb128 Ltmp346-Ltmp345
	.uleb128 Ltmp347-Lfunc_begin26
	.byte	0
	.uleb128 Ltmp339-Lfunc_begin26
	.uleb128 Ltmp340-Ltmp339
	.uleb128 Ltmp341-Lfunc_begin26
	.byte	0
	.uleb128 Ltmp340-Lfunc_begin26
	.uleb128 Ltmp315-Ltmp340
	.byte	0
	.byte	0
	.uleb128 Ltmp315-Lfunc_begin26
	.uleb128 Ltmp316-Ltmp315
	.uleb128 Ltmp317-Lfunc_begin26
	.byte	0
	.uleb128 Ltmp306-Lfunc_begin26
	.uleb128 Ltmp307-Ltmp306
	.uleb128 Ltmp308-Lfunc_begin26
	.byte	0
	.uleb128 Ltmp307-Lfunc_begin26
	.uleb128 Ltmp294-Ltmp307
	.byte	0
	.byte	0
	.uleb128 Ltmp294-Lfunc_begin26
	.uleb128 Ltmp295-Ltmp294
	.uleb128 Ltmp296-Lfunc_begin26
	.byte	0
	.uleb128 Ltmp295-Lfunc_begin26
	.uleb128 Ltmp276-Ltmp295
	.byte	0
	.byte	0
	.uleb128 Ltmp276-Lfunc_begin26
	.uleb128 Ltmp277-Ltmp276
	.uleb128 Ltmp278-Lfunc_begin26
	.byte	0
	.uleb128 Ltmp277-Lfunc_begin26
	.uleb128 Ltmp327-Ltmp277
	.byte	0
	.byte	0
	.uleb128 Ltmp327-Lfunc_begin26
	.uleb128 Ltmp328-Ltmp327
	.uleb128 Ltmp329-Lfunc_begin26
	.byte	0
	.uleb128 Ltmp328-Lfunc_begin26
	.uleb128 Lfunc_end26-Ltmp328
	.byte	0
	.byte	0
Lcst_end26:
	.p2align	2

	.section	__TEXT,__text,regular,pure_instructions
	.p2align	4, 0x90
__ZN4core3ptr13drop_in_place17h50b283e91567e0c0E:
	.cfi_startproc
	pushq	%rbp
	.cfi_def_cfa_offset 16
	.cfi_offset %rbp, -16
	movq	%rsp, %rbp
	.cfi_def_cfa_register %rbp
	movl	(%rdi), %eax
	leaq	-1(%rax), %rcx
	cmpq	$2, %rcx
	jae	LBB93_1
	popq	%rbp
	retq
LBB93_1:
	addq	$4, %rdi
	testq	%rax, %rax
	jne	LBB93_2
	popq	%rbp
	jmp	__ZN75_$LT$proc_macro..bridge..client..Group$u20$as$u20$core..ops..drop..Drop$GT$4drop17he3c88ef672dde681E
LBB93_2:
	popq	%rbp
	jmp	__ZN77_$LT$proc_macro..bridge..client..Literal$u20$as$u20$core..ops..drop..Drop$GT$4drop17he2aea19d6a82f53dE
	.cfi_endproc

	.p2align	4, 0x90
__ZN4core3ptr13drop_in_place17h5255c7e6b9e21172E:
	.cfi_startproc
	pushq	%rbp
	.cfi_def_cfa_offset 16
	.cfi_offset %rbp, -16
	movq	%rsp, %rbp
	.cfi_def_cfa_register %rbp
	cmpl	$16, (%rdi)
	jne	LBB94_2
	popq	%rbp
	retq
LBB94_2:
	popq	%rbp
	jmp	__ZN4core3ptr13drop_in_place17hf161d33ff50401f0E
	.cfi_endproc

	.p2align	4, 0x90
__ZN4core3ptr13drop_in_place17h54d675d1d3ba9abaE:
	.cfi_startproc
	pushq	%rbp
	.cfi_def_cfa_offset 16
	.cfi_offset %rbp, -16
	movq	%rsp, %rbp
	.cfi_def_cfa_register %rbp
	testq	%rsi, %rsi
	je	LBB95_3
	testq	%rdi, %rdi
	je	LBB95_3
	shlq	$7, %rsi
	je	LBB95_3
	movl	$8, %edx
	popq	%rbp
	jmp	___rust_dealloc
LBB95_3:
	popq	%rbp
	retq
	.cfi_endproc

	.p2align	4, 0x90
__ZN4core3ptr13drop_in_place17h5522285a3da3a9b4E:
Lfunc_begin27:
	.cfi_startproc
	.cfi_personality 155, _rust_eh_personality
	.cfi_lsda 16, Lexception27
	pushq	%rbp
	.cfi_def_cfa_offset 16
	.cfi_offset %rbp, -16
	movq	%rsp, %rbp
	.cfi_def_cfa_register %rbp
	pushq	%r15
	pushq	%r14
	pushq	%r12
	pushq	%rbx
	.cfi_offset %rbx, -48
	.cfi_offset %r12, -40
	.cfi_offset %r14, -32
	.cfi_offset %r15, -24
	movq	(%rdi), %r12
	testq	%r12, %r12
	je	LBB96_13
	movq	%rdi, %r14
	imulq	$120, 16(%rdi), %rbx
	.p2align	4, 0x90
LBB96_5:
	testq	%rbx, %rbx
	je	LBB96_6
	addq	$-120, %rbx
Ltmp381:
	movq	%r12, %rdi
	addq	$120, %r12
	callq	__ZN4core3ptr13drop_in_place17hf6e49c72f3ddb0a7E
Ltmp382:
	jmp	LBB96_5
LBB96_6:
	movq	8(%r14), %rax
	testq	%rax, %rax
	je	LBB96_10
	movq	(%r14), %rdi
	testq	%rdi, %rdi
	je	LBB96_10
	imulq	$120, %rax, %rsi
	testq	%rsi, %rsi
	je	LBB96_10
	movl	$8, %edx
	callq	___rust_dealloc
LBB96_10:
	addq	$24, %r14
	movq	%r14, %rdi
	popq	%rbx
	popq	%r12
	popq	%r14
	popq	%r15
	popq	%rbp
	jmp	__ZN4core3ptr13drop_in_place17h1fd25e76c3bc6a20E
LBB96_13:
	popq	%rbx
	popq	%r12
	popq	%r14
	popq	%r15
	popq	%rbp
	retq
LBB96_14:
Ltmp383:
	movq	%rax, %r15
	.p2align	4, 0x90
LBB96_3:
	testq	%rbx, %rbx
	je	LBB96_12
	addq	$-120, %rbx
Ltmp384:
	movq	%r12, %rdi
	addq	$120, %r12
	callq	__ZN4core3ptr13drop_in_place17h69c8471b3538259dE
Ltmp385:
	jmp	LBB96_3
LBB96_11:
Ltmp386:
	movq	%rax, %r15
LBB96_12:
	movq	(%r14), %rdi
	movq	8(%r14), %rsi
	callq	__ZN4core3ptr13drop_in_place17h2370988de66c3054E
	addq	$24, %r14
	movq	%r14, %rdi
	callq	__ZN4core3ptr13drop_in_place17h1fd25e76c3bc6a20E
	movq	%r15, %rdi
	callq	__Unwind_Resume
	ud2
Lfunc_end27:
	.cfi_endproc
	.section	__TEXT,__gcc_except_tab
	.p2align	2
GCC_except_table96:
Lexception27:
	.byte	255
	.byte	255
	.byte	1
	.uleb128 Lcst_end27-Lcst_begin27
Lcst_begin27:
	.uleb128 Ltmp381-Lfunc_begin27
	.uleb128 Ltmp382-Ltmp381
	.uleb128 Ltmp383-Lfunc_begin27
	.byte	0
	.uleb128 Ltmp382-Lfunc_begin27
	.uleb128 Ltmp384-Ltmp382
	.byte	0
	.byte	0
	.uleb128 Ltmp384-Lfunc_begin27
	.uleb128 Ltmp385-Ltmp384
	.uleb128 Ltmp386-Lfunc_begin27
	.byte	0
	.uleb128 Ltmp385-Lfunc_begin27
	.uleb128 Lfunc_end27-Ltmp385
	.byte	0
	.byte	0
Lcst_end27:
	.p2align	2

	.section	__TEXT,__text,regular,pure_instructions
	.p2align	4, 0x90
__ZN4core3ptr13drop_in_place17h565ef0c72d45ebe5E:
Lfunc_begin28:
	.cfi_startproc
	.cfi_personality 155, _rust_eh_personality
	.cfi_lsda 16, Lexception28
	pushq	%rbp
	.cfi_def_cfa_offset 16
	.cfi_offset %rbp, -16
	movq	%rsp, %rbp
	.cfi_def_cfa_register %rbp
	pushq	%r14
	pushq	%rbx
	.cfi_offset %rbx, -32
	.cfi_offset %r14, -24
	movq	%rdi, %rbx
Ltmp387:
	callq	__ZN65_$LT$syn..parse..ParseBuffer$u20$as$u20$core..ops..drop..Drop$GT$4drop17hd1ff88cf5c53923dE
Ltmp388:
	movq	16(%rbx), %rax
	testq	%rax, %rax
	je	LBB97_4
	decq	(%rax)
	movq	16(%rbx), %rdi
	cmpq	$0, (%rdi)
	jne	LBB97_4
	addq	$16, %rdi
	callq	__ZN4core3ptr13drop_in_place17h68fc7a8541940eadE
	movq	16(%rbx), %rax
	decq	8(%rax)
	movq	16(%rbx), %rdi
	cmpq	$0, 8(%rdi)
	je	LBB97_6
LBB97_4:
	popq	%rbx
	popq	%r14
	popq	%rbp
	retq
LBB97_6:
	movl	$32, %esi
	movl	$8, %edx
	popq	%rbx
	popq	%r14
	popq	%rbp
	jmp	___rust_dealloc
LBB97_5:
Ltmp389:
	movq	%rax, %r14
	addq	$16, %rbx
	movq	%rbx, %rdi
	callq	__ZN4core3ptr13drop_in_place17he535c6478af43230E
	movq	%r14, %rdi
	callq	__Unwind_Resume
	ud2
Lfunc_end28:
	.cfi_endproc
	.section	__TEXT,__gcc_except_tab
	.p2align	2
GCC_except_table97:
Lexception28:
	.byte	255
	.byte	255
	.byte	1
	.uleb128 Lcst_end28-Lcst_begin28
Lcst_begin28:
	.uleb128 Ltmp387-Lfunc_begin28
	.uleb128 Ltmp388-Ltmp387
	.uleb128 Ltmp389-Lfunc_begin28
	.byte	0
	.uleb128 Ltmp388-Lfunc_begin28
	.uleb128 Lfunc_end28-Ltmp388
	.byte	0
	.byte	0
Lcst_end28:
	.p2align	2

	.section	__TEXT,__text,regular,pure_instructions
	.p2align	4, 0x90
__ZN4core3ptr13drop_in_place17h56fd502ca92cc12dE:
Lfunc_begin29:
	.cfi_startproc
	.cfi_personality 155, _rust_eh_personality
	.cfi_lsda 16, Lexception29
	pushq	%rbp
	.cfi_def_cfa_offset 16
	.cfi_offset %rbp, -16
	movq	%rsp, %rbp
	.cfi_def_cfa_register %rbp
	pushq	%r14
	pushq	%rbx
	.cfi_offset %rbx, -32
	.cfi_offset %r14, -24
	movq	%rdi, %rbx
	movq	(%rdi), %rdi
	movq	8(%rbx), %rax
Ltmp390:
	callq	*(%rax)
Ltmp391:
	movq	8(%rbx), %rax
	movq	8(%rax), %rsi
	testq	%rsi, %rsi
	je	LBB98_4
	movq	(%rbx), %rdi
	movq	16(%rax), %rdx
	popq	%rbx
	popq	%r14
	popq	%rbp
	jmp	___rust_dealloc
LBB98_4:
	popq	%rbx
	popq	%r14
	popq	%rbp
	retq
LBB98_3:
Ltmp392:
	movq	%rax, %r14
	movq	(%rbx), %rdi
	movq	8(%rbx), %rsi
	callq	__ZN5alloc5alloc8box_free17h19e6fdcea01c7df4E
	movq	%r14, %rdi
	callq	__Unwind_Resume
	ud2
Lfunc_end29:
	.cfi_endproc
	.section	__TEXT,__gcc_except_tab
	.p2align	2
GCC_except_table98:
Lexception29:
	.byte	255
	.byte	255
	.byte	1
	.uleb128 Lcst_end29-Lcst_begin29
Lcst_begin29:
	.uleb128 Ltmp390-Lfunc_begin29
	.uleb128 Ltmp391-Ltmp390
	.uleb128 Ltmp392-Lfunc_begin29
	.byte	0
	.uleb128 Ltmp391-Lfunc_begin29
	.uleb128 Lfunc_end29-Ltmp391
	.byte	0
	.byte	0
Lcst_end29:
	.p2align	2

	.section	__TEXT,__text,regular,pure_instructions
	.p2align	4, 0x90
__ZN4core3ptr13drop_in_place17h588f16da68845856E:
	.cfi_startproc
	pushq	%rbp
	.cfi_def_cfa_offset 16
	.cfi_offset %rbp, -16
	movq	%rsp, %rbp
	.cfi_def_cfa_register %rbp
	pushq	%r15
	pushq	%r14
	pushq	%r12
	pushq	%rbx
	.cfi_offset %rbx, -48
	.cfi_offset %r12, -40
	.cfi_offset %r14, -32
	.cfi_offset %r15, -24
	movq	%rdi, %r14
	movq	(%rdi), %r12
	movq	16(%rdi), %rax
	testq	%rax, %rax
	je	LBB99_11
	imulq	$88, %rax, %r15
	addq	%r12, %r15
	addq	$16, %r12
	leaq	-16(%r12), %rbx
	cmpl	$0, -16(%r12)
	jne	LBB99_3
	jmp	LBB99_6
	.p2align	4, 0x90
LBB99_9:
	addq	$88, %r12
	addq	$88, %rbx
	cmpq	%r15, %rbx
	je	LBB99_10
	leaq	-16(%r12), %rbx
	cmpl	$0, -16(%r12)
	je	LBB99_6
LBB99_3:
	movq	-8(%r12), %rdi
	testq	%rdi, %rdi
	je	LBB99_6
	movq	(%r12), %rsi
	testq	%rsi, %rsi
	je	LBB99_6
	movl	$1, %edx
	callq	___rust_dealloc
LBB99_6:
	movq	56(%rbx), %rdi
	testq	%rdi, %rdi
	je	LBB99_9
	movq	64(%rbx), %rsi
	testq	%rsi, %rsi
	je	LBB99_9
	movl	$1, %edx
	callq	___rust_dealloc
	jmp	LBB99_9
LBB99_10:
	movq	(%r14), %r12
LBB99_11:
	movq	8(%r14), %rax
	testq	%rax, %rax
	je	LBB99_14
	testq	%r12, %r12
	je	LBB99_14
	imulq	$88, %rax, %rsi
	testq	%rsi, %rsi
	je	LBB99_14
	movl	$8, %edx
	movq	%r12, %rdi
	popq	%rbx
	popq	%r12
	popq	%r14
	popq	%r15
	popq	%rbp
	jmp	___rust_dealloc
LBB99_14:
	popq	%rbx
	popq	%r12
	popq	%r14
	popq	%r15
	popq	%rbp
	retq
	.cfi_endproc

	.p2align	4, 0x90
__ZN4core3ptr13drop_in_place17h598721b2ab5e536fE:
Lfunc_begin30:
	.cfi_startproc
	.cfi_personality 155, _rust_eh_personality
	.cfi_lsda 16, Lexception30
	pushq	%rbp
	.cfi_def_cfa_offset 16
	.cfi_offset %rbp, -16
	movq	%rsp, %rbp
	.cfi_def_cfa_register %rbp
	pushq	%r14
	pushq	%rbx
	.cfi_offset %rbx, -32
	.cfi_offset %r14, -24
	movq	%rdi, %rbx
	movq	(%rdi), %rdi
	movq	8(%rbx), %rax
Ltmp393:
	callq	*(%rax)
Ltmp394:
	movq	8(%rbx), %rax
	movq	8(%rax), %rsi
	testq	%rsi, %rsi
	je	LBB100_4
	movq	(%rbx), %rdi
	movq	16(%rax), %rdx
	popq	%rbx
	popq	%r14
	popq	%rbp
	jmp	___rust_dealloc
LBB100_4:
	popq	%rbx
	popq	%r14
	popq	%rbp
	retq
LBB100_3:
Ltmp395:
	movq	%rax, %r14
	movq	(%rbx), %rdi
	movq	8(%rbx), %rsi
	callq	__ZN5alloc5alloc8box_free17h19e6fdcea01c7df4E
	movq	%r14, %rdi
	callq	__Unwind_Resume
	ud2
Lfunc_end30:
	.cfi_endproc
	.section	__TEXT,__gcc_except_tab
	.p2align	2
GCC_except_table100:
Lexception30:
	.byte	255
	.byte	255
	.byte	1
	.uleb128 Lcst_end30-Lcst_begin30
Lcst_begin30:
	.uleb128 Ltmp393-Lfunc_begin30
	.uleb128 Ltmp394-Ltmp393
	.uleb128 Ltmp395-Lfunc_begin30
	.byte	0
	.uleb128 Ltmp394-Lfunc_begin30
	.uleb128 Lfunc_end30-Ltmp394
	.byte	0
	.byte	0
Lcst_end30:
	.p2align	2

	.section	__TEXT,__text,regular,pure_instructions
	.p2align	4, 0x90
__ZN4core3ptr13drop_in_place17h5df6177952b73b1dE:
	.cfi_startproc
	pushq	%rbp
	.cfi_def_cfa_offset 16
	.cfi_offset %rbp, -16
	movq	%rsp, %rbp
	.cfi_def_cfa_register %rbp
	popq	%rbp
	jmp	__ZN81_$LT$proc_macro..bridge..client..TokenStream$u20$as$u20$core..ops..drop..Drop$GT$4drop17h41a2e5513f89cb12E
	.cfi_endproc

	.p2align	4, 0x90
__ZN4core3ptr13drop_in_place17h610f7686eb66bbc7E:
Lfunc_begin31:
	.cfi_startproc
	.cfi_personality 155, _rust_eh_personality
	.cfi_lsda 16, Lexception31
	pushq	%rbp
	.cfi_def_cfa_offset 16
	.cfi_offset %rbp, -16
	movq	%rsp, %rbp
	.cfi_def_cfa_register %rbp
	pushq	%r15
	pushq	%r14
	pushq	%rbx
	pushq	%rax
	.cfi_offset %rbx, -40
	.cfi_offset %r14, -32
	.cfi_offset %r15, -24
	movq	%rdi, %r14
	cmpl	$0, (%rdi)
	je	LBB102_13
	leaq	8(%r14), %rax
	movq	%rax, -32(%rbp)
	movq	24(%r14), %rbx
	movq	32(%r14), %r15
	subq	%rbx, %r15
	.p2align	4, 0x90
LBB102_6:
	testq	%r15, %r15
	je	LBB102_7
	addq	$-48, %r15
Ltmp396:
	movq	%rbx, %rdi
	addq	$48, %rbx
	callq	__ZN4core3ptr13drop_in_place17h3b0504de734257e5E
Ltmp397:
	jmp	LBB102_6
LBB102_7:
	movq	16(%r14), %rax
	testq	%rax, %rax
	je	LBB102_10
	shlq	$4, %rax
	leaq	(%rax,%rax,2), %rsi
	testq	%rsi, %rsi
	je	LBB102_10
	movq	8(%r14), %rdi
	movl	$8, %edx
	callq	___rust_dealloc
LBB102_10:
	addq	$8, %rsp
	popq	%rbx
	popq	%r14
	popq	%r15
	popq	%rbp
	retq
LBB102_13:
	addq	$4, %r14
	movq	%r14, %rdi
	addq	$8, %rsp
	popq	%rbx
	popq	%r14
	popq	%r15
	popq	%rbp
	jmp	__ZN85_$LT$proc_macro..bridge..client..TokenStreamIter$u20$as$u20$core..ops..drop..Drop$GT$4drop17h895c7a3fc27312aaE
LBB102_2:
Ltmp398:
	movq	%rax, %r14
	testq	%r15, %r15
	je	LBB102_12
	.p2align	4, 0x90
LBB102_3:
Ltmp399:
	movq	%rbx, %rdi
	callq	__ZN4core3ptr13drop_in_place17h3b0504de734257e5E
Ltmp400:
	addq	$48, %rbx
	addq	$-48, %r15
	jne	LBB102_3
	jmp	LBB102_12
LBB102_11:
Ltmp401:
	movq	%rax, %r14
LBB102_12:
	leaq	-32(%rbp), %rdi
	callq	__ZN4core3ptr13drop_in_place17h8ddae227ff45c6d5E
	movq	%r14, %rdi
	callq	__Unwind_Resume
	ud2
Lfunc_end31:
	.cfi_endproc
	.section	__TEXT,__gcc_except_tab
	.p2align	2
GCC_except_table102:
Lexception31:
	.byte	255
	.byte	255
	.byte	1
	.uleb128 Lcst_end31-Lcst_begin31
Lcst_begin31:
	.uleb128 Ltmp396-Lfunc_begin31
	.uleb128 Ltmp397-Ltmp396
	.uleb128 Ltmp398-Lfunc_begin31
	.byte	0
	.uleb128 Ltmp397-Lfunc_begin31
	.uleb128 Ltmp399-Ltmp397
	.byte	0
	.byte	0
	.uleb128 Ltmp399-Lfunc_begin31
	.uleb128 Ltmp400-Ltmp399
	.uleb128 Ltmp401-Lfunc_begin31
	.byte	0
	.uleb128 Ltmp400-Lfunc_begin31
	.uleb128 Lfunc_end31-Ltmp400
	.byte	0
	.byte	0
Lcst_end31:
	.p2align	2

	.section	__TEXT,__text,regular,pure_instructions
	.p2align	4, 0x90
__ZN4core3ptr13drop_in_place17h624a23237b2d9041E:
	.cfi_startproc
	pushq	%rbp
	.cfi_def_cfa_offset 16
	.cfi_offset %rbp, -16
	movq	%rsp, %rbp
	.cfi_def_cfa_register %rbp
	popq	%rbp
	jmp	__ZN4core3ptr13drop_in_place17h3458d2d6706aebd4E
	.cfi_endproc

	.p2align	4, 0x90
__ZN4core3ptr13drop_in_place17h6483ba4f0adcb51bE:
	.cfi_startproc
	pushq	%rbp
	.cfi_def_cfa_offset 16
	.cfi_offset %rbp, -16
	movq	%rsp, %rbp
	.cfi_def_cfa_register %rbp
	pushq	%r15
	pushq	%r14
	pushq	%r13
	pushq	%r12
	pushq	%rbx
	pushq	%rax
	.cfi_offset %rbx, -56
	.cfi_offset %r12, -48
	.cfi_offset %r13, -40
	.cfi_offset %r14, -32
	.cfi_offset %r15, -24
	movq	%rdi, %r15
	movq	(%rdi), %rax
	movq	(%rax), %r14
	movq	%r14, %rcx
	movq	$-1, %rdi
	incq	%rcx
	je	LBB104_7
	negq	%r14
	movq	$-16, %rbx
	xorl	%r12d, %r12d
	leaq	(%r14,%rbx), %r13
	movq	8(%rax), %rcx
	cmpb	$-128, 16(%rcx,%rbx)
	jne	LBB104_4
	.p2align	4, 0x90
LBB104_3:
	movq	(%rax), %rax
	andq	%rbx, %rax
	movb	$-1, 16(%rcx,%rbx)
	movb	$-1, 16(%rax,%rcx)
	movq	(%r15), %rax
	movq	16(%rax), %rdi
	addq	%r12, %rdi
	callq	__ZN4core3ptr13drop_in_place17hf161d33ff50401f0E
	movq	(%r15), %rax
	decq	32(%rax)
LBB104_4:
	cmpq	$-16, %r13
	je	LBB104_6
	movq	(%r15), %rax
	addq	$184, %r12
	incq	%rbx
	leaq	(%r14,%rbx), %r13
	movq	8(%rax), %rcx
	cmpb	$-128, 16(%rcx,%rbx)
	je	LBB104_3
	jmp	LBB104_4
LBB104_6:
	movq	(%r15), %rax
	movq	(%rax), %rdi
LBB104_7:
	callq	__ZN9hashbrown3raw23bucket_mask_to_capacity17h4bf1081b6c8626a8E
	movq	(%r15), %rcx
	subq	32(%rcx), %rax
	movq	%rax, 24(%rcx)
	addq	$8, %rsp
	popq	%rbx
	popq	%r12
	popq	%r13
	popq	%r14
	popq	%r15
	popq	%rbp
	retq
	.cfi_endproc

	.p2align	4, 0x90
__ZN4core3ptr13drop_in_place17h6657bf9a837cdbacE:
	.cfi_startproc
	pushq	%rbp
	.cfi_def_cfa_offset 16
	.cfi_offset %rbp, -16
	movq	%rsp, %rbp
	.cfi_def_cfa_register %rbp
	cmpl	$4, (%rdi)
	jne	LBB105_2
	popq	%rbp
	retq
LBB105_2:
	popq	%rbp
	jmp	__ZN4core3ptr13drop_in_place17h3b0504de734257e5E
	.cfi_endproc

	.p2align	4, 0x90
__ZN4core3ptr13drop_in_place17h675ec3357fbf5780E:
Lfunc_begin32:
	.cfi_startproc
	.cfi_personality 155, _rust_eh_personality
	.cfi_lsda 16, Lexception32
	pushq	%rbp
	.cfi_def_cfa_offset 16
	.cfi_offset %rbp, -16
	movq	%rsp, %rbp
	.cfi_def_cfa_register %rbp
	pushq	%r15
	pushq	%r14
	pushq	%r13
	pushq	%r12
	pushq	%rbx
	pushq	%rax
	.cfi_offset %rbx, -56
	.cfi_offset %r12, -48
	.cfi_offset %r13, -40
	.cfi_offset %r14, -32
	.cfi_offset %r15, -24
	movq	%rdi, %r14
	movq	(%rdi), %r12
	leaq	8(%r12), %rdi
	cmpq	$0, (%r12)
	je	LBB106_1
	cmpl	$0, (%rdi)
	je	LBB106_23
	movq	16(%r12), %rdi
	testq	%rdi, %rdi
	je	LBB106_23
	movq	24(%r12), %rsi
	testq	%rsi, %rsi
	je	LBB106_23
	movl	$1, %edx
	jmp	LBB106_22
LBB106_1:
Ltmp402:
	callq	__ZN4core3ptr13drop_in_place17h5522285a3da3a9b4E
Ltmp403:
	movq	56(%r12), %r13
	imulq	$112, 72(%r12), %rbx
	.p2align	4, 0x90
LBB106_7:
	testq	%rbx, %rbx
	je	LBB106_8
	addq	$-112, %rbx
Ltmp407:
	movq	%r13, %rdi
	addq	$112, %r13
	callq	__ZN4core3ptr13drop_in_place17h3087da7ef2274124E
Ltmp408:
	jmp	LBB106_7
LBB106_8:
	movq	64(%r12), %rax
	testq	%rax, %rax
	je	LBB106_12
	movq	56(%r12), %rdi
	testq	%rdi, %rdi
	je	LBB106_12
	imulq	$112, %rax, %rsi
	testq	%rsi, %rsi
	je	LBB106_12
	movl	$8, %edx
	callq	___rust_dealloc
LBB106_12:
	movq	80(%r12), %rdi
	testq	%rdi, %rdi
	je	LBB106_23
Ltmp416:
	callq	__ZN4core3ptr13drop_in_place17h3087da7ef2274124E
Ltmp417:
	movq	80(%r12), %rdi
	movl	$104, %esi
	movl	$8, %edx
LBB106_22:
	callq	___rust_dealloc
LBB106_23:
	movq	(%r14), %rdi
	movl	$120, %esi
	movl	$8, %edx
	addq	$8, %rsp
	popq	%rbx
	popq	%r12
	popq	%r13
	popq	%r14
	popq	%r15
	popq	%rbp
	jmp	___rust_dealloc
LBB106_17:
Ltmp418:
	movq	%rax, %r15
	movq	80(%r12), %rdi
	callq	__ZN5alloc5alloc8box_free17hd946ac010d0783fbE
	jmp	LBB106_25
LBB106_3:
Ltmp404:
	movq	%rax, %r15
	addq	$56, %r12
Ltmp405:
	movq	%r12, %rdi
	callq	__ZN4core3ptr13drop_in_place17h34270e03c18c94f6E
Ltmp406:
	jmp	LBB106_25
LBB106_26:
Ltmp409:
	movq	%rax, %r15
	.p2align	4, 0x90
LBB106_5:
	testq	%rbx, %rbx
	je	LBB106_16
	addq	$-112, %rbx
Ltmp410:
	movq	%r13, %rdi
	addq	$112, %r13
	callq	__ZN4core3ptr13drop_in_place17h9b40471bcf5f1174E
Ltmp411:
	jmp	LBB106_5
LBB106_15:
Ltmp412:
	movq	%rax, %r15
LBB106_16:
	movq	56(%r12), %rdi
	movq	64(%r12), %rsi
	callq	__ZN4core3ptr13drop_in_place17h9989c93b8e589b61E
	addq	$80, %r12
Ltmp413:
	movq	%r12, %rdi
	callq	__ZN4core3ptr13drop_in_place17h1977e1a3775e52fcE
Ltmp414:
LBB106_25:
	movq	(%r14), %rdi
	callq	__ZN5alloc5alloc8box_free17h27f0ef46b5c8b130E
	movq	%r15, %rdi
	callq	__Unwind_Resume
	ud2
LBB106_24:
Ltmp415:
	movq	%rax, %r15
	jmp	LBB106_25
Lfunc_end32:
	.cfi_endproc
	.section	__TEXT,__gcc_except_tab
	.p2align	2
GCC_except_table106:
Lexception32:
	.byte	255
	.byte	255
	.byte	1
	.uleb128 Lcst_end32-Lcst_begin32
Lcst_begin32:
	.uleb128 Ltmp402-Lfunc_begin32
	.uleb128 Ltmp403-Ltmp402
	.uleb128 Ltmp404-Lfunc_begin32
	.byte	0
	.uleb128 Ltmp407-Lfunc_begin32
	.uleb128 Ltmp408-Ltmp407
	.uleb128 Ltmp409-Lfunc_begin32
	.byte	0
	.uleb128 Ltmp416-Lfunc_begin32
	.uleb128 Ltmp417-Ltmp416
	.uleb128 Ltmp418-Lfunc_begin32
	.byte	0
	.uleb128 Ltmp405-Lfunc_begin32
	.uleb128 Ltmp406-Ltmp405
	.uleb128 Ltmp415-Lfunc_begin32
	.byte	0
	.uleb128 Ltmp410-Lfunc_begin32
	.uleb128 Ltmp411-Ltmp410
	.uleb128 Ltmp412-Lfunc_begin32
	.byte	0
	.uleb128 Ltmp413-Lfunc_begin32
	.uleb128 Ltmp414-Ltmp413
	.uleb128 Ltmp415-Lfunc_begin32
	.byte	0
	.uleb128 Ltmp414-Lfunc_begin32
	.uleb128 Lfunc_end32-Ltmp414
	.byte	0
	.byte	0
Lcst_end32:
	.p2align	2

	.section	__TEXT,__text,regular,pure_instructions
	.p2align	4, 0x90
__ZN4core3ptr13drop_in_place17h6760038a1610f599E:
	.cfi_startproc
	pushq	%rbp
	.cfi_def_cfa_offset 16
	.cfi_offset %rbp, -16
	movq	%rsp, %rbp
	.cfi_def_cfa_register %rbp
	cmpl	$2, (%rdi)
	jne	LBB107_2
	popq	%rbp
	retq
LBB107_2:
	addq	$8, %rdi
	popq	%rbp
	jmp	__ZN4core3ptr13drop_in_place17h7700b212482e2130E
	.cfi_endproc

	.p2align	4, 0x90
__ZN4core3ptr13drop_in_place17h68fc7a8541940eadE:
	.cfi_startproc
	pushq	%rbp
	.cfi_def_cfa_offset 16
	.cfi_offset %rbp, -16
	movq	%rsp, %rbp
	.cfi_def_cfa_register %rbp
	pushq	%rbx
	pushq	%rax
	.cfi_offset %rbx, -24
	cmpl	$2, (%rdi)
	jb	LBB108_3
	movq	%rdi, %rbx
	movq	8(%rdi), %rax
	decq	(%rax)
	movq	8(%rdi), %rdi
	cmpq	$0, (%rdi)
	jne	LBB108_3
	addq	$16, %rdi
	callq	__ZN4core3ptr13drop_in_place17h68fc7a8541940eadE
	movq	8(%rbx), %rax
	decq	8(%rax)
	movq	8(%rbx), %rdi
	cmpq	$0, 8(%rdi)
	je	LBB108_4
LBB108_3:
	addq	$8, %rsp
	popq	%rbx
	popq	%rbp
	retq
LBB108_4:
	movl	$32, %esi
	movl	$8, %edx
	addq	$8, %rsp
	popq	%rbx
	popq	%rbp
	jmp	___rust_dealloc
	.cfi_endproc

	.p2align	4, 0x90
__ZN4core3ptr13drop_in_place17h69c8471b3538259dE:
	.cfi_startproc
	pushq	%rbp
	.cfi_def_cfa_offset 16
	.cfi_offset %rbp, -16
	movq	%rsp, %rbp
	.cfi_def_cfa_register %rbp
	popq	%rbp
	jmp	__ZN4core3ptr13drop_in_place17hf6e49c72f3ddb0a7E
	.cfi_endproc

	.p2align	4, 0x90
__ZN4core3ptr13drop_in_place17h6cd689ac8fc3fb28E:
Lfunc_begin33:
	.cfi_startproc
	.cfi_personality 155, _rust_eh_personality
	.cfi_lsda 16, Lexception33
	pushq	%rbp
	.cfi_def_cfa_offset 16
	.cfi_offset %rbp, -16
	movq	%rsp, %rbp
	.cfi_def_cfa_register %rbp
	pushq	%r15
	pushq	%r14
	pushq	%r12
	pushq	%rbx
	.cfi_offset %rbx, -48
	.cfi_offset %r12, -40
	.cfi_offset %r14, -32
	.cfi_offset %r15, -24
	movq	%rdi, %r15
	movq	(%rdi), %rax
	testq	%rax, %rax
	je	LBB110_4
	cmpq	$1, %rax
	jne	LBB110_25
	addq	$8, %r15
	movq	%r15, %rdi
	popq	%rbx
	popq	%r12
	popq	%r14
	popq	%r15
	popq	%rbp
	jmp	__ZN4core3ptr13drop_in_place17hf6e49c72f3ddb0a7E
LBB110_4:
	movq	8(%r15), %r12
	imulq	$104, 24(%r15), %rbx
	.p2align	4, 0x90
LBB110_8:
	testq	%rbx, %rbx
	je	LBB110_9
	addq	$-104, %rbx
Ltmp419:
	movq	%r12, %rdi
	addq	$104, %r12
	callq	__ZN4core3ptr13drop_in_place17h42f877d1ceb7cb9dE
Ltmp420:
	jmp	LBB110_8
LBB110_25:
	movq	8(%r15), %r12
	imulq	$104, 24(%r15), %rbx
	.p2align	4, 0x90
LBB110_29:
	testq	%rbx, %rbx
	je	LBB110_30
	addq	$-104, %rbx
Ltmp428:
	movq	%r12, %rdi
	addq	$104, %r12
	callq	__ZN4core3ptr13drop_in_place17h42f877d1ceb7cb9dE
Ltmp429:
	jmp	LBB110_29
LBB110_9:
	movq	16(%r15), %rax
	testq	%rax, %rax
	je	LBB110_13
	movq	8(%r15), %rdi
	testq	%rdi, %rdi
	je	LBB110_13
	imulq	$104, %rax, %rsi
	testq	%rsi, %rsi
	je	LBB110_13
	movl	$8, %edx
	callq	___rust_dealloc
LBB110_13:
	cmpl	$0, 32(%r15)
	je	LBB110_17
	movq	40(%r15), %rdi
	testq	%rdi, %rdi
	je	LBB110_17
	movq	48(%r15), %rsi
	testq	%rsi, %rsi
	je	LBB110_17
	movl	$1, %edx
	callq	___rust_dealloc
LBB110_17:
	leaq	72(%r15), %rdi
Ltmp425:
	callq	__ZN4core3ptr13drop_in_place17h29d5898f0d2a32f9E
Ltmp426:
	cmpl	$16, 104(%r15)
	je	LBB110_3
	addq	$104, %r15
	movq	%r15, %rdi
	popq	%rbx
	popq	%r12
	popq	%r14
	popq	%r15
	popq	%rbp
	jmp	__ZN4core3ptr13drop_in_place17hf161d33ff50401f0E
LBB110_30:
	movq	16(%r15), %rax
	testq	%rax, %rax
	je	LBB110_34
	movq	8(%r15), %rdi
	testq	%rdi, %rdi
	je	LBB110_34
	imulq	$104, %rax, %rsi
	testq	%rsi, %rsi
	je	LBB110_34
	movl	$8, %edx
	callq	___rust_dealloc
LBB110_34:
	cmpl	$0, 32(%r15)
	je	LBB110_38
	movq	40(%r15), %rdi
	testq	%rdi, %rdi
	je	LBB110_38
	movq	48(%r15), %rsi
	testq	%rsi, %rsi
	je	LBB110_38
	movl	$1, %edx
	callq	___rust_dealloc
LBB110_38:
	leaq	72(%r15), %rdi
Ltmp434:
	callq	__ZN4core3ptr13drop_in_place17hf161d33ff50401f0E
Ltmp435:
	cmpq	$41, 256(%r15)
	jne	LBB110_40
LBB110_3:
	popq	%rbx
	popq	%r12
	popq	%r14
	popq	%r15
	popq	%rbp
	retq
LBB110_40:
	addq	$256, %r15
	movq	%r15, %rdi
	popq	%rbx
	popq	%r12
	popq	%r14
	popq	%r15
	popq	%rbp
	jmp	__ZN4core3ptr13drop_in_place17h4c3b1fffec5b7a77E
LBB110_44:
Ltmp436:
	movq	%rax, %r14
	jmp	LBB110_43
LBB110_24:
Ltmp427:
	movq	%rax, %r14
	jmp	LBB110_22
LBB110_46:
Ltmp430:
	movq	%rax, %r14
	.p2align	4, 0x90
LBB110_27:
	testq	%rbx, %rbx
	je	LBB110_42
	addq	$-104, %rbx
Ltmp431:
	movq	%r12, %rdi
	addq	$104, %r12
	callq	__ZN4core3ptr13drop_in_place17h42f877d1ceb7cb9dE
Ltmp432:
	jmp	LBB110_27
LBB110_41:
Ltmp433:
	movq	%rax, %r14
LBB110_42:
	movq	8(%r15), %rdi
	movq	16(%r15), %rsi
	callq	__ZN4core3ptr13drop_in_place17hfd19d49573e256e2E
	leaq	32(%r15), %rdi
	callq	__ZN4core3ptr13drop_in_place17h3aea0d3733c9cca1E
	leaq	72(%r15), %rdi
	callq	__ZN4core3ptr13drop_in_place17hf161d33ff50401f0E
LBB110_43:
	addq	$256, %r15
	movq	%r15, %rdi
	callq	__ZN4core3ptr13drop_in_place17hf0b8b7d4ab1ff02aE
	movq	%r14, %rdi
	callq	__Unwind_Resume
	ud2
LBB110_45:
Ltmp421:
	movq	%rax, %r14
	.p2align	4, 0x90
LBB110_6:
	testq	%rbx, %rbx
	je	LBB110_21
	addq	$-104, %rbx
Ltmp422:
	movq	%r12, %rdi
	addq	$104, %r12
	callq	__ZN4core3ptr13drop_in_place17h42f877d1ceb7cb9dE
Ltmp423:
	jmp	LBB110_6
LBB110_20:
Ltmp424:
	movq	%rax, %r14
LBB110_21:
	movq	8(%r15), %rdi
	movq	16(%r15), %rsi
	callq	__ZN4core3ptr13drop_in_place17hfd19d49573e256e2E
	leaq	32(%r15), %rdi
	callq	__ZN4core3ptr13drop_in_place17h3aea0d3733c9cca1E
	leaq	72(%r15), %rdi
	callq	__ZN4core3ptr13drop_in_place17h29d5898f0d2a32f9E
LBB110_22:
	addq	$104, %r15
	movq	%r15, %rdi
	callq	__ZN4core3ptr13drop_in_place17h5255c7e6b9e21172E
	movq	%r14, %rdi
	callq	__Unwind_Resume
	ud2
Lfunc_end33:
	.cfi_endproc
	.section	__TEXT,__gcc_except_tab
	.p2align	2
GCC_except_table110:
Lexception33:
	.byte	255
	.byte	255
	.byte	1
	.uleb128 Lcst_end33-Lcst_begin33
Lcst_begin33:
	.uleb128 Lfunc_begin33-Lfunc_begin33
	.uleb128 Ltmp419-Lfunc_begin33
	.byte	0
	.byte	0
	.uleb128 Ltmp419-Lfunc_begin33
	.uleb128 Ltmp420-Ltmp419
	.uleb128 Ltmp421-Lfunc_begin33
	.byte	0
	.uleb128 Ltmp428-Lfunc_begin33
	.uleb128 Ltmp429-Ltmp428
	.uleb128 Ltmp430-Lfunc_begin33
	.byte	0
	.uleb128 Ltmp425-Lfunc_begin33
	.uleb128 Ltmp426-Ltmp425
	.uleb128 Ltmp427-Lfunc_begin33
	.byte	0
	.uleb128 Ltmp426-Lfunc_begin33
	.uleb128 Ltmp434-Ltmp426
	.byte	0
	.byte	0
	.uleb128 Ltmp434-Lfunc_begin33
	.uleb128 Ltmp435-Ltmp434
	.uleb128 Ltmp436-Lfunc_begin33
	.byte	0
	.uleb128 Ltmp435-Lfunc_begin33
	.uleb128 Ltmp431-Ltmp435
	.byte	0
	.byte	0
	.uleb128 Ltmp431-Lfunc_begin33
	.uleb128 Ltmp432-Ltmp431
	.uleb128 Ltmp433-Lfunc_begin33
	.byte	0
	.uleb128 Ltmp432-Lfunc_begin33
	.uleb128 Ltmp422-Ltmp432
	.byte	0
	.byte	0
	.uleb128 Ltmp422-Lfunc_begin33
	.uleb128 Ltmp423-Ltmp422
	.uleb128 Ltmp424-Lfunc_begin33
	.byte	0
	.uleb128 Ltmp423-Lfunc_begin33
	.uleb128 Lfunc_end33-Ltmp423
	.byte	0
	.byte	0
Lcst_end33:
	.p2align	2

	.section	__TEXT,__text,regular,pure_instructions
	.p2align	4, 0x90
__ZN4core3ptr13drop_in_place17h6d43e1ac3950e2a2E:
	.cfi_startproc
	pushq	%rbp
	.cfi_def_cfa_offset 16
	.cfi_offset %rbp, -16
	movq	%rsp, %rbp
	.cfi_def_cfa_register %rbp
	testq	%rsi, %rsi
	je	LBB111_3
	testq	%rdi, %rdi
	je	LBB111_3
	shlq	$4, %rsi
	leaq	(%rsi,%rsi,2), %rsi
	testq	%rsi, %rsi
	je	LBB111_3
	movl	$8, %edx
	popq	%rbp
	jmp	___rust_dealloc
LBB111_3:
	popq	%rbp
	retq
	.cfi_endproc

	.p2align	4, 0x90
__ZN4core3ptr13drop_in_place17h6db7ce1b50ee1aa0E:
	.cfi_startproc
	pushq	%rbp
	.cfi_def_cfa_offset 16
	.cfi_offset %rbp, -16
	movq	%rsp, %rbp
	.cfi_def_cfa_register %rbp
	popq	%rbp
	jmp	__ZN4core3ptr13drop_in_place17hf161d33ff50401f0E
	.cfi_endproc

	.p2align	4, 0x90
__ZN4core3ptr13drop_in_place17h6de3ce88dfef60c5E:
Lfunc_begin34:
	.cfi_startproc
	.cfi_personality 155, _rust_eh_personality
	.cfi_lsda 16, Lexception34
	pushq	%rbp
	.cfi_def_cfa_offset 16
	.cfi_offset %rbp, -16
	movq	%rsp, %rbp
	.cfi_def_cfa_register %rbp
	pushq	%r15
	pushq	%r14
	pushq	%rbx
	pushq	%rax
	.cfi_offset %rbx, -40
	.cfi_offset %r14, -32
	.cfi_offset %r15, -24
	movq	%rdi, %r14
	movq	%rdi, -32(%rbp)
	movq	16(%rdi), %rbx
	movq	24(%rdi), %r15
	subq	%rbx, %r15
	.p2align	4, 0x90
LBB113_5:
	testq	%r15, %r15
	je	LBB113_6
	addq	$-48, %r15
Ltmp437:
	movq	%rbx, %rdi
	addq	$48, %rbx
	callq	__ZN4core3ptr13drop_in_place17h3b0504de734257e5E
Ltmp438:
	jmp	LBB113_5
LBB113_6:
	movq	8(%r14), %rax
	testq	%rax, %rax
	je	LBB113_9
	shlq	$4, %rax
	leaq	(%rax,%rax,2), %rsi
	testq	%rsi, %rsi
	je	LBB113_9
	movq	(%r14), %rdi
	movl	$8, %edx
	callq	___rust_dealloc
LBB113_9:
	addq	$8, %rsp
	popq	%rbx
	popq	%r14
	popq	%r15
	popq	%rbp
	retq
LBB113_1:
Ltmp439:
	movq	%rax, %r14
	testq	%r15, %r15
	je	LBB113_11
	.p2align	4, 0x90
LBB113_2:
Ltmp440:
	movq	%rbx, %rdi
	callq	__ZN4core3ptr13drop_in_place17h3b0504de734257e5E
Ltmp441:
	addq	$48, %rbx
	addq	$-48, %r15
	jne	LBB113_2
	jmp	LBB113_11
LBB113_10:
Ltmp442:
	movq	%rax, %r14
LBB113_11:
	leaq	-32(%rbp), %rdi
	callq	__ZN4core3ptr13drop_in_place17h8ddae227ff45c6d5E
	movq	%r14, %rdi
	callq	__Unwind_Resume
	ud2
Lfunc_end34:
	.cfi_endproc
	.section	__TEXT,__gcc_except_tab
	.p2align	2
GCC_except_table113:
Lexception34:
	.byte	255
	.byte	255
	.byte	1
	.uleb128 Lcst_end34-Lcst_begin34
Lcst_begin34:
	.uleb128 Ltmp437-Lfunc_begin34
	.uleb128 Ltmp438-Ltmp437
	.uleb128 Ltmp439-Lfunc_begin34
	.byte	0
	.uleb128 Ltmp440-Lfunc_begin34
	.uleb128 Ltmp441-Ltmp440
	.uleb128 Ltmp442-Lfunc_begin34
	.byte	0
	.uleb128 Ltmp441-Lfunc_begin34
	.uleb128 Lfunc_end34-Ltmp441
	.byte	0
	.byte	0
Lcst_end34:
	.p2align	2

	.section	__TEXT,__text,regular,pure_instructions
	.p2align	4, 0x90
__ZN4core3ptr13drop_in_place17h6e07c78375421202E:
Lfunc_begin35:
	.cfi_startproc
	.cfi_personality 155, _rust_eh_personality
	.cfi_lsda 16, Lexception35
	pushq	%rbp
	.cfi_def_cfa_offset 16
	.cfi_offset %rbp, -16
	movq	%rsp, %rbp
	.cfi_def_cfa_register %rbp
	pushq	%r15
	pushq	%r14
	pushq	%r12
	pushq	%rbx
	.cfi_offset %rbx, -48
	.cfi_offset %r12, -40
	.cfi_offset %r14, -32
	.cfi_offset %r15, -24
	movq	%rdi, %r14
	movq	(%rdi), %r12
	imulq	$120, 16(%rdi), %rbx
	.p2align	4, 0x90
LBB114_4:
	testq	%rbx, %rbx
	je	LBB114_5
	addq	$-120, %rbx
Ltmp443:
	movq	%r12, %rdi
	addq	$120, %r12
	callq	__ZN4core3ptr13drop_in_place17h4c3b1fffec5b7a77E
Ltmp444:
	jmp	LBB114_4
LBB114_5:
	movq	8(%r14), %rax
	testq	%rax, %rax
	je	LBB114_8
	movq	(%r14), %rdi
	testq	%rdi, %rdi
	je	LBB114_8
	imulq	$120, %rax, %rsi
	testq	%rsi, %rsi
	je	LBB114_8
	movl	$8, %edx
	popq	%rbx
	popq	%r12
	popq	%r14
	popq	%r15
	popq	%rbp
	jmp	___rust_dealloc
LBB114_8:
	popq	%rbx
	popq	%r12
	popq	%r14
	popq	%r15
	popq	%rbp
	retq
LBB114_11:
Ltmp445:
	movq	%rax, %r15
	.p2align	4, 0x90
LBB114_2:
	testq	%rbx, %rbx
	je	LBB114_10
	addq	$-120, %rbx
Ltmp446:
	movq	%r12, %rdi
	addq	$120, %r12
	callq	__ZN4core3ptr13drop_in_place17h93cdc8dc6eed4630E
Ltmp447:
	jmp	LBB114_2
LBB114_9:
Ltmp448:
	movq	%rax, %r15
LBB114_10:
	movq	(%r14), %rdi
	movq	8(%r14), %rsi
	callq	__ZN4core3ptr13drop_in_place17h2370988de66c3054E
	movq	%r15, %rdi
	callq	__Unwind_Resume
	ud2
Lfunc_end35:
	.cfi_endproc
	.section	__TEXT,__gcc_except_tab
	.p2align	2
GCC_except_table114:
Lexception35:
	.byte	255
	.byte	255
	.byte	1
	.uleb128 Lcst_end35-Lcst_begin35
Lcst_begin35:
	.uleb128 Ltmp443-Lfunc_begin35
	.uleb128 Ltmp444-Ltmp443
	.uleb128 Ltmp445-Lfunc_begin35
	.byte	0
	.uleb128 Ltmp446-Lfunc_begin35
	.uleb128 Ltmp447-Ltmp446
	.uleb128 Ltmp448-Lfunc_begin35
	.byte	0
	.uleb128 Ltmp447-Lfunc_begin35
	.uleb128 Lfunc_end35-Ltmp447
	.byte	0
	.byte	0
Lcst_end35:
	.p2align	2

	.section	__TEXT,__text,regular,pure_instructions
	.p2align	4, 0x90
__ZN4core3ptr13drop_in_place17h72c4e821062216a7E:
Lfunc_begin36:
	.cfi_startproc
	.cfi_personality 155, _rust_eh_personality
	.cfi_lsda 16, Lexception36
	pushq	%rbp
	.cfi_def_cfa_offset 16
	.cfi_offset %rbp, -16
	movq	%rsp, %rbp
	.cfi_def_cfa_register %rbp
	pushq	%r15
	pushq	%r14
	pushq	%r12
	pushq	%rbx
	.cfi_offset %rbx, -48
	.cfi_offset %r12, -40
	.cfi_offset %r14, -32
	.cfi_offset %r15, -24
	movq	%rdi, %r15
	movq	(%rdi), %r12
	testq	%r12, %r12
	je	LBB115_11
	imulq	$120, 16(%r15), %rbx
	.p2align	4, 0x90
LBB115_5:
	testq	%rbx, %rbx
	je	LBB115_6
	addq	$-120, %rbx
Ltmp449:
	movq	%r12, %rdi
	addq	$120, %r12
	callq	__ZN4core3ptr13drop_in_place17hf6e49c72f3ddb0a7E
Ltmp450:
	jmp	LBB115_5
LBB115_6:
	movq	8(%r15), %rax
	testq	%rax, %rax
	je	LBB115_10
	movq	(%r15), %rdi
	testq	%rdi, %rdi
	je	LBB115_10
	imulq	$120, %rax, %rsi
	testq	%rsi, %rsi
	je	LBB115_10
	movl	$8, %edx
	callq	___rust_dealloc
LBB115_10:
	leaq	24(%r15), %rdi
Ltmp457:
	callq	__ZN4core3ptr13drop_in_place17h1fd25e76c3bc6a20E
Ltmp458:
LBB115_11:
	movq	48(%r15), %r12
	imulq	$112, 64(%r15), %rbx
	.p2align	4, 0x90
LBB115_17:
	testq	%rbx, %rbx
	je	LBB115_18
	addq	$-112, %rbx
Ltmp460:
	movq	%r12, %rdi
	addq	$112, %r12
	callq	__ZN4core3ptr13drop_in_place17h3087da7ef2274124E
Ltmp461:
	jmp	LBB115_17
LBB115_18:
	movq	56(%r15), %rax
	testq	%rax, %rax
	je	LBB115_22
	movq	48(%r15), %rdi
	testq	%rdi, %rdi
	je	LBB115_22
	imulq	$112, %rax, %rsi
	testq	%rsi, %rsi
	je	LBB115_22
	movl	$8, %edx
	callq	___rust_dealloc
LBB115_22:
	movq	72(%r15), %rdi
	testq	%rdi, %rdi
	je	LBB115_28
Ltmp466:
	callq	__ZN4core3ptr13drop_in_place17h3087da7ef2274124E
Ltmp467:
	movq	72(%r15), %rdi
	movl	$104, %esi
	movl	$8, %edx
	popq	%rbx
	popq	%r12
	popq	%r14
	popq	%r15
	popq	%rbp
	jmp	___rust_dealloc
LBB115_28:
	popq	%rbx
	popq	%r12
	popq	%r14
	popq	%r15
	popq	%rbp
	retq
LBB115_27:
Ltmp468:
	movq	%rax, %r14
	movq	72(%r15), %rdi
	callq	__ZN5alloc5alloc8box_free17hd946ac010d0783fbE
	movq	%r14, %rdi
	callq	__Unwind_Resume
	ud2
LBB115_32:
Ltmp451:
	movq	%rax, %r14
	.p2align	4, 0x90
LBB115_3:
	testq	%rbx, %rbx
	je	LBB115_13
	addq	$-120, %rbx
Ltmp452:
	movq	%r12, %rdi
	addq	$120, %r12
	callq	__ZN4core3ptr13drop_in_place17h69c8471b3538259dE
Ltmp453:
	jmp	LBB115_3
LBB115_12:
Ltmp454:
	movq	%rax, %r14
LBB115_13:
	movq	(%r15), %rdi
	movq	8(%r15), %rsi
	callq	__ZN4core3ptr13drop_in_place17h2370988de66c3054E
	leaq	24(%r15), %rdi
Ltmp455:
	callq	__ZN4core3ptr13drop_in_place17h1fd25e76c3bc6a20E
Ltmp456:
LBB115_30:
	addq	$48, %r15
	movq	%r15, %rdi
	callq	__ZN4core3ptr13drop_in_place17h34270e03c18c94f6E
	movq	%r14, %rdi
	callq	__Unwind_Resume
	ud2
LBB115_29:
Ltmp459:
	movq	%rax, %r14
	jmp	LBB115_30
LBB115_33:
Ltmp462:
	movq	%rax, %r14
	.p2align	4, 0x90
LBB115_15:
	testq	%rbx, %rbx
	je	LBB115_26
	addq	$-112, %rbx
Ltmp463:
	movq	%r12, %rdi
	addq	$112, %r12
	callq	__ZN4core3ptr13drop_in_place17h9b40471bcf5f1174E
Ltmp464:
	jmp	LBB115_15
LBB115_25:
Ltmp465:
	movq	%rax, %r14
LBB115_26:
	movq	48(%r15), %rdi
	movq	56(%r15), %rsi
	callq	__ZN4core3ptr13drop_in_place17h9989c93b8e589b61E
	addq	$72, %r15
	movq	%r15, %rdi
	callq	__ZN4core3ptr13drop_in_place17h1977e1a3775e52fcE
	movq	%r14, %rdi
	callq	__Unwind_Resume
	ud2
Lfunc_end36:
	.cfi_endproc
	.section	__TEXT,__gcc_except_tab
	.p2align	2
GCC_except_table115:
Lexception36:
	.byte	255
	.byte	255
	.byte	1
	.uleb128 Lcst_end36-Lcst_begin36
Lcst_begin36:
	.uleb128 Ltmp449-Lfunc_begin36
	.uleb128 Ltmp450-Ltmp449
	.uleb128 Ltmp451-Lfunc_begin36
	.byte	0
	.uleb128 Ltmp457-Lfunc_begin36
	.uleb128 Ltmp458-Ltmp457
	.uleb128 Ltmp459-Lfunc_begin36
	.byte	0
	.uleb128 Ltmp460-Lfunc_begin36
	.uleb128 Ltmp461-Ltmp460
	.uleb128 Ltmp462-Lfunc_begin36
	.byte	0
	.uleb128 Ltmp466-Lfunc_begin36
	.uleb128 Ltmp467-Ltmp466
	.uleb128 Ltmp468-Lfunc_begin36
	.byte	0
	.uleb128 Ltmp467-Lfunc_begin36
	.uleb128 Ltmp452-Ltmp467
	.byte	0
	.byte	0
	.uleb128 Ltmp452-Lfunc_begin36
	.uleb128 Ltmp453-Ltmp452
	.uleb128 Ltmp454-Lfunc_begin36
	.byte	0
	.uleb128 Ltmp455-Lfunc_begin36
	.uleb128 Ltmp456-Ltmp455
	.uleb128 Ltmp459-Lfunc_begin36
	.byte	0
	.uleb128 Ltmp456-Lfunc_begin36
	.uleb128 Ltmp463-Ltmp456
	.byte	0
	.byte	0
	.uleb128 Ltmp463-Lfunc_begin36
	.uleb128 Ltmp464-Ltmp463
	.uleb128 Ltmp465-Lfunc_begin36
	.byte	0
	.uleb128 Ltmp464-Lfunc_begin36
	.uleb128 Lfunc_end36-Ltmp464
	.byte	0
	.byte	0
Lcst_end36:
	.p2align	2

	.section	__TEXT,__text,regular,pure_instructions
	.p2align	4, 0x90
__ZN4core3ptr13drop_in_place17h7441cb778749b635E:
	.cfi_startproc
	pushq	%rbp
	.cfi_def_cfa_offset 16
	.cfi_offset %rbp, -16
	movq	%rsp, %rbp
	.cfi_def_cfa_register %rbp
	popq	%rbp
	jmp	__ZN4core3ptr13drop_in_place17hfc462ea42a0b8b35E
	.cfi_endproc

	.p2align	4, 0x90
__ZN4core3ptr13drop_in_place17h7700b212482e2130E:
Lfunc_begin37:
	.cfi_startproc
	.cfi_personality 155, _rust_eh_personality
	.cfi_lsda 16, Lexception37
	pushq	%rbp
	.cfi_def_cfa_offset 16
	.cfi_offset %rbp, -16
	movq	%rsp, %rbp
	.cfi_def_cfa_register %rbp
	pushq	%r15
	pushq	%r14
	pushq	%r12
	pushq	%rbx
	.cfi_offset %rbx, -48
	.cfi_offset %r12, -40
	.cfi_offset %r14, -32
	.cfi_offset %r15, -24
	movq	%rdi, %r15
	cmpq	$0, (%rdi)
	je	LBB117_1
	cmpl	$0, 8(%r15)
	je	LBB117_35
	movq	16(%r15), %rdi
	testq	%rdi, %rdi
	je	LBB117_35
	movq	24(%r15), %rsi
	testq	%rsi, %rsi
	je	LBB117_35
	movl	$1, %edx
	jmp	LBB117_34
LBB117_1:
	movq	8(%r15), %r12
	testq	%r12, %r12
	je	LBB117_12
	imulq	$120, 24(%r15), %rbx
	.p2align	4, 0x90
LBB117_6:
	testq	%rbx, %rbx
	je	LBB117_7
	addq	$-120, %rbx
Ltmp469:
	movq	%r12, %rdi
	addq	$120, %r12
	callq	__ZN4core3ptr13drop_in_place17hf6e49c72f3ddb0a7E
Ltmp470:
	jmp	LBB117_6
LBB117_7:
	movq	16(%r15), %rax
	testq	%rax, %rax
	je	LBB117_11
	movq	8(%r15), %rdi
	testq	%rdi, %rdi
	je	LBB117_11
	imulq	$120, %rax, %rsi
	testq	%rsi, %rsi
	je	LBB117_11
	movl	$8, %edx
	callq	___rust_dealloc
LBB117_11:
	leaq	32(%r15), %rdi
Ltmp477:
	callq	__ZN4core3ptr13drop_in_place17h1fd25e76c3bc6a20E
Ltmp478:
LBB117_12:
	movq	56(%r15), %r12
	imulq	$112, 72(%r15), %rbx
	.p2align	4, 0x90
LBB117_20:
	testq	%rbx, %rbx
	je	LBB117_21
	addq	$-112, %rbx
Ltmp480:
	movq	%r12, %rdi
	addq	$112, %r12
	callq	__ZN4core3ptr13drop_in_place17h3087da7ef2274124E
Ltmp481:
	jmp	LBB117_20
LBB117_21:
	movq	64(%r15), %rax
	testq	%rax, %rax
	je	LBB117_25
	movq	56(%r15), %rdi
	testq	%rdi, %rdi
	je	LBB117_25
	imulq	$112, %rax, %rsi
	testq	%rsi, %rsi
	je	LBB117_25
	movl	$8, %edx
	callq	___rust_dealloc
LBB117_25:
	movq	80(%r15), %rdi
	testq	%rdi, %rdi
	je	LBB117_35
Ltmp486:
	callq	__ZN4core3ptr13drop_in_place17h3087da7ef2274124E
Ltmp487:
	movq	80(%r15), %rdi
	movl	$104, %esi
	movl	$8, %edx
LBB117_34:
	popq	%rbx
	popq	%r12
	popq	%r14
	popq	%r15
	popq	%rbp
	jmp	___rust_dealloc
LBB117_35:
	popq	%rbx
	popq	%r12
	popq	%r14
	popq	%r15
	popq	%rbp
	retq
LBB117_36:
Ltmp488:
	movq	%rax, %r14
	movq	80(%r15), %rdi
	callq	__ZN5alloc5alloc8box_free17hd946ac010d0783fbE
	movq	%r14, %rdi
	callq	__Unwind_Resume
	ud2
LBB117_38:
Ltmp471:
	movq	%rax, %r14
	.p2align	4, 0x90
LBB117_4:
	testq	%rbx, %rbx
	je	LBB117_14
	addq	$-120, %rbx
Ltmp472:
	movq	%r12, %rdi
	addq	$120, %r12
	callq	__ZN4core3ptr13drop_in_place17h69c8471b3538259dE
Ltmp473:
	jmp	LBB117_4
LBB117_13:
Ltmp474:
	movq	%rax, %r14
LBB117_14:
	movq	8(%r15), %rdi
	movq	16(%r15), %rsi
	callq	__ZN4core3ptr13drop_in_place17h2370988de66c3054E
	leaq	32(%r15), %rdi
Ltmp475:
	callq	__ZN4core3ptr13drop_in_place17h1fd25e76c3bc6a20E
Ltmp476:
LBB117_16:
	addq	$56, %r15
	movq	%r15, %rdi
	callq	__ZN4core3ptr13drop_in_place17h34270e03c18c94f6E
	movq	%r14, %rdi
	callq	__Unwind_Resume
	ud2
LBB117_15:
Ltmp479:
	movq	%rax, %r14
	jmp	LBB117_16
LBB117_39:
Ltmp482:
	movq	%rax, %r14
	.p2align	4, 0x90
LBB117_18:
	testq	%rbx, %rbx
	je	LBB117_29
	addq	$-112, %rbx
Ltmp483:
	movq	%r12, %rdi
	addq	$112, %r12
	callq	__ZN4core3ptr13drop_in_place17h9b40471bcf5f1174E
Ltmp484:
	jmp	LBB117_18
LBB117_28:
Ltmp485:
	movq	%rax, %r14
LBB117_29:
	movq	56(%r15), %rdi
	movq	64(%r15), %rsi
	callq	__ZN4core3ptr13drop_in_place17h9989c93b8e589b61E
	addq	$80, %r15
	movq	%r15, %rdi
	callq	__ZN4core3ptr13drop_in_place17h1977e1a3775e52fcE
	movq	%r14, %rdi
	callq	__Unwind_Resume
	ud2
Lfunc_end37:
	.cfi_endproc
	.section	__TEXT,__gcc_except_tab
	.p2align	2
GCC_except_table117:
Lexception37:
	.byte	255
	.byte	255
	.byte	1
	.uleb128 Lcst_end37-Lcst_begin37
Lcst_begin37:
	.uleb128 Ltmp469-Lfunc_begin37
	.uleb128 Ltmp470-Ltmp469
	.uleb128 Ltmp471-Lfunc_begin37
	.byte	0
	.uleb128 Ltmp477-Lfunc_begin37
	.uleb128 Ltmp478-Ltmp477
	.uleb128 Ltmp479-Lfunc_begin37
	.byte	0
	.uleb128 Ltmp480-Lfunc_begin37
	.uleb128 Ltmp481-Ltmp480
	.uleb128 Ltmp482-Lfunc_begin37
	.byte	0
	.uleb128 Ltmp486-Lfunc_begin37
	.uleb128 Ltmp487-Ltmp486
	.uleb128 Ltmp488-Lfunc_begin37
	.byte	0
	.uleb128 Ltmp487-Lfunc_begin37
	.uleb128 Ltmp472-Ltmp487
	.byte	0
	.byte	0
	.uleb128 Ltmp472-Lfunc_begin37
	.uleb128 Ltmp473-Ltmp472
	.uleb128 Ltmp474-Lfunc_begin37
	.byte	0
	.uleb128 Ltmp475-Lfunc_begin37
	.uleb128 Ltmp476-Ltmp475
	.uleb128 Ltmp479-Lfunc_begin37
	.byte	0
	.uleb128 Ltmp476-Lfunc_begin37
	.uleb128 Ltmp483-Ltmp476
	.byte	0
	.byte	0
	.uleb128 Ltmp483-Lfunc_begin37
	.uleb128 Ltmp484-Ltmp483
	.uleb128 Ltmp485-Lfunc_begin37
	.byte	0
	.uleb128 Ltmp484-Lfunc_begin37
	.uleb128 Lfunc_end37-Ltmp484
	.byte	0
	.byte	0
Lcst_end37:
	.p2align	2

	.section	__TEXT,__text,regular,pure_instructions
	.p2align	4, 0x90
__ZN4core3ptr13drop_in_place17h79af60a7ad3f3033E:
	.cfi_startproc
	pushq	%rbp
	.cfi_def_cfa_offset 16
	.cfi_offset %rbp, -16
	movq	%rsp, %rbp
	.cfi_def_cfa_register %rbp
	popq	%rbp
	jmp	__ZN4core3ptr13drop_in_place17hd3c7b7f1bcff3130E
	.cfi_endproc

	.p2align	4, 0x90
__ZN4core3ptr13drop_in_place17h7be3b27f69cc22eaE:
Lfunc_begin38:
	.cfi_startproc
	.cfi_personality 155, _rust_eh_personality
	.cfi_lsda 16, Lexception38
	pushq	%rbp
	.cfi_def_cfa_offset 16
	.cfi_offset %rbp, -16
	movq	%rsp, %rbp
	.cfi_def_cfa_register %rbp
	pushq	%r15
	pushq	%r14
	pushq	%rbx
	pushq	%rax
	.cfi_offset %rbx, -40
	.cfi_offset %r14, -32
	.cfi_offset %r15, -24
	movq	%rdi, %r14
	movq	(%rdi), %rbx
	cmpl	$0, (%rbx)
	je	LBB119_1
	movq	8(%rbx), %rdi
	testq	%rdi, %rdi
	je	LBB119_5
	movq	16(%rbx), %rsi
	testq	%rsi, %rsi
	je	LBB119_5
	movl	$1, %edx
	callq	___rust_dealloc
	movq	40(%rbx), %rsi
	testq	%rsi, %rsi
	jne	LBB119_6
	jmp	LBB119_7
LBB119_1:
	leaq	4(%rbx), %rdi
Ltmp489:
	callq	__ZN77_$LT$proc_macro..bridge..client..Literal$u20$as$u20$core..ops..drop..Drop$GT$4drop17he2aea19d6a82f53dE
Ltmp490:
LBB119_5:
	movq	40(%rbx), %rsi
	testq	%rsi, %rsi
	je	LBB119_7
LBB119_6:
	movq	32(%rbx), %rdi
	movl	$1, %edx
	callq	___rust_dealloc
LBB119_7:
	movq	(%r14), %rdi
	movl	$48, %esi
	movl	$8, %edx
	addq	$8, %rsp
	popq	%rbx
	popq	%r14
	popq	%r15
	popq	%rbp
	jmp	___rust_dealloc
LBB119_8:
Ltmp491:
	movq	%rax, %r15
	addq	$32, %rbx
	movq	%rbx, %rdi
	callq	__ZN4core3ptr13drop_in_place17h8d6b0d58785539efE
	movq	(%r14), %rdi
	callq	__ZN5alloc5alloc8box_free17h36e5c5eb09465d1fE
	movq	%r15, %rdi
	callq	__Unwind_Resume
	ud2
Lfunc_end38:
	.cfi_endproc
	.section	__TEXT,__gcc_except_tab
	.p2align	2
GCC_except_table119:
Lexception38:
	.byte	255
	.byte	255
	.byte	1
	.uleb128 Lcst_end38-Lcst_begin38
Lcst_begin38:
	.uleb128 Ltmp489-Lfunc_begin38
	.uleb128 Ltmp490-Ltmp489
	.uleb128 Ltmp491-Lfunc_begin38
	.byte	0
	.uleb128 Ltmp490-Lfunc_begin38
	.uleb128 Lfunc_end38-Ltmp490
	.byte	0
	.byte	0
Lcst_end38:
	.p2align	2

	.section	__TEXT,__text,regular,pure_instructions
	.p2align	4, 0x90
__ZN4core3ptr13drop_in_place17h87b4446d0ecbcd16E:
Lfunc_begin39:
	.cfi_startproc
	.cfi_personality 155, _rust_eh_personality
	.cfi_lsda 16, Lexception39
	pushq	%rbp
	.cfi_def_cfa_offset 16
	.cfi_offset %rbp, -16
	movq	%rsp, %rbp
	.cfi_def_cfa_register %rbp
	pushq	%r15
	pushq	%r14
	pushq	%r12
	pushq	%rbx
	.cfi_offset %rbx, -48
	.cfi_offset %r12, -40
	.cfi_offset %r14, -32
	.cfi_offset %r15, -24
	movq	%rdi, %r14
	movq	(%rdi), %r12
	imulq	$248, 16(%rdi), %rbx
	.p2align	4, 0x90
LBB120_4:
	testq	%rbx, %rbx
	je	LBB120_5
	addq	$-248, %rbx
Ltmp492:
	movq	%r12, %rdi
	addq	$248, %r12
	callq	__ZN4core3ptr13drop_in_place17hfc462ea42a0b8b35E
Ltmp493:
	jmp	LBB120_4
LBB120_5:
	movq	8(%r14), %rax
	testq	%rax, %rax
	je	LBB120_8
	movq	(%r14), %rdi
	testq	%rdi, %rdi
	je	LBB120_8
	imulq	$248, %rax, %rsi
	testq	%rsi, %rsi
	je	LBB120_8
	movl	$8, %edx
	popq	%rbx
	popq	%r12
	popq	%r14
	popq	%r15
	popq	%rbp
	jmp	___rust_dealloc
LBB120_8:
	popq	%rbx
	popq	%r12
	popq	%r14
	popq	%r15
	popq	%rbp
	retq
LBB120_11:
Ltmp494:
	movq	%rax, %r15
	.p2align	4, 0x90
LBB120_2:
	testq	%rbx, %rbx
	je	LBB120_10
	addq	$-248, %rbx
Ltmp495:
	movq	%r12, %rdi
	addq	$248, %r12
	callq	__ZN4core3ptr13drop_in_place17h7441cb778749b635E
Ltmp496:
	jmp	LBB120_2
LBB120_9:
Ltmp497:
	movq	%rax, %r15
LBB120_10:
	movq	(%r14), %rdi
	movq	8(%r14), %rsi
	callq	__ZN4core3ptr13drop_in_place17hc44b7eec31c11c52E
	movq	%r15, %rdi
	callq	__Unwind_Resume
	ud2
Lfunc_end39:
	.cfi_endproc
	.section	__TEXT,__gcc_except_tab
	.p2align	2
GCC_except_table120:
Lexception39:
	.byte	255
	.byte	255
	.byte	1
	.uleb128 Lcst_end39-Lcst_begin39
Lcst_begin39:
	.uleb128 Ltmp492-Lfunc_begin39
	.uleb128 Ltmp493-Ltmp492
	.uleb128 Ltmp494-Lfunc_begin39
	.byte	0
	.uleb128 Ltmp495-Lfunc_begin39
	.uleb128 Ltmp496-Ltmp495
	.uleb128 Ltmp497-Lfunc_begin39
	.byte	0
	.uleb128 Ltmp496-Lfunc_begin39
	.uleb128 Lfunc_end39-Ltmp496
	.byte	0
	.byte	0
Lcst_end39:
	.p2align	2

	.section	__TEXT,__text,regular,pure_instructions
	.p2align	4, 0x90
__ZN4core3ptr13drop_in_place17h8994f9724edbb010E:
Lfunc_begin40:
	.cfi_startproc
	.cfi_personality 155, _rust_eh_personality
	.cfi_lsda 16, Lexception40
	pushq	%rbp
	.cfi_def_cfa_offset 16
	.cfi_offset %rbp, -16
	movq	%rsp, %rbp
	.cfi_def_cfa_register %rbp
	pushq	%r14
	pushq	%rbx
	.cfi_offset %rbx, -32
	.cfi_offset %r14, -24
	movq	%rdi, %rbx
	movq	(%rdi), %rdi
Ltmp498:
	callq	__ZN4core3ptr13drop_in_place17hf161d33ff50401f0E
Ltmp499:
	movq	(%rbx), %rdi
	movl	$184, %esi
	movl	$8, %edx
	popq	%rbx
	popq	%r14
	popq	%rbp
	jmp	___rust_dealloc
LBB121_2:
Ltmp500:
	movq	%rax, %r14
	movq	(%rbx), %rdi
	callq	__ZN5alloc5alloc8box_free17hfab518436e4c9d16E
	movq	%r14, %rdi
	callq	__Unwind_Resume
	ud2
Lfunc_end40:
	.cfi_endproc
	.section	__TEXT,__gcc_except_tab
	.p2align	2
GCC_except_table121:
Lexception40:
	.byte	255
	.byte	255
	.byte	1
	.uleb128 Lcst_end40-Lcst_begin40
Lcst_begin40:
	.uleb128 Ltmp498-Lfunc_begin40
	.uleb128 Ltmp499-Ltmp498
	.uleb128 Ltmp500-Lfunc_begin40
	.byte	0
	.uleb128 Ltmp499-Lfunc_begin40
	.uleb128 Lfunc_end40-Ltmp499
	.byte	0
	.byte	0
Lcst_end40:
	.p2align	2

	.section	__TEXT,__text,regular,pure_instructions
	.p2align	4, 0x90
__ZN4core3ptr13drop_in_place17h8d6b0d58785539efE:
	.cfi_startproc
	pushq	%rbp
	.cfi_def_cfa_offset 16
	.cfi_offset %rbp, -16
	movq	%rsp, %rbp
	.cfi_def_cfa_register %rbp
	movq	8(%rdi), %rsi
	testq	%rsi, %rsi
	je	LBB122_1
	movq	(%rdi), %rdi
	movl	$1, %edx
	popq	%rbp
	jmp	___rust_dealloc
LBB122_1:
	popq	%rbp
	retq
	.cfi_endproc

	.p2align	4, 0x90
__ZN4core3ptr13drop_in_place17h8ddae227ff45c6d5E:
	.cfi_startproc
	pushq	%rbp
	.cfi_def_cfa_offset 16
	.cfi_offset %rbp, -16
	movq	%rsp, %rbp
	.cfi_def_cfa_register %rbp
	movq	(%rdi), %rax
	movq	8(%rax), %rcx
	testq	%rcx, %rcx
	je	LBB123_2
	shlq	$4, %rcx
	leaq	(%rcx,%rcx,2), %rsi
	testq	%rsi, %rsi
	je	LBB123_2
	movq	(%rax), %rdi
	movl	$8, %edx
	popq	%rbp
	jmp	___rust_dealloc
LBB123_2:
	popq	%rbp
	retq
	.cfi_endproc

	.p2align	4, 0x90
__ZN4core3ptr13drop_in_place17h91df1ac22d461314E:
Lfunc_begin41:
	.cfi_startproc
	.cfi_personality 155, _rust_eh_personality
	.cfi_lsda 16, Lexception41
	pushq	%rbp
	.cfi_def_cfa_offset 16
	.cfi_offset %rbp, -16
	movq	%rsp, %rbp
	.cfi_def_cfa_register %rbp
	pushq	%r15
	pushq	%r14
	pushq	%r12
	pushq	%rbx
	.cfi_offset %rbx, -48
	.cfi_offset %r12, -40
	.cfi_offset %r14, -32
	.cfi_offset %r15, -24
	movq	%rdi, %r14
	movq	(%rdi), %r12
	imulq	$104, 16(%rdi), %rbx
	.p2align	4, 0x90
LBB124_4:
	testq	%rbx, %rbx
	je	LBB124_5
	addq	$-104, %rbx
Ltmp501:
	movq	%r12, %rdi
	addq	$104, %r12
	callq	__ZN4core3ptr13drop_in_place17h42f877d1ceb7cb9dE
Ltmp502:
	jmp	LBB124_4
LBB124_5:
	movq	8(%r14), %rax
	testq	%rax, %rax
	je	LBB124_8
	movq	(%r14), %rdi
	testq	%rdi, %rdi
	je	LBB124_8
	imulq	$104, %rax, %rsi
	testq	%rsi, %rsi
	je	LBB124_8
	movl	$8, %edx
	popq	%rbx
	popq	%r12
	popq	%r14
	popq	%r15
	popq	%rbp
	jmp	___rust_dealloc
LBB124_8:
	popq	%rbx
	popq	%r12
	popq	%r14
	popq	%r15
	popq	%rbp
	retq
LBB124_11:
Ltmp503:
	movq	%rax, %r15
	.p2align	4, 0x90
LBB124_2:
	testq	%rbx, %rbx
	je	LBB124_10
	addq	$-104, %rbx
Ltmp504:
	movq	%r12, %rdi
	addq	$104, %r12
	callq	__ZN4core3ptr13drop_in_place17h42f877d1ceb7cb9dE
Ltmp505:
	jmp	LBB124_2
LBB124_9:
Ltmp506:
	movq	%rax, %r15
LBB124_10:
	movq	(%r14), %rdi
	movq	8(%r14), %rsi
	callq	__ZN4core3ptr13drop_in_place17hfd19d49573e256e2E
	movq	%r15, %rdi
	callq	__Unwind_Resume
	ud2
Lfunc_end41:
	.cfi_endproc
	.section	__TEXT,__gcc_except_tab
	.p2align	2
GCC_except_table124:
Lexception41:
	.byte	255
	.byte	255
	.byte	1
	.uleb128 Lcst_end41-Lcst_begin41
Lcst_begin41:
	.uleb128 Ltmp501-Lfunc_begin41
	.uleb128 Ltmp502-Ltmp501
	.uleb128 Ltmp503-Lfunc_begin41
	.byte	0
	.uleb128 Ltmp504-Lfunc_begin41
	.uleb128 Ltmp505-Ltmp504
	.uleb128 Ltmp506-Lfunc_begin41
	.byte	0
	.uleb128 Ltmp505-Lfunc_begin41
	.uleb128 Lfunc_end41-Ltmp505
	.byte	0
	.byte	0
Lcst_end41:
	.p2align	2

	.section	__TEXT,__text,regular,pure_instructions
	.p2align	4, 0x90
__ZN4core3ptr13drop_in_place17h92637f67c28aab98E:
Lfunc_begin42:
	.cfi_startproc
	.cfi_personality 155, _rust_eh_personality
	.cfi_lsda 16, Lexception42
	pushq	%rbp
	.cfi_def_cfa_offset 16
	.cfi_offset %rbp, -16
	movq	%rsp, %rbp
	.cfi_def_cfa_register %rbp
	pushq	%r15
	pushq	%r14
	pushq	%r12
	pushq	%rbx
	.cfi_offset %rbx, -48
	.cfi_offset %r12, -40
	.cfi_offset %r14, -32
	.cfi_offset %r15, -24
	movq	%rdi, %r14
	movq	(%rdi), %rbx
	imulq	$392, 16(%rdi), %r12
	.p2align	4, 0x90
LBB125_5:
	testq	%r12, %r12
	je	LBB125_6
	addq	$-392, %r12
Ltmp507:
	movq	%rbx, %rdi
	addq	$392, %rbx
	callq	__ZN4core3ptr13drop_in_place17h3458d2d6706aebd4E
Ltmp508:
	jmp	LBB125_5
LBB125_6:
	movq	8(%r14), %rax
	testq	%rax, %rax
	je	LBB125_9
	movq	(%r14), %rdi
	testq	%rdi, %rdi
	je	LBB125_9
	imulq	$392, %rax, %rsi
	testq	%rsi, %rsi
	je	LBB125_9
	movl	$8, %edx
	popq	%rbx
	popq	%r12
	popq	%r14
	popq	%r15
	popq	%rbp
	jmp	___rust_dealloc
LBB125_9:
	popq	%rbx
	popq	%r12
	popq	%r14
	popq	%r15
	popq	%rbp
	retq
LBB125_1:
Ltmp509:
	movq	%rax, %r15
	testq	%r12, %r12
	je	LBB125_11
	.p2align	4, 0x90
LBB125_2:
Ltmp510:
	movq	%rbx, %rdi
	callq	__ZN4core3ptr13drop_in_place17h624a23237b2d9041E
Ltmp511:
	addq	$392, %rbx
	addq	$-392, %r12
	jne	LBB125_2
	jmp	LBB125_11
LBB125_10:
Ltmp512:
	movq	%rax, %r15
LBB125_11:
	movq	(%r14), %rdi
	movq	8(%r14), %rsi
	callq	__ZN4core3ptr13drop_in_place17h9b42934d29d4d7b4E
	movq	%r15, %rdi
	callq	__Unwind_Resume
	ud2
Lfunc_end42:
	.cfi_endproc
	.section	__TEXT,__gcc_except_tab
	.p2align	2
GCC_except_table125:
Lexception42:
	.byte	255
	.byte	255
	.byte	1
	.uleb128 Lcst_end42-Lcst_begin42
Lcst_begin42:
	.uleb128 Ltmp507-Lfunc_begin42
	.uleb128 Ltmp508-Ltmp507
	.uleb128 Ltmp509-Lfunc_begin42
	.byte	0
	.uleb128 Ltmp510-Lfunc_begin42
	.uleb128 Ltmp511-Ltmp510
	.uleb128 Ltmp512-Lfunc_begin42
	.byte	0
	.uleb128 Ltmp511-Lfunc_begin42
	.uleb128 Lfunc_end42-Ltmp511
	.byte	0
	.byte	0
Lcst_end42:
	.p2align	2

	.section	__TEXT,__text,regular,pure_instructions
	.p2align	4, 0x90
__ZN4core3ptr13drop_in_place17h93cdc8dc6eed4630E:
	.cfi_startproc
	pushq	%rbp
	.cfi_def_cfa_offset 16
	.cfi_offset %rbp, -16
	movq	%rsp, %rbp
	.cfi_def_cfa_register %rbp
	popq	%rbp
	jmp	__ZN4core3ptr13drop_in_place17h4c3b1fffec5b7a77E
	.cfi_endproc

	.p2align	4, 0x90
__ZN4core3ptr13drop_in_place17h94e3c837d9ad02b9E:
Lfunc_begin43:
	.cfi_startproc
	.cfi_personality 155, _rust_eh_personality
	.cfi_lsda 16, Lexception43
	pushq	%rbp
	.cfi_def_cfa_offset 16
	.cfi_offset %rbp, -16
	movq	%rsp, %rbp
	.cfi_def_cfa_register %rbp
	pushq	%r15
	pushq	%r14
	pushq	%r13
	pushq	%r12
	pushq	%rbx
	pushq	%rax
	.cfi_offset %rbx, -56
	.cfi_offset %r12, -48
	.cfi_offset %r13, -40
	.cfi_offset %r14, -32
	.cfi_offset %r15, -24
	movq	%rdi, %r14
	movq	(%rdi), %r13
	movq	16(%rdi), %r12
	testq	%r12, %r12
	je	LBB127_10
	shlq	$3, %r12
	xorl	%ebx, %ebx
	movl	(%r13,%rbx), %eax
	leaq	-1(%rax), %rcx
	cmpq	$2, %rcx
	jb	LBB127_8
	jmp	LBB127_3
	.p2align	4, 0x90
LBB127_7:
Ltmp515:
	callq	__ZN77_$LT$proc_macro..bridge..client..Literal$u20$as$u20$core..ops..drop..Drop$GT$4drop17he2aea19d6a82f53dE
Ltmp516:
LBB127_8:
	addq	$8, %rbx
	cmpq	%rbx, %r12
	je	LBB127_9
	movl	(%r13,%rbx), %eax
	leaq	-1(%rax), %rcx
	cmpq	$2, %rcx
	jb	LBB127_8
LBB127_3:
	leaq	(%rbx,%r13), %rdi
	addq	$4, %rdi
	testq	%rax, %rax
	jne	LBB127_7
Ltmp513:
	callq	__ZN75_$LT$proc_macro..bridge..client..Group$u20$as$u20$core..ops..drop..Drop$GT$4drop17he3c88ef672dde681E
Ltmp514:
	jmp	LBB127_8
LBB127_9:
	movq	(%r14), %r13
LBB127_10:
	movq	8(%r14), %rsi
	testq	%rsi, %rsi
	je	LBB127_16
	testq	%r13, %r13
	je	LBB127_16
	shlq	$3, %rsi
	testq	%rsi, %rsi
	je	LBB127_16
	movl	$4, %edx
	movq	%r13, %rdi
	addq	$8, %rsp
	popq	%rbx
	popq	%r12
	popq	%r13
	popq	%r14
	popq	%r15
	popq	%rbp
	jmp	___rust_dealloc
LBB127_16:
	addq	$8, %rsp
	popq	%rbx
	popq	%r12
	popq	%r13
	popq	%r14
	popq	%r15
	popq	%rbp
	retq
LBB127_14:
Ltmp517:
	movq	%rax, %r15
	leaq	-8(%r12), %rax
	cmpq	%rbx, %rax
	je	LBB127_18
	subq	%rbx, %r12
	addq	$-8, %r12
	addq	%r13, %rbx
	addq	$8, %rbx
	.p2align	4, 0x90
LBB127_5:
Ltmp518:
	movq	%rbx, %rdi
	callq	__ZN4core3ptr13drop_in_place17h50b283e91567e0c0E
Ltmp519:
	addq	$8, %rbx
	addq	$-8, %r12
	jne	LBB127_5
	jmp	LBB127_18
LBB127_17:
Ltmp520:
	movq	%rax, %r15
LBB127_18:
	movq	(%r14), %rdi
	movq	8(%r14), %rsi
	callq	__ZN4core3ptr13drop_in_place17h4206e1544b32d1a8E
	movq	%r15, %rdi
	callq	__Unwind_Resume
	ud2
Lfunc_end43:
	.cfi_endproc
	.section	__TEXT,__gcc_except_tab
	.p2align	2
GCC_except_table127:
Lexception43:
	.byte	255
	.byte	255
	.byte	1
	.uleb128 Lcst_end43-Lcst_begin43
Lcst_begin43:
	.uleb128 Ltmp515-Lfunc_begin43
	.uleb128 Ltmp514-Ltmp515
	.uleb128 Ltmp517-Lfunc_begin43
	.byte	0
	.uleb128 Ltmp518-Lfunc_begin43
	.uleb128 Ltmp519-Ltmp518
	.uleb128 Ltmp520-Lfunc_begin43
	.byte	0
	.uleb128 Ltmp519-Lfunc_begin43
	.uleb128 Lfunc_end43-Ltmp519
	.byte	0
	.byte	0
Lcst_end43:
	.p2align	2

	.section	__TEXT,__text,regular,pure_instructions
	.p2align	4, 0x90
__ZN4core3ptr13drop_in_place17h959f7ad790b7841aE:
	.cfi_startproc
	pushq	%rbp
	.cfi_def_cfa_offset 16
	.cfi_offset %rbp, -16
	movq	%rsp, %rbp
	.cfi_def_cfa_register %rbp
	cmpl	$0, (%rdi)
	je	LBB128_1
	addq	$8, %rdi
	popq	%rbp
	jmp	__ZN4core3ptr13drop_in_place17hba372edf174587bdE
LBB128_1:
	addq	$4, %rdi
	popq	%rbp
	jmp	__ZN75_$LT$proc_macro..bridge..client..Group$u20$as$u20$core..ops..drop..Drop$GT$4drop17he3c88ef672dde681E
	.cfi_endproc

	.p2align	4, 0x90
__ZN4core3ptr13drop_in_place17h9989c93b8e589b61E:
	.cfi_startproc
	pushq	%rbp
	.cfi_def_cfa_offset 16
	.cfi_offset %rbp, -16
	movq	%rsp, %rbp
	.cfi_def_cfa_register %rbp
	testq	%rsi, %rsi
	je	LBB129_3
	testq	%rdi, %rdi
	je	LBB129_3
	imulq	$112, %rsi, %rsi
	testq	%rsi, %rsi
	je	LBB129_3
	movl	$8, %edx
	popq	%rbp
	jmp	___rust_dealloc
LBB129_3:
	popq	%rbp
	retq
	.cfi_endproc

	.p2align	4, 0x90
__ZN4core3ptr13drop_in_place17h999a77907af9174cE:
Lfunc_begin44:
	.cfi_startproc
	.cfi_personality 155, _rust_eh_personality
	.cfi_lsda 16, Lexception44
	pushq	%rbp
	.cfi_def_cfa_offset 16
	.cfi_offset %rbp, -16
	movq	%rsp, %rbp
	.cfi_def_cfa_register %rbp
	pushq	%r15
	pushq	%r14
	pushq	%r12
	pushq	%rbx
	.cfi_offset %rbx, -48
	.cfi_offset %r12, -40
	.cfi_offset %r14, -32
	.cfi_offset %r15, -24
	movq	%rdi, %r14
	movq	(%rdi), %rbx
	movq	16(%rdi), %rax
	shlq	$7, %rax
	leaq	(%rax,%rax,2), %r12
	.p2align	4, 0x90
LBB130_5:
	testq	%r12, %r12
	je	LBB130_6
	addq	$-384, %r12
Ltmp521:
	movq	%rbx, %rdi
	addq	$384, %rbx
	callq	__ZN4core3ptr13drop_in_place17h6cd689ac8fc3fb28E
Ltmp522:
	jmp	LBB130_5
LBB130_6:
	movq	8(%r14), %rax
	testq	%rax, %rax
	je	LBB130_9
	movq	(%r14), %rdi
	testq	%rdi, %rdi
	je	LBB130_9
	shlq	$7, %rax
	leaq	(%rax,%rax,2), %rsi
	testq	%rsi, %rsi
	je	LBB130_9
	movl	$8, %edx
	popq	%rbx
	popq	%r12
	popq	%r14
	popq	%r15
	popq	%rbp
	jmp	___rust_dealloc
LBB130_9:
	popq	%rbx
	popq	%r12
	popq	%r14
	popq	%r15
	popq	%rbp
	retq
LBB130_1:
Ltmp523:
	movq	%rax, %r15
	testq	%r12, %r12
	je	LBB130_11
	.p2align	4, 0x90
LBB130_2:
Ltmp524:
	movq	%rbx, %rdi
	callq	__ZN4core3ptr13drop_in_place17h6cd689ac8fc3fb28E
Ltmp525:
	addq	$384, %rbx
	addq	$-384, %r12
	jne	LBB130_2
	jmp	LBB130_11
LBB130_10:
Ltmp526:
	movq	%rax, %r15
LBB130_11:
	movq	(%r14), %rdi
	movq	8(%r14), %rsi
	callq	__ZN4core3ptr13drop_in_place17h003e9b8442192021E
	movq	%r15, %rdi
	callq	__Unwind_Resume
	ud2
Lfunc_end44:
	.cfi_endproc
	.section	__TEXT,__gcc_except_tab
	.p2align	2
GCC_except_table130:
Lexception44:
	.byte	255
	.byte	255
	.byte	1
	.uleb128 Lcst_end44-Lcst_begin44
Lcst_begin44:
	.uleb128 Ltmp521-Lfunc_begin44
	.uleb128 Ltmp522-Ltmp521
	.uleb128 Ltmp523-Lfunc_begin44
	.byte	0
	.uleb128 Ltmp524-Lfunc_begin44
	.uleb128 Ltmp525-Ltmp524
	.uleb128 Ltmp526-Lfunc_begin44
	.byte	0
	.uleb128 Ltmp525-Lfunc_begin44
	.uleb128 Lfunc_end44-Ltmp525
	.byte	0
	.byte	0
Lcst_end44:
	.p2align	2

	.section	__TEXT,__text,regular,pure_instructions
	.p2align	4, 0x90
__ZN4core3ptr13drop_in_place17h9a40b786904c78ddE:
Lfunc_begin45:
	.cfi_startproc
	.cfi_personality 155, _rust_eh_personality
	.cfi_lsda 16, Lexception45
	pushq	%rbp
	.cfi_def_cfa_offset 16
	.cfi_offset %rbp, -16
	movq	%rsp, %rbp
	.cfi_def_cfa_register %rbp
	pushq	%r15
	pushq	%r14
	pushq	%r12
	pushq	%rbx
	.cfi_offset %rbx, -48
	.cfi_offset %r12, -40
	.cfi_offset %r14, -32
	.cfi_offset %r15, -24
	movq	(%rdi), %rbx
	testq	%rbx, %rbx
	je	LBB131_18
	movq	%rdi, %r15
	imulq	$392, 16(%rdi), %r12
	.p2align	4, 0x90
LBB131_6:
	testq	%r12, %r12
	je	LBB131_7
	addq	$-392, %r12
Ltmp527:
	movq	%rbx, %rdi
	addq	$392, %rbx
	callq	__ZN4core3ptr13drop_in_place17h3458d2d6706aebd4E
Ltmp528:
	jmp	LBB131_6
LBB131_7:
	movq	8(%r15), %rax
	testq	%rax, %rax
	je	LBB131_11
	movq	(%r15), %rdi
	testq	%rdi, %rdi
	je	LBB131_11
	imulq	$392, %rax, %rsi
	testq	%rsi, %rsi
	je	LBB131_11
	movl	$8, %edx
	callq	___rust_dealloc
LBB131_11:
	movq	24(%r15), %rdi
	testq	%rdi, %rdi
	je	LBB131_18
Ltmp533:
	callq	__ZN4core3ptr13drop_in_place17h3458d2d6706aebd4E
Ltmp534:
	movq	24(%r15), %rdi
	movl	$384, %esi
	movl	$8, %edx
	popq	%rbx
	popq	%r12
	popq	%r14
	popq	%r15
	popq	%rbp
	jmp	___rust_dealloc
LBB131_18:
	popq	%rbx
	popq	%r12
	popq	%r14
	popq	%r15
	popq	%rbp
	retq
LBB131_16:
Ltmp535:
	movq	%rax, %r14
	movq	24(%r15), %rdi
	callq	__ZN5alloc5alloc8box_free17h7aee8bfb15c768c7E
	movq	%r14, %rdi
	callq	__Unwind_Resume
	ud2
LBB131_2:
Ltmp529:
	movq	%rax, %r14
	testq	%r12, %r12
	je	LBB131_15
	.p2align	4, 0x90
LBB131_3:
Ltmp530:
	movq	%rbx, %rdi
	callq	__ZN4core3ptr13drop_in_place17h624a23237b2d9041E
Ltmp531:
	addq	$392, %rbx
	addq	$-392, %r12
	jne	LBB131_3
	jmp	LBB131_15
LBB131_14:
Ltmp532:
	movq	%rax, %r14
LBB131_15:
	movq	(%r15), %rdi
	movq	8(%r15), %rsi
	callq	__ZN4core3ptr13drop_in_place17h9b42934d29d4d7b4E
	addq	$24, %r15
	movq	%r15, %rdi
	callq	__ZN4core3ptr13drop_in_place17h16d3ed2d1b31f362E
	movq	%r14, %rdi
	callq	__Unwind_Resume
	ud2
Lfunc_end45:
	.cfi_endproc
	.section	__TEXT,__gcc_except_tab
	.p2align	2
GCC_except_table131:
Lexception45:
	.byte	255
	.byte	255
	.byte	1
	.uleb128 Lcst_end45-Lcst_begin45
Lcst_begin45:
	.uleb128 Ltmp527-Lfunc_begin45
	.uleb128 Ltmp528-Ltmp527
	.uleb128 Ltmp529-Lfunc_begin45
	.byte	0
	.uleb128 Ltmp533-Lfunc_begin45
	.uleb128 Ltmp534-Ltmp533
	.uleb128 Ltmp535-Lfunc_begin45
	.byte	0
	.uleb128 Ltmp534-Lfunc_begin45
	.uleb128 Ltmp530-Ltmp534
	.byte	0
	.byte	0
	.uleb128 Ltmp530-Lfunc_begin45
	.uleb128 Ltmp531-Ltmp530
	.uleb128 Ltmp532-Lfunc_begin45
	.byte	0
	.uleb128 Ltmp531-Lfunc_begin45
	.uleb128 Lfunc_end45-Ltmp531
	.byte	0
	.byte	0
Lcst_end45:
	.p2align	2

	.section	__TEXT,__text,regular,pure_instructions
	.p2align	4, 0x90
__ZN4core3ptr13drop_in_place17h9b40471bcf5f1174E:
	.cfi_startproc
	pushq	%rbp
	.cfi_def_cfa_offset 16
	.cfi_offset %rbp, -16
	movq	%rsp, %rbp
	.cfi_def_cfa_register %rbp
	popq	%rbp
	jmp	__ZN4core3ptr13drop_in_place17h3087da7ef2274124E
	.cfi_endproc

	.p2align	4, 0x90
__ZN4core3ptr13drop_in_place17h9b42934d29d4d7b4E:
	.cfi_startproc
	pushq	%rbp
	.cfi_def_cfa_offset 16
	.cfi_offset %rbp, -16
	movq	%rsp, %rbp
	.cfi_def_cfa_register %rbp
	testq	%rsi, %rsi
	je	LBB133_3
	testq	%rdi, %rdi
	je	LBB133_3
	imulq	$392, %rsi, %rsi
	testq	%rsi, %rsi
	je	LBB133_3
	movl	$8, %edx
	popq	%rbp
	jmp	___rust_dealloc
LBB133_3:
	popq	%rbp
	retq
	.cfi_endproc

	.p2align	4, 0x90
__ZN4core3ptr13drop_in_place17ha0321728cc8a1039E:
Lfunc_begin46:
	.cfi_startproc
	.cfi_personality 155, _rust_eh_personality
	.cfi_lsda 16, Lexception46
	pushq	%rbp
	.cfi_def_cfa_offset 16
	.cfi_offset %rbp, -16
	movq	%rsp, %rbp
	.cfi_def_cfa_register %rbp
	pushq	%r14
	pushq	%rbx
	.cfi_offset %rbx, -32
	.cfi_offset %r14, -24
	movq	%rdi, %rbx
	movq	(%rdi), %rdi
	testq	%rdi, %rdi
	je	LBB134_3
Ltmp536:
	callq	__ZN4core3ptr13drop_in_place17hfc462ea42a0b8b35E
Ltmp537:
	movq	(%rbx), %rdi
	movl	$240, %esi
	movl	$8, %edx
	popq	%rbx
	popq	%r14
	popq	%rbp
	jmp	___rust_dealloc
LBB134_3:
	popq	%rbx
	popq	%r14
	popq	%rbp
	retq
LBB134_4:
Ltmp538:
	movq	%rax, %r14
	movq	(%rbx), %rdi
	callq	__ZN5alloc5alloc8box_free17h78caf3d7f62faf86E
	movq	%r14, %rdi
	callq	__Unwind_Resume
	ud2
Lfunc_end46:
	.cfi_endproc
	.section	__TEXT,__gcc_except_tab
	.p2align	2
GCC_except_table134:
Lexception46:
	.byte	255
	.byte	255
	.byte	1
	.uleb128 Lcst_end46-Lcst_begin46
Lcst_begin46:
	.uleb128 Ltmp536-Lfunc_begin46
	.uleb128 Ltmp537-Ltmp536
	.uleb128 Ltmp538-Lfunc_begin46
	.byte	0
	.uleb128 Ltmp537-Lfunc_begin46
	.uleb128 Lfunc_end46-Ltmp537
	.byte	0
	.byte	0
Lcst_end46:
	.p2align	2

	.section	__TEXT,__text,regular,pure_instructions
	.p2align	4, 0x90
__ZN4core3ptr13drop_in_place17ha0d162522919c7eaE:
Lfunc_begin47:
	.cfi_startproc
	.cfi_personality 155, _rust_eh_personality
	.cfi_lsda 16, Lexception47
	pushq	%rbp
	.cfi_def_cfa_offset 16
	.cfi_offset %rbp, -16
	movq	%rsp, %rbp
	.cfi_def_cfa_register %rbp
	pushq	%r14
	pushq	%rbx
	.cfi_offset %rbx, -32
	.cfi_offset %r14, -24
	movq	%rdi, %rbx
	movq	(%rdi), %rdi
	testq	%rdi, %rdi
	je	LBB135_3
Ltmp539:
	callq	__ZN4core3ptr13drop_in_place17h6cd689ac8fc3fb28E
Ltmp540:
	movq	(%rbx), %rdi
	movl	$384, %esi
	movl	$8, %edx
	popq	%rbx
	popq	%r14
	popq	%rbp
	jmp	___rust_dealloc
LBB135_3:
	popq	%rbx
	popq	%r14
	popq	%rbp
	retq
LBB135_4:
Ltmp541:
	movq	%rax, %r14
	movq	(%rbx), %rdi
	callq	__ZN5alloc5alloc8box_free17h7aee8bfb15c768c7E
	movq	%r14, %rdi
	callq	__Unwind_Resume
	ud2
Lfunc_end47:
	.cfi_endproc
	.section	__TEXT,__gcc_except_tab
	.p2align	2
GCC_except_table135:
Lexception47:
	.byte	255
	.byte	255
	.byte	1
	.uleb128 Lcst_end47-Lcst_begin47
Lcst_begin47:
	.uleb128 Ltmp539-Lfunc_begin47
	.uleb128 Ltmp540-Ltmp539
	.uleb128 Ltmp541-Lfunc_begin47
	.byte	0
	.uleb128 Ltmp540-Lfunc_begin47
	.uleb128 Lfunc_end47-Ltmp540
	.byte	0
	.byte	0
Lcst_end47:
	.p2align	2

	.section	__TEXT,__text,regular,pure_instructions
	.p2align	4, 0x90
__ZN4core3ptr13drop_in_place17ha1a05efe22b13fd6E:
Lfunc_begin48:
	.cfi_startproc
	.cfi_personality 155, _rust_eh_personality
	.cfi_lsda 16, Lexception48
	pushq	%rbp
	.cfi_def_cfa_offset 16
	.cfi_offset %rbp, -16
	movq	%rsp, %rbp
	.cfi_def_cfa_register %rbp
	pushq	%r15
	pushq	%r14
	pushq	%r12
	pushq	%rbx
	.cfi_offset %rbx, -48
	.cfi_offset %r12, -40
	.cfi_offset %r14, -32
	.cfi_offset %r15, -24
	movq	%rdi, %r14
	movq	(%rdi), %r12
	imulq	$112, 16(%rdi), %rbx
	.p2align	4, 0x90
LBB136_4:
	testq	%rbx, %rbx
	je	LBB136_5
	addq	$-112, %rbx
Ltmp542:
	movq	%r12, %rdi
	addq	$112, %r12
	callq	__ZN4core3ptr13drop_in_place17h3087da7ef2274124E
Ltmp543:
	jmp	LBB136_4
LBB136_5:
	movq	8(%r14), %rax
	testq	%rax, %rax
	je	LBB136_8
	movq	(%r14), %rdi
	testq	%rdi, %rdi
	je	LBB136_8
	imulq	$112, %rax, %rsi
	testq	%rsi, %rsi
	je	LBB136_8
	movl	$8, %edx
	popq	%rbx
	popq	%r12
	popq	%r14
	popq	%r15
	popq	%rbp
	jmp	___rust_dealloc
LBB136_8:
	popq	%rbx
	popq	%r12
	popq	%r14
	popq	%r15
	popq	%rbp
	retq
LBB136_11:
Ltmp544:
	movq	%rax, %r15
	.p2align	4, 0x90
LBB136_2:
	testq	%rbx, %rbx
	je	LBB136_10
	addq	$-112, %rbx
Ltmp545:
	movq	%r12, %rdi
	addq	$112, %r12
	callq	__ZN4core3ptr13drop_in_place17h9b40471bcf5f1174E
Ltmp546:
	jmp	LBB136_2
LBB136_9:
Ltmp547:
	movq	%rax, %r15
LBB136_10:
	movq	(%r14), %rdi
	movq	8(%r14), %rsi
	callq	__ZN4core3ptr13drop_in_place17h9989c93b8e589b61E
	movq	%r15, %rdi
	callq	__Unwind_Resume
	ud2
Lfunc_end48:
	.cfi_endproc
	.section	__TEXT,__gcc_except_tab
	.p2align	2
GCC_except_table136:
Lexception48:
	.byte	255
	.byte	255
	.byte	1
	.uleb128 Lcst_end48-Lcst_begin48
Lcst_begin48:
	.uleb128 Ltmp542-Lfunc_begin48
	.uleb128 Ltmp543-Ltmp542
	.uleb128 Ltmp544-Lfunc_begin48
	.byte	0
	.uleb128 Ltmp545-Lfunc_begin48
	.uleb128 Ltmp546-Ltmp545
	.uleb128 Ltmp547-Lfunc_begin48
	.byte	0
	.uleb128 Ltmp546-Lfunc_begin48
	.uleb128 Lfunc_end48-Ltmp546
	.byte	0
	.byte	0
Lcst_end48:
	.p2align	2

	.section	__TEXT,__text,regular,pure_instructions
	.p2align	4, 0x90
__ZN4core3ptr13drop_in_place17ha1cf930dd229cd12E:
	.cfi_startproc
	pushq	%rbp
	.cfi_def_cfa_offset 16
	.cfi_offset %rbp, -16
	movq	%rsp, %rbp
	.cfi_def_cfa_register %rbp
	cmpl	$0, (%rdi)
	je	LBB137_1
LBB137_4:
	popq	%rbp
	retq
LBB137_1:
	cmpl	$0, 8(%rdi)
	je	LBB137_4
	movq	16(%rdi), %rax
	testq	%rax, %rax
	je	LBB137_4
	movq	24(%rdi), %rsi
	testq	%rsi, %rsi
	je	LBB137_4
	movl	$1, %edx
	movq	%rax, %rdi
	popq	%rbp
	jmp	___rust_dealloc
	.cfi_endproc

	.p2align	4, 0x90
__ZN4core3ptr13drop_in_place17hb0c12811f381850eE:
	.cfi_startproc
	pushq	%rbp
	.cfi_def_cfa_offset 16
	.cfi_offset %rbp, -16
	movq	%rsp, %rbp
	.cfi_def_cfa_register %rbp
	testq	%rsi, %rsi
	je	LBB138_3
	testq	%rdi, %rdi
	je	LBB138_3
	imulq	$88, %rsi, %rsi
	testq	%rsi, %rsi
	je	LBB138_3
	movl	$8, %edx
	popq	%rbp
	jmp	___rust_dealloc
LBB138_3:
	popq	%rbp
	retq
	.cfi_endproc

	.p2align	4, 0x90
__ZN4core3ptr13drop_in_place17hba372edf174587bdE:
Lfunc_begin49:
	.cfi_startproc
	.cfi_personality 155, _rust_eh_personality
	.cfi_lsda 16, Lexception49
	pushq	%rbp
	.cfi_def_cfa_offset 16
	.cfi_offset %rbp, -16
	movq	%rsp, %rbp
	.cfi_def_cfa_register %rbp
	pushq	%r15
	pushq	%r14
	pushq	%r12
	pushq	%rbx
	.cfi_offset %rbx, -48
	.cfi_offset %r12, -40
	.cfi_offset %r14, -32
	.cfi_offset %r15, -24
	movq	%rdi, %r14
Ltmp548:
	callq	__ZN76_$LT$proc_macro2..fallback..TokenStream$u20$as$u20$core..ops..drop..Drop$GT$4drop17hd9190ec22163f7cbE
Ltmp549:
	movq	(%r14), %r12
	movq	16(%r14), %rax
	shlq	$4, %rax
	leaq	(%rax,%rax,2), %rbx
	.p2align	4, 0x90
LBB139_5:
	testq	%rbx, %rbx
	je	LBB139_6
	addq	$-48, %rbx
Ltmp551:
	movq	%r12, %rdi
	addq	$48, %r12
	callq	__ZN4core3ptr13drop_in_place17h3b0504de734257e5E
Ltmp552:
	jmp	LBB139_5
LBB139_6:
	movq	8(%r14), %rax
	testq	%rax, %rax
	je	LBB139_12
	movq	(%r14), %rdi
	testq	%rdi, %rdi
	je	LBB139_12
	shlq	$4, %rax
	leaq	(%rax,%rax,2), %rsi
	testq	%rsi, %rsi
	je	LBB139_12
	movl	$8, %edx
	popq	%rbx
	popq	%r12
	popq	%r14
	popq	%r15
	popq	%rbp
	jmp	___rust_dealloc
LBB139_12:
	popq	%rbx
	popq	%r12
	popq	%r14
	popq	%r15
	popq	%rbp
	retq
LBB139_13:
Ltmp550:
	movq	%rax, %r15
	movq	%r14, %rdi
	callq	__ZN4core3ptr13drop_in_place17h42864d7ad65f6937E
	movq	%r15, %rdi
	callq	__Unwind_Resume
	ud2
LBB139_15:
Ltmp553:
	movq	%rax, %r15
	.p2align	4, 0x90
LBB139_3:
	testq	%rbx, %rbx
	je	LBB139_11
	addq	$-48, %rbx
Ltmp554:
	movq	%r12, %rdi
	addq	$48, %r12
	callq	__ZN4core3ptr13drop_in_place17h3b0504de734257e5E
Ltmp555:
	jmp	LBB139_3
LBB139_10:
Ltmp556:
	movq	%rax, %r15
LBB139_11:
	movq	(%r14), %rdi
	movq	8(%r14), %rsi
	callq	__ZN4core3ptr13drop_in_place17h6d43e1ac3950e2a2E
	movq	%r15, %rdi
	callq	__Unwind_Resume
	ud2
Lfunc_end49:
	.cfi_endproc
	.section	__TEXT,__gcc_except_tab
	.p2align	2
GCC_except_table139:
Lexception49:
	.byte	255
	.byte	255
	.byte	1
	.uleb128 Lcst_end49-Lcst_begin49
Lcst_begin49:
	.uleb128 Ltmp548-Lfunc_begin49
	.uleb128 Ltmp549-Ltmp548
	.uleb128 Ltmp550-Lfunc_begin49
	.byte	0
	.uleb128 Ltmp551-Lfunc_begin49
	.uleb128 Ltmp552-Ltmp551
	.uleb128 Ltmp553-Lfunc_begin49
	.byte	0
	.uleb128 Ltmp552-Lfunc_begin49
	.uleb128 Ltmp554-Ltmp552
	.byte	0
	.byte	0
	.uleb128 Ltmp554-Lfunc_begin49
	.uleb128 Ltmp555-Ltmp554
	.uleb128 Ltmp556-Lfunc_begin49
	.byte	0
	.uleb128 Ltmp555-Lfunc_begin49
	.uleb128 Lfunc_end49-Ltmp555
	.byte	0
	.byte	0
Lcst_end49:
	.p2align	2

	.section	__TEXT,__text,regular,pure_instructions
	.p2align	4, 0x90
__ZN4core3ptr13drop_in_place17hba37cb38e4717ec7E:
	.cfi_startproc
	pushq	%rbp
	.cfi_def_cfa_offset 16
	.cfi_offset %rbp, -16
	movq	%rsp, %rbp
	.cfi_def_cfa_register %rbp
	movq	(%rdi), %rax
	lock		decq	(%rax)
	jne	LBB140_1
	##MEMBARRIER
	popq	%rbp
	jmp	__ZN5alloc4sync12Arc$LT$T$GT$9drop_slow17he00048d7a746e7b3E
LBB140_1:
	popq	%rbp
	retq
	.cfi_endproc

	.p2align	4, 0x90
__ZN4core3ptr13drop_in_place17hbf0d792685371aa7E:
Lfunc_begin50:
	.cfi_startproc
	.cfi_personality 155, _rust_eh_personality
	.cfi_lsda 16, Lexception50
	pushq	%rbp
	.cfi_def_cfa_offset 16
	.cfi_offset %rbp, -16
	movq	%rsp, %rbp
	.cfi_def_cfa_register %rbp
	pushq	%r15
	pushq	%r14
	pushq	%r12
	pushq	%rbx
	.cfi_offset %rbx, -48
	.cfi_offset %r12, -40
	.cfi_offset %r14, -32
	.cfi_offset %r15, -24
	movq	%rdi, %r14
	movq	(%rdi), %r12
	movq	16(%rdi), %rax
	shlq	$6, %rax
	leaq	(%rax,%rax,2), %rbx
	.p2align	4, 0x90
LBB141_4:
	testq	%rbx, %rbx
	je	LBB141_5
	addq	$-192, %rbx
Ltmp557:
	movq	%r12, %rdi
	addq	$192, %r12
	callq	__ZN4core3ptr13drop_in_place17hf161d33ff50401f0E
Ltmp558:
	jmp	LBB141_4
LBB141_5:
	movq	8(%r14), %rax
	testq	%rax, %rax
	je	LBB141_8
	movq	(%r14), %rdi
	testq	%rdi, %rdi
	je	LBB141_8
	shlq	$6, %rax
	leaq	(%rax,%rax,2), %rsi
	testq	%rsi, %rsi
	je	LBB141_8
	movl	$8, %edx
	popq	%rbx
	popq	%r12
	popq	%r14
	popq	%r15
	popq	%rbp
	jmp	___rust_dealloc
LBB141_8:
	popq	%rbx
	popq	%r12
	popq	%r14
	popq	%r15
	popq	%rbp
	retq
LBB141_11:
Ltmp559:
	movq	%rax, %r15
	.p2align	4, 0x90
LBB141_2:
	testq	%rbx, %rbx
	je	LBB141_10
	addq	$-192, %rbx
Ltmp560:
	movq	%r12, %rdi
	addq	$192, %r12
	callq	__ZN4core3ptr13drop_in_place17h6db7ce1b50ee1aa0E
Ltmp561:
	jmp	LBB141_2
LBB141_9:
Ltmp562:
	movq	%rax, %r15
LBB141_10:
	movq	(%r14), %rdi
	movq	8(%r14), %rsi
	callq	__ZN4core3ptr13drop_in_place17he4e3ab626b8184f3E
	movq	%r15, %rdi
	callq	__Unwind_Resume
	ud2
Lfunc_end50:
	.cfi_endproc
	.section	__TEXT,__gcc_except_tab
	.p2align	2
GCC_except_table141:
Lexception50:
	.byte	255
	.byte	255
	.byte	1
	.uleb128 Lcst_end50-Lcst_begin50
Lcst_begin50:
	.uleb128 Ltmp557-Lfunc_begin50
	.uleb128 Ltmp558-Ltmp557
	.uleb128 Ltmp559-Lfunc_begin50
	.byte	0
	.uleb128 Ltmp560-Lfunc_begin50
	.uleb128 Ltmp561-Ltmp560
	.uleb128 Ltmp562-Lfunc_begin50
	.byte	0
	.uleb128 Ltmp561-Lfunc_begin50
	.uleb128 Lfunc_end50-Ltmp561
	.byte	0
	.byte	0
Lcst_end50:
	.p2align	2

	.section	__TEXT,__text,regular,pure_instructions
	.p2align	4, 0x90
__ZN4core3ptr13drop_in_place17hc3641024c8be2426E:
Lfunc_begin51:
	.cfi_startproc
	.cfi_personality 155, _rust_eh_personality
	.cfi_lsda 16, Lexception51
	pushq	%rbp
	.cfi_def_cfa_offset 16
	.cfi_offset %rbp, -16
	movq	%rsp, %rbp
	.cfi_def_cfa_register %rbp
	pushq	%r15
	pushq	%r14
	pushq	%r12
	pushq	%rbx
	.cfi_offset %rbx, -48
	.cfi_offset %r12, -40
	.cfi_offset %r14, -32
	.cfi_offset %r15, -24
	movq	%rdi, %r15
	movq	(%rdi), %r12
	movq	16(%rdi), %rax
	shlq	$6, %rax
	leaq	(%rax,%rax,2), %rbx
	.p2align	4, 0x90
LBB142_4:
	testq	%rbx, %rbx
	je	LBB142_5
	addq	$-192, %rbx
Ltmp563:
	movq	%r12, %rdi
	addq	$192, %r12
	callq	__ZN4core3ptr13drop_in_place17hf161d33ff50401f0E
Ltmp564:
	jmp	LBB142_4
LBB142_5:
	movq	8(%r15), %rax
	testq	%rax, %rax
	je	LBB142_9
	movq	(%r15), %rdi
	testq	%rdi, %rdi
	je	LBB142_9
	shlq	$6, %rax
	leaq	(%rax,%rax,2), %rsi
	testq	%rsi, %rsi
	je	LBB142_9
	movl	$8, %edx
	callq	___rust_dealloc
LBB142_9:
	movq	24(%r15), %rdi
	testq	%rdi, %rdi
	je	LBB142_14
Ltmp569:
	callq	__ZN4core3ptr13drop_in_place17hf161d33ff50401f0E
Ltmp570:
	movq	24(%r15), %rdi
	movl	$184, %esi
	movl	$8, %edx
	popq	%rbx
	popq	%r12
	popq	%r14
	popq	%r15
	popq	%rbp
	jmp	___rust_dealloc
LBB142_14:
	popq	%rbx
	popq	%r12
	popq	%r14
	popq	%r15
	popq	%rbp
	retq
LBB142_15:
Ltmp571:
	movq	%rax, %r14
	movq	24(%r15), %rdi
	callq	__ZN5alloc5alloc8box_free17hfab518436e4c9d16E
	movq	%r14, %rdi
	callq	__Unwind_Resume
	ud2
LBB142_17:
Ltmp565:
	movq	%rax, %r14
	.p2align	4, 0x90
LBB142_2:
	testq	%rbx, %rbx
	je	LBB142_13
	addq	$-192, %rbx
Ltmp566:
	movq	%r12, %rdi
	addq	$192, %r12
	callq	__ZN4core3ptr13drop_in_place17h6db7ce1b50ee1aa0E
Ltmp567:
	jmp	LBB142_2
LBB142_12:
Ltmp568:
	movq	%rax, %r14
LBB142_13:
	movq	(%r15), %rdi
	movq	8(%r15), %rsi
	callq	__ZN4core3ptr13drop_in_place17he4e3ab626b8184f3E
	addq	$24, %r15
	movq	%r15, %rdi
	callq	__ZN4core3ptr13drop_in_place17hc5443812f3b3621eE
	movq	%r14, %rdi
	callq	__Unwind_Resume
	ud2
Lfunc_end51:
	.cfi_endproc
	.section	__TEXT,__gcc_except_tab
	.p2align	2
GCC_except_table142:
Lexception51:
	.byte	255
	.byte	255
	.byte	1
	.uleb128 Lcst_end51-Lcst_begin51
Lcst_begin51:
	.uleb128 Ltmp563-Lfunc_begin51
	.uleb128 Ltmp564-Ltmp563
	.uleb128 Ltmp565-Lfunc_begin51
	.byte	0
	.uleb128 Ltmp569-Lfunc_begin51
	.uleb128 Ltmp570-Ltmp569
	.uleb128 Ltmp571-Lfunc_begin51
	.byte	0
	.uleb128 Ltmp570-Lfunc_begin51
	.uleb128 Ltmp566-Ltmp570
	.byte	0
	.byte	0
	.uleb128 Ltmp566-Lfunc_begin51
	.uleb128 Ltmp567-Ltmp566
	.uleb128 Ltmp568-Lfunc_begin51
	.byte	0
	.uleb128 Ltmp567-Lfunc_begin51
	.uleb128 Lfunc_end51-Ltmp567
	.byte	0
	.byte	0
Lcst_end51:
	.p2align	2

	.section	__TEXT,__text,regular,pure_instructions
	.p2align	4, 0x90
__ZN4core3ptr13drop_in_place17hc44b7eec31c11c52E:
	.cfi_startproc
	pushq	%rbp
	.cfi_def_cfa_offset 16
	.cfi_offset %rbp, -16
	movq	%rsp, %rbp
	.cfi_def_cfa_register %rbp
	testq	%rsi, %rsi
	je	LBB143_3
	testq	%rdi, %rdi
	je	LBB143_3
	imulq	$248, %rsi, %rsi
	testq	%rsi, %rsi
	je	LBB143_3
	movl	$8, %edx
	popq	%rbp
	jmp	___rust_dealloc
LBB143_3:
	popq	%rbp
	retq
	.cfi_endproc

	.p2align	4, 0x90
__ZN4core3ptr13drop_in_place17hc5443812f3b3621eE:
Lfunc_begin52:
	.cfi_startproc
	.cfi_personality 155, _rust_eh_personality
	.cfi_lsda 16, Lexception52
	pushq	%rbp
	.cfi_def_cfa_offset 16
	.cfi_offset %rbp, -16
	movq	%rsp, %rbp
	.cfi_def_cfa_register %rbp
	pushq	%r14
	pushq	%rbx
	.cfi_offset %rbx, -32
	.cfi_offset %r14, -24
	movq	%rdi, %rbx
	movq	(%rdi), %rdi
	testq	%rdi, %rdi
	je	LBB144_3
Ltmp572:
	callq	__ZN4core3ptr13drop_in_place17hf161d33ff50401f0E
Ltmp573:
	movq	(%rbx), %rdi
	movl	$184, %esi
	movl	$8, %edx
	popq	%rbx
	popq	%r14
	popq	%rbp
	jmp	___rust_dealloc
LBB144_3:
	popq	%rbx
	popq	%r14
	popq	%rbp
	retq
LBB144_4:
Ltmp574:
	movq	%rax, %r14
	movq	(%rbx), %rdi
	callq	__ZN5alloc5alloc8box_free17hfab518436e4c9d16E
	movq	%r14, %rdi
	callq	__Unwind_Resume
	ud2
Lfunc_end52:
	.cfi_endproc
	.section	__TEXT,__gcc_except_tab
	.p2align	2
GCC_except_table144:
Lexception52:
	.byte	255
	.byte	255
	.byte	1
	.uleb128 Lcst_end52-Lcst_begin52
Lcst_begin52:
	.uleb128 Ltmp572-Lfunc_begin52
	.uleb128 Ltmp573-Ltmp572
	.uleb128 Ltmp574-Lfunc_begin52
	.byte	0
	.uleb128 Ltmp573-Lfunc_begin52
	.uleb128 Lfunc_end52-Ltmp573
	.byte	0
	.byte	0
Lcst_end52:
	.p2align	2

	.section	__TEXT,__text,regular,pure_instructions
	.p2align	4, 0x90
__ZN4core3ptr13drop_in_place17hc61d1fe9064d3c40E:
	.cfi_startproc
	pushq	%rbp
	.cfi_def_cfa_offset 16
	.cfi_offset %rbp, -16
	movq	%rsp, %rbp
	.cfi_def_cfa_register %rbp
	pushq	%r15
	pushq	%r14
	pushq	%r13
	pushq	%r12
	pushq	%rbx
	pushq	%rax
	.cfi_offset %rbx, -56
	.cfi_offset %r12, -48
	.cfi_offset %r13, -40
	.cfi_offset %r14, -32
	.cfi_offset %r15, -24
	movq	(%rdi), %rax
	testq	%rax, %rax
	je	LBB145_12
	movq	%rdi, %r14
	movq	8(%rdi), %rbx
	movq	16(%rdi), %r15
	leaq	(%rax,%rbx), %r12
	addq	$1, %r12
	vmovdqa	(%rbx), %xmm0
	vpmovmskb	%xmm0, %r13d
	notl	%r13d
	addq	$16, %rbx
	testw	%r13w, %r13w
	je	LBB145_3
LBB145_6:
	tzcntw	%r13w, %ax
	movzwl	%ax, %eax
	blsrl	%r13d, %r13d
	imulq	$184, %rax, %rdi
	addq	%r15, %rdi
	callq	__ZN4core3ptr13drop_in_place17hf161d33ff50401f0E
	testw	%r13w, %r13w
	jne	LBB145_6
	.p2align	4, 0x90
LBB145_3:
	cmpq	%r12, %rbx
	jae	LBB145_7
	vmovdqa	(%rbx), %xmm0
	vpmovmskb	%xmm0, %r13d
	addq	$2944, %r15
	addq	$16, %rbx
	cmpw	$-1, %r13w
	je	LBB145_3
	notl	%r13d
	jmp	LBB145_6
LBB145_7:
	movq	(%r14), %rcx
	leaq	1(%rcx), %rax
	movl	$184, %edx
	xorl	%esi, %esi
	mulq	%rdx
	setno	%dl
	jo	LBB145_8
	movb	%dl, %sil
	shlq	$3, %rsi
	leaq	(%rcx,%rsi), %rdx
	addq	$16, %rdx
	addq	$17, %rcx
	negq	%rsi
	andq	%rdx, %rsi
	subq	%rcx, %rsi
	addq	%rcx, %rsi
	jae	LBB145_10
LBB145_8:
	xorl	%edx, %edx
	jmp	LBB145_11
LBB145_12:
	addq	$8, %rsp
	popq	%rbx
	popq	%r12
	popq	%r13
	popq	%r14
	popq	%r15
	popq	%rbp
	retq
LBB145_10:
	leaq	(%rsi,%rax), %rcx
	xorl	%edi, %edi
	cmpq	$-15, %rcx
	setb	%dil
	shlq	$4, %rdi
	xorl	%edx, %edx
	addq	%rax, %rsi
	cmovaeq	%rdi, %rdx
LBB145_11:
	movq	8(%r14), %rdi
	addq	$8, %rsp
	popq	%rbx
	popq	%r12
	popq	%r13
	popq	%r14
	popq	%r15
	popq	%rbp
	jmp	___rust_dealloc
	.cfi_endproc

	.p2align	4, 0x90
__ZN4core3ptr13drop_in_place17hc9392b57300011e2E:
Lfunc_begin53:
	.cfi_startproc
	.cfi_personality 155, _rust_eh_personality
	.cfi_lsda 16, Lexception53
	pushq	%rbp
	.cfi_def_cfa_offset 16
	.cfi_offset %rbp, -16
	movq	%rsp, %rbp
	.cfi_def_cfa_register %rbp
	pushq	%r14
	pushq	%rbx
	.cfi_offset %rbx, -32
	.cfi_offset %r14, -24
	movq	%rdi, %rbx
	movq	(%rdi), %rdi
	testq	%rdi, %rdi
	je	LBB146_3
Ltmp575:
	callq	__ZN4core3ptr13drop_in_place17h4c3b1fffec5b7a77E
Ltmp576:
	movq	(%rbx), %rdi
	movl	$112, %esi
	movl	$8, %edx
	popq	%rbx
	popq	%r14
	popq	%rbp
	jmp	___rust_dealloc
LBB146_3:
	popq	%rbx
	popq	%r14
	popq	%rbp
	retq
LBB146_4:
Ltmp577:
	movq	%rax, %r14
	movq	(%rbx), %rdi
	callq	__ZN5alloc5alloc8box_free17h6e3c3ce0c47a1513E
	movq	%r14, %rdi
	callq	__Unwind_Resume
	ud2
Lfunc_end53:
	.cfi_endproc
	.section	__TEXT,__gcc_except_tab
	.p2align	2
GCC_except_table146:
Lexception53:
	.byte	255
	.byte	255
	.byte	1
	.uleb128 Lcst_end53-Lcst_begin53
Lcst_begin53:
	.uleb128 Ltmp575-Lfunc_begin53
	.uleb128 Ltmp576-Ltmp575
	.uleb128 Ltmp577-Lfunc_begin53
	.byte	0
	.uleb128 Ltmp576-Lfunc_begin53
	.uleb128 Lfunc_end53-Ltmp576
	.byte	0
	.byte	0
Lcst_end53:
	.p2align	2

	.section	__TEXT,__text,regular,pure_instructions
	.p2align	4, 0x90
__ZN4core3ptr13drop_in_place17hcf7028beebe618efE:
Lfunc_begin54:
	.cfi_startproc
	.cfi_personality 155, _rust_eh_personality
	.cfi_lsda 16, Lexception54
	pushq	%rbp
	.cfi_def_cfa_offset 16
	.cfi_offset %rbp, -16
	movq	%rsp, %rbp
	.cfi_def_cfa_register %rbp
	pushq	%r15
	pushq	%r14
	pushq	%r12
	pushq	%rbx
	.cfi_offset %rbx, -48
	.cfi_offset %r12, -40
	.cfi_offset %r14, -32
	.cfi_offset %r15, -24
	movq	%rdi, %r14
	movq	(%rdi), %rbx
	imulq	$392, 16(%rdi), %r12
	.p2align	4, 0x90
LBB147_5:
	testq	%r12, %r12
	je	LBB147_6
	addq	$-392, %r12
Ltmp578:
	movq	%rbx, %rdi
	addq	$392, %rbx
	callq	__ZN4core3ptr13drop_in_place17h6cd689ac8fc3fb28E
Ltmp579:
	jmp	LBB147_5
LBB147_6:
	movq	8(%r14), %rax
	testq	%rax, %rax
	je	LBB147_9
	movq	(%r14), %rdi
	testq	%rdi, %rdi
	je	LBB147_9
	imulq	$392, %rax, %rsi
	testq	%rsi, %rsi
	je	LBB147_9
	movl	$8, %edx
	popq	%rbx
	popq	%r12
	popq	%r14
	popq	%r15
	popq	%rbp
	jmp	___rust_dealloc
LBB147_9:
	popq	%rbx
	popq	%r12
	popq	%r14
	popq	%r15
	popq	%rbp
	retq
LBB147_1:
Ltmp580:
	movq	%rax, %r15
	testq	%r12, %r12
	je	LBB147_11
	.p2align	4, 0x90
LBB147_2:
Ltmp581:
	movq	%rbx, %rdi
	callq	__ZN4core3ptr13drop_in_place17h3a3bbda48e08754fE
Ltmp582:
	addq	$392, %rbx
	addq	$-392, %r12
	jne	LBB147_2
	jmp	LBB147_11
LBB147_10:
Ltmp583:
	movq	%rax, %r15
LBB147_11:
	movq	(%r14), %rdi
	movq	8(%r14), %rsi
	callq	__ZN4core3ptr13drop_in_place17h9b42934d29d4d7b4E
	movq	%r15, %rdi
	callq	__Unwind_Resume
	ud2
Lfunc_end54:
	.cfi_endproc
	.section	__TEXT,__gcc_except_tab
	.p2align	2
GCC_except_table147:
Lexception54:
	.byte	255
	.byte	255
	.byte	1
	.uleb128 Lcst_end54-Lcst_begin54
Lcst_begin54:
	.uleb128 Ltmp578-Lfunc_begin54
	.uleb128 Ltmp579-Ltmp578
	.uleb128 Ltmp580-Lfunc_begin54
	.byte	0
	.uleb128 Ltmp581-Lfunc_begin54
	.uleb128 Ltmp582-Ltmp581
	.uleb128 Ltmp583-Lfunc_begin54
	.byte	0
	.uleb128 Ltmp582-Lfunc_begin54
	.uleb128 Lfunc_end54-Ltmp582
	.byte	0
	.byte	0
Lcst_end54:
	.p2align	2

	.section	__TEXT,__text,regular,pure_instructions
	.p2align	4, 0x90
__ZN4core3ptr13drop_in_place17hd20e683409cbeda8E:
	.cfi_startproc
	pushq	%rbp
	.cfi_def_cfa_offset 16
	.cfi_offset %rbp, -16
	movq	%rsp, %rbp
	.cfi_def_cfa_register %rbp
	pushq	%r15
	pushq	%r14
	pushq	%r12
	pushq	%rbx
	.cfi_offset %rbx, -48
	.cfi_offset %r12, -40
	.cfi_offset %r14, -32
	.cfi_offset %r15, -24
	movq	%rdi, %r14
	movq	8(%rdi), %r12
	movq	24(%rdi), %rax
	testq	%rax, %rax
	je	LBB148_11
	imulq	$88, %rax, %r15
	addq	%r12, %r15
	addq	$16, %r12
	leaq	-16(%r12), %rbx
	cmpl	$0, -16(%r12)
	jne	LBB148_3
	jmp	LBB148_6
	.p2align	4, 0x90
LBB148_9:
	addq	$88, %r12
	addq	$88, %rbx
	cmpq	%r15, %rbx
	je	LBB148_10
	leaq	-16(%r12), %rbx
	cmpl	$0, -16(%r12)
	je	LBB148_6
LBB148_3:
	movq	-8(%r12), %rdi
	testq	%rdi, %rdi
	je	LBB148_6
	movq	(%r12), %rsi
	testq	%rsi, %rsi
	je	LBB148_6
	movl	$1, %edx
	callq	___rust_dealloc
LBB148_6:
	movq	56(%rbx), %rdi
	testq	%rdi, %rdi
	je	LBB148_9
	movq	64(%rbx), %rsi
	testq	%rsi, %rsi
	je	LBB148_9
	movl	$1, %edx
	callq	___rust_dealloc
	jmp	LBB148_9
LBB148_10:
	movq	8(%r14), %r12
LBB148_11:
	movq	16(%r14), %rax
	testq	%rax, %rax
	je	LBB148_14
	testq	%r12, %r12
	je	LBB148_14
	imulq	$88, %rax, %rsi
	testq	%rsi, %rsi
	je	LBB148_14
	movl	$8, %edx
	movq	%r12, %rdi
	popq	%rbx
	popq	%r12
	popq	%r14
	popq	%r15
	popq	%rbp
	jmp	___rust_dealloc
LBB148_14:
	popq	%rbx
	popq	%r12
	popq	%r14
	popq	%r15
	popq	%rbp
	retq
	.cfi_endproc

	.p2align	4, 0x90
__ZN4core3ptr13drop_in_place17hd3c7b7f1bcff3130E:
Lfunc_begin55:
	.cfi_startproc
	.cfi_personality 155, _rust_eh_personality
	.cfi_lsda 16, Lexception55
	pushq	%rbp
	.cfi_def_cfa_offset 16
	.cfi_offset %rbp, -16
	movq	%rsp, %rbp
	.cfi_def_cfa_register %rbp
	pushq	%r15
	pushq	%r14
	pushq	%r12
	pushq	%rbx
	.cfi_offset %rbx, -48
	.cfi_offset %r12, -40
	.cfi_offset %r14, -32
	.cfi_offset %r15, -24
	movq	%rdi, %r15
	movq	(%rdi), %r12
	imulq	$104, 16(%rdi), %rbx
	.p2align	4, 0x90
LBB149_4:
	testq	%rbx, %rbx
	je	LBB149_5
	addq	$-104, %rbx
Ltmp584:
	movq	%r12, %rdi
	addq	$104, %r12
	callq	__ZN4core3ptr13drop_in_place17h42f877d1ceb7cb9dE
Ltmp585:
	jmp	LBB149_4
LBB149_5:
	movq	8(%r15), %rax
	testq	%rax, %rax
	je	LBB149_9
	movq	(%r15), %rdi
	testq	%rdi, %rdi
	je	LBB149_9
	imulq	$104, %rax, %rsi
	testq	%rsi, %rsi
	je	LBB149_9
	movl	$8, %edx
	callq	___rust_dealloc
LBB149_9:
	movl	24(%r15), %eax
	orl	$2, %eax
	cmpl	$2, %eax
	je	LBB149_13
	movq	32(%r15), %rdi
	testq	%rdi, %rdi
	je	LBB149_13
	movq	40(%r15), %rsi
	testq	%rsi, %rsi
	je	LBB149_13
	movl	$1, %edx
	callq	___rust_dealloc
LBB149_13:
	addq	$72, %r15
	movq	%r15, %rdi
	popq	%rbx
	popq	%r12
	popq	%r14
	popq	%r15
	popq	%rbp
	jmp	__ZN4core3ptr13drop_in_place17hf161d33ff50401f0E
LBB149_16:
Ltmp586:
	movq	%rax, %r14
	.p2align	4, 0x90
LBB149_2:
	testq	%rbx, %rbx
	je	LBB149_15
	addq	$-104, %rbx
Ltmp587:
	movq	%r12, %rdi
	addq	$104, %r12
	callq	__ZN4core3ptr13drop_in_place17h42f877d1ceb7cb9dE
Ltmp588:
	jmp	LBB149_2
LBB149_14:
Ltmp589:
	movq	%rax, %r14
LBB149_15:
	movq	(%r15), %rdi
	movq	8(%r15), %rsi
	callq	__ZN4core3ptr13drop_in_place17hfd19d49573e256e2E
	leaq	24(%r15), %rdi
	callq	__ZN4core3ptr13drop_in_place17h3068eff266986d7cE
	addq	$72, %r15
	movq	%r15, %rdi
	callq	__ZN4core3ptr13drop_in_place17hf161d33ff50401f0E
	movq	%r14, %rdi
	callq	__Unwind_Resume
	ud2
Lfunc_end55:
	.cfi_endproc
	.section	__TEXT,__gcc_except_tab
	.p2align	2
GCC_except_table149:
Lexception55:
	.byte	255
	.byte	255
	.byte	1
	.uleb128 Lcst_end55-Lcst_begin55
Lcst_begin55:
	.uleb128 Ltmp584-Lfunc_begin55
	.uleb128 Ltmp585-Ltmp584
	.uleb128 Ltmp586-Lfunc_begin55
	.byte	0
	.uleb128 Ltmp585-Lfunc_begin55
	.uleb128 Ltmp587-Ltmp585
	.byte	0
	.byte	0
	.uleb128 Ltmp587-Lfunc_begin55
	.uleb128 Ltmp588-Ltmp587
	.uleb128 Ltmp589-Lfunc_begin55
	.byte	0
	.uleb128 Ltmp588-Lfunc_begin55
	.uleb128 Lfunc_end55-Ltmp588
	.byte	0
	.byte	0
Lcst_end55:
	.p2align	2

	.section	__TEXT,__text,regular,pure_instructions
	.p2align	4, 0x90
__ZN4core3ptr13drop_in_place17hd5a83fc63e5b6105E:
	.cfi_startproc
	pushq	%rbp
	.cfi_def_cfa_offset 16
	.cfi_offset %rbp, -16
	movq	%rsp, %rbp
	.cfi_def_cfa_register %rbp
	cmpl	$4, (%rdi)
	jne	LBB150_2
	popq	%rbp
	retq
LBB150_2:
	popq	%rbp
	jmp	__ZN4core3ptr13drop_in_place17h3b0504de734257e5E
	.cfi_endproc

	.p2align	4, 0x90
__ZN4core3ptr13drop_in_place17hd787b76a1eef1baaE:
	.cfi_startproc
	pushq	%rbp
	.cfi_def_cfa_offset 16
	.cfi_offset %rbp, -16
	movq	%rsp, %rbp
	.cfi_def_cfa_register %rbp
	movq	%rdi, %rax
	cmpl	$0, (%rdi)
	je	LBB151_4
	movq	8(%rax), %rdi
	testq	%rdi, %rdi
	je	LBB151_3
	movq	16(%rax), %rsi
	testq	%rsi, %rsi
	je	LBB151_3
	movl	$1, %edx
	popq	%rbp
	jmp	___rust_dealloc
LBB151_4:
	addq	$4, %rax
	movq	%rax, %rdi
	popq	%rbp
	jmp	__ZN77_$LT$proc_macro..bridge..client..Literal$u20$as$u20$core..ops..drop..Drop$GT$4drop17he2aea19d6a82f53dE
LBB151_3:
	popq	%rbp
	retq
	.cfi_endproc

	.p2align	4, 0x90
__ZN4core3ptr13drop_in_place17hda50d7a998831a2fE:
Lfunc_begin56:
	.cfi_startproc
	.cfi_personality 155, _rust_eh_personality
	.cfi_lsda 16, Lexception56
	pushq	%rbp
	.cfi_def_cfa_offset 16
	.cfi_offset %rbp, -16
	movq	%rsp, %rbp
	.cfi_def_cfa_register %rbp
	pushq	%r14
	pushq	%rbx
	.cfi_offset %rbx, -32
	.cfi_offset %r14, -24
	movq	%rdi, %rbx
	movq	(%rdi), %rdi
Ltmp590:
	callq	__ZN4core3ptr13drop_in_place17h4c3b1fffec5b7a77E
Ltmp591:
	movq	(%rbx), %rdi
	movl	$112, %esi
	movl	$8, %edx
	popq	%rbx
	popq	%r14
	popq	%rbp
	jmp	___rust_dealloc
LBB152_2:
Ltmp592:
	movq	%rax, %r14
	movq	(%rbx), %rdi
	callq	__ZN5alloc5alloc8box_free17h6e3c3ce0c47a1513E
	movq	%r14, %rdi
	callq	__Unwind_Resume
	ud2
Lfunc_end56:
	.cfi_endproc
	.section	__TEXT,__gcc_except_tab
	.p2align	2
GCC_except_table152:
Lexception56:
	.byte	255
	.byte	255
	.byte	1
	.uleb128 Lcst_end56-Lcst_begin56
Lcst_begin56:
	.uleb128 Ltmp590-Lfunc_begin56
	.uleb128 Ltmp591-Ltmp590
	.uleb128 Ltmp592-Lfunc_begin56
	.byte	0
	.uleb128 Ltmp591-Lfunc_begin56
	.uleb128 Lfunc_end56-Ltmp591
	.byte	0
	.byte	0
Lcst_end56:
	.p2align	2

	.section	__TEXT,__text,regular,pure_instructions
	.p2align	4, 0x90
__ZN4core3ptr13drop_in_place17hdcb53da4b2f12872E:
Lfunc_begin57:
	.cfi_startproc
	.cfi_personality 155, _rust_eh_personality
	.cfi_lsda 16, Lexception57
	pushq	%rbp
	.cfi_def_cfa_offset 16
	.cfi_offset %rbp, -16
	movq	%rsp, %rbp
	.cfi_def_cfa_register %rbp
	pushq	%r15
	pushq	%r14
	pushq	%r12
	pushq	%rbx
	.cfi_offset %rbx, -48
	.cfi_offset %r12, -40
	.cfi_offset %r14, -32
	.cfi_offset %r15, -24
	movq	%rdi, %r14
	movq	(%rdi), %r12
	imulq	$120, 16(%rdi), %rbx
	.p2align	4, 0x90
LBB153_4:
	testq	%rbx, %rbx
	je	LBB153_5
	addq	$-120, %rbx
Ltmp593:
	movq	%r12, %rdi
	addq	$120, %r12
	callq	__ZN4core3ptr13drop_in_place17hf6e49c72f3ddb0a7E
Ltmp594:
	jmp	LBB153_4
LBB153_5:
	movq	8(%r14), %rax
	testq	%rax, %rax
	je	LBB153_8
	movq	(%r14), %rdi
	testq	%rdi, %rdi
	je	LBB153_8
	imulq	$120, %rax, %rsi
	testq	%rsi, %rsi
	je	LBB153_8
	movl	$8, %edx
	popq	%rbx
	popq	%r12
	popq	%r14
	popq	%r15
	popq	%rbp
	jmp	___rust_dealloc
LBB153_8:
	popq	%rbx
	popq	%r12
	popq	%r14
	popq	%r15
	popq	%rbp
	retq
LBB153_11:
Ltmp595:
	movq	%rax, %r15
	.p2align	4, 0x90
LBB153_2:
	testq	%rbx, %rbx
	je	LBB153_10
	addq	$-120, %rbx
Ltmp596:
	movq	%r12, %rdi
	addq	$120, %r12
	callq	__ZN4core3ptr13drop_in_place17h69c8471b3538259dE
Ltmp597:
	jmp	LBB153_2
LBB153_9:
Ltmp598:
	movq	%rax, %r15
LBB153_10:
	movq	(%r14), %rdi
	movq	8(%r14), %rsi
	callq	__ZN4core3ptr13drop_in_place17h2370988de66c3054E
	movq	%r15, %rdi
	callq	__Unwind_Resume
	ud2
Lfunc_end57:
	.cfi_endproc
	.section	__TEXT,__gcc_except_tab
	.p2align	2
GCC_except_table153:
Lexception57:
	.byte	255
	.byte	255
	.byte	1
	.uleb128 Lcst_end57-Lcst_begin57
Lcst_begin57:
	.uleb128 Ltmp593-Lfunc_begin57
	.uleb128 Ltmp594-Ltmp593
	.uleb128 Ltmp595-Lfunc_begin57
	.byte	0
	.uleb128 Ltmp596-Lfunc_begin57
	.uleb128 Ltmp597-Ltmp596
	.uleb128 Ltmp598-Lfunc_begin57
	.byte	0
	.uleb128 Ltmp597-Lfunc_begin57
	.uleb128 Lfunc_end57-Ltmp597
	.byte	0
	.byte	0
Lcst_end57:
	.p2align	2

	.section	__TEXT,__text,regular,pure_instructions
	.p2align	4, 0x90
__ZN4core3ptr13drop_in_place17hdeb698ba5ecd572fE:
Lfunc_begin58:
	.cfi_startproc
	.cfi_personality 155, _rust_eh_personality
	.cfi_lsda 16, Lexception58
	pushq	%rbp
	.cfi_def_cfa_offset 16
	.cfi_offset %rbp, -16
	movq	%rsp, %rbp
	.cfi_def_cfa_register %rbp
	pushq	%r15
	pushq	%r14
	pushq	%r12
	pushq	%rbx
	.cfi_offset %rbx, -48
	.cfi_offset %r12, -40
	.cfi_offset %r14, -32
	.cfi_offset %r15, -24
	movq	%rdi, %r15
	movq	(%rdi), %r12
	imulq	$120, 16(%rdi), %rbx
	.p2align	4, 0x90
LBB154_4:
	testq	%rbx, %rbx
	je	LBB154_5
	addq	$-120, %rbx
Ltmp599:
	movq	%r12, %rdi
	addq	$120, %r12
	callq	__ZN4core3ptr13drop_in_place17h4c3b1fffec5b7a77E
Ltmp600:
	jmp	LBB154_4
LBB154_5:
	movq	8(%r15), %rax
	testq	%rax, %rax
	je	LBB154_9
	movq	(%r15), %rdi
	testq	%rdi, %rdi
	je	LBB154_9
	imulq	$120, %rax, %rsi
	testq	%rsi, %rsi
	je	LBB154_9
	movl	$8, %edx
	callq	___rust_dealloc
LBB154_9:
	movq	24(%r15), %rdi
	testq	%rdi, %rdi
	je	LBB154_14
Ltmp605:
	callq	__ZN4core3ptr13drop_in_place17h4c3b1fffec5b7a77E
Ltmp606:
	movq	24(%r15), %rdi
	movl	$112, %esi
	movl	$8, %edx
	popq	%rbx
	popq	%r12
	popq	%r14
	popq	%r15
	popq	%rbp
	jmp	___rust_dealloc
LBB154_14:
	popq	%rbx
	popq	%r12
	popq	%r14
	popq	%r15
	popq	%rbp
	retq
LBB154_15:
Ltmp607:
	movq	%rax, %r14
	movq	24(%r15), %rdi
	callq	__ZN5alloc5alloc8box_free17h6e3c3ce0c47a1513E
	movq	%r14, %rdi
	callq	__Unwind_Resume
	ud2
LBB154_17:
Ltmp601:
	movq	%rax, %r14
	.p2align	4, 0x90
LBB154_2:
	testq	%rbx, %rbx
	je	LBB154_13
	addq	$-120, %rbx
Ltmp602:
	movq	%r12, %rdi
	addq	$120, %r12
	callq	__ZN4core3ptr13drop_in_place17h93cdc8dc6eed4630E
Ltmp603:
	jmp	LBB154_2
LBB154_12:
Ltmp604:
	movq	%rax, %r14
LBB154_13:
	movq	(%r15), %rdi
	movq	8(%r15), %rsi
	callq	__ZN4core3ptr13drop_in_place17h2370988de66c3054E
	addq	$24, %r15
	movq	%r15, %rdi
	callq	__ZN4core3ptr13drop_in_place17hc9392b57300011e2E
	movq	%r14, %rdi
	callq	__Unwind_Resume
	ud2
Lfunc_end58:
	.cfi_endproc
	.section	__TEXT,__gcc_except_tab
	.p2align	2
GCC_except_table154:
Lexception58:
	.byte	255
	.byte	255
	.byte	1
	.uleb128 Lcst_end58-Lcst_begin58
Lcst_begin58:
	.uleb128 Ltmp599-Lfunc_begin58
	.uleb128 Ltmp600-Ltmp599
	.uleb128 Ltmp601-Lfunc_begin58
	.byte	0
	.uleb128 Ltmp605-Lfunc_begin58
	.uleb128 Ltmp606-Ltmp605
	.uleb128 Ltmp607-Lfunc_begin58
	.byte	0
	.uleb128 Ltmp606-Lfunc_begin58
	.uleb128 Ltmp602-Ltmp606
	.byte	0
	.byte	0
	.uleb128 Ltmp602-Lfunc_begin58
	.uleb128 Ltmp603-Ltmp602
	.uleb128 Ltmp604-Lfunc_begin58
	.byte	0
	.uleb128 Ltmp603-Lfunc_begin58
	.uleb128 Lfunc_end58-Ltmp603
	.byte	0
	.byte	0
Lcst_end58:
	.p2align	2

	.section	__TEXT,__text,regular,pure_instructions
	.p2align	4, 0x90
__ZN4core3ptr13drop_in_place17he25f1e9621fd6424E:
	.cfi_startproc
	pushq	%rbp
	.cfi_def_cfa_offset 16
	.cfi_offset %rbp, -16
	movq	%rsp, %rbp
	.cfi_def_cfa_register %rbp
	pushq	%r15
	pushq	%r14
	pushq	%r12
	pushq	%rbx
	.cfi_offset %rbx, -48
	.cfi_offset %r12, -40
	.cfi_offset %r14, -32
	.cfi_offset %r15, -24
	movq	%rdi, %r14
	movq	(%rdi), %r12
	movq	16(%rdi), %rax
	testq	%rax, %rax
	je	LBB155_7
	imulq	$56, %rax, %r15
	xorl	%ebx, %ebx
	movq	32(%r12,%rbx), %rdi
	testq	%rdi, %rdi
	jne	LBB155_3
	.p2align	4, 0x90
LBB155_5:
	addq	$56, %rbx
	cmpq	%rbx, %r15
	je	LBB155_6
LBB155_2:
	movq	32(%r12,%rbx), %rdi
	testq	%rdi, %rdi
	je	LBB155_5
LBB155_3:
	movq	40(%r12,%rbx), %rsi
	testq	%rsi, %rsi
	je	LBB155_5
	movl	$1, %edx
	callq	___rust_dealloc
	addq	$56, %rbx
	cmpq	%rbx, %r15
	jne	LBB155_2
LBB155_6:
	movq	(%r14), %r12
LBB155_7:
	movq	8(%r14), %rax
	testq	%rax, %rax
	je	LBB155_10
	testq	%r12, %r12
	je	LBB155_10
	imulq	$56, %rax, %rsi
	testq	%rsi, %rsi
	je	LBB155_10
	movl	$8, %edx
	movq	%r12, %rdi
	popq	%rbx
	popq	%r12
	popq	%r14
	popq	%r15
	popq	%rbp
	jmp	___rust_dealloc
LBB155_10:
	popq	%rbx
	popq	%r12
	popq	%r14
	popq	%r15
	popq	%rbp
	retq
	.cfi_endproc

	.p2align	4, 0x90
__ZN4core3ptr13drop_in_place17he33e467ffa54d9d8E:
	.cfi_startproc
	pushq	%rbp
	.cfi_def_cfa_offset 16
	.cfi_offset %rbp, -16
	movq	%rsp, %rbp
	.cfi_def_cfa_register %rbp
	testq	%rsi, %rsi
	je	LBB156_3
	testq	%rdi, %rdi
	je	LBB156_3
	movq	%rsi, %rax
	shlq	$8, %rax
	leaq	(%rax,%rsi,8), %rsi
	testq	%rsi, %rsi
	je	LBB156_3
	movl	$8, %edx
	popq	%rbp
	jmp	___rust_dealloc
LBB156_3:
	popq	%rbp
	retq
	.cfi_endproc

	.p2align	4, 0x90
__ZN4core3ptr13drop_in_place17he4e3ab626b8184f3E:
	.cfi_startproc
	pushq	%rbp
	.cfi_def_cfa_offset 16
	.cfi_offset %rbp, -16
	movq	%rsp, %rbp
	.cfi_def_cfa_register %rbp
	testq	%rsi, %rsi
	je	LBB157_3
	testq	%rdi, %rdi
	je	LBB157_3
	shlq	$6, %rsi
	leaq	(%rsi,%rsi,2), %rsi
	testq	%rsi, %rsi
	je	LBB157_3
	movl	$8, %edx
	popq	%rbp
	jmp	___rust_dealloc
LBB157_3:
	popq	%rbp
	retq
	.cfi_endproc

	.p2align	4, 0x90
__ZN4core3ptr13drop_in_place17he535c6478af43230E:
	.cfi_startproc
	pushq	%rbp
	.cfi_def_cfa_offset 16
	.cfi_offset %rbp, -16
	movq	%rsp, %rbp
	.cfi_def_cfa_register %rbp
	pushq	%rbx
	pushq	%rax
	.cfi_offset %rbx, -24
	movq	(%rdi), %rax
	testq	%rax, %rax
	je	LBB158_3
	movq	%rdi, %rbx
	decq	(%rax)
	movq	(%rdi), %rdi
	cmpq	$0, (%rdi)
	jne	LBB158_3
	addq	$16, %rdi
	callq	__ZN4core3ptr13drop_in_place17h68fc7a8541940eadE
	movq	(%rbx), %rax
	decq	8(%rax)
	movq	(%rbx), %rdi
	cmpq	$0, 8(%rdi)
	je	LBB158_4
LBB158_3:
	addq	$8, %rsp
	popq	%rbx
	popq	%rbp
	retq
LBB158_4:
	movl	$32, %esi
	movl	$8, %edx
	addq	$8, %rsp
	popq	%rbx
	popq	%rbp
	jmp	___rust_dealloc
	.cfi_endproc

	.p2align	4, 0x90
__ZN4core3ptr13drop_in_place17he64ba99baf4f7d4bE:
	.cfi_startproc
	pushq	%rbp
	.cfi_def_cfa_offset 16
	.cfi_offset %rbp, -16
	movq	%rsp, %rbp
	.cfi_def_cfa_register %rbp
	pushq	%rbx
	pushq	%rax
	.cfi_offset %rbx, -24
	movq	%rdi, %rbx
	cmpl	$0, (%rdi)
	je	LBB159_4
	movq	8(%rbx), %rdi
	testq	%rdi, %rdi
	je	LBB159_4
	movq	16(%rbx), %rsi
	testq	%rsi, %rsi
	je	LBB159_4
	movl	$1, %edx
	callq	___rust_dealloc
LBB159_4:
	movq	56(%rbx), %rdi
	testq	%rdi, %rdi
	je	LBB159_6
	movq	64(%rbx), %rsi
	testq	%rsi, %rsi
	je	LBB159_6
	movl	$1, %edx
	addq	$8, %rsp
	popq	%rbx
	popq	%rbp
	jmp	___rust_dealloc
LBB159_6:
	addq	$8, %rsp
	popq	%rbx
	popq	%rbp
	retq
	.cfi_endproc

	.p2align	4, 0x90
__ZN4core3ptr13drop_in_place17he78b3e0335e99275E:
Lfunc_begin59:
	.cfi_startproc
	.cfi_personality 155, _rust_eh_personality
	.cfi_lsda 16, Lexception59
	pushq	%rbp
	.cfi_def_cfa_offset 16
	.cfi_offset %rbp, -16
	movq	%rsp, %rbp
	.cfi_def_cfa_register %rbp
	pushq	%r14
	pushq	%rbx
	.cfi_offset %rbx, -32
	.cfi_offset %r14, -24
	movq	%rdi, %rbx
	movq	16(%rdi), %rdi
	movq	24(%rbx), %rax
Ltmp608:
	callq	*(%rax)
Ltmp609:
	movq	24(%rbx), %rax
	movq	8(%rax), %rsi
	testq	%rsi, %rsi
	je	LBB160_4
	movq	16(%rbx), %rdi
	movq	16(%rax), %rdx
	popq	%rbx
	popq	%r14
	popq	%rbp
	jmp	___rust_dealloc
LBB160_4:
	popq	%rbx
	popq	%r14
	popq	%rbp
	retq
LBB160_3:
Ltmp610:
	movq	%rax, %r14
	movq	16(%rbx), %rdi
	movq	24(%rbx), %rsi
	callq	__ZN5alloc5alloc8box_free17h19e6fdcea01c7df4E
	movq	%r14, %rdi
	callq	__Unwind_Resume
	ud2
Lfunc_end59:
	.cfi_endproc
	.section	__TEXT,__gcc_except_tab
	.p2align	2
GCC_except_table160:
Lexception59:
	.byte	255
	.byte	255
	.byte	1
	.uleb128 Lcst_end59-Lcst_begin59
Lcst_begin59:
	.uleb128 Ltmp608-Lfunc_begin59
	.uleb128 Ltmp609-Ltmp608
	.uleb128 Ltmp610-Lfunc_begin59
	.byte	0
	.uleb128 Ltmp609-Lfunc_begin59
	.uleb128 Lfunc_end59-Ltmp609
	.byte	0
	.byte	0
Lcst_end59:
	.p2align	2

	.section	__TEXT,__text,regular,pure_instructions
	.p2align	4, 0x90
__ZN4core3ptr13drop_in_place17he8215beb8ca0621cE:
	.cfi_startproc
	pushq	%rbp
	.cfi_def_cfa_offset 16
	.cfi_offset %rbp, -16
	movq	%rsp, %rbp
	.cfi_def_cfa_register %rbp
	pushq	%r15
	pushq	%r14
	pushq	%r13
	pushq	%r12
	pushq	%rbx
	pushq	%rax
	.cfi_offset %rbx, -56
	.cfi_offset %r12, -48
	.cfi_offset %r13, -40
	.cfi_offset %r14, -32
	.cfi_offset %r15, -24
	testq	%rsi, %rsi
	je	LBB161_18
	movq	%rdi, %r14
	imulq	$88, %rsi, %r15
	addq	%rdi, %r15
	movq	8(%r14), %r13
	movq	24(%r14), %rax
	testq	%rax, %rax
	jne	LBB161_3
	jmp	LBB161_13
	.p2align	4, 0x90
LBB161_17:
	cmpq	%r15, %r14
	je	LBB161_18
	movq	8(%r14), %r13
	movq	24(%r14), %rax
	testq	%rax, %rax
	je	LBB161_13
LBB161_3:
	imulq	$88, %rax, %r12
	addq	%r13, %r12
	addq	$16, %r13
	leaq	-16(%r13), %rbx
	cmpl	$0, -16(%r13)
	jne	LBB161_5
	jmp	LBB161_8
	.p2align	4, 0x90
LBB161_11:
	addq	$88, %r13
	addq	$88, %rbx
	cmpq	%r12, %rbx
	je	LBB161_12
	leaq	-16(%r13), %rbx
	cmpl	$0, -16(%r13)
	je	LBB161_8
LBB161_5:
	movq	-8(%r13), %rdi
	testq	%rdi, %rdi
	je	LBB161_8
	movq	(%r13), %rsi
	testq	%rsi, %rsi
	je	LBB161_8
	movl	$1, %edx
	callq	___rust_dealloc
LBB161_8:
	movq	56(%rbx), %rdi
	testq	%rdi, %rdi
	je	LBB161_11
	movq	64(%rbx), %rsi
	testq	%rsi, %rsi
	je	LBB161_11
	movl	$1, %edx
	callq	___rust_dealloc
	jmp	LBB161_11
	.p2align	4, 0x90
LBB161_12:
	movq	8(%r14), %r13
LBB161_13:
	movq	16(%r14), %rax
	addq	$88, %r14
	testq	%rax, %rax
	je	LBB161_17
	testq	%r13, %r13
	je	LBB161_17
	imulq	$88, %rax, %rsi
	testq	%rsi, %rsi
	je	LBB161_17
	movl	$8, %edx
	movq	%r13, %rdi
	callq	___rust_dealloc
	jmp	LBB161_17
LBB161_18:
	addq	$8, %rsp
	popq	%rbx
	popq	%r12
	popq	%r13
	popq	%r14
	popq	%r15
	popq	%rbp
	retq
	.cfi_endproc

	.p2align	4, 0x90
__ZN4core3ptr13drop_in_place17heb47d93f4c493737E:
Lfunc_begin60:
	.cfi_startproc
	.cfi_personality 155, _rust_eh_personality
	.cfi_lsda 16, Lexception60
	pushq	%rbp
	.cfi_def_cfa_offset 16
	.cfi_offset %rbp, -16
	movq	%rsp, %rbp
	.cfi_def_cfa_register %rbp
	pushq	%r14
	pushq	%rbx
	.cfi_offset %rbx, -32
	.cfi_offset %r14, -24
	movq	%rdi, %rbx
	movq	(%rdi), %rdi
	testq	%rdi, %rdi
	je	LBB162_3
Ltmp611:
	callq	__ZN4core3ptr13drop_in_place17hd3c7b7f1bcff3130E
Ltmp612:
	movq	(%rbx), %rdi
	movl	$256, %esi
	movl	$8, %edx
	popq	%rbx
	popq	%r14
	popq	%rbp
	jmp	___rust_dealloc
LBB162_3:
	popq	%rbx
	popq	%r14
	popq	%rbp
	retq
LBB162_4:
Ltmp613:
	movq	%rax, %r14
	movq	(%rbx), %rdi
	callq	__ZN5alloc5alloc8box_free17hecc783b835a65ae0E
	movq	%r14, %rdi
	callq	__Unwind_Resume
	ud2
Lfunc_end60:
	.cfi_endproc
	.section	__TEXT,__gcc_except_tab
	.p2align	2
GCC_except_table162:
Lexception60:
	.byte	255
	.byte	255
	.byte	1
	.uleb128 Lcst_end60-Lcst_begin60
Lcst_begin60:
	.uleb128 Ltmp611-Lfunc_begin60
	.uleb128 Ltmp612-Ltmp611
	.uleb128 Ltmp613-Lfunc_begin60
	.byte	0
	.uleb128 Ltmp612-Lfunc_begin60
	.uleb128 Lfunc_end60-Ltmp612
	.byte	0
	.byte	0
Lcst_end60:
	.p2align	2

	.section	__TEXT,__text,regular,pure_instructions
	.p2align	4, 0x90
__ZN4core3ptr13drop_in_place17hf0b8b7d4ab1ff02aE:
	.cfi_startproc
	pushq	%rbp
	.cfi_def_cfa_offset 16
	.cfi_offset %rbp, -16
	movq	%rsp, %rbp
	.cfi_def_cfa_register %rbp
	cmpq	$41, (%rdi)
	jne	LBB163_2
	popq	%rbp
	retq
LBB163_2:
	popq	%rbp
	jmp	__ZN4core3ptr13drop_in_place17h4c3b1fffec5b7a77E
	.cfi_endproc

	.p2align	4, 0x90
__ZN4core3ptr13drop_in_place17hf0fc54ebf987cb3fE:
Lfunc_begin61:
	.cfi_startproc
	.cfi_personality 155, _rust_eh_personality
	.cfi_lsda 16, Lexception61
	pushq	%rbp
	.cfi_def_cfa_offset 16
	.cfi_offset %rbp, -16
	movq	%rsp, %rbp
	.cfi_def_cfa_register %rbp
	pushq	%r15
	pushq	%r14
	pushq	%r12
	pushq	%rbx
	.cfi_offset %rbx, -48
	.cfi_offset %r12, -40
	.cfi_offset %r14, -32
	.cfi_offset %r15, -24
	movq	%rdi, %r15
	movq	(%rdi), %r12
	movq	16(%rdi), %rax
	movq	%rax, %rcx
	shlq	$8, %rcx
	leaq	(%rcx,%rax,8), %rbx
	.p2align	4, 0x90
LBB164_4:
	testq	%rbx, %rbx
	je	LBB164_5
	addq	$-264, %rbx
Ltmp614:
	movq	%r12, %rdi
	addq	$264, %r12
	callq	__ZN4core3ptr13drop_in_place17hd3c7b7f1bcff3130E
Ltmp615:
	jmp	LBB164_4
LBB164_5:
	movq	8(%r15), %rax
	testq	%rax, %rax
	je	LBB164_9
	movq	(%r15), %rdi
	testq	%rdi, %rdi
	je	LBB164_9
	movq	%rax, %rcx
	shlq	$8, %rcx
	leaq	(%rcx,%rax,8), %rsi
	testq	%rsi, %rsi
	je	LBB164_9
	movl	$8, %edx
	callq	___rust_dealloc
LBB164_9:
	movq	24(%r15), %rdi
	testq	%rdi, %rdi
	je	LBB164_14
Ltmp620:
	callq	__ZN4core3ptr13drop_in_place17hd3c7b7f1bcff3130E
Ltmp621:
	movq	24(%r15), %rdi
	movl	$256, %esi
	movl	$8, %edx
	popq	%rbx
	popq	%r12
	popq	%r14
	popq	%r15
	popq	%rbp
	jmp	___rust_dealloc
LBB164_14:
	popq	%rbx
	popq	%r12
	popq	%r14
	popq	%r15
	popq	%rbp
	retq
LBB164_15:
Ltmp622:
	movq	%rax, %r14
	movq	24(%r15), %rdi
	callq	__ZN5alloc5alloc8box_free17hecc783b835a65ae0E
	movq	%r14, %rdi
	callq	__Unwind_Resume
	ud2
LBB164_17:
Ltmp616:
	movq	%rax, %r14
	.p2align	4, 0x90
LBB164_2:
	testq	%rbx, %rbx
	je	LBB164_13
	addq	$-264, %rbx
Ltmp617:
	movq	%r12, %rdi
	addq	$264, %r12
	callq	__ZN4core3ptr13drop_in_place17h79af60a7ad3f3033E
Ltmp618:
	jmp	LBB164_2
LBB164_12:
Ltmp619:
	movq	%rax, %r14
LBB164_13:
	movq	(%r15), %rdi
	movq	8(%r15), %rsi
	callq	__ZN4core3ptr13drop_in_place17he33e467ffa54d9d8E
	addq	$24, %r15
	movq	%r15, %rdi
	callq	__ZN4core3ptr13drop_in_place17heb47d93f4c493737E
	movq	%r14, %rdi
	callq	__Unwind_Resume
	ud2
Lfunc_end61:
	.cfi_endproc
	.section	__TEXT,__gcc_except_tab
	.p2align	2
GCC_except_table164:
Lexception61:
	.byte	255
	.byte	255
	.byte	1
	.uleb128 Lcst_end61-Lcst_begin61
Lcst_begin61:
	.uleb128 Ltmp614-Lfunc_begin61
	.uleb128 Ltmp615-Ltmp614
	.uleb128 Ltmp616-Lfunc_begin61
	.byte	0
	.uleb128 Ltmp620-Lfunc_begin61
	.uleb128 Ltmp621-Ltmp620
	.uleb128 Ltmp622-Lfunc_begin61
	.byte	0
	.uleb128 Ltmp621-Lfunc_begin61
	.uleb128 Ltmp617-Ltmp621
	.byte	0
	.byte	0
	.uleb128 Ltmp617-Lfunc_begin61
	.uleb128 Ltmp618-Ltmp617
	.uleb128 Ltmp619-Lfunc_begin61
	.byte	0
	.uleb128 Ltmp618-Lfunc_begin61
	.uleb128 Lfunc_end61-Ltmp618
	.byte	0
	.byte	0
Lcst_end61:
	.p2align	2

	.section	__TEXT,__text,regular,pure_instructions
	.p2align	4, 0x90
__ZN4core3ptr13drop_in_place17hf11c826f77c0a0bdE:
Lfunc_begin62:
	.cfi_startproc
	.cfi_personality 155, _rust_eh_personality
	.cfi_lsda 16, Lexception62
	pushq	%rbp
	.cfi_def_cfa_offset 16
	.cfi_offset %rbp, -16
	movq	%rsp, %rbp
	.cfi_def_cfa_register %rbp
	pushq	%r14
	pushq	%rbx
	.cfi_offset %rbx, -32
	.cfi_offset %r14, -24
	leaq	8(%rdi), %rbx
	cmpq	$0, (%rdi)
	je	LBB165_1
	movq	%rbx, %rdi
	popq	%rbx
	popq	%r14
	popq	%rbp
	jmp	__ZN4core3ptr13drop_in_place17hba372edf174587bdE
LBB165_1:
	addq	$32, %rdi
Ltmp623:
