	.section	__TEXT,__text,regular,pure_instructions
	.macosx_version_min 10, 7
	.intel_syntax noprefix
	.p2align	4, 0x90
__ZN36_$LT$T$u20$as$u20$core..any..Any$GT$7type_id17hcfb9724396b342c0E:
	.cfi_startproc
	push	rbp
	.cfi_def_cfa_offset 16
	.cfi_offset rbp, -16
	mov	rbp, rsp
	.cfi_def_cfa_register rbp
	movabs	rax, 1229646359891580772
	pop	rbp
	ret
	.cfi_endproc

	.p2align	4, 0x90
__ZN3std4sync4once4Once9call_once28_$u7b$$u7b$closure$u7d$$u7d$17hfd05b33f032e826dE:
	.cfi_startproc
	push	rbp
	.cfi_def_cfa_offset 16
	.cfi_offset rbp, -16
	mov	rbp, rsp
	.cfi_def_cfa_register rbp
	mov	rax, qword ptr [rdi]
	test	byte ptr [rax], 1
	mov	byte ptr [rax], 0
	je	LBB1_1
	lea	rdi, [rip + __ZN4time3sys5inner3mac4info4INFO17h3ef712fb47ef0bd5E]
	pop	rbp
	jmp	_mach_timebase_info
LBB1_1:
	lea	rdi, [rip + l___unnamed_1]
	lea	rdx, [rip + l___unnamed_2]
	mov	esi, 43
	call	__ZN4core9panicking5panic17h736ee47a631475c0E
	.cfi_endproc

	.p2align	4, 0x90
__ZN3std9panicking11begin_panic17h747b3a393d9a2f04E:
	.cfi_startproc
	push	rbp
	.cfi_def_cfa_offset 16
	.cfi_offset rbp, -16
	mov	rbp, rsp
	.cfi_def_cfa_register rbp
	sub	rsp, 16
	mov	qword ptr [rbp - 16], rdi
	mov	qword ptr [rbp - 8], rsi
	mov	rdi, rdx
	call	__ZN4core5panic8Location6caller17hf55c9a52d6249cfcE
	lea	rsi, [rip + l___unnamed_3]
	lea	rdi, [rbp - 16]
	xor	edx, edx
	mov	rcx, rax
	call	__ZN3std9panicking20rust_panic_with_hook17hf8b9378dd2e7986aE
	.cfi_endproc

	.p2align	4, 0x90
__ZN42_$LT$$RF$T$u20$as$u20$core..fmt..Debug$GT$3fmt17h008344371f89fbcfE:
	.cfi_startproc
	push	rbp
	.cfi_def_cfa_offset 16
	.cfi_offset rbp, -16
	mov	rbp, rsp
	.cfi_def_cfa_register rbp
	mov	rdi, qword ptr [rdi]
	pop	rbp
	jmp	__ZN41_$LT$char$u20$as$u20$core..fmt..Debug$GT$3fmt17haa902be045284592E
	.cfi_endproc

	.p2align	4, 0x90
__ZN42_$LT$$RF$T$u20$as$u20$core..fmt..Debug$GT$3fmt17h14d493801ad39cd2E:
	.cfi_startproc
	push	rbp
	.cfi_def_cfa_offset 16
	.cfi_offset rbp, -16
	mov	rbp, rsp
	.cfi_def_cfa_register rbp
	mov	rdi, qword ptr [rdi]
	pop	rbp
	jmp	__ZN46_$LT$time..Fmt$u20$as$u20$core..fmt..Debug$GT$3fmt17hde5380b111a3cf1aE
	.cfi_endproc

	.p2align	4, 0x90
__ZN42_$LT$$RF$T$u20$as$u20$core..fmt..Debug$GT$3fmt17h2d39029c91dd9808E:
	.cfi_startproc
	push	rbp
	.cfi_def_cfa_offset 16
	.cfi_offset rbp, -16
	mov	rbp, rsp
	.cfi_def_cfa_register rbp
	push	r14
	push	rbx
	.cfi_offset rbx, -32
	.cfi_offset r14, -24
	mov	rbx, rsi
	mov	r14, qword ptr [rdi]
	mov	rdi, rsi
	call	__ZN4core3fmt9Formatter15debug_lower_hex17h8530fbaeba13f4d9E
	test	al, al
	je	LBB5_1
	mov	rdi, r14
	mov	rsi, rbx
	pop	rbx
	pop	r14
	pop	rbp
	jmp	__ZN4core3fmt3num53_$LT$impl$u20$core..fmt..LowerHex$u20$for$u20$i64$GT$3fmt17ha8bb237a95553570E
LBB5_1:
	mov	rdi, rbx
	call	__ZN4core3fmt9Formatter15debug_upper_hex17hf8fda15ec43a1e68E
	mov	rdi, r14
	mov	rsi, rbx
	test	al, al
	je	LBB5_4
	pop	rbx
	pop	r14
	pop	rbp
	jmp	__ZN4core3fmt3num53_$LT$impl$u20$core..fmt..UpperHex$u20$for$u20$i64$GT$3fmt17h13194bd83ca37803E
LBB5_4:
	pop	rbx
	pop	r14
	pop	rbp
	jmp	__ZN4core3fmt3num3imp52_$LT$impl$u20$core..fmt..Display$u20$for$u20$i64$GT$3fmt17h6a5170735d6294a5E
	.cfi_endproc

	.p2align	4, 0x90
__ZN42_$LT$$RF$T$u20$as$u20$core..fmt..Debug$GT$3fmt17h45ac8dca8fcbccc9E:
	.cfi_startproc
	push	rbp
	.cfi_def_cfa_offset 16
	.cfi_offset rbp, -16
	mov	rbp, rsp
	.cfi_def_cfa_register rbp
	mov	rdi, rsi
	lea	rsi, [rip + l___unnamed_4]
	mov	edx, 2
	pop	rbp
	jmp	__ZN4core3fmt9Formatter3pad17he4a76f49c06ce69bE
	.cfi_endproc

	.p2align	4, 0x90
__ZN42_$LT$$RF$T$u20$as$u20$core..fmt..Debug$GT$3fmt17h617a509890c3a058E:
	.cfi_startproc
	push	rbp
	.cfi_def_cfa_offset 16
	.cfi_offset rbp, -16
	mov	rbp, rsp
	.cfi_def_cfa_register rbp
	push	r14
	push	rbx
	sub	rsp, 32
	.cfi_offset rbx, -32
	.cfi_offset r14, -24
	mov	rbx, qword ptr [rdi]
	lea	rdx, [rip + l___unnamed_5]
	lea	r14, [rbp - 40]
	mov	ecx, 10
	mov	rdi, r14
	call	__ZN4core3fmt9Formatter12debug_struct17h985c0158d1fc7193E
	mov	qword ptr [rbp - 24], rbx
	lea	rsi, [rip + l___unnamed_6]
	lea	r8, [rip + l___unnamed_7]
	lea	rcx, [rbp - 24]
	mov	edx, 1
	mov	rdi, r14
	call	__ZN4core3fmt8builders11DebugStruct5field17h9c15dc155278eed2E
	mov	rdi, r14
	call	__ZN4core3fmt8builders11DebugStruct6finish17h26808393f3fed630E
	add	rsp, 32
	pop	rbx
	pop	r14
	pop	rbp
	ret
	.cfi_endproc

	.p2align	4, 0x90
__ZN42_$LT$$RF$T$u20$as$u20$core..fmt..Debug$GT$3fmt17h641465e203af7c3eE:
	.cfi_startproc
	push	rbp
	.cfi_def_cfa_offset 16
	.cfi_offset rbp, -16
	mov	rbp, rsp
	.cfi_def_cfa_register rbp
	push	r14
	push	rbx
	.cfi_offset rbx, -32
	.cfi_offset r14, -24
	mov	rbx, rsi
	mov	r14, qword ptr [rdi]
	mov	rdi, rsi
	call	__ZN4core3fmt9Formatter15debug_lower_hex17h8530fbaeba13f4d9E
	test	al, al
	je	LBB8_1
	mov	rdi, r14
	mov	rsi, rbx
	pop	rbx
	pop	r14
	pop	rbp
	jmp	__ZN4core3fmt3num53_$LT$impl$u20$core..fmt..LowerHex$u20$for$u20$i32$GT$3fmt17h45ae8797392b15d4E
LBB8_1:
	mov	rdi, rbx
	call	__ZN4core3fmt9Formatter15debug_upper_hex17hf8fda15ec43a1e68E
	mov	rdi, r14
	mov	rsi, rbx
	test	al, al
	je	LBB8_4
	pop	rbx
	pop	r14
	pop	rbp
	jmp	__ZN4core3fmt3num53_$LT$impl$u20$core..fmt..UpperHex$u20$for$u20$i32$GT$3fmt17h7218a38926162563E
LBB8_4:
	pop	rbx
	pop	r14
	pop	rbp
	jmp	__ZN4core3fmt3num3imp52_$LT$impl$u20$core..fmt..Display$u20$for$u20$i32$GT$3fmt17he2ccc2060d52a2ceE
	.cfi_endproc

	.p2align	4, 0x90
__ZN42_$LT$$RF$T$u20$as$u20$core..fmt..Debug$GT$3fmt17h69cdd3d9dcc40841E:
	.cfi_startproc
	push	rbp
	.cfi_def_cfa_offset 16
	.cfi_offset rbp, -16
	mov	rbp, rsp
	.cfi_def_cfa_register rbp
	mov	rax, qword ptr [rdi]
	mov	rdi, qword ptr [rax]
	pop	rbp
	jmp	__ZN45_$LT$time..Tm$u20$as$u20$core..fmt..Debug$GT$3fmt17ha600475a5d25b0e2E
	.cfi_endproc

	.p2align	4, 0x90
__ZN42_$LT$$RF$T$u20$as$u20$core..fmt..Debug$GT$3fmt17ha9ef42ffeecb933bE:
	.cfi_startproc
	push	rbp
	.cfi_def_cfa_offset 16
	.cfi_offset rbp, -16
	mov	rbp, rsp
	.cfi_def_cfa_register rbp
	push	r14
	push	rbx
	.cfi_offset rbx, -32
	.cfi_offset r14, -24
	mov	rbx, rsi
	mov	r14, qword ptr [rdi]
	mov	rdi, rsi
	call	__ZN4core3fmt9Formatter15debug_lower_hex17h8530fbaeba13f4d9E
	test	al, al
	je	LBB10_1
	mov	rdi, r14
	mov	rsi, rbx
	pop	rbx
	pop	r14
	pop	rbp
	jmp	__ZN4core3fmt3num53_$LT$impl$u20$core..fmt..LowerHex$u20$for$u20$u64$GT$3fmt17h45355469eb7ddf8bE
LBB10_1:
	mov	rdi, rbx
	call	__ZN4core3fmt9Formatter15debug_upper_hex17hf8fda15ec43a1e68E
	mov	rdi, r14
	mov	rsi, rbx
	test	al, al
	je	LBB10_4
	pop	rbx
	pop	r14
	pop	rbp
	jmp	__ZN4core3fmt3num53_$LT$impl$u20$core..fmt..UpperHex$u20$for$u20$u64$GT$3fmt17ha26765e3e26c1816E
LBB10_4:
	pop	rbx
	pop	r14
	pop	rbp
	jmp	__ZN4core3fmt3num3imp52_$LT$impl$u20$core..fmt..Display$u20$for$u20$u64$GT$3fmt17hb00db9d5e1e54df6E
	.cfi_endproc

	.p2align	4, 0x90
__ZN42_$LT$$RF$T$u20$as$u20$core..fmt..Debug$GT$3fmt17hf60a1247b6f0af99E:
	.cfi_startproc
	push	rbp
	.cfi_def_cfa_offset 16
	.cfi_offset rbp, -16
	mov	rbp, rsp
	.cfi_def_cfa_register rbp
	mov	rdx, rsi
	mov	rax, qword ptr [rdi]
	mov	rdi, qword ptr [rax]
	mov	rsi, qword ptr [rax + 8]
	pop	rbp
	jmp	__ZN40_$LT$str$u20$as$u20$core..fmt..Debug$GT$3fmt17h2760aab2290546fcE
	.cfi_endproc

	.p2align	4, 0x90
__ZN44_$LT$$RF$T$u20$as$u20$core..fmt..Display$GT$3fmt17h22f145ccee285b48E:
	.cfi_startproc
	push	rbp
	.cfi_def_cfa_offset 16
	.cfi_offset rbp, -16
	mov	rbp, rsp
	.cfi_def_cfa_register rbp
	mov	rdi, qword ptr [rdi]
	pop	rbp
	jmp	__ZN4time7display60_$LT$impl$u20$core..fmt..Display$u20$for$u20$time..TmFmt$GT$3fmt17hf577ccfc1056199fE
	.cfi_endproc

	.p2align	4, 0x90
__ZN44_$LT$$RF$T$u20$as$u20$core..fmt..Display$GT$3fmt17h2d7755669f68d894E:
	.cfi_startproc
	push	rbp
	.cfi_def_cfa_offset 16
	.cfi_offset rbp, -16
	mov	rbp, rsp
	.cfi_def_cfa_register rbp
	mov	rdx, rsi
	mov	rax, qword ptr [rdi]
	mov	rsi, qword ptr [rdi + 8]
	mov	rdi, rax
	pop	rbp
	jmp	__ZN42_$LT$str$u20$as$u20$core..fmt..Display$GT$3fmt17hd4dee1c1c4ccf892E
	.cfi_endproc

	.p2align	4, 0x90
__ZN4core3ops8function6FnOnce40call_once$u7b$$u7b$vtable.shim$u7d$$u7d$17h44b3344f84c27fadE:
	.cfi_startproc
	push	rbp
	.cfi_def_cfa_offset 16
	.cfi_offset rbp, -16
	mov	rbp, rsp
	.cfi_def_cfa_register rbp
	mov	rax, qword ptr [rdi]
	test	byte ptr [rax], 1
	mov	byte ptr [rax], 0
	je	LBB14_1
	lea	rdi, [rip + __ZN4time3sys5inner3mac4info4INFO17h3ef712fb47ef0bd5E]
	pop	rbp
	jmp	_mach_timebase_info
LBB14_1:
	lea	rdi, [rip + l___unnamed_1]
	lea	rdx, [rip + l___unnamed_2]
	mov	esi, 43
	call	__ZN4core9panicking5panic17h736ee47a631475c0E
	.cfi_endproc

	.p2align	4, 0x90
__ZN4core3ptr13drop_in_place17h135d84835f9919a1E:
	.cfi_startproc
	push	rbp
	.cfi_def_cfa_offset 16
	.cfi_offset rbp, -16
	mov	rbp, rsp
	.cfi_def_cfa_register rbp
	pop	rbp
	ret
	.cfi_endproc

	.p2align	4, 0x90
__ZN4core3ptr13drop_in_place17h661d1aa1bd98fe22E:
Lfunc_begin0:
	.cfi_startproc
	.cfi_personality 155, _rust_eh_personality
	.cfi_lsda 16, Lexception0
	push	rbp
	.cfi_def_cfa_offset 16
	.cfi_offset rbp, -16
	mov	rbp, rsp
	.cfi_def_cfa_register rbp
	push	r15
	push	r14
	push	rbx
	push	rax
	.cfi_offset rbx, -40
	.cfi_offset r14, -32
	.cfi_offset r15, -24
	cmp	byte ptr [rdi], 2
	jae	LBB16_1
	add	rsp, 8
	pop	rbx
	pop	r14
	pop	r15
	pop	rbp
	ret
LBB16_1:
	mov	r15, rdi
	mov	rbx, qword ptr [rdi + 8]
	mov	rdi, qword ptr [rbx]
	mov	rax, qword ptr [rbx + 8]
Ltmp0:
	call	qword ptr [rax]
Ltmp1:
	mov	rax, qword ptr [rbx + 8]
	mov	rsi, qword ptr [rax + 8]
	test	rsi, rsi
	je	LBB16_4
	mov	rdi, qword ptr [rbx]
	mov	rdx, qword ptr [rax + 16]
	call	___rust_dealloc
LBB16_4:
	mov	rdi, qword ptr [r15 + 8]
	mov	esi, 24
	mov	edx, 8
	add	rsp, 8
	pop	rbx
	pop	r14
	pop	r15
	pop	rbp
	jmp	___rust_dealloc
LBB16_6:
Ltmp2:
	mov	r14, rax
	mov	rdi, qword ptr [rbx]
	mov	rsi, qword ptr [rbx + 8]
	call	__ZN5alloc5alloc8box_free17hdce2be92455cee80E
	mov	rdi, qword ptr [r15 + 8]
	call	__ZN5alloc5alloc8box_free17h71ded8805d742520E
	mov	rdi, r14
	call	__Unwind_Resume
	ud2
Lfunc_end0:
	.cfi_endproc
	.section	__TEXT,__gcc_except_tab
	.p2align	2
GCC_except_table16:
Lexception0:
	.byte	255
	.byte	255
	.byte	1
	.uleb128 Lcst_end0-Lcst_begin0
Lcst_begin0:
	.uleb128 Ltmp0-Lfunc_begin0
	.uleb128 Ltmp1-Ltmp0
	.uleb128 Ltmp2-Lfunc_begin0
	.byte	0
	.uleb128 Ltmp1-Lfunc_begin0
	.uleb128 Lfunc_end0-Ltmp1
	.byte	0
	.byte	0
Lcst_end0:
	.p2align	2

	.section	__TEXT,__text,regular,pure_instructions
	.p2align	4, 0x90
__ZN4core3ptr13drop_in_place17hfbf67dab9d628559E:
	.cfi_startproc
	push	rbp
	.cfi_def_cfa_offset 16
	.cfi_offset rbp, -16
	mov	rbp, rsp
	.cfi_def_cfa_register rbp
	mov	rax, rdi
	mov	rdi, qword ptr [rdi]
	test	rdi, rdi
	je	LBB17_2
	mov	rsi, qword ptr [rax + 8]
	test	rsi, rsi
	je	LBB17_2
	mov	edx, 1
	pop	rbp
	jmp	___rust_dealloc
LBB17_2:
	pop	rbp
	ret
	.cfi_endproc

	.p2align	4, 0x90
__ZN4core3str6traits105_$LT$impl$u20$core..slice..SliceIndex$LT$str$GT$$u20$for$u20$core..ops..range..RangeFrom$LT$usize$GT$$GT$5index28_$u7b$$u7b$closure$u7d$$u7d$17h13a1c725af8681beE:
	.cfi_startproc
	push	rbp
	.cfi_def_cfa_offset 16
	.cfi_offset rbp, -16
	mov	rbp, rsp
	.cfi_def_cfa_register rbp
	mov	rcx, qword ptr [rdi]
	mov	rdx, qword ptr [rdi + 8]
	mov	rax, qword ptr [rcx]
	mov	rsi, qword ptr [rcx + 8]
	mov	rdx, qword ptr [rdx]
	mov	rcx, qword ptr [rdi + 16]
	mov	rcx, qword ptr [rcx]
	lea	r8, [rip + l___unnamed_8]
	mov	rdi, rax
	call	__ZN4core3str16slice_error_fail17h6b29707aec812690E
	.cfi_endproc

	.p2align	4, 0x90
__ZN50_$LT$$RF$mut$u20$W$u20$as$u20$core..fmt..Write$GT$10write_char17heb37c40d5db7a3a3E:
	.cfi_startproc
	push	rbp
	.cfi_def_cfa_offset 16
	.cfi_offset rbp, -16
	mov	rbp, rsp
	.cfi_def_cfa_register rbp
	push	r15
	push	r14
	push	r12
	push	rbx
	sub	rsp, 16
	.cfi_offset rbx, -48
	.cfi_offset r12, -40
	.cfi_offset r14, -32
	.cfi_offset r15, -24
	mov	ebx, esi
	mov	r15, qword ptr [rdi]
	cmp	esi, 128
	jae	LBB19_1
	mov	rsi, qword ptr [r15 + 16]
	cmp	rsi, qword ptr [r15 + 8]
	jne	LBB19_22
	mov	r14, rsi
	inc	r14
	je	LBB19_35
	lea	rax, [rsi + rsi]
	cmp	rax, r14
	cmova	r14, rax
	test	rsi, rsi
	je	LBB19_29
	mov	rax, qword ptr [r15]
	test	rax, rax
	je	LBB19_29
	cmp	rsi, r14
	je	LBB19_32
	mov	edx, 1
	mov	rdi, rax
	mov	rcx, r14
	call	___rust_realloc
	test	rax, rax
	jne	LBB19_33
	jmp	LBB19_36
LBB19_1:
	mov	dword ptr [rbp - 36], 0
	mov	eax, ebx
	cmp	ebx, 2048
	jae	LBB19_2
	shr	eax, 6
	and	al, 31
	or	al, -64
	mov	byte ptr [rbp - 36], al
	and	bl, 63
	or	bl, -128
	mov	byte ptr [rbp - 35], bl
	mov	r14d, 2
	jmp	LBB19_5
LBB19_22:
	mov	rax, qword ptr [r15]
	jmp	LBB19_23
LBB19_2:
	cmp	ebx, 65536
	jae	LBB19_4
	shr	eax, 12
	and	al, 15
	or	al, -32
	mov	byte ptr [rbp - 36], al
	mov	eax, ebx
	shr	eax, 6
	and	al, 63
	or	al, -128
	mov	byte ptr [rbp - 35], al
	and	bl, 63
	or	bl, -128
	mov	byte ptr [rbp - 34], bl
	mov	r14d, 3
	jmp	LBB19_5
LBB19_29:
	test	r14, r14
	je	LBB19_30
	mov	esi, 1
	mov	rdi, r14
	call	___rust_alloc
LBB19_32:
	test	rax, rax
	je	LBB19_36
LBB19_33:
	mov	rsi, qword ptr [r15 + 16]
	jmp	LBB19_34
LBB19_4:
	shr	eax, 18
	or	al, -16
	mov	byte ptr [rbp - 36], al
	mov	eax, ebx
	shr	eax, 12
	and	al, 63
	or	al, -128
	mov	byte ptr [rbp - 35], al
	mov	eax, ebx
	shr	eax, 6
	and	al, 63
	or	al, -128
	mov	byte ptr [rbp - 34], al
	and	bl, 63
	or	bl, -128
	mov	byte ptr [rbp - 33], bl
	mov	r14d, 4
LBB19_5:
	mov	rsi, qword ptr [r15 + 8]
	mov	rbx, qword ptr [r15 + 16]
	mov	rax, rsi
	sub	rax, rbx
	cmp	rax, r14
	jae	LBB19_6
	mov	r12, rbx
	add	r12, r14
	jb	LBB19_35
	lea	rax, [rsi + rsi]
	cmp	rax, r12
	cmova	r12, rax
	test	rsi, rsi
	je	LBB19_12
	mov	rdi, qword ptr [r15]
	test	rdi, rdi
	je	LBB19_12
	cmp	rsi, r12
	je	LBB19_16
	mov	edx, 1
	mov	rcx, r12
	call	___rust_realloc
	jmp	LBB19_15
LBB19_6:
	mov	rdi, qword ptr [r15]
	jmp	LBB19_19
LBB19_12:
	test	r12, r12
	je	LBB19_13
	mov	esi, 1
	mov	rdi, r12
	call	___rust_alloc
LBB19_15:
	mov	rdi, rax
LBB19_16:
	test	rdi, rdi
	je	LBB19_38
	mov	rbx, qword ptr [r15 + 16]
	jmp	LBB19_18
LBB19_30:
	mov	eax, 1
LBB19_34:
	mov	qword ptr [r15], rax
	mov	qword ptr [r15 + 8], r14
LBB19_23:
	mov	byte ptr [rax + rsi], bl
	inc	qword ptr [r15 + 16]
	jmp	LBB19_20
LBB19_13:
	mov	edi, 1
LBB19_18:
	mov	qword ptr [r15], rdi
	mov	qword ptr [r15 + 8], r12
LBB19_19:
	add	rdi, rbx
	lea	rsi, [rbp - 36]
	mov	rdx, r14
	call	_memcpy
	add	rbx, r14
	mov	qword ptr [r15 + 16], rbx
LBB19_20:
	xor	eax, eax
	add	rsp, 16
	pop	rbx
	pop	r12
	pop	r14
	pop	r15
	pop	rbp
	ret
LBB19_35:
	call	__ZN5alloc7raw_vec17capacity_overflow17h023f34f5bc34c61fE
LBB19_36:
	mov	esi, 1
	mov	rdi, r14
	call	__ZN5alloc5alloc18handle_alloc_error17hbc0ab0ed90816c07E
LBB19_38:
	mov	esi, 1
	mov	rdi, r12
	call	__ZN5alloc5alloc18handle_alloc_error17hbc0ab0ed90816c07E
	.cfi_endproc

	.p2align	4, 0x90
__ZN50_$LT$$RF$mut$u20$W$u20$as$u20$core..fmt..Write$GT$9write_fmt17hb5126bb3ad342be3E:
	.cfi_startproc
	push	rbp
	.cfi_def_cfa_offset 16
	.cfi_offset rbp, -16
	mov	rbp, rsp
	.cfi_def_cfa_register rbp
	sub	rsp, 64
	mov	rax, qword ptr [rdi]
	mov	qword ptr [rbp - 8], rax
	mov	rax, qword ptr [rsi + 40]
	mov	qword ptr [rbp - 16], rax
	mov	rax, qword ptr [rsi + 32]
	mov	qword ptr [rbp - 24], rax
	mov	rax, qword ptr [rsi + 24]
	mov	qword ptr [rbp - 32], rax
	mov	rax, qword ptr [rsi + 16]
	mov	qword ptr [rbp - 40], rax
	mov	rax, qword ptr [rsi]
	mov	rcx, qword ptr [rsi + 8]
	mov	qword ptr [rbp - 48], rcx
	mov	qword ptr [rbp - 56], rax
	lea	rsi, [rip + l___unnamed_9]
	lea	rdi, [rbp - 8]
	lea	rdx, [rbp - 56]
	call	__ZN4core3fmt5write17h26bd57c1fd6e9c98E
	add	rsp, 64
	pop	rbp
	ret
	.cfi_endproc

	.p2align	4, 0x90
__ZN50_$LT$$RF$mut$u20$W$u20$as$u20$core..fmt..Write$GT$9write_str17h3036b6c08e9fac69E:
	.cfi_startproc
	push	rbp
	.cfi_def_cfa_offset 16
	.cfi_offset rbp, -16
	mov	rbp, rsp
	.cfi_def_cfa_register rbp
	push	r15
	push	r14
	push	r13
	push	r12
	push	rbx
	push	rax
	.cfi_offset rbx, -56
	.cfi_offset r12, -48
	.cfi_offset r13, -40
	.cfi_offset r14, -32
	.cfi_offset r15, -24
	mov	r15, rdx
	mov	r14, rsi
	mov	r13, qword ptr [rdi]
	mov	rsi, qword ptr [r13 + 8]
	mov	rbx, qword ptr [r13 + 16]
	mov	rax, rsi
	sub	rax, rbx
	cmp	rax, rdx
	jae	LBB21_1
	mov	r12, rbx
	add	r12, r15
	jb	LBB21_15
	lea	rax, [rsi + rsi]
	cmp	rax, r12
	cmova	r12, rax
	test	rsi, rsi
	je	LBB21_8
	mov	rdi, qword ptr [r13]
	test	rdi, rdi
	je	LBB21_8
	cmp	rsi, r12
	je	LBB21_12
	mov	edx, 1
	mov	rcx, r12
	call	___rust_realloc
	jmp	LBB21_11
LBB21_1:
	mov	rdi, qword ptr [r13]
	jmp	LBB21_2
LBB21_8:
	test	r12, r12
	je	LBB21_9
	mov	esi, 1
	mov	rdi, r12
	call	___rust_alloc
LBB21_11:
	mov	rdi, rax
LBB21_12:
	test	rdi, rdi
	je	LBB21_16
	mov	rbx, qword ptr [r13 + 16]
	jmp	LBB21_14
LBB21_9:
	mov	edi, 1
LBB21_14:
	mov	qword ptr [r13], rdi
	mov	qword ptr [r13 + 8], r12
LBB21_2:
	add	rdi, rbx
	mov	rsi, r14
	mov	rdx, r15
	call	_memcpy
	add	rbx, r15
	mov	qword ptr [r13 + 16], rbx
	xor	eax, eax
	add	rsp, 8
	pop	rbx
	pop	r12
	pop	r13
	pop	r14
	pop	r15
	pop	rbp
	ret
LBB21_15:
	call	__ZN5alloc7raw_vec17capacity_overflow17h023f34f5bc34c61fE
LBB21_16:
	mov	esi, 1
	mov	rdi, r12
	call	__ZN5alloc5alloc18handle_alloc_error17hbc0ab0ed90816c07E
	.cfi_endproc

	.p2align	4, 0x90
__ZN5alloc5alloc8box_free17h71ded8805d742520E:
	.cfi_startproc
	push	rbp
	.cfi_def_cfa_offset 16
	.cfi_offset rbp, -16
	mov	rbp, rsp
	.cfi_def_cfa_register rbp
	mov	esi, 24
	mov	edx, 8
	pop	rbp
	jmp	___rust_dealloc
	.cfi_endproc

	.p2align	4, 0x90
__ZN5alloc5alloc8box_free17hdce2be92455cee80E:
	.cfi_startproc
	push	rbp
	.cfi_def_cfa_offset 16
	.cfi_offset rbp, -16
	mov	rbp, rsp
	.cfi_def_cfa_register rbp
	mov	rax, rsi
	mov	rsi, qword ptr [rsi + 8]
	test	rsi, rsi
	je	LBB23_1
	mov	rdx, qword ptr [rax + 16]
	pop	rbp
	jmp	___rust_dealloc
LBB23_1:
	pop	rbp
	ret
	.cfi_endproc

	.p2align	4, 0x90
__ZN91_$LT$std..panicking..begin_panic..PanicPayload$LT$A$GT$$u20$as$u20$core..panic..BoxMeUp$GT$3get17h76f661f183f154b3E:
	.cfi_startproc
	push	rbp
	.cfi_def_cfa_offset 16
	.cfi_offset rbp, -16
	mov	rbp, rsp
	.cfi_def_cfa_register rbp
	cmp	qword ptr [rdi], 0
	je	LBB24_2
	mov	rax, rdi
	lea	rdx, [rip + l___unnamed_10]
	pop	rbp
	ret
LBB24_2:
	call	__ZN3std7process5abort17h4dccaf05298ce780E
	.cfi_endproc

	.p2align	4, 0x90
__ZN91_$LT$std..panicking..begin_panic..PanicPayload$LT$A$GT$$u20$as$u20$core..panic..BoxMeUp$GT$8take_box17h757f554f02ca953fE:
	.cfi_startproc
	push	rbp
	.cfi_def_cfa_offset 16
	.cfi_offset rbp, -16
	mov	rbp, rsp
	.cfi_def_cfa_register rbp
	push	r14
	push	rbx
	.cfi_offset rbx, -32
	.cfi_offset r14, -24
	mov	rbx, qword ptr [rdi]
	mov	r14, qword ptr [rdi + 8]
	mov	qword ptr [rdi], 0
	test	rbx, rbx
	je	LBB25_3
	mov	edi, 16
	mov	esi, 8
	call	___rust_alloc
	test	rax, rax
	je	LBB25_4
	mov	qword ptr [rax], rbx
	mov	qword ptr [rax + 8], r14
	lea	rdx, [rip + l___unnamed_10]
	pop	rbx
	pop	r14
	pop	rbp
	ret
LBB25_3:
	call	__ZN3std7process5abort17h4dccaf05298ce780E
LBB25_4:
	mov	edi, 16
	mov	esi, 8
	call	__ZN5alloc5alloc18handle_alloc_error17hbc0ab0ed90816c07E
	.cfi_endproc

	.globl	__ZN4time7display60_$LT$impl$u20$core..fmt..Display$u20$for$u20$time..TmFmt$GT$3fmt17hf577ccfc1056199fE
	.p2align	4, 0x90
__ZN4time7display60_$LT$impl$u20$core..fmt..Display$u20$for$u20$time..TmFmt$GT$3fmt17hf577ccfc1056199fE:
Lfunc_begin1:
	.cfi_startproc
	.cfi_personality 155, _rust_eh_personality
	.cfi_lsda 16, Lexception1
	push	rbp
	.cfi_def_cfa_offset 16
	.cfi_offset rbp, -16
	mov	rbp, rsp
	.cfi_def_cfa_register rbp
	push	r15
	push	r14
	push	r13
	push	r12
	push	rbx
	sub	rsp, 184
	.cfi_offset rbx, -56
	.cfi_offset r12, -48
	.cfi_offset r13, -40
	.cfi_offset r14, -32
	.cfi_offset r15, -24
	mov	r14, rsi
	mov	r15, rdi
	mov	rax, qword ptr [rdi + 8]
	test	rax, rax
	je	LBB26_9
	cmp	rax, 2
	je	LBB26_7
	mov	rcx, qword ptr [r15]
	mov	eax, dword ptr [rcx + 36]
	test	eax, eax
	je	LBB26_45
	mov	qword ptr [rbp - 224], rcx
	mov	qword ptr [rbp - 216], 0
	lea	rcx, [rip + l___unnamed_11]
	mov	qword ptr [rbp - 208], rcx
	mov	qword ptr [rbp - 200], 17
	xor	ecx, ecx
	test	eax, eax
	setle	cl
	lea	ecx, [rcx + rcx + 43]
	mov	dword ptr [rbp - 52], ecx
	jns	LBB26_6
	cmp	eax, -2147483648
	je	LBB26_56
	neg	eax
LBB26_6:
	mov	eax, eax
	mov	ecx, 2290649225
	imul	rcx, rax
	shr	rcx, 37
	mov	edx, 2443359173
	imul	rdx, rax
	shr	rdx, 43
	mov	dword ptr [rbp - 192], edx
	imul	eax, edx, -60
	add	eax, ecx
	mov	dword ptr [rbp - 48], eax
	lea	rax, [rbp - 224]
	mov	qword ptr [rbp - 128], rax
	lea	rax, [rip + __ZN4time7display60_$LT$impl$u20$core..fmt..Display$u20$for$u20$time..TmFmt$GT$3fmt17hf577ccfc1056199fE]
	mov	qword ptr [rbp - 120], rax
	lea	rax, [rbp - 52]
	mov	qword ptr [rbp - 112], rax
	mov	rax, qword ptr [rip + __ZN43_$LT$char$u20$as$u20$core..fmt..Display$GT$3fmt17h6751376c1412eca9E@GOTPCREL]
	mov	qword ptr [rbp - 104], rax
	lea	rax, [rbp - 192]
	mov	qword ptr [rbp - 96], rax
	mov	rax, qword ptr [rip + __ZN4core3fmt3num3imp52_$LT$impl$u20$core..fmt..Display$u20$for$u20$i32$GT$3fmt17he2ccc2060d52a2ceE@GOTPCREL]
	mov	qword ptr [rbp - 88], rax
	lea	rcx, [rbp - 48]
	mov	qword ptr [rbp - 80], rcx
	mov	qword ptr [rbp - 72], rax
	lea	rax, [rip + l___unnamed_12]
	mov	qword ptr [rbp - 176], rax
	mov	qword ptr [rbp - 168], 4
	lea	rax, [rip + l___unnamed_13]
	mov	qword ptr [rbp - 160], rax
	mov	qword ptr [rbp - 152], 4
	lea	rax, [rbp - 128]
	mov	qword ptr [rbp - 144], rax
	mov	qword ptr [rbp - 136], 4
	lea	rsi, [rbp - 176]
	mov	rdi, r14
	call	__ZN4core3fmt9Formatter9write_fmt17h3dc2bf45afed3069E
	jmp	LBB26_47
LBB26_7:
	mov	rdi, qword ptr [r15]
	call	__ZN4time2Tm11to_timespec17hccd00210cf261bf1E
	mov	ebx, edx
	mov	qword ptr [rbp - 48], rax
	xorps	xmm0, xmm0
	movaps	xmmword ptr [rbp - 96], xmm0
	movaps	xmmword ptr [rbp - 112], xmm0
	movaps	xmmword ptr [rbp - 128], xmm0
	mov	qword ptr [rbp - 80], 0
	lea	rdi, [rbp - 48]
	lea	r15, [rbp - 128]
	mov	rsi, r15
	call	_localtime_r
	test	rax, rax
	je	LBB26_54
	mov	eax, dword ptr [rbp - 88]
	movaps	xmm0, xmmword ptr [rbp - 128]
	movaps	xmm1, xmmword ptr [rbp - 112]
	mov	ecx, dword ptr [rbp - 96]
	movaps	xmmword ptr [rbp - 128], xmm0
	movaps	xmmword ptr [rbp - 112], xmm1
	mov	dword ptr [rbp - 96], ecx
	mov	dword ptr [rbp - 92], eax
	mov	dword ptr [rbp - 88], ebx
	mov	qword ptr [rbp - 176], r15
	mov	qword ptr [rbp - 168], 0
	lea	rax, [rip + l___unnamed_14]
	mov	qword ptr [rbp - 160], rax
	mov	qword ptr [rbp - 152], 2
	lea	rdi, [rbp - 176]
	jmp	LBB26_46
LBB26_9:
	mov	r12, qword ptr [r15 + 24]
	test	r12, r12
	je	LBB26_49
	mov	rcx, qword ptr [r15 + 16]
	add	r12, rcx
	lea	rbx, [rcx + 1]
	movzx	esi, byte ptr [rcx]
	test	sil, sil
	jns	LBB26_16
	jmp	LBB26_19
LBB26_11:
	shl	ecx, 6
LBB26_12:
	or	eax, ecx
	mov	esi, eax
LBB26_13:
	mov	rdx, qword ptr [r15]
	mov	rdi, r14
	call	__ZN4time7display10parse_type17hae8f2ae3248877acE
	mov	rbx, r13
	test	al, al
	jne	LBB26_53
LBB26_14:
	mov	rcx, rbx
	cmp	rbx, r12
	je	LBB26_49
	lea	rbx, [rcx + 1]
	movzx	esi, byte ptr [rcx]
	test	sil, sil
	js	LBB26_19
LBB26_16:
	cmp	esi, 37
	je	LBB26_27
LBB26_17:
	cmp	esi, 1114112
	je	LBB26_49
	mov	rdi, r14
	call	__ZN57_$LT$core..fmt..Formatter$u20$as$u20$core..fmt..Write$GT$10write_char17h3b1c8fe2b30b815fE
	test	al, al
	je	LBB26_14
	jmp	LBB26_53
	.p2align	4, 0x90
LBB26_19:
	cmp	rbx, r12
	je	LBB26_25
	movzx	eax, byte ptr [rcx + 1]
	add	rcx, 2
	and	eax, 63
	mov	rbx, rcx
	mov	ecx, esi
	and	ecx, 31
	cmp	sil, -33
	jbe	LBB26_26
LBB26_21:
	cmp	rbx, r12
	je	LBB26_35
	movzx	edi, byte ptr [rbx]
	inc	rbx
	and	edi, 63
	mov	rdx, rbx
	shl	eax, 6
	or	eax, edi
	cmp	sil, -16
	jb	LBB26_36
LBB26_23:
	cmp	rdx, r12
	je	LBB26_38
	movzx	esi, byte ptr [rdx]
	inc	rdx
	and	esi, 63
	mov	rbx, rdx
	jmp	LBB26_39
LBB26_25:
	xor	eax, eax
	mov	rbx, r12
	mov	ecx, esi
	and	ecx, 31
	cmp	sil, -33
	ja	LBB26_21
LBB26_26:
	shl	ecx, 6
	or	eax, ecx
	mov	esi, eax
	cmp	esi, 37
	jne	LBB26_17
	.p2align	4, 0x90
LBB26_27:
	cmp	rbx, r12
	je	LBB26_44
	lea	r13, [rbx + 1]
	movzx	esi, byte ptr [rbx]
	test	sil, sil
	jns	LBB26_13
	cmp	r13, r12
	je	LBB26_37
	movzx	eax, byte ptr [rbx + 1]
	add	rbx, 2
	and	eax, 63
	mov	r13, rbx
	mov	ecx, esi
	and	ecx, 31
	cmp	sil, -33
	jbe	LBB26_11
LBB26_31:
	cmp	r13, r12
	je	LBB26_40
	movzx	edi, byte ptr [r13]
	inc	r13
	and	edi, 63
	mov	rdx, r13
	shl	eax, 6
	or	eax, edi
	cmp	sil, -16
	jb	LBB26_41
LBB26_33:
	cmp	rdx, r12
	je	LBB26_42
	movzx	esi, byte ptr [rdx]
	inc	rdx
	and	esi, 63
	mov	r13, rdx
	jmp	LBB26_43
LBB26_35:
	xor	edi, edi
	mov	rdx, r12
	shl	eax, 6
	or	eax, edi
	cmp	sil, -16
	jae	LBB26_23
LBB26_36:
	shl	ecx, 12
	or	eax, ecx
	mov	esi, eax
	cmp	esi, 37
	jne	LBB26_17
	jmp	LBB26_27
LBB26_37:
	xor	eax, eax
	mov	r13, r12
	mov	ecx, esi
	and	ecx, 31
	cmp	sil, -33
	ja	LBB26_31
	jmp	LBB26_11
LBB26_38:
	xor	esi, esi
LBB26_39:
	and	ecx, 7
	shl	ecx, 18
	shl	eax, 6
	or	eax, ecx
	or	eax, esi
	mov	esi, eax
	cmp	esi, 37
	jne	LBB26_17
	jmp	LBB26_27
LBB26_40:
	xor	edi, edi
	mov	rdx, r12
	shl	eax, 6
	or	eax, edi
	cmp	sil, -16
	jae	LBB26_33
LBB26_41:
	shl	ecx, 12
	jmp	LBB26_12
LBB26_42:
	xor	esi, esi
LBB26_43:
	and	ecx, 7
	shl	ecx, 18
	shl	eax, 6
	or	eax, ecx
	or	eax, esi
	mov	esi, eax
	cmp	eax, 1114112
	jne	LBB26_13
LBB26_44:
	lea	rdi, [rip + l___unnamed_1]
	lea	rdx, [rip + l___unnamed_15]
	mov	esi, 43
	call	__ZN4core9panicking5panic17h736ee47a631475c0E
LBB26_49:
	xor	eax, eax
	jmp	LBB26_48
LBB26_45:
	mov	qword ptr [rbp - 128], rcx
	mov	qword ptr [rbp - 120], 0
	lea	rax, [rip + l___unnamed_16]
	mov	qword ptr [rbp - 112], rax
	mov	qword ptr [rbp - 104], 18
	lea	rdi, [rbp - 128]
LBB26_46:
	mov	rsi, r14
	call	__ZN4time7display60_$LT$impl$u20$core..fmt..Display$u20$for$u20$time..TmFmt$GT$3fmt17hf577ccfc1056199fE
LBB26_47:
LBB26_48:
	add	rsp, 184
	pop	rbx
	pop	r12
	pop	r13
	pop	r14
	pop	r15
	pop	rbp
	ret
LBB26_53:
	mov	al, 1
	jmp	LBB26_48
LBB26_54:
	lea	rbx, [rbp - 224]
	mov	rdi, rbx
	call	__ZN3std2io5error5Error13last_os_error17h5c14d716e3637a11E
	mov	qword ptr [rbp - 192], rbx
	mov	rax, qword ptr [rip + __ZN60_$LT$std..io..error..Error$u20$as$u20$core..fmt..Display$GT$3fmt17hd5a23906ccc4fffdE@GOTPCREL]
	mov	qword ptr [rbp - 184], rax
	lea	rax, [rip + l___unnamed_17]
	mov	qword ptr [rbp - 176], rax
	mov	qword ptr [rbp - 168], 1
	mov	qword ptr [rbp - 160], 0
	lea	rax, [rbp - 192]
	mov	qword ptr [rbp - 144], rax
	mov	qword ptr [rbp - 136], 1
Ltmp3:
	lea	rsi, [rip + l___unnamed_18]
	lea	rdi, [rbp - 176]
	call	__ZN3std9panicking15begin_panic_fmt17h2e6dba6f5c07d155E
Ltmp4:
	ud2
LBB26_56:
	lea	rdi, [rip + _str.6]
	lea	rdx, [rip + l___unnamed_19]
	mov	esi, 31
	call	__ZN4core9panicking5panic17h736ee47a631475c0E
LBB26_57:
Ltmp5:
	mov	rbx, rax
	lea	rdi, [rbp - 224]
	call	__ZN4core3ptr13drop_in_place17h661d1aa1bd98fe22E
	mov	rdi, rbx
	call	__Unwind_Resume
	ud2
Lfunc_end1:
	.cfi_endproc
	.section	__TEXT,__gcc_except_tab
	.p2align	2
GCC_except_table26:
Lexception1:
	.byte	255
	.byte	255
	.byte	1
	.uleb128 Lcst_end1-Lcst_begin1
Lcst_begin1:
	.uleb128 Lfunc_begin1-Lfunc_begin1
	.uleb128 Ltmp3-Lfunc_begin1
	.byte	0
	.byte	0
	.uleb128 Ltmp3-Lfunc_begin1
	.uleb128 Ltmp4-Ltmp3
	.uleb128 Ltmp5-Lfunc_begin1
	.byte	0
	.uleb128 Ltmp4-Lfunc_begin1
	.uleb128 Lfunc_end1-Ltmp4
	.byte	0
	.byte	0
Lcst_end1:
	.p2align	2

	.section	__TEXT,__text,regular,pure_instructions
	.p2align	4, 0x90
__ZN4time7display13iso_week_days17h2dc58e0336a4c239E:
	.cfi_startproc
	push	rbp
	.cfi_def_cfa_offset 16
	.cfi_offset rbp, -16
	mov	rbp, rsp
	.cfi_def_cfa_register rbp
	mov	ecx, edi
	sub	ecx, esi
	jo	LBB27_6
	add	ecx, 4
	jo	LBB27_7
	add	ecx, 378
	jo	LBB27_8
	mov	eax, edi
	movsxd	rcx, ecx
	imul	rdx, rcx, -1840700269
	shr	rdx, 32
	add	edx, ecx
	mov	esi, edx
	shr	esi, 31
	sar	edx, 2
	add	edx, esi
	lea	esi, [8*rdx]
	sub	edx, esi
	add	edx, ecx
	sub	eax, edx
	jo	LBB27_9
	add	eax, 4
	jo	LBB27_10
	dec	eax
	pop	rbp
	ret
LBB27_6:
	lea	rdi, [rip + _str.0]
	lea	rdx, [rip + l___unnamed_20]
	mov	esi, 33
	call	__ZN4core9panicking5panic17h736ee47a631475c0E
LBB27_7:
	lea	rdi, [rip + _str.5]
	lea	rdx, [rip + l___unnamed_20]
	mov	esi, 28
	call	__ZN4core9panicking5panic17h736ee47a631475c0E
LBB27_8:
	lea	rdi, [rip + _str.5]
	lea	rdx, [rip + l___unnamed_21]
	mov	esi, 28
	call	__ZN4core9panicking5panic17h736ee47a631475c0E
LBB27_9:
	lea	rdi, [rip + _str.0]
	lea	rdx, [rip + l___unnamed_22]
	mov	esi, 33
	call	__ZN4core9panicking5panic17h736ee47a631475c0E
LBB27_10:
	lea	rdi, [rip + _str.5]
	lea	rdx, [rip + l___unnamed_22]
	mov	esi, 28
	call	__ZN4core9panicking5panic17h736ee47a631475c0E
	.cfi_endproc

	.p2align	4, 0x90
__ZN4time7display8iso_week17h0f13c34c76728ea5E:
	.cfi_startproc
	push	rbp
	.cfi_def_cfa_offset 16
	.cfi_offset rbp, -16
	mov	rbp, rsp
	.cfi_def_cfa_register rbp
	push	r15
	push	r14
	push	r13
	push	r12
	push	rbx
	sub	rsp, 88
	.cfi_offset rbx, -56
	.cfi_offset r12, -48
	.cfi_offset r13, -40
	.cfi_offset r14, -32
	.cfi_offset r15, -24
	mov	ebx, edx
	mov	qword ptr [rbp - 72], rdi
	add	ebx, 1900
	jo	LBB28_23
	mov	r13d, r8d
	mov	r12d, ecx
	mov	r15d, esi
	mov	dword ptr [rbp - 44], ebx
	mov	edi, r8d
	mov	esi, ecx
	call	__ZN4time7display13iso_week_days17h2dc58e0336a4c239E
	test	eax, eax
	js	LBB28_8
	mov	r14d, eax
	mov	eax, 365
	test	bl, 3
	jne	LBB28_4
	movsxd	rax, ebx
	imul	rax, rax, 1374389535
	mov	rcx, rax
	sar	rcx, 37
	mov	rdx, rax
	shr	rdx, 63
	add	ecx, edx
	imul	ecx, ecx, 100
	cmp	ebx, ecx
	setne	cl
	sar	rax, 39
	add	eax, edx
	imul	eax, eax, 400
	cmp	ebx, eax
	sete	al
	or	al, cl
	movzx	eax, al
	add	eax, 365
LBB28_4:
	sub	r13d, eax
	jo	LBB28_25
	mov	edi, r13d
	mov	esi, r12d
	call	__ZN4time7display13iso_week_days17h2dc58e0336a4c239E
	test	eax, eax
	js	LBB28_13
	inc	ebx
	jo	LBB28_26
	mov	dword ptr [rbp - 44], ebx
	jmp	LBB28_12
LBB28_8:
	dec	ebx
	mov	dword ptr [rbp - 44], ebx
	mov	eax, 365
	test	bl, 3
	jne	LBB28_10
	movsxd	rax, ebx
	imul	rax, rax, 1374389535
	mov	rcx, rax
	sar	rcx, 37
	mov	rdx, rax
	shr	rdx, 63
	add	ecx, edx
	imul	ecx, ecx, 100
	cmp	ebx, ecx
	setne	cl
	sar	rax, 39
	add	eax, edx
	imul	eax, eax, 400
	cmp	ebx, eax
	sete	al
	or	al, cl
	movzx	eax, al
	add	eax, 365
LBB28_10:
	add	r13d, eax
	jo	LBB28_24
	mov	edi, r13d
	mov	esi, r12d
	call	__ZN4time7display13iso_week_days17h2dc58e0336a4c239E
LBB28_12:
	mov	r14d, eax
LBB28_13:
	cmp	r15d, 103
	je	LBB28_18
	cmp	r15d, 86
	je	LBB28_19
	cmp	r15d, 71
	jne	LBB28_16
	lea	rsi, [rbp - 120]
	lea	rax, [rbp - 64]
	lea	rcx, [rbp - 44]
	mov	qword ptr [rbp - 64], rcx
	mov	rcx, qword ptr [rip + __ZN4core3fmt3num3imp52_$LT$impl$u20$core..fmt..Display$u20$for$u20$i32$GT$3fmt17he2ccc2060d52a2ceE@GOTPCREL]
	mov	qword ptr [rbp - 56], rcx
	lea	rcx, [rip + l___unnamed_23]
	mov	qword ptr [rbp - 120], rcx
	mov	qword ptr [rbp - 112], 1
	mov	qword ptr [rbp - 104], 0
	jmp	LBB28_21
LBB28_19:
	lea	rsi, [rbp - 120]
	lea	rax, [rbp - 64]
	movsxd	rcx, r14d
	imul	rdx, rcx, -1840700269
	shr	rdx, 32
	add	ecx, edx
	mov	edx, ecx
	sar	edx, 2
	shr	ecx, 31
	lea	ecx, [rdx + rcx + 1]
	mov	dword ptr [rbp - 48], ecx
	jmp	LBB28_20
LBB28_18:
	lea	rsi, [rbp - 120]
	lea	rax, [rbp - 64]
	movsxd	rcx, ebx
	imul	rdx, rcx, 1374389535
	mov	rdi, rdx
	shr	rdi, 63
	shr	rdx, 32
	sar	edx, 5
	add	edx, edi
	imul	edx, edx, 100
	neg	edx
	lea	ecx, [rcx + rdx + 100]
	movsxd	rcx, ecx
	imul	rdx, rcx, 1374389535
	mov	rdi, rdx
	shr	rdi, 63
	shr	rdx, 32
	sar	edx, 5
	add	edx, edi
	imul	edx, edx, 100
	sub	ecx, edx
	mov	dword ptr [rbp - 48], ecx
LBB28_20:
	lea	rcx, [rbp - 48]
	mov	qword ptr [rbp - 64], rcx
	mov	rcx, qword ptr [rip + __ZN4core3fmt3num3imp52_$LT$impl$u20$core..fmt..Display$u20$for$u20$i32$GT$3fmt17he2ccc2060d52a2ceE@GOTPCREL]
	mov	qword ptr [rbp - 56], rcx
	lea	rcx, [rip + l___unnamed_23]
	mov	qword ptr [rbp - 120], rcx
	mov	qword ptr [rbp - 112], 1
	lea	rcx, [rip + l___unnamed_24]
	mov	qword ptr [rbp - 104], rcx
	mov	qword ptr [rbp - 96], 1
LBB28_21:
	mov	qword ptr [rbp - 88], rax
	mov	qword ptr [rbp - 80], 1
	mov	rdi, qword ptr [rbp - 72]
	call	__ZN4core3fmt9Formatter9write_fmt17h3dc2bf45afed3069E
	jmp	LBB28_22
LBB28_16:
	xor	eax, eax
LBB28_22:
	add	rsp, 88
	pop	rbx
	pop	r12
	pop	r13
	pop	r14
	pop	r15
	pop	rbp
	ret
LBB28_23:
	lea	rdi, [rip + _str.5]
	lea	rdx, [rip + l___unnamed_25]
	mov	esi, 28
	call	__ZN4core9panicking5panic17h736ee47a631475c0E
LBB28_25:
	lea	rdi, [rip + _str.0]
	lea	rdx, [rip + l___unnamed_26]
	mov	esi, 33
	call	__ZN4core9panicking5panic17h736ee47a631475c0E
LBB28_26:
	lea	rdi, [rip + _str.5]
	lea	rdx, [rip + l___unnamed_27]
	mov	esi, 28
	call	__ZN4core9panicking5panic17h736ee47a631475c0E
LBB28_24:
	lea	rdi, [rip + _str.5]
	lea	rdx, [rip + l___unnamed_28]
	mov	esi, 28
	call	__ZN4core9panicking5panic17h736ee47a631475c0E
	.cfi_endproc

	.p2align	4, 0x90
__ZN4time7display10parse_type17hae8f2ae3248877acE:
	.cfi_startproc
	push	rbp
	.cfi_def_cfa_offset 16
	.cfi_offset rbp, -16
	mov	rbp, rsp
	.cfi_def_cfa_register rbp
	push	r15
	push	r14
	push	rbx
	sub	rsp, 120
	.cfi_offset rbx, -40
	.cfi_offset r14, -32
	.cfi_offset r15, -24
	add	esi, -37
	cmp	esi, 85
	ja	LBB29_146
	mov	rbx, rdx
	mov	r14, rdi
	lea	rax, [rip + LJTI29_0]
	movsxd	rcx, dword ptr [rax + 4*rsi]
	add	rcx, rax
	jmp	rcx
LBB29_2:
	mov	rdi, r14
	mov	esi, 109
	mov	rdx, rbx
	call	__ZN4time7display10parse_type17hae8f2ae3248877acE
	mov	r15b, 1
	test	al, al
	jne	LBB29_111
	lea	rsi, [rip + l___unnamed_29]
	mov	edx, 1
	mov	rdi, r14
	call	__ZN4core3fmt9Formatter9write_str17h957ea9717e49073dE
	test	al, al
	jne	LBB29_111
	mov	rdi, r14
	mov	esi, 100
	mov	rdx, rbx
	call	__ZN4time7display10parse_type17hae8f2ae3248877acE
	test	al, al
	jne	LBB29_111
	lea	rsi, [rip + l___unnamed_29]
	mov	edx, 1
	mov	rdi, r14
	call	__ZN4core3fmt9Formatter9write_str17h957ea9717e49073dE
	test	al, al
	jne	LBB29_111
	mov	rdi, r14
	mov	esi, 121
	jmp	LBB29_75
LBB29_7:
	mov	rdi, r14
	mov	esi, 72
	mov	rdx, rbx
	call	__ZN4time7display10parse_type17hae8f2ae3248877acE
	mov	r15b, 1
	test	al, al
	jne	LBB29_111
	lea	rsi, [rip + l___unnamed_30]
	mov	edx, 1
	mov	rdi, r14
	call	__ZN4core3fmt9Formatter9write_str17h957ea9717e49073dE
	test	al, al
	jne	LBB29_111
	mov	rdi, r14
	mov	esi, 77
	mov	rdx, rbx
	call	__ZN4time7display10parse_type17hae8f2ae3248877acE
	test	al, al
	jne	LBB29_111
	lea	rsi, [rip + l___unnamed_30]
	mov	edx, 1
	mov	rdi, r14
	call	__ZN4core3fmt9Formatter9write_str17h957ea9717e49073dE
	test	al, al
	jne	LBB29_111
	mov	rdi, r14
	mov	esi, 83
	jmp	LBB29_75
LBB29_12:
	mov	eax, dword ptr [rbx + 16]
	cmp	rax, 11
	ja	LBB29_147
	lea	rsi, [rip + l___unnamed_31]
	lea	rcx, [rip + LJTI29_1]
	movsxd	rax, dword ptr [rcx + 4*rax]
	add	rax, rcx
	jmp	rax
LBB29_14:
	lea	rsi, [rip + l___unnamed_32]
	mov	edx, 3
	jmp	LBB29_145
LBB29_15:
	mov	edx, dword ptr [rbx + 20]
	mov	ecx, dword ptr [rbx + 24]
	mov	r8d, dword ptr [rbx + 28]
	mov	rdi, r14
	mov	esi, 103
	jmp	LBB29_57
LBB29_16:
	mov	eax, dword ptr [rbx + 36]
	xor	ecx, ecx
	test	eax, eax
	setle	cl
	lea	ecx, [rcx + rcx + 43]
	mov	dword ptr [rbp - 140], ecx
	jns	LBB29_19
	cmp	eax, -2147483648
	je	LBB29_161
	neg	eax
LBB29_19:
	mov	eax, eax
	mov	ecx, 2290649225
	imul	rcx, rax
	shr	rcx, 37
	mov	edx, 2443359173
	imul	rdx, rax
	shr	rdx, 43
	mov	dword ptr [rbp - 88], edx
	imul	eax, edx, -60
	add	eax, ecx
	mov	dword ptr [rbp - 144], eax
	lea	rax, [rbp - 140]
	mov	qword ptr [rbp - 72], rax
	mov	rax, qword ptr [rip + __ZN43_$LT$char$u20$as$u20$core..fmt..Display$GT$3fmt17h6751376c1412eca9E@GOTPCREL]
	mov	qword ptr [rbp - 64], rax
	lea	rax, [rbp - 88]
	mov	qword ptr [rbp - 56], rax
	mov	rax, qword ptr [rip + __ZN4core3fmt3num3imp52_$LT$impl$u20$core..fmt..Display$u20$for$u20$i32$GT$3fmt17he2ccc2060d52a2ceE@GOTPCREL]
	mov	qword ptr [rbp - 48], rax
	lea	rcx, [rbp - 144]
	mov	qword ptr [rbp - 40], rcx
	mov	qword ptr [rbp - 32], rax
	lea	rax, [rip + l___unnamed_33]
	mov	qword ptr [rbp - 136], rax
	mov	qword ptr [rbp - 128], 3
	lea	rax, [rip + l___unnamed_34]
	mov	qword ptr [rbp - 120], rax
	mov	qword ptr [rbp - 112], 3
	lea	rax, [rbp - 72]
	mov	qword ptr [rbp - 104], rax
	mov	qword ptr [rbp - 96], 3
	lea	rsi, [rbp - 136]
	jmp	LBB29_110
LBB29_20:
	add	rbx, 40
	mov	qword ptr [rbp - 136], rbx
	mov	rax, qword ptr [rip + __ZN4core3fmt3num3imp52_$LT$impl$u20$core..fmt..Display$u20$for$u20$i32$GT$3fmt17he2ccc2060d52a2ceE@GOTPCREL]
	mov	qword ptr [rbp - 128], rax
	lea	rax, [rip + l___unnamed_23]
	mov	qword ptr [rbp - 72], rax
	mov	qword ptr [rbp - 64], 1
	lea	rax, [rip + l___unnamed_35]
	jmp	LBB29_107
LBB29_21:
	mov	rdi, rbx
	call	__ZN4time2Tm11to_timespec17hccd00210cf261bf1E
	mov	qword ptr [rbp - 136], rax
	mov	dword ptr [rbp - 128], edx
	lea	rax, [rbp - 136]
	mov	qword ptr [rbp - 88], rax
	mov	rax, qword ptr [rip + __ZN4core3fmt3num3imp52_$LT$impl$u20$core..fmt..Display$u20$for$u20$i64$GT$3fmt17h6a5170735d6294a5E@GOTPCREL]
	jmp	LBB29_66
LBB29_22:
	mov	eax, dword ptr [rbx + 24]
	cmp	rax, 6
	ja	LBB29_148
	lea	rsi, [rip + l___unnamed_36]
	lea	rcx, [rip + LJTI29_3]
	movsxd	rax, dword ptr [rcx + 4*rax]
	add	rax, rcx
	jmp	rax
LBB29_24:
	lea	rsi, [rip + l___unnamed_37]
	mov	edx, 3
	jmp	LBB29_145
LBB29_25:
	cmp	dword ptr [rbx + 8], 12
	lea	rax, [rip + l___unnamed_38]
	lea	rsi, [rip + l___unnamed_39]
	jmp	LBB29_82
LBB29_26:
	mov	rdi, r14
	mov	esi, 73
	mov	rdx, rbx
	call	__ZN4time7display10parse_type17hae8f2ae3248877acE
	mov	r15b, 1
	test	al, al
	jne	LBB29_111
	lea	rsi, [rip + l___unnamed_30]
	mov	edx, 1
	mov	rdi, r14
	call	__ZN4core3fmt9Formatter9write_str17h957ea9717e49073dE
	test	al, al
	jne	LBB29_111
	mov	rdi, r14
	mov	esi, 77
	mov	rdx, rbx
	call	__ZN4time7display10parse_type17hae8f2ae3248877acE
	test	al, al
	jne	LBB29_111
	lea	rsi, [rip + l___unnamed_30]
	mov	edx, 1
	mov	rdi, r14
	call	__ZN4core3fmt9Formatter9write_str17h957ea9717e49073dE
	test	al, al
	jne	LBB29_111
	mov	rdi, r14
	mov	esi, 83
	mov	rdx, rbx
	call	__ZN4time7display10parse_type17hae8f2ae3248877acE
	test	al, al
	jne	LBB29_111
	lea	rsi, [rip + l___unnamed_40]
	mov	edx, 1
	mov	rdi, r14
	call	__ZN4core3fmt9Formatter9write_str17h957ea9717e49073dE
	test	al, al
	jne	LBB29_111
	mov	rdi, r14
	mov	esi, 112
	jmp	LBB29_75
LBB29_33:
	mov	edx, dword ptr [rbx + 20]
	mov	ecx, dword ptr [rbx + 24]
	mov	r8d, dword ptr [rbx + 28]
	mov	rdi, r14
	mov	esi, 86
	jmp	LBB29_57
LBB29_34:
	mov	eax, dword ptr [rbx + 28]
	sub	eax, dword ptr [rbx + 24]
	jo	LBB29_149
	add	eax, 7
	jno	LBB29_43
	lea	rdi, [rip + _str.5]
	lea	rdx, [rip + l___unnamed_41]
	mov	esi, 28
	call	__ZN4core9panicking5panic17h736ee47a631475c0E
LBB29_37:
	add	rbx, 12
	jmp	LBB29_68
LBB29_38:
	lea	rsi, [rip + l___unnamed_42]
	mov	edx, 1
	jmp	LBB29_145
LBB29_39:
	mov	ecx, dword ptr [rbx + 24]
	dec	ecx
	jo	LBB29_150
	add	ecx, 7
	jo	LBB29_151
	mov	eax, dword ptr [rbx + 28]
	movsxd	rcx, ecx
	imul	rdx, rcx, -1840700269
	shr	rdx, 32
	add	edx, ecx
	mov	esi, edx
	shr	esi, 31
	sar	edx, 2
	add	edx, esi
	lea	esi, [8*rdx]
	sub	edx, esi
	add	edx, ecx
	sub	eax, edx
	jo	LBB29_152
	add	eax, 7
	jo	LBB29_153
LBB29_43:
	cdqe
	imul	rcx, rax, -1840700269
	shr	rcx, 32
	add	eax, ecx
	mov	ecx, eax
	shr	ecx, 31
	sar	eax, 2
	add	eax, ecx
	jmp	LBB29_104
LBB29_44:
	add	rbx, 12
	jmp	LBB29_80
LBB29_45:
	add	rbx, 8
	jmp	LBB29_68
LBB29_46:
	mov	rdi, r14
	mov	esi, 72
	mov	rdx, rbx
	call	__ZN4time7display10parse_type17hae8f2ae3248877acE
	mov	r15b, 1
	test	al, al
	jne	LBB29_111
	lea	rsi, [rip + l___unnamed_30]
	mov	edx, 1
	mov	rdi, r14
	call	__ZN4core3fmt9Formatter9write_str17h957ea9717e49073dE
	test	al, al
	jne	LBB29_111
	mov	rdi, r14
	mov	esi, 77
	jmp	LBB29_75
LBB29_49:
	mov	eax, dword ptr [rbx + 16]
	inc	eax
	jo	LBB29_154
	mov	dword ptr [rbp - 88], eax
	jmp	LBB29_105
LBB29_51:
	mov	rdi, r14
	mov	esi, 89
	mov	rdx, rbx
	call	__ZN4time7display10parse_type17hae8f2ae3248877acE
	mov	r15b, 1
	test	al, al
	jne	LBB29_111
	lea	rsi, [rip + l___unnamed_43]
	mov	edx, 1
	mov	rdi, r14
	call	__ZN4core3fmt9Formatter9write_str17h957ea9717e49073dE
	test	al, al
	jne	LBB29_111
	mov	rdi, r14
	mov	esi, 109
	mov	rdx, rbx
	call	__ZN4time7display10parse_type17hae8f2ae3248877acE
	test	al, al
	jne	LBB29_111
	lea	rsi, [rip + l___unnamed_43]
	mov	edx, 1
	mov	rdi, r14
	call	__ZN4core3fmt9Formatter9write_str17h957ea9717e49073dE
	test	al, al
	jne	LBB29_111
	mov	rdi, r14
	mov	esi, 100
	jmp	LBB29_75
LBB29_56:
	mov	edx, dword ptr [rbx + 20]
	mov	ecx, dword ptr [rbx + 24]
	mov	r8d, dword ptr [rbx + 28]
	mov	rdi, r14
	mov	esi, 71
LBB29_57:
	add	rsp, 120
	pop	rbx
	pop	r14
	pop	r15
	pop	rbp
	jmp	__ZN4time7display8iso_week17h0f13c34c76728ea5E
LBB29_58:
	mov	eax, dword ptr [rbx + 8]
	test	eax, eax
	mov	ecx, 12
	cmovne	ecx, eax
	lea	eax, [rcx - 12]
	cmp	ecx, 12
	cmovle	eax, ecx
	mov	dword ptr [rbp - 88], eax
	jmp	LBB29_105
LBB29_59:
	mov	eax, dword ptr [rbx + 24]
	cmp	rax, 6
	ja	LBB29_155
	lea	rsi, [rip + l___unnamed_44]
	mov	edx, 6
	lea	rcx, [rip + LJTI29_4]
	movsxd	rax, dword ptr [rcx + 4*rax]
	add	rax, rcx
	jmp	rax
LBB29_61:
	lea	rsi, [rip + l___unnamed_45]
	jmp	LBB29_145
LBB29_62:
	mov	eax, 1900
	add	eax, dword ptr [rbx + 20]
	jo	LBB29_156
	cdqe
	imul	rax, rax, 1374389535
	mov	rcx, rax
	shr	rcx, 63
	sar	rax, 37
	add	eax, ecx
	jmp	LBB29_104
LBB29_64:
	lea	rsi, [rip + l___unnamed_46]
	mov	edx, 1
	jmp	LBB29_145
LBB29_65:
	mov	qword ptr [rbp - 136], rbx
	mov	qword ptr [rbp - 128], 1
	lea	rax, [rbp - 136]
	mov	qword ptr [rbp - 88], rax
	lea	rax, [rip + __ZN4time7display60_$LT$impl$u20$core..fmt..Display$u20$for$u20$time..TmFmt$GT$3fmt17hf577ccfc1056199fE]
LBB29_66:
	mov	qword ptr [rbp - 80], rax
	lea	rax, [rip + l___unnamed_23]
	mov	qword ptr [rbp - 72], rax
	mov	qword ptr [rbp - 64], 1
	mov	qword ptr [rbp - 56], 0
	lea	rax, [rbp - 88]
	jmp	LBB29_109
LBB29_67:
	add	rbx, 4
LBB29_68:
	mov	qword ptr [rbp - 136], rbx
	jmp	LBB29_106
LBB29_69:
	mov	rdi, r14
	mov	esi, 101
	mov	rdx, rbx
	call	__ZN4time7display10parse_type17hae8f2ae3248877acE
	mov	r15b, 1
	test	al, al
	jne	LBB29_111
	lea	rsi, [rip + l___unnamed_43]
	mov	edx, 1
	mov	rdi, r14
	call	__ZN4core3fmt9Formatter9write_str17h957ea9717e49073dE
	test	al, al
	jne	LBB29_111
	mov	rdi, r14
	mov	esi, 98
	mov	rdx, rbx
	call	__ZN4time7display10parse_type17hae8f2ae3248877acE
	test	al, al
	jne	LBB29_111
	lea	rsi, [rip + l___unnamed_43]
LBB29_73:
	mov	edx, 1
	mov	rdi, r14
	call	__ZN4core3fmt9Formatter9write_str17h957ea9717e49073dE
	test	al, al
	jne	LBB29_111
	mov	rdi, r14
	mov	esi, 89
LBB29_75:
	mov	rdx, rbx
	add	rsp, 120
	pop	rbx
	pop	r14
	pop	r15
	pop	rbp
	jmp	__ZN4time7display10parse_type17hae8f2ae3248877acE
LBB29_76:
	mov	eax, dword ptr [rbx + 16]
	cmp	rax, 11
	ja	LBB29_157
	lea	rsi, [rip + l___unnamed_47]
	mov	edx, 7
	lea	rcx, [rip + LJTI29_2]
	movsxd	rax, dword ptr [rcx + 4*rax]
	add	rax, rcx
	jmp	rax
LBB29_78:
	lea	rsi, [rip + L___unnamed_48]
	jmp	LBB29_144
LBB29_79:
	add	rbx, 8
LBB29_80:
	mov	qword ptr [rbp - 136], rbx
	jmp	LBB29_95
LBB29_81:
	cmp	dword ptr [rbx + 8], 12
	lea	rax, [rip + l___unnamed_49]
	lea	rsi, [rip + l___unnamed_50]
LBB29_82:
	cmovl	rsi, rax
	mov	edx, 2
	jmp	LBB29_145
LBB29_83:
	mov	rdi, r14
	mov	esi, 97
	mov	rdx, rbx
	call	__ZN4time7display10parse_type17hae8f2ae3248877acE
	mov	r15b, 1
	test	al, al
	jne	LBB29_111
	lea	rsi, [rip + l___unnamed_40]
	mov	edx, 1
	mov	rdi, r14
	call	__ZN4core3fmt9Formatter9write_str17h957ea9717e49073dE
	test	al, al
	jne	LBB29_111
	mov	rdi, r14
	mov	esi, 98
	mov	rdx, rbx
	call	__ZN4time7display10parse_type17hae8f2ae3248877acE
	test	al, al
	jne	LBB29_111
	lea	rsi, [rip + l___unnamed_40]
	mov	edx, 1
	mov	rdi, r14
	call	__ZN4core3fmt9Formatter9write_str17h957ea9717e49073dE
	test	al, al
	jne	LBB29_111
	mov	rdi, r14
	mov	esi, 101
	mov	rdx, rbx
	call	__ZN4time7display10parse_type17hae8f2ae3248877acE
	test	al, al
	jne	LBB29_111
	lea	rsi, [rip + l___unnamed_40]
	mov	edx, 1
	mov	rdi, r14
	call	__ZN4core3fmt9Formatter9write_str17h957ea9717e49073dE
	test	al, al
	jne	LBB29_111
	mov	rdi, r14
	mov	esi, 84
	mov	rdx, rbx
	call	__ZN4time7display10parse_type17hae8f2ae3248877acE
	test	al, al
	jne	LBB29_111
	lea	rsi, [rip + l___unnamed_40]
	jmp	LBB29_73
LBB29_91:
	add	rbx, 24
	mov	qword ptr [rbp - 136], rbx
	jmp	LBB29_101
LBB29_92:
	mov	eax, dword ptr [rbx + 28]
	inc	eax
	jo	LBB29_158
	mov	dword ptr [rbp - 88], eax
	lea	rax, [rbp - 88]
	mov	qword ptr [rbp - 136], rax
	mov	rax, qword ptr [rip + __ZN4core3fmt3num3imp52_$LT$impl$u20$core..fmt..Display$u20$for$u20$i32$GT$3fmt17he2ccc2060d52a2ceE@GOTPCREL]
	mov	qword ptr [rbp - 128], rax
	lea	rax, [rip + l___unnamed_23]
	mov	qword ptr [rbp - 72], rax
	mov	qword ptr [rbp - 64], 1
	lea	rax, [rip + l___unnamed_51]
	jmp	LBB29_107
LBB29_94:
	mov	eax, dword ptr [rbx + 8]
	test	eax, eax
	mov	ecx, 12
	cmovne	ecx, eax
	lea	eax, [rcx - 12]
	cmp	ecx, 12
	cmovle	eax, ecx
	mov	dword ptr [rbp - 88], eax
	lea	rax, [rbp - 88]
	mov	qword ptr [rbp - 136], rax
LBB29_95:
	mov	rax, qword ptr [rip + __ZN4core3fmt3num3imp52_$LT$impl$u20$core..fmt..Display$u20$for$u20$i32$GT$3fmt17he2ccc2060d52a2ceE@GOTPCREL]
	mov	qword ptr [rbp - 128], rax
	lea	rax, [rip + l___unnamed_23]
	mov	qword ptr [rbp - 72], rax
	mov	qword ptr [rbp - 64], 1
	lea	rax, [rip + l___unnamed_52]
	jmp	LBB29_107
LBB29_96:
	mov	eax, 1900
	add	eax, dword ptr [rbx + 20]
	jo	LBB29_159
	mov	dword ptr [rbp - 88], eax
	jmp	LBB29_100
LBB29_98:
	xor	eax, eax
	cmp	dword ptr [rbx + 36], 0
	sete	al
	lea	rcx, [rip + l___unnamed_53]
	lea	rsi, [rip + l___unnamed_54]
	cmove	rsi, rcx
	lea	rdx, [rax + 2*rax]
	jmp	LBB29_145
LBB29_99:
	mov	eax, dword ptr [rbx + 24]
	test	eax, eax
	mov	ecx, 7
	cmovne	ecx, eax
	mov	dword ptr [rbp - 88], ecx
LBB29_100:
	lea	rax, [rbp - 88]
	mov	qword ptr [rbp - 136], rax
LBB29_101:
	mov	rax, qword ptr [rip + __ZN4core3fmt3num3imp52_$LT$impl$u20$core..fmt..Display$u20$for$u20$i32$GT$3fmt17he2ccc2060d52a2ceE@GOTPCREL]
	mov	qword ptr [rbp - 128], rax
	lea	rax, [rip + l___unnamed_23]
	mov	qword ptr [rbp - 72], rax
	mov	qword ptr [rbp - 64], 1
	mov	qword ptr [rbp - 56], 0
	jmp	LBB29_108
LBB29_102:
	mov	eax, 1900
	add	eax, dword ptr [rbx + 20]
	jo	LBB29_160
	cdqe
	imul	rcx, rax, 1374389535
	mov	rdx, rcx
	shr	rdx, 63
	sar	rcx, 37
	add	ecx, edx
	imul	ecx, ecx, 100
	sub	eax, ecx
LBB29_104:
	mov	dword ptr [rbp - 88], eax
LBB29_105:
	lea	rax, [rbp - 88]
	mov	qword ptr [rbp - 136], rax
LBB29_106:
	mov	rax, qword ptr [rip + __ZN4core3fmt3num3imp52_$LT$impl$u20$core..fmt..Display$u20$for$u20$i32$GT$3fmt17he2ccc2060d52a2ceE@GOTPCREL]
	mov	qword ptr [rbp - 128], rax
	lea	rax, [rip + l___unnamed_23]
	mov	qword ptr [rbp - 72], rax
	mov	qword ptr [rbp - 64], 1
	lea	rax, [rip + l___unnamed_24]
LBB29_107:
	mov	qword ptr [rbp - 56], rax
	mov	qword ptr [rbp - 48], 1
LBB29_108:
	lea	rax, [rbp - 136]
LBB29_109:
	mov	qword ptr [rbp - 40], rax
	mov	qword ptr [rbp - 32], 1
	lea	rsi, [rbp - 72]
LBB29_110:
	mov	rdi, r14
	call	__ZN4core3fmt9Formatter9write_fmt17h3dc2bf45afed3069E
	mov	r15d, eax
LBB29_111:
	mov	eax, r15d
	add	rsp, 120
	pop	rbx
	pop	r14
	pop	r15
	pop	rbp
	ret
LBB29_112:
	lea	rsi, [rip + l___unnamed_55]
	mov	edx, 1
	jmp	LBB29_145
LBB29_135:
	lea	rsi, [rip + l___unnamed_56]
	mov	edx, 3
	jmp	LBB29_145
LBB29_113:
	lea	rsi, [rip + l___unnamed_57]
	mov	edx, 3
	jmp	LBB29_145
LBB29_115:
	lea	rsi, [rip + l___unnamed_58]
	mov	edx, 3
	jmp	LBB29_145
LBB29_116:
	lea	rsi, [rip + l___unnamed_59]
	mov	edx, 3
	jmp	LBB29_145
LBB29_117:
	lea	rsi, [rip + l___unnamed_60]
	mov	edx, 3
	jmp	LBB29_145
LBB29_118:
	lea	rsi, [rip + l___unnamed_61]
	mov	edx, 3
	jmp	LBB29_145
LBB29_119:
	lea	rsi, [rip + l___unnamed_62]
	mov	edx, 3
	jmp	LBB29_145
LBB29_120:
	lea	rsi, [rip + l___unnamed_63]
	mov	edx, 3
	jmp	LBB29_145
LBB29_121:
	lea	rsi, [rip + l___unnamed_64]
	mov	edx, 3
	jmp	LBB29_145
LBB29_122:
	lea	rsi, [rip + l___unnamed_65]
	mov	edx, 3
	jmp	LBB29_145
LBB29_123:
	lea	rsi, [rip + l___unnamed_66]
	mov	edx, 3
	jmp	LBB29_145
LBB29_124:
	lea	rsi, [rip + l___unnamed_67]
	mov	edx, 3
	jmp	LBB29_145
LBB29_125:
	lea	rsi, [rip + l___unnamed_68]
	mov	edx, 3
	jmp	LBB29_145
LBB29_126:
	lea	rsi, [rip + l___unnamed_69]
	mov	edx, 3
	jmp	LBB29_145
LBB29_127:
	lea	rsi, [rip + l___unnamed_70]
LBB29_128:
	mov	edx, 3
	jmp	LBB29_145
LBB29_129:
	lea	rsi, [rip + L___unnamed_71]
	jmp	LBB29_144
LBB29_130:
	lea	rsi, [rip + l___unnamed_72]
	mov	edx, 7
	jmp	LBB29_145
LBB29_131:
	lea	rsi, [rip + l___unnamed_73]
	mov	edx, 9
	jmp	LBB29_145
LBB29_132:
	lea	rsi, [rip + l___unnamed_74]
	jmp	LBB29_145
LBB29_133:
	lea	rsi, [rip + L___unnamed_75]
	jmp	LBB29_144
LBB29_134:
	lea	rsi, [rip + L___unnamed_76]
	jmp	LBB29_144
LBB29_136:
	lea	rsi, [rip + l___unnamed_77]
	jmp	LBB29_145
LBB29_137:
	lea	rsi, [rip + l___unnamed_78]
	mov	edx, 5
	jmp	LBB29_145
LBB29_138:
	lea	rsi, [rip + l___unnamed_79]
	mov	edx, 5
	jmp	LBB29_145
LBB29_139:
	lea	rsi, [rip + l___unnamed_80]
	mov	edx, 6
	jmp	LBB29_145
LBB29_140:
	lea	rsi, [rip + L___unnamed_81]
	mov	edx, 4
	jmp	LBB29_145
LBB29_141:
	lea	rsi, [rip + L___unnamed_82]
	mov	edx, 4
	jmp	LBB29_145
LBB29_142:
	lea	rsi, [rip + l___unnamed_83]
	mov	edx, 9
	jmp	LBB29_145
LBB29_143:
	lea	rsi, [rip + L___unnamed_84]
LBB29_144:
	mov	edx, 8
LBB29_145:
	mov	rdi, r14
	add	rsp, 120
	pop	rbx
	pop	r14
	pop	r15
	pop	rbp
	jmp	__ZN4core3fmt9Formatter9write_str17h957ea9717e49073dE
LBB29_146:
	lea	rdi, [rip + l___unnamed_85]
	lea	rdx, [rip + l___unnamed_86]
	mov	esi, 40
	call	__ZN3std9panicking11begin_panic17h747b3a393d9a2f04E
LBB29_147:
	lea	rdi, [rip + l___unnamed_85]
	lea	rdx, [rip + l___unnamed_87]
	mov	esi, 40
	call	__ZN3std9panicking11begin_panic17h747b3a393d9a2f04E
LBB29_148:
	lea	rdi, [rip + l___unnamed_85]
	lea	rdx, [rip + l___unnamed_88]
	mov	esi, 40
	call	__ZN3std9panicking11begin_panic17h747b3a393d9a2f04E
LBB29_149:
	lea	rdi, [rip + _str.0]
	lea	rdx, [rip + l___unnamed_89]
	mov	esi, 33
	call	__ZN4core9panicking5panic17h736ee47a631475c0E
LBB29_150:
	lea	rdi, [rip + _str.0]
	lea	rdx, [rip + l___unnamed_90]
	mov	esi, 33
	call	__ZN4core9panicking5panic17h736ee47a631475c0E
LBB29_151:
	lea	rdi, [rip + _str.5]
	lea	rdx, [rip + l___unnamed_91]
	mov	esi, 28
	call	__ZN4core9panicking5panic17h736ee47a631475c0E
LBB29_152:
	lea	rdi, [rip + _str.0]
	lea	rdx, [rip + l___unnamed_92]
	mov	esi, 33
	call	__ZN4core9panicking5panic17h736ee47a631475c0E
LBB29_153:
	lea	rdi, [rip + _str.5]
	lea	rdx, [rip + l___unnamed_93]
	mov	esi, 28
	call	__ZN4core9panicking5panic17h736ee47a631475c0E
LBB29_154:
	lea	rdi, [rip + _str.5]
	lea	rdx, [rip + l___unnamed_94]
	mov	esi, 28
	call	__ZN4core9panicking5panic17h736ee47a631475c0E
LBB29_155:
	lea	rdi, [rip + l___unnamed_85]
	lea	rdx, [rip + l___unnamed_95]
	mov	esi, 40
	call	__ZN3std9panicking11begin_panic17h747b3a393d9a2f04E
LBB29_156:
	lea	rdi, [rip + _str.5]
	lea	rdx, [rip + l___unnamed_96]
	mov	esi, 28
	call	__ZN4core9panicking5panic17h736ee47a631475c0E
LBB29_157:
	lea	rdi, [rip + l___unnamed_85]
	lea	rdx, [rip + l___unnamed_97]
	mov	esi, 40
	call	__ZN3std9panicking11begin_panic17h747b3a393d9a2f04E
LBB29_158:
	lea	rdi, [rip + _str.5]
	lea	rdx, [rip + l___unnamed_98]
	mov	esi, 28
	call	__ZN4core9panicking5panic17h736ee47a631475c0E
LBB29_159:
	lea	rdi, [rip + _str.5]
	lea	rdx, [rip + l___unnamed_99]
	mov	esi, 28
	call	__ZN4core9panicking5panic17h736ee47a631475c0E
LBB29_160:
	lea	rdi, [rip + _str.5]
	lea	rdx, [rip + l___unnamed_100]
	mov	esi, 28
	call	__ZN4core9panicking5panic17h736ee47a631475c0E
LBB29_161:
	lea	rdi, [rip + _str.6]
	lea	rdx, [rip + l___unnamed_19]
	mov	esi, 31
	call	__ZN4core9panicking5panic17h736ee47a631475c0E
	.cfi_endproc
	.p2align	2, 0x90
	.data_region jt32
.set L29_0_set_64, LBB29_64-LJTI29_0
.set L29_0_set_146, LBB29_146-LJTI29_0
.set L29_0_set_65, LBB29_65-LJTI29_0
.set L29_0_set_59, LBB29_59-LJTI29_0
.set L29_0_set_76, LBB29_76-LJTI29_0
.set L29_0_set_62, LBB29_62-LJTI29_0
.set L29_0_set_2, LBB29_2-LJTI29_0
.set L29_0_set_51, LBB29_51-LJTI29_0
.set L29_0_set_56, LBB29_56-LJTI29_0
.set L29_0_set_45, LBB29_45-LJTI29_0
.set L29_0_set_58, LBB29_58-LJTI29_0
.set L29_0_set_67, LBB29_67-LJTI29_0
.set L29_0_set_81, LBB29_81-LJTI29_0
.set L29_0_set_46, LBB29_46-LJTI29_0
.set L29_0_set_68, LBB29_68-LJTI29_0
.set L29_0_set_7, LBB29_7-LJTI29_0
.set L29_0_set_34, LBB29_34-LJTI29_0
.set L29_0_set_33, LBB29_33-LJTI29_0
.set L29_0_set_39, LBB29_39-LJTI29_0
.set L29_0_set_96, LBB29_96-LJTI29_0
.set L29_0_set_98, LBB29_98-LJTI29_0
.set L29_0_set_22, LBB29_22-LJTI29_0
.set L29_0_set_12, LBB29_12-LJTI29_0
.set L29_0_set_83, LBB29_83-LJTI29_0
.set L29_0_set_37, LBB29_37-LJTI29_0
.set L29_0_set_44, LBB29_44-LJTI29_0
.set L29_0_set_20, LBB29_20-LJTI29_0
.set L29_0_set_15, LBB29_15-LJTI29_0
.set L29_0_set_92, LBB29_92-LJTI29_0
.set L29_0_set_79, LBB29_79-LJTI29_0
.set L29_0_set_94, LBB29_94-LJTI29_0
.set L29_0_set_49, LBB29_49-LJTI29_0
.set L29_0_set_38, LBB29_38-LJTI29_0
.set L29_0_set_25, LBB29_25-LJTI29_0
.set L29_0_set_26, LBB29_26-LJTI29_0
.set L29_0_set_21, LBB29_21-LJTI29_0
.set L29_0_set_112, LBB29_112-LJTI29_0
.set L29_0_set_99, LBB29_99-LJTI29_0
.set L29_0_set_69, LBB29_69-LJTI29_0
.set L29_0_set_91, LBB29_91-LJTI29_0
.set L29_0_set_102, LBB29_102-LJTI29_0
.set L29_0_set_16, LBB29_16-LJTI29_0
LJTI29_0:
	.long	L29_0_set_64
	.long	L29_0_set_146
	.long	L29_0_set_146
	.long	L29_0_set_146
	.long	L29_0_set_146
	.long	L29_0_set_146
	.long	L29_0_set_65
	.long	L29_0_set_146
	.long	L29_0_set_146
	.long	L29_0_set_146
	.long	L29_0_set_146
	.long	L29_0_set_146
	.long	L29_0_set_146
	.long	L29_0_set_146
	.long	L29_0_set_146
	.long	L29_0_set_146
	.long	L29_0_set_146
	.long	L29_0_set_146
	.long	L29_0_set_146
	.long	L29_0_set_146
	.long	L29_0_set_146
	.long	L29_0_set_146
	.long	L29_0_set_146
	.long	L29_0_set_146
	.long	L29_0_set_146
	.long	L29_0_set_146
	.long	L29_0_set_146
	.long	L29_0_set_146
	.long	L29_0_set_59
	.long	L29_0_set_76
	.long	L29_0_set_62
	.long	L29_0_set_2
	.long	L29_0_set_146
	.long	L29_0_set_51
	.long	L29_0_set_56
	.long	L29_0_set_45
	.long	L29_0_set_58
	.long	L29_0_set_146
	.long	L29_0_set_146
	.long	L29_0_set_146
	.long	L29_0_set_67
	.long	L29_0_set_146
	.long	L29_0_set_146
	.long	L29_0_set_81
	.long	L29_0_set_146
	.long	L29_0_set_46
	.long	L29_0_set_68
	.long	L29_0_set_7
	.long	L29_0_set_34
	.long	L29_0_set_33
	.long	L29_0_set_39
	.long	L29_0_set_7
	.long	L29_0_set_96
	.long	L29_0_set_98
	.long	L29_0_set_146
	.long	L29_0_set_146
	.long	L29_0_set_146
	.long	L29_0_set_146
	.long	L29_0_set_146
	.long	L29_0_set_146
	.long	L29_0_set_22
	.long	L29_0_set_12
	.long	L29_0_set_83
	.long	L29_0_set_37
	.long	L29_0_set_44
	.long	L29_0_set_20
	.long	L29_0_set_15
	.long	L29_0_set_12
	.long	L29_0_set_146
	.long	L29_0_set_92
	.long	L29_0_set_79
	.long	L29_0_set_94
	.long	L29_0_set_49
	.long	L29_0_set_38
	.long	L29_0_set_146
	.long	L29_0_set_25
	.long	L29_0_set_146
	.long	L29_0_set_26
	.long	L29_0_set_21
	.long	L29_0_set_112
	.long	L29_0_set_99
	.long	L29_0_set_69
	.long	L29_0_set_91
	.long	L29_0_set_2
	.long	L29_0_set_102
	.long	L29_0_set_16
.set L29_1_set_128, LBB29_128-LJTI29_1
.set L29_1_set_14, LBB29_14-LJTI29_1
.set L29_1_set_116, LBB29_116-LJTI29_1
.set L29_1_set_117, LBB29_117-LJTI29_1
.set L29_1_set_135, LBB29_135-LJTI29_1
.set L29_1_set_119, LBB29_119-LJTI29_1
.set L29_1_set_120, LBB29_120-LJTI29_1
.set L29_1_set_118, LBB29_118-LJTI29_1
.set L29_1_set_121, LBB29_121-LJTI29_1
.set L29_1_set_115, LBB29_115-LJTI29_1
.set L29_1_set_122, LBB29_122-LJTI29_1
.set L29_1_set_113, LBB29_113-LJTI29_1
LJTI29_1:
	.long	L29_1_set_128
	.long	L29_1_set_14
	.long	L29_1_set_116
	.long	L29_1_set_117
	.long	L29_1_set_135
	.long	L29_1_set_119
	.long	L29_1_set_120
	.long	L29_1_set_118
	.long	L29_1_set_121
	.long	L29_1_set_115
	.long	L29_1_set_122
	.long	L29_1_set_113
.set L29_2_set_145, LBB29_145-LJTI29_2
.set L29_2_set_78, LBB29_78-LJTI29_2
.set L29_2_set_137, LBB29_137-LJTI29_2
.set L29_2_set_138, LBB29_138-LJTI29_2
.set L29_2_set_135, LBB29_135-LJTI29_2
.set L29_2_set_140, LBB29_140-LJTI29_2
.set L29_2_set_141, LBB29_141-LJTI29_2
.set L29_2_set_139, LBB29_139-LJTI29_2
.set L29_2_set_142, LBB29_142-LJTI29_2
.set L29_2_set_136, LBB29_136-LJTI29_2
.set L29_2_set_143, LBB29_143-LJTI29_2
.set L29_2_set_134, LBB29_134-LJTI29_2
LJTI29_2:
	.long	L29_2_set_145
	.long	L29_2_set_78
	.long	L29_2_set_137
	.long	L29_2_set_138
	.long	L29_2_set_135
	.long	L29_2_set_140
	.long	L29_2_set_141
	.long	L29_2_set_139
	.long	L29_2_set_142
	.long	L29_2_set_136
	.long	L29_2_set_143
	.long	L29_2_set_134
.set L29_3_set_128, LBB29_128-LJTI29_3
.set L29_3_set_24, LBB29_24-LJTI29_3
.set L29_3_set_124, LBB29_124-LJTI29_3
.set L29_3_set_125, LBB29_125-LJTI29_3
.set L29_3_set_123, LBB29_123-LJTI29_3
.set L29_3_set_126, LBB29_126-LJTI29_3
.set L29_3_set_127, LBB29_127-LJTI29_3
LJTI29_3:
	.long	L29_3_set_128
	.long	L29_3_set_24
	.long	L29_3_set_124
	.long	L29_3_set_125
	.long	L29_3_set_123
	.long	L29_3_set_126
	.long	L29_3_set_127
.set L29_4_set_145, LBB29_145-LJTI29_4
.set L29_4_set_61, LBB29_61-LJTI29_4
.set L29_4_set_130, LBB29_130-LJTI29_4
.set L29_4_set_131, LBB29_131-LJTI29_4
.set L29_4_set_129, LBB29_129-LJTI29_4
.set L29_4_set_132, LBB29_132-LJTI29_4
.set L29_4_set_133, LBB29_133-LJTI29_4
LJTI29_4:
	.long	L29_4_set_145
	.long	L29_4_set_61
	.long	L29_4_set_130
	.long	L29_4_set_131
	.long	L29_4_set_129
	.long	L29_4_set_132
	.long	L29_4_set_133
	.end_data_region

	.globl	__ZN4time8duration8Duration8num_days17h69798afaadd9f056E
	.p2align	4, 0x90
__ZN4time8duration8Duration8num_days17h69798afaadd9f056E:
	.cfi_startproc
	push	rbp
	.cfi_def_cfa_offset 16
	.cfi_offset rbp, -16
	mov	rbp, rsp
	.cfi_def_cfa_register rbp
	mov	rax, qword ptr [rdi]
	test	rax, rax
	jns	LBB30_2
	xor	ecx, ecx
	cmp	dword ptr [rdi + 8], 0
	setg	cl
	add	rax, rcx
LBB30_2:
	movabs	rcx, 1749024623285053783
	imul	rcx
	mov	rax, rdx
	shr	rax, 63
	sar	rdx, 13
	add	rax, rdx
	pop	rbp
	ret
	.cfi_endproc

	.globl	__ZN4time8duration8Duration11num_seconds17h285426be6fea439fE
	.p2align	4, 0x90
__ZN4time8duration8Duration11num_seconds17h285426be6fea439fE:
	.cfi_startproc
	push	rbp
	.cfi_def_cfa_offset 16
	.cfi_offset rbp, -16
	mov	rbp, rsp
	.cfi_def_cfa_register rbp
	mov	rax, qword ptr [rdi]
	test	rax, rax
	js	LBB31_1
	pop	rbp
	ret
LBB31_1:
	xor	ecx, ecx
	cmp	dword ptr [rdi + 8], 0
	setg	cl
	add	rax, rcx
	pop	rbp
	ret
	.cfi_endproc

	.globl	__ZN4time8duration8Duration16num_milliseconds17h41028e31bf71d5b5E
	.p2align	4, 0x90
__ZN4time8duration8Duration16num_milliseconds17h41028e31bf71d5b5E:
	.cfi_startproc
	push	rbp
	.cfi_def_cfa_offset 16
	.cfi_offset rbp, -16
	mov	rbp, rsp
	.cfi_def_cfa_register rbp
	mov	rcx, qword ptr [rdi]
	mov	rax, rcx
	test	rcx, rcx
	jns	LBB32_2
	xor	eax, eax
	cmp	dword ptr [rdi + 8], 0
	setg	al
	add	rax, rcx
LBB32_2:
	imul	rax, rax, 1000
	jo	LBB32_5
	mov	edx, dword ptr [rdi + 8]
	lea	esi, [rdx - 1000000000]
	test	edx, edx
	cmovle	esi, edx
	test	rcx, rcx
	cmovns	esi, edx
	movsxd	rcx, esi
	imul	rcx, rcx, 1125899907
	mov	rdx, rcx
	shr	rdx, 63
	sar	rcx, 50
	add	ecx, edx
	movsxd	rcx, ecx
	add	rax, rcx
	jo	LBB32_6
	pop	rbp
	ret
LBB32_5:
	lea	rdi, [rip + _str.3]
	lea	rdx, [rip + l___unnamed_101]
	mov	esi, 33
	call	__ZN4core9panicking5panic17h736ee47a631475c0E
LBB32_6:
	lea	rdi, [rip + _str.5]
	lea	rdx, [rip + l___unnamed_102]
	mov	esi, 28
	call	__ZN4core9panicking5panic17h736ee47a631475c0E
	.cfi_endproc

	.globl	__ZN4time8duration8Duration16num_microseconds17h0e02846392d16016E
	.p2align	4, 0x90
__ZN4time8duration8Duration16num_microseconds17h0e02846392d16016E:
	.cfi_startproc
	push	rbp
	.cfi_def_cfa_offset 16
	.cfi_offset rbp, -16
	mov	rbp, rsp
	.cfi_def_cfa_register rbp
	mov	rax, qword ptr [rdi]
	mov	rcx, rax
	test	rax, rax
	js	LBB33_1
	imul	rdx, rcx, 1000000
	jno	LBB33_4
LBB33_3:
	xor	eax, eax
	pop	rbp
	ret
LBB33_1:
	xor	ecx, ecx
	cmp	dword ptr [rdi + 8], 0
	setg	cl
	add	rcx, rax
	imul	rdx, rcx, 1000000
	jo	LBB33_3
LBB33_4:
	mov	ecx, dword ptr [rdi + 8]
	lea	esi, [rcx - 1000000000]
	test	ecx, ecx
	cmovle	esi, ecx
	test	rax, rax
	cmovns	esi, ecx
	movsxd	rax, esi
	imul	rax, rax, 274877907
	mov	rcx, rax
	shr	rcx, 63
	sar	rax, 38
	add	eax, ecx
	movsxd	rcx, eax
	xor	eax, eax
	add	rdx, rcx
	setno	al
	pop	rbp
	ret
	.cfi_endproc

	.globl	__ZN4time8duration8Duration15num_nanoseconds17hadcf2d3da16593faE
	.p2align	4, 0x90
__ZN4time8duration8Duration15num_nanoseconds17hadcf2d3da16593faE:
	.cfi_startproc
	push	rbp
	.cfi_def_cfa_offset 16
	.cfi_offset rbp, -16
	mov	rbp, rsp
	.cfi_def_cfa_register rbp
	mov	rax, qword ptr [rdi]
	mov	rcx, rax
	test	rax, rax
	js	LBB34_1
	imul	rdx, rcx, 1000000000
	jno	LBB34_4
LBB34_3:
	xor	eax, eax
	pop	rbp
	ret
LBB34_1:
	xor	ecx, ecx
	cmp	dword ptr [rdi + 8], 0
	setg	cl
	add	rcx, rax
	imul	rdx, rcx, 1000000000
	jo	LBB34_3
LBB34_4:
	mov	ecx, dword ptr [rdi + 8]
	lea	esi, [rcx - 1000000000]
	test	ecx, ecx
	cmovle	esi, ecx
	test	rax, rax
	cmovns	esi, ecx
	movsxd	rcx, esi
	xor	eax, eax
	add	rdx, rcx
	setno	al
	pop	rbp
	ret
	.cfi_endproc

	.globl	__ZN4time8duration8Duration11checked_add17heab851b589141c51E
	.p2align	4, 0x90
__ZN4time8duration8Duration11checked_add17heab851b589141c51E:
	.cfi_startproc
	push	rbp
	.cfi_def_cfa_offset 16
	.cfi_offset rbp, -16
	mov	rbp, rsp
	.cfi_def_cfa_register rbp
	mov	rax, rdi
	mov	rcx, qword ptr [rsi]
	add	rcx, qword ptr [rdx]
	jno	LBB35_1
LBB35_13:
	xor	ecx, ecx
	mov	qword ptr [rax], rcx
	pop	rbp
	ret
LBB35_1:
	mov	esi, dword ptr [rsi + 8]
	add	esi, dword ptr [rdx + 8]
	jo	LBB35_12
	cmp	esi, 1000000000
	jl	LBB35_5
	inc	rcx
	jo	LBB35_13
	add	esi, -1000000000
LBB35_5:
	movabs	rdx, -9223372036854776
	xor	edi, edi
	cmp	rcx, rdx
	setne	dil
	mov	edx, 255
	cmovge	edx, edi
	cmp	dl, -1
	je	LBB35_13
	test	dl, dl
	jne	LBB35_8
	cmp	esi, 192000000
	jl	LBB35_13
LBB35_8:
	movabs	rdx, 9223372036854775
	xor	edi, edi
	cmp	rcx, rdx
	setne	dil
	mov	edx, 255
	cmovge	edx, edi
	test	dl, dl
	jne	LBB35_10
	cmp	esi, 807000000
	setne	dl
	jl	LBB35_11
LBB35_10:
	cmp	dl, 1
	je	LBB35_13
LBB35_11:
	mov	qword ptr [rax + 8], rcx
	mov	dword ptr [rax + 16], esi
	mov	ecx, 1
	mov	qword ptr [rax], rcx
	pop	rbp
	ret
LBB35_12:
	lea	rdi, [rip + _str.5]
	lea	rdx, [rip + l___unnamed_103]
	mov	esi, 28
	call	__ZN4core9panicking5panic17h736ee47a631475c0E
	.cfi_endproc

	.globl	__ZN4time8duration8Duration11checked_sub17hbe294dca313ea8afE
	.p2align	4, 0x90
__ZN4time8duration8Duration11checked_sub17hbe294dca313ea8afE:
	.cfi_startproc
	push	rbp
	.cfi_def_cfa_offset 16
	.cfi_offset rbp, -16
	mov	rbp, rsp
	.cfi_def_cfa_register rbp
	mov	rax, rdi
	mov	rcx, qword ptr [rsi]
	sub	rcx, qword ptr [rdx]
	jo	LBB36_13
	mov	esi, dword ptr [rsi + 8]
	sub	esi, dword ptr [rdx + 8]
	jo	LBB36_12
	test	esi, esi
	jns	LBB36_5
	dec	rcx
	jo	LBB36_13
	add	esi, 1000000000
LBB36_5:
	movabs	rdx, -9223372036854776
	xor	edi, edi
	cmp	rcx, rdx
	setne	dil
	mov	edx, 255
	cmovge	edx, edi
	cmp	dl, -1
	je	LBB36_13
	test	dl, dl
	jne	LBB36_8
	cmp	esi, 192000000
	jl	LBB36_13
LBB36_8:
	movabs	rdx, 9223372036854775
	xor	edi, edi
	cmp	rcx, rdx
	setne	dil
	mov	edx, 255
	cmovge	edx, edi
	test	dl, dl
	jne	LBB36_10
	cmp	esi, 807000000
	setne	dl
	jl	LBB36_11
LBB36_10:
	cmp	dl, 1
	jne	LBB36_11
LBB36_13:
	xor	ecx, ecx
	mov	qword ptr [rax], rcx
	pop	rbp
	ret
LBB36_11:
	mov	qword ptr [rax + 8], rcx
	mov	dword ptr [rax + 16], esi
	mov	ecx, 1
	mov	qword ptr [rax], rcx
	pop	rbp
	ret
LBB36_12:
	lea	rdi, [rip + _str.0]
	lea	rdx, [rip + l___unnamed_104]
	mov	esi, 33
	call	__ZN4core9panicking5panic17h736ee47a631475c0E
	.cfi_endproc

	.globl	__ZN4time8duration8Duration8from_std17h031899658a72f952E
	.p2align	4, 0x90
__ZN4time8duration8Duration8from_std17h031899658a72f952E:
	.cfi_startproc
	push	rbp
	.cfi_def_cfa_offset 16
	.cfi_offset rbp, -16
	mov	rbp, rsp
	.cfi_def_cfa_register rbp
	mov	rax, rdi
	movabs	rdi, 9223372036854775
	mov	ecx, 1
	cmp	rsi, rdi
	ja	LBB37_4
	jne	LBB37_3
	cmp	edx, 807000000
	jle	LBB37_3
LBB37_4:
	mov	qword ptr [rax], rcx
	pop	rbp
	ret
LBB37_3:
	mov	qword ptr [rax + 8], rsi
	mov	dword ptr [rax + 16], edx
	xor	ecx, ecx
	mov	qword ptr [rax], rcx
	pop	rbp
	ret
	.cfi_endproc

	.globl	__ZN4time8duration8Duration6to_std17hdb7cbb1eda5ca3c3E
	.p2align	4, 0x90
__ZN4time8duration8Duration6to_std17hdb7cbb1eda5ca3c3E:
	.cfi_startproc
	push	rbp
	.cfi_def_cfa_offset 16
	.cfi_offset rbp, -16
	mov	rbp, rsp
	.cfi_def_cfa_register rbp
	mov	rax, rdi
	mov	rcx, qword ptr [rsi]
	test	rcx, rcx
	js	LBB38_1
	mov	edx, dword ptr [rsi + 8]
	mov	esi, edx
	shr	esi, 9
	imul	rsi, rsi, 281475
	shr	rsi, 39
	add	rcx, rsi
	imul	esi, esi, 1000000000
	sub	edx, esi
	mov	qword ptr [rax + 8], rcx
	mov	dword ptr [rax + 16], edx
	xor	ecx, ecx
	mov	qword ptr [rax], rcx
	pop	rbp
	ret
LBB38_1:
	mov	ecx, 1
	mov	qword ptr [rax], rcx
	pop	rbp
	ret
	.cfi_endproc

	.globl	__ZN66_$LT$time..duration..Duration$u20$as$u20$core..ops..arith..Add$GT$3add17h5df9b1bd5d039778E
	.p2align	4, 0x90
__ZN66_$LT$time..duration..Duration$u20$as$u20$core..ops..arith..Add$GT$3add17h5df9b1bd5d039778E:
	.cfi_startproc
	push	rbp
	.cfi_def_cfa_offset 16
	.cfi_offset rbp, -16
	mov	rbp, rsp
	.cfi_def_cfa_register rbp
	mov	r8, rdx
	mov	rax, rdi
	add	rax, rdx
	jo	LBB39_6
	mov	edx, esi
	add	edx, ecx
	jo	LBB39_7
	cmp	edx, 1000000000
	jl	LBB39_5
	inc	rax
	jo	LBB39_8
	add	edx, -1000000000
LBB39_5:
	pop	rbp
	ret
LBB39_6:
	lea	rdi, [rip + _str.5]
	lea	rdx, [rip + l___unnamed_105]
	mov	esi, 28
	call	__ZN4core9panicking5panic17h736ee47a631475c0E
LBB39_7:
	lea	rdi, [rip + _str.5]
	lea	rdx, [rip + l___unnamed_106]
	mov	esi, 28
	call	__ZN4core9panicking5panic17h736ee47a631475c0E
LBB39_8:
	lea	rdi, [rip + _str.5]
	lea	rdx, [rip + l___unnamed_107]
	mov	esi, 28
	call	__ZN4core9panicking5panic17h736ee47a631475c0E
	.cfi_endproc

	.globl	__ZN66_$LT$time..duration..Duration$u20$as$u20$core..ops..arith..Sub$GT$3sub17hda8c0f75c6f55ec9E
	.p2align	4, 0x90
__ZN66_$LT$time..duration..Duration$u20$as$u20$core..ops..arith..Sub$GT$3sub17hda8c0f75c6f55ec9E:
	.cfi_startproc
	push	rbp
	.cfi_def_cfa_offset 16
	.cfi_offset rbp, -16
	mov	rbp, rsp
	.cfi_def_cfa_register rbp
	mov	r8, rdx
	mov	rax, rdi
	sub	rax, rdx
	jo	LBB40_6
	mov	edx, esi
	sub	edx, ecx
	jo	LBB40_7
	test	edx, edx
	js	LBB40_3
	pop	rbp
	ret
LBB40_3:
	dec	rax
	jo	LBB40_8
	add	edx, 1000000000
	pop	rbp
	ret
LBB40_6:
	lea	rdi, [rip + _str.0]
	lea	rdx, [rip + l___unnamed_108]
	mov	esi, 33
	call	__ZN4core9panicking5panic17h736ee47a631475c0E
LBB40_7:
	lea	rdi, [rip + _str.0]
	lea	rdx, [rip + l___unnamed_109]
	mov	esi, 33
	call	__ZN4core9panicking5panic17h736ee47a631475c0E
LBB40_8:
	lea	rdi, [rip + _str.0]
	lea	rdx, [rip + l___unnamed_110]
	mov	esi, 33
	call	__ZN4core9panicking5panic17h736ee47a631475c0E
	.cfi_endproc

	.globl	__ZN77_$LT$time..duration..Duration$u20$as$u20$core..ops..arith..Mul$LT$i32$GT$$GT$3mul17h3b84f685f3515496E
	.p2align	4, 0x90
__ZN77_$LT$time..duration..Duration$u20$as$u20$core..ops..arith..Mul$LT$i32$GT$$GT$3mul17h3b84f685f3515496E:
	.cfi_startproc
	push	rbp
	.cfi_def_cfa_offset 16
	.cfi_offset rbp, -16
	mov	rbp, rsp
	.cfi_def_cfa_register rbp
	movsxd	r8, edx
	movsxd	rcx, esi
	imul	rcx, r8
	movabs	rdx, 1237940039285380275
	mov	rax, rcx
	imul	rdx
	mov	rax, rdi
	mov	rsi, rdx
	shr	rsi, 63
	sar	rdx, 26
	add	rdx, rsi
	imul	rdi, rdx, 1000000000
	mov	rsi, rcx
	sub	rsi, rdi
	neg	rdi
	test	rsi, rsi
	lea	rcx, [rcx + rdi + 1000000000]
	cmovns	rcx, rsi
	imul	rax, r8
	jo	LBB41_3
	sar	rsi, 63
	add	rsi, rdx
	add	rax, rsi
	jo	LBB41_4
	mov	edx, ecx
	pop	rbp
	ret
LBB41_3:
	lea	rdi, [rip + _str.3]
	lea	rdx, [rip + l___unnamed_111]
	mov	esi, 33
	call	__ZN4core9panicking5panic17h736ee47a631475c0E
LBB41_4:
	lea	rdi, [rip + _str.5]
	lea	rdx, [rip + l___unnamed_111]
	mov	esi, 28
	call	__ZN4core9panicking5panic17h736ee47a631475c0E
	.cfi_endproc

	.globl	__ZN77_$LT$time..duration..Duration$u20$as$u20$core..ops..arith..Div$LT$i32$GT$$GT$3div17h7dac2eb67018225dE
	.p2align	4, 0x90
__ZN77_$LT$time..duration..Duration$u20$as$u20$core..ops..arith..Div$LT$i32$GT$$GT$3div17h7dac2eb67018225dE:
	.cfi_startproc
	push	rbp
	.cfi_def_cfa_offset 16
	.cfi_offset rbp, -16
	mov	rbp, rsp
	.cfi_def_cfa_register rbp
	test	edx, edx
	je	LBB42_18
	mov	ecx, edx
	mov	r8d, esi
	movabs	r10, -9223372036854775808
	cmp	rdi, r10
	jne	LBB42_3
	cmp	ecx, -1
	je	LBB42_19
LBB42_3:
	movsxd	rsi, ecx
	mov	rax, rdi
	cqo
	idiv	rsi
	mov	r9, rax
	imul	rax, rsi
	jo	LBB42_20
	sub	rdi, rax
	jo	LBB42_21
	imul	rax, rdi, 1000000000
	jo	LBB42_22
	cmp	ecx, -1
	jne	LBB42_8
	cmp	rax, r10
	je	LBB42_23
LBB42_8:
	cmp	r8d, -2147483648
	jne	LBB42_10
	cmp	ecx, -1
	je	LBB42_24
LBB42_10:
	cqo
	idiv	rsi
	mov	rdi, rax
	mov	eax, r8d
	cdq
	idiv	ecx
	add	edi, eax
	jo	LBB42_25
	cmp	edi, 1000000000
	jl	LBB42_14
	inc	r9
	jo	LBB42_26
	add	edi, -1000000000
	mov	rax, r9
	mov	edx, edi
	pop	rbp
	ret
LBB42_14:
	test	edi, edi
	js	LBB42_15
	mov	rax, r9
	mov	edx, edi
	pop	rbp
	ret
LBB42_15:
	dec	r9
	jo	LBB42_27
	add	edi, 1000000000
	mov	rax, r9
	mov	edx, edi
	pop	rbp
	ret
LBB42_18:
	lea	rdi, [rip + _str.1]
	lea	rdx, [rip + l___unnamed_112]
	mov	esi, 25
	call	__ZN4core9panicking5panic17h736ee47a631475c0E
LBB42_19:
	lea	rdi, [rip + _str.2]
	lea	rdx, [rip + l___unnamed_112]
	mov	esi, 31
	call	__ZN4core9panicking5panic17h736ee47a631475c0E
LBB42_20:
	lea	rdi, [rip + _str.3]
	lea	rdx, [rip + l___unnamed_113]
	mov	esi, 33
	call	__ZN4core9panicking5panic17h736ee47a631475c0E
LBB42_21:
	lea	rdi, [rip + _str.0]
	lea	rdx, [rip + l___unnamed_114]
	mov	esi, 33
	call	__ZN4core9panicking5panic17h736ee47a631475c0E
LBB42_22:
	lea	rdi, [rip + _str.3]
	lea	rdx, [rip + l___unnamed_115]
	mov	esi, 33
	call	__ZN4core9panicking5panic17h736ee47a631475c0E
LBB42_23:
	lea	rdi, [rip + _str.2]
	lea	rdx, [rip + l___unnamed_115]
	mov	esi, 31
	call	__ZN4core9panicking5panic17h736ee47a631475c0E
LBB42_24:
	lea	rdi, [rip + _str.2]
	lea	rdx, [rip + l___unnamed_116]
	mov	esi, 31
	call	__ZN4core9panicking5panic17h736ee47a631475c0E
LBB42_25:
	lea	rdi, [rip + _str.5]
	lea	rdx, [rip + l___unnamed_116]
	mov	esi, 28
	call	__ZN4core9panicking5panic17h736ee47a631475c0E
LBB42_26:
	lea	rdi, [rip + _str.5]
	lea	rdx, [rip + l___unnamed_117]
	mov	esi, 28
	call	__ZN4core9panicking5panic17h736ee47a631475c0E
LBB42_27:
	lea	rdi, [rip + _str.0]
	lea	rdx, [rip + l___unnamed_118]
	mov	esi, 33
	call	__ZN4core9panicking5panic17h736ee47a631475c0E
	.cfi_endproc

	.globl	__ZN63_$LT$time..duration..Duration$u20$as$u20$core..fmt..Display$GT$3fmt17h9db14d87f5e8b932E
	.p2align	4, 0x90
__ZN63_$LT$time..duration..Duration$u20$as$u20$core..fmt..Display$GT$3fmt17h9db14d87f5e8b932E:
	.cfi_startproc
	push	rbp
	.cfi_def_cfa_offset 16
	.cfi_offset rbp, -16
	mov	rbp, rsp
	.cfi_def_cfa_register rbp
	push	r15
	push	r14
	push	r13
	push	r12
	push	rbx
	sub	rsp, 136
	.cfi_offset rbx, -56
	.cfi_offset r12, -48
	.cfi_offset r13, -40
	.cfi_offset r14, -32
	.cfi_offset r15, -24
	mov	r14, rsi
	mov	rbx, qword ptr [rdi]
	mov	ecx, dword ptr [rdi + 8]
	test	rbx, rbx
	js	LBB43_2
	xor	eax, eax
	lea	rdx, [rip + l___unnamed_54]
	jmp	LBB43_8
LBB43_2:
	movabs	rax, -9223372036854775808
	test	ecx, ecx
	je	LBB43_6
	cmp	rbx, rax
	je	LBB43_26
	mov	esi, 1000000000
	sub	esi, ecx
	jo	LBB43_27
	not	rbx
	lea	rdx, [rip + l___unnamed_43]
	mov	eax, 1
	mov	ecx, esi
	jmp	LBB43_8
LBB43_6:
	cmp	rbx, rax
	je	LBB43_28
	neg	rbx
	xor	ecx, ecx
	lea	rdx, [rip + l___unnamed_43]
	mov	eax, 1
LBB43_8:
	mov	qword ptr [rbp - 152], rbx
	mov	dword ptr [rbp - 144], ecx
	mov	qword ptr [rbp - 176], rdx
	mov	qword ptr [rbp - 168], rax
	movabs	rdx, 1749024623285053783
	mov	rax, rbx
	imul	rdx
	mov	rax, rdx
	shr	rax, 63
	sar	rdx, 13
	add	rdx, rax
	mov	qword ptr [rbp - 160], rdx
	imul	rdx, rdx, 86400
	mov	rax, rbx
	sub	rax, rdx
	jo	LBB43_25
	mov	qword ptr [rbp - 136], rax
	add	rbx, 86399
	cmp	rbx, 172799
	setb	r13b
	test	rax, rax
	setne	r12b
	test	ecx, ecx
	setne	r15b
	lea	rax, [rbp - 176]
	mov	qword ptr [rbp - 128], rax
	lea	rax, [rip + __ZN44_$LT$$RF$T$u20$as$u20$core..fmt..Display$GT$3fmt17h2d7755669f68d894E]
	mov	qword ptr [rbp - 120], rax
	lea	rax, [rip + l___unnamed_119]
	mov	qword ptr [rbp - 96], rax
	mov	qword ptr [rbp - 88], 2
	mov	qword ptr [rbp - 80], 0
	lea	rax, [rbp - 128]
	mov	qword ptr [rbp - 64], rax
	mov	qword ptr [rbp - 56], 1
	lea	rsi, [rbp - 96]
	mov	rdi, r14
	call	__ZN4core3fmt9Formatter9write_fmt17h3dc2bf45afed3069E
	test	al, al
	je	LBB43_11
LBB43_10:
	mov	al, 1
	jmp	LBB43_21
LBB43_11:
	cmp	rbx, 172799
	jb	LBB43_13
	lea	rax, [rbp - 160]
	mov	qword ptr [rbp - 128], rax
	mov	rax, qword ptr [rip + __ZN4core3fmt3num3imp52_$LT$impl$u20$core..fmt..Display$u20$for$u20$i64$GT$3fmt17h6a5170735d6294a5E@GOTPCREL]
	mov	qword ptr [rbp - 120], rax
	lea	rax, [rip + l___unnamed_120]
	mov	qword ptr [rbp - 96], rax
	mov	qword ptr [rbp - 88], 2
	mov	qword ptr [rbp - 80], 0
	lea	rax, [rbp - 128]
	mov	qword ptr [rbp - 64], rax
	mov	qword ptr [rbp - 56], 1
	lea	rsi, [rbp - 96]
	mov	rdi, r14
	call	__ZN4core3fmt9Formatter9write_fmt17h3dc2bf45afed3069E
	test	al, al
	jne	LBB43_10
LBB43_13:
	or	r15b, r13b
	or	r12b, r15b
	je	LBB43_20
	mov	eax, dword ptr [rbp - 144]
	test	eax, eax
	je	LBB43_22
	movsxd	rcx, eax
	imul	rdx, rcx, 1125899907
	mov	rsi, rdx
	shr	rsi, 63
	sar	rdx, 50
	add	edx, esi
	imul	esi, edx, 1000000
	cmp	eax, esi
	je	LBB43_23
	imul	rcx, rcx, 274877907
	mov	rdx, rcx
	shr	rdx, 63
	sar	rcx, 38
	add	ecx, edx
	imul	edx, ecx, 1000
	cmp	eax, edx
	je	LBB43_24
	lea	rax, [rbp - 144]
	lea	rcx, [rbp - 136]
	mov	qword ptr [rbp - 128], rcx
	mov	rcx, qword ptr [rip + __ZN4core3fmt3num3imp52_$LT$impl$u20$core..fmt..Display$u20$for$u20$i64$GT$3fmt17h6a5170735d6294a5E@GOTPCREL]
	mov	qword ptr [rbp - 120], rcx
	mov	qword ptr [rbp - 112], rax
	mov	rax, qword ptr [rip + __ZN4core3fmt3num3imp52_$LT$impl$u20$core..fmt..Display$u20$for$u20$i32$GT$3fmt17he2ccc2060d52a2ceE@GOTPCREL]
	mov	qword ptr [rbp - 104], rax
	lea	rax, [rip + l___unnamed_121]
	mov	qword ptr [rbp - 96], rax
	mov	qword ptr [rbp - 88], 3
	lea	rax, [rip + l___unnamed_122]
	jmp	LBB43_18
LBB43_22:
	lea	rax, [rbp - 136]
	mov	qword ptr [rbp - 128], rax
	mov	rax, qword ptr [rip + __ZN4core3fmt3num3imp52_$LT$impl$u20$core..fmt..Display$u20$for$u20$i64$GT$3fmt17h6a5170735d6294a5E@GOTPCREL]
	mov	qword ptr [rbp - 120], rax
	lea	rax, [rip + l___unnamed_123]
	mov	qword ptr [rbp - 96], rax
	mov	qword ptr [rbp - 88], 2
	mov	qword ptr [rbp - 80], 0
	lea	rax, [rbp - 128]
	mov	qword ptr [rbp - 64], rax
	mov	qword ptr [rbp - 56], 1
	jmp	LBB43_19
LBB43_23:
	mov	dword ptr [rbp - 44], edx
	lea	rax, [rbp - 136]
	mov	qword ptr [rbp - 128], rax
	mov	rax, qword ptr [rip + __ZN4core3fmt3num3imp52_$LT$impl$u20$core..fmt..Display$u20$for$u20$i64$GT$3fmt17h6a5170735d6294a5E@GOTPCREL]
	mov	qword ptr [rbp - 120], rax
	lea	rax, [rbp - 44]
	mov	qword ptr [rbp - 112], rax
	mov	rax, qword ptr [rip + __ZN4core3fmt3num3imp52_$LT$impl$u20$core..fmt..Display$u20$for$u20$i32$GT$3fmt17he2ccc2060d52a2ceE@GOTPCREL]
	mov	qword ptr [rbp - 104], rax
	lea	rax, [rip + l___unnamed_121]
	mov	qword ptr [rbp - 96], rax
	mov	qword ptr [rbp - 88], 3
	lea	rax, [rip + l___unnamed_124]
	jmp	LBB43_18
LBB43_24:
	mov	dword ptr [rbp - 44], ecx
	lea	rax, [rbp - 136]
	mov	qword ptr [rbp - 128], rax
	mov	rax, qword ptr [rip + __ZN4core3fmt3num3imp52_$LT$impl$u20$core..fmt..Display$u20$for$u20$i64$GT$3fmt17h6a5170735d6294a5E@GOTPCREL]
	mov	qword ptr [rbp - 120], rax
	lea	rax, [rbp - 44]
	mov	qword ptr [rbp - 112], rax
	mov	rax, qword ptr [rip + __ZN4core3fmt3num3imp52_$LT$impl$u20$core..fmt..Display$u20$for$u20$i32$GT$3fmt17he2ccc2060d52a2ceE@GOTPCREL]
	mov	qword ptr [rbp - 104], rax
	lea	rax, [rip + l___unnamed_121]
	mov	qword ptr [rbp - 96], rax
	mov	qword ptr [rbp - 88], 3
	lea	rax, [rip + l___unnamed_125]
LBB43_18:
	mov	qword ptr [rbp - 80], rax
	mov	qword ptr [rbp - 72], 2
	lea	rax, [rbp - 128]
	mov	qword ptr [rbp - 64], rax
	mov	qword ptr [rbp - 56], 2
LBB43_19:
	lea	rsi, [rbp - 96]
	mov	rdi, r14
	call	__ZN4core3fmt9Formatter9write_fmt17h3dc2bf45afed3069E
	test	al, al
	jne	LBB43_10
LBB43_20:
	xor	eax, eax
LBB43_21:
	add	rsp, 136
	pop	rbx
	pop	r12
	pop	r13
	pop	r14
	pop	r15
	pop	rbp
	ret
LBB43_25:
	lea	rdi, [rip + _str.0]
	lea	rdx, [rip + l___unnamed_126]
	mov	esi, 33
	call	__ZN4core9panicking5panic17h736ee47a631475c0E
LBB43_26:
	lea	rdi, [rip + _str.6]
	lea	rdx, [rip + l___unnamed_127]
	mov	esi, 31
	call	__ZN4core9panicking5panic17h736ee47a631475c0E
LBB43_27:
	lea	rdi, [rip + _str.0]
	lea	rdx, [rip + l___unnamed_128]
	mov	esi, 33
	call	__ZN4core9panicking5panic17h736ee47a631475c0E
LBB43_28:
	lea	rdi, [rip + _str.6]
	lea	rdx, [rip + l___unnamed_129]
	mov	esi, 31
	call	__ZN4core9panicking5panic17h736ee47a631475c0E
	.cfi_endproc

	.globl	__ZN70_$LT$time..duration..OutOfRangeError$u20$as$u20$core..fmt..Display$GT$3fmt17h977b9c28afa01761E
	.p2align	4, 0x90
__ZN70_$LT$time..duration..OutOfRangeError$u20$as$u20$core..fmt..Display$GT$3fmt17h977b9c28afa01761E:
	.cfi_startproc
	push	rbp
	.cfi_def_cfa_offset 16
	.cfi_offset rbp, -16
	mov	rbp, rsp
	.cfi_def_cfa_register rbp
	sub	rsp, 80
	mov	rdi, rsi
	lea	rax, [rip + l___unnamed_130]
	mov	qword ptr [rbp - 32], rax
	mov	qword ptr [rbp - 24], 57
	lea	rax, [rbp - 32]
	mov	qword ptr [rbp - 16], rax
	lea	rax, [rip + __ZN44_$LT$$RF$T$u20$as$u20$core..fmt..Display$GT$3fmt17h2d7755669f68d894E]
	mov	qword ptr [rbp - 8], rax
	lea	rax, [rip + l___unnamed_23]
	mov	qword ptr [rbp - 80], rax
	mov	qword ptr [rbp - 72], 1
	mov	qword ptr [rbp - 64], 0
	lea	rax, [rbp - 16]
	mov	qword ptr [rbp - 48], rax
	mov	qword ptr [rbp - 40], 1
	lea	rsi, [rbp - 80]
	call	__ZN4core3fmt9Formatter9write_fmt17h3dc2bf45afed3069E
	add	rsp, 80
	pop	rbp
	ret
	.cfi_endproc

	.globl	__ZN69_$LT$time..duration..OutOfRangeError$u20$as$u20$std..error..Error$GT$11description17h9d26069b8819a3c6E
	.p2align	4, 0x90
__ZN69_$LT$time..duration..OutOfRangeError$u20$as$u20$std..error..Error$GT$11description17h9d26069b8819a3c6E:
	.cfi_startproc
	push	rbp
	.cfi_def_cfa_offset 16
	.cfi_offset rbp, -16
	mov	rbp, rsp
	.cfi_def_cfa_register rbp
	lea	rax, [rip + l___unnamed_130]
	mov	edx, 57
	pop	rbp
	ret
	.cfi_endproc

	.globl	__ZN4time5parse8strptime17h557c892545c70853E
	.p2align	4, 0x90
__ZN4time5parse8strptime17h557c892545c70853E:
	.cfi_startproc
	push	rbp
	.cfi_def_cfa_offset 16
	.cfi_offset rbp, -16
	mov	rbp, rsp
	.cfi_def_cfa_register rbp
	push	r15
	push	r14
	push	r13
	push	r12
	push	rbx
	sub	rsp, 120
	.cfi_offset rbx, -56
	.cfi_offset r12, -48
	.cfi_offset r13, -40
	.cfi_offset r14, -32
	.cfi_offset r15, -24
	mov	r14, rdi
	mov	qword ptr [rbp - 56], rsi
	mov	qword ptr [rbp - 48], rdx
	xorps	xmm0, xmm0
	movaps	xmmword ptr [rbp - 112], xmm0
	movaps	xmmword ptr [rbp - 128], xmm0
	mov	dword ptr [rbp - 88], 0
	mov	qword ptr [rbp - 96], 0
	test	r8, r8
	je	LBB46_21
	mov	r15, r8
	add	r15, rcx
	lea	r12, [rbp - 80]
	lea	r13, [rbp - 56]
	lea	rax, [rcx + 1]
	movzx	edx, byte ptr [rcx]
	test	dl, dl
	jns	LBB46_19
	jmp	LBB46_3
	.p2align	4, 0x90
LBB46_68:
	add	rsi, rdi
	mov	qword ptr [rbp - 56], rsi
	mov	qword ptr [rbp - 48], rcx
LBB46_69:
	mov	rcx, rax
	cmp	rax, r15
	je	LBB46_21
	lea	rax, [rcx + 1]
	movzx	edx, byte ptr [rcx]
	test	dl, dl
	js	LBB46_3
LBB46_19:
	cmp	edx, 37
	je	LBB46_49
LBB46_20:
	cmp	edx, 1114112
	je	LBB46_21
	mov	rcx, qword ptr [rbp - 48]
	mov	edi, 10
	test	rcx, rcx
	je	LBB46_23
	mov	rsi, qword ptr [rbp - 56]
	movzx	ebx, byte ptr [rsi]
	test	bl, bl
	jns	LBB46_38
	lea	r10, [rsi + rcx]
	xor	r8d, r8d
	mov	r11, r10
	cmp	rcx, 1
	je	LBB46_27
	lea	r11, [rsi + 2]
	movzx	r8d, byte ptr [rsi + 1]
	and	r8d, 63
LBB46_27:
	mov	r9d, ebx
	and	r9d, 31
	cmp	bl, -33
	jbe	LBB46_28
	mov	r13, r12
	cmp	r11, r10
	je	LBB46_30
	movzx	r12d, byte ptr [r11]
	inc	r11
	and	r12d, 63
	shl	r8d, 6
	or	r8d, r12d
	cmp	bl, -16
	jb	LBB46_33
LBB46_34:
	cmp	r11, r10
	mov	r12, r13
	je	LBB46_35
	movzx	ebx, byte ptr [r11]
	and	ebx, 63
	jmp	LBB46_37
	.p2align	4, 0x90
LBB46_3:
	cmp	rax, r15
	je	LBB46_4
	movzx	esi, byte ptr [rcx + 1]
	add	rcx, 2
	and	esi, 63
	mov	rax, rcx
	mov	ecx, edx
	and	ecx, 31
	cmp	dl, -33
	jbe	LBB46_7
LBB46_9:
	cmp	rax, r15
	je	LBB46_10
	movzx	ebx, byte ptr [rax]
	inc	rax
	and	ebx, 63
	mov	rdi, rax
	shl	esi, 6
	or	esi, ebx
	cmp	dl, -16
	jb	LBB46_13
LBB46_14:
	cmp	rdi, r15
	je	LBB46_15
	movzx	edx, byte ptr [rdi]
	inc	rdi
	and	edx, 63
	mov	rax, rdi
	jmp	LBB46_17
LBB46_4:
	xor	esi, esi
	mov	rax, r15
	mov	ecx, edx
	and	ecx, 31
	cmp	dl, -33
	ja	LBB46_9
LBB46_7:
	shl	ecx, 6
	or	esi, ecx
	mov	edx, esi
	cmp	edx, 37
	jne	LBB46_20
	.p2align	4, 0x90
LBB46_49:
	cmp	rax, r15
	je	LBB46_21
	lea	rbx, [rax + 1]
	movzx	edx, byte ptr [rax]
	test	dl, dl
	jns	LBB46_66
	cmp	rbx, r15
	je	LBB46_52
	movzx	ecx, byte ptr [rax + 1]
	add	rax, 2
	and	ecx, 63
	mov	rbx, rax
	mov	eax, edx
	and	eax, 31
	cmp	dl, -33
	jbe	LBB46_55
LBB46_57:
	cmp	rbx, r15
	je	LBB46_58
	movzx	edi, byte ptr [rbx]
	inc	rbx
	and	edi, 63
	mov	rsi, rbx
	shl	ecx, 6
	or	ecx, edi
	cmp	dl, -16
	jb	LBB46_61
LBB46_62:
	cmp	rsi, r15
	je	LBB46_63
	movzx	edx, byte ptr [rsi]
	inc	rsi
	and	edx, 63
	mov	rbx, rsi
	jmp	LBB46_65
LBB46_28:
	shl	r9d, 6
	or	r8d, r9d
	mov	ebx, r8d
	cmp	ebx, edx
	je	LBB46_42
	jmp	LBB46_39
LBB46_10:
	xor	ebx, ebx
	mov	rdi, r15
	shl	esi, 6
	or	esi, ebx
	cmp	dl, -16
	jae	LBB46_14
LBB46_13:
	shl	ecx, 12
	or	esi, ecx
	mov	edx, esi
	cmp	edx, 37
	jne	LBB46_20
	jmp	LBB46_49
LBB46_52:
	xor	ecx, ecx
	mov	rbx, r15
	mov	eax, edx
	and	eax, 31
	cmp	dl, -33
	ja	LBB46_57
LBB46_55:
	shl	eax, 6
	jmp	LBB46_56
LBB46_15:
	xor	edx, edx
LBB46_17:
	and	ecx, 7
	shl	ecx, 18
	shl	esi, 6
	or	esi, ecx
	or	esi, edx
	mov	edx, esi
	cmp	edx, 37
	jne	LBB46_20
	jmp	LBB46_49
LBB46_30:
	xor	r12d, r12d
	mov	r11, r10
	shl	r8d, 6
	or	r8d, r12d
	cmp	bl, -16
	jae	LBB46_34
LBB46_33:
	shl	r9d, 12
	or	r8d, r9d
	mov	ebx, r8d
	mov	r12, r13
	lea	r13, [rbp - 56]
	cmp	ebx, edx
	je	LBB46_42
	jmp	LBB46_39
LBB46_58:
	xor	edi, edi
	mov	rsi, r15
	shl	ecx, 6
	or	ecx, edi
	cmp	dl, -16
	jae	LBB46_62
LBB46_61:
	shl	eax, 12
LBB46_56:
	or	ecx, eax
	mov	edx, ecx
LBB46_66:
	mov	rdi, r12
	mov	rsi, r13
	lea	rcx, [rbp - 128]
	call	__ZN4time5parse10parse_type17h077cc5c77ceed4cdE
	mov	edi, dword ptr [rbp - 80]
	mov	rax, rbx
	cmp	edi, 15
	je	LBB46_69
	jmp	LBB46_67
LBB46_35:
	xor	ebx, ebx
LBB46_37:
	lea	r13, [rbp - 56]
	and	r9d, 7
	shl	r9d, 18
	shl	r8d, 6
	or	r8d, r9d
	or	r8d, ebx
	mov	ebx, r8d
	cmp	r8d, 1114112
	je	LBB46_40
	.p2align	4, 0x90
LBB46_38:
	cmp	ebx, edx
	jne	LBB46_39
LBB46_42:
	mov	edi, 1
	cmp	edx, 128
	jb	LBB46_45
	mov	edi, 2
	cmp	edx, 2048
	jb	LBB46_45
	cmp	edx, 65536
	mov	edi, 4
	sbb	rdi, 0
LBB46_45:
	mov	qword ptr [rbp - 160], rsi
	mov	qword ptr [rbp - 152], rcx
	mov	qword ptr [rbp - 136], rdi
	mov	qword ptr [rbp - 144], rcx
	sub	rcx, rdi
	je	LBB46_68
	jbe	LBB46_48
	cmp	byte ptr [rsi + rdi], -65
	jg	LBB46_68
	jmp	LBB46_48
LBB46_63:
	xor	edx, edx
LBB46_65:
	and	eax, 7
	shl	eax, 18
	shl	ecx, 6
	or	ecx, eax
	or	ecx, edx
	mov	edx, ecx
	mov	rax, rbx
	cmp	ecx, 1114112
	je	LBB46_69
	jmp	LBB46_66
LBB46_21:
	mov	eax, dword ptr [rbp - 88]
	mov	dword ptr [r14 + 44], eax
	mov	rax, qword ptr [rbp - 96]
	mov	qword ptr [r14 + 36], rax
	mov	rax, qword ptr [rbp - 104]
	mov	qword ptr [r14 + 28], rax
	mov	rax, qword ptr [rbp - 112]
	mov	qword ptr [r14 + 20], rax
	mov	rax, qword ptr [rbp - 128]
	mov	rcx, qword ptr [rbp - 120]
	mov	qword ptr [r14 + 12], rcx
	mov	qword ptr [r14 + 4], rax
	xor	eax, eax
	jmp	LBB46_41
LBB46_23:
	jmp	LBB46_40
LBB46_39:
	mov	eax, edx
	shl	rbx, 32
	or	rbx, rax
	mov	edi, 14
	jmp	LBB46_40
LBB46_67:
	mov	rbx, qword ptr [rbp - 76]
LBB46_40:
	mov	dword ptr [r14 + 4], edi
	mov	qword ptr [r14 + 8], rbx
	mov	eax, 1
LBB46_41:
	mov	dword ptr [r14], eax
	mov	rax, r14
	add	rsp, 120
	pop	rbx
	pop	r12
	pop	r13
	pop	r14
	pop	r15
	pop	rbp
	ret
LBB46_48:
	lea	rax, [rbp - 160]
	mov	qword ptr [rbp - 80], rax
	lea	rax, [rbp - 136]
	mov	qword ptr [rbp - 72], rax
	lea	rax, [rbp - 144]
	mov	qword ptr [rbp - 64], rax
	lea	rdi, [rbp - 80]
	call	__ZN4core3str6traits105_$LT$impl$u20$core..slice..SliceIndex$LT$str$GT$$u20$for$u20$core..ops..range..RangeFrom$LT$usize$GT$$GT$5index28_$u7b$$u7b$closure$u7d$$u7d$17h13a1c725af8681beE
	.cfi_endproc

	.p2align	4, 0x90
__ZN4time5parse10parse_type17h077cc5c77ceed4cdE:
Lfunc_begin2:
	.cfi_startproc
	.cfi_personality 155, _rust_eh_personality
	.cfi_lsda 16, Lexception2
	push	rbp
	.cfi_def_cfa_offset 16
	.cfi_offset rbp, -16
	mov	rbp, rsp
	.cfi_def_cfa_register rbp
	push	r15
	push	r14
	push	r13
	push	r12
	push	rbx
	sub	rsp, 216
	.cfi_offset rbx, -56
	.cfi_offset r12, -48
	.cfi_offset r13, -40
	.cfi_offset r14, -32
	.cfi_offset r15, -24
	mov	r15, rdi
	lea	eax, [rdx - 37]
	cmp	eax, 85
	ja	LBB47_214
	mov	r13, rcx
	mov	r14, rsi
	lea	rcx, [rip + LJTI47_0]
	movsxd	rax, dword ptr [rcx + 4*rax]
	add	rax, rcx
	jmp	rax
LBB47_2:
	lea	r12, [rbp - 72]
	mov	rdi, r12
	mov	rsi, r14
	mov	edx, 109
	mov	rcx, r13
	call	__ZN4time5parse10parse_type17h077cc5c77ceed4cdE
	mov	eax, dword ptr [rbp - 72]
	cmp	eax, 15
	jne	LBB47_163
	mov	rcx, qword ptr [r14 + 8]
	mov	eax, 10
	test	rcx, rcx
	je	LBB47_164
	mov	rdx, qword ptr [r14]
	movzx	esi, byte ptr [rdx]
	test	sil, sil
	jns	LBB47_327
	lea	r8, [rdx + rcx]
	xor	edi, edi
	mov	r9, r8
	cmp	rcx, 1
	je	LBB47_7
	lea	r9, [rdx + 2]
	movzx	edi, byte ptr [rdx + 1]
	and	edi, 63
LBB47_7:
	mov	ebx, esi
	and	ebx, 31
	cmp	sil, -33
	jbe	LBB47_306
	cmp	r9, r8
	je	LBB47_322
	movzx	r10d, byte ptr [r9]
	inc	r9
	and	r10d, 63
	shl	edi, 6
	or	edi, r10d
	cmp	sil, -16
	jb	LBB47_325
LBB47_323:
	cmp	r9, r8
	je	LBB47_409
	movzx	esi, byte ptr [r9]
	and	esi, 63
	jmp	LBB47_410
LBB47_10:
	lea	r12, [rbp - 72]
	mov	rdi, r12
	mov	rsi, r14
	mov	edx, 72
	mov	rcx, r13
	call	__ZN4time5parse10parse_type17h077cc5c77ceed4cdE
	mov	eax, dword ptr [rbp - 72]
	cmp	eax, 15
	jne	LBB47_163
	mov	rcx, qword ptr [r14 + 8]
	mov	eax, 10
	test	rcx, rcx
	je	LBB47_164
	mov	rdx, qword ptr [r14]
	movzx	esi, byte ptr [rdx]
	test	sil, sil
	jns	LBB47_344
	lea	r8, [rdx + rcx]
	xor	edi, edi
	mov	r9, r8
	cmp	rcx, 1
	je	LBB47_15
	lea	r9, [rdx + 2]
	movzx	edi, byte ptr [rdx + 1]
	and	edi, 63
LBB47_15:
	mov	ebx, esi
	and	ebx, 31
	cmp	sil, -33
	jbe	LBB47_307
	cmp	r9, r8
	je	LBB47_339
	movzx	r10d, byte ptr [r9]
	inc	r9
	and	r10d, 63
	shl	edi, 6
	or	edi, r10d
	cmp	sil, -16
	jb	LBB47_342
LBB47_340:
	cmp	r9, r8
	je	LBB47_411
	movzx	esi, byte ptr [r9]
	and	esi, 63
	jmp	LBB47_412
LBB47_18:
	mov	rax, qword ptr [r14 + 8]
	cmp	rax, 3
	jae	LBB47_22
LBB47_109:
	mov	dword ptr [r15], 4
	jmp	LBB47_504
LBB47_20:
	movups	xmm0, xmmword ptr [r14]
	movaps	xmmword ptr [rbp - 208], xmm0
	mov	esi, 1
	mov	edx, 2
	mov	rdi, r14
	xor	ecx, ecx
	call	__ZN4time5parse16match_digits_i6417ha61d5c033a132e4aE
	test	rax, rax
	je	LBB47_152
	cmp	edx, 100
	jb	LBB47_127
	jmp	LBB47_152
LBB47_22:
	mov	rcx, qword ptr [r14]
	lea	rdx, [rip + l___unnamed_131]
	lea	rsi, [rip + l___unnamed_31]
	cmp	rcx, rsi
	je	LBB47_696
	movzx	esi, word ptr [rcx]
	xor	esi, 24906
	movzx	edi, byte ptr [rcx + 2]
	xor	edi, 110
	or	di, si
	je	LBB47_696
	lea	rdx, [rip + l___unnamed_131+24]
	lea	rsi, [rip + l___unnamed_32]
	cmp	rcx, rsi
	je	LBB47_696
	movzx	esi, word ptr [rcx]
	xor	esi, 25926
	movzx	edi, byte ptr [rcx + 2]
	xor	edi, 98
	or	di, si
	je	LBB47_696
	lea	rdx, [rip + l___unnamed_131+48]
	lea	rsi, [rip + l___unnamed_59]
	cmp	rcx, rsi
	je	LBB47_696
	movzx	esi, word ptr [rcx]
	xor	esi, 24909
	movzx	edi, byte ptr [rcx + 2]
	xor	edi, 114
	or	di, si
	je	LBB47_696
	lea	rdx, [rip + l___unnamed_131+72]
	lea	rsi, [rip + l___unnamed_60]
	cmp	rcx, rsi
	je	LBB47_696
	movzx	esi, word ptr [rcx]
	xor	esi, 28737
	movzx	edi, byte ptr [rcx + 2]
	xor	edi, 114
	or	di, si
	je	LBB47_696
	lea	rdx, [rip + l___unnamed_131+96]
	lea	rsi, [rip + l___unnamed_56]
	cmp	rcx, rsi
	je	LBB47_696
	movzx	esi, word ptr [rcx]
	xor	esi, 24909
	movzx	edi, byte ptr [rcx + 2]
	xor	edi, 121
	or	di, si
	je	LBB47_696
	lea	rdx, [rip + l___unnamed_131+120]
	lea	rsi, [rip + l___unnamed_62]
	cmp	rcx, rsi
	je	LBB47_696
	movzx	esi, word ptr [rcx]
	xor	esi, 30026
	movzx	edi, byte ptr [rcx + 2]
	xor	edi, 110
	or	di, si
	je	LBB47_696
	lea	rdx, [rip + l___unnamed_131+144]
	lea	rsi, [rip + l___unnamed_63]
	cmp	rcx, rsi
	je	LBB47_696
	movzx	esi, word ptr [rcx]
	xor	esi, 30026
	movzx	edi, byte ptr [rcx + 2]
	xor	edi, 108
	or	di, si
	je	LBB47_696
	mov	r9, r13
	mov	r8, r14
	mov	rbx, r15
	lea	rdx, [rip + l___unnamed_131+168]
	lea	rsi, [rip + l___unnamed_61]
	cmp	rcx, rsi
	je	LBB47_695
	movzx	esi, word ptr [rcx]
	xor	esi, 30017
	movzx	edi, byte ptr [rcx + 2]
	xor	edi, 103
	or	di, si
	mov	r15, rbx
	mov	r14, r8
	mov	r13, r9
	je	LBB47_696
	lea	rdx, [rip + l___unnamed_131+192]
	lea	rsi, [rip + l___unnamed_64]
	cmp	rcx, rsi
	je	LBB47_695
	movzx	esi, word ptr [rcx]
	xor	esi, 25939
	movzx	edi, byte ptr [rcx + 2]
	xor	edi, 112
	or	di, si
	mov	r15, rbx
	mov	r14, r8
	mov	r13, r9
	je	LBB47_696
	lea	rdx, [rip + l___unnamed_131+216]
	lea	rsi, [rip + l___unnamed_58]
	cmp	rcx, rsi
	je	LBB47_695
	movzx	esi, word ptr [rcx]
	xor	esi, 25423
	movzx	edi, byte ptr [rcx + 2]
	xor	edi, 116
	or	di, si
	mov	r15, rbx
	mov	r14, r8
	mov	r13, r9
	je	LBB47_696
	lea	rdx, [rip + l___unnamed_131+240]
	lea	rsi, [rip + l___unnamed_65]
	cmp	rcx, rsi
	je	LBB47_695
	movzx	esi, word ptr [rcx]
	xor	esi, 28494
	movzx	edi, byte ptr [rcx + 2]
	xor	edi, 118
	or	di, si
	mov	r15, rbx
	mov	r14, r8
	mov	r13, r9
	je	LBB47_696
	lea	rdx, [rip + l___unnamed_131+264]
	lea	rsi, [rip + l___unnamed_57]
	cmp	rcx, rsi
	je	LBB47_695
	movzx	esi, word ptr [rcx]
	xor	esi, 25924
	movzx	edi, byte ptr [rcx + 2]
	xor	edi, 99
	or	di, si
	mov	r15, rbx
	mov	r14, r8
	mov	r13, r9
	jne	LBB47_109
	jmp	LBB47_696
LBB47_46:
	movups	xmm0, xmmword ptr [r14]
	movaps	xmmword ptr [rbp - 208], xmm0
	mov	esi, 1
	mov	edx, 2
	mov	rdi, r14
	xor	ecx, ecx
	call	__ZN4time5parse16match_digits_i6417ha61d5c033a132e4aE
	test	rax, rax
	jne	LBB47_82
	jmp	LBB47_84
LBB47_47:
	movups	xmm0, xmmword ptr [r14]
	movaps	xmmword ptr [rbp - 208], xmm0
	mov	esi, 1
	mov	edx, 2
	mov	rdi, r14
	mov	ecx, 1
	call	__ZN4time5parse16match_digits_i6417ha61d5c033a132e4aE
	test	rax, rax
	jne	LBB47_146
	jmp	LBB47_202
LBB47_48:
	mov	qword ptr [rbp - 240], r13
	mov	qword ptr [rbp - 208], r15
	mov	r10, qword ptr [r14 + 8]
	test	r10, r10
	je	LBB47_293
	mov	r13, qword ptr [r14]
	lea	r15, [r13 + r10]
	mov	edi, 100000000
	xor	eax, eax
	mov	r11, r13
	xor	ebx, ebx
	mov	r9, r13
	.p2align	4, 0x90
LBB47_50:
	lea	rdx, [r11 + 1]
	movzx	ecx, byte ptr [r11]
	test	cl, cl
	js	LBB47_52
	mov	r11, rdx
	jmp	LBB47_64
LBB47_52:
	cmp	rdx, r15
	je	LBB47_58
	movzx	esi, byte ptr [r11 + 1]
	add	r11, 2
	and	esi, 63
	mov	r8, r11
	mov	r12d, ecx
	and	r12d, 31
	cmp	cl, -33
	jbe	LBB47_59
LBB47_54:
	mov	rdx, r14
	cmp	r8, r15
	je	LBB47_60
	movzx	r14d, byte ptr [r8]
	inc	r8
	and	r14d, 63
	mov	r11, r8
	shl	esi, 6
	or	esi, r14d
	cmp	cl, -16
	jb	LBB47_61
LBB47_56:
	cmp	r8, r15
	je	LBB47_62
	movzx	ecx, byte ptr [r8]
	inc	r8
	and	ecx, 63
	mov	r11, r8
	jmp	LBB47_63
LBB47_58:
	xor	esi, esi
	mov	r11, rdx
	mov	r8, r15
	mov	r12d, ecx
	and	r12d, 31
	cmp	cl, -33
	ja	LBB47_54
LBB47_59:
	shl	r12d, 6
	or	esi, r12d
	mov	ecx, esi
	jmp	LBB47_64
LBB47_60:
	xor	r14d, r14d
	mov	r8, r15
	shl	esi, 6
	or	esi, r14d
	cmp	cl, -16
	jae	LBB47_56
LBB47_61:
	shl	r12d, 12
	or	esi, r12d
	mov	ecx, esi
	mov	r14, rdx
	jmp	LBB47_64
LBB47_62:
	xor	ecx, ecx
LBB47_63:
	mov	r14, rdx
	and	r12d, 7
	shl	r12d, 18
	shl	esi, 6
	or	esi, r12d
	or	esi, ecx
	mov	ecx, esi
	cmp	esi, 1114112
	je	LBB47_294
	.p2align	4, 0x90
LBB47_64:
	mov	qword ptr [rbp - 192], r13
	mov	qword ptr [rbp - 184], r10
	mov	qword ptr [rbp - 56], rbx
	mov	qword ptr [rbp - 72], r10
	test	rbx, rbx
	je	LBB47_68
	cmp	r10, rbx
	je	LBB47_68
	jbe	LBB47_744
	cmp	byte ptr [r13 + rbx], -65
	jle	LBB47_744
LBB47_68:
	lea	rdx, [r13 + rbx]
	mov	rsi, r10
	sub	rsi, rbx
	mov	qword ptr [r14], rdx
	mov	qword ptr [r14 + 8], rsi
	add	ecx, -48
	cmp	ecx, 9
	ja	LBB47_294
	imul	ecx, edi
	add	eax, ecx
	jo	LBB47_745
	sub	rbx, r9
	add	rbx, r11
	movsxd	rcx, edi
	imul	rdi, rcx, 1717986919
	mov	rcx, rdi
	shr	rcx, 63
	sar	rdi, 34
	add	edi, ecx
	mov	r9, r11
	cmp	r15, r11
	jne	LBB47_50
	jmp	LBB47_294
LBB47_71:
	movups	xmm0, xmmword ptr [r14]
	movaps	xmmword ptr [rbp - 208], xmm0
	mov	esi, 1
	mov	edx, 1
	mov	rdi, r14
	xor	ecx, ecx
	call	__ZN4time5parse16match_digits_i6417ha61d5c033a132e4aE
	test	rax, rax
	je	LBB47_206
	lea	eax, [rdx - 1]
	cmp	eax, 7
	jae	LBB47_206
	xor	eax, eax
	cmp	edx, 7
	cmovne	eax, edx
	mov	dword ptr [r13 + 24], eax
	mov	dword ptr [r15], 15
	jmp	LBB47_504
LBB47_74:
	mov	rax, qword ptr [r14 + 8]
	test	rax, rax
	je	LBB47_531
	mov	rcx, qword ptr [r14]
	movzx	esi, byte ptr [rcx]
	test	sil, sil
	jns	LBB47_361
	lea	r8, [rcx + rax]
	xor	edx, edx
	mov	rbx, r8
	cmp	rax, 1
	je	LBB47_78
	lea	rbx, [rcx + 2]
	movzx	edx, byte ptr [rcx + 1]
	and	edx, 63
LBB47_78:
	mov	edi, esi
	and	edi, 31
	cmp	sil, -33
	jbe	LBB47_308
	cmp	rbx, r8
	je	LBB47_356
	movzx	r9d, byte ptr [rbx]
	inc	rbx
	and	r9d, 63
	shl	edx, 6
	or	edx, r9d
	cmp	sil, -16
	jb	LBB47_359
LBB47_357:
	cmp	rbx, r8
	je	LBB47_413
	movzx	esi, byte ptr [rbx]
	and	esi, 63
	jmp	LBB47_414
LBB47_81:
	movups	xmm0, xmmword ptr [r14]
	movaps	xmmword ptr [rbp - 208], xmm0
	mov	esi, 1
	mov	edx, 2
	mov	rdi, r14
	mov	ecx, 1
	call	__ZN4time5parse16match_digits_i6417ha61d5c033a132e4aE
	test	rax, rax
	je	LBB47_84
LBB47_82:
	lea	eax, [rdx - 1]
	cmp	eax, 31
	jae	LBB47_84
	mov	dword ptr [r13 + 12], edx
	mov	dword ptr [r15], 15
	jmp	LBB47_504
LBB47_84:
	movaps	xmm0, xmmword ptr [rbp - 208]
	movups	xmmword ptr [r14], xmm0
	mov	dword ptr [r15], 7
	jmp	LBB47_504
LBB47_85:
	mov	rax, qword ptr [r14 + 8]
	cmp	rax, 2
	jb	LBB47_86
	mov	rcx, qword ptr [r14]
	lea	rdx, [rip + l___unnamed_132]
	lea	rsi, [rip + l___unnamed_49]
	cmp	rcx, rsi
	je	LBB47_219
	movzx	esi, word ptr [rcx]
	cmp	esi, 28001
	je	LBB47_219
	lea	rdx, [rip + l___unnamed_132+24]
	lea	rsi, [rip + l___unnamed_50]
	cmp	rcx, rsi
	je	LBB47_219
	movzx	esi, word ptr [rcx]
	cmp	esi, 28016
	jne	LBB47_86
LBB47_219:
	mov	edx, dword ptr [rdx + 16]
	mov	qword ptr [rbp - 192], rcx
	mov	qword ptr [rbp - 184], rax
	mov	qword ptr [rbp - 56], 2
	mov	qword ptr [rbp - 72], rax
	cmp	rax, 2
	je	LBB47_221
	cmp	byte ptr [rcx + 2], -65
	jle	LBB47_744
LBB47_221:
	add	rcx, 2
	add	rax, -2
	mov	qword ptr [r14], rcx
	mov	qword ptr [r14 + 8], rax
	add	edx, dword ptr [r13 + 8]
	jno	LBB47_230
	lea	rdi, [rip + _str.5]
	lea	rdx, [rip + l___unnamed_133]
	mov	esi, 28
	call	__ZN4core9panicking5panic17h736ee47a631475c0E
LBB47_87:
	mov	rax, qword ptr [r14 + 8]
	cmp	rax, 2
	jae	LBB47_223
LBB47_86:
	mov	dword ptr [r15], 2
	jmp	LBB47_504
LBB47_89:
	mov	esi, 1
	mov	edx, 18
	mov	rdi, r14
	xor	ecx, ecx
	call	__ZN4time5parse16match_digits_i6417ha61d5c033a132e4aE
	test	rax, rax
	je	LBB47_295
	mov	qword ptr [rbp - 88], rdx
	xorps	xmm0, xmm0
	movaps	xmmword ptr [rbp - 112], xmm0
	movaps	xmmword ptr [rbp - 128], xmm0
	movaps	xmmword ptr [rbp - 144], xmm0
	mov	qword ptr [rbp - 96], 0
	lea	rdi, [rbp - 88]
	lea	rsi, [rbp - 144]
	call	_gmtime_r
	test	rax, rax
	je	LBB47_746
	movaps	xmm0, xmmword ptr [rbp - 144]
	movaps	xmm1, xmmword ptr [rbp - 128]
	mov	eax, dword ptr [rbp - 112]
	movups	xmmword ptr [r13], xmm0
	movups	xmmword ptr [r13 + 16], xmm1
	mov	dword ptr [r13 + 32], eax
	mov	qword ptr [r13 + 36], 0
	mov	dword ptr [r15], 15
	jmp	LBB47_504
LBB47_92:
	movups	xmm0, xmmword ptr [r14]
	movaps	xmmword ptr [rbp - 208], xmm0
	mov	esi, 1
	mov	edx, 2
	mov	rdi, r14
	xor	ecx, ecx
	call	__ZN4time5parse16match_digits_i6417ha61d5c033a132e4aE
	test	rax, rax
	je	LBB47_231
	cmp	edx, 61
	jae	LBB47_231
	mov	dword ptr [r13], edx
	mov	dword ptr [r15], 15
	jmp	LBB47_504
LBB47_95:
	movups	xmm0, xmmword ptr [r14]
	movaps	xmmword ptr [rbp - 208], xmm0
	mov	esi, 1
	mov	edx, 3
	mov	rdi, r14
	xor	ecx, ecx
	call	__ZN4time5parse16match_digits_i6417ha61d5c033a132e4aE
	test	rax, rax
	je	LBB47_232
	dec	edx
	cmp	edx, 366
	jae	LBB47_232
	mov	dword ptr [r13 + 28], edx
	mov	dword ptr [r15], 15
	jmp	LBB47_504
LBB47_98:
	lea	rdi, [rbp - 72]
	mov	rsi, r14
	mov	edx, 72
	mov	rcx, r13
	call	__ZN4time5parse10parse_type17h077cc5c77ceed4cdE
	mov	edx, dword ptr [rbp - 72]
	cmp	edx, 15
	jne	LBB47_233
	mov	rax, qword ptr [r14 + 8]
	mov	edx, 10
	test	rax, rax
	je	LBB47_297
	mov	rcx, qword ptr [r14]
	movzx	esi, byte ptr [rcx]
	test	sil, sil
	jns	LBB47_420
	lea	r8, [rcx + rax]
	xor	edi, edi
	mov	r9, r8
	cmp	rax, 1
	je	LBB47_103
	lea	r9, [rcx + 2]
	movzx	edi, byte ptr [rcx + 1]
	and	edi, 63
LBB47_103:
	mov	ebx, esi
	and	ebx, 31
	cmp	sil, -33
	jbe	LBB47_317
	cmp	r9, r8
	je	LBB47_415
	movzx	r10d, byte ptr [r9]
	inc	r9
	and	r10d, 63
	shl	edi, 6
	or	edi, r10d
	cmp	sil, -16
	jb	LBB47_418
LBB47_416:
	cmp	r9, r8
	je	LBB47_562
	movzx	esi, byte ptr [r9]
	and	esi, 63
	jmp	LBB47_563
LBB47_106:
	mov	rax, qword ptr [r14]
	mov	rcx, qword ptr [r14 + 8]
	cmp	rcx, 7
	jae	LBB47_235
	mov	r8b, 1
	cmp	rcx, 5
	jae	LBB47_240
	mov	r8b, 1
	cmp	rcx, 3
	jae	LBB47_244
	jmp	LBB47_109
LBB47_110:
	lea	r12, [rbp - 72]
	mov	rdi, r12
	mov	rsi, r14
	mov	edx, 73
	mov	rcx, r13
	call	__ZN4time5parse10parse_type17h077cc5c77ceed4cdE
	mov	eax, dword ptr [rbp - 72]
	cmp	eax, 15
	jne	LBB47_255
	mov	rcx, qword ptr [r14 + 8]
	mov	eax, 10
	test	rcx, rcx
	je	LBB47_298
	mov	rdx, qword ptr [r14]
	movzx	esi, byte ptr [rdx]
	test	sil, sil
	jns	LBB47_430
	lea	r8, [rdx + rcx]
	xor	edi, edi
	mov	r9, r8
	cmp	rcx, 1
	je	LBB47_115
	lea	r9, [rdx + 2]
	movzx	edi, byte ptr [rdx + 1]
	and	edi, 63
LBB47_115:
	mov	ebx, esi
	and	ebx, 31
	cmp	sil, -33
	jbe	LBB47_318
	cmp	r9, r8
	je	LBB47_425
	movzx	r10d, byte ptr [r9]
	inc	r9
	and	r10d, 63
	shl	edi, 6
	or	edi, r10d
	cmp	sil, -16
	jb	LBB47_428
LBB47_426:
	cmp	r9, r8
	je	LBB47_564
	movzx	esi, byte ptr [r9]
	and	esi, 63
	jmp	LBB47_565
LBB47_118:
	mov	rax, qword ptr [r14 + 8]
	test	rax, rax
	je	LBB47_531
	mov	rcx, qword ptr [r14]
	movzx	esi, byte ptr [rcx]
	test	sil, sil
	jns	LBB47_368
	lea	r8, [rcx + rax]
	xor	edx, edx
	mov	rbx, r8
	cmp	rax, 1
	je	LBB47_122
	lea	rbx, [rcx + 2]
	movzx	edx, byte ptr [rcx + 1]
	and	edx, 63
LBB47_122:
	mov	edi, esi
	and	edi, 31
	cmp	sil, -33
	jbe	LBB47_309
	cmp	rbx, r8
	je	LBB47_363
	movzx	r9d, byte ptr [rbx]
	inc	rbx
	and	r9d, 63
	shl	edx, 6
	or	edx, r9d
	cmp	sil, -16
	jb	LBB47_366
LBB47_364:
	cmp	rbx, r8
	je	LBB47_447
	movzx	esi, byte ptr [rbx]
	and	esi, 63
	jmp	LBB47_448
LBB47_125:
	mov	esi, 4
	mov	edx, 4
	mov	rdi, r14
	xor	ecx, ecx
	call	__ZN4time5parse16match_digits_i6417ha61d5c033a132e4aE
	test	rax, rax
	je	LBB47_296
	add	edx, -1900
	jo	LBB47_748
LBB47_127:
	mov	dword ptr [r13 + 20], edx
	mov	dword ptr [r15], 15
	jmp	LBB47_504
LBB47_128:
	mov	rax, qword ptr [r14 + 8]
	test	rax, rax
	je	LBB47_560
	mov	rcx, qword ptr [r14]
	lea	r8, [rcx + rax]
	lea	r9, [rcx + 1]
	movzx	edi, byte ptr [rcx]
	test	dil, dil
	jns	LBB47_375
	xor	ebx, ebx
	mov	rsi, r8
	cmp	rax, 1
	je	LBB47_132
	lea	rsi, [rcx + 2]
	movzx	ebx, byte ptr [rcx + 1]
	and	ebx, 63
LBB47_132:
	mov	edx, edi
	and	edx, 31
	cmp	dil, -33
	jbe	LBB47_310
	cmp	rsi, r8
	je	LBB47_370
	movzx	r10d, byte ptr [rsi]
	inc	rsi
	and	r10d, 63
	shl	ebx, 6
	or	ebx, r10d
	cmp	dil, -16
	jb	LBB47_373
LBB47_371:
	cmp	rsi, r8
	je	LBB47_449
	movzx	esi, byte ptr [rsi]
	and	esi, 63
	jmp	LBB47_450
LBB47_135:
	mov	rax, qword ptr [r14 + 8]
	cmp	rax, 6
	jb	LBB47_136
	mov	rcx, qword ptr [r14]
	mov	edx, 6
	lea	rsi, [rip + l___unnamed_134]
	lea	rdi, [rip + l___unnamed_44]
	cmp	rcx, rdi
	je	LBB47_312
	mov	edi, 1684960595
	xor	edi, dword ptr [rcx]
	movzx	ebx, word ptr [rcx + 4]
	xor	ebx, 31073
	or	ebx, edi
	je	LBB47_313
	lea	rsi, [rip + l___unnamed_134+24]
	lea	rdi, [rip + l___unnamed_45]
	cmp	rcx, rdi
	je	LBB47_312
	mov	edi, 1684959053
	xor	edi, dword ptr [rcx]
	movzx	ebx, word ptr [rcx + 4]
	xor	ebx, 31073
	or	ebx, edi
	je	LBB47_313
	mov	r8b, 1
	cmp	rax, 7
	jae	LBB47_391
LBB47_261:
	lea	rsi, [rip + l___unnamed_134+120]
	lea	rdx, [rip + l___unnamed_74]
	cmp	rcx, rdx
	je	LBB47_312
LBB47_262:
	mov	edx, 1684632134
	xor	edx, dword ptr [rcx]
	movzx	edi, word ptr [rcx + 4]
	xor	edi, 31073
	or	edi, edx
	mov	edx, 6
	je	LBB47_313
	test	r8b, r8b
	jne	LBB47_136
	mov	edx, 8
	lea	rsi, [rip + l___unnamed_134+144]
	lea	rdi, [rip + L___unnamed_75]
	cmp	rcx, rdi
	je	LBB47_313
	movabs	rdi, 8746382394089824595
	cmp	qword ptr [rcx], rdi
	jne	LBB47_136
	jmp	LBB47_313
LBB47_137:
	lea	r12, [rbp - 72]
	mov	rdi, r12
	mov	rsi, r14
	mov	edx, 89
	mov	rcx, r13
	call	__ZN4time5parse10parse_type17h077cc5c77ceed4cdE
	mov	eax, dword ptr [rbp - 72]
	cmp	eax, 15
	jne	LBB47_163
	mov	rcx, qword ptr [r14 + 8]
	mov	eax, 10
	test	rcx, rcx
	je	LBB47_164
	mov	rdx, qword ptr [r14]
	movzx	esi, byte ptr [rdx]
	test	sil, sil
	jns	LBB47_471
	lea	r8, [rdx + rcx]
	xor	edi, edi
	mov	r9, r8
	cmp	rcx, 1
	je	LBB47_142
	lea	r9, [rdx + 2]
	movzx	edi, byte ptr [rdx + 1]
	and	edi, 63
LBB47_142:
	mov	ebx, esi
	and	ebx, 31
	cmp	sil, -33
	jbe	LBB47_319
	cmp	r9, r8
	je	LBB47_466
	movzx	r10d, byte ptr [r9]
	inc	r9
	and	r10d, 63
	shl	edi, 6
	or	edi, r10d
	cmp	sil, -16
	jb	LBB47_469
LBB47_467:
	cmp	r9, r8
	je	LBB47_566
	movzx	esi, byte ptr [r9]
	and	esi, 63
	jmp	LBB47_567
LBB47_145:
	movups	xmm0, xmmword ptr [r14]
	movaps	xmmword ptr [rbp - 208], xmm0
	mov	esi, 1
	mov	edx, 2
	mov	rdi, r14
	xor	ecx, ecx
	call	__ZN4time5parse16match_digits_i6417ha61d5c033a132e4aE
	test	rax, rax
	je	LBB47_202
LBB47_146:
	cmp	edx, 24
	jae	LBB47_202
	mov	dword ptr [r13 + 8], edx
	mov	dword ptr [r15], 15
	jmp	LBB47_504
LBB47_148:
	movups	xmm0, xmmword ptr [r14]
	movaps	xmmword ptr [rbp - 208], xmm0
	mov	esi, 1
	mov	edx, 2
	mov	rdi, r14
	xor	ecx, ecx
	call	__ZN4time5parse16match_digits_i6417ha61d5c033a132e4aE
	test	rax, rax
	je	LBB47_152
	cmp	edx, 100
	jae	LBB47_152
	imul	eax, edx, 100
	add	eax, -1900
	add	eax, dword ptr [r13 + 20]
	jo	LBB47_749
	mov	dword ptr [r13 + 20], eax
	mov	dword ptr [r15], 15
	jmp	LBB47_504
LBB47_152:
	movaps	xmm0, xmmword ptr [rbp - 208]
	movups	xmmword ptr [r14], xmm0
	mov	dword ptr [r15], 5
	jmp	LBB47_504
LBB47_153:
	mov	rax, qword ptr [r14 + 8]
	cmp	rax, 3
	jae	LBB47_266
LBB47_136:
	mov	dword ptr [r15], 3
	jmp	LBB47_504
LBB47_155:
	lea	r12, [rbp - 72]
	mov	rdi, r12
	mov	rsi, r14
	mov	edx, 101
	mov	rcx, r13
	call	__ZN4time5parse10parse_type17h077cc5c77ceed4cdE
	mov	eax, dword ptr [rbp - 72]
	cmp	eax, 15
	jne	LBB47_163
	mov	rcx, qword ptr [r14 + 8]
	mov	eax, 10
	test	rcx, rcx
	je	LBB47_164
	mov	rdx, qword ptr [r14]
	movzx	esi, byte ptr [rdx]
	test	sil, sil
	jns	LBB47_487
	lea	r8, [rdx + rcx]
	xor	edi, edi
	mov	r9, r8
	cmp	rcx, 1
	je	LBB47_160
	lea	r9, [rdx + 2]
	movzx	edi, byte ptr [rdx + 1]
	and	edi, 63
LBB47_160:
	mov	ebx, esi
	and	ebx, 31
	cmp	sil, -33
	jbe	LBB47_320
	cmp	r9, r8
	je	LBB47_482
	movzx	r10d, byte ptr [r9]
	inc	r9
	and	r10d, 63
	shl	edi, 6
	or	edi, r10d
	cmp	sil, -16
	jb	LBB47_485
LBB47_483:
	cmp	r9, r8
	je	LBB47_568
	movzx	esi, byte ptr [r9]
	and	esi, 63
	jmp	LBB47_569
LBB47_163:
	mov	ebx, dword ptr [rbp - 68]
	mov	esi, dword ptr [rbp - 64]
	jmp	LBB47_499
LBB47_164:
	jmp	LBB47_499
LBB47_165:
	movups	xmm0, xmmword ptr [r14]
	movaps	xmmword ptr [rbp - 208], xmm0
	mov	esi, 1
	mov	edx, 2
	mov	rdi, r14
	xor	ecx, ecx
	call	__ZN4time5parse16match_digits_i6417ha61d5c033a132e4aE
	test	rax, rax
	je	LBB47_283
	cmp	edx, 60
	jae	LBB47_283
	mov	dword ptr [r13 + 4], edx
	mov	dword ptr [r15], 15
	jmp	LBB47_504
LBB47_168:
	movups	xmm0, xmmword ptr [r14]
	movaps	xmmword ptr [rbp - 208], xmm0
	mov	esi, 1
	mov	edx, 2
	mov	rdi, r14
	xor	ecx, ecx
	call	__ZN4time5parse16match_digits_i6417ha61d5c033a132e4aE
	test	rax, rax
	jne	LBB47_200
	jmp	LBB47_202
LBB47_169:
	mov	r9, qword ptr [r14]
	mov	r8, qword ptr [r14 + 8]
	cmp	r8, 3
	jae	LBB47_284
LBB47_170:
	lea	r10, [r9 + r8]
	xor	edx, edx
	mov	rdi, r9
	.p2align	4, 0x90
LBB47_171:
	cmp	r10, rdi
	je	LBB47_187
	lea	rbx, [rdi + 1]
	movzx	eax, byte ptr [rdi]
	test	al, al
	js	LBB47_173
LBB47_185:
	cmp	eax, 32
	je	LBB47_301
LBB47_186:
	sub	rdx, rdi
	add	rdx, rbx
	mov	rdi, rbx
	cmp	eax, 1114112
	jne	LBB47_171
	jmp	LBB47_187
LBB47_173:
	cmp	rbx, r10
	je	LBB47_179
	lea	rbx, [rdi + 2]
	movzx	ecx, byte ptr [rdi + 1]
	and	ecx, 63
	mov	r11, rbx
	mov	esi, eax
	and	esi, 31
	cmp	al, -33
	jbe	LBB47_180
LBB47_175:
	mov	r12, r14
	cmp	r11, r10
	je	LBB47_181
	movzx	r14d, byte ptr [r11]
	inc	r11
	and	r14d, 63
	mov	rbx, r11
	shl	ecx, 6
	or	ecx, r14d
	cmp	al, -16
	jb	LBB47_182
LBB47_177:
	cmp	r11, r10
	je	LBB47_183
	movzx	eax, byte ptr [r11]
	inc	r11
	and	eax, 63
	mov	rbx, r11
	jmp	LBB47_184
LBB47_179:
	xor	ecx, ecx
	mov	r11, r10
	mov	esi, eax
	and	esi, 31
	cmp	al, -33
	ja	LBB47_175
LBB47_180:
	shl	esi, 6
	or	ecx, esi
	mov	eax, ecx
	cmp	eax, 32
	jne	LBB47_186
	jmp	LBB47_301
LBB47_181:
	xor	r14d, r14d
	mov	r11, r10
	shl	ecx, 6
	or	ecx, r14d
	cmp	al, -16
	jae	LBB47_177
LBB47_182:
	shl	esi, 12
	or	ecx, esi
	mov	eax, ecx
	mov	r14, r12
	cmp	eax, 32
	jne	LBB47_186
	jmp	LBB47_301
LBB47_183:
	xor	eax, eax
LBB47_184:
	mov	r14, r12
	and	esi, 7
	shl	esi, 18
	shl	ecx, 6
	or	ecx, esi
	or	ecx, eax
	mov	eax, ecx
	cmp	ecx, 1114112
	jne	LBB47_185
LBB47_187:
	lea	rax, [rip + l___unnamed_54]
	mov	qword ptr [r14], rax
	mov	qword ptr [r14 + 8], 0
	mov	dword ptr [r15], 15
	jmp	LBB47_504
LBB47_188:
	lea	r12, [rbp - 72]
	mov	rdi, r12
	mov	rsi, r14
	mov	edx, 97
	mov	rcx, r13
	call	__ZN4time5parse10parse_type17h077cc5c77ceed4cdE
	mov	eax, dword ptr [rbp - 72]
	cmp	eax, 15
	jne	LBB47_291
	mov	rcx, qword ptr [r14 + 8]
	mov	eax, 10
	test	rcx, rcx
	je	LBB47_300
	mov	rdx, qword ptr [r14]
	movzx	esi, byte ptr [rdx]
	test	sil, sil
	jns	LBB47_510
	lea	r8, [rdx + rcx]
	xor	edi, edi
	mov	r9, r8
	cmp	rcx, 1
	je	LBB47_193
	lea	r9, [rdx + 2]
	movzx	edi, byte ptr [rdx + 1]
	and	edi, 63
LBB47_193:
	mov	ebx, esi
	and	ebx, 31
	cmp	sil, -33
	jbe	LBB47_321
	cmp	r9, r8
	je	LBB47_505
	movzx	r10d, byte ptr [r9]
	inc	r9
	and	r10d, 63
	shl	edi, 6
	or	edi, r10d
	cmp	sil, -16
	jb	LBB47_508
LBB47_506:
	cmp	r9, r8
	je	LBB47_570
	movzx	esi, byte ptr [r9]
	and	esi, 63
	jmp	LBB47_571
LBB47_196:
	movups	xmm0, xmmword ptr [r14]
	movaps	xmmword ptr [rbp - 208], xmm0
	mov	esi, 1
	mov	edx, 2
	mov	rdi, r14
	xor	ecx, ecx
	call	__ZN4time5parse16match_digits_i6417ha61d5c033a132e4aE
	test	rax, rax
	je	LBB47_292
	dec	edx
	cmp	edx, 12
	jae	LBB47_292
	mov	dword ptr [r13 + 16], edx
	mov	dword ptr [r15], 15
	jmp	LBB47_504
LBB47_199:
	movups	xmm0, xmmword ptr [r14]
	movaps	xmmword ptr [rbp - 208], xmm0
	mov	esi, 1
	mov	edx, 2
	mov	rdi, r14
	mov	ecx, 1
	call	__ZN4time5parse16match_digits_i6417ha61d5c033a132e4aE
	test	rax, rax
	je	LBB47_202
LBB47_200:
	lea	eax, [rdx - 1]
	cmp	eax, 12
	jae	LBB47_202
	xor	eax, eax
	cmp	edx, 12
	cmovne	eax, edx
	mov	dword ptr [r13 + 8], eax
	mov	dword ptr [r15], 15
	jmp	LBB47_504
LBB47_202:
	movaps	xmm0, xmmword ptr [rbp - 208]
	movups	xmmword ptr [r14], xmm0
	mov	dword ptr [r15], 2
	jmp	LBB47_504
LBB47_203:
	movups	xmm0, xmmword ptr [r14]
	movaps	xmmword ptr [rbp - 208], xmm0
	mov	esi, 1
	mov	edx, 1
	mov	rdi, r14
	xor	ecx, ecx
	call	__ZN4time5parse16match_digits_i6417ha61d5c033a132e4aE
	test	rax, rax
	je	LBB47_206
	cmp	edx, 7
	jae	LBB47_206
	mov	dword ptr [r13 + 24], edx
	mov	dword ptr [r15], 15
	jmp	LBB47_504
LBB47_206:
	movaps	xmm0, xmmword ptr [rbp - 208]
	movups	xmmword ptr [r14], xmm0
	mov	dword ptr [r15], 6
	jmp	LBB47_504
LBB47_207:
	mov	rax, qword ptr [r14 + 8]
	test	rax, rax
	je	LBB47_531
	mov	rcx, qword ptr [r14]
	movzx	esi, byte ptr [rcx]
	test	sil, sil
	jns	LBB47_385
	lea	r8, [rcx + rax]
	xor	edx, edx
	mov	rbx, r8
	cmp	rax, 1
	je	LBB47_211
	lea	rbx, [rcx + 2]
	movzx	edx, byte ptr [rcx + 1]
	and	edx, 63
LBB47_211:
	mov	edi, esi
	and	edi, 31
	cmp	sil, -33
	jbe	LBB47_311
	cmp	rbx, r8
	je	LBB47_380
	movzx	r9d, byte ptr [rbx]
	inc	rbx
	and	r9d, 63
	shl	edx, 6
	or	edx, r9d
	cmp	sil, -16
	jb	LBB47_383
LBB47_381:
	cmp	rbx, r8
	je	LBB47_529
	movzx	esi, byte ptr [rbx]
	and	esi, 63
	jmp	LBB47_530
LBB47_214:
	mov	dword ptr [r15], 13
	mov	dword ptr [r15 + 4], edx
	jmp	LBB47_504
LBB47_223:
	mov	rcx, qword ptr [r14]
	lea	rdx, [rip + l___unnamed_135]
	lea	rsi, [rip + l___unnamed_38]
	cmp	rcx, rsi
	je	LBB47_227
	movzx	esi, word ptr [rcx]
	cmp	esi, 19777
	je	LBB47_227
	lea	rdx, [rip + l___unnamed_135+24]
	lea	rsi, [rip + l___unnamed_39]
	cmp	rcx, rsi
	je	LBB47_227
	movzx	esi, word ptr [rcx]
	cmp	esi, 19792
	jne	LBB47_86
LBB47_227:
	mov	edx, dword ptr [rdx + 16]
	mov	qword ptr [rbp - 192], rcx
	mov	qword ptr [rbp - 184], rax
	mov	qword ptr [rbp - 56], 2
	mov	qword ptr [rbp - 72], rax
	cmp	rax, 2
	je	LBB47_229
	cmp	byte ptr [rcx + 2], -65
	jle	LBB47_744
LBB47_229:
	add	rcx, 2
	add	rax, -2
	mov	qword ptr [r14], rcx
	mov	qword ptr [r14 + 8], rax
	add	edx, dword ptr [r13 + 8]
	jo	LBB47_751
LBB47_230:
	mov	dword ptr [r13 + 8], edx
	mov	dword ptr [r15], 15
	jmp	LBB47_504
LBB47_231:
	movaps	xmm0, xmmword ptr [rbp - 208]
	movups	xmmword ptr [r14], xmm0
	mov	dword ptr [r15], 0
	jmp	LBB47_504
LBB47_232:
	movaps	xmm0, xmmword ptr [rbp - 208]
	movups	xmmword ptr [r14], xmm0
	mov	dword ptr [r15], 8
	jmp	LBB47_504
LBB47_233:
	mov	ebx, dword ptr [rbp - 68]
	mov	esi, dword ptr [rbp - 64]
LBB47_234:
	mov	dword ptr [r15], edx
	jmp	LBB47_502
LBB47_235:
	mov	edx, 7
	lea	rsi, [rip + l___unnamed_136]
	lea	rdi, [rip + l___unnamed_47]
	cmp	rax, rdi
	je	LBB47_405
	mov	edi, 1970168138
	xor	edi, dword ptr [rax]
	mov	ebx, 2037539189
	xor	ebx, dword ptr [rax + 3]
	or	ebx, edi
	je	LBB47_405
	cmp	rcx, 8
	setb	r8b
	jb	LBB47_240
	mov	edx, 8
	lea	rsi, [rip + l___unnamed_136+24]
	lea	rdi, [rip + L___unnamed_48]
	cmp	rax, rdi
	je	LBB47_405
	movabs	rdi, 8751164182992414022
	cmp	qword ptr [rax], rdi
	je	LBB47_405
LBB47_240:
	mov	edx, 5
	lea	rsi, [rip + l___unnamed_136+48]
	lea	rdi, [rip + l___unnamed_78]
	cmp	rax, rdi
	je	LBB47_405
	mov	edi, 1668440397
	xor	edi, dword ptr [rax]
	movzx	ebx, byte ptr [rax + 4]
	xor	ebx, 104
	or	ebx, edi
	je	LBB47_405
	lea	rsi, [rip + l___unnamed_136+72]
	lea	rdi, [rip + l___unnamed_79]
	cmp	rax, rdi
	je	LBB47_405
	mov	edi, 1769107521
	xor	edi, dword ptr [rax]
	movzx	ebx, byte ptr [rax + 4]
	xor	ebx, 108
	or	ebx, edi
	je	LBB47_405
LBB47_244:
	mov	edx, 3
	lea	rsi, [rip + l___unnamed_136+96]
	lea	rdi, [rip + l___unnamed_56]
	cmp	rax, rdi
	je	LBB47_405
	movzx	edi, word ptr [rax]
	xor	edi, 24909
	movzx	ebx, byte ptr [rax + 2]
	xor	ebx, 121
	or	bx, di
	je	LBB47_405
	cmp	rcx, 4
	jae	LBB47_395
LBB47_247:
	cmp	rcx, 7
	jb	LBB47_250
	mov	edx, 7
	lea	rsi, [rip + l___unnamed_136+216]
	lea	rdi, [rip + l___unnamed_77]
	cmp	rax, rdi
	je	LBB47_405
	mov	edi, 1869898575
	xor	edi, dword ptr [rax]
	mov	ebx, 1919246959
	xor	ebx, dword ptr [rax + 3]
	or	ebx, edi
	je	LBB47_405
LBB47_250:
	test	r8b, r8b
	jne	LBB47_109
	mov	edx, 8
	lea	rsi, [rip + l___unnamed_136+240]
	lea	rdi, [rip + L___unnamed_84]
	cmp	rax, rdi
	je	LBB47_405
	movabs	rdi, 8243102914963531076
	lea	rbx, [rdi + 1247754]
	cmp	rbx, qword ptr [rax]
	je	LBB47_405
	lea	rsi, [rip + l___unnamed_136+264]
	lea	rbx, [rip + L___unnamed_76]
	cmp	rax, rbx
	je	LBB47_405
	cmp	rdi, qword ptr [rax]
	jne	LBB47_109
	jmp	LBB47_405
LBB47_255:
	mov	ebx, dword ptr [rbp - 68]
	mov	esi, dword ptr [rbp - 64]
	jmp	LBB47_442
LBB47_266:
	mov	rcx, qword ptr [r14]
	lea	rdx, [rip + l___unnamed_137]
	lea	rsi, [rip + l___unnamed_36]
	cmp	rcx, rsi
	je	LBB47_280
	movzx	esi, word ptr [rcx]
	xor	esi, 30035
	movzx	edi, byte ptr [rcx + 2]
	xor	edi, 110
	or	di, si
	je	LBB47_280
	lea	rdx, [rip + l___unnamed_137+24]
	lea	rsi, [rip + l___unnamed_37]
	cmp	rcx, rsi
	je	LBB47_280
	movzx	esi, word ptr [rcx]
	xor	esi, 28493
	movzx	edi, byte ptr [rcx + 2]
	xor	edi, 110
	or	di, si
	je	LBB47_280
	lea	rdx, [rip + l___unnamed_137+48]
	lea	rsi, [rip + l___unnamed_67]
	cmp	rcx, rsi
	je	LBB47_280
	movzx	esi, word ptr [rcx]
	xor	esi, 30036
	movzx	edi, byte ptr [rcx + 2]
	xor	edi, 101
	or	di, si
	je	LBB47_280
	lea	rdx, [rip + l___unnamed_137+72]
	lea	rsi, [rip + l___unnamed_68]
	cmp	rcx, rsi
	je	LBB47_280
	movzx	esi, word ptr [rcx]
	xor	esi, 25943
	movzx	edi, byte ptr [rcx + 2]
	xor	edi, 100
	or	di, si
	je	LBB47_280
	lea	rdx, [rip + l___unnamed_137+96]
	lea	rsi, [rip + l___unnamed_66]
	cmp	rcx, rsi
	je	LBB47_280
	movzx	esi, word ptr [rcx]
	xor	esi, 26708
	movzx	edi, byte ptr [rcx + 2]
	xor	edi, 117
	or	di, si
	je	LBB47_280
	lea	rdx, [rip + l___unnamed_137+120]
	lea	rsi, [rip + l___unnamed_69]
	cmp	rcx, rsi
	je	LBB47_280
	movzx	esi, word ptr [rcx]
	xor	esi, 29254
	movzx	edi, byte ptr [rcx + 2]
	xor	edi, 105
	or	di, si
	je	LBB47_280
	lea	rdx, [rip + l___unnamed_137+144]
	lea	rsi, [rip + l___unnamed_70]
	cmp	rcx, rsi
	je	LBB47_280
	movzx	esi, word ptr [rcx]
	xor	esi, 24915
	movzx	edi, byte ptr [rcx + 2]
	xor	edi, 116
	or	di, si
	jne	LBB47_136
LBB47_280:
	mov	edx, dword ptr [rdx + 16]
	mov	qword ptr [rbp - 192], rcx
	mov	qword ptr [rbp - 184], rax
	mov	qword ptr [rbp - 56], 3
	mov	qword ptr [rbp - 72], rax
	cmp	rax, 3
	je	LBB47_282
	cmp	byte ptr [rcx + 3], -65
	jle	LBB47_744
LBB47_282:
	add	rcx, 3
	add	rax, -3
	mov	qword ptr [r14], rcx
	mov	qword ptr [r14 + 8], rax
	mov	dword ptr [r13 + 24], edx
	mov	dword ptr [r15], 15
	jmp	LBB47_504
LBB47_283:
	movaps	xmm0, xmmword ptr [rbp - 208]
	movups	xmmword ptr [r14], xmm0
	mov	dword ptr [r15], 1
	jmp	LBB47_504
LBB47_284:
	lea	rax, [rip + l___unnamed_53]
	cmp	r9, rax
	je	LBB47_288
	movzx	eax, word ptr [r9]
	xor	eax, 21589
	movzx	ecx, byte ptr [r9 + 2]
	xor	ecx, 67
	or	cx, ax
	je	LBB47_288
	lea	rax, [rip + l___unnamed_138]
	cmp	r9, rax
	je	LBB47_288
	movzx	eax, word ptr [r9]
	xor	eax, 19783
	movzx	ecx, byte ptr [r9 + 2]
	xor	ecx, 84
	or	cx, ax
	jne	LBB47_170
LBB47_288:
	mov	qword ptr [rbp - 192], r9
	mov	qword ptr [rbp - 184], r8
	mov	qword ptr [rbp - 56], 3
	mov	qword ptr [rbp - 72], r8
	cmp	r8, 3
	je	LBB47_290
	cmp	byte ptr [r9 + 3], -65
	jle	LBB47_744
LBB47_290:
	add	r9, 3
	mov	qword ptr [r14], r9
	add	r8, -3
	mov	qword ptr [r14 + 8], r8
	jmp	LBB47_379
LBB47_291:
	mov	ebx, dword ptr [rbp - 68]
	mov	esi, dword ptr [rbp - 64]
	jmp	LBB47_522
LBB47_292:
	movaps	xmm0, xmmword ptr [rbp - 208]
	movups	xmmword ptr [r14], xmm0
	mov	dword ptr [r15], 4
	jmp	LBB47_504
LBB47_293:
	xor	eax, eax
LBB47_294:
	mov	rcx, qword ptr [rbp - 240]
	mov	dword ptr [rcx + 40], eax
	mov	rax, qword ptr [rbp - 208]
	mov	dword ptr [rax], 15
	jmp	LBB47_504
LBB47_295:
	mov	dword ptr [r15], 11
	jmp	LBB47_504
LBB47_296:
	mov	dword ptr [r15], 5
	jmp	LBB47_504
LBB47_297:
	mov	dword ptr [r15], edx
	jmp	LBB47_502
LBB47_298:
	jmp	LBB47_442
LBB47_300:
	jmp	LBB47_522
LBB47_301:
	mov	qword ptr [rbp - 192], r9
	mov	qword ptr [rbp - 184], r8
	mov	qword ptr [rbp - 56], rdx
	mov	qword ptr [rbp - 72], r8
	test	rdx, rdx
	je	LBB47_305
	cmp	r8, rdx
	je	LBB47_305
	jbe	LBB47_744
	cmp	byte ptr [r9 + rdx], -65
	jle	LBB47_744
LBB47_305:
	add	r9, rdx
	sub	r8, rdx
	mov	qword ptr [r14], r9
	mov	qword ptr [r14 + 8], r8
	mov	dword ptr [r15], 15
	jmp	LBB47_504
LBB47_306:
	shl	ebx, 6
	jmp	LBB47_326
LBB47_307:
	shl	ebx, 6
	jmp	LBB47_343
LBB47_308:
	shl	edi, 6
	jmp	LBB47_360
LBB47_309:
	shl	edi, 6
	jmp	LBB47_367
LBB47_310:
	shl	edx, 6
	jmp	LBB47_374
LBB47_311:
	shl	edi, 6
	jmp	LBB47_384
LBB47_317:
	shl	ebx, 6
	jmp	LBB47_419
LBB47_318:
	shl	ebx, 6
	jmp	LBB47_429
LBB47_319:
	shl	ebx, 6
	jmp	LBB47_470
LBB47_320:
	shl	ebx, 6
	jmp	LBB47_486
LBB47_321:
	shl	ebx, 6
	jmp	LBB47_509
LBB47_322:
	xor	r10d, r10d
	mov	r9, r8
	shl	edi, 6
	or	edi, r10d
	cmp	sil, -16
	jae	LBB47_323
LBB47_325:
	shl	ebx, 12
LBB47_326:
	or	edi, ebx
	mov	esi, edi
LBB47_327:
	cmp	esi, 47
	jne	LBB47_338
	mov	qword ptr [rbp - 192], rdx
	inc	rdx
	mov	qword ptr [rbp - 184], rcx
	mov	qword ptr [rbp - 224], 1
	mov	qword ptr [rbp - 88], rcx
	cmp	rcx, 1
	je	LBB47_330
	cmp	byte ptr [rdx], -65
	jle	LBB47_750
LBB47_330:
	dec	rcx
	mov	qword ptr [r14], rdx
	mov	qword ptr [r14 + 8], rcx
	lea	rdi, [rbp - 56]
	mov	rsi, r14
	mov	edx, 100
	mov	rcx, r13
	call	__ZN4time5parse10parse_type17h077cc5c77ceed4cdE
	mov	eax, dword ptr [rbp - 56]
	cmp	eax, 15
	jne	LBB47_500
	mov	rcx, qword ptr [r14 + 8]
	mov	eax, 10
	test	rcx, rcx
	je	LBB47_642
	mov	rdx, qword ptr [r14]
	movzx	esi, byte ptr [rdx]
	test	sil, sil
	jns	LBB47_587
	lea	r8, [rdx + rcx]
	xor	edi, edi
	mov	r9, r8
	cmp	rcx, 1
	je	LBB47_335
	lea	r9, [rdx + 2]
	movzx	edi, byte ptr [rdx + 1]
	and	edi, 63
LBB47_335:
	mov	ebx, esi
	and	ebx, 31
	cmp	sil, -33
	jbe	LBB47_532
	cmp	r9, r8
	je	LBB47_582
	movzx	r10d, byte ptr [r9]
	inc	r9
	and	r10d, 63
	shl	edi, 6
	or	edi, r10d
	cmp	sil, -16
	jb	LBB47_585
LBB47_583:
	cmp	r9, r8
	je	LBB47_622
	movzx	esi, byte ptr [r9]
	and	esi, 63
	jmp	LBB47_623
LBB47_338:
	mov	eax, 14
	mov	ebx, 47
	jmp	LBB47_499
LBB47_339:
	xor	r10d, r10d
	mov	r9, r8
	shl	edi, 6
	or	edi, r10d
	cmp	sil, -16
	jae	LBB47_340
LBB47_342:
	shl	ebx, 12
LBB47_343:
	or	edi, ebx
	mov	esi, edi
LBB47_344:
	cmp	esi, 58
	jne	LBB47_355
	mov	qword ptr [rbp - 192], rdx
	inc	rdx
	mov	qword ptr [rbp - 184], rcx
	mov	qword ptr [rbp - 224], 1
	mov	qword ptr [rbp - 88], rcx
	cmp	rcx, 1
	je	LBB47_347
	cmp	byte ptr [rdx], -65
	jle	LBB47_750
LBB47_347:
	dec	rcx
	mov	qword ptr [r14], rdx
	mov	qword ptr [r14 + 8], rcx
	lea	rdi, [rbp - 56]
	mov	rsi, r14
	mov	edx, 77
	mov	rcx, r13
	call	__ZN4time5parse10parse_type17h077cc5c77ceed4cdE
	mov	eax, dword ptr [rbp - 56]
	cmp	eax, 15
	jne	LBB47_500
	mov	rcx, qword ptr [r14 + 8]
	mov	eax, 10
	test	rcx, rcx
	je	LBB47_642
	mov	rdx, qword ptr [r14]
	movzx	esi, byte ptr [rdx]
	test	sil, sil
	jns	LBB47_597
	lea	r8, [rdx + rcx]
	xor	edi, edi
	mov	r9, r8
	cmp	rcx, 1
	je	LBB47_352
	lea	r9, [rdx + 2]
	movzx	edi, byte ptr [rdx + 1]
	and	edi, 63
LBB47_352:
	mov	ebx, esi
	and	ebx, 31
	cmp	sil, -33
	jbe	LBB47_533
	cmp	r9, r8
	je	LBB47_592
	movzx	r10d, byte ptr [r9]
	inc	r9
	and	r10d, 63
	shl	edi, 6
	or	edi, r10d
	cmp	sil, -16
	jb	LBB47_595
LBB47_593:
	cmp	r9, r8
	je	LBB47_624
	movzx	esi, byte ptr [r9]
	and	esi, 63
	jmp	LBB47_625
LBB47_355:
	mov	eax, 14
	mov	ebx, 58
	jmp	LBB47_499
LBB47_356:
	xor	r9d, r9d
	mov	rbx, r8
	shl	edx, 6
	or	edx, r9d
	cmp	sil, -16
	jae	LBB47_357
LBB47_359:
	shl	edi, 12
LBB47_360:
	or	edx, edi
	mov	esi, edx
LBB47_361:
	cmp	esi, 10
	je	LBB47_386
	movabs	rax, 42949672974
	jmp	LBB47_390
LBB47_363:
	xor	r9d, r9d
	mov	rbx, r8
	shl	edx, 6
	or	edx, r9d
	cmp	sil, -16
	jae	LBB47_364
LBB47_366:
	shl	edi, 12
LBB47_367:
	or	edx, edi
	mov	esi, edx
LBB47_368:
	cmp	esi, 37
	je	LBB47_386
	movabs	rax, 158913789966
	jmp	LBB47_390
LBB47_370:
	xor	r10d, r10d
	mov	rsi, r8
	shl	ebx, 6
	or	ebx, r10d
	cmp	dil, -16
	jae	LBB47_371
LBB47_373:
	shl	edx, 12
LBB47_374:
	or	ebx, edx
	mov	edi, ebx
LBB47_375:
	cmp	edi, 90
	jne	LBB47_451
	mov	qword ptr [rbp - 192], rcx
	mov	qword ptr [rbp - 184], rax
	mov	qword ptr [rbp - 56], 1
	mov	qword ptr [rbp - 72], rax
	cmp	rax, 1
	je	LBB47_378
	cmp	byte ptr [r9], -65
	jle	LBB47_744
LBB47_378:
	dec	rax
	mov	qword ptr [r14], r9
	mov	qword ptr [r14 + 8], rax
LBB47_379:
	mov	dword ptr [r13 + 36], 0
	mov	dword ptr [r15], 15
	jmp	LBB47_504
LBB47_380:
	xor	r9d, r9d
	mov	rbx, r8
	shl	edx, 6
	or	edx, r9d
	cmp	sil, -16
	jae	LBB47_381
LBB47_383:
	shl	edi, 12
LBB47_384:
	or	edx, edi
	mov	esi, edx
LBB47_385:
	cmp	esi, 9
	jne	LBB47_389
LBB47_386:
	mov	qword ptr [rbp - 192], rcx
	inc	rcx
	mov	qword ptr [rbp - 184], rax
	mov	qword ptr [rbp - 56], 1
	mov	qword ptr [rbp - 72], rax
	cmp	rax, 1
	je	LBB47_388
	cmp	byte ptr [rcx], -65
	jle	LBB47_744
LBB47_388:
	dec	rax
	mov	qword ptr [r14], rcx
	mov	qword ptr [r14 + 8], rax
	mov	dword ptr [r15], 15
	jmp	LBB47_504
LBB47_389:
	movabs	rax, 38654705678
LBB47_390:
	mov	qword ptr [r15], rax
	jmp	LBB47_503
LBB47_391:
	mov	edx, 7
	lea	rsi, [rip + l___unnamed_134+48]
	lea	rbx, [rip + l___unnamed_72]
	cmp	rcx, rbx
	je	LBB47_313
	mov	ebx, 1936029012
	xor	ebx, dword ptr [rcx]
	mov	edi, 2036425843
	xor	edi, dword ptr [rcx + 3]
	or	edi, ebx
	je	LBB47_313
	cmp	rax, 9
	jae	LBB47_576
	cmp	rax, 8
	jne	LBB47_261
	jmp	LBB47_578
LBB47_395:
	mov	edx, 4
	lea	rsi, [rip + l___unnamed_136+120]
	lea	rdi, [rip + L___unnamed_81]
	cmp	rax, rdi
	je	LBB47_405
	cmp	dword ptr [rax], 1701737802
	je	LBB47_405
	lea	rsi, [rip + l___unnamed_136+144]
	lea	rdi, [rip + L___unnamed_82]
	cmp	rax, rdi
	je	LBB47_405
	cmp	dword ptr [rax], 2037151050
	je	LBB47_405
	cmp	rcx, 6
	jb	LBB47_247
	mov	edx, 6
	lea	rsi, [rip + l___unnamed_136+168]
	lea	rdi, [rip + l___unnamed_80]
	cmp	rax, rdi
	je	LBB47_405
	mov	edi, 1969714497
	xor	edi, dword ptr [rax]
	movzx	ebx, word ptr [rax + 4]
	xor	ebx, 29811
	or	ebx, edi
	je	LBB47_405
	cmp	rcx, 9
	jb	LBB47_247
	mov	edx, 9
	lea	rsi, [rip + l___unnamed_136+192]
	lea	rdi, [rip + l___unnamed_83]
	cmp	rax, rdi
	je	LBB47_405
	movabs	rdi, 7305521828061013331
	xor	rdi, qword ptr [rax]
	movzx	ebx, byte ptr [rax + 8]
	xor	rbx, 114
	or	rbx, rdi
	jne	LBB47_247
LBB47_405:
	mov	esi, dword ptr [rsi + 16]
	mov	qword ptr [rbp - 192], rax
	mov	qword ptr [rbp - 184], rcx
	mov	qword ptr [rbp - 56], rdx
	mov	qword ptr [rbp - 72], rcx
	sub	rcx, rdx
	je	LBB47_408
	jbe	LBB47_744
	cmp	byte ptr [rax + rdx], -65
	jle	LBB47_744
LBB47_408:
	add	rax, rdx
	mov	qword ptr [r14], rax
	mov	qword ptr [r14 + 8], rcx
	mov	dword ptr [r13 + 16], esi
	mov	dword ptr [r15], 15
	jmp	LBB47_504
LBB47_409:
	xor	esi, esi
LBB47_410:
	and	ebx, 7
	shl	ebx, 18
	shl	edi, 6
	or	edi, ebx
	or	edi, esi
	mov	esi, edi
	cmp	edi, 1114112
	jne	LBB47_327
	jmp	LBB47_499
LBB47_411:
	xor	esi, esi
LBB47_412:
	and	ebx, 7
	shl	ebx, 18
	shl	edi, 6
	or	edi, ebx
	or	edi, esi
	mov	esi, edi
	cmp	edi, 1114112
	jne	LBB47_344
	jmp	LBB47_499
LBB47_413:
	xor	esi, esi
LBB47_414:
	and	edi, 7
	shl	edi, 18
	shl	edx, 6
	or	edx, edi
	or	edx, esi
	mov	esi, edx
	cmp	edx, 1114112
	jne	LBB47_361
	jmp	LBB47_531
LBB47_415:
	xor	r10d, r10d
	mov	r9, r8
	shl	edi, 6
	or	edi, r10d
	cmp	sil, -16
	jae	LBB47_416
LBB47_418:
	shl	ebx, 12
LBB47_419:
	or	edi, ebx
	mov	esi, edi
LBB47_420:
	cmp	esi, 58
	jne	LBB47_424
	mov	qword ptr [rbp - 192], rcx
	inc	rcx
	mov	qword ptr [rbp - 184], rax
	mov	qword ptr [rbp - 88], 1
	mov	qword ptr [rbp - 56], rax
	cmp	rax, 1
	je	LBB47_423
	cmp	byte ptr [rcx], -65
	jle	LBB47_756
LBB47_423:
	dec	rax
	mov	qword ptr [r14], rcx
	mov	qword ptr [r14 + 8], rax
	mov	rdi, r15
	mov	rsi, r14
	mov	edx, 77
	jmp	LBB47_663
LBB47_424:
	mov	edx, 14
	mov	ebx, 58
	mov	dword ptr [r15], edx
	jmp	LBB47_502
LBB47_425:
	xor	r10d, r10d
	mov	r9, r8
	shl	edi, 6
	or	edi, r10d
	cmp	sil, -16
	jae	LBB47_426
LBB47_428:
	shl	ebx, 12
LBB47_429:
	or	edi, ebx
	mov	esi, edi
LBB47_430:
	cmp	esi, 58
	jne	LBB47_441
	mov	qword ptr [rbp - 192], rdx
	inc	rdx
	mov	qword ptr [rbp - 184], rcx
	mov	qword ptr [rbp - 232], 1
	mov	qword ptr [rbp - 224], rcx
	cmp	rcx, 1
	je	LBB47_433
	cmp	byte ptr [rdx], -65
	jle	LBB47_757
LBB47_433:
	dec	rcx
	mov	qword ptr [r14], rdx
	mov	qword ptr [r14 + 8], rcx
	lea	rdi, [rbp - 56]
	mov	rsi, r14
	mov	edx, 77
	mov	rcx, r13
	call	__ZN4time5parse10parse_type17h077cc5c77ceed4cdE
	mov	eax, dword ptr [rbp - 56]
	cmp	eax, 15
	jne	LBB47_443
	mov	rcx, qword ptr [r14 + 8]
	mov	eax, 10
	test	rcx, rcx
	je	LBB47_446
	mov	rdx, qword ptr [r14]
	movzx	esi, byte ptr [rdx]
	test	sil, sil
	jns	LBB47_631
	lea	r8, [rdx + rcx]
	xor	edi, edi
	mov	r9, r8
	cmp	rcx, 1
	je	LBB47_438
	lea	r9, [rdx + 2]
	movzx	edi, byte ptr [rdx + 1]
	and	edi, 63
LBB47_438:
	mov	ebx, esi
	and	ebx, 31
	cmp	sil, -33
	jbe	LBB47_572
	cmp	r9, r8
	je	LBB47_626
	movzx	r10d, byte ptr [r9]
	inc	r9
	and	r10d, 63
	shl	edi, 6
	or	edi, r10d
	cmp	sil, -16
	jb	LBB47_629
LBB47_627:
	cmp	r9, r8
	je	LBB47_685
	movzx	esi, byte ptr [r9]
	and	esi, 63
	jmp	LBB47_686
LBB47_441:
	mov	eax, 14
	mov	ebx, 58
LBB47_442:
	mov	dword ptr [rbp - 56], eax
	mov	dword ptr [rbp - 52], ebx
	mov	dword ptr [rbp - 48], esi
LBB47_443:
	mov	ebx, dword ptr [rbp - 52]
	mov	esi, dword ptr [rbp - 48]
LBB47_444:
	mov	dword ptr [rbp - 88], eax
	mov	dword ptr [rbp - 84], ebx
	mov	dword ptr [rbp - 80], esi
LBB47_445:
	mov	ebx, dword ptr [rbp - 84]
	mov	esi, dword ptr [rbp - 80]
	jmp	LBB47_501
LBB47_446:
	jmp	LBB47_444
LBB47_447:
	xor	esi, esi
LBB47_448:
	and	edi, 7
	shl	edi, 18
	shl	edx, 6
	or	edx, edi
	or	edx, esi
	mov	esi, edx
	cmp	edx, 1114112
	jne	LBB47_368
	jmp	LBB47_531
LBB47_449:
	xor	esi, esi
LBB47_450:
	and	edx, 7
	shl	edx, 18
	shl	ebx, 6
	or	ebx, edx
	or	ebx, esi
	mov	edi, ebx
	cmp	ebx, 1114112
	jne	LBB47_375
LBB47_451:
	movzx	edi, byte ptr [rcx]
	test	dil, dil
	jns	LBB47_463
	xor	ebx, ebx
	mov	rsi, r8
	cmp	rax, 1
	je	LBB47_454
	lea	rsi, [rcx + 2]
	movzx	ebx, byte ptr [rcx + 1]
	and	ebx, 63
LBB47_454:
	mov	edx, edi
	and	edx, 31
	cmp	dil, -33
	jbe	LBB47_457
	cmp	rsi, r8
	je	LBB47_458
	movzx	r10d, byte ptr [rsi]
	inc	rsi
	and	r10d, 63
	shl	ebx, 6
	or	ebx, r10d
	cmp	dil, -16
	jb	LBB47_461
LBB47_459:
	cmp	rsi, r8
	je	LBB47_534
	movzx	esi, byte ptr [rsi]
	and	esi, 63
	jmp	LBB47_535
LBB47_457:
	shl	edx, 6
	jmp	LBB47_462
LBB47_458:
	xor	r10d, r10d
	mov	rsi, r8
	shl	ebx, 6
	or	ebx, r10d
	cmp	dil, -16
	jae	LBB47_459
LBB47_461:
	shl	edx, 12
LBB47_462:
	or	ebx, edx
	mov	edi, ebx
LBB47_463:
	cmp	edi, 43
	jne	LBB47_536
	mov	qword ptr [rbp - 192], rcx
	mov	qword ptr [rbp - 184], rax
	mov	qword ptr [rbp - 56], 1
	mov	qword ptr [rbp - 72], rax
	mov	ebx, 1
	cmp	rax, 1
	je	LBB47_552
	cmp	byte ptr [r9], -65
	jg	LBB47_552
	jmp	LBB47_744
LBB47_466:
	xor	r10d, r10d
	mov	r9, r8
	shl	edi, 6
	or	edi, r10d
	cmp	sil, -16
	jae	LBB47_467
LBB47_469:
	shl	ebx, 12
LBB47_470:
	or	edi, ebx
	mov	esi, edi
LBB47_471:
	cmp	esi, 45
	jne	LBB47_498
	mov	qword ptr [rbp - 192], rdx
	inc	rdx
	mov	qword ptr [rbp - 184], rcx
	mov	qword ptr [rbp - 224], 1
	mov	qword ptr [rbp - 88], rcx
	cmp	rcx, 1
	je	LBB47_474
	cmp	byte ptr [rdx], -65
	jle	LBB47_750
LBB47_474:
	dec	rcx
	mov	qword ptr [r14], rdx
	mov	qword ptr [r14 + 8], rcx
	lea	rdi, [rbp - 56]
	mov	rsi, r14
	mov	edx, 109
	mov	rcx, r13
	call	__ZN4time5parse10parse_type17h077cc5c77ceed4cdE
	mov	eax, dword ptr [rbp - 56]
	cmp	eax, 15
	jne	LBB47_500
	mov	rcx, qword ptr [r14 + 8]
	mov	eax, 10
	test	rcx, rcx
	je	LBB47_642
	mov	rdx, qword ptr [r14]
	movzx	esi, byte ptr [rdx]
	test	sil, sil
	jns	LBB47_649
	lea	r8, [rdx + rcx]
	xor	edi, edi
	mov	r9, r8
	cmp	rcx, 1
	je	LBB47_479
	lea	r9, [rdx + 2]
	movzx	edi, byte ptr [rdx + 1]
	and	edi, 63
LBB47_479:
	mov	ebx, esi
	and	ebx, 31
	cmp	sil, -33
	jbe	LBB47_573
	cmp	r9, r8
	je	LBB47_644
	movzx	r10d, byte ptr [r9]
	inc	r9
	and	r10d, 63
	shl	edi, 6
	or	edi, r10d
	cmp	sil, -16
	jb	LBB47_647
LBB47_645:
	cmp	r9, r8
	je	LBB47_687
	movzx	esi, byte ptr [r9]
	and	esi, 63
	jmp	LBB47_688
LBB47_482:
	xor	r10d, r10d
	mov	r9, r8
	shl	edi, 6
	or	edi, r10d
	cmp	sil, -16
	jae	LBB47_483
LBB47_485:
	shl	ebx, 12
LBB47_486:
	or	edi, ebx
	mov	esi, edi
LBB47_487:
	cmp	esi, 45
	jne	LBB47_498
	mov	qword ptr [rbp - 192], rdx
	inc	rdx
	mov	qword ptr [rbp - 184], rcx
	mov	qword ptr [rbp - 224], 1
	mov	qword ptr [rbp - 88], rcx
	cmp	rcx, 1
	je	LBB47_490
	cmp	byte ptr [rdx], -65
	jle	LBB47_750
LBB47_490:
	dec	rcx
	mov	qword ptr [r14], rdx
	mov	qword ptr [r14 + 8], rcx
	lea	rdi, [rbp - 56]
	mov	rsi, r14
	mov	edx, 98
	mov	rcx, r13
	call	__ZN4time5parse10parse_type17h077cc5c77ceed4cdE
	mov	eax, dword ptr [rbp - 56]
	cmp	eax, 15
	jne	LBB47_500
	mov	rcx, qword ptr [r14 + 8]
	mov	eax, 10
	test	rcx, rcx
	je	LBB47_642
	mov	rdx, qword ptr [r14]
	movzx	esi, byte ptr [rdx]
	test	sil, sil
	jns	LBB47_658
	lea	r8, [rdx + rcx]
	xor	edi, edi
	mov	r9, r8
	cmp	rcx, 1
	je	LBB47_495
	lea	r9, [rdx + 2]
	movzx	edi, byte ptr [rdx + 1]
	and	edi, 63
LBB47_495:
	mov	ebx, esi
	and	ebx, 31
	cmp	sil, -33
	jbe	LBB47_574
	cmp	r9, r8
	je	LBB47_653
	movzx	r10d, byte ptr [r9]
	inc	r9
	and	r10d, 63
	shl	edi, 6
	or	edi, r10d
	cmp	sil, -16
	jb	LBB47_656
LBB47_654:
	cmp	r9, r8
	je	LBB47_689
	movzx	esi, byte ptr [r9]
	and	esi, 63
	jmp	LBB47_690
LBB47_498:
	mov	eax, 14
	mov	ebx, 45
LBB47_499:
	mov	dword ptr [rbp - 56], eax
	mov	dword ptr [rbp - 52], ebx
	mov	dword ptr [rbp - 48], esi
LBB47_500:
	mov	ebx, dword ptr [rbp - 52]
	mov	esi, dword ptr [rbp - 48]
LBB47_501:
	mov	dword ptr [r15], eax
LBB47_502:
	mov	dword ptr [r15 + 4], ebx
LBB47_503:
	mov	dword ptr [r15 + 8], esi
LBB47_504:
	add	rsp, 216
	pop	rbx
	pop	r12
	pop	r13
	pop	r14
	pop	r15
	pop	rbp
	ret
LBB47_505:
	xor	r10d, r10d
	mov	r9, r8
	shl	edi, 6
	or	edi, r10d
	cmp	sil, -16
	jae	LBB47_506
LBB47_508:
	shl	ebx, 12
LBB47_509:
	or	edi, ebx
	mov	esi, edi
LBB47_510:
	cmp	esi, 32
	jne	LBB47_521
	mov	qword ptr [rbp - 192], rdx
	inc	rdx
	mov	qword ptr [rbp - 184], rcx
	mov	qword ptr [rbp - 248], 1
	mov	qword ptr [rbp - 232], rcx
	cmp	rcx, 1
	je	LBB47_513
	cmp	byte ptr [rdx], -65
	jle	LBB47_758
LBB47_513:
	dec	rcx
	mov	qword ptr [r14], rdx
	mov	qword ptr [r14 + 8], rcx
	lea	rdi, [rbp - 56]
	mov	rsi, r14
	mov	edx, 98
	mov	rcx, r13
	call	__ZN4time5parse10parse_type17h077cc5c77ceed4cdE
	mov	eax, dword ptr [rbp - 56]
	cmp	eax, 15
	jne	LBB47_523
	mov	rcx, qword ptr [r14 + 8]
	mov	eax, 10
	test	rcx, rcx
	je	LBB47_528
	mov	rdx, qword ptr [r14]
	movzx	esi, byte ptr [rdx]
	test	sil, sil
	jns	LBB47_670
	lea	r8, [rdx + rcx]
	xor	edi, edi
	mov	r9, r8
	cmp	rcx, 1
	je	LBB47_518
	lea	r9, [rdx + 2]
	movzx	edi, byte ptr [rdx + 1]
	and	edi, 63
LBB47_518:
	mov	ebx, esi
	and	ebx, 31
	cmp	sil, -33
	jbe	LBB47_575
	cmp	r9, r8
	je	LBB47_665
	movzx	r10d, byte ptr [r9]
	inc	r9
	and	r10d, 63
	shl	edi, 6
	or	edi, r10d
	cmp	sil, -16
	jb	LBB47_668
LBB47_666:
	cmp	r9, r8
	je	LBB47_691
	movzx	esi, byte ptr [r9]
	and	esi, 63
	jmp	LBB47_692
LBB47_521:
	mov	eax, 14
	mov	ebx, 32
LBB47_522:
	mov	dword ptr [rbp - 56], eax
	mov	dword ptr [rbp - 52], ebx
	mov	dword ptr [rbp - 48], esi
LBB47_523:
	mov	ebx, dword ptr [rbp - 52]
	mov	esi, dword ptr [rbp - 48]
LBB47_524:
	mov	dword ptr [rbp - 88], eax
	mov	dword ptr [rbp - 84], ebx
	mov	dword ptr [rbp - 80], esi
LBB47_525:
	mov	ebx, dword ptr [rbp - 84]
	mov	esi, dword ptr [rbp - 80]
LBB47_526:
	mov	dword ptr [rbp - 224], eax
	mov	dword ptr [rbp - 220], ebx
	mov	dword ptr [rbp - 216], esi
LBB47_527:
	mov	ebx, dword ptr [rbp - 220]
	mov	esi, dword ptr [rbp - 216]
	jmp	LBB47_501
LBB47_528:
	jmp	LBB47_524
LBB47_529:
	xor	esi, esi
LBB47_530:
	and	edi, 7
	shl	edi, 18
	shl	edx, 6
	or	edx, edi
	or	edx, esi
	mov	esi, edx
	cmp	edx, 1114112
	jne	LBB47_385
LBB47_531:
	mov	dword ptr [r15], 10
	jmp	LBB47_504
LBB47_532:
	shl	ebx, 6
	jmp	LBB47_586
LBB47_533:
	shl	ebx, 6
	jmp	LBB47_596
LBB47_534:
	xor	esi, esi
LBB47_535:
	and	edx, 7
	shl	edx, 18
	shl	ebx, 6
	or	ebx, edx
	or	ebx, esi
	mov	edi, ebx
	cmp	ebx, 1114112
	jne	LBB47_463
LBB47_536:
	movzx	edi, byte ptr [rcx]
	test	dil, dil
	jns	LBB47_548
	xor	esi, esi
	mov	rbx, r8
	cmp	rax, 1
	je	LBB47_539
	lea	rbx, [rcx + 2]
	movzx	esi, byte ptr [rcx + 1]
	and	esi, 63
LBB47_539:
	mov	edx, edi
	and	edx, 31
	cmp	dil, -33
	jbe	LBB47_542
	cmp	rbx, r8
	je	LBB47_543
	movzx	r9d, byte ptr [rbx]
	inc	rbx
	and	r9d, 63
	shl	esi, 6
	or	esi, r9d
	cmp	dil, -16
	jb	LBB47_546
LBB47_544:
	cmp	rbx, r8
	je	LBB47_619
	movzx	edi, byte ptr [rbx]
	and	edi, 63
	jmp	LBB47_620
LBB47_542:
	shl	edx, 6
	jmp	LBB47_547
LBB47_543:
	xor	r9d, r9d
	mov	rbx, r8
	shl	esi, 6
	or	esi, r9d
	cmp	dil, -16
	jae	LBB47_544
LBB47_546:
	shl	edx, 12
LBB47_547:
	or	esi, edx
	mov	edi, esi
LBB47_548:
	cmp	edi, 45
	jne	LBB47_560
	mov	qword ptr [rbp - 192], rcx
	inc	rcx
	mov	qword ptr [rbp - 184], rax
	mov	qword ptr [rbp - 56], 1
	mov	qword ptr [rbp - 72], rax
	mov	ebx, -1
	cmp	rax, 1
	jne	LBB47_551
	mov	r9, rcx
	jmp	LBB47_552
LBB47_551:
	cmp	byte ptr [rcx], -65
	mov	r9, rcx
	jle	LBB47_744
LBB47_552:
	mov	qword ptr [r14], r9
	dec	rax
	mov	qword ptr [r14 + 8], rax
	mov	esi, 2
	mov	edx, 2
	mov	rdi, r14
	xor	ecx, ecx
	call	__ZN4time5parse16match_digits_i6417ha61d5c033a132e4aE
	test	rax, rax
	je	LBB47_560
	mov	r12, rdx
	mov	rax, qword ptr [r14 + 8]
	test	rax, rax
	je	LBB47_611
	mov	rcx, qword ptr [r14]
	movzx	esi, byte ptr [rcx]
	test	sil, sil
	jns	LBB47_607
	lea	r8, [rcx + rax]
	xor	edx, edx
	mov	r9, r8
	cmp	rax, 1
	je	LBB47_557
	lea	r9, [rcx + 2]
	movzx	edx, byte ptr [rcx + 1]
	and	edx, 63
LBB47_557:
	mov	edi, esi
	and	edi, 31
	cmp	sil, -33
	jbe	LBB47_561
	cmp	r9, r8
	je	LBB47_602
	movzx	r10d, byte ptr [r9]
	inc	r9
	and	r10d, 63
	shl	edx, 6
	or	edx, r10d
	cmp	sil, -16
	jb	LBB47_605
LBB47_603:
	cmp	r9, r8
	je	LBB47_683
	movzx	esi, byte ptr [r9]
	and	esi, 63
	jmp	LBB47_684
LBB47_561:
	shl	edi, 6
	jmp	LBB47_606
LBB47_562:
	xor	esi, esi
LBB47_563:
	and	ebx, 7
	shl	ebx, 18
	shl	edi, 6
	or	edi, ebx
	or	edi, esi
	mov	esi, edi
	cmp	edi, 1114112
	je	LBB47_234
	jmp	LBB47_420
LBB47_564:
	xor	esi, esi
LBB47_565:
	and	ebx, 7
	shl	ebx, 18
	shl	edi, 6
	or	edi, ebx
	or	edi, esi
	mov	esi, edi
	cmp	edi, 1114112
	jne	LBB47_430
	jmp	LBB47_442
LBB47_566:
	xor	esi, esi
LBB47_567:
	and	ebx, 7
	shl	ebx, 18
	shl	edi, 6
	or	edi, ebx
	or	edi, esi
	mov	esi, edi
	cmp	edi, 1114112
	jne	LBB47_471
	jmp	LBB47_499
LBB47_568:
	xor	esi, esi
LBB47_569:
	and	ebx, 7
	shl	ebx, 18
	shl	edi, 6
	or	edi, ebx
	or	edi, esi
	mov	esi, edi
	cmp	edi, 1114112
	jne	LBB47_487
	jmp	LBB47_499
LBB47_570:
	xor	esi, esi
LBB47_571:
	and	ebx, 7
	shl	ebx, 18
	shl	edi, 6
	or	edi, ebx
	or	edi, esi
	mov	esi, edi
	cmp	edi, 1114112
	jne	LBB47_510
	jmp	LBB47_522
LBB47_572:
	shl	ebx, 6
	jmp	LBB47_630
LBB47_573:
	shl	ebx, 6
	jmp	LBB47_648
LBB47_574:
	shl	ebx, 6
	jmp	LBB47_657
LBB47_575:
	shl	ebx, 6
	jmp	LBB47_669
LBB47_576:
	mov	edx, 9
	lea	rsi, [rip + l___unnamed_134+72]
	lea	rdi, [rip + l___unnamed_73]
	cmp	rcx, rdi
	je	LBB47_313
	movabs	rdi, 7017860998831039831
	xor	rdi, qword ptr [rcx]
	movzx	ebx, byte ptr [rcx + 8]
	xor	rbx, 121
	or	rbx, rdi
	je	LBB47_313
LBB47_578:
	mov	edx, 8
	lea	rsi, [rip + l___unnamed_134+96]
	lea	rdi, [rip + L___unnamed_71]
	cmp	rcx, rdi
	je	LBB47_313
	movabs	rdi, 8746382398334527572
	cmp	qword ptr [rcx], rdi
	je	LBB47_313
	xor	r8d, r8d
	lea	rsi, [rip + l___unnamed_134+120]
	lea	rdx, [rip + l___unnamed_74]
	cmp	rcx, rdx
	jne	LBB47_262
LBB47_312:
	mov	edx, 6
LBB47_313:
	mov	esi, dword ptr [rsi + 16]
	mov	qword ptr [rbp - 192], rcx
	mov	qword ptr [rbp - 184], rax
	mov	qword ptr [rbp - 56], rdx
	mov	qword ptr [rbp - 72], rax
	sub	rax, rdx
	je	LBB47_316
	jbe	LBB47_744
	cmp	byte ptr [rcx + rdx], -65
	jle	LBB47_744
LBB47_316:
	add	rcx, rdx
	mov	qword ptr [r14], rcx
	mov	qword ptr [r14 + 8], rax
	mov	dword ptr [r13 + 24], esi
	mov	dword ptr [r15], 15
	jmp	LBB47_504
LBB47_582:
	xor	r10d, r10d
	mov	r9, r8
	shl	edi, 6
	or	edi, r10d
	cmp	sil, -16
	jae	LBB47_583
LBB47_585:
	shl	ebx, 12
LBB47_586:
	or	edi, ebx
	mov	esi, edi
LBB47_587:
	cmp	esi, 47
	jne	LBB47_591
	mov	qword ptr [rbp - 192], rdx
	inc	rdx
	mov	qword ptr [rbp - 184], rcx
	mov	qword ptr [rbp - 88], 1
	mov	qword ptr [rbp - 72], rcx
	cmp	rcx, 1
	je	LBB47_590
	cmp	byte ptr [rdx], -65
	jle	LBB47_759
LBB47_590:
	dec	rcx
	mov	qword ptr [r14], rdx
	mov	qword ptr [r14 + 8], rcx
	mov	rdi, r15
	mov	rsi, r14
	mov	edx, 121
	jmp	LBB47_663
LBB47_591:
	mov	eax, 14
	mov	ebx, 47
	jmp	LBB47_501
LBB47_592:
	xor	r10d, r10d
	mov	r9, r8
	shl	edi, 6
	or	edi, r10d
	cmp	sil, -16
	jae	LBB47_593
LBB47_595:
	shl	ebx, 12
LBB47_596:
	or	edi, ebx
	mov	esi, edi
LBB47_597:
	cmp	esi, 58
	jne	LBB47_601
	mov	qword ptr [rbp - 192], rdx
	inc	rdx
	mov	qword ptr [rbp - 184], rcx
	mov	qword ptr [rbp - 88], 1
	mov	qword ptr [rbp - 72], rcx
	cmp	rcx, 1
	je	LBB47_600
	cmp	byte ptr [rdx], -65
	jle	LBB47_759
LBB47_600:
	dec	rcx
	mov	qword ptr [r14], rdx
	mov	qword ptr [r14 + 8], rcx
	mov	rdi, r15
	mov	rsi, r14
	mov	edx, 83
	jmp	LBB47_663
LBB47_601:
	mov	eax, 14
	mov	ebx, 58
	jmp	LBB47_501
LBB47_602:
	xor	r10d, r10d
	mov	r9, r8
	shl	edx, 6
	or	edx, r10d
	cmp	sil, -16
	jae	LBB47_603
LBB47_605:
	shl	edi, 12
LBB47_606:
	or	edx, edi
	mov	esi, edx
LBB47_607:
	cmp	esi, 58
	jne	LBB47_611
	mov	qword ptr [rbp - 192], rcx
	inc	rcx
	mov	qword ptr [rbp - 184], rax
	mov	qword ptr [rbp - 56], 1
	mov	qword ptr [rbp - 72], rax
	cmp	rax, 1
	je	LBB47_610
	cmp	byte ptr [rcx], -65
	jle	LBB47_744
LBB47_610:
	dec	rax
	mov	qword ptr [r14], rcx
	mov	qword ptr [r14 + 8], rax
LBB47_611:
	mov	esi, 2
	mov	edx, 2
	mov	rdi, r14
	xor	ecx, ecx
	call	__ZN4time5parse16match_digits_i6417ha61d5c033a132e4aE
	test	rax, rax
	je	LBB47_560
	imul	eax, r12d, 60
	jo	LBB47_752
	imul	eax, eax, 60
	jo	LBB47_752
	imul	ecx, edx, 60
	jo	LBB47_753
	add	eax, ecx
	jo	LBB47_754
	imul	ebx, eax
	jo	LBB47_755
	mov	dword ptr [r13 + 36], ebx
	mov	dword ptr [r15], 15
	jmp	LBB47_504
LBB47_619:
	xor	edi, edi
LBB47_620:
	and	edx, 7
	shl	edx, 18
	shl	esi, 6
	or	esi, edx
	or	esi, edi
	mov	edi, esi
	cmp	esi, 1114112
	jne	LBB47_548
LBB47_560:
	mov	dword ptr [r15], 9
	jmp	LBB47_504
LBB47_622:
	xor	esi, esi
LBB47_623:
	and	ebx, 7
	shl	ebx, 18
	shl	edi, 6
	or	edi, ebx
	or	edi, esi
	mov	esi, edi
	cmp	edi, 1114112
	je	LBB47_501
	jmp	LBB47_587
LBB47_624:
	xor	esi, esi
LBB47_625:
	and	ebx, 7
	shl	ebx, 18
	shl	edi, 6
	or	edi, ebx
	or	edi, esi
	mov	esi, edi
	cmp	edi, 1114112
	je	LBB47_501
	jmp	LBB47_597
LBB47_626:
	xor	r10d, r10d
	mov	r9, r8
	shl	edi, 6
	or	edi, r10d
	cmp	sil, -16
	jae	LBB47_627
LBB47_629:
	shl	ebx, 12
LBB47_630:
	or	edi, ebx
	mov	esi, edi
LBB47_631:
	cmp	esi, 58
	jne	LBB47_643
	mov	qword ptr [rbp - 192], rdx
	inc	rdx
	mov	qword ptr [rbp - 184], rcx
	mov	qword ptr [rbp - 224], 1
	mov	qword ptr [rbp - 72], rcx
	cmp	rcx, 1
	je	LBB47_634
	cmp	byte ptr [rdx], -65
	jle	LBB47_760
LBB47_634:
	dec	rcx
	mov	qword ptr [r14], rdx
	mov	qword ptr [r14 + 8], rcx
	lea	rdi, [rbp - 88]
	mov	rsi, r14
	mov	edx, 83
	mov	rcx, r13
	call	__ZN4time5parse10parse_type17h077cc5c77ceed4cdE
	mov	eax, dword ptr [rbp - 88]
	cmp	eax, 15
	jne	LBB47_445
	mov	rcx, qword ptr [r14 + 8]
	mov	eax, 10
	test	rcx, rcx
	je	LBB47_642
	mov	rdx, qword ptr [r14]
	movzx	esi, byte ptr [rdx]
	test	sil, sil
	jns	LBB47_704
	lea	r8, [rdx + rcx]
	xor	edi, edi
	mov	r9, r8
	cmp	rcx, 1
	je	LBB47_639
	lea	r9, [rdx + 2]
	movzx	edi, byte ptr [rdx + 1]
	and	edi, 63
LBB47_639:
	mov	ebx, esi
	and	ebx, 31
	cmp	sil, -33
	jbe	LBB47_693
	cmp	r9, r8
	je	LBB47_699
	movzx	r10d, byte ptr [r9]
	inc	r9
	and	r10d, 63
	shl	edi, 6
	or	edi, r10d
	cmp	sil, -16
	jb	LBB47_702
LBB47_700:
	cmp	r9, r8
	je	LBB47_727
	movzx	esi, byte ptr [r9]
	and	esi, 63
	jmp	LBB47_728
LBB47_642:
	jmp	LBB47_501
LBB47_643:
	mov	eax, 14
	mov	ebx, 58
	jmp	LBB47_444
LBB47_644:
	xor	r10d, r10d
	mov	r9, r8
	shl	edi, 6
	or	edi, r10d
	cmp	sil, -16
	jae	LBB47_645
LBB47_647:
	shl	ebx, 12
LBB47_648:
	or	edi, ebx
	mov	esi, edi
LBB47_649:
	cmp	esi, 45
	jne	LBB47_664
	mov	qword ptr [rbp - 192], rdx
	inc	rdx
	mov	qword ptr [rbp - 184], rcx
	mov	qword ptr [rbp - 88], 1
	mov	qword ptr [rbp - 72], rcx
	cmp	rcx, 1
	je	LBB47_652
	cmp	byte ptr [rdx], -65
	jle	LBB47_759
LBB47_652:
	dec	rcx
	mov	qword ptr [r14], rdx
	mov	qword ptr [r14 + 8], rcx
	mov	rdi, r15
	mov	rsi, r14
	mov	edx, 100
	jmp	LBB47_663
LBB47_653:
	xor	r10d, r10d
	mov	r9, r8
	shl	edi, 6
	or	edi, r10d
	cmp	sil, -16
	jae	LBB47_654
LBB47_656:
	shl	ebx, 12
LBB47_657:
	or	edi, ebx
	mov	esi, edi
LBB47_658:
	cmp	esi, 45
	jne	LBB47_664
	mov	qword ptr [rbp - 192], rdx
	inc	rdx
	mov	qword ptr [rbp - 184], rcx
	mov	qword ptr [rbp - 88], 1
	mov	qword ptr [rbp - 72], rcx
	cmp	rcx, 1
	je	LBB47_661
	cmp	byte ptr [rdx], -65
	jle	LBB47_759
LBB47_661:
	dec	rcx
	mov	qword ptr [r14], rdx
	mov	qword ptr [r14 + 8], rcx
	mov	rdi, r15
	mov	rsi, r14
LBB47_662:
	mov	edx, 89
LBB47_663:
	mov	rcx, r13
	add	rsp, 216
	pop	rbx
	pop	r12
	pop	r13
	pop	r14
	pop	r15
	pop	rbp
	jmp	__ZN4time5parse10parse_type17h077cc5c77ceed4cdE
LBB47_664:
	mov	eax, 14
	mov	ebx, 45
	jmp	LBB47_501
LBB47_665:
	xor	r10d, r10d
	mov	r9, r8
	shl	edi, 6
	or	edi, r10d
	cmp	sil, -16
	jae	LBB47_666
LBB47_668:
	shl	ebx, 12
LBB47_669:
	or	edi, ebx
	mov	esi, edi
LBB47_670:
	cmp	esi, 32
	jne	LBB47_681
	mov	qword ptr [rbp - 192], rdx
	inc	rdx
	mov	qword ptr [rbp - 184], rcx
	mov	qword ptr [rbp - 232], 1
	mov	qword ptr [rbp - 72], rcx
	cmp	rcx, 1
	je	LBB47_673
	cmp	byte ptr [rdx], -65
	jle	LBB47_761
LBB47_673:
	dec	rcx
	mov	qword ptr [r14], rdx
	mov	qword ptr [r14 + 8], rcx
	lea	rdi, [rbp - 88]
	mov	rsi, r14
	mov	edx, 101
	mov	rcx, r13
	call	__ZN4time5parse10parse_type17h077cc5c77ceed4cdE
	mov	eax, dword ptr [rbp - 88]
	cmp	eax, 15
	jne	LBB47_525
	mov	rcx, qword ptr [r14 + 8]
	mov	eax, 10
	test	rcx, rcx
	je	LBB47_682
	mov	rdx, qword ptr [r14]
	movzx	esi, byte ptr [rdx]
	test	sil, sil
	jns	LBB47_714
	lea	r8, [rdx + rcx]
	xor	edi, edi
	mov	r9, r8
	cmp	rcx, 1
	je	LBB47_678
	lea	r9, [rdx + 2]
	movzx	edi, byte ptr [rdx + 1]
	and	edi, 63
LBB47_678:
	mov	ebx, esi
	and	ebx, 31
	cmp	sil, -33
	jbe	LBB47_694
	cmp	r9, r8
	je	LBB47_709
	movzx	r10d, byte ptr [r9]
	inc	r9
	and	r10d, 63
	shl	edi, 6
	or	edi, r10d
	cmp	sil, -16
	jb	LBB47_712
LBB47_710:
	cmp	r9, r8
	je	LBB47_729
	movzx	esi, byte ptr [r9]
	and	esi, 63
	jmp	LBB47_730
LBB47_681:
	mov	eax, 14
	mov	ebx, 32
	jmp	LBB47_524
LBB47_682:
	jmp	LBB47_526
LBB47_683:
	xor	esi, esi
LBB47_684:
	and	edi, 7
	shl	edi, 18
	shl	edx, 6
	or	edx, edi
	or	edx, esi
	mov	esi, edx
	cmp	edx, 1114112
	jne	LBB47_607
	jmp	LBB47_611
LBB47_685:
	xor	esi, esi
LBB47_686:
	and	ebx, 7
	shl	ebx, 18
	shl	edi, 6
	or	edi, ebx
	or	edi, esi
	mov	esi, edi
	cmp	edi, 1114112
	je	LBB47_444
	jmp	LBB47_631
LBB47_687:
	xor	esi, esi
LBB47_688:
	and	ebx, 7
	shl	ebx, 18
	shl	edi, 6
	or	edi, ebx
	or	edi, esi
	mov	esi, edi
	cmp	edi, 1114112
	je	LBB47_501
	jmp	LBB47_649
LBB47_689:
	xor	esi, esi
LBB47_690:
	and	ebx, 7
	shl	ebx, 18
	shl	edi, 6
	or	edi, ebx
	or	edi, esi
	mov	esi, edi
	cmp	edi, 1114112
	je	LBB47_501
	jmp	LBB47_658
LBB47_691:
	xor	esi, esi
LBB47_692:
	and	ebx, 7
	shl	ebx, 18
	shl	edi, 6
	or	edi, ebx
	or	edi, esi
	mov	esi, edi
	cmp	edi, 1114112
	je	LBB47_524
	jmp	LBB47_670
LBB47_693:
	shl	ebx, 6
	jmp	LBB47_703
LBB47_694:
	shl	ebx, 6
	jmp	LBB47_713
LBB47_695:
	mov	r15, rbx
	mov	r14, r8
	mov	r13, r9
LBB47_696:
	mov	edx, dword ptr [rdx + 16]
	mov	qword ptr [rbp - 192], rcx
	mov	qword ptr [rbp - 184], rax
	mov	qword ptr [rbp - 56], 3
	mov	qword ptr [rbp - 72], rax
	cmp	rax, 3
	je	LBB47_698
	cmp	byte ptr [rcx + 3], -65
	jle	LBB47_744
LBB47_698:
	add	rcx, 3
	add	rax, -3
	mov	qword ptr [r14], rcx
	mov	qword ptr [r14 + 8], rax
	mov	dword ptr [r13 + 16], edx
	mov	dword ptr [r15], 15
	jmp	LBB47_504
LBB47_699:
	xor	r10d, r10d
	mov	r9, r8
	shl	edi, 6
	or	edi, r10d
	cmp	sil, -16
	jae	LBB47_700
LBB47_702:
	shl	ebx, 12
LBB47_703:
	or	edi, ebx
	mov	esi, edi
LBB47_704:
	cmp	esi, 32
	jne	LBB47_708
	mov	qword ptr [rbp - 192], rdx
	inc	rdx
	mov	qword ptr [rbp - 184], rcx
	mov	qword ptr [rbp - 56], 1
	mov	qword ptr [rbp - 72], rcx
	cmp	rcx, 1
	je	LBB47_707
	cmp	byte ptr [rdx], -65
	jle	LBB47_762
LBB47_707:
	dec	rcx
	mov	qword ptr [r14], rdx
	mov	qword ptr [r14 + 8], rcx
	mov	rdi, r15
	mov	rsi, r14
	mov	edx, 112
	jmp	LBB47_663
LBB47_708:
	mov	eax, 14
	mov	ebx, 32
	jmp	LBB47_501
LBB47_709:
	xor	r10d, r10d
	mov	r9, r8
	shl	edi, 6
	or	edi, r10d
	cmp	sil, -16
	jae	LBB47_710
LBB47_712:
	shl	ebx, 12
LBB47_713:
	or	edi, ebx
	mov	esi, edi
LBB47_714:
	cmp	esi, 32
	jne	LBB47_725
	mov	qword ptr [rbp - 192], rdx
	inc	rdx
	mov	qword ptr [rbp - 184], rcx
	mov	qword ptr [rbp - 56], 1
	mov	qword ptr [rbp - 72], rcx
	cmp	rcx, 1
	je	LBB47_717
	cmp	byte ptr [rdx], -65
	jle	LBB47_762
LBB47_717:
	dec	rcx
	mov	rbx, r14
	mov	qword ptr [r14], rdx
	mov	qword ptr [r14 + 8], rcx
	lea	rdi, [rbp - 224]
	mov	rsi, r14
	mov	edx, 84
	mov	rcx, r13
	call	__ZN4time5parse10parse_type17h077cc5c77ceed4cdE
	mov	eax, dword ptr [rbp - 224]
	cmp	eax, 15
	jne	LBB47_527
	mov	rdi, r15
	mov	rcx, qword ptr [rbx + 8]
	mov	eax, 10
	test	rcx, rcx
	je	LBB47_726
	mov	r14, rbx
	mov	rdx, qword ptr [rbx]
	movzx	esi, byte ptr [rdx]
	test	sil, sil
	jns	LBB47_737
	lea	r8, [rdx + rcx]
	xor	r11d, r11d
	mov	r9, r8
	cmp	rcx, 1
	je	LBB47_722
	lea	r9, [rdx + 2]
	movzx	r11d, byte ptr [rdx + 1]
	and	r11d, 63
LBB47_722:
	mov	ebx, esi
	and	ebx, 31
	cmp	sil, -33
	jbe	LBB47_731
	cmp	r9, r8
	je	LBB47_732
	movzx	r10d, byte ptr [r9]
	inc	r9
	and	r10d, 63
	shl	r11d, 6
	or	r11d, r10d
	cmp	sil, -16
	jb	LBB47_735
LBB47_733:
	cmp	r9, r8
	je	LBB47_742
	movzx	esi, byte ptr [r9]
	and	esi, 63
	jmp	LBB47_743
LBB47_725:
	mov	eax, 14
	mov	ebx, 32
	jmp	LBB47_526
LBB47_726:
	mov	r15, rdi
	jmp	LBB47_501
LBB47_727:
	xor	esi, esi
LBB47_728:
	and	ebx, 7
	shl	ebx, 18
	shl	edi, 6
	or	edi, ebx
	or	edi, esi
	mov	esi, edi
	cmp	edi, 1114112
	je	LBB47_501
	jmp	LBB47_704
LBB47_729:
	xor	esi, esi
LBB47_730:
	and	ebx, 7
	shl	ebx, 18
	shl	edi, 6
	or	edi, ebx
	or	edi, esi
	mov	esi, edi
	cmp	edi, 1114112
	je	LBB47_526
	jmp	LBB47_714
LBB47_731:
	shl	ebx, 6
	jmp	LBB47_736
LBB47_732:
	xor	r10d, r10d
	mov	r9, r8
	shl	r11d, 6
	or	r11d, r10d
	cmp	sil, -16
	jae	LBB47_733
LBB47_735:
	shl	ebx, 12
LBB47_736:
	or	r11d, ebx
	mov	esi, r11d
LBB47_737:
	cmp	esi, 32
	jne	LBB47_741
	mov	qword ptr [rbp - 192], rdx
	inc	rdx
	mov	qword ptr [rbp - 184], rcx
	mov	qword ptr [rbp - 56], 1
	mov	qword ptr [rbp - 72], rcx
	cmp	rcx, 1
	je	LBB47_740
	cmp	byte ptr [rdx], -65
	jle	LBB47_762
LBB47_740:
	dec	rcx
	mov	rsi, r14
	mov	qword ptr [r14], rdx
	mov	qword ptr [r14 + 8], rcx
	jmp	LBB47_662
LBB47_741:
	mov	eax, 14
	mov	ebx, 32
	mov	r15, rdi
	jmp	LBB47_501
LBB47_742:
	xor	esi, esi
LBB47_743:
	and	ebx, 7
	shl	ebx, 18
	shl	r11d, 6
	or	r11d, ebx
	or	r11d, esi
	mov	esi, r11d
	cmp	r11d, 1114112
	mov	r15, rdi
	je	LBB47_501
	jmp	LBB47_737
LBB47_744:
	lea	rax, [rbp - 192]
	mov	qword ptr [rbp - 144], rax
	lea	rax, [rbp - 56]
	mov	qword ptr [rbp - 136], rax
	lea	rax, [rbp - 72]
	mov	qword ptr [rbp - 128], rax
	lea	rdi, [rbp - 144]
	call	__ZN4core3str6traits105_$LT$impl$u20$core..slice..SliceIndex$LT$str$GT$$u20$for$u20$core..ops..range..RangeFrom$LT$usize$GT$$GT$5index28_$u7b$$u7b$closure$u7d$$u7d$17h13a1c725af8681beE
LBB47_745:
	lea	rdi, [rip + _str.5]
	lea	rdx, [rip + l___unnamed_139]
	mov	esi, 28
	call	__ZN4core9panicking5panic17h736ee47a631475c0E
LBB47_746:
	lea	rbx, [rbp - 72]
	mov	rdi, rbx
	call	__ZN3std2io5error5Error13last_os_error17h5c14d716e3637a11E
	mov	qword ptr [rbp - 56], rbx
	mov	rax, qword ptr [rip + __ZN60_$LT$std..io..error..Error$u20$as$u20$core..fmt..Display$GT$3fmt17hd5a23906ccc4fffdE@GOTPCREL]
	mov	qword ptr [rbp - 48], rax
	lea	rax, [rip + l___unnamed_140]
	mov	qword ptr [rbp - 192], rax
	mov	qword ptr [rbp - 184], 1
	mov	qword ptr [rbp - 176], 0
	lea	rax, [rbp - 56]
	mov	qword ptr [rbp - 160], rax
	mov	qword ptr [rbp - 152], 1
Ltmp6:
	lea	rsi, [rip + l___unnamed_141]
	lea	rdi, [rbp - 192]
	call	__ZN3std9panicking15begin_panic_fmt17h2e6dba6f5c07d155E
Ltmp7:
	ud2
LBB47_748:
	lea	rdi, [rip + _str.0]
	lea	rdx, [rip + l___unnamed_142]
	mov	esi, 33
	call	__ZN4core9panicking5panic17h736ee47a631475c0E
LBB47_749:
	lea	rdi, [rip + _str.5]
	lea	rdx, [rip + l___unnamed_143]
	mov	esi, 28
	call	__ZN4core9panicking5panic17h736ee47a631475c0E
LBB47_750:
	lea	rax, [rbp - 192]
	mov	qword ptr [rbp - 144], rax
	lea	rax, [rbp - 224]
	mov	qword ptr [rbp - 136], rax
	lea	rax, [rbp - 88]
	mov	qword ptr [rbp - 128], rax
	lea	rdi, [rbp - 144]
	call	__ZN4core3str6traits105_$LT$impl$u20$core..slice..SliceIndex$LT$str$GT$$u20$for$u20$core..ops..range..RangeFrom$LT$usize$GT$$GT$5index28_$u7b$$u7b$closure$u7d$$u7d$17h13a1c725af8681beE
LBB47_751:
	lea	rdi, [rip + _str.5]
	lea	rdx, [rip + l___unnamed_144]
	mov	esi, 28
	call	__ZN4core9panicking5panic17h736ee47a631475c0E
LBB47_752:
	lea	rdi, [rip + _str.3]
	lea	rdx, [rip + l___unnamed_145]
	mov	esi, 33
	call	__ZN4core9panicking5panic17h736ee47a631475c0E
LBB47_753:
	lea	rdi, [rip + _str.3]
	lea	rdx, [rip + l___unnamed_146]
	mov	esi, 33
	call	__ZN4core9panicking5panic17h736ee47a631475c0E
LBB47_754:
	lea	rdi, [rip + _str.5]
	lea	rdx, [rip + l___unnamed_147]
	mov	esi, 28
	call	__ZN4core9panicking5panic17h736ee47a631475c0E
LBB47_755:
	lea	rdi, [rip + _str.3]
	lea	rdx, [rip + l___unnamed_148]
	mov	esi, 33
	call	__ZN4core9panicking5panic17h736ee47a631475c0E
LBB47_756:
	lea	rax, [rbp - 192]
	mov	qword ptr [rbp - 144], rax
	lea	rax, [rbp - 88]
	mov	qword ptr [rbp - 136], rax
	lea	rax, [rbp - 56]
	mov	qword ptr [rbp - 128], rax
	lea	rdi, [rbp - 144]
	call	__ZN4core3str6traits105_$LT$impl$u20$core..slice..SliceIndex$LT$str$GT$$u20$for$u20$core..ops..range..RangeFrom$LT$usize$GT$$GT$5index28_$u7b$$u7b$closure$u7d$$u7d$17h13a1c725af8681beE
LBB47_757:
	lea	rax, [rbp - 192]
	mov	qword ptr [rbp - 144], rax
	lea	rax, [rbp - 232]
	mov	qword ptr [rbp - 136], rax
	lea	rax, [rbp - 224]
	mov	qword ptr [rbp - 128], rax
	lea	rdi, [rbp - 144]
	call	__ZN4core3str6traits105_$LT$impl$u20$core..slice..SliceIndex$LT$str$GT$$u20$for$u20$core..ops..range..RangeFrom$LT$usize$GT$$GT$5index28_$u7b$$u7b$closure$u7d$$u7d$17h13a1c725af8681beE
LBB47_758:
	lea	rax, [rbp - 192]
	mov	qword ptr [rbp - 144], rax
	lea	rax, [rbp - 248]
	mov	qword ptr [rbp - 136], rax
	lea	rax, [rbp - 232]
	mov	qword ptr [rbp - 128], rax
	lea	rdi, [rbp - 144]
	call	__ZN4core3str6traits105_$LT$impl$u20$core..slice..SliceIndex$LT$str$GT$$u20$for$u20$core..ops..range..RangeFrom$LT$usize$GT$$GT$5index28_$u7b$$u7b$closure$u7d$$u7d$17h13a1c725af8681beE
LBB47_759:
	lea	rax, [rbp - 192]
	mov	qword ptr [rbp - 144], rax
	lea	rax, [rbp - 88]
	mov	qword ptr [rbp - 136], rax
	mov	qword ptr [rbp - 128], r12
	lea	rdi, [rbp - 144]
	call	__ZN4core3str6traits105_$LT$impl$u20$core..slice..SliceIndex$LT$str$GT$$u20$for$u20$core..ops..range..RangeFrom$LT$usize$GT$$GT$5index28_$u7b$$u7b$closure$u7d$$u7d$17h13a1c725af8681beE
LBB47_760:
	lea	rax, [rbp - 192]
	mov	qword ptr [rbp - 144], rax
	lea	rax, [rbp - 224]
	mov	qword ptr [rbp - 136], rax
	mov	qword ptr [rbp - 128], r12
	lea	rdi, [rbp - 144]
	call	__ZN4core3str6traits105_$LT$impl$u20$core..slice..SliceIndex$LT$str$GT$$u20$for$u20$core..ops..range..RangeFrom$LT$usize$GT$$GT$5index28_$u7b$$u7b$closure$u7d$$u7d$17h13a1c725af8681beE
LBB47_761:
	lea	rax, [rbp - 192]
	mov	qword ptr [rbp - 144], rax
	lea	rax, [rbp - 232]
	mov	qword ptr [rbp - 136], rax
	mov	qword ptr [rbp - 128], r12
	lea	rdi, [rbp - 144]
	call	__ZN4core3str6traits105_$LT$impl$u20$core..slice..SliceIndex$LT$str$GT$$u20$for$u20$core..ops..range..RangeFrom$LT$usize$GT$$GT$5index28_$u7b$$u7b$closure$u7d$$u7d$17h13a1c725af8681beE
LBB47_762:
	lea	rax, [rbp - 192]
	mov	qword ptr [rbp - 144], rax
	lea	rax, [rbp - 56]
	mov	qword ptr [rbp - 136], rax
	mov	qword ptr [rbp - 128], r12
	lea	rdi, [rbp - 144]
	call	__ZN4core3str6traits105_$LT$impl$u20$core..slice..SliceIndex$LT$str$GT$$u20$for$u20$core..ops..range..RangeFrom$LT$usize$GT$$GT$5index28_$u7b$$u7b$closure$u7d$$u7d$17h13a1c725af8681beE
LBB47_763:
Ltmp8:
	mov	rbx, rax
	lea	rdi, [rbp - 72]
	call	__ZN4core3ptr13drop_in_place17h661d1aa1bd98fe22E
	mov	rdi, rbx
	call	__Unwind_Resume
	ud2
Lfunc_end2:
	.cfi_endproc
	.p2align	2, 0x90
	.data_region jt32
.set L47_0_set_118, LBB47_118-LJTI47_0
.set L47_0_set_214, LBB47_214-LJTI47_0
.set L47_0_set_135, LBB47_135-LJTI47_0
.set L47_0_set_106, LBB47_106-LJTI47_0
.set L47_0_set_148, LBB47_148-LJTI47_0
.set L47_0_set_2, LBB47_2-LJTI47_0
.set L47_0_set_137, LBB47_137-LJTI47_0
.set L47_0_set_145, LBB47_145-LJTI47_0
.set L47_0_set_168, LBB47_168-LJTI47_0
.set L47_0_set_165, LBB47_165-LJTI47_0
.set L47_0_set_85, LBB47_85-LJTI47_0
.set L47_0_set_98, LBB47_98-LJTI47_0
.set L47_0_set_92, LBB47_92-LJTI47_0
.set L47_0_set_10, LBB47_10-LJTI47_0
.set L47_0_set_125, LBB47_125-LJTI47_0
.set L47_0_set_169, LBB47_169-LJTI47_0
.set L47_0_set_153, LBB47_153-LJTI47_0
.set L47_0_set_18, LBB47_18-LJTI47_0
.set L47_0_set_188, LBB47_188-LJTI47_0
.set L47_0_set_46, LBB47_46-LJTI47_0
.set L47_0_set_81, LBB47_81-LJTI47_0
.set L47_0_set_48, LBB47_48-LJTI47_0
.set L47_0_set_95, LBB47_95-LJTI47_0
.set L47_0_set_47, LBB47_47-LJTI47_0
.set L47_0_set_199, LBB47_199-LJTI47_0
.set L47_0_set_196, LBB47_196-LJTI47_0
.set L47_0_set_74, LBB47_74-LJTI47_0
.set L47_0_set_87, LBB47_87-LJTI47_0
.set L47_0_set_110, LBB47_110-LJTI47_0
.set L47_0_set_89, LBB47_89-LJTI47_0
.set L47_0_set_207, LBB47_207-LJTI47_0
.set L47_0_set_71, LBB47_71-LJTI47_0
.set L47_0_set_155, LBB47_155-LJTI47_0
.set L47_0_set_203, LBB47_203-LJTI47_0
.set L47_0_set_20, LBB47_20-LJTI47_0
.set L47_0_set_128, LBB47_128-LJTI47_0
LJTI47_0:
	.long	L47_0_set_118
	.long	L47_0_set_214
	.long	L47_0_set_214
	.long	L47_0_set_214
	.long	L47_0_set_214
	.long	L47_0_set_214
	.long	L47_0_set_214
	.long	L47_0_set_214
	.long	L47_0_set_214
	.long	L47_0_set_214
	.long	L47_0_set_214
	.long	L47_0_set_214
	.long	L47_0_set_214
	.long	L47_0_set_214
	.long	L47_0_set_214
	.long	L47_0_set_214
	.long	L47_0_set_214
	.long	L47_0_set_214
	.long	L47_0_set_214
	.long	L47_0_set_214
	.long	L47_0_set_214
	.long	L47_0_set_214
	.long	L47_0_set_214
	.long	L47_0_set_214
	.long	L47_0_set_214
	.long	L47_0_set_214
	.long	L47_0_set_214
	.long	L47_0_set_214
	.long	L47_0_set_135
	.long	L47_0_set_106
	.long	L47_0_set_148
	.long	L47_0_set_2
	.long	L47_0_set_214
	.long	L47_0_set_137
	.long	L47_0_set_214
	.long	L47_0_set_145
	.long	L47_0_set_168
	.long	L47_0_set_214
	.long	L47_0_set_214
	.long	L47_0_set_214
	.long	L47_0_set_165
	.long	L47_0_set_214
	.long	L47_0_set_214
	.long	L47_0_set_85
	.long	L47_0_set_214
	.long	L47_0_set_98
	.long	L47_0_set_92
	.long	L47_0_set_10
	.long	L47_0_set_214
	.long	L47_0_set_214
	.long	L47_0_set_214
	.long	L47_0_set_10
	.long	L47_0_set_125
	.long	L47_0_set_169
	.long	L47_0_set_214
	.long	L47_0_set_214
	.long	L47_0_set_214
	.long	L47_0_set_214
	.long	L47_0_set_214
	.long	L47_0_set_214
	.long	L47_0_set_153
	.long	L47_0_set_18
	.long	L47_0_set_188
	.long	L47_0_set_46
	.long	L47_0_set_81
	.long	L47_0_set_48
	.long	L47_0_set_214
	.long	L47_0_set_18
	.long	L47_0_set_214
	.long	L47_0_set_95
	.long	L47_0_set_47
	.long	L47_0_set_199
	.long	L47_0_set_196
	.long	L47_0_set_74
	.long	L47_0_set_214
	.long	L47_0_set_87
	.long	L47_0_set_214
	.long	L47_0_set_110
	.long	L47_0_set_89
	.long	L47_0_set_207
	.long	L47_0_set_71
	.long	L47_0_set_155
	.long	L47_0_set_203
	.long	L47_0_set_2
	.long	L47_0_set_20
	.long	L47_0_set_128
	.end_data_region
	.section	__TEXT,__gcc_except_tab
	.p2align	2
GCC_except_table47:
Lexception2:
	.byte	255
	.byte	255
	.byte	1
	.uleb128 Lcst_end2-Lcst_begin2
Lcst_begin2:
	.uleb128 Lfunc_begin2-Lfunc_begin2
	.uleb128 Ltmp6-Lfunc_begin2
	.byte	0
	.byte	0
	.uleb128 Ltmp6-Lfunc_begin2
	.uleb128 Ltmp7-Ltmp6
	.uleb128 Ltmp8-Lfunc_begin2
	.byte	0
	.uleb128 Ltmp7-Lfunc_begin2
	.uleb128 Lfunc_end2-Ltmp7
	.byte	0
	.byte	0
Lcst_end2:
	.p2align	2

	.section	__TEXT,__text,regular,pure_instructions
	.p2align	4, 0x90
__ZN4time5parse16match_digits_i6417ha61d5c033a132e4aE:
	.cfi_startproc
	push	rbp
	.cfi_def_cfa_offset 16
	.cfi_offset rbp, -16
	mov	rbp, rsp
	.cfi_def_cfa_register rbp
	push	r15
	push	r14
	push	r13
	push	r12
	push	rbx
	sub	rsp, 328
	.cfi_offset rbx, -56
	.cfi_offset r12, -48
	.cfi_offset r13, -40
	.cfi_offset r14, -32
	.cfi_offset r15, -24
	mov	r13, rdx
	test	ecx, ecx
	je	LBB48_58
	mov	qword ptr [rbp - 216], rsi
	mov	qword ptr [rbp - 64], r13
	mov	rsi, qword ptr [rdi]
	mov	qword ptr [rbp - 72], rdi
	mov	rdx, qword ptr [rdi + 8]
	lea	rcx, [rip + l___unnamed_40]
	lea	rdi, [rbp - 208]
	mov	r8d, 1
	mov	qword ptr [rbp - 56], rdx
	call	__ZN4core3str7pattern11StrSearcher3new17hf20175b25b057116E
	mov	r10, qword ptr [rbp - 176]
	mov	r8, qword ptr [rbp - 168]
	mov	r12, qword ptr [rbp - 208]
	mov	rsi, qword ptr [rbp - 200]
	mov	rax, r8
	sub	rax, 1
	mov	qword ptr [rbp - 336], rax
	setb	al
	cmp	rsi, r8
	sete	r9b
	or	r9b, al
	lea	r15, [r12 + r8]
	lea	rax, [r12 + rsi]
	mov	qword ptr [rbp - 232], rax
	lea	rdi, [r12 + r8 + 1]
	lea	rax, [r12 + r8 + 2]
	mov	qword ptr [rbp - 352], rax
	mov	rax, qword ptr [rbp - 192]
	mov	r14, qword ptr [rbp - 136]
	mov	rcx, r14
	sub	rcx, r8
	mov	qword ptr [rbp - 296], rcx
	mov	r11, qword ptr [rbp - 184]
	mov	rcx, qword ptr [rbp - 144]
	mov	qword ptr [rbp - 320], rcx
	lea	rcx, [r11 - 1]
	mov	qword ptr [rbp - 304], rcx
	mov	rcx, qword ptr [rbp - 120]
	mov	qword ptr [rbp - 80], rcx
	lea	rcx, [r12 + r14]
	mov	qword ptr [rbp - 240], rcx
	mov	qword ptr [rbp - 104], rax
	add	rax, r8
	mov	qword ptr [rbp - 344], rax
	mov	qword ptr [rbp - 224], r10
	mov	qword ptr [rbp - 312], rdi
LBB48_2:
	mov	bl, byte ptr [rbp - 152]
	mov	qword ptr [rbp - 88], r14
	mov	ecx, ebx
	test	r10, r10
	je	LBB48_11
	.p2align	4, 0x90
LBB48_3:
	mov	byte ptr [rbp - 152], cl
	cmp	r14, rsi
	je	LBB48_78
	lea	rdi, [r14 + r11 - 1]
	cmp	rdi, rsi
	mov	rcx, qword ptr [rbp - 80]
	jae	LBB48_79
	lea	r13, [r14 + r11]
	mov	rax, qword ptr [rbp - 152]
	lea	rdx, [rax + r14]
	mov	qword ptr [rbp - 288], rdx
	cmp	rcx, -1
	mov	byte ptr [rbp - 41], r9b
	je	LBB48_42
	mov	rdx, r11
	sub	rdx, rax
	mov	qword ptr [rbp - 328], rdx
	mov	r9, rcx
	mov	rcx, r14
	mov	rdx, qword ptr [rbp - 104]
	mov	qword ptr [rbp - 88], r13
	cmp	r14, rcx
	je	LBB48_30
	jmp	LBB48_64
LBB48_7:
	shl	r14d, 6
LBB48_8:
	or	r10d, r14d
	mov	edx, r10d
	mov	r14, qword ptr [rbp - 88]
	mov	r10, qword ptr [rbp - 224]
	mov	r9d, r13d
	.p2align	4, 0x90
LBB48_9:
	test	cl, cl
	je	LBB48_59
LBB48_10:
	mov	ecx, ebx
	test	r10, r10
	jne	LBB48_3
LBB48_11:
	test	cl, cl
	sete	bl
	mov	qword ptr [rbp - 256], r12
	mov	qword ptr [rbp - 248], rsi
	mov	qword ptr [rbp - 360], r8
	mov	qword ptr [rbp - 96], rsi
	test	r9b, r9b
	jne	LBB48_14
	cmp	rsi, r8
	jbe	LBB48_125
	cmp	byte ptr [r15], -65
	jle	LBB48_125
LBB48_14:
	mov	edx, 1114112
	cmp	rsi, r8
	je	LBB48_9
	movzx	edx, byte ptr [r15]
	test	dl, dl
	jns	LBB48_9
	mov	r13d, r9d
	mov	r9, qword ptr [rbp - 232]
	cmp	rdi, r9
	je	LBB48_20
	movzx	r10d, byte ptr [rdi]
	and	r10d, 63
	mov	r9, qword ptr [rbp - 352]
	mov	r14d, edx
	and	r14d, 31
	cmp	dl, -33
	jbe	LBB48_7
LBB48_18:
	mov	rdi, qword ptr [rbp - 232]
	cmp	r9, rdi
	je	LBB48_21
	movzx	eax, byte ptr [r9]
	inc	r9
	and	eax, 63
	jmp	LBB48_22
LBB48_20:
	xor	r10d, r10d
	mov	r14d, edx
	and	r14d, 31
	cmp	dl, -33
	ja	LBB48_18
	jmp	LBB48_7
LBB48_21:
	xor	eax, eax
	mov	r9, rdi
LBB48_22:
	shl	r10d, 6
	or	r10d, eax
	cmp	dl, -16
	mov	rdi, qword ptr [rbp - 312]
	jb	LBB48_25
	cmp	r9, qword ptr [rbp - 232]
	je	LBB48_26
	movzx	eax, byte ptr [r9]
	and	eax, 63
	jmp	LBB48_27
LBB48_25:
	shl	r14d, 12
	jmp	LBB48_8
LBB48_26:
	xor	eax, eax
LBB48_27:
	mov	r9d, r13d
	and	r14d, 7
	shl	r14d, 18
	shl	r10d, 6
	or	r10d, r14d
	or	r10d, eax
	mov	edx, r10d
	mov	r14, qword ptr [rbp - 88]
	mov	r10, qword ptr [rbp - 224]
	test	cl, cl
	jne	LBB48_10
	jmp	LBB48_59
	.p2align	4, 0x90
LBB48_28:
	xor	r9d, r9d
	mov	rcx, r13
	mov	rax, qword ptr [rbp - 304]
	lea	rdi, [rcx + rax]
	cmp	rdi, rsi
	jae	LBB48_65
LBB48_29:
	cmp	r14, rcx
	jne	LBB48_64
LBB48_30:
	movzx	eax, byte ptr [r12 + rdi]
	mov	rcx, qword ptr [rbp - 320]
	bt	rcx, rax
	jae	LBB48_28
	cmp	r8, r9
	mov	rbx, r9
	cmova	rbx, r8
	mov	rax, qword ptr [rbp - 296]
	lea	rcx, [rax + rbx]
	lea	rax, [rdx + rbx]
	lea	rdi, [r14 + rbx]
	.p2align	4, 0x90
LBB48_32:
	cmp	rbx, r11
	jae	LBB48_36
	cmp	rdi, rsi
	jae	LBB48_126
	movzx	edx, byte ptr [rax]
	inc	rcx
	inc	rax
	inc	rdi
	mov	r13, qword ptr [rbp - 240]
	cmp	dl, byte ptr [r13 + rbx]
	lea	rbx, [rbx + 1]
	je	LBB48_32
	xor	r9d, r9d
	mov	rdx, qword ptr [rbp - 104]
	mov	r13, qword ptr [rbp - 88]
	mov	rax, qword ptr [rbp - 304]
	lea	rdi, [rcx + rax]
	cmp	rdi, rsi
	jb	LBB48_29
	jmp	LBB48_65
	.p2align	4, 0x90
LBB48_36:
	mov	rdi, r8
	mov	rdx, qword ptr [rbp - 104]
	mov	r13, qword ptr [rbp - 88]
	.p2align	4, 0x90
LBB48_37:
	cmp	r9, rdi
	jae	LBB48_57
	dec	rdi
	cmp	rdi, r11
	jae	LBB48_128
	lea	rcx, [rdi + r14]
	cmp	rcx, rsi
	jae	LBB48_129
	movzx	eax, byte ptr [rdx + rdi]
	cmp	al, byte ptr [r12 + rcx]
	je	LBB48_37
	mov	r9, qword ptr [rbp - 328]
	mov	rcx, qword ptr [rbp - 288]
	mov	rax, qword ptr [rbp - 304]
	lea	rdi, [rcx + rax]
	cmp	rdi, rsi
	jb	LBB48_29
	jmp	LBB48_65
LBB48_42:
	mov	rcx, r14
	cmp	r14, rcx
	je	LBB48_46
	jmp	LBB48_66
LBB48_43:
	mov	rcx, qword ptr [rbp - 288]
	.p2align	4, 0x90
LBB48_44:
	mov	rax, qword ptr [rbp - 304]
	lea	rdi, [rcx + rax]
	cmp	rdi, rsi
	jae	LBB48_75
	cmp	r14, rcx
	jne	LBB48_66
LBB48_46:
	movzx	eax, byte ptr [r12 + rdi]
	mov	rcx, qword ptr [rbp - 320]
	bt	rcx, rax
	mov	rcx, r13
	jae	LBB48_44
	xor	eax, eax
	mov	rbx, qword ptr [rbp - 344]
	mov	rcx, r14
	.p2align	4, 0x90
LBB48_48:
	lea	rdi, [r8 + rax]
	cmp	rdi, r11
	jae	LBB48_51
	lea	rdi, [r8 + rcx]
	cmp	rdi, rsi
	jae	LBB48_127
	movzx	edx, byte ptr [rbx]
	inc	rbx
	inc	rax
	cmp	dl, byte ptr [r15 + rcx]
	lea	rcx, [rcx + 1]
	je	LBB48_48
	jmp	LBB48_44
LBB48_51:
	mov	rdi, qword ptr [rbp - 336]
	mov	rdx, qword ptr [rbp - 104]
	.p2align	4, 0x90
LBB48_52:
	cmp	rdi, -1
	je	LBB48_56
	cmp	rdi, r11
	jae	LBB48_133
	lea	rcx, [r14 + rdi]
	cmp	rcx, rsi
	jae	LBB48_134
	movzx	eax, byte ptr [rdx + rdi]
	mov	rcx, qword ptr [rbp - 240]
	cmp	al, byte ptr [rcx + rdi]
	lea	rdi, [rdi - 1]
	je	LBB48_52
	jmp	LBB48_43
LBB48_56:
	mov	r9, -1
LBB48_57:
	cmp	qword ptr [rbp - 80], -1
	mov	eax, 0
	cmovne	r9, rax
	add	qword ptr [rbp - 296], r11
	add	qword ptr [rbp - 240], r11
	mov	qword ptr [rbp - 80], r9
	mov	r14, r13
	mov	r9b, byte ptr [rbp - 41]
	mov	rdi, qword ptr [rbp - 312]
	jmp	LBB48_2
LBB48_58:
	mov	r9, qword ptr [rdi + 8]
	xor	ebx, ebx
	jmp	LBB48_86
LBB48_59:
	mov	byte ptr [rbp - 152], bl
	mov	rax, qword ptr [rbp - 80]
	mov	qword ptr [rbp - 120], rax
	mov	qword ptr [rbp - 136], r14
	mov	r10, qword ptr [rbp - 56]
	mov	r14, r10
	cmp	edx, 1114112
	mov	rdi, qword ptr [rbp - 72]
	mov	r13, qword ptr [rbp - 64]
	mov	rsi, qword ptr [rbp - 216]
	je	LBB48_83
	mov	eax, 1
	cmp	edx, 128
	jb	LBB48_63
	mov	eax, 2
	cmp	edx, 2048
	jb	LBB48_63
	cmp	edx, 65536
	mov	eax, 4
	sbb	rax, 0
LBB48_63:
	add	rax, r8
	mov	qword ptr [rbp - 168], rax
	mov	r14, r8
	jmp	LBB48_83
LBB48_64:
	mov	qword ptr [rbp - 136], rcx
	mov	qword ptr [rbp - 120], r9
	jmp	LBB48_67
LBB48_65:
	mov	qword ptr [rbp - 136], rcx
	mov	qword ptr [rbp - 120], r9
	jmp	LBB48_80
LBB48_66:
	mov	qword ptr [rbp - 120], -1
	mov	qword ptr [rbp - 136], rcx
LBB48_67:
	test	rcx, rcx
	mov	rdi, qword ptr [rbp - 72]
	mov	r13, qword ptr [rbp - 64]
	mov	r10, qword ptr [rbp - 56]
	je	LBB48_77
	cmp	rsi, rcx
	je	LBB48_77
	lea	rdx, [rsi - 1]
	mov	rbx, rcx
	.p2align	4, 0x90
LBB48_70:
	cmp	rsi, rbx
	jbe	LBB48_72
	cmp	byte ptr [r12 + rbx], -64
	jge	LBB48_124
LBB48_72:
	mov	rax, rbx
	inc	rax
	je	LBB48_74
	cmp	rdx, rbx
	mov	rbx, rax
	jne	LBB48_70
LBB48_74:
	mov	rsi, rcx
	mov	rcx, rax
	jmp	LBB48_81
LBB48_77:
	mov	rsi, rcx
	jmp	LBB48_81
LBB48_75:
	mov	qword ptr [rbp - 120], -1
	mov	qword ptr [rbp - 136], rcx
	jmp	LBB48_80
LBB48_78:
	mov	rax, qword ptr [rbp - 80]
	mov	qword ptr [rbp - 120], rax
	mov	qword ptr [rbp - 136], rsi
	mov	r10, qword ptr [rbp - 56]
	mov	r14, r10
	mov	rdi, qword ptr [rbp - 72]
	mov	r13, qword ptr [rbp - 64]
	jmp	LBB48_82
LBB48_79:
	mov	qword ptr [rbp - 120], rcx
	mov	qword ptr [rbp - 136], r14
LBB48_80:
	mov	qword ptr [rbp - 136], rsi
	mov	rcx, rsi
	mov	rdi, qword ptr [rbp - 72]
	mov	r13, qword ptr [rbp - 64]
	mov	r10, qword ptr [rbp - 56]
LBB48_81:
	cmp	rcx, rsi
	cmova	rsi, rcx
	mov	qword ptr [rbp - 136], rsi
LBB48_82:
	mov	rsi, qword ptr [rbp - 216]
LBB48_83:
	sub	r10, r14
	mov	r9, qword ptr [rdi + 8]
	mov	rbx, r9
	sub	rbx, r10
	jb	LBB48_137
	cmp	rbx, r13
	jbe	LBB48_86
	xor	eax, eax
	jmp	LBB48_123
LBB48_86:
	mov	r8, qword ptr [rdi]
	mov	qword ptr [rbp - 280], r8
	mov	qword ptr [rbp - 272], r9
	mov	qword ptr [rbp - 96], rbx
	mov	qword ptr [rbp - 256], r9
	test	rbx, rbx
	je	LBB48_90
	cmp	r9, rbx
	je	LBB48_90
	jbe	LBB48_135
	cmp	byte ptr [r8 + rbx], -65
	jle	LBB48_135
LBB48_90:
	mov	rax, r13
	sub	rax, rbx
	jb	LBB48_136
	test	rax, rax
	je	LBB48_115
	lea	r10, [r8 + r9]
	lea	r12, [r8 + rbx]
	xor	edx, edx
	.p2align	4, 0x90
LBB48_93:
	cmp	r10, r12
	je	LBB48_116
	lea	rax, [r12 + 1]
	movzx	ecx, byte ptr [r12]
	test	cl, cl
	js	LBB48_96
	mov	r12, rax
	cmp	ecx, 1114112
	je	LBB48_116
LBB48_110:
	lea	eax, [rcx - 48]
	cmp	eax, 9
	ja	LBB48_116
	imul	rdx, rdx, 10
	jo	LBB48_130
	mov	eax, ecx
	add	rax, -48
	add	rdx, rax
	jo	LBB48_131
	inc	rbx
	je	LBB48_132
	cmp	r13, rbx
	jne	LBB48_93
	jmp	LBB48_116
	.p2align	4, 0x90
LBB48_96:
	cmp	rax, r10
	je	LBB48_102
	movzx	r15d, byte ptr [r12 + 1]
	add	r12, 2
	and	r15d, 63
	mov	r11, r12
	mov	eax, ecx
	and	eax, 31
	cmp	cl, -33
	jbe	LBB48_103
LBB48_98:
	cmp	r11, r10
	je	LBB48_104
	movzx	r14d, byte ptr [r11]
	inc	r11
	and	r14d, 63
	mov	r12, r11
	shl	r15d, 6
	or	r15d, r14d
	cmp	cl, -16
	jb	LBB48_105
LBB48_100:
	cmp	r11, r10
	je	LBB48_107
	movzx	ecx, byte ptr [r11]
	inc	r11
	and	ecx, 63
	mov	r12, r11
	jmp	LBB48_108
LBB48_102:
	xor	r15d, r15d
	mov	r12, rax
	mov	r11, r10
	mov	eax, ecx
	and	eax, 31
	cmp	cl, -33
	ja	LBB48_98
LBB48_103:
	shl	eax, 6
	jmp	LBB48_106
LBB48_104:
	xor	r14d, r14d
	mov	r11, r10
	shl	r15d, 6
	or	r15d, r14d
	cmp	cl, -16
	jae	LBB48_100
LBB48_105:
	shl	eax, 12
LBB48_106:
	or	r15d, eax
	mov	ecx, r15d
	cmp	ecx, 1114112
	jne	LBB48_110
	jmp	LBB48_116
LBB48_107:
	xor	ecx, ecx
LBB48_108:
	and	eax, 7
	shl	eax, 18
	shl	r15d, 6
	or	r15d, eax
	or	r15d, ecx
	mov	ecx, r15d
	cmp	r15d, 1114112
	je	LBB48_116
	.p2align	4, 0x90
	cmp	ecx, 1114112
	jne	LBB48_110
	jmp	LBB48_116
LBB48_115:
	xor	edx, edx
LBB48_116:
	xor	eax, eax
	cmp	rbx, rsi
	jb	LBB48_123
	cmp	rbx, r13
	ja	LBB48_123
	mov	qword ptr [rbp - 280], r8
	mov	qword ptr [rbp - 272], r9
	mov	qword ptr [rbp - 96], rbx
	mov	qword ptr [rbp - 256], r9
	test	rbx, rbx
	je	LBB48_122
	cmp	r9, rbx
	je	LBB48_122
	jbe	LBB48_135
	cmp	byte ptr [r8 + rbx], -65
	jle	LBB48_135
LBB48_122:
	add	r8, rbx
	sub	r9, rbx
	mov	qword ptr [rdi], r8
	mov	qword ptr [rdi + 8], r9
	mov	eax, 1
LBB48_123:
	add	rsp, 328
	pop	rbx
	pop	r12
	pop	r13
	pop	r14
	pop	r15
	pop	rbp
	ret
LBB48_124:
	mov	rsi, rcx
	mov	rcx, rbx
	jmp	LBB48_81
LBB48_125:
	mov	byte ptr [rbp - 152], bl
	mov	rax, qword ptr [rbp - 80]
	mov	qword ptr [rbp - 120], rax
	mov	qword ptr [rbp - 136], r14
	lea	rax, [rbp - 256]
	mov	qword ptr [rbp - 280], rax
	lea	rax, [rbp - 360]
	mov	qword ptr [rbp - 272], rax
	lea	rax, [rbp - 96]
	mov	qword ptr [rbp - 264], rax
	lea	rdi, [rbp - 280]
	call	__ZN4core3str6traits105_$LT$impl$u20$core..slice..SliceIndex$LT$str$GT$$u20$for$u20$core..ops..range..RangeFrom$LT$usize$GT$$GT$5index28_$u7b$$u7b$closure$u7d$$u7d$17h13a1c725af8681beE
LBB48_126:
	mov	qword ptr [rbp - 136], r14
	mov	qword ptr [rbp - 120], r9
	lea	rdx, [rip + l___unnamed_149]
	call	__ZN4core9panicking18panic_bounds_check17habe69d236c55e3edE
LBB48_127:
	mov	qword ptr [rbp - 120], -1
	mov	qword ptr [rbp - 136], r14
	lea	rdx, [rip + l___unnamed_149]
	call	__ZN4core9panicking18panic_bounds_check17habe69d236c55e3edE
LBB48_128:
	mov	qword ptr [rbp - 136], r14
	mov	qword ptr [rbp - 120], r9
	lea	rdx, [rip + l___unnamed_150]
	mov	rsi, r11
	call	__ZN4core9panicking18panic_bounds_check17habe69d236c55e3edE
LBB48_129:
	mov	qword ptr [rbp - 136], r14
	mov	qword ptr [rbp - 120], r9
	lea	rdx, [rip + l___unnamed_151]
	mov	rdi, rcx
	call	__ZN4core9panicking18panic_bounds_check17habe69d236c55e3edE
LBB48_130:
	lea	rdi, [rip + _str.3]
	lea	rdx, [rip + l___unnamed_152]
	mov	esi, 33
	call	__ZN4core9panicking5panic17h736ee47a631475c0E
LBB48_131:
	lea	rdi, [rip + _str.5]
	lea	rdx, [rip + l___unnamed_152]
	mov	esi, 28
	call	__ZN4core9panicking5panic17h736ee47a631475c0E
LBB48_132:
	lea	rdi, [rip + _str.5]
	lea	rdx, [rip + l___unnamed_153]
	mov	esi, 28
	call	__ZN4core9panicking5panic17h736ee47a631475c0E
LBB48_133:
	mov	qword ptr [rbp - 120], -1
	mov	qword ptr [rbp - 136], r14
	lea	rdx, [rip + l___unnamed_150]
	mov	rsi, r11
	call	__ZN4core9panicking18panic_bounds_check17habe69d236c55e3edE
LBB48_134:
	mov	qword ptr [rbp - 120], -1
	mov	qword ptr [rbp - 136], r14
	lea	rdx, [rip + l___unnamed_151]
	mov	rdi, rcx
	call	__ZN4core9panicking18panic_bounds_check17habe69d236c55e3edE
LBB48_135:
	lea	rax, [rbp - 280]
	mov	qword ptr [rbp - 208], rax
	lea	rax, [rbp - 96]
	mov	qword ptr [rbp - 200], rax
	lea	rax, [rbp - 256]
	mov	qword ptr [rbp - 192], rax
	lea	rdi, [rbp - 208]
	call	__ZN4core3str6traits105_$LT$impl$u20$core..slice..SliceIndex$LT$str$GT$$u20$for$u20$core..ops..range..RangeFrom$LT$usize$GT$$GT$5index28_$u7b$$u7b$closure$u7d$$u7d$17h13a1c725af8681beE
LBB48_136:
	lea	rdi, [rip + _str.0]
	lea	rdx, [rip + l___unnamed_154]
	mov	esi, 33
	call	__ZN4core9panicking5panic17h736ee47a631475c0E
LBB48_137:
	lea	rdi, [rip + _str.0]
	lea	rdx, [rip + l___unnamed_155]
	mov	esi, 33
	call	__ZN4core9panicking5panic17h736ee47a631475c0E
	.cfi_endproc

	.globl	__ZN4time3sys5inner3mac4info17h80a4b2035e1636d9E
	.p2align	4, 0x90
__ZN4time3sys5inner3mac4info17h80a4b2035e1636d9E:
	.cfi_startproc
	push	rbp
	.cfi_def_cfa_offset 16
	.cfi_offset rbp, -16
	mov	rbp, rsp
	.cfi_def_cfa_register rbp
	sub	rsp, 16
	mov	rax, qword ptr [rip + __ZN4time3sys5inner3mac4info4ONCE17hc94ad1dfed8a6a13E]
	cmp	rax, 3
	jne	LBB49_1
	lea	rax, [rip + __ZN4time3sys5inner3mac4info4INFO17h3ef712fb47ef0bd5E]
	add	rsp, 16
	pop	rbp
	ret
LBB49_1:
	mov	byte ptr [rbp - 1], 1
	lea	rax, [rbp - 1]
	mov	qword ptr [rbp - 16], rax
	lea	rdi, [rip + __ZN4time3sys5inner3mac4info4ONCE17hc94ad1dfed8a6a13E]
	lea	rcx, [rip + l___unnamed_156]
	lea	rdx, [rbp - 16]
	xor	esi, esi
	call	__ZN3std4sync4once4Once10call_inner17h78f35ea5a056ddbcE
	lea	rax, [rip + __ZN4time3sys5inner3mac4info4INFO17h3ef712fb47ef0bd5E]
	add	rsp, 16
	pop	rbp
	ret
	.cfi_endproc

	.globl	__ZN107_$LT$time..sys..inner..mac..SteadyTime$u20$as$u20$core..ops..arith..Sub$LT$time..duration..Duration$GT$$GT$3sub17hdf6a9c397e366657E
	.p2align	4, 0x90
__ZN107_$LT$time..sys..inner..mac..SteadyTime$u20$as$u20$core..ops..arith..Sub$LT$time..duration..Duration$GT$$GT$3sub17hdf6a9c397e366657E:
	.cfi_startproc
	push	rbp
	.cfi_def_cfa_offset 16
	.cfi_offset rbp, -16
	mov	rbp, rsp
	.cfi_def_cfa_register rbp
	mov	rax, rdi
	movabs	rcx, -9223372036854775808
	test	edx, edx
	je	LBB50_9
	cmp	rsi, rcx
	je	LBB50_12
	mov	ecx, 1000000000
	sub	ecx, edx
	jo	LBB50_13
	not	rsi
	mov	rdx, rsi
	test	rsi, rsi
	jns	LBB50_6
LBB50_5:
	xor	edx, edx
	test	ecx, ecx
	setg	dl
	add	rdx, rsi
LBB50_6:
	imul	rdx, rdx, 1000000000
	jo	LBB50_8
	lea	edi, [rcx - 1000000000]
	test	rsi, rsi
	cmovns	edi, ecx
	test	ecx, ecx
	cmovle	edi, ecx
	movsxd	rcx, edi
	add	rdx, rcx
	jo	LBB50_8
	add	rax, rdx
	jo	LBB50_16
	pop	rbp
	ret
LBB50_9:
	cmp	rsi, rcx
	je	LBB50_11
	neg	rsi
	xor	ecx, ecx
	mov	rdx, rsi
	test	rsi, rsi
	jns	LBB50_6
	jmp	LBB50_5
LBB50_8:
	lea	rdi, [rip + l___unnamed_1]
	lea	rdx, [rip + l___unnamed_157]
	mov	esi, 43
	call	__ZN4core9panicking5panic17h736ee47a631475c0E
LBB50_16:
	lea	rdi, [rip + _str.5]
	lea	rdx, [rip + l___unnamed_158]
	mov	esi, 28
	call	__ZN4core9panicking5panic17h736ee47a631475c0E
LBB50_12:
	lea	rdi, [rip + _str.6]
	lea	rdx, [rip + l___unnamed_127]
	mov	esi, 31
	call	__ZN4core9panicking5panic17h736ee47a631475c0E
LBB50_13:
	lea	rdi, [rip + _str.0]
	lea	rdx, [rip + l___unnamed_128]
	mov	esi, 33
	call	__ZN4core9panicking5panic17h736ee47a631475c0E
LBB50_11:
	lea	rdi, [rip + _str.6]
	lea	rdx, [rip + l___unnamed_129]
	mov	esi, 31
	call	__ZN4core9panicking5panic17h736ee47a631475c0E
	.cfi_endproc

	.globl	__ZN107_$LT$time..sys..inner..mac..SteadyTime$u20$as$u20$core..ops..arith..Add$LT$time..duration..Duration$GT$$GT$3add17h75e3af388aa4650bE
	.p2align	4, 0x90
__ZN107_$LT$time..sys..inner..mac..SteadyTime$u20$as$u20$core..ops..arith..Add$LT$time..duration..Duration$GT$$GT$3add17h75e3af388aa4650bE:
	.cfi_startproc
	push	rbp
	.cfi_def_cfa_offset 16
	.cfi_offset rbp, -16
	mov	rbp, rsp
	.cfi_def_cfa_register rbp
	mov	rax, rdi
	mov	rcx, rsi
	test	rsi, rsi
	jns	LBB51_2
	xor	ecx, ecx
	test	edx, edx
	setg	cl
	add	rcx, rsi
LBB51_2:
	imul	rcx, rcx, 1000000000
	jo	LBB51_6
	lea	edi, [rdx - 1000000000]
	test	edx, edx
	cmovle	edi, edx
	test	rsi, rsi
	cmovns	edi, edx
	movsxd	rdx, edi
	add	rcx, rdx
	jo	LBB51_6
	add	rax, rcx
	jo	LBB51_5
	pop	rbp
	ret
LBB51_6:
	lea	rdi, [rip + l___unnamed_1]
	lea	rdx, [rip + l___unnamed_157]
	mov	esi, 43
	call	__ZN4core9panicking5panic17h736ee47a631475c0E
LBB51_5:
	lea	rdi, [rip + _str.5]
	lea	rdx, [rip + l___unnamed_158]
	mov	esi, 28
	call	__ZN4core9panicking5panic17h736ee47a631475c0E
	.cfi_endproc

	.globl	__ZN4time8Timespec3new17hd7ff6426c86dea82E
	.p2align	4, 0x90
__ZN4time8Timespec3new17hd7ff6426c86dea82E:
	.cfi_startproc
	cmp	esi, 999999999
	ja	LBB52_2
	mov	edx, esi
	mov	rax, rdi
	ret
LBB52_2:
	push	rbp
	.cfi_def_cfa_offset 16
	.cfi_offset rbp, -16
	mov	rbp, rsp
	.cfi_def_cfa_register rbp
	lea	rdi, [rip + l___unnamed_159]
	lea	rdx, [rip + l___unnamed_160]
	mov	esi, 50
	call	__ZN3std9panicking11begin_panic17h747b3a393d9a2f04E
	.cfi_endproc

	.globl	__ZN88_$LT$time..Timespec$u20$as$u20$core..ops..arith..Add$LT$time..duration..Duration$GT$$GT$3add17h82a5846b13bead18E
	.p2align	4, 0x90
__ZN88_$LT$time..Timespec$u20$as$u20$core..ops..arith..Add$LT$time..duration..Duration$GT$$GT$3add17h82a5846b13bead18E:
	.cfi_startproc
	push	rbp
	.cfi_def_cfa_offset 16
	.cfi_offset rbp, -16
	mov	rbp, rsp
	.cfi_def_cfa_register rbp
	mov	r8, rdx
	mov	edx, esi
	mov	rax, rdi
	mov	r10, r8
	test	r8, r8
	jns	LBB53_2
	xor	r10d, r10d
	test	ecx, ecx
	setg	r10b
	add	r10, r8
LBB53_2:
	movabs	r9, -9223372036854776
	xor	edi, edi
	cmp	r10, r9
	setne	dil
	mov	esi, 255
	cmovge	esi, edi
	inc	sil
	cmp	sil, 2
	jb	LBB53_27
	movabs	rsi, 9223372036854776
	cmp	r10, rsi
	jge	LBB53_27
	sub	r8, r10
	jo	LBB53_13
	test	ecx, ecx
	js	LBB53_6
	mov	rdi, r8
	test	r8, r8
	js	LBB53_9
LBB53_10:
	imul	rdi, rdi, 1000000000
	jno	LBB53_11
	jmp	LBB53_12
LBB53_6:
	dec	r8
	jo	LBB53_14
	add	ecx, 1000000000
	mov	rdi, r8
	test	r8, r8
	jns	LBB53_10
LBB53_9:
	xor	edi, edi
	test	ecx, ecx
	setg	dil
	add	rdi, r8
	imul	rdi, rdi, 1000000000
	jo	LBB53_12
LBB53_11:
	lea	esi, [rcx - 1000000000]
	test	ecx, ecx
	cmovle	esi, ecx
	test	r8, r8
	cmovns	esi, ecx
	movsxd	rcx, esi
	add	rdi, rcx
	jo	LBB53_12
	add	rax, r10
	jo	LBB53_22
	add	edx, edi
	jo	LBB53_23
	cmp	edx, 999999999
	jle	LBB53_18
	inc	rax
	mov	ecx, -1000000000
	jno	LBB53_20
	lea	rdi, [rip + _str.5]
	lea	rdx, [rip + l___unnamed_161]
	mov	esi, 28
	call	__ZN4core9panicking5panic17h736ee47a631475c0E
LBB53_18:
	test	edx, edx
	jns	LBB53_21
	dec	rax
	mov	ecx, 1000000000
	jo	LBB53_26
LBB53_20:
	add	edx, ecx
	cmp	edx, 1000000000
	jae	LBB53_28
LBB53_21:
	pop	rbp
	ret
LBB53_27:
	lea	rdi, [rip + l___unnamed_162]
	lea	rdx, [rip + l___unnamed_163]
	mov	esi, 31
	call	__ZN3std9panicking11begin_panic17h747b3a393d9a2f04E
LBB53_12:
	lea	rdi, [rip + l___unnamed_1]
	lea	rdx, [rip + l___unnamed_164]
	mov	esi, 43
	call	__ZN4core9panicking5panic17h736ee47a631475c0E
LBB53_13:
	lea	rdi, [rip + _str.0]
	lea	rdx, [rip + l___unnamed_108]
	mov	esi, 33
	call	__ZN4core9panicking5panic17h736ee47a631475c0E
LBB53_22:
	lea	rdi, [rip + _str.5]
	lea	rdx, [rip + l___unnamed_165]
	mov	esi, 28
	call	__ZN4core9panicking5panic17h736ee47a631475c0E
LBB53_23:
	lea	rdi, [rip + _str.5]
	lea	rdx, [rip + l___unnamed_166]
	mov	esi, 28
	call	__ZN4core9panicking5panic17h736ee47a631475c0E
LBB53_28:
	lea	rdi, [rip + l___unnamed_159]
	lea	rdx, [rip + l___unnamed_160]
	mov	esi, 50
	call	__ZN3std9panicking11begin_panic17h747b3a393d9a2f04E
LBB53_14:
	lea	rdi, [rip + _str.0]
	lea	rdx, [rip + l___unnamed_110]
	mov	esi, 33
	call	__ZN4core9panicking5panic17h736ee47a631475c0E
LBB53_26:
	lea	rdi, [rip + _str.0]
	lea	rdx, [rip + l___unnamed_167]
	mov	esi, 33
	call	__ZN4core9panicking5panic17h736ee47a631475c0E
	.cfi_endproc

	.globl	__ZN88_$LT$time..Timespec$u20$as$u20$core..ops..arith..Sub$LT$time..duration..Duration$GT$$GT$3sub17h2671a62ca020b724E
	.p2align	4, 0x90
__ZN88_$LT$time..Timespec$u20$as$u20$core..ops..arith..Sub$LT$time..duration..Duration$GT$$GT$3sub17h2671a62ca020b724E:
	.cfi_startproc
	push	rbp
	.cfi_def_cfa_offset 16
	.cfi_offset rbp, -16
	mov	rbp, rsp
	.cfi_def_cfa_register rbp
	mov	r8, rdx
	mov	edx, esi
	mov	rax, rdi
	mov	r10, r8
	test	r8, r8
	jns	LBB54_2
	xor	r10d, r10d
	test	ecx, ecx
	setg	r10b
	add	r10, r8
LBB54_2:
	movabs	r9, -9223372036854776
	xor	edi, edi
	cmp	r10, r9
	setne	dil
	mov	esi, 255
	cmovge	esi, edi
	inc	sil
	cmp	sil, 2
	jb	LBB54_27
	movabs	rsi, 9223372036854776
	cmp	r10, rsi
	jge	LBB54_27
	sub	r8, r10
	jo	LBB54_13
	test	ecx, ecx
	js	LBB54_6
	mov	rdi, r8
	test	r8, r8
	js	LBB54_9
LBB54_10:
	imul	rdi, rdi, 1000000000
	jno	LBB54_11
	jmp	LBB54_12
LBB54_6:
	dec	r8
	jo	LBB54_14
	add	ecx, 1000000000
	mov	rdi, r8
	test	r8, r8
	jns	LBB54_10
LBB54_9:
	xor	edi, edi
	test	ecx, ecx
	setg	dil
	add	rdi, r8
	imul	rdi, rdi, 1000000000
	jo	LBB54_12
LBB54_11:
	lea	esi, [rcx - 1000000000]
	test	ecx, ecx
	cmovle	esi, ecx
	test	r8, r8
	cmovns	esi, ecx
	movsxd	rcx, esi
	add	rdi, rcx
	jo	LBB54_12
	sub	rax, r10
	jo	LBB54_22
	sub	edx, edi
	jo	LBB54_23
	cmp	edx, 999999999
	jle	LBB54_18
	inc	rax
	mov	ecx, -1000000000
	jno	LBB54_20
	lea	rdi, [rip + _str.5]
	lea	rdx, [rip + l___unnamed_168]
	mov	esi, 28
	call	__ZN4core9panicking5panic17h736ee47a631475c0E
LBB54_18:
	test	edx, edx
	jns	LBB54_21
	dec	rax
	mov	ecx, 1000000000
	jo	LBB54_26
LBB54_20:
	add	edx, ecx
	cmp	edx, 1000000000
	jae	LBB54_28
LBB54_21:
	pop	rbp
	ret
LBB54_27:
	lea	rdi, [rip + l___unnamed_162]
	lea	rdx, [rip + l___unnamed_163]
	mov	esi, 31
	call	__ZN3std9panicking11begin_panic17h747b3a393d9a2f04E
LBB54_12:
	lea	rdi, [rip + l___unnamed_1]
	lea	rdx, [rip + l___unnamed_169]
	mov	esi, 43
	call	__ZN4core9panicking5panic17h736ee47a631475c0E
LBB54_13:
	lea	rdi, [rip + _str.0]
	lea	rdx, [rip + l___unnamed_108]
	mov	esi, 33
	call	__ZN4core9panicking5panic17h736ee47a631475c0E
LBB54_22:
	lea	rdi, [rip + _str.0]
	lea	rdx, [rip + l___unnamed_170]
	mov	esi, 33
	call	__ZN4core9panicking5panic17h736ee47a631475c0E
LBB54_23:
	lea	rdi, [rip + _str.0]
	lea	rdx, [rip + l___unnamed_171]
	mov	esi, 33
	call	__ZN4core9panicking5panic17h736ee47a631475c0E
LBB54_28:
	lea	rdi, [rip + l___unnamed_159]
	lea	rdx, [rip + l___unnamed_160]
	mov	esi, 50
	call	__ZN3std9panicking11begin_panic17h747b3a393d9a2f04E
LBB54_14:
	lea	rdi, [rip + _str.0]
	lea	rdx, [rip + l___unnamed_110]
	mov	esi, 33
	call	__ZN4core9panicking5panic17h736ee47a631475c0E
LBB54_26:
	lea	rdi, [rip + _str.0]
	lea	rdx, [rip + l___unnamed_172]
	mov	esi, 33
	call	__ZN4core9panicking5panic17h736ee47a631475c0E
	.cfi_endproc

	.globl	__ZN56_$LT$time..Timespec$u20$as$u20$core..ops..arith..Sub$GT$3sub17h0a1668b339914011E
	.p2align	4, 0x90
__ZN56_$LT$time..Timespec$u20$as$u20$core..ops..arith..Sub$GT$3sub17h0a1668b339914011E:
	.cfi_startproc
	push	rbp
	.cfi_def_cfa_offset 16
	.cfi_offset rbp, -16
	mov	rbp, rsp
	.cfi_def_cfa_register rbp
	sub	rdi, rdx
	jo	LBB55_11
	sub	esi, ecx
	jo	LBB55_12
	movabs	rax, -9223372036854776
	xor	ecx, ecx
	cmp	rdi, rax
	setne	cl
	mov	eax, 255
	cmovge	eax, ecx
	inc	al
	cmp	al, 2
	jb	LBB55_13
	movabs	rax, 9223372036854776
	cmp	rdi, rax
	jge	LBB55_13
	movsxd	rcx, esi
	movabs	rdx, 1237940039285380275
	mov	rax, rcx
	imul	rdx
	mov	rax, rdx
	shr	rax, 63
	sar	rdx, 26
	add	rdx, rax
	imul	rax, rdx, 1000000000
	sub	rcx, rax
	mov	rax, rcx
	sar	rax, 63
	add	rax, rdx
	add	rdi, rax
	jo	LBB55_9
	lea	edx, [rcx + 1000000000]
	test	rcx, rcx
	cmovns	edx, ecx
	cmp	edx, 1000000000
	jl	LBB55_8
	inc	rdi
	jo	LBB55_10
	add	edx, -1000000000
LBB55_8:
	mov	rax, rdi
	pop	rbp
	ret
LBB55_13:
	lea	rdi, [rip + l___unnamed_162]
	lea	rdx, [rip + l___unnamed_163]
	mov	esi, 31
	call	__ZN3std9panicking11begin_panic17h747b3a393d9a2f04E
LBB55_11:
	lea	rdi, [rip + _str.0]
	lea	rdx, [rip + l___unnamed_173]
	mov	esi, 33
	call	__ZN4core9panicking5panic17h736ee47a631475c0E
LBB55_12:
	lea	rdi, [rip + _str.0]
	lea	rdx, [rip + l___unnamed_174]
	mov	esi, 33
	call	__ZN4core9panicking5panic17h736ee47a631475c0E
LBB55_9:
	lea	rdi, [rip + _str.5]
	lea	rdx, [rip + l___unnamed_105]
	mov	esi, 28
	call	__ZN4core9panicking5panic17h736ee47a631475c0E
LBB55_10:
	lea	rdi, [rip + _str.5]
	lea	rdx, [rip + l___unnamed_107]
	mov	esi, 28
	call	__ZN4core9panicking5panic17h736ee47a631475c0E
	.cfi_endproc

	.globl	__ZN4time8get_time17h1f29d362fa342bb1E
	.p2align	4, 0x90
__ZN4time8get_time17h1f29d362fa342bb1E:
	.cfi_startproc
	push	rbp
	.cfi_def_cfa_offset 16
	.cfi_offset rbp, -16
	mov	rbp, rsp
	.cfi_def_cfa_register rbp
	sub	rsp, 16
	mov	qword ptr [rbp - 16], 0
	mov	dword ptr [rbp - 8], 0
	lea	rdi, [rbp - 16]
	xor	esi, esi
	call	_gettimeofday
	imul	edx, dword ptr [rbp - 8], 1000
	jo	LBB56_3
	cmp	edx, 1000000000
	jae	LBB56_4
	mov	rax, qword ptr [rbp - 16]
	add	rsp, 16
	pop	rbp
	ret
LBB56_3:
	lea	rdi, [rip + _str.3]
	lea	rdx, [rip + l___unnamed_175]
	mov	esi, 33
	call	__ZN4core9panicking5panic17h736ee47a631475c0E
LBB56_4:
	lea	rdi, [rip + l___unnamed_159]
	lea	rdx, [rip + l___unnamed_160]
	mov	esi, 50
	call	__ZN3std9panicking11begin_panic17h747b3a393d9a2f04E
	.cfi_endproc

	.section	__TEXT,__literal16,16byte_literals
	.p2align	4
LCPI57_0:
	.long	1127219200
	.long	1160773632
	.long	0
	.long	0
LCPI57_1:
	.quad	4841369599423283200
	.quad	4985484787499139072
	.section	__TEXT,__literal8,8byte_literals
	.p2align	3
LCPI57_2:
	.quad	4741671816366391296
	.section	__TEXT,__text,regular,pure_instructions
	.globl	__ZN4time14precise_time_s17h48085aea96730cabE
	.p2align	4, 0x90
__ZN4time14precise_time_s17h48085aea96730cabE:
	.cfi_startproc
	push	rbp
	.cfi_def_cfa_offset 16
	.cfi_offset rbp, -16
	mov	rbp, rsp
	.cfi_def_cfa_register rbp
	push	rbx
	sub	rsp, 24
	.cfi_offset rbx, -24
	call	_mach_absolute_time
	mov	rbx, rax
	mov	rax, qword ptr [rip + __ZN4time3sys5inner3mac4info4ONCE17hc94ad1dfed8a6a13E]
	cmp	rax, 3
	jne	LBB57_1
	mov	ecx, dword ptr [rip + __ZN4time3sys5inner3mac4info4INFO17h3ef712fb47ef0bd5E]
	mov	rax, rbx
	mul	rcx
	jo	LBB57_5
LBB57_3:
	mov	ecx, dword ptr [rip + __ZN4time3sys5inner3mac4info4INFO17h3ef712fb47ef0bd5E+4]
	test	rcx, rcx
	je	LBB57_6
	xor	edx, edx
	div	rcx
	movq	xmm0, rax
	punpckldq	xmm0, xmmword ptr [rip + LCPI57_0]
	subpd	xmm0, xmmword ptr [rip + LCPI57_1]
	haddpd	xmm0, xmm0
	divsd	xmm0, qword ptr [rip + LCPI57_2]
	add	rsp, 24
	pop	rbx
	pop	rbp
	ret
LBB57_1:
	mov	byte ptr [rbp - 9], 1
	lea	rax, [rbp - 9]
	mov	qword ptr [rbp - 24], rax
	lea	rdi, [rip + __ZN4time3sys5inner3mac4info4ONCE17hc94ad1dfed8a6a13E]
	lea	rcx, [rip + l___unnamed_156]
	lea	rdx, [rbp - 24]
	xor	esi, esi
	call	__ZN3std4sync4once4Once10call_inner17h78f35ea5a056ddbcE
	mov	ecx, dword ptr [rip + __ZN4time3sys5inner3mac4info4INFO17h3ef712fb47ef0bd5E]
	mov	rax, rbx
	mul	rcx
	jno	LBB57_3
LBB57_5:
	lea	rdi, [rip + _str.3]
	lea	rdx, [rip + l___unnamed_176]
	mov	esi, 33
	call	__ZN4core9panicking5panic17h736ee47a631475c0E
LBB57_6:
	lea	rdi, [rip + _str.1]
	lea	rdx, [rip + l___unnamed_176]
	mov	esi, 25
	call	__ZN4core9panicking5panic17h736ee47a631475c0E
	.cfi_endproc

	.globl	__ZN4time10SteadyTime3now17h414e8f9424833f74E
	.p2align	4, 0x90
__ZN4time10SteadyTime3now17h414e8f9424833f74E:
	.cfi_startproc
	push	rbp
	.cfi_def_cfa_offset 16
	.cfi_offset rbp, -16
	mov	rbp, rsp
	.cfi_def_cfa_register rbp
	push	rbx
	sub	rsp, 24
	.cfi_offset rbx, -24
	call	_mach_absolute_time
	mov	rbx, rax
	mov	rax, qword ptr [rip + __ZN4time3sys5inner3mac4info4ONCE17hc94ad1dfed8a6a13E]
	cmp	rax, 3
	jne	LBB58_1
	mov	ecx, dword ptr [rip + __ZN4time3sys5inner3mac4info4INFO17h3ef712fb47ef0bd5E]
	mov	rax, rbx
	mul	rcx
	jo	LBB58_5
LBB58_3:
	mov	ecx, dword ptr [rip + __ZN4time3sys5inner3mac4info4INFO17h3ef712fb47ef0bd5E+4]
	test	rcx, rcx
	je	LBB58_6
	xor	edx, edx
	div	rcx
	add	rsp, 24
	pop	rbx
	pop	rbp
	ret
LBB58_1:
	mov	byte ptr [rbp - 9], 1
	lea	rax, [rbp - 9]
	mov	qword ptr [rbp - 24], rax
	lea	rdi, [rip + __ZN4time3sys5inner3mac4info4ONCE17hc94ad1dfed8a6a13E]
	lea	rcx, [rip + l___unnamed_156]
	lea	rdx, [rbp - 24]
	xor	esi, esi
	call	__ZN3std4sync4once4Once10call_inner17h78f35ea5a056ddbcE
	mov	ecx, dword ptr [rip + __ZN4time3sys5inner3mac4info4INFO17h3ef712fb47ef0bd5E]
	mov	rax, rbx
	mul	rcx
	jno	LBB58_3
LBB58_5:
	lea	rdi, [rip + _str.3]
	lea	rdx, [rip + l___unnamed_176]
	mov	esi, 33
	call	__ZN4core9panicking5panic17h736ee47a631475c0E
LBB58_6:
	lea	rdi, [rip + _str.1]
	lea	rdx, [rip + l___unnamed_176]
	mov	esi, 25
	call	__ZN4core9panicking5panic17h736ee47a631475c0E
	.cfi_endproc

	.globl	__ZN58_$LT$time..SteadyTime$u20$as$u20$core..ops..arith..Sub$GT$3sub17h8af9c9e59719ee6fE
	.p2align	4, 0x90
__ZN58_$LT$time..SteadyTime$u20$as$u20$core..ops..arith..Sub$GT$3sub17h8af9c9e59719ee6fE:
	.cfi_startproc
	sub	rdi, rsi
	jo	LBB59_2
	movabs	rcx, 1237940039285380275
	mov	rax, rdi
	imul	rcx
	mov	rax, rdx
	shr	rax, 63
	sar	rdx, 26
	add	rdx, rax
	imul	rax, rdx, 1000000000
	sub	rdi, rax
	mov	rax, rdi
	sar	rax, 63
	add	rax, rdx
	lea	edx, [rdi + 1000000000]
	test	rdi, rdi
	cmovns	edx, edi
	ret
LBB59_2:
	push	rbp
	.cfi_def_cfa_offset 16
	.cfi_offset rbp, -16
	mov	rbp, rsp
	.cfi_def_cfa_register rbp
	lea	rdi, [rip + _str.0]
	lea	rdx, [rip + l___unnamed_177]
	mov	esi, 33
	call	__ZN4core9panicking5panic17h736ee47a631475c0E
	.cfi_endproc

	.globl	__ZN90_$LT$time..SteadyTime$u20$as$u20$core..ops..arith..Sub$LT$time..duration..Duration$GT$$GT$3sub17hd8dfec551035b79cE
	.p2align	4, 0x90
__ZN90_$LT$time..SteadyTime$u20$as$u20$core..ops..arith..Sub$LT$time..duration..Duration$GT$$GT$3sub17hd8dfec551035b79cE:
	.cfi_startproc
	push	rbp
	.cfi_def_cfa_offset 16
	.cfi_offset rbp, -16
	mov	rbp, rsp
	.cfi_def_cfa_register rbp
	pop	rbp
	jmp	__ZN107_$LT$time..sys..inner..mac..SteadyTime$u20$as$u20$core..ops..arith..Sub$LT$time..duration..Duration$GT$$GT$3sub17hdf6a9c397e366657E
	.cfi_endproc

	.globl	__ZN4time5tzset17h252da367866cd93dE
	.p2align	4, 0x90
__ZN4time5tzset17h252da367866cd93dE:
	.cfi_startproc
	push	rbp
	.cfi_def_cfa_offset 16
	.cfi_offset rbp, -16
	mov	rbp, rsp
	.cfi_def_cfa_register rbp
	pop	rbp
	jmp	_tzset
	.cfi_endproc

	.globl	__ZN82_$LT$time..Tm$u20$as$u20$core..ops..arith..Add$LT$time..duration..Duration$GT$$GT$3add17h39e2939ec36aa50aE
	.p2align	4, 0x90
__ZN82_$LT$time..Tm$u20$as$u20$core..ops..arith..Add$LT$time..duration..Duration$GT$$GT$3add17h39e2939ec36aa50aE:
	.cfi_startproc
	push	rbp
	.cfi_def_cfa_offset 16
	.cfi_offset rbp, -16
	mov	rbp, rsp
	.cfi_def_cfa_register rbp
	push	r15
	push	r14
	push	rbx
	push	rax
	.cfi_offset rbx, -40
	.cfi_offset r14, -32
	.cfi_offset r15, -24
	mov	r14d, ecx
	mov	r15, rdx
	mov	rbx, rdi
	mov	rdi, rsi
	call	__ZN4time2Tm11to_timespec17hccd00210cf261bf1E
	mov	rdi, rax
	mov	esi, edx
	mov	rdx, r15
	mov	ecx, r14d
	call	__ZN88_$LT$time..Timespec$u20$as$u20$core..ops..arith..Add$LT$time..duration..Duration$GT$$GT$3add17h82a5846b13bead18E
	mov	rdi, rbx
	mov	rsi, rax
	call	__ZN4time6at_utc17h44104f6fb8092b29E
	mov	rax, rbx
	add	rsp, 8
	pop	rbx
	pop	r14
	pop	r15
	pop	rbp
	ret
	.cfi_endproc

	.globl	__ZN82_$LT$time..Tm$u20$as$u20$core..ops..arith..Sub$LT$time..duration..Duration$GT$$GT$3sub17hced840dbd9fc2efaE
	.p2align	4, 0x90
__ZN82_$LT$time..Tm$u20$as$u20$core..ops..arith..Sub$LT$time..duration..Duration$GT$$GT$3sub17hced840dbd9fc2efaE:
	.cfi_startproc
	push	rbp
	.cfi_def_cfa_offset 16
	.cfi_offset rbp, -16
	mov	rbp, rsp
	.cfi_def_cfa_register rbp
	push	r15
	push	r14
	push	rbx
	push	rax
	.cfi_offset rbx, -40
	.cfi_offset r14, -32
	.cfi_offset r15, -24
	mov	r14d, ecx
	mov	r15, rdx
	mov	rbx, rdi
	mov	rdi, rsi
	call	__ZN4time2Tm11to_timespec17hccd00210cf261bf1E
	mov	rdi, rax
	mov	esi, edx
	mov	rdx, r15
	mov	ecx, r14d
	call	__ZN88_$LT$time..Timespec$u20$as$u20$core..ops..arith..Sub$LT$time..duration..Duration$GT$$GT$3sub17h2671a62ca020b724E
	mov	rdi, rbx
	mov	rsi, rax
	call	__ZN4time6at_utc17h44104f6fb8092b29E
	mov	rax, rbx
	add	rsp, 8
	pop	rbx
	pop	r14
	pop	r15
	pop	rbp
	ret
	.cfi_endproc

	.globl	__ZN50_$LT$time..Tm$u20$as$u20$core..ops..arith..Sub$GT$3sub17h04fbdb86abe16338E
	.p2align	4, 0x90
__ZN50_$LT$time..Tm$u20$as$u20$core..ops..arith..Sub$GT$3sub17h04fbdb86abe16338E:
	.cfi_startproc
	push	rbp
	.cfi_def_cfa_offset 16
	.cfi_offset rbp, -16
	mov	rbp, rsp
	.cfi_def_cfa_register rbp
	push	r15
	push	r14
	push	rbx
	push	rax
	.cfi_offset rbx, -40
	.cfi_offset r14, -32
	.cfi_offset r15, -24
	mov	r14, rsi
	call	__ZN4time2Tm11to_timespec17hccd00210cf261bf1E
	mov	rbx, rax
	mov	r15d, edx
	mov	rdi, r14
	call	__ZN4time2Tm11to_timespec17hccd00210cf261bf1E
	mov	ecx, edx
	mov	rdi, rbx
	mov	esi, r15d
	mov	rdx, rax
	add	rsp, 8
	pop	rbx
	pop	r14
	pop	r15
	pop	rbp
	jmp	__ZN56_$LT$time..Timespec$u20$as$u20$core..ops..arith..Sub$GT$3sub17h0a1668b339914011E
	.cfi_endproc

	.globl	__ZN43_$LT$time..Tm$u20$as$u20$core..cmp..Ord$GT$3cmp17h98be69d3cff32e38E
	.p2align	4, 0x90
__ZN43_$LT$time..Tm$u20$as$u20$core..cmp..Ord$GT$3cmp17h98be69d3cff32e38E:
	.cfi_startproc
	push	rbp
	.cfi_def_cfa_offset 16
	.cfi_offset rbp, -16
	mov	rbp, rsp
	.cfi_def_cfa_register rbp
	push	r15
	push	r14
	push	rbx
	push	rax
	.cfi_offset rbx, -40
	.cfi_offset r14, -32
	.cfi_offset r15, -24
	mov	rbx, rsi
	call	__ZN4time2Tm11to_timespec17hccd00210cf261bf1E
	mov	r15, rax
	mov	r14d, edx
	mov	rdi, rbx
	call	__ZN4time2Tm11to_timespec17hccd00210cf261bf1E
	mov	rcx, rax
	xor	eax, eax
	cmp	r15, rcx
	setne	al
	mov	ecx, 255
	cmovl	eax, ecx
	test	al, al
	jne	LBB65_2
	xor	eax, eax
	cmp	r14d, edx
	setne	al
	cmovl	eax, ecx
LBB65_2:
	add	rsp, 8
	pop	rbx
	pop	r14
	pop	r15
	pop	rbp
	ret
	.cfi_endproc

	.globl	__ZN4time8empty_tm17h4a46cfd8629b1bf7E
	.p2align	4, 0x90
__ZN4time8empty_tm17h4a46cfd8629b1bf7E:
	.cfi_startproc
	push	rbp
	.cfi_def_cfa_offset 16
	.cfi_offset rbp, -16
	mov	rbp, rsp
	.cfi_def_cfa_register rbp
	mov	rax, rdi
	mov	dword ptr [rdi + 40], 0
	mov	qword ptr [rdi + 32], 0
	mov	qword ptr [rdi + 24], 0
	mov	qword ptr [rdi + 16], 0
	mov	qword ptr [rdi + 8], 0
	mov	qword ptr [rdi], 0
	pop	rbp
	ret
	.cfi_endproc

	.globl	__ZN4time6at_utc17h44104f6fb8092b29E
	.p2align	4, 0x90
__ZN4time6at_utc17h44104f6fb8092b29E:
Lfunc_begin3:
	.cfi_startproc
	.cfi_personality 155, _rust_eh_personality
	.cfi_lsda 16, Lexception3
	push	rbp
	.cfi_def_cfa_offset 16
	.cfi_offset rbp, -16
	mov	rbp, rsp
	.cfi_def_cfa_register rbp
	push	r14
	push	rbx
	sub	rsp, 144
	.cfi_offset rbx, -32
	.cfi_offset r14, -24
	mov	r14d, edx
	mov	rbx, rdi
	mov	qword ptr [rbp - 24], rsi
	xorps	xmm0, xmm0
	movaps	xmmword ptr [rbp - 64], xmm0
	movaps	xmmword ptr [rbp - 80], xmm0
	movaps	xmmword ptr [rbp - 96], xmm0
	mov	qword ptr [rbp - 48], 0
	lea	rdi, [rbp - 24]
	lea	rsi, [rbp - 96]
	call	_gmtime_r
	test	rax, rax
	je	LBB67_1
	movaps	xmm0, xmmword ptr [rbp - 96]
	movaps	xmm1, xmmword ptr [rbp - 80]
	mov	eax, dword ptr [rbp - 64]
	movups	xmmword ptr [rbx], xmm0
	movups	xmmword ptr [rbx + 16], xmm1
	mov	dword ptr [rbx + 32], eax
	mov	dword ptr [rbx + 36], 0
	mov	dword ptr [rbx + 40], r14d
	mov	rax, rbx
	add	rsp, 144
	pop	rbx
	pop	r14
	pop	rbp
	ret
LBB67_1:
	lea	rbx, [rbp - 160]
	mov	rdi, rbx
	call	__ZN3std2io5error5Error13last_os_error17h5c14d716e3637a11E
	mov	qword ptr [rbp - 40], rbx
	mov	rax, qword ptr [rip + __ZN60_$LT$std..io..error..Error$u20$as$u20$core..fmt..Display$GT$3fmt17hd5a23906ccc4fffdE@GOTPCREL]
	mov	qword ptr [rbp - 32], rax
	lea	rax, [rip + l___unnamed_140]
	mov	qword ptr [rbp - 144], rax
	mov	qword ptr [rbp - 136], 1
	mov	qword ptr [rbp - 128], 0
	lea	rax, [rbp - 40]
	mov	qword ptr [rbp - 112], rax
	mov	qword ptr [rbp - 104], 1
Ltmp9:
	lea	rsi, [rip + l___unnamed_141]
	lea	rdi, [rbp - 144]
	call	__ZN3std9panicking15begin_panic_fmt17h2e6dba6f5c07d155E
Ltmp10:
	ud2
LBB67_2:
Ltmp11:
	mov	rbx, rax
	lea	rdi, [rbp - 160]
	call	__ZN4core3ptr13drop_in_place17h661d1aa1bd98fe22E
	mov	rdi, rbx
	call	__Unwind_Resume
	ud2
Lfunc_end3:
	.cfi_endproc
	.section	__TEXT,__gcc_except_tab
	.p2align	2
GCC_except_table67:
Lexception3:
	.byte	255
	.byte	255
	.byte	1
	.uleb128 Lcst_end3-Lcst_begin3
Lcst_begin3:
	.uleb128 Lfunc_begin3-Lfunc_begin3
	.uleb128 Ltmp9-Lfunc_begin3
	.byte	0
	.byte	0
	.uleb128 Ltmp9-Lfunc_begin3
	.uleb128 Ltmp10-Ltmp9
	.uleb128 Ltmp11-Lfunc_begin3
	.byte	0
	.uleb128 Ltmp10-Lfunc_begin3
	.uleb128 Lfunc_end3-Ltmp10
	.byte	0
	.byte	0
Lcst_end3:
	.p2align	2

	.section	__TEXT,__text,regular,pure_instructions
	.globl	__ZN4time7now_utc17h9d2f468ebc7ae21bE
	.p2align	4, 0x90
__ZN4time7now_utc17h9d2f468ebc7ae21bE:
	.cfi_startproc
	push	rbp
	.cfi_def_cfa_offset 16
	.cfi_offset rbp, -16
	mov	rbp, rsp
	.cfi_def_cfa_register rbp
	push	rbx
	sub	rsp, 24
	.cfi_offset rbx, -24
	mov	rbx, rdi
	mov	qword ptr [rbp - 24], 0
	mov	dword ptr [rbp - 16], 0
	lea	rdi, [rbp - 24]
	xor	esi, esi
	call	_gettimeofday
	imul	edx, dword ptr [rbp - 16], 1000
	jo	LBB68_3
	cmp	edx, 1000000000
	jae	LBB68_4
	mov	rsi, qword ptr [rbp - 24]
	mov	rdi, rbx
	call	__ZN4time6at_utc17h44104f6fb8092b29E
	mov	rax, rbx
	add	rsp, 24
	pop	rbx
	pop	rbp
	ret
LBB68_3:
	lea	rdi, [rip + _str.3]
	lea	rdx, [rip + l___unnamed_175]
	mov	esi, 33
	call	__ZN4core9panicking5panic17h736ee47a631475c0E
LBB68_4:
	lea	rdi, [rip + l___unnamed_159]
	lea	rdx, [rip + l___unnamed_160]
	mov	esi, 50
	call	__ZN3std9panicking11begin_panic17h747b3a393d9a2f04E
	.cfi_endproc

	.globl	__ZN4time2at17h05801cc4815f0cedE
	.p2align	4, 0x90
__ZN4time2at17h05801cc4815f0cedE:
Lfunc_begin4:
	.cfi_startproc
	.cfi_personality 155, _rust_eh_personality
	.cfi_lsda 16, Lexception4
	push	rbp
	.cfi_def_cfa_offset 16
	.cfi_offset rbp, -16
	mov	rbp, rsp
	.cfi_def_cfa_register rbp
	push	r14
	push	rbx
	sub	rsp, 144
	.cfi_offset rbx, -32
	.cfi_offset r14, -24
	mov	r14d, edx
	mov	rbx, rdi
	mov	qword ptr [rbp - 24], rsi
	xorps	xmm0, xmm0
	movaps	xmmword ptr [rbp - 64], xmm0
	movaps	xmmword ptr [rbp - 80], xmm0
	movaps	xmmword ptr [rbp - 96], xmm0
	mov	qword ptr [rbp - 48], 0
	lea	rdi, [rbp - 24]
	lea	rsi, [rbp - 96]
	call	_localtime_r
	test	rax, rax
	je	LBB69_1
	mov	eax, dword ptr [rbp - 56]
	movaps	xmm0, xmmword ptr [rbp - 96]
	movaps	xmm1, xmmword ptr [rbp - 80]
	mov	ecx, dword ptr [rbp - 64]
	movups	xmmword ptr [rbx], xmm0
	movups	xmmword ptr [rbx + 16], xmm1
	mov	dword ptr [rbx + 32], ecx
	mov	dword ptr [rbx + 36], eax
	mov	dword ptr [rbx + 40], r14d
	mov	rax, rbx
	add	rsp, 144
	pop	rbx
	pop	r14
	pop	rbp
	ret
LBB69_1:
	lea	rbx, [rbp - 160]
	mov	rdi, rbx
	call	__ZN3std2io5error5Error13last_os_error17h5c14d716e3637a11E
	mov	qword ptr [rbp - 40], rbx
	mov	rax, qword ptr [rip + __ZN60_$LT$std..io..error..Error$u20$as$u20$core..fmt..Display$GT$3fmt17hd5a23906ccc4fffdE@GOTPCREL]
	mov	qword ptr [rbp - 32], rax
	lea	rax, [rip + l___unnamed_17]
	mov	qword ptr [rbp - 144], rax
	mov	qword ptr [rbp - 136], 1
	mov	qword ptr [rbp - 128], 0
	lea	rax, [rbp - 40]
	mov	qword ptr [rbp - 112], rax
	mov	qword ptr [rbp - 104], 1
Ltmp12:
	lea	rsi, [rip + l___unnamed_18]
	lea	rdi, [rbp - 144]
	call	__ZN3std9panicking15begin_panic_fmt17h2e6dba6f5c07d155E
Ltmp13:
	ud2
LBB69_2:
Ltmp14:
	mov	rbx, rax
	lea	rdi, [rbp - 160]
	call	__ZN4core3ptr13drop_in_place17h661d1aa1bd98fe22E
	mov	rdi, rbx
	call	__Unwind_Resume
	ud2
Lfunc_end4:
	.cfi_endproc
	.section	__TEXT,__gcc_except_tab
	.p2align	2
GCC_except_table69:
Lexception4:
	.byte	255
	.byte	255
	.byte	1
	.uleb128 Lcst_end4-Lcst_begin4
Lcst_begin4:
	.uleb128 Lfunc_begin4-Lfunc_begin4
	.uleb128 Ltmp12-Lfunc_begin4
	.byte	0
	.byte	0
	.uleb128 Ltmp12-Lfunc_begin4
	.uleb128 Ltmp13-Ltmp12
	.uleb128 Ltmp14-Lfunc_begin4
	.byte	0
	.uleb128 Ltmp13-Lfunc_begin4
	.uleb128 Lfunc_end4-Ltmp13
	.byte	0
	.byte	0
Lcst_end4:
	.p2align	2

	.section	__TEXT,__text,regular,pure_instructions
	.globl	__ZN4time3now17h5328e06b278b3d25E
	.p2align	4, 0x90
__ZN4time3now17h5328e06b278b3d25E:
	.cfi_startproc
	push	rbp
	.cfi_def_cfa_offset 16
	.cfi_offset rbp, -16
	mov	rbp, rsp
	.cfi_def_cfa_register rbp
	push	rbx
	sub	rsp, 24
	.cfi_offset rbx, -24
	mov	rbx, rdi
	mov	qword ptr [rbp - 24], 0
	mov	dword ptr [rbp - 16], 0
	lea	rdi, [rbp - 24]
	xor	esi, esi
	call	_gettimeofday
	imul	edx, dword ptr [rbp - 16], 1000
	jo	LBB70_3
	cmp	edx, 1000000000
	jae	LBB70_4
	mov	rsi, qword ptr [rbp - 24]
	mov	rdi, rbx
	call	__ZN4time2at17h05801cc4815f0cedE
	mov	rax, rbx
	add	rsp, 24
	pop	rbx
	pop	rbp
	ret
LBB70_3:
	lea	rdi, [rip + _str.3]
	lea	rdx, [rip + l___unnamed_175]
	mov	esi, 33
	call	__ZN4core9panicking5panic17h736ee47a631475c0E
LBB70_4:
	lea	rdi, [rip + l___unnamed_159]
	lea	rdx, [rip + l___unnamed_160]
	mov	esi, 50
	call	__ZN3std9panicking11begin_panic17h747b3a393d9a2f04E
	.cfi_endproc

	.globl	__ZN4time2Tm11to_timespec17hccd00210cf261bf1E
	.p2align	4, 0x90
__ZN4time2Tm11to_timespec17hccd00210cf261bf1E:
	.cfi_startproc
	push	rbp
	.cfi_def_cfa_offset 16
	.cfi_offset rbp, -16
	mov	rbp, rsp
	.cfi_def_cfa_register rbp
	push	rbx
	sub	rsp, 56
	.cfi_offset rbx, -24
	mov	rbx, rdi
	cmp	dword ptr [rdi + 36], 0
	je	LBB71_2
	lea	rdi, [rbp - 64]
	xorps	xmm0, xmm0
	movaps	xmmword ptr [rbp - 32], xmm0
	movaps	xmmword ptr [rbp - 48], xmm0
	movaps	xmmword ptr [rbp - 64], xmm0
	mov	qword ptr [rbp - 16], 0
	movups	xmm0, xmmword ptr [rbx]
	movaps	xmmword ptr [rbp - 64], xmm0
	movups	xmm0, xmmword ptr [rbx + 16]
	movaps	xmmword ptr [rbp - 48], xmm0
	mov	eax, dword ptr [rbx + 32]
	mov	dword ptr [rbp - 32], eax
	call	_mktime
	mov	edx, dword ptr [rbx + 40]
	cmp	edx, 1000000000
	jae	LBB71_5
LBB71_4:
	add	rsp, 56
	pop	rbx
	pop	rbp
	ret
LBB71_2:
	lea	rdi, [rbp - 64]
	xorps	xmm0, xmm0
	movaps	xmmword ptr [rbp - 32], xmm0
	movaps	xmmword ptr [rbp - 48], xmm0
	movaps	xmmword ptr [rbp - 64], xmm0
	mov	qword ptr [rbp - 16], 0
	movups	xmm0, xmmword ptr [rbx]
	movaps	xmmword ptr [rbp - 64], xmm0
	movups	xmm0, xmmword ptr [rbx + 16]
	movaps	xmmword ptr [rbp - 48], xmm0
	mov	eax, dword ptr [rbx + 32]
	mov	dword ptr [rbp - 32], eax
	call	_timegm
	mov	edx, dword ptr [rbx + 40]
	cmp	edx, 1000000000
	jb	LBB71_4
LBB71_5:
	lea	rdi, [rip + l___unnamed_159]
	lea	rdx, [rip + l___unnamed_160]
	mov	esi, 50
	call	__ZN3std9panicking11begin_panic17h747b3a393d9a2f04E
	.cfi_endproc

	.globl	__ZN4time2Tm8to_local17hc381b00735ca8d21E
	.p2align	4, 0x90
__ZN4time2Tm8to_local17hc381b00735ca8d21E:
	.cfi_startproc
	push	rbp
	.cfi_def_cfa_offset 16
	.cfi_offset rbp, -16
	mov	rbp, rsp
	.cfi_def_cfa_register rbp
	push	rbx
	push	rax
	.cfi_offset rbx, -24
	mov	rbx, rdi
	mov	rdi, rsi
	call	__ZN4time2Tm11to_timespec17hccd00210cf261bf1E
	mov	rdi, rbx
	mov	rsi, rax
	call	__ZN4time2at17h05801cc4815f0cedE
	mov	rax, rbx
	add	rsp, 8
	pop	rbx
	pop	rbp
	ret
	.cfi_endproc

	.globl	__ZN4time2Tm6to_utc17h8b28c8a9a13a804bE
	.p2align	4, 0x90
__ZN4time2Tm6to_utc17h8b28c8a9a13a804bE:
	.cfi_startproc
	push	rbp
	.cfi_def_cfa_offset 16
	.cfi_offset rbp, -16
	mov	rbp, rsp
	.cfi_def_cfa_register rbp
	push	rbx
	push	rax
	.cfi_offset rbx, -24
	mov	rbx, rdi
	cmp	dword ptr [rsi + 36], 0
	je	LBB73_3
	mov	rdi, rsi
	call	__ZN4time2Tm11to_timespec17hccd00210cf261bf1E
	mov	rdi, rbx
	mov	rsi, rax
	call	__ZN4time6at_utc17h44104f6fb8092b29E
	jmp	LBB73_2
LBB73_3:
	mov	eax, dword ptr [rsi + 40]
	mov	dword ptr [rbx + 40], eax
	mov	rax, qword ptr [rsi + 32]
	mov	qword ptr [rbx + 32], rax
	mov	rax, qword ptr [rsi + 24]
	mov	qword ptr [rbx + 24], rax
	mov	rax, qword ptr [rsi + 16]
	mov	qword ptr [rbx + 16], rax
	mov	rax, qword ptr [rsi]
	mov	rcx, qword ptr [rsi + 8]
	mov	qword ptr [rbx + 8], rcx
	mov	qword ptr [rbx], rax
LBB73_2:
	mov	rax, rbx
	add	rsp, 8
	pop	rbx
	pop	rbp
	ret
	.cfi_endproc

	.globl	__ZN4time2Tm5ctime17h7afd4a502ba82921E
	.p2align	4, 0x90
__ZN4time2Tm5ctime17h7afd4a502ba82921E:
	.cfi_startproc
	push	rbp
	.cfi_def_cfa_offset 16
	.cfi_offset rbp, -16
	mov	rbp, rsp
	.cfi_def_cfa_register rbp
	mov	rax, rdi
	mov	qword ptr [rdi], rsi
	mov	qword ptr [rdi + 8], 2
	pop	rbp
	ret
	.cfi_endproc

	.globl	__ZN4time2Tm7asctime17hf7b5dce01f1ebbc1E
	.p2align	4, 0x90
__ZN4time2Tm7asctime17hf7b5dce01f1ebbc1E:
	.cfi_startproc
	push	rbp
	.cfi_def_cfa_offset 16
	.cfi_offset rbp, -16
	mov	rbp, rsp
	.cfi_def_cfa_register rbp
	mov	rax, rdi
	mov	qword ptr [rdi], rsi
	mov	qword ptr [rdi + 8], 0
	lea	rcx, [rip + l___unnamed_14]
	mov	qword ptr [rdi + 16], rcx
	mov	qword ptr [rdi + 24], 2
	pop	rbp
	ret
	.cfi_endproc

	.globl	__ZN4time2Tm8strftime17h3106059ac9464c9eE
	.p2align	4, 0x90
__ZN4time2Tm8strftime17h3106059ac9464c9eE:
	.cfi_startproc
	push	rbp
	.cfi_def_cfa_offset 16
	.cfi_offset rbp, -16
	mov	rbp, rsp
	.cfi_def_cfa_register rbp
	push	r14
	push	rbx
	.cfi_offset rbx, -32
	.cfi_offset r14, -24
	mov	rax, rdi
	mov	ebx, dword ptr [rsi + 16]
	mov	edi, dword ptr [rsi + 24]
	cmp	edi, 6
	ja	LBB76_39
	cmp	ebx, 12
	jae	LBB76_39
	test	rcx, rcx
	je	LBB76_41
	lea	r9, [rdx + rcx]
	lea	r8, [rip + LJTI76_0]
	mov	rbx, rdx
	lea	r14, [rbx + 1]
	movzx	edi, byte ptr [rbx]
	test	dil, dil
	jns	LBB76_7
	jmp	LBB76_12
LBB76_25:
	shl	r11d, 6
	or	r10d, r11d
	mov	edi, r10d
	cmp	edi, 37
	je	LBB76_8
	.p2align	4, 0x90
LBB76_4:
	cmp	edi, 1114112
	je	LBB76_41
LBB76_5:
	mov	rbx, r14
	cmp	r14, r9
	je	LBB76_41
	lea	r14, [rbx + 1]
	movzx	edi, byte ptr [rbx]
	test	dil, dil
	js	LBB76_12
LBB76_7:
	cmp	edi, 37
	jne	LBB76_4
LBB76_8:
	cmp	r14, r9
	je	LBB76_38
	lea	rdi, [r14 + 1]
	movzx	r11d, byte ptr [r14]
	test	r11b, r11b
	js	LBB76_18
	mov	r14, rdi
	lea	edi, [r11 - 37]
	cmp	edi, 85
	ja	LBB76_37
LBB76_11:
	movsxd	rdi, dword ptr [r8 + 4*rdi]
	add	rdi, r8
	jmp	rdi
	.p2align	4, 0x90
LBB76_12:
	cmp	r14, r9
	je	LBB76_24
	movzx	r10d, byte ptr [rbx + 1]
	add	rbx, 2
	and	r10d, 63
	mov	r14, rbx
	mov	r11d, edi
	and	r11d, 31
	cmp	dil, -33
	jbe	LBB76_25
LBB76_14:
	cmp	r14, r9
	je	LBB76_26
	movzx	ebx, byte ptr [r14]
	inc	r14
	and	ebx, 63
	shl	r10d, 6
	or	r10d, ebx
	cmp	dil, -16
	jb	LBB76_27
LBB76_16:
	cmp	r14, r9
	je	LBB76_31
	movzx	edi, byte ptr [r14]
	inc	r14
	and	edi, 63
	jmp	LBB76_32
LBB76_18:
	cmp	rdi, r9
	je	LBB76_28
	movzx	r10d, byte ptr [r14 + 1]
	add	r14, 2
	and	r10d, 63
	mov	edi, r11d
	and	edi, 31
	cmp	r11b, -33
	jbe	LBB76_29
LBB76_20:
	cmp	r14, r9
	je	LBB76_33
	movzx	ebx, byte ptr [r14]
	inc	r14
	and	ebx, 63
	shl	r10d, 6
	or	r10d, ebx
	cmp	r11b, -16
	jb	LBB76_34
LBB76_22:
	cmp	r14, r9
	je	LBB76_35
	movzx	r11d, byte ptr [r14]
	inc	r14
	and	r11d, 63
	jmp	LBB76_36
LBB76_24:
	xor	r10d, r10d
	mov	r14, r9
	mov	r11d, edi
	and	r11d, 31
	cmp	dil, -33
	ja	LBB76_14
	jmp	LBB76_25
LBB76_26:
	xor	ebx, ebx
	mov	r14, r9
	shl	r10d, 6
	or	r10d, ebx
	cmp	dil, -16
	jae	LBB76_16
LBB76_27:
	shl	r11d, 12
	or	r10d, r11d
	mov	edi, r10d
	cmp	edi, 37
	jne	LBB76_4
	jmp	LBB76_8
LBB76_28:
	xor	r10d, r10d
	mov	r14, r9
	mov	edi, r11d
	and	edi, 31
	cmp	r11b, -33
	ja	LBB76_20
LBB76_29:
	shl	edi, 6
	jmp	LBB76_30
LBB76_31:
	xor	edi, edi
LBB76_32:
	and	r11d, 7
	shl	r11d, 18
	shl	r10d, 6
	or	r10d, r11d
	or	r10d, edi
	mov	edi, r10d
	cmp	edi, 37
	jne	LBB76_4
	jmp	LBB76_8
LBB76_33:
	xor	ebx, ebx
	mov	r14, r9
	shl	r10d, 6
	or	r10d, ebx
	cmp	r11b, -16
	jae	LBB76_22
LBB76_34:
	shl	edi, 12
LBB76_30:
	or	r10d, edi
	mov	r11d, r10d
	lea	edi, [r11 - 37]
	cmp	edi, 85
	jbe	LBB76_11
	jmp	LBB76_37
LBB76_35:
	xor	r11d, r11d
LBB76_36:
	and	edi, 7
	shl	edi, 18
	shl	r10d, 6
	or	r10d, edi
	or	r10d, r11d
	mov	r11d, r10d
	lea	edi, [r11 - 37]
	cmp	edi, 85
	jbe	LBB76_11
LBB76_37:
	cmp	r11d, 1114112
	jne	LBB76_45
LBB76_38:
	mov	dword ptr [rax + 4], 12
	jmp	LBB76_46
LBB76_39:
	cmp	ebx, 12
	jae	LBB76_42
	mov	dword ptr [rax + 4], 6
	jmp	LBB76_46
LBB76_41:
	mov	qword ptr [rax + 8], rsi
	mov	qword ptr [rax + 16], 0
	mov	qword ptr [rax + 24], rdx
	mov	qword ptr [rax + 32], rcx
	xor	ecx, ecx
	jmp	LBB76_47
LBB76_42:
	cmp	edi, 7
	jae	LBB76_44
	mov	dword ptr [rax + 4], 4
	jmp	LBB76_46
LBB76_44:
	mov	dword ptr [rax + 4], 3
	jmp	LBB76_46
LBB76_45:
	mov	dword ptr [rax + 4], 13
	mov	dword ptr [rax + 8], r11d
LBB76_46:
	mov	ecx, 1
LBB76_47:
	mov	dword ptr [rax], ecx
	pop	rbx
	pop	r14
	pop	rbp
	ret
	.cfi_endproc
	.p2align	2, 0x90
	.data_region jt32
.set L76_0_set_5, LBB76_5-LJTI76_0
.set L76_0_set_45, LBB76_45-LJTI76_0
LJTI76_0:
	.long	L76_0_set_5
	.long	L76_0_set_45
	.long	L76_0_set_45
	.long	L76_0_set_45
	.long	L76_0_set_45
	.long	L76_0_set_45
	.long	L76_0_set_5
	.long	L76_0_set_45
	.long	L76_0_set_45
	.long	L76_0_set_45
	.long	L76_0_set_45
	.long	L76_0_set_45
	.long	L76_0_set_45
	.long	L76_0_set_45
	.long	L76_0_set_45
	.long	L76_0_set_45
	.long	L76_0_set_45
	.long	L76_0_set_45
	.long	L76_0_set_45
	.long	L76_0_set_45
	.long	L76_0_set_45
	.long	L76_0_set_45
	.long	L76_0_set_45
	.long	L76_0_set_45
	.long	L76_0_set_45
	.long	L76_0_set_45
	.long	L76_0_set_45
	.long	L76_0_set_45
	.long	L76_0_set_5
	.long	L76_0_set_5
	.long	L76_0_set_5
	.long	L76_0_set_5
	.long	L76_0_set_45
	.long	L76_0_set_5
	.long	L76_0_set_5
	.long	L76_0_set_5
	.long	L76_0_set_5
	.long	L76_0_set_45
	.long	L76_0_set_45
	.long	L76_0_set_45
	.long	L76_0_set_5
	.long	L76_0_set_45
	.long	L76_0_set_45
	.long	L76_0_set_5
	.long	L76_0_set_45
	.long	L76_0_set_5
	.long	L76_0_set_5
	.long	L76_0_set_5
	.long	L76_0_set_5
	.long	L76_0_set_5
	.long	L76_0_set_5
	.long	L76_0_set_5
	.long	L76_0_set_5
	.long	L76_0_set_5
	.long	L76_0_set_45
	.long	L76_0_set_45
	.long	L76_0_set_45
	.long	L76_0_set_45
	.long	L76_0_set_45
	.long	L76_0_set_45
	.long	L76_0_set_5
	.long	L76_0_set_5
	.long	L76_0_set_5
	.long	L76_0_set_5
	.long	L76_0_set_5
	.long	L76_0_set_5
	.long	L76_0_set_5
	.long	L76_0_set_5
	.long	L76_0_set_45
	.long	L76_0_set_5
	.long	L76_0_set_5
	.long	L76_0_set_5
	.long	L76_0_set_5
	.long	L76_0_set_5
	.long	L76_0_set_45
	.long	L76_0_set_5
	.long	L76_0_set_45
	.long	L76_0_set_5
	.long	L76_0_set_5
	.long	L76_0_set_5
	.long	L76_0_set_5
	.long	L76_0_set_5
	.long	L76_0_set_5
	.long	L76_0_set_5
	.long	L76_0_set_5
	.long	L76_0_set_5
	.end_data_region

	.globl	__ZN4time2Tm6rfc82217hc7e8aaaca0089e48E
	.p2align	4, 0x90
__ZN4time2Tm6rfc82217hc7e8aaaca0089e48E:
	.cfi_startproc
	push	rbp
	.cfi_def_cfa_offset 16
	.cfi_offset rbp, -16
	mov	rbp, rsp
	.cfi_def_cfa_register rbp
	mov	rax, rdi
	xor	ecx, ecx
	cmp	dword ptr [rsi + 36], 0
	sete	cl
	lea	rdx, [rip + l___unnamed_178]
	lea	rdi, [rip + l___unnamed_179]
	cmove	rdi, rdx
	or	rcx, 18
	mov	qword ptr [rax], rsi
	mov	qword ptr [rax + 8], 0
	mov	qword ptr [rax + 16], rdi
	mov	qword ptr [rax + 24], rcx
	pop	rbp
	ret
	.cfi_endproc

	.globl	__ZN4time2Tm7rfc822z17h145629c167dc8131E
	.p2align	4, 0x90
__ZN4time2Tm7rfc822z17h145629c167dc8131E:
	.cfi_startproc
	push	rbp
	.cfi_def_cfa_offset 16
	.cfi_offset rbp, -16
	mov	rbp, rsp
	.cfi_def_cfa_register rbp
	mov	rax, rdi
	mov	qword ptr [rdi], rsi
	mov	qword ptr [rdi + 8], 0
	lea	rcx, [rip + l___unnamed_180]
	mov	qword ptr [rdi + 16], rcx
	mov	qword ptr [rdi + 24], 18
	pop	rbp
	ret
	.cfi_endproc

	.globl	__ZN4time2Tm7rfc333917h48b4535ec2c6584cE
	.p2align	4, 0x90
__ZN4time2Tm7rfc333917h48b4535ec2c6584cE:
	.cfi_startproc
	push	rbp
	.cfi_def_cfa_offset 16
	.cfi_offset rbp, -16
	mov	rbp, rsp
	.cfi_def_cfa_register rbp
	mov	rax, rdi
	mov	qword ptr [rdi], rsi
	mov	qword ptr [rdi + 8], 1
	pop	rbp
	ret
	.cfi_endproc

	.globl	__ZN55_$LT$time..ParseError$u20$as$u20$core..fmt..Display$GT$3fmt17h158d24ff36571648E
	.p2align	4, 0x90
__ZN55_$LT$time..ParseError$u20$as$u20$core..fmt..Display$GT$3fmt17h158d24ff36571648E:
	.cfi_startproc
	push	rbp
	.cfi_def_cfa_offset 16
	.cfi_offset rbp, -16
	mov	rbp, rsp
	.cfi_def_cfa_register rbp
	sub	rsp, 112
	mov	rax, rsi
	mov	esi, dword ptr [rdi]
	cmp	rsi, 13
	je	LBB80_16
	cmp	rsi, 14
	jne	LBB80_2
	mov	ecx, dword ptr [rdi + 4]
	mov	dword ptr [rbp - 4], ecx
	mov	ecx, dword ptr [rdi + 8]
	mov	dword ptr [rbp - 24], ecx
	lea	rcx, [rbp - 4]
	mov	qword ptr [rbp - 56], rcx
	mov	rcx, qword ptr [rip + __ZN43_$LT$char$u20$as$u20$core..fmt..Display$GT$3fmt17h6751376c1412eca9E@GOTPCREL]
	mov	qword ptr [rbp - 48], rcx
	lea	rdx, [rbp - 24]
	mov	qword ptr [rbp - 40], rdx
	mov	qword ptr [rbp - 32], rcx
	lea	rcx, [rip + l___unnamed_181]
	mov	qword ptr [rbp - 104], rcx
	mov	qword ptr [rbp - 96], 3
	jmp	LBB80_18
LBB80_16:
	mov	ecx, dword ptr [rdi + 4]
	mov	dword ptr [rbp - 4], ecx
	lea	rcx, [rip + l___unnamed_182]
	mov	qword ptr [rbp - 24], rcx
	mov	qword ptr [rbp - 16], 24
	lea	rcx, [rbp - 24]
	mov	qword ptr [rbp - 56], rcx
	lea	rcx, [rip + __ZN44_$LT$$RF$T$u20$as$u20$core..fmt..Display$GT$3fmt17h2d7755669f68d894E]
	mov	qword ptr [rbp - 48], rcx
	lea	rcx, [rbp - 4]
	mov	qword ptr [rbp - 40], rcx
	mov	rcx, qword ptr [rip + __ZN43_$LT$char$u20$as$u20$core..fmt..Display$GT$3fmt17h6751376c1412eca9E@GOTPCREL]
	mov	qword ptr [rbp - 32], rcx
	lea	rcx, [rip + l___unnamed_183]
	mov	qword ptr [rbp - 104], rcx
	mov	qword ptr [rbp - 96], 2
LBB80_18:
	mov	qword ptr [rbp - 88], 0
	lea	rcx, [rbp - 56]
	mov	qword ptr [rbp - 72], rcx
	mov	qword ptr [rbp - 64], 2
	jmp	LBB80_19
LBB80_2:
	lea	rcx, [rip + l___unnamed_184]
	mov	edx, 15
	lea	rdi, [rip + LJTI80_0]
	movsxd	rsi, dword ptr [rdi + 4*rsi]
	add	rsi, rdi
	jmp	rsi
LBB80_3:
	lea	rcx, [rip + l___unnamed_185]
	jmp	LBB80_15
LBB80_4:
	lea	rcx, [rip + l___unnamed_186]
	mov	edx, 13
	jmp	LBB80_15
LBB80_5:
	lea	rcx, [rip + l___unnamed_187]
	mov	edx, 12
	jmp	LBB80_15
LBB80_6:
	lea	rcx, [rip + l___unnamed_188]
	mov	edx, 14
	jmp	LBB80_15
LBB80_7:
	lea	rcx, [rip + l___unnamed_189]
	mov	edx, 13
	jmp	LBB80_15
LBB80_8:
	lea	rcx, [rip + l___unnamed_190]
	mov	edx, 24
	jmp	LBB80_15
LBB80_9:
	lea	rcx, [rip + l___unnamed_191]
	mov	edx, 25
	jmp	LBB80_15
LBB80_10:
	lea	rcx, [rip + l___unnamed_192]
	mov	edx, 24
	jmp	LBB80_15
LBB80_11:
	lea	rcx, [rip + l___unnamed_193]
	mov	edx, 20
	jmp	LBB80_15
LBB80_12:
	lea	rcx, [rip + l___unnamed_194]
	mov	edx, 13
	jmp	LBB80_15
LBB80_13:
	lea	rcx, [rip + l___unnamed_195]
	mov	edx, 28
	jmp	LBB80_15
LBB80_14:
	lea	rcx, [rip + l___unnamed_196]
	mov	edx, 34
LBB80_15:
	mov	qword ptr [rbp - 56], rcx
	mov	qword ptr [rbp - 48], rdx
	lea	rcx, [rbp - 56]
	mov	qword ptr [rbp - 24], rcx
	lea	rcx, [rip + __ZN44_$LT$$RF$T$u20$as$u20$core..fmt..Display$GT$3fmt17h2d7755669f68d894E]
	mov	qword ptr [rbp - 16], rcx
	lea	rcx, [rip + l___unnamed_23]
	mov	qword ptr [rbp - 104], rcx
	mov	qword ptr [rbp - 96], 1
	mov	qword ptr [rbp - 88], 0
	lea	rcx, [rbp - 24]
	mov	qword ptr [rbp - 72], rcx
	mov	qword ptr [rbp - 64], 1
LBB80_19:
	lea	rsi, [rbp - 104]
	mov	rdi, rax
	call	__ZN4core3fmt9Formatter9write_fmt17h3dc2bf45afed3069E
	add	rsp, 112
	pop	rbp
	ret
	.cfi_endproc
	.p2align	2, 0x90
	.data_region jt32
.set L80_0_set_15, LBB80_15-LJTI80_0
.set L80_0_set_3, LBB80_3-LJTI80_0
.set L80_0_set_4, LBB80_4-LJTI80_0
.set L80_0_set_5, LBB80_5-LJTI80_0
.set L80_0_set_6, LBB80_6-LJTI80_0
.set L80_0_set_7, LBB80_7-LJTI80_0
.set L80_0_set_8, LBB80_8-LJTI80_0
.set L80_0_set_9, LBB80_9-LJTI80_0
.set L80_0_set_10, LBB80_10-LJTI80_0
.set L80_0_set_11, LBB80_11-LJTI80_0
.set L80_0_set_12, LBB80_12-LJTI80_0
.set L80_0_set_13, LBB80_13-LJTI80_0
.set L80_0_set_14, LBB80_14-LJTI80_0
LJTI80_0:
	.long	L80_0_set_15
	.long	L80_0_set_3
	.long	L80_0_set_4
	.long	L80_0_set_5
	.long	L80_0_set_6
	.long	L80_0_set_7
	.long	L80_0_set_8
	.long	L80_0_set_9
	.long	L80_0_set_10
	.long	L80_0_set_11
	.long	L80_0_set_12
	.long	L80_0_set_13
	.long	L80_0_set_14
	.end_data_region

	.globl	__ZN54_$LT$time..ParseError$u20$as$u20$std..error..Error$GT$11description17h9435175fe34aea16E
	.p2align	4, 0x90
__ZN54_$LT$time..ParseError$u20$as$u20$std..error..Error$GT$11description17h9435175fe34aea16E:
	.cfi_startproc
	push	rbp
	.cfi_def_cfa_offset 16
	.cfi_offset rbp, -16
	mov	rbp, rsp
	.cfi_def_cfa_register rbp
	mov	ecx, dword ptr [rdi]
	lea	rax, [rip + l___unnamed_197]
	mov	edx, 21
	lea	rsi, [rip + LJTI81_0]
	movsxd	rcx, dword ptr [rsi + 4*rcx]
	add	rcx, rsi
	jmp	rcx
LBB81_1:
	lea	rax, [rip + l___unnamed_184]
	mov	edx, 15
	pop	rbp
	ret
LBB81_2:
	lea	rax, [rip + l___unnamed_185]
	mov	edx, 15
	pop	rbp
	ret
LBB81_3:
	lea	rax, [rip + l___unnamed_186]
	mov	edx, 13
	pop	rbp
	ret
LBB81_4:
	lea	rax, [rip + l___unnamed_187]
	mov	edx, 12
	pop	rbp
	ret
LBB81_5:
	lea	rax, [rip + l___unnamed_188]
	mov	edx, 14
	pop	rbp
	ret
LBB81_6:
	lea	rax, [rip + l___unnamed_189]
	mov	edx, 13
	pop	rbp
	ret
LBB81_7:
	lea	rax, [rip + l___unnamed_190]
	jmp	LBB81_15
LBB81_8:
	lea	rax, [rip + l___unnamed_191]
	mov	edx, 25
	pop	rbp
	ret
LBB81_9:
	lea	rax, [rip + l___unnamed_192]
	jmp	LBB81_15
LBB81_10:
	lea	rax, [rip + l___unnamed_193]
	mov	edx, 20
	pop	rbp
	ret
LBB81_11:
	lea	rax, [rip + l___unnamed_194]
	mov	edx, 13
	pop	rbp
	ret
LBB81_12:
	lea	rax, [rip + l___unnamed_195]
	mov	edx, 28
	pop	rbp
	ret
LBB81_13:
	lea	rax, [rip + l___unnamed_196]
	mov	edx, 34
	pop	rbp
	ret
LBB81_14:
	lea	rax, [rip + l___unnamed_182]
LBB81_15:
	mov	edx, 24
LBB81_16:
	pop	rbp
	ret
	.cfi_endproc
	.p2align	2, 0x90
	.data_region jt32
.set L81_0_set_1, LBB81_1-LJTI81_0
.set L81_0_set_2, LBB81_2-LJTI81_0
.set L81_0_set_3, LBB81_3-LJTI81_0
.set L81_0_set_4, LBB81_4-LJTI81_0
.set L81_0_set_5, LBB81_5-LJTI81_0
.set L81_0_set_6, LBB81_6-LJTI81_0
.set L81_0_set_7, LBB81_7-LJTI81_0
.set L81_0_set_8, LBB81_8-LJTI81_0
.set L81_0_set_9, LBB81_9-LJTI81_0
.set L81_0_set_10, LBB81_10-LJTI81_0
.set L81_0_set_11, LBB81_11-LJTI81_0
.set L81_0_set_12, LBB81_12-LJTI81_0
.set L81_0_set_13, LBB81_13-LJTI81_0
.set L81_0_set_14, LBB81_14-LJTI81_0
.set L81_0_set_16, LBB81_16-LJTI81_0
LJTI81_0:
	.long	L81_0_set_1
	.long	L81_0_set_2
	.long	L81_0_set_3
	.long	L81_0_set_4
	.long	L81_0_set_5
	.long	L81_0_set_6
	.long	L81_0_set_7
	.long	L81_0_set_8
	.long	L81_0_set_9
	.long	L81_0_set_10
	.long	L81_0_set_11
	.long	L81_0_set_12
	.long	L81_0_set_13
	.long	L81_0_set_14
	.long	L81_0_set_16
	.end_data_region

	.globl	__ZN4time8strftime17h7627d0e9ceff87caE
	.p2align	4, 0x90
__ZN4time8strftime17h7627d0e9ceff87caE:
Lfunc_begin5:
	.cfi_startproc
	.cfi_personality 155, _rust_eh_personality
	.cfi_lsda 16, Lexception5
	push	rbp
	.cfi_def_cfa_offset 16
	.cfi_offset rbp, -16
	mov	rbp, rsp
	.cfi_def_cfa_register rbp
	push	r15
	push	r14
	push	rbx
	sub	rsp, 184
	.cfi_offset rbx, -40
	.cfi_offset r14, -32
	.cfi_offset r15, -24
	mov	rax, rdx
	mov	rdx, rsi
	mov	rbx, rdi
	lea	rdi, [rbp - 152]
	mov	rsi, rcx
	mov	rcx, rax
	call	__ZN4time2Tm8strftime17h3106059ac9464c9eE
	cmp	dword ptr [rbp - 152], 1
	jne	LBB82_2
	mov	eax, dword ptr [rbp - 140]
	mov	dword ptr [rbx + 12], eax
	mov	rax, qword ptr [rbp - 148]
	mov	qword ptr [rbx + 4], rax
	mov	dword ptr [rbx], 1
	jmp	LBB82_16
LBB82_2:
	mov	rax, qword ptr [rbp - 120]
	mov	qword ptr [rbp - 176], rax
	mov	rax, qword ptr [rbp - 128]
	mov	qword ptr [rbp - 184], rax
	mov	rax, qword ptr [rbp - 144]
	mov	rcx, qword ptr [rbp - 136]
	mov	qword ptr [rbp - 192], rcx
	mov	qword ptr [rbp - 200], rax
	lea	rax, [rbp - 200]
	mov	qword ptr [rbp - 56], rax
	mov	qword ptr [rbp - 48], 1
	mov	qword ptr [rbp - 40], 0
	mov	qword ptr [rbp - 32], 0
	lea	rax, [rbp - 56]
	mov	qword ptr [rbp - 168], rax
	lea	rax, [rip + __ZN44_$LT$$RF$T$u20$as$u20$core..fmt..Display$GT$3fmt17h22f145ccee285b48E]
	mov	qword ptr [rbp - 160], rax
	lea	rax, [rbp - 48]
	mov	qword ptr [rbp - 64], rax
	lea	rax, [rip + l___unnamed_23]
	mov	qword ptr [rbp - 112], rax
	mov	qword ptr [rbp - 104], 1
	mov	qword ptr [rbp - 96], 0
	lea	rax, [rbp - 168]
	mov	qword ptr [rbp - 80], rax
	mov	qword ptr [rbp - 72], 1
Ltmp15:
	lea	rsi, [rip + l___unnamed_9]
	lea	rdi, [rbp - 64]
	lea	rdx, [rbp - 112]
	call	__ZN4core3fmt5write17h26bd57c1fd6e9c98E
Ltmp16:
	test	al, al
	jne	LBB82_4
	mov	rsi, qword ptr [rbp - 40]
	mov	r14, qword ptr [rbp - 32]
	cmp	rsi, r14
	je	LBB82_15
	jb	LBB82_12
	test	rsi, rsi
	je	LBB82_15
	mov	rdi, qword ptr [rbp - 48]
	test	rdi, rdi
	je	LBB82_15
	test	r14, r14
	je	LBB82_11
	mov	edx, 1
	mov	rcx, r14
	call	___rust_realloc
	mov	r15, rax
	test	rax, rax
	jne	LBB82_14
	mov	esi, 1
	mov	rdi, r14
	call	__ZN5alloc5alloc18handle_alloc_error17hbc0ab0ed90816c07E
LBB82_11:
	mov	r15d, 1
	mov	edx, 1
	call	___rust_dealloc
LBB82_14:
	mov	qword ptr [rbp - 48], r15
	mov	qword ptr [rbp - 40], r14
LBB82_15:
	mov	rax, qword ptr [rbp - 32]
	mov	qword ptr [rbp - 96], rax
	mov	rcx, qword ptr [rbp - 48]
	mov	rdx, qword ptr [rbp - 40]
	mov	qword ptr [rbp - 104], rdx
	mov	qword ptr [rbp - 112], rcx
	mov	qword ptr [rbx + 24], rax
	mov	qword ptr [rbx + 16], rdx
	mov	qword ptr [rbx + 8], rcx
	mov	dword ptr [rbx], 0
LBB82_16:
	mov	rax, rbx
	add	rsp, 184
	pop	rbx
	pop	r14
	pop	r15
	pop	rbp
	ret
LBB82_4:
Ltmp19:
	lea	rdi, [rip + l___unnamed_198]
	lea	rcx, [rip + l___unnamed_199]
	lea	r8, [rip + l___unnamed_200]
	lea	rdx, [rbp - 112]
	mov	esi, 55
	call	__ZN4core6result13unwrap_failed17hb5a510096a5fc85fE
Ltmp20:
	jmp	LBB82_5
LBB82_12:
Ltmp17:
	lea	rdi, [rip + l___unnamed_201]
	lea	rdx, [rip + l___unnamed_202]
	mov	esi, 36
	call	__ZN4core9panicking5panic17h736ee47a631475c0E
Ltmp18:
LBB82_5:
	ud2
LBB82_18:
Ltmp21:
	mov	rbx, rax
	lea	rdi, [rbp - 48]
	call	__ZN4core3ptr13drop_in_place17hfbf67dab9d628559E
	mov	rdi, rbx
	call	__Unwind_Resume
	ud2
Lfunc_end5:
	.cfi_endproc
	.section	__TEXT,__gcc_except_tab
	.p2align	2
GCC_except_table82:
Lexception5:
	.byte	255
	.byte	255
	.byte	1
	.uleb128 Lcst_end5-Lcst_begin5
Lcst_begin5:
	.uleb128 Ltmp15-Lfunc_begin5
	.uleb128 Ltmp18-Ltmp15
	.uleb128 Ltmp21-Lfunc_begin5
	.byte	0
	.uleb128 Ltmp18-Lfunc_begin5
	.uleb128 Lfunc_end5-Ltmp18
	.byte	0
	.byte	0
Lcst_end5:
	.p2align	2

	.section	__TEXT,__text,regular,pure_instructions
	.globl	__ZN61_$LT$time..duration..Duration$u20$as$u20$core..fmt..Debug$GT$3fmt17hc1b6a88194d66bdcE
	.p2align	4, 0x90
__ZN61_$LT$time..duration..Duration$u20$as$u20$core..fmt..Debug$GT$3fmt17hc1b6a88194d66bdcE:
	.cfi_startproc
	push	rbp
	.cfi_def_cfa_offset 16
	.cfi_offset rbp, -16
	mov	rbp, rsp
	.cfi_def_cfa_register rbp
	push	r14
	push	rbx
	sub	rsp, 32
	.cfi_offset rbx, -32
	.cfi_offset r14, -24
	mov	rbx, rdi
	lea	rdx, [rip + L___unnamed_203]
	lea	r14, [rbp - 40]
	mov	ecx, 8
	mov	rdi, r14
	call	__ZN4core3fmt9Formatter12debug_struct17h985c0158d1fc7193E
	mov	qword ptr [rbp - 24], rbx
	add	rbx, 8
	lea	rsi, [rip + L___unnamed_204]
	lea	r8, [rip + l___unnamed_205]
	lea	rcx, [rbp - 24]
	mov	edx, 4
	mov	rdi, r14
	call	__ZN4core3fmt8builders11DebugStruct5field17h9c15dc155278eed2E
	mov	qword ptr [rbp - 24], rbx
	lea	rsi, [rip + l___unnamed_206]
	lea	r8, [rip + l___unnamed_207]
	lea	rcx, [rbp - 24]
	mov	edx, 5
	mov	rdi, r14
	call	__ZN4core3fmt8builders11DebugStruct5field17h9c15dc155278eed2E
	mov	rdi, r14
	call	__ZN4core3fmt8builders11DebugStruct6finish17h26808393f3fed630E
	add	rsp, 32
	pop	rbx
	pop	r14
	pop	rbp
	ret
	.cfi_endproc

	.globl	__ZN68_$LT$time..duration..OutOfRangeError$u20$as$u20$core..fmt..Debug$GT$3fmt17h190f6a635636e057E
	.p2align	4, 0x90
__ZN68_$LT$time..duration..OutOfRangeError$u20$as$u20$core..fmt..Debug$GT$3fmt17h190f6a635636e057E:
	.cfi_startproc
	push	rbp
	.cfi_def_cfa_offset 16
	.cfi_offset rbp, -16
	mov	rbp, rsp
	.cfi_def_cfa_register rbp
	push	r14
	push	rbx
	sub	rsp, 32
	.cfi_offset rbx, -32
	.cfi_offset r14, -24
	mov	rbx, rdi
	lea	rdx, [rip + l___unnamed_208]
	lea	r14, [rbp - 48]
	mov	ecx, 15
	mov	rdi, r14
	call	__ZN4core3fmt9Formatter11debug_tuple17h15ca25ad759edd1cE
	mov	qword ptr [rbp - 24], rbx
	lea	rdx, [rip + l___unnamed_209]
	lea	rsi, [rbp - 24]
	mov	rdi, r14
	call	__ZN4core3fmt8builders10DebugTuple5field17hf36121153a94f236E
	mov	rdi, r14
	call	__ZN4core3fmt8builders10DebugTuple6finish17h68acf09c6f6593f2E
	add	rsp, 32
	pop	rbx
	pop	r14
	pop	rbp
	ret
	.cfi_endproc

	.globl	__ZN70_$LT$time..sys..inner..mac..SteadyTime$u20$as$u20$core..fmt..Debug$GT$3fmt17hd76263844b360192E
	.p2align	4, 0x90
__ZN70_$LT$time..sys..inner..mac..SteadyTime$u20$as$u20$core..fmt..Debug$GT$3fmt17hd76263844b360192E:
	.cfi_startproc
	push	rbp
	.cfi_def_cfa_offset 16
	.cfi_offset rbp, -16
	mov	rbp, rsp
	.cfi_def_cfa_register rbp
	push	r14
	push	rbx
	sub	rsp, 32
	.cfi_offset rbx, -32
	.cfi_offset r14, -24
	mov	rbx, rdi
	lea	rdx, [rip + l___unnamed_5]
	lea	r14, [rbp - 40]
	mov	ecx, 10
	mov	rdi, r14
	call	__ZN4core3fmt9Formatter12debug_struct17h985c0158d1fc7193E
	mov	qword ptr [rbp - 24], rbx
	lea	rsi, [rip + l___unnamed_6]
	lea	r8, [rip + l___unnamed_7]
	lea	rcx, [rbp - 24]
	mov	edx, 1
	mov	rdi, r14
	call	__ZN4core3fmt8builders11DebugStruct5field17h9c15dc155278eed2E
	mov	rdi, r14
	call	__ZN4core3fmt8builders11DebugStruct6finish17h26808393f3fed630E
	add	rsp, 32
	pop	rbx
	pop	r14
	pop	rbp
	ret
	.cfi_endproc

	.globl	__ZN51_$LT$time..Timespec$u20$as$u20$core..fmt..Debug$GT$3fmt17hc8a663520ab0167eE
	.p2align	4, 0x90
__ZN51_$LT$time..Timespec$u20$as$u20$core..fmt..Debug$GT$3fmt17hc8a663520ab0167eE:
	.cfi_startproc
	push	rbp
	.cfi_def_cfa_offset 16
	.cfi_offset rbp, -16
	mov	rbp, rsp
	.cfi_def_cfa_register rbp
	push	r14
	push	rbx
	sub	rsp, 32
	.cfi_offset rbx, -32
	.cfi_offset r14, -24
	mov	rbx, rdi
	lea	rdx, [rip + L___unnamed_210]
	lea	r14, [rbp - 40]
	mov	ecx, 8
	mov	rdi, r14
	call	__ZN4core3fmt9Formatter12debug_struct17h985c0158d1fc7193E
	mov	qword ptr [rbp - 24], rbx
	add	rbx, 8
	lea	rsi, [rip + l___unnamed_211]
	lea	r8, [rip + l___unnamed_205]
	lea	rcx, [rbp - 24]
	mov	edx, 3
	mov	rdi, r14
	call	__ZN4core3fmt8builders11DebugStruct5field17h9c15dc155278eed2E
	mov	qword ptr [rbp - 24], rbx
	lea	rsi, [rip + L___unnamed_212]
	lea	r8, [rip + l___unnamed_207]
	lea	rcx, [rbp - 24]
	mov	edx, 4
	mov	rdi, r14
	call	__ZN4core3fmt8builders11DebugStruct5field17h9c15dc155278eed2E
	mov	rdi, r14
	call	__ZN4core3fmt8builders11DebugStruct6finish17h26808393f3fed630E
	add	rsp, 32
	pop	rbx
	pop	r14
	pop	rbp
	ret
	.cfi_endproc

	.globl	__ZN53_$LT$time..SteadyTime$u20$as$u20$core..fmt..Debug$GT$3fmt17hf31304b13193b11cE
	.p2align	4, 0x90
__ZN53_$LT$time..SteadyTime$u20$as$u20$core..fmt..Debug$GT$3fmt17hf31304b13193b11cE:
	.cfi_startproc
	push	rbp
	.cfi_def_cfa_offset 16
	.cfi_offset rbp, -16
	mov	rbp, rsp
	.cfi_def_cfa_register rbp
	push	r14
	push	rbx
	sub	rsp, 32
	.cfi_offset rbx, -32
	.cfi_offset r14, -24
	mov	rbx, rdi
	lea	rdx, [rip + l___unnamed_5]
	lea	r14, [rbp - 48]
	mov	ecx, 10
	mov	rdi, r14
	call	__ZN4core3fmt9Formatter11debug_tuple17h15ca25ad759edd1cE
	mov	qword ptr [rbp - 24], rbx
	lea	rdx, [rip + l___unnamed_213]
	lea	rsi, [rbp - 24]
	mov	rdi, r14
	call	__ZN4core3fmt8builders10DebugTuple5field17hf36121153a94f236E
	mov	rdi, r14
	call	__ZN4core3fmt8builders10DebugTuple6finish17h68acf09c6f6593f2E
	add	rsp, 32
	pop	rbx
	pop	r14
	pop	rbp
	ret
	.cfi_endproc

	.globl	__ZN45_$LT$time..Tm$u20$as$u20$core..fmt..Debug$GT$3fmt17ha600475a5d25b0e2E
	.p2align	4, 0x90
__ZN45_$LT$time..Tm$u20$as$u20$core..fmt..Debug$GT$3fmt17ha600475a5d25b0e2E:
	.cfi_startproc
	push	rbp
	.cfi_def_cfa_offset 16
	.cfi_offset rbp, -16
	mov	rbp, rsp
	.cfi_def_cfa_register rbp
	push	r15
	push	r14
	push	r13
	push	r12
	push	rbx
	sub	rsp, 88
	.cfi_offset rbx, -56
	.cfi_offset r12, -48
	.cfi_offset r13, -40
	.cfi_offset r14, -32
	.cfi_offset r15, -24
	mov	rbx, rdi
	lea	rdx, [rip + l___unnamed_214]
	lea	r14, [rbp - 120]
	mov	ecx, 2
	mov	rdi, r14
	call	__ZN4core3fmt9Formatter12debug_struct17h985c0158d1fc7193E
	mov	qword ptr [rbp - 48], rbx
	lea	r13, [rbx + 4]
	lea	r15, [rbx + 8]
	lea	r12, [rbx + 12]
	lea	rax, [rbx + 16]
	mov	qword ptr [rbp - 56], rax
	lea	rax, [rbx + 20]
	mov	qword ptr [rbp - 64], rax
	lea	rax, [rbx + 24]
	mov	qword ptr [rbp - 72], rax
	lea	rax, [rbx + 28]
	mov	qword ptr [rbp - 80], rax
	lea	rax, [rbx + 32]
	mov	qword ptr [rbp - 88], rax
	lea	rax, [rbx + 36]
	mov	qword ptr [rbp - 96], rax
	lea	rax, [rbx + 40]
	mov	qword ptr [rbp - 104], rax
	lea	rsi, [rip + l___unnamed_215]
	lea	rbx, [rip + l___unnamed_207]
	lea	rcx, [rbp - 48]
	mov	edx, 6
	mov	rdi, r14
	mov	r8, rbx
	call	__ZN4core3fmt8builders11DebugStruct5field17h9c15dc155278eed2E
	mov	qword ptr [rbp - 48], r13
	lea	rsi, [rip + l___unnamed_216]
	lea	rcx, [rbp - 48]
	mov	edx, 6
	mov	rdi, r14
	mov	r8, rbx
	call	__ZN4core3fmt8builders11DebugStruct5field17h9c15dc155278eed2E
	mov	qword ptr [rbp - 48], r15
	lea	rsi, [rip + l___unnamed_217]
	lea	rcx, [rbp - 48]
	mov	edx, 7
	mov	rdi, r14
	mov	r8, rbx
	call	__ZN4core3fmt8builders11DebugStruct5field17h9c15dc155278eed2E
	mov	qword ptr [rbp - 48], r12
	lea	rsi, [rip + l___unnamed_218]
	lea	rcx, [rbp - 48]
	mov	edx, 7
	mov	rdi, r14
	mov	r8, rbx
	call	__ZN4core3fmt8builders11DebugStruct5field17h9c15dc155278eed2E
	mov	rax, qword ptr [rbp - 56]
	mov	qword ptr [rbp - 48], rax
	lea	rsi, [rip + l___unnamed_219]
	lea	rcx, [rbp - 48]
	mov	edx, 6
	mov	rdi, r14
	mov	r8, rbx
	call	__ZN4core3fmt8builders11DebugStruct5field17h9c15dc155278eed2E
	mov	rax, qword ptr [rbp - 64]
	mov	qword ptr [rbp - 48], rax
	lea	rsi, [rip + l___unnamed_220]
	lea	rcx, [rbp - 48]
	mov	edx, 7
	mov	rdi, r14
	mov	r8, rbx
	call	__ZN4core3fmt8builders11DebugStruct5field17h9c15dc155278eed2E
	mov	rax, qword ptr [rbp - 72]
	mov	qword ptr [rbp - 48], rax
	lea	rsi, [rip + l___unnamed_221]
	lea	rcx, [rbp - 48]
	mov	edx, 7
	mov	rdi, r14
	mov	r8, rbx
	call	__ZN4core3fmt8builders11DebugStruct5field17h9c15dc155278eed2E
	mov	rax, qword ptr [rbp - 80]
	mov	qword ptr [rbp - 48], rax
	lea	rsi, [rip + l___unnamed_222]
	lea	rcx, [rbp - 48]
	mov	edx, 7
	mov	rdi, r14
	mov	r8, rbx
	call	__ZN4core3fmt8builders11DebugStruct5field17h9c15dc155278eed2E
	mov	rax, qword ptr [rbp - 88]
	mov	qword ptr [rbp - 48], rax
	lea	rsi, [rip + L___unnamed_223]
	lea	rcx, [rbp - 48]
	mov	edx, 8
	mov	rdi, r14
	mov	r8, rbx
	call	__ZN4core3fmt8builders11DebugStruct5field17h9c15dc155278eed2E
	mov	rax, qword ptr [rbp - 96]
	mov	qword ptr [rbp - 48], rax
	lea	rsi, [rip + l___unnamed_224]
	lea	rcx, [rbp - 48]
	mov	edx, 9
	mov	rdi, r14
	mov	r8, rbx
	call	__ZN4core3fmt8builders11DebugStruct5field17h9c15dc155278eed2E
	mov	rax, qword ptr [rbp - 104]
	mov	qword ptr [rbp - 48], rax
	lea	rsi, [rip + l___unnamed_225]
	lea	rcx, [rbp - 48]
	mov	edx, 7
	mov	rdi, r14
	mov	r8, rbx
	call	__ZN4core3fmt8builders11DebugStruct5field17h9c15dc155278eed2E
	mov	rdi, r14
	call	__ZN4core3fmt8builders11DebugStruct6finish17h26808393f3fed630E
	add	rsp, 88
	pop	rbx
	pop	r12
	pop	r13
	pop	r14
	pop	r15
	pop	rbp
	ret
	.cfi_endproc

	.globl	__ZN53_$LT$time..ParseError$u20$as$u20$core..fmt..Debug$GT$3fmt17hed59ea75bd1536a7E
	.p2align	4, 0x90
__ZN53_$LT$time..ParseError$u20$as$u20$core..fmt..Debug$GT$3fmt17hed59ea75bd1536a7E:
	.cfi_startproc
	push	rbp
	.cfi_def_cfa_offset 16
	.cfi_offset rbp, -16
	mov	rbp, rsp
	.cfi_def_cfa_register rbp
	push	r15
	push	r14
	push	rbx
	sub	rsp, 40
	.cfi_offset rbx, -40
	.cfi_offset r14, -32
	.cfi_offset r15, -24
	mov	rbx, rdi
	mov	eax, dword ptr [rdi]
	lea	rcx, [rip + LJTI89_0]
	movsxd	rax, dword ptr [rcx + 4*rax]
	add	rax, rcx
	jmp	rax
LBB89_2:
	lea	r14, [rbp - 56]
	lea	rdx, [rip + l___unnamed_226]
	jmp	LBB89_3
LBB89_5:
	lea	r14, [rbp - 56]
	lea	rdx, [rip + l___unnamed_227]
LBB89_3:
	mov	ecx, 13
	jmp	LBB89_4
LBB89_6:
	lea	r14, [rbp - 56]
	lea	rdx, [rip + l___unnamed_228]
	mov	ecx, 11
	jmp	LBB89_4
LBB89_8:
	lea	r14, [rbp - 56]
	lea	rdx, [rip + l___unnamed_229]
	mov	ecx, 10
	jmp	LBB89_4
LBB89_9:
	lea	r14, [rbp - 56]
	lea	rdx, [rip + l___unnamed_230]
	mov	ecx, 12
	jmp	LBB89_4
LBB89_10:
	lea	r14, [rbp - 56]
	lea	rdx, [rip + l___unnamed_231]
	mov	ecx, 11
	jmp	LBB89_4
LBB89_11:
	lea	r14, [rbp - 56]
	lea	rdx, [rip + L___unnamed_232]
	mov	ecx, 16
	jmp	LBB89_4
LBB89_13:
	lea	r14, [rbp - 56]
	lea	rdx, [rip + l___unnamed_233]
	mov	ecx, 17
	jmp	LBB89_4
LBB89_15:
	lea	r14, [rbp - 56]
	lea	rdx, [rip + L___unnamed_234]
	mov	ecx, 16
	jmp	LBB89_4
LBB89_16:
	lea	r14, [rbp - 56]
	lea	rdx, [rip + l___unnamed_235]
	mov	ecx, 17
	jmp	LBB89_4
LBB89_17:
	lea	r14, [rbp - 56]
	lea	rdx, [rip + l___unnamed_236]
	mov	ecx, 11
	jmp	LBB89_4
LBB89_18:
	lea	r14, [rbp - 56]
	lea	rdx, [rip + l___unnamed_237]
	mov	ecx, 24
	jmp	LBB89_4
LBB89_19:
	lea	r14, [rbp - 56]
	lea	rdx, [rip + l___unnamed_238]
	mov	ecx, 22
LBB89_4:
	mov	rdi, r14
	call	__ZN4core3fmt9Formatter11debug_tuple17h15ca25ad759edd1cE
LBB89_22:
	mov	rdi, r14
	call	__ZN4core3fmt8builders10DebugTuple6finish17h68acf09c6f6593f2E
	add	rsp, 40
	pop	rbx
	pop	r14
	pop	r15
	pop	rbp
	ret
LBB89_20:
	add	rbx, 4
	lea	r14, [rbp - 56]
	lea	rdx, [rip + l___unnamed_239]
	mov	ecx, 22
	mov	rdi, r14
	call	__ZN4core3fmt9Formatter11debug_tuple17h15ca25ad759edd1cE
	mov	qword ptr [rbp - 32], rbx
	lea	rdx, [rip + l___unnamed_240]
	lea	rsi, [rbp - 32]
	mov	rdi, r14
	jmp	LBB89_21
LBB89_1:
	lea	r15, [rbx + 4]
	add	rbx, 8
	lea	r14, [rbp - 56]
	lea	rdx, [rip + l___unnamed_241]
	mov	ecx, 19
	mov	rdi, r14
	call	__ZN4core3fmt9Formatter11debug_tuple17h15ca25ad759edd1cE
	mov	qword ptr [rbp - 32], r15
	lea	r15, [rip + l___unnamed_240]
	lea	rsi, [rbp - 32]
	mov	rdi, r14
	mov	rdx, r15
	call	__ZN4core3fmt8builders10DebugTuple5field17hf36121153a94f236E
	mov	qword ptr [rbp - 32], rbx
	lea	rsi, [rbp - 32]
	mov	rdi, r14
	mov	rdx, r15
LBB89_21:
	call	__ZN4core3fmt8builders10DebugTuple5field17hf36121153a94f236E
	jmp	LBB89_22
	.cfi_endproc
	.p2align	2, 0x90
	.data_region jt32
.set L89_0_set_2, LBB89_2-LJTI89_0
.set L89_0_set_5, LBB89_5-LJTI89_0
.set L89_0_set_6, LBB89_6-LJTI89_0
.set L89_0_set_8, LBB89_8-LJTI89_0
.set L89_0_set_9, LBB89_9-LJTI89_0
.set L89_0_set_10, LBB89_10-LJTI89_0
.set L89_0_set_11, LBB89_11-LJTI89_0
.set L89_0_set_13, LBB89_13-LJTI89_0
.set L89_0_set_15, LBB89_15-LJTI89_0
.set L89_0_set_16, LBB89_16-LJTI89_0
.set L89_0_set_17, LBB89_17-LJTI89_0
.set L89_0_set_18, LBB89_18-LJTI89_0
.set L89_0_set_19, LBB89_19-LJTI89_0
.set L89_0_set_20, LBB89_20-LJTI89_0
.set L89_0_set_1, LBB89_1-LJTI89_0
LJTI89_0:
	.long	L89_0_set_2
	.long	L89_0_set_5
	.long	L89_0_set_6
	.long	L89_0_set_8
	.long	L89_0_set_9
	.long	L89_0_set_10
	.long	L89_0_set_11
	.long	L89_0_set_13
	.long	L89_0_set_15
	.long	L89_0_set_16
	.long	L89_0_set_17
	.long	L89_0_set_18
	.long	L89_0_set_19
	.long	L89_0_set_20
	.long	L89_0_set_1
	.end_data_region

	.globl	__ZN48_$LT$time..TmFmt$u20$as$u20$core..fmt..Debug$GT$3fmt17h2e4fb498635588f6E
	.p2align	4, 0x90
__ZN48_$LT$time..TmFmt$u20$as$u20$core..fmt..Debug$GT$3fmt17h2e4fb498635588f6E:
	.cfi_startproc
	push	rbp
	.cfi_def_cfa_offset 16
	.cfi_offset rbp, -16
	mov	rbp, rsp
	.cfi_def_cfa_register rbp
	push	r14
	push	rbx
	sub	rsp, 32
	.cfi_offset rbx, -32
	.cfi_offset r14, -24
	mov	rbx, rdi
	lea	rdx, [rip + l___unnamed_242]
	lea	r14, [rbp - 40]
	mov	ecx, 5
	mov	rdi, r14
	call	__ZN4core3fmt9Formatter12debug_struct17h985c0158d1fc7193E
	mov	qword ptr [rbp - 24], rbx
	add	rbx, 8
	lea	rsi, [rip + l___unnamed_243]
	lea	r8, [rip + l___unnamed_244]
	lea	rcx, [rbp - 24]
	mov	edx, 2
	mov	rdi, r14
	call	__ZN4core3fmt8builders11DebugStruct5field17h9c15dc155278eed2E
	mov	qword ptr [rbp - 24], rbx
	lea	rsi, [rip + l___unnamed_245]
	lea	r8, [rip + l___unnamed_246]
	lea	rcx, [rbp - 24]
	mov	edx, 6
	mov	rdi, r14
	call	__ZN4core3fmt8builders11DebugStruct5field17h9c15dc155278eed2E
	mov	rdi, r14
	call	__ZN4core3fmt8builders11DebugStruct6finish17h26808393f3fed630E
	add	rsp, 32
	pop	rbx
	pop	r14
	pop	rbp
	ret
	.cfi_endproc

	.globl	__ZN46_$LT$time..Fmt$u20$as$u20$core..fmt..Debug$GT$3fmt17hde5380b111a3cf1aE
	.p2align	4, 0x90
__ZN46_$LT$time..Fmt$u20$as$u20$core..fmt..Debug$GT$3fmt17hde5380b111a3cf1aE:
	.cfi_startproc
	push	rbp
	.cfi_def_cfa_offset 16
	.cfi_offset rbp, -16
	mov	rbp, rsp
	.cfi_def_cfa_register rbp
	push	r14
	push	rbx
	sub	rsp, 32
	.cfi_offset rbx, -32
	.cfi_offset r14, -24
	mov	rax, qword ptr [rdi]
	test	rax, rax
	je	LBB91_3
	lea	r14, [rbp - 48]
	cmp	rax, 1
	je	LBB91_4
	lea	rdx, [rip + l___unnamed_247]
	mov	ecx, 5
	jmp	LBB91_5
LBB91_3:
	mov	rbx, rdi
	add	rbx, 8
	lea	r14, [rbp - 48]
	lea	rdx, [rip + l___unnamed_248]
	mov	ecx, 3
	mov	rdi, r14
	call	__ZN4core3fmt9Formatter11debug_tuple17h15ca25ad759edd1cE
	mov	qword ptr [rbp - 24], rbx
	lea	rdx, [rip + l___unnamed_249]
	lea	rsi, [rbp - 24]
	mov	rdi, r14
	call	__ZN4core3fmt8builders10DebugTuple5field17hf36121153a94f236E
	jmp	LBB91_6
LBB91_4:
	lea	rdx, [rip + l___unnamed_250]
	mov	ecx, 7
LBB91_5:
	mov	rdi, r14
	call	__ZN4core3fmt9Formatter11debug_tuple17h15ca25ad759edd1cE
LBB91_6:
	mov	rdi, r14
	call	__ZN4core3fmt8builders10DebugTuple6finish17h68acf09c6f6593f2E
	add	rsp, 32
	pop	rbx
	pop	r14
	pop	rbp
	ret
	.cfi_endproc

	.section	__DATA,__const
	.p2align	3
l___unnamed_156:
	.quad	__ZN4core3ptr13drop_in_place17h135d84835f9919a1E
	.quad	8
	.quad	8
	.quad	__ZN3std4sync4once4Once9call_once28_$u7b$$u7b$closure$u7d$$u7d$17hfd05b33f032e826dE
	.quad	__ZN4core3ops8function6FnOnce40call_once$u7b$$u7b$vtable.shim$u7d$$u7d$17h44b3344f84c27fadE

	.section	__TEXT,__const
l___unnamed_251:
	.ascii	"/rustc/a74d1862d4d87a56244958416fd05976c58ca1a8/src/libstd/sync/once.rs"

	.section	__DATA,__const
	.p2align	3
l___unnamed_2:
	.quad	l___unnamed_251
	.asciz	"G\000\000\000\000\000\000\000\b\001\000\000)\000\000"

	.p2align	3
l___unnamed_3:
	.quad	__ZN4core3ptr13drop_in_place17h135d84835f9919a1E
	.quad	16
	.quad	8
	.quad	__ZN91_$LT$std..panicking..begin_panic..PanicPayload$LT$A$GT$$u20$as$u20$core..panic..BoxMeUp$GT$8take_box17h757f554f02ca953fE
	.quad	__ZN91_$LT$std..panicking..begin_panic..PanicPayload$LT$A$GT$$u20$as$u20$core..panic..BoxMeUp$GT$3get17h76f661f183f154b3E

	.section	__TEXT,__const
l___unnamed_4:
	.ascii	"()"

	.p2align	3
l___unnamed_54:
	.byte	0

	.section	__DATA,__const
	.p2align	3
l___unnamed_23:
	.quad	l___unnamed_54
	.space	8

	.section	__TEXT,__const
l___unnamed_198:
	.ascii	"a Display implementation returned an error unexpectedly"

l___unnamed_252:
	.ascii	"/rustc/a74d1862d4d87a56244958416fd05976c58ca1a8/src/liballoc/string.rs"

	.section	__DATA,__const
	.p2align	3
l___unnamed_200:
	.quad	l___unnamed_252
	.asciz	"F\000\000\000\000\000\000\000\215\b\000\000\t\000\000"

	.section	__TEXT,__const
	.p2align	4
_str.0:
	.ascii	"attempt to subtract with overflow"

	.section	__DATA,__const
	.p2align	3
l___unnamed_9:
	.quad	__ZN4core3ptr13drop_in_place17h135d84835f9919a1E
	.quad	8
	.quad	8
	.quad	__ZN50_$LT$$RF$mut$u20$W$u20$as$u20$core..fmt..Write$GT$9write_str17h3036b6c08e9fac69E
	.quad	__ZN50_$LT$$RF$mut$u20$W$u20$as$u20$core..fmt..Write$GT$10write_char17heb37c40d5db7a3a3E
	.quad	__ZN50_$LT$$RF$mut$u20$W$u20$as$u20$core..fmt..Write$GT$9write_fmt17hb5126bb3ad342be3E

	.section	__TEXT,__const
l___unnamed_253:
	.ascii	"/rustc/a74d1862d4d87a56244958416fd05976c58ca1a8/src/libcore/str/mod.rs"

	.section	__DATA,__const
	.p2align	3
l___unnamed_8:
	.quad	l___unnamed_253
	.asciz	"F\000\000\000\000\000\000\000\004\b\000\000/\000\000"

	.section	__TEXT,__const
l___unnamed_254:
	.ascii	"/rustc/a74d1862d4d87a56244958416fd05976c58ca1a8/src/libcore/str/pattern.rs"

	.section	__DATA,__const
	.p2align	3
l___unnamed_149:
	.quad	l___unnamed_254
	.asciz	"J\000\000\000\000\000\000\000\017\005\000\000!\000\000"

	.p2align	3
l___unnamed_150:
	.quad	l___unnamed_254
	.asciz	"J\000\000\000\000\000\000\000\033\005\000\000\024\000\000"

	.p2align	3
l___unnamed_151:
	.quad	l___unnamed_254
	.asciz	"J\000\000\000\000\000\000\000\033\005\000\000!\000\000"

	.section	__TEXT,__const
l___unnamed_255:
	.ascii	"/rustc/a74d1862d4d87a56244958416fd05976c58ca1a8/src/libcore/macros/mod.rs"

	.section	__DATA,__const
	.p2align	3
l___unnamed_202:
	.quad	l___unnamed_255
	.asciz	"I\000\000\000\000\000\000\000\n\000\000\000\t\000\000"

	.section	__TEXT,__const
l___unnamed_1:
	.ascii	"called `Option::unwrap()` on a `None` value"

	.section	__DATA,__const
	.p2align	3
l___unnamed_199:
	.quad	__ZN4core3ptr13drop_in_place17h135d84835f9919a1E
	.quad	0
	.quad	1
	.quad	__ZN53_$LT$core..fmt..Error$u20$as$u20$core..fmt..Debug$GT$3fmt17h5678f5d4ba71e3b2E

	.section	__TEXT,__const
	.p2align	4
_str.1:
	.ascii	"attempt to divide by zero"

l___unnamed_201:
	.ascii	"Tried to shrink to a larger capacity"

	.section	__DATA,__const
	.p2align	3
l___unnamed_10:
	.quad	__ZN4core3ptr13drop_in_place17h135d84835f9919a1E
	.quad	16
	.quad	8
	.quad	__ZN36_$LT$T$u20$as$u20$core..any..Any$GT$7type_id17hcfb9724396b342c0E

	.section	__TEXT,__const
l___unnamed_16:
	.ascii	"%Y-%m-%dT%H:%M:%SZ"

l___unnamed_11:
	.ascii	"%Y-%m-%dT%H:%M:%S"

l___unnamed_256:
	.ascii	"/Users/yingyuhang/.cargo/registry/src/github.com-1ecc6299db9ec823/time-0.1.43/src/display.rs"

	.p2align	4
_str.2:
	.ascii	"attempt to divide with overflow"

	.p2align	4
_str.3:
	.ascii	"attempt to multiply with overflow"

l___unnamed_30:
	.byte	58

	.section	__DATA,__const
	.p2align	3
l___unnamed_12:
	.quad	l___unnamed_54
	.space	8
	.quad	l___unnamed_54
	.space	8
	.quad	l___unnamed_54
	.space	8
	.quad	l___unnamed_30
	.asciz	"\001\000\000\000\000\000\000"

	.section	__TEXT,__const
	.p2align	3
l___unnamed_13:
	.asciz	"\000\000\000\000\000\000\000\000\002\000\000\000\000\000\000\000\000\000\000\000\000\000\000\000\002\000\000\000\000\000\000\000\000\000\000\000\000\000\000\000 \000\000\000\000\000\000\000\003\000\000\000\000\000\000\000\001\000\000\000\000\000\000\000\002\000\000\000\000\000\000\000\000\000\000\000\000\000\000\000\002\000\000\000\000\000\000\000\000\000\000\000\000\000\000\000 \000\000\000\000\000\000\000\003\000\000\000\000\000\000\000\002\000\000\000\000\000\000\000\002\000\000\000\000\000\000\000\000\000\000\000\000\000\000\000\000\000\000\000\000\000\000\000\002\000\000\000\000\000\000\000 \000\000\000\b\000\000\000\003\000\000\000\000\000\000\000\003\000\000\000\000\000\000\000\002\000\000\000\000\000\000\000\000\000\000\000\000\000\000\000\000\000\000\000\000\000\000\000\002\000\000\000\000\000\000\000 \000\000\000\b\000\000\000\003\000\000\000\000\000\000"

	.section	__DATA,__const
	.p2align	3
l___unnamed_15:
	.quad	l___unnamed_256
	.asciz	"\\\000\000\000\000\000\000\000\016\000\000\000)\000\000"

	.p2align	3
l___unnamed_20:
	.quad	l___unnamed_256
	.asciz	"\\\000\000\000\000\000\000\000C\000\000\000\r\000\000"

	.section	__TEXT,__const
	.p2align	4
_str.5:
	.ascii	"attempt to add with overflow"

	.section	__DATA,__const
	.p2align	3
l___unnamed_21:
	.quad	l___unnamed_256
	.asciz	"\\\000\000\000\000\000\000\000C\000\000\000\f\000\000"

	.p2align	3
l___unnamed_22:
	.quad	l___unnamed_256
	.asciz	"\\\000\000\000\000\000\000\000C\000\000\000\005\000\000"

	.p2align	3
l___unnamed_25:
	.quad	l___unnamed_256
	.asciz	"\\\000\000\000\000\000\000\000H\000\000\000\024\000\000"

	.p2align	3
l___unnamed_28:
	.quad	l___unnamed_256
	.asciz	"\\\000\000\000\000\000\000\000N\000\000\000\036\000\000"

	.p2align	3
l___unnamed_26:
	.quad	l___unnamed_256
	.asciz	"\\\000\000\000\000\000\000\000P\000\000\000\037\000\000"

	.p2align	3
l___unnamed_27:
	.quad	l___unnamed_256
	.asciz	"\\\000\000\000\000\000\000\000T\000\000\000\r\000\000"

	.section	__TEXT,__const
	.p2align	3
l___unnamed_24:
	.asciz	"\000\000\000\000\000\000\000\000\002\000\000\000\000\000\000\000\000\000\000\000\000\000\000\000\000\000\000\000\000\000\000\000\002\000\000\000\000\000\000\000 \000\000\000\b\000\000\000\003\000\000\000\000\000\000"

l___unnamed_85:
	.ascii	"internal error: entered unreachable code"

	.section	__DATA,__const
	.p2align	3
l___unnamed_86:
	.quad	l___unnamed_256
	.asciz	"\\\000\000\000\000\000\000\000\376\000\000\000\020\000\000"

	.section	__TEXT,__const
l___unnamed_46:
	.byte	37

	.section	__DATA,__const
	.p2align	3
l___unnamed_33:
	.quad	l___unnamed_54
	.space	8
	.quad	l___unnamed_54
	.space	8
	.quad	l___unnamed_54
	.space	8

	.section	__TEXT,__const
	.p2align	3
l___unnamed_34:
	.asciz	"\000\000\000\000\000\000\000\000\002\000\000\000\000\000\000\000\000\000\000\000\000\000\000\000\002\000\000\000\000\000\000\000\000\000\000\000\000\000\000\000 \000\000\000\000\000\000\000\003\000\000\000\000\000\000\000\001\000\000\000\000\000\000\000\002\000\000\000\000\000\000\000\000\000\000\000\000\000\000\000\000\000\000\000\000\000\000\000\002\000\000\000\000\000\000\000 \000\000\000\b\000\000\000\003\000\000\000\000\000\000\000\002\000\000\000\000\000\000\000\002\000\000\000\000\000\000\000\000\000\000\000\000\000\000\000\000\000\000\000\000\000\000\000\002\000\000\000\000\000\000\000 \000\000\000\b\000\000\000\003\000\000\000\000\000\000"

l___unnamed_53:
	.ascii	"UTC"

	.section	__DATA,__const
	.p2align	3
l___unnamed_100:
	.quad	l___unnamed_256
	.asciz	"\\\000\000\000\000\000\000\000\362\000\000\000%\000\000"

	.p2align	3
l___unnamed_99:
	.quad	l___unnamed_256
	.asciz	"\\\000\000\000\000\000\000\000\361\000\000\000\"\000\000"

	.p2align	3
l___unnamed_90:
	.quad	l___unnamed_256
	.asciz	"\\\000\000\000\000\000\000\000\356\000\000\0001\000\000"

	.p2align	3
l___unnamed_91:
	.quad	l___unnamed_256
	.asciz	"\\\000\000\000\000\000\000\000\356\000\000\0000\000\000"

	.p2align	3
l___unnamed_92:
	.quad	l___unnamed_256
	.asciz	"\\\000\000\000\000\000\000\000\356\000\000\000#\000\000"

	.p2align	3
l___unnamed_93:
	.quad	l___unnamed_256
	.asciz	"\\\000\000\000\000\000\000\000\356\000\000\000\"\000\000"

	.section	__TEXT,__const
l___unnamed_43:
	.byte	45

	.section	__DATA,__const
	.p2align	3
l___unnamed_89:
	.quad	l___unnamed_256
	.asciz	"\\\000\000\000\000\000\000\000\340\000\000\000&\000\000"

	.p2align	3
l___unnamed_41:
	.quad	l___unnamed_256
	.asciz	"\\\000\000\000\000\000\000\000\340\000\000\000%\000\000"

	.section	__TEXT,__const
l___unnamed_55:
	.byte	9

l___unnamed_40:
	.byte	32

l___unnamed_38:
	.ascii	"AM"

l___unnamed_39:
	.ascii	"PM"

l___unnamed_49:
	.ascii	"am"

l___unnamed_50:
	.ascii	"pm"

l___unnamed_42:
	.byte	10

	.section	__DATA,__const
	.p2align	3
l___unnamed_94:
	.quad	l___unnamed_256
	.asciz	"\\\000\000\000\000\000\000\000\304\000\000\000%\000\000"

	.section	__TEXT,__const
	.p2align	3
l___unnamed_52:
	.asciz	"\000\000\000\000\000\000\000\000\002\000\000\000\000\000\000\000\000\000\000\000\000\000\000\000\000\000\000\000\000\000\000\000\002\000\000\000\000\000\000\000 \000\000\000\000\000\000\000\003\000\000\000\000\000\000"

	.section	__DATA,__const
	.p2align	3
l___unnamed_98:
	.quad	l___unnamed_256
	.asciz	"\\\000\000\000\000\000\000\000\273\000\000\000%\000\000"

	.section	__TEXT,__const
	.p2align	3
l___unnamed_51:
	.asciz	"\000\000\000\000\000\000\000\000\002\000\000\000\000\000\000\000\000\000\000\000\000\000\000\000\000\000\000\000\000\000\000\000\003\000\000\000\000\000\000\000 \000\000\000\b\000\000\000\003\000\000\000\000\000\000"

	.p2align	3
l___unnamed_35:
	.asciz	"\000\000\000\000\000\000\000\000\002\000\000\000\000\000\000\000\000\000\000\000\000\000\000\000\000\000\000\000\000\000\000\000\t\000\000\000\000\000\000\000 \000\000\000\b\000\000\000\003\000\000\000\000\000\000"

l___unnamed_29:
	.byte	47

	.section	__DATA,__const
	.p2align	3
l___unnamed_96:
	.quad	l___unnamed_256
	.asciz	"\\\000\000\000\000\000\000\000\225\000\000\000%\000\000"

	.p2align	3
l___unnamed_87:
	.quad	l___unnamed_256
	.asciz	"\\\000\000\000\000\000\000\000\223\000\000\000\023\000\000"

	.section	__TEXT,__const
l___unnamed_57:
	.ascii	"Dec"

l___unnamed_65:
	.ascii	"Nov"

l___unnamed_58:
	.ascii	"Oct"

l___unnamed_64:
	.ascii	"Sep"

l___unnamed_61:
	.ascii	"Aug"

l___unnamed_63:
	.ascii	"Jul"

l___unnamed_62:
	.ascii	"Jun"

l___unnamed_56:
	.ascii	"May"

l___unnamed_60:
	.ascii	"Apr"

l___unnamed_59:
	.ascii	"Mar"

l___unnamed_32:
	.ascii	"Feb"

l___unnamed_31:
	.ascii	"Jan"

	.section	__DATA,__const
	.p2align	3
l___unnamed_97:
	.quad	l___unnamed_256
	.asciz	"\\\000\000\000\000\000\000\000\204\000\000\000\022\000\000"

	.section	__TEXT,__literal8,8byte_literals
L___unnamed_76:
	.ascii	"December"

L___unnamed_84:
	.ascii	"November"

	.section	__TEXT,__const
l___unnamed_77:
	.ascii	"October"

l___unnamed_83:
	.ascii	"September"

l___unnamed_80:
	.ascii	"August"

	.section	__TEXT,__literal4,4byte_literals
L___unnamed_82:
	.ascii	"July"

L___unnamed_81:
	.ascii	"June"

	.section	__TEXT,__const
l___unnamed_79:
	.ascii	"April"

l___unnamed_78:
	.ascii	"March"

	.section	__TEXT,__literal8,8byte_literals
L___unnamed_48:
	.ascii	"February"

	.section	__TEXT,__const
l___unnamed_47:
	.ascii	"January"

	.section	__DATA,__const
	.p2align	3
l___unnamed_88:
	.quad	l___unnamed_256
	.asciz	"\\\000\000\000\000\000\000\000u\000\000\000\022\000\000"

	.section	__TEXT,__const
l___unnamed_70:
	.ascii	"Sat"

l___unnamed_69:
	.ascii	"Fri"

l___unnamed_66:
	.ascii	"Thu"

l___unnamed_68:
	.ascii	"Wed"

l___unnamed_67:
	.ascii	"Tue"

l___unnamed_37:
	.ascii	"Mon"

l___unnamed_36:
	.ascii	"Sun"

	.section	__DATA,__const
	.p2align	3
l___unnamed_95:
	.quad	l___unnamed_256
	.asciz	"\\\000\000\000\000\000\000\000k\000\000\000\022\000\000"

	.section	__TEXT,__literal8,8byte_literals
L___unnamed_75:
	.ascii	"Saturday"

	.section	__TEXT,__const
l___unnamed_74:
	.ascii	"Friday"

	.section	__TEXT,__literal8,8byte_literals
L___unnamed_71:
	.ascii	"Thursday"

	.section	__TEXT,__const
l___unnamed_73:
	.ascii	"Wednesday"

l___unnamed_72:
	.ascii	"Tuesday"

l___unnamed_45:
	.ascii	"Monday"

l___unnamed_44:
	.ascii	"Sunday"

	.section	__DATA,__const
	.p2align	3
l___unnamed_19:
	.quad	l___unnamed_256
	.asciz	"\\\000\000\000\000\000\000\000\003\001\000\000\017\000\000"

	.section	__TEXT,__const
	.p2align	4
_str.6:
	.ascii	"attempt to negate with overflow"

l___unnamed_162:
	.ascii	"Duration::seconds out of bounds"

l___unnamed_257:
	.ascii	"/Users/yingyuhang/.cargo/registry/src/github.com-1ecc6299db9ec823/time-0.1.43/src/duration.rs"

	.section	__DATA,__const
	.p2align	3
l___unnamed_163:
	.quad	l___unnamed_257
	.asciz	"]\000\000\000\000\000\000\000j\000\000\000\r\000\000"

	.p2align	3
l___unnamed_101:
	.quad	l___unnamed_257
	.asciz	"]\000\000\000\000\000\000\000\276\000\000\000\031\000\000"

	.p2align	3
l___unnamed_102:
	.quad	l___unnamed_257
	.asciz	"]\000\000\000\000\000\000\000\300\000\000\000\t\000\000"

	.p2align	3
l___unnamed_103:
	.quad	l___unnamed_257
	.asciz	"]\000\000\000\000\000\000\000\326\000\000\000\031\000\000"

	.p2align	3
l___unnamed_104:
	.quad	l___unnamed_257
	.asciz	"]\000\000\000\000\000\000\000\344\000\000\000\031\000\000"

	.p2align	3
l___unnamed_129:
	.quad	l___unnamed_257
	.asciz	"]\000\000\000\000\000\000\000.\001\000\000\036\000\000"

	.p2align	3
l___unnamed_127:
	.quad	l___unnamed_257
	.asciz	"]\000\000\000\000\000\000\0000\001\000\000\036\000\000"

	.p2align	3
l___unnamed_128:
	.quad	l___unnamed_257
	.asciz	"]\000\000\000\000\000\000\0000\001\000\0005\000\000"

	.p2align	3
l___unnamed_105:
	.quad	l___unnamed_257
	.asciz	"]\000\000\000\000\000\000\0009\001\000\000\030\000\000"

	.p2align	3
l___unnamed_106:
	.quad	l___unnamed_257
	.asciz	"]\000\000\000\000\000\000\000:\001\000\000\031\000\000"

	.p2align	3
l___unnamed_107:
	.quad	l___unnamed_257
	.asciz	"]\000\000\000\000\000\000\000=\001\000\000\r\000\000"

	.p2align	3
l___unnamed_108:
	.quad	l___unnamed_257
	.asciz	"]\000\000\000\000\000\000\000G\001\000\000\030\000\000"

	.p2align	3
l___unnamed_109:
	.quad	l___unnamed_257
	.asciz	"]\000\000\000\000\000\000\000H\001\000\000\031\000\000"

	.p2align	3
l___unnamed_110:
	.quad	l___unnamed_257
	.asciz	"]\000\000\000\000\000\000\000K\001\000\000\r\000\000"

	.p2align	3
l___unnamed_111:
	.quad	l___unnamed_257
	.asciz	"]\000\000\000\000\000\000\000X\001\000\000\024\000\000"

	.p2align	3
l___unnamed_112:
	.quad	l___unnamed_257
	.asciz	"]\000\000\000\000\000\000\000a\001\000\000\030\000\000"

	.p2align	3
l___unnamed_113:
	.quad	l___unnamed_257
	.asciz	"]\000\000\000\000\000\000\000b\001\000\000!\000\000"

	.p2align	3
l___unnamed_114:
	.quad	l___unnamed_257
	.asciz	"]\000\000\000\000\000\000\000b\001\000\000\025\000\000"

	.p2align	3
l___unnamed_115:
	.quad	l___unnamed_257
	.asciz	"]\000\000\000\000\000\000\000c\001\000\000\033\000\000"

	.p2align	3
l___unnamed_116:
	.quad	l___unnamed_257
	.asciz	"]\000\000\000\000\000\000\000d\001\000\000\031\000\000"

	.p2align	3
l___unnamed_117:
	.quad	l___unnamed_257
	.asciz	"]\000\000\000\000\000\000\000g\001\000\000\r\000\000"

	.p2align	3
l___unnamed_118:
	.quad	l___unnamed_257
	.asciz	"]\000\000\000\000\000\000\000k\001\000\000\r\000\000"

	.p2align	3
l___unnamed_126:
	.quad	l___unnamed_257
	.asciz	"]\000\000\000\000\000\000\000x\001\000\000\024\000\000"

	.section	__TEXT,__const
l___unnamed_258:
	.byte	80

	.section	__DATA,__const
	.p2align	3
l___unnamed_119:
	.quad	l___unnamed_54
	.space	8
	.quad	l___unnamed_258
	.asciz	"\001\000\000\000\000\000\000"

	.section	__TEXT,__const
l___unnamed_259:
	.byte	68

	.section	__DATA,__const
	.p2align	3
l___unnamed_120:
	.quad	l___unnamed_54
	.space	8
	.quad	l___unnamed_259
	.asciz	"\001\000\000\000\000\000\000"

	.section	__TEXT,__const
l___unnamed_260:
	.byte	84

l___unnamed_261:
	.byte	83

	.section	__DATA,__const
	.p2align	3
l___unnamed_123:
	.quad	l___unnamed_260
	.asciz	"\001\000\000\000\000\000\000"
	.quad	l___unnamed_261
	.asciz	"\001\000\000\000\000\000\000"

	.section	__TEXT,__const
l___unnamed_262:
	.byte	46

	.section	__DATA,__const
	.p2align	3
l___unnamed_121:
	.quad	l___unnamed_260
	.asciz	"\001\000\000\000\000\000\000"
	.quad	l___unnamed_262
	.asciz	"\001\000\000\000\000\000\000"
	.quad	l___unnamed_261
	.asciz	"\001\000\000\000\000\000\000"

	.section	__TEXT,__const
	.p2align	3
l___unnamed_124:
	.asciz	"\000\000\000\000\000\000\000\000\002\000\000\000\000\000\000\000\000\000\000\000\000\000\000\000\002\000\000\000\000\000\000\000\000\000\000\000\000\000\000\000 \000\000\000\000\000\000\000\003\000\000\000\000\000\000\000\001\000\000\000\000\000\000\000\002\000\000\000\000\000\000\000\000\000\000\000\000\000\000\000\000\000\000\000\000\000\000\000\003\000\000\000\000\000\000\000 \000\000\000\b\000\000\000\003\000\000\000\000\000\000"

	.p2align	3
l___unnamed_125:
	.asciz	"\000\000\000\000\000\000\000\000\002\000\000\000\000\000\000\000\000\000\000\000\000\000\000\000\002\000\000\000\000\000\000\000\000\000\000\000\000\000\000\000 \000\000\000\000\000\000\000\003\000\000\000\000\000\000\000\001\000\000\000\000\000\000\000\002\000\000\000\000\000\000\000\000\000\000\000\000\000\000\000\000\000\000\000\000\000\000\000\006\000\000\000\000\000\000\000 \000\000\000\b\000\000\000\003\000\000\000\000\000\000"

	.p2align	3
l___unnamed_122:
	.asciz	"\000\000\000\000\000\000\000\000\002\000\000\000\000\000\000\000\000\000\000\000\000\000\000\000\002\000\000\000\000\000\000\000\000\000\000\000\000\000\000\000 \000\000\000\000\000\000\000\003\000\000\000\000\000\000\000\001\000\000\000\000\000\000\000\002\000\000\000\000\000\000\000\000\000\000\000\000\000\000\000\000\000\000\000\000\000\000\000\t\000\000\000\000\000\000\000 \000\000\000\b\000\000\000\003\000\000\000\000\000\000"

l___unnamed_130:
	.ascii	"Source duration value is out of range for the target type"

l___unnamed_263:
	.ascii	"/Users/yingyuhang/.cargo/registry/src/github.com-1ecc6299db9ec823/time-0.1.43/src/parse.rs"

	.section	__DATA,__const
	.p2align	3
l___unnamed_145:
	.quad	l___unnamed_263
	.asciz	"Z\000\000\000\000\000\000\000\"\001\000\000(\000\000"

	.p2align	3
l___unnamed_146:
	.quad	l___unnamed_263
	.asciz	"Z\000\000\000\000\000\000\000\"\001\000\000:\000\000"

	.p2align	3
l___unnamed_147:
	.quad	l___unnamed_263
	.asciz	"Z\000\000\000\000\000\000\000\"\001\000\000'\000\000"

	.p2align	3
l___unnamed_148:
	.quad	l___unnamed_263
	.asciz	"Z\000\000\000\000\000\000\000\"\001\000\000 \000\000"

	.section	__TEXT,__const
l___unnamed_138:
	.ascii	"GMT"

	.section	__DATA,__const
	.p2align	3
l___unnamed_142:
	.quad	l___unnamed_263
	.asciz	"Z\000\000\000\000\000\000\000\355\000\000\000+\000\000"

	.p2align	3
l___unnamed_135:
	.quad	l___unnamed_38
	.asciz	"\002\000\000\000\000\000\000\000\000\000\000\000\000\000\000"
	.quad	l___unnamed_39
	.asciz	"\002\000\000\000\000\000\000\000\f\000\000\000\000\000\000"

	.p2align	3
l___unnamed_144:
	.quad	l___unnamed_263
	.asciz	"Z\000\000\000\000\000\000\000\256\000\000\000\032\000\000"

	.p2align	3
l___unnamed_132:
	.quad	l___unnamed_49
	.asciz	"\002\000\000\000\000\000\000\000\000\000\000\000\000\000\000"
	.quad	l___unnamed_50
	.asciz	"\002\000\000\000\000\000\000\000\f\000\000\000\000\000\000"

	.p2align	3
l___unnamed_133:
	.quad	l___unnamed_263
	.asciz	"Z\000\000\000\000\000\000\000\252\000\000\000\032\000\000"

	.p2align	3
l___unnamed_143:
	.quad	l___unnamed_263
	.asciz	"Z\000\000\000\000\000\000\000V\000\000\000\032\000\000"

	.p2align	3
l___unnamed_131:
	.quad	l___unnamed_31
	.asciz	"\003\000\000\000\000\000\000\000\000\000\000\000\000\000\000"
	.quad	l___unnamed_32
	.asciz	"\003\000\000\000\000\000\000\000\001\000\000\000\000\000\000"
	.quad	l___unnamed_59
	.asciz	"\003\000\000\000\000\000\000\000\002\000\000\000\000\000\000"
	.quad	l___unnamed_60
	.asciz	"\003\000\000\000\000\000\000\000\003\000\000\000\000\000\000"
	.quad	l___unnamed_56
	.asciz	"\003\000\000\000\000\000\000\000\004\000\000\000\000\000\000"
	.quad	l___unnamed_62
	.asciz	"\003\000\000\000\000\000\000\000\005\000\000\000\000\000\000"
	.quad	l___unnamed_63
	.asciz	"\003\000\000\000\000\000\000\000\006\000\000\000\000\000\000"
	.quad	l___unnamed_61
	.asciz	"\003\000\000\000\000\000\000\000\007\000\000\000\000\000\000"
	.quad	l___unnamed_64
	.asciz	"\003\000\000\000\000\000\000\000\b\000\000\000\000\000\000"
	.quad	l___unnamed_58
	.asciz	"\003\000\000\000\000\000\000\000\t\000\000\000\000\000\000"
	.quad	l___unnamed_65
	.asciz	"\003\000\000\000\000\000\000\000\n\000\000\000\000\000\000"
	.quad	l___unnamed_57
	.asciz	"\003\000\000\000\000\000\000\000\013\000\000\000\000\000\000"

	.p2align	3
l___unnamed_136:
	.quad	l___unnamed_47
	.asciz	"\007\000\000\000\000\000\000\000\000\000\000\000\000\000\000"
	.quad	L___unnamed_48
	.asciz	"\b\000\000\000\000\000\000\000\001\000\000\000\000\000\000"
	.quad	l___unnamed_78
	.asciz	"\005\000\000\000\000\000\000\000\002\000\000\000\000\000\000"
	.quad	l___unnamed_79
	.asciz	"\005\000\000\000\000\000\000\000\003\000\000\000\000\000\000"
	.quad	l___unnamed_56
	.asciz	"\003\000\000\000\000\000\000\000\004\000\000\000\000\000\000"
	.quad	L___unnamed_81
	.asciz	"\004\000\000\000\000\000\000\000\005\000\000\000\000\000\000"
	.quad	L___unnamed_82
	.asciz	"\004\000\000\000\000\000\000\000\006\000\000\000\000\000\000"
	.quad	l___unnamed_80
	.asciz	"\006\000\000\000\000\000\000\000\007\000\000\000\000\000\000"
	.quad	l___unnamed_83
	.asciz	"\t\000\000\000\000\000\000\000\b\000\000\000\000\000\000"
	.quad	l___unnamed_77
	.asciz	"\007\000\000\000\000\000\000\000\t\000\000\000\000\000\000"
	.quad	L___unnamed_84
	.asciz	"\b\000\000\000\000\000\000\000\n\000\000\000\000\000\000"
	.quad	L___unnamed_76
	.asciz	"\b\000\000\000\000\000\000\000\013\000\000\000\000\000\000"

	.p2align	3
l___unnamed_137:
	.quad	l___unnamed_36
	.asciz	"\003\000\000\000\000\000\000\000\000\000\000\000\000\000\000"
	.quad	l___unnamed_37
	.asciz	"\003\000\000\000\000\000\000\000\001\000\000\000\000\000\000"
	.quad	l___unnamed_67
	.asciz	"\003\000\000\000\000\000\000\000\002\000\000\000\000\000\000"
	.quad	l___unnamed_68
	.asciz	"\003\000\000\000\000\000\000\000\003\000\000\000\000\000\000"
	.quad	l___unnamed_66
	.asciz	"\003\000\000\000\000\000\000\000\004\000\000\000\000\000\000"
	.quad	l___unnamed_69
	.asciz	"\003\000\000\000\000\000\000\000\005\000\000\000\000\000\000"
	.quad	l___unnamed_70
	.asciz	"\003\000\000\000\000\000\000\000\006\000\000\000\000\000\000"

	.p2align	3
l___unnamed_134:
	.quad	l___unnamed_44
	.asciz	"\006\000\000\000\000\000\000\000\000\000\000\000\000\000\000"
	.quad	l___unnamed_45
	.asciz	"\006\000\000\000\000\000\000\000\001\000\000\000\000\000\000"
	.quad	l___unnamed_72
	.asciz	"\007\000\000\000\000\000\000\000\002\000\000\000\000\000\000"
	.quad	l___unnamed_73
	.asciz	"\t\000\000\000\000\000\000\000\003\000\000\000\000\000\000"
	.quad	L___unnamed_71
	.asciz	"\b\000\000\000\000\000\000\000\004\000\000\000\000\000\000"
	.quad	l___unnamed_74
	.asciz	"\006\000\000\000\000\000\000\000\005\000\000\000\000\000\000"
	.quad	L___unnamed_75
	.asciz	"\b\000\000\000\000\000\000\000\006\000\000\000\000\000\000"

	.p2align	3
l___unnamed_155:
	.quad	l___unnamed_263
	.asciz	"Z\000\000\000\000\000\000\000K\001\000\000\r\000\000"

	.p2align	3
l___unnamed_154:
	.quad	l___unnamed_263
	.asciz	"Z\000\000\000\000\000\000\000O\001\000\000\037\000\000"

	.p2align	3
l___unnamed_152:
	.quad	l___unnamed_263
	.asciz	"Z\000\000\000\000\000\000\000Q\001\000\000$\000\000"

	.p2align	3
l___unnamed_153:
	.quad	l___unnamed_263
