	.section	__TEXT,__text,regular,pure_instructions
	.macosx_version_min 10, 7
	.p2align	4, 0x90
__ZN36_$LT$T$u20$as$u20$core..any..Any$GT$7type_id17h769548846645c2e1E:
	.cfi_startproc
	pushq	%rbp
	.cfi_def_cfa_offset 16
	.cfi_offset %rbp, -16
	movq	%rsp, %rbp
	.cfi_def_cfa_register %rbp
	movabsq	$9147559743429524724, %rax
	popq	%rbp
	retq
	.cfi_endproc

	.p2align	4, 0x90
__ZN3std4sync4once4Once9call_once28_$u7b$$u7b$closure$u7d$$u7d$17h02493ae91ab3b28eE:
	.cfi_startproc
	pushq	%rbp
	.cfi_def_cfa_offset 16
	.cfi_offset %rbp, -16
	movq	%rsp, %rbp
	.cfi_def_cfa_register %rbp
	movq	(%rdi), %rax
	testb	$1, (%rax)
	movb	$0, (%rax)
	je	LBB1_1
	leaq	__ZN4time3sys5inner3mac4info4INFO17h2bd72e07e1a27c4cE(%rip), %rdi
	popq	%rbp
	jmp	_mach_timebase_info
LBB1_1:
	leaq	l___unnamed_1(%rip), %rdi
	leaq	l___unnamed_2(%rip), %rdx
	movl	$43, %esi
	callq	__ZN4core9panicking5panic17h383a6b80ea7021aaE
	.cfi_endproc

	.p2align	4, 0x90
__ZN3std9panicking11begin_panic17h6e8e866eb85f4bdfE:
	.cfi_startproc
	pushq	%rbp
	.cfi_def_cfa_offset 16
	.cfi_offset %rbp, -16
	movq	%rsp, %rbp
	.cfi_def_cfa_register %rbp
	subq	$16, %rsp
	movq	%rdi, -16(%rbp)
	movq	%rsi, -8(%rbp)
	movq	%rdx, %rdi
	callq	__ZN4core5panic8Location6caller17hb284bf0993c43fcaE
	leaq	l___unnamed_3(%rip), %rsi
	leaq	-16(%rbp), %rdi
	xorl	%edx, %edx
	movq	%rax, %rcx
	callq	__ZN3std9panicking20rust_panic_with_hook17h720143ee15fc80baE
	.cfi_endproc

	.p2align	4, 0x90
__ZN42_$LT$$RF$T$u20$as$u20$core..fmt..Debug$GT$3fmt17h52291a2e24897623E:
	.cfi_startproc
	pushq	%rbp
	.cfi_def_cfa_offset 16
	.cfi_offset %rbp, -16
	movq	%rsp, %rbp
	.cfi_def_cfa_register %rbp
	pushq	%r14
	pushq	%rbx
	.cfi_offset %rbx, -32
	.cfi_offset %r14, -24
	movq	%rsi, %rbx
	movq	(%rdi), %r14
	movq	%rsi, %rdi
	callq	__ZN4core3fmt9Formatter15debug_lower_hex17hd07f6fde8d0365dfE
	testb	%al, %al
	je	LBB3_1
	movq	%r14, %rdi
	movq	%rbx, %rsi
	popq	%rbx
	popq	%r14
	popq	%rbp
	jmp	__ZN4core3fmt3num53_$LT$impl$u20$core..fmt..LowerHex$u20$for$u20$u64$GT$3fmt17hb1b2554e6a6ce90cE
LBB3_1:
	movq	%rbx, %rdi
	callq	__ZN4core3fmt9Formatter15debug_upper_hex17hf480c256a9c81c1eE
	movq	%r14, %rdi
	movq	%rbx, %rsi
	testb	%al, %al
	je	LBB3_4
	popq	%rbx
	popq	%r14
	popq	%rbp
	jmp	__ZN4core3fmt3num53_$LT$impl$u20$core..fmt..UpperHex$u20$for$u20$u64$GT$3fmt17h67a4ddf8c7fd5f2bE
LBB3_4:
	popq	%rbx
	popq	%r14
	popq	%rbp
	jmp	__ZN4core3fmt3num3imp52_$LT$impl$u20$core..fmt..Display$u20$for$u20$u64$GT$3fmt17h3230c9bc78e30ed1E
	.cfi_endproc

	.p2align	4, 0x90
__ZN42_$LT$$RF$T$u20$as$u20$core..fmt..Debug$GT$3fmt17h5947df7200dd95a8E:
	.cfi_startproc
	pushq	%rbp
	.cfi_def_cfa_offset 16
	.cfi_offset %rbp, -16
	movq	%rsp, %rbp
	.cfi_def_cfa_register %rbp
	movq	%rsi, %rdx
	movq	(%rdi), %rax
	movq	(%rax), %rdi
	movq	8(%rax), %rsi
	popq	%rbp
	jmp	__ZN40_$LT$str$u20$as$u20$core..fmt..Debug$GT$3fmt17h5b42b6f497bd434cE
	.cfi_endproc

	.p2align	4, 0x90
__ZN42_$LT$$RF$T$u20$as$u20$core..fmt..Debug$GT$3fmt17h65f4975e76323710E:
	.cfi_startproc
	pushq	%rbp
	.cfi_def_cfa_offset 16
	.cfi_offset %rbp, -16
	movq	%rsp, %rbp
	.cfi_def_cfa_register %rbp
	pushq	%r14
	pushq	%rbx
	.cfi_offset %rbx, -32
	.cfi_offset %r14, -24
	movq	%rsi, %rbx
	movq	(%rdi), %r14
	movq	%rsi, %rdi
	callq	__ZN4core3fmt9Formatter15debug_lower_hex17hd07f6fde8d0365dfE
	testb	%al, %al
	je	LBB5_1
	movq	%r14, %rdi
	movq	%rbx, %rsi
	popq	%rbx
	popq	%r14
	popq	%rbp
	jmp	__ZN4core3fmt3num53_$LT$impl$u20$core..fmt..LowerHex$u20$for$u20$i64$GT$3fmt17h4ef40751c6de7de0E
LBB5_1:
	movq	%rbx, %rdi
	callq	__ZN4core3fmt9Formatter15debug_upper_hex17hf480c256a9c81c1eE
	movq	%r14, %rdi
	movq	%rbx, %rsi
	testb	%al, %al
	je	LBB5_4
	popq	%rbx
	popq	%r14
	popq	%rbp
	jmp	__ZN4core3fmt3num53_$LT$impl$u20$core..fmt..UpperHex$u20$for$u20$i64$GT$3fmt17h98e190490afbae54E
LBB5_4:
	popq	%rbx
	popq	%r14
	popq	%rbp
	jmp	__ZN4core3fmt3num3imp52_$LT$impl$u20$core..fmt..Display$u20$for$u20$i64$GT$3fmt17h310ed6661e8c983fE
	.cfi_endproc

	.p2align	4, 0x90
__ZN42_$LT$$RF$T$u20$as$u20$core..fmt..Debug$GT$3fmt17h95b43bfd907b8189E:
	.cfi_startproc
	pushq	%rbp
	.cfi_def_cfa_offset 16
	.cfi_offset %rbp, -16
	movq	%rsp, %rbp
	.cfi_def_cfa_register %rbp
	movq	(%rdi), %rax
	movq	(%rax), %rdi
	popq	%rbp
	jmp	__ZN45_$LT$time..Tm$u20$as$u20$core..fmt..Debug$GT$3fmt17h51b7044c6f0b2bc8E
	.cfi_endproc

	.p2align	4, 0x90
__ZN42_$LT$$RF$T$u20$as$u20$core..fmt..Debug$GT$3fmt17ha917a2bd25c6ff14E:
	.cfi_startproc
	pushq	%rbp
	.cfi_def_cfa_offset 16
	.cfi_offset %rbp, -16
	movq	%rsp, %rbp
	.cfi_def_cfa_register %rbp
	movq	(%rdi), %rdi
	popq	%rbp
	jmp	__ZN46_$LT$time..Fmt$u20$as$u20$core..fmt..Debug$GT$3fmt17h320a81f6cb9d9d65E
	.cfi_endproc

	.p2align	4, 0x90
__ZN42_$LT$$RF$T$u20$as$u20$core..fmt..Debug$GT$3fmt17hafe9f5803bc2c48fE:
	.cfi_startproc
	pushq	%rbp
	.cfi_def_cfa_offset 16
	.cfi_offset %rbp, -16
	movq	%rsp, %rbp
	.cfi_def_cfa_register %rbp
	movq	(%rdi), %rdi
	popq	%rbp
	jmp	__ZN41_$LT$char$u20$as$u20$core..fmt..Debug$GT$3fmt17hc4827edc88149effE
	.cfi_endproc

	.p2align	4, 0x90
__ZN42_$LT$$RF$T$u20$as$u20$core..fmt..Debug$GT$3fmt17hc12a84a072688697E:
	.cfi_startproc
	pushq	%rbp
	.cfi_def_cfa_offset 16
	.cfi_offset %rbp, -16
	movq	%rsp, %rbp
	.cfi_def_cfa_register %rbp
	pushq	%r14
	pushq	%rbx
	.cfi_offset %rbx, -32
	.cfi_offset %r14, -24
	movq	%rsi, %rbx
	movq	(%rdi), %r14
	movq	%rsi, %rdi
	callq	__ZN4core3fmt9Formatter15debug_lower_hex17hd07f6fde8d0365dfE
	testb	%al, %al
	je	LBB9_1
	movq	%r14, %rdi
	movq	%rbx, %rsi
	popq	%rbx
	popq	%r14
	popq	%rbp
	jmp	__ZN4core3fmt3num53_$LT$impl$u20$core..fmt..LowerHex$u20$for$u20$i32$GT$3fmt17hb7ffbd061f7948a2E
LBB9_1:
	movq	%rbx, %rdi
	callq	__ZN4core3fmt9Formatter15debug_upper_hex17hf480c256a9c81c1eE
	movq	%r14, %rdi
	movq	%rbx, %rsi
	testb	%al, %al
	je	LBB9_4
	popq	%rbx
	popq	%r14
	popq	%rbp
	jmp	__ZN4core3fmt3num53_$LT$impl$u20$core..fmt..UpperHex$u20$for$u20$i32$GT$3fmt17hbb8d8cd7e36208d7E
LBB9_4:
	popq	%rbx
	popq	%r14
	popq	%rbp
	jmp	__ZN4core3fmt3num3imp52_$LT$impl$u20$core..fmt..Display$u20$for$u20$i32$GT$3fmt17h00ed7ff77f9da654E
	.cfi_endproc

	.p2align	4, 0x90
__ZN42_$LT$$RF$T$u20$as$u20$core..fmt..Debug$GT$3fmt17he16374997db94d6bE:
	.cfi_startproc
	pushq	%rbp
	.cfi_def_cfa_offset 16
	.cfi_offset %rbp, -16
	movq	%rsp, %rbp
	.cfi_def_cfa_register %rbp
	pushq	%r14
	pushq	%rbx
	subq	$32, %rsp
	.cfi_offset %rbx, -32
	.cfi_offset %r14, -24
	movq	(%rdi), %rbx
	leaq	l___unnamed_4(%rip), %rdx
	leaq	-40(%rbp), %r14
	movl	$10, %ecx
	movq	%r14, %rdi
	callq	__ZN4core3fmt9Formatter12debug_struct17ha1a64e91d2a98458E
	movq	%rbx, -24(%rbp)
	leaq	l___unnamed_5(%rip), %rsi
	leaq	l___unnamed_6(%rip), %r8
	leaq	-24(%rbp), %rcx
	movl	$1, %edx
	movq	%r14, %rdi
	callq	__ZN4core3fmt8builders11DebugStruct5field17h6c54d35ac41bb1e6E
	movq	%r14, %rdi
	callq	__ZN4core3fmt8builders11DebugStruct6finish17h67ed49fd5e81bb24E
	addq	$32, %rsp
	popq	%rbx
	popq	%r14
	popq	%rbp
	retq
	.cfi_endproc

	.p2align	4, 0x90
__ZN42_$LT$$RF$T$u20$as$u20$core..fmt..Debug$GT$3fmt17hf403a37df1feced0E:
	.cfi_startproc
	pushq	%rbp
	.cfi_def_cfa_offset 16
	.cfi_offset %rbp, -16
	movq	%rsp, %rbp
	.cfi_def_cfa_register %rbp
	movq	%rsi, %rdi
	leaq	l___unnamed_7(%rip), %rsi
	movl	$2, %edx
	popq	%rbp
	jmp	__ZN4core3fmt9Formatter3pad17h426409b23b74b394E
	.cfi_endproc

	.p2align	4, 0x90
__ZN44_$LT$$RF$T$u20$as$u20$core..fmt..Display$GT$3fmt17h292685221a0ad6f0E:
	.cfi_startproc
	pushq	%rbp
	.cfi_def_cfa_offset 16
	.cfi_offset %rbp, -16
	movq	%rsp, %rbp
	.cfi_def_cfa_register %rbp
	movq	%rsi, %rdx
	movq	(%rdi), %rax
	movq	8(%rdi), %rsi
	movq	%rax, %rdi
	popq	%rbp
	jmp	__ZN42_$LT$str$u20$as$u20$core..fmt..Display$GT$3fmt17h6768afae62e94f93E
	.cfi_endproc

	.p2align	4, 0x90
__ZN44_$LT$$RF$T$u20$as$u20$core..fmt..Display$GT$3fmt17h7dc5d3ae7ce28b88E:
	.cfi_startproc
	pushq	%rbp
	.cfi_def_cfa_offset 16
	.cfi_offset %rbp, -16
	movq	%rsp, %rbp
	.cfi_def_cfa_register %rbp
	movq	(%rdi), %rdi
	popq	%rbp
	jmp	__ZN4time7display60_$LT$impl$u20$core..fmt..Display$u20$for$u20$time..TmFmt$GT$3fmt17h96deff4781b87325E
	.cfi_endproc

	.p2align	4, 0x90
__ZN4core3ops8function6FnOnce40call_once$u7b$$u7b$vtable.shim$u7d$$u7d$17h4e8ed17bd079ec13E:
	.cfi_startproc
	pushq	%rbp
	.cfi_def_cfa_offset 16
	.cfi_offset %rbp, -16
	movq	%rsp, %rbp
	.cfi_def_cfa_register %rbp
	movq	(%rdi), %rax
	testb	$1, (%rax)
	movb	$0, (%rax)
	je	LBB14_1
	leaq	__ZN4time3sys5inner3mac4info4INFO17h2bd72e07e1a27c4cE(%rip), %rdi
	popq	%rbp
	jmp	_mach_timebase_info
LBB14_1:
	leaq	l___unnamed_1(%rip), %rdi
	leaq	l___unnamed_2(%rip), %rdx
	movl	$43, %esi
	callq	__ZN4core9panicking5panic17h383a6b80ea7021aaE
	.cfi_endproc

	.p2align	4, 0x90
__ZN4core3ptr13drop_in_place17h0a612e669328caacE:
Lfunc_begin0:
	.cfi_startproc
	.cfi_personality 155, _rust_eh_personality
	.cfi_lsda 16, Lexception0
	pushq	%rbp
	.cfi_def_cfa_offset 16
	.cfi_offset %rbp, -16
	movq	%rsp, %rbp
	.cfi_def_cfa_register %rbp
	pushq	%r15
	pushq	%r14
	pushq	%rbx
	pushq	%rax
	.cfi_offset %rbx, -40
	.cfi_offset %r14, -32
	.cfi_offset %r15, -24
	cmpb	$2, (%rdi)
	jae	LBB15_1
	addq	$8, %rsp
	popq	%rbx
	popq	%r14
	popq	%r15
	popq	%rbp
	retq
LBB15_1:
	movq	%rdi, %r15
	movq	8(%rdi), %rbx
	movq	(%rbx), %rdi
	movq	8(%rbx), %rax
Ltmp0:
	callq	*(%rax)
Ltmp1:
	movq	8(%rbx), %rax
	movq	8(%rax), %rsi
	testq	%rsi, %rsi
	je	LBB15_4
	movq	(%rbx), %rdi
	movq	16(%rax), %rdx
	callq	___rust_dealloc
LBB15_4:
	movq	8(%r15), %rdi
	movl	$24, %esi
	movl	$8, %edx
	addq	$8, %rsp
	popq	%rbx
	popq	%r14
	popq	%r15
	popq	%rbp
	jmp	___rust_dealloc
LBB15_6:
Ltmp2:
	movq	%rax, %r14
	movq	(%rbx), %rdi
	movq	8(%rbx), %rsi
	callq	__ZN5alloc5alloc8box_free17hbc3f8f8f6ae56537E
	movq	8(%r15), %rdi
	callq	__ZN5alloc5alloc8box_free17h45bf0a2a2c804e09E
	movq	%r14, %rdi
	callq	__Unwind_Resume
	ud2
Lfunc_end0:
	.cfi_endproc
	.section	__TEXT,__gcc_except_tab
	.p2align	2
GCC_except_table15:
Lexception0:
	.byte	255
	.byte	255
	.byte	1
	.uleb128 Lcst_end0-Lcst_begin0
Lcst_begin0:
	.uleb128 Ltmp0-Lfunc_begin0
	.uleb128 Ltmp1-Ltmp0
	.uleb128 Ltmp2-Lfunc_begin0
	.byte	0
	.uleb128 Ltmp1-Lfunc_begin0
	.uleb128 Lfunc_end0-Ltmp1
	.byte	0
	.byte	0
Lcst_end0:
	.p2align	2

	.section	__TEXT,__text,regular,pure_instructions
	.p2align	4, 0x90
__ZN4core3ptr13drop_in_place17h11e563b9802eaa02E:
	.cfi_startproc
	pushq	%rbp
	.cfi_def_cfa_offset 16
	.cfi_offset %rbp, -16
	movq	%rsp, %rbp
	.cfi_def_cfa_register %rbp
	popq	%rbp
	retq
	.cfi_endproc

	.p2align	4, 0x90
__ZN4core3ptr13drop_in_place17h30322a4d286a7bacE:
	.cfi_startproc
	pushq	%rbp
	.cfi_def_cfa_offset 16
	.cfi_offset %rbp, -16
	movq	%rsp, %rbp
	.cfi_def_cfa_register %rbp
	movq	%rdi, %rax
	movq	(%rdi), %rdi
	testq	%rdi, %rdi
	je	LBB17_2
	movq	8(%rax), %rsi
	testq	%rsi, %rsi
	je	LBB17_2
	movl	$1, %edx
	popq	%rbp
	jmp	___rust_dealloc
LBB17_2:
	popq	%rbp
	retq
	.cfi_endproc

	.p2align	4, 0x90
__ZN4core3str6traits105_$LT$impl$u20$core..slice..SliceIndex$LT$str$GT$$u20$for$u20$core..ops..range..RangeFrom$LT$usize$GT$$GT$5index28_$u7b$$u7b$closure$u7d$$u7d$17h96cecb2ca76e37c9E:
	.cfi_startproc
	pushq	%rbp
	.cfi_def_cfa_offset 16
	.cfi_offset %rbp, -16
	movq	%rsp, %rbp
	.cfi_def_cfa_register %rbp
	movq	(%rdi), %rcx
	movq	8(%rdi), %rdx
	movq	(%rcx), %rax
	movq	8(%rcx), %rsi
	movq	(%rdx), %rdx
	movq	16(%rdi), %rcx
	movq	(%rcx), %rcx
	leaq	l___unnamed_8(%rip), %r8
	movq	%rax, %rdi
	callq	__ZN4core3str16slice_error_fail17ha125059561e5ce66E
	.cfi_endproc

	.p2align	4, 0x90
__ZN50_$LT$$RF$mut$u20$W$u20$as$u20$core..fmt..Write$GT$10write_char17hddf5b564aed85062E:
	.cfi_startproc
	pushq	%rbp
	.cfi_def_cfa_offset 16
	.cfi_offset %rbp, -16
	movq	%rsp, %rbp
	.cfi_def_cfa_register %rbp
	pushq	%r15
	pushq	%r14
	pushq	%r12
	pushq	%rbx
	subq	$16, %rsp
	.cfi_offset %rbx, -48
	.cfi_offset %r12, -40
	.cfi_offset %r14, -32
	.cfi_offset %r15, -24
	movl	%esi, %ebx
	movq	(%rdi), %r15
	cmpl	$128, %esi
	jae	LBB19_1
	movq	16(%r15), %rsi
	cmpq	8(%r15), %rsi
	jne	LBB19_19
	movq	%rsi, %rax
	incq	%rax
	je	LBB19_29
	leaq	(%rsi,%rsi), %rcx
	cmpq	%rax, %rcx
	cmovaq	%rcx, %rax
	cmpq	$8, %rax
	movl	$8, %r14d
	cmovaq	%rax, %r14
	testq	%rsi, %rsi
	je	LBB19_24
	movq	(%r15), %rax
	testq	%rax, %rax
	je	LBB19_24
	cmpq	%r14, %rsi
	je	LBB19_27
	movl	$1, %edx
	movq	%rax, %rdi
	movq	%r14, %rcx
	callq	___rust_realloc
	jmp	LBB19_27
LBB19_1:
	movl	$0, -36(%rbp)
	movl	%ebx, %eax
	cmpl	$2048, %ebx
	jae	LBB19_2
	shrl	$6, %eax
	orb	$-64, %al
	movb	%al, -36(%rbp)
	andb	$63, %bl
	orb	$-128, %bl
	movb	%bl, -35(%rbp)
	movl	$2, %r12d
	jmp	LBB19_5
LBB19_19:
	movq	(%r15), %rax
	jmp	LBB19_20
LBB19_2:
	cmpl	$65536, %ebx
	jae	LBB19_4
	shrl	$12, %eax
	orb	$-32, %al
	movb	%al, -36(%rbp)
	movl	%ebx, %eax
	shrl	$6, %eax
	andb	$63, %al
	orb	$-128, %al
	movb	%al, -35(%rbp)
	andb	$63, %bl
	orb	$-128, %bl
	movb	%bl, -34(%rbp)
	movl	$3, %r12d
	jmp	LBB19_5
LBB19_24:
	movl	$1, %esi
	movq	%r14, %rdi
	callq	___rust_alloc
LBB19_27:
	testq	%rax, %rax
	je	LBB19_30
	movq	%rax, (%r15)
	movq	%r14, 8(%r15)
	movq	16(%r15), %rsi
LBB19_20:
	movb	%bl, (%rax,%rsi)
	incq	16(%r15)
	jmp	LBB19_17
LBB19_4:
	shrl	$18, %eax
	orb	$-16, %al
	movb	%al, -36(%rbp)
	movl	%ebx, %eax
	shrl	$12, %eax
	andb	$63, %al
	orb	$-128, %al
	movb	%al, -35(%rbp)
	movl	%ebx, %eax
	shrl	$6, %eax
	andb	$63, %al
	orb	$-128, %al
	movb	%al, -34(%rbp)
	andb	$63, %bl
	orb	$-128, %bl
	movb	%bl, -33(%rbp)
	movl	$4, %r12d
LBB19_5:
	movq	8(%r15), %rsi
	movq	16(%r15), %rbx
	movq	%rsi, %rax
	subq	%rbx, %rax
	cmpq	%r12, %rax
	jae	LBB19_6
	addq	%r12, %rbx
	jb	LBB19_29
	leaq	(%rsi,%rsi), %rax
	cmpq	%rbx, %rax
	cmovaq	%rax, %rbx
	cmpq	$8, %rbx
	movl	$8, %r14d
	cmovaq	%rbx, %r14
	testq	%rsi, %rsi
	je	LBB19_10
	movq	(%r15), %rdi
	testq	%rdi, %rdi
	je	LBB19_10
	cmpq	%r14, %rsi
	je	LBB19_14
	movl	$1, %edx
	movq	%r14, %rcx
	callq	___rust_realloc
	jmp	LBB19_13
LBB19_6:
	movq	(%r15), %rdi
	jmp	LBB19_16
LBB19_10:
	movl	$1, %esi
	movq	%r14, %rdi
	callq	___rust_alloc
LBB19_13:
	movq	%rax, %rdi
LBB19_14:
	testq	%rdi, %rdi
	je	LBB19_30
	movq	%rdi, (%r15)
	movq	%r14, 8(%r15)
	movq	16(%r15), %rbx
LBB19_16:
	addq	%rbx, %rdi
	leaq	-36(%rbp), %rsi
	movq	%r12, %rdx
	callq	_memcpy
	addq	%r12, %rbx
	movq	%rbx, 16(%r15)
LBB19_17:
	xorl	%eax, %eax
	addq	$16, %rsp
	popq	%rbx
	popq	%r12
	popq	%r14
	popq	%r15
	popq	%rbp
	retq
LBB19_29:
	callq	__ZN5alloc7raw_vec17capacity_overflow17h7526b10e27579d59E
LBB19_30:
	movl	$1, %esi
	movq	%r14, %rdi
	callq	__ZN5alloc5alloc18handle_alloc_error17h28974197717b8939E
	.cfi_endproc

	.p2align	4, 0x90
__ZN50_$LT$$RF$mut$u20$W$u20$as$u20$core..fmt..Write$GT$9write_fmt17he6fe74957d68f80aE:
	.cfi_startproc
	pushq	%rbp
	.cfi_def_cfa_offset 16
	.cfi_offset %rbp, -16
	movq	%rsp, %rbp
	.cfi_def_cfa_register %rbp
	subq	$64, %rsp
	movq	(%rdi), %rax
	movq	%rax, -8(%rbp)
	movq	40(%rsi), %rax
	movq	%rax, -16(%rbp)
	movq	32(%rsi), %rax
	movq	%rax, -24(%rbp)
	movq	24(%rsi), %rax
	movq	%rax, -32(%rbp)
	movq	16(%rsi), %rax
	movq	%rax, -40(%rbp)
	movq	(%rsi), %rax
	movq	8(%rsi), %rcx
	movq	%rcx, -48(%rbp)
	movq	%rax, -56(%rbp)
	leaq	l___unnamed_9(%rip), %rsi
	leaq	-8(%rbp), %rdi
	leaq	-56(%rbp), %rdx
	callq	__ZN4core3fmt5write17h0f2c225c157771c1E
	addq	$64, %rsp
	popq	%rbp
	retq
	.cfi_endproc

	.p2align	4, 0x90
__ZN50_$LT$$RF$mut$u20$W$u20$as$u20$core..fmt..Write$GT$9write_str17hfb0c46734ce00d6bE:
	.cfi_startproc
	pushq	%rbp
	.cfi_def_cfa_offset 16
	.cfi_offset %rbp, -16
	movq	%rsp, %rbp
	.cfi_def_cfa_register %rbp
	pushq	%r15
	pushq	%r14
	pushq	%r13
	pushq	%r12
	pushq	%rbx
	pushq	%rax
	.cfi_offset %rbx, -56
	.cfi_offset %r12, -48
	.cfi_offset %r13, -40
	.cfi_offset %r14, -32
	.cfi_offset %r15, -24
	movq	%rdx, %r12
	movq	%rsi, %r14
	movq	(%rdi), %r13
	movq	8(%r13), %rsi
	movq	16(%r13), %rbx
	movq	%rsi, %rax
	subq	%rbx, %rax
	cmpq	%rdx, %rax
	jae	LBB21_1
	addq	%r12, %rbx
	jb	LBB21_12
	leaq	(%rsi,%rsi), %rax
	cmpq	%rbx, %rax
	cmovaq	%rax, %rbx
	cmpq	$8, %rbx
	movl	$8, %r15d
	cmovaq	%rbx, %r15
	testq	%rsi, %rsi
	je	LBB21_6
	movq	(%r13), %rdi
	testq	%rdi, %rdi
	je	LBB21_6
	cmpq	%r15, %rsi
	je	LBB21_10
	movl	$1, %edx
	movq	%r15, %rcx
	callq	___rust_realloc
	jmp	LBB21_9
LBB21_1:
	movq	(%r13), %rdi
	jmp	LBB21_2
LBB21_6:
	movl	$1, %esi
	movq	%r15, %rdi
	callq	___rust_alloc
LBB21_9:
	movq	%rax, %rdi
LBB21_10:
	testq	%rdi, %rdi
	je	LBB21_13
	movq	%rdi, (%r13)
	movq	%r15, 8(%r13)
	movq	16(%r13), %rbx
LBB21_2:
	addq	%rbx, %rdi
	movq	%r14, %rsi
	movq	%r12, %rdx
	callq	_memcpy
	addq	%r12, %rbx
	movq	%rbx, 16(%r13)
	xorl	%eax, %eax
	addq	$8, %rsp
	popq	%rbx
	popq	%r12
	popq	%r13
	popq	%r14
	popq	%r15
	popq	%rbp
	retq
LBB21_12:
	callq	__ZN5alloc7raw_vec17capacity_overflow17h7526b10e27579d59E
LBB21_13:
	movl	$1, %esi
	movq	%r15, %rdi
	callq	__ZN5alloc5alloc18handle_alloc_error17h28974197717b8939E
	.cfi_endproc

	.p2align	4, 0x90
__ZN5alloc5alloc8box_free17h45bf0a2a2c804e09E:
	.cfi_startproc
	pushq	%rbp
	.cfi_def_cfa_offset 16
	.cfi_offset %rbp, -16
	movq	%rsp, %rbp
	.cfi_def_cfa_register %rbp
	movl	$24, %esi
	movl	$8, %edx
	popq	%rbp
	jmp	___rust_dealloc
	.cfi_endproc

	.p2align	4, 0x90
__ZN5alloc5alloc8box_free17hbc3f8f8f6ae56537E:
	.cfi_startproc
	pushq	%rbp
	.cfi_def_cfa_offset 16
	.cfi_offset %rbp, -16
	movq	%rsp, %rbp
	.cfi_def_cfa_register %rbp
	movq	%rsi, %rax
	movq	8(%rsi), %rsi
	testq	%rsi, %rsi
	je	LBB23_1
	movq	16(%rax), %rdx
	popq	%rbp
	jmp	___rust_dealloc
LBB23_1:
	popq	%rbp
	retq
	.cfi_endproc

	.p2align	4, 0x90
__ZN91_$LT$std..panicking..begin_panic..PanicPayload$LT$A$GT$$u20$as$u20$core..panic..BoxMeUp$GT$3get17hd28067e46cdb452fE:
	.cfi_startproc
	pushq	%rbp
	.cfi_def_cfa_offset 16
	.cfi_offset %rbp, -16
	movq	%rsp, %rbp
	.cfi_def_cfa_register %rbp
	cmpq	$0, (%rdi)
	je	LBB24_2
	movq	%rdi, %rax
	leaq	l___unnamed_10(%rip), %rdx
	popq	%rbp
	retq
LBB24_2:
	callq	__ZN3std7process5abort17hff53fa3bc108bcb5E
	.cfi_endproc

	.p2align	4, 0x90
__ZN91_$LT$std..panicking..begin_panic..PanicPayload$LT$A$GT$$u20$as$u20$core..panic..BoxMeUp$GT$8take_box17h413b71b3be8d7923E:
	.cfi_startproc
	pushq	%rbp
	.cfi_def_cfa_offset 16
	.cfi_offset %rbp, -16
	movq	%rsp, %rbp
	.cfi_def_cfa_register %rbp
	pushq	%r14
	pushq	%rbx
	.cfi_offset %rbx, -32
	.cfi_offset %r14, -24
	movq	(%rdi), %rbx
	movq	8(%rdi), %r14
	movq	$0, (%rdi)
	testq	%rbx, %rbx
	je	LBB25_3
	movl	$16, %edi
	movl	$8, %esi
	callq	___rust_alloc
	testq	%rax, %rax
	je	LBB25_4
	movq	%rbx, (%rax)
	movq	%r14, 8(%rax)
	leaq	l___unnamed_10(%rip), %rdx
	popq	%rbx
	popq	%r14
	popq	%rbp
	retq
LBB25_3:
	callq	__ZN3std7process5abort17hff53fa3bc108bcb5E
LBB25_4:
	movl	$16, %edi
	movl	$8, %esi
	callq	__ZN5alloc5alloc18handle_alloc_error17h28974197717b8939E
	.cfi_endproc

	.globl	__ZN4time7display60_$LT$impl$u20$core..fmt..Display$u20$for$u20$time..TmFmt$GT$3fmt17h96deff4781b87325E
	.p2align	4, 0x90
__ZN4time7display60_$LT$impl$u20$core..fmt..Display$u20$for$u20$time..TmFmt$GT$3fmt17h96deff4781b87325E:
Lfunc_begin1:
	.cfi_startproc
	.cfi_personality 155, _rust_eh_personality
	.cfi_lsda 16, Lexception1
	pushq	%rbp
	.cfi_def_cfa_offset 16
	.cfi_offset %rbp, -16
	movq	%rsp, %rbp
	.cfi_def_cfa_register %rbp
	pushq	%r15
	pushq	%r14
	pushq	%r13
	pushq	%r12
	pushq	%rbx
	subq	$200, %rsp
	.cfi_offset %rbx, -56
	.cfi_offset %r12, -48
	.cfi_offset %r13, -40
	.cfi_offset %r14, -32
	.cfi_offset %r15, -24
	movq	%rsi, %r15
	movq	8(%rdi), %rax
	testq	%rax, %rax
	je	LBB26_9
	cmpl	$2, %eax
	je	LBB26_7
	movq	(%rdi), %rcx
	movl	36(%rcx), %eax
	testl	%eax, %eax
	je	LBB26_46
	movq	%rcx, -160(%rbp)
	movq	$0, -152(%rbp)
	leaq	l___unnamed_11(%rip), %rcx
	movq	%rcx, -144(%rbp)
	movq	$17, -136(%rbp)
	xorl	%ecx, %ecx
	testl	%eax, %eax
	setle	%cl
	leal	43(%rcx,%rcx), %ecx
	movl	%ecx, -48(%rbp)
	jns	LBB26_6
	cmpl	$-2147483648, %eax
	je	LBB26_53
	negl	%eax
LBB26_6:
	movl	%eax, %eax
	movl	$2290649225, %ecx
	imulq	%rax, %rcx
	shrq	$37, %rcx
	movl	$2443359173, %edx
	imulq	%rax, %rdx
	shrq	$43, %rdx
	movl	%edx, -240(%rbp)
	imull	$-60, %edx, %eax
	addl	%ecx, %eax
	movl	%eax, -176(%rbp)
	leaq	-160(%rbp), %rax
	movq	%rax, -112(%rbp)
	leaq	__ZN4time7display60_$LT$impl$u20$core..fmt..Display$u20$for$u20$time..TmFmt$GT$3fmt17h96deff4781b87325E(%rip), %rax
	movq	%rax, -104(%rbp)
	leaq	-48(%rbp), %rax
	movq	%rax, -96(%rbp)
	movq	__ZN43_$LT$char$u20$as$u20$core..fmt..Display$GT$3fmt17haf02f59875f30dd3E@GOTPCREL(%rip), %rax
	movq	%rax, -88(%rbp)
	leaq	-240(%rbp), %rax
	movq	%rax, -80(%rbp)
	movq	__ZN4core3fmt3num3imp52_$LT$impl$u20$core..fmt..Display$u20$for$u20$i32$GT$3fmt17h00ed7ff77f9da654E@GOTPCREL(%rip), %rax
	movq	%rax, -72(%rbp)
	leaq	-176(%rbp), %rcx
	movq	%rcx, -64(%rbp)
	movq	%rax, -56(%rbp)
	leaq	l___unnamed_12(%rip), %rax
	movq	%rax, -224(%rbp)
	movq	$4, -216(%rbp)
	leaq	l___unnamed_13(%rip), %rax
	movq	%rax, -208(%rbp)
	movq	$4, -200(%rbp)
	leaq	-112(%rbp), %rax
	movq	%rax, -192(%rbp)
	movq	$4, -184(%rbp)
	leaq	-224(%rbp), %rsi
	movq	%r15, %rdi
	callq	__ZN4core3fmt9Formatter9write_fmt17h742ca6aae87ad23cE
	jmp	LBB26_48
LBB26_7:
	movq	(%rdi), %rdi
	callq	__ZN4time2Tm11to_timespec17he444425c7066220aE
	movl	%edx, %ebx
	xorps	%xmm0, %xmm0
	movaps	%xmm0, -160(%rbp)
	movaps	%xmm0, -144(%rbp)
	movq	$0, -128(%rbp)
	movl	$0, -120(%rbp)
	movq	%rax, -48(%rbp)
	movaps	%xmm0, -80(%rbp)
	movaps	%xmm0, -96(%rbp)
	movaps	%xmm0, -112(%rbp)
	movq	$0, -64(%rbp)
	leaq	-48(%rbp), %rdi
	leaq	-112(%rbp), %rsi
	callq	_localtime_r
	testq	%rax, %rax
	je	LBB26_51
	movl	-72(%rbp), %eax
	movaps	-112(%rbp), %xmm0
	movaps	-96(%rbp), %xmm1
	movaps	%xmm0, -160(%rbp)
	movaps	%xmm1, -144(%rbp)
	movl	-80(%rbp), %ecx
	movl	%ecx, -128(%rbp)
	movl	%eax, -124(%rbp)
	movl	%ebx, -120(%rbp)
	leaq	-160(%rbp), %rax
	movq	%rax, -112(%rbp)
	movq	$0, -104(%rbp)
	leaq	l___unnamed_14(%rip), %rax
	movq	%rax, -96(%rbp)
	movq	$2, -88(%rbp)
	jmp	LBB26_47
LBB26_9:
	movq	24(%rdi), %r12
	testq	%r12, %r12
	je	LBB26_45
	movq	16(%rdi), %rcx
	addq	%rcx, %r12
	movq	(%rdi), %r14
	jmp	LBB26_11
LBB26_37:
	shll	$6, %ecx
LBB26_40:
	orl	%ecx, %eax
	movl	%eax, %esi
LBB26_43:
	movq	%r15, %rdi
	movq	%r14, %rdx
	callq	__ZN4time7display10parse_type17h1bebac49b44bde7cE
	movq	%r13, %rbx
	testb	%al, %al
	jne	LBB26_15
LBB26_44:
	movq	%rbx, %rcx
	cmpq	%r12, %rbx
	je	LBB26_45
LBB26_11:
	leaq	1(%rcx), %rbx
	movzbl	(%rcx), %esi
	testb	%sil, %sil
	js	LBB26_16
	cmpl	$37, %esi
	je	LBB26_28
LBB26_13:
	cmpl	$1114112, %esi
	je	LBB26_45
	movq	%r15, %rdi
	callq	__ZN57_$LT$core..fmt..Formatter$u20$as$u20$core..fmt..Write$GT$10write_char17hee984fed855cf5c0E
	testb	%al, %al
	je	LBB26_44
	jmp	LBB26_15
	.p2align	4, 0x90
LBB26_16:
	cmpq	%r12, %rbx
	je	LBB26_22
	movzbl	1(%rcx), %eax
	addq	$2, %rcx
	andl	$63, %eax
	movq	%rcx, %rbx
	movl	%esi, %ecx
	andl	$31, %ecx
	cmpb	$-33, %sil
	jbe	LBB26_23
LBB26_18:
	cmpq	%r12, %rbx
	je	LBB26_24
	movzbl	(%rbx), %edi
	incq	%rbx
	andl	$63, %edi
	movq	%rbx, %rdx
	shll	$6, %eax
	orl	%edi, %eax
	cmpb	$-16, %sil
	jb	LBB26_25
LBB26_20:
	cmpq	%r12, %rdx
	je	LBB26_26
	movzbl	(%rdx), %esi
	incq	%rdx
	andl	$63, %esi
	movq	%rdx, %rbx
	jmp	LBB26_27
LBB26_22:
	xorl	%eax, %eax
	movq	%r12, %rbx
	movl	%esi, %ecx
	andl	$31, %ecx
	cmpb	$-33, %sil
	ja	LBB26_18
LBB26_23:
	shll	$6, %ecx
	orl	%ecx, %eax
	movl	%eax, %esi
	cmpl	$37, %esi
	jne	LBB26_13
	.p2align	4, 0x90
LBB26_28:
	cmpq	%r12, %rbx
	je	LBB26_50
	leaq	1(%rbx), %r13
	movzbl	(%rbx), %esi
	testb	%sil, %sil
	jns	LBB26_43
	cmpq	%r12, %r13
	je	LBB26_36
	movzbl	1(%rbx), %eax
	addq	$2, %rbx
	andl	$63, %eax
	movq	%rbx, %r13
	movl	%esi, %ecx
	andl	$31, %ecx
	cmpb	$-33, %sil
	jbe	LBB26_37
	jmp	LBB26_32
LBB26_24:
	xorl	%edi, %edi
	movq	%r12, %rdx
	shll	$6, %eax
	orl	%edi, %eax
	cmpb	$-16, %sil
	jae	LBB26_20
LBB26_25:
	shll	$12, %ecx
	orl	%ecx, %eax
	movl	%eax, %esi
	cmpl	$37, %esi
	jne	LBB26_13
	jmp	LBB26_28
LBB26_36:
	xorl	%eax, %eax
	movq	%r12, %r13
	movl	%esi, %ecx
	andl	$31, %ecx
	cmpb	$-33, %sil
	jbe	LBB26_37
LBB26_32:
	cmpq	%r12, %r13
	je	LBB26_38
	movzbl	(%r13), %edi
	incq	%r13
	andl	$63, %edi
	movq	%r13, %rdx
	shll	$6, %eax
	orl	%edi, %eax
	cmpb	$-16, %sil
	jb	LBB26_39
LBB26_34:
	cmpq	%r12, %rdx
	je	LBB26_41
	movzbl	(%rdx), %esi
	incq	%rdx
	andl	$63, %esi
	movq	%rdx, %r13
	jmp	LBB26_42
LBB26_26:
	xorl	%esi, %esi
LBB26_27:
	andl	$7, %ecx
	shll	$18, %ecx
	shll	$6, %eax
	orl	%ecx, %eax
	orl	%esi, %eax
	movl	%eax, %esi
	cmpl	$37, %esi
	jne	LBB26_13
	jmp	LBB26_28
LBB26_38:
	xorl	%edi, %edi
	movq	%r12, %rdx
	shll	$6, %eax
	orl	%edi, %eax
	cmpb	$-16, %sil
	jae	LBB26_34
LBB26_39:
	shll	$12, %ecx
	jmp	LBB26_40
LBB26_41:
	xorl	%esi, %esi
LBB26_42:
	andl	$7, %ecx
	shll	$18, %ecx
	shll	$6, %eax
	orl	%ecx, %eax
	orl	%esi, %eax
	movl	%eax, %esi
	cmpl	$1114112, %eax
	jne	LBB26_43
LBB26_50:
	leaq	l___unnamed_1(%rip), %rdi
	leaq	l___unnamed_15(%rip), %rdx
	movl	$43, %esi
	callq	__ZN4core9panicking5panic17h383a6b80ea7021aaE
LBB26_45:
	xorl	%eax, %eax
	jmp	LBB26_49
LBB26_46:
	movq	%rcx, -112(%rbp)
	movq	$0, -104(%rbp)
	leaq	l___unnamed_16(%rip), %rax
	movq	%rax, -96(%rbp)
	movq	$18, -88(%rbp)
LBB26_47:
	leaq	-112(%rbp), %rdi
	movq	%r15, %rsi
	callq	__ZN4time7display60_$LT$impl$u20$core..fmt..Display$u20$for$u20$time..TmFmt$GT$3fmt17h96deff4781b87325E
LBB26_48:
LBB26_49:
	addq	$200, %rsp
	popq	%rbx
	popq	%r12
	popq	%r13
	popq	%r14
	popq	%r15
	popq	%rbp
	retq
LBB26_15:
	movb	$1, %al
	jmp	LBB26_49
LBB26_51:
	leaq	-240(%rbp), %rbx
	movq	%rbx, %rdi
	callq	__ZN3std2io5error5Error13last_os_error17hc3bba933b5587d76E
	movq	%rbx, -176(%rbp)
	movq	__ZN60_$LT$std..io..error..Error$u20$as$u20$core..fmt..Display$GT$3fmt17h3716551a80b2cfe9E@GOTPCREL(%rip), %rax
	movq	%rax, -168(%rbp)
	leaq	l___unnamed_17(%rip), %rax
	movq	%rax, -224(%rbp)
	movq	$1, -216(%rbp)
	movq	$0, -208(%rbp)
	leaq	-176(%rbp), %rax
	movq	%rax, -192(%rbp)
	movq	$1, -184(%rbp)
Ltmp3:
	leaq	l___unnamed_18(%rip), %rsi
	leaq	-224(%rbp), %rdi
	callq	__ZN3std9panicking15begin_panic_fmt17h8712912d987f10a1E
Ltmp4:
	ud2
LBB26_53:
	leaq	_str.6(%rip), %rdi
	leaq	l___unnamed_19(%rip), %rdx
	movl	$31, %esi
	callq	__ZN4core9panicking5panic17h383a6b80ea7021aaE
LBB26_54:
Ltmp5:
	movq	%rax, %rbx
	leaq	-240(%rbp), %rdi
	callq	__ZN4core3ptr13drop_in_place17h0a612e669328caacE
	movq	%rbx, %rdi
	callq	__Unwind_Resume
	ud2
Lfunc_end1:
	.cfi_endproc
	.section	__TEXT,__gcc_except_tab
	.p2align	2
GCC_except_table26:
Lexception1:
	.byte	255
	.byte	255
	.byte	1
	.uleb128 Lcst_end1-Lcst_begin1
Lcst_begin1:
	.uleb128 Lfunc_begin1-Lfunc_begin1
	.uleb128 Ltmp3-Lfunc_begin1
	.byte	0
	.byte	0
	.uleb128 Ltmp3-Lfunc_begin1
	.uleb128 Ltmp4-Ltmp3
	.uleb128 Ltmp5-Lfunc_begin1
	.byte	0
	.uleb128 Ltmp4-Lfunc_begin1
	.uleb128 Lfunc_end1-Ltmp4
	.byte	0
	.byte	0
Lcst_end1:
	.p2align	2

	.section	__TEXT,__text,regular,pure_instructions
	.p2align	4, 0x90
__ZN4time7display13iso_week_days17hcfe5d8276356dc6eE:
	.cfi_startproc
	pushq	%rbp
	.cfi_def_cfa_offset 16
	.cfi_offset %rbp, -16
	movq	%rsp, %rbp
	.cfi_def_cfa_register %rbp
	movl	%edi, %ecx
	subl	%esi, %ecx
	jo	LBB27_6
	addl	$4, %ecx
	jo	LBB27_7
	addl	$378, %ecx
	jo	LBB27_8
	movl	%edi, %eax
	movslq	%ecx, %rcx
	imulq	$-1840700269, %rcx, %rdx
	shrq	$32, %rdx
	addl	%ecx, %edx
	movl	%edx, %esi
	shrl	$31, %esi
	sarl	$2, %edx
	addl	%esi, %edx
	leal	(,%rdx,8), %esi
	subl	%esi, %edx
	addl	%ecx, %edx
	subl	%edx, %eax
	jo	LBB27_9
	addl	$4, %eax
	jo	LBB27_10
	decl	%eax
	popq	%rbp
	retq
LBB27_6:
	leaq	_str.3(%rip), %rdi
	leaq	l___unnamed_20(%rip), %rdx
	movl	$33, %esi
	callq	__ZN4core9panicking5panic17h383a6b80ea7021aaE
LBB27_7:
	leaq	_str.5(%rip), %rdi
	leaq	l___unnamed_20(%rip), %rdx
	movl	$28, %esi
	callq	__ZN4core9panicking5panic17h383a6b80ea7021aaE
LBB27_8:
	leaq	_str.5(%rip), %rdi
	leaq	l___unnamed_21(%rip), %rdx
	movl	$28, %esi
	callq	__ZN4core9panicking5panic17h383a6b80ea7021aaE
LBB27_9:
	leaq	_str.3(%rip), %rdi
	leaq	l___unnamed_22(%rip), %rdx
	movl	$33, %esi
	callq	__ZN4core9panicking5panic17h383a6b80ea7021aaE
LBB27_10:
	leaq	_str.5(%rip), %rdi
	leaq	l___unnamed_22(%rip), %rdx
	movl	$28, %esi
	callq	__ZN4core9panicking5panic17h383a6b80ea7021aaE
	.cfi_endproc

	.p2align	4, 0x90
__ZN4time7display8iso_week17h38e6eeccbfc842e5E:
	.cfi_startproc
	pushq	%rbp
	.cfi_def_cfa_offset 16
	.cfi_offset %rbp, -16
	movq	%rsp, %rbp
	.cfi_def_cfa_register %rbp
	pushq	%r15
	pushq	%r14
	pushq	%r13
	pushq	%r12
	pushq	%rbx
	subq	$88, %rsp
	.cfi_offset %rbx, -56
	.cfi_offset %r12, -48
	.cfi_offset %r13, -40
	.cfi_offset %r14, -32
	.cfi_offset %r15, -24
	movl	%edx, %ebx
	movq	%rdi, -72(%rbp)
	addl	$1900, %ebx
	jo	LBB28_23
	movl	%r8d, %r13d
	movl	%ecx, %r12d
	movl	%esi, %r15d
	movl	%ebx, -44(%rbp)
	movl	%r8d, %edi
	movl	%ecx, %esi
	callq	__ZN4time7display13iso_week_days17hcfe5d8276356dc6eE
	testl	%eax, %eax
	js	LBB28_8
	movl	%eax, %r14d
	movl	$365, %eax
	testb	$3, %bl
	jne	LBB28_4
	imull	$-1030792151, %ebx, %eax
	addl	$85899344, %eax
	movl	%eax, %ecx
	rorl	$2, %ecx
	cmpl	$42949672, %ecx
	seta	%cl
	rorl	$4, %eax
	cmpl	$10737419, %eax
	setb	%al
	orb	%cl, %al
	movzbl	%al, %eax
	addl	$365, %eax
LBB28_4:
	subl	%eax, %r13d
	jo	LBB28_25
	movl	%r13d, %edi
	movl	%r12d, %esi
	callq	__ZN4time7display13iso_week_days17hcfe5d8276356dc6eE
	testl	%eax, %eax
	js	LBB28_13
	incl	%ebx
	jo	LBB28_26
	movl	%ebx, -44(%rbp)
	jmp	LBB28_12
LBB28_8:
	decl	%ebx
	movl	%ebx, -44(%rbp)
	movl	$365, %eax
	testb	$3, %bl
	jne	LBB28_10
	imull	$-1030792151, %ebx, %eax
	addl	$85899344, %eax
	movl	%eax, %ecx
	rorl	$2, %ecx
	cmpl	$42949672, %ecx
	seta	%cl
	rorl	$4, %eax
	cmpl	$10737419, %eax
	setb	%al
	orb	%cl, %al
	movzbl	%al, %eax
	addl	$365, %eax
LBB28_10:
	addl	%eax, %r13d
	jo	LBB28_24
	movl	%r13d, %edi
	movl	%r12d, %esi
	callq	__ZN4time7display13iso_week_days17hcfe5d8276356dc6eE
LBB28_12:
	movl	%eax, %r14d
LBB28_13:
	cmpl	$103, %r15d
	je	LBB28_18
	cmpl	$86, %r15d
	je	LBB28_19
	cmpl	$71, %r15d
	jne	LBB28_16
	leaq	-44(%rbp), %rax
	movq	%rax, -64(%rbp)
	movq	__ZN4core3fmt3num3imp52_$LT$impl$u20$core..fmt..Display$u20$for$u20$i32$GT$3fmt17h00ed7ff77f9da654E@GOTPCREL(%rip), %rax
	movq	%rax, -56(%rbp)
	leaq	l___unnamed_23(%rip), %rax
	movq	%rax, -120(%rbp)
	movq	$1, -112(%rbp)
	movq	$0, -104(%rbp)
	jmp	LBB28_21
LBB28_19:
	movslq	%r14d, %rax
	imulq	$-1840700269, %rax, %rcx
	shrq	$32, %rcx
	addl	%ecx, %eax
	movl	%eax, %ecx
	sarl	$2, %ecx
	shrl	$31, %eax
	leal	1(%rcx,%rax), %eax
	movl	%eax, -48(%rbp)
	jmp	LBB28_20
LBB28_18:
	movslq	%ebx, %rax
	imulq	$1374389535, %rax, %rcx
	movq	%rcx, %rdx
	shrq	$63, %rdx
	shrq	$32, %rcx
	sarl	$5, %ecx
	addl	%edx, %ecx
	imull	$100, %ecx, %ecx
	negl	%ecx
	leal	100(%rax,%rcx), %eax
	cltq
	imulq	$1374389535, %rax, %rcx
	movq	%rcx, %rdx
	shrq	$63, %rdx
	shrq	$32, %rcx
	sarl	$5, %ecx
	addl	%edx, %ecx
	imull	$100, %ecx, %ecx
	subl	%ecx, %eax
	movl	%eax, -48(%rbp)
LBB28_20:
	leaq	-48(%rbp), %rax
	movq	%rax, -64(%rbp)
	movq	__ZN4core3fmt3num3imp52_$LT$impl$u20$core..fmt..Display$u20$for$u20$i32$GT$3fmt17h00ed7ff77f9da654E@GOTPCREL(%rip), %rax
	movq	%rax, -56(%rbp)
	leaq	l___unnamed_23(%rip), %rax
	movq	%rax, -120(%rbp)
	movq	$1, -112(%rbp)
	leaq	l___unnamed_24(%rip), %rax
	movq	%rax, -104(%rbp)
	movq	$1, -96(%rbp)
LBB28_21:
	leaq	-64(%rbp), %rax
	movq	%rax, -88(%rbp)
	movq	$1, -80(%rbp)
	leaq	-120(%rbp), %rsi
	movq	-72(%rbp), %rdi
	callq	__ZN4core3fmt9Formatter9write_fmt17h742ca6aae87ad23cE
	jmp	LBB28_22
LBB28_16:
	xorl	%eax, %eax
LBB28_22:
	addq	$88, %rsp
	popq	%rbx
	popq	%r12
	popq	%r13
	popq	%r14
	popq	%r15
	popq	%rbp
	retq
LBB28_23:
	leaq	_str.5(%rip), %rdi
	leaq	l___unnamed_25(%rip), %rdx
	movl	$28, %esi
	callq	__ZN4core9panicking5panic17h383a6b80ea7021aaE
LBB28_25:
	leaq	_str.3(%rip), %rdi
	leaq	l___unnamed_26(%rip), %rdx
	movl	$33, %esi
	callq	__ZN4core9panicking5panic17h383a6b80ea7021aaE
LBB28_26:
	leaq	_str.5(%rip), %rdi
	leaq	l___unnamed_27(%rip), %rdx
	movl	$28, %esi
	callq	__ZN4core9panicking5panic17h383a6b80ea7021aaE
LBB28_24:
	leaq	_str.5(%rip), %rdi
	leaq	l___unnamed_28(%rip), %rdx
	movl	$28, %esi
	callq	__ZN4core9panicking5panic17h383a6b80ea7021aaE
	.cfi_endproc

	.p2align	4, 0x90
__ZN4time7display10parse_type17h1bebac49b44bde7cE:
	.cfi_startproc
	pushq	%rbp
	.cfi_def_cfa_offset 16
	.cfi_offset %rbp, -16
	movq	%rsp, %rbp
	.cfi_def_cfa_register %rbp
	pushq	%r15
	pushq	%r14
	pushq	%rbx
	subq	$120, %rsp
	.cfi_offset %rbx, -40
	.cfi_offset %r14, -32
	.cfi_offset %r15, -24
	addl	$-37, %esi
	cmpl	$85, %esi
	ja	LBB29_146
	movq	%rdx, %rbx
	movq	%rdi, %r14
	leaq	LJTI29_0(%rip), %rax
	movslq	(%rax,%rsi,4), %rcx
	addq	%rax, %rcx
	jmpq	*%rcx
LBB29_2:
	movq	%r14, %rdi
	movl	$109, %esi
	movq	%rbx, %rdx
	callq	__ZN4time7display10parse_type17h1bebac49b44bde7cE
	movb	$1, %r15b
	testb	%al, %al
	jne	LBB29_111
	leaq	l___unnamed_29(%rip), %rsi
	movl	$1, %edx
	movq	%r14, %rdi
	callq	__ZN4core3fmt9Formatter9write_str17h98e119ad25a8903eE
	testb	%al, %al
	jne	LBB29_111
	movq	%r14, %rdi
	movl	$100, %esi
	movq	%rbx, %rdx
	callq	__ZN4time7display10parse_type17h1bebac49b44bde7cE
	testb	%al, %al
	jne	LBB29_111
	leaq	l___unnamed_29(%rip), %rsi
	movl	$1, %edx
	movq	%r14, %rdi
	callq	__ZN4core3fmt9Formatter9write_str17h98e119ad25a8903eE
	testb	%al, %al
	jne	LBB29_111
	movq	%r14, %rdi
	movl	$121, %esi
	jmp	LBB29_75
LBB29_7:
	movq	%r14, %rdi
	movl	$72, %esi
	movq	%rbx, %rdx
	callq	__ZN4time7display10parse_type17h1bebac49b44bde7cE
	movb	$1, %r15b
	testb	%al, %al
	jne	LBB29_111
	leaq	l___unnamed_30(%rip), %rsi
	movl	$1, %edx
	movq	%r14, %rdi
	callq	__ZN4core3fmt9Formatter9write_str17h98e119ad25a8903eE
	testb	%al, %al
	jne	LBB29_111
	movq	%r14, %rdi
	movl	$77, %esi
	movq	%rbx, %rdx
	callq	__ZN4time7display10parse_type17h1bebac49b44bde7cE
	testb	%al, %al
	jne	LBB29_111
	leaq	l___unnamed_30(%rip), %rsi
	movl	$1, %edx
	movq	%r14, %rdi
	callq	__ZN4core3fmt9Formatter9write_str17h98e119ad25a8903eE
	testb	%al, %al
	jne	LBB29_111
	movq	%r14, %rdi
	movl	$83, %esi
	jmp	LBB29_75
LBB29_12:
	movl	16(%rbx), %eax
	cmpq	$11, %rax
	ja	LBB29_147
	leaq	l___unnamed_31(%rip), %rsi
	leaq	LJTI29_1(%rip), %rcx
	movslq	(%rcx,%rax,4), %rax
	addq	%rcx, %rax
	jmpq	*%rax
LBB29_14:
	leaq	l___unnamed_32(%rip), %rsi
	movl	$3, %edx
	jmp	LBB29_145
LBB29_15:
	movl	20(%rbx), %edx
	movl	24(%rbx), %ecx
	movl	28(%rbx), %r8d
	movq	%r14, %rdi
	movl	$103, %esi
	jmp	LBB29_57
LBB29_16:
	movl	36(%rbx), %eax
	xorl	%ecx, %ecx
	testl	%eax, %eax
	setle	%cl
	leal	43(%rcx,%rcx), %ecx
	movl	%ecx, -140(%rbp)
	jns	LBB29_19
	cmpl	$-2147483648, %eax
	je	LBB29_161
	negl	%eax
LBB29_19:
	movl	%eax, %eax
	movl	$2290649225, %ecx
	imulq	%rax, %rcx
	shrq	$37, %rcx
	movl	$2443359173, %edx
	imulq	%rax, %rdx
	shrq	$43, %rdx
	movl	%edx, -88(%rbp)
	imull	$-60, %edx, %eax
	addl	%ecx, %eax
	movl	%eax, -144(%rbp)
	leaq	-140(%rbp), %rax
	movq	%rax, -72(%rbp)
	movq	__ZN43_$LT$char$u20$as$u20$core..fmt..Display$GT$3fmt17haf02f59875f30dd3E@GOTPCREL(%rip), %rax
	movq	%rax, -64(%rbp)
	leaq	-88(%rbp), %rax
	movq	%rax, -56(%rbp)
	movq	__ZN4core3fmt3num3imp52_$LT$impl$u20$core..fmt..Display$u20$for$u20$i32$GT$3fmt17h00ed7ff77f9da654E@GOTPCREL(%rip), %rax
	movq	%rax, -48(%rbp)
	leaq	-144(%rbp), %rcx
	movq	%rcx, -40(%rbp)
	movq	%rax, -32(%rbp)
	leaq	l___unnamed_33(%rip), %rax
	movq	%rax, -136(%rbp)
	movq	$3, -128(%rbp)
	leaq	l___unnamed_34(%rip), %rax
	movq	%rax, -120(%rbp)
	movq	$3, -112(%rbp)
	leaq	-72(%rbp), %rax
	movq	%rax, -104(%rbp)
	movq	$3, -96(%rbp)
	leaq	-136(%rbp), %rsi
	jmp	LBB29_110
LBB29_20:
	addq	$40, %rbx
	movq	%rbx, -136(%rbp)
	movq	__ZN4core3fmt3num3imp52_$LT$impl$u20$core..fmt..Display$u20$for$u20$i32$GT$3fmt17h00ed7ff77f9da654E@GOTPCREL(%rip), %rax
	movq	%rax, -128(%rbp)
	leaq	l___unnamed_23(%rip), %rax
	movq	%rax, -72(%rbp)
	movq	$1, -64(%rbp)
	leaq	l___unnamed_35(%rip), %rax
	jmp	LBB29_107
LBB29_21:
	movq	%rbx, %rdi
	callq	__ZN4time2Tm11to_timespec17he444425c7066220aE
	movq	%rax, -136(%rbp)
	movl	%edx, -128(%rbp)
	leaq	-136(%rbp), %rax
	movq	%rax, -88(%rbp)
	movq	__ZN4core3fmt3num3imp52_$LT$impl$u20$core..fmt..Display$u20$for$u20$i64$GT$3fmt17h310ed6661e8c983fE@GOTPCREL(%rip), %rax
	jmp	LBB29_66
LBB29_22:
	movl	24(%rbx), %eax
	cmpq	$6, %rax
	ja	LBB29_148
	leaq	l___unnamed_36(%rip), %rsi
	leaq	LJTI29_3(%rip), %rcx
	movslq	(%rcx,%rax,4), %rax
	addq	%rcx, %rax
	jmpq	*%rax
LBB29_24:
	leaq	l___unnamed_37(%rip), %rsi
	movl	$3, %edx
	jmp	LBB29_145
LBB29_25:
	cmpl	$12, 8(%rbx)
	leaq	l___unnamed_38(%rip), %rax
	leaq	l___unnamed_39(%rip), %rsi
	jmp	LBB29_82
LBB29_26:
	movq	%r14, %rdi
	movl	$73, %esi
	movq	%rbx, %rdx
	callq	__ZN4time7display10parse_type17h1bebac49b44bde7cE
	movb	$1, %r15b
	testb	%al, %al
	jne	LBB29_111
	leaq	l___unnamed_30(%rip), %rsi
	movl	$1, %edx
	movq	%r14, %rdi
	callq	__ZN4core3fmt9Formatter9write_str17h98e119ad25a8903eE
	testb	%al, %al
	jne	LBB29_111
	movq	%r14, %rdi
	movl	$77, %esi
	movq	%rbx, %rdx
	callq	__ZN4time7display10parse_type17h1bebac49b44bde7cE
	testb	%al, %al
	jne	LBB29_111
	leaq	l___unnamed_30(%rip), %rsi
	movl	$1, %edx
	movq	%r14, %rdi
	callq	__ZN4core3fmt9Formatter9write_str17h98e119ad25a8903eE
	testb	%al, %al
	jne	LBB29_111
	movq	%r14, %rdi
	movl	$83, %esi
	movq	%rbx, %rdx
	callq	__ZN4time7display10parse_type17h1bebac49b44bde7cE
	testb	%al, %al
	jne	LBB29_111
	leaq	l___unnamed_40(%rip), %rsi
	movl	$1, %edx
	movq	%r14, %rdi
	callq	__ZN4core3fmt9Formatter9write_str17h98e119ad25a8903eE
	testb	%al, %al
	jne	LBB29_111
	movq	%r14, %rdi
	movl	$112, %esi
	jmp	LBB29_75
LBB29_33:
	movl	20(%rbx), %edx
	movl	24(%rbx), %ecx
	movl	28(%rbx), %r8d
	movq	%r14, %rdi
	movl	$86, %esi
	jmp	LBB29_57
LBB29_34:
	movl	28(%rbx), %eax
	subl	24(%rbx), %eax
	jo	LBB29_149
	addl	$7, %eax
	jno	LBB29_43
	leaq	_str.5(%rip), %rdi
	leaq	l___unnamed_41(%rip), %rdx
	movl	$28, %esi
	callq	__ZN4core9panicking5panic17h383a6b80ea7021aaE
LBB29_37:
	addq	$12, %rbx
	jmp	LBB29_68
LBB29_38:
	leaq	l___unnamed_42(%rip), %rsi
	movl	$1, %edx
	jmp	LBB29_145
LBB29_39:
	movl	24(%rbx), %ecx
	decl	%ecx
	jo	LBB29_150
	addl	$7, %ecx
	jo	LBB29_151
	movl	28(%rbx), %eax
	movslq	%ecx, %rcx
	imulq	$-1840700269, %rcx, %rdx
	shrq	$32, %rdx
	addl	%ecx, %edx
	movl	%edx, %esi
	shrl	$31, %esi
	sarl	$2, %edx
	addl	%esi, %edx
	leal	(,%rdx,8), %esi
	subl	%esi, %edx
	addl	%ecx, %edx
	subl	%edx, %eax
	jo	LBB29_152
	addl	$7, %eax
	jo	LBB29_153
LBB29_43:
	cltq
	imulq	$-1840700269, %rax, %rcx
	shrq	$32, %rcx
	addl	%ecx, %eax
	movl	%eax, %ecx
	shrl	$31, %ecx
	sarl	$2, %eax
	addl	%ecx, %eax
	jmp	LBB29_104
LBB29_44:
	addq	$12, %rbx
	jmp	LBB29_80
LBB29_45:
	addq	$8, %rbx
	jmp	LBB29_68
LBB29_46:
	movq	%r14, %rdi
	movl	$72, %esi
	movq	%rbx, %rdx
	callq	__ZN4time7display10parse_type17h1bebac49b44bde7cE
	movb	$1, %r15b
	testb	%al, %al
	jne	LBB29_111
	leaq	l___unnamed_30(%rip), %rsi
	movl	$1, %edx
	movq	%r14, %rdi
	callq	__ZN4core3fmt9Formatter9write_str17h98e119ad25a8903eE
	testb	%al, %al
	jne	LBB29_111
	movq	%r14, %rdi
	movl	$77, %esi
	jmp	LBB29_75
LBB29_49:
	movl	16(%rbx), %eax
	incl	%eax
	jo	LBB29_154
	movl	%eax, -88(%rbp)
	jmp	LBB29_105
LBB29_51:
	movq	%r14, %rdi
	movl	$89, %esi
	movq	%rbx, %rdx
	callq	__ZN4time7display10parse_type17h1bebac49b44bde7cE
	movb	$1, %r15b
	testb	%al, %al
	jne	LBB29_111
	leaq	l___unnamed_43(%rip), %rsi
	movl	$1, %edx
	movq	%r14, %rdi
	callq	__ZN4core3fmt9Formatter9write_str17h98e119ad25a8903eE
	testb	%al, %al
	jne	LBB29_111
	movq	%r14, %rdi
	movl	$109, %esi
	movq	%rbx, %rdx
	callq	__ZN4time7display10parse_type17h1bebac49b44bde7cE
	testb	%al, %al
	jne	LBB29_111
	leaq	l___unnamed_43(%rip), %rsi
	movl	$1, %edx
	movq	%r14, %rdi
	callq	__ZN4core3fmt9Formatter9write_str17h98e119ad25a8903eE
	testb	%al, %al
	jne	LBB29_111
	movq	%r14, %rdi
	movl	$100, %esi
	jmp	LBB29_75
LBB29_56:
	movl	20(%rbx), %edx
	movl	24(%rbx), %ecx
	movl	28(%rbx), %r8d
	movq	%r14, %rdi
	movl	$71, %esi
LBB29_57:
	addq	$120, %rsp
	popq	%rbx
	popq	%r14
	popq	%r15
	popq	%rbp
	jmp	__ZN4time7display8iso_week17h38e6eeccbfc842e5E
LBB29_58:
	movl	8(%rbx), %eax
	testl	%eax, %eax
	movl	$12, %ecx
	cmovnel	%eax, %ecx
	leal	-12(%rcx), %eax
	cmpl	$12, %ecx
	cmovlel	%ecx, %eax
	movl	%eax, -88(%rbp)
	jmp	LBB29_105
LBB29_59:
	movl	24(%rbx), %eax
	cmpq	$6, %rax
	ja	LBB29_155
	leaq	l___unnamed_44(%rip), %rsi
	movl	$6, %edx
	leaq	LJTI29_4(%rip), %rcx
	movslq	(%rcx,%rax,4), %rax
	addq	%rcx, %rax
	jmpq	*%rax
LBB29_61:
	leaq	l___unnamed_45(%rip), %rsi
	jmp	LBB29_145
LBB29_62:
	movl	$1900, %eax
	addl	20(%rbx), %eax
	jo	LBB29_156
	cltq
	imulq	$1374389535, %rax, %rax
	movq	%rax, %rcx
	shrq	$63, %rcx
	sarq	$37, %rax
	addl	%ecx, %eax
	jmp	LBB29_104
LBB29_64:
	leaq	l___unnamed_46(%rip), %rsi
	movl	$1, %edx
	jmp	LBB29_145
LBB29_65:
	movq	%rbx, -136(%rbp)
	movq	$1, -128(%rbp)
	leaq	-136(%rbp), %rax
	movq	%rax, -88(%rbp)
	leaq	__ZN4time7display60_$LT$impl$u20$core..fmt..Display$u20$for$u20$time..TmFmt$GT$3fmt17h96deff4781b87325E(%rip), %rax
LBB29_66:
	movq	%rax, -80(%rbp)
	leaq	l___unnamed_23(%rip), %rax
	movq	%rax, -72(%rbp)
	movq	$1, -64(%rbp)
	movq	$0, -56(%rbp)
	leaq	-88(%rbp), %rax
	jmp	LBB29_109
LBB29_67:
	addq	$4, %rbx
LBB29_68:
	movq	%rbx, -136(%rbp)
	jmp	LBB29_106
LBB29_69:
	movq	%r14, %rdi
	movl	$101, %esi
	movq	%rbx, %rdx
	callq	__ZN4time7display10parse_type17h1bebac49b44bde7cE
	movb	$1, %r15b
	testb	%al, %al
	jne	LBB29_111
	leaq	l___unnamed_43(%rip), %rsi
	movl	$1, %edx
	movq	%r14, %rdi
	callq	__ZN4core3fmt9Formatter9write_str17h98e119ad25a8903eE
	testb	%al, %al
	jne	LBB29_111
	movq	%r14, %rdi
	movl	$98, %esi
	movq	%rbx, %rdx
	callq	__ZN4time7display10parse_type17h1bebac49b44bde7cE
	testb	%al, %al
	jne	LBB29_111
	leaq	l___unnamed_43(%rip), %rsi
LBB29_73:
	movl	$1, %edx
	movq	%r14, %rdi
	callq	__ZN4core3fmt9Formatter9write_str17h98e119ad25a8903eE
	testb	%al, %al
	jne	LBB29_111
	movq	%r14, %rdi
	movl	$89, %esi
LBB29_75:
	movq	%rbx, %rdx
	addq	$120, %rsp
	popq	%rbx
	popq	%r14
	popq	%r15
	popq	%rbp
	jmp	__ZN4time7display10parse_type17h1bebac49b44bde7cE
LBB29_76:
	movl	16(%rbx), %eax
	cmpq	$11, %rax
	ja	LBB29_157
	leaq	l___unnamed_47(%rip), %rsi
	movl	$7, %edx
	leaq	LJTI29_2(%rip), %rcx
	movslq	(%rcx,%rax,4), %rax
	addq	%rcx, %rax
	jmpq	*%rax
LBB29_78:
	leaq	L___unnamed_48(%rip), %rsi
	jmp	LBB29_144
LBB29_79:
	addq	$8, %rbx
LBB29_80:
	movq	%rbx, -136(%rbp)
	jmp	LBB29_95
LBB29_81:
	cmpl	$12, 8(%rbx)
	leaq	l___unnamed_49(%rip), %rax
	leaq	l___unnamed_50(%rip), %rsi
LBB29_82:
	cmovlq	%rax, %rsi
	movl	$2, %edx
	jmp	LBB29_145
LBB29_83:
	movq	%r14, %rdi
	movl	$97, %esi
	movq	%rbx, %rdx
	callq	__ZN4time7display10parse_type17h1bebac49b44bde7cE
	movb	$1, %r15b
	testb	%al, %al
	jne	LBB29_111
	leaq	l___unnamed_40(%rip), %rsi
	movl	$1, %edx
	movq	%r14, %rdi
	callq	__ZN4core3fmt9Formatter9write_str17h98e119ad25a8903eE
	testb	%al, %al
	jne	LBB29_111
	movq	%r14, %rdi
	movl	$98, %esi
	movq	%rbx, %rdx
	callq	__ZN4time7display10parse_type17h1bebac49b44bde7cE
	testb	%al, %al
	jne	LBB29_111
	leaq	l___unnamed_40(%rip), %rsi
	movl	$1, %edx
	movq	%r14, %rdi
	callq	__ZN4core3fmt9Formatter9write_str17h98e119ad25a8903eE
	testb	%al, %al
	jne	LBB29_111
	movq	%r14, %rdi
	movl	$101, %esi
	movq	%rbx, %rdx
	callq	__ZN4time7display10parse_type17h1bebac49b44bde7cE
	testb	%al, %al
	jne	LBB29_111
	leaq	l___unnamed_40(%rip), %rsi
	movl	$1, %edx
	movq	%r14, %rdi
	callq	__ZN4core3fmt9Formatter9write_str17h98e119ad25a8903eE
	testb	%al, %al
	jne	LBB29_111
	movq	%r14, %rdi
	movl	$84, %esi
	movq	%rbx, %rdx
	callq	__ZN4time7display10parse_type17h1bebac49b44bde7cE
	testb	%al, %al
	jne	LBB29_111
	leaq	l___unnamed_40(%rip), %rsi
	jmp	LBB29_73
LBB29_91:
	addq	$24, %rbx
	movq	%rbx, -136(%rbp)
	jmp	LBB29_101
LBB29_92:
	movl	28(%rbx), %eax
	incl	%eax
	jo	LBB29_158
	movl	%eax, -88(%rbp)
	leaq	-88(%rbp), %rax
	movq	%rax, -136(%rbp)
	movq	__ZN4core3fmt3num3imp52_$LT$impl$u20$core..fmt..Display$u20$for$u20$i32$GT$3fmt17h00ed7ff77f9da654E@GOTPCREL(%rip), %rax
	movq	%rax, -128(%rbp)
	leaq	l___unnamed_23(%rip), %rax
	movq	%rax, -72(%rbp)
	movq	$1, -64(%rbp)
	leaq	l___unnamed_51(%rip), %rax
	jmp	LBB29_107
LBB29_94:
	movl	8(%rbx), %eax
	testl	%eax, %eax
	movl	$12, %ecx
	cmovnel	%eax, %ecx
	leal	-12(%rcx), %eax
	cmpl	$12, %ecx
	cmovlel	%ecx, %eax
	movl	%eax, -88(%rbp)
	leaq	-88(%rbp), %rax
	movq	%rax, -136(%rbp)
LBB29_95:
	movq	__ZN4core3fmt3num3imp52_$LT$impl$u20$core..fmt..Display$u20$for$u20$i32$GT$3fmt17h00ed7ff77f9da654E@GOTPCREL(%rip), %rax
	movq	%rax, -128(%rbp)
	leaq	l___unnamed_23(%rip), %rax
	movq	%rax, -72(%rbp)
	movq	$1, -64(%rbp)
	leaq	l___unnamed_52(%rip), %rax
	jmp	LBB29_107
LBB29_96:
	movl	$1900, %eax
	addl	20(%rbx), %eax
	jo	LBB29_159
	movl	%eax, -88(%rbp)
	jmp	LBB29_100
LBB29_98:
	xorl	%eax, %eax
	cmpl	$0, 36(%rbx)
	sete	%al
	leaq	l___unnamed_53(%rip), %rcx
	leaq	l___unnamed_54(%rip), %rsi
	cmoveq	%rcx, %rsi
	leaq	(%rax,%rax,2), %rdx
	jmp	LBB29_145
LBB29_99:
	movl	24(%rbx), %eax
	testl	%eax, %eax
	movl	$7, %ecx
	cmovnel	%eax, %ecx
	movl	%ecx, -88(%rbp)
LBB29_100:
	leaq	-88(%rbp), %rax
	movq	%rax, -136(%rbp)
LBB29_101:
	movq	__ZN4core3fmt3num3imp52_$LT$impl$u20$core..fmt..Display$u20$for$u20$i32$GT$3fmt17h00ed7ff77f9da654E@GOTPCREL(%rip), %rax
	movq	%rax, -128(%rbp)
	leaq	l___unnamed_23(%rip), %rax
	movq	%rax, -72(%rbp)
	movq	$1, -64(%rbp)
	movq	$0, -56(%rbp)
	jmp	LBB29_108
LBB29_102:
	movl	$1900, %eax
	addl	20(%rbx), %eax
	jo	LBB29_160
	cltq
	imulq	$1374389535, %rax, %rcx
	movq	%rcx, %rdx
	shrq	$63, %rdx
	sarq	$37, %rcx
	addl	%edx, %ecx
	imull	$100, %ecx, %ecx
	subl	%ecx, %eax
LBB29_104:
	movl	%eax, -88(%rbp)
LBB29_105:
	leaq	-88(%rbp), %rax
	movq	%rax, -136(%rbp)
LBB29_106:
	movq	__ZN4core3fmt3num3imp52_$LT$impl$u20$core..fmt..Display$u20$for$u20$i32$GT$3fmt17h00ed7ff77f9da654E@GOTPCREL(%rip), %rax
	movq	%rax, -128(%rbp)
	leaq	l___unnamed_23(%rip), %rax
	movq	%rax, -72(%rbp)
	movq	$1, -64(%rbp)
	leaq	l___unnamed_24(%rip), %rax
LBB29_107:
	movq	%rax, -56(%rbp)
	movq	$1, -48(%rbp)
LBB29_108:
	leaq	-136(%rbp), %rax
LBB29_109:
	movq	%rax, -40(%rbp)
	movq	$1, -32(%rbp)
	leaq	-72(%rbp), %rsi
LBB29_110:
	movq	%r14, %rdi
	callq	__ZN4core3fmt9Formatter9write_fmt17h742ca6aae87ad23cE
	movl	%eax, %r15d
LBB29_111:
	movl	%r15d, %eax
	addq	$120, %rsp
	popq	%rbx
	popq	%r14
	popq	%r15
	popq	%rbp
	retq
LBB29_112:
	leaq	l___unnamed_55(%rip), %rsi
	movl	$1, %edx
	jmp	LBB29_145
LBB29_135:
	leaq	l___unnamed_56(%rip), %rsi
	movl	$3, %edx
	jmp	LBB29_145
LBB29_113:
	leaq	l___unnamed_57(%rip), %rsi
	movl	$3, %edx
	jmp	LBB29_145
LBB29_115:
	leaq	l___unnamed_58(%rip), %rsi
	movl	$3, %edx
	jmp	LBB29_145
LBB29_116:
	leaq	l___unnamed_59(%rip), %rsi
	movl	$3, %edx
	jmp	LBB29_145
LBB29_117:
	leaq	l___unnamed_60(%rip), %rsi
	movl	$3, %edx
	jmp	LBB29_145
LBB29_118:
	leaq	l___unnamed_61(%rip), %rsi
	movl	$3, %edx
	jmp	LBB29_145
LBB29_119:
	leaq	l___unnamed_62(%rip), %rsi
	movl	$3, %edx
	jmp	LBB29_145
LBB29_120:
	leaq	l___unnamed_63(%rip), %rsi
	movl	$3, %edx
	jmp	LBB29_145
LBB29_121:
	leaq	l___unnamed_64(%rip), %rsi
	movl	$3, %edx
	jmp	LBB29_145
LBB29_122:
	leaq	l___unnamed_65(%rip), %rsi
	movl	$3, %edx
	jmp	LBB29_145
LBB29_123:
	leaq	l___unnamed_66(%rip), %rsi
	movl	$3, %edx
	jmp	LBB29_145
LBB29_124:
	leaq	l___unnamed_67(%rip), %rsi
	movl	$3, %edx
	jmp	LBB29_145
LBB29_125:
	leaq	l___unnamed_68(%rip), %rsi
	movl	$3, %edx
	jmp	LBB29_145
LBB29_126:
	leaq	l___unnamed_69(%rip), %rsi
	movl	$3, %edx
	jmp	LBB29_145
LBB29_127:
	leaq	l___unnamed_70(%rip), %rsi
LBB29_128:
	movl	$3, %edx
	jmp	LBB29_145
LBB29_129:
	leaq	L___unnamed_71(%rip), %rsi
	jmp	LBB29_144
LBB29_130:
	leaq	l___unnamed_72(%rip), %rsi
	movl	$7, %edx
	jmp	LBB29_145
LBB29_131:
	leaq	l___unnamed_73(%rip), %rsi
	movl	$9, %edx
	jmp	LBB29_145
LBB29_132:
	leaq	l___unnamed_74(%rip), %rsi
	jmp	LBB29_145
LBB29_133:
	leaq	L___unnamed_75(%rip), %rsi
	jmp	LBB29_144
LBB29_134:
	leaq	L___unnamed_76(%rip), %rsi
	jmp	LBB29_144
LBB29_136:
	leaq	l___unnamed_77(%rip), %rsi
	jmp	LBB29_145
LBB29_137:
	leaq	l___unnamed_78(%rip), %rsi
	movl	$5, %edx
	jmp	LBB29_145
LBB29_138:
	leaq	l___unnamed_79(%rip), %rsi
	movl	$5, %edx
	jmp	LBB29_145
LBB29_139:
	leaq	l___unnamed_80(%rip), %rsi
	movl	$6, %edx
	jmp	LBB29_145
LBB29_140:
	leaq	L___unnamed_81(%rip), %rsi
	movl	$4, %edx
	jmp	LBB29_145
LBB29_141:
	leaq	L___unnamed_82(%rip), %rsi
	movl	$4, %edx
	jmp	LBB29_145
LBB29_142:
	leaq	l___unnamed_83(%rip), %rsi
	movl	$9, %edx
	jmp	LBB29_145
LBB29_143:
	leaq	L___unnamed_84(%rip), %rsi
LBB29_144:
	movl	$8, %edx
LBB29_145:
	movq	%r14, %rdi
	addq	$120, %rsp
	popq	%rbx
	popq	%r14
	popq	%r15
	popq	%rbp
	jmp	__ZN4core3fmt9Formatter9write_str17h98e119ad25a8903eE
LBB29_146:
	leaq	l___unnamed_85(%rip), %rdi
	leaq	l___unnamed_86(%rip), %rdx
	movl	$40, %esi
	callq	__ZN3std9panicking11begin_panic17h6e8e866eb85f4bdfE
LBB29_147:
	leaq	l___unnamed_85(%rip), %rdi
	leaq	l___unnamed_87(%rip), %rdx
	movl	$40, %esi
	callq	__ZN3std9panicking11begin_panic17h6e8e866eb85f4bdfE
LBB29_148:
	leaq	l___unnamed_85(%rip), %rdi
	leaq	l___unnamed_88(%rip), %rdx
	movl	$40, %esi
	callq	__ZN3std9panicking11begin_panic17h6e8e866eb85f4bdfE
LBB29_149:
	leaq	_str.3(%rip), %rdi
	leaq	l___unnamed_89(%rip), %rdx
	movl	$33, %esi
	callq	__ZN4core9panicking5panic17h383a6b80ea7021aaE
LBB29_150:
	leaq	_str.3(%rip), %rdi
	leaq	l___unnamed_90(%rip), %rdx
	movl	$33, %esi
	callq	__ZN4core9panicking5panic17h383a6b80ea7021aaE
LBB29_151:
	leaq	_str.5(%rip), %rdi
	leaq	l___unnamed_91(%rip), %rdx
	movl	$28, %esi
	callq	__ZN4core9panicking5panic17h383a6b80ea7021aaE
LBB29_152:
	leaq	_str.3(%rip), %rdi
	leaq	l___unnamed_92(%rip), %rdx
	movl	$33, %esi
	callq	__ZN4core9panicking5panic17h383a6b80ea7021aaE
LBB29_153:
	leaq	_str.5(%rip), %rdi
	leaq	l___unnamed_93(%rip), %rdx
	movl	$28, %esi
	callq	__ZN4core9panicking5panic17h383a6b80ea7021aaE
LBB29_154:
	leaq	_str.5(%rip), %rdi
	leaq	l___unnamed_94(%rip), %rdx
	movl	$28, %esi
	callq	__ZN4core9panicking5panic17h383a6b80ea7021aaE
LBB29_155:
	leaq	l___unnamed_85(%rip), %rdi
	leaq	l___unnamed_95(%rip), %rdx
	movl	$40, %esi
	callq	__ZN3std9panicking11begin_panic17h6e8e866eb85f4bdfE
LBB29_156:
	leaq	_str.5(%rip), %rdi
	leaq	l___unnamed_96(%rip), %rdx
	movl	$28, %esi
	callq	__ZN4core9panicking5panic17h383a6b80ea7021aaE
LBB29_157:
	leaq	l___unnamed_85(%rip), %rdi
	leaq	l___unnamed_97(%rip), %rdx
	movl	$40, %esi
	callq	__ZN3std9panicking11begin_panic17h6e8e866eb85f4bdfE
LBB29_158:
	leaq	_str.5(%rip), %rdi
	leaq	l___unnamed_98(%rip), %rdx
	movl	$28, %esi
	callq	__ZN4core9panicking5panic17h383a6b80ea7021aaE
LBB29_159:
	leaq	_str.5(%rip), %rdi
	leaq	l___unnamed_99(%rip), %rdx
	movl	$28, %esi
	callq	__ZN4core9panicking5panic17h383a6b80ea7021aaE
LBB29_160:
	leaq	_str.5(%rip), %rdi
	leaq	l___unnamed_100(%rip), %rdx
	movl	$28, %esi
	callq	__ZN4core9panicking5panic17h383a6b80ea7021aaE
LBB29_161:
	leaq	_str.6(%rip), %rdi
	leaq	l___unnamed_19(%rip), %rdx
	movl	$31, %esi
	callq	__ZN4core9panicking5panic17h383a6b80ea7021aaE
	.cfi_endproc
	.p2align	2, 0x90
	.data_region jt32
.set L29_0_set_64, LBB29_64-LJTI29_0
.set L29_0_set_146, LBB29_146-LJTI29_0
.set L29_0_set_65, LBB29_65-LJTI29_0
.set L29_0_set_59, LBB29_59-LJTI29_0
.set L29_0_set_76, LBB29_76-LJTI29_0
.set L29_0_set_62, LBB29_62-LJTI29_0
.set L29_0_set_2, LBB29_2-LJTI29_0
.set L29_0_set_51, LBB29_51-LJTI29_0
.set L29_0_set_56, LBB29_56-LJTI29_0
.set L29_0_set_45, LBB29_45-LJTI29_0
.set L29_0_set_58, LBB29_58-LJTI29_0
.set L29_0_set_67, LBB29_67-LJTI29_0
.set L29_0_set_81, LBB29_81-LJTI29_0
.set L29_0_set_46, LBB29_46-LJTI29_0
.set L29_0_set_68, LBB29_68-LJTI29_0
.set L29_0_set_7, LBB29_7-LJTI29_0
.set L29_0_set_34, LBB29_34-LJTI29_0
.set L29_0_set_33, LBB29_33-LJTI29_0
.set L29_0_set_39, LBB29_39-LJTI29_0
.set L29_0_set_96, LBB29_96-LJTI29_0
.set L29_0_set_98, LBB29_98-LJTI29_0
.set L29_0_set_22, LBB29_22-LJTI29_0
.set L29_0_set_12, LBB29_12-LJTI29_0
.set L29_0_set_83, LBB29_83-LJTI29_0
.set L29_0_set_37, LBB29_37-LJTI29_0
.set L29_0_set_44, LBB29_44-LJTI29_0
.set L29_0_set_20, LBB29_20-LJTI29_0
.set L29_0_set_15, LBB29_15-LJTI29_0
.set L29_0_set_92, LBB29_92-LJTI29_0
.set L29_0_set_79, LBB29_79-LJTI29_0
.set L29_0_set_94, LBB29_94-LJTI29_0
.set L29_0_set_49, LBB29_49-LJTI29_0
.set L29_0_set_38, LBB29_38-LJTI29_0
.set L29_0_set_25, LBB29_25-LJTI29_0
.set L29_0_set_26, LBB29_26-LJTI29_0
.set L29_0_set_21, LBB29_21-LJTI29_0
.set L29_0_set_112, LBB29_112-LJTI29_0
.set L29_0_set_99, LBB29_99-LJTI29_0
.set L29_0_set_69, LBB29_69-LJTI29_0
.set L29_0_set_91, LBB29_91-LJTI29_0
.set L29_0_set_102, LBB29_102-LJTI29_0
.set L29_0_set_16, LBB29_16-LJTI29_0
LJTI29_0:
	.long	L29_0_set_64
	.long	L29_0_set_146
	.long	L29_0_set_146
	.long	L29_0_set_146
	.long	L29_0_set_146
	.long	L29_0_set_146
	.long	L29_0_set_65
	.long	L29_0_set_146
	.long	L29_0_set_146
	.long	L29_0_set_146
	.long	L29_0_set_146
	.long	L29_0_set_146
	.long	L29_0_set_146
	.long	L29_0_set_146
	.long	L29_0_set_146
	.long	L29_0_set_146
	.long	L29_0_set_146
	.long	L29_0_set_146
	.long	L29_0_set_146
	.long	L29_0_set_146
	.long	L29_0_set_146
	.long	L29_0_set_146
	.long	L29_0_set_146
	.long	L29_0_set_146
	.long	L29_0_set_146
	.long	L29_0_set_146
	.long	L29_0_set_146
	.long	L29_0_set_146
	.long	L29_0_set_59
	.long	L29_0_set_76
	.long	L29_0_set_62
	.long	L29_0_set_2
	.long	L29_0_set_146
	.long	L29_0_set_51
	.long	L29_0_set_56
	.long	L29_0_set_45
	.long	L29_0_set_58
	.long	L29_0_set_146
	.long	L29_0_set_146
	.long	L29_0_set_146
	.long	L29_0_set_67
	.long	L29_0_set_146
	.long	L29_0_set_146
	.long	L29_0_set_81
	.long	L29_0_set_146
	.long	L29_0_set_46
	.long	L29_0_set_68
	.long	L29_0_set_7
	.long	L29_0_set_34
	.long	L29_0_set_33
	.long	L29_0_set_39
	.long	L29_0_set_7
	.long	L29_0_set_96
	.long	L29_0_set_98
	.long	L29_0_set_146
	.long	L29_0_set_146
	.long	L29_0_set_146
	.long	L29_0_set_146
	.long	L29_0_set_146
	.long	L29_0_set_146
	.long	L29_0_set_22
	.long	L29_0_set_12
	.long	L29_0_set_83
	.long	L29_0_set_37
	.long	L29_0_set_44
	.long	L29_0_set_20
	.long	L29_0_set_15
	.long	L29_0_set_12
	.long	L29_0_set_146
	.long	L29_0_set_92
	.long	L29_0_set_79
	.long	L29_0_set_94
	.long	L29_0_set_49
	.long	L29_0_set_38
	.long	L29_0_set_146
	.long	L29_0_set_25
	.long	L29_0_set_146
	.long	L29_0_set_26
	.long	L29_0_set_21
	.long	L29_0_set_112
	.long	L29_0_set_99
	.long	L29_0_set_69
	.long	L29_0_set_91
	.long	L29_0_set_2
	.long	L29_0_set_102
	.long	L29_0_set_16
.set L29_1_set_128, LBB29_128-LJTI29_1
.set L29_1_set_14, LBB29_14-LJTI29_1
.set L29_1_set_116, LBB29_116-LJTI29_1
.set L29_1_set_117, LBB29_117-LJTI29_1
.set L29_1_set_135, LBB29_135-LJTI29_1
.set L29_1_set_119, LBB29_119-LJTI29_1
.set L29_1_set_120, LBB29_120-LJTI29_1
.set L29_1_set_118, LBB29_118-LJTI29_1
.set L29_1_set_121, LBB29_121-LJTI29_1
.set L29_1_set_115, LBB29_115-LJTI29_1
.set L29_1_set_122, LBB29_122-LJTI29_1
.set L29_1_set_113, LBB29_113-LJTI29_1
LJTI29_1:
	.long	L29_1_set_128
	.long	L29_1_set_14
	.long	L29_1_set_116
	.long	L29_1_set_117
	.long	L29_1_set_135
	.long	L29_1_set_119
	.long	L29_1_set_120
	.long	L29_1_set_118
	.long	L29_1_set_121
	.long	L29_1_set_115
	.long	L29_1_set_122
	.long	L29_1_set_113
.set L29_2_set_145, LBB29_145-LJTI29_2
.set L29_2_set_78, LBB29_78-LJTI29_2
.set L29_2_set_137, LBB29_137-LJTI29_2
.set L29_2_set_138, LBB29_138-LJTI29_2
.set L29_2_set_135, LBB29_135-LJTI29_2
.set L29_2_set_140, LBB29_140-LJTI29_2
.set L29_2_set_141, LBB29_141-LJTI29_2
.set L29_2_set_139, LBB29_139-LJTI29_2
.set L29_2_set_142, LBB29_142-LJTI29_2
.set L29_2_set_136, LBB29_136-LJTI29_2
.set L29_2_set_143, LBB29_143-LJTI29_2
.set L29_2_set_134, LBB29_134-LJTI29_2
LJTI29_2:
	.long	L29_2_set_145
	.long	L29_2_set_78
	.long	L29_2_set_137
	.long	L29_2_set_138
	.long	L29_2_set_135
	.long	L29_2_set_140
	.long	L29_2_set_141
	.long	L29_2_set_139
	.long	L29_2_set_142
	.long	L29_2_set_136
	.long	L29_2_set_143
	.long	L29_2_set_134
.set L29_3_set_128, LBB29_128-LJTI29_3
.set L29_3_set_24, LBB29_24-LJTI29_3
.set L29_3_set_124, LBB29_124-LJTI29_3
.set L29_3_set_125, LBB29_125-LJTI29_3
.set L29_3_set_123, LBB29_123-LJTI29_3
.set L29_3_set_126, LBB29_126-LJTI29_3
.set L29_3_set_127, LBB29_127-LJTI29_3
LJTI29_3:
	.long	L29_3_set_128
	.long	L29_3_set_24
	.long	L29_3_set_124
	.long	L29_3_set_125
	.long	L29_3_set_123
	.long	L29_3_set_126
	.long	L29_3_set_127
.set L29_4_set_145, LBB29_145-LJTI29_4
.set L29_4_set_61, LBB29_61-LJTI29_4
.set L29_4_set_130, LBB29_130-LJTI29_4
.set L29_4_set_131, LBB29_131-LJTI29_4
.set L29_4_set_129, LBB29_129-LJTI29_4
.set L29_4_set_132, LBB29_132-LJTI29_4
.set L29_4_set_133, LBB29_133-LJTI29_4
LJTI29_4:
	.long	L29_4_set_145
	.long	L29_4_set_61
	.long	L29_4_set_130
	.long	L29_4_set_131
	.long	L29_4_set_129
	.long	L29_4_set_132
	.long	L29_4_set_133
	.end_data_region

	.globl	__ZN4time8duration8Duration8num_days17h8b703b18748c507fE
	.p2align	4, 0x90
__ZN4time8duration8Duration8num_days17h8b703b18748c507fE:
	.cfi_startproc
	pushq	%rbp
	.cfi_def_cfa_offset 16
	.cfi_offset %rbp, -16
	movq	%rsp, %rbp
	.cfi_def_cfa_register %rbp
	movq	(%rdi), %rcx
	testq	%rcx, %rcx
	sets	%al
	cmpl	$0, 8(%rdi)
	setg	%dl
	andb	%al, %dl
	movzbl	%dl, %eax
	addq	%rcx, %rax
	movabsq	$1749024623285053783, %rcx
	imulq	%rcx
	movq	%rdx, %rax
	shrq	$63, %rax
	sarq	$13, %rdx
	addq	%rdx, %rax
	popq	%rbp
	retq
	.cfi_endproc

	.globl	__ZN4time8duration8Duration11num_seconds17h4efc0d4f7cb6bd05E
	.p2align	4, 0x90
__ZN4time8duration8Duration11num_seconds17h4efc0d4f7cb6bd05E:
	.cfi_startproc
	pushq	%rbp
	.cfi_def_cfa_offset 16
	.cfi_offset %rbp, -16
	movq	%rsp, %rbp
	.cfi_def_cfa_register %rbp
	movq	(%rdi), %rax
	testq	%rax, %rax
	js	LBB31_1
	popq	%rbp
	retq
LBB31_1:
	xorl	%ecx, %ecx
	cmpl	$0, 8(%rdi)
	setg	%cl
	addq	%rcx, %rax
	popq	%rbp
	retq
	.cfi_endproc

	.globl	__ZN4time8duration8Duration16num_milliseconds17h916ba3aa532d7634E
	.p2align	4, 0x90
__ZN4time8duration8Duration16num_milliseconds17h916ba3aa532d7634E:
	.cfi_startproc
	pushq	%rbp
	.cfi_def_cfa_offset 16
	.cfi_offset %rbp, -16
	movq	%rsp, %rbp
	.cfi_def_cfa_register %rbp
	movq	(%rdi), %rax
	testq	%rax, %rax
	sets	%sil
	movl	8(%rdi), %ecx
	testl	%ecx, %ecx
	setg	%dl
	andb	%sil, %dl
	movzbl	%dl, %esi
	addq	%rax, %rsi
	imulq	$1000, %rsi, %rax
	jo	LBB32_3
	leal	-1000000000(%rcx), %esi
	testb	%dl, %dl
	cmovnel	%esi, %ecx
	movslq	%ecx, %rcx
	imulq	$1125899907, %rcx, %rcx
	movq	%rcx, %rdx
	shrq	$63, %rdx
	sarq	$50, %rcx
	addl	%edx, %ecx
	movslq	%ecx, %rcx
	addq	%rcx, %rax
	jo	LBB32_4
	popq	%rbp
	retq
LBB32_3:
	leaq	_str.2(%rip), %rdi
	leaq	l___unnamed_101(%rip), %rdx
	movl	$33, %esi
	callq	__ZN4core9panicking5panic17h383a6b80ea7021aaE
LBB32_4:
	leaq	_str.5(%rip), %rdi
	leaq	l___unnamed_102(%rip), %rdx
	movl	$28, %esi
	callq	__ZN4core9panicking5panic17h383a6b80ea7021aaE
	.cfi_endproc

	.globl	__ZN4time8duration8Duration16num_microseconds17h565980d3cb8415e5E
	.p2align	4, 0x90
__ZN4time8duration8Duration16num_microseconds17h565980d3cb8415e5E:
	.cfi_startproc
	pushq	%rbp
	.cfi_def_cfa_offset 16
	.cfi_offset %rbp, -16
	movq	%rsp, %rbp
	.cfi_def_cfa_register %rbp
	movq	(%rdi), %rdx
	testq	%rdx, %rdx
	sets	%sil
	movl	8(%rdi), %eax
	testl	%eax, %eax
	setg	%cl
	andb	%sil, %cl
	movzbl	%cl, %esi
	addq	%rdx, %rsi
	imulq	$1000000, %rsi, %rdx
	jno	LBB33_2
	xorl	%eax, %eax
	popq	%rbp
	retq
LBB33_2:
	leal	-1000000000(%rax), %esi
	testb	%cl, %cl
	cmovnel	%esi, %eax
	cltq
	imulq	$274877907, %rax, %rax
	movq	%rax, %rcx
	shrq	$63, %rcx
	sarq	$38, %rax
	addl	%ecx, %eax
	movslq	%eax, %rcx
	xorl	%eax, %eax
	addq	%rcx, %rdx
	setno	%al
	popq	%rbp
	retq
	.cfi_endproc

	.globl	__ZN4time8duration8Duration15num_nanoseconds17h9ee7f6a92e8dca2fE
	.p2align	4, 0x90
__ZN4time8duration8Duration15num_nanoseconds17h9ee7f6a92e8dca2fE:
	.cfi_startproc
	pushq	%rbp
	.cfi_def_cfa_offset 16
	.cfi_offset %rbp, -16
	movq	%rsp, %rbp
	.cfi_def_cfa_register %rbp
	movq	(%rdi), %rdx
	testq	%rdx, %rdx
	sets	%sil
	movl	8(%rdi), %eax
	testl	%eax, %eax
	setg	%cl
	andb	%sil, %cl
	movzbl	%cl, %esi
	addq	%rdx, %rsi
	imulq	$1000000000, %rsi, %rdx
	jno	LBB34_2
	xorl	%eax, %eax
	popq	%rbp
	retq
LBB34_2:
	leal	-1000000000(%rax), %esi
	testb	%cl, %cl
	cmovnel	%esi, %eax
	movslq	%eax, %rcx
	xorl	%eax, %eax
	addq	%rcx, %rdx
	setno	%al
	popq	%rbp
	retq
	.cfi_endproc

	.globl	__ZN4time8duration8Duration11checked_add17h17d1710f16674754E
	.p2align	4, 0x90
__ZN4time8duration8Duration11checked_add17h17d1710f16674754E:
	.cfi_startproc
	pushq	%rbp
	.cfi_def_cfa_offset 16
	.cfi_offset %rbp, -16
	movq	%rsp, %rbp
	.cfi_def_cfa_register %rbp
	movq	%rdi, %rax
	movq	(%rsi), %rcx
	addq	(%rdx), %rcx
	jno	LBB35_13
LBB35_1:
	xorl	%ecx, %ecx
	movq	%rcx, (%rax)
	popq	%rbp
	retq
LBB35_13:
	movl	8(%rsi), %esi
	addl	8(%rdx), %esi
	jo	LBB35_14
	cmpl	$1000000000, %esi
	jl	LBB35_6
	incq	%rcx
	jo	LBB35_1
	addl	$-1000000000, %esi
LBB35_6:
	movabsq	$-9223372036854776, %rdx
	xorl	%edi, %edi
	cmpq	%rdx, %rcx
	setne	%dil
	movl	$255, %edx
	cmovgel	%edi, %edx
	cmpb	$-1, %dl
	je	LBB35_1
	testb	%dl, %dl
	jne	LBB35_9
	cmpl	$192000000, %esi
	jl	LBB35_1
LBB35_9:
	movabsq	$9223372036854775, %rdx
	xorl	%edi, %edi
	cmpq	%rdx, %rcx
	setne	%dil
	movl	$255, %edx
	cmovgel	%edi, %edx
	testb	%dl, %dl
	jne	LBB35_11
	cmpl	$807000000, %esi
	setne	%dl
	jl	LBB35_12
LBB35_11:
	cmpb	$1, %dl
	je	LBB35_1
LBB35_12:
	movq	%rcx, 8(%rax)
	movl	%esi, 16(%rax)
	movl	$1, %ecx
	movq	%rcx, (%rax)
	popq	%rbp
	retq
LBB35_14:
	leaq	_str.5(%rip), %rdi
	leaq	l___unnamed_103(%rip), %rdx
	movl	$28, %esi
	callq	__ZN4core9panicking5panic17h383a6b80ea7021aaE
	.cfi_endproc

	.globl	__ZN4time8duration8Duration11checked_sub17hcdd864e4bfef021bE
	.p2align	4, 0x90
__ZN4time8duration8Duration11checked_sub17hcdd864e4bfef021bE:
	.cfi_startproc
	pushq	%rbp
	.cfi_def_cfa_offset 16
	.cfi_offset %rbp, -16
	movq	%rsp, %rbp
	.cfi_def_cfa_register %rbp
	movq	%rdi, %rax
	movq	(%rsi), %rcx
	subq	(%rdx), %rcx
	jo	LBB36_1
	movl	8(%rsi), %esi
	subl	8(%rdx), %esi
	jo	LBB36_14
	testl	%esi, %esi
	jns	LBB36_6
	decq	%rcx
	jo	LBB36_1
	addl	$1000000000, %esi
LBB36_6:
	movabsq	$-9223372036854776, %rdx
	xorl	%edi, %edi
	cmpq	%rdx, %rcx
	setne	%dil
	movl	$255, %edx
	cmovgel	%edi, %edx
	cmpb	$-1, %dl
	je	LBB36_1
	testb	%dl, %dl
	jne	LBB36_9
	cmpl	$192000000, %esi
	jl	LBB36_1
LBB36_9:
	movabsq	$9223372036854775, %rdx
	xorl	%edi, %edi
	cmpq	%rdx, %rcx
	setne	%dil
	movl	$255, %edx
	cmovgel	%edi, %edx
	testb	%dl, %dl
	jne	LBB36_11
	cmpl	$807000000, %esi
	setne	%dl
	jl	LBB36_12
LBB36_11:
	cmpb	$1, %dl
	jne	LBB36_12
LBB36_1:
	xorl	%ecx, %ecx
	movq	%rcx, (%rax)
	popq	%rbp
	retq
LBB36_12:
	movq	%rcx, 8(%rax)
	movl	%esi, 16(%rax)
	movl	$1, %ecx
	movq	%rcx, (%rax)
	popq	%rbp
	retq
LBB36_14:
	leaq	_str.3(%rip), %rdi
	leaq	l___unnamed_104(%rip), %rdx
	movl	$33, %esi
	callq	__ZN4core9panicking5panic17h383a6b80ea7021aaE
	.cfi_endproc

	.globl	__ZN4time8duration8Duration8from_std17hd73bdb822acd413aE
	.p2align	4, 0x90
__ZN4time8duration8Duration8from_std17hd73bdb822acd413aE:
	.cfi_startproc
	pushq	%rbp
	.cfi_def_cfa_offset 16
	.cfi_offset %rbp, -16
	movq	%rsp, %rbp
	.cfi_def_cfa_register %rbp
	movq	%rdi, %rax
	movabsq	$9223372036854775, %rdi
	movl	$1, %ecx
	cmpq	%rdi, %rsi
	ja	LBB37_4
	jne	LBB37_3
	cmpl	$807000001, %edx
	jl	LBB37_3
LBB37_4:
	movq	%rcx, (%rax)
	popq	%rbp
	retq
LBB37_3:
	movq	%rsi, 8(%rax)
	movl	%edx, 16(%rax)
	xorl	%ecx, %ecx
	movq	%rcx, (%rax)
	popq	%rbp
	retq
	.cfi_endproc

	.globl	__ZN4time8duration8Duration6to_std17h03337d46d0467542E
	.p2align	4, 0x90
__ZN4time8duration8Duration6to_std17h03337d46d0467542E:
	.cfi_startproc
	pushq	%rbp
	.cfi_def_cfa_offset 16
	.cfi_offset %rbp, -16
	movq	%rsp, %rbp
	.cfi_def_cfa_register %rbp
	movq	%rdi, %rax
	movq	(%rsi), %rcx
	testq	%rcx, %rcx
	js	LBB38_1
	movl	8(%rsi), %edx
	movl	%edx, %esi
	shrl	$9, %esi
	imulq	$281475, %rsi, %rsi
	shrq	$39, %rsi
	addq	%rsi, %rcx
	imull	$1000000000, %esi, %esi
	subl	%esi, %edx
	movq	%rcx, 8(%rax)
	movl	%edx, 16(%rax)
	xorl	%ecx, %ecx
	movq	%rcx, (%rax)
	popq	%rbp
	retq
LBB38_1:
	movl	$1, %ecx
	movq	%rcx, (%rax)
	popq	%rbp
	retq
	.cfi_endproc

	.globl	__ZN66_$LT$time..duration..Duration$u20$as$u20$core..ops..arith..Add$GT$3add17hf9e944fdce5f175eE
	.p2align	4, 0x90
__ZN66_$LT$time..duration..Duration$u20$as$u20$core..ops..arith..Add$GT$3add17hf9e944fdce5f175eE:
	.cfi_startproc
	pushq	%rbp
	.cfi_def_cfa_offset 16
	.cfi_offset %rbp, -16
	movq	%rsp, %rbp
	.cfi_def_cfa_register %rbp
	movq	%rdx, %r8
	movq	%rdi, %rax
	addq	%rdx, %rax
	jo	LBB39_6
	movl	%esi, %edx
	addl	%ecx, %edx
	jo	LBB39_7
	cmpl	$1000000000, %edx
	jl	LBB39_5
	incq	%rax
	jo	LBB39_8
	addl	$-1000000000, %edx
LBB39_5:
	popq	%rbp
	retq
LBB39_6:
	leaq	_str.5(%rip), %rdi
	leaq	l___unnamed_105(%rip), %rdx
	movl	$28, %esi
	callq	__ZN4core9panicking5panic17h383a6b80ea7021aaE
LBB39_7:
	leaq	_str.5(%rip), %rdi
	leaq	l___unnamed_106(%rip), %rdx
	movl	$28, %esi
	callq	__ZN4core9panicking5panic17h383a6b80ea7021aaE
LBB39_8:
	leaq	_str.5(%rip), %rdi
	leaq	l___unnamed_107(%rip), %rdx
	movl	$28, %esi
	callq	__ZN4core9panicking5panic17h383a6b80ea7021aaE
	.cfi_endproc

	.globl	__ZN66_$LT$time..duration..Duration$u20$as$u20$core..ops..arith..Sub$GT$3sub17hb7e2d45958753bc9E
	.p2align	4, 0x90
__ZN66_$LT$time..duration..Duration$u20$as$u20$core..ops..arith..Sub$GT$3sub17hb7e2d45958753bc9E:
	.cfi_startproc
	pushq	%rbp
	.cfi_def_cfa_offset 16
	.cfi_offset %rbp, -16
	movq	%rsp, %rbp
	.cfi_def_cfa_register %rbp
	movq	%rdx, %r8
	movq	%rdi, %rax
	subq	%rdx, %rax
	jo	LBB40_6
	movl	%esi, %edx
	subl	%ecx, %edx
	jo	LBB40_7
	testl	%edx, %edx
	js	LBB40_3
	popq	%rbp
	retq
LBB40_3:
	decq	%rax
	jo	LBB40_8
	addl	$1000000000, %edx
	popq	%rbp
	retq
LBB40_6:
	leaq	_str.3(%rip), %rdi
	leaq	l___unnamed_108(%rip), %rdx
	movl	$33, %esi
	callq	__ZN4core9panicking5panic17h383a6b80ea7021aaE
LBB40_7:
	leaq	_str.3(%rip), %rdi
	leaq	l___unnamed_109(%rip), %rdx
	movl	$33, %esi
	callq	__ZN4core9panicking5panic17h383a6b80ea7021aaE
LBB40_8:
	leaq	_str.3(%rip), %rdi
	leaq	l___unnamed_110(%rip), %rdx
	movl	$33, %esi
	callq	__ZN4core9panicking5panic17h383a6b80ea7021aaE
	.cfi_endproc

	.globl	__ZN77_$LT$time..duration..Duration$u20$as$u20$core..ops..arith..Mul$LT$i32$GT$$GT$3mul17h2a92bdd6edfe83acE
	.p2align	4, 0x90
__ZN77_$LT$time..duration..Duration$u20$as$u20$core..ops..arith..Mul$LT$i32$GT$$GT$3mul17h2a92bdd6edfe83acE:
	.cfi_startproc
	pushq	%rbp
	.cfi_def_cfa_offset 16
	.cfi_offset %rbp, -16
	movq	%rsp, %rbp
	.cfi_def_cfa_register %rbp
	movslq	%edx, %r8
	movslq	%esi, %rcx
	imulq	%r8, %rcx
	movabsq	$1237940039285380275, %rdx
	movq	%rcx, %rax
	imulq	%rdx
	movq	%rdi, %rax
	movq	%rdx, %rsi
	shrq	$63, %rsi
	sarq	$26, %rdx
	addq	%rsi, %rdx
	imulq	$1000000000, %rdx, %rdi
	movq	%rcx, %rsi
	subq	%rdi, %rsi
	negq	%rdi
	testq	%rsi, %rsi
	leaq	1000000000(%rcx,%rdi), %rcx
	cmovnsq	%rsi, %rcx
	imulq	%r8, %rax
	jo	LBB41_3
	sarq	$63, %rsi
	addq	%rdx, %rsi
	addq	%rsi, %rax
	jo	LBB41_4
	movl	%ecx, %edx
	popq	%rbp
	retq
LBB41_3:
	leaq	_str.2(%rip), %rdi
	leaq	l___unnamed_111(%rip), %rdx
	movl	$33, %esi
	callq	__ZN4core9panicking5panic17h383a6b80ea7021aaE
LBB41_4:
	leaq	_str.5(%rip), %rdi
	leaq	l___unnamed_111(%rip), %rdx
	movl	$28, %esi
	callq	__ZN4core9panicking5panic17h383a6b80ea7021aaE
	.cfi_endproc

	.globl	__ZN77_$LT$time..duration..Duration$u20$as$u20$core..ops..arith..Div$LT$i32$GT$$GT$3div17h0ec65482f8c1c70eE
	.p2align	4, 0x90
__ZN77_$LT$time..duration..Duration$u20$as$u20$core..ops..arith..Div$LT$i32$GT$$GT$3div17h0ec65482f8c1c70eE:
	.cfi_startproc
	pushq	%rbp
	.cfi_def_cfa_offset 16
	.cfi_offset %rbp, -16
	movq	%rsp, %rbp
	.cfi_def_cfa_register %rbp
	testl	%edx, %edx
	je	LBB42_18
	movl	%edx, %ecx
	movl	%esi, %r8d
	movabsq	$-9223372036854775808, %r10
	cmpq	%r10, %rdi
	jne	LBB42_3
	cmpl	$-1, %ecx
	je	LBB42_19
LBB42_3:
	movslq	%ecx, %rsi
	movq	%rdi, %rax
	cqto
	idivq	%rsi
	movq	%rax, %r9
	imulq	%rsi, %rax
	jo	LBB42_20
	subq	%rax, %rdi
	jo	LBB42_21
	imulq	$1000000000, %rdi, %rax
	jo	LBB42_22
	cmpl	$-1, %ecx
	jne	LBB42_8
	cmpq	%r10, %rax
	je	LBB42_23
LBB42_8:
	cmpl	$-2147483648, %r8d
	jne	LBB42_10
	cmpl	$-1, %ecx
	je	LBB42_24
LBB42_10:
	cqto
	idivq	%rsi
	movq	%rax, %rdi
	movl	%r8d, %eax
	cltd
	idivl	%ecx
	addl	%eax, %edi
	jo	LBB42_25
	cmpl	$1000000000, %edi
	jl	LBB42_14
	incq	%r9
	jo	LBB42_26
	addl	$-1000000000, %edi
LBB42_17:
	movq	%r9, %rax
	movl	%edi, %edx
	popq	%rbp
	retq
LBB42_14:
	testl	%edi, %edi
	jns	LBB42_17
	decq	%r9
	jo	LBB42_27
	addl	$1000000000, %edi
	movq	%r9, %rax
	movl	%edi, %edx
	popq	%rbp
	retq
LBB42_18:
	leaq	_str.0(%rip), %rdi
	leaq	l___unnamed_112(%rip), %rdx
	movl	$25, %esi
	callq	__ZN4core9panicking5panic17h383a6b80ea7021aaE
LBB42_19:
	leaq	_str.1(%rip), %rdi
	leaq	l___unnamed_112(%rip), %rdx
	movl	$31, %esi
	callq	__ZN4core9panicking5panic17h383a6b80ea7021aaE
LBB42_20:
	leaq	_str.2(%rip), %rdi
	leaq	l___unnamed_113(%rip), %rdx
	movl	$33, %esi
	callq	__ZN4core9panicking5panic17h383a6b80ea7021aaE
LBB42_21:
	leaq	_str.3(%rip), %rdi
	leaq	l___unnamed_114(%rip), %rdx
	movl	$33, %esi
	callq	__ZN4core9panicking5panic17h383a6b80ea7021aaE
LBB42_22:
	leaq	_str.2(%rip), %rdi
	leaq	l___unnamed_115(%rip), %rdx
	movl	$33, %esi
	callq	__ZN4core9panicking5panic17h383a6b80ea7021aaE
LBB42_23:
	leaq	_str.1(%rip), %rdi
	leaq	l___unnamed_115(%rip), %rdx
	movl	$31, %esi
	callq	__ZN4core9panicking5panic17h383a6b80ea7021aaE
LBB42_24:
	leaq	_str.1(%rip), %rdi
	leaq	l___unnamed_116(%rip), %rdx
	movl	$31, %esi
	callq	__ZN4core9panicking5panic17h383a6b80ea7021aaE
LBB42_25:
	leaq	_str.5(%rip), %rdi
	leaq	l___unnamed_116(%rip), %rdx
	movl	$28, %esi
	callq	__ZN4core9panicking5panic17h383a6b80ea7021aaE
LBB42_26:
	leaq	_str.5(%rip), %rdi
	leaq	l___unnamed_117(%rip), %rdx
	movl	$28, %esi
	callq	__ZN4core9panicking5panic17h383a6b80ea7021aaE
LBB42_27:
	leaq	_str.3(%rip), %rdi
	leaq	l___unnamed_118(%rip), %rdx
	movl	$33, %esi
	callq	__ZN4core9panicking5panic17h383a6b80ea7021aaE
	.cfi_endproc

	.globl	__ZN63_$LT$time..duration..Duration$u20$as$u20$core..fmt..Display$GT$3fmt17hf724f69d4309b72dE
	.p2align	4, 0x90
__ZN63_$LT$time..duration..Duration$u20$as$u20$core..fmt..Display$GT$3fmt17hf724f69d4309b72dE:
	.cfi_startproc
	pushq	%rbp
	.cfi_def_cfa_offset 16
	.cfi_offset %rbp, -16
	movq	%rsp, %rbp
	.cfi_def_cfa_register %rbp
	pushq	%r15
	pushq	%r14
	pushq	%r13
	pushq	%r12
	pushq	%rbx
	subq	$136, %rsp
	.cfi_offset %rbx, -56
	.cfi_offset %r12, -48
	.cfi_offset %r13, -40
	.cfi_offset %r14, -32
	.cfi_offset %r15, -24
	movq	%rsi, %r14
	movq	(%rdi), %rbx
	movl	8(%rdi), %ecx
	testq	%rbx, %rbx
	js	LBB43_2
	xorl	%eax, %eax
	leaq	l___unnamed_54(%rip), %rdx
	jmp	LBB43_6
LBB43_2:
	movabsq	$-9223372036854775808, %rax
	testl	%ecx, %ecx
	je	LBB43_13
	cmpq	%rax, %rbx
	je	LBB43_16
	movl	$1000000000, %esi
	subl	%ecx, %esi
	jo	LBB43_17
	notq	%rbx
	leaq	l___unnamed_43(%rip), %rdx
	movl	$1, %eax
	movl	%esi, %ecx
	jmp	LBB43_6
LBB43_13:
	cmpq	%rax, %rbx
	je	LBB43_15
	negq	%rbx
	xorl	%ecx, %ecx
	leaq	l___unnamed_43(%rip), %rdx
	movl	$1, %eax
LBB43_6:
	movq	%rbx, -152(%rbp)
	movl	%ecx, -144(%rbp)
	movq	%rdx, -176(%rbp)
	movq	%rax, -168(%rbp)
	movabsq	$1749024623285053783, %rdx
	movq	%rbx, %rax
	imulq	%rdx
	movq	%rdx, %rax
	shrq	$63, %rax
	sarq	$13, %rdx
	addq	%rax, %rdx
	movq	%rdx, -160(%rbp)
	imulq	$86400, %rdx, %rdx
	movq	%rbx, %rax
	subq	%rdx, %rax
	jo	LBB43_28
	movq	%rax, -136(%rbp)
	addq	$86399, %rbx
	cmpq	$172799, %rbx
	setb	%r13b
	testq	%rax, %rax
	setne	%r12b
	testl	%ecx, %ecx
	setne	%r15b
	leaq	-176(%rbp), %rax
	movq	%rax, -128(%rbp)
	leaq	__ZN44_$LT$$RF$T$u20$as$u20$core..fmt..Display$GT$3fmt17h292685221a0ad6f0E(%rip), %rax
	movq	%rax, -120(%rbp)
	leaq	l___unnamed_119(%rip), %rax
	movq	%rax, -96(%rbp)
	movq	$2, -88(%rbp)
	movq	$0, -80(%rbp)
	leaq	-128(%rbp), %rax
	movq	%rax, -64(%rbp)
	movq	$1, -56(%rbp)
	leaq	-96(%rbp), %rsi
	movq	%r14, %rdi
	callq	__ZN4core3fmt9Formatter9write_fmt17h742ca6aae87ad23cE
	testb	%al, %al
	je	LBB43_8
LBB43_24:
	movb	$1, %al
	jmp	LBB43_27
LBB43_8:
	cmpq	$172798, %rbx
	jbe	LBB43_10
	leaq	-160(%rbp), %rax
	movq	%rax, -128(%rbp)
	movq	__ZN4core3fmt3num3imp52_$LT$impl$u20$core..fmt..Display$u20$for$u20$i64$GT$3fmt17h310ed6661e8c983fE@GOTPCREL(%rip), %rax
	movq	%rax, -120(%rbp)
	leaq	l___unnamed_120(%rip), %rax
	movq	%rax, -96(%rbp)
	movq	$2, -88(%rbp)
	movq	$0, -80(%rbp)
	leaq	-128(%rbp), %rax
	movq	%rax, -64(%rbp)
	movq	$1, -56(%rbp)
	leaq	-96(%rbp), %rsi
	movq	%r14, %rdi
	callq	__ZN4core3fmt9Formatter9write_fmt17h742ca6aae87ad23cE
	testb	%al, %al
	jne	LBB43_24
LBB43_10:
	orb	%r13b, %r15b
	orb	%r15b, %r12b
	je	LBB43_26
	movl	-144(%rbp), %ecx
	testl	%ecx, %ecx
	je	LBB43_12
	movslq	%ecx, %rax
	imull	$1757569337, %ecx, %edx
	addl	$137408, %edx
	rorl	$6, %edx
	cmpl	$4294, %edx
	jbe	LBB43_19
	imull	$652835029, %ecx, %ecx
	addl	$17179864, %ecx
	rorl	$3, %ecx
	cmpl	$4294967, %ecx
	jb	LBB43_25
	leaq	-144(%rbp), %rax
	leaq	-136(%rbp), %rcx
	movq	%rcx, -128(%rbp)
	movq	__ZN4core3fmt3num3imp52_$LT$impl$u20$core..fmt..Display$u20$for$u20$i64$GT$3fmt17h310ed6661e8c983fE@GOTPCREL(%rip), %rcx
	movq	%rcx, -120(%rbp)
	movq	%rax, -112(%rbp)
	movq	__ZN4core3fmt3num3imp52_$LT$impl$u20$core..fmt..Display$u20$for$u20$i32$GT$3fmt17h00ed7ff77f9da654E@GOTPCREL(%rip), %rax
	movq	%rax, -104(%rbp)
	leaq	l___unnamed_121(%rip), %rax
	movq	%rax, -96(%rbp)
	movq	$3, -88(%rbp)
	leaq	l___unnamed_122(%rip), %rax
	jmp	LBB43_22
LBB43_12:
	leaq	-136(%rbp), %rax
	movq	%rax, -128(%rbp)
	movq	__ZN4core3fmt3num3imp52_$LT$impl$u20$core..fmt..Display$u20$for$u20$i64$GT$3fmt17h310ed6661e8c983fE@GOTPCREL(%rip), %rax
	movq	%rax, -120(%rbp)
	leaq	l___unnamed_123(%rip), %rax
	movq	%rax, -96(%rbp)
	movq	$2, -88(%rbp)
	movq	$0, -80(%rbp)
	leaq	-128(%rbp), %rax
	movq	%rax, -64(%rbp)
	movq	$1, -56(%rbp)
	jmp	LBB43_23
LBB43_19:
	imulq	$1125899907, %rax, %rax
	movq	%rax, %rcx
	shrq	$63, %rcx
	sarq	$50, %rax
	addl	%ecx, %eax
	movl	%eax, -44(%rbp)
	leaq	-136(%rbp), %rax
	movq	%rax, -128(%rbp)
	movq	__ZN4core3fmt3num3imp52_$LT$impl$u20$core..fmt..Display$u20$for$u20$i64$GT$3fmt17h310ed6661e8c983fE@GOTPCREL(%rip), %rax
	movq	%rax, -120(%rbp)
	leaq	-44(%rbp), %rax
	movq	%rax, -112(%rbp)
	movq	__ZN4core3fmt3num3imp52_$LT$impl$u20$core..fmt..Display$u20$for$u20$i32$GT$3fmt17h00ed7ff77f9da654E@GOTPCREL(%rip), %rax
	movq	%rax, -104(%rbp)
	leaq	l___unnamed_121(%rip), %rax
	movq	%rax, -96(%rbp)
	movq	$3, -88(%rbp)
	leaq	l___unnamed_124(%rip), %rax
	jmp	LBB43_22
LBB43_25:
	imulq	$274877907, %rax, %rax
	movq	%rax, %rcx
	shrq	$63, %rcx
	sarq	$38, %rax
	addl	%ecx, %eax
	movl	%eax, -44(%rbp)
	leaq	-136(%rbp), %rax
	movq	%rax, -128(%rbp)
	movq	__ZN4core3fmt3num3imp52_$LT$impl$u20$core..fmt..Display$u20$for$u20$i64$GT$3fmt17h310ed6661e8c983fE@GOTPCREL(%rip), %rax
	movq	%rax, -120(%rbp)
	leaq	-44(%rbp), %rax
	movq	%rax, -112(%rbp)
	movq	__ZN4core3fmt3num3imp52_$LT$impl$u20$core..fmt..Display$u20$for$u20$i32$GT$3fmt17h00ed7ff77f9da654E@GOTPCREL(%rip), %rax
	movq	%rax, -104(%rbp)
	leaq	l___unnamed_121(%rip), %rax
	movq	%rax, -96(%rbp)
	movq	$3, -88(%rbp)
	leaq	l___unnamed_125(%rip), %rax
LBB43_22:
	movq	%rax, -80(%rbp)
	movq	$2, -72(%rbp)
	leaq	-128(%rbp), %rax
	movq	%rax, -64(%rbp)
	movq	$2, -56(%rbp)
LBB43_23:
	leaq	-96(%rbp), %rsi
	movq	%r14, %rdi
	callq	__ZN4core3fmt9Formatter9write_fmt17h742ca6aae87ad23cE
	testb	%al, %al
	jne	LBB43_24
LBB43_26:
	xorl	%eax, %eax
LBB43_27:
	addq	$136, %rsp
	popq	%rbx
	popq	%r12
	popq	%r13
	popq	%r14
	popq	%r15
	popq	%rbp
	retq
LBB43_28:
	leaq	_str.3(%rip), %rdi
	leaq	l___unnamed_126(%rip), %rdx
	movl	$33, %esi
	callq	__ZN4core9panicking5panic17h383a6b80ea7021aaE
LBB43_16:
	leaq	_str.6(%rip), %rdi
	leaq	l___unnamed_127(%rip), %rdx
	movl	$31, %esi
	callq	__ZN4core9panicking5panic17h383a6b80ea7021aaE
LBB43_17:
	leaq	_str.3(%rip), %rdi
	leaq	l___unnamed_128(%rip), %rdx
	movl	$33, %esi
	callq	__ZN4core9panicking5panic17h383a6b80ea7021aaE
LBB43_15:
	leaq	_str.6(%rip), %rdi
	leaq	l___unnamed_129(%rip), %rdx
	movl	$31, %esi
	callq	__ZN4core9panicking5panic17h383a6b80ea7021aaE
	.cfi_endproc

	.globl	__ZN70_$LT$time..duration..OutOfRangeError$u20$as$u20$core..fmt..Display$GT$3fmt17h5b4e784368670164E
	.p2align	4, 0x90
__ZN70_$LT$time..duration..OutOfRangeError$u20$as$u20$core..fmt..Display$GT$3fmt17h5b4e784368670164E:
	.cfi_startproc
	pushq	%rbp
	.cfi_def_cfa_offset 16
	.cfi_offset %rbp, -16
	movq	%rsp, %rbp
	.cfi_def_cfa_register %rbp
	subq	$80, %rsp
	movq	%rsi, %rdi
	leaq	l___unnamed_130(%rip), %rax
	movq	%rax, -32(%rbp)
	movq	$57, -24(%rbp)
	leaq	-32(%rbp), %rax
	movq	%rax, -16(%rbp)
	leaq	__ZN44_$LT$$RF$T$u20$as$u20$core..fmt..Display$GT$3fmt17h292685221a0ad6f0E(%rip), %rax
	movq	%rax, -8(%rbp)
	leaq	l___unnamed_23(%rip), %rax
	movq	%rax, -80(%rbp)
	movq	$1, -72(%rbp)
	movq	$0, -64(%rbp)
	leaq	-16(%rbp), %rax
	movq	%rax, -48(%rbp)
	movq	$1, -40(%rbp)
	leaq	-80(%rbp), %rsi
	callq	__ZN4core3fmt9Formatter9write_fmt17h742ca6aae87ad23cE
	addq	$80, %rsp
	popq	%rbp
	retq
	.cfi_endproc

	.globl	__ZN69_$LT$time..duration..OutOfRangeError$u20$as$u20$std..error..Error$GT$11description17h6f5330c14db6ff24E
	.p2align	4, 0x90
__ZN69_$LT$time..duration..OutOfRangeError$u20$as$u20$std..error..Error$GT$11description17h6f5330c14db6ff24E:
	.cfi_startproc
	pushq	%rbp
	.cfi_def_cfa_offset 16
	.cfi_offset %rbp, -16
	movq	%rsp, %rbp
	.cfi_def_cfa_register %rbp
	leaq	l___unnamed_130(%rip), %rax
	movl	$57, %edx
	popq	%rbp
	retq
	.cfi_endproc

	.globl	__ZN4time5parse8strptime17hb4fb3fbeb35485f4E
	.p2align	4, 0x90
__ZN4time5parse8strptime17hb4fb3fbeb35485f4E:
	.cfi_startproc
	pushq	%rbp
	.cfi_def_cfa_offset 16
	.cfi_offset %rbp, -16
	movq	%rsp, %rbp
	.cfi_def_cfa_register %rbp
	pushq	%r15
	pushq	%r14
	pushq	%r13
	pushq	%r12
	pushq	%rbx
	subq	$120, %rsp
	.cfi_offset %rbx, -56
	.cfi_offset %r12, -48
	.cfi_offset %r13, -40
	.cfi_offset %r14, -32
	.cfi_offset %r15, -24
	movq	%rdi, %r14
	movq	%rsi, -56(%rbp)
	movq	%rdx, -48(%rbp)
	xorps	%xmm0, %xmm0
	movaps	%xmm0, -112(%rbp)
	movaps	%xmm0, -128(%rbp)
	movl	$0, -88(%rbp)
	movq	$0, -96(%rbp)
	testq	%r8, %r8
	je	LBB46_21
	movq	%r8, %r15
	addq	%rcx, %r15
	leaq	-80(%rbp), %r12
	leaq	-56(%rbp), %r13
	jmp	LBB46_2
	.p2align	4, 0x90
LBB46_68:
	addq	%rdi, %rsi
	movq	%rsi, -56(%rbp)
	movq	%rcx, -48(%rbp)
LBB46_69:
	movq	%rax, %rcx
	cmpq	%r15, %rax
	je	LBB46_21
LBB46_2:
	leaq	1(%rcx), %rax
	movzbl	(%rcx), %edx
	testb	%dl, %dl
	js	LBB46_3
	cmpl	$37, %edx
	je	LBB46_47
LBB46_20:
	cmpl	$1114112, %edx
	je	LBB46_21
	movq	-48(%rbp), %rcx
	movl	$10, %edi
	testq	%rcx, %rcx
	je	LBB46_23
	movq	-56(%rbp), %rsi
	movzbl	(%rsi), %ebx
	testb	%bl, %bl
	jns	LBB46_38
	leaq	(%rsi,%rcx), %r10
	xorl	%r8d, %r8d
	movq	%r10, %r11
	cmpq	$1, %rcx
	je	LBB46_27
	leaq	2(%rsi), %r11
	movzbl	1(%rsi), %r8d
	andl	$63, %r8d
LBB46_27:
	movl	%ebx, %r9d
	andl	$31, %r9d
	cmpb	$-33, %bl
	jbe	LBB46_28
	movq	%r12, %r13
	cmpq	%r10, %r11
	je	LBB46_30
	movzbl	(%r11), %r12d
	incq	%r11
	andl	$63, %r12d
	shll	$6, %r8d
	orl	%r12d, %r8d
	cmpb	$-16, %bl
	jb	LBB46_33
LBB46_34:
	cmpq	%r10, %r11
	movq	%r13, %r12
	je	LBB46_35
	movzbl	(%r11), %ebx
	andl	$63, %ebx
	jmp	LBB46_37
	.p2align	4, 0x90
LBB46_3:
	cmpq	%r15, %rax
	je	LBB46_4
	movzbl	1(%rcx), %esi
	addq	$2, %rcx
	andl	$63, %esi
	movq	%rcx, %rax
	movl	%edx, %ecx
	andl	$31, %ecx
	cmpb	$-33, %dl
	jbe	LBB46_7
LBB46_9:
	cmpq	%r15, %rax
	je	LBB46_10
	movzbl	(%rax), %ebx
	incq	%rax
	andl	$63, %ebx
	movq	%rax, %rdi
	shll	$6, %esi
	orl	%ebx, %esi
	cmpb	$-16, %dl
	jb	LBB46_13
LBB46_14:
	cmpq	%r15, %rdi
	je	LBB46_15
	movzbl	(%rdi), %edx
	incq	%rdi
	andl	$63, %edx
	movq	%rdi, %rax
	jmp	LBB46_17
LBB46_4:
	xorl	%esi, %esi
	movq	%r15, %rax
	movl	%edx, %ecx
	andl	$31, %ecx
	cmpb	$-33, %dl
	ja	LBB46_9
LBB46_7:
	shll	$6, %ecx
	orl	%ecx, %esi
	movl	%esi, %edx
	cmpl	$37, %edx
	jne	LBB46_20
	jmp	LBB46_47
LBB46_28:
	shll	$6, %r9d
	orl	%r9d, %r8d
	movl	%r8d, %ebx
	jmp	LBB46_38
LBB46_10:
	xorl	%ebx, %ebx
	movq	%r15, %rdi
	shll	$6, %esi
	orl	%ebx, %esi
	cmpb	$-16, %dl
	jae	LBB46_14
LBB46_13:
	shll	$12, %ecx
	orl	%ecx, %esi
	movl	%esi, %edx
	cmpl	$37, %edx
	jne	LBB46_20
	jmp	LBB46_47
LBB46_15:
	xorl	%edx, %edx
LBB46_17:
	andl	$7, %ecx
	shll	$18, %ecx
	shll	$6, %esi
	orl	%ecx, %esi
	orl	%edx, %esi
	movl	%esi, %edx
	cmpl	$37, %edx
	jne	LBB46_20
	.p2align	4, 0x90
LBB46_47:
	cmpq	%r15, %rax
	je	LBB46_21
	leaq	1(%rax), %rbx
	movzbl	(%rax), %edx
	testb	%dl, %dl
	jns	LBB46_64
	cmpq	%r15, %rbx
	je	LBB46_50
	movzbl	1(%rax), %ecx
	addq	$2, %rax
	andl	$63, %ecx
	movq	%rax, %rbx
	movl	%edx, %eax
	andl	$31, %eax
	cmpb	$-33, %dl
	jbe	LBB46_53
LBB46_55:
	cmpq	%r15, %rbx
	je	LBB46_56
	movzbl	(%rbx), %edi
	incq	%rbx
	andl	$63, %edi
	movq	%rbx, %rsi
	shll	$6, %ecx
	orl	%edi, %ecx
	cmpb	$-16, %dl
	jb	LBB46_59
LBB46_60:
	cmpq	%r15, %rsi
	je	LBB46_61
	movzbl	(%rsi), %edx
	incq	%rsi
	andl	$63, %edx
	movq	%rsi, %rbx
	jmp	LBB46_63
LBB46_50:
	xorl	%ecx, %ecx
	movq	%r15, %rbx
	movl	%edx, %eax
	andl	$31, %eax
	cmpb	$-33, %dl
	ja	LBB46_55
LBB46_53:
	shll	$6, %eax
	jmp	LBB46_54
LBB46_30:
	xorl	%r12d, %r12d
	movq	%r10, %r11
	shll	$6, %r8d
	orl	%r12d, %r8d
	cmpb	$-16, %bl
	jae	LBB46_34
LBB46_33:
	shll	$12, %r9d
	orl	%r9d, %r8d
	movl	%r8d, %ebx
	movq	%r13, %r12
	leaq	-56(%rbp), %r13
	jmp	LBB46_38
LBB46_56:
	xorl	%edi, %edi
	movq	%r15, %rsi
	shll	$6, %ecx
	orl	%edi, %ecx
	cmpb	$-16, %dl
	jae	LBB46_60
LBB46_59:
	shll	$12, %eax
LBB46_54:
	orl	%eax, %ecx
	movl	%ecx, %edx
LBB46_64:
	movq	%r12, %rdi
	movq	%r13, %rsi
	leaq	-128(%rbp), %rcx
	callq	__ZN4time5parse10parse_type17h67f53a89eb577112E
	movl	-80(%rbp), %edi
	movq	%rbx, %rax
	cmpl	$15, %edi
	je	LBB46_69
	jmp	LBB46_65
LBB46_35:
	xorl	%ebx, %ebx
LBB46_37:
	leaq	-56(%rbp), %r13
	andl	$7, %r9d
	shll	$18, %r9d
	shll	$6, %r8d
	orl	%r9d, %r8d
	orl	%ebx, %r8d
	movl	%r8d, %ebx
	cmpl	$1114112, %r8d
	je	LBB46_66
	.p2align	4, 0x90
LBB46_38:
	cmpl	%edx, %ebx
	jne	LBB46_39
	movl	$1, %edi
	cmpl	$128, %edx
	jb	LBB46_43
	movl	$2, %edi
	cmpl	$2048, %edx
	jb	LBB46_43
	cmpl	$65536, %edx
	movl	$4, %edi
	sbbq	$0, %rdi
LBB46_43:
	movq	%rsi, -160(%rbp)
	movq	%rcx, -152(%rbp)
	movq	%rdi, -136(%rbp)
	movq	%rcx, -144(%rbp)
	subq	%rdi, %rcx
	je	LBB46_68
	jbe	LBB46_46
	cmpb	$-65, (%rsi,%rdi)
	jg	LBB46_68
	jmp	LBB46_46
LBB46_61:
	xorl	%edx, %edx
LBB46_63:
	andl	$7, %eax
	shll	$18, %eax
	shll	$6, %ecx
	orl	%eax, %ecx
	orl	%edx, %ecx
	movl	%ecx, %edx
	movq	%rbx, %rax
	cmpl	$1114112, %ecx
	je	LBB46_69
	jmp	LBB46_64
LBB46_21:
	movl	-88(%rbp), %eax
	movl	%eax, 44(%r14)
	movq	-96(%rbp), %rax
	movq	%rax, 36(%r14)
	movq	-104(%rbp), %rax
	movq	%rax, 28(%r14)
	movq	-112(%rbp), %rax
	movq	%rax, 20(%r14)
	movq	-128(%rbp), %rax
	movq	-120(%rbp), %rcx
	movq	%rcx, 12(%r14)
	movq	%rax, 4(%r14)
	movl	$0, (%r14)
	jmp	LBB46_67
LBB46_23:
	jmp	LBB46_66
LBB46_39:
	movl	%edx, %eax
	shlq	$32, %rbx
	orq	%rax, %rbx
	movl	$14, %edi
	jmp	LBB46_66
LBB46_65:
	movq	-76(%rbp), %rbx
LBB46_66:
	movl	%edi, 4(%r14)
	movq	%rbx, 8(%r14)
	movl	$1, (%r14)
LBB46_67:
	movq	%r14, %rax
	addq	$120, %rsp
	popq	%rbx
	popq	%r12
	popq	%r13
	popq	%r14
	popq	%r15
	popq	%rbp
	retq
LBB46_46:
	leaq	-160(%rbp), %rax
	movq	%rax, -80(%rbp)
	leaq	-136(%rbp), %rax
	movq	%rax, -72(%rbp)
	leaq	-144(%rbp), %rax
	movq	%rax, -64(%rbp)
	leaq	-80(%rbp), %rdi
	callq	__ZN4core3str6traits105_$LT$impl$u20$core..slice..SliceIndex$LT$str$GT$$u20$for$u20$core..ops..range..RangeFrom$LT$usize$GT$$GT$5index28_$u7b$$u7b$closure$u7d$$u7d$17h96cecb2ca76e37c9E
	.cfi_endproc

	.p2align	4, 0x90
__ZN4time5parse10parse_type17h67f53a89eb577112E:
Lfunc_begin2:
	.cfi_startproc
	.cfi_personality 155, _rust_eh_personality
	.cfi_lsda 16, Lexception2
	pushq	%rbp
	.cfi_def_cfa_offset 16
	.cfi_offset %rbp, -16
	movq	%rsp, %rbp
	.cfi_def_cfa_register %rbp
	pushq	%r15
	pushq	%r14
	pushq	%r13
	pushq	%r12
	pushq	%rbx
	subq	$216, %rsp
	.cfi_offset %rbx, -56
	.cfi_offset %r12, -48
	.cfi_offset %r13, -40
	.cfi_offset %r14, -32
	.cfi_offset %r15, -24
	movq	%rdi, %r15
	leal	-37(%rdx), %eax
	cmpl	$85, %eax
	ja	LBB47_219
	movq	%rcx, %r14
	movq	%rsi, %r13
	leaq	LJTI47_0(%rip), %rcx
	movslq	(%rcx,%rax,4), %rax
	addq	%rcx, %rax
	jmpq	*%rax
LBB47_2:
	leaq	-72(%rbp), %r12
	movq	%r12, %rdi
	movq	%r13, %rsi
	movl	$109, %edx
	movq	%r14, %rcx
	callq	__ZN4time5parse10parse_type17h67f53a89eb577112E
	movl	-72(%rbp), %eax
	cmpl	$15, %eax
	jne	LBB47_166
	movq	8(%r13), %rcx
	movl	$10, %eax
	testq	%rcx, %rcx
	je	LBB47_167
	movq	(%r13), %rdx
	movzbl	(%rdx), %esi
	testb	%sil, %sil
	jns	LBB47_332
	leaq	(%rdx,%rcx), %r8
	xorl	%edi, %edi
	movq	%r8, %r9
	cmpq	$1, %rcx
	je	LBB47_7
	leaq	2(%rdx), %r9
	movzbl	1(%rdx), %edi
	andl	$63, %edi
LBB47_7:
	movl	%esi, %ebx
	andl	$31, %ebx
	cmpb	$-33, %sil
	jbe	LBB47_310
	cmpq	%r8, %r9
	je	LBB47_326
	movzbl	(%r9), %r10d
	incq	%r9
	andl	$63, %r10d
	jmp	LBB47_327
LBB47_10:
	leaq	-72(%rbp), %r12
	movq	%r12, %rdi
	movq	%r13, %rsi
	movl	$72, %edx
	movq	%r14, %rcx
	callq	__ZN4time5parse10parse_type17h67f53a89eb577112E
	movl	-72(%rbp), %eax
	cmpl	$15, %eax
	jne	LBB47_166
	movq	8(%r13), %rcx
	movl	$10, %eax
	testq	%rcx, %rcx
	je	LBB47_167
	movq	(%r13), %rdx
	movzbl	(%rdx), %esi
	testb	%sil, %sil
	jns	LBB47_350
	leaq	(%rdx,%rcx), %r8
	xorl	%edi, %edi
	movq	%r8, %r9
	cmpq	$1, %rcx
	je	LBB47_15
	leaq	2(%rdx), %r9
	movzbl	1(%rdx), %edi
	andl	$63, %edi
LBB47_15:
	movl	%esi, %ebx
	andl	$31, %ebx
	cmpb	$-33, %sil
	jbe	LBB47_311
	cmpq	%r8, %r9
	je	LBB47_344
	movzbl	(%r9), %r10d
	incq	%r9
	andl	$63, %r10d
	jmp	LBB47_345
LBB47_18:
	movq	8(%r13), %rax
	cmpq	$3, %rax
	jae	LBB47_22
LBB47_111:
	movl	$4, (%r15)
	jmp	LBB47_724
LBB47_20:
	movups	(%r13), %xmm0
	movaps	%xmm0, -208(%rbp)
	movl	$1, %esi
	movl	$2, %edx
	movq	%r13, %rdi
	xorl	%ecx, %ecx
	callq	__ZN4time5parse16match_digits_i6417hb97c811f933016e8E
	testq	%rax, %rax
	je	LBB47_155
	cmpl	$100, %edx
	jb	LBB47_129
	jmp	LBB47_155
LBB47_22:
	movq	(%r13), %rcx
	leaq	l___unnamed_131(%rip), %rdx
	leaq	l___unnamed_31(%rip), %rsi
	cmpq	%rsi, %rcx
	je	LBB47_720
	movzwl	(%rcx), %esi
	xorl	$24906, %esi
	movzbl	2(%rcx), %edi
	xorl	$110, %edi
	orw	%si, %di
	je	LBB47_720
	leaq	l___unnamed_131+24(%rip), %rdx
	leaq	l___unnamed_32(%rip), %rsi
	cmpq	%rsi, %rcx
	je	LBB47_720
	movzwl	(%rcx), %esi
	xorl	$25926, %esi
	movzbl	2(%rcx), %edi
	xorl	$98, %edi
	orw	%si, %di
	je	LBB47_720
	leaq	l___unnamed_131+48(%rip), %rdx
	leaq	l___unnamed_59(%rip), %rsi
	cmpq	%rsi, %rcx
	je	LBB47_720
	movzwl	(%rcx), %esi
	xorl	$24909, %esi
	movzbl	2(%rcx), %edi
	xorl	$114, %edi
	orw	%si, %di
	je	LBB47_720
	leaq	l___unnamed_131+72(%rip), %rdx
	leaq	l___unnamed_60(%rip), %rsi
	cmpq	%rsi, %rcx
	je	LBB47_720
	movzwl	(%rcx), %esi
	xorl	$28737, %esi
	movzbl	2(%rcx), %edi
	xorl	$114, %edi
	orw	%si, %di
	je	LBB47_720
	leaq	l___unnamed_131+96(%rip), %rdx
	leaq	l___unnamed_56(%rip), %rsi
	cmpq	%rsi, %rcx
	je	LBB47_720
	movzwl	(%rcx), %esi
	xorl	$24909, %esi
	movzbl	2(%rcx), %edi
	xorl	$121, %edi
	orw	%si, %di
	je	LBB47_720
	leaq	l___unnamed_131+120(%rip), %rdx
	leaq	l___unnamed_62(%rip), %rsi
	cmpq	%rsi, %rcx
	je	LBB47_720
	movzwl	(%rcx), %esi
	xorl	$30026, %esi
	movzbl	2(%rcx), %edi
	xorl	$110, %edi
	orw	%si, %di
	je	LBB47_720
	leaq	l___unnamed_131+144(%rip), %rdx
	leaq	l___unnamed_63(%rip), %rsi
	cmpq	%rsi, %rcx
	je	LBB47_720
	movzwl	(%rcx), %esi
	xorl	$30026, %esi
	movzbl	2(%rcx), %edi
	xorl	$108, %edi
	orw	%si, %di
	je	LBB47_720
	movq	%r13, %r9
	movq	%r14, %r8
	movq	%r15, %rbx
	leaq	l___unnamed_131+168(%rip), %rdx
	leaq	l___unnamed_61(%rip), %rsi
	cmpq	%rsi, %rcx
	je	LBB47_719
	movzwl	(%rcx), %esi
	xorl	$30017, %esi
	movzbl	2(%rcx), %edi
	xorl	$103, %edi
	orw	%si, %di
	movq	%rbx, %r15
	movq	%r8, %r14
	movq	%r9, %r13
	je	LBB47_720
	leaq	l___unnamed_131+192(%rip), %rdx
	leaq	l___unnamed_64(%rip), %rsi
	cmpq	%rsi, %rcx
	je	LBB47_719
	movzwl	(%rcx), %esi
	xorl	$25939, %esi
	movzbl	2(%rcx), %edi
	xorl	$112, %edi
	orw	%si, %di
	movq	%rbx, %r15
	movq	%r8, %r14
	movq	%r9, %r13
	je	LBB47_720
	leaq	l___unnamed_131+216(%rip), %rdx
	leaq	l___unnamed_58(%rip), %rsi
	cmpq	%rsi, %rcx
	je	LBB47_719
	movzwl	(%rcx), %esi
	xorl	$25423, %esi
	movzbl	2(%rcx), %edi
	xorl	$116, %edi
	orw	%si, %di
	movq	%rbx, %r15
	movq	%r8, %r14
	movq	%r9, %r13
	je	LBB47_720
	leaq	l___unnamed_131+240(%rip), %rdx
	leaq	l___unnamed_65(%rip), %rsi
	cmpq	%rsi, %rcx
	je	LBB47_719
	movzwl	(%rcx), %esi
	xorl	$28494, %esi
	movzbl	2(%rcx), %edi
	xorl	$118, %edi
	orw	%si, %di
	movq	%rbx, %r15
	movq	%r8, %r14
	movq	%r9, %r13
	je	LBB47_720
	leaq	l___unnamed_131+264(%rip), %rdx
	leaq	l___unnamed_57(%rip), %rsi
	cmpq	%rsi, %rcx
	je	LBB47_719
	movzwl	(%rcx), %esi
	xorl	$25924, %esi
	movzbl	2(%rcx), %edi
	xorl	$99, %edi
	orw	%si, %di
	movq	%rbx, %r15
	movq	%r8, %r14
	movq	%r9, %r13
	jne	LBB47_111
	jmp	LBB47_720
LBB47_46:
	movups	(%r13), %xmm0
	movaps	%xmm0, -208(%rbp)
	movl	$1, %esi
	movl	$2, %edx
	movq	%r13, %rdi
	xorl	%ecx, %ecx
	jmp	LBB47_83
LBB47_47:
	movups	(%r13), %xmm0
	movaps	%xmm0, -208(%rbp)
	movl	$1, %esi
	movl	$2, %edx
	movq	%r13, %rdi
	movl	$1, %ecx
	jmp	LBB47_148
LBB47_48:
	movq	8(%r13), %r10
	testq	%r10, %r10
	je	LBB47_298
	movq	%r15, -208(%rbp)
	movq	(%r13), %r9
	leaq	(%r9,%r10), %r15
	movl	$100000000, %edi
	xorl	%r12d, %r12d
	movq	%r9, %rdx
	xorl	%ebx, %ebx
	movq	%r9, %r11
	movq	%r13, -240(%rbp)
	.p2align	4, 0x90
LBB47_50:
	leaq	1(%rdx), %rax
	movzbl	(%rdx), %ecx
	testb	%cl, %cl
	js	LBB47_52
	movq	%rax, %rdx
	jmp	LBB47_64
LBB47_52:
	cmpq	%r15, %rax
	je	LBB47_58
	movzbl	1(%rdx), %esi
	addq	$2, %rdx
	andl	$63, %esi
	movq	%rdx, %r8
	movl	%ecx, %eax
	andl	$31, %eax
	cmpb	$-33, %cl
	jbe	LBB47_59
LBB47_54:
	movq	%r14, %r13
	cmpq	%r15, %r8
	je	LBB47_60
	movzbl	(%r8), %r14d
	incq	%r8
	andl	$63, %r14d
	movq	%r8, %rdx
	shll	$6, %esi
	orl	%r14d, %esi
	cmpb	$-16, %cl
	jb	LBB47_61
LBB47_56:
	cmpq	%r15, %r8
	je	LBB47_62
	movzbl	(%r8), %ecx
	incq	%r8
	andl	$63, %ecx
	movq	%r8, %rdx
	jmp	LBB47_63
LBB47_58:
	xorl	%esi, %esi
	movq	%rax, %rdx
	movq	%r15, %r8
	movl	%ecx, %eax
	andl	$31, %eax
	cmpb	$-33, %cl
	ja	LBB47_54
LBB47_59:
	shll	$6, %eax
	orl	%eax, %esi
	movl	%esi, %ecx
	jmp	LBB47_64
LBB47_60:
	xorl	%r14d, %r14d
	movq	%r15, %r8
	shll	$6, %esi
	orl	%r14d, %esi
	cmpb	$-16, %cl
	jae	LBB47_56
LBB47_61:
	shll	$12, %eax
	orl	%eax, %esi
	movl	%esi, %ecx
	movq	%r13, %r14
	movq	-240(%rbp), %r13
	jmp	LBB47_64
LBB47_62:
	xorl	%ecx, %ecx
LBB47_63:
	movq	%r13, %r14
	andl	$7, %eax
	shll	$18, %eax
	shll	$6, %esi
	orl	%eax, %esi
	orl	%ecx, %esi
	movl	%esi, %ecx
	cmpl	$1114112, %esi
	movq	-240(%rbp), %r13
	je	LBB47_71
	.p2align	4, 0x90
LBB47_64:
	movq	%r9, -192(%rbp)
	movq	%r10, -184(%rbp)
	movq	%rbx, -56(%rbp)
	movq	%r10, -72(%rbp)
	testq	%rbx, %rbx
	je	LBB47_68
	cmpq	%rbx, %r10
	je	LBB47_68
	jbe	LBB47_773
	cmpb	$-65, (%r9,%rbx)
	jle	LBB47_773
LBB47_68:
	leaq	(%r9,%rbx), %rax
	movq	%r10, %rsi
	subq	%rbx, %rsi
	movq	%rax, (%r13)
	movq	%rsi, 8(%r13)
	addl	$-48, %ecx
	cmpl	$9, %ecx
	ja	LBB47_71
	imull	%edi, %ecx
	addl	%ecx, %r12d
	jo	LBB47_774
	subq	%r11, %rbx
	addq	%rdx, %rbx
	movslq	%edi, %rax
	imulq	$1717986919, %rax, %rdi
	movq	%rdi, %rax
	shrq	$63, %rax
	sarq	$34, %rdi
	addl	%eax, %edi
	movq	%rdx, %r11
	cmpq	%rdx, %r15
	jne	LBB47_50
LBB47_71:
	movq	-208(%rbp), %r15
	movl	%r12d, 40(%r14)
	jmp	LBB47_723
LBB47_72:
	movups	(%r13), %xmm0
	movaps	%xmm0, -208(%rbp)
	movl	$1, %esi
	movl	$1, %edx
	movq	%r13, %rdi
	xorl	%ecx, %ecx
	callq	__ZN4time5parse16match_digits_i6417hb97c811f933016e8E
	testq	%rax, %rax
	je	LBB47_211
	leal	-1(%rdx), %eax
	cmpl	$7, %eax
	jae	LBB47_211
	xorl	%eax, %eax
	cmpl	$7, %edx
	cmovnel	%edx, %eax
	movl	%eax, 24(%r14)
	jmp	LBB47_723
LBB47_75:
	movq	8(%r13), %rax
	testq	%rax, %rax
	je	LBB47_424
	movq	(%r13), %rcx
	movzbl	(%rcx), %esi
	testb	%sil, %sil
	jns	LBB47_368
	leaq	(%rcx,%rax), %r8
	xorl	%edx, %edx
	movq	%r8, %rbx
	cmpq	$1, %rax
	je	LBB47_79
	leaq	2(%rcx), %rbx
	movzbl	1(%rcx), %edx
	andl	$63, %edx
LBB47_79:
	movl	%esi, %edi
	andl	$31, %edi
	cmpb	$-33, %sil
	jbe	LBB47_312
	cmpq	%r8, %rbx
	je	LBB47_362
	movzbl	(%rbx), %r9d
	incq	%rbx
	andl	$63, %r9d
	jmp	LBB47_363
LBB47_82:
	movups	(%r13), %xmm0
	movaps	%xmm0, -208(%rbp)
	movl	$1, %esi
	movl	$2, %edx
	movq	%r13, %rdi
	movl	$1, %ecx
LBB47_83:
	callq	__ZN4time5parse16match_digits_i6417hb97c811f933016e8E
	testq	%rax, %rax
	je	LBB47_86
	leal	-1(%rdx), %eax
	cmpl	$31, %eax
	jae	LBB47_86
	movl	%edx, 12(%r14)
	jmp	LBB47_723
LBB47_86:
	movaps	-208(%rbp), %xmm0
	movups	%xmm0, (%r13)
	movl	$7, (%r15)
	jmp	LBB47_724
LBB47_87:
	movq	8(%r13), %rax
	cmpq	$2, %rax
	jb	LBB47_88
	movq	(%r13), %rcx
	leaq	l___unnamed_132(%rip), %rdx
	leaq	l___unnamed_49(%rip), %rsi
	cmpq	%rsi, %rcx
	je	LBB47_224
	movzwl	(%rcx), %esi
	cmpl	$28001, %esi
	je	LBB47_224
	leaq	l___unnamed_132+24(%rip), %rdx
	leaq	l___unnamed_50(%rip), %rsi
	cmpq	%rsi, %rcx
	je	LBB47_224
	movzwl	(%rcx), %esi
	cmpl	$28016, %esi
	jne	LBB47_88
LBB47_224:
	movl	16(%rdx), %edx
	movq	%rcx, -192(%rbp)
	movq	%rax, -184(%rbp)
	movq	$2, -56(%rbp)
	movq	%rax, -72(%rbp)
	cmpq	$2, %rax
	je	LBB47_226
	cmpb	$-65, 2(%rcx)
	jle	LBB47_773
LBB47_226:
	addq	$2, %rcx
	addq	$-2, %rax
	movq	%rcx, (%r13)
	movq	%rax, 8(%r13)
	addl	8(%r14), %edx
	jno	LBB47_235
	leaq	_str.5(%rip), %rdi
	leaq	l___unnamed_133(%rip), %rdx
	movl	$28, %esi
	callq	__ZN4core9panicking5panic17h383a6b80ea7021aaE
LBB47_89:
	movq	8(%r13), %rax
	cmpq	$2, %rax
	jae	LBB47_228
LBB47_88:
	movl	$2, (%r15)
	jmp	LBB47_724
LBB47_91:
	movl	$1, %esi
	movl	$18, %edx
	movq	%r13, %rdi
	xorl	%ecx, %ecx
	callq	__ZN4time5parse16match_digits_i6417hb97c811f933016e8E
	testq	%rax, %rax
	je	LBB47_299
	movq	%rdx, -88(%rbp)
	xorps	%xmm0, %xmm0
	movaps	%xmm0, -112(%rbp)
	movaps	%xmm0, -128(%rbp)
	movaps	%xmm0, -144(%rbp)
	movq	$0, -96(%rbp)
	leaq	-88(%rbp), %rdi
	leaq	-144(%rbp), %rsi
	callq	_gmtime_r
	testq	%rax, %rax
	je	LBB47_775
	movaps	-144(%rbp), %xmm0
	movaps	-128(%rbp), %xmm1
	movl	-112(%rbp), %eax
	movups	%xmm0, (%r14)
	movups	%xmm1, 16(%r14)
	movl	%eax, 32(%r14)
	movq	$0, 36(%r14)
	jmp	LBB47_723
LBB47_94:
	movups	(%r13), %xmm0
	movaps	%xmm0, -208(%rbp)
	movl	$1, %esi
	movl	$2, %edx
	movq	%r13, %rdi
	xorl	%ecx, %ecx
	callq	__ZN4time5parse16match_digits_i6417hb97c811f933016e8E
	testq	%rax, %rax
	je	LBB47_236
	cmpl	$61, %edx
	jae	LBB47_236
	movl	%edx, (%r14)
	jmp	LBB47_723
LBB47_97:
	movups	(%r13), %xmm0
	movaps	%xmm0, -208(%rbp)
	movl	$1, %esi
	movl	$3, %edx
	movq	%r13, %rdi
	xorl	%ecx, %ecx
	callq	__ZN4time5parse16match_digits_i6417hb97c811f933016e8E
	testq	%rax, %rax
	je	LBB47_237
	decl	%edx
	cmpl	$366, %edx
	jae	LBB47_237
	movl	%edx, 28(%r14)
	jmp	LBB47_723
LBB47_100:
	leaq	-72(%rbp), %rdi
	movq	%r13, %rsi
	movl	$72, %edx
	movq	%r14, %rcx
	callq	__ZN4time5parse10parse_type17h67f53a89eb577112E
	movl	-72(%rbp), %edx
	cmpl	$15, %edx
	jne	LBB47_238
	movq	8(%r13), %rax
	movl	$10, %edx
	testq	%rax, %rax
	je	LBB47_301
	movq	(%r13), %rcx
	movzbl	(%rcx), %esi
	testb	%sil, %sil
	jns	LBB47_431
	leaq	(%rcx,%rax), %r8
	xorl	%edi, %edi
	movq	%r8, %r9
	cmpq	$1, %rax
	je	LBB47_105
	leaq	2(%rcx), %r9
	movzbl	1(%rcx), %edi
	andl	$63, %edi
LBB47_105:
	movl	%esi, %ebx
	andl	$31, %ebx
	cmpb	$-33, %sil
	jbe	LBB47_321
	cmpq	%r8, %r9
	je	LBB47_425
	movzbl	(%r9), %r10d
	incq	%r9
	andl	$63, %r10d
	jmp	LBB47_426
LBB47_108:
	movq	(%r13), %rax
	movq	8(%r13), %rcx
	cmpq	$7, %rcx
	jae	LBB47_240
	movb	$1, %r8b
	cmpq	$5, %rcx
	jae	LBB47_245
	movb	$1, %r8b
	cmpq	$3, %rcx
	jae	LBB47_249
	jmp	LBB47_111
LBB47_112:
	leaq	-72(%rbp), %r12
	movq	%r12, %rdi
	movq	%r13, %rsi
	movl	$73, %edx
	movq	%r14, %rcx
	callq	__ZN4time5parse10parse_type17h67f53a89eb577112E
	movl	-72(%rbp), %eax
	cmpl	$15, %eax
	jne	LBB47_260
	movq	8(%r13), %rcx
	movl	$10, %eax
	testq	%rcx, %rcx
	je	LBB47_302
	movq	(%r13), %rdx
	movzbl	(%rdx), %esi
	testb	%sil, %sil
	jns	LBB47_442
	leaq	(%rdx,%rcx), %r8
	xorl	%edi, %edi
	movq	%r8, %r9
	cmpq	$1, %rcx
	je	LBB47_117
	leaq	2(%rdx), %r9
	movzbl	1(%rdx), %edi
	andl	$63, %edi
LBB47_117:
	movl	%esi, %ebx
	andl	$31, %ebx
	cmpb	$-33, %sil
	jbe	LBB47_322
	cmpq	%r8, %r9
	je	LBB47_436
	movzbl	(%r9), %r10d
	incq	%r9
	andl	$63, %r10d
	jmp	LBB47_437
LBB47_120:
	movq	8(%r13), %rax
	testq	%rax, %rax
	je	LBB47_424
	movq	(%r13), %rcx
	movzbl	(%rcx), %esi
	testb	%sil, %sil
	jns	LBB47_376
	leaq	(%rcx,%rax), %r8
	xorl	%edx, %edx
	movq	%r8, %rbx
	cmpq	$1, %rax
	je	LBB47_124
	leaq	2(%rcx), %rbx
	movzbl	1(%rcx), %edx
	andl	$63, %edx
LBB47_124:
	movl	%esi, %edi
	andl	$31, %edi
	cmpb	$-33, %sil
	jbe	LBB47_313
	cmpq	%r8, %rbx
	je	LBB47_370
	movzbl	(%rbx), %r9d
	incq	%rbx
	andl	$63, %r9d
	jmp	LBB47_371
LBB47_127:
	movl	$4, %esi
	movl	$4, %edx
	movq	%r13, %rdi
	xorl	%ecx, %ecx
	callq	__ZN4time5parse16match_digits_i6417hb97c811f933016e8E
	testq	%rax, %rax
	je	LBB47_300
	addl	$-1900, %edx
	jo	LBB47_777
LBB47_129:
	movl	%edx, 20(%r14)
	jmp	LBB47_723
LBB47_130:
	movq	8(%r13), %rax
	testq	%rax, %rax
	je	LBB47_578
	movq	(%r13), %rcx
	leaq	(%rcx,%rax), %r8
	leaq	1(%rcx), %r9
	movzbl	(%rcx), %edi
	testb	%dil, %dil
	jns	LBB47_384
	xorl	%ebx, %ebx
	movq	%r8, %rsi
	cmpq	$1, %rax
	je	LBB47_134
	leaq	2(%rcx), %rsi
	movzbl	1(%rcx), %ebx
	andl	$63, %ebx
LBB47_134:
	movl	%edi, %edx
	andl	$31, %edx
	cmpb	$-33, %dil
	jbe	LBB47_314
	cmpq	%r8, %rsi
	je	LBB47_378
	movzbl	(%rsi), %r10d
	incq	%rsi
	andl	$63, %r10d
	jmp	LBB47_379
LBB47_137:
	movq	8(%r13), %rax
	cmpq	$6, %rax
	jb	LBB47_138
	movq	(%r13), %rcx
	movl	$6, %edx
	leaq	l___unnamed_134(%rip), %rsi
	leaq	l___unnamed_44(%rip), %rdi
	cmpq	%rdi, %rcx
	je	LBB47_316
	movl	$1684960595, %edi
	xorl	(%rcx), %edi
	movzwl	4(%rcx), %ebx
	xorl	$31073, %ebx
	orl	%edi, %ebx
	je	LBB47_317
	leaq	l___unnamed_134+24(%rip), %rsi
	leaq	l___unnamed_45(%rip), %rdi
	cmpq	%rdi, %rcx
	je	LBB47_316
	movl	$1684959053, %edi
	xorl	(%rcx), %edi
	movzwl	4(%rcx), %ebx
	xorl	$31073, %ebx
	orl	%edi, %ebx
	je	LBB47_317
	movb	$1, %r8b
	cmpq	$7, %rax
	jae	LBB47_400
LBB47_266:
	leaq	l___unnamed_134+120(%rip), %rsi
	leaq	l___unnamed_74(%rip), %rdx
	cmpq	%rdx, %rcx
	je	LBB47_316
	movl	$1684632134, %edx
	xorl	(%rcx), %edx
	movzwl	4(%rcx), %edi
	xorl	$31073, %edi
	orl	%edx, %edi
	movl	$6, %edx
	je	LBB47_317
	testb	%r8b, %r8b
	jne	LBB47_138
	movl	$8, %edx
	leaq	l___unnamed_134+144(%rip), %rsi
	leaq	L___unnamed_75(%rip), %rdi
	cmpq	%rdi, %rcx
	je	LBB47_317
	movabsq	$8746382394089824595, %rdi
	cmpq	%rdi, (%rcx)
	jne	LBB47_138
	jmp	LBB47_317
LBB47_139:
	leaq	-72(%rbp), %r12
	movq	%r12, %rdi
	movq	%r13, %rsi
	movl	$89, %edx
	movq	%r14, %rcx
	callq	__ZN4time5parse10parse_type17h67f53a89eb577112E
	movl	-72(%rbp), %eax
	cmpl	$15, %eax
	jne	LBB47_166
	movq	8(%r13), %rcx
	movl	$10, %eax
	testq	%rcx, %rcx
	je	LBB47_167
	movq	(%r13), %rdx
	movzbl	(%rdx), %esi
	testb	%sil, %sil
	jns	LBB47_487
	leaq	(%rdx,%rcx), %r8
	xorl	%edi, %edi
	movq	%r8, %r9
	cmpq	$1, %rcx
	je	LBB47_144
	leaq	2(%rdx), %r9
	movzbl	1(%rdx), %edi
	andl	$63, %edi
LBB47_144:
	movl	%esi, %ebx
	andl	$31, %ebx
	cmpb	$-33, %sil
	jbe	LBB47_323
	cmpq	%r8, %r9
	je	LBB47_481
	movzbl	(%r9), %r10d
	incq	%r9
	andl	$63, %r10d
	jmp	LBB47_482
LBB47_147:
	movups	(%r13), %xmm0
	movaps	%xmm0, -208(%rbp)
	movl	$1, %esi
	movl	$2, %edx
	movq	%r13, %rdi
	xorl	%ecx, %ecx
LBB47_148:
	callq	__ZN4time5parse16match_digits_i6417hb97c811f933016e8E
	testq	%rax, %rax
	je	LBB47_207
	cmpl	$24, %edx
	jae	LBB47_207
	movl	%edx, 8(%r14)
	jmp	LBB47_723
LBB47_151:
	movups	(%r13), %xmm0
	movaps	%xmm0, -208(%rbp)
	movl	$1, %esi
	movl	$2, %edx
	movq	%r13, %rdi
	xorl	%ecx, %ecx
	callq	__ZN4time5parse16match_digits_i6417hb97c811f933016e8E
	testq	%rax, %rax
	je	LBB47_155
	cmpl	$100, %edx
	jae	LBB47_155
	imull	$100, %edx, %eax
	addl	$-1900, %eax
	addl	20(%r14), %eax
	jo	LBB47_778
	movl	%eax, 20(%r14)
	jmp	LBB47_723
LBB47_155:
	movaps	-208(%rbp), %xmm0
	movups	%xmm0, (%r13)
	movl	$5, (%r15)
	jmp	LBB47_724
LBB47_156:
	movq	8(%r13), %rax
	cmpq	$3, %rax
	jae	LBB47_271
LBB47_138:
	movl	$3, (%r15)
	jmp	LBB47_724
LBB47_158:
	leaq	-72(%rbp), %r12
	movq	%r12, %rdi
	movq	%r13, %rsi
	movl	$101, %edx
	movq	%r14, %rcx
	callq	__ZN4time5parse10parse_type17h67f53a89eb577112E
	movl	-72(%rbp), %eax
	cmpl	$15, %eax
	jne	LBB47_166
	movq	8(%r13), %rcx
	movl	$10, %eax
	testq	%rcx, %rcx
	je	LBB47_167
	movq	(%r13), %rdx
	movzbl	(%rdx), %esi
	testb	%sil, %sil
	jns	LBB47_504
	leaq	(%rdx,%rcx), %r8
	xorl	%edi, %edi
	movq	%r8, %r9
	cmpq	$1, %rcx
	je	LBB47_163
	leaq	2(%rdx), %r9
	movzbl	1(%rdx), %edi
	andl	$63, %edi
LBB47_163:
	movl	%esi, %ebx
	andl	$31, %ebx
	cmpb	$-33, %sil
	jbe	LBB47_324
	cmpq	%r8, %r9
	je	LBB47_498
	movzbl	(%r9), %r10d
	incq	%r9
	andl	$63, %r10d
	jmp	LBB47_499
LBB47_166:
	movl	-68(%rbp), %ebx
	movl	-64(%rbp), %esi
	jmp	LBB47_516
LBB47_167:
	jmp	LBB47_516
LBB47_168:
	movups	(%r13), %xmm0
	movaps	%xmm0, -208(%rbp)
	movl	$1, %esi
	movl	$2, %edx
	movq	%r13, %rdi
	xorl	%ecx, %ecx
	callq	__ZN4time5parse16match_digits_i6417hb97c811f933016e8E
	testq	%rax, %rax
	je	LBB47_288
	cmpl	$60, %edx
	jae	LBB47_288
	movl	%edx, 4(%r14)
	jmp	LBB47_723
LBB47_171:
	movups	(%r13), %xmm0
	movaps	%xmm0, -208(%rbp)
	movl	$1, %esi
	movl	$2, %edx
	movq	%r13, %rdi
	xorl	%ecx, %ecx
	jmp	LBB47_204
LBB47_172:
	movq	(%r13), %r9
	movq	8(%r13), %r8
	cmpq	$3, %r8
	jae	LBB47_289
LBB47_173:
	leaq	(%r9,%r8), %r10
	xorl	%edx, %edx
	movq	%r9, %rdi
	.p2align	4, 0x90
LBB47_174:
	cmpq	%rdi, %r10
	je	LBB47_191
	leaq	1(%rdi), %rbx
	movzbl	(%rdi), %eax
	testb	%al, %al
	jns	LBB47_189
	cmpq	%r10, %rbx
	je	LBB47_182
	leaq	2(%rdi), %rbx
	movzbl	1(%rdi), %ecx
	andl	$63, %ecx
	movq	%rbx, %r11
	movl	%eax, %esi
	andl	$31, %esi
	cmpb	$-33, %al
	jbe	LBB47_183
LBB47_178:
	cmpq	%r10, %r11
	je	LBB47_184
	movzbl	(%r11), %r14d
	incq	%r11
	andl	$63, %r14d
	movq	%r11, %rbx
	shll	$6, %ecx
	orl	%r14d, %ecx
	cmpb	$-16, %al
	jb	LBB47_185
LBB47_180:
	cmpq	%r10, %r11
	je	LBB47_187
	movzbl	(%r11), %eax
	incq	%r11
	andl	$63, %eax
	movq	%r11, %rbx
	jmp	LBB47_188
LBB47_182:
	xorl	%ecx, %ecx
	movq	%r10, %r11
	movl	%eax, %esi
	andl	$31, %esi
	cmpb	$-33, %al
	ja	LBB47_178
LBB47_183:
	shll	$6, %esi
	jmp	LBB47_186
LBB47_184:
	xorl	%r14d, %r14d
	movq	%r10, %r11
	shll	$6, %ecx
	orl	%r14d, %ecx
	cmpb	$-16, %al
	jae	LBB47_180
LBB47_185:
	shll	$12, %esi
LBB47_186:
	orl	%esi, %ecx
	movl	%ecx, %eax
	jmp	LBB47_189
LBB47_187:
	xorl	%eax, %eax
LBB47_188:
	andl	$7, %esi
	shll	$18, %esi
	shll	$6, %ecx
	orl	%esi, %ecx
	orl	%eax, %ecx
	movl	%ecx, %eax
	cmpl	$1114112, %ecx
	je	LBB47_191
	.p2align	4, 0x90
LBB47_189:
	cmpl	$32, %eax
	je	LBB47_305
	subq	%rdi, %rdx
	addq	%rbx, %rdx
	movq	%rbx, %rdi
	cmpl	$1114112, %eax
	jne	LBB47_174
LBB47_191:
	leaq	l___unnamed_54(%rip), %rax
	movq	%rax, (%r13)
	movq	$0, 8(%r13)
	jmp	LBB47_723
LBB47_192:
	leaq	-72(%rbp), %r12
	movq	%r12, %rdi
	movq	%r13, %rsi
	movl	$97, %edx
	movq	%r14, %rcx
	callq	__ZN4time5parse10parse_type17h67f53a89eb577112E
	movl	-72(%rbp), %eax
	cmpl	$15, %eax
	jne	LBB47_296
	movq	8(%r13), %rcx
	movl	$10, %eax
	testq	%rcx, %rcx
	je	LBB47_304
	movq	(%r13), %rdx
	movzbl	(%rdx), %esi
	testb	%sil, %sil
	jns	LBB47_526
	leaq	(%rdx,%rcx), %r8
	xorl	%edi, %edi
	movq	%r8, %r9
	cmpq	$1, %rcx
	je	LBB47_197
	leaq	2(%rdx), %r9
	movzbl	1(%rdx), %edi
	andl	$63, %edi
LBB47_197:
	movl	%esi, %ebx
	andl	$31, %ebx
	cmpb	$-33, %sil
	jbe	LBB47_325
	cmpq	%r8, %r9
	je	LBB47_520
	movzbl	(%r9), %r10d
	incq	%r9
	andl	$63, %r10d
	jmp	LBB47_521
LBB47_200:
	movups	(%r13), %xmm0
	movaps	%xmm0, -208(%rbp)
	movl	$1, %esi
	movl	$2, %edx
	movq	%r13, %rdi
	xorl	%ecx, %ecx
	callq	__ZN4time5parse16match_digits_i6417hb97c811f933016e8E
	testq	%rax, %rax
	je	LBB47_297
	decl	%edx
	cmpl	$12, %edx
	jae	LBB47_297
	movl	%edx, 16(%r14)
	jmp	LBB47_723
LBB47_203:
	movups	(%r13), %xmm0
	movaps	%xmm0, -208(%rbp)
	movl	$1, %esi
	movl	$2, %edx
	movq	%r13, %rdi
	movl	$1, %ecx
LBB47_204:
	callq	__ZN4time5parse16match_digits_i6417hb97c811f933016e8E
	testq	%rax, %rax
	je	LBB47_207
	leal	-1(%rdx), %eax
	cmpl	$12, %eax
	jae	LBB47_207
	xorl	%eax, %eax
	cmpl	$12, %edx
	cmovnel	%edx, %eax
	movl	%eax, 8(%r14)
	jmp	LBB47_723
LBB47_207:
	movaps	-208(%rbp), %xmm0
	movups	%xmm0, (%r13)
	movl	$2, (%r15)
	jmp	LBB47_724
LBB47_208:
	movups	(%r13), %xmm0
	movaps	%xmm0, -208(%rbp)
	movl	$1, %esi
	movl	$1, %edx
	movq	%r13, %rdi
	xorl	%ecx, %ecx
	callq	__ZN4time5parse16match_digits_i6417hb97c811f933016e8E
	testq	%rax, %rax
	je	LBB47_211
	cmpl	$7, %edx
	jae	LBB47_211
	movl	%edx, 24(%r14)
	jmp	LBB47_723
LBB47_211:
	movaps	-208(%rbp), %xmm0
	movups	%xmm0, (%r13)
	movl	$6, (%r15)
	jmp	LBB47_724
LBB47_212:
	movq	8(%r13), %rax
	testq	%rax, %rax
	je	LBB47_424
	movq	(%r13), %rcx
	movzbl	(%rcx), %esi
	testb	%sil, %sil
	jns	LBB47_394
	leaq	(%rcx,%rax), %r8
	xorl	%edx, %edx
	movq	%r8, %rbx
	cmpq	$1, %rax
	je	LBB47_216
	leaq	2(%rcx), %rbx
	movzbl	1(%rcx), %edx
	andl	$63, %edx
LBB47_216:
	movl	%esi, %edi
	andl	$31, %edi
	cmpb	$-33, %sil
	jbe	LBB47_315
	cmpq	%r8, %rbx
	je	LBB47_388
	movzbl	(%rbx), %r9d
	incq	%rbx
	andl	$63, %r9d
	jmp	LBB47_389
LBB47_219:
	movl	$13, (%r15)
	movl	%edx, 4(%r15)
	jmp	LBB47_724
LBB47_228:
	movq	(%r13), %rcx
	leaq	l___unnamed_135(%rip), %rdx
	leaq	l___unnamed_38(%rip), %rsi
	cmpq	%rsi, %rcx
	je	LBB47_232
	movzwl	(%rcx), %esi
	cmpl	$19777, %esi
	je	LBB47_232
	leaq	l___unnamed_135+24(%rip), %rdx
	leaq	l___unnamed_39(%rip), %rsi
	cmpq	%rsi, %rcx
	je	LBB47_232
	movzwl	(%rcx), %esi
	cmpl	$19792, %esi
	jne	LBB47_88
LBB47_232:
	movl	16(%rdx), %edx
	movq	%rcx, -192(%rbp)
	movq	%rax, -184(%rbp)
	movq	$2, -56(%rbp)
	movq	%rax, -72(%rbp)
	cmpq	$2, %rax
	je	LBB47_234
	cmpb	$-65, 2(%rcx)
	jle	LBB47_773
LBB47_234:
	addq	$2, %rcx
	addq	$-2, %rax
	movq	%rcx, (%r13)
	movq	%rax, 8(%r13)
	addl	8(%r14), %edx
	jo	LBB47_780
LBB47_235:
	movl	%edx, 8(%r14)
	jmp	LBB47_723
LBB47_236:
	movaps	-208(%rbp), %xmm0
	movups	%xmm0, (%r13)
	movl	$0, (%r15)
	jmp	LBB47_724
LBB47_237:
	movaps	-208(%rbp), %xmm0
	movups	%xmm0, (%r13)
	movl	$8, (%r15)
	jmp	LBB47_724
LBB47_238:
	movl	-68(%rbp), %ebx
	movl	-64(%rbp), %esi
LBB47_239:
	movl	%edx, (%r15)
	jmp	LBB47_519
LBB47_240:
	movl	$7, %edx
	leaq	l___unnamed_136(%rip), %rsi
	leaq	l___unnamed_47(%rip), %rdi
	cmpq	%rdi, %rax
	je	LBB47_414
	movl	$1970168138, %edi
	xorl	(%rax), %edi
	movl	$2037539189, %ebx
	xorl	3(%rax), %ebx
	orl	%edi, %ebx
	je	LBB47_414
	cmpq	$8, %rcx
	setb	%r8b
	jb	LBB47_245
	movl	$8, %edx
	leaq	l___unnamed_136+24(%rip), %rsi
	leaq	L___unnamed_48(%rip), %rdi
	cmpq	%rdi, %rax
	je	LBB47_414
	movabsq	$8751164182992414022, %rdi
	cmpq	%rdi, (%rax)
	je	LBB47_414
LBB47_245:
	movl	$5, %edx
	leaq	l___unnamed_136+48(%rip), %rsi
	leaq	l___unnamed_78(%rip), %rdi
	cmpq	%rdi, %rax
	je	LBB47_414
	movl	$1668440397, %edi
	xorl	(%rax), %edi
	movzbl	4(%rax), %ebx
	xorl	$104, %ebx
	orl	%edi, %ebx
	je	LBB47_414
	leaq	l___unnamed_136+72(%rip), %rsi
	leaq	l___unnamed_79(%rip), %rdi
	cmpq	%rdi, %rax
	je	LBB47_414
	movl	$1769107521, %edi
	xorl	(%rax), %edi
	movzbl	4(%rax), %ebx
	xorl	$108, %ebx
	orl	%edi, %ebx
	je	LBB47_414
LBB47_249:
	movl	$3, %edx
	leaq	l___unnamed_136+96(%rip), %rsi
	leaq	l___unnamed_56(%rip), %rdi
	cmpq	%rdi, %rax
	je	LBB47_414
	movzwl	(%rax), %edi
	xorl	$24909, %edi
	movzbl	2(%rax), %ebx
	xorl	$121, %ebx
	orw	%di, %bx
	je	LBB47_414
	cmpq	$4, %rcx
	jae	LBB47_404
LBB47_252:
	cmpq	$7, %rcx
	jb	LBB47_255
	movl	$7, %edx
	leaq	l___unnamed_136+216(%rip), %rsi
	leaq	l___unnamed_77(%rip), %rdi
	cmpq	%rdi, %rax
	je	LBB47_414
	movl	$1869898575, %edi
	xorl	(%rax), %edi
	movl	$1919246959, %ebx
	xorl	3(%rax), %ebx
	orl	%edi, %ebx
	je	LBB47_414
LBB47_255:
	testb	%r8b, %r8b
	jne	LBB47_111
	movl	$8, %edx
	leaq	l___unnamed_136+240(%rip), %rsi
	leaq	L___unnamed_84(%rip), %rdi
	cmpq	%rdi, %rax
	je	LBB47_414
	movabsq	$8243102914963531076, %rdi
	leaq	1247754(%rdi), %rbx
	cmpq	(%rax), %rbx
	je	LBB47_414
	leaq	l___unnamed_136+264(%rip), %rsi
	leaq	L___unnamed_76(%rip), %rbx
	cmpq	%rbx, %rax
	je	LBB47_414
	cmpq	(%rax), %rdi
	jne	LBB47_111
	jmp	LBB47_414
LBB47_260:
	movl	-68(%rbp), %ebx
	movl	-64(%rbp), %esi
	jmp	LBB47_454
LBB47_271:
	movq	(%r13), %rcx
	leaq	l___unnamed_137(%rip), %rdx
	leaq	l___unnamed_36(%rip), %rsi
	cmpq	%rsi, %rcx
	je	LBB47_285
	movzwl	(%rcx), %esi
	xorl	$30035, %esi
	movzbl	2(%rcx), %edi
	xorl	$110, %edi
	orw	%si, %di
	je	LBB47_285
	leaq	l___unnamed_137+24(%rip), %rdx
	leaq	l___unnamed_37(%rip), %rsi
	cmpq	%rsi, %rcx
	je	LBB47_285
	movzwl	(%rcx), %esi
	xorl	$28493, %esi
	movzbl	2(%rcx), %edi
	xorl	$110, %edi
	orw	%si, %di
	je	LBB47_285
	leaq	l___unnamed_137+48(%rip), %rdx
	leaq	l___unnamed_67(%rip), %rsi
	cmpq	%rsi, %rcx
	je	LBB47_285
	movzwl	(%rcx), %esi
	xorl	$30036, %esi
	movzbl	2(%rcx), %edi
	xorl	$101, %edi
	orw	%si, %di
	je	LBB47_285
	leaq	l___unnamed_137+72(%rip), %rdx
	leaq	l___unnamed_68(%rip), %rsi
	cmpq	%rsi, %rcx
	je	LBB47_285
	movzwl	(%rcx), %esi
	xorl	$25943, %esi
	movzbl	2(%rcx), %edi
	xorl	$100, %edi
	orw	%si, %di
	je	LBB47_285
	leaq	l___unnamed_137+96(%rip), %rdx
	leaq	l___unnamed_66(%rip), %rsi
	cmpq	%rsi, %rcx
	je	LBB47_285
	movzwl	(%rcx), %esi
	xorl	$26708, %esi
	movzbl	2(%rcx), %edi
	xorl	$117, %edi
	orw	%si, %di
	je	LBB47_285
	leaq	l___unnamed_137+120(%rip), %rdx
	leaq	l___unnamed_69(%rip), %rsi
	cmpq	%rsi, %rcx
	je	LBB47_285
	movzwl	(%rcx), %esi
	xorl	$29254, %esi
	movzbl	2(%rcx), %edi
	xorl	$105, %edi
	orw	%si, %di
	je	LBB47_285
	leaq	l___unnamed_137+144(%rip), %rdx
	leaq	l___unnamed_70(%rip), %rsi
	cmpq	%rsi, %rcx
	je	LBB47_285
	movzwl	(%rcx), %esi
	xorl	$24915, %esi
	movzbl	2(%rcx), %edi
	xorl	$116, %edi
	orw	%si, %di
	jne	LBB47_138
LBB47_285:
	movl	16(%rdx), %edx
	movq	%rcx, -192(%rbp)
	movq	%rax, -184(%rbp)
	movq	$3, -56(%rbp)
	movq	%rax, -72(%rbp)
	cmpq	$3, %rax
	je	LBB47_287
	cmpb	$-65, 3(%rcx)
	jle	LBB47_773
LBB47_287:
	addq	$3, %rcx
	addq	$-3, %rax
	movq	%rcx, (%r13)
	movq	%rax, 8(%r13)
	movl	%edx, 24(%r14)
	jmp	LBB47_723
LBB47_288:
	movaps	-208(%rbp), %xmm0
	movups	%xmm0, (%r13)
	movl	$1, (%r15)
	jmp	LBB47_724
LBB47_289:
	leaq	l___unnamed_53(%rip), %rax
	cmpq	%rax, %r9
	je	LBB47_293
	movzwl	(%r9), %eax
	xorl	$21589, %eax
	movzbl	2(%r9), %ecx
	xorl	$67, %ecx
	orw	%ax, %cx
	je	LBB47_293
	leaq	l___unnamed_138(%rip), %rax
	cmpq	%rax, %r9
	je	LBB47_293
	movzwl	(%r9), %eax
	xorl	$19783, %eax
	movzbl	2(%r9), %ecx
	xorl	$84, %ecx
	orw	%ax, %cx
	jne	LBB47_173
LBB47_293:
	movq	%r9, -192(%rbp)
	movq	%r8, -184(%rbp)
	movq	$3, -56(%rbp)
	movq	%r8, -72(%rbp)
	cmpq	$3, %r8
	je	LBB47_295
	cmpb	$-65, 3(%r9)
	jle	LBB47_773
LBB47_295:
	addq	$3, %r9
	movq	%r9, (%r13)
	addq	$-3, %r8
	movq	%r8, 8(%r13)
	movl	$0, 36(%r14)
	jmp	LBB47_723
LBB47_296:
	movl	-68(%rbp), %ebx
	movl	-64(%rbp), %esi
	jmp	LBB47_538
LBB47_297:
	movaps	-208(%rbp), %xmm0
	movups	%xmm0, (%r13)
	movl	$4, (%r15)
	jmp	LBB47_724
LBB47_298:
	xorl	%r12d, %r12d
	movl	%r12d, 40(%r14)
	jmp	LBB47_723
LBB47_299:
	movl	$11, (%r15)
	jmp	LBB47_724
LBB47_300:
	movl	$5, (%r15)
	jmp	LBB47_724
LBB47_316:
	movl	$6, %edx
LBB47_317:
	movl	16(%rsi), %esi
	movq	%rcx, -192(%rbp)
	movq	%rax, -184(%rbp)
	movq	%rdx, -56(%rbp)
	movq	%rax, -72(%rbp)
	subq	%rdx, %rax
	je	LBB47_320
	jbe	LBB47_773
	cmpb	$-65, (%rcx,%rdx)
	jle	LBB47_773
LBB47_320:
	addq	%rdx, %rcx
	movq	%rcx, (%r13)
	movq	%rax, 8(%r13)
	movl	%esi, 24(%r14)
	jmp	LBB47_723
LBB47_301:
	movl	%edx, (%r15)
	jmp	LBB47_519
LBB47_302:
	jmp	LBB47_454
LBB47_304:
	jmp	LBB47_538
LBB47_305:
	movq	%r9, -192(%rbp)
	movq	%r8, -184(%rbp)
	movq	%rdx, -56(%rbp)
	movq	%r8, -72(%rbp)
	testq	%rdx, %rdx
	je	LBB47_309
	cmpq	%rdx, %r8
	je	LBB47_309
	jbe	LBB47_773
	cmpb	$-65, (%r9,%rdx)
	jle	LBB47_773
LBB47_309:
	addq	%rdx, %r9
	subq	%rdx, %r8
	movq	%r9, (%r13)
	movq	%r8, 8(%r13)
	jmp	LBB47_723
LBB47_310:
	shll	$6, %ebx
	jmp	LBB47_331
LBB47_311:
	shll	$6, %ebx
	jmp	LBB47_349
LBB47_312:
	shll	$6, %edi
	jmp	LBB47_367
LBB47_313:
	shll	$6, %edi
	jmp	LBB47_375
LBB47_314:
	shll	$6, %edx
	jmp	LBB47_383
LBB47_315:
	shll	$6, %edi
	jmp	LBB47_393
LBB47_321:
	shll	$6, %ebx
	jmp	LBB47_430
LBB47_322:
	shll	$6, %ebx
	jmp	LBB47_441
LBB47_323:
	shll	$6, %ebx
	jmp	LBB47_486
LBB47_324:
	shll	$6, %ebx
	jmp	LBB47_503
LBB47_325:
	shll	$6, %ebx
	jmp	LBB47_525
LBB47_326:
	xorl	%r10d, %r10d
	movq	%r8, %r9
LBB47_327:
	shll	$6, %edi
	orl	%r10d, %edi
	cmpb	$-16, %sil
	jb	LBB47_330
	cmpq	%r8, %r9
	je	LBB47_418
	movzbl	(%r9), %esi
	andl	$63, %esi
	jmp	LBB47_419
LBB47_330:
	shll	$12, %ebx
LBB47_331:
	orl	%ebx, %edi
	movl	%edi, %esi
LBB47_332:
	cmpl	$47, %esi
	jne	LBB47_343
	movq	%rdx, -192(%rbp)
	incq	%rdx
	movq	%rcx, -184(%rbp)
	movq	$1, -224(%rbp)
	movq	%rcx, -88(%rbp)
	cmpq	$1, %rcx
	je	LBB47_335
	cmpb	$-65, (%rdx)
	jle	LBB47_779
LBB47_335:
	decq	%rcx
	movq	%rdx, (%r13)
	movq	%rcx, 8(%r13)
	leaq	-56(%rbp), %rdi
	movq	%r13, %rsi
	movl	$100, %edx
	movq	%r14, %rcx
	callq	__ZN4time5parse10parse_type17h67f53a89eb577112E
	movl	-56(%rbp), %eax
	cmpl	$15, %eax
	jne	LBB47_517
	movq	8(%r13), %rcx
	movl	$10, %eax
	testq	%rcx, %rcx
	je	LBB47_663
	movq	(%r13), %rdx
	movzbl	(%rdx), %esi
	testb	%sil, %sil
	jns	LBB47_605
	leaq	(%rdx,%rcx), %r8
	xorl	%edi, %edi
	movq	%r8, %r9
	cmpq	$1, %rcx
	je	LBB47_340
	leaq	2(%rdx), %r9
	movzbl	1(%rdx), %edi
	andl	$63, %edi
LBB47_340:
	movl	%esi, %ebx
	andl	$31, %ebx
	cmpb	$-33, %sil
	jbe	LBB47_548
	cmpq	%r8, %r9
	je	LBB47_599
	movzbl	(%r9), %r10d
	incq	%r9
	andl	$63, %r10d
	jmp	LBB47_600
LBB47_343:
	movl	$14, %eax
	movl	$47, %ebx
	jmp	LBB47_516
LBB47_344:
	xorl	%r10d, %r10d
	movq	%r8, %r9
LBB47_345:
	shll	$6, %edi
	orl	%r10d, %edi
	cmpb	$-16, %sil
	jb	LBB47_348
	cmpq	%r8, %r9
	je	LBB47_420
	movzbl	(%r9), %esi
	andl	$63, %esi
	jmp	LBB47_421
LBB47_348:
	shll	$12, %ebx
LBB47_349:
	orl	%ebx, %edi
	movl	%edi, %esi
LBB47_350:
	cmpl	$58, %esi
	jne	LBB47_361
	movq	%rdx, -192(%rbp)
	incq	%rdx
	movq	%rcx, -184(%rbp)
	movq	$1, -224(%rbp)
	movq	%rcx, -88(%rbp)
	cmpq	$1, %rcx
	je	LBB47_353
	cmpb	$-65, (%rdx)
	jle	LBB47_779
LBB47_353:
	decq	%rcx
	movq	%rdx, (%r13)
	movq	%rcx, 8(%r13)
	leaq	-56(%rbp), %rdi
	movq	%r13, %rsi
	movl	$77, %edx
	movq	%r14, %rcx
	callq	__ZN4time5parse10parse_type17h67f53a89eb577112E
	movl	-56(%rbp), %eax
	cmpl	$15, %eax
	jne	LBB47_517
	movq	8(%r13), %rcx
	movl	$10, %eax
	testq	%rcx, %rcx
	je	LBB47_663
	movq	(%r13), %rdx
	movzbl	(%rdx), %esi
	testb	%sil, %sil
	jns	LBB47_616
	leaq	(%rdx,%rcx), %r8
	xorl	%edi, %edi
	movq	%r8, %r9
	cmpq	$1, %rcx
	je	LBB47_358
	leaq	2(%rdx), %r9
	movzbl	1(%rdx), %edi
	andl	$63, %edi
LBB47_358:
	movl	%esi, %ebx
	andl	$31, %ebx
	cmpb	$-33, %sil
	jbe	LBB47_549
	cmpq	%r8, %r9
	je	LBB47_610
	movzbl	(%r9), %r10d
	incq	%r9
	andl	$63, %r10d
	jmp	LBB47_611
LBB47_361:
	movl	$14, %eax
	movl	$58, %ebx
	jmp	LBB47_516
LBB47_362:
	xorl	%r9d, %r9d
	movq	%r8, %rbx
LBB47_363:
	shll	$6, %edx
	orl	%r9d, %edx
	cmpb	$-16, %sil
	jb	LBB47_366
	cmpq	%r8, %rbx
	je	LBB47_422
	movzbl	(%rbx), %esi
	andl	$63, %esi
	jmp	LBB47_423
LBB47_366:
	shll	$12, %edi
LBB47_367:
	orl	%edi, %edx
	movl	%edx, %esi
LBB47_368:
	cmpl	$10, %esi
	je	LBB47_395
	movabsq	$42949672974, %rax
	jmp	LBB47_399
LBB47_370:
	xorl	%r9d, %r9d
	movq	%r8, %rbx
LBB47_371:
	shll	$6, %edx
	orl	%r9d, %edx
	cmpb	$-16, %sil
	jb	LBB47_374
	cmpq	%r8, %rbx
	je	LBB47_459
	movzbl	(%rbx), %esi
	andl	$63, %esi
	jmp	LBB47_460
LBB47_374:
	shll	$12, %edi
LBB47_375:
	orl	%edi, %edx
	movl	%edx, %esi
LBB47_376:
	cmpl	$37, %esi
	je	LBB47_395
	movabsq	$158913789966, %rax
	jmp	LBB47_399
LBB47_378:
	xorl	%r10d, %r10d
	movq	%r8, %rsi
LBB47_379:
	shll	$6, %ebx
	orl	%r10d, %ebx
	cmpb	$-16, %dil
	jb	LBB47_382
	cmpq	%r8, %rsi
	je	LBB47_462
	movzbl	(%rsi), %esi
	andl	$63, %esi
	jmp	LBB47_463
LBB47_382:
	shll	$12, %edx
LBB47_383:
	orl	%edx, %ebx
	movl	%ebx, %edi
LBB47_384:
	cmpl	$90, %edi
	jne	LBB47_464
	movq	%rcx, -192(%rbp)
	movq	%rax, -184(%rbp)
	movq	$1, -56(%rbp)
	movq	%rax, -72(%rbp)
	cmpq	$1, %rax
	je	LBB47_387
	cmpb	$-65, (%r9)
	jle	LBB47_773
LBB47_387:
	decq	%rax
	movq	%r9, (%r13)
	movq	%rax, 8(%r13)
	movl	$0, 36(%r14)
	jmp	LBB47_723
LBB47_388:
	xorl	%r9d, %r9d
	movq	%r8, %rbx
LBB47_389:
	shll	$6, %edx
	orl	%r9d, %edx
	cmpb	$-16, %sil
	jb	LBB47_392
	cmpq	%r8, %rbx
	je	LBB47_545
	movzbl	(%rbx), %esi
	andl	$63, %esi
	jmp	LBB47_546
LBB47_392:
	shll	$12, %edi
LBB47_393:
	orl	%edi, %edx
	movl	%edx, %esi
LBB47_394:
	cmpl	$9, %esi
	jne	LBB47_398
LBB47_395:
	movq	%rcx, -192(%rbp)
	incq	%rcx
	movq	%rax, -184(%rbp)
	movq	$1, -56(%rbp)
	movq	%rax, -72(%rbp)
	cmpq	$1, %rax
	je	LBB47_397
	cmpb	$-65, (%rcx)
	jle	LBB47_773
LBB47_397:
	decq	%rax
	movq	%rcx, (%r13)
	movq	%rax, 8(%r13)
	jmp	LBB47_723
LBB47_398:
	movabsq	$38654705678, %rax
LBB47_399:
	movq	%rax, (%r15)
	movl	%esi, 8(%r15)
	jmp	LBB47_724
LBB47_400:
	movl	$7, %edx
	leaq	l___unnamed_134+48(%rip), %rsi
	leaq	l___unnamed_72(%rip), %rbx
	cmpq	%rbx, %rcx
	je	LBB47_317
	movl	$1936029012, %ebx
	xorl	(%rcx), %ebx
	movl	$2036425843, %edi
	xorl	3(%rcx), %edi
	orl	%ebx, %edi
	je	LBB47_317
	cmpq	$9, %rax
	jae	LBB47_594
	cmpq	$8, %rax
	jne	LBB47_266
	jmp	LBB47_596
LBB47_404:
	movl	$4, %edx
	leaq	l___unnamed_136+120(%rip), %rsi
	leaq	L___unnamed_81(%rip), %rdi
	cmpq	%rdi, %rax
	je	LBB47_414
	cmpl	$1701737802, (%rax)
	je	LBB47_414
	leaq	l___unnamed_136+144(%rip), %rsi
	leaq	L___unnamed_82(%rip), %rdi
	cmpq	%rdi, %rax
	je	LBB47_414
	cmpl	$2037151050, (%rax)
	je	LBB47_414
	cmpq	$6, %rcx
	jb	LBB47_252
	movl	$6, %edx
	leaq	l___unnamed_136+168(%rip), %rsi
	leaq	l___unnamed_80(%rip), %rdi
	cmpq	%rdi, %rax
	je	LBB47_414
	movl	$1969714497, %edi
	xorl	(%rax), %edi
	movzwl	4(%rax), %ebx
	xorl	$29811, %ebx
	orl	%edi, %ebx
	je	LBB47_414
	cmpq	$9, %rcx
	jb	LBB47_252
	movl	$9, %edx
	leaq	l___unnamed_136+192(%rip), %rsi
	leaq	l___unnamed_83(%rip), %rdi
	cmpq	%rdi, %rax
	je	LBB47_414
	movabsq	$7305521828061013331, %rdi
	xorq	(%rax), %rdi
	movzbl	8(%rax), %ebx
	xorq	$114, %rbx
	orq	%rdi, %rbx
	jne	LBB47_252
LBB47_414:
	movl	16(%rsi), %esi
	movq	%rax, -192(%rbp)
	movq	%rcx, -184(%rbp)
	movq	%rdx, -56(%rbp)
	movq	%rcx, -72(%rbp)
	subq	%rdx, %rcx
	je	LBB47_417
	jbe	LBB47_773
	cmpb	$-65, (%rax,%rdx)
	jle	LBB47_773
LBB47_417:
	addq	%rdx, %rax
	movq	%rax, (%r13)
	movq	%rcx, 8(%r13)
	movl	%esi, 16(%r14)
	jmp	LBB47_723
LBB47_418:
	xorl	%esi, %esi
LBB47_419:
	andl	$7, %ebx
	shll	$18, %ebx
	shll	$6, %edi
	orl	%ebx, %edi
	orl	%esi, %edi
	movl	%edi, %esi
	cmpl	$1114112, %edi
	jne	LBB47_332
	jmp	LBB47_516
LBB47_420:
	xorl	%esi, %esi
LBB47_421:
	andl	$7, %ebx
	shll	$18, %ebx
	shll	$6, %edi
	orl	%ebx, %edi
	orl	%esi, %edi
	movl	%edi, %esi
	cmpl	$1114112, %edi
	jne	LBB47_350
	jmp	LBB47_516
LBB47_422:
	xorl	%esi, %esi
LBB47_423:
	andl	$7, %edi
	shll	$18, %edi
	shll	$6, %edx
	orl	%edi, %edx
	orl	%esi, %edx
	movl	%edx, %esi
	cmpl	$1114112, %edx
	jne	LBB47_368
	jmp	LBB47_424
LBB47_425:
	xorl	%r10d, %r10d
	movq	%r8, %r9
LBB47_426:
	shll	$6, %edi
	orl	%r10d, %edi
	cmpb	$-16, %sil
	jb	LBB47_429
	cmpq	%r8, %r9
	je	LBB47_580
	movzbl	(%r9), %esi
	andl	$63, %esi
	jmp	LBB47_581
LBB47_429:
	shll	$12, %ebx
LBB47_430:
	orl	%ebx, %edi
	movl	%edi, %esi
LBB47_431:
	cmpl	$58, %esi
	jne	LBB47_435
	movq	%rcx, -192(%rbp)
	incq	%rcx
	movq	%rax, -184(%rbp)
	movq	$1, -88(%rbp)
	movq	%rax, -56(%rbp)
	cmpq	$1, %rax
	je	LBB47_434
	cmpb	$-65, (%rcx)
	jle	LBB47_785
LBB47_434:
	decq	%rax
	movq	%rcx, (%r13)
	movq	%rax, 8(%r13)
	movq	%r15, %rdi
	movq	%r13, %rsi
	movl	$77, %edx
	jmp	LBB47_686
LBB47_435:
	movl	$14, %edx
	movl	$58, %ebx
	movl	%edx, (%r15)
	jmp	LBB47_519
LBB47_436:
	xorl	%r10d, %r10d
	movq	%r8, %r9
LBB47_437:
	shll	$6, %edi
	orl	%r10d, %edi
	cmpb	$-16, %sil
	jb	LBB47_440
	cmpq	%r8, %r9
	je	LBB47_582
	movzbl	(%r9), %esi
	andl	$63, %esi
	jmp	LBB47_583
LBB47_440:
	shll	$12, %ebx
LBB47_441:
	orl	%ebx, %edi
	movl	%edi, %esi
LBB47_442:
	cmpl	$58, %esi
	jne	LBB47_453
	movq	%rdx, -192(%rbp)
	incq	%rdx
	movq	%rcx, -184(%rbp)
	movq	$1, -232(%rbp)
	movq	%rcx, -224(%rbp)
	cmpq	$1, %rcx
	je	LBB47_445
	cmpb	$-65, (%rdx)
	jle	LBB47_786
LBB47_445:
	decq	%rcx
	movq	%rdx, (%r13)
	movq	%rcx, 8(%r13)
	leaq	-56(%rbp), %rdi
	movq	%r13, %rsi
	movl	$77, %edx
	movq	%r14, %rcx
	callq	__ZN4time5parse10parse_type17h67f53a89eb577112E
	movl	-56(%rbp), %eax
	cmpl	$15, %eax
	jne	LBB47_455
	movq	8(%r13), %rcx
	movl	$10, %eax
	testq	%rcx, %rcx
	je	LBB47_458
	movq	(%r13), %rdx
	movzbl	(%rdx), %esi
	testb	%sil, %sil
	jns	LBB47_652
	leaq	(%rdx,%rcx), %r8
	xorl	%edi, %edi
	movq	%r8, %r9
	cmpq	$1, %rcx
	je	LBB47_450
	leaq	2(%rdx), %r9
	movzbl	1(%rdx), %edi
	andl	$63, %edi
LBB47_450:
	movl	%esi, %ebx
	andl	$31, %ebx
	cmpb	$-33, %sil
	jbe	LBB47_590
	cmpq	%r8, %r9
	je	LBB47_646
	movzbl	(%r9), %r10d
	incq	%r9
	andl	$63, %r10d
	jmp	LBB47_647
LBB47_453:
	movl	$14, %eax
	movl	$58, %ebx
LBB47_454:
	movl	%eax, -56(%rbp)
	movl	%ebx, -52(%rbp)
	movl	%esi, -48(%rbp)
LBB47_455:
	movl	-52(%rbp), %ebx
	movl	-48(%rbp), %esi
LBB47_456:
	movl	%eax, -88(%rbp)
	movl	%ebx, -84(%rbp)
	movl	%esi, -80(%rbp)
LBB47_457:
	movl	-84(%rbp), %ebx
	movl	-80(%rbp), %esi
	jmp	LBB47_518
LBB47_458:
	jmp	LBB47_456
LBB47_459:
	xorl	%esi, %esi
LBB47_460:
	andl	$7, %edi
	shll	$18, %edi
	shll	$6, %edx
	orl	%edi, %edx
	orl	%esi, %edx
	movl	%edx, %esi
	cmpl	$1114112, %edx
	jne	LBB47_376
	jmp	LBB47_424
LBB47_462:
	xorl	%esi, %esi
LBB47_463:
	andl	$7, %edx
	shll	$18, %edx
	shll	$6, %ebx
	orl	%edx, %ebx
	orl	%esi, %ebx
	movl	%ebx, %edi
	cmpl	$1114112, %ebx
	jne	LBB47_384
LBB47_464:
	movzbl	(%rcx), %edi
	testb	%dil, %dil
	jns	LBB47_477
	xorl	%ebx, %ebx
	movq	%r8, %rsi
	cmpq	$1, %rax
	je	LBB47_467
	leaq	2(%rcx), %rsi
	movzbl	1(%rcx), %ebx
	andl	$63, %ebx
LBB47_467:
	movl	%edi, %edx
	andl	$31, %edx
	cmpb	$-33, %dil
	jbe	LBB47_470
	cmpq	%r8, %rsi
	je	LBB47_471
	movzbl	(%rsi), %r10d
	incq	%rsi
	andl	$63, %r10d
	jmp	LBB47_472
LBB47_470:
	shll	$6, %edx
	jmp	LBB47_476
LBB47_471:
	xorl	%r10d, %r10d
	movq	%r8, %rsi
LBB47_472:
	shll	$6, %ebx
	orl	%r10d, %ebx
	cmpb	$-16, %dil
	jb	LBB47_475
	cmpq	%r8, %rsi
	je	LBB47_551
	movzbl	(%rsi), %esi
	andl	$63, %esi
	jmp	LBB47_552
LBB47_475:
	shll	$12, %edx
LBB47_476:
	orl	%edx, %ebx
	movl	%ebx, %edi
LBB47_477:
	cmpl	$43, %edi
	jne	LBB47_553
	movq	%rcx, -192(%rbp)
	movq	%rax, -184(%rbp)
	movq	$1, -56(%rbp)
	movq	%rax, -72(%rbp)
	cmpq	$1, %rax
	je	LBB47_480
	cmpb	$-65, (%r9)
	jle	LBB47_773
LBB47_480:
	movl	$1, %ebx
	jmp	LBB47_570
LBB47_481:
	xorl	%r10d, %r10d
	movq	%r8, %r9
LBB47_482:
	shll	$6, %edi
	orl	%r10d, %edi
	cmpb	$-16, %sil
	jb	LBB47_485
	cmpq	%r8, %r9
	je	LBB47_584
	movzbl	(%r9), %esi
	andl	$63, %esi
	jmp	LBB47_585
LBB47_485:
	shll	$12, %ebx
LBB47_486:
	orl	%ebx, %edi
	movl	%edi, %esi
LBB47_487:
	cmpl	$45, %esi
	jne	LBB47_515
	movq	%rdx, -192(%rbp)
	incq	%rdx
	movq	%rcx, -184(%rbp)
	movq	$1, -224(%rbp)
	movq	%rcx, -88(%rbp)
	cmpq	$1, %rcx
	je	LBB47_490
	cmpb	$-65, (%rdx)
	jle	LBB47_779
LBB47_490:
	decq	%rcx
	movq	%rdx, (%r13)
	movq	%rcx, 8(%r13)
	leaq	-56(%rbp), %rdi
	movq	%r13, %rsi
	movl	$109, %edx
	movq	%r14, %rcx
	callq	__ZN4time5parse10parse_type17h67f53a89eb577112E
	movl	-56(%rbp), %eax
	cmpl	$15, %eax
	jne	LBB47_517
	movq	8(%r13), %rcx
	movl	$10, %eax
	testq	%rcx, %rcx
	je	LBB47_663
	movq	(%r13), %rdx
	movzbl	(%rdx), %esi
	testb	%sil, %sil
	jns	LBB47_671
	leaq	(%rdx,%rcx), %r8
	xorl	%edi, %edi
	movq	%r8, %r9
	cmpq	$1, %rcx
	je	LBB47_495
	leaq	2(%rdx), %r9
	movzbl	1(%rdx), %edi
	andl	$63, %edi
LBB47_495:
	movl	%esi, %ebx
	andl	$31, %ebx
	cmpb	$-33, %sil
	jbe	LBB47_591
	cmpq	%r8, %r9
	je	LBB47_665
	movzbl	(%r9), %r10d
	incq	%r9
	andl	$63, %r10d
	jmp	LBB47_666
LBB47_498:
	xorl	%r10d, %r10d
	movq	%r8, %r9
LBB47_499:
	shll	$6, %edi
	orl	%r10d, %edi
	cmpb	$-16, %sil
	jb	LBB47_502
	cmpq	%r8, %r9
	je	LBB47_586
	movzbl	(%r9), %esi
	andl	$63, %esi
	jmp	LBB47_587
LBB47_502:
	shll	$12, %ebx
LBB47_503:
	orl	%ebx, %edi
	movl	%edi, %esi
LBB47_504:
	cmpl	$45, %esi
	jne	LBB47_515
	movq	%rdx, -192(%rbp)
	incq	%rdx
	movq	%rcx, -184(%rbp)
	movq	$1, -224(%rbp)
	movq	%rcx, -88(%rbp)
	cmpq	$1, %rcx
	je	LBB47_507
	cmpb	$-65, (%rdx)
	jle	LBB47_779
LBB47_507:
	decq	%rcx
	movq	%rdx, (%r13)
	movq	%rcx, 8(%r13)
	leaq	-56(%rbp), %rdi
	movq	%r13, %rsi
	movl	$98, %edx
	movq	%r14, %rcx
	callq	__ZN4time5parse10parse_type17h67f53a89eb577112E
	movl	-56(%rbp), %eax
	cmpl	$15, %eax
	jne	LBB47_517
	movq	8(%r13), %rcx
	movl	$10, %eax
	testq	%rcx, %rcx
	je	LBB47_663
	movq	(%r13), %rdx
	movzbl	(%rdx), %esi
	testb	%sil, %sil
	jns	LBB47_681
	leaq	(%rdx,%rcx), %r8
	xorl	%edi, %edi
	movq	%r8, %r9
	cmpq	$1, %rcx
	je	LBB47_512
	leaq	2(%rdx), %r9
	movzbl	1(%rdx), %edi
	andl	$63, %edi
LBB47_512:
	movl	%esi, %ebx
	andl	$31, %ebx
	cmpb	$-33, %sil
	jbe	LBB47_592
	cmpq	%r8, %r9
	je	LBB47_675
	movzbl	(%r9), %r10d
	incq	%r9
	andl	$63, %r10d
	jmp	LBB47_676
LBB47_515:
	movl	$14, %eax
	movl	$45, %ebx
LBB47_516:
	movl	%eax, -56(%rbp)
	movl	%ebx, -52(%rbp)
	movl	%esi, -48(%rbp)
LBB47_517:
	movl	-52(%rbp), %ebx
	movl	-48(%rbp), %esi
LBB47_518:
	movl	%eax, (%r15)
LBB47_519:
	movl	%ebx, 4(%r15)
	movl	%esi, 8(%r15)
	jmp	LBB47_724
LBB47_520:
	xorl	%r10d, %r10d
	movq	%r8, %r9
LBB47_521:
	shll	$6, %edi
	orl	%r10d, %edi
	cmpb	$-16, %sil
	jb	LBB47_524
	cmpq	%r8, %r9
	je	LBB47_588
	movzbl	(%r9), %esi
	andl	$63, %esi
	jmp	LBB47_589
LBB47_524:
	shll	$12, %ebx
LBB47_525:
	orl	%ebx, %edi
	movl	%edi, %esi
LBB47_526:
	cmpl	$32, %esi
	jne	LBB47_537
	movq	%rdx, -192(%rbp)
	incq	%rdx
	movq	%rcx, -184(%rbp)
	movq	$1, -248(%rbp)
	movq	%rcx, -232(%rbp)
	cmpq	$1, %rcx
	je	LBB47_529
	cmpb	$-65, (%rdx)
	jle	LBB47_787
LBB47_529:
	decq	%rcx
	movq	%rdx, (%r13)
	movq	%rcx, 8(%r13)
	leaq	-56(%rbp), %rdi
	movq	%r13, %rsi
	movl	$98, %edx
	movq	%r14, %rcx
	callq	__ZN4time5parse10parse_type17h67f53a89eb577112E
	movl	-56(%rbp), %eax
	cmpl	$15, %eax
	jne	LBB47_539
	movq	8(%r13), %rcx
	movl	$10, %eax
	testq	%rcx, %rcx
	je	LBB47_544
	movq	(%r13), %rdx
	movzbl	(%rdx), %esi
	testb	%sil, %sil
	jns	LBB47_694
	leaq	(%rdx,%rcx), %r8
	xorl	%edi, %edi
	movq	%r8, %r9
	cmpq	$1, %rcx
	je	LBB47_534
	leaq	2(%rdx), %r9
	movzbl	1(%rdx), %edi
	andl	$63, %edi
LBB47_534:
	movl	%esi, %ebx
	andl	$31, %ebx
	cmpb	$-33, %sil
	jbe	LBB47_593
	cmpq	%r8, %r9
	je	LBB47_688
	movzbl	(%r9), %r10d
	incq	%r9
	andl	$63, %r10d
	jmp	LBB47_689
LBB47_537:
	movl	$14, %eax
	movl	$32, %ebx
LBB47_538:
	movl	%eax, -56(%rbp)
	movl	%ebx, -52(%rbp)
	movl	%esi, -48(%rbp)
LBB47_539:
	movl	-52(%rbp), %ebx
	movl	-48(%rbp), %esi
LBB47_540:
	movl	%eax, -88(%rbp)
	movl	%ebx, -84(%rbp)
	movl	%esi, -80(%rbp)
LBB47_541:
	movl	-84(%rbp), %ebx
	movl	-80(%rbp), %esi
LBB47_542:
	movl	%eax, -224(%rbp)
	movl	%ebx, -220(%rbp)
	movl	%esi, -216(%rbp)
LBB47_543:
	movl	-220(%rbp), %ebx
	movl	-216(%rbp), %esi
	jmp	LBB47_518
LBB47_544:
	jmp	LBB47_540
LBB47_545:
	xorl	%esi, %esi
LBB47_546:
	andl	$7, %edi
	shll	$18, %edi
	shll	$6, %edx
	orl	%edi, %edx
	orl	%esi, %edx
	movl	%edx, %esi
	cmpl	$1114112, %edx
	jne	LBB47_394
LBB47_424:
	movl	$10, (%r15)
	jmp	LBB47_724
LBB47_548:
	shll	$6, %ebx
	jmp	LBB47_604
LBB47_549:
	shll	$6, %ebx
	jmp	LBB47_615
LBB47_551:
	xorl	%esi, %esi
LBB47_552:
	andl	$7, %edx
	shll	$18, %edx
	shll	$6, %ebx
	orl	%edx, %ebx
	orl	%esi, %ebx
	movl	%ebx, %edi
	cmpl	$1114112, %ebx
	jne	LBB47_477
LBB47_553:
	movzbl	(%rcx), %edi
	testb	%dil, %dil
	jns	LBB47_566
	xorl	%esi, %esi
	movq	%r8, %rbx
	cmpq	$1, %rax
	je	LBB47_556
	leaq	2(%rcx), %rbx
	movzbl	1(%rcx), %esi
	andl	$63, %esi
LBB47_556:
	movl	%edi, %edx
	andl	$31, %edx
	cmpb	$-33, %dil
	jbe	LBB47_559
	cmpq	%r8, %rbx
	je	LBB47_560
	movzbl	(%rbx), %r9d
	incq	%rbx
	andl	$63, %r9d
	jmp	LBB47_561
LBB47_559:
	shll	$6, %edx
	jmp	LBB47_565
LBB47_560:
	xorl	%r9d, %r9d
	movq	%r8, %rbx
LBB47_561:
	shll	$6, %esi
	orl	%r9d, %esi
	cmpb	$-16, %dil
	jb	LBB47_564
	cmpq	%r8, %rbx
	je	LBB47_639
	movzbl	(%rbx), %edi
	andl	$63, %edi
	jmp	LBB47_640
LBB47_564:
	shll	$12, %edx
LBB47_565:
	orl	%edx, %esi
	movl	%esi, %edi
LBB47_566:
	cmpl	$45, %edi
	jne	LBB47_578
	movq	%rcx, -192(%rbp)
	incq	%rcx
	movq	%rax, -184(%rbp)
	movq	$1, -56(%rbp)
	movq	%rax, -72(%rbp)
	cmpq	$1, %rax
	je	LBB47_569
	cmpb	$-65, (%rcx)
	jle	LBB47_773
LBB47_569:
	movl	$-1, %ebx
	movq	%rcx, %r9
LBB47_570:
	movq	%r9, (%r13)
	decq	%rax
	movq	%rax, 8(%r13)
	movl	$2, %esi
	movl	$2, %edx
	movq	%r13, %rdi
	xorl	%ecx, %ecx
	callq	__ZN4time5parse16match_digits_i6417hb97c811f933016e8E
	testq	%rax, %rax
	je	LBB47_578
	movq	%rdx, %r12
	movq	8(%r13), %rax
	testq	%rax, %rax
	je	LBB47_631
	movq	(%r13), %rcx
	movzbl	(%rcx), %esi
	testb	%sil, %sil
	jns	LBB47_627
	leaq	(%rcx,%rax), %r8
	xorl	%edx, %edx
	movq	%r8, %r9
	cmpq	$1, %rax
	je	LBB47_575
	leaq	2(%rcx), %r9
	movzbl	1(%rcx), %edx
	andl	$63, %edx
LBB47_575:
	movl	%esi, %edi
	andl	$31, %edi
	cmpb	$-33, %sil
	jbe	LBB47_579
	cmpq	%r8, %r9
	je	LBB47_621
	movzbl	(%r9), %r10d
	incq	%r9
	andl	$63, %r10d
	jmp	LBB47_622
LBB47_579:
	shll	$6, %edi
	jmp	LBB47_626
LBB47_580:
	xorl	%esi, %esi
LBB47_581:
	andl	$7, %ebx
	shll	$18, %ebx
	shll	$6, %edi
	orl	%ebx, %edi
	orl	%esi, %edi
	movl	%edi, %esi
	cmpl	$1114112, %edi
	je	LBB47_239
	jmp	LBB47_431
LBB47_582:
	xorl	%esi, %esi
LBB47_583:
	andl	$7, %ebx
	shll	$18, %ebx
	shll	$6, %edi
	orl	%ebx, %edi
	orl	%esi, %edi
	movl	%edi, %esi
	cmpl	$1114112, %edi
	jne	LBB47_442
	jmp	LBB47_454
LBB47_584:
	xorl	%esi, %esi
LBB47_585:
	andl	$7, %ebx
	shll	$18, %ebx
	shll	$6, %edi
	orl	%ebx, %edi
	orl	%esi, %edi
	movl	%edi, %esi
	cmpl	$1114112, %edi
	jne	LBB47_487
	jmp	LBB47_516
LBB47_586:
	xorl	%esi, %esi
LBB47_587:
	andl	$7, %ebx
	shll	$18, %ebx
	shll	$6, %edi
	orl	%ebx, %edi
	orl	%esi, %edi
	movl	%edi, %esi
	cmpl	$1114112, %edi
	jne	LBB47_504
	jmp	LBB47_516
LBB47_588:
	xorl	%esi, %esi
LBB47_589:
	andl	$7, %ebx
	shll	$18, %ebx
	shll	$6, %edi
	orl	%ebx, %edi
	orl	%esi, %edi
	movl	%edi, %esi
	cmpl	$1114112, %edi
	jne	LBB47_526
	jmp	LBB47_538
LBB47_590:
	shll	$6, %ebx
	jmp	LBB47_651
LBB47_591:
	shll	$6, %ebx
	jmp	LBB47_670
LBB47_592:
	shll	$6, %ebx
	jmp	LBB47_680
LBB47_593:
	shll	$6, %ebx
	jmp	LBB47_693
LBB47_594:
	movl	$9, %edx
	leaq	l___unnamed_134+72(%rip), %rsi
	leaq	l___unnamed_73(%rip), %rdi
	cmpq	%rdi, %rcx
	je	LBB47_317
	movabsq	$7017860998831039831, %rdi
	xorq	(%rcx), %rdi
	movzbl	8(%rcx), %ebx
	xorq	$121, %rbx
	orq	%rdi, %rbx
	je	LBB47_317
LBB47_596:
	movl	$8, %edx
	leaq	l___unnamed_134+96(%rip), %rsi
	leaq	L___unnamed_71(%rip), %rdi
	cmpq	%rdi, %rcx
	je	LBB47_317
	movabsq	$8746382398334527572, %rdi
	cmpq	%rdi, (%rcx)
	je	LBB47_317
	xorl	%r8d, %r8d
	jmp	LBB47_266
LBB47_599:
	xorl	%r10d, %r10d
	movq	%r8, %r9
LBB47_600:
	shll	$6, %edi
	orl	%r10d, %edi
	cmpb	$-16, %sil
	jb	LBB47_603
	cmpq	%r8, %r9
	je	LBB47_642
	movzbl	(%r9), %esi
	andl	$63, %esi
	jmp	LBB47_643
LBB47_603:
	shll	$12, %ebx
LBB47_604:
	orl	%ebx, %edi
	movl	%edi, %esi
LBB47_605:
	cmpl	$47, %esi
	jne	LBB47_609
	movq	%rdx, -192(%rbp)
	incq	%rdx
	movq	%rcx, -184(%rbp)
	movq	$1, -88(%rbp)
	movq	%rcx, -72(%rbp)
	cmpq	$1, %rcx
	je	LBB47_608
	cmpb	$-65, (%rdx)
	jle	LBB47_788
LBB47_608:
	decq	%rcx
	movq	%rdx, (%r13)
	movq	%rcx, 8(%r13)
	movq	%r15, %rdi
	movq	%r13, %rsi
	movl	$121, %edx
	jmp	LBB47_686
LBB47_609:
	movl	$14, %eax
	movl	$47, %ebx
	jmp	LBB47_518
LBB47_610:
	xorl	%r10d, %r10d
	movq	%r8, %r9
LBB47_611:
	shll	$6, %edi
	orl	%r10d, %edi
	cmpb	$-16, %sil
	jb	LBB47_614
	cmpq	%r8, %r9
	je	LBB47_644
	movzbl	(%r9), %esi
	andl	$63, %esi
	jmp	LBB47_645
LBB47_614:
	shll	$12, %ebx
LBB47_615:
	orl	%ebx, %edi
	movl	%edi, %esi
LBB47_616:
	cmpl	$58, %esi
	jne	LBB47_620
	movq	%rdx, -192(%rbp)
	incq	%rdx
	movq	%rcx, -184(%rbp)
	movq	$1, -88(%rbp)
	movq	%rcx, -72(%rbp)
	cmpq	$1, %rcx
	je	LBB47_619
	cmpb	$-65, (%rdx)
	jle	LBB47_788
LBB47_619:
	decq	%rcx
	movq	%rdx, (%r13)
	movq	%rcx, 8(%r13)
	movq	%r15, %rdi
	movq	%r13, %rsi
	movl	$83, %edx
	jmp	LBB47_686
LBB47_620:
	movl	$14, %eax
	movl	$58, %ebx
	jmp	LBB47_518
LBB47_621:
	xorl	%r10d, %r10d
	movq	%r8, %r9
LBB47_622:
	shll	$6, %edx
	orl	%r10d, %edx
	cmpb	$-16, %sil
	jb	LBB47_625
	cmpq	%r8, %r9
	je	LBB47_707
	movzbl	(%r9), %esi
	andl	$63, %esi
	jmp	LBB47_708
LBB47_625:
	shll	$12, %edi
LBB47_626:
	orl	%edi, %edx
	movl	%edx, %esi
LBB47_627:
	cmpl	$58, %esi
	jne	LBB47_631
	movq	%rcx, -192(%rbp)
	incq	%rcx
	movq	%rax, -184(%rbp)
	movq	$1, -56(%rbp)
	movq	%rax, -72(%rbp)
	cmpq	$1, %rax
	je	LBB47_630
	cmpb	$-65, (%rcx)
	jle	LBB47_773
LBB47_630:
	decq	%rax
	movq	%rcx, (%r13)
	movq	%rax, 8(%r13)
LBB47_631:
	movl	$2, %esi
	movl	$2, %edx
	movq	%r13, %rdi
	xorl	%ecx, %ecx
	callq	__ZN4time5parse16match_digits_i6417hb97c811f933016e8E
	testq	%rax, %rax
	je	LBB47_578
	imull	$60, %r12d, %eax
	jo	LBB47_781
	imull	$60, %eax, %eax
	jo	LBB47_781
	imull	$60, %edx, %ecx
	jo	LBB47_782
	addl	%ecx, %eax
	jo	LBB47_783
	imull	%eax, %ebx
	jo	LBB47_784
	movl	%ebx, 36(%r14)
	jmp	LBB47_723
LBB47_639:
	xorl	%edi, %edi
LBB47_640:
	andl	$7, %edx
	shll	$18, %edx
	shll	$6, %esi
	orl	%edx, %esi
	orl	%edi, %esi
	movl	%esi, %edi
	cmpl	$1114112, %esi
	jne	LBB47_566
LBB47_578:
	movl	$9, (%r15)
	jmp	LBB47_724
LBB47_642:
	xorl	%esi, %esi
LBB47_643:
	andl	$7, %ebx
	shll	$18, %ebx
	shll	$6, %edi
	orl	%ebx, %edi
	orl	%esi, %edi
	movl	%edi, %esi
	cmpl	$1114112, %edi
	je	LBB47_518
	jmp	LBB47_605
LBB47_644:
	xorl	%esi, %esi
LBB47_645:
	andl	$7, %ebx
	shll	$18, %ebx
	shll	$6, %edi
	orl	%ebx, %edi
	orl	%esi, %edi
	movl	%edi, %esi
	cmpl	$1114112, %edi
	je	LBB47_518
	jmp	LBB47_616
LBB47_646:
	xorl	%r10d, %r10d
	movq	%r8, %r9
LBB47_647:
	shll	$6, %edi
	orl	%r10d, %edi
	cmpb	$-16, %sil
	jb	LBB47_650
	cmpq	%r8, %r9
	je	LBB47_709
	movzbl	(%r9), %esi
	andl	$63, %esi
	jmp	LBB47_710
LBB47_650:
	shll	$12, %ebx
LBB47_651:
	orl	%ebx, %edi
	movl	%edi, %esi
LBB47_652:
	cmpl	$58, %esi
	jne	LBB47_664
	movq	%rdx, -192(%rbp)
	incq	%rdx
	movq	%rcx, -184(%rbp)
	movq	$1, -224(%rbp)
	movq	%rcx, -72(%rbp)
	cmpq	$1, %rcx
	je	LBB47_655
	cmpb	$-65, (%rdx)
	jle	LBB47_789
LBB47_655:
	decq	%rcx
	movq	%rdx, (%r13)
	movq	%rcx, 8(%r13)
	leaq	-88(%rbp), %rdi
	movq	%r13, %rsi
	movl	$83, %edx
	movq	%r14, %rcx
	callq	__ZN4time5parse10parse_type17h67f53a89eb577112E
	movl	-88(%rbp), %eax
	cmpl	$15, %eax
	jne	LBB47_457
	movq	8(%r13), %rcx
	movl	$10, %eax
	testq	%rcx, %rcx
	je	LBB47_663
	movq	(%r13), %rdx
	movzbl	(%rdx), %esi
	testb	%sil, %sil
	jns	LBB47_731
	leaq	(%rdx,%rcx), %r8
	xorl	%edi, %edi
	movq	%r8, %r9
	cmpq	$1, %rcx
	je	LBB47_660
	leaq	2(%rdx), %r9
	movzbl	1(%rdx), %edi
	andl	$63, %edi
LBB47_660:
	movl	%esi, %ebx
	andl	$31, %ebx
	cmpb	$-33, %sil
	jbe	LBB47_717
	cmpq	%r8, %r9
	je	LBB47_725
	movzbl	(%r9), %r10d
	incq	%r9
	andl	$63, %r10d
	jmp	LBB47_726
LBB47_663:
	jmp	LBB47_518
LBB47_664:
	movl	$14, %eax
	movl	$58, %ebx
	jmp	LBB47_456
LBB47_665:
	xorl	%r10d, %r10d
	movq	%r8, %r9
LBB47_666:
	shll	$6, %edi
	orl	%r10d, %edi
	cmpb	$-16, %sil
	jb	LBB47_669
	cmpq	%r8, %r9
	je	LBB47_711
	movzbl	(%r9), %esi
	andl	$63, %esi
	jmp	LBB47_712
LBB47_669:
	shll	$12, %ebx
LBB47_670:
	orl	%ebx, %edi
	movl	%edi, %esi
LBB47_671:
	cmpl	$45, %esi
	jne	LBB47_687
	movq	%rdx, -192(%rbp)
	incq	%rdx
	movq	%rcx, -184(%rbp)
	movq	$1, -88(%rbp)
	movq	%rcx, -72(%rbp)
	cmpq	$1, %rcx
	je	LBB47_674
	cmpb	$-65, (%rdx)
	jle	LBB47_788
LBB47_674:
	decq	%rcx
	movq	%rdx, (%r13)
	movq	%rcx, 8(%r13)
	movq	%r15, %rdi
	movq	%r13, %rsi
	movl	$100, %edx
	jmp	LBB47_686
LBB47_675:
	xorl	%r10d, %r10d
	movq	%r8, %r9
LBB47_676:
	shll	$6, %edi
	orl	%r10d, %edi
	cmpb	$-16, %sil
	jb	LBB47_679
	cmpq	%r8, %r9
	je	LBB47_713
	movzbl	(%r9), %esi
	andl	$63, %esi
	jmp	LBB47_714
LBB47_679:
	shll	$12, %ebx
LBB47_680:
	orl	%ebx, %edi
	movl	%edi, %esi
LBB47_681:
	cmpl	$45, %esi
	jne	LBB47_687
	movq	%rdx, -192(%rbp)
	incq	%rdx
	movq	%rcx, -184(%rbp)
	movq	$1, -88(%rbp)
	movq	%rcx, -72(%rbp)
	cmpq	$1, %rcx
	je	LBB47_684
	cmpb	$-65, (%rdx)
	jle	LBB47_788
LBB47_684:
	decq	%rcx
	movq	%rdx, (%r13)
	movq	%rcx, 8(%r13)
	movq	%r15, %rdi
	movq	%r13, %rsi
LBB47_685:
	movl	$89, %edx
LBB47_686:
	movq	%r14, %rcx
	addq	$216, %rsp
	popq	%rbx
	popq	%r12
	popq	%r13
	popq	%r14
	popq	%r15
	popq	%rbp
	jmp	__ZN4time5parse10parse_type17h67f53a89eb577112E
LBB47_687:
	movl	$14, %eax
	movl	$45, %ebx
	jmp	LBB47_518
LBB47_688:
	xorl	%r10d, %r10d
	movq	%r8, %r9
LBB47_689:
	shll	$6, %edi
	orl	%r10d, %edi
	cmpb	$-16, %sil
	jb	LBB47_692
	cmpq	%r8, %r9
	je	LBB47_715
	movzbl	(%r9), %esi
	andl	$63, %esi
	jmp	LBB47_716
LBB47_692:
	shll	$12, %ebx
LBB47_693:
	orl	%ebx, %edi
	movl	%edi, %esi
LBB47_694:
	cmpl	$32, %esi
	jne	LBB47_705
	movq	%rdx, -192(%rbp)
	incq	%rdx
	movq	%rcx, -184(%rbp)
	movq	$1, -232(%rbp)
	movq	%rcx, -72(%rbp)
	cmpq	$1, %rcx
	je	LBB47_697
	cmpb	$-65, (%rdx)
	jle	LBB47_790
LBB47_697:
	decq	%rcx
	movq	%rdx, (%r13)
	movq	%rcx, 8(%r13)
	leaq	-88(%rbp), %rdi
	movq	%r13, %rsi
	movl	$101, %edx
	movq	%r14, %rcx
	callq	__ZN4time5parse10parse_type17h67f53a89eb577112E
	movl	-88(%rbp), %eax
	cmpl	$15, %eax
	jne	LBB47_541
	movq	8(%r13), %rcx
	movl	$10, %eax
	testq	%rcx, %rcx
	je	LBB47_706
	movq	(%r13), %rdx
	movzbl	(%rdx), %esi
	testb	%sil, %sil
	jns	LBB47_742
	leaq	(%rdx,%rcx), %r8
	xorl	%edi, %edi
	movq	%r8, %r9
	cmpq	$1, %rcx
	je	LBB47_702
	leaq	2(%rdx), %r9
	movzbl	1(%rdx), %edi
	andl	$63, %edi
LBB47_702:
	movl	%esi, %ebx
	andl	$31, %ebx
	cmpb	$-33, %sil
	jbe	LBB47_718
	cmpq	%r8, %r9
	je	LBB47_736
	movzbl	(%r9), %r10d
	incq	%r9
	andl	$63, %r10d
	jmp	LBB47_737
LBB47_705:
	movl	$14, %eax
	movl	$32, %ebx
	jmp	LBB47_540
LBB47_706:
	jmp	LBB47_542
LBB47_707:
	xorl	%esi, %esi
LBB47_708:
	andl	$7, %edi
	shll	$18, %edi
	shll	$6, %edx
	orl	%edi, %edx
	orl	%esi, %edx
	movl	%edx, %esi
	cmpl	$1114112, %edx
	jne	LBB47_627
	jmp	LBB47_631
LBB47_709:
	xorl	%esi, %esi
LBB47_710:
	andl	$7, %ebx
	shll	$18, %ebx
	shll	$6, %edi
	orl	%ebx, %edi
	orl	%esi, %edi
	movl	%edi, %esi
	cmpl	$1114112, %edi
	je	LBB47_456
	jmp	LBB47_652
LBB47_711:
	xorl	%esi, %esi
LBB47_712:
	andl	$7, %ebx
	shll	$18, %ebx
	shll	$6, %edi
	orl	%ebx, %edi
	orl	%esi, %edi
	movl	%edi, %esi
	cmpl	$1114112, %edi
	je	LBB47_518
	jmp	LBB47_671
LBB47_713:
	xorl	%esi, %esi
LBB47_714:
	andl	$7, %ebx
	shll	$18, %ebx
	shll	$6, %edi
	orl	%ebx, %edi
	orl	%esi, %edi
	movl	%edi, %esi
	cmpl	$1114112, %edi
	je	LBB47_518
	jmp	LBB47_681
LBB47_715:
	xorl	%esi, %esi
LBB47_716:
	andl	$7, %ebx
	shll	$18, %ebx
	shll	$6, %edi
	orl	%ebx, %edi
	orl	%esi, %edi
	movl	%edi, %esi
	cmpl	$1114112, %edi
	je	LBB47_540
	jmp	LBB47_694
LBB47_717:
	shll	$6, %ebx
	jmp	LBB47_730
LBB47_718:
	shll	$6, %ebx
	jmp	LBB47_741
LBB47_719:
	movq	%rbx, %r15
	movq	%r8, %r14
	movq	%r9, %r13
LBB47_720:
	movl	16(%rdx), %edx
	movq	%rcx, -192(%rbp)
	movq	%rax, -184(%rbp)
	movq	$3, -56(%rbp)
	movq	%rax, -72(%rbp)
	cmpq	$3, %rax
	je	LBB47_722
	cmpb	$-65, 3(%rcx)
	jle	LBB47_773
LBB47_722:
	addq	$3, %rcx
	addq	$-3, %rax
	movq	%rcx, (%r13)
	movq	%rax, 8(%r13)
	movl	%edx, 16(%r14)
LBB47_723:
	movl	$15, (%r15)
LBB47_724:
	addq	$216, %rsp
	popq	%rbx
	popq	%r12
	popq	%r13
	popq	%r14
	popq	%r15
	popq	%rbp
	retq
LBB47_725:
	xorl	%r10d, %r10d
	movq	%r8, %r9
LBB47_726:
	shll	$6, %edi
	orl	%r10d, %edi
	cmpb	$-16, %sil
	jb	LBB47_729
	cmpq	%r8, %r9
	je	LBB47_755
	movzbl	(%r9), %esi
	andl	$63, %esi
	jmp	LBB47_756
LBB47_729:
	shll	$12, %ebx
LBB47_730:
	orl	%ebx, %edi
	movl	%edi, %esi
LBB47_731:
	cmpl	$32, %esi
	jne	LBB47_735
	movq	%rdx, -192(%rbp)
	incq	%rdx
	movq	%rcx, -184(%rbp)
	movq	$1, -56(%rbp)
	movq	%rcx, -72(%rbp)
	cmpq	$1, %rcx
	je	LBB47_734
	cmpb	$-65, (%rdx)
	jle	LBB47_791
LBB47_734:
	decq	%rcx
	movq	%rdx, (%r13)
	movq	%rcx, 8(%r13)
	movq	%r15, %rdi
	movq	%r13, %rsi
	movl	$112, %edx
	jmp	LBB47_686
LBB47_735:
	movl	$14, %eax
	movl	$32, %ebx
	jmp	LBB47_518
LBB47_736:
	xorl	%r10d, %r10d
	movq	%r8, %r9
LBB47_737:
	shll	$6, %edi
	orl	%r10d, %edi
	cmpb	$-16, %sil
	jb	LBB47_740
	cmpq	%r8, %r9
	je	LBB47_757
	movzbl	(%r9), %esi
	andl	$63, %esi
	jmp	LBB47_758
LBB47_740:
	shll	$12, %ebx
LBB47_741:
	orl	%ebx, %edi
	movl	%edi, %esi
LBB47_742:
	cmpl	$32, %esi
	jne	LBB47_753
	movq	%rdx, -192(%rbp)
	incq	%rdx
	movq	%rcx, -184(%rbp)
	movq	$1, -56(%rbp)
	movq	%rcx, -72(%rbp)
	cmpq	$1, %rcx
	je	LBB47_745
	cmpb	$-65, (%rdx)
	jle	LBB47_791
LBB47_745:
	decq	%rcx
	movq	%r13, %rbx
	movq	%rdx, (%r13)
	movq	%rcx, 8(%r13)
	leaq	-224(%rbp), %rdi
	movq	%r13, %rsi
	movl	$84, %edx
	movq	%r14, %rcx
	callq	__ZN4time5parse10parse_type17h67f53a89eb577112E
	movl	-224(%rbp), %eax
	cmpl	$15, %eax
	jne	LBB47_543
	movq	%r15, %rdi
	movq	8(%rbx), %rcx
	movl	$10, %eax
	testq	%rcx, %rcx
	je	LBB47_754
	movq	%rbx, %r13
	movq	(%rbx), %rdx
	movzbl	(%rdx), %esi
	testb	%sil, %sil
	jns	LBB47_766
	leaq	(%rdx,%rcx), %r8
	xorl	%r11d, %r11d
	movq	%r8, %r9
	cmpq	$1, %rcx
	je	LBB47_750
	leaq	2(%rdx), %r9
	movzbl	1(%rdx), %r11d
	andl	$63, %r11d
LBB47_750:
	movl	%esi, %ebx
	andl	$31, %ebx
	cmpb	$-33, %sil
	jbe	LBB47_759
	cmpq	%r8, %r9
	je	LBB47_760
	movzbl	(%r9), %r10d
	incq	%r9
	andl	$63, %r10d
	jmp	LBB47_761
LBB47_753:
	movl	$14, %eax
	movl	$32, %ebx
	jmp	LBB47_542
LBB47_754:
	movq	%rdi, %r15
	jmp	LBB47_518
LBB47_755:
	xorl	%esi, %esi
LBB47_756:
	andl	$7, %ebx
	shll	$18, %ebx
	shll	$6, %edi
	orl	%ebx, %edi
	orl	%esi, %edi
	movl	%edi, %esi
	cmpl	$1114112, %edi
	je	LBB47_518
	jmp	LBB47_731
LBB47_757:
	xorl	%esi, %esi
LBB47_758:
	andl	$7, %ebx
	shll	$18, %ebx
	shll	$6, %edi
	orl	%ebx, %edi
	orl	%esi, %edi
	movl	%edi, %esi
	cmpl	$1114112, %edi
	je	LBB47_542
	jmp	LBB47_742
LBB47_759:
	shll	$6, %ebx
	jmp	LBB47_765
LBB47_760:
	xorl	%r10d, %r10d
	movq	%r8, %r9
LBB47_761:
	shll	$6, %r11d
	orl	%r10d, %r11d
	cmpb	$-16, %sil
	jb	LBB47_764
	cmpq	%r8, %r9
	je	LBB47_771
	movzbl	(%r9), %esi
	andl	$63, %esi
	jmp	LBB47_772
LBB47_764:
	shll	$12, %ebx
LBB47_765:
	orl	%ebx, %r11d
	movl	%r11d, %esi
LBB47_766:
	cmpl	$32, %esi
	jne	LBB47_770
	movq	%rdx, -192(%rbp)
	incq	%rdx
	movq	%rcx, -184(%rbp)
	movq	$1, -56(%rbp)
	movq	%rcx, -72(%rbp)
	cmpq	$1, %rcx
	je	LBB47_769
	cmpb	$-65, (%rdx)
	jle	LBB47_791
LBB47_769:
	decq	%rcx
	movq	%r13, %rsi
	movq	%rdx, (%r13)
	movq	%rcx, 8(%r13)
	jmp	LBB47_685
LBB47_770:
	movl	$14, %eax
	movl	$32, %ebx
	movq	%rdi, %r15
	jmp	LBB47_518
LBB47_771:
	xorl	%esi, %esi
LBB47_772:
	andl	$7, %ebx
	shll	$18, %ebx
	shll	$6, %r11d
	orl	%ebx, %r11d
	orl	%esi, %r11d
	movl	%r11d, %esi
	cmpl	$1114112, %r11d
	movq	%rdi, %r15
	je	LBB47_518
	jmp	LBB47_766
LBB47_773:
	leaq	-192(%rbp), %rax
	movq	%rax, -144(%rbp)
	leaq	-56(%rbp), %rax
	movq	%rax, -136(%rbp)
	leaq	-72(%rbp), %rax
	movq	%rax, -128(%rbp)
	leaq	-144(%rbp), %rdi
	callq	__ZN4core3str6traits105_$LT$impl$u20$core..slice..SliceIndex$LT$str$GT$$u20$for$u20$core..ops..range..RangeFrom$LT$usize$GT$$GT$5index28_$u7b$$u7b$closure$u7d$$u7d$17h96cecb2ca76e37c9E
LBB47_774:
	leaq	_str.5(%rip), %rdi
	leaq	l___unnamed_139(%rip), %rdx
	movl	$28, %esi
	callq	__ZN4core9panicking5panic17h383a6b80ea7021aaE
LBB47_775:
	leaq	-72(%rbp), %rbx
	movq	%rbx, %rdi
	callq	__ZN3std2io5error5Error13last_os_error17hc3bba933b5587d76E
	movq	%rbx, -56(%rbp)
	movq	__ZN60_$LT$std..io..error..Error$u20$as$u20$core..fmt..Display$GT$3fmt17h3716551a80b2cfe9E@GOTPCREL(%rip), %rax
	movq	%rax, -48(%rbp)
	leaq	l___unnamed_140(%rip), %rax
	movq	%rax, -192(%rbp)
	movq	$1, -184(%rbp)
	movq	$0, -176(%rbp)
	leaq	-56(%rbp), %rax
	movq	%rax, -160(%rbp)
	movq	$1, -152(%rbp)
Ltmp6:
	leaq	l___unnamed_141(%rip), %rsi
	leaq	-192(%rbp), %rdi
	callq	__ZN3std9panicking15begin_panic_fmt17h8712912d987f10a1E
Ltmp7:
	ud2
LBB47_777:
	leaq	_str.3(%rip), %rdi
	leaq	l___unnamed_142(%rip), %rdx
	movl	$33, %esi
	callq	__ZN4core9panicking5panic17h383a6b80ea7021aaE
LBB47_778:
	leaq	_str.5(%rip), %rdi
	leaq	l___unnamed_143(%rip), %rdx
	movl	$28, %esi
	callq	__ZN4core9panicking5panic17h383a6b80ea7021aaE
LBB47_779:
	leaq	-192(%rbp), %rax
	movq	%rax, -144(%rbp)
	leaq	-224(%rbp), %rax
	movq	%rax, -136(%rbp)
	leaq	-88(%rbp), %rax
	movq	%rax, -128(%rbp)
	leaq	-144(%rbp), %rdi
	callq	__ZN4core3str6traits105_$LT$impl$u20$core..slice..SliceIndex$LT$str$GT$$u20$for$u20$core..ops..range..RangeFrom$LT$usize$GT$$GT$5index28_$u7b$$u7b$closure$u7d$$u7d$17h96cecb2ca76e37c9E
LBB47_780:
	leaq	_str.5(%rip), %rdi
	leaq	l___unnamed_144(%rip), %rdx
	movl	$28, %esi
	callq	__ZN4core9panicking5panic17h383a6b80ea7021aaE
LBB47_781:
	leaq	_str.2(%rip), %rdi
	leaq	l___unnamed_145(%rip), %rdx
	movl	$33, %esi
	callq	__ZN4core9panicking5panic17h383a6b80ea7021aaE
LBB47_782:
	leaq	_str.2(%rip), %rdi
	leaq	l___unnamed_146(%rip), %rdx
	movl	$33, %esi
	callq	__ZN4core9panicking5panic17h383a6b80ea7021aaE
LBB47_783:
	leaq	_str.5(%rip), %rdi
	leaq	l___unnamed_147(%rip), %rdx
	movl	$28, %esi
	callq	__ZN4core9panicking5panic17h383a6b80ea7021aaE
LBB47_784:
	leaq	_str.2(%rip), %rdi
	leaq	l___unnamed_148(%rip), %rdx
	movl	$33, %esi
	callq	__ZN4core9panicking5panic17h383a6b80ea7021aaE
LBB47_785:
	leaq	-192(%rbp), %rax
	movq	%rax, -144(%rbp)
	leaq	-88(%rbp), %rax
	movq	%rax, -136(%rbp)
	leaq	-56(%rbp), %rax
	movq	%rax, -128(%rbp)
	leaq	-144(%rbp), %rdi
	callq	__ZN4core3str6traits105_$LT$impl$u20$core..slice..SliceIndex$LT$str$GT$$u20$for$u20$core..ops..range..RangeFrom$LT$usize$GT$$GT$5index28_$u7b$$u7b$closure$u7d$$u7d$17h96cecb2ca76e37c9E
LBB47_786:
	leaq	-192(%rbp), %rax
	movq	%rax, -144(%rbp)
	leaq	-232(%rbp), %rax
	movq	%rax, -136(%rbp)
	leaq	-224(%rbp), %rax
	movq	%rax, -128(%rbp)
	leaq	-144(%rbp), %rdi
	callq	__ZN4core3str6traits105_$LT$impl$u20$core..slice..SliceIndex$LT$str$GT$$u20$for$u20$core..ops..range..RangeFrom$LT$usize$GT$$GT$5index28_$u7b$$u7b$closure$u7d$$u7d$17h96cecb2ca76e37c9E
LBB47_787:
	leaq	-192(%rbp), %rax
	movq	%rax, -144(%rbp)
	leaq	-248(%rbp), %rax
	movq	%rax, -136(%rbp)
	leaq	-232(%rbp), %rax
	movq	%rax, -128(%rbp)
	leaq	-144(%rbp), %rdi
	callq	__ZN4core3str6traits105_$LT$impl$u20$core..slice..SliceIndex$LT$str$GT$$u20$for$u20$core..ops..range..RangeFrom$LT$usize$GT$$GT$5index28_$u7b$$u7b$closure$u7d$$u7d$17h96cecb2ca76e37c9E
LBB47_788:
	leaq	-192(%rbp), %rax
	movq	%rax, -144(%rbp)
	leaq	-88(%rbp), %rax
	movq	%rax, -136(%rbp)
	movq	%r12, -128(%rbp)
	leaq	-144(%rbp), %rdi
	callq	__ZN4core3str6traits105_$LT$impl$u20$core..slice..SliceIndex$LT$str$GT$$u20$for$u20$core..ops..range..RangeFrom$LT$usize$GT$$GT$5index28_$u7b$$u7b$closure$u7d$$u7d$17h96cecb2ca76e37c9E
LBB47_789:
	leaq	-192(%rbp), %rax
	movq	%rax, -144(%rbp)
	leaq	-224(%rbp), %rax
	movq	%rax, -136(%rbp)
	movq	%r12, -128(%rbp)
	leaq	-144(%rbp), %rdi
	callq	__ZN4core3str6traits105_$LT$impl$u20$core..slice..SliceIndex$LT$str$GT$$u20$for$u20$core..ops..range..RangeFrom$LT$usize$GT$$GT$5index28_$u7b$$u7b$closure$u7d$$u7d$17h96cecb2ca76e37c9E
LBB47_790:
	leaq	-192(%rbp), %rax
	movq	%rax, -144(%rbp)
	leaq	-232(%rbp), %rax
	movq	%rax, -136(%rbp)
	movq	%r12, -128(%rbp)
	leaq	-144(%rbp), %rdi
	callq	__ZN4core3str6traits105_$LT$impl$u20$core..slice..SliceIndex$LT$str$GT$$u20$for$u20$core..ops..range..RangeFrom$LT$usize$GT$$GT$5index28_$u7b$$u7b$closure$u7d$$u7d$17h96cecb2ca76e37c9E
LBB47_791:
	leaq	-192(%rbp), %rax
	movq	%rax, -144(%rbp)
	leaq	-56(%rbp), %rax
	movq	%rax, -136(%rbp)
	movq	%r12, -128(%rbp)
	leaq	-144(%rbp), %rdi
	callq	__ZN4core3str6traits105_$LT$impl$u20$core..slice..SliceIndex$LT$str$GT$$u20$for$u20$core..ops..range..RangeFrom$LT$usize$GT$$GT$5index28_$u7b$$u7b$closure$u7d$$u7d$17h96cecb2ca76e37c9E
LBB47_792:
Ltmp8:
	movq	%rax, %rbx
	leaq	-72(%rbp), %rdi
	callq	__ZN4core3ptr13drop_in_place17h0a612e669328caacE
	movq	%rbx, %rdi
	callq	__Unwind_Resume
	ud2
Lfunc_end2:
	.cfi_endproc
	.p2align	2, 0x90
	.data_region jt32
.set L47_0_set_120, LBB47_120-LJTI47_0
.set L47_0_set_219, LBB47_219-LJTI47_0
.set L47_0_set_137, LBB47_137-LJTI47_0
.set L47_0_set_108, LBB47_108-LJTI47_0
.set L47_0_set_151, LBB47_151-LJTI47_0
.set L47_0_set_2, LBB47_2-LJTI47_0
.set L47_0_set_139, LBB47_139-LJTI47_0
.set L47_0_set_147, LBB47_147-LJTI47_0
.set L47_0_set_171, LBB47_171-LJTI47_0
.set L47_0_set_168, LBB47_168-LJTI47_0
.set L47_0_set_87, LBB47_87-LJTI47_0
.set L47_0_set_100, LBB47_100-LJTI47_0
.set L47_0_set_94, LBB47_94-LJTI47_0
.set L47_0_set_10, LBB47_10-LJTI47_0
.set L47_0_set_127, LBB47_127-LJTI47_0
.set L47_0_set_172, LBB47_172-LJTI47_0
.set L47_0_set_156, LBB47_156-LJTI47_0
.set L47_0_set_18, LBB47_18-LJTI47_0
.set L47_0_set_192, LBB47_192-LJTI47_0
.set L47_0_set_46, LBB47_46-LJTI47_0
.set L47_0_set_82, LBB47_82-LJTI47_0
.set L47_0_set_48, LBB47_48-LJTI47_0
.set L47_0_set_97, LBB47_97-LJTI47_0
.set L47_0_set_47, LBB47_47-LJTI47_0
.set L47_0_set_203, LBB47_203-LJTI47_0
.set L47_0_set_200, LBB47_200-LJTI47_0
.set L47_0_set_75, LBB47_75-LJTI47_0
.set L47_0_set_89, LBB47_89-LJTI47_0
.set L47_0_set_112, LBB47_112-LJTI47_0
.set L47_0_set_91, LBB47_91-LJTI47_0
.set L47_0_set_212, LBB47_212-LJTI47_0
.set L47_0_set_72, LBB47_72-LJTI47_0
.set L47_0_set_158, LBB47_158-LJTI47_0
.set L47_0_set_208, LBB47_208-LJTI47_0
.set L47_0_set_20, LBB47_20-LJTI47_0
.set L47_0_set_130, LBB47_130-LJTI47_0
LJTI47_0:
	.long	L47_0_set_120
	.long	L47_0_set_219
	.long	L47_0_set_219
	.long	L47_0_set_219
	.long	L47_0_set_219
	.long	L47_0_set_219
	.long	L47_0_set_219
	.long	L47_0_set_219
	.long	L47_0_set_219
	.long	L47_0_set_219
	.long	L47_0_set_219
	.long	L47_0_set_219
	.long	L47_0_set_219
	.long	L47_0_set_219
	.long	L47_0_set_219
	.long	L47_0_set_219
	.long	L47_0_set_219
	.long	L47_0_set_219
	.long	L47_0_set_219
	.long	L47_0_set_219
	.long	L47_0_set_219
	.long	L47_0_set_219
	.long	L47_0_set_219
	.long	L47_0_set_219
	.long	L47_0_set_219
	.long	L47_0_set_219
	.long	L47_0_set_219
	.long	L47_0_set_219
	.long	L47_0_set_137
	.long	L47_0_set_108
	.long	L47_0_set_151
	.long	L47_0_set_2
	.long	L47_0_set_219
	.long	L47_0_set_139
	.long	L47_0_set_219
	.long	L47_0_set_147
	.long	L47_0_set_171
	.long	L47_0_set_219
	.long	L47_0_set_219
	.long	L47_0_set_219
	.long	L47_0_set_168
	.long	L47_0_set_219
	.long	L47_0_set_219
	.long	L47_0_set_87
	.long	L47_0_set_219
	.long	L47_0_set_100
	.long	L47_0_set_94
	.long	L47_0_set_10
	.long	L47_0_set_219
	.long	L47_0_set_219
	.long	L47_0_set_219
	.long	L47_0_set_10
	.long	L47_0_set_127
	.long	L47_0_set_172
	.long	L47_0_set_219
	.long	L47_0_set_219
	.long	L47_0_set_219
	.long	L47_0_set_219
	.long	L47_0_set_219
	.long	L47_0_set_219
	.long	L47_0_set_156
	.long	L47_0_set_18
	.long	L47_0_set_192
	.long	L47_0_set_46
	.long	L47_0_set_82
	.long	L47_0_set_48
	.long	L47_0_set_219
	.long	L47_0_set_18
	.long	L47_0_set_219
	.long	L47_0_set_97
	.long	L47_0_set_47
	.long	L47_0_set_203
	.long	L47_0_set_200
	.long	L47_0_set_75
	.long	L47_0_set_219
	.long	L47_0_set_89
	.long	L47_0_set_219
	.long	L47_0_set_112
	.long	L47_0_set_91
	.long	L47_0_set_212
	.long	L47_0_set_72
	.long	L47_0_set_158
	.long	L47_0_set_208
	.long	L47_0_set_2
	.long	L47_0_set_20
	.long	L47_0_set_130
	.end_data_region
	.section	__TEXT,__gcc_except_tab
	.p2align	2
GCC_except_table47:
Lexception2:
	.byte	255
	.byte	255
	.byte	1
	.uleb128 Lcst_end2-Lcst_begin2
Lcst_begin2:
	.uleb128 Lfunc_begin2-Lfunc_begin2
	.uleb128 Ltmp6-Lfunc_begin2
	.byte	0
	.byte	0
	.uleb128 Ltmp6-Lfunc_begin2
	.uleb128 Ltmp7-Ltmp6
	.uleb128 Ltmp8-Lfunc_begin2
	.byte	0
	.uleb128 Ltmp7-Lfunc_begin2
	.uleb128 Lfunc_end2-Ltmp7
	.byte	0
	.byte	0
Lcst_end2:
	.p2align	2

	.section	__TEXT,__text,regular,pure_instructions
	.p2align	4, 0x90
__ZN4time5parse16match_digits_i6417hb97c811f933016e8E:
	.cfi_startproc
	pushq	%rbp
	.cfi_def_cfa_offset 16
	.cfi_offset %rbp, -16
	movq	%rsp, %rbp
	.cfi_def_cfa_register %rbp
	pushq	%r15
	pushq	%r14
	pushq	%r13
	pushq	%r12
	pushq	%rbx
	subq	$328, %rsp
	.cfi_offset %rbx, -56
	.cfi_offset %r12, -48
	.cfi_offset %r13, -40
	.cfi_offset %r14, -32
	.cfi_offset %r15, -24
	movq	%rdx, %r13
	testl	%ecx, %ecx
	je	LBB48_59
	movq	%rsi, -216(%rbp)
	movq	%r13, -64(%rbp)
	movq	(%rdi), %rsi
	movq	%rdi, -72(%rbp)
	movq	8(%rdi), %rdx
	leaq	l___unnamed_40(%rip), %rcx
	leaq	-208(%rbp), %rdi
	movl	$1, %r8d
	movq	%rdx, -56(%rbp)
	callq	__ZN4core3str7pattern11StrSearcher3new17hb3e2f8082f620422E
	movq	-176(%rbp), %r10
	movq	-168(%rbp), %r8
	movq	-208(%rbp), %r12
	movq	-200(%rbp), %rsi
	movq	%r8, %rax
	subq	$1, %rax
	movq	%rax, -336(%rbp)
	setb	%al
	cmpq	%r8, %rsi
	sete	%r9b
	orb	%al, %r9b
	leaq	(%r12,%r8), %r15
	leaq	(%r12,%rsi), %rax
	movq	%rax, -232(%rbp)
	leaq	1(%r12,%r8), %rdi
	leaq	2(%r12,%r8), %rax
	movq	%rax, -352(%rbp)
	movq	-192(%rbp), %rax
	movq	-136(%rbp), %r14
	movq	%r14, %rcx
	subq	%r8, %rcx
	movq	%rcx, -296(%rbp)
	movq	-184(%rbp), %r11
	movq	-144(%rbp), %rcx
	movq	%rcx, -320(%rbp)
	leaq	-1(%r11), %rcx
	movq	%rcx, -304(%rbp)
	movq	-120(%rbp), %rcx
	movq	%rcx, -80(%rbp)
	leaq	(%r12,%r14), %rcx
	movq	%rcx, -240(%rbp)
	movq	%rax, -104(%rbp)
	addq	%r8, %rax
	movq	%rax, -344(%rbp)
	movq	%r10, -224(%rbp)
	movq	%rdi, -312(%rbp)
LBB48_2:
	movb	-152(%rbp), %bl
	movq	%r14, -88(%rbp)
	jmp	LBB48_6
LBB48_3:
	shll	$6, %r14d
LBB48_4:
	orl	%r14d, %r10d
	movl	%r10d, %edx
	movq	-88(%rbp), %r14
	movq	-224(%rbp), %r10
	movl	%r13d, %r9d
	.p2align	4, 0x90
LBB48_5:
	testb	%cl, %cl
	je	LBB48_60
LBB48_6:
	movl	%ebx, %ecx
	testq	%r10, %r10
	jne	LBB48_24
	testb	%cl, %cl
	sete	%bl
	movq	%r12, -256(%rbp)
	movq	%rsi, -248(%rbp)
	movq	%r8, -360(%rbp)
	movq	%rsi, -96(%rbp)
	testb	%r9b, %r9b
	jne	LBB48_10
	cmpq	%r8, %rsi
	jbe	LBB48_126
	cmpb	$-65, (%r15)
	jle	LBB48_126
LBB48_10:
	movl	$1114112, %edx
	cmpq	%r8, %rsi
	je	LBB48_5
	movzbl	(%r15), %edx
	testb	%dl, %dl
	jns	LBB48_5
	movl	%r9d, %r13d
	movq	-232(%rbp), %r9
	cmpq	%r9, %rdi
	je	LBB48_14
	movzbl	(%rdi), %r10d
	andl	$63, %r10d
	movq	-352(%rbp), %r9
	movl	%edx, %r14d
	andl	$31, %r14d
	cmpb	$-33, %dl
	jbe	LBB48_3
	jmp	LBB48_15
LBB48_14:
	xorl	%r10d, %r10d
	movl	%edx, %r14d
	andl	$31, %r14d
	cmpb	$-33, %dl
	jbe	LBB48_3
LBB48_15:
	movq	-232(%rbp), %rdi
	cmpq	%rdi, %r9
	je	LBB48_17
	movzbl	(%r9), %eax
	incq	%r9
	andl	$63, %eax
	jmp	LBB48_18
LBB48_17:
	xorl	%eax, %eax
	movq	%rdi, %r9
LBB48_18:
	shll	$6, %r10d
	orl	%eax, %r10d
	cmpb	$-16, %dl
	movq	-312(%rbp), %rdi
	jb	LBB48_21
	cmpq	-232(%rbp), %r9
	je	LBB48_22
	movzbl	(%r9), %eax
	andl	$63, %eax
	jmp	LBB48_23
LBB48_21:
	shll	$12, %r14d
	jmp	LBB48_4
LBB48_22:
	xorl	%eax, %eax
LBB48_23:
	movl	%r13d, %r9d
	andl	$7, %r14d
	shll	$18, %r14d
	shll	$6, %r10d
	orl	%r14d, %r10d
	orl	%eax, %r10d
	movl	%r10d, %edx
	movq	-88(%rbp), %r14
	movq	-224(%rbp), %r10
	jmp	LBB48_5
	.p2align	4, 0x90
LBB48_24:
	movb	%cl, -152(%rbp)
	cmpq	%rsi, %r14
	je	LBB48_79
	leaq	-1(%r14,%r11), %rdi
	cmpq	%rsi, %rdi
	movq	-80(%rbp), %rcx
	jae	LBB48_80
	leaq	(%r14,%r11), %r13
	movq	-152(%rbp), %rax
	leaq	(%rax,%r14), %rdx
	movq	%rdx, -288(%rbp)
	cmpq	$-1, %rcx
	movb	%r9b, -41(%rbp)
	je	LBB48_43
	movq	%r11, %rdx
	subq	%rax, %rdx
	movq	%rdx, -328(%rbp)
	movq	%rcx, %r9
	movq	%r14, %rcx
	movq	-104(%rbp), %rdx
	movq	%r13, -88(%rbp)
	jmp	LBB48_30
	.p2align	4, 0x90
LBB48_28:
	xorl	%r9d, %r9d
	movq	%r13, %rcx
LBB48_29:
	movq	-304(%rbp), %rax
	leaq	(%rcx,%rax), %rdi
	cmpq	%rsi, %rdi
	jae	LBB48_66
LBB48_30:
	cmpq	%rcx, %r14
	jne	LBB48_65
	movzbl	(%r12,%rdi), %eax
	movq	-320(%rbp), %rcx
	btq	%rax, %rcx
	jae	LBB48_28
	cmpq	%r9, %r8
	movq	%r9, %rbx
	cmovaq	%r8, %rbx
	movq	-296(%rbp), %rax
	leaq	(%rax,%rbx), %rcx
	leaq	(%rdx,%rbx), %rax
	leaq	(%r14,%rbx), %rdi
	.p2align	4, 0x90
LBB48_33:
	cmpq	%r11, %rbx
	jae	LBB48_37
	cmpq	%rsi, %rdi
	jae	LBB48_127
	movzbl	(%rax), %edx
	incq	%rcx
	incq	%rax
	incq	%rdi
	movq	-240(%rbp), %r13
	cmpb	(%r13,%rbx), %dl
	leaq	1(%rbx), %rbx
	je	LBB48_33
	xorl	%r9d, %r9d
	movq	-104(%rbp), %rdx
	movq	-88(%rbp), %r13
	jmp	LBB48_29
	.p2align	4, 0x90
LBB48_37:
	movq	%r8, %rdi
	movq	-104(%rbp), %rdx
	movq	-88(%rbp), %r13
	.p2align	4, 0x90
LBB48_38:
	cmpq	%rdi, %r9
	jae	LBB48_58
	decq	%rdi
	cmpq	%r11, %rdi
	jae	LBB48_129
	leaq	(%rdi,%r14), %rcx
	cmpq	%rsi, %rcx
	jae	LBB48_130
	movzbl	(%rdx,%rdi), %eax
	cmpb	(%r12,%rcx), %al
	je	LBB48_38
	movq	-328(%rbp), %r9
	movq	-288(%rbp), %rcx
	jmp	LBB48_29
LBB48_43:
	movq	%r14, %rcx
	jmp	LBB48_46
LBB48_44:
	movq	-288(%rbp), %rcx
	.p2align	4, 0x90
LBB48_45:
	movq	-304(%rbp), %rax
	leaq	(%rcx,%rax), %rdi
	cmpq	%rsi, %rdi
	jae	LBB48_76
LBB48_46:
	cmpq	%rcx, %r14
	jne	LBB48_67
	movzbl	(%r12,%rdi), %eax
	movq	-320(%rbp), %rcx
	btq	%rax, %rcx
	movq	%r13, %rcx
	jae	LBB48_45
	xorl	%eax, %eax
	movq	-344(%rbp), %rbx
	movq	%r14, %rcx
	.p2align	4, 0x90
LBB48_49:
	leaq	(%r8,%rax), %rdi
	cmpq	%r11, %rdi
	jae	LBB48_52
	leaq	(%r8,%rcx), %rdi
	cmpq	%rsi, %rdi
	jae	LBB48_128
	movzbl	(%rbx), %edx
	incq	%rbx
	incq	%rax
	cmpb	(%r15,%rcx), %dl
	leaq	1(%rcx), %rcx
	je	LBB48_49
	jmp	LBB48_45
LBB48_52:
	movq	-336(%rbp), %rdi
	movq	-104(%rbp), %rdx
	.p2align	4, 0x90
LBB48_53:
	cmpq	$-1, %rdi
	je	LBB48_57
	cmpq	%r11, %rdi
	jae	LBB48_134
	leaq	(%r14,%rdi), %rcx
	cmpq	%rsi, %rcx
	jae	LBB48_136
	movzbl	(%rdx,%rdi), %eax
	movq	-240(%rbp), %rcx
	cmpb	(%rcx,%rdi), %al
	leaq	-1(%rdi), %rdi
	je	LBB48_53
	jmp	LBB48_44
LBB48_57:
	movq	$-1, %r9
LBB48_58:
	cmpq	$-1, -80(%rbp)
	movl	$0, %eax
	cmovneq	%rax, %r9
	addq	%r11, -296(%rbp)
	addq	%r11, -240(%rbp)
	movq	%r9, -80(%rbp)
	movq	%r13, %r14
	movb	-41(%rbp), %r9b
	movq	-312(%rbp), %rdi
	jmp	LBB48_2
LBB48_59:
	movq	8(%rdi), %r9
	xorl	%ebx, %ebx
	jmp	LBB48_87
LBB48_60:
	movb	%bl, -152(%rbp)
	movq	-80(%rbp), %rax
	movq	%rax, -120(%rbp)
	movq	%r14, -136(%rbp)
	movq	-56(%rbp), %r10
	movq	%r10, %r14
	cmpl	$1114112, %edx
	movq	-72(%rbp), %rdi
	movq	-64(%rbp), %r13
	movq	-216(%rbp), %rsi
	je	LBB48_84
	movl	$1, %eax
	cmpl	$128, %edx
	jb	LBB48_64
	movl	$2, %eax
	cmpl	$2048, %edx
	jb	LBB48_64
	cmpl	$65536, %edx
	movl	$4, %eax
	sbbq	$0, %rax
LBB48_64:
	addq	%r8, %rax
	movq	%rax, -168(%rbp)
	movq	%r8, %r14
	jmp	LBB48_84
LBB48_65:
	movq	%rcx, -136(%rbp)
	movq	%r9, -120(%rbp)
	jmp	LBB48_68
LBB48_66:
	movq	%rcx, -136(%rbp)
	movq	%r9, -120(%rbp)
	jmp	LBB48_81
LBB48_67:
	movq	$-1, -120(%rbp)
	movq	%rcx, -136(%rbp)
LBB48_68:
	testq	%rcx, %rcx
	movq	-72(%rbp), %rdi
	movq	-64(%rbp), %r13
	movq	-56(%rbp), %r10
	je	LBB48_78
	cmpq	%rcx, %rsi
	je	LBB48_78
	leaq	-1(%rsi), %rdx
	movq	%rcx, %rbx
	.p2align	4, 0x90
LBB48_71:
	cmpq	%rbx, %rsi
	jbe	LBB48_73
	cmpb	$-64, (%r12,%rbx)
	jge	LBB48_125
LBB48_73:
	movq	%rbx, %rax
	incq	%rax
	je	LBB48_75
	cmpq	%rbx, %rdx
	movq	%rax, %rbx
	jne	LBB48_71
LBB48_75:
	movq	%rcx, %rsi
	movq	%rax, %rcx
	jmp	LBB48_82
LBB48_78:
	movq	%rcx, %rsi
	jmp	LBB48_82
LBB48_76:
	movq	$-1, -120(%rbp)
	movq	%rcx, -136(%rbp)
	jmp	LBB48_81
LBB48_79:
	movq	-80(%rbp), %rax
	movq	%rax, -120(%rbp)
	movq	%rsi, -136(%rbp)
	movq	-56(%rbp), %r10
	movq	%r10, %r14
	movq	-72(%rbp), %rdi
	movq	-64(%rbp), %r13
	jmp	LBB48_83
LBB48_80:
	movq	%rcx, -120(%rbp)
	movq	%r14, -136(%rbp)
LBB48_81:
	movq	%rsi, -136(%rbp)
	movq	%rsi, %rcx
	movq	-72(%rbp), %rdi
	movq	-64(%rbp), %r13
	movq	-56(%rbp), %r10
LBB48_82:
	cmpq	%rsi, %rcx
	cmovaq	%rcx, %rsi
	movq	%rsi, -136(%rbp)
LBB48_83:
	movq	-216(%rbp), %rsi
LBB48_84:
	subq	%r14, %r10
	movq	8(%rdi), %r9
	movq	%r9, %rbx
	subq	%r10, %rbx
	jb	LBB48_140
	cmpq	%r13, %rbx
	jbe	LBB48_87
	xorl	%eax, %eax
	jmp	LBB48_124
LBB48_87:
	movq	(%rdi), %r8
	movq	%r8, -280(%rbp)
	movq	%r9, -272(%rbp)
	movq	%rbx, -96(%rbp)
	movq	%r9, -256(%rbp)
	testq	%rbx, %rbx
	je	LBB48_91
	cmpq	%rbx, %r9
	je	LBB48_91
	jbe	LBB48_138
	cmpb	$-65, (%r8,%rbx)
	jle	LBB48_138
LBB48_91:
	movq	%r13, %rax
	subq	%rbx, %rax
	jb	LBB48_139
	testq	%rax, %rax
	je	LBB48_116
	leaq	(%r8,%r9), %r10
	leaq	(%r8,%rbx), %r12
	xorl	%edx, %edx
	.p2align	4, 0x90
LBB48_94:
	cmpq	%r12, %r10
	je	LBB48_117
	leaq	1(%r12), %rax
	movzbl	(%r12), %ecx
	testb	%cl, %cl
	js	LBB48_97
	movq	%rax, %r12
	jmp	LBB48_110
	.p2align	4, 0x90
LBB48_97:
	cmpq	%r10, %rax
	je	LBB48_103
	movzbl	1(%r12), %r15d
	addq	$2, %r12
	andl	$63, %r15d
	movq	%r12, %r11
	movl	%ecx, %eax
	andl	$31, %eax
	cmpb	$-33, %cl
	jbe	LBB48_104
LBB48_99:
	cmpq	%r10, %r11
	je	LBB48_105
	movzbl	(%r11), %r14d
	incq	%r11
	andl	$63, %r14d
	movq	%r11, %r12
	shll	$6, %r15d
	orl	%r14d, %r15d
	cmpb	$-16, %cl
	jb	LBB48_106
LBB48_101:
	cmpq	%r10, %r11
	je	LBB48_108
	movzbl	(%r11), %ecx
	incq	%r11
	andl	$63, %ecx
	movq	%r11, %r12
	jmp	LBB48_109
LBB48_103:
	xorl	%r15d, %r15d
	movq	%rax, %r12
	movq	%r10, %r11
	movl	%ecx, %eax
	andl	$31, %eax
	cmpb	$-33, %cl
	ja	LBB48_99
LBB48_104:
	shll	$6, %eax
	jmp	LBB48_107
LBB48_105:
	xorl	%r14d, %r14d
	movq	%r10, %r11
	shll	$6, %r15d
	orl	%r14d, %r15d
	cmpb	$-16, %cl
	jae	LBB48_101
LBB48_106:
	shll	$12, %eax
LBB48_107:
	orl	%eax, %r15d
	movl	%r15d, %ecx
	jmp	LBB48_110
LBB48_108:
	xorl	%ecx, %ecx
LBB48_109:
	andl	$7, %eax
	shll	$18, %eax
	shll	$6, %r15d
	orl	%eax, %r15d
	orl	%ecx, %r15d
	movl	%r15d, %ecx
	cmpl	$1114112, %r15d
	je	LBB48_117
	.p2align	4, 0x90
LBB48_110:
	cmpl	$1114112, %ecx
	je	LBB48_117
	leal	-48(%rcx), %eax
	cmpl	$10, %eax
	jae	LBB48_117
	imulq	$10, %rdx, %rdx
	jo	LBB48_131
	movl	%ecx, %eax
	addq	$-48, %rax
	addq	%rax, %rdx
	jo	LBB48_132
	incq	%rbx
	je	LBB48_133
	cmpq	%rbx, %r13
	jne	LBB48_94
	jmp	LBB48_117
LBB48_116:
	xorl	%edx, %edx
LBB48_117:
	xorl	%eax, %eax
	cmpq	%rsi, %rbx
	jb	LBB48_124
	cmpq	%r13, %rbx
	ja	LBB48_124
	movq	%r8, -280(%rbp)
	movq	%r9, -272(%rbp)
	movq	%rbx, -96(%rbp)
	movq	%r9, -256(%rbp)
	testq	%rbx, %rbx
	je	LBB48_123
	cmpq	%rbx, %r9
	je	LBB48_123
	jbe	LBB48_138
	cmpb	$-65, (%r8,%rbx)
	jle	LBB48_138
LBB48_123:
	addq	%rbx, %r8
	subq	%rbx, %r9
	movq	%r8, (%rdi)
	movq	%r9, 8(%rdi)
	movl	$1, %eax
LBB48_124:
	addq	$328, %rsp
	popq	%rbx
	popq	%r12
	popq	%r13
	popq	%r14
	popq	%r15
	popq	%rbp
	retq
LBB48_125:
	movq	%rcx, %rsi
	movq	%rbx, %rcx
	jmp	LBB48_82
LBB48_126:
	movb	%bl, -152(%rbp)
	movq	-80(%rbp), %rax
	movq	%rax, -120(%rbp)
	movq	%r14, -136(%rbp)
	leaq	-256(%rbp), %rax
	movq	%rax, -280(%rbp)
	leaq	-360(%rbp), %rax
	movq	%rax, -272(%rbp)
	leaq	-96(%rbp), %rax
	movq	%rax, -264(%rbp)
	leaq	-280(%rbp), %rdi
	callq	__ZN4core3str6traits105_$LT$impl$u20$core..slice..SliceIndex$LT$str$GT$$u20$for$u20$core..ops..range..RangeFrom$LT$usize$GT$$GT$5index28_$u7b$$u7b$closure$u7d$$u7d$17h96cecb2ca76e37c9E
LBB48_127:
	movq	%r14, -136(%rbp)
	movq	%r9, -120(%rbp)
	leaq	l___unnamed_149(%rip), %rdx
	callq	__ZN4core9panicking18panic_bounds_check17he87128426d100e93E
LBB48_128:
	movq	$-1, -120(%rbp)
	movq	%r14, -136(%rbp)
	leaq	l___unnamed_149(%rip), %rdx
	callq	__ZN4core9panicking18panic_bounds_check17he87128426d100e93E
LBB48_129:
	movq	%r14, -136(%rbp)
	movq	%r9, -120(%rbp)
	jmp	LBB48_135
LBB48_130:
	movq	%r14, -136(%rbp)
	movq	%r9, -120(%rbp)
	jmp	LBB48_137
LBB48_131:
	leaq	_str.2(%rip), %rdi
	leaq	l___unnamed_150(%rip), %rdx
	movl	$33, %esi
	callq	__ZN4core9panicking5panic17h383a6b80ea7021aaE
LBB48_132:
	leaq	_str.5(%rip), %rdi
	leaq	l___unnamed_150(%rip), %rdx
	movl	$28, %esi
	callq	__ZN4core9panicking5panic17h383a6b80ea7021aaE
LBB48_133:
	leaq	_str.5(%rip), %rdi
	leaq	l___unnamed_151(%rip), %rdx
	movl	$28, %esi
	callq	__ZN4core9panicking5panic17h383a6b80ea7021aaE
LBB48_134:
	movq	$-1, -120(%rbp)
	movq	%r14, -136(%rbp)
LBB48_135:
	leaq	l___unnamed_152(%rip), %rdx
	movq	%r11, %rsi
	callq	__ZN4core9panicking18panic_bounds_check17he87128426d100e93E
LBB48_136:
	movq	$-1, -120(%rbp)
	movq	%r14, -136(%rbp)
LBB48_137:
	leaq	l___unnamed_153(%rip), %rdx
	movq	%rcx, %rdi
	callq	__ZN4core9panicking18panic_bounds_check17he87128426d100e93E
LBB48_138:
	leaq	-280(%rbp), %rax
	movq	%rax, -208(%rbp)
	leaq	-96(%rbp), %rax
	movq	%rax, -200(%rbp)
	leaq	-256(%rbp), %rax
	movq	%rax, -192(%rbp)
	leaq	-208(%rbp), %rdi
	callq	__ZN4core3str6traits105_$LT$impl$u20$core..slice..SliceIndex$LT$str$GT$$u20$for$u20$core..ops..range..RangeFrom$LT$usize$GT$$GT$5index28_$u7b$$u7b$closure$u7d$$u7d$17h96cecb2ca76e37c9E
LBB48_139:
	leaq	_str.3(%rip), %rdi
	leaq	l___unnamed_154(%rip), %rdx
	movl	$33, %esi
	callq	__ZN4core9panicking5panic17h383a6b80ea7021aaE
LBB48_140:
	leaq	_str.3(%rip), %rdi
	leaq	l___unnamed_155(%rip), %rdx
	movl	$33, %esi
	callq	__ZN4core9panicking5panic17h383a6b80ea7021aaE
	.cfi_endproc

	.globl	__ZN4time3sys5inner3mac4info17h857d042b1cf78b55E
	.p2align	4, 0x90
__ZN4time3sys5inner3mac4info17h857d042b1cf78b55E:
	.cfi_startproc
	pushq	%rbp
	.cfi_def_cfa_offset 16
	.cfi_offset %rbp, -16
	movq	%rsp, %rbp
	.cfi_def_cfa_register %rbp
	subq	$16, %rsp
	movq	__ZN4time3sys5inner3mac4info4ONCE17hc8bda220514c2a6dE(%rip), %rax
	cmpq	$3, %rax
	jne	LBB49_1
	leaq	__ZN4time3sys5inner3mac4info4INFO17h2bd72e07e1a27c4cE(%rip), %rax
	addq	$16, %rsp
	popq	%rbp
	retq
LBB49_1:
	movb	$1, -1(%rbp)
	leaq	-1(%rbp), %rax
	movq	%rax, -16(%rbp)
	leaq	__ZN4time3sys5inner3mac4info4ONCE17hc8bda220514c2a6dE(%rip), %rdi
	leaq	l___unnamed_156(%rip), %rcx
	leaq	-16(%rbp), %rdx
	xorl	%esi, %esi
	callq	__ZN3std4sync4once4Once10call_inner17hfcd38045e50af9d3E
	leaq	__ZN4time3sys5inner3mac4info4INFO17h2bd72e07e1a27c4cE(%rip), %rax
	addq	$16, %rsp
	popq	%rbp
	retq
	.cfi_endproc

	.globl	__ZN107_$LT$time..sys..inner..mac..SteadyTime$u20$as$u20$core..ops..arith..Sub$LT$time..duration..Duration$GT$$GT$3sub17h37ed2e8349fd2dddE
	.p2align	4, 0x90
__ZN107_$LT$time..sys..inner..mac..SteadyTime$u20$as$u20$core..ops..arith..Sub$LT$time..duration..Duration$GT$$GT$3sub17h37ed2e8349fd2dddE:
	.cfi_startproc
	pushq	%rbp
	.cfi_def_cfa_offset 16
	.cfi_offset %rbp, -16
	movq	%rsp, %rbp
	.cfi_def_cfa_register %rbp
	movq	%rdi, %rax
	movabsq	$-9223372036854775808, %rcx
	testl	%edx, %edx
	je	LBB50_7
	cmpq	%rcx, %rsi
	je	LBB50_10
	movl	$1000000000, %ecx
	subl	%edx, %ecx
	jo	LBB50_11
	notq	%rsi
	jmp	LBB50_4
LBB50_7:
	cmpq	%rcx, %rsi
	je	LBB50_9
	negq	%rsi
	xorl	%ecx, %ecx
LBB50_4:
	testq	%rsi, %rsi
	sets	%dil
	testl	%ecx, %ecx
	setg	%dl
	andb	%dil, %dl
	movzbl	%dl, %edi
	addq	%rsi, %rdi
	imulq	$1000000000, %rdi, %rsi
	jo	LBB50_6
	leal	-1000000000(%rcx), %edi
	testb	%dl, %dl
	cmovnel	%edi, %ecx
	movslq	%ecx, %rcx
	addq	%rcx, %rsi
	jo	LBB50_6
	addq	%rsi, %rax
	jo	LBB50_14
	popq	%rbp
	retq
LBB50_6:
	leaq	l___unnamed_1(%rip), %rdi
	leaq	l___unnamed_157(%rip), %rdx
	movl	$43, %esi
	callq	__ZN4core9panicking5panic17h383a6b80ea7021aaE
LBB50_14:
	leaq	_str.5(%rip), %rdi
	leaq	l___unnamed_158(%rip), %rdx
	movl	$28, %esi
	callq	__ZN4core9panicking5panic17h383a6b80ea7021aaE
LBB50_10:
	leaq	_str.6(%rip), %rdi
	leaq	l___unnamed_127(%rip), %rdx
	movl	$31, %esi
	callq	__ZN4core9panicking5panic17h383a6b80ea7021aaE
LBB50_11:
	leaq	_str.3(%rip), %rdi
	leaq	l___unnamed_128(%rip), %rdx
	movl	$33, %esi
	callq	__ZN4core9panicking5panic17h383a6b80ea7021aaE
LBB50_9:
	leaq	_str.6(%rip), %rdi
	leaq	l___unnamed_129(%rip), %rdx
	movl	$31, %esi
	callq	__ZN4core9panicking5panic17h383a6b80ea7021aaE
	.cfi_endproc

	.globl	__ZN107_$LT$time..sys..inner..mac..SteadyTime$u20$as$u20$core..ops..arith..Add$LT$time..duration..Duration$GT$$GT$3add17h7b487d963a36a240E
	.p2align	4, 0x90
__ZN107_$LT$time..sys..inner..mac..SteadyTime$u20$as$u20$core..ops..arith..Add$LT$time..duration..Duration$GT$$GT$3add17h7b487d963a36a240E:
	.cfi_startproc
	pushq	%rbp
	.cfi_def_cfa_offset 16
	.cfi_offset %rbp, -16
	movq	%rsp, %rbp
	.cfi_def_cfa_register %rbp
	movq	%rdi, %rax
	testq	%rsi, %rsi
	sets	%dil
	testl	%edx, %edx
	setg	%cl
	andb	%dil, %cl
	movzbl	%cl, %edi
	addq	%rsi, %rdi
	imulq	$1000000000, %rdi, %rsi
	jo	LBB51_4
	leal	-1000000000(%rdx), %edi
	testb	%cl, %cl
	cmovnel	%edi, %edx
	movslq	%edx, %rcx
	addq	%rcx, %rsi
	jo	LBB51_4
	addq	%rsi, %rax
	jo	LBB51_3
	popq	%rbp
	retq
LBB51_4:
	leaq	l___unnamed_1(%rip), %rdi
	leaq	l___unnamed_157(%rip), %rdx
	movl	$43, %esi
	callq	__ZN4core9panicking5panic17h383a6b80ea7021aaE
LBB51_3:
	leaq	_str.5(%rip), %rdi
	leaq	l___unnamed_158(%rip), %rdx
	movl	$28, %esi
	callq	__ZN4core9panicking5panic17h383a6b80ea7021aaE
	.cfi_endproc

	.globl	__ZN4time8Timespec3new17h0d275ab913b01649E
	.p2align	4, 0x90
__ZN4time8Timespec3new17h0d275ab913b01649E:
	.cfi_startproc
	cmpl	$999999999, %esi
	ja	LBB52_2
	movl	%esi, %edx
	movq	%rdi, %rax
	retq
LBB52_2:
	pushq	%rbp
	.cfi_def_cfa_offset 16
	.cfi_offset %rbp, -16
	movq	%rsp, %rbp
	.cfi_def_cfa_register %rbp
	leaq	l___unnamed_159(%rip), %rdi
	leaq	l___unnamed_160(%rip), %rdx
	movl	$50, %esi
	callq	__ZN3std9panicking11begin_panic17h6e8e866eb85f4bdfE
	.cfi_endproc

	.globl	__ZN88_$LT$time..Timespec$u20$as$u20$core..ops..arith..Add$LT$time..duration..Duration$GT$$GT$3add17hfa564211c239e722E
	.p2align	4, 0x90
__ZN88_$LT$time..Timespec$u20$as$u20$core..ops..arith..Add$LT$time..duration..Duration$GT$$GT$3add17hfa564211c239e722E:
	.cfi_startproc
	pushq	%rbp
	.cfi_def_cfa_offset 16
	.cfi_offset %rbp, -16
	movq	%rsp, %rbp
	.cfi_def_cfa_register %rbp
	movq	%rdx, %r8
	movl	%esi, %edx
	movq	%rdi, %rax
	testq	%r8, %r8
	sets	%sil
	testl	%ecx, %ecx
	setg	%dil
	andb	%sil, %dil
	movzbl	%dil, %r10d
	addq	%r8, %r10
	movabsq	$-9223372036854776, %r9
	xorl	%edi, %edi
	cmpq	%r9, %r10
	setne	%dil
	movl	$255, %esi
	cmovgel	%edi, %esi
	incb	%sil
	cmpb	$2, %sil
	jb	LBB53_23
	movabsq	$9223372036854776, %rsi
	cmpq	%rsi, %r10
	jge	LBB53_23
	subq	%r10, %r8
	jo	LBB53_9
	testl	%ecx, %ecx
	jns	LBB53_6
	decq	%r8
	jo	LBB53_10
	addl	$1000000000, %ecx
LBB53_6:
	testq	%r8, %r8
	sets	%sil
	testl	%ecx, %ecx
	setg	%r9b
	andb	%sil, %r9b
	movzbl	%r9b, %esi
	addq	%r8, %rsi
	imulq	$1000000000, %rsi, %rdi
	jo	LBB53_8
	leal	-1000000000(%rcx), %esi
	testb	%r9b, %r9b
	cmovnel	%esi, %ecx
	movslq	%ecx, %rcx
	addq	%rcx, %rdi
	jo	LBB53_8
	addq	%r10, %rax
	jo	LBB53_18
	addl	%edi, %edx
	jo	LBB53_19
	cmpl	$999999999, %edx
	jle	LBB53_14
	incq	%rax
	movl	$-1000000000, %ecx
	jno	LBB53_16
	leaq	_str.5(%rip), %rdi
	leaq	l___unnamed_161(%rip), %rdx
	movl	$28, %esi
	callq	__ZN4core9panicking5panic17h383a6b80ea7021aaE
LBB53_14:
	testl	%edx, %edx
	jns	LBB53_17
	decq	%rax
	movl	$1000000000, %ecx
	jo	LBB53_22
LBB53_16:
	addl	%ecx, %edx
	cmpl	$1000000000, %edx
	jae	LBB53_24
LBB53_17:
	popq	%rbp
	retq
LBB53_23:
	leaq	l___unnamed_162(%rip), %rdi
	leaq	l___unnamed_163(%rip), %rdx
	movl	$31, %esi
	callq	__ZN3std9panicking11begin_panic17h6e8e866eb85f4bdfE
LBB53_8:
	leaq	l___unnamed_1(%rip), %rdi
	leaq	l___unnamed_164(%rip), %rdx
	movl	$43, %esi
	callq	__ZN4core9panicking5panic17h383a6b80ea7021aaE
LBB53_9:
	leaq	_str.3(%rip), %rdi
	leaq	l___unnamed_108(%rip), %rdx
	movl	$33, %esi
	callq	__ZN4core9panicking5panic17h383a6b80ea7021aaE
LBB53_18:
	leaq	_str.5(%rip), %rdi
	leaq	l___unnamed_165(%rip), %rdx
	movl	$28, %esi
	callq	__ZN4core9panicking5panic17h383a6b80ea7021aaE
LBB53_19:
	leaq	_str.5(%rip), %rdi
	leaq	l___unnamed_166(%rip), %rdx
	movl	$28, %esi
	callq	__ZN4core9panicking5panic17h383a6b80ea7021aaE
LBB53_24:
	leaq	l___unnamed_159(%rip), %rdi
	leaq	l___unnamed_160(%rip), %rdx
	movl	$50, %esi
	callq	__ZN3std9panicking11begin_panic17h6e8e866eb85f4bdfE
LBB53_10:
	leaq	_str.3(%rip), %rdi
	leaq	l___unnamed_110(%rip), %rdx
	movl	$33, %esi
	callq	__ZN4core9panicking5panic17h383a6b80ea7021aaE
LBB53_22:
	leaq	_str.3(%rip), %rdi
	leaq	l___unnamed_167(%rip), %rdx
	movl	$33, %esi
	callq	__ZN4core9panicking5panic17h383a6b80ea7021aaE
	.cfi_endproc

	.globl	__ZN88_$LT$time..Timespec$u20$as$u20$core..ops..arith..Sub$LT$time..duration..Duration$GT$$GT$3sub17hfd678a4a783e38f8E
	.p2align	4, 0x90
__ZN88_$LT$time..Timespec$u20$as$u20$core..ops..arith..Sub$LT$time..duration..Duration$GT$$GT$3sub17hfd678a4a783e38f8E:
	.cfi_startproc
	pushq	%rbp
	.cfi_def_cfa_offset 16
	.cfi_offset %rbp, -16
	movq	%rsp, %rbp
	.cfi_def_cfa_register %rbp
	movq	%rdx, %r8
	movl	%esi, %edx
	movq	%rdi, %rax
	testq	%r8, %r8
	sets	%sil
	testl	%ecx, %ecx
	setg	%dil
	andb	%sil, %dil
	movzbl	%dil, %r10d
	addq	%r8, %r10
	movabsq	$-9223372036854776, %r9
	xorl	%edi, %edi
	cmpq	%r9, %r10
	setne	%dil
	movl	$255, %esi
	cmovgel	%edi, %esi
	incb	%sil
	cmpb	$2, %sil
	jb	LBB54_23
	movabsq	$9223372036854776, %rsi
	cmpq	%rsi, %r10
	jge	LBB54_23
	subq	%r10, %r8
	jo	LBB54_9
	testl	%ecx, %ecx
	jns	LBB54_6
	decq	%r8
	jo	LBB54_10
	addl	$1000000000, %ecx
LBB54_6:
	testq	%r8, %r8
	sets	%sil
	testl	%ecx, %ecx
	setg	%r9b
	andb	%sil, %r9b
	movzbl	%r9b, %esi
	addq	%r8, %rsi
	imulq	$1000000000, %rsi, %rdi
	jo	LBB54_8
	leal	-1000000000(%rcx), %esi
	testb	%r9b, %r9b
	cmovnel	%esi, %ecx
	movslq	%ecx, %rcx
	addq	%rcx, %rdi
	jo	LBB54_8
	subq	%r10, %rax
	jo	LBB54_18
	subl	%edi, %edx
	jo	LBB54_19
	cmpl	$999999999, %edx
	jle	LBB54_14
	incq	%rax
	movl	$-1000000000, %ecx
	jno	LBB54_16
	leaq	_str.5(%rip), %rdi
	leaq	l___unnamed_168(%rip), %rdx
	movl	$28, %esi
	callq	__ZN4core9panicking5panic17h383a6b80ea7021aaE
LBB54_14:
	testl	%edx, %edx
	jns	LBB54_17
	decq	%rax
	movl	$1000000000, %ecx
	jo	LBB54_22
LBB54_16:
	addl	%ecx, %edx
	cmpl	$1000000000, %edx
	jae	LBB54_24
LBB54_17:
	popq	%rbp
	retq
LBB54_23:
	leaq	l___unnamed_162(%rip), %rdi
	leaq	l___unnamed_163(%rip), %rdx
	movl	$31, %esi
	callq	__ZN3std9panicking11begin_panic17h6e8e866eb85f4bdfE
LBB54_8:
	leaq	l___unnamed_1(%rip), %rdi
	leaq	l___unnamed_169(%rip), %rdx
	movl	$43, %esi
	callq	__ZN4core9panicking5panic17h383a6b80ea7021aaE
LBB54_9:
	leaq	_str.3(%rip), %rdi
	leaq	l___unnamed_108(%rip), %rdx
	movl	$33, %esi
	callq	__ZN4core9panicking5panic17h383a6b80ea7021aaE
LBB54_18:
	leaq	_str.3(%rip), %rdi
	leaq	l___unnamed_170(%rip), %rdx
	movl	$33, %esi
	callq	__ZN4core9panicking5panic17h383a6b80ea7021aaE
LBB54_19:
	leaq	_str.3(%rip), %rdi
	leaq	l___unnamed_171(%rip), %rdx
	movl	$33, %esi
	callq	__ZN4core9panicking5panic17h383a6b80ea7021aaE
LBB54_24:
	leaq	l___unnamed_159(%rip), %rdi
	leaq	l___unnamed_160(%rip), %rdx
	movl	$50, %esi
	callq	__ZN3std9panicking11begin_panic17h6e8e866eb85f4bdfE
LBB54_10:
	leaq	_str.3(%rip), %rdi
	leaq	l___unnamed_110(%rip), %rdx
	movl	$33, %esi
	callq	__ZN4core9panicking5panic17h383a6b80ea7021aaE
LBB54_22:
	leaq	_str.3(%rip), %rdi
	leaq	l___unnamed_172(%rip), %rdx
	movl	$33, %esi
	callq	__ZN4core9panicking5panic17h383a6b80ea7021aaE
	.cfi_endproc

	.globl	__ZN56_$LT$time..Timespec$u20$as$u20$core..ops..arith..Sub$GT$3sub17h9bf6ff18ac41f032E
	.p2align	4, 0x90
__ZN56_$LT$time..Timespec$u20$as$u20$core..ops..arith..Sub$GT$3sub17h9bf6ff18ac41f032E:
	.cfi_startproc
	pushq	%rbp
	.cfi_def_cfa_offset 16
	.cfi_offset %rbp, -16
	movq	%rsp, %rbp
	.cfi_def_cfa_register %rbp
	subq	%rdx, %rdi
	jo	LBB55_11
	subl	%ecx, %esi
	jo	LBB55_12
	movabsq	$-9223372036854776, %rax
	xorl	%ecx, %ecx
	cmpq	%rax, %rdi
	setne	%cl
	movl	$255, %eax
	cmovgel	%ecx, %eax
	incb	%al
	cmpb	$2, %al
	jb	LBB55_13
	movabsq	$9223372036854776, %rax
	cmpq	%rax, %rdi
	jge	LBB55_13
	movslq	%esi, %rcx
	movabsq	$1237940039285380275, %rdx
	movq	%rcx, %rax
	imulq	%rdx
	movq	%rdx, %rax
	shrq	$63, %rax
	sarq	$26, %rdx
	addq	%rax, %rdx
	imulq	$1000000000, %rdx, %rax
	subq	%rax, %rcx
	movq	%rcx, %rax
	sarq	$63, %rax
	addq	%rdx, %rax
	addq	%rax, %rdi
	jo	LBB55_9
	leal	1000000000(%rcx), %edx
	testq	%rcx, %rcx
	cmovnsl	%ecx, %edx
	cmpl	$1000000000, %edx
	jl	LBB55_8
	incq	%rdi
	jo	LBB55_10
	addl	$-1000000000, %edx
LBB55_8:
	movq	%rdi, %rax
	popq	%rbp
	retq
LBB55_13:
	leaq	l___unnamed_162(%rip), %rdi
	leaq	l___unnamed_163(%rip), %rdx
	movl	$31, %esi
	callq	__ZN3std9panicking11begin_panic17h6e8e866eb85f4bdfE
LBB55_11:
	leaq	_str.3(%rip), %rdi
	leaq	l___unnamed_173(%rip), %rdx
	movl	$33, %esi
	callq	__ZN4core9panicking5panic17h383a6b80ea7021aaE
LBB55_12:
	leaq	_str.3(%rip), %rdi
	leaq	l___unnamed_174(%rip), %rdx
	movl	$33, %esi
	callq	__ZN4core9panicking5panic17h383a6b80ea7021aaE
LBB55_9:
	leaq	_str.5(%rip), %rdi
	leaq	l___unnamed_105(%rip), %rdx
	movl	$28, %esi
	callq	__ZN4core9panicking5panic17h383a6b80ea7021aaE
LBB55_10:
	leaq	_str.5(%rip), %rdi
	leaq	l___unnamed_107(%rip), %rdx
	movl	$28, %esi
	callq	__ZN4core9panicking5panic17h383a6b80ea7021aaE
	.cfi_endproc

	.globl	__ZN4time8get_time17h1f99f152cb9cf7b7E
	.p2align	4, 0x90
__ZN4time8get_time17h1f99f152cb9cf7b7E:
	.cfi_startproc
	pushq	%rbp
	.cfi_def_cfa_offset 16
	.cfi_offset %rbp, -16
	movq	%rsp, %rbp
	.cfi_def_cfa_register %rbp
	subq	$16, %rsp
	movq	$0, -16(%rbp)
	movl	$0, -8(%rbp)
	leaq	-16(%rbp), %rdi
	xorl	%esi, %esi
	callq	_gettimeofday
	imull	$1000, -8(%rbp), %edx
	jo	LBB56_3
	cmpl	$1000000000, %edx
	jae	LBB56_4
	movq	-16(%rbp), %rax
	addq	$16, %rsp
	popq	%rbp
	retq
LBB56_3:
	leaq	_str.2(%rip), %rdi
	leaq	l___unnamed_175(%rip), %rdx
	movl	$33, %esi
	callq	__ZN4core9panicking5panic17h383a6b80ea7021aaE
LBB56_4:
	leaq	l___unnamed_159(%rip), %rdi
	leaq	l___unnamed_160(%rip), %rdx
	movl	$50, %esi
	callq	__ZN3std9panicking11begin_panic17h6e8e866eb85f4bdfE
	.cfi_endproc

	.section	__TEXT,__literal16,16byte_literals
	.p2align	4
LCPI57_0:
	.long	1127219200
	.long	1160773632
	.long	0
	.long	0
LCPI57_1:
	.quad	4841369599423283200
	.quad	4985484787499139072
	.section	__TEXT,__literal8,8byte_literals
	.p2align	3
LCPI57_2:
	.quad	4741671816366391296
	.section	__TEXT,__text,regular,pure_instructions
	.globl	__ZN4time14precise_time_s17h6be37c432fe419b5E
	.p2align	4, 0x90
__ZN4time14precise_time_s17h6be37c432fe419b5E:
	.cfi_startproc
	pushq	%rbp
	.cfi_def_cfa_offset 16
	.cfi_offset %rbp, -16
	movq	%rsp, %rbp
	.cfi_def_cfa_register %rbp
	pushq	%rbx
	subq	$24, %rsp
	.cfi_offset %rbx, -24
	callq	_mach_absolute_time
	movq	%rax, %rbx
	movq	__ZN4time3sys5inner3mac4info4ONCE17hc8bda220514c2a6dE(%rip), %rax
	cmpq	$3, %rax
	jne	LBB57_1
	movl	__ZN4time3sys5inner3mac4info4INFO17h2bd72e07e1a27c4cE(%rip), %ecx
	movq	%rbx, %rax
	mulq	%rcx
	jo	LBB57_5
LBB57_3:
	movl	__ZN4time3sys5inner3mac4info4INFO17h2bd72e07e1a27c4cE+4(%rip), %ecx
	testq	%rcx, %rcx
	je	LBB57_6
	xorl	%edx, %edx
	divq	%rcx
	movq	%rax, %xmm1
	punpckldq	LCPI57_0(%rip), %xmm1
	subpd	LCPI57_1(%rip), %xmm1
	movapd	%xmm1, %xmm0
	unpckhpd	%xmm1, %xmm0
	addsd	%xmm1, %xmm0
	divsd	LCPI57_2(%rip), %xmm0
	addq	$24, %rsp
	popq	%rbx
	popq	%rbp
	retq
LBB57_1:
	movb	$1, -9(%rbp)
	leaq	-9(%rbp), %rax
	movq	%rax, -24(%rbp)
	leaq	__ZN4time3sys5inner3mac4info4ONCE17hc8bda220514c2a6dE(%rip), %rdi
	leaq	l___unnamed_156(%rip), %rcx
	leaq	-24(%rbp), %rdx
	xorl	%esi, %esi
	callq	__ZN3std4sync4once4Once10call_inner17hfcd38045e50af9d3E
	movl	__ZN4time3sys5inner3mac4info4INFO17h2bd72e07e1a27c4cE(%rip), %ecx
	movq	%rbx, %rax
	mulq	%rcx
	jno	LBB57_3
LBB57_5:
	leaq	_str.2(%rip), %rdi
	leaq	l___unnamed_176(%rip), %rdx
	movl	$33, %esi
	callq	__ZN4core9panicking5panic17h383a6b80ea7021aaE
LBB57_6:
	leaq	_str.0(%rip), %rdi
	leaq	l___unnamed_176(%rip), %rdx
	movl	$25, %esi
	callq	__ZN4core9panicking5panic17h383a6b80ea7021aaE
	.cfi_endproc

	.globl	__ZN4time10SteadyTime3now17h9cebca3459659338E
	.p2align	4, 0x90
__ZN4time10SteadyTime3now17h9cebca3459659338E:
	.cfi_startproc
	pushq	%rbp
	.cfi_def_cfa_offset 16
	.cfi_offset %rbp, -16
	movq	%rsp, %rbp
	.cfi_def_cfa_register %rbp
	pushq	%rbx
	subq	$24, %rsp
	.cfi_offset %rbx, -24
	callq	_mach_absolute_time
	movq	%rax, %rbx
	movq	__ZN4time3sys5inner3mac4info4ONCE17hc8bda220514c2a6dE(%rip), %rax
	cmpq	$3, %rax
	jne	LBB58_1
	movl	__ZN4time3sys5inner3mac4info4INFO17h2bd72e07e1a27c4cE(%rip), %ecx
	movq	%rbx, %rax
	mulq	%rcx
	jo	LBB58_5
LBB58_3:
	movl	__ZN4time3sys5inner3mac4info4INFO17h2bd72e07e1a27c4cE+4(%rip), %ecx
	testq	%rcx, %rcx
	je	LBB58_6
	xorl	%edx, %edx
	divq	%rcx
	addq	$24, %rsp
	popq	%rbx
	popq	%rbp
	retq
LBB58_1:
	movb	$1, -9(%rbp)
	leaq	-9(%rbp), %rax
	movq	%rax, -24(%rbp)
	leaq	__ZN4time3sys5inner3mac4info4ONCE17hc8bda220514c2a6dE(%rip), %rdi
	leaq	l___unnamed_156(%rip), %rcx
	leaq	-24(%rbp), %rdx
	xorl	%esi, %esi
	callq	__ZN3std4sync4once4Once10call_inner17hfcd38045e50af9d3E
	movl	__ZN4time3sys5inner3mac4info4INFO17h2bd72e07e1a27c4cE(%rip), %ecx
	movq	%rbx, %rax
	mulq	%rcx
	jno	LBB58_3
LBB58_5:
	leaq	_str.2(%rip), %rdi
	leaq	l___unnamed_176(%rip), %rdx
	movl	$33, %esi
	callq	__ZN4core9panicking5panic17h383a6b80ea7021aaE
LBB58_6:
	leaq	_str.0(%rip), %rdi
	leaq	l___unnamed_176(%rip), %rdx
	movl	$25, %esi
	callq	__ZN4core9panicking5panic17h383a6b80ea7021aaE
	.cfi_endproc

	.globl	__ZN58_$LT$time..SteadyTime$u20$as$u20$core..ops..arith..Sub$GT$3sub17h5791a5ff855eee5bE
	.p2align	4, 0x90
__ZN58_$LT$time..SteadyTime$u20$as$u20$core..ops..arith..Sub$GT$3sub17h5791a5ff855eee5bE:
	.cfi_startproc
	subq	%rsi, %rdi
	jo	LBB59_2
	movabsq	$1237940039285380275, %rcx
	movq	%rdi, %rax
	imulq	%rcx
	movq	%rdx, %rax
	shrq	$63, %rax
	sarq	$26, %rdx
	addq	%rax, %rdx
	imulq	$1000000000, %rdx, %rax
	subq	%rax, %rdi
	movq	%rdi, %rax
	sarq	$63, %rax
	addq	%rdx, %rax
	leal	1000000000(%rdi), %edx
	testq	%rdi, %rdi
	cmovnsl	%edi, %edx
	retq
LBB59_2:
	pushq	%rbp
	.cfi_def_cfa_offset 16
	.cfi_offset %rbp, -16
	movq	%rsp, %rbp
	.cfi_def_cfa_register %rbp
	leaq	_str.3(%rip), %rdi
	leaq	l___unnamed_177(%rip), %rdx
	movl	$33, %esi
	callq	__ZN4core9panicking5panic17h383a6b80ea7021aaE
	.cfi_endproc

	.globl	__ZN90_$LT$time..SteadyTime$u20$as$u20$core..ops..arith..Sub$LT$time..duration..Duration$GT$$GT$3sub17h1af36204974cfa62E
	.p2align	4, 0x90
__ZN90_$LT$time..SteadyTime$u20$as$u20$core..ops..arith..Sub$LT$time..duration..Duration$GT$$GT$3sub17h1af36204974cfa62E:
	.cfi_startproc
	pushq	%rbp
	.cfi_def_cfa_offset 16
	.cfi_offset %rbp, -16
	movq	%rsp, %rbp
	.cfi_def_cfa_register %rbp
	popq	%rbp
	jmp	__ZN107_$LT$time..sys..inner..mac..SteadyTime$u20$as$u20$core..ops..arith..Sub$LT$time..duration..Duration$GT$$GT$3sub17h37ed2e8349fd2dddE
	.cfi_endproc

	.globl	__ZN4time5tzset17h5d58a564fe0495e1E
	.p2align	4, 0x90
__ZN4time5tzset17h5d58a564fe0495e1E:
	.cfi_startproc
	pushq	%rbp
	.cfi_def_cfa_offset 16
	.cfi_offset %rbp, -16
	movq	%rsp, %rbp
	.cfi_def_cfa_register %rbp
	popq	%rbp
	jmp	_tzset
	.cfi_endproc

	.globl	__ZN82_$LT$time..Tm$u20$as$u20$core..ops..arith..Add$LT$time..duration..Duration$GT$$GT$3add17h3e083d2c9b43d9d7E
	.p2align	4, 0x90
__ZN82_$LT$time..Tm$u20$as$u20$core..ops..arith..Add$LT$time..duration..Duration$GT$$GT$3add17h3e083d2c9b43d9d7E:
	.cfi_startproc
	pushq	%rbp
	.cfi_def_cfa_offset 16
	.cfi_offset %rbp, -16
	movq	%rsp, %rbp
	.cfi_def_cfa_register %rbp
	pushq	%r15
	pushq	%r14
	pushq	%rbx
	pushq	%rax
	.cfi_offset %rbx, -40
	.cfi_offset %r14, -32
	.cfi_offset %r15, -24
	movl	%ecx, %r14d
	movq	%rdx, %r15
	movq	%rdi, %rbx
	movq	%rsi, %rdi
	callq	__ZN4time2Tm11to_timespec17he444425c7066220aE
	movq	%rax, %rdi
	movl	%edx, %esi
	movq	%r15, %rdx
	movl	%r14d, %ecx
	callq	__ZN88_$LT$time..Timespec$u20$as$u20$core..ops..arith..Add$LT$time..duration..Duration$GT$$GT$3add17hfa564211c239e722E
	movq	%rbx, %rdi
	movq	%rax, %rsi
	callq	__ZN4time6at_utc17hd1c4d26373961b71E
	movq	%rbx, %rax
	addq	$8, %rsp
	popq	%rbx
	popq	%r14
	popq	%r15
	popq	%rbp
	retq
	.cfi_endproc

	.globl	__ZN82_$LT$time..Tm$u20$as$u20$core..ops..arith..Sub$LT$time..duration..Duration$GT$$GT$3sub17h07d6f518b53e67d3E
	.p2align	4, 0x90
__ZN82_$LT$time..Tm$u20$as$u20$core..ops..arith..Sub$LT$time..duration..Duration$GT$$GT$3sub17h07d6f518b53e67d3E:
	.cfi_startproc
	pushq	%rbp
	.cfi_def_cfa_offset 16
	.cfi_offset %rbp, -16
	movq	%rsp, %rbp
	.cfi_def_cfa_register %rbp
	pushq	%r15
	pushq	%r14
	pushq	%rbx
	pushq	%rax
	.cfi_offset %rbx, -40
	.cfi_offset %r14, -32
	.cfi_offset %r15, -24
	movl	%ecx, %r14d
	movq	%rdx, %r15
	movq	%rdi, %rbx
	movq	%rsi, %rdi
	callq	__ZN4time2Tm11to_timespec17he444425c7066220aE
	movq	%rax, %rdi
	movl	%edx, %esi
	movq	%r15, %rdx
	movl	%r14d, %ecx
	callq	__ZN88_$LT$time..Timespec$u20$as$u20$core..ops..arith..Sub$LT$time..duration..Duration$GT$$GT$3sub17hfd678a4a783e38f8E
	movq	%rbx, %rdi
	movq	%rax, %rsi
	callq	__ZN4time6at_utc17hd1c4d26373961b71E
	movq	%rbx, %rax
	addq	$8, %rsp
	popq	%rbx
	popq	%r14
	popq	%r15
	popq	%rbp
	retq
	.cfi_endproc

	.globl	__ZN50_$LT$time..Tm$u20$as$u20$core..ops..arith..Sub$GT$3sub17h75d6a4e067799fbdE
	.p2align	4, 0x90
__ZN50_$LT$time..Tm$u20$as$u20$core..ops..arith..Sub$GT$3sub17h75d6a4e067799fbdE:
	.cfi_startproc
	pushq	%rbp
	.cfi_def_cfa_offset 16
	.cfi_offset %rbp, -16
	movq	%rsp, %rbp
	.cfi_def_cfa_register %rbp
	pushq	%r15
	pushq	%r14
	pushq	%rbx
	pushq	%rax
	.cfi_offset %rbx, -40
	.cfi_offset %r14, -32
	.cfi_offset %r15, -24
	movq	%rsi, %r14
	callq	__ZN4time2Tm11to_timespec17he444425c7066220aE
	movq	%rax, %rbx
	movl	%edx, %r15d
	movq	%r14, %rdi
	callq	__ZN4time2Tm11to_timespec17he444425c7066220aE
	movl	%edx, %ecx
	movq	%rbx, %rdi
	movl	%r15d, %esi
	movq	%rax, %rdx
	addq	$8, %rsp
	popq	%rbx
	popq	%r14
	popq	%r15
	popq	%rbp
	jmp	__ZN56_$LT$time..Timespec$u20$as$u20$core..ops..arith..Sub$GT$3sub17h9bf6ff18ac41f032E
	.cfi_endproc

	.globl	__ZN43_$LT$time..Tm$u20$as$u20$core..cmp..Ord$GT$3cmp17h3fb0f94199281debE
	.p2align	4, 0x90
__ZN43_$LT$time..Tm$u20$as$u20$core..cmp..Ord$GT$3cmp17h3fb0f94199281debE:
	.cfi_startproc
	pushq	%rbp
	.cfi_def_cfa_offset 16
	.cfi_offset %rbp, -16
	movq	%rsp, %rbp
	.cfi_def_cfa_register %rbp
	pushq	%r15
	pushq	%r14
	pushq	%rbx
	pushq	%rax
	.cfi_offset %rbx, -40
	.cfi_offset %r14, -32
	.cfi_offset %r15, -24
	movq	%rsi, %rbx
	callq	__ZN4time2Tm11to_timespec17he444425c7066220aE
	movq	%rax, %r14
	movl	%edx, %r15d
	movq	%rbx, %rdi
	callq	__ZN4time2Tm11to_timespec17he444425c7066220aE
	xorl	%ecx, %ecx
	cmpq	%rax, %r14
	setne	%cl
	movl	$255, %esi
	cmovll	%esi, %ecx
	xorl	%eax, %eax
	cmpl	%edx, %r15d
	setne	%al
	cmovll	%esi, %eax
	testb	%cl, %cl
	cmovnel	%ecx, %eax
	addq	$8, %rsp
	popq	%rbx
	popq	%r14
	popq	%r15
	popq	%rbp
	retq
	.cfi_endproc

	.globl	__ZN4time8empty_tm17hf3b17f5cefde7ea1E
	.p2align	4, 0x90
__ZN4time8empty_tm17hf3b17f5cefde7ea1E:
	.cfi_startproc
	pushq	%rbp
	.cfi_def_cfa_offset 16
	.cfi_offset %rbp, -16
	movq	%rsp, %rbp
	.cfi_def_cfa_register %rbp
	movq	%rdi, %rax
	movl	$0, 40(%rdi)
	movq	$0, 32(%rdi)
	movq	$0, 24(%rdi)
	movq	$0, 16(%rdi)
	movq	$0, 8(%rdi)
	movq	$0, (%rdi)
	popq	%rbp
	retq
	.cfi_endproc

	.globl	__ZN4time6at_utc17hd1c4d26373961b71E
	.p2align	4, 0x90
__ZN4time6at_utc17hd1c4d26373961b71E:
Lfunc_begin3:
	.cfi_startproc
	.cfi_personality 155, _rust_eh_personality
	.cfi_lsda 16, Lexception3
	pushq	%rbp
	.cfi_def_cfa_offset 16
	.cfi_offset %rbp, -16
	movq	%rsp, %rbp
	.cfi_def_cfa_register %rbp
	pushq	%r14
	pushq	%rbx
	subq	$144, %rsp
	.cfi_offset %rbx, -32
	.cfi_offset %r14, -24
	movl	%edx, %r14d
	movq	%rdi, %rbx
	movl	$0, 40(%rdi)
	movq	$0, 32(%rdi)
	movq	$0, 24(%rdi)
	movq	$0, 16(%rdi)
	movq	$0, 8(%rdi)
	movq	$0, (%rdi)
	movq	%rsi, -24(%rbp)
	xorps	%xmm0, %xmm0
	movaps	%xmm0, -64(%rbp)
	movaps	%xmm0, -80(%rbp)
	movaps	%xmm0, -96(%rbp)
	movq	$0, -48(%rbp)
	leaq	-24(%rbp), %rdi
	leaq	-96(%rbp), %rsi
	callq	_gmtime_r
	testq	%rax, %rax
	je	LBB67_1
	movaps	-96(%rbp), %xmm0
	movups	%xmm0, (%rbx)
	movaps	-80(%rbp), %xmm0
	movups	%xmm0, 16(%rbx)
	movl	-64(%rbp), %eax
	movl	%eax, 32(%rbx)
	movl	$0, 36(%rbx)
	movl	%r14d, 40(%rbx)
	movq	%rbx, %rax
	addq	$144, %rsp
	popq	%rbx
	popq	%r14
	popq	%rbp
	retq
LBB67_1:
	leaq	-160(%rbp), %rbx
	movq	%rbx, %rdi
	callq	__ZN3std2io5error5Error13last_os_error17hc3bba933b5587d76E
	movq	%rbx, -40(%rbp)
	movq	__ZN60_$LT$std..io..error..Error$u20$as$u20$core..fmt..Display$GT$3fmt17h3716551a80b2cfe9E@GOTPCREL(%rip), %rax
	movq	%rax, -32(%rbp)
	leaq	l___unnamed_140(%rip), %rax
	movq	%rax, -144(%rbp)
	movq	$1, -136(%rbp)
	movq	$0, -128(%rbp)
	leaq	-40(%rbp), %rax
	movq	%rax, -112(%rbp)
	movq	$1, -104(%rbp)
Ltmp9:
	leaq	l___unnamed_141(%rip), %rsi
	leaq	-144(%rbp), %rdi
	callq	__ZN3std9panicking15begin_panic_fmt17h8712912d987f10a1E
Ltmp10:
	ud2
LBB67_2:
Ltmp11:
	movq	%rax, %rbx
	leaq	-160(%rbp), %rdi
	callq	__ZN4core3ptr13drop_in_place17h0a612e669328caacE
	movq	%rbx, %rdi
	callq	__Unwind_Resume
	ud2
Lfunc_end3:
	.cfi_endproc
	.section	__TEXT,__gcc_except_tab
	.p2align	2
GCC_except_table67:
Lexception3:
	.byte	255
	.byte	255
	.byte	1
	.uleb128 Lcst_end3-Lcst_begin3
Lcst_begin3:
	.uleb128 Lfunc_begin3-Lfunc_begin3
	.uleb128 Ltmp9-Lfunc_begin3
	.byte	0
	.byte	0
	.uleb128 Ltmp9-Lfunc_begin3
	.uleb128 Ltmp10-Ltmp9
	.uleb128 Ltmp11-Lfunc_begin3
	.byte	0
	.uleb128 Ltmp10-Lfunc_begin3
	.uleb128 Lfunc_end3-Ltmp10
	.byte	0
	.byte	0
Lcst_end3:
	.p2align	2

	.section	__TEXT,__text,regular,pure_instructions
	.globl	__ZN4time7now_utc17h8318a6fbad3bf72aE
	.p2align	4, 0x90
__ZN4time7now_utc17h8318a6fbad3bf72aE:
	.cfi_startproc
	pushq	%rbp
	.cfi_def_cfa_offset 16
	.cfi_offset %rbp, -16
	movq	%rsp, %rbp
	.cfi_def_cfa_register %rbp
	pushq	%rbx
	subq	$24, %rsp
	.cfi_offset %rbx, -24
	movq	%rdi, %rbx
	movq	$0, -24(%rbp)
	movl	$0, -16(%rbp)
	leaq	-24(%rbp), %rdi
	xorl	%esi, %esi
	callq	_gettimeofday
	imull	$1000, -16(%rbp), %edx
	jo	LBB68_3
	cmpl	$1000000000, %edx
	jae	LBB68_4
	movq	-24(%rbp), %rsi
	movq	%rbx, %rdi
	callq	__ZN4time6at_utc17hd1c4d26373961b71E
	movq	%rbx, %rax
	addq	$24, %rsp
	popq	%rbx
	popq	%rbp
	retq
LBB68_3:
	leaq	_str.2(%rip), %rdi
	leaq	l___unnamed_175(%rip), %rdx
	movl	$33, %esi
	callq	__ZN4core9panicking5panic17h383a6b80ea7021aaE
LBB68_4:
	leaq	l___unnamed_159(%rip), %rdi
	leaq	l___unnamed_160(%rip), %rdx
	movl	$50, %esi
	callq	__ZN3std9panicking11begin_panic17h6e8e866eb85f4bdfE
	.cfi_endproc

	.globl	__ZN4time2at17hee63bdfef6d7ef6eE
	.p2align	4, 0x90
__ZN4time2at17hee63bdfef6d7ef6eE:
Lfunc_begin4:
	.cfi_startproc
	.cfi_personality 155, _rust_eh_personality
	.cfi_lsda 16, Lexception4
	pushq	%rbp
	.cfi_def_cfa_offset 16
	.cfi_offset %rbp, -16
	movq	%rsp, %rbp
	.cfi_def_cfa_register %rbp
	pushq	%r14
	pushq	%rbx
	subq	$144, %rsp
	.cfi_offset %rbx, -32
	.cfi_offset %r14, -24
	movl	%edx, %r14d
	movq	%rdi, %rbx
	movl	$0, 40(%rdi)
	movq	$0, 32(%rdi)
	movq	$0, 24(%rdi)
	movq	$0, 16(%rdi)
	movq	$0, 8(%rdi)
	movq	$0, (%rdi)
	movq	%rsi, -24(%rbp)
	xorps	%xmm0, %xmm0
	movaps	%xmm0, -64(%rbp)
	movaps	%xmm0, -80(%rbp)
	movaps	%xmm0, -96(%rbp)
	movq	$0, -48(%rbp)
	leaq	-24(%rbp), %rdi
	leaq	-96(%rbp), %rsi
	callq	_localtime_r
	testq	%rax, %rax
	je	LBB69_1
	movl	-56(%rbp), %eax
	movaps	-96(%rbp), %xmm0
	movups	%xmm0, (%rbx)
	movaps	-80(%rbp), %xmm0
	movups	%xmm0, 16(%rbx)
	movl	-64(%rbp), %ecx
	movl	%ecx, 32(%rbx)
	movl	%eax, 36(%rbx)
	movl	%r14d, 40(%rbx)
	movq	%rbx, %rax
	addq	$144, %rsp
	popq	%rbx
	popq	%r14
	popq	%rbp
	retq
LBB69_1:
	leaq	-160(%rbp), %rbx
	movq	%rbx, %rdi
	callq	__ZN3std2io5error5Error13last_os_error17hc3bba933b5587d76E
	movq	%rbx, -40(%rbp)
	movq	__ZN60_$LT$std..io..error..Error$u20$as$u20$core..fmt..Display$GT$3fmt17h3716551a80b2cfe9E@GOTPCREL(%rip), %rax
	movq	%rax, -32(%rbp)
	leaq	l___unnamed_17(%rip), %rax
	movq	%rax, -144(%rbp)
	movq	$1, -136(%rbp)
	movq	$0, -128(%rbp)
	leaq	-40(%rbp), %rax
	movq	%rax, -112(%rbp)
	movq	$1, -104(%rbp)
Ltmp12:
	leaq	l___unnamed_18(%rip), %rsi
	leaq	-144(%rbp), %rdi
	callq	__ZN3std9panicking15begin_panic_fmt17h8712912d987f10a1E
Ltmp13:
	ud2
LBB69_2:
Ltmp14:
	movq	%rax, %rbx
	leaq	-160(%rbp), %rdi
	callq	__ZN4core3ptr13drop_in_place17h0a612e669328caacE
	movq	%rbx, %rdi
	callq	__Unwind_Resume
	ud2
Lfunc_end4:
	.cfi_endproc
	.section	__TEXT,__gcc_except_tab
	.p2align	2
GCC_except_table69:
Lexception4:
	.byte	255
	.byte	255
	.byte	1
	.uleb128 Lcst_end4-Lcst_begin4
Lcst_begin4:
	.uleb128 Lfunc_begin4-Lfunc_begin4
	.uleb128 Ltmp12-Lfunc_begin4
	.byte	0
	.byte	0
	.uleb128 Ltmp12-Lfunc_begin4
	.uleb128 Ltmp13-Ltmp12
	.uleb128 Ltmp14-Lfunc_begin4
	.byte	0
	.uleb128 Ltmp13-Lfunc_begin4
	.uleb128 Lfunc_end4-Ltmp13
	.byte	0
	.byte	0
Lcst_end4:
	.p2align	2

	.section	__TEXT,__text,regular,pure_instructions
	.globl	__ZN4time3now17ha606ae68876673f4E
	.p2align	4, 0x90
__ZN4time3now17ha606ae68876673f4E:
	.cfi_startproc
	pushq	%rbp
	.cfi_def_cfa_offset 16
	.cfi_offset %rbp, -16
	movq	%rsp, %rbp
	.cfi_def_cfa_register %rbp
	pushq	%rbx
	subq	$24, %rsp
	.cfi_offset %rbx, -24
	movq	%rdi, %rbx
	movq	$0, -24(%rbp)
	movl	$0, -16(%rbp)
	leaq	-24(%rbp), %rdi
	xorl	%esi, %esi
	callq	_gettimeofday
	imull	$1000, -16(%rbp), %edx
	jo	LBB70_3
	cmpl	$1000000000, %edx
	jae	LBB70_4
	movq	-24(%rbp), %rsi
	movq	%rbx, %rdi
	callq	__ZN4time2at17hee63bdfef6d7ef6eE
	movq	%rbx, %rax
	addq	$24, %rsp
	popq	%rbx
	popq	%rbp
	retq
LBB70_3:
	leaq	_str.2(%rip), %rdi
	leaq	l___unnamed_175(%rip), %rdx
	movl	$33, %esi
	callq	__ZN4core9panicking5panic17h383a6b80ea7021aaE
LBB70_4:
	leaq	l___unnamed_159(%rip), %rdi
	leaq	l___unnamed_160(%rip), %rdx
	movl	$50, %esi
	callq	__ZN3std9panicking11begin_panic17h6e8e866eb85f4bdfE
	.cfi_endproc

	.globl	__ZN4time2Tm11to_timespec17he444425c7066220aE
	.p2align	4, 0x90
__ZN4time2Tm11to_timespec17he444425c7066220aE:
	.cfi_startproc
	pushq	%rbp
	.cfi_def_cfa_offset 16
	.cfi_offset %rbp, -16
	movq	%rsp, %rbp
	.cfi_def_cfa_register %rbp
	pushq	%rbx
	subq	$56, %rsp
	.cfi_offset %rbx, -24
	movq	%rdi, %rbx
	cmpl	$0, 36(%rdi)
	je	LBB71_2
	xorps	%xmm0, %xmm0
	movaps	%xmm0, -32(%rbp)
	movaps	%xmm0, -48(%rbp)
	movaps	%xmm0, -64(%rbp)
	movq	$0, -16(%rbp)
	movups	(%rbx), %xmm0
	movaps	%xmm0, -64(%rbp)
	movups	16(%rbx), %xmm0
	movaps	%xmm0, -48(%rbp)
	movl	32(%rbx), %eax
	movl	%eax, -32(%rbp)
	leaq	-64(%rbp), %rdi
	callq	_mktime
	movl	40(%rbx), %edx
	cmpl	$1000000000, %edx
	jae	LBB71_5
LBB71_4:
	addq	$56, %rsp
	popq	%rbx
	popq	%rbp
	retq
LBB71_2:
	xorps	%xmm0, %xmm0
	movaps	%xmm0, -32(%rbp)
	movaps	%xmm0, -48(%rbp)
	movaps	%xmm0, -64(%rbp)
	movq	$0, -16(%rbp)
	movups	(%rbx), %xmm0
	movaps	%xmm0, -64(%rbp)
	movups	16(%rbx), %xmm0
	movaps	%xmm0, -48(%rbp)
	movl	32(%rbx), %eax
	movl	%eax, -32(%rbp)
	leaq	-64(%rbp), %rdi
	callq	_timegm
	movl	40(%rbx), %edx
	cmpl	$1000000000, %edx
	jb	LBB71_4
LBB71_5:
	leaq	l___unnamed_159(%rip), %rdi
	leaq	l___unnamed_160(%rip), %rdx
	movl	$50, %esi
	callq	__ZN3std9panicking11begin_panic17h6e8e866eb85f4bdfE
	.cfi_endproc

	.globl	__ZN4time2Tm8to_local17ha352f6d8a5204ab0E
	.p2align	4, 0x90
__ZN4time2Tm8to_local17ha352f6d8a5204ab0E:
	.cfi_startproc
	pushq	%rbp
	.cfi_def_cfa_offset 16
	.cfi_offset %rbp, -16
	movq	%rsp, %rbp
	.cfi_def_cfa_register %rbp
	pushq	%rbx
	pushq	%rax
	.cfi_offset %rbx, -24
	movq	%rdi, %rbx
	movq	%rsi, %rdi
	callq	__ZN4time2Tm11to_timespec17he444425c7066220aE
	movq	%rbx, %rdi
	movq	%rax, %rsi
	callq	__ZN4time2at17hee63bdfef6d7ef6eE
	movq	%rbx, %rax
	addq	$8, %rsp
	popq	%rbx
	popq	%rbp
	retq
	.cfi_endproc

	.globl	__ZN4time2Tm6to_utc17he14a52dfaf2074b4E
	.p2align	4, 0x90
__ZN4time2Tm6to_utc17he14a52dfaf2074b4E:
	.cfi_startproc
	pushq	%rbp
	.cfi_def_cfa_offset 16
	.cfi_offset %rbp, -16
	movq	%rsp, %rbp
	.cfi_def_cfa_register %rbp
	pushq	%rbx
	pushq	%rax
	.cfi_offset %rbx, -24
	movq	%rdi, %rbx
	cmpl	$0, 36(%rsi)
	je	LBB73_3
	movq	%rsi, %rdi
	callq	__ZN4time2Tm11to_timespec17he444425c7066220aE
	movq	%rbx, %rdi
	movq	%rax, %rsi
	callq	__ZN4time6at_utc17hd1c4d26373961b71E
	jmp	LBB73_2
LBB73_3:
	movl	40(%rsi), %eax
	movl	%eax, 40(%rbx)
	movq	32(%rsi), %rax
	movq	%rax, 32(%rbx)
	movq	24(%rsi), %rax
	movq	%rax, 24(%rbx)
	movq	16(%rsi), %rax
	movq	%rax, 16(%rbx)
	movq	(%rsi), %rax
	movq	8(%rsi), %rcx
	movq	%rcx, 8(%rbx)
	movq	%rax, (%rbx)
LBB73_2:
	movq	%rbx, %rax
	addq	$8, %rsp
	popq	%rbx
	popq	%rbp
	retq
	.cfi_endproc

	.globl	__ZN4time2Tm5ctime17h9e276c5f963f7d07E
	.p2align	4, 0x90
__ZN4time2Tm5ctime17h9e276c5f963f7d07E:
	.cfi_startproc
	pushq	%rbp
	.cfi_def_cfa_offset 16
	.cfi_offset %rbp, -16
	movq	%rsp, %rbp
	.cfi_def_cfa_register %rbp
	movq	%rdi, %rax
	movq	%rsi, (%rdi)
	movq	$2, 8(%rdi)
	popq	%rbp
	retq
	.cfi_endproc

	.globl	__ZN4time2Tm7asctime17hf47ced9a48a71179E
	.p2align	4, 0x90
__ZN4time2Tm7asctime17hf47ced9a48a71179E:
	.cfi_startproc
	pushq	%rbp
	.cfi_def_cfa_offset 16
	.cfi_offset %rbp, -16
	movq	%rsp, %rbp
	.cfi_def_cfa_register %rbp
	movq	%rdi, %rax
	movq	%rsi, (%rdi)
	movq	$0, 8(%rdi)
	leaq	l___unnamed_14(%rip), %rcx
	movq	%rcx, 16(%rdi)
	movq	$2, 24(%rdi)
	popq	%rbp
	retq
	.cfi_endproc

	.globl	__ZN4time2Tm8strftime17h63a0507a03ef972fE
	.p2align	4, 0x90
__ZN4time2Tm8strftime17h63a0507a03ef972fE:
	.cfi_startproc
	pushq	%rbp
	.cfi_def_cfa_offset 16
	.cfi_offset %rbp, -16
	movq	%rsp, %rbp
	.cfi_def_cfa_register %rbp
	pushq	%r14
	pushq	%rbx
	.cfi_offset %rbx, -32
	.cfi_offset %r14, -24
	movq	%rdi, %rax
	movl	16(%rsi), %ebx
	movl	24(%rsi), %edi
	cmpl	$6, %edi
	ja	LBB76_2
	cmpl	$12, %ebx
	jae	LBB76_2
	testq	%rcx, %rcx
	je	LBB76_29
	leaq	(%rdx,%rcx), %r9
	leaq	LJTI76_0(%rip), %r8
	movq	%rdx, %rbx
	jmp	LBB76_9
	.p2align	4, 0x90
LBB76_27:
	cmpl	$1114112, %edi
	je	LBB76_29
LBB76_28:
	movq	%r14, %rbx
	cmpq	%r9, %r14
	je	LBB76_29
LBB76_9:
	leaq	1(%rbx), %r14
	movzbl	(%rbx), %edi
	testb	%dil, %dil
	js	LBB76_10
	cmpl	$37, %edi
	jne	LBB76_27
	jmp	LBB76_30
	.p2align	4, 0x90
LBB76_10:
	cmpq	%r9, %r14
	je	LBB76_11
	movzbl	1(%rbx), %r10d
	addq	$2, %rbx
	andl	$63, %r10d
	movq	%rbx, %r14
	movl	%edi, %r11d
	andl	$31, %r11d
	cmpb	$-33, %dil
	jbe	LBB76_14
LBB76_16:
	cmpq	%r9, %r14
	je	LBB76_17
	movzbl	(%r14), %ebx
	incq	%r14
	andl	$63, %ebx
	shll	$6, %r10d
	orl	%ebx, %r10d
	cmpb	$-16, %dil
	jb	LBB76_20
LBB76_21:
	cmpq	%r9, %r14
	je	LBB76_22
	movzbl	(%r14), %edi
	incq	%r14
	andl	$63, %edi
	jmp	LBB76_24
LBB76_11:
	xorl	%r10d, %r10d
	movq	%r9, %r14
	movl	%edi, %r11d
	andl	$31, %r11d
	cmpb	$-33, %dil
	ja	LBB76_16
LBB76_14:
	shll	$6, %r11d
	orl	%r11d, %r10d
	movl	%r10d, %edi
	cmpl	$37, %edi
	jne	LBB76_27
	jmp	LBB76_30
LBB76_17:
	xorl	%ebx, %ebx
	movq	%r9, %r14
	shll	$6, %r10d
	orl	%ebx, %r10d
	cmpb	$-16, %dil
	jae	LBB76_21
LBB76_20:
	shll	$12, %r11d
	orl	%r11d, %r10d
	movl	%r10d, %edi
	cmpl	$37, %edi
	jne	LBB76_27
	jmp	LBB76_30
LBB76_22:
	xorl	%edi, %edi
LBB76_24:
	andl	$7, %r11d
	shll	$18, %r11d
	shll	$6, %r10d
	orl	%r11d, %r10d
	orl	%edi, %r10d
	movl	%r10d, %edi
	cmpl	$37, %edi
	jne	LBB76_27
	.p2align	4, 0x90
LBB76_30:
	cmpq	%r9, %r14
	je	LBB76_51
	leaq	1(%r14), %rdi
	movzbl	(%r14), %r11d
	testb	%r11b, %r11b
	js	LBB76_33
	movq	%rdi, %r14
	leal	-37(%r11), %edi
	cmpl	$85, %edi
	jbe	LBB76_55
	jmp	LBB76_50
LBB76_33:
	cmpq	%r9, %rdi
	je	LBB76_34
	movzbl	1(%r14), %r10d
	addq	$2, %r14
	andl	$63, %r10d
	movl	%r11d, %edi
	andl	$31, %edi
	cmpb	$-33, %r11b
	jbe	LBB76_37
LBB76_39:
	cmpq	%r9, %r14
	je	LBB76_40
	movzbl	(%r14), %ebx
	incq	%r14
	andl	$63, %ebx
	shll	$6, %r10d
	orl	%ebx, %r10d
	cmpb	$-16, %r11b
	jb	LBB76_43
LBB76_44:
	cmpq	%r9, %r14
	je	LBB76_45
	movzbl	(%r14), %r11d
	incq	%r14
	andl	$63, %r11d
	jmp	LBB76_47
LBB76_34:
	xorl	%r10d, %r10d
	movq	%r9, %r14
	movl	%r11d, %edi
	andl	$31, %edi
	cmpb	$-33, %r11b
	ja	LBB76_39
LBB76_37:
	shll	$6, %edi
	orl	%edi, %r10d
	jmp	LBB76_48
LBB76_40:
	xorl	%ebx, %ebx
	movq	%r9, %r14
	shll	$6, %r10d
	orl	%ebx, %r10d
	cmpb	$-16, %r11b
	jae	LBB76_44
LBB76_43:
	shll	$12, %edi
	orl	%edi, %r10d
	jmp	LBB76_48
LBB76_45:
	xorl	%r11d, %r11d
LBB76_47:
	andl	$7, %edi
	shll	$18, %edi
	shll	$6, %r10d
	orl	%edi, %r10d
	orl	%r11d, %r10d
LBB76_48:
	movl	%r10d, %r11d
	leal	-37(%r11), %edi
	cmpl	$85, %edi
	ja	LBB76_50
LBB76_55:
	movslq	(%r8,%rdi,4), %rdi
	addq	%r8, %rdi
	jmpq	*%rdi
LBB76_2:
	cmpl	$12, %ebx
	jae	LBB76_3
	movl	$6, 4(%rax)
	jmp	LBB76_53
LBB76_29:
	movq	%rsi, 8(%rax)
	movq	$0, 16(%rax)
	movq	%rdx, 24(%rax)
	movq	%rcx, 32(%rax)
	xorl	%ecx, %ecx
	jmp	LBB76_54
LBB76_3:
	cmpl	$7, %edi
	jae	LBB76_4
	movl	$4, 4(%rax)
	jmp	LBB76_53
LBB76_4:
	movl	$3, 4(%rax)
	jmp	LBB76_53
LBB76_50:
	cmpl	$1114112, %r11d
	jne	LBB76_52
LBB76_51:
	movl	$12, 4(%rax)
	jmp	LBB76_53
LBB76_52:
	movl	$13, 4(%rax)
	movl	%r11d, 8(%rax)
LBB76_53:
	movl	$1, %ecx
LBB76_54:
	movl	%ecx, (%rax)
	popq	%rbx
	popq	%r14
	popq	%rbp
	retq
	.cfi_endproc
	.p2align	2, 0x90
	.data_region jt32
.set L76_0_set_28, LBB76_28-LJTI76_0
.set L76_0_set_52, LBB76_52-LJTI76_0
LJTI76_0:
	.long	L76_0_set_28
	.long	L76_0_set_52
	.long	L76_0_set_52
	.long	L76_0_set_52
	.long	L76_0_set_52
	.long	L76_0_set_52
	.long	L76_0_set_28
	.long	L76_0_set_52
	.long	L76_0_set_52
	.long	L76_0_set_52
	.long	L76_0_set_52
	.long	L76_0_set_52
	.long	L76_0_set_52
	.long	L76_0_set_52
	.long	L76_0_set_52
	.long	L76_0_set_52
	.long	L76_0_set_52
	.long	L76_0_set_52
	.long	L76_0_set_52
	.long	L76_0_set_52
	.long	L76_0_set_52
	.long	L76_0_set_52
	.long	L76_0_set_52
	.long	L76_0_set_52
	.long	L76_0_set_52
	.long	L76_0_set_52
	.long	L76_0_set_52
	.long	L76_0_set_52
	.long	L76_0_set_28
	.long	L76_0_set_28
	.long	L76_0_set_28
	.long	L76_0_set_28
	.long	L76_0_set_52
	.long	L76_0_set_28
	.long	L76_0_set_28
	.long	L76_0_set_28
	.long	L76_0_set_28
	.long	L76_0_set_52
	.long	L76_0_set_52
	.long	L76_0_set_52
	.long	L76_0_set_28
	.long	L76_0_set_52
	.long	L76_0_set_52
	.long	L76_0_set_28
	.long	L76_0_set_52
	.long	L76_0_set_28
	.long	L76_0_set_28
	.long	L76_0_set_28
	.long	L76_0_set_28
	.long	L76_0_set_28
	.long	L76_0_set_28
	.long	L76_0_set_28
	.long	L76_0_set_28
	.long	L76_0_set_28
	.long	L76_0_set_52
	.long	L76_0_set_52
	.long	L76_0_set_52
	.long	L76_0_set_52
	.long	L76_0_set_52
	.long	L76_0_set_52
	.long	L76_0_set_28
	.long	L76_0_set_28
	.long	L76_0_set_28
	.long	L76_0_set_28
	.long	L76_0_set_28
	.long	L76_0_set_28
	.long	L76_0_set_28
	.long	L76_0_set_28
	.long	L76_0_set_52
	.long	L76_0_set_28
	.long	L76_0_set_28
	.long	L76_0_set_28
	.long	L76_0_set_28
	.long	L76_0_set_28
	.long	L76_0_set_52
	.long	L76_0_set_28
	.long	L76_0_set_52
	.long	L76_0_set_28
	.long	L76_0_set_28
	.long	L76_0_set_28
	.long	L76_0_set_28
	.long	L76_0_set_28
	.long	L76_0_set_28
	.long	L76_0_set_28
	.long	L76_0_set_28
	.long	L76_0_set_28
	.end_data_region

	.globl	__ZN4time2Tm6rfc82217he91f810a5f74c06bE
	.p2align	4, 0x90
__ZN4time2Tm6rfc82217he91f810a5f74c06bE:
	.cfi_startproc
	pushq	%rbp
	.cfi_def_cfa_offset 16
	.cfi_offset %rbp, -16
	movq	%rsp, %rbp
	.cfi_def_cfa_register %rbp
	movq	%rdi, %rax
	xorl	%ecx, %ecx
	cmpl	$0, 36(%rsi)
	sete	%cl
	leaq	l___unnamed_178(%rip), %rdx
	leaq	l___unnamed_179(%rip), %rdi
	cmoveq	%rdx, %rdi
	orq	$18, %rcx
	movq	%rsi, (%rax)
	movq	$0, 8(%rax)
	movq	%rdi, 16(%rax)
	movq	%rcx, 24(%rax)
	popq	%rbp
	retq
	.cfi_endproc

	.globl	__ZN4time2Tm7rfc822z17h1337f23087fe32cbE
	.p2align	4, 0x90
__ZN4time2Tm7rfc822z17h1337f23087fe32cbE:
	.cfi_startproc
	pushq	%rbp
	.cfi_def_cfa_offset 16
	.cfi_offset %rbp, -16
	movq	%rsp, %rbp
	.cfi_def_cfa_register %rbp
	movq	%rdi, %rax
	movq	%rsi, (%rdi)
	movq	$0, 8(%rdi)
	leaq	l___unnamed_180(%rip), %rcx
	movq	%rcx, 16(%rdi)
	movq	$18, 24(%rdi)
	popq	%rbp
	retq
	.cfi_endproc

	.globl	__ZN4time2Tm7rfc333917hc1a0e73c7c61afd7E
	.p2align	4, 0x90
__ZN4time2Tm7rfc333917hc1a0e73c7c61afd7E:
	.cfi_startproc
	pushq	%rbp
	.cfi_def_cfa_offset 16
	.cfi_offset %rbp, -16
	movq	%rsp, %rbp
	.cfi_def_cfa_register %rbp
	movq	%rdi, %rax
	movq	%rsi, (%rdi)
	movq	$1, 8(%rdi)
	popq	%rbp
	retq
	.cfi_endproc

	.globl	__ZN55_$LT$time..ParseError$u20$as$u20$core..fmt..Display$GT$3fmt17h65e6117a39613700E
	.p2align	4, 0x90
__ZN55_$LT$time..ParseError$u20$as$u20$core..fmt..Display$GT$3fmt17h65e6117a39613700E:
	.cfi_startproc
	pushq	%rbp
	.cfi_def_cfa_offset 16
	.cfi_offset %rbp, -16
	movq	%rsp, %rbp
	.cfi_def_cfa_register %rbp
	subq	$112, %rsp
	movq	%rsi, %rax
	movl	(%rdi), %esi
	cmpq	$13, %rsi
	je	LBB80_16
	cmpl	$14, %esi
	jne	LBB80_2
	movl	4(%rdi), %ecx
	movl	%ecx, -4(%rbp)
	movl	8(%rdi), %ecx
	movl	%ecx, -24(%rbp)
	leaq	-4(%rbp), %rcx
	movq	%rcx, -56(%rbp)
	movq	__ZN43_$LT$char$u20$as$u20$core..fmt..Display$GT$3fmt17haf02f59875f30dd3E@GOTPCREL(%rip), %rcx
	movq	%rcx, -48(%rbp)
	leaq	-24(%rbp), %rdx
	movq	%rdx, -40(%rbp)
	movq	%rcx, -32(%rbp)
	leaq	l___unnamed_181(%rip), %rcx
	movq	%rcx, -104(%rbp)
	movq	$3, -96(%rbp)
	jmp	LBB80_18
LBB80_16:
	movl	4(%rdi), %ecx
	movl	%ecx, -4(%rbp)
	leaq	l___unnamed_182(%rip), %rcx
	movq	%rcx, -24(%rbp)
	movq	$24, -16(%rbp)
	leaq	-24(%rbp), %rcx
	movq	%rcx, -56(%rbp)
	leaq	__ZN44_$LT$$RF$T$u20$as$u20$core..fmt..Display$GT$3fmt17h292685221a0ad6f0E(%rip), %rcx
	movq	%rcx, -48(%rbp)
	leaq	-4(%rbp), %rcx
	movq	%rcx, -40(%rbp)
	movq	__ZN43_$LT$char$u20$as$u20$core..fmt..Display$GT$3fmt17haf02f59875f30dd3E@GOTPCREL(%rip), %rcx
	movq	%rcx, -32(%rbp)
	leaq	l___unnamed_183(%rip), %rcx
	movq	%rcx, -104(%rbp)
	movq	$2, -96(%rbp)
LBB80_18:
	movq	$0, -88(%rbp)
	leaq	-56(%rbp), %rcx
	movq	%rcx, -72(%rbp)
	movq	$2, -64(%rbp)
	jmp	LBB80_19
LBB80_2:
	leaq	l___unnamed_184(%rip), %rcx
	movl	$15, %edx
	leaq	LJTI80_0(%rip), %rdi
	movslq	(%rdi,%rsi,4), %rsi
	addq	%rdi, %rsi
	jmpq	*%rsi
LBB80_3:
	leaq	l___unnamed_185(%rip), %rcx
	jmp	LBB80_15
LBB80_4:
	leaq	l___unnamed_186(%rip), %rcx
	movl	$13, %edx
	jmp	LBB80_15
LBB80_5:
	leaq	l___unnamed_187(%rip), %rcx
	movl	$12, %edx
	jmp	LBB80_15
LBB80_6:
	leaq	l___unnamed_188(%rip), %rcx
	movl	$14, %edx
	jmp	LBB80_15
LBB80_7:
	leaq	l___unnamed_189(%rip), %rcx
	movl	$13, %edx
	jmp	LBB80_15
LBB80_8:
	leaq	l___unnamed_190(%rip), %rcx
	movl	$24, %edx
	jmp	LBB80_15
LBB80_9:
	leaq	l___unnamed_191(%rip), %rcx
	movl	$25, %edx
	jmp	LBB80_15
LBB80_10:
	leaq	l___unnamed_192(%rip), %rcx
	movl	$24, %edx
	jmp	LBB80_15
LBB80_11:
	leaq	l___unnamed_193(%rip), %rcx
	movl	$20, %edx
	jmp	LBB80_15
LBB80_12:
	leaq	l___unnamed_194(%rip), %rcx
	movl	$13, %edx
	jmp	LBB80_15
LBB80_13:
	leaq	l___unnamed_195(%rip), %rcx
	movl	$28, %edx
	jmp	LBB80_15
LBB80_14:
	leaq	l___unnamed_196(%rip), %rcx
	movl	$34, %edx
LBB80_15:
	movq	%rcx, -56(%rbp)
	movq	%rdx, -48(%rbp)
	leaq	-56(%rbp), %rcx
	movq	%rcx, -24(%rbp)
	leaq	__ZN44_$LT$$RF$T$u20$as$u20$core..fmt..Display$GT$3fmt17h292685221a0ad6f0E(%rip), %rcx
	movq	%rcx, -16(%rbp)
	leaq	l___unnamed_23(%rip), %rcx
	movq	%rcx, -104(%rbp)
	movq	$1, -96(%rbp)
	movq	$0, -88(%rbp)
	leaq	-24(%rbp), %rcx
	movq	%rcx, -72(%rbp)
	movq	$1, -64(%rbp)
LBB80_19:
	leaq	-104(%rbp), %rsi
	movq	%rax, %rdi
	callq	__ZN4core3fmt9Formatter9write_fmt17h742ca6aae87ad23cE
	addq	$112, %rsp
	popq	%rbp
	retq
	.cfi_endproc
	.p2align	2, 0x90
	.data_region jt32
.set L80_0_set_15, LBB80_15-LJTI80_0
.set L80_0_set_3, LBB80_3-LJTI80_0
.set L80_0_set_4, LBB80_4-LJTI80_0
.set L80_0_set_5, LBB80_5-LJTI80_0
.set L80_0_set_6, LBB80_6-LJTI80_0
.set L80_0_set_7, LBB80_7-LJTI80_0
.set L80_0_set_8, LBB80_8-LJTI80_0
.set L80_0_set_9, LBB80_9-LJTI80_0
.set L80_0_set_10, LBB80_10-LJTI80_0
.set L80_0_set_11, LBB80_11-LJTI80_0
.set L80_0_set_12, LBB80_12-LJTI80_0
.set L80_0_set_13, LBB80_13-LJTI80_0
.set L80_0_set_14, LBB80_14-LJTI80_0
LJTI80_0:
	.long	L80_0_set_15
	.long	L80_0_set_3
	.long	L80_0_set_4
	.long	L80_0_set_5
	.long	L80_0_set_6
	.long	L80_0_set_7
	.long	L80_0_set_8
	.long	L80_0_set_9
	.long	L80_0_set_10
	.long	L80_0_set_11
	.long	L80_0_set_12
	.long	L80_0_set_13
	.long	L80_0_set_14
	.end_data_region

	.globl	__ZN54_$LT$time..ParseError$u20$as$u20$std..error..Error$GT$11description17h8c21c580c4b77a76E
	.p2align	4, 0x90
__ZN54_$LT$time..ParseError$u20$as$u20$std..error..Error$GT$11description17h8c21c580c4b77a76E:
	.cfi_startproc
	pushq	%rbp
	.cfi_def_cfa_offset 16
	.cfi_offset %rbp, -16
	movq	%rsp, %rbp
	.cfi_def_cfa_register %rbp
	movl	(%rdi), %ecx
	leaq	l___unnamed_197(%rip), %rax
	movl	$21, %edx
	leaq	LJTI81_0(%rip), %rsi
	movslq	(%rsi,%rcx,4), %rcx
	addq	%rsi, %rcx
	jmpq	*%rcx
LBB81_1:
	leaq	l___unnamed_184(%rip), %rax
	movl	$15, %edx
	popq	%rbp
	retq
LBB81_2:
	leaq	l___unnamed_185(%rip), %rax
	movl	$15, %edx
	popq	%rbp
	retq
LBB81_3:
	leaq	l___unnamed_186(%rip), %rax
	movl	$13, %edx
	popq	%rbp
	retq
LBB81_4:
	leaq	l___unnamed_187(%rip), %rax
	movl	$12, %edx
	popq	%rbp
	retq
LBB81_5:
	leaq	l___unnamed_188(%rip), %rax
	movl	$14, %edx
	popq	%rbp
	retq
LBB81_6:
	leaq	l___unnamed_189(%rip), %rax
	movl	$13, %edx
	popq	%rbp
	retq
LBB81_7:
	leaq	l___unnamed_190(%rip), %rax
	jmp	LBB81_15
LBB81_8:
	leaq	l___unnamed_191(%rip), %rax
	movl	$25, %edx
	popq	%rbp
	retq
LBB81_9:
	leaq	l___unnamed_192(%rip), %rax
	jmp	LBB81_15
LBB81_10:
	leaq	l___unnamed_193(%rip), %rax
	movl	$20, %edx
	popq	%rbp
	retq
LBB81_11:
	leaq	l___unnamed_194(%rip), %rax
	movl	$13, %edx
	popq	%rbp
	retq
LBB81_12:
	leaq	l___unnamed_195(%rip), %rax
	movl	$28, %edx
	popq	%rbp
	retq
LBB81_13:
	leaq	l___unnamed_196(%rip), %rax
	movl	$34, %edx
	popq	%rbp
	retq
LBB81_14:
	leaq	l___unnamed_182(%rip), %rax
LBB81_15:
	movl	$24, %edx
LBB81_16:
	popq	%rbp
	retq
	.cfi_endproc
	.p2align	2, 0x90
	.data_region jt32
.set L81_0_set_1, LBB81_1-LJTI81_0
.set L81_0_set_2, LBB81_2-LJTI81_0
.set L81_0_set_3, LBB81_3-LJTI81_0
.set L81_0_set_4, LBB81_4-LJTI81_0
.set L81_0_set_5, LBB81_5-LJTI81_0
.set L81_0_set_6, LBB81_6-LJTI81_0
.set L81_0_set_7, LBB81_7-LJTI81_0
.set L81_0_set_8, LBB81_8-LJTI81_0
.set L81_0_set_9, LBB81_9-LJTI81_0
.set L81_0_set_10, LBB81_10-LJTI81_0
.set L81_0_set_11, LBB81_11-LJTI81_0
.set L81_0_set_12, LBB81_12-LJTI81_0
.set L81_0_set_13, LBB81_13-LJTI81_0
.set L81_0_set_14, LBB81_14-LJTI81_0
.set L81_0_set_16, LBB81_16-LJTI81_0
LJTI81_0:
	.long	L81_0_set_1
	.long	L81_0_set_2
	.long	L81_0_set_3
	.long	L81_0_set_4
	.long	L81_0_set_5
	.long	L81_0_set_6
	.long	L81_0_set_7
	.long	L81_0_set_8
	.long	L81_0_set_9
	.long	L81_0_set_10
	.long	L81_0_set_11
	.long	L81_0_set_12
	.long	L81_0_set_13
	.long	L81_0_set_14
	.long	L81_0_set_16
	.end_data_region

	.globl	__ZN4time8strftime17h68447f0a7a8e4b2dE
	.p2align	4, 0x90
__ZN4time8strftime17h68447f0a7a8e4b2dE:
Lfunc_begin5:
	.cfi_startproc
	.cfi_personality 155, _rust_eh_personality
	.cfi_lsda 16, Lexception5
	pushq	%rbp
	.cfi_def_cfa_offset 16
	.cfi_offset %rbp, -16
	movq	%rsp, %rbp
	.cfi_def_cfa_register %rbp
	pushq	%r15
	pushq	%r14
	pushq	%rbx
	subq	$184, %rsp
	.cfi_offset %rbx, -40
	.cfi_offset %r14, -32
	.cfi_offset %r15, -24
	movq	%rdx, %rax
	movq	%rsi, %rdx
	movq	%rdi, %rbx
	leaq	-104(%rbp), %rdi
	movq	%rcx, %rsi
	movq	%rax, %rcx
	callq	__ZN4time2Tm8strftime17h63a0507a03ef972fE
	cmpl	$1, -104(%rbp)
	jne	LBB82_2
	movl	-92(%rbp), %eax
	movl	%eax, 12(%rbx)
	movq	-100(%rbp), %rax
	movq	%rax, 4(%rbx)
	movl	$1, (%rbx)
	jmp	LBB82_16
LBB82_2:
	movq	-72(%rbp), %rax
	movq	%rax, -128(%rbp)
	movq	-80(%rbp), %rax
	movq	%rax, -136(%rbp)
	movq	-96(%rbp), %rax
	movq	-88(%rbp), %rcx
	movq	%rcx, -144(%rbp)
	movq	%rax, -152(%rbp)
	leaq	-152(%rbp), %rax
	movq	%rax, -56(%rbp)
	movq	$1, -48(%rbp)
	movq	$0, -40(%rbp)
	movq	$0, -32(%rbp)
	leaq	-56(%rbp), %rax
	movq	%rax, -120(%rbp)
	leaq	__ZN44_$LT$$RF$T$u20$as$u20$core..fmt..Display$GT$3fmt17h7dc5d3ae7ce28b88E(%rip), %rax
	movq	%rax, -112(%rbp)
	leaq	-48(%rbp), %rax
	movq	%rax, -64(%rbp)
	leaq	l___unnamed_23(%rip), %rax
	movq	%rax, -200(%rbp)
	movq	$1, -192(%rbp)
	movq	$0, -184(%rbp)
	leaq	-120(%rbp), %rax
	movq	%rax, -168(%rbp)
	movq	$1, -160(%rbp)
Ltmp15:
	leaq	l___unnamed_9(%rip), %rsi
	leaq	-64(%rbp), %rdi
	leaq	-200(%rbp), %rdx
	callq	__ZN4core3fmt5write17h0f2c225c157771c1E
Ltmp16:
	testb	%al, %al
	jne	LBB82_4
	movq	-40(%rbp), %rsi
	movq	-32(%rbp), %r14
	cmpq	%r14, %rsi
	je	LBB82_15
	jb	LBB82_12
	testq	%rsi, %rsi
	je	LBB82_15
	movq	-48(%rbp), %rdi
	testq	%rdi, %rdi
	je	LBB82_15
	testq	%r14, %r14
	je	LBB82_11
	movl	$1, %edx
	movq	%r14, %rcx
	callq	___rust_realloc
	movq	%rax, %r15
	testq	%rax, %rax
	jne	LBB82_14
	movl	$1, %esi
	movq	%r14, %rdi
	callq	__ZN5alloc5alloc18handle_alloc_error17h28974197717b8939E
LBB82_11:
	movl	$1, %r15d
	movl	$1, %edx
	callq	___rust_dealloc
LBB82_14:
	movq	%r15, -48(%rbp)
	movq	%r14, -40(%rbp)
LBB82_15:
	movq	-32(%rbp), %rax
	movq	%rax, 24(%rbx)
	movq	-48(%rbp), %rax
	movq	-40(%rbp), %rcx
	movq	%rcx, 16(%rbx)
	movq	%rax, 8(%rbx)
	movl	$0, (%rbx)
LBB82_16:
	movq	%rbx, %rax
	addq	$184, %rsp
	popq	%rbx
	popq	%r14
	popq	%r15
	popq	%rbp
	retq
LBB82_4:
Ltmp19:
	leaq	l___unnamed_198(%rip), %rdi
	leaq	l___unnamed_199(%rip), %rcx
	leaq	l___unnamed_200(%rip), %r8
	leaq	-200(%rbp), %rdx
	movl	$55, %esi
	callq	__ZN4core6result13unwrap_failed17hc193898ef513e81fE
Ltmp20:
	jmp	LBB82_5
LBB82_12:
Ltmp17:
	leaq	l___unnamed_201(%rip), %rdi
	leaq	l___unnamed_202(%rip), %rdx
	movl	$36, %esi
	callq	__ZN4core9panicking5panic17h383a6b80ea7021aaE
Ltmp18:
LBB82_5:
	ud2
LBB82_18:
Ltmp21:
	movq	%rax, %rbx
	leaq	-48(%rbp), %rdi
	callq	__ZN4core3ptr13drop_in_place17h30322a4d286a7bacE
	movq	%rbx, %rdi
	callq	__Unwind_Resume
	ud2
Lfunc_end5:
	.cfi_endproc
	.section	__TEXT,__gcc_except_tab
	.p2align	2
GCC_except_table82:
Lexception5:
	.byte	255
	.byte	255
	.byte	1
	.uleb128 Lcst_end5-Lcst_begin5
Lcst_begin5:
	.uleb128 Ltmp15-Lfunc_begin5
	.uleb128 Ltmp18-Ltmp15
	.uleb128 Ltmp21-Lfunc_begin5
	.byte	0
	.uleb128 Ltmp18-Lfunc_begin5
	.uleb128 Lfunc_end5-Ltmp18
	.byte	0
	.byte	0
Lcst_end5:
	.p2align	2

	.section	__TEXT,__text,regular,pure_instructions
	.globl	__ZN61_$LT$time..duration..Duration$u20$as$u20$core..fmt..Debug$GT$3fmt17h79d80f7fb68ef271E
	.p2align	4, 0x90
__ZN61_$LT$time..duration..Duration$u20$as$u20$core..fmt..Debug$GT$3fmt17h79d80f7fb68ef271E:
	.cfi_startproc
	pushq	%rbp
	.cfi_def_cfa_offset 16
	.cfi_offset %rbp, -16
	movq	%rsp, %rbp
	.cfi_def_cfa_register %rbp
	pushq	%r14
	pushq	%rbx
	subq	$32, %rsp
	.cfi_offset %rbx, -32
	.cfi_offset %r14, -24
	movq	%rdi, %rbx
	leaq	L___unnamed_203(%rip), %rdx
	leaq	-40(%rbp), %r14
	movl	$8, %ecx
	movq	%r14, %rdi
	callq	__ZN4core3fmt9Formatter12debug_struct17ha1a64e91d2a98458E
	movq	%rbx, -24(%rbp)
	addq	$8, %rbx
	leaq	L___unnamed_204(%rip), %rsi
	leaq	l___unnamed_205(%rip), %r8
	leaq	-24(%rbp), %rcx
	movl	$4, %edx
	movq	%r14, %rdi
	callq	__ZN4core3fmt8builders11DebugStruct5field17h6c54d35ac41bb1e6E
	movq	%rbx, -24(%rbp)
	leaq	l___unnamed_206(%rip), %rsi
	leaq	l___unnamed_207(%rip), %r8
	leaq	-24(%rbp), %rcx
	movl	$5, %edx
	movq	%r14, %rdi
	callq	__ZN4core3fmt8builders11DebugStruct5field17h6c54d35ac41bb1e6E
	movq	%r14, %rdi
	callq	__ZN4core3fmt8builders11DebugStruct6finish17h67ed49fd5e81bb24E
	addq	$32, %rsp
	popq	%rbx
	popq	%r14
	popq	%rbp
	retq
	.cfi_endproc

	.globl	__ZN68_$LT$time..duration..OutOfRangeError$u20$as$u20$core..fmt..Debug$GT$3fmt17h8cf3d9dccf5523deE
	.p2align	4, 0x90
__ZN68_$LT$time..duration..OutOfRangeError$u20$as$u20$core..fmt..Debug$GT$3fmt17h8cf3d9dccf5523deE:
	.cfi_startproc
	pushq	%rbp
	.cfi_def_cfa_offset 16
	.cfi_offset %rbp, -16
	movq	%rsp, %rbp
	.cfi_def_cfa_register %rbp
	pushq	%r14
	pushq	%rbx
	subq	$32, %rsp
	.cfi_offset %rbx, -32
	.cfi_offset %r14, -24
	movq	%rdi, %rbx
	leaq	l___unnamed_208(%rip), %rdx
	leaq	-48(%rbp), %r14
	movl	$15, %ecx
	movq	%r14, %rdi
	callq	__ZN4core3fmt9Formatter11debug_tuple17h6c448643801d07e8E
	movq	%rbx, -24(%rbp)
	leaq	l___unnamed_209(%rip), %rdx
	leaq	-24(%rbp), %rsi
	movq	%r14, %rdi
	callq	__ZN4core3fmt8builders10DebugTuple5field17hc7b676d0e36b51d9E
	movq	%r14, %rdi
	callq	__ZN4core3fmt8builders10DebugTuple6finish17h9f206806f7096c33E
	addq	$32, %rsp
	popq	%rbx
	popq	%r14
	popq	%rbp
	retq
	.cfi_endproc

	.globl	__ZN70_$LT$time..sys..inner..mac..SteadyTime$u20$as$u20$core..fmt..Debug$GT$3fmt17h2bc448ed054008caE
	.p2align	4, 0x90
__ZN70_$LT$time..sys..inner..mac..SteadyTime$u20$as$u20$core..fmt..Debug$GT$3fmt17h2bc448ed054008caE:
	.cfi_startproc
	pushq	%rbp
	.cfi_def_cfa_offset 16
	.cfi_offset %rbp, -16
	movq	%rsp, %rbp
	.cfi_def_cfa_register %rbp
	pushq	%r14
	pushq	%rbx
	subq	$32, %rsp
	.cfi_offset %rbx, -32
	.cfi_offset %r14, -24
	movq	%rdi, %rbx
	leaq	l___unnamed_4(%rip), %rdx
	leaq	-40(%rbp), %r14
	movl	$10, %ecx
	movq	%r14, %rdi
	callq	__ZN4core3fmt9Formatter12debug_struct17ha1a64e91d2a98458E
	movq	%rbx, -24(%rbp)
	leaq	l___unnamed_5(%rip), %rsi
	leaq	l___unnamed_6(%rip), %r8
	leaq	-24(%rbp), %rcx
	movl	$1, %edx
	movq	%r14, %rdi
	callq	__ZN4core3fmt8builders11DebugStruct5field17h6c54d35ac41bb1e6E
	movq	%r14, %rdi
	callq	__ZN4core3fmt8builders11DebugStruct6finish17h67ed49fd5e81bb24E
	addq	$32, %rsp
	popq	%rbx
	popq	%r14
	popq	%rbp
	retq
	.cfi_endproc

	.globl	__ZN51_$LT$time..Timespec$u20$as$u20$core..fmt..Debug$GT$3fmt17h4b8cd4a011525703E
	.p2align	4, 0x90
__ZN51_$LT$time..Timespec$u20$as$u20$core..fmt..Debug$GT$3fmt17h4b8cd4a011525703E:
	.cfi_startproc
	pushq	%rbp
	.cfi_def_cfa_offset 16
	.cfi_offset %rbp, -16
	movq	%rsp, %rbp
	.cfi_def_cfa_register %rbp
	pushq	%r14
	pushq	%rbx
	subq	$32, %rsp
	.cfi_offset %rbx, -32
	.cfi_offset %r14, -24
	movq	%rdi, %rbx
	leaq	L___unnamed_210(%rip), %rdx
	leaq	-40(%rbp), %r14
	movl	$8, %ecx
	movq	%r14, %rdi
	callq	__ZN4core3fmt9Formatter12debug_struct17ha1a64e91d2a98458E
	movq	%rbx, -24(%rbp)
	addq	$8, %rbx
	leaq	l___unnamed_211(%rip), %rsi
	leaq	l___unnamed_205(%rip), %r8
	leaq	-24(%rbp), %rcx
	movl	$3, %edx
	movq	%r14, %rdi
	callq	__ZN4core3fmt8builders11DebugStruct5field17h6c54d35ac41bb1e6E
	movq	%rbx, -24(%rbp)
	leaq	L___unnamed_212(%rip), %rsi
	leaq	l___unnamed_207(%rip), %r8
	leaq	-24(%rbp), %rcx
	movl	$4, %edx
	movq	%r14, %rdi
	callq	__ZN4core3fmt8builders11DebugStruct5field17h6c54d35ac41bb1e6E
	movq	%r14, %rdi
	callq	__ZN4core3fmt8builders11DebugStruct6finish17h67ed49fd5e81bb24E
	addq	$32, %rsp
	popq	%rbx
	popq	%r14
	popq	%rbp
	retq
	.cfi_endproc

	.globl	__ZN53_$LT$time..SteadyTime$u20$as$u20$core..fmt..Debug$GT$3fmt17hefb0d718687e7a03E
	.p2align	4, 0x90
__ZN53_$LT$time..SteadyTime$u20$as$u20$core..fmt..Debug$GT$3fmt17hefb0d718687e7a03E:
	.cfi_startproc
	pushq	%rbp
	.cfi_def_cfa_offset 16
	.cfi_offset %rbp, -16
	movq	%rsp, %rbp
	.cfi_def_cfa_register %rbp
	pushq	%r14
	pushq	%rbx
	subq	$32, %rsp
	.cfi_offset %rbx, -32
	.cfi_offset %r14, -24
	movq	%rdi, %rbx
	leaq	l___unnamed_4(%rip), %rdx
	leaq	-48(%rbp), %r14
	movl	$10, %ecx
	movq	%r14, %rdi
	callq	__ZN4core3fmt9Formatter11debug_tuple17h6c448643801d07e8E
	movq	%rbx, -24(%rbp)
	leaq	l___unnamed_213(%rip), %rdx
	leaq	-24(%rbp), %rsi
	movq	%r14, %rdi
	callq	__ZN4core3fmt8builders10DebugTuple5field17hc7b676d0e36b51d9E
	movq	%r14, %rdi
	callq	__ZN4core3fmt8builders10DebugTuple6finish17h9f206806f7096c33E
	addq	$32, %rsp
	popq	%rbx
	popq	%r14
	popq	%rbp
	retq
	.cfi_endproc

	.globl	__ZN45_$LT$time..Tm$u20$as$u20$core..fmt..Debug$GT$3fmt17h51b7044c6f0b2bc8E
	.p2align	4, 0x90
__ZN45_$LT$time..Tm$u20$as$u20$core..fmt..Debug$GT$3fmt17h51b7044c6f0b2bc8E:
	.cfi_startproc
	pushq	%rbp
	.cfi_def_cfa_offset 16
	.cfi_offset %rbp, -16
	movq	%rsp, %rbp
	.cfi_def_cfa_register %rbp
	pushq	%r15
	pushq	%r14
	pushq	%r13
	pushq	%r12
	pushq	%rbx
	subq	$88, %rsp
	.cfi_offset %rbx, -56
	.cfi_offset %r12, -48
	.cfi_offset %r13, -40
	.cfi_offset %r14, -32
	.cfi_offset %r15, -24
	movq	%rdi, %rbx
	leaq	l___unnamed_214(%rip), %rdx
	leaq	-120(%rbp), %r14
	movl	$2, %ecx
	movq	%r14, %rdi
	callq	__ZN4core3fmt9Formatter12debug_struct17ha1a64e91d2a98458E
	movq	%rbx, -48(%rbp)
	leaq	4(%rbx), %r13
	leaq	8(%rbx), %r15
	leaq	12(%rbx), %r12
	leaq	16(%rbx), %rax
	movq	%rax, -56(%rbp)
	leaq	20(%rbx), %rax
	movq	%rax, -64(%rbp)
	leaq	24(%rbx), %rax
	movq	%rax, -72(%rbp)
	leaq	28(%rbx), %rax
	movq	%rax, -80(%rbp)
	leaq	32(%rbx), %rax
	movq	%rax, -88(%rbp)
	leaq	36(%rbx), %rax
	movq	%rax, -96(%rbp)
	leaq	40(%rbx), %rax
	movq	%rax, -104(%rbp)
	leaq	l___unnamed_215(%rip), %rsi
	leaq	l___unnamed_207(%rip), %rbx
	leaq	-48(%rbp), %rcx
	movl	$6, %edx
	movq	%r14, %rdi
	movq	%rbx, %r8
	callq	__ZN4core3fmt8builders11DebugStruct5field17h6c54d35ac41bb1e6E
	movq	%r13, -48(%rbp)
	leaq	l___unnamed_216(%rip), %rsi
	leaq	-48(%rbp), %rcx
	movl	$6, %edx
	movq	%r14, %rdi
	movq	%rbx, %r8
	callq	__ZN4core3fmt8builders11DebugStruct5field17h6c54d35ac41bb1e6E
	movq	%r15, -48(%rbp)
	leaq	l___unnamed_217(%rip), %rsi
	leaq	-48(%rbp), %rcx
	movl	$7, %edx
	movq	%r14, %rdi
	movq	%rbx, %r8
	callq	__ZN4core3fmt8builders11DebugStruct5field17h6c54d35ac41bb1e6E
	movq	%r12, -48(%rbp)
	leaq	l___unnamed_218(%rip), %rsi
	leaq	-48(%rbp), %rcx
	movl	$7, %edx
	movq	%r14, %rdi
	movq	%rbx, %r8
	callq	__ZN4core3fmt8builders11DebugStruct5field17h6c54d35ac41bb1e6E
	movq	-56(%rbp), %rax
	movq	%rax, -48(%rbp)
	leaq	l___unnamed_219(%rip), %rsi
	leaq	-48(%rbp), %rcx
	movl	$6, %edx
	movq	%r14, %rdi
	movq	%rbx, %r8
	callq	__ZN4core3fmt8builders11DebugStruct5field17h6c54d35ac41bb1e6E
	movq	-64(%rbp), %rax
	movq	%rax, -48(%rbp)
	leaq	l___unnamed_220(%rip), %rsi
	leaq	-48(%rbp), %rcx
	movl	$7, %edx
	movq	%r14, %rdi
	movq	%rbx, %r8
	callq	__ZN4core3fmt8builders11DebugStruct5field17h6c54d35ac41bb1e6E
	movq	-72(%rbp), %rax
	movq	%rax, -48(%rbp)
	leaq	l___unnamed_221(%rip), %rsi
	leaq	-48(%rbp), %rcx
	movl	$7, %edx
	movq	%r14, %rdi
	movq	%rbx, %r8
	callq	__ZN4core3fmt8builders11DebugStruct5field17h6c54d35ac41bb1e6E
	movq	-80(%rbp), %rax
	movq	%rax, -48(%rbp)
	leaq	l___unnamed_222(%rip), %rsi
	leaq	-48(%rbp), %rcx
	movl	$7, %edx
	movq	%r14, %rdi
	movq	%rbx, %r8
	callq	__ZN4core3fmt8builders11DebugStruct5field17h6c54d35ac41bb1e6E
	movq	-88(%rbp), %rax
	movq	%rax, -48(%rbp)
	leaq	L___unnamed_223(%rip), %rsi
	leaq	-48(%rbp), %rcx
	movl	$8, %edx
	movq	%r14, %rdi
	movq	%rbx, %r8
	callq	__ZN4core3fmt8builders11DebugStruct5field17h6c54d35ac41bb1e6E
	movq	-96(%rbp), %rax
	movq	%rax, -48(%rbp)
	leaq	l___unnamed_224(%rip), %rsi
	leaq	-48(%rbp), %rcx
	movl	$9, %edx
	movq	%r14, %rdi
	movq	%rbx, %r8
	callq	__ZN4core3fmt8builders11DebugStruct5field17h6c54d35ac41bb1e6E
	movq	-104(%rbp), %rax
	movq	%rax, -48(%rbp)
	leaq	l___unnamed_225(%rip), %rsi
	leaq	-48(%rbp), %rcx
	movl	$7, %edx
	movq	%r14, %rdi
	movq	%rbx, %r8
	callq	__ZN4core3fmt8builders11DebugStruct5field17h6c54d35ac41bb1e6E
	movq	%r14, %rdi
	callq	__ZN4core3fmt8builders11DebugStruct6finish17h67ed49fd5e81bb24E
	addq	$88, %rsp
	popq	%rbx
	popq	%r12
	popq	%r13
	popq	%r14
	popq	%r15
	popq	%rbp
	retq
	.cfi_endproc

	.globl	__ZN53_$LT$time..ParseError$u20$as$u20$core..fmt..Debug$GT$3fmt17h162297d46c31299fE
	.p2align	4, 0x90
__ZN53_$LT$time..ParseError$u20$as$u20$core..fmt..Debug$GT$3fmt17h162297d46c31299fE:
	.cfi_startproc
	pushq	%rbp
	.cfi_def_cfa_offset 16
	.cfi_offset %rbp, -16
	movq	%rsp, %rbp
	.cfi_def_cfa_register %rbp
	pushq	%r15
	pushq	%r14
	pushq	%rbx
	subq	$40, %rsp
	.cfi_offset %rbx, -40
	.cfi_offset %r14, -32
	.cfi_offset %r15, -24
	movq	%rdi, %rbx
	movl	(%rdi), %eax
	leaq	LJTI89_0(%rip), %rcx
	movslq	(%rcx,%rax,4), %rax
	addq	%rcx, %rax
	jmpq	*%rax
LBB89_2:
	leaq	l___unnamed_226(%rip), %rdx
	jmp	LBB89_3
LBB89_5:
	leaq	l___unnamed_227(%rip), %rdx
LBB89_3:
	leaq	-56(%rbp), %rbx
	movl	$13, %ecx
	jmp	LBB89_4
LBB89_6:
	leaq	l___unnamed_228(%rip), %rdx
	jmp	LBB89_7
LBB89_8:
	leaq	l___unnamed_229(%rip), %rdx
	leaq	-56(%rbp), %rbx
	movl	$10, %ecx
	jmp	LBB89_4
LBB89_9:
	leaq	l___unnamed_230(%rip), %rdx
	leaq	-56(%rbp), %rbx
	movl	$12, %ecx
	jmp	LBB89_4
LBB89_10:
	leaq	l___unnamed_231(%rip), %rdx
	jmp	LBB89_7
LBB89_11:
	leaq	L___unnamed_232(%rip), %rdx
	jmp	LBB89_12
LBB89_13:
	leaq	l___unnamed_233(%rip), %rdx
	jmp	LBB89_14
LBB89_15:
	leaq	L___unnamed_234(%rip), %rdx
LBB89_12:
	leaq	-56(%rbp), %rbx
	movl	$16, %ecx
	jmp	LBB89_4
LBB89_16:
	leaq	l___unnamed_235(%rip), %rdx
LBB89_14:
	leaq	-56(%rbp), %rbx
	movl	$17, %ecx
	jmp	LBB89_4
LBB89_17:
	leaq	l___unnamed_236(%rip), %rdx
LBB89_7:
	leaq	-56(%rbp), %rbx
	movl	$11, %ecx
	jmp	LBB89_4
LBB89_18:
	leaq	l___unnamed_237(%rip), %rdx
	leaq	-56(%rbp), %rbx
	movl	$24, %ecx
	jmp	LBB89_4
LBB89_19:
	leaq	l___unnamed_238(%rip), %rdx
	leaq	-56(%rbp), %rbx
	movl	$22, %ecx
LBB89_4:
	movq	%rbx, %rdi
	callq	__ZN4core3fmt9Formatter11debug_tuple17h6c448643801d07e8E
	movq	%rbx, %rdi
LBB89_22:
	callq	__ZN4core3fmt8builders10DebugTuple6finish17h9f206806f7096c33E
	addq	$40, %rsp
	popq	%rbx
	popq	%r14
	popq	%r15
	popq	%rbp
	retq
LBB89_20:
	addq	$4, %rbx
	leaq	l___unnamed_239(%rip), %rdx
	leaq	-56(%rbp), %r14
	movl	$22, %ecx
	movq	%r14, %rdi
	callq	__ZN4core3fmt9Formatter11debug_tuple17h6c448643801d07e8E
	movq	%rbx, -32(%rbp)
	leaq	l___unnamed_240(%rip), %rdx
	leaq	-32(%rbp), %rsi
	movq	%r14, %rdi
	jmp	LBB89_21
LBB89_1:
	leaq	4(%rbx), %r15
	addq	$8, %rbx
	leaq	l___unnamed_241(%rip), %rdx
	leaq	-56(%rbp), %r14
	movl	$19, %ecx
	movq	%r14, %rdi
	callq	__ZN4core3fmt9Formatter11debug_tuple17h6c448643801d07e8E
	movq	%r15, -32(%rbp)
	leaq	l___unnamed_240(%rip), %r15
	leaq	-32(%rbp), %rsi
	movq	%r14, %rdi
	movq	%r15, %rdx
	callq	__ZN4core3fmt8builders10DebugTuple5field17hc7b676d0e36b51d9E
	movq	%rbx, -32(%rbp)
	leaq	-32(%rbp), %rsi
	movq	%r14, %rdi
	movq	%r15, %rdx
LBB89_21:
	callq	__ZN4core3fmt8builders10DebugTuple5field17hc7b676d0e36b51d9E
	movq	%r14, %rdi
	jmp	LBB89_22
	.cfi_endproc
	.p2align	2, 0x90
	.data_region jt32
.set L89_0_set_2, LBB89_2-LJTI89_0
.set L89_0_set_5, LBB89_5-LJTI89_0
.set L89_0_set_6, LBB89_6-LJTI89_0
.set L89_0_set_8, LBB89_8-LJTI89_0
.set L89_0_set_9, LBB89_9-LJTI89_0
.set L89_0_set_10, LBB89_10-LJTI89_0
.set L89_0_set_11, LBB89_11-LJTI89_0
.set L89_0_set_13, LBB89_13-LJTI89_0
.set L89_0_set_15, LBB89_15-LJTI89_0
.set L89_0_set_16, LBB89_16-LJTI89_0
.set L89_0_set_17, LBB89_17-LJTI89_0
.set L89_0_set_18, LBB89_18-LJTI89_0
.set L89_0_set_19, LBB89_19-LJTI89_0
.set L89_0_set_20, LBB89_20-LJTI89_0
.set L89_0_set_1, LBB89_1-LJTI89_0
LJTI89_0:
	.long	L89_0_set_2
	.long	L89_0_set_5
	.long	L89_0_set_6
	.long	L89_0_set_8
	.long	L89_0_set_9
	.long	L89_0_set_10
	.long	L89_0_set_11
	.long	L89_0_set_13
	.long	L89_0_set_15
	.long	L89_0_set_16
	.long	L89_0_set_17
	.long	L89_0_set_18
	.long	L89_0_set_19
	.long	L89_0_set_20
	.long	L89_0_set_1
	.end_data_region

	.globl	__ZN48_$LT$time..TmFmt$u20$as$u20$core..fmt..Debug$GT$3fmt17hafa9ea89ce9692cbE
	.p2align	4, 0x90
__ZN48_$LT$time..TmFmt$u20$as$u20$core..fmt..Debug$GT$3fmt17hafa9ea89ce9692cbE:
	.cfi_startproc
	pushq	%rbp
	.cfi_def_cfa_offset 16
	.cfi_offset %rbp, -16
	movq	%rsp, %rbp
	.cfi_def_cfa_register %rbp
	pushq	%r14
	pushq	%rbx
	subq	$32, %rsp
	.cfi_offset %rbx, -32
	.cfi_offset %r14, -24
	movq	%rdi, %rbx
	leaq	l___unnamed_242(%rip), %rdx
	leaq	-40(%rbp), %r14
	movl	$5, %ecx
	movq	%r14, %rdi
	callq	__ZN4core3fmt9Formatter12debug_struct17ha1a64e91d2a98458E
	movq	%rbx, -24(%rbp)
	addq	$8, %rbx
	leaq	l___unnamed_243(%rip), %rsi
	leaq	l___unnamed_244(%rip), %r8
	leaq	-24(%rbp), %rcx
	movl	$2, %edx
	movq	%r14, %rdi
	callq	__ZN4core3fmt8builders11DebugStruct5field17h6c54d35ac41bb1e6E
	movq	%rbx, -24(%rbp)
	leaq	l___unnamed_245(%rip), %rsi
	leaq	l___unnamed_246(%rip), %r8
	leaq	-24(%rbp), %rcx
	movl	$6, %edx
	movq	%r14, %rdi
	callq	__ZN4core3fmt8builders11DebugStruct5field17h6c54d35ac41bb1e6E
	movq	%r14, %rdi
	callq	__ZN4core3fmt8builders11DebugStruct6finish17h67ed49fd5e81bb24E
	addq	$32, %rsp
	popq	%rbx
	popq	%r14
	popq	%rbp
	retq
	.cfi_endproc

	.globl	__ZN46_$LT$time..Fmt$u20$as$u20$core..fmt..Debug$GT$3fmt17h320a81f6cb9d9d65E
	.p2align	4, 0x90
__ZN46_$LT$time..Fmt$u20$as$u20$core..fmt..Debug$GT$3fmt17h320a81f6cb9d9d65E:
	.cfi_startproc
	pushq	%rbp
	.cfi_def_cfa_offset 16
	.cfi_offset %rbp, -16
	movq	%rsp, %rbp
	.cfi_def_cfa_register %rbp
	pushq	%r14
	pushq	%rbx
	subq	$32, %rsp
	.cfi_offset %rbx, -32
	.cfi_offset %r14, -24
	movq	(%rdi), %rax
	testq	%rax, %rax
	je	LBB91_3
	cmpl	$1, %eax
	je	LBB91_4
	leaq	l___unnamed_247(%rip), %rdx
	leaq	-48(%rbp), %rbx
	movl	$5, %ecx
	jmp	LBB91_5
LBB91_3:
	movq	%rdi, %rbx
	addq	$8, %rbx
	leaq	l___unnamed_248(%rip), %rdx
	leaq	-48(%rbp), %r14
	movl	$3, %ecx
	movq	%r14, %rdi
	callq	__ZN4core3fmt9Formatter11debug_tuple17h6c448643801d07e8E
	movq	%rbx, -24(%rbp)
	leaq	l___unnamed_249(%rip), %rdx
	leaq	-24(%rbp), %rsi
	movq	%r14, %rdi
	callq	__ZN4core3fmt8builders10DebugTuple5field17hc7b676d0e36b51d9E
	movq	%r14, %rdi
	jmp	LBB91_6
LBB91_4:
	leaq	l___unnamed_250(%rip), %rdx
	leaq	-48(%rbp), %rbx
	movl	$7, %ecx
LBB91_5:
	movq	%rbx, %rdi
	callq	__ZN4core3fmt9Formatter11debug_tuple17h6c448643801d07e8E
	movq	%rbx, %rdi
LBB91_6:
	callq	__ZN4core3fmt8builders10DebugTuple6finish17h9f206806f7096c33E
	addq	$32, %rsp
	popq	%rbx
	popq	%r14
	popq	%rbp
	retq
	.cfi_endproc

	.section	__DATA,__const
	.p2align	3
l___unnamed_156:
	.quad	__ZN4core3ptr13drop_in_place17h11e563b9802eaa02E
	.quad	8
	.quad	8
	.quad	__ZN3std4sync4once4Once9call_once28_$u7b$$u7b$closure$u7d$$u7d$17h02493ae91ab3b28eE
	.quad	__ZN4core3ops8function6FnOnce40call_once$u7b$$u7b$vtable.shim$u7d$$u7d$17h4e8ed17bd079ec13E

	.section	__TEXT,__const
l___unnamed_251:
	.ascii	"/rustc/6c8927b0cf80ceee19386026cf9d7fd4fd9d486f/src/libstd/sync/once.rs"

	.section	__DATA,__const
	.p2align	3
l___unnamed_2:
	.quad	l___unnamed_251
	.asciz	"G\000\000\000\000\000\000\000\t\001\000\0002\000\000"

	.p2align	3
l___unnamed_3:
	.quad	__ZN4core3ptr13drop_in_place17h11e563b9802eaa02E
	.quad	16
	.quad	8
	.quad	__ZN91_$LT$std..panicking..begin_panic..PanicPayload$LT$A$GT$$u20$as$u20$core..panic..BoxMeUp$GT$8take_box17h413b71b3be8d7923E
	.quad	__ZN91_$LT$std..panicking..begin_panic..PanicPayload$LT$A$GT$$u20$as$u20$core..panic..BoxMeUp$GT$3get17hd28067e46cdb452fE

	.section	__TEXT,__const
l___unnamed_7:
	.ascii	"()"

	.p2align	3
l___unnamed_54:
	.byte	0

	.section	__DATA,__const
	.p2align	3
l___unnamed_23:
	.quad	l___unnamed_54
	.space	8

	.section	__TEXT,__const
l___unnamed_198:
	.ascii	"a Display implementation returned an error unexpectedly"

l___unnamed_252:
	.ascii	"/rustc/6c8927b0cf80ceee19386026cf9d7fd4fd9d486f/src/liballoc/string.rs"

	.section	__DATA,__const
	.p2align	3
l___unnamed_200:
	.quad	l___unnamed_252
	.asciz	"F\000\000\000\000\000\000\000\234\b\000\000\016\000\000"

	.p2align	3
l___unnamed_9:
	.quad	__ZN4core3ptr13drop_in_place17h11e563b9802eaa02E
	.quad	8
	.quad	8
	.quad	__ZN50_$LT$$RF$mut$u20$W$u20$as$u20$core..fmt..Write$GT$9write_str17hfb0c46734ce00d6bE
	.quad	__ZN50_$LT$$RF$mut$u20$W$u20$as$u20$core..fmt..Write$GT$10write_char17hddf5b564aed85062E
	.quad	__ZN50_$LT$$RF$mut$u20$W$u20$as$u20$core..fmt..Write$GT$9write_fmt17he6fe74957d68f80aE

	.section	__TEXT,__const
l___unnamed_253:
	.ascii	"/rustc/6c8927b0cf80ceee19386026cf9d7fd4fd9d486f/src/libcore/str/mod.rs"

	.section	__DATA,__const
	.p2align	3
l___unnamed_8:
	.quad	l___unnamed_253
	.asciz	"F\000\000\000\000\000\000\000\027\b\000\000/\000\000"

	.section	__TEXT,__const
l___unnamed_254:
	.ascii	"/rustc/6c8927b0cf80ceee19386026cf9d7fd4fd9d486f/src/libcore/str/pattern.rs"

	.section	__DATA,__const
	.p2align	3
l___unnamed_149:
	.quad	l___unnamed_254
	.asciz	"J\000\000\000\000\000\000\0004\005\000\000!\000\000"

	.p2align	3
l___unnamed_152:
	.quad	l___unnamed_254
	.asciz	"J\000\000\000\000\000\000\000@\005\000\000\024\000\000"

	.p2align	3
l___unnamed_153:
	.quad	l___unnamed_254
	.asciz	"J\000\000\000\000\000\000\000@\005\000\000!\000\000"

	.section	__TEXT,__const
l___unnamed_255:
	.ascii	"/rustc/6c8927b0cf80ceee19386026cf9d7fd4fd9d486f/src/libcore/macros/mod.rs"

	.section	__DATA,__const
	.p2align	3
l___unnamed_202:
	.quad	l___unnamed_255
	.asciz	"I\000\000\000\000\000\000\000\n\000\000\000\t\000\000"

	.section	__TEXT,__const
l___unnamed_1:
	.ascii	"called `Option::unwrap()` on a `None` value"

	.section	__DATA,__const
	.p2align	3
l___unnamed_199:
	.quad	__ZN4core3ptr13drop_in_place17h11e563b9802eaa02E
	.quad	0
	.quad	1
	.quad	__ZN53_$LT$core..fmt..Error$u20$as$u20$core..fmt..Debug$GT$3fmt17h7e64597012eb1e0aE

	.section	__TEXT,__const
	.p2align	4
_str.0:
	.ascii	"attempt to divide by zero"

l___unnamed_201:
	.ascii	"Tried to shrink to a larger capacity"

	.section	__DATA,__const
	.p2align	3
l___unnamed_10:
	.quad	__ZN4core3ptr13drop_in_place17h11e563b9802eaa02E
	.quad	16
	.quad	8
	.quad	__ZN36_$LT$T$u20$as$u20$core..any..Any$GT$7type_id17h769548846645c2e1E

	.section	__TEXT,__const
l___unnamed_16:
	.ascii	"%Y-%m-%dT%H:%M:%SZ"

l___unnamed_11:
	.ascii	"%Y-%m-%dT%H:%M:%S"

l___unnamed_256:
	.ascii	"/Users/yingyuhang/.cargo/registry/src/github.com-1ecc6299db9ec823/time-0.1.43/src/display.rs"

	.p2align	4
_str.1:
	.ascii	"attempt to divide with overflow"

	.p2align	4
_str.2:
	.ascii	"attempt to multiply with overflow"

	.p2align	4
_str.3:
	.ascii	"attempt to subtract with overflow"

l___unnamed_30:
	.byte	58

	.section	__DATA,__const
	.p2align	3
l___unnamed_12:
	.quad	l___unnamed_54
	.space	8
	.quad	l___unnamed_54
	.space	8
	.quad	l___unnamed_54
	.space	8
	.quad	l___unnamed_30
	.asciz	"\001\000\000\000\000\000\000"

	.section	__TEXT,__const
	.p2align	3
l___unnamed_13:
	.asciz	"\000\000\000\000\000\000\000\000\002\000\000\000\000\000\000\000\000\000\000\000\000\000\000\000\002\000\000\000\000\000\000\000\000\000\000\000\000\000\000\000 \000\000\000\000\000\000\000\003\000\000\000\000\000\000\000\001\000\000\000\000\000\000\000\002\000\000\000\000\000\000\000\000\000\000\000\000\000\000\000\002\000\000\000\000\000\000\000\000\000\000\000\000\000\000\000 \000\000\000\000\000\000\000\003\000\000\000\000\000\000\000\002\000\000\000\000\000\000\000\002\000\000\000\000\000\000\000\000\000\000\000\000\000\000\000\000\000\000\000\000\000\000\000\002\000\000\000\000\000\000\000 \000\000\000\b\000\000\000\003\000\000\000\000\000\000\000\003\000\000\000\000\000\000\000\002\000\000\000\000\000\000\000\000\000\000\000\000\000\000\000\000\000\000\000\000\000\000\000\002\000\000\000\000\000\000\000 \000\000\000\b\000\000\000\003\000\000\000\000\000\000"

	.section	__DATA,__const
	.p2align	3
l___unnamed_15:
	.quad	l___unnamed_256
	.asciz	"\\\000\000\000\000\000\000\000\016\000\000\0006\000\000"

	.p2align	3
l___unnamed_20:
	.quad	l___unnamed_256
	.asciz	"\\\000\000\000\000\000\000\000C\000\000\000\r\000\000"

	.section	__TEXT,__const
	.p2align	4
_str.5:
	.ascii	"attempt to add with overflow"

	.section	__DATA,__const
	.p2align	3
l___unnamed_21:
	.quad	l___unnamed_256
	.asciz	"\\\000\000\000\000\000\000\000C\000\000\000\f\000\000"

	.p2align	3
l___unnamed_22:
	.quad	l___unnamed_256
	.asciz	"\\\000\000\000\000\000\000\000C\000\000\000\005\000\000"

	.p2align	3
l___unnamed_25:
	.quad	l___unnamed_256
	.asciz	"\\\000\000\000\000\000\000\000H\000\000\000\024\000\000"

	.p2align	3
l___unnamed_28:
	.quad	l___unnamed_256
	.asciz	"\\\000\000\000\000\000\000\000N\000\000\000\036\000\000"

	.p2align	3
l___unnamed_26:
	.quad	l___unnamed_256
	.asciz	"\\\000\000\000\000\000\000\000P\000\000\000\037\000\000"

	.p2align	3
l___unnamed_27:
	.quad	l___unnamed_256
	.asciz	"\\\000\000\000\000\000\000\000T\000\000\000\r\000\000"

	.section	__TEXT,__const
	.p2align	3
l___unnamed_24:
	.asciz	"\000\000\000\000\000\000\000\000\002\000\000\000\000\000\000\000\000\000\000\000\000\000\000\000\000\000\000\000\000\000\000\000\002\000\000\000\000\000\000\000 \000\000\000\b\000\000\000\003\000\000\000\000\000\000"

l___unnamed_85:
	.ascii	"internal error: entered unreachable code"

	.section	__DATA,__const
	.p2align	3
l___unnamed_86:
	.quad	l___unnamed_256
	.asciz	"\\\000\000\000\000\000\000\000\376\000\000\000\020\000\000"

	.section	__TEXT,__const
l___unnamed_46:
	.byte	37

	.section	__DATA,__const
	.p2align	3
l___unnamed_33:
	.quad	l___unnamed_54
	.space	8
	.quad	l___unnamed_54
	.space	8
	.quad	l___unnamed_54
	.space	8

	.section	__TEXT,__const
	.p2align	3
l___unnamed_34:
	.asciz	"\000\000\000\000\000\000\000\000\002\000\000\000\000\000\000\000\000\000\000\000\000\000\000\000\002\000\000\000\000\000\000\000\000\000\000\000\000\000\000\000 \000\000\000\000\000\000\000\003\000\000\000\000\000\000\000\001\000\000\000\000\000\000\000\002\000\000\000\000\000\000\000\000\000\000\000\000\000\000\000\000\000\000\000\000\000\000\000\002\000\000\000\000\000\000\000 \000\000\000\b\000\000\000\003\000\000\000\000\000\000\000\002\000\000\000\000\000\000\000\002\000\000\000\000\000\000\000\000\000\000\000\000\000\000\000\000\000\000\000\000\000\000\000\002\000\000\000\000\000\000\000 \000\000\000\b\000\000\000\003\000\000\000\000\000\000"

l___unnamed_53:
	.ascii	"UTC"

	.section	__DATA,__const
	.p2align	3
l___unnamed_100:
	.quad	l___unnamed_256
	.asciz	"\\\000\000\000\000\000\000\000\362\000\000\000%\000\000"

	.p2align	3
l___unnamed_99:
	.quad	l___unnamed_256
	.asciz	"\\\000\000\000\000\000\000\000\361\000\000\000\"\000\000"

	.p2align	3
l___unnamed_90:
	.quad	l___unnamed_256
	.asciz	"\\\000\000\000\000\000\000\000\356\000\000\0001\000\000"

	.p2align	3
l___unnamed_91:
	.quad	l___unnamed_256
	.asciz	"\\\000\000\000\000\000\000\000\356\000\000\0000\000\000"

	.p2align	3
l___unnamed_92:
	.quad	l___unnamed_256
	.asciz	"\\\000\000\000\000\000\000\000\356\000\000\000#\000\000"

	.p2align	3
l___unnamed_93:
	.quad	l___unnamed_256
	.asciz	"\\\000\000\000\000\000\000\000\356\000\000\000\"\000\000"

	.section	__TEXT,__const
l___unnamed_43:
	.byte	45

	.section	__DATA,__const
	.p2align	3
l___unnamed_89:
	.quad	l___unnamed_256
	.asciz	"\\\000\000\000\000\000\000\000\340\000\000\000&\000\000"

	.p2align	3
l___unnamed_41:
	.quad	l___unnamed_256
	.asciz	"\\\000\000\000\000\000\000\000\340\000\000\000%\000\000"

	.section	__TEXT,__const
l___unnamed_55:
	.byte	9

l___unnamed_40:
	.byte	32

l___unnamed_38:
	.ascii	"AM"

l___unnamed_39:
	.ascii	"PM"

l___unnamed_49:
	.ascii	"am"

l___unnamed_50:
	.ascii	"pm"

l___unnamed_42:
	.byte	10

	.section	__DATA,__const
	.p2align	3
l___unnamed_94:
	.quad	l___unnamed_256
	.asciz	"\\\000\000\000\000\000\000\000\304\000\000\000%\000\000"

	.section	__TEXT,__const
	.p2align	3
l___unnamed_52:
	.asciz	"\000\000\000\000\000\000\000\000\002\000\000\000\000\000\000\000\000\000\000\000\000\000\000\000\000\000\000\000\000\000\000\000\002\000\000\000\000\000\000\000 \000\000\000\000\000\000\000\003\000\000\000\000\000\000"

	.section	__DATA,__const
	.p2align	3
l___unnamed_98:
	.quad	l___unnamed_256
	.asciz	"\\\000\000\000\000\000\000\000\273\000\000\000%\000\000"

	.section	__TEXT,__const
	.p2align	3
l___unnamed_51:
	.asciz	"\000\000\000\000\000\000\000\000\002\000\000\000\000\000\000\000\000\000\000\000\000\000\000\000\000\000\000\000\000\000\000\000\003\000\000\000\000\000\000\000 \000\000\000\b\000\000\000\003\000\000\000\000\000\000"

	.p2align	3
l___unnamed_35:
	.asciz	"\000\000\000\000\000\000\000\000\002\000\000\000\000\000\000\000\000\000\000\000\000\000\000\000\000\000\000\000\000\000\000\000\t\000\000\000\000\000\000\000 \000\000\000\b\000\000\000\003\000\000\000\000\000\000"

l___unnamed_29:
	.byte	47

	.section	__DATA,__const
	.p2align	3
l___unnamed_96:
	.quad	l___unnamed_256
	.asciz	"\\\000\000\000\000\000\000\000\225\000\000\000%\000\000"

	.p2align	3
l___unnamed_87:
	.quad	l___unnamed_256
	.asciz	"\\\000\000\000\000\000\000\000\223\000\000\000\023\000\000"

	.section	__TEXT,__const
l___unnamed_57:
	.ascii	"Dec"

l___unnamed_65:
	.ascii	"Nov"

l___unnamed_58:
	.ascii	"Oct"

l___unnamed_64:
	.ascii	"Sep"

l___unnamed_61:
	.ascii	"Aug"

l___unnamed_63:
	.ascii	"Jul"

l___unnamed_62:
	.ascii	"Jun"

l___unnamed_56:
	.ascii	"May"

l___unnamed_60:
	.ascii	"Apr"

l___unnamed_59:
	.ascii	"Mar"

l___unnamed_32:
	.ascii	"Feb"

l___unnamed_31:
	.ascii	"Jan"

	.section	__DATA,__const
	.p2align	3
l___unnamed_97:
	.quad	l___unnamed_256
	.asciz	"\\\000\000\000\000\000\000\000\204\000\000\000\022\000\000"

	.section	__TEXT,__literal8,8byte_literals
L___unnamed_76:
	.ascii	"December"

L___unnamed_84:
	.ascii	"November"

	.section	__TEXT,__const
l___unnamed_77:
	.ascii	"October"

l___unnamed_83:
	.ascii	"September"

l___unnamed_80:
	.ascii	"August"

	.section	__TEXT,__literal4,4byte_literals
L___unnamed_82:
	.ascii	"July"

L___unnamed_81:
	.ascii	"June"

	.section	__TEXT,__const
l___unnamed_79:
	.ascii	"April"

l___unnamed_78:
	.ascii	"March"

	.section	__TEXT,__literal8,8byte_literals
L___unnamed_48:
	.ascii	"February"

	.section	__TEXT,__const
l___unnamed_47:
	.ascii	"January"

	.section	__DATA,__const
	.p2align	3
l___unnamed_88:
	.quad	l___unnamed_256
	.asciz	"\\\000\000\000\000\000\000\000u\000\000\000\022\000\000"

	.section	__TEXT,__const
l___unnamed_70:
	.ascii	"Sat"

l___unnamed_69:
	.ascii	"Fri"

l___unnamed_66:
	.ascii	"Thu"

l___unnamed_68:
	.ascii	"Wed"

l___unnamed_67:
	.ascii	"Tue"

l___unnamed_37:
	.ascii	"Mon"

l___unnamed_36:
	.ascii	"Sun"

	.section	__DATA,__const
	.p2align	3
l___unnamed_95:
	.quad	l___unnamed_256
	.asciz	"\\\000\000\000\000\000\000\000k\000\000\000\022\000\000"

	.section	__TEXT,__literal8,8byte_literals
L___unnamed_75:
	.ascii	"Saturday"

	.section	__TEXT,__const
l___unnamed_74:
	.ascii	"Friday"

	.section	__TEXT,__literal8,8byte_literals
L___unnamed_71:
	.ascii	"Thursday"

	.section	__TEXT,__const
l___unnamed_73:
	.ascii	"Wednesday"

l___unnamed_72:
	.ascii	"Tuesday"

l___unnamed_45:
	.ascii	"Monday"

l___unnamed_44:
	.ascii	"Sunday"

	.section	__DATA,__const
	.p2align	3
l___unnamed_19:
	.quad	l___unnamed_256
	.asciz	"\\\000\000\000\000\000\000\000\003\001\000\000\017\000\000"

	.section	__TEXT,__const
	.p2align	4
_str.6:
	.ascii	"attempt to negate with overflow"

l___unnamed_162:
	.ascii	"Duration::seconds out of bounds"

l___unnamed_257:
	.ascii	"/Users/yingyuhang/.cargo/registry/src/github.com-1ecc6299db9ec823/time-0.1.43/src/duration.rs"

	.section	__DATA,__const
	.p2align	3
l___unnamed_163:
	.quad	l___unnamed_257
	.asciz	"]\000\000\000\000\000\000\000j\000\000\000\r\000\000"

	.p2align	3
l___unnamed_101:
	.quad	l___unnamed_257
	.asciz	"]\000\000\000\000\000\000\000\276\000\000\000\031\000\000"

	.p2align	3
l___unnamed_102:
	.quad	l___unnamed_257
	.asciz	"]\000\000\000\000\000\000\000\300\000\000\000\t\000\000"

	.p2align	3
l___unnamed_103:
	.quad	l___unnamed_257
	.asciz	"]\000\000\000\000\000\000\000\326\000\000\000\031\000\000"

	.p2align	3
l___unnamed_104:
	.quad	l___unnamed_257
	.asciz	"]\000\000\000\000\000\000\000\344\000\000\000\031\000\000"

	.p2align	3
l___unnamed_129:
	.quad	l___unnamed_257
	.asciz	"]\000\000\000\000\000\000\000.\001\000\000\036\000\000"

	.p2align	3
l___unnamed_127:
	.quad	l___unnamed_257
	.asciz	"]\000\000\000\000\000\000\0000\001\000\000\036\000\000"

	.p2align	3
l___unnamed_128:
	.quad	l___unnamed_257
	.asciz	"]\000\000\000\000\000\000\0000\001\000\0005\000\000"

	.p2align	3
l___unnamed_105:
	.quad	l___unnamed_257
	.asciz	"]\000\000\000\000\000\000\0009\001\000\000\030\000\000"

	.p2align	3
l___unnamed_106:
	.quad	l___unnamed_257
	.asciz	"]\000\000\000\000\000\000\000:\001\000\000\031\000\000"

	.p2align	3
l___unnamed_107:
	.quad	l___unnamed_257
	.asciz	"]\000\000\000\000\000\000\000=\001\000\000\r\000\000"

	.p2align	3
l___unnamed_108:
	.quad	l___unnamed_257
	.asciz	"]\000\000\000\000\000\000\000G\001\000\000\030\000\000"

	.p2align	3
l___unnamed_109:
	.quad	l___unnamed_257
	.asciz	"]\000\000\000\000\000\000\000H\001\000\000\031\000\000"

	.p2align	3
l___unnamed_110:
	.quad	l___unnamed_257
	.asciz	"]\000\000\000\000\000\000\000K\001\000\000\r\000\000"

	.p2align	3
l___unnamed_111:
	.quad	l___unnamed_257
	.asciz	"]\000\000\000\000\000\000\000X\001\000\000\024\000\000"

	.p2align	3
l___unnamed_112:
	.quad	l___unnamed_257
	.asciz	"]\000\000\000\000\000\000\000a\001\000\000\030\000\000"

	.p2align	3
l___unnamed_113:
	.quad	l___unnamed_257
	.asciz	"]\000\000\000\000\000\000\000b\001\000\000!\000\000"

	.p2align	3
l___unnamed_114:
	.quad	l___unnamed_257
	.asciz	"]\000\000\000\000\000\000\000b\001\000\000\025\000\000"

	.p2align	3
l___unnamed_115:
	.quad	l___unnamed_257
	.asciz	"]\000\000\000\000\000\000\000c\001\000\000\033\000\000"

	.p2align	3
l___unnamed_116:
	.quad	l___unnamed_257
	.asciz	"]\000\000\000\000\000\000\000d\001\000\000\031\000\000"

	.p2align	3
l___unnamed_117:
	.quad	l___unnamed_257
	.asciz	"]\000\000\000\000\000\000\000g\001\000\000\r\000\000"

	.p2align	3
l___unnamed_118:
	.quad	l___unnamed_257
	.asciz	"]\000\000\000\000\000\000\000k\001\000\000\r\000\000"

	.p2align	3
l___unnamed_126:
	.quad	l___unnamed_257
	.asciz	"]\000\000\000\000\000\000\000x\001\000\000\024\000\000"

	.section	__TEXT,__const
l___unnamed_258:
	.byte	80

	.section	__DATA,__const
	.p2align	3
l___unnamed_119:
	.quad	l___unnamed_54
	.space	8
	.quad	l___unnamed_258
	.asciz	"\001\000\000\000\000\000\000"

	.section	__TEXT,__const
l___unnamed_259:
	.byte	68

	.section	__DATA,__const
	.p2align	3
l___unnamed_120:
	.quad	l___unnamed_54
	.space	8
	.quad	l___unnamed_259
	.asciz	"\001\000\000\000\000\000\000"

	.section	__TEXT,__const
l___unnamed_260:
	.byte	84

l___unnamed_261:
	.byte	83

	.section	__DATA,__const
	.p2align	3
l___unnamed_123:
	.quad	l___unnamed_260
	.asciz	"\001\000\000\000\000\000\000"
	.quad	l___unnamed_261
	.asciz	"\001\000\000\000\000\000\000"

	.section	__TEXT,__const
l___unnamed_262:
	.byte	46

	.section	__DATA,__const
	.p2align	3
l___unnamed_121:
	.quad	l___unnamed_260
	.asciz	"\001\000\000\000\000\000\000"
	.quad	l___unnamed_262
	.asciz	"\001\000\000\000\000\000\000"
	.quad	l___unnamed_261
	.asciz	"\001\000\000\000\000\000\000"

	.section	__TEXT,__const
	.p2align	3
l___unnamed_124:
	.asciz	"\000\000\000\000\000\000\000\000\002\000\000\000\000\000\000\000\000\000\000\000\000\000\000\000\002\000\000\000\000\000\000\000\000\000\000\000\000\000\000\000 \000\000\000\000\000\000\000\003\000\000\000\000\000\000\000\001\000\000\000\000\000\000\000\002\000\000\000\000\000\000\000\000\000\000\000\000\000\000\000\000\000\000\000\000\000\000\000\003\000\000\000\000\000\000\000 \000\000\000\b\000\000\000\003\000\000\000\000\000\000"

	.p2align	3
l___unnamed_125:
	.asciz	"\000\000\000\000\000\000\000\000\002\000\000\000\000\000\000\000\000\000\000\000\000\000\000\000\002\000\000\000\000\000\000\000\000\000\000\000\000\000\000\000 \000\000\000\000\000\000\000\003\000\000\000\000\000\000\000\001\000\000\000\000\000\000\000\002\000\000\000\000\000\000\000\000\000\000\000\000\000\000\000\000\000\000\000\000\000\000\000\006\000\000\000\000\000\000\000 \000\000\000\b\000\000\000\003\000\000\000\000\000\000"

	.p2align	3
l___unnamed_122:
	.asciz	"\000\000\000\000\000\000\000\000\002\000\000\000\000\000\000\000\000\000\000\000\000\000\000\000\002\000\000\000\000\000\000\000\000\000\000\000\000\000\000\000 \000\000\000\000\000\000\000\003\000\000\000\000\000\000\000\001\000\000\000\000\000\000\000\002\000\000\000\000\000\000\000\000\000\000\000\000\000\000\000\000\000\000\000\000\000\000\000\t\000\000\000\000\000\000\000 \000\000\000\b\000\000\000\003\000\000\000\000\000\000"

l___unnamed_130:
	.ascii	"Source duration value is out of range for the target type"

l___unnamed_263:
	.ascii	"/Users/yingyuhang/.cargo/registry/src/github.com-1ecc6299db9ec823/time-0.1.43/src/parse.rs"

	.section	__DATA,__const
	.p2align	3
l___unnamed_145:
	.quad	l___unnamed_263
	.asciz	"Z\000\000\000\000\000\000\000\"\001\000\000(\000\000"

	.p2align	3
l___unnamed_146:
	.quad	l___unnamed_263
	.asciz	"Z\000\000\000\000\000\000\000\"\001\000\000:\000\000"

	.p2align	3
l___unnamed_147:
	.quad	l___unnamed_263
	.asciz	"Z\000\000\000\000\000\000\000\"\001\000\000'\000\000"

	.p2align	3
l___unnamed_148:
	.quad	l___unnamed_263
	.asciz	"Z\000\000\000\000\000\000\000\"\001\000\000 \000\000"

	.section	__TEXT,__const
l___unnamed_138:
	.ascii	"GMT"

	.section	__DATA,__const
	.p2align	3
l___unnamed_142:
	.quad	l___unnamed_263
	.asciz	"Z\000\000\000\000\000\000\000\355\000\000\000+\000\000"

	.p2align	3
l___unnamed_135:
	.quad	l___unnamed_38
	.asciz	"\002\000\000\000\000\000\000\000\000\000\000\000\000\000\000"
	.quad	l___unnamed_39
	.asciz	"\002\000\000\000\000\000\000\000\f\000\000\000\000\000\000"

	.p2align	3
l___unnamed_144:
	.quad	l___unnamed_263
	.asciz	"Z\000\000\000\000\000\000\000\256\000\000\000\032\000\000"

	.p2align	3
l___unnamed_132:
	.quad	l___unnamed_49
	.asciz	"\002\000\000\000\000\000\000\000\000\000\000\000\000\000\000"
	.quad	l___unnamed_50
	.asciz	"\002\000\000\000\000\000\000\000\f\000\000\000\000\000\000"

	.p2align	3
l___unnamed_133:
	.quad	l___unnamed_263
	.asciz	"Z\000\000\000\000\000\000\000\252\000\000\000\032\000\000"

	.p2align	3
l___unnamed_143:
	.quad	l___unnamed_263
	.asciz	"Z\000\000\000\000\000\000\000V\000\000\000\032\000\000"

	.p2align	3
l___unnamed_131:
	.quad	l___unnamed_31
	.asciz	"\003\000\000\000\000\000\000\000\000\000\000\000\000\000\000"
	.quad	l___unnamed_32
	.asciz	"\003\000\000\000\000\000\000\000\001\000\000\000\000\000\000"
	.quad	l___unnamed_59
	.asciz	"\003\000\000\000\000\000\000\000\002\000\000\000\000\000\000"
	.quad	l___unnamed_60
	.asciz	"\003\000\000\000\000\000\000\000\003\000\000\000\000\000\000"
	.quad	l___unnamed_56
	.asciz	"\003\000\000\000\000\000\000\000\004\000\000\000\000\000\000"
	.quad	l___unnamed_62
	.asciz	"\003\000\000\000\000\000\000\000\005\000\000\000\000\000\000"
	.quad	l___unnamed_63
	.asciz	"\003\000\000\000\000\000\000\000\006\000\000\000\000\000\000"
	.quad	l___unnamed_61
	.asciz	"\003\000\000\000\000\000\000\000\007\000\000\000\000\000\000"
	.quad	l___unnamed_64
	.asciz	"\003\000\000\000\000\000\000\000\b\000\000\000\000\000\000"
	.quad	l___unnamed_58
	.asciz	"\003\000\000\000\000\000\000\000\t\000\000\000\000\000\000"
	.quad	l___unnamed_65
	.asciz	"\003\000\000\000\000\000\000\000\n\000\000\000\000\000\000"
	.quad	l___unnamed_57
	.asciz	"\003\000\000\000\000\000\000\000\013\000\000\000\000\000\000"

	.p2align	3
l___unnamed_136:
	.quad	l___unnamed_47
	.asciz	"\007\000\000\000\000\000\000\000\000\000\000\000\000\000\000"
	.quad	L___unnamed_48
	.asciz	"\b\000\000\000\000\000\000\000\001\000\000\000\000\000\000"
	.quad	l___unnamed_78
	.asciz	"\005\000\000\000\000\000\000\000\002\000\000\000\000\000\000"
	.quad	l___unnamed_79
	.asciz	"\005\000\000\000\000\000\000\000\003\000\000\000\000\000\000"
	.quad	l___unnamed_56
	.asciz	"\003\000\000\000\000\000\000\000\004\000\000\000\000\000\000"
	.quad	L___unnamed_81
	.asciz	"\004\000\000\000\000\000\000\000\005\000\000\000\000\000\000"
	.quad	L___unnamed_82
	.asciz	"\004\000\000\000\000\000\000\000\006\000\000\000\000\000\000"
	.quad	l___unnamed_80
	.asciz	"\006\000\000\000\000\000\000\000\007\000\000\000\000\000\000"
	.quad	l___unnamed_83
	.asciz	"\t\000\000\000\000\000\000\000\b\000\000\000\000\000\000"
	.quad	l___unnamed_77
	.asciz	"\007\000\000\000\000\000\000\000\t\000\000\000\000\000\000"
	.quad	L___unnamed_84
	.asciz	"\b\000\000\000\000\000\000\000\n\000\000\000\000\000\000"
	.quad	L___unnamed_76
	.asciz	"\b\000\000\000\000\000\000\000\013\000\000\000\000\000\000"

	.p2align	3
l___unnamed_137:
	.quad	l___unnamed_36
	.asciz	"\003\000\000\000\000\000\000\000\000\000\000\000\000\000\000"
	.quad	l___unnamed_37
	.asciz	"\003\000\000\000\000\000\000\000\001\000\000\000\000\000\000"
	.quad	l___unnamed_67
	.asciz	"\003\000\000\000\000\000\000\000\002\000\000\000\000\000\000"
	.quad	l___unnamed_68
	.asciz	"\003\000\000\000\000\000\000\000\003\000\000\000\000\000\000"
	.quad	l___unnamed_66
	.asciz	"\003\000\000\000\000\000\000\000\004\000\000\000\000\000\000"
	.quad	l___unnamed_69
	.asciz	"\003\000\000\000\000\000\000\000\005\000\000\000\000\000\000"
	.quad	l___unnamed_70
	.asciz	"\003\000\000\000\000\000\000\000\006\000\000\000\000\000\000"

	.p2align	3
l___unnamed_134:
	.quad	l___unnamed_44
	.asciz	"\006\000\000\000\000\000\000\000\000\000\000\000\000\000\000"
	.quad	l___unnamed_45
	.asciz	"\006\000\000\000\000\000\000\000\001\000\000\000\000\000\000"
	.quad	l___unnamed_72
	.asciz	"\007\000\000\000\000\000\000\000\002\000\000\000\000\000\000"
	.quad	l___unnamed_73
	.asciz	"\t\000\000\000\000\000\000\000\003\000\000\000\000\000\000"
	.quad	L___unnamed_71
	.asciz	"\b\000\000\000\000\000\000\000\004\000\000\000\000\000\000"
	.quad	l___unnamed_74
	.asciz	"\006\000\000\000\000\000\000\000\005\000\000\000\000\000\000"
	.quad	L___unnamed_75
	.asciz	"\b\000\000\000\000\000\000\000\006\000\000\000\000\000\000"

	.p2align	3
l___unnamed_155:
	.quad	l___unnamed_263
	.asciz	"Z\000\000\000\000\000\000\000K\001\000\000\r\000\000"

	.p2align	3
l___unnamed_154:
	.quad	l___unnamed_263
	.asciz	"Z\000\000\000\000\000\000\000O\001\000\000\037\000\000"

	.p2align	3
l___unnamed_150:
	.quad	l___unnamed_263
	.asciz	"Z\000\000\000\000\000\000\000Q\001\000\000$\000\000"

	.p2align	3
l___unnamed_151:
	.quad	l___unnamed_263
	.asciz	"Z\000\000\000\000\000\000\000T\001\000\000\t\000\000"

	.p2align	3
l___unnamed_139:
	.quad	l___unnamed_263
	.asciz	"Z\000\000\000\000\000\000\000k\001\000\000\021\000\000"

	.section	__TEXT,__const
l___unnamed_264:
	.ascii	"gmtime_r failed: "

	.section	__DATA,__const
	.p2align	3
l___unnamed_140:
	.quad	l___unnamed_264
	.asciz	"\021\000\000\000\000\000\000"

	.section	__TEXT,__const
l___unnamed_265:
	.ascii	"/Users/yingyuhang/.cargo/registry/src/github.com-1ecc6299db9ec823/time-0.1.43/src/sys.rs"

	.section	__DATA,__const
	.p2align	3
l___unnamed_141:
	.quad	l___unnamed_265
	.asciz	"X\000\000\000\000\000\000\000\037\001\000\000\021\000\000"

	.section	__TEXT,__const
l___unnamed_266:
	.ascii	"localtime_r failed: "

	.section	__DATA,__const
	.p2align	3
l___unnamed_17:
	.quad	l___unnamed_266
	.asciz	"\024\000\000\000\000\000\000"

	.p2align	3
l___unnamed_18:
	.quad	l___unnamed_265
	.asciz	"X\000\000\000\000\000\000\000*\001\000\000\021\000\000"

.zerofill __DATA,__bss,__ZN4time3sys5inner3mac4info4INFO17h2bd72e07e1a27c4cE,8,2
.zerofill __DATA,__bss,__ZN4time3sys5inner3mac4info4ONCE17hc8bda220514c2a6dE,8,3
	.p2align	3
l___unnamed_175:
	.quad	l___unnamed_265
	.asciz	"X\000\000\000\000\000\000\000r\001\000\000 \000\000"

	.p2align	3
l___unnamed_176:
	.quad	l___unnamed_265
	.asciz	"X\000\000\000\000\000\000\000{\001\000\000\021\000\000"

	.p2align	3
l___unnamed_177:
	.quad	l___unnamed_265
	.asciz	"X\000\000\000\000\000\000\000\212\001\000\000'\000\000"

	.p2align	3
l___unnamed_157:
	.quad	l___unnamed_265
	.asciz	"X\000\000\000\000\000\000\000\226\001\000\0005\000\000"

	.p2align	3
l___unnamed_158:
	.quad	l___unnamed_265
	.asciz	"X\000\000\000\000\000\000\000\230\001\000\000\030\000\000"

	.section	__TEXT,__const
l___unnamed_159:
	.ascii	"assertion failed: nsec >= 0 && nsec < NSEC_PER_SEC"

l___unnamed_267:
	.ascii	"/Users/yingyuhang/.cargo/registry/src/github.com-1ecc6299db9ec823/time-0.1.43/src/lib.rs"

	.section	__DATA,__const
	.p2align	3
l___unnamed_160:
	.quad	l___unnamed_267
	.asciz	"X\000\000\000\000\000\000\000W\000\000\000\t\000\000"

	.p2align	3
l___unnamed_164:
	.quad	l___unnamed_267
	.asciz	"X\000\000\000\000\000\000\000d\000\000\000)\000\000"

	.p2align	3
l___unnamed_165:
	.quad	l___unnamed_267
	.asciz	"X\000\000\000\000\000\000\000e\000\000\000\027\000\000"

	.p2align	3
l___unnamed_166:
	.quad	l___unnamed_267
	.asciz	"X\000\000\000\000\000\000\000f\000\000\000\030\000\000"

	.p2align	3
l___unnamed_161:
	.quad	l___unnamed_267
	.asciz	"X\000\000\000\000\000\000\000i\000\000\000\r\000\000"

	.p2align	3
l___unnamed_167:
	.quad	l___unnamed_267
	.asciz	"X\000\000\000\000\000\000\000l\000\000\000\r\000\000"

	.p2align	3
l___unnamed_169:
	.quad	l___unnamed_267
	.asciz	"X\000\000\000\000\000\000\000z\000\000\000)\000\000"

	.p2align	3
l___unnamed_170:
	.quad	l___unnamed_267
	.asciz	"X\000\000\000\000\000\000\000{\000\000\000\027\000\000"

	.p2align	3
l___unnamed_171:
	.quad	l___unnamed_267
	.asciz	"X\000\000\000\000\000\000\000|\000\000\000\030\000\000"

	.p2align	3
l___unnamed_168:
	.quad	l___unnamed_267
	.asciz	"X\000\000\000\000\000\000\000\177\000\000\000\r\000\000"

	.p2align	3
l___unnamed_172:
	.quad	l___unnamed_267
	.asciz	"X\000\000\000\000\000\000\000\202\000\000\000\r\000\000"

	.p2align	3
l___unnamed_173:
	.quad	l___unnamed_267
	.asciz	"X\000\000\000\000\000\000\000\214\000\000\000\023\000\000"

	.p2align	3
l___unnamed_174:
	.quad	l___unnamed_267
	.asciz	"X\000\000\000\000\000\000\000\215\000\000\000\024\000\000"

	.section	__TEXT,__const
l___unnamed_14:
	.ascii	"%c"

l___unnamed_178:
	.ascii	"%a, %d %b %Y %T GMT"

l___unnamed_179:
	.ascii	"%a, %d %b %Y %T %Z"

l___unnamed_180:
	.ascii	"%a, %d %b %Y %T %z"

l___unnamed_268:
	.ascii	"expected: `"

l___unnamed_269:
	.ascii	"`, found: `"

l___unnamed_270:
	.byte	96

	.section	__DATA,__const
	.p2align	3
l___unnamed_181:
	.quad	l___unnamed_268
	.asciz	"\013\000\000\000\000\000\000"
	.quad	l___unnamed_269
	.asciz	"\013\000\000\000\000\000\000"
	.quad	l___unnamed_270
	.asciz	"\001\000\000\000\000\000\000"

	.section	__TEXT,__const
l___unnamed_271:
	.ascii	": %"

	.section	__DATA,__const
	.p2align	3
l___unnamed_183:
	.quad	l___unnamed_54
	.space	8
	.quad	l___unnamed_271
	.asciz	"\003\000\000\000\000\000\000"

	.section	__TEXT,__const
l___unnamed_197:
	.ascii	"Unexpected character."

l___unnamed_182:
	.ascii	"invalid format specifier"

l___unnamed_196:
	.ascii	"missing format converter after `%`"

l___unnamed_195:
	.ascii	"Invalid seconds since epoch."

l___unnamed_194:
	.ascii	"Invalid time."

l___unnamed_193:
	.ascii	"Invalid zone offset."

l___unnamed_192:
	.ascii	"Invalid day of the year."

l___unnamed_191:
	.ascii	"Invalid day of the month."

l___unnamed_190:
	.ascii	"Invalid day of the week."

l___unnamed_189:
	.ascii	"Invalid year."

l___unnamed_188:
	.ascii	"Invalid month."

l___unnamed_187:
	.ascii	"Invalid day."

l___unnamed_186:
	.ascii	"Invalid hour."

l___unnamed_185:
