	.section	__TEXT,__text,regular,pure_instructions
	.macosx_version_min 10, 7
	.p2align	4, 0x90
__ZN2cc5Build4file17h36f49c6f9406b454E:
Lfunc_begin0:
	.file	1 "/Users/yingyuhang/.cargo/registry/src/github.com-1ecc6299db9ec823/cc-1.0.58/src/lib.rs"
	.loc	1 543 0
	.cfi_startproc
	.cfi_personality 155, _rust_eh_personality
	.cfi_lsda 16, Lexception0
	pushq	%rbp
	.cfi_def_cfa_offset 16
	.cfi_offset %rbp, -16
	movq	%rsp, %rbp
	.cfi_def_cfa_register %rbp
	subq	$96, %rsp
	movq	%rsi, -64(%rbp)
	movq	%rdx, -56(%rbp)
	movq	%rdi, -24(%rbp)
Ltmp7:
	.loc	1 544 9 prologue_end
	movq	%rdi, %rax
	addq	$152, %rax
Ltmp0:
	leaq	-64(%rbp), %rcx
	movq	%rdi, -72(%rbp)
	.loc	1 544 25 is_stmt 0
	movq	%rcx, %rdi
	movq	%rax, -80(%rbp)
	callq	__ZN55_$LT$$RF$T$u20$as$u20$core..convert..AsRef$LT$U$GT$$GT$6as_ref17h5d3407fda3d828ceE
Ltmp1:
	movq	%rdx, -88(%rbp)
	movq	%rax, -96(%rbp)
	jmp	LBB0_2
LBB0_1:
	.loc	1 543 5 is_stmt 1
	movq	-16(%rbp), %rdi
	callq	__Unwind_Resume
	ud2
LBB0_2:
Ltmp2:
	.loc	1 0 5 is_stmt 0
	leaq	-48(%rbp), %rdi
	movq	-96(%rbp), %rsi
	movq	-88(%rbp), %rdx
	.loc	1 544 25 is_stmt 1
	callq	__ZN3std4path4Path11to_path_buf17h8add68ba99f659f3E
Ltmp3:
	jmp	LBB0_4
LBB0_3:
	.loc	1 546 5
	jmp	LBB0_1
LBB0_4:
Ltmp4:
	.loc	1 0 5 is_stmt 0
	leaq	-48(%rbp), %rsi
	movq	-80(%rbp), %rdi
	.loc	1 544 9 is_stmt 1
	callq	__ZN5alloc3vec12Vec$LT$T$GT$4push17h6c5e60bc8e094116E
Ltmp5:
	jmp	LBB0_5
LBB0_5:
	.loc	1 546 5
	jmp	LBB0_6
LBB0_6:
	.loc	1 0 5 is_stmt 0
	movq	-72(%rbp), %rax
	.loc	1 546 6
	addq	$96, %rsp
	popq	%rbp
	retq
Ltmp8:
LBB0_7:
Ltmp6:
	.loc	1 0 6
	movq	%rax, -16(%rbp)
	movl	%edx, -8(%rbp)
	jmp	LBB0_3
Lfunc_end0:
	.cfi_endproc
	.section	__TEXT,__gcc_except_tab
	.p2align	2
GCC_except_table0:
Lexception0:
	.byte	255
	.byte	255
	.byte	1
	.uleb128 Lcst_end0-Lcst_begin0
Lcst_begin0:
	.uleb128 Ltmp0-Lfunc_begin0
	.uleb128 Ltmp1-Ltmp0
	.uleb128 Ltmp6-Lfunc_begin0
	.byte	0
	.uleb128 Ltmp1-Lfunc_begin0
	.uleb128 Ltmp2-Ltmp1
	.byte	0
	.byte	0
	.uleb128 Ltmp2-Lfunc_begin0
	.uleb128 Ltmp5-Ltmp2
	.uleb128 Ltmp6-Lfunc_begin0
	.byte	0
Lcst_end0:
	.p2align	2

	.section	__TEXT,__text,regular,pure_instructions
	.p2align	4, 0x90
__ZN2cc5Build7include17h24658308f83bf452E:
Lfunc_begin1:
	.loc	1 333 0 is_stmt 1
	.cfi_startproc
	.cfi_personality 155, _rust_eh_personality
	.cfi_lsda 16, Lexception1
	pushq	%rbp
	.cfi_def_cfa_offset 16
	.cfi_offset %rbp, -16
	movq	%rsp, %rbp
	.cfi_def_cfa_register %rbp
	subq	$96, %rsp
	movq	%rsi, -64(%rbp)
	movq	%rdx, -56(%rbp)
	movq	%rdi, -24(%rbp)
Ltmp16:
	.loc	1 334 9 prologue_end
	movq	%rdi, %rax
Ltmp9:
	leaq	-64(%rbp), %rcx
	movq	%rdi, -72(%rbp)
	.loc	1 334 39 is_stmt 0
	movq	%rcx, %rdi
	movq	%rax, -80(%rbp)
	callq	__ZN55_$LT$$RF$T$u20$as$u20$core..convert..AsRef$LT$U$GT$$GT$6as_ref17hb0ece6e4713899c4E
Ltmp10:
	movq	%rdx, -88(%rbp)
	movq	%rax, -96(%rbp)
	jmp	LBB1_2
LBB1_1:
	.loc	1 333 5 is_stmt 1
	movq	-16(%rbp), %rdi
	callq	__Unwind_Resume
	ud2
LBB1_2:
Ltmp11:
	.loc	1 0 5 is_stmt 0
	leaq	-48(%rbp), %rdi
	movq	-96(%rbp), %rsi
	movq	-88(%rbp), %rdx
	.loc	1 334 39 is_stmt 1
	callq	__ZN3std4path4Path11to_path_buf17h8add68ba99f659f3E
Ltmp12:
	jmp	LBB1_4
LBB1_3:
	.loc	1 336 5
	jmp	LBB1_1
LBB1_4:
Ltmp13:
	.loc	1 0 5 is_stmt 0
	leaq	-48(%rbp), %rsi
	movq	-80(%rbp), %rdi
	.loc	1 334 9 is_stmt 1
	callq	__ZN5alloc3vec12Vec$LT$T$GT$4push17h6c5e60bc8e094116E
Ltmp14:
	jmp	LBB1_5
LBB1_5:
	.loc	1 336 5
	jmp	LBB1_6
LBB1_6:
	.loc	1 0 5 is_stmt 0
	movq	-72(%rbp), %rax
	.loc	1 336 6
	addq	$96, %rsp
	popq	%rbp
	retq
Ltmp17:
LBB1_7:
Ltmp15:
	.loc	1 0 6
	movq	%rax, -16(%rbp)
	movl	%edx, -8(%rbp)
	jmp	LBB1_3
Lfunc_end1:
	.cfi_endproc
	.section	__TEXT,__gcc_except_tab
	.p2align	2
GCC_except_table1:
Lexception1:
	.byte	255
	.byte	255
	.byte	1
	.uleb128 Lcst_end1-Lcst_begin1
Lcst_begin1:
	.uleb128 Ltmp9-Lfunc_begin1
	.uleb128 Ltmp10-Ltmp9
	.uleb128 Ltmp15-Lfunc_begin1
	.byte	0
	.uleb128 Ltmp10-Lfunc_begin1
	.uleb128 Ltmp11-Ltmp10
	.byte	0
	.byte	0
	.uleb128 Ltmp11-Lfunc_begin1
	.uleb128 Ltmp14-Ltmp11
	.uleb128 Ltmp15-Lfunc_begin1
	.byte	0
Lcst_end1:
	.p2align	2

	.section	__TEXT,__text,regular,pure_instructions
	.private_extern	__ZN3std2rt10lang_start17h544d06df05717e73E
	.globl	__ZN3std2rt10lang_start17h544d06df05717e73E
	.p2align	4, 0x90
__ZN3std2rt10lang_start17h544d06df05717e73E:
Lfunc_begin2:
	.file	2 "/rustc/6c8927b0cf80ceee19386026cf9d7fd4fd9d486f/src/libstd/rt.rs"
	.loc	2 62 0 is_stmt 1
	.cfi_startproc
	pushq	%rbp
	.cfi_def_cfa_offset 16
	.cfi_offset %rbp, -16
	movq	%rsp, %rbp
	.cfi_def_cfa_register %rbp
	subq	$64, %rsp
	leaq	l___unnamed_1(%rip), %rax
	movq	%rdi, -24(%rbp)
	movq	%rsi, -16(%rbp)
	movq	%rdx, -8(%rbp)
Ltmp18:
	.loc	2 67 26 prologue_end
	movq	%rdi, -32(%rbp)
	.loc	2 67 25 is_stmt 0
	leaq	-32(%rbp), %rcx
	.loc	2 67 5
	movq	%rcx, %rdi
	movq	%rsi, -40(%rbp)
	movq	%rax, %rsi
	movq	-40(%rbp), %rax
	movq	%rdx, -48(%rbp)
	movq	%rax, %rdx
	movq	-48(%rbp), %rcx
	callq	__ZN3std2rt19lang_start_internal17hbbd10965adc92ae7E
	movq	%rax, -56(%rbp)
	.loc	2 0 5
	movq	-56(%rbp), %rax
	.loc	2 68 2 is_stmt 1
	addq	$64, %rsp
	popq	%rbp
	retq
Ltmp19:
Lfunc_end2:
	.cfi_endproc

	.p2align	4, 0x90
__ZN3std2rt10lang_start28_$u7b$$u7b$closure$u7d$$u7d$17h099619ae931ec09bE:
Lfunc_begin3:
	.loc	2 67 0
	.cfi_startproc
	pushq	%rbp
	.cfi_def_cfa_offset 16
	.cfi_offset %rbp, -16
	movq	%rsp, %rbp
	.cfi_def_cfa_register %rbp
	subq	$16, %rsp
	movq	%rdi, -8(%rbp)
Ltmp20:
	.loc	2 67 34 prologue_end
	callq	*(%rdi)
	callq	__ZN54_$LT$$LP$$RP$$u20$as$u20$std..process..Termination$GT$6report17hcad137543d0a6a6eE
	movl	%eax, -12(%rbp)
	.loc	2 0 34 is_stmt 0
	movl	-12(%rbp), %eax
	.loc	2 67 49
	addq	$16, %rsp
	popq	%rbp
	retq
Ltmp21:
Lfunc_end3:
	.cfi_endproc

	.p2align	4, 0x90
__ZN3std3sys4unix7process14process_common8ExitCode6as_i3217h9328becf7d952adcE:
Lfunc_begin4:
	.file	3 "/rustc/6c8927b0cf80ceee19386026cf9d7fd4fd9d486f/src/libstd/sys/unix/process/process_common.rs"
	.loc	3 398 0 is_stmt 1
	.cfi_startproc
	pushq	%rbp
	.cfi_def_cfa_offset 16
	.cfi_offset %rbp, -16
	movq	%rsp, %rbp
	.cfi_def_cfa_register %rbp
	pushq	%rax
	movq	%rdi, -8(%rbp)
Ltmp22:
	.loc	3 399 9 prologue_end
	movzbl	(%rdi), %eax
	.loc	3 400 6
	addq	$8, %rsp
	popq	%rbp
	retq
Ltmp23:
Lfunc_end4:
	.cfi_endproc

	.p2align	4, 0x90
__ZN4core3ops8function6FnOnce40call_once$u7b$$u7b$vtable.shim$u7d$$u7d$17h52e988e46b6e72d9E:
Lfunc_begin5:
	.file	4 "/rustc/6c8927b0cf80ceee19386026cf9d7fd4fd9d486f/src/libcore/ops/function.rs"
	.loc	4 233 0
	.cfi_startproc
	pushq	%rbp
	.cfi_def_cfa_offset 16
	.cfi_offset %rbp, -16
	movq	%rsp, %rbp
	.cfi_def_cfa_register %rbp
	subq	$32, %rsp
	movq	%rdi, -8(%rbp)
Ltmp24:
	.loc	4 233 5 prologue_end
	movq	(%rdi), %rdi
	callq	__ZN4core3ops8function6FnOnce9call_once17hcbc82d595fbdec07E
	movl	%eax, -20(%rbp)
	.loc	4 0 5 is_stmt 0
	movl	-20(%rbp), %eax
	.loc	4 233 5
	addq	$32, %rsp
	popq	%rbp
	retq
Ltmp25:
Lfunc_end5:
	.cfi_endproc

	.p2align	4, 0x90
__ZN4core3ops8function6FnOnce9call_once17hcbc82d595fbdec07E:
Lfunc_begin6:
	.loc	4 233 0 is_stmt 1
	.cfi_startproc
	.cfi_personality 155, _rust_eh_personality
	.cfi_lsda 16, Lexception2
	pushq	%rbp
	.cfi_def_cfa_offset 16
	.cfi_offset %rbp, -16
	movq	%rsp, %rbp
	.cfi_def_cfa_register %rbp
	subq	$48, %rsp
	movq	%rdi, -32(%rbp)
Ltmp26:
	leaq	-32(%rbp), %rdi
Ltmp29:
	.loc	4 233 5 prologue_end
	callq	__ZN3std2rt10lang_start28_$u7b$$u7b$closure$u7d$$u7d$17h099619ae931ec09bE
Ltmp27:
	movl	%eax, -36(%rbp)
	jmp	LBB6_1
LBB6_1:
	jmp	LBB6_2
LBB6_2:
	.loc	4 0 5 is_stmt 0
	movl	-36(%rbp), %eax
	.loc	4 233 5
	addq	$48, %rsp
	popq	%rbp
	retq
LBB6_3:
	jmp	LBB6_4
LBB6_4:
	movq	-16(%rbp), %rdi
	callq	__Unwind_Resume
	ud2
Ltmp30:
LBB6_5:
Ltmp28:
	.loc	4 0 5
	movq	%rax, -16(%rbp)
	movl	%edx, -8(%rbp)
	jmp	LBB6_3
Lfunc_end6:
	.cfi_endproc
	.section	__TEXT,__gcc_except_tab
	.p2align	2
GCC_except_table6:
Lexception2:
	.byte	255
	.byte	255
	.byte	1
	.uleb128 Lcst_end2-Lcst_begin2
Lcst_begin2:
	.uleb128 Ltmp26-Lfunc_begin6
	.uleb128 Ltmp27-Ltmp26
	.uleb128 Ltmp28-Lfunc_begin6
	.byte	0
	.uleb128 Ltmp27-Lfunc_begin6
	.uleb128 Lfunc_end6-Ltmp27
	.byte	0
	.byte	0
Lcst_end2:
	.p2align	2

	.section	__TEXT,__text,regular,pure_instructions
	.p2align	4, 0x90
__ZN4core3ptr13drop_in_place17h2c9722a1232d20d2E:
Lfunc_begin7:
	.file	5 "/rustc/6c8927b0cf80ceee19386026cf9d7fd4fd9d486f/src/libcore/ptr/mod.rs"
	.loc	5 184 0 is_stmt 1
	.cfi_startproc
	pushq	%rbp
	.cfi_def_cfa_offset 16
	.cfi_offset %rbp, -16
	movq	%rsp, %rbp
	.cfi_def_cfa_register %rbp
	subq	$16, %rsp
	movq	%rdi, -8(%rbp)
Ltmp31:
	.loc	5 184 1 prologue_end
	addq	$16, %rsp
	popq	%rbp
	retq
Ltmp32:
Lfunc_end7:
	.cfi_endproc

	.p2align	4, 0x90
__ZN54_$LT$$LP$$RP$$u20$as$u20$std..process..Termination$GT$6report17hcad137543d0a6a6eE:
Lfunc_begin8:
	.file	6 "/rustc/6c8927b0cf80ceee19386026cf9d7fd4fd9d486f/src/libstd/process.rs"
	.loc	6 1667 0
	.cfi_startproc
	pushq	%rbp
	.cfi_def_cfa_offset 16
	.cfi_offset %rbp, -16
	movq	%rsp, %rbp
	.cfi_def_cfa_register %rbp
	subq	$16, %rsp
	xorl	%edi, %edi
Ltmp33:
	.loc	6 1668 9 prologue_end
	callq	__ZN68_$LT$std..process..ExitCode$u20$as$u20$std..process..Termination$GT$6report17hb1351427feb48f43E
	movl	%eax, -12(%rbp)
	.loc	6 0 9 is_stmt 0
	movl	-12(%rbp), %eax
	.loc	6 1669 6 is_stmt 1
	addq	$16, %rsp
	popq	%rbp
	retq
Ltmp34:
Lfunc_end8:
	.cfi_endproc

	.p2align	4, 0x90
__ZN5alloc3vec12Vec$LT$T$GT$4push17h6c5e60bc8e094116E:
Lfunc_begin9:
	.file	7 "/rustc/6c8927b0cf80ceee19386026cf9d7fd4fd9d486f/src/liballoc/vec.rs"
	.loc	7 1201 0
	.cfi_startproc
	.cfi_personality 155, _rust_eh_personality
	.cfi_lsda 16, Lexception3
	pushq	%rbp
	.cfi_def_cfa_offset 16
	.cfi_offset %rbp, -16
	movq	%rsp, %rbp
	.cfi_def_cfa_register %rbp
	subq	$144, %rsp
	movq	%rdi, -56(%rbp)
Ltmp44:
	.loc	7 1204 9 prologue_end
	movb	$0, -57(%rbp)
	movb	$1, -57(%rbp)
	.loc	7 1204 12 is_stmt 0
	movq	16(%rdi), %rax
	.loc	7 1204 24
	movq	%rdi, %rcx
	movq	%rcx, -16(%rbp)
Ltmp45:
	.file	8 "/rustc/6c8927b0cf80ceee19386026cf9d7fd4fd9d486f/src/libcore/mem/mod.rs"
	.loc	8 310 5 is_stmt 1
	movq	$24, -8(%rbp)
Ltmp46:
	.file	9 "/rustc/6c8927b0cf80ceee19386026cf9d7fd4fd9d486f/src/liballoc/raw_vec.rs"
	.loc	9 221 12
	cmpq	$0, -8(%rbp)
	movq	%rdi, -96(%rbp)
	movq	%rsi, -104(%rbp)
Ltmp47:
	.loc	9 0 12 is_stmt 0
	movq	%rax, -112(%rbp)
	movq	%rcx, -120(%rbp)
	.loc	9 221 9
	je	LBB9_2
Ltmp48:
	.loc	9 0 9
	movq	-120(%rbp), %rax
	.loc	9 221 59
	movq	8(%rax), %rcx
	movq	%rcx, -24(%rbp)
	.loc	9 221 9
	jmp	LBB9_3
Ltmp49:
LBB9_2:
	.loc	9 221 39
	movq	$-1, -24(%rbp)
Ltmp50:
LBB9_3:
	.loc	9 222 6 is_stmt 1
	movq	-24(%rbp), %rax
	movq	%rax, -128(%rbp)
	jmp	LBB9_5
Ltmp51:
LBB9_4:
	.loc	7 1201 5
	movq	-48(%rbp), %rdi
	callq	__Unwind_Resume
	ud2
Ltmp52:
LBB9_5:
	.loc	7 0 5 is_stmt 0
	movq	-112(%rbp), %rax
	movq	-128(%rbp), %rcx
	.loc	7 1204 12 is_stmt 1
	cmpq	%rcx, %rax
	.loc	7 1204 9 is_stmt 0
	je	LBB9_7
Ltmp53:
	jmp	LBB9_9
Ltmp54:
LBB9_7:
Ltmp35:
	.loc	7 0 9
	movl	$1, %esi
	movq	-96(%rbp), %rdi
	.loc	7 1205 13 is_stmt 1
	callq	__ZN5alloc3vec12Vec$LT$T$GT$7reserve17h7b8fe44558c27527E
Ltmp36:
	jmp	LBB9_8
Ltmp55:
LBB9_8:
	.loc	7 1204 9
	jmp	LBB9_9
Ltmp56:
LBB9_9:
Ltmp37:
	.loc	7 0 9 is_stmt 0
	movq	-96(%rbp), %rdi
	.loc	7 1208 23 is_stmt 1
	callq	__ZN5alloc3vec12Vec$LT$T$GT$10as_mut_ptr17h19cae44bf47b8d4cE
Ltmp38:
	movq	%rax, -136(%rbp)
	jmp	LBB9_10
Ltmp57:
LBB9_10:
	.loc	7 0 23 is_stmt 0
	movq	-96(%rbp), %rax
	.loc	7 1208 45
	movq	16(%rax), %rsi
Ltmp39:
	movq	-136(%rbp), %rdi
	.loc	7 1208 23
	callq	__ZN4core3ptr7mut_ptr31_$LT$impl$u20$$BP$mut$u20$T$GT$3add17h1b033fc3078fe79cE
Ltmp40:
	movq	%rax, -144(%rbp)
	jmp	LBB9_11
Ltmp58:
LBB9_11:
	.loc	7 0 23
	movq	-144(%rbp), %rax
	.loc	7 1208 23
	movq	%rax, -32(%rbp)
Ltmp59:
	.loc	7 1209 29 is_stmt 1
	movb	$0, -57(%rbp)
	movq	-104(%rbp), %rcx
	movq	16(%rcx), %rdx
	movq	%rdx, -72(%rbp)
	movq	(%rcx), %rdx
	movq	8(%rcx), %rsi
	movq	%rsi, -80(%rbp)
	movq	%rdx, -88(%rbp)
Ltmp41:
	leaq	-88(%rbp), %rsi
	.loc	7 1209 13 is_stmt 0
	movq	%rax, %rdi
	callq	__ZN4core3ptr5write17h887e0c3fe8ec1a39E
Ltmp42:
	jmp	LBB9_12
Ltmp60:
LBB9_12:
	.loc	7 0 13
	movq	-96(%rbp), %rax
	.loc	7 1210 13 is_stmt 1
	movq	16(%rax), %rcx
	addq	$1, %rcx
	movq	%rcx, 16(%rax)
Ltmp61:
	.loc	7 1212 6
	addq	$144, %rsp
	popq	%rbp
	retq
Ltmp62:
LBB9_13:
	.loc	7 1212 5 is_stmt 0
	movb	$0, -57(%rbp)
	movq	-104(%rbp), %rdi
	callq	__ZN4core3ptr13drop_in_place17hd4b2c11a8d390e61E
	jmp	LBB9_4
Ltmp63:
LBB9_14:
	testb	$1, -57(%rbp)
	jne	LBB9_13
	jmp	LBB9_4
Ltmp64:
LBB9_15:
Ltmp43:
	.loc	7 0 5
	movq	%rax, -48(%rbp)
	movl	%edx, -40(%rbp)
	jmp	LBB9_14
Lfunc_end9:
	.cfi_endproc
	.section	__TEXT,__gcc_except_tab
	.p2align	2
GCC_except_table9:
Lexception3:
	.byte	255
	.byte	255
	.byte	1
	.uleb128 Lcst_end3-Lcst_begin3
Lcst_begin3:
	.uleb128 Lfunc_begin9-Lfunc_begin9
	.uleb128 Ltmp35-Lfunc_begin9
	.byte	0
	.byte	0
	.uleb128 Ltmp35-Lfunc_begin9
	.uleb128 Ltmp42-Ltmp35
	.uleb128 Ltmp43-Lfunc_begin9
	.byte	0
	.uleb128 Ltmp42-Lfunc_begin9
	.uleb128 Lfunc_end9-Ltmp42
	.byte	0
	.byte	0
Lcst_end3:
	.p2align	2

	.section	__TEXT,__text,regular,pure_instructions
	.p2align	4, 0x90
__ZN68_$LT$std..process..ExitCode$u20$as$u20$std..process..Termination$GT$6report17hb1351427feb48f43E:
Lfunc_begin10:
	.loc	6 1701 0 is_stmt 1
	.cfi_startproc
	pushq	%rbp
	.cfi_def_cfa_offset 16
	.cfi_offset %rbp, -16
	movq	%rsp, %rbp
	.cfi_def_cfa_register %rbp
	subq	$16, %rsp
	movb	%dil, -1(%rbp)
Ltmp65:
	.loc	6 1702 9 prologue_end
	leaq	-1(%rbp), %rdi
Ltmp66:
	callq	__ZN3std3sys4unix7process14process_common8ExitCode6as_i3217h9328becf7d952adcE
Ltmp67:
	.loc	6 0 9 is_stmt 0
	movl	%eax, -8(%rbp)
	movl	-8(%rbp), %eax
	.loc	6 1703 6 is_stmt 1
	addq	$16, %rsp
	popq	%rbp
	retq
Ltmp68:
Lfunc_end10:
	.cfi_endproc

	.p2align	4, 0x90
__ZN18build_script_build4main17h9b581aaf294aade4E:
Lfunc_begin11:
	.file	10 "/Users/yingyuhang/Desktop/\345\255\246\344\271\240/Rust-numerical-library/Numerical-Lib/build.rs"
	.loc	10 5 0
	.cfi_startproc
	.cfi_personality 155, _rust_eh_personality
	.cfi_lsda 16, Lexception4
	pushq	%rbp
	.cfi_def_cfa_offset 16
	.cfi_offset %rbp, -16
	movq	%rsp, %rbp
	.cfi_def_cfa_register %rbp
	subq	$496, %rsp
	leaq	l___unnamed_2(%rip), %rax
Ltmp76:
	.loc	10 6 17 prologue_end
	movq	%rax, %rdi
	movl	$61, %esi
	callq	__ZN3std4path4Path3new17h1cf8493c331e06cfE
	movq	%rax, -32(%rbp)
	movq	%rdx, -24(%rbp)
	movq	%rax, -464(%rbp)
	movq	%rdx, -472(%rbp)
	jmp	LBB11_2
LBB11_1:
	.loc	10 5 1
	movq	-16(%rbp), %rdi
	callq	__Unwind_Resume
	ud2
LBB11_2:
Ltmp77:
	.loc	10 8 5
	leaq	-456(%rbp), %rdi
	callq	__ZN2cc5Build3new17h4f291f7e57d2d0aaE
Ltmp69:
	leaq	l___unnamed_3(%rip), %rsi
	leaq	-456(%rbp), %rdi
	movl	$10, %edx
	callq	__ZN2cc5Build4file17h36f49c6f9406b454E
Ltmp70:
	movq	%rax, -480(%rbp)
	jmp	LBB11_4
LBB11_4:
Ltmp71:
	.loc	10 0 5 is_stmt 0
	movq	-480(%rbp), %rdi
	movq	-464(%rbp), %rsi
	movq	-472(%rbp), %rdx
	.loc	10 8 5
	callq	__ZN2cc5Build7include17h24658308f83bf452E
Ltmp72:
	movq	%rax, -488(%rbp)
	jmp	LBB11_6
LBB11_5:
	.loc	10 11 29 is_stmt 1
	leaq	-456(%rbp), %rdi
	callq	__ZN4core3ptr13drop_in_place17h56f70c8d9d8f2006E
	jmp	LBB11_1
LBB11_6:
Ltmp73:
	.loc	10 8 5
	leaq	L___unnamed_4(%rip), %rsi
	movl	$8, %edx
	movq	-488(%rbp), %rdi
	callq	__ZN2cc5Build7compile17he018d51906421c52E
Ltmp74:
	jmp	LBB11_7
LBB11_7:
	.loc	10 11 29
	leaq	-456(%rbp), %rdi
	callq	__ZN4core3ptr13drop_in_place17h56f70c8d9d8f2006E
Ltmp78:
	.loc	10 12 2
	addq	$496, %rsp
	popq	%rbp
	retq
Ltmp79:
LBB11_9:
Ltmp75:
	.loc	10 0 2 is_stmt 0
	movq	%rax, -16(%rbp)
	movl	%edx, -8(%rbp)
	jmp	LBB11_5
Lfunc_end11:
	.cfi_endproc
	.section	__TEXT,__gcc_except_tab
	.p2align	2
GCC_except_table11:
Lexception4:
	.byte	255
	.byte	255
	.byte	1
	.uleb128 Lcst_end4-Lcst_begin4
Lcst_begin4:
	.uleb128 Lfunc_begin11-Lfunc_begin11
	.uleb128 Ltmp69-Lfunc_begin11
	.byte	0
	.byte	0
	.uleb128 Ltmp69-Lfunc_begin11
	.uleb128 Ltmp72-Ltmp69
	.uleb128 Ltmp75-Lfunc_begin11
	.byte	0
	.uleb128 Ltmp72-Lfunc_begin11
	.uleb128 Ltmp73-Ltmp72
	.byte	0
	.byte	0
	.uleb128 Ltmp73-Lfunc_begin11
	.uleb128 Ltmp74-Ltmp73
	.uleb128 Ltmp75-Lfunc_begin11
	.byte	0
	.uleb128 Ltmp74-Lfunc_begin11
	.uleb128 Lfunc_end11-Ltmp74
	.byte	0
	.byte	0
Lcst_end4:
	.p2align	2

	.section	__TEXT,__text,regular,pure_instructions
	.globl	_main
	.p2align	4, 0x90
_main:
Lfunc_begin12:
	.cfi_startproc
	pushq	%rbp
	.cfi_def_cfa_offset 16
	.cfi_offset %rbp, -16
	movq	%rsp, %rbp
	.cfi_def_cfa_register %rbp
	subq	$16, %rsp
	movslq	%edi, %rax
	leaq	__ZN18build_script_build4main17h9b581aaf294aade4E(%rip), %rdi
	movq	%rsi, -8(%rbp)
	movq	%rax, %rsi
	movq	-8(%rbp), %rdx
	callq	__ZN3std2rt10lang_start17h544d06df05717e73E
	addq	$16, %rsp
	popq	%rbp
	retq
Lfunc_end12:
	.cfi_endproc

	.section	__DATA,__const
	.p2align	3
l___unnamed_1:
	.quad	__ZN4core3ptr13drop_in_place17h2c9722a1232d20d2E
	.quad	8
	.quad	8
	.quad	__ZN3std2rt10lang_start28_$u7b$$u7b$closure$u7d$$u7d$17h099619ae931ec09bE
	.quad	__ZN3std2rt10lang_start28_$u7b$$u7b$closure$u7d$$u7d$17h099619ae931ec09bE
	.quad	__ZN4core3ops8function6FnOnce40call_once$u7b$$u7b$vtable.shim$u7d$$u7d$17h52e988e46b6e72d9E

	.section	__TEXT,__const
l___unnamed_2:
	.ascii	"/opt/intel/compilers_and_libraries_2020.1.216/mac/mkl/include"

l___unnamed_3:
	.ascii	"src/main.c"

	.section	__TEXT,__literal8,8byte_literals
L___unnamed_4:
	.ascii	"MKL-Rust"

	.section	__DATA,__const
Lsec_end0:
	.section	__TEXT,__text,regular,pure_instructions
Lsec_end1: