	.section	__TEXT,__text,regular,pure_instructions
	.macosx_version_min 10, 7
	.intel_syntax noprefix
	.p2align	4, 0x90
__ZN112_$LT$alloc..collections..btree..map..IntoIter$LT$K$C$V$GT$$u20$as$u20$core..iter..traits..iterator..Iterator$GT$4next17hdb4a8937016001aaE:
	.cfi_startproc
	push	rbp
	.cfi_def_cfa_offset 16
	.cfi_offset rbp, -16
	mov	rbp, rsp
	.cfi_def_cfa_register rbp
	push	r15
	push	r14
	push	r13
	push	r12
	push	rbx
	sub	rsp, 120
	.cfi_offset rbx, -56
	.cfi_offset r12, -48
	.cfi_offset r13, -40
	.cfi_offset r14, -32
	.cfi_offset r15, -24
	mov	r9, rdi
	mov	rax, qword ptr [rsi + 64]
	test	rax, rax
	je	LBB0_21
	mov	r12, rsi
	dec	rax
	mov	qword ptr [rsi + 64], rax
	mov	rax, qword ptr [rsi + 8]
	test	rax, rax
	cmove	r12, rax
	je	LBB0_23
	mov	rax, qword ptr [r12]
	mov	rdi, qword ptr [r12 + 8]
	mov	r10, qword ptr [r12 + 16]
	mov	r13, qword ptr [r12 + 24]
	movzx	ecx, word ptr [rdi + 10]
	cmp	r13, rcx
	jae	LBB0_4
	mov	rbx, rax
	jmp	LBB0_10
LBB0_21:
	mov	qword ptr [r9], 0
	jmp	LBB0_22
LBB0_4:
	mov	qword ptr [rbp - 48], r10
	mov	qword ptr [rbp - 56], r9
	mov	r15d, 544
	mov	r14, qword ptr [rdi]
	test	r14, r14
	je	LBB0_6
	.p2align	4, 0x90
LBB0_7:
	lea	rbx, [rax + 1]
	movzx	r13d, word ptr [rdi + 8]
LBB0_8:
	test	rax, rax
	mov	esi, 640
	cmove	rsi, r15
	mov	edx, 8
	call	___rust_dealloc
	movzx	ecx, word ptr [r14 + 10]
	mov	rax, rbx
	mov	rdi, r14
	cmp	r13, rcx
	jb	LBB0_9
	mov	r14, qword ptr [rdi]
	test	r14, r14
	jne	LBB0_7
LBB0_6:
	mov	rbx, rax
	xor	r14d, r14d
	jmp	LBB0_8
LBB0_9:
	mov	rdi, r14
	mov	r9, qword ptr [rbp - 56]
	mov	r10, qword ptr [rbp - 48]
LBB0_10:
	lea	rax, [r13 + 2*r13]
	mov	rcx, qword ptr [rdi + 8*rax + 32]
	mov	qword ptr [rbp - 64], rcx
	mov	rcx, qword ptr [rdi + 8*rax + 16]
	mov	rdx, qword ptr [rdi + 8*rax + 24]
	mov	qword ptr [rbp - 72], rdx
	mov	qword ptr [rbp - 80], rcx
	mov	rcx, qword ptr [rdi + 8*rax + 296]
	mov	qword ptr [rbp - 88], rcx
	mov	rcx, qword ptr [rdi + 8*rax + 280]
	mov	rax, qword ptr [rdi + 8*rax + 288]
	mov	qword ptr [rbp - 96], rax
	mov	qword ptr [rbp - 104], rcx
	test	rbx, rbx
	je	LBB0_11
	mov	rax, rbx
	mov	rdi, qword ptr [rdi + 8*r13 + 552]
	dec	rax
	je	LBB0_13
	add	rbx, -2
	mov	rcx, rax
	and	rcx, 7
	je	LBB0_18
	xor	edx, edx
	.p2align	4, 0x90
LBB0_16:
	mov	rdi, qword ptr [rdi + 544]
	inc	rdx
	cmp	rcx, rdx
	jne	LBB0_16
	sub	rax, rdx
LBB0_18:
	xor	r13d, r13d
	cmp	rbx, 7
	jb	LBB0_20
	.p2align	4, 0x90
LBB0_19:
	mov	rcx, qword ptr [rdi + 544]
	mov	rcx, qword ptr [rcx + 544]
	mov	rcx, qword ptr [rcx + 544]
	mov	rcx, qword ptr [rcx + 544]
	mov	rcx, qword ptr [rcx + 544]
	mov	rcx, qword ptr [rcx + 544]
	mov	rcx, qword ptr [rcx + 544]
	mov	rdi, qword ptr [rcx + 544]
	add	rax, -8
	jne	LBB0_19
	jmp	LBB0_20
LBB0_11:
	inc	r13
	jmp	LBB0_20
LBB0_13:
	xor	r13d, r13d
LBB0_20:
	mov	r8, qword ptr [rbp - 64]
	mov	qword ptr [rbp - 136], r8
	mov	rcx, qword ptr [rbp - 80]
	mov	rdx, qword ptr [rbp - 72]
	mov	qword ptr [rbp - 144], rdx
	mov	qword ptr [rbp - 152], rcx
	mov	rsi, qword ptr [rbp - 104]
	mov	rbx, qword ptr [rbp - 96]
	mov	qword ptr [rbp - 128], rsi
	mov	qword ptr [rbp - 120], rbx
	mov	rax, qword ptr [rbp - 88]
	mov	qword ptr [rbp - 112], rax
	mov	qword ptr [r9 + 40], rax
	mov	qword ptr [r9 + 32], rbx
	mov	qword ptr [r9 + 24], rsi
	mov	qword ptr [r9 + 16], r8
	mov	qword ptr [r9 + 8], rdx
	mov	qword ptr [r9], rcx
	mov	qword ptr [r12], 0
	mov	qword ptr [r12 + 8], rdi
	mov	qword ptr [r12 + 16], r10
	mov	qword ptr [r12 + 24], r13
LBB0_22:
	add	rsp, 120
	pop	rbx
	pop	r12
	pop	r13
	pop	r14
	pop	r15
	pop	rbp
	ret
LBB0_23:
	lea	rdi, [rip + l___unnamed_1]
	lea	rdx, [rip + l___unnamed_2]
	mov	esi, 43
	call	__ZN4core9panicking5panic17h736ee47a631475c0E
	.cfi_endproc

	.private_extern	__ZN3std2rt10lang_start17hcc6b9d0d8905ff7eE
	.globl	__ZN3std2rt10lang_start17hcc6b9d0d8905ff7eE
	.p2align	4, 0x90
__ZN3std2rt10lang_start17hcc6b9d0d8905ff7eE:
	.cfi_startproc
	push	rbp
	.cfi_def_cfa_offset 16
	.cfi_offset rbp, -16
	mov	rbp, rsp
	.cfi_def_cfa_register rbp
	sub	rsp, 16
	mov	rcx, rdx
	mov	rdx, rsi
	mov	qword ptr [rbp - 8], rdi
	lea	rsi, [rip + l___unnamed_3]
	lea	rdi, [rbp - 8]
	call	__ZN3std2rt19lang_start_internal17hebefdaa8fd585aefE
	add	rsp, 16
	pop	rbp
	ret
	.cfi_endproc

	.p2align	4, 0x90
__ZN3std2rt10lang_start28_$u7b$$u7b$closure$u7d$$u7d$17hc4df0d38b443ca02E:
	.cfi_startproc
	push	rbp
	.cfi_def_cfa_offset 16
	.cfi_offset rbp, -16
	mov	rbp, rsp
	.cfi_def_cfa_register rbp
	call	qword ptr [rdi]
	xor	eax, eax
	pop	rbp
	ret
	.cfi_endproc

	.p2align	4, 0x90
__ZN44_$LT$$RF$T$u20$as$u20$core..fmt..Display$GT$3fmt17hf064ee018a8f9f12E:
	.cfi_startproc
	push	rbp
	.cfi_def_cfa_offset 16
	.cfi_offset rbp, -16
	mov	rbp, rsp
	.cfi_def_cfa_register rbp
	mov	rdx, rsi
	mov	rax, qword ptr [rdi]
	mov	rsi, qword ptr [rdi + 8]
	mov	rdi, rax
	pop	rbp
	jmp	__ZN42_$LT$str$u20$as$u20$core..fmt..Display$GT$3fmt17hd4dee1c1c4ccf892E
	.cfi_endproc

	.p2align	4, 0x90
__ZN4core3ops8function6FnOnce40call_once$u7b$$u7b$vtable.shim$u7d$$u7d$17hf34e08899d07b312E:
	.cfi_startproc
	push	rbp
	.cfi_def_cfa_offset 16
	.cfi_offset rbp, -16
	mov	rbp, rsp
	.cfi_def_cfa_register rbp
	call	qword ptr [rdi]
	xor	eax, eax
	pop	rbp
	ret
	.cfi_endproc

	.p2align	4, 0x90
__ZN4core3ptr13drop_in_place17h16ecb60de0ebaa27E:
	.cfi_startproc
	push	rbp
	.cfi_def_cfa_offset 16
	.cfi_offset rbp, -16
	mov	rbp, rsp
	.cfi_def_cfa_register rbp
	pop	rbp
	ret
	.cfi_endproc

	.p2align	4, 0x90
__ZN4core3ptr13drop_in_place17h19ceedd8e1796e5eE:
	.cfi_startproc
	push	rbp
	.cfi_def_cfa_offset 16
	.cfi_offset rbp, -16
	mov	rbp, rsp
	.cfi_def_cfa_register rbp
	mov	rax, rdi
	mov	rdi, qword ptr [rdi]
	test	rdi, rdi
	je	LBB6_2
	mov	rsi, qword ptr [rax + 8]
	test	rsi, rsi
	je	LBB6_2
	mov	edx, 1
	pop	rbp
	jmp	___rust_dealloc
LBB6_2:
	pop	rbp
	ret
	.cfi_endproc

	.p2align	4, 0x90
__ZN4core3ptr13drop_in_place17h2263477bdae3e572E:
	.cfi_startproc
	push	rbp
	.cfi_def_cfa_offset 16
	.cfi_offset rbp, -16
	mov	rbp, rsp
	.cfi_def_cfa_register rbp
	cmp	dword ptr [rdi], 3
	jne	LBB7_1
	add	rdi, 4
	pop	rbp
	jmp	__ZN70_$LT$std..sys..unix..fd..FileDesc$u20$as$u20$core..ops..drop..Drop$GT$4drop17hf5fce2bf4d9f8deaE
LBB7_1:
	pop	rbp
	ret
	.cfi_endproc

	.p2align	4, 0x90
__ZN4core3ptr13drop_in_place17h3dceb8b0a4ba533cE:
	.cfi_startproc
	push	rbp
	.cfi_def_cfa_offset 16
	.cfi_offset rbp, -16
	mov	rbp, rsp
	.cfi_def_cfa_register rbp
	mov	rax, qword ptr [rdi]
	test	rax, rax
	je	LBB8_2
	mov	byte ptr [rax], 0
	mov	rsi, qword ptr [rdi + 8]
	test	rsi, rsi
	je	LBB8_2
	mov	rdi, qword ptr [rdi]
	mov	edx, 1
	pop	rbp
	jmp	___rust_dealloc
LBB8_2:
	pop	rbp
	ret
	.cfi_endproc

	.p2align	4, 0x90
__ZN4core3ptr13drop_in_place17h68dec94ea177bc52E:
Lfunc_begin0:
	.cfi_startproc
	.cfi_personality 155, _rust_eh_personality
	.cfi_lsda 16, Lexception0
	push	rbp
	.cfi_def_cfa_offset 16
	.cfi_offset rbp, -16
	mov	rbp, rsp
	.cfi_def_cfa_register rbp
	push	r15
	push	r14
	push	r13
	push	r12
	push	rbx
	push	rax
	.cfi_offset rbx, -56
	.cfi_offset r12, -48
	.cfi_offset r13, -40
	.cfi_offset r14, -32
	.cfi_offset r15, -24
	mov	r14, rdi
	mov	rbx, qword ptr [rdi]
	mov	r12, qword ptr [rdi + 16]
	test	r12, r12
	je	LBB9_7
	shl	r12, 4
	lea	r15, [rbx + r12]
	add	r12, -16
	add	rbx, 16
	jmp	LBB9_2
	.p2align	4, 0x90
LBB9_5:
	add	r12, -16
	add	rbx, 16
	add	r13, 16
	cmp	r13, r15
	je	LBB9_6
LBB9_2:
	mov	rdi, qword ptr [rbx - 16]
	mov	rax, qword ptr [rbx - 8]
Ltmp0:
	call	qword ptr [rax]
Ltmp1:
	lea	r13, [rbx - 16]
	mov	rax, qword ptr [r13 + 8]
	mov	rsi, qword ptr [rax + 8]
	test	rsi, rsi
	je	LBB9_5
	mov	rdi, qword ptr [rbx - 16]
	mov	rdx, qword ptr [rax + 16]
	call	___rust_dealloc
	jmp	LBB9_5
LBB9_6:
	mov	rbx, qword ptr [r14]
LBB9_7:
	mov	rsi, qword ptr [r14 + 8]
	test	rsi, rsi
	je	LBB9_14
	test	rbx, rbx
	je	LBB9_14
	shl	rsi, 4
	je	LBB9_14
	mov	edx, 8
	mov	rdi, rbx
	add	rsp, 8
	pop	rbx
	pop	r12
	pop	r13
	pop	r14
	pop	r15
	pop	rbp
	jmp	___rust_dealloc
LBB9_14:
	add	rsp, 8
	pop	rbx
	pop	r12
	pop	r13
	pop	r14
	pop	r15
	pop	rbp
	ret
LBB9_11:
Ltmp2:
	mov	r15, rax
	mov	rdi, qword ptr [rbx - 16]
	mov	rsi, qword ptr [rbx - 8]
	call	__ZN5alloc5alloc8box_free17h29da4fd65aca6089E
	test	r12, r12
	je	LBB9_16
	.p2align	4, 0x90
LBB9_12:
Ltmp3:
	mov	rdi, rbx
	call	__ZN4core3ptr13drop_in_place17hc88a553504022e41E
Ltmp4:
	add	rbx, 16
	add	r12, -16
	jne	LBB9_12
	jmp	LBB9_16
LBB9_15:
Ltmp5:
	mov	r15, rax
LBB9_16:
	mov	rdi, qword ptr [r14]
	mov	rsi, qword ptr [r14 + 8]
	call	__ZN4core3ptr13drop_in_place17hd5a2ebb0575069efE
	mov	rdi, r15
	call	__Unwind_Resume
	ud2
Lfunc_end0:
	.cfi_endproc
	.section	__TEXT,__gcc_except_tab
	.p2align	2
GCC_except_table9:
Lexception0:
	.byte	255
	.byte	255
	.byte	1
	.uleb128 Lcst_end0-Lcst_begin0
Lcst_begin0:
	.uleb128 Ltmp0-Lfunc_begin0
	.uleb128 Ltmp1-Ltmp0
	.uleb128 Ltmp2-Lfunc_begin0
	.byte	0
	.uleb128 Ltmp3-Lfunc_begin0
	.uleb128 Ltmp4-Ltmp3
	.uleb128 Ltmp5-Lfunc_begin0
	.byte	0
	.uleb128 Ltmp4-Lfunc_begin0
	.uleb128 Lfunc_end0-Ltmp4
	.byte	0
	.byte	0
Lcst_end0:
	.p2align	2

	.section	__TEXT,__text,regular,pure_instructions
	.p2align	4, 0x90
__ZN4core3ptr13drop_in_place17h78b594739553970dE:
	.cfi_startproc
	push	rbp
	.cfi_def_cfa_offset 16
	.cfi_offset rbp, -16
	mov	rbp, rsp
	.cfi_def_cfa_register rbp
	push	rbx
	push	rax
	.cfi_offset rbx, -24
	mov	rbx, rdi
	mov	rdi, qword ptr [rdi]
	test	rdi, rdi
	je	LBB10_3
	mov	rsi, qword ptr [rbx + 8]
	test	rsi, rsi
	je	LBB10_3
	mov	edx, 1
	call	___rust_dealloc
LBB10_3:
	mov	rdi, qword ptr [rbx + 24]
	test	rdi, rdi
	je	LBB10_5
	mov	rsi, qword ptr [rbx + 32]
	test	rsi, rsi
	je	LBB10_5
	mov	edx, 1
	add	rsp, 8
	pop	rbx
	pop	rbp
	jmp	___rust_dealloc
LBB10_5:
	add	rsp, 8
	pop	rbx
	pop	rbp
	ret
	.cfi_endproc

	.p2align	4, 0x90
__ZN4core3ptr13drop_in_place17h9ad9d2daf7a7513bE:
Lfunc_begin1:
	.cfi_startproc
	.cfi_personality 155, _rust_eh_personality
	.cfi_lsda 16, Lexception1
	push	rbp
	.cfi_def_cfa_offset 16
	.cfi_offset rbp, -16
	mov	rbp, rsp
	.cfi_def_cfa_register rbp
	push	r15
	push	r14
	push	r13
	push	r12
	push	rbx
	sub	rsp, 120
	.cfi_offset rbx, -56
	.cfi_offset r12, -48
	.cfi_offset r13, -40
	.cfi_offset r14, -32
	.cfi_offset r15, -24
	mov	r14, rdi
	mov	rax, qword ptr [rdi]
	mov	byte ptr [rax], 0
	mov	rsi, qword ptr [rdi + 8]
	test	rsi, rsi
	je	LBB11_2
	mov	rdi, qword ptr [r14]
	mov	edx, 1
	call	___rust_dealloc
LBB11_2:
	mov	rbx, qword ptr [r14 + 16]
	mov	r15, qword ptr [r14 + 32]
	test	r15, r15
	je	LBB11_8
	shl	r15, 4
	add	r15, rbx
	jmp	LBB11_4
	.p2align	4, 0x90
LBB11_6:
	add	rbx, 16
	cmp	rbx, r15
	je	LBB11_7
LBB11_4:
	mov	rax, qword ptr [rbx]
	mov	byte ptr [rax], 0
	mov	rsi, qword ptr [rbx + 8]
	test	rsi, rsi
	je	LBB11_6
	mov	rdi, qword ptr [rbx]
	mov	edx, 1
	call	___rust_dealloc
	jmp	LBB11_6
LBB11_7:
	mov	rbx, qword ptr [r14 + 16]
LBB11_8:
	mov	rsi, qword ptr [r14 + 24]
	test	rsi, rsi
	je	LBB11_12
	test	rbx, rbx
	je	LBB11_12
	shl	rsi, 4
	je	LBB11_12
	mov	edx, 8
	mov	rdi, rbx
	call	___rust_dealloc
LBB11_12:
	mov	rsi, qword ptr [r14 + 48]
	test	rsi, rsi
	je	LBB11_16
	mov	rdi, qword ptr [r14 + 40]
	test	rdi, rdi
	je	LBB11_16
	shl	rsi, 3
	test	rsi, rsi
	je	LBB11_16
	mov	edx, 8
	call	___rust_dealloc
LBB11_16:
	mov	rcx, qword ptr [r14 + 64]
	test	rcx, rcx
	je	LBB11_17
	mov	rdi, qword ptr [r14 + 72]
	mov	rax, qword ptr [r14 + 80]
	movzx	edx, word ptr [rcx + 10]
	test	rdi, rdi
	je	LBB11_32
	mov	bl, 1
	mov	rsi, rcx
	.p2align	4, 0x90
LBB11_36:
	test	bl, 1
	je	LBB11_33
	cmp	rdi, 1
	setne	bl
	mov	rcx, qword ptr [rcx + 544]
	mov	rsi, qword ptr [rsi + 8*rdx + 544]
	movzx	edx, word ptr [rsi + 10]
	dec	rdi
	jne	LBB11_36
	jmp	LBB11_38
LBB11_17:
	mov	qword ptr [rbp - 104], 0
	mov	qword ptr [rbp - 72], 0
	xor	eax, eax
	jmp	LBB11_39
LBB11_32:
	mov	rsi, rcx
LBB11_38:
	mov	qword ptr [rbp - 112], 0
	mov	qword ptr [rbp - 104], rcx
	mov	qword ptr [rbp - 96], 0
	mov	qword ptr [rbp - 88], 0
	mov	qword ptr [rbp - 80], 0
	mov	qword ptr [rbp - 72], rsi
	mov	qword ptr [rbp - 64], 0
	mov	qword ptr [rbp - 56], rdx
LBB11_39:
	mov	qword ptr [rbp - 48], rax
Ltmp8:
	lea	rdi, [rbp - 160]
	lea	rsi, [rbp - 112]
	call	__ZN112_$LT$alloc..collections..btree..map..IntoIter$LT$K$C$V$GT$$u20$as$u20$core..iter..traits..iterator..Iterator$GT$4next17hdb4a8937016001aaE
Ltmp9:
	mov	rdi, qword ptr [rbp - 160]
	test	rdi, rdi
	je	LBB11_50
	lea	r15, [rbp - 160]
	lea	r12, [rbp - 112]
	.p2align	4, 0x90
LBB11_42:
	mov	rbx, qword ptr [rbp - 136]
	mov	r13, qword ptr [rbp - 128]
	test	rdi, rdi
	je	LBB11_45
	mov	rsi, qword ptr [rbp - 152]
	test	rsi, rsi
	je	LBB11_45
	mov	edx, 1
	call	___rust_dealloc
LBB11_45:
	test	rbx, rbx
	je	LBB11_48
	test	r13, r13
	je	LBB11_48
	mov	edx, 1
	mov	rdi, rbx
	mov	rsi, r13
	call	___rust_dealloc
LBB11_48:
Ltmp11:
	mov	rdi, r15
	mov	rsi, r12
	call	__ZN112_$LT$alloc..collections..btree..map..IntoIter$LT$K$C$V$GT$$u20$as$u20$core..iter..traits..iterator..Iterator$GT$4next17hdb4a8937016001aaE
Ltmp12:
	mov	rdi, qword ptr [rbp - 160]
	test	rdi, rdi
	jne	LBB11_42
LBB11_50:
	mov	rdi, qword ptr [rbp - 104]
	test	rdi, rdi
	je	LBB11_27
	mov	rax, qword ptr [rbp - 112]
	mov	r15d, 544
	.p2align	4, 0x90
LBB11_52:
	mov	r12, qword ptr [rdi]
	xor	ebx, ebx
	test	r12, r12
	setne	bl
	add	rbx, rax
	test	rax, rax
	mov	esi, 640
	cmove	rsi, r15
	mov	edx, 8
	call	___rust_dealloc
	mov	rax, rbx
	mov	rdi, r12
	test	r12, r12
	jne	LBB11_52
LBB11_27:
	mov	rax, qword ptr [r14 + 96]
	test	rax, rax
	je	LBB11_30
	mov	byte ptr [rax], 0
	mov	rsi, qword ptr [r14 + 104]
	test	rsi, rsi
	je	LBB11_30
	mov	rdi, qword ptr [r14 + 96]
	mov	edx, 1
	call	___rust_dealloc
LBB11_30:
	lea	rdi, [r14 + 112]
Ltmp14:
	call	__ZN4core3ptr13drop_in_place17h68dec94ea177bc52E
Ltmp15:
	cmp	dword ptr [r14 + 152], 3
	jne	LBB11_23
	lea	rdi, [r14 + 156]
Ltmp17:
	call	__ZN70_$LT$std..sys..unix..fd..FileDesc$u20$as$u20$core..ops..drop..Drop$GT$4drop17hf5fce2bf4d9f8deaE
Ltmp18:
LBB11_23:
	cmp	dword ptr [r14 + 160], 3
	jne	LBB11_21
	lea	rdi, [r14 + 164]
Ltmp20:
	call	__ZN70_$LT$std..sys..unix..fd..FileDesc$u20$as$u20$core..ops..drop..Drop$GT$4drop17hf5fce2bf4d9f8deaE
Ltmp21:
LBB11_21:
	cmp	dword ptr [r14 + 168], 3
	jne	LBB11_59
	add	r14, 172
	mov	rdi, r14
	add	rsp, 120
	pop	rbx
	pop	r12
	pop	r13
	pop	r14
	pop	r15
	pop	rbp
	jmp	__ZN70_$LT$std..sys..unix..fd..FileDesc$u20$as$u20$core..ops..drop..Drop$GT$4drop17hf5fce2bf4d9f8deaE
LBB11_59:
	add	rsp, 120
	pop	rbx
	pop	r12
	pop	r13
	pop	r14
	pop	r15
	pop	rbp
	ret
LBB11_33:
	lea	rax, [rip + __ZN44_$LT$$RF$T$u20$as$u20$core..fmt..Display$GT$3fmt17hf064ee018a8f9f12E]
	movq	xmm0, rax
	lea	rax, [rip + l___unnamed_4]
	movq	xmm1, rax
	punpcklqdq	xmm1, xmm0
	movdqa	xmmword ptr [rbp - 160], xmm1
	lea	rax, [rip + l___unnamed_5]
	mov	qword ptr [rbp - 112], rax
	mov	qword ptr [rbp - 104], 1
	mov	qword ptr [rbp - 96], 0
	lea	rax, [rbp - 160]
	mov	qword ptr [rbp - 80], rax
	mov	qword ptr [rbp - 72], 1
Ltmp6:
	lea	rsi, [rip + l___unnamed_6]
	lea	rdi, [rbp - 112]
	call	__ZN4core9panicking9panic_fmt17hab6ef1464e9720aaE
Ltmp7:
	ud2
LBB11_58:
Ltmp22:
	mov	rbx, rax
	jmp	LBB11_20
LBB11_18:
Ltmp19:
	mov	rbx, rax
	jmp	LBB11_19
LBB11_54:
Ltmp10:
	jmp	LBB11_55
LBB11_57:
Ltmp16:
	mov	rbx, rax
	jmp	LBB11_56
LBB11_53:
Ltmp13:
LBB11_55:
	mov	rbx, rax
	lea	rdi, [r14 + 96]
	call	__ZN4core3ptr13drop_in_place17h3dceb8b0a4ba533cE
	lea	rdi, [r14 + 112]
	call	__ZN4core3ptr13drop_in_place17h68dec94ea177bc52E
LBB11_56:
	lea	rdi, [r14 + 152]
	call	__ZN4core3ptr13drop_in_place17h2263477bdae3e572E
LBB11_19:
	lea	rdi, [r14 + 160]
	call	__ZN4core3ptr13drop_in_place17h2263477bdae3e572E
LBB11_20:
	add	r14, 168
	mov	rdi, r14
	call	__ZN4core3ptr13drop_in_place17h2263477bdae3e572E
	mov	rdi, rbx
	call	__Unwind_Resume
	ud2
Lfunc_end1:
	.cfi_endproc
	.section	__TEXT,__gcc_except_tab
	.p2align	2
GCC_except_table11:
Lexception1:
	.byte	255
	.byte	255
	.byte	1
	.uleb128 Lcst_end1-Lcst_begin1
Lcst_begin1:
	.uleb128 Ltmp8-Lfunc_begin1
	.uleb128 Ltmp9-Ltmp8
	.uleb128 Ltmp10-Lfunc_begin1
	.byte	0
	.uleb128 Ltmp11-Lfunc_begin1
	.uleb128 Ltmp12-Ltmp11
	.uleb128 Ltmp13-Lfunc_begin1
	.byte	0
	.uleb128 Ltmp14-Lfunc_begin1
	.uleb128 Ltmp15-Ltmp14
	.uleb128 Ltmp16-Lfunc_begin1
	.byte	0
	.uleb128 Ltmp17-Lfunc_begin1
	.uleb128 Ltmp18-Ltmp17
	.uleb128 Ltmp19-Lfunc_begin1
	.byte	0
	.uleb128 Ltmp20-Lfunc_begin1
	.uleb128 Ltmp21-Ltmp20
	.uleb128 Ltmp22-Lfunc_begin1
	.byte	0
	.uleb128 Ltmp21-Lfunc_begin1
	.uleb128 Ltmp6-Ltmp21
	.byte	0
	.byte	0
	.uleb128 Ltmp6-Lfunc_begin1
	.uleb128 Ltmp7-Ltmp6
	.uleb128 Ltmp10-Lfunc_begin1
	.byte	0
	.uleb128 Ltmp7-Lfunc_begin1
	.uleb128 Lfunc_end1-Ltmp7
	.byte	0
	.byte	0
Lcst_end1:
	.p2align	2

	.section	__TEXT,__text,regular,pure_instructions
	.p2align	4, 0x90
__ZN4core3ptr13drop_in_place17hc88a553504022e41E:
Lfunc_begin2:
	.cfi_startproc
	.cfi_personality 155, _rust_eh_personality
	.cfi_lsda 16, Lexception2
	push	rbp
	.cfi_def_cfa_offset 16
	.cfi_offset rbp, -16
	mov	rbp, rsp
	.cfi_def_cfa_register rbp
	push	r14
	push	rbx
	.cfi_offset rbx, -32
	.cfi_offset r14, -24
	mov	rbx, rdi
	mov	rdi, qword ptr [rdi]
	mov	rax, qword ptr [rbx + 8]
Ltmp23:
	call	qword ptr [rax]
Ltmp24:
	mov	rax, qword ptr [rbx + 8]
	mov	rsi, qword ptr [rax + 8]
	test	rsi, rsi
	je	LBB12_2
	mov	rdi, qword ptr [rbx]
	mov	rdx, qword ptr [rax + 16]
	pop	rbx
	pop	r14
	pop	rbp
	jmp	___rust_dealloc
LBB12_2:
	pop	rbx
	pop	r14
	pop	rbp
	ret
LBB12_3:
Ltmp25:
	mov	r14, rax
	mov	rdi, qword ptr [rbx]
	mov	rsi, qword ptr [rbx + 8]
	call	__ZN5alloc5alloc8box_free17h29da4fd65aca6089E
	mov	rdi, r14
	call	__Unwind_Resume
	ud2
Lfunc_end2:
	.cfi_endproc
	.section	__TEXT,__gcc_except_tab
	.p2align	2
GCC_except_table12:
Lexception2:
	.byte	255
	.byte	255
	.byte	1
	.uleb128 Lcst_end2-Lcst_begin2
Lcst_begin2:
	.uleb128 Ltmp23-Lfunc_begin2
	.uleb128 Ltmp24-Ltmp23
	.uleb128 Ltmp25-Lfunc_begin2
	.byte	0
	.uleb128 Ltmp24-Lfunc_begin2
	.uleb128 Lfunc_end2-Ltmp24
	.byte	0
	.byte	0
Lcst_end2:
	.p2align	2

	.section	__TEXT,__text,regular,pure_instructions
	.p2align	4, 0x90
__ZN4core3ptr13drop_in_place17hd5a2ebb0575069efE:
	.cfi_startproc
	push	rbp
	.cfi_def_cfa_offset 16
	.cfi_offset rbp, -16
	mov	rbp, rsp
	.cfi_def_cfa_register rbp
	test	rsi, rsi
	je	LBB13_3
	test	rdi, rdi
	je	LBB13_3
	shl	rsi, 4
	je	LBB13_3
	mov	edx, 8
	pop	rbp
	jmp	___rust_dealloc
LBB13_3:
	pop	rbp
	ret
	.cfi_endproc

	.p2align	4, 0x90
__ZN5alloc5alloc8box_free17h29da4fd65aca6089E:
	.cfi_startproc
	push	rbp
	.cfi_def_cfa_offset 16
	.cfi_offset rbp, -16
	mov	rbp, rsp
	.cfi_def_cfa_register rbp
	mov	rax, rsi
	mov	rsi, qword ptr [rsi + 8]
	test	rsi, rsi
	je	LBB14_1
	mov	rdx, qword ptr [rax + 16]
	pop	rbp
	jmp	___rust_dealloc
LBB14_1:
	pop	rbp
	ret
	.cfi_endproc

	.p2align	4, 0x90
__ZN5alloc5alloc8box_free17h579fad4c2fccfe6bE:
	.cfi_startproc
	push	rbp
	.cfi_def_cfa_offset 16
	.cfi_offset rbp, -16
	mov	rbp, rsp
	.cfi_def_cfa_register rbp
	mov	esi, 24
	mov	edx, 8
	pop	rbp
	jmp	___rust_dealloc
	.cfi_endproc

	.p2align	4, 0x90
__ZN84_$LT$core..str..Split$LT$P$GT$$u20$as$u20$core..iter..traits..iterator..Iterator$GT$4next17haf26decf37fdb5f8E:
	.cfi_startproc
	push	rbp
	.cfi_def_cfa_offset 16
	.cfi_offset rbp, -16
	mov	rbp, rsp
	.cfi_def_cfa_register rbp
	push	r15
	push	r14
	push	r13
	push	r12
	push	rbx
	sub	rsp, 24
	.cfi_offset rbx, -56
	.cfi_offset r12, -48
	.cfi_offset r13, -40
	.cfi_offset r14, -32
	.cfi_offset r15, -24
	cmp	byte ptr [rdi + 65], 0
	jne	LBB16_1
	mov	r13, rdi
	mov	rsi, qword ptr [rdi + 32]
	mov	rax, qword ptr [rdi + 40]
	mov	rdx, rax
	sub	rdx, rsi
	jb	LBB16_16
	cmp	qword ptr [r13 + 24], rax
	jb	LBB16_16
	mov	rcx, qword ptr [r13 + 16]
	mov	rax, qword ptr [r13 + 48]
	mov	qword ptr [rbp - 56], rcx
	add	rsi, rcx
	movzx	edi, byte ptr [rax + r13 + 59]
	call	__ZN4core5slice6memchr6memchr17h319ffdabcbdf42caE
	cmp	rax, 1
	jne	LBB16_15
	lea	rax, [r13 + 60]
	mov	qword ptr [rbp - 48], rax
	.p2align	4, 0x90
LBB16_6:
	mov	rax, qword ptr [r13 + 32]
	mov	r15, qword ptr [r13 + 48]
	lea	rbx, [rdx + rax + 1]
	mov	qword ptr [r13 + 32], rbx
	mov	r12, rbx
	sub	r12, r15
	jae	LBB16_8
	mov	r14, qword ptr [r13 + 24]
	mov	rax, qword ptr [r13 + 40]
	mov	rdx, rax
	sub	rdx, rbx
	jae	LBB16_13
	jmp	LBB16_16
	.p2align	4, 0x90
LBB16_8:
	mov	r14, qword ptr [r13 + 24]
	cmp	r14, rbx
	jb	LBB16_12
	cmp	r15, 5
	jae	LBB16_23
	mov	rdi, qword ptr [r13 + 16]
	add	rdi, r12
	cmp	rdi, qword ptr [rbp - 48]
	je	LBB16_21
	mov	rsi, qword ptr [rbp - 48]
	mov	rdx, r15
	call	_bcmp
	test	eax, eax
	je	LBB16_21
LBB16_12:
	mov	rax, qword ptr [r13 + 40]
	mov	rdx, rax
	sub	rdx, rbx
	jb	LBB16_16
LBB16_13:
	cmp	r14, rax
	jb	LBB16_16
	add	rbx, qword ptr [r13 + 16]
	movzx	edi, byte ptr [r15 + r13 + 59]
	mov	rsi, rbx
	call	__ZN4core5slice6memchr6memchr17h319ffdabcbdf42caE
	cmp	rax, 1
	je	LBB16_6
LBB16_15:
	mov	rax, qword ptr [r13 + 40]
	mov	qword ptr [r13 + 32], rax
LBB16_16:
	cmp	byte ptr [r13 + 65], 0
	je	LBB16_17
LBB16_1:
	xor	eax, eax
LBB16_22:
	mov	rdx, r12
	add	rsp, 24
	pop	rbx
	pop	r12
	pop	r13
	pop	r14
	pop	r15
	pop	rbp
	ret
LBB16_17:
	cmp	byte ptr [r13 + 64], 0
	je	LBB16_19
	mov	rax, qword ptr [r13]
	mov	r12, qword ptr [r13 + 8]
	jmp	LBB16_20
LBB16_19:
	mov	rax, qword ptr [r13]
	mov	r12, qword ptr [r13 + 8]
	cmp	r12, rax
	je	LBB16_1
LBB16_20:
	mov	byte ptr [r13 + 65], 1
	sub	r12, rax
	add	rax, qword ptr [r13 + 16]
	jmp	LBB16_22
LBB16_21:
	mov	rcx, qword ptr [r13]
	mov	rax, qword ptr [rbp - 56]
	add	rax, rcx
	sub	r12, rcx
	mov	qword ptr [r13], rbx
	jmp	LBB16_22
LBB16_23:
	lea	rdx, [rip + l___unnamed_7]
	mov	esi, 4
	mov	rdi, r15
	call	__ZN4core5slice20slice_index_len_fail17h550a313151a85135E
	.cfi_endproc

	.p2align	4, 0x90
__ZN18build_script_build4main17hac226b899e347250E:
Lfunc_begin3:
	.cfi_startproc
	.cfi_personality 155, _rust_eh_personality
	.cfi_lsda 16, Lexception3
	push	rbp
	.cfi_def_cfa_offset 16
	.cfi_offset rbp, -16
	mov	rbp, rsp
	.cfi_def_cfa_register rbp
	push	r15
	push	r14
	push	rbx
	sub	rsp, 536
	.cfi_offset rbx, -40
	.cfi_offset r14, -32
	.cfi_offset r15, -24
	lea	rsi, [rip + l___unnamed_8]
	lea	rdi, [rbp - 288]
	mov	edx, 5
	call	__ZN3std3env7_var_os17hc8b7303001145450E
	cmp	qword ptr [rbp - 288], 0
	je	LBB17_23
	mov	rdx, qword ptr [rbp - 272]
	mov	qword ptr [rbp - 296], rdx
	mov	rbx, qword ptr [rbp - 288]
	mov	rax, qword ptr [rbp - 280]
	mov	qword ptr [rbp - 304], rax
	mov	qword ptr [rbp - 312], rbx
	mov	qword ptr [rbp - 88], rdx
	mov	qword ptr [rbp - 96], rax
	mov	qword ptr [rbp - 104], rbx
Ltmp26:
	lea	rdi, [rbp - 288]
	mov	rsi, rbx
	call	__ZN3std3sys4unix7process14process_common7Command3new17hcd746a384cbb0b47E
Ltmp27:
	lea	rdi, [rbp - 560]
	lea	rsi, [rbp - 288]
	mov	edx, 184
	call	_memcpy
	mov	rsi, qword ptr [rbp - 96]
	test	rsi, rsi
	je	LBB17_4
	mov	edx, 1
	mov	rdi, rbx
	call	___rust_dealloc
LBB17_4:
Ltmp29:
	lea	rsi, [rip + l___unnamed_9]
	lea	rdi, [rbp - 560]
	mov	edx, 9
	call	__ZN3std3sys4unix7process14process_common7Command3arg17hc476c471a9efd12bE
Ltmp30:
Ltmp31:
	lea	rdi, [rbp - 376]
	lea	rsi, [rbp - 560]
	call	__ZN3std7process7Command6output17h3119df81721f3b73E
Ltmp32:
	cmp	qword ptr [rbp - 376], 1
	jne	LBB17_13
	cmp	byte ptr [rbp - 368], 2
	jb	LBB17_12
	mov	rbx, qword ptr [rbp - 360]
	mov	rdi, qword ptr [rbx]
	mov	rax, qword ptr [rbx + 8]
Ltmp45:
	call	qword ptr [rax]
Ltmp46:
	mov	rax, qword ptr [rbx + 8]
	mov	rsi, qword ptr [rax + 8]
	test	rsi, rsi
	je	LBB17_11
	mov	rdi, qword ptr [rbx]
	mov	rdx, qword ptr [rax + 16]
	call	___rust_dealloc
LBB17_11:
	mov	esi, 24
	mov	edx, 8
	mov	rdi, rbx
	call	___rust_dealloc
LBB17_12:
Ltmp48:
	lea	rdi, [rbp - 560]
	call	__ZN4core3ptr13drop_in_place17h9ad9d2daf7a7513bE
Ltmp49:
	jmp	LBB17_23
LBB17_13:
	lea	rax, [rbp - 368]
	mov	rcx, qword ptr [rax + 48]
	mov	qword ptr [rbp - 32], rcx
	mov	rcx, qword ptr [rax + 40]
	mov	qword ptr [rbp - 40], rcx
	mov	rcx, qword ptr [rax + 32]
	mov	qword ptr [rbp - 48], rcx
	mov	rcx, qword ptr [rax + 24]
	mov	qword ptr [rbp - 56], rcx
	mov	rcx, qword ptr [rax + 16]
	mov	qword ptr [rbp - 64], rcx
	mov	rcx, qword ptr [rax]
	mov	rax, qword ptr [rax + 8]
	mov	qword ptr [rbp - 72], rax
	mov	qword ptr [rbp - 80], rcx
Ltmp34:
	lea	rdi, [rbp - 560]
	call	__ZN4core3ptr13drop_in_place17h9ad9d2daf7a7513bE
Ltmp35:
	mov	r15, qword ptr [rbp - 80]
	mov	rdx, qword ptr [rbp - 64]
Ltmp36:
	lea	rdi, [rbp - 288]
	mov	rsi, r15
	call	__ZN4core3str9from_utf817he06957962f38305fE
Ltmp37:
	cmp	qword ptr [rbp - 288], 1
	jne	LBB17_24
LBB17_16:
	xor	ebx, ebx
	mov	rsi, qword ptr [rbp - 72]
	test	rsi, rsi
	jne	LBB17_18
	jmp	LBB17_19
LBB17_24:
	movdqu	xmm0, xmmword ptr [rbp - 280]
	mov	qword ptr [rbp - 288], 0
	pshufd	xmm1, xmm0, 78
	movq	qword ptr [rbp - 280], xmm1
	movdqu	xmmword ptr [rbp - 272], xmm0
	mov	qword ptr [rbp - 256], 0
	movq	qword ptr [rbp - 248], xmm1
	mov	qword ptr [rbp - 240], 1
	movabs	rax, 197568495662
	mov	qword ptr [rbp - 232], rax
	mov	word ptr [rbp - 224], 1
Ltmp38:
	lea	rdi, [rbp - 288]
	call	__ZN84_$LT$core..str..Split$LT$P$GT$$u20$as$u20$core..iter..traits..iterator..Iterator$GT$4next17haf26decf37fdb5f8E
Ltmp39:
	xor	esi, esi
	test	rax, rax
	setne	sil
	lea	rcx, [rip + l___unnamed_10]
	xor	edi, edi
	test	rcx, rcx
	setne	dil
	mov	bl, 1
	cmp	rsi, rdi
	jne	LBB17_17
	test	rax, rax
	je	LBB17_31
	test	rcx, rcx
	je	LBB17_31
	cmp	rdx, 7
	jne	LBB17_17
	cmp	rax, rcx
	je	LBB17_31
	mov	ecx, 1953723762
	xor	ecx, dword ptr [rax]
	mov	edx, 824206196
	xor	edx, dword ptr [rax + 3]
	or	edx, ecx
	je	LBB17_31
LBB17_17:
	mov	rsi, qword ptr [rbp - 72]
	test	rsi, rsi
	je	LBB17_19
LBB17_18:
	mov	edx, 1
	mov	rdi, r15
	call	___rust_dealloc
LBB17_19:
	mov	rdi, qword ptr [rbp - 56]
	test	rdi, rdi
	je	LBB17_22
	mov	rsi, qword ptr [rbp - 48]
	test	rsi, rsi
	je	LBB17_22
	mov	edx, 1
	call	___rust_dealloc
LBB17_22:
	test	bl, bl
	je	LBB17_23
LBB17_41:
	lea	rax, [rip + l___unnamed_11]
	mov	qword ptr [rbp - 288], rax
	mov	qword ptr [rbp - 280], 1
	mov	qword ptr [rbp - 272], 0
	lea	rax, [rip + l___unnamed_12]
	mov	qword ptr [rbp - 256], rax
	mov	qword ptr [rbp - 248], 0
	lea	rdi, [rbp - 288]
	call	__ZN3std2io5stdio6_print17hdea2154009b9e479E
LBB17_23:
	add	rsp, 536
	pop	rbx
	pop	r14
	pop	r15
	pop	rbp
	ret
LBB17_31:
Ltmp40:
	lea	rdi, [rbp - 288]
	call	__ZN84_$LT$core..str..Split$LT$P$GT$$u20$as$u20$core..iter..traits..iterator..Iterator$GT$4next17haf26decf37fdb5f8E
Ltmp41:
	test	rax, rax
	je	LBB17_16
Ltmp42:
	mov	rdi, rax
	mov	rsi, rdx
	call	__ZN4core3num52_$LT$impl$u20$core..str..FromStr$u20$for$u20$u32$GT$8from_str17hb8ee2851a4cfefb0E
Ltmp43:
	mov	r14, rax
	mov	rsi, qword ptr [rbp - 72]
	test	rsi, rsi
	je	LBB17_36
	mov	edx, 1
	mov	rdi, r15
	call	___rust_dealloc
LBB17_36:
	mov	rdi, qword ptr [rbp - 56]
	test	rdi, rdi
	je	LBB17_39
	mov	rsi, qword ptr [rbp - 48]
	test	rsi, rsi
	je	LBB17_39
	mov	edx, 1
	call	___rust_dealloc
LBB17_39:
	test	r14b, 1
	jne	LBB17_23
	shr	r14, 32
	cmp	r14d, 27
	jae	LBB17_41
	jmp	LBB17_23
LBB17_48:
Ltmp47:
	mov	r14, rax
	mov	rdi, qword ptr [rbx]
	mov	rsi, qword ptr [rbx + 8]
	call	__ZN5alloc5alloc8box_free17h29da4fd65aca6089E
	mov	rdi, rbx
	call	__ZN5alloc5alloc8box_free17h579fad4c2fccfe6bE
	jmp	LBB17_46
LBB17_44:
Ltmp50:
	mov	r14, rax
	mov	rdi, r14
	call	__Unwind_Resume
	ud2
LBB17_47:
Ltmp28:
	mov	r14, rax
	lea	rdi, [rbp - 104]
	call	__ZN4core3ptr13drop_in_place17h19ceedd8e1796e5eE
	mov	rdi, r14
	call	__Unwind_Resume
	ud2
LBB17_42:
Ltmp44:
	mov	r14, rax
	lea	rdi, [rbp - 80]
	call	__ZN4core3ptr13drop_in_place17h78b594739553970dE
	mov	rdi, r14
	call	__Unwind_Resume
	ud2
LBB17_45:
Ltmp33:
	mov	r14, rax
LBB17_46:
	lea	rdi, [rbp - 560]
	call	__ZN4core3ptr13drop_in_place17h9ad9d2daf7a7513bE
	mov	rdi, r14
	call	__Unwind_Resume
	ud2
Lfunc_end3:
	.cfi_endproc
	.section	__TEXT,__gcc_except_tab
	.p2align	2
GCC_except_table17:
Lexception3:
	.byte	255
	.byte	255
	.byte	1
	.uleb128 Lcst_end3-Lcst_begin3
Lcst_begin3:
	.uleb128 Lfunc_begin3-Lfunc_begin3
	.uleb128 Ltmp26-Lfunc_begin3
	.byte	0
	.byte	0
	.uleb128 Ltmp26-Lfunc_begin3
	.uleb128 Ltmp27-Ltmp26
	.uleb128 Ltmp28-Lfunc_begin3
	.byte	0
	.uleb128 Ltmp27-Lfunc_begin3
	.uleb128 Ltmp29-Ltmp27
	.byte	0
	.byte	0
	.uleb128 Ltmp29-Lfunc_begin3
	.uleb128 Ltmp32-Ltmp29
	.uleb128 Ltmp33-Lfunc_begin3
	.byte	0
	.uleb128 Ltmp45-Lfunc_begin3
	.uleb128 Ltmp46-Ltmp45
	.uleb128 Ltmp47-Lfunc_begin3
	.byte	0
	.uleb128 Ltmp48-Lfunc_begin3
	.uleb128 Ltmp49-Ltmp48
	.uleb128 Ltmp50-Lfunc_begin3
	.byte	0
	.uleb128 Ltmp34-Lfunc_begin3
	.uleb128 Ltmp39-Ltmp34
	.uleb128 Ltmp44-Lfunc_begin3
	.byte	0
	.uleb128 Ltmp39-Lfunc_begin3
	.uleb128 Ltmp40-Ltmp39
	.byte	0
	.byte	0
	.uleb128 Ltmp40-Lfunc_begin3
	.uleb128 Ltmp43-Ltmp40
	.uleb128 Ltmp44-Lfunc_begin3
	.byte	0
	.uleb128 Ltmp43-Lfunc_begin3
	.uleb128 Lfunc_end3-Ltmp43
	.byte	0
	.byte	0
Lcst_end3:
	.p2align	2

	.section	__TEXT,__text,regular,pure_instructions
	.globl	_main
	.p2align	4, 0x90
_main:
	.cfi_startproc
	push	rbp
	.cfi_def_cfa_offset 16
	.cfi_offset rbp, -16
	mov	rbp, rsp
	.cfi_def_cfa_register rbp
	sub	rsp, 16
	mov	rcx, rsi
	movsxd	rdx, edi
	lea	rax, [rip + __ZN18build_script_build4main17hac226b899e347250E]
	mov	qword ptr [rbp - 8], rax
	lea	rsi, [rip + l___unnamed_3]
	lea	rdi, [rbp - 8]
	call	__ZN3std2rt19lang_start_internal17hebefdaa8fd585aefE
	add	rsp, 16
	pop	rbp
	ret
	.cfi_endproc

	.section	__TEXT,__const
l___unnamed_13:
	.ascii	"/rustc/a74d1862d4d87a56244958416fd05976c58ca1a8/src/liballoc/collections/btree/map.rs"

	.section	__DATA,__const
	.p2align	3
l___unnamed_2:
	.quad	l___unnamed_13
	.asciz	"U\000\000\000\000\000\000\000C\006\000\000\033\000\000"

	.p2align	3
l___unnamed_3:
	.quad	__ZN4core3ptr13drop_in_place17h16ecb60de0ebaa27E
	.quad	8
	.quad	8
	.quad	__ZN3std2rt10lang_start28_$u7b$$u7b$closure$u7d$$u7d$17hc4df0d38b443ca02E
	.quad	__ZN3std2rt10lang_start28_$u7b$$u7b$closure$u7d$$u7d$17hc4df0d38b443ca02E
	.quad	__ZN4core3ops8function6FnOnce40call_once$u7b$$u7b$vtable.shim$u7d$$u7d$17hf34e08899d07b312E

	.section	__TEXT,__const
l___unnamed_14:
	.ascii	"/rustc/a74d1862d4d87a56244958416fd05976c58ca1a8/src/libcore/macros/mod.rs"

	.section	__DATA,__const
	.p2align	3
l___unnamed_6:
	.quad	l___unnamed_14
	.asciz	"I\000\000\000\000\000\000\000\020\000\000\000\t\000\000"

	.section	__TEXT,__const
l___unnamed_1:
	.ascii	"called `Option::unwrap()` on a `None` value"

l___unnamed_15:
	.ascii	"internal error: entered unreachable code: "

	.section	__DATA,__const
	.p2align	3
l___unnamed_5:
	.quad	l___unnamed_15
	.asciz	"*\000\000\000\000\000\000"

	.section	__TEXT,__const
l___unnamed_16:
	.ascii	"BTreeMap has different depths"

	.section	__DATA,__const
	.p2align	3
l___unnamed_4:
	.quad	l___unnamed_16
	.asciz	"\035\000\000\000\000\000\000"

	.section	__TEXT,__const
l___unnamed_17:
	.ascii	"/rustc/a74d1862d4d87a56244958416fd05976c58ca1a8/src/libcore/str/pattern.rs"

	.section	__DATA,__const
	.p2align	3
l___unnamed_7:
	.quad	l___unnamed_17
	.asciz	"J\000\000\000\000\000\000\000\213\001\000\000&\000\000"

	.section	__TEXT,__const
l___unnamed_18:
	.ascii	"cargo:rustc-cfg=has_dyn_trait\n"

	.section	__DATA,__const
	.p2align	3
l___unnamed_11:
	.quad	l___unnamed_18
	.asciz	"\036\000\000\000\000\000\000"

	.section	__TEXT,__const
	.p2align	3
l___unnamed_12:
	.byte	0

l___unnamed_8:
	.ascii	"RUSTC"

l___unnamed_9:
	.ascii	"--version"

l___unnamed_10:
	.ascii	"rustc 1"


.subsections_via_symbols
