	.section	__TEXT,__text,regular,pure_instructions
	.macosx_version_min 10, 7
	.p2align	4, 0x90
__ZN119_$LT$core..ptr..non_null..NonNull$LT$T$GT$$u20$as$u20$core..convert..From$LT$core..ptr..unique..Unique$LT$T$GT$$GT$$GT$4from17hae0b2ec2581ba09fE:
Lfunc_begin0:
	.file	1 "/rustc/6c8927b0cf80ceee19386026cf9d7fd4fd9d486f/src/libcore/ptr/non_null.rs"
	.loc	1 329 0
	.cfi_startproc
	pushq	%rbp
	.cfi_def_cfa_offset 16
	.cfi_offset %rbp, -16
	movq	%rsp, %rbp
	.cfi_def_cfa_register %rbp
	subq	$32, %rsp
	movq	%rdi, -8(%rbp)
Ltmp0:
	.loc	1 332 41 prologue_end
	callq	__ZN4core3ptr6unique15Unique$LT$T$GT$6as_ptr17hfcd403a3fea93302E
	movq	%rax, -16(%rbp)
	.loc	1 0 41 is_stmt 0
	movq	-16(%rbp), %rdi
	.loc	1 332 18
	callq	__ZN4core3ptr8non_null16NonNull$LT$T$GT$13new_unchecked17h4c5c135ae33634cdE
	movq	%rax, -24(%rbp)
	.loc	1 0 18
	movq	-24(%rbp), %rax
	.loc	1 333 6 is_stmt 1
	addq	$32, %rsp
	popq	%rbp
	retq
Ltmp1:
Lfunc_end0:
	.cfi_endproc

	.p2align	4, 0x90
__ZN3std10sys_common12os_str_bytes5Slice13from_u8_slice17hb6ae91469c45ac02E:
Lfunc_begin1:
	.file	2 "/rustc/6c8927b0cf80ceee19386026cf9d7fd4fd9d486f/src/libstd/sys_common/os_str_bytes.rs"
	.loc	2 155 0
	.cfi_startproc
	pushq	%rbp
	.cfi_def_cfa_offset 16
	.cfi_offset %rbp, -16
	movq	%rsp, %rbp
	.cfi_def_cfa_register %rbp
	subq	$48, %rsp
	movq	%rdi, -32(%rbp)
	movq	%rsi, -24(%rbp)
Ltmp2:
	.loc	2 156 18 prologue_end
	movq	%rdi, -16(%rbp)
	movq	%rsi, -8(%rbp)
	movq	-16(%rbp), %rax
	movq	-8(%rbp), %rdx
	movq	%rax, -40(%rbp)
	movq	%rdx, -48(%rbp)
	.loc	2 0 18 is_stmt 0
	movq	-40(%rbp), %rax
	movq	-48(%rbp), %rdx
	.loc	2 157 6 is_stmt 1
	addq	$48, %rsp
	popq	%rbp
	retq
Ltmp3:
Lfunc_end1:
	.cfi_endproc

	.p2align	4, 0x90
__ZN3std10sys_common12os_str_bytes5Slice8from_str17h2aa97c52e58edbc9E:
Lfunc_begin2:
	.loc	2 160 0
	.cfi_startproc
	pushq	%rbp
	.cfi_def_cfa_offset 16
	.cfi_offset %rbp, -16
	movq	%rsp, %rbp
	.cfi_def_cfa_register %rbp
	subq	$80, %rsp
	movq	%rdi, -48(%rbp)
	movq	%rsi, -40(%rbp)
	movq	%rdi, -16(%rbp)
	movq	%rsi, -8(%rbp)
Ltmp4:
	.file	3 "/rustc/6c8927b0cf80ceee19386026cf9d7fd4fd9d486f/src/libcore/str/mod.rs"
	.loc	3 2359 18 prologue_end
	movq	%rdi, -32(%rbp)
	movq	%rsi, -24(%rbp)
	movq	-32(%rbp), %rdi
	movq	-24(%rbp), %rsi
	movq	%rdi, -56(%rbp)
	movq	%rsi, -64(%rbp)
Ltmp5:
	.loc	3 0 18 is_stmt 0
	movq	-56(%rbp), %rdi
	movq	-64(%rbp), %rsi
	.loc	2 161 9 is_stmt 1
	callq	__ZN3std10sys_common12os_str_bytes5Slice13from_u8_slice17hb6ae91469c45ac02E
	movq	%rax, -72(%rbp)
	movq	%rdx, -80(%rbp)
	.loc	2 0 9 is_stmt 0
	movq	-72(%rbp), %rax
	movq	-80(%rbp), %rdx
	.loc	2 162 6 is_stmt 1
	addq	$80, %rsp
	popq	%rbp
	retq
Ltmp6:
Lfunc_end2:
	.cfi_endproc

	.private_extern	__ZN3std2rt10lang_start17h31b04acb988da7b5E
	.globl	__ZN3std2rt10lang_start17h31b04acb988da7b5E
	.p2align	4, 0x90
__ZN3std2rt10lang_start17h31b04acb988da7b5E:
Lfunc_begin3:
	.file	4 "/rustc/6c8927b0cf80ceee19386026cf9d7fd4fd9d486f/src/libstd/rt.rs"
	.loc	4 62 0
	.cfi_startproc
	pushq	%rbp
	.cfi_def_cfa_offset 16
	.cfi_offset %rbp, -16
	movq	%rsp, %rbp
	.cfi_def_cfa_register %rbp
	subq	$64, %rsp
	leaq	l___unnamed_1(%rip), %rax
	movq	%rdi, -24(%rbp)
	movq	%rsi, -16(%rbp)
	movq	%rdx, -8(%rbp)
Ltmp7:
	.loc	4 67 26 prologue_end
	movq	%rdi, -32(%rbp)
	.loc	4 67 25 is_stmt 0
	leaq	-32(%rbp), %rcx
	.loc	4 67 5
	movq	%rcx, %rdi
	movq	%rsi, -40(%rbp)
	movq	%rax, %rsi
	movq	-40(%rbp), %rax
	movq	%rdx, -48(%rbp)
	movq	%rax, %rdx
	movq	-48(%rbp), %rcx
	callq	__ZN3std2rt19lang_start_internal17hbbd10965adc92ae7E
	movq	%rax, -56(%rbp)
	.loc	4 0 5
	movq	-56(%rbp), %rax
	.loc	4 68 2 is_stmt 1
	addq	$64, %rsp
	popq	%rbp
	retq
Ltmp8:
Lfunc_end3:
	.cfi_endproc

	.p2align	4, 0x90
__ZN3std2rt10lang_start28_$u7b$$u7b$closure$u7d$$u7d$17h0a80c16f09f8c0c6E:
Lfunc_begin4:
	.loc	4 67 0
	.cfi_startproc
	pushq	%rbp
	.cfi_def_cfa_offset 16
	.cfi_offset %rbp, -16
	movq	%rsp, %rbp
	.cfi_def_cfa_register %rbp
	subq	$16, %rsp
	movq	%rdi, -8(%rbp)
Ltmp9:
	.loc	4 67 34 prologue_end
	callq	*(%rdi)
	callq	__ZN54_$LT$$LP$$RP$$u20$as$u20$std..process..Termination$GT$6report17h5fe4c0b183863df2E
	movl	%eax, -12(%rbp)
	.loc	4 0 34 is_stmt 0
	movl	-12(%rbp), %eax
	.loc	4 67 49
	addq	$16, %rsp
	popq	%rbp
	retq
Ltmp10:
Lfunc_end4:
	.cfi_endproc

	.p2align	4, 0x90
__ZN3std3env3var17h7e7541ce4a2df7bfE:
Lfunc_begin5:
	.file	5 "/rustc/6c8927b0cf80ceee19386026cf9d7fd4fd9d486f/src/libstd/env.rs"
	.loc	5 211 0 is_stmt 1
	.cfi_startproc
	.cfi_personality 155, _rust_eh_personality
	.cfi_lsda 16, Lexception0
	pushq	%rbp
	.cfi_def_cfa_offset 16
	.cfi_offset %rbp, -16
	movq	%rsp, %rbp
	.cfi_def_cfa_register %rbp
	subq	$64, %rsp
	movq	%rdi, %rax
	movq	%rsi, -32(%rbp)
	movq	%rdx, -24(%rbp)
Ltmp11:
	leaq	-32(%rbp), %rcx
	movq	%rdi, -40(%rbp)
Ltmp16:
	.loc	5 212 10 prologue_end
	movq	%rcx, %rdi
	movq	%rax, -48(%rbp)
	callq	__ZN55_$LT$$RF$T$u20$as$u20$core..convert..AsRef$LT$U$GT$$GT$6as_ref17h7915a09819e56c89E
Ltmp12:
	movq	%rdx, -56(%rbp)
	movq	%rax, -64(%rbp)
	jmp	LBB5_2
LBB5_1:
	.loc	5 211 1
	movq	-16(%rbp), %rdi
	callq	__Unwind_Resume
	ud2
LBB5_2:
Ltmp13:
	.loc	5 0 1 is_stmt 0
	movq	-40(%rbp), %rdi
	movq	-64(%rbp), %rsi
	movq	-56(%rbp), %rdx
	.loc	5 212 5 is_stmt 1
	callq	__ZN3std3env4_var17h5f49b4c5e0582abcE
Ltmp14:
	jmp	LBB5_4
LBB5_3:
	.loc	5 213 1
	jmp	LBB5_1
LBB5_4:
	jmp	LBB5_5
LBB5_5:
	.loc	5 0 1 is_stmt 0
	movq	-48(%rbp), %rax
	.loc	5 213 2
	addq	$64, %rsp
	popq	%rbp
	retq
Ltmp17:
LBB5_6:
Ltmp15:
	.loc	5 0 2
	movq	%rax, -16(%rbp)
	movl	%edx, -8(%rbp)
	jmp	LBB5_3
Lfunc_end5:
	.cfi_endproc
	.section	__TEXT,__gcc_except_tab
	.p2align	2
GCC_except_table5:
Lexception0:
	.byte	255
	.byte	255
	.byte	1
	.uleb128 Lcst_end0-Lcst_begin0
Lcst_begin0:
	.uleb128 Ltmp11-Lfunc_begin5
	.uleb128 Ltmp12-Ltmp11
	.uleb128 Ltmp15-Lfunc_begin5
	.byte	0
	.uleb128 Ltmp12-Lfunc_begin5
	.uleb128 Ltmp13-Ltmp12
	.byte	0
	.byte	0
	.uleb128 Ltmp13-Lfunc_begin5
	.uleb128 Ltmp14-Ltmp13
	.uleb128 Ltmp15-Lfunc_begin5
	.byte	0
Lcst_end0:
	.p2align	2

	.section	__TEXT,__text,regular,pure_instructions
	.p2align	4, 0x90
__ZN3std3ffi6os_str5OsStr10from_inner17h2e0cf108cf98edb4E:
Lfunc_begin6:
	.file	6 "/rustc/6c8927b0cf80ceee19386026cf9d7fd4fd9d486f/src/libstd/ffi/os_str.rs"
	.loc	6 528 0 is_stmt 1
	.cfi_startproc
	pushq	%rbp
	.cfi_def_cfa_offset 16
	.cfi_offset %rbp, -16
	movq	%rsp, %rbp
	.cfi_def_cfa_register %rbp
	subq	$16, %rsp
	movq	%rdi, -16(%rbp)
	movq	%rsi, -8(%rbp)
Ltmp18:
	.loc	6 532 6 prologue_end
	movq	%rdi, %rax
	movq	%rsi, %rdx
	addq	$16, %rsp
	popq	%rbp
	retq
Ltmp19:
Lfunc_end6:
	.cfi_endproc

	.p2align	4, 0x90
__ZN3std3ffi6os_str85_$LT$impl$u20$core..convert..AsRef$LT$std..ffi..os_str..OsStr$GT$$u20$for$u20$str$GT$6as_ref17h062e173f364b19c6E:
Lfunc_begin7:
	.loc	6 1157 0
	.cfi_startproc
	pushq	%rbp
	.cfi_def_cfa_offset 16
	.cfi_offset %rbp, -16
	movq	%rsp, %rbp
	.cfi_def_cfa_register %rbp
	subq	$48, %rsp
	movq	%rdi, -16(%rbp)
	movq	%rsi, -8(%rbp)
Ltmp20:
	.loc	6 1158 27 prologue_end
	callq	__ZN3std10sys_common12os_str_bytes5Slice8from_str17h2aa97c52e58edbc9E
	movq	%rax, -24(%rbp)
	movq	%rdx, -32(%rbp)
	.loc	6 0 27 is_stmt 0
	movq	-24(%rbp), %rdi
	movq	-32(%rbp), %rsi
	.loc	6 1158 9
	callq	__ZN3std3ffi6os_str5OsStr10from_inner17h2e0cf108cf98edb4E
	movq	%rax, -40(%rbp)
	movq	%rdx, -48(%rbp)
	.loc	6 0 9
	movq	-40(%rbp), %rax
	movq	-48(%rbp), %rdx
	.loc	6 1159 6 is_stmt 1
	addq	$48, %rsp
	popq	%rbp
	retq
Ltmp21:
Lfunc_end7:
	.cfi_endproc

	.p2align	4, 0x90
__ZN3std3sys4unix7process14process_common8ExitCode6as_i3217h989c62f7fb4e6761E:
Lfunc_begin8:
	.file	7 "/rustc/6c8927b0cf80ceee19386026cf9d7fd4fd9d486f/src/libstd/sys/unix/process/process_common.rs"
	.loc	7 398 0
	.cfi_startproc
	pushq	%rbp
	.cfi_def_cfa_offset 16
	.cfi_offset %rbp, -16
	movq	%rsp, %rbp
	.cfi_def_cfa_register %rbp
	pushq	%rax
	movq	%rdi, -8(%rbp)
Ltmp22:
	.loc	7 399 9 prologue_end
	movzbl	(%rdi), %eax
	.loc	7 400 6
	addq	$8, %rsp
	popq	%rbp
	retq
Ltmp23:
Lfunc_end8:
	.cfi_endproc

	.p2align	4, 0x90
__ZN49_$LT$usize$u20$as$u20$core..iter..range..Step$GT$17forward_unchecked17hd2aafb21318ec46fE:
Lfunc_begin9:
	.file	8 "/rustc/6c8927b0cf80ceee19386026cf9d7fd4fd9d486f/src/libcore/iter/range.rs"
	.loc	8 191 0
	.cfi_startproc
	pushq	%rbp
	.cfi_def_cfa_offset 16
	.cfi_offset %rbp, -16
	movq	%rsp, %rbp
	.cfi_def_cfa_register %rbp
	subq	$32, %rsp
	movq	%rdi, -16(%rbp)
	movq	%rsi, -8(%rbp)
Ltmp24:
	.loc	8 193 22 prologue_end
	callq	__ZN4core3num23_$LT$impl$u20$usize$GT$13unchecked_add17h57dce189ab95ba5cE
	movq	%rax, -24(%rbp)
	.loc	8 0 22 is_stmt 0
	movq	-24(%rbp), %rax
	.loc	8 194 10 is_stmt 1
	addq	$32, %rsp
	popq	%rbp
	retq
Ltmp25:
Lfunc_end9:
	.cfi_endproc

	.p2align	4, 0x90
__ZN49_$LT$usize$u20$as$u20$core..iter..range..Step$GT$18backward_unchecked17h207b2bdf48b72dcdE:
Lfunc_begin10:
	.loc	8 197 0
	.cfi_startproc
	pushq	%rbp
	.cfi_def_cfa_offset 16
	.cfi_offset %rbp, -16
	movq	%rsp, %rbp
	.cfi_def_cfa_register %rbp
	subq	$32, %rsp
	movq	%rdi, -16(%rbp)
	movq	%rsi, -8(%rbp)
Ltmp26:
	.loc	8 199 22 prologue_end
	callq	__ZN4core3num23_$LT$impl$u20$usize$GT$13unchecked_sub17h81aae1ade01a114cE
	movq	%rax, -24(%rbp)
	.loc	8 0 22 is_stmt 0
	movq	-24(%rbp), %rax
	.loc	8 200 10 is_stmt 1
	addq	$32, %rsp
	popq	%rbp
	retq
Ltmp27:
Lfunc_end10:
	.cfi_endproc

	.p2align	4, 0x90
__ZN4core10intrinsics19copy_nonoverlapping17h33cf3de3fedfc1d3E:
Lfunc_begin11:
	.file	9 "/rustc/6c8927b0cf80ceee19386026cf9d7fd4fd9d486f/src/libcore/intrinsics.rs"
	.loc	9 2114 0
	.cfi_startproc
	pushq	%rbp
	.cfi_def_cfa_offset 16
	.cfi_offset %rbp, -16
	movq	%rsp, %rbp
	.cfi_def_cfa_register %rbp
	subq	$32, %rsp
	movq	%rdi, -24(%rbp)
	movq	%rsi, -16(%rbp)
	movq	%rdx, -8(%rbp)
Ltmp28:
	.loc	9 2130 14 prologue_end
	shlq	$3, %rdx
	movq	%rdi, -32(%rbp)
	movq	%rsi, %rdi
	movq	-32(%rbp), %rsi
	callq	_memcpy
	.loc	9 2131 2
	addq	$32, %rsp
	popq	%rbp
	retq
Ltmp29:
Lfunc_end11:
	.cfi_endproc

	.p2align	4, 0x90
__ZN4core10intrinsics19copy_nonoverlapping17h4f62854a1d0fdf2dE:
Lfunc_begin12:
	.loc	9 2114 0
	.cfi_startproc
	pushq	%rbp
	.cfi_def_cfa_offset 16
	.cfi_offset %rbp, -16
	movq	%rsp, %rbp
	.cfi_def_cfa_register %rbp
	subq	$32, %rsp
	movq	%rdi, -24(%rbp)
	movq	%rsi, -16(%rbp)
	movq	%rdx, -8(%rbp)
Ltmp30:
	.loc	9 2130 14 prologue_end
	shlq	$0, %rdx
	movq	%rdi, -32(%rbp)
	movq	%rsi, %rdi
	movq	-32(%rbp), %rsi
	callq	_memcpy
	.loc	9 2131 2
	addq	$32, %rsp
	popq	%rbp
	retq
Ltmp31:
Lfunc_end12:
	.cfi_endproc

	.p2align	4, 0x90
__ZN4core3cmp3Ord3max17hbcb4fc0dc9cc4dc7E:
Lfunc_begin13:
	.file	10 "/rustc/6c8927b0cf80ceee19386026cf9d7fd4fd9d486f/src/libcore/cmp.rs"
	.loc	10 599 0
	.cfi_startproc
	pushq	%rbp
	.cfi_def_cfa_offset 16
	.cfi_offset %rbp, -16
	movq	%rsp, %rbp
	.cfi_def_cfa_register %rbp
	subq	$32, %rsp
	movq	%rdi, -16(%rbp)
	movq	%rsi, -8(%rbp)
Ltmp32:
	.loc	10 603 9 prologue_end
	callq	__ZN4core3cmp6max_by17h92d62bd238072855E
	movq	%rax, -24(%rbp)
	.loc	10 0 9 is_stmt 0
	movq	-24(%rbp), %rax
	.loc	10 604 6 is_stmt 1
	addq	$32, %rsp
	popq	%rbp
	retq
Ltmp33:
Lfunc_end13:
	.cfi_endproc

	.p2align	4, 0x90
__ZN4core3cmp3max17ha2acf5674cb28d4cE:
Lfunc_begin14:
	.loc	10 993 0
	.cfi_startproc
	pushq	%rbp
	.cfi_def_cfa_offset 16
	.cfi_offset %rbp, -16
	movq	%rsp, %rbp
	.cfi_def_cfa_register %rbp
	subq	$32, %rsp
	movq	%rdi, -16(%rbp)
	movq	%rsi, -8(%rbp)
Ltmp34:
	.loc	10 994 5 prologue_end
	callq	__ZN4core3cmp3Ord3max17hbcb4fc0dc9cc4dc7E
	movq	%rax, -24(%rbp)
	.loc	10 0 5 is_stmt 0
	movq	-24(%rbp), %rax
	.loc	10 995 2 is_stmt 1
	addq	$32, %rsp
	popq	%rbp
	retq
Ltmp35:
Lfunc_end14:
	.cfi_endproc

	.p2align	4, 0x90
__ZN4core3cmp5impls50_$LT$impl$u20$core..cmp..Ord$u20$for$u20$usize$GT$3cmp17hdbe17d0f234cf0e5E:
Lfunc_begin15:
	.loc	10 1148 0
	.cfi_startproc
	pushq	%rbp
	.cfi_def_cfa_offset 16
	.cfi_offset %rbp, -16
	movq	%rsp, %rbp
	.cfi_def_cfa_register %rbp
	subq	$40, %rsp
	movq	%rdi, -16(%rbp)
	movq	%rsi, -8(%rbp)
Ltmp36:
	.loc	10 1151 24 prologue_end
	movq	(%rdi), %rax
	cmpq	(%rsi), %rax
	movq	%rdi, -32(%rbp)
	movq	%rsi, -40(%rbp)
	.loc	10 1151 21 is_stmt 0
	jb	LBB15_2
	.loc	10 0 21
	movq	-32(%rbp), %rax
	.loc	10 1152 29 is_stmt 1
	movq	(%rax), %rcx
	movq	-40(%rbp), %rdx
	cmpq	(%rdx), %rcx
	.loc	10 1152 26 is_stmt 0
	je	LBB15_4
	jmp	LBB15_3
LBB15_2:
	.loc	10 1151 41 is_stmt 1
	movb	$-1, -17(%rbp)
	.loc	10 1151 21 is_stmt 0
	jmp	LBB15_6
LBB15_3:
	.loc	10 1153 28 is_stmt 1
	movb	$1, -17(%rbp)
	.loc	10 1152 26
	jmp	LBB15_5
LBB15_4:
	.loc	10 1152 47 is_stmt 0
	movb	$0, -17(%rbp)
LBB15_5:
	.loc	10 1151 21 is_stmt 1
	jmp	LBB15_6
LBB15_6:
	.loc	10 1154 18
	movb	-17(%rbp), %al
	addq	$40, %rsp
	popq	%rbp
	retq
Ltmp37:
Lfunc_end15:
	.cfi_endproc

	.p2align	4, 0x90
__ZN4core3cmp5impls57_$LT$impl$u20$core..cmp..PartialOrd$u20$for$u20$usize$GT$2lt17h77774977e915ee17E:
Lfunc_begin16:
	.loc	10 1136 0
	.cfi_startproc
	pushq	%rbp
	.cfi_def_cfa_offset 16
	.cfi_offset %rbp, -16
	movq	%rsp, %rbp
	.cfi_def_cfa_register %rbp
	subq	$16, %rsp
	movq	%rdi, -16(%rbp)
	movq	%rsi, -8(%rbp)
Ltmp38:
	.loc	10 1136 52 prologue_end
	movq	(%rdi), %rax
	cmpq	(%rsi), %rax
	setb	%cl
	.loc	10 1136 72 is_stmt 0
	andb	$1, %cl
	movzbl	%cl, %eax
	addq	$16, %rsp
	popq	%rbp
	retq
Ltmp39:
Lfunc_end16:
	.cfi_endproc

	.p2align	4, 0x90
__ZN4core3cmp6max_by17h92d62bd238072855E:
Lfunc_begin17:
	.loc	10 1014 0 is_stmt 1
	.cfi_startproc
	.cfi_personality 155, _rust_eh_personality
	.cfi_lsda 16, Lexception1
	pushq	%rbp
	.cfi_def_cfa_offset 16
	.cfi_offset %rbp, -16
	movq	%rsp, %rbp
	.cfi_def_cfa_register %rbp
	subq	$96, %rsp
	movq	%rdi, -80(%rbp)
	movq	%rsi, -72(%rbp)
Ltmp43:
	.loc	10 1015 11 prologue_end
	movb	$0, -26(%rbp)
	movb	$0, -25(%rbp)
	movb	$1, -26(%rbp)
	movb	$1, -25(%rbp)
	leaq	-80(%rbp), %rax
	movq	%rax, -48(%rbp)
	leaq	-72(%rbp), %rax
	movq	%rax, -40(%rbp)
	movq	-48(%rbp), %rdi
	movq	-40(%rbp), %rsi
Ltmp40:
	callq	__ZN4core3ops8function6FnOnce9call_once17hf73374f55bd6c13cE
Ltmp41:
	movb	%al, -81(%rbp)
	jmp	LBB17_2
LBB17_1:
	.loc	10 1014 1
	movq	-16(%rbp), %rdi
	callq	__Unwind_Resume
	ud2
LBB17_2:
	.loc	10 0 1 is_stmt 0
	movb	-81(%rbp), %al
	.loc	10 1015 11 is_stmt 1
	movb	%al, -49(%rbp)
	.loc	10 1016 9
	movsbq	-49(%rbp), %rcx
	incq	%rcx
	subq	$2, %rcx
	jb	LBB17_7
	jmp	LBB17_15
LBB17_15:
	jmp	LBB17_5
LBB17_3:
	.loc	10 1019 1
	testb	$1, -26(%rbp)
	jne	LBB17_11
	jmp	LBB17_1
LBB17_4:
	movb	$0, -25(%rbp)
	jmp	LBB17_3
LBB17_5:
	.loc	10 1017 30
	movb	$0, -26(%rbp)
	movq	-80(%rbp), %rax
	movq	%rax, -64(%rbp)
	.loc	10 1015 5
	jmp	LBB17_8
	.loc	10 1015 11 is_stmt 0
	ud2
LBB17_7:
	.loc	10 1016 45 is_stmt 1
	movb	$0, -25(%rbp)
	movq	-72(%rbp), %rax
	movq	%rax, -64(%rbp)
LBB17_8:
	.loc	10 1019 1
	testb	$1, -25(%rbp)
	jne	LBB17_12
LBB17_9:
	testb	$1, -26(%rbp)
	jne	LBB17_13
LBB17_10:
	.loc	10 1019 2 is_stmt 0
	movq	-64(%rbp), %rax
	addq	$96, %rsp
	popq	%rbp
	retq
LBB17_11:
	.loc	10 1019 1
	movb	$0, -26(%rbp)
	jmp	LBB17_1
LBB17_12:
	movb	$0, -25(%rbp)
	jmp	LBB17_9
LBB17_13:
	movb	$0, -26(%rbp)
	jmp	LBB17_10
Ltmp44:
LBB17_14:
Ltmp42:
	.loc	10 0 1
	movq	%rax, -16(%rbp)
	movl	%edx, -8(%rbp)
	jmp	LBB17_4
Lfunc_end17:
	.cfi_endproc
	.section	__TEXT,__gcc_except_tab
	.p2align	2
GCC_except_table17:
Lexception1:
	.byte	255
	.byte	255
	.byte	1
	.uleb128 Lcst_end1-Lcst_begin1
Lcst_begin1:
	.uleb128 Ltmp40-Lfunc_begin17
	.uleb128 Ltmp41-Ltmp40
	.uleb128 Ltmp42-Lfunc_begin17
	.byte	0
	.uleb128 Ltmp41-Lfunc_begin17
	.uleb128 Lfunc_end17-Ltmp41
	.byte	0
	.byte	0
Lcst_end1:
	.p2align	2

	.section	__TEXT,__text,regular,pure_instructions
	.p2align	4, 0x90
__ZN4core3fmt9Arguments6new_v117hf3c38736f403eac8E:
Lfunc_begin18:
	.file	11 "/rustc/6c8927b0cf80ceee19386026cf9d7fd4fd9d486f/src/libcore/fmt/mod.rs"
	.loc	11 327 0 is_stmt 1
	.cfi_startproc
	pushq	%rbp
	.cfi_def_cfa_offset 16
	.cfi_offset %rbp, -16
	movq	%rsp, %rbp
	.cfi_def_cfa_register %rbp
	subq	$48, %rsp
	movq	%rdi, %rax
	movq	%rsi, -32(%rbp)
	movq	%rdx, -24(%rbp)
	movq	%rcx, -16(%rbp)
	movq	%r8, -8(%rbp)
Ltmp45:
	.loc	11 328 34 prologue_end
	movq	$0, -48(%rbp)
	.loc	11 328 9 is_stmt 0
	movq	%rsi, (%rdi)
	movq	%rdx, 8(%rdi)
	movq	-48(%rbp), %rdx
	movq	-40(%rbp), %rsi
	movq	%rdx, 16(%rdi)
	movq	%rsi, 24(%rdi)
	movq	%rcx, 32(%rdi)
	movq	%r8, 40(%rdi)
	.loc	11 329 6 is_stmt 1
	addq	$48, %rsp
	popq	%rbp
	retq
Ltmp46:
Lfunc_end18:
	.cfi_endproc

	.p2align	4, 0x90
__ZN4core3mem4swap17ha5a9c94e66a91e7cE:
Lfunc_begin19:
	.file	12 "/rustc/6c8927b0cf80ceee19386026cf9d7fd4fd9d486f/src/libcore/mem/mod.rs"
	.loc	12 686 0
	.cfi_startproc
	pushq	%rbp
	.cfi_def_cfa_offset 16
	.cfi_offset %rbp, -16
	movq	%rsp, %rbp
	.cfi_def_cfa_register %rbp
	subq	$16, %rsp
	movq	%rdi, -16(%rbp)
	movq	%rsi, -8(%rbp)
Ltmp47:
	.loc	12 690 9 prologue_end
	callq	__ZN4core3ptr23swap_nonoverlapping_one17hd1b55f0a43bc58d6E
	.loc	12 692 2
	addq	$16, %rsp
	popq	%rbp
	retq
Ltmp48:
Lfunc_end19:
	.cfi_endproc

	.p2align	4, 0x90
__ZN4core3mem7replace17h216b9209a532afa9E:
Lfunc_begin20:
	.loc	12 814 0
	.cfi_startproc
	.cfi_personality 155, _rust_eh_personality
	.cfi_lsda 16, Lexception2
	pushq	%rbp
	.cfi_def_cfa_offset 16
	.cfi_offset %rbp, -16
	movq	%rsp, %rbp
	.cfi_def_cfa_register %rbp
	subq	$32, %rsp
	movq	%rsi, -32(%rbp)
	movq	%rdi, -24(%rbp)
Ltmp49:
	leaq	-32(%rbp), %rsi
Ltmp52:
	.loc	12 815 5 prologue_end
	callq	__ZN4core3mem4swap17ha5a9c94e66a91e7cE
Ltmp50:
	jmp	LBB20_2
LBB20_1:
	.loc	12 814 1
	movq	-16(%rbp), %rdi
	callq	__Unwind_Resume
	ud2
LBB20_2:
	.loc	12 816 5
	movq	-32(%rbp), %rax
	.loc	12 817 2
	addq	$32, %rsp
	popq	%rbp
	retq
LBB20_3:
	.loc	12 817 1 is_stmt 0
	jmp	LBB20_1
Ltmp53:
LBB20_4:
Ltmp51:
	.loc	12 0 1
	movq	%rax, -16(%rbp)
	movl	%edx, -8(%rbp)
	jmp	LBB20_3
Lfunc_end20:
	.cfi_endproc
	.section	__TEXT,__gcc_except_tab
	.p2align	2
GCC_except_table20:
Lexception2:
	.byte	255
	.byte	255
	.byte	1
	.uleb128 Lcst_end2-Lcst_begin2
Lcst_begin2:
	.uleb128 Ltmp49-Lfunc_begin20
	.uleb128 Ltmp50-Ltmp49
	.uleb128 Ltmp51-Lfunc_begin20
	.byte	0
	.uleb128 Ltmp50-Lfunc_begin20
	.uleb128 Lfunc_end20-Ltmp50
	.byte	0
	.byte	0
Lcst_end2:
	.p2align	2

	.section	__TEXT,__text,regular,pure_instructions
	.p2align	4, 0x90
__ZN4core3num12NonZeroUsize13new_unchecked17h12edd71f1ec1dbe0E:
Lfunc_begin21:
	.file	13 "/rustc/6c8927b0cf80ceee19386026cf9d7fd4fd9d486f/src/libcore/num/mod.rs"
	.loc	13 83 0 is_stmt 1
	.cfi_startproc
	pushq	%rbp
	.cfi_def_cfa_offset 16
	.cfi_offset %rbp, -16
	movq	%rsp, %rbp
	.cfi_def_cfa_register %rbp
	subq	$16, %rsp
	movq	%rdi, -8(%rbp)
Ltmp54:
	.loc	13 85 30 prologue_end
	movq	%rdi, -16(%rbp)
	.loc	13 86 18
	movq	-16(%rbp), %rax
	addq	$16, %rsp
	popq	%rbp
	retq
Ltmp55:
Lfunc_end21:
	.cfi_endproc

	.p2align	4, 0x90
__ZN4core3num12NonZeroUsize3get17h4828ec35c6ae6634E:
Lfunc_begin22:
	.loc	13 105 0
	.cfi_startproc
	pushq	%rbp
	.cfi_def_cfa_offset 16
	.cfi_offset %rbp, -16
	movq	%rsp, %rbp
	.cfi_def_cfa_register %rbp
	pushq	%rax
	movq	%rdi, -8(%rbp)
Ltmp56:
	.loc	13 107 18 prologue_end
	movq	%rdi, %rax
	addq	$8, %rsp
	popq	%rbp
	retq
Ltmp57:
Lfunc_end22:
	.cfi_endproc

	.p2align	4, 0x90
__ZN4core3num23_$LT$impl$u20$usize$GT$13unchecked_add17h57dce189ab95ba5cE:
Lfunc_begin23:
	.loc	13 3010 0
	.cfi_startproc
	pushq	%rbp
	.cfi_def_cfa_offset 16
	.cfi_offset %rbp, -16
	movq	%rsp, %rbp
	.cfi_def_cfa_register %rbp
	subq	$32, %rsp
	movq	%rdi, -24(%rbp)
	movq	%rsi, -16(%rbp)
Ltmp58:
	.loc	13 3013 26 prologue_end
	addq	%rsi, %rdi
	movq	%rdi, -8(%rbp)
	movq	-8(%rbp), %rax
	movq	%rax, -32(%rbp)
	.loc	13 0 26 is_stmt 0
	movq	-32(%rbp), %rax
	.loc	13 3014 14 is_stmt 1
	addq	$32, %rsp
	popq	%rbp
	retq
Ltmp59:
Lfunc_end23:
	.cfi_endproc

	.p2align	4, 0x90
__ZN4core3num23_$LT$impl$u20$usize$GT$13unchecked_sub17h81aae1ade01a114cE:
Lfunc_begin24:
	.loc	13 3052 0
	.cfi_startproc
	pushq	%rbp
	.cfi_def_cfa_offset 16
	.cfi_offset %rbp, -16
	movq	%rsp, %rbp
	.cfi_def_cfa_register %rbp
	subq	$32, %rsp
	movq	%rdi, -24(%rbp)
	movq	%rsi, -16(%rbp)
Ltmp60:
	.loc	13 3055 26 prologue_end
	subq	%rsi, %rdi
	movq	%rdi, -8(%rbp)
	movq	-8(%rbp), %rax
	movq	%rax, -32(%rbp)
	.loc	13 0 26 is_stmt 0
	movq	-32(%rbp), %rax
	.loc	13 3056 14 is_stmt 1
	addq	$32, %rsp
	popq	%rbp
	retq
Ltmp61:
Lfunc_end24:
	.cfi_endproc

	.p2align	4, 0x90
__ZN4core3ops8function6FnOnce40call_once$u7b$$u7b$vtable.shim$u7d$$u7d$17h33f5cab140fbc8cfE:
Lfunc_begin25:
	.file	14 "/rustc/6c8927b0cf80ceee19386026cf9d7fd4fd9d486f/src/libcore/ops/function.rs"
	.loc	14 233 0
	.cfi_startproc
	pushq	%rbp
	.cfi_def_cfa_offset 16
	.cfi_offset %rbp, -16
	movq	%rsp, %rbp
	.cfi_def_cfa_register %rbp
	subq	$32, %rsp
	movq	%rdi, -8(%rbp)
Ltmp62:
	.loc	14 233 5 prologue_end
	movq	(%rdi), %rdi
	callq	__ZN4core3ops8function6FnOnce9call_once17h4db86803e6e8858aE
	movl	%eax, -20(%rbp)
	.loc	14 0 5 is_stmt 0
	movl	-20(%rbp), %eax
	.loc	14 233 5
	addq	$32, %rsp
	popq	%rbp
	retq
Ltmp63:
Lfunc_end25:
	.cfi_endproc

	.p2align	4, 0x90
__ZN4core3ops8function6FnOnce9call_once17h4db86803e6e8858aE:
Lfunc_begin26:
	.loc	14 233 0 is_stmt 1
	.cfi_startproc
	.cfi_personality 155, _rust_eh_personality
	.cfi_lsda 16, Lexception3
	pushq	%rbp
	.cfi_def_cfa_offset 16
	.cfi_offset %rbp, -16
	movq	%rsp, %rbp
	.cfi_def_cfa_register %rbp
	subq	$48, %rsp
	movq	%rdi, -32(%rbp)
Ltmp64:
	leaq	-32(%rbp), %rdi
Ltmp67:
	.loc	14 233 5 prologue_end
	callq	__ZN3std2rt10lang_start28_$u7b$$u7b$closure$u7d$$u7d$17h0a80c16f09f8c0c6E
Ltmp65:
	movl	%eax, -36(%rbp)
	jmp	LBB26_1
LBB26_1:
	jmp	LBB26_2
LBB26_2:
	.loc	14 0 5 is_stmt 0
	movl	-36(%rbp), %eax
	.loc	14 233 5
	addq	$48, %rsp
	popq	%rbp
	retq
LBB26_3:
	jmp	LBB26_4
LBB26_4:
	movq	-16(%rbp), %rdi
	callq	__Unwind_Resume
	ud2
Ltmp68:
LBB26_5:
Ltmp66:
	.loc	14 0 5
	movq	%rax, -16(%rbp)
	movl	%edx, -8(%rbp)
	jmp	LBB26_3
Lfunc_end26:
	.cfi_endproc
	.section	__TEXT,__gcc_except_tab
	.p2align	2
GCC_except_table26:
Lexception3:
	.byte	255
	.byte	255
	.byte	1
	.uleb128 Lcst_end3-Lcst_begin3
Lcst_begin3:
	.uleb128 Ltmp64-Lfunc_begin26
	.uleb128 Ltmp65-Ltmp64
	.uleb128 Ltmp66-Lfunc_begin26
	.byte	0
	.uleb128 Ltmp65-Lfunc_begin26
	.uleb128 Lfunc_end26-Ltmp65
	.byte	0
	.byte	0
Lcst_end3:
	.p2align	2

	.section	__TEXT,__text,regular,pure_instructions
	.p2align	4, 0x90
__ZN4core3ops8function6FnOnce9call_once17hf73374f55bd6c13cE:
Lfunc_begin27:
	.loc	14 233 0 is_stmt 1
	.cfi_startproc
	pushq	%rbp
	.cfi_def_cfa_offset 16
	.cfi_offset %rbp, -16
	movq	%rsp, %rbp
	.cfi_def_cfa_register %rbp
	subq	$32, %rsp
	movq	%rdi, -24(%rbp)
	movq	%rsi, -16(%rbp)
Ltmp69:
	.loc	14 233 5 prologue_end
	movq	-24(%rbp), %rdi
	movq	-16(%rbp), %rsi
	callq	__ZN4core3cmp5impls50_$LT$impl$u20$core..cmp..Ord$u20$for$u20$usize$GT$3cmp17hdbe17d0f234cf0e5E
	movb	%al, -25(%rbp)
	.loc	14 0 5 is_stmt 0
	movb	-25(%rbp), %al
	.loc	14 233 5
	addq	$32, %rsp
	popq	%rbp
	retq
Ltmp70:
Lfunc_end27:
	.cfi_endproc

	.p2align	4, 0x90
__ZN4core3ptr13drop_in_place17h27de600514ef3df0E:
Lfunc_begin28:
	.file	15 "/rustc/6c8927b0cf80ceee19386026cf9d7fd4fd9d486f/src/libcore/ptr/mod.rs"
	.loc	15 184 0 is_stmt 1
	.cfi_startproc
	pushq	%rbp
	.cfi_def_cfa_offset 16
	.cfi_offset %rbp, -16
	movq	%rsp, %rbp
	.cfi_def_cfa_register %rbp
	subq	$16, %rsp
	movq	%rdi, -8(%rbp)
Ltmp71:
	.loc	15 184 1 prologue_end
	callq	__ZN4core3ptr13drop_in_place17h9652e43a4124d264E
	addq	$16, %rsp
	popq	%rbp
	retq
Ltmp72:
Lfunc_end28:
	.cfi_endproc

	.p2align	4, 0x90
__ZN4core3ptr13drop_in_place17h2af6521252462ebaE:
Lfunc_begin29:
	.loc	15 184 0
	.cfi_startproc
	pushq	%rbp
	.cfi_def_cfa_offset 16
	.cfi_offset %rbp, -16
	movq	%rsp, %rbp
	.cfi_def_cfa_register %rbp
	subq	$16, %rsp
	movq	%rdi, -8(%rbp)
Ltmp73:
	.loc	15 184 1 prologue_end
	addq	$16, %rsp
	popq	%rbp
	retq
Ltmp74:
Lfunc_end29:
	.cfi_endproc

	.p2align	4, 0x90
__ZN4core3ptr13drop_in_place17h5eebe438b9161ba5E:
Lfunc_begin30:
	.loc	15 184 0
	.cfi_startproc
	pushq	%rbp
	.cfi_def_cfa_offset 16
	.cfi_offset %rbp, -16
	movq	%rsp, %rbp
	.cfi_def_cfa_register %rbp
	subq	$16, %rsp
	movq	%rdi, -8(%rbp)
Ltmp75:
	.loc	15 184 1 prologue_end
	callq	__ZN4core3ptr13drop_in_place17h9652e43a4124d264E
	addq	$16, %rsp
	popq	%rbp
	retq
Ltmp76:
Lfunc_end30:
	.cfi_endproc

	.p2align	4, 0x90
__ZN4core3ptr13drop_in_place17h65dff74de70ca5e6E:
Lfunc_begin31:
	.loc	15 184 0
	.cfi_startproc
	pushq	%rbp
	.cfi_def_cfa_offset 16
	.cfi_offset %rbp, -16
	movq	%rsp, %rbp
	.cfi_def_cfa_register %rbp
	subq	$16, %rsp
	movq	%rdi, -8(%rbp)
Ltmp77:
	.loc	15 184 1 prologue_end
	callq	__ZN4core3ptr13drop_in_place17h5eebe438b9161ba5E
	addq	$16, %rsp
	popq	%rbp
	retq
Ltmp78:
Lfunc_end31:
	.cfi_endproc

	.p2align	4, 0x90
__ZN4core3ptr13drop_in_place17h9652e43a4124d264E:
Lfunc_begin32:
	.loc	15 184 0
	.cfi_startproc
	.cfi_personality 155, _rust_eh_personality
	.cfi_lsda 16, Lexception4
	pushq	%rbp
	.cfi_def_cfa_offset 16
	.cfi_offset %rbp, -16
	movq	%rsp, %rbp
	.cfi_def_cfa_register %rbp
	subq	$48, %rsp
	movq	%rdi, -24(%rbp)
Ltmp79:
	movq	%rdi, -40(%rbp)
Ltmp82:
	.loc	15 184 1 prologue_end
	callq	__ZN66_$LT$alloc..vec..Vec$LT$T$GT$$u20$as$u20$core..ops..drop..Drop$GT$4drop17hc8aae524c8335831E
Ltmp80:
	jmp	LBB32_4
LBB32_1:
	movq	-16(%rbp), %rdi
	callq	__Unwind_Resume
	ud2
LBB32_2:
	addq	$48, %rsp
	popq	%rbp
	retq
LBB32_3:
	.loc	15 0 1 is_stmt 0
	movq	-40(%rbp), %rax
	.loc	15 184 1
	movq	%rax, %rdi
	callq	__ZN4core3ptr13drop_in_place17hfa71dbf00cd49811E
	jmp	LBB32_1
LBB32_4:
	.loc	15 0 1
	movq	-40(%rbp), %rax
	.loc	15 184 1
	movq	%rax, %rdi
	callq	__ZN4core3ptr13drop_in_place17hfa71dbf00cd49811E
	jmp	LBB32_2
Ltmp83:
LBB32_5:
Ltmp81:
	.loc	15 0 1
	movq	%rax, -16(%rbp)
	movl	%edx, -8(%rbp)
	jmp	LBB32_3
Lfunc_end32:
	.cfi_endproc
	.section	__TEXT,__gcc_except_tab
	.p2align	2
GCC_except_table32:
Lexception4:
	.byte	255
	.byte	255
	.byte	1
	.uleb128 Lcst_end4-Lcst_begin4
Lcst_begin4:
	.uleb128 Ltmp79-Lfunc_begin32
	.uleb128 Ltmp80-Ltmp79
	.uleb128 Ltmp81-Lfunc_begin32
	.byte	0
	.uleb128 Ltmp80-Lfunc_begin32
	.uleb128 Lfunc_end32-Ltmp80
	.byte	0
	.byte	0
Lcst_end4:
	.p2align	2

	.section	__TEXT,__text,regular,pure_instructions
	.p2align	4, 0x90
__ZN4core3ptr13drop_in_place17hf2f249d0f3e85b7bE:
Lfunc_begin33:
	.loc	15 184 0 is_stmt 1
	.cfi_startproc
	pushq	%rbp
	.cfi_def_cfa_offset 16
	.cfi_offset %rbp, -16
	movq	%rsp, %rbp
	.cfi_def_cfa_register %rbp
	subq	$32, %rsp
	xorl	%eax, %eax
	movl	%eax, %ecx
	movq	%rdi, -8(%rbp)
Ltmp84:
	.loc	15 184 1 prologue_end
	cmpq	$0, (%rdi)
	movl	$1, %edx
	cmovbeq	%rcx, %rdx
	cmpq	$0, %rdx
	movq	%rdi, -24(%rbp)
	jne	LBB33_2
LBB33_1:
	addq	$32, %rsp
	popq	%rbp
	retq
LBB33_2:
	.loc	15 0 1 is_stmt 0
	movq	-24(%rbp), %rax
	.loc	15 184 1
	movq	%rax, %rdi
	callq	__ZN4core3ptr13drop_in_place17h65dff74de70ca5e6E
	jmp	LBB33_1
Ltmp85:
Lfunc_end33:
	.cfi_endproc

	.p2align	4, 0x90
__ZN4core3ptr13drop_in_place17hfa71dbf00cd49811E:
Lfunc_begin34:
	.loc	15 184 0 is_stmt 1
	.cfi_startproc
	pushq	%rbp
	.cfi_def_cfa_offset 16
	.cfi_offset %rbp, -16
	movq	%rsp, %rbp
	.cfi_def_cfa_register %rbp
	subq	$16, %rsp
	movq	%rdi, -8(%rbp)
Ltmp86:
	.loc	15 184 1 prologue_end
	callq	__ZN77_$LT$alloc..raw_vec..RawVec$LT$T$C$A$GT$$u20$as$u20$core..ops..drop..Drop$GT$4drop17h389ebcbac2991bbaE
	addq	$16, %rsp
	popq	%rbp
	retq
Ltmp87:
Lfunc_end34:
	.cfi_endproc

	.p2align	4, 0x90
__ZN4core3ptr19swap_nonoverlapping17h401fc6f682cb9972E:
Lfunc_begin35:
	.loc	15 430 0
	.cfi_startproc
	pushq	%rbp
	.cfi_def_cfa_offset 16
	.cfi_offset %rbp, -16
	movq	%rsp, %rbp
	.cfi_def_cfa_register %rbp
	subq	$96, %rsp
	movq	%rdi, -56(%rbp)
	movq	%rsi, -48(%rbp)
	movq	%rdx, -40(%rbp)
Ltmp88:
	.loc	15 440 13 prologue_end
	movq	%rdi, -32(%rbp)
Ltmp89:
	.loc	15 441 13
	movq	%rsi, -24(%rbp)
Ltmp90:
	.loc	12 310 5
	movq	$8, -8(%rbp)
	movq	-8(%rbp), %rax
	movq	%rdx, -64(%rbp)
	movq	%rdi, -72(%rbp)
	movq	%rsi, -80(%rbp)
	movq	%rax, -88(%rbp)
Ltmp91:
	.loc	12 0 5 is_stmt 0
	movq	-88(%rbp), %rax
	movq	-64(%rbp), %rcx
	.loc	15 442 15 is_stmt 1
	imulq	%rcx, %rax
	movq	%rax, -16(%rbp)
	movq	-72(%rbp), %rdi
	movq	-80(%rbp), %rsi
Ltmp92:
	.loc	15 445 14
	movq	%rax, %rdx
	callq	__ZN4core3ptr25swap_nonoverlapping_bytes17hab8c0d551330dbe8E
Ltmp93:
	.loc	15 446 2
	addq	$96, %rsp
	popq	%rbp
	retq
Ltmp94:
Lfunc_end35:
	.cfi_endproc

	.p2align	4, 0x90
__ZN4core3ptr20slice_from_raw_parts17hf57a907b7d2fd9efE:
Lfunc_begin36:
	.loc	15 264 0
	.cfi_startproc
	pushq	%rbp
	.cfi_def_cfa_offset 16
	.cfi_offset %rbp, -16
	movq	%rsp, %rbp
	.cfi_def_cfa_register %rbp
	subq	$48, %rsp
	movq	%rdi, -16(%rbp)
	movq	%rsi, -8(%rbp)
Ltmp95:
	.loc	15 268 26 prologue_end
	movq	%rdi, -32(%rbp)
	movq	%rsi, -24(%rbp)
	.loc	15 268 14 is_stmt 0
	movq	-32(%rbp), %rax
	movq	-24(%rbp), %rcx
	movq	%rax, -48(%rbp)
	movq	%rcx, -40(%rbp)
	movq	-48(%rbp), %rax
	movq	-40(%rbp), %rdx
	.loc	15 269 2 is_stmt 1
	addq	$48, %rsp
	popq	%rbp
	retq
Ltmp96:
Lfunc_end36:
	.cfi_endproc

	.p2align	4, 0x90
__ZN4core3ptr23swap_nonoverlapping_one17hd1b55f0a43bc58d6E:
Lfunc_begin37:
	.loc	15 449 0
	.cfi_startproc
	.cfi_personality 155, _rust_eh_personality
	.cfi_lsda 16, Lexception5
	pushq	%rbp
	.cfi_def_cfa_offset 16
	.cfi_offset %rbp, -16
	movq	%rsp, %rbp
	.cfi_def_cfa_register %rbp
	subq	$96, %rsp
	movq	%rdi, -48(%rbp)
	movq	%rsi, -40(%rbp)
Ltmp102:
	.loc	15 452 8 prologue_end
	movb	$0, -49(%rbp)
Ltmp103:
	.loc	12 310 5
	movq	$8, -8(%rbp)
	movq	-8(%rbp), %rax
	movq	%rdi, -64(%rbp)
	movq	%rsi, -72(%rbp)
	movq	%rax, -80(%rbp)
Ltmp104:
	.loc	15 452 8
	jmp	LBB37_2
LBB37_1:
	.loc	15 449 1
	movq	-24(%rbp), %rdi
	callq	__Unwind_Resume
	ud2
LBB37_2:
	.loc	15 0 1 is_stmt 0
	movq	-80(%rbp), %rax
	.loc	15 452 8 is_stmt 1
	cmpq	$32, %rax
	.loc	15 452 5 is_stmt 0
	jb	LBB37_4
	.loc	15 0 5
	movq	-64(%rbp), %rdi
	movq	-72(%rbp), %rsi
	.loc	15 462 18 is_stmt 1
	movl	$1, %edx
	callq	__ZN4core3ptr19swap_nonoverlapping17h401fc6f682cb9972E
	jmp	LBB37_8
LBB37_4:
	.loc	15 456 21
	movb	$1, -49(%rbp)
	movq	-64(%rbp), %rdi
	callq	__ZN4core3ptr4read17haaf4d3cda5d42ae6E
	movq	%rax, -32(%rbp)
	movq	%rax, -88(%rbp)
Ltmp97:
	.loc	15 0 21 is_stmt 0
	movl	$1, %edx
	movq	-72(%rbp), %rdi
	movq	-64(%rbp), %rsi
Ltmp105:
	.loc	15 457 13 is_stmt 1
	callq	__ZN4core10intrinsics19copy_nonoverlapping17h33cf3de3fedfc1d3E
Ltmp98:
	jmp	LBB37_6
LBB37_6:
	.loc	15 458 22
	movb	$0, -49(%rbp)
Ltmp99:
	movq	-72(%rbp), %rdi
	movq	-88(%rbp), %rsi
	.loc	15 458 13 is_stmt 0
	callq	__ZN4core3ptr5write17h6a600cf79ec7c12dE
Ltmp100:
	jmp	LBB37_7
Ltmp106:
LBB37_7:
	.loc	15 459 9 is_stmt 1
	movb	$0, -49(%rbp)
	.loc	15 452 5
	jmp	LBB37_9
LBB37_8:
	jmp	LBB37_9
LBB37_9:
	.loc	15 464 2
	addq	$96, %rsp
	popq	%rbp
	retq
LBB37_10:
	.loc	15 459 9
	movb	$0, -49(%rbp)
	jmp	LBB37_1
LBB37_11:
	testb	$1, -49(%rbp)
	jne	LBB37_10
	jmp	LBB37_1
Ltmp107:
LBB37_12:
Ltmp101:
	.loc	15 0 9 is_stmt 0
	movq	%rax, -24(%rbp)
	movl	%edx, -16(%rbp)
	jmp	LBB37_11
Lfunc_end37:
	.cfi_endproc
	.section	__TEXT,__gcc_except_tab
	.p2align	2
GCC_except_table37:
Lexception5:
	.byte	255
	.byte	255
	.byte	1
	.uleb128 Lcst_end5-Lcst_begin5
Lcst_begin5:
	.uleb128 Lfunc_begin37-Lfunc_begin37
	.uleb128 Ltmp97-Lfunc_begin37
	.byte	0
	.byte	0
	.uleb128 Ltmp97-Lfunc_begin37
	.uleb128 Ltmp100-Ltmp97
	.uleb128 Ltmp101-Lfunc_begin37
	.byte	0
Lcst_end5:
	.p2align	2

	.section	__TEXT,__text,regular,pure_instructions
	.p2align	4, 0x90
__ZN4core3ptr24slice_from_raw_parts_mut17hc1186761dc234335E:
Lfunc_begin38:
	.loc	15 300 0 is_stmt 1
	.cfi_startproc
	pushq	%rbp
	.cfi_def_cfa_offset 16
	.cfi_offset %rbp, -16
	movq	%rsp, %rbp
	.cfi_def_cfa_register %rbp
	subq	$48, %rsp
	movq	%rdi, -16(%rbp)
	movq	%rsi, -8(%rbp)
Ltmp108:
	.loc	15 303 26 prologue_end
	movq	%rdi, -32(%rbp)
	movq	%rsi, -24(%rbp)
	.loc	15 303 14 is_stmt 0
	movq	-32(%rbp), %rax
	movq	-24(%rbp), %rcx
	movq	%rax, -48(%rbp)
	movq	%rcx, -40(%rbp)
	movq	-48(%rbp), %rax
	movq	-40(%rbp), %rdx
	.loc	15 304 2 is_stmt 1
	addq	$48, %rsp
	popq	%rbp
	retq
Ltmp109:
Lfunc_end38:
	.cfi_endproc

	.p2align	4, 0x90
__ZN4core3ptr25swap_nonoverlapping_bytes17hab8c0d551330dbe8E:
Lfunc_begin39:
	.loc	15 467 0
	.cfi_startproc
	pushq	%rbp
	.cfi_def_cfa_offset 16
	.cfi_offset %rbp, -16
	movq	%rsp, %rbp
	.cfi_def_cfa_register %rbp
	andq	$-32, %rsp
	subq	$352, %rsp
	movq	%rdi, 208(%rsp)
	movq	%rsi, 216(%rsp)
	movq	%rdx, 224(%rsp)
Ltmp110:
	.loc	12 310 5 prologue_end
	movq	$32, 296(%rsp)
	movq	296(%rsp), %rax
Ltmp111:
	.loc	15 478 22
	movq	%rax, 232(%rsp)
	movq	%rdi, 104(%rsp)
	movq	%rsi, 96(%rsp)
	movq	%rdx, 88(%rsp)
	movq	%rax, 80(%rsp)
Ltmp112:
	.loc	15 483 17
	movq	$0, 120(%rsp)
LBB39_2:
	.loc	15 0 17 is_stmt 0
	movq	80(%rsp), %rax
Ltmp113:
	.loc	15 484 11 is_stmt 1
	addq	120(%rsp), %rax
	movq	88(%rsp), %rcx
	cmpq	%rcx, %rax
	.loc	15 484 5 is_stmt 0
	jbe	LBB39_4
	.loc	15 0 5
	movq	88(%rsp), %rax
	.loc	15 509 8 is_stmt 1
	cmpq	%rax, 120(%rsp)
	.loc	15 509 5 is_stmt 0
	jb	LBB39_13
	jmp	LBB39_12
LBB39_4:
	.loc	15 0 5
	leaq	128(%rsp), %rax
	movq	%rax, 304(%rsp)
	movq	%rax, 312(%rsp)
Ltmp114:
	.loc	15 488 17 is_stmt 1
	leaq	128(%rsp), %rax
	movq	%rax, 240(%rsp)
Ltmp115:
	.loc	15 497 27
	movq	120(%rsp), %rsi
	movq	104(%rsp), %rdi
	movq	%rax, 72(%rsp)
	.loc	15 497 21 is_stmt 0
	callq	__ZN4core3ptr7mut_ptr31_$LT$impl$u20$$BP$mut$u20$T$GT$3add17h377bb92ccda8e0dfE
	movq	%rax, 248(%rsp)
	movq	%rax, 64(%rsp)
Ltmp116:
	.loc	15 498 27 is_stmt 1
	movq	120(%rsp), %rsi
	movq	96(%rsp), %rdi
	.loc	15 498 21 is_stmt 0
	callq	__ZN4core3ptr7mut_ptr31_$LT$impl$u20$$BP$mut$u20$T$GT$3add17h377bb92ccda8e0dfE
	movq	%rax, 256(%rsp)
	movq	%rax, 56(%rsp)
	.loc	15 0 21
	movq	64(%rsp), %rdi
	movq	72(%rsp), %rsi
	movq	80(%rsp), %rdx
Ltmp117:
	.loc	15 502 13 is_stmt 1
	callq	__ZN4core10intrinsics19copy_nonoverlapping17h4f62854a1d0fdf2dE
	.loc	15 0 13 is_stmt 0
	movq	56(%rsp), %rdi
	movq	64(%rsp), %rsi
	movq	80(%rsp), %rdx
	.loc	15 503 13 is_stmt 1
	callq	__ZN4core10intrinsics19copy_nonoverlapping17h4f62854a1d0fdf2dE
	.loc	15 0 13 is_stmt 0
	movq	72(%rsp), %rdi
	movq	56(%rsp), %rsi
	movq	80(%rsp), %rdx
	.loc	15 504 13 is_stmt 1
	callq	__ZN4core10intrinsics19copy_nonoverlapping17h4f62854a1d0fdf2dE
Ltmp118:
	.loc	15 0 13 is_stmt 0
	movq	80(%rsp), %rax
	.loc	15 506 9 is_stmt 1
	addq	120(%rsp), %rax
	movq	%rax, 120(%rsp)
Ltmp119:
	.loc	15 484 5
	jmp	LBB39_2
LBB39_12:
	.loc	15 509 5
	jmp	LBB39_21
LBB39_13:
	.loc	15 0 5 is_stmt 0
	movq	88(%rsp), %rax
Ltmp120:
	.loc	15 512 19 is_stmt 1
	subq	120(%rsp), %rax
	movq	%rax, 264(%rsp)
	leaq	176(%rsp), %rcx
	movq	%rcx, 320(%rsp)
	movq	%rcx, 328(%rsp)
	movq	%rax, 48(%rsp)
	movq	%rcx, 40(%rsp)
	.loc	15 0 19 is_stmt 0
	movq	40(%rsp), %rax
Ltmp121:
	.loc	15 514 17 is_stmt 1
	movq	%rax, 272(%rsp)
Ltmp122:
	.loc	15 518 27
	movq	120(%rsp), %rsi
	movq	104(%rsp), %rdi
	movq	%rax, 32(%rsp)
	.loc	15 518 21 is_stmt 0
	callq	__ZN4core3ptr7mut_ptr31_$LT$impl$u20$$BP$mut$u20$T$GT$3add17h377bb92ccda8e0dfE
	movq	%rax, 280(%rsp)
	movq	%rax, 24(%rsp)
Ltmp123:
	.loc	15 519 27 is_stmt 1
	movq	120(%rsp), %rsi
	movq	96(%rsp), %rdi
	.loc	15 519 21 is_stmt 0
	callq	__ZN4core3ptr7mut_ptr31_$LT$impl$u20$$BP$mut$u20$T$GT$3add17h377bb92ccda8e0dfE
	movq	%rax, 288(%rsp)
	movq	%rax, 16(%rsp)
	.loc	15 0 21
	movq	24(%rsp), %rdi
	movq	32(%rsp), %rsi
	movq	48(%rsp), %rdx
Ltmp124:
	.loc	15 521 13 is_stmt 1
	callq	__ZN4core10intrinsics19copy_nonoverlapping17h4f62854a1d0fdf2dE
	.loc	15 0 13 is_stmt 0
	movq	16(%rsp), %rdi
	movq	24(%rsp), %rsi
	movq	48(%rsp), %rdx
	.loc	15 522 13 is_stmt 1
	callq	__ZN4core10intrinsics19copy_nonoverlapping17h4f62854a1d0fdf2dE
	.loc	15 0 13 is_stmt 0
	movq	32(%rsp), %rdi
	movq	16(%rsp), %rsi
	movq	48(%rsp), %rdx
	.loc	15 523 13 is_stmt 1
	callq	__ZN4core10intrinsics19copy_nonoverlapping17h4f62854a1d0fdf2dE
Ltmp125:
	.loc	15 509 5
	jmp	LBB39_21
Ltmp126:
LBB39_21:
	.loc	15 526 2
	movq	%rbp, %rsp
	popq	%rbp
	retq
Ltmp127:
Lfunc_end39:
	.cfi_endproc

	.p2align	4, 0x90
__ZN4core3ptr4read17haaf4d3cda5d42ae6E:
Lfunc_begin40:
	.loc	15 692 0
	.cfi_startproc
	pushq	%rbp
	.cfi_def_cfa_offset 16
	.cfi_offset %rbp, -16
	movq	%rsp, %rbp
	.cfi_def_cfa_register %rbp
	subq	$80, %rsp
	movq	%rdi, -48(%rbp)
Ltmp128:
	.file	16 "/rustc/6c8927b0cf80ceee19386026cf9d7fd4fd9d486f/src/libcore/mem/maybe_uninit.rs"
	.loc	16 272 6 prologue_end
	movq	-40(%rbp), %rax
Ltmp129:
	.loc	15 694 19
	movq	%rax, -56(%rbp)
	movq	%rdi, -64(%rbp)
	.loc	15 0 19 is_stmt 0
	leaq	-56(%rbp), %rax
	movq	%rax, -16(%rbp)
	movq	%rax, -8(%rbp)
	movq	-64(%rbp), %rdi
Ltmp130:
	.loc	15 702 9 is_stmt 1
	leaq	-56(%rbp), %rsi
	movl	$1, %edx
	callq	__ZN4core10intrinsics19copy_nonoverlapping17h33cf3de3fedfc1d3E
	.loc	15 703 9
	movq	-56(%rbp), %rax
	movq	%rax, -32(%rbp)
	movq	%rax, -24(%rbp)
	movq	%rax, -72(%rbp)
Ltmp131:
	.loc	15 0 9 is_stmt 0
	movq	-72(%rbp), %rax
	.loc	15 705 2 is_stmt 1
	addq	$80, %rsp
	popq	%rbp
	retq
Ltmp132:
Lfunc_end40:
	.cfi_endproc

	.p2align	4, 0x90
__ZN4core3ptr5write17h6a600cf79ec7c12dE:
Lfunc_begin41:
	.loc	15 895 0
	.cfi_startproc
	pushq	%rbp
	.cfi_def_cfa_offset 16
	.cfi_offset %rbp, -16
	movq	%rsp, %rbp
	.cfi_def_cfa_register %rbp
	subq	$24, %rsp
	movq	%rdi, -16(%rbp)
	movq	%rsi, -8(%rbp)
Ltmp133:
	.loc	15 901 51 prologue_end
	movq	%rsi, (%rdi)
	.loc	15 902 2
	addq	$24, %rsp
	popq	%rbp
	retq
Ltmp134:
Lfunc_end41:
	.cfi_endproc

	.p2align	4, 0x90
__ZN4core3ptr6unique15Unique$LT$T$GT$13new_unchecked17hb9b991309de51b5eE:
Lfunc_begin42:
	.file	17 "/rustc/6c8927b0cf80ceee19386026cf9d7fd4fd9d486f/src/libcore/ptr/unique.rs"
	.loc	17 89 0
	.cfi_startproc
	pushq	%rbp
	.cfi_def_cfa_offset 16
	.cfi_offset %rbp, -16
	movq	%rsp, %rbp
	.cfi_def_cfa_register %rbp
	subq	$24, %rsp
	movq	%rdi, -8(%rbp)
Ltmp135:
	.loc	17 91 18 prologue_end
	movq	%rdi, -24(%rbp)
	.loc	17 92 6
	movq	-24(%rbp), %rax
	addq	$24, %rsp
	popq	%rbp
	retq
Ltmp136:
Lfunc_end42:
	.cfi_endproc

	.p2align	4, 0x90
__ZN4core3ptr6unique15Unique$LT$T$GT$4cast17h5e16209cc29f3253E:
Lfunc_begin43:
	.loc	17 137 0
	.cfi_startproc
	pushq	%rbp
	.cfi_def_cfa_offset 16
	.cfi_offset %rbp, -16
	movq	%rsp, %rbp
	.cfi_def_cfa_register %rbp
	subq	$32, %rsp
	movq	%rdi, -8(%rbp)
Ltmp137:
	.loc	17 141 40 prologue_end
	callq	__ZN4core3ptr6unique15Unique$LT$T$GT$6as_ptr17hfcd403a3fea93302E
	movq	%rax, -16(%rbp)
	.loc	17 0 40 is_stmt 0
	movq	-16(%rbp), %rdi
	.loc	17 141 18
	callq	__ZN4core3ptr6unique15Unique$LT$T$GT$13new_unchecked17hb9b991309de51b5eE
	movq	%rax, -24(%rbp)
	.loc	17 0 18
	movq	-24(%rbp), %rax
	.loc	17 142 6 is_stmt 1
	addq	$32, %rsp
	popq	%rbp
	retq
Ltmp138:
Lfunc_end43:
	.cfi_endproc

	.p2align	4, 0x90
__ZN4core3ptr6unique15Unique$LT$T$GT$6as_ptr17hfcd403a3fea93302E:
Lfunc_begin44:
	.loc	17 107 0
	.cfi_startproc
	pushq	%rbp
	.cfi_def_cfa_offset 16
	.cfi_offset %rbp, -16
	movq	%rsp, %rbp
	.cfi_def_cfa_register %rbp
	pushq	%rax
	movq	%rdi, -8(%rbp)
Ltmp139:
	.loc	17 109 6 prologue_end
	movq	%rdi, %rax
	addq	$8, %rsp
	popq	%rbp
	retq
Ltmp140:
Lfunc_end44:
	.cfi_endproc

	.p2align	4, 0x90
__ZN4core3ptr7mut_ptr31_$LT$impl$u20$$BP$mut$u20$T$GT$3add17h377bb92ccda8e0dfE:
Lfunc_begin45:
	.file	18 "/rustc/6c8927b0cf80ceee19386026cf9d7fd4fd9d486f/src/libcore/ptr/mut_ptr.rs"
	.loc	18 529 0
	.cfi_startproc
	pushq	%rbp
	.cfi_def_cfa_offset 16
	.cfi_offset %rbp, -16
	movq	%rsp, %rbp
	.cfi_def_cfa_register %rbp
	subq	$32, %rsp
	movq	%rdi, -16(%rbp)
	movq	%rsi, -8(%rbp)
Ltmp141:
	.loc	18 534 18 prologue_end
	callq	__ZN4core3ptr7mut_ptr31_$LT$impl$u20$$BP$mut$u20$T$GT$6offset17h4f2ab2f2078d470bE
	movq	%rax, -24(%rbp)
	.loc	18 0 18 is_stmt 0
	movq	-24(%rbp), %rax
	.loc	18 535 6 is_stmt 1
	addq	$32, %rsp
	popq	%rbp
	retq
Ltmp142:
Lfunc_end45:
	.cfi_endproc

	.p2align	4, 0x90
__ZN4core3ptr7mut_ptr31_$LT$impl$u20$$BP$mut$u20$T$GT$6offset17h4f2ab2f2078d470bE:
Lfunc_begin46:
	.loc	18 158 0
	.cfi_startproc
	pushq	%rbp
	.cfi_def_cfa_offset 16
	.cfi_offset %rbp, -16
	movq	%rsp, %rbp
	.cfi_def_cfa_register %rbp
	subq	$32, %rsp
	movq	%rdi, -24(%rbp)
	movq	%rsi, -16(%rbp)
Ltmp143:
	.loc	18 165 18 prologue_end
	addq	%rsi, %rdi
	movq	%rdi, -8(%rbp)
	movq	-8(%rbp), %rax
	movq	%rax, -32(%rbp)
	.loc	18 0 18 is_stmt 0
	movq	-32(%rbp), %rax
	.loc	18 166 6 is_stmt 1
	addq	$32, %rsp
	popq	%rbp
	retq
Ltmp144:
Lfunc_end46:
	.cfi_endproc

	.p2align	4, 0x90
__ZN4core3ptr7mut_ptr31_$LT$impl$u20$$BP$mut$u20$T$GT$7is_null17h284ceb068cd846c4E:
Lfunc_begin47:
	.loc	18 26 0
	.cfi_startproc
	pushq	%rbp
	.cfi_def_cfa_offset 16
	.cfi_offset %rbp, -16
	movq	%rsp, %rbp
	.cfi_def_cfa_register %rbp
	subq	$16, %rsp
	movq	%rdi, -8(%rbp)
	movq	%rdi, -16(%rbp)
	movq	-16(%rbp), %rax
Ltmp145:
	.loc	18 29 9 prologue_end
	cmpq	$0, %rax
	sete	%cl
	.loc	18 30 6
	andb	$1, %cl
	movzbl	%cl, %edx
	movl	%edx, %eax
	addq	$16, %rsp
	popq	%rbp
	retq
Ltmp146:
Lfunc_end47:
	.cfi_endproc

	.p2align	4, 0x90
__ZN4core3ptr8non_null16NonNull$LT$T$GT$13new_unchecked17h4c5c135ae33634cdE:
Lfunc_begin48:
	.loc	1 90 0
	.cfi_startproc
	pushq	%rbp
	.cfi_def_cfa_offset 16
	.cfi_offset %rbp, -16
	movq	%rsp, %rbp
	.cfi_def_cfa_register %rbp
	subq	$16, %rsp
	movq	%rdi, -8(%rbp)
Ltmp147:
	.loc	1 92 18 prologue_end
	movq	%rdi, -16(%rbp)
	.loc	1 93 6
	movq	-16(%rbp), %rax
	addq	$16, %rsp
	popq	%rbp
	retq
Ltmp148:
Lfunc_end48:
	.cfi_endproc

	.p2align	4, 0x90
__ZN4core3ptr8non_null16NonNull$LT$T$GT$6as_ptr17hb2477d78ec6d1ec7E:
Lfunc_begin49:
	.loc	1 111 0
	.cfi_startproc
	pushq	%rbp
	.cfi_def_cfa_offset 16
	.cfi_offset %rbp, -16
	movq	%rsp, %rbp
	.cfi_def_cfa_register %rbp
	pushq	%rax
	movq	%rdi, -8(%rbp)
Ltmp149:
	.loc	1 113 6 prologue_end
	movq	%rdi, %rax
	addq	$8, %rsp
	popq	%rbp
	retq
Ltmp150:
Lfunc_end49:
	.cfi_endproc

	.p2align	4, 0x90
__ZN4core3ptr9const_ptr33_$LT$impl$u20$$BP$const$u20$T$GT$12wrapping_add17h00762e9b3e72f378E:
Lfunc_begin50:
	.file	19 "/rustc/6c8927b0cf80ceee19386026cf9d7fd4fd9d486f/src/libcore/ptr/const_ptr.rs"
	.loc	19 595 0
	.cfi_startproc
	pushq	%rbp
	.cfi_def_cfa_offset 16
	.cfi_offset %rbp, -16
	movq	%rsp, %rbp
	.cfi_def_cfa_register %rbp
	subq	$32, %rsp
	movq	%rdi, -16(%rbp)
	movq	%rsi, -8(%rbp)
Ltmp151:
	.loc	19 599 9 prologue_end
	callq	__ZN4core3ptr9const_ptr33_$LT$impl$u20$$BP$const$u20$T$GT$15wrapping_offset17h51c77858071358a2E
	movq	%rax, -24(%rbp)
	.loc	19 0 9 is_stmt 0
	movq	-24(%rbp), %rax
	.loc	19 600 6 is_stmt 1
	addq	$32, %rsp
	popq	%rbp
	retq
Ltmp152:
Lfunc_end50:
	.cfi_endproc

	.p2align	4, 0x90
__ZN4core3ptr9const_ptr33_$LT$impl$u20$$BP$const$u20$T$GT$15wrapping_offset17h51c77858071358a2E:
Lfunc_begin51:
	.loc	19 220 0
	.cfi_startproc
	pushq	%rbp
	.cfi_def_cfa_offset 16
	.cfi_offset %rbp, -16
	movq	%rsp, %rbp
	.cfi_def_cfa_register %rbp
	subq	$32, %rsp
	movq	%rdi, -24(%rbp)
	movq	%rsi, -16(%rbp)
Ltmp153:
	.loc	19 225 18 prologue_end
	addq	%rsi, %rdi
	movq	%rdi, -8(%rbp)
	movq	-8(%rbp), %rax
	movq	%rax, -32(%rbp)
	.loc	19 0 18 is_stmt 0
	movq	-32(%rbp), %rax
	.loc	19 226 6 is_stmt 1
	addq	$32, %rsp
	popq	%rbp
	retq
Ltmp154:
Lfunc_end51:
	.cfi_endproc

	.p2align	4, 0x90
__ZN4core3ptr9const_ptr33_$LT$impl$u20$$BP$const$u20$T$GT$3add17ha61b93b3a7879760E:
Lfunc_begin52:
	.loc	19 473 0
	.cfi_startproc
	pushq	%rbp
	.cfi_def_cfa_offset 16
	.cfi_offset %rbp, -16
	movq	%rsp, %rbp
	.cfi_def_cfa_register %rbp
	subq	$32, %rsp
	movq	%rdi, -16(%rbp)
	movq	%rsi, -8(%rbp)
Ltmp155:
	.loc	19 478 18 prologue_end
	callq	__ZN4core3ptr9const_ptr33_$LT$impl$u20$$BP$const$u20$T$GT$6offset17hc777c041adb5b358E
	movq	%rax, -24(%rbp)
	.loc	19 0 18 is_stmt 0
	movq	-24(%rbp), %rax
	.loc	19 479 6 is_stmt 1
	addq	$32, %rsp
	popq	%rbp
	retq
Ltmp156:
Lfunc_end52:
	.cfi_endproc

	.p2align	4, 0x90
__ZN4core3ptr9const_ptr33_$LT$impl$u20$$BP$const$u20$T$GT$6offset17hc777c041adb5b358E:
Lfunc_begin53:
	.loc	19 159 0
	.cfi_startproc
	pushq	%rbp
	.cfi_def_cfa_offset 16
	.cfi_offset %rbp, -16
	movq	%rsp, %rbp
	.cfi_def_cfa_register %rbp
	subq	$32, %rsp
	movq	%rdi, -24(%rbp)
	movq	%rsi, -16(%rbp)
Ltmp157:
	.loc	19 164 18 prologue_end
	addq	%rsi, %rdi
	movq	%rdi, -8(%rbp)
	movq	-8(%rbp), %rax
	movq	%rax, -32(%rbp)
	.loc	19 0 18 is_stmt 0
	movq	-32(%rbp), %rax
	.loc	19 165 6 is_stmt 1
	addq	$32, %rsp
	popq	%rbp
	retq
Ltmp158:
Lfunc_end53:
	.cfi_endproc

	.p2align	4, 0x90
__ZN4core3ptr9const_ptr33_$LT$impl$u20$$BP$const$u20$T$GT$7is_null17hd4d4d3a75fe335e5E:
Lfunc_begin54:
	.loc	19 27 0
	.cfi_startproc
	pushq	%rbp
	.cfi_def_cfa_offset 16
	.cfi_offset %rbp, -16
	movq	%rsp, %rbp
	.cfi_def_cfa_register %rbp
	subq	$16, %rsp
	movq	%rdi, -8(%rbp)
	movq	%rdi, -16(%rbp)
	movq	-16(%rbp), %rax
Ltmp159:
	.loc	19 30 9 prologue_end
	cmpq	$0, %rax
	sete	%cl
	.loc	19 31 6
	andb	$1, %cl
	movzbl	%cl, %edx
	movl	%edx, %eax
	addq	$16, %rsp
	popq	%rbp
	retq
Ltmp160:
Lfunc_end54:
	.cfi_endproc

	.p2align	4, 0x90
__ZN4core3ptr9const_ptr43_$LT$impl$u20$$BP$const$u20$$u5b$T$u5d$$GT$3len17h370e831937920f48E:
Lfunc_begin55:
	.loc	19 823 0
	.cfi_startproc
	pushq	%rbp
	.cfi_def_cfa_offset 16
	.cfi_offset %rbp, -16
	movq	%rsp, %rbp
	.cfi_def_cfa_register %rbp
	subq	$32, %rsp
	movq	%rdi, -16(%rbp)
	movq	%rsi, -8(%rbp)
Ltmp161:
	.loc	19 826 18 prologue_end
	movq	%rdi, -32(%rbp)
	movq	%rsi, -24(%rbp)
	movq	-24(%rbp), %rax
	.loc	19 827 6
	addq	$32, %rsp
	popq	%rbp
	retq
Ltmp162:
Lfunc_end55:
	.cfi_endproc

	.p2align	4, 0x90
__ZN4core3ptr9const_ptr43_$LT$impl$u20$$BP$const$u20$$u5b$T$u5d$$GT$6as_ptr17hf02d59080baf85cfE:
Lfunc_begin56:
	.loc	19 845 0
	.cfi_startproc
	pushq	%rbp
	.cfi_def_cfa_offset 16
	.cfi_offset %rbp, -16
	movq	%rsp, %rbp
	.cfi_def_cfa_register %rbp
	subq	$16, %rsp
	movq	%rdi, -16(%rbp)
	movq	%rsi, -8(%rbp)
Ltmp163:
	.loc	19 847 6 prologue_end
	movq	%rdi, %rax
	addq	$16, %rsp
	popq	%rbp
	retq
Ltmp164:
Lfunc_end56:
	.cfi_endproc

	.p2align	4, 0x90
__ZN4core3str11unwrap_or_017hbefe8c024c5c66f8E:
Lfunc_begin57:
	.loc	3 506 0
	.cfi_startproc
	pushq	%rbp
	.cfi_def_cfa_offset 16
	.cfi_offset %rbp, -16
	movq	%rsp, %rbp
	.cfi_def_cfa_register %rbp
	subq	$16, %rsp
	movq	%rdi, -16(%rbp)
Ltmp165:
	.loc	3 508 9 prologue_end
	movq	-16(%rbp), %rax
	testq	%rax, %rax
	setne	%cl
	movzbl	%cl, %edx
	movl	%edx, %eax
	je	LBB57_1
	jmp	LBB57_5
LBB57_5:
	jmp	LBB57_3
LBB57_1:
	.loc	3 509 17
	movb	$0, -2(%rbp)
	.loc	3 507 5
	jmp	LBB57_4
	.loc	3 507 11 is_stmt 0
	ud2
LBB57_3:
	.loc	3 508 15 is_stmt 1
	movq	-16(%rbp), %rax
	movb	(%rax), %cl
	movb	%cl, -1(%rbp)
Ltmp166:
	.loc	3 508 24 is_stmt 0
	movb	%cl, -2(%rbp)
Ltmp167:
LBB57_4:
	.loc	3 511 2 is_stmt 1
	movb	-2(%rbp), %al
	addq	$16, %rsp
	popq	%rbp
	retq
Ltmp168:
Lfunc_end57:
	.cfi_endproc

	.p2align	4, 0x90
__ZN4core3str15next_code_point17h41313b448804fd06E:
Lfunc_begin58:
	.loc	3 517 0
	.cfi_startproc
	pushq	%rbp
	.cfi_def_cfa_offset 16
	.cfi_offset %rbp, -16
	movq	%rsp, %rbp
	.cfi_def_cfa_register %rbp
	subq	$160, %rsp
	movq	%rdi, -48(%rbp)
	movq	%rdi, -80(%rbp)
Ltmp169:
	.loc	3 519 14 prologue_end
	callq	__ZN85_$LT$core..slice..Iter$LT$T$GT$$u20$as$u20$core..iter..traits..iterator..Iterator$GT$4next17hfaec1a08291206e1E
	movq	%rax, -88(%rbp)
	.loc	3 0 14 is_stmt 0
	movq	-88(%rbp), %rdi
	.loc	3 519 14
	callq	__ZN69_$LT$core..option..Option$LT$T$GT$$u20$as$u20$core..ops..try..Try$GT$11into_result17h617900dfb6e29561E
	movq	%rax, -64(%rbp)
	.loc	3 519 26
	movq	-64(%rbp), %rax
	testq	%rax, %rax
	sete	%cl
	movzbl	%cl, %edx
	movl	%edx, %eax
	jne	LBB58_3
	jmp	LBB58_28
LBB58_28:
	jmp	LBB58_5
LBB58_3:
	.loc	3 519 14
	movq	-64(%rbp), %rax
	movq	%rax, -32(%rbp)
	.loc	3 519 13
	movb	(%rax), %cl
	movb	%cl, -17(%rbp)
Ltmp170:
	.loc	3 520 8 is_stmt 1
	cmpb	$-128, %cl
	movb	%cl, -89(%rbp)
	.loc	3 520 5 is_stmt 0
	jb	LBB58_11
	jmp	LBB58_10
Ltmp171:
	.loc	3 519 14 is_stmt 1
	ud2
LBB58_5:
Ltmp172:
	.loc	3 519 26 is_stmt 0
	callq	__ZN50_$LT$T$u20$as$u20$core..convert..From$LT$T$GT$$GT$4from17h8acbe9730f626a16E
	jmp	LBB58_7
Ltmp173:
LBB58_6:
	.loc	3 545 2 is_stmt 1
	movl	-72(%rbp), %eax
	movl	-68(%rbp), %edx
	addq	$160, %rsp
	popq	%rbp
	retq
LBB58_7:
Ltmp174:
	.loc	3 519 26
	callq	__ZN69_$LT$core..option..Option$LT$T$GT$$u20$as$u20$core..ops..try..Try$GT$10from_error17hbed3c0a171fa82f7E
	movl	%edx, -68(%rbp)
	movl	%eax, -72(%rbp)
Ltmp175:
	.loc	3 519 26 is_stmt 0
	jmp	LBB58_9
LBB58_9:
	jmp	LBB58_6
LBB58_10:
	.loc	3 0 26
	movb	-89(%rbp), %al
Ltmp176:
	.loc	3 527 16 is_stmt 1
	movzbl	%al, %edi
	movl	$2, %esi
	callq	__ZN4core3str15utf8_first_byte17hcd0b993f9fd11d50E
	movl	%eax, -16(%rbp)
	movl	%eax, -96(%rbp)
	jmp	LBB58_12
LBB58_11:
	.loc	3 0 16 is_stmt 0
	movb	-89(%rbp), %al
	.loc	3 521 21 is_stmt 1
	movzbl	%al, %ecx
	.loc	3 521 16 is_stmt 0
	movl	%ecx, -68(%rbp)
	movl	$1, -72(%rbp)
Ltmp177:
	.loc	3 521 9
	jmp	LBB58_9
LBB58_12:
	.loc	3 0 9
	movq	-80(%rbp), %rdi
Ltmp178:
	.loc	3 528 25 is_stmt 1
	callq	__ZN85_$LT$core..slice..Iter$LT$T$GT$$u20$as$u20$core..iter..traits..iterator..Iterator$GT$4next17hfaec1a08291206e1E
	movq	%rax, -104(%rbp)
	.loc	3 0 25 is_stmt 0
	movq	-104(%rbp), %rdi
	.loc	3 528 13
	callq	__ZN4core3str11unwrap_or_017hbefe8c024c5c66f8E
	movb	%al, -10(%rbp)
	movb	%al, -105(%rbp)
	.loc	3 0 13
	movl	-96(%rbp), %edi
	movb	-105(%rbp), %al
Ltmp179:
	.loc	3 529 18 is_stmt 1
	movzbl	%al, %esi
	callq	__ZN4core3str18utf8_acc_cont_byte17ha31d5c89f7943172E
	movl	%eax, -52(%rbp)
	.loc	3 0 18 is_stmt 0
	movb	-89(%rbp), %al
Ltmp180:
	.loc	3 530 8 is_stmt 1
	cmpb	$-32, %al
	.loc	3 530 5 is_stmt 0
	jae	LBB58_17
	jmp	LBB58_27
LBB58_17:
	.loc	3 0 5
	movq	-80(%rbp), %rdi
	.loc	3 533 29 is_stmt 1
	callq	__ZN85_$LT$core..slice..Iter$LT$T$GT$$u20$as$u20$core..iter..traits..iterator..Iterator$GT$4next17hfaec1a08291206e1E
	movq	%rax, -120(%rbp)
	.loc	3 0 29 is_stmt 0
	movq	-120(%rbp), %rdi
	.loc	3 533 17
	callq	__ZN4core3str11unwrap_or_017hbefe8c024c5c66f8E
	movb	%al, -9(%rbp)
	movb	%al, -121(%rbp)
	.loc	3 0 17
	movb	-105(%rbp), %al
Ltmp181:
	.loc	3 534 38 is_stmt 1
	andb	$63, %al
	movzbl	%al, %edi
	movb	-121(%rbp), %al
	.loc	3 534 19 is_stmt 0
	movzbl	%al, %esi
	callq	__ZN4core3str18utf8_acc_cont_byte17ha31d5c89f7943172E
	movl	%eax, -8(%rbp)
	movl	%eax, -128(%rbp)
	.loc	3 0 19
	movl	-96(%rbp), %eax
Ltmp182:
	.loc	3 535 14 is_stmt 1
	shll	$12, %eax
	movl	-128(%rbp), %ecx
	.loc	3 535 9 is_stmt 0
	orl	%ecx, %eax
	movl	%eax, -52(%rbp)
	movb	-89(%rbp), %dl
	.loc	3 536 12 is_stmt 1
	cmpb	$-16, %dl
	.loc	3 536 9 is_stmt 0
	jae	LBB58_22
	jmp	LBB58_26
LBB58_22:
	.loc	3 0 9
	movq	-80(%rbp), %rdi
	.loc	3 539 33 is_stmt 1
	callq	__ZN85_$LT$core..slice..Iter$LT$T$GT$$u20$as$u20$core..iter..traits..iterator..Iterator$GT$4next17hfaec1a08291206e1E
	movq	%rax, -136(%rbp)
	.loc	3 0 33 is_stmt 0
	movq	-136(%rbp), %rdi
	.loc	3 539 21
	callq	__ZN4core3str11unwrap_or_017hbefe8c024c5c66f8E
	movb	%al, -1(%rbp)
	movb	%al, -137(%rbp)
	.loc	3 0 21
	movl	-96(%rbp), %eax
Ltmp183:
	.loc	3 540 18 is_stmt 1
	andl	$7, %eax
	shll	$18, %eax
	movl	-128(%rbp), %edi
	movb	-137(%rbp), %cl
	.loc	3 540 37 is_stmt 0
	movzbl	%cl, %esi
	movl	%eax, -144(%rbp)
	callq	__ZN4core3str18utf8_acc_cont_byte17ha31d5c89f7943172E
	movl	%eax, -148(%rbp)
	.loc	3 0 37
	movl	-144(%rbp), %eax
	movl	-148(%rbp), %ecx
	.loc	3 540 13
	orl	%ecx, %eax
	movl	%eax, -52(%rbp)
Ltmp184:
LBB58_26:
	.loc	3 530 5 is_stmt 1
	jmp	LBB58_27
LBB58_27:
	.loc	3 544 10
	movl	-52(%rbp), %eax
	.loc	3 544 5 is_stmt 0
	movl	%eax, -68(%rbp)
	movl	$1, -72(%rbp)
Ltmp185:
	.loc	3 545 2 is_stmt 1
	jmp	LBB58_6
Ltmp186:
Lfunc_end58:
	.cfi_endproc

	.p2align	4, 0x90
__ZN4core3str15utf8_first_byte17hcd0b993f9fd11d50E:
Lfunc_begin59:
	.loc	3 488 0
	.cfi_startproc
	pushq	%rbp
	.cfi_def_cfa_offset 16
	.cfi_offset %rbp, -16
	movq	%rsp, %rbp
	.cfi_def_cfa_register %rbp
	pushq	%rax
	movb	%dil, -5(%rbp)
	movl	%esi, -4(%rbp)
Ltmp187:
	.loc	3 489 13 prologue_end
	andb	$7, %sil
	movb	%sil, %cl
	movb	$127, %al
	shrb	%cl, %al
	.loc	3 489 5 is_stmt 0
	andb	%al, %dil
	movzbl	%dil, %eax
	.loc	3 490 2 is_stmt 1
	addq	$8, %rsp
	popq	%rbp
	retq
Ltmp188:
Lfunc_end59:
	.cfi_endproc

	.p2align	4, 0x90
__ZN4core3str18utf8_acc_cont_byte17ha31d5c89f7943172E:
Lfunc_begin60:
	.loc	3 494 0
	.cfi_startproc
	pushq	%rbp
	.cfi_def_cfa_offset 16
	.cfi_offset %rbp, -16
	movq	%rsp, %rbp
	.cfi_def_cfa_register %rbp
	pushq	%rax
	movl	%edi, -8(%rbp)
	movb	%sil, -1(%rbp)
Ltmp189:
	.loc	3 495 5 prologue_end
	shll	$6, %edi
	.loc	3 495 17 is_stmt 0
	andb	$63, %sil
	movzbl	%sil, %eax
	.loc	3 495 5
	orl	%eax, %edi
	.loc	3 496 2 is_stmt 1
	movl	%edi, %eax
	addq	$8, %rsp
	popq	%rbp
	retq
Ltmp190:
Lfunc_end60:
	.cfi_endproc

	.p2align	4, 0x90
__ZN4core3str19from_utf8_unchecked17h07e11375b4df2f18E:
Lfunc_begin61:
	.loc	3 417 0
	.cfi_startproc
	pushq	%rbp
	.cfi_def_cfa_offset 16
	.cfi_offset %rbp, -16
	movq	%rsp, %rbp
	.cfi_def_cfa_register %rbp
	subq	$16, %rsp
	movq	%rdi, -16(%rbp)
	movq	%rsi, -8(%rbp)
Ltmp191:
	.loc	3 423 2 prologue_end
	movq	%rdi, %rax
	movq	%rsi, %rdx
	addq	$16, %rsp
	popq	%rbp
	retq
Ltmp192:
Lfunc_end61:
	.cfi_endproc

	.p2align	4, 0x90
__ZN4core3str21_$LT$impl$u20$str$GT$16is_char_boundary17hd62397ef1e80adbcE:
Lfunc_begin62:
	.loc	3 2322 0
	.cfi_startproc
	pushq	%rbp
	.cfi_def_cfa_offset 16
	.cfi_offset %rbp, -16
	movq	%rsp, %rbp
	.cfi_def_cfa_register %rbp
	subq	$128, %rsp
	movq	%rdi, -64(%rbp)
	movq	%rsi, -56(%rbp)
	movq	%rdx, -48(%rbp)
Ltmp193:
	.loc	3 2326 12 prologue_end
	cmpq	$0, %rdx
	movq	%rdi, -88(%rbp)
	movq	%rsi, -96(%rbp)
	movq	%rdx, -104(%rbp)
	jne	LBB62_3
LBB62_1:
	movb	$1, -73(%rbp)
	jmp	LBB62_4
LBB62_2:
	movb	$0, -73(%rbp)
	jmp	LBB62_4
LBB62_3:
	.loc	3 0 12 is_stmt 0
	movq	-88(%rbp), %rdi
	movq	-96(%rbp), %rsi
	.loc	3 2326 35
	callq	__ZN4core3str21_$LT$impl$u20$str$GT$3len17hfa2bb2f478c7a9d7E
	movq	%rax, -112(%rbp)
	jmp	LBB62_5
LBB62_4:
	.loc	3 2326 9
	testb	$1, -73(%rbp)
	jne	LBB62_7
	jmp	LBB62_6
LBB62_5:
	.loc	3 0 9
	movq	-104(%rbp), %rax
	movq	-112(%rbp), %rcx
	.loc	3 2326 26
	cmpq	%rcx, %rax
	.loc	3 2326 12
	je	LBB62_1
	jmp	LBB62_2
LBB62_6:
	.loc	3 0 12
	movq	-88(%rbp), %rax
	movq	%rax, -16(%rbp)
	movq	-96(%rbp), %rcx
	movq	%rcx, -8(%rbp)
Ltmp194:
	.loc	3 2359 18 is_stmt 1
	movq	%rax, -32(%rbp)
	movq	%rcx, -24(%rbp)
	movq	-32(%rbp), %rdi
	movq	-24(%rbp), %rsi
	movq	%rdi, -120(%rbp)
	movq	%rsi, -128(%rbp)
Ltmp195:
	.loc	3 2329 15
	jmp	LBB62_9
LBB62_7:
	.loc	3 2327 20
	movb	$1, -74(%rbp)
LBB62_8:
	.loc	3 2334 6
	movb	-74(%rbp), %al
	andb	$1, %al
	movzbl	%al, %eax
	addq	$128, %rsp
	popq	%rbp
	retq
LBB62_9:
	.loc	3 0 6 is_stmt 0
	movq	-120(%rbp), %rdi
	movq	-128(%rbp), %rsi
	movq	-104(%rbp), %rdx
	.loc	3 2329 15 is_stmt 1
	callq	__ZN4core5slice29_$LT$impl$u20$$u5b$T$u5d$$GT$3get17h2d5c816240b961cfE
	movq	%rax, -72(%rbp)
	.loc	3 2330 13
	movq	-72(%rbp), %rax
	testq	%rax, %rax
	setne	%cl
	movzbl	%cl, %edx
	movl	%edx, %eax
	je	LBB62_13
	jmp	LBB62_15
LBB62_15:
	.loc	3 2332 19
	movq	-72(%rbp), %rax
	movb	(%rax), %cl
	movb	%cl, -33(%rbp)
Ltmp196:
	.loc	3 2332 25 is_stmt 0
	cmpb	$-64, %cl
	setge	%cl
	andb	$1, %cl
	movb	%cl, -74(%rbp)
Ltmp197:
	.loc	3 2329 9 is_stmt 1
	jmp	LBB62_14
	.loc	3 2329 15 is_stmt 0
	ud2
LBB62_13:
	.loc	3 2330 21 is_stmt 1
	movb	$0, -74(%rbp)
LBB62_14:
	.loc	3 2334 6
	jmp	LBB62_8
Ltmp198:
Lfunc_end62:
	.cfi_endproc

	.p2align	4, 0x90
__ZN4core3str21_$LT$impl$u20$str$GT$3len17hfa2bb2f478c7a9d7E:
Lfunc_begin63:
	.loc	3 2273 0
	.cfi_startproc
	pushq	%rbp
	.cfi_def_cfa_offset 16
	.cfi_offset %rbp, -16
	movq	%rsp, %rbp
	.cfi_def_cfa_register %rbp
	subq	$80, %rsp
	movq	%rdi, -48(%rbp)
	movq	%rsi, -40(%rbp)
	movq	%rdi, -16(%rbp)
	movq	%rsi, -8(%rbp)
Ltmp199:
	.loc	3 2359 18 prologue_end
	movq	%rdi, -32(%rbp)
	movq	%rsi, -24(%rbp)
	movq	-32(%rbp), %rdi
	movq	-24(%rbp), %rsi
	movq	%rdi, -56(%rbp)
	movq	%rsi, -64(%rbp)
Ltmp200:
	.loc	3 0 18 is_stmt 0
	movq	-56(%rbp), %rdi
	movq	-64(%rbp), %rsi
	.loc	3 2274 9 is_stmt 1
	callq	__ZN4core5slice29_$LT$impl$u20$$u5b$T$u5d$$GT$3len17hee3fa036b8f7c7c7E
	movq	%rax, -72(%rbp)
	.loc	3 0 9 is_stmt 0
	movq	-72(%rbp), %rax
	.loc	3 2275 6 is_stmt 1
	addq	$80, %rsp
	popq	%rbp
	retq
Ltmp201:
Lfunc_end63:
	.cfi_endproc

	.p2align	4, 0x90
__ZN4core3str21_$LT$impl$u20$str$GT$5chars17h2c72cffd1afccf18E:
Lfunc_begin64:
	.loc	3 2799 0
	.cfi_startproc
	pushq	%rbp
	.cfi_def_cfa_offset 16
	.cfi_offset %rbp, -16
	movq	%rsp, %rbp
	.cfi_def_cfa_register %rbp
	subq	$96, %rsp
	movq	%rdi, -48(%rbp)
	movq	%rsi, -40(%rbp)
	movq	%rdi, -16(%rbp)
	movq	%rsi, -8(%rbp)
Ltmp202:
	.loc	3 2359 18 prologue_end
	movq	%rdi, -32(%rbp)
	movq	%rsi, -24(%rbp)
	movq	-32(%rbp), %rdi
	movq	-24(%rbp), %rsi
	movq	%rdi, -72(%rbp)
	movq	%rsi, -80(%rbp)
Ltmp203:
	.loc	3 0 18 is_stmt 0
	movq	-72(%rbp), %rdi
	movq	-80(%rbp), %rsi
	.loc	3 2800 23 is_stmt 1
	callq	__ZN4core5slice29_$LT$impl$u20$$u5b$T$u5d$$GT$4iter17ha3d7a3213ebb318bE
	movq	%rax, -88(%rbp)
	movq	%rdx, -96(%rbp)
	.loc	3 0 23 is_stmt 0
	movq	-88(%rbp), %rax
	.loc	3 2800 9
	movq	%rax, -64(%rbp)
	movq	-96(%rbp), %rcx
	movq	%rcx, -56(%rbp)
	.loc	3 2801 6 is_stmt 1
	movq	-64(%rbp), %rax
	movq	-56(%rbp), %rdx
	addq	$96, %rsp
	popq	%rbp
	retq
Ltmp204:
Lfunc_end64:
	.cfi_endproc

	.p2align	4, 0x90
__ZN4core3str21_$LT$impl$u20$str$GT$8contains17h51082499ce6020daE:
Lfunc_begin65:
	.loc	3 3061 0
	.cfi_startproc
	pushq	%rbp
	.cfi_def_cfa_offset 16
	.cfi_offset %rbp, -16
	movq	%rsp, %rbp
	.cfi_def_cfa_register %rbp
	subq	$64, %rsp
	movq	%rdi, -32(%rbp)
	movq	%rsi, -24(%rbp)
	movq	%rdx, -16(%rbp)
	movq	%rcx, -8(%rbp)
	movq	%rdi, -40(%rbp)
Ltmp205:
	.loc	3 3062 9 prologue_end
	movq	%rdx, %rdi
	movq	%rsi, -48(%rbp)
	movq	%rcx, %rsi
	movq	-40(%rbp), %rdx
	movq	-48(%rbp), %rcx
	callq	__ZN4core3str7pattern7Pattern15is_contained_in17h4236ae8c95c11db2E
	movb	%al, -49(%rbp)
	.loc	3 0 9 is_stmt 0
	movb	-49(%rbp), %al
	.loc	3 3063 6 is_stmt 1
	andb	$1, %al
	movzbl	%al, %eax
	addq	$64, %rsp
	popq	%rbp
	retq
Ltmp206:
Lfunc_end65:
	.cfi_endproc

	.p2align	4, 0x90
__ZN4core3str6traits105_$LT$impl$u20$core..slice..SliceIndex$LT$str$GT$$u20$for$u20$core..ops..range..RangeFrom$LT$usize$GT$$GT$13get_unchecked17hc83e3fcba7069f39E:
Lfunc_begin66:
	.loc	3 2052 0
	.cfi_startproc
	pushq	%rbp
	.cfi_def_cfa_offset 16
	.cfi_offset %rbp, -16
	movq	%rsp, %rbp
	.cfi_def_cfa_register %rbp
	subq	$128, %rsp
	movq	%rdi, -56(%rbp)
	movq	%rsi, -48(%rbp)
	movq	%rdx, -40(%rbp)
Ltmp207:
	.loc	3 2053 25 prologue_end
	movq	%rsi, -32(%rbp)
	movq	%rdx, -24(%rbp)
	movq	%rdi, -64(%rbp)
Ltmp208:
	.loc	3 2056 32
	movq	%rsi, %rdi
	movq	%rsi, -72(%rbp)
	movq	%rdx, %rsi
	movq	%rdx, -80(%rbp)
	callq	__ZN4core3ptr9const_ptr43_$LT$impl$u20$$BP$const$u20$$u5b$T$u5d$$GT$6as_ptr17hf02d59080baf85cfE
	movq	%rax, -88(%rbp)
	.loc	3 0 32 is_stmt 0
	movq	-88(%rbp), %rdi
	movq	-64(%rbp), %rsi
	.loc	3 2056 32
	callq	__ZN4core3ptr9const_ptr33_$LT$impl$u20$$BP$const$u20$T$GT$3add17ha61b93b3a7879760E
	movq	%rax, -16(%rbp)
	movq	%rax, -96(%rbp)
	.loc	3 0 32
	movq	-72(%rbp), %rdi
	movq	-80(%rbp), %rsi
Ltmp209:
	.loc	3 2057 23 is_stmt 1
	callq	__ZN4core3ptr9const_ptr43_$LT$impl$u20$$BP$const$u20$$u5b$T$u5d$$GT$3len17h370e831937920f48E
	movq	%rax, -104(%rbp)
	.loc	3 0 23 is_stmt 0
	movq	-104(%rbp), %rax
	movq	-64(%rbp), %rcx
	.loc	3 2057 23
	subq	%rcx, %rax
	movq	%rax, -8(%rbp)
	movq	-96(%rbp), %rdi
Ltmp210:
	.loc	3 2058 13 is_stmt 1
	movq	%rax, %rsi
	callq	__ZN4core3ptr20slice_from_raw_parts17hf57a907b7d2fd9efE
	movq	%rax, -112(%rbp)
	movq	%rdx, -120(%rbp)
Ltmp211:
	.loc	3 0 13 is_stmt 0
	movq	-112(%rbp), %rax
	movq	-120(%rbp), %rdx
	.loc	3 2059 10 is_stmt 1
	addq	$128, %rsp
	popq	%rbp
	retq
Ltmp212:
Lfunc_end66:
	.cfi_endproc

	.p2align	4, 0x90
__ZN4core3str6traits105_$LT$impl$u20$core..slice..SliceIndex$LT$str$GT$$u20$for$u20$core..ops..range..RangeFrom$LT$usize$GT$$GT$3get17h9263008e75db2bd2E:
Lfunc_begin67:
	.loc	3 2032 0
	.cfi_startproc
	pushq	%rbp
	.cfi_def_cfa_offset 16
	.cfi_offset %rbp, -16
	movq	%rsp, %rbp
	.cfi_def_cfa_register %rbp
	subq	$96, %rsp
	movq	%rdi, -24(%rbp)
	movq	%rsi, -16(%rbp)
	movq	%rdx, -8(%rbp)
	movq	%rdi, -48(%rbp)
Ltmp213:
	.loc	3 2033 16 prologue_end
	movq	%rsi, %rdi
	movq	%rsi, -56(%rbp)
	movq	%rdx, %rsi
	movq	-48(%rbp), %rax
	movq	%rdx, -64(%rbp)
	movq	%rax, %rdx
	callq	__ZN4core3str21_$LT$impl$u20$str$GT$16is_char_boundary17hd62397ef1e80adbcE
	movb	%al, -65(%rbp)
	.loc	3 0 16 is_stmt 0
	movb	-65(%rbp), %al
	.loc	3 2033 13
	testb	$1, %al
	jne	LBB67_3
	jmp	LBB67_2
LBB67_2:
	.loc	3 2038 17 is_stmt 1
	movq	$0, -40(%rbp)
	.loc	3 2033 13
	jmp	LBB67_5
LBB67_3:
	.loc	3 0 13 is_stmt 0
	movq	-48(%rbp), %rdi
	movq	-56(%rbp), %rsi
	movq	-64(%rbp), %rdx
	.loc	3 2036 33 is_stmt 1
	callq	__ZN4core3str6traits105_$LT$impl$u20$core..slice..SliceIndex$LT$str$GT$$u20$for$u20$core..ops..range..RangeFrom$LT$usize$GT$$GT$13get_unchecked17hc83e3fcba7069f39E
	movq	%rax, -80(%rbp)
	movq	%rdx, -88(%rbp)
	.loc	3 0 33 is_stmt 0
	movq	-80(%rbp), %rax
	.loc	3 2036 17
	movq	%rax, -40(%rbp)
	movq	-88(%rbp), %rcx
	movq	%rcx, -32(%rbp)
LBB67_5:
	.loc	3 2040 10 is_stmt 1
	movq	-40(%rbp), %rax
	movq	-32(%rbp), %rdx
	addq	$96, %rsp
	popq	%rbp
	retq
Ltmp214:
Lfunc_end67:
	.cfi_endproc

	.p2align	4, 0x90
__ZN4core3str6traits105_$LT$impl$u20$core..slice..SliceIndex$LT$str$GT$$u20$for$u20$core..ops..range..RangeFrom$LT$usize$GT$$GT$5index17hb0875dce7604fc89E:
Lfunc_begin68:
	.loc	3 2069 0
	.cfi_startproc
	pushq	%rbp
	.cfi_def_cfa_offset 16
	.cfi_offset %rbp, -16
	movq	%rsp, %rbp
	.cfi_def_cfa_register %rbp
	subq	$144, %rsp
	movq	%rsi, -80(%rbp)
	movq	%rdx, -72(%rbp)
	movq	%rdi, -8(%rbp)
Ltmp215:
	.loc	3 2070 45 prologue_end
	movq	-80(%rbp), %rax
	movq	-72(%rbp), %rsi
	movq	%rdi, -88(%rbp)
	movq	%rax, %rdi
	movq	%rcx, -96(%rbp)
	callq	__ZN4core3str21_$LT$impl$u20$str$GT$3len17hfa2bb2f478c7a9d7E
	movq	%rax, -104(%rbp)
	.loc	3 0 45 is_stmt 0
	movq	-88(%rbp), %rax
	.loc	3 2070 32
	movq	%rax, -48(%rbp)
	movq	-104(%rbp), %rcx
	movq	%rcx, -40(%rbp)
	.loc	3 2070 18
	movq	-48(%rbp), %rdx
	movq	%rdx, -64(%rbp)
	.loc	3 2070 25
	movq	-40(%rbp), %rdx
	movq	%rdx, -56(%rbp)
Ltmp216:
	.loc	3 2071 22 is_stmt 1
	movq	-80(%rbp), %rsi
	movq	-72(%rbp), %rdx
	.loc	3 2071 13 is_stmt 0
	movq	%rax, %rdi
	callq	__ZN4core3str6traits105_$LT$impl$u20$core..slice..SliceIndex$LT$str$GT$$u20$for$u20$core..ops..range..RangeFrom$LT$usize$GT$$GT$3get17h9263008e75db2bd2E
	movq	%rax, -112(%rbp)
	movq	%rdx, -120(%rbp)
	.loc	3 2071 44
	leaq	-80(%rbp), %rax
	movq	%rax, -32(%rbp)
	leaq	-64(%rbp), %rax
	movq	%rax, -24(%rbp)
	leaq	-56(%rbp), %rax
	movq	%rax, -16(%rbp)
	movq	-112(%rbp), %rdi
	movq	-120(%rbp), %rsi
	.loc	3 2071 13
	leaq	-32(%rbp), %rdx
	callq	__ZN4core6option15Option$LT$T$GT$14unwrap_or_else17h2ddcb7066a750eaaE
	movq	%rax, -128(%rbp)
	movq	%rdx, -136(%rbp)
Ltmp217:
	.loc	3 0 13
	movq	-128(%rbp), %rax
	movq	-136(%rbp), %rdx
	.loc	3 2072 10 is_stmt 1
	addq	$144, %rsp
	popq	%rbp
	retq
Ltmp218:
Lfunc_end68:
	.cfi_endproc

	.p2align	4, 0x90
__ZN4core3str6traits105_$LT$impl$u20$core..slice..SliceIndex$LT$str$GT$$u20$for$u20$core..ops..range..RangeFrom$LT$usize$GT$$GT$5index28_$u7b$$u7b$closure$u7d$$u7d$17h7990b4198477e6a8E:
Lfunc_begin69:
	.loc	3 2071 0
	.cfi_startproc
	pushq	%rbp
	.cfi_def_cfa_offset 16
	.cfi_offset %rbp, -16
	movq	%rsp, %rbp
	.cfi_def_cfa_register %rbp
Ltmp219:
	.loc	3 2071 71 prologue_end
	movq	(%rdi), %rax
	.loc	3 2071 78 is_stmt 0
	movq	8(%rdi), %rcx
	.loc	3 2071 71
	movq	(%rax), %rdx
	movq	8(%rax), %rsi
	.loc	3 2071 78
	movq	(%rcx), %rax
	.loc	3 2071 85
	movq	16(%rdi), %rcx
	movq	(%rcx), %rcx
	.loc	3 2071 47
	leaq	l___unnamed_3(%rip), %r8
	movq	%rdx, %rdi
Ltmp220:
	movq	%rax, %rdx
	callq	__ZN4core3str16slice_error_fail17ha125059561e5ce66E
Ltmp221:
Lfunc_end69:
	.cfi_endproc

	.p2align	4, 0x90
__ZN4core3str6traits66_$LT$impl$u20$core..ops..index..Index$LT$I$GT$$u20$for$u20$str$GT$5index17h332f6c5bc41fabb8E:
Lfunc_begin70:
	.loc	3 1777 0 is_stmt 1
	.cfi_startproc
	pushq	%rbp
	.cfi_def_cfa_offset 16
	.cfi_offset %rbp, -16
	movq	%rsp, %rbp
	.cfi_def_cfa_register %rbp
	subq	$64, %rsp
	movq	%rdi, -24(%rbp)
	movq	%rsi, -16(%rbp)
	movq	%rdx, -8(%rbp)
	movq	%rdi, -32(%rbp)
Ltmp222:
	.loc	3 1778 13 prologue_end
	movq	%rdx, %rdi
	movq	-32(%rbp), %rax
	movq	%rsi, -40(%rbp)
	movq	%rax, %rsi
	movq	-40(%rbp), %rdx
	callq	__ZN4core3str6traits105_$LT$impl$u20$core..slice..SliceIndex$LT$str$GT$$u20$for$u20$core..ops..range..RangeFrom$LT$usize$GT$$GT$5index17hb0875dce7604fc89E
	movq	%rax, -48(%rbp)
	movq	%rdx, -56(%rbp)
	.loc	3 0 13 is_stmt 0
	movq	-48(%rbp), %rax
	movq	-56(%rbp), %rdx
	.loc	3 1779 10 is_stmt 1
	addq	$64, %rsp
	popq	%rbp
	retq
Ltmp223:
Lfunc_end70:
	.cfi_endproc

	.p2align	4, 0x90
__ZN4core3str7pattern14TwoWaySearcher16byteset_contains17hf0b35896fe0f9e67E:
Lfunc_begin71:
	.file	20 "/rustc/6c8927b0cf80ceee19386026cf9d7fd4fd9d486f/src/libcore/str/pattern.rs"
	.loc	20 1286 0
	.cfi_startproc
	pushq	%rbp
	.cfi_def_cfa_offset 16
	.cfi_offset %rbp, -16
	movq	%rsp, %rbp
	.cfi_def_cfa_register %rbp
	subq	$16, %rsp
	movq	%rdi, -16(%rbp)
	movb	%sil, -1(%rbp)
Ltmp224:
	.loc	20 1287 10 prologue_end
	movq	24(%rdi), %rax
	.loc	20 1287 27 is_stmt 0
	andb	$63, %sil
	.loc	20 1287 26
	movzbl	%sil, %ecx
	movl	%ecx, %edx
	.loc	20 1287 9
	andq	$63, %rdx
	movq	%rdx, %rcx
	shrq	%cl, %rax
	andq	$1, %rax
	cmpq	$0, %rax
	setne	%cl
	.loc	20 1288 6 is_stmt 1
	andb	$1, %cl
	movzbl	%cl, %eax
	addq	$16, %rsp
	popq	%rbp
	retq
Ltmp225:
Lfunc_end71:
	.cfi_endproc

	.p2align	4, 0x90
__ZN4core3str7pattern14TwoWaySearcher4next17h76dc69d125d4d87bE:
Lfunc_begin72:
	.loc	20 1296 0
	.cfi_startproc
	pushq	%rbp
	.cfi_def_cfa_offset 16
	.cfi_offset %rbp, -16
	movq	%rsp, %rbp
	.cfi_def_cfa_register %rbp
	pushq	%rbx
	subq	$520, %rsp
	.cfi_offset %rbx, -24
	movq	%rdi, %rax
	movb	16(%rbp), %r10b
	movq	%rsi, -136(%rbp)
	movq	%rdx, -128(%rbp)
	movq	%rcx, -120(%rbp)
	movq	%r8, -112(%rbp)
	movq	%r9, -104(%rbp)
	movb	%r10b, %r11b
	andb	$1, %r11b
	movb	%r11b, -89(%rbp)
Ltmp226:
	.loc	20 1301 23 prologue_end
	movq	32(%rsi), %rbx
	movq	%rbx, -88(%rbp)
	movq	%rdi, -272(%rbp)
Ltmp227:
	.loc	20 1302 27
	movq	%r8, %rdi
	movq	%rsi, -280(%rbp)
	movq	%r9, %rsi
	movq	%r9, -288(%rbp)
	movq	%r8, -296(%rbp)
	movq	%rcx, -304(%rbp)
	movq	%rdx, -312(%rbp)
	movq	%rax, -320(%rbp)
	movb	%r10b, -321(%rbp)
	movq	%rbx, -336(%rbp)
	callq	__ZN4core5slice29_$LT$impl$u20$$u5b$T$u5d$$GT$3len17hee3fa036b8f7c7c7E
	movq	%rax, -344(%rbp)
	.loc	20 0 27 is_stmt 0
	movq	-344(%rbp), %rax
	.loc	20 1302 27
	subq	$1, %rax
	movq	%rax, -80(%rbp)
	movq	%rax, -352(%rbp)
LBB72_2:
	.loc	20 0 27
	movq	-352(%rbp), %rax
	movq	-280(%rbp), %rcx
Ltmp228:
	.loc	20 1307 48 is_stmt 1
	addq	32(%rcx), %rax
	movq	-312(%rbp), %rdi
	movq	-304(%rbp), %rsi
	.loc	20 1307 35 is_stmt 0
	movq	%rax, %rdx
	callq	__ZN4core5slice29_$LT$impl$u20$$u5b$T$u5d$$GT$3get17h2d5c816240b961cfE
	movq	%rax, -264(%rbp)
	.loc	20 1308 17 is_stmt 1
	movq	-264(%rbp), %rax
	testq	%rax, %rax
	setne	%cl
	movzbl	%cl, %edx
	movl	%edx, %eax
	je	LBB72_4
	jmp	LBB72_73
LBB72_73:
	jmp	LBB72_6
LBB72_4:
	.loc	20 0 17 is_stmt 0
	movq	-312(%rbp), %rdi
	movq	-304(%rbp), %rsi
	.loc	20 1310 37 is_stmt 1
	callq	__ZN4core5slice29_$LT$impl$u20$$u5b$T$u5d$$GT$3len17hee3fa036b8f7c7c7E
	movq	%rax, -360(%rbp)
	jmp	LBB72_7
	.loc	20 1307 35
	ud2
LBB72_6:
	.loc	20 1308 23
	movq	-264(%rbp), %rax
	movb	(%rax), %cl
	movb	%cl, -66(%rbp)
Ltmp229:
	.loc	20 1308 29 is_stmt 0
	movb	%cl, -65(%rbp)
	movb	%cl, -361(%rbp)
Ltmp230:
	.loc	20 1315 16 is_stmt 1
	callq	__ZN89_$LT$core..str..pattern..RejectAndMatch$u20$as$u20$core..str..pattern..TwoWayStrategy$GT$16use_early_reject17h0780e509952dfbe8E
	movb	%al, -362(%rbp)
	jmp	LBB72_14
Ltmp231:
LBB72_7:
	.loc	20 0 16 is_stmt 0
	movq	-280(%rbp), %rax
	movq	-360(%rbp), %rcx
	.loc	20 1310 21 is_stmt 1
	movq	%rcx, 32(%rax)
	.loc	20 1311 50
	movq	32(%rax), %rdx
	movq	-272(%rbp), %rdi
	movq	-336(%rbp), %rsi
	.loc	20 1311 28 is_stmt 0
	callq	__ZN89_$LT$core..str..pattern..RejectAndMatch$u20$as$u20$core..str..pattern..TwoWayStrategy$GT$9rejecting17h2823cb2fa9911a8fE
	.loc	20 1311 21
	jmp	LBB72_9
Ltmp232:
LBB72_9:
	.loc	20 0 21
	movq	-320(%rbp), %rax
	.loc	20 1364 6 is_stmt 1
	addq	$520, %rsp
	popq	%rbx
	popq	%rbp
	retq
LBB72_10:
Ltmp233:
	.loc	20 1315 16
	movb	$1, -249(%rbp)
	jmp	LBB72_13
LBB72_11:
	movb	$0, -249(%rbp)
	jmp	LBB72_13
LBB72_12:
	.loc	20 0 16 is_stmt 0
	movq	-336(%rbp), %rax
	movq	-280(%rbp), %rcx
	.loc	20 1315 41
	cmpq	32(%rcx), %rax
	.loc	20 1315 16
	jne	LBB72_10
	jmp	LBB72_11
LBB72_13:
	.loc	20 1315 13
	testb	$1, -249(%rbp)
	jne	LBB72_16
	jmp	LBB72_15
LBB72_14:
	.loc	20 0 13
	movb	-362(%rbp), %al
	.loc	20 1315 16
	testb	$1, %al
	jne	LBB72_12
	jmp	LBB72_11
LBB72_15:
	.loc	20 0 16
	movq	-280(%rbp), %rdi
	movb	-361(%rbp), %al
	.loc	20 1320 17 is_stmt 1
	movzbl	%al, %esi
	callq	__ZN4core3str7pattern14TwoWaySearcher16byteset_contains17hf0b35896fe0f9e67E
	movb	%al, -363(%rbp)
	jmp	LBB72_18
LBB72_16:
	.loc	20 0 17 is_stmt 0
	movq	-280(%rbp), %rax
	.loc	20 1316 46 is_stmt 1
	movq	32(%rax), %rdx
	movq	-272(%rbp), %rdi
	movq	-336(%rbp), %rsi
	.loc	20 1316 24 is_stmt 0
	callq	__ZN89_$LT$core..str..pattern..RejectAndMatch$u20$as$u20$core..str..pattern..TwoWayStrategy$GT$9rejecting17h2823cb2fa9911a8fE
Ltmp234:
	.loc	20 1316 17
	jmp	LBB72_9
LBB72_18:
	.loc	20 0 17
	movb	-363(%rbp), %al
Ltmp235:
	.loc	20 1320 16 is_stmt 1
	xorb	$-1, %al
	.loc	20 1320 13 is_stmt 0
	testb	$1, %al
	jne	LBB72_20
	.loc	20 0 13
	movb	-321(%rbp), %al
	.loc	20 1330 17 is_stmt 1
	testb	$1, %al
	jne	LBB72_27
	jmp	LBB72_26
LBB72_20:
	.loc	20 0 17 is_stmt 0
	movq	-296(%rbp), %rdi
	movq	-288(%rbp), %rsi
	.loc	20 1321 34 is_stmt 1
	callq	__ZN4core5slice29_$LT$impl$u20$$u5b$T$u5d$$GT$3len17hee3fa036b8f7c7c7E
	movq	%rax, -376(%rbp)
	.loc	20 0 34 is_stmt 0
	movq	-376(%rbp), %rax
	movq	-280(%rbp), %rcx
	.loc	20 1321 17
	addq	32(%rcx), %rax
	movq	%rax, 32(%rcx)
	movb	-321(%rbp), %dl
	.loc	20 1322 20 is_stmt 1
	xorb	$-1, %dl
	.loc	20 1322 17 is_stmt 0
	testb	$1, %dl
	jne	LBB72_23
	jmp	LBB72_24
LBB72_23:
	.loc	20 0 17
	movq	-280(%rbp), %rax
	.loc	20 1323 21 is_stmt 1
	movq	$0, 48(%rax)
Ltmp236:
LBB72_24:
	.loc	20 1325 17
	jmp	LBB72_25
LBB72_25:
	jmp	LBB72_2
LBB72_26:
	.loc	20 0 17 is_stmt 0
	movq	-280(%rbp), %rax
Ltmp237:
	.loc	20 1330 66 is_stmt 1
	movq	(%rax), %rdi
	.loc	20 1330 81 is_stmt 0
	movq	48(%rax), %rsi
	.loc	20 1330 57
	callq	__ZN4core3cmp3max17ha2acf5674cb28d4cE
	movq	%rax, -248(%rbp)
	jmp	LBB72_28
LBB72_27:
	.loc	20 0 57
	movq	-280(%rbp), %rax
	.loc	20 1330 34
	movq	(%rax), %rcx
	movq	%rcx, -248(%rbp)
	.loc	20 1330 17
	jmp	LBB72_29
LBB72_28:
	jmp	LBB72_29
LBB72_29:
Ltmp238:
	.loc	20 1331 22 is_stmt 1
	movq	-248(%rbp), %rax
	movq	-296(%rbp), %rdi
	movq	-288(%rbp), %rsi
	movq	%rax, -384(%rbp)
	.loc	20 1331 29 is_stmt 0
	callq	__ZN4core5slice29_$LT$impl$u20$$u5b$T$u5d$$GT$3len17hee3fa036b8f7c7c7E
	movq	%rax, -392(%rbp)
	.loc	20 0 29
	movq	-384(%rbp), %rax
	.loc	20 1331 22
	movq	%rax, -240(%rbp)
	movq	-392(%rbp), %rcx
	movq	%rcx, -232(%rbp)
	movq	-240(%rbp), %rdi
	movq	-232(%rbp), %rsi
	callq	__ZN63_$LT$I$u20$as$u20$core..iter..traits..collect..IntoIterator$GT$9into_iter17hee590cea7cd8613aE
	movq	%rax, -400(%rbp)
	movq	%rdx, -408(%rbp)
	.loc	20 0 22
	movq	-400(%rbp), %rax
	.loc	20 1331 22
	movq	%rax, -224(%rbp)
	movq	-408(%rbp), %rcx
	movq	%rcx, -216(%rbp)
LBB72_32:
	.loc	20 0 22
	leaq	-224(%rbp), %rdi
Ltmp239:
	.loc	20 1331 22
	callq	__ZN4core4iter5range101_$LT$impl$u20$core..iter..traits..iterator..Iterator$u20$for$u20$core..ops..range..Range$LT$A$GT$$GT$4next17h03cee1bff6059351E
	movq	%rdx, -200(%rbp)
	movq	%rax, -208(%rbp)
	.loc	20 1331 17
	movq	-208(%rbp), %rax
	testq	%rax, %rax
	je	LBB72_34
	jmp	LBB72_74
LBB72_74:
	jmp	LBB72_36
Ltmp240:
LBB72_34:
	.loc	20 0 17
	movb	-321(%rbp), %al
	.loc	20 1342 25 is_stmt 1
	testb	$1, %al
	jne	LBB72_46
	jmp	LBB72_45
Ltmp241:
	.loc	20 1331 22
	ud2
LBB72_36:
	.loc	20 1331 17 is_stmt 0
	movq	-200(%rbp), %rax
	movq	%rax, -64(%rbp)
Ltmp242:
	.loc	20 1331 17
	movq	%rax, -56(%rbp)
Ltmp243:
	.loc	20 1331 22
	movq	%rax, -48(%rbp)
	movq	-288(%rbp), %rcx
Ltmp244:
	.loc	20 1332 20 is_stmt 1
	cmpq	%rcx, %rax
	setb	%dl
	testb	$1, %dl
	movq	%rax, -416(%rbp)
	jne	LBB72_37
	jmp	LBB72_69
LBB72_37:
	.loc	20 0 20 is_stmt 0
	movq	-296(%rbp), %rax
	movq	-416(%rbp), %rcx
	.loc	20 1332 20
	movb	(%rax,%rcx), %dl
	movq	-280(%rbp), %rsi
	.loc	20 1332 42
	addq	32(%rsi), %rcx
	movq	-304(%rbp), %rdi
	.loc	20 1332 33
	cmpq	%rdi, %rcx
	setb	%r8b
	testb	$1, %r8b
	movb	%dl, -417(%rbp)
	movq	%rcx, -432(%rbp)
	jne	LBB72_38
	jmp	LBB72_70
LBB72_38:
	.loc	20 0 33
	movb	-417(%rbp), %al
	movq	-312(%rbp), %rcx
	movq	-432(%rbp), %rdx
	.loc	20 1332 20
	cmpb	(%rcx,%rdx), %al
	.loc	20 1332 17
	jne	LBB72_40
Ltmp245:
	.loc	20 1331 13 is_stmt 1
	jmp	LBB72_32
LBB72_40:
	.loc	20 0 13 is_stmt 0
	movq	-416(%rbp), %rax
	movq	-280(%rbp), %rcx
Ltmp246:
	.loc	20 1333 38 is_stmt 1
	subq	(%rcx), %rax
	addq	$1, %rax
	.loc	20 1333 21 is_stmt 0
	addq	32(%rcx), %rax
	movq	%rax, 32(%rcx)
	movb	-321(%rbp), %dl
	.loc	20 1334 24 is_stmt 1
	xorb	$-1, %dl
	.loc	20 1334 21 is_stmt 0
	testb	$1, %dl
	jne	LBB72_42
	jmp	LBB72_43
LBB72_42:
	.loc	20 0 21
	movq	-280(%rbp), %rax
	.loc	20 1335 25 is_stmt 1
	movq	$0, 48(%rax)
Ltmp247:
LBB72_43:
	.loc	20 1337 21
	jmp	LBB72_44
Ltmp248:
LBB72_44:
	.loc	20 1337 21 is_stmt 0
	jmp	LBB72_25
LBB72_45:
	.loc	20 0 21
	movq	-280(%rbp), %rax
Ltmp249:
	.loc	20 1342 53 is_stmt 1
	movq	48(%rax), %rcx
	movq	%rcx, -192(%rbp)
	.loc	20 1342 25 is_stmt 0
	jmp	LBB72_47
LBB72_46:
	.loc	20 1342 42
	movq	$0, -192(%rbp)
LBB72_47:
Ltmp250:
	.loc	20 1343 23 is_stmt 1
	movq	-192(%rbp), %rax
	movq	-280(%rbp), %rcx
	.loc	20 1343 30 is_stmt 0
	movq	(%rcx), %rdx
	.loc	20 1343 22
	movq	%rax, -184(%rbp)
	movq	%rdx, -176(%rbp)
	movq	-184(%rbp), %rdi
	movq	-176(%rbp), %rsi
	callq	__ZN4core4iter6traits8iterator8Iterator3rev17ha77597d004e63360E
	movq	%rax, -440(%rbp)
	movq	%rdx, -448(%rbp)
	.loc	20 0 22
	movq	-440(%rbp), %rdi
	movq	-448(%rbp), %rsi
	.loc	20 1343 22
	callq	__ZN63_$LT$I$u20$as$u20$core..iter..traits..collect..IntoIterator$GT$9into_iter17hacf26d324441d20cE
	movq	%rax, -456(%rbp)
	movq	%rdx, -464(%rbp)
	.loc	20 0 22
	movq	-456(%rbp), %rax
	.loc	20 1343 22
	movq	%rax, -168(%rbp)
	movq	-464(%rbp), %rcx
	movq	%rcx, -160(%rbp)
LBB72_50:
	.loc	20 0 22
	leaq	-168(%rbp), %rdi
Ltmp251:
	.loc	20 1343 22
	callq	__ZN93_$LT$core..iter..adapters..Rev$LT$I$GT$$u20$as$u20$core..iter..traits..iterator..Iterator$GT$4next17h0e4615dd19c669cbE
	movq	%rdx, -144(%rbp)
	movq	%rax, -152(%rbp)
	.loc	20 1343 17
	movq	-152(%rbp), %rax
	testq	%rax, %rax
	je	LBB72_52
	jmp	LBB72_75
LBB72_75:
	jmp	LBB72_54
Ltmp252:
LBB72_52:
	.loc	20 0 17
	movq	-280(%rbp), %rax
	.loc	20 1354 29 is_stmt 1
	movq	32(%rax), %rcx
	movq	%rcx, -16(%rbp)
	movq	-296(%rbp), %rdi
	movq	-288(%rbp), %rsi
	movq	%rcx, -472(%rbp)
Ltmp253:
	.loc	20 1357 30
	callq	__ZN4core5slice29_$LT$impl$u20$$u5b$T$u5d$$GT$3len17hee3fa036b8f7c7c7E
	movq	%rax, -480(%rbp)
	jmp	LBB72_63
Ltmp254:
	.loc	20 1343 22
	ud2
LBB72_54:
	.loc	20 1343 17 is_stmt 0
	movq	-144(%rbp), %rax
	movq	%rax, -40(%rbp)
Ltmp255:
	.loc	20 1343 17
	movq	%rax, -32(%rbp)
Ltmp256:
	.loc	20 1343 22
	movq	%rax, -24(%rbp)
	movq	-288(%rbp), %rcx
Ltmp257:
	.loc	20 1344 20 is_stmt 1
	cmpq	%rcx, %rax
	setb	%dl
	testb	$1, %dl
	movq	%rax, -488(%rbp)
	jne	LBB72_55
	jmp	LBB72_71
LBB72_55:
	.loc	20 0 20 is_stmt 0
	movq	-296(%rbp), %rax
	movq	-488(%rbp), %rcx
	.loc	20 1344 20
	movb	(%rax,%rcx), %dl
	movq	-280(%rbp), %rsi
	.loc	20 1344 42
	addq	32(%rsi), %rcx
	movq	-304(%rbp), %rdi
	.loc	20 1344 33
	cmpq	%rdi, %rcx
	setb	%r8b
	testb	$1, %r8b
	movb	%dl, -489(%rbp)
	movq	%rcx, -504(%rbp)
	jne	LBB72_56
	jmp	LBB72_72
LBB72_56:
	.loc	20 0 33
	movb	-489(%rbp), %al
	movq	-312(%rbp), %rcx
	movq	-504(%rbp), %rdx
	.loc	20 1344 20
	cmpb	(%rcx,%rdx), %al
	.loc	20 1344 17
	jne	LBB72_58
Ltmp258:
	.loc	20 1343 13 is_stmt 1
	jmp	LBB72_50
LBB72_58:
	.loc	20 0 13 is_stmt 0
	movq	-280(%rbp), %rax
Ltmp259:
	.loc	20 1345 38 is_stmt 1
	movq	16(%rax), %rcx
	.loc	20 1345 21 is_stmt 0
	addq	32(%rax), %rcx
	movq	%rcx, 32(%rax)
	movb	-321(%rbp), %dl
	.loc	20 1346 24 is_stmt 1
	xorb	$-1, %dl
	.loc	20 1346 21 is_stmt 0
	testb	$1, %dl
	jne	LBB72_60
	jmp	LBB72_62
LBB72_60:
	.loc	20 0 21
	movq	-296(%rbp), %rdi
	movq	-288(%rbp), %rsi
	.loc	20 1347 39 is_stmt 1
	callq	__ZN4core5slice29_$LT$impl$u20$$u5b$T$u5d$$GT$3len17hee3fa036b8f7c7c7E
	movq	%rax, -512(%rbp)
	.loc	20 0 39 is_stmt 0
	movq	-512(%rbp), %rax
	movq	-280(%rbp), %rcx
	.loc	20 1347 25
	subq	16(%rcx), %rax
	movq	%rax, 48(%rcx)
Ltmp260:
LBB72_62:
	.loc	20 1349 21 is_stmt 1
	jmp	LBB72_44
LBB72_63:
	.loc	20 0 21 is_stmt 0
	movq	-480(%rbp), %rax
	movq	-280(%rbp), %rcx
Ltmp261:
	.loc	20 1357 13 is_stmt 1
	addq	32(%rcx), %rax
	movq	%rax, 32(%rcx)
	movb	-321(%rbp), %dl
	.loc	20 1358 16
	xorb	$-1, %dl
	.loc	20 1358 13 is_stmt 0
	testb	$1, %dl
	jne	LBB72_65
	jmp	LBB72_66
LBB72_65:
	.loc	20 0 13
	movq	-280(%rbp), %rax
	.loc	20 1359 17 is_stmt 1
	movq	$0, 48(%rax)
LBB72_66:
	.loc	20 0 17 is_stmt 0
	movq	-296(%rbp), %rdi
	movq	-288(%rbp), %rsi
	.loc	20 1362 55 is_stmt 1
	callq	__ZN4core5slice29_$LT$impl$u20$$u5b$T$u5d$$GT$3len17hee3fa036b8f7c7c7E
	movq	%rax, -520(%rbp)
	.loc	20 0 55 is_stmt 0
	movq	-472(%rbp), %rax
	movq	-520(%rbp), %rcx
	.loc	20 1362 43
	addq	%rcx, %rax
	movq	-272(%rbp), %rdi
	movq	-472(%rbp), %rsi
	.loc	20 1362 20
	movq	%rax, %rdx
	callq	__ZN89_$LT$core..str..pattern..RejectAndMatch$u20$as$u20$core..str..pattern..TwoWayStrategy$GT$8matching17hf0c5f11ce630b6b4E
Ltmp262:
	.loc	20 1362 13
	jmp	LBB72_9
LBB72_69:
Ltmp263:
	.loc	20 1332 20 is_stmt 1
	leaq	l___unnamed_4(%rip), %rdx
	movq	-416(%rbp), %rdi
	movq	-288(%rbp), %rsi
	callq	__ZN4core9panicking18panic_bounds_check17he87128426d100e93E
LBB72_70:
	.loc	20 1332 33 is_stmt 0
	leaq	l___unnamed_5(%rip), %rdx
	movq	-432(%rbp), %rdi
	movq	-304(%rbp), %rsi
	callq	__ZN4core9panicking18panic_bounds_check17he87128426d100e93E
Ltmp264:
LBB72_71:
	.loc	20 1344 20 is_stmt 1
	leaq	l___unnamed_6(%rip), %rdx
	movq	-488(%rbp), %rdi
	movq	-288(%rbp), %rsi
	callq	__ZN4core9panicking18panic_bounds_check17he87128426d100e93E
LBB72_72:
	.loc	20 1344 33 is_stmt 0
	leaq	l___unnamed_7(%rip), %rdx
	movq	-504(%rbp), %rdi
	movq	-304(%rbp), %rsi
	callq	__ZN4core9panicking18panic_bounds_check17he87128426d100e93E
Ltmp265:
Lfunc_end72:
	.cfi_endproc

	.p2align	4, 0x90
__ZN4core3str7pattern14TwoWaySearcher4next17h85b8c497b3d2a48fE:
Lfunc_begin73:
	.loc	20 1296 0 is_stmt 1
	.cfi_startproc
	pushq	%rbp
	.cfi_def_cfa_offset 16
	.cfi_offset %rbp, -16
	movq	%rsp, %rbp
	.cfi_def_cfa_register %rbp
	pushq	%rbx
	subq	$520, %rsp
	.cfi_offset %rbx, -24
	movq	%rdi, %rax
	movb	16(%rbp), %r10b
	movq	%rsi, -136(%rbp)
	movq	%rdx, -128(%rbp)
	movq	%rcx, -120(%rbp)
	movq	%r8, -112(%rbp)
	movq	%r9, -104(%rbp)
	movb	%r10b, %r11b
	andb	$1, %r11b
	movb	%r11b, -89(%rbp)
Ltmp266:
	.loc	20 1301 23 prologue_end
	movq	32(%rsi), %rbx
	movq	%rbx, -88(%rbp)
	movq	%rdi, -272(%rbp)
Ltmp267:
	.loc	20 1302 27
	movq	%r8, %rdi
	movq	%rsi, -280(%rbp)
	movq	%r9, %rsi
	movq	%r9, -288(%rbp)
	movq	%r8, -296(%rbp)
	movq	%rcx, -304(%rbp)
	movq	%rdx, -312(%rbp)
	movq	%rax, -320(%rbp)
	movb	%r10b, -321(%rbp)
	movq	%rbx, -336(%rbp)
	callq	__ZN4core5slice29_$LT$impl$u20$$u5b$T$u5d$$GT$3len17hee3fa036b8f7c7c7E
	movq	%rax, -344(%rbp)
	.loc	20 0 27 is_stmt 0
	movq	-344(%rbp), %rax
	.loc	20 1302 27
	subq	$1, %rax
	movq	%rax, -80(%rbp)
	movq	%rax, -352(%rbp)
LBB73_2:
	.loc	20 0 27
	movq	-352(%rbp), %rax
	movq	-280(%rbp), %rcx
Ltmp268:
	.loc	20 1307 48 is_stmt 1
	addq	32(%rcx), %rax
	movq	-312(%rbp), %rdi
	movq	-304(%rbp), %rsi
	.loc	20 1307 35 is_stmt 0
	movq	%rax, %rdx
	callq	__ZN4core5slice29_$LT$impl$u20$$u5b$T$u5d$$GT$3get17h2d5c816240b961cfE
	movq	%rax, -264(%rbp)
	.loc	20 1308 17 is_stmt 1
	movq	-264(%rbp), %rax
	testq	%rax, %rax
	setne	%cl
	movzbl	%cl, %edx
	movl	%edx, %eax
	je	LBB73_4
	jmp	LBB73_73
LBB73_73:
	jmp	LBB73_6
LBB73_4:
	.loc	20 0 17 is_stmt 0
	movq	-312(%rbp), %rdi
	movq	-304(%rbp), %rsi
	.loc	20 1310 37 is_stmt 1
	callq	__ZN4core5slice29_$LT$impl$u20$$u5b$T$u5d$$GT$3len17hee3fa036b8f7c7c7E
	movq	%rax, -360(%rbp)
	jmp	LBB73_7
	.loc	20 1307 35
	ud2
LBB73_6:
	.loc	20 1308 23
	movq	-264(%rbp), %rax
	movb	(%rax), %cl
	movb	%cl, -66(%rbp)
Ltmp269:
	.loc	20 1308 29 is_stmt 0
	movb	%cl, -65(%rbp)
	movb	%cl, -361(%rbp)
Ltmp270:
	.loc	20 1315 16 is_stmt 1
	callq	__ZN84_$LT$core..str..pattern..MatchOnly$u20$as$u20$core..str..pattern..TwoWayStrategy$GT$16use_early_reject17h8dfa10c95e5f5214E
	movb	%al, -362(%rbp)
	jmp	LBB73_14
Ltmp271:
LBB73_7:
	.loc	20 0 16 is_stmt 0
	movq	-280(%rbp), %rax
	movq	-360(%rbp), %rcx
	.loc	20 1310 21 is_stmt 1
	movq	%rcx, 32(%rax)
	.loc	20 1311 50
	movq	32(%rax), %rdx
	movq	-272(%rbp), %rdi
	movq	-336(%rbp), %rsi
	.loc	20 1311 28 is_stmt 0
	callq	__ZN84_$LT$core..str..pattern..MatchOnly$u20$as$u20$core..str..pattern..TwoWayStrategy$GT$9rejecting17h36e0955fb075295aE
	.loc	20 1311 21
	jmp	LBB73_9
Ltmp272:
LBB73_9:
	.loc	20 0 21
	movq	-320(%rbp), %rax
	.loc	20 1364 6 is_stmt 1
	addq	$520, %rsp
	popq	%rbx
	popq	%rbp
	retq
LBB73_10:
Ltmp273:
	.loc	20 1315 16
	movb	$1, -249(%rbp)
	jmp	LBB73_13
LBB73_11:
	movb	$0, -249(%rbp)
	jmp	LBB73_13
LBB73_12:
	.loc	20 0 16 is_stmt 0
	movq	-336(%rbp), %rax
	movq	-280(%rbp), %rcx
	.loc	20 1315 41
	cmpq	32(%rcx), %rax
	.loc	20 1315 16
	jne	LBB73_10
	jmp	LBB73_11
LBB73_13:
	.loc	20 1315 13
	testb	$1, -249(%rbp)
	jne	LBB73_16
	jmp	LBB73_15
LBB73_14:
	.loc	20 0 13
	movb	-362(%rbp), %al
	.loc	20 1315 16
	testb	$1, %al
	jne	LBB73_12
	jmp	LBB73_11
LBB73_15:
	.loc	20 0 16
	movq	-280(%rbp), %rdi
	movb	-361(%rbp), %al
	.loc	20 1320 17 is_stmt 1
	movzbl	%al, %esi
	callq	__ZN4core3str7pattern14TwoWaySearcher16byteset_contains17hf0b35896fe0f9e67E
	movb	%al, -363(%rbp)
	jmp	LBB73_18
LBB73_16:
	.loc	20 0 17 is_stmt 0
	movq	-280(%rbp), %rax
	.loc	20 1316 46 is_stmt 1
	movq	32(%rax), %rdx
	movq	-272(%rbp), %rdi
	movq	-336(%rbp), %rsi
	.loc	20 1316 24 is_stmt 0
	callq	__ZN84_$LT$core..str..pattern..MatchOnly$u20$as$u20$core..str..pattern..TwoWayStrategy$GT$9rejecting17h36e0955fb075295aE
Ltmp274:
	.loc	20 1316 17
	jmp	LBB73_9
LBB73_18:
	.loc	20 0 17
	movb	-363(%rbp), %al
Ltmp275:
	.loc	20 1320 16 is_stmt 1
	xorb	$-1, %al
	.loc	20 1320 13 is_stmt 0
	testb	$1, %al
	jne	LBB73_20
	.loc	20 0 13
	movb	-321(%rbp), %al
	.loc	20 1330 17 is_stmt 1
	testb	$1, %al
	jne	LBB73_27
	jmp	LBB73_26
LBB73_20:
	.loc	20 0 17 is_stmt 0
	movq	-296(%rbp), %rdi
	movq	-288(%rbp), %rsi
	.loc	20 1321 34 is_stmt 1
	callq	__ZN4core5slice29_$LT$impl$u20$$u5b$T$u5d$$GT$3len17hee3fa036b8f7c7c7E
	movq	%rax, -376(%rbp)
	.loc	20 0 34 is_stmt 0
	movq	-376(%rbp), %rax
	movq	-280(%rbp), %rcx
	.loc	20 1321 17
	addq	32(%rcx), %rax
	movq	%rax, 32(%rcx)
	movb	-321(%rbp), %dl
	.loc	20 1322 20 is_stmt 1
	xorb	$-1, %dl
	.loc	20 1322 17 is_stmt 0
	testb	$1, %dl
	jne	LBB73_23
	jmp	LBB73_24
LBB73_23:
	.loc	20 0 17
	movq	-280(%rbp), %rax
	.loc	20 1323 21 is_stmt 1
	movq	$0, 48(%rax)
Ltmp276:
LBB73_24:
	.loc	20 1325 17
	jmp	LBB73_25
LBB73_25:
	jmp	LBB73_2
LBB73_26:
	.loc	20 0 17 is_stmt 0
	movq	-280(%rbp), %rax
Ltmp277:
	.loc	20 1330 66 is_stmt 1
	movq	(%rax), %rdi
	.loc	20 1330 81 is_stmt 0
	movq	48(%rax), %rsi
	.loc	20 1330 57
	callq	__ZN4core3cmp3max17ha2acf5674cb28d4cE
	movq	%rax, -248(%rbp)
	jmp	LBB73_28
LBB73_27:
	.loc	20 0 57
	movq	-280(%rbp), %rax
	.loc	20 1330 34
	movq	(%rax), %rcx
	movq	%rcx, -248(%rbp)
	.loc	20 1330 17
	jmp	LBB73_29
LBB73_28:
	jmp	LBB73_29
LBB73_29:
Ltmp278:
	.loc	20 1331 22 is_stmt 1
	movq	-248(%rbp), %rax
	movq	-296(%rbp), %rdi
	movq	-288(%rbp), %rsi
	movq	%rax, -384(%rbp)
	.loc	20 1331 29 is_stmt 0
	callq	__ZN4core5slice29_$LT$impl$u20$$u5b$T$u5d$$GT$3len17hee3fa036b8f7c7c7E
	movq	%rax, -392(%rbp)
	.loc	20 0 29
	movq	-384(%rbp), %rax
	.loc	20 1331 22
	movq	%rax, -240(%rbp)
	movq	-392(%rbp), %rcx
	movq	%rcx, -232(%rbp)
	movq	-240(%rbp), %rdi
	movq	-232(%rbp), %rsi
	callq	__ZN63_$LT$I$u20$as$u20$core..iter..traits..collect..IntoIterator$GT$9into_iter17hee590cea7cd8613aE
	movq	%rax, -400(%rbp)
	movq	%rdx, -408(%rbp)
	.loc	20 0 22
	movq	-400(%rbp), %rax
	.loc	20 1331 22
	movq	%rax, -224(%rbp)
	movq	-408(%rbp), %rcx
	movq	%rcx, -216(%rbp)
LBB73_32:
	.loc	20 0 22
	leaq	-224(%rbp), %rdi
Ltmp279:
	.loc	20 1331 22
	callq	__ZN4core4iter5range101_$LT$impl$u20$core..iter..traits..iterator..Iterator$u20$for$u20$core..ops..range..Range$LT$A$GT$$GT$4next17h03cee1bff6059351E
	movq	%rdx, -200(%rbp)
	movq	%rax, -208(%rbp)
	.loc	20 1331 17
	movq	-208(%rbp), %rax
	testq	%rax, %rax
	je	LBB73_34
	jmp	LBB73_74
LBB73_74:
	jmp	LBB73_36
Ltmp280:
LBB73_34:
	.loc	20 0 17
	movb	-321(%rbp), %al
	.loc	20 1342 25 is_stmt 1
	testb	$1, %al
	jne	LBB73_46
	jmp	LBB73_45
Ltmp281:
	.loc	20 1331 22
	ud2
LBB73_36:
	.loc	20 1331 17 is_stmt 0
	movq	-200(%rbp), %rax
	movq	%rax, -64(%rbp)
Ltmp282:
	.loc	20 1331 17
	movq	%rax, -56(%rbp)
Ltmp283:
	.loc	20 1331 22
	movq	%rax, -48(%rbp)
	movq	-288(%rbp), %rcx
Ltmp284:
	.loc	20 1332 20 is_stmt 1
	cmpq	%rcx, %rax
	setb	%dl
	testb	$1, %dl
	movq	%rax, -416(%rbp)
	jne	LBB73_37
	jmp	LBB73_69
LBB73_37:
	.loc	20 0 20 is_stmt 0
	movq	-296(%rbp), %rax
	movq	-416(%rbp), %rcx
	.loc	20 1332 20
	movb	(%rax,%rcx), %dl
	movq	-280(%rbp), %rsi
	.loc	20 1332 42
	addq	32(%rsi), %rcx
	movq	-304(%rbp), %rdi
	.loc	20 1332 33
	cmpq	%rdi, %rcx
	setb	%r8b
	testb	$1, %r8b
	movb	%dl, -417(%rbp)
	movq	%rcx, -432(%rbp)
	jne	LBB73_38
	jmp	LBB73_70
LBB73_38:
	.loc	20 0 33
	movb	-417(%rbp), %al
	movq	-312(%rbp), %rcx
	movq	-432(%rbp), %rdx
	.loc	20 1332 20
	cmpb	(%rcx,%rdx), %al
	.loc	20 1332 17
	jne	LBB73_40
Ltmp285:
	.loc	20 1331 13 is_stmt 1
	jmp	LBB73_32
LBB73_40:
	.loc	20 0 13 is_stmt 0
	movq	-416(%rbp), %rax
	movq	-280(%rbp), %rcx
Ltmp286:
	.loc	20 1333 38 is_stmt 1
	subq	(%rcx), %rax
	addq	$1, %rax
	.loc	20 1333 21 is_stmt 0
	addq	32(%rcx), %rax
	movq	%rax, 32(%rcx)
	movb	-321(%rbp), %dl
	.loc	20 1334 24 is_stmt 1
	xorb	$-1, %dl
	.loc	20 1334 21 is_stmt 0
	testb	$1, %dl
	jne	LBB73_42
	jmp	LBB73_43
LBB73_42:
	.loc	20 0 21
	movq	-280(%rbp), %rax
	.loc	20 1335 25 is_stmt 1
	movq	$0, 48(%rax)
Ltmp287:
LBB73_43:
	.loc	20 1337 21
	jmp	LBB73_44
Ltmp288:
LBB73_44:
	.loc	20 1337 21 is_stmt 0
	jmp	LBB73_25
LBB73_45:
	.loc	20 0 21
	movq	-280(%rbp), %rax
Ltmp289:
	.loc	20 1342 53 is_stmt 1
	movq	48(%rax), %rcx
	movq	%rcx, -192(%rbp)
	.loc	20 1342 25 is_stmt 0
	jmp	LBB73_47
LBB73_46:
	.loc	20 1342 42
	movq	$0, -192(%rbp)
LBB73_47:
Ltmp290:
	.loc	20 1343 23 is_stmt 1
	movq	-192(%rbp), %rax
	movq	-280(%rbp), %rcx
	.loc	20 1343 30 is_stmt 0
	movq	(%rcx), %rdx
	.loc	20 1343 22
	movq	%rax, -184(%rbp)
	movq	%rdx, -176(%rbp)
	movq	-184(%rbp), %rdi
	movq	-176(%rbp), %rsi
	callq	__ZN4core4iter6traits8iterator8Iterator3rev17ha77597d004e63360E
	movq	%rax, -440(%rbp)
	movq	%rdx, -448(%rbp)
	.loc	20 0 22
	movq	-440(%rbp), %rdi
	movq	-448(%rbp), %rsi
	.loc	20 1343 22
	callq	__ZN63_$LT$I$u20$as$u20$core..iter..traits..collect..IntoIterator$GT$9into_iter17hacf26d324441d20cE
	movq	%rax, -456(%rbp)
	movq	%rdx, -464(%rbp)
	.loc	20 0 22
	movq	-456(%rbp), %rax
	.loc	20 1343 22
	movq	%rax, -168(%rbp)
	movq	-464(%rbp), %rcx
	movq	%rcx, -160(%rbp)
LBB73_50:
	.loc	20 0 22
	leaq	-168(%rbp), %rdi
Ltmp291:
	.loc	20 1343 22
	callq	__ZN93_$LT$core..iter..adapters..Rev$LT$I$GT$$u20$as$u20$core..iter..traits..iterator..Iterator$GT$4next17h0e4615dd19c669cbE
	movq	%rdx, -144(%rbp)
	movq	%rax, -152(%rbp)
	.loc	20 1343 17
	movq	-152(%rbp), %rax
	testq	%rax, %rax
	je	LBB73_52
	jmp	LBB73_75
LBB73_75:
	jmp	LBB73_54
Ltmp292:
LBB73_52:
	.loc	20 0 17
	movq	-280(%rbp), %rax
	.loc	20 1354 29 is_stmt 1
	movq	32(%rax), %rcx
	movq	%rcx, -16(%rbp)
	movq	-296(%rbp), %rdi
	movq	-288(%rbp), %rsi
	movq	%rcx, -472(%rbp)
Ltmp293:
	.loc	20 1357 30
	callq	__ZN4core5slice29_$LT$impl$u20$$u5b$T$u5d$$GT$3len17hee3fa036b8f7c7c7E
	movq	%rax, -480(%rbp)
	jmp	LBB73_63
Ltmp294:
	.loc	20 1343 22
	ud2
LBB73_54:
	.loc	20 1343 17 is_stmt 0
	movq	-144(%rbp), %rax
	movq	%rax, -40(%rbp)
Ltmp295:
	.loc	20 1343 17
	movq	%rax, -32(%rbp)
Ltmp296:
	.loc	20 1343 22
	movq	%rax, -24(%rbp)
	movq	-288(%rbp), %rcx
Ltmp297:
	.loc	20 1344 20 is_stmt 1
	cmpq	%rcx, %rax
	setb	%dl
	testb	$1, %dl
	movq	%rax, -488(%rbp)
	jne	LBB73_55
	jmp	LBB73_71
LBB73_55:
	.loc	20 0 20 is_stmt 0
	movq	-296(%rbp), %rax
	movq	-488(%rbp), %rcx
	.loc	20 1344 20
	movb	(%rax,%rcx), %dl
	movq	-280(%rbp), %rsi
	.loc	20 1344 42
	addq	32(%rsi), %rcx
	movq	-304(%rbp), %rdi
	.loc	20 1344 33
	cmpq	%rdi, %rcx
	setb	%r8b
	testb	$1, %r8b
	movb	%dl, -489(%rbp)
	movq	%rcx, -504(%rbp)
	jne	LBB73_56
	jmp	LBB73_72
LBB73_56:
	.loc	20 0 33
	movb	-489(%rbp), %al
	movq	-312(%rbp), %rcx
	movq	-504(%rbp), %rdx
	.loc	20 1344 20
	cmpb	(%rcx,%rdx), %al
	.loc	20 1344 17
	jne	LBB73_58
Ltmp298:
	.loc	20 1343 13 is_stmt 1
	jmp	LBB73_50
LBB73_58:
	.loc	20 0 13 is_stmt 0
	movq	-280(%rbp), %rax
Ltmp299:
	.loc	20 1345 38 is_stmt 1
	movq	16(%rax), %rcx
	.loc	20 1345 21 is_stmt 0
	addq	32(%rax), %rcx
	movq	%rcx, 32(%rax)
	movb	-321(%rbp), %dl
	.loc	20 1346 24 is_stmt 1
	xorb	$-1, %dl
	.loc	20 1346 21 is_stmt 0
	testb	$1, %dl
	jne	LBB73_60
	jmp	LBB73_62
LBB73_60:
	.loc	20 0 21
	movq	-296(%rbp), %rdi
	movq	-288(%rbp), %rsi
	.loc	20 1347 39 is_stmt 1
	callq	__ZN4core5slice29_$LT$impl$u20$$u5b$T$u5d$$GT$3len17hee3fa036b8f7c7c7E
	movq	%rax, -512(%rbp)
	.loc	20 0 39 is_stmt 0
	movq	-512(%rbp), %rax
	movq	-280(%rbp), %rcx
	.loc	20 1347 25
	subq	16(%rcx), %rax
	movq	%rax, 48(%rcx)
Ltmp300:
LBB73_62:
	.loc	20 1349 21 is_stmt 1
	jmp	LBB73_44
LBB73_63:
	.loc	20 0 21 is_stmt 0
	movq	-480(%rbp), %rax
	movq	-280(%rbp), %rcx
Ltmp301:
	.loc	20 1357 13 is_stmt 1
	addq	32(%rcx), %rax
	movq	%rax, 32(%rcx)
	movb	-321(%rbp), %dl
	.loc	20 1358 16
	xorb	$-1, %dl
	.loc	20 1358 13 is_stmt 0
	testb	$1, %dl
	jne	LBB73_65
	jmp	LBB73_66
LBB73_65:
	.loc	20 0 13
	movq	-280(%rbp), %rax
	.loc	20 1359 17 is_stmt 1
	movq	$0, 48(%rax)
LBB73_66:
	.loc	20 0 17 is_stmt 0
	movq	-296(%rbp), %rdi
	movq	-288(%rbp), %rsi
	.loc	20 1362 55 is_stmt 1
	callq	__ZN4core5slice29_$LT$impl$u20$$u5b$T$u5d$$GT$3len17hee3fa036b8f7c7c7E
	movq	%rax, -520(%rbp)
	.loc	20 0 55 is_stmt 0
	movq	-472(%rbp), %rax
	movq	-520(%rbp), %rcx
	.loc	20 1362 43
	addq	%rcx, %rax
	movq	-272(%rbp), %rdi
	movq	-472(%rbp), %rsi
	.loc	20 1362 20
	movq	%rax, %rdx
	callq	__ZN84_$LT$core..str..pattern..MatchOnly$u20$as$u20$core..str..pattern..TwoWayStrategy$GT$8matching17h40bfcb969cef9749E
Ltmp302:
	.loc	20 1362 13
	jmp	LBB73_9
LBB73_69:
Ltmp303:
	.loc	20 1332 20 is_stmt 1
	leaq	l___unnamed_4(%rip), %rdx
	movq	-416(%rbp), %rdi
	movq	-288(%rbp), %rsi
	callq	__ZN4core9panicking18panic_bounds_check17he87128426d100e93E
LBB73_70:
	.loc	20 1332 33 is_stmt 0
	leaq	l___unnamed_5(%rip), %rdx
	movq	-432(%rbp), %rdi
	movq	-304(%rbp), %rsi
	callq	__ZN4core9panicking18panic_bounds_check17he87128426d100e93E
Ltmp304:
LBB73_71:
	.loc	20 1344 20 is_stmt 1
	leaq	l___unnamed_6(%rip), %rdx
	movq	-488(%rbp), %rdi
	movq	-288(%rbp), %rsi
	callq	__ZN4core9panicking18panic_bounds_check17he87128426d100e93E
LBB73_72:
	.loc	20 1344 33 is_stmt 0
	leaq	l___unnamed_7(%rip), %rdx
	movq	-504(%rbp), %rdi
	movq	-304(%rbp), %rsi
	callq	__ZN4core9panicking18panic_bounds_check17he87128426d100e93E
Ltmp305:
Lfunc_end73:
	.cfi_endproc

	.p2align	4, 0x90
__ZN4core3str7pattern7Pattern15is_contained_in17h4236ae8c95c11db2E:
Lfunc_begin74:
	.loc	20 110 0 is_stmt 1
	.cfi_startproc
	.cfi_personality 155, _rust_eh_personality
	.cfi_lsda 16, Lexception6
	pushq	%rbp
	.cfi_def_cfa_offset 16
	.cfi_offset %rbp, -16
	movq	%rsp, %rbp
	.cfi_def_cfa_register %rbp
	subq	$224, %rsp
	movq	%rdi, -48(%rbp)
	movq	%rsi, -40(%rbp)
	movq	%rdx, -32(%rbp)
	movq	%rcx, -24(%rbp)
Ltmp311:
	.loc	20 111 9 prologue_end
	leaq	-152(%rbp), %rax
	movq	%rdi, -184(%rbp)
	movq	%rax, %rdi
	movq	-184(%rbp), %rax
	movq	%rsi, -192(%rbp)
	movq	%rax, %rsi
	movq	-192(%rbp), %r8
	movq	%rdx, -200(%rbp)
	movq	%r8, %rdx
	movq	-200(%rbp), %r9
	movq	%rcx, -208(%rbp)
	movq	%r9, %rcx
	movq	-208(%rbp), %r8
	callq	__ZN55_$LT$$RF$str$u20$as$u20$core..str..pattern..Pattern$GT$13into_searcher17hbb7e32e099a1e9fdE
	jmp	LBB74_2
LBB74_1:
	.loc	20 110 5
	movq	-16(%rbp), %rdi
	callq	__Unwind_Resume
	ud2
LBB74_2:
Ltmp306:
	.loc	20 0 5 is_stmt 0
	leaq	-176(%rbp), %rdi
	leaq	-152(%rbp), %rsi
	.loc	20 111 9 is_stmt 1
	callq	__ZN80_$LT$core..str..pattern..StrSearcher$u20$as$u20$core..str..pattern..Searcher$GT$10next_match17h45803cd60d407f3fE
Ltmp307:
	jmp	LBB74_4
LBB74_3:
	.loc	20 112 5
	jmp	LBB74_1
LBB74_4:
Ltmp308:
	.loc	20 0 5 is_stmt 0
	leaq	-176(%rbp), %rdi
	.loc	20 111 9 is_stmt 1
	callq	__ZN4core6option15Option$LT$T$GT$7is_some17h6d54eb909fc7d2e0E
Ltmp309:
	movb	%al, -209(%rbp)
	jmp	LBB74_5
LBB74_5:
	.loc	20 112 5
	jmp	LBB74_6
LBB74_6:
	.loc	20 0 5 is_stmt 0
	movb	-209(%rbp), %al
	.loc	20 112 6
	andb	$1, %al
	movzbl	%al, %eax
	addq	$224, %rsp
	popq	%rbp
	retq
Ltmp312:
LBB74_7:
Ltmp310:
	.loc	20 0 6
	movq	%rax, -16(%rbp)
	movl	%edx, -8(%rbp)
	jmp	LBB74_3
Lfunc_end74:
	.cfi_endproc
	.section	__TEXT,__gcc_except_tab
	.p2align	2
GCC_except_table74:
Lexception6:
	.byte	255
	.byte	255
	.byte	1
	.uleb128 Lcst_end6-Lcst_begin6
Lcst_begin6:
	.uleb128 Lfunc_begin74-Lfunc_begin74
	.uleb128 Ltmp306-Lfunc_begin74
	.byte	0
	.byte	0
	.uleb128 Ltmp306-Lfunc_begin74
	.uleb128 Ltmp309-Ltmp306
	.uleb128 Ltmp310-Lfunc_begin74
	.byte	0
Lcst_end6:
	.p2align	2

	.section	__TEXT,__text,regular,pure_instructions
	.p2align	4, 0x90
__ZN4core4char7convert18from_u32_unchecked17ha3a3f1fb53ccc585E:
Lfunc_begin75:
	.file	21 "/rustc/6c8927b0cf80ceee19386026cf9d7fd4fd9d486f/src/libcore/char/convert.rs"
	.loc	21 101 0 is_stmt 1
	.cfi_startproc
	pushq	%rbp
	.cfi_def_cfa_offset 16
	.cfi_offset %rbp, -16
	movq	%rsp, %rbp
	.cfi_def_cfa_register %rbp
	subq	$12, %rsp
	movl	%edi, -8(%rbp)
Ltmp313:
	.loc	21 103 78 prologue_end
	movl	%edi, -4(%rbp)
	movl	-4(%rbp), %eax
	movl	%eax, -12(%rbp)
	.loc	21 0 78 is_stmt 0
	movl	-12(%rbp), %eax
	.loc	21 104 2 is_stmt 1
	addq	$12, %rsp
	popq	%rbp
	retq
Ltmp314:
Lfunc_end75:
	.cfi_endproc

	.p2align	4, 0x90
__ZN4core4char7methods22_$LT$impl$u20$char$GT$8len_utf817hc35da86fd555c8f9E:
Lfunc_begin76:
	.file	22 "/rustc/6c8927b0cf80ceee19386026cf9d7fd4fd9d486f/src/libcore/char/methods.rs"
	.loc	22 580 0
	.cfi_startproc
	pushq	%rbp
	.cfi_def_cfa_offset 16
	.cfi_offset %rbp, -16
	movq	%rsp, %rbp
	.cfi_def_cfa_register %rbp
	subq	$16, %rsp
	movl	%edi, -4(%rbp)
Ltmp315:
	.loc	22 581 9 prologue_end
	callq	__ZN4core4char7methods8len_utf817h27ca149f2d8f5e38E
	movq	%rax, -16(%rbp)
	.loc	22 0 9 is_stmt 0
	movq	-16(%rbp), %rax
	.loc	22 582 6 is_stmt 1
	addq	$16, %rsp
	popq	%rbp
	retq
Ltmp316:
Lfunc_end76:
	.cfi_endproc

	.p2align	4, 0x90
__ZN4core4char7methods8len_utf817h27ca149f2d8f5e38E:
Lfunc_begin77:
	.loc	22 1593 0
	.cfi_startproc
	pushq	%rbp
	.cfi_def_cfa_offset 16
	.cfi_offset %rbp, -16
	movq	%rsp, %rbp
	.cfi_def_cfa_register %rbp
	subq	$24, %rsp
	movl	%edi, -4(%rbp)
Ltmp317:
	.loc	22 1594 8 prologue_end
	cmpl	$128, %edi
	movl	%edi, -20(%rbp)
	.loc	22 1594 5 is_stmt 0
	jb	LBB77_2
	.loc	22 0 5
	movl	-20(%rbp), %eax
	.loc	22 1596 15 is_stmt 1
	cmpl	$2048, %eax
	.loc	22 1596 12 is_stmt 0
	jb	LBB77_4
	jmp	LBB77_3
LBB77_2:
	.loc	22 1595 9 is_stmt 1
	movq	$1, -16(%rbp)
	.loc	22 1594 5
	jmp	LBB77_9
LBB77_3:
	.loc	22 0 5 is_stmt 0
	movl	-20(%rbp), %eax
	.loc	22 1598 15 is_stmt 1
	cmpl	$65536, %eax
	.loc	22 1598 12 is_stmt 0
	jb	LBB77_6
	jmp	LBB77_5
LBB77_4:
	.loc	22 1597 9 is_stmt 1
	movq	$2, -16(%rbp)
	.loc	22 1596 12
	jmp	LBB77_8
LBB77_5:
	.loc	22 1601 9
	movq	$4, -16(%rbp)
	.loc	22 1598 12
	jmp	LBB77_7
LBB77_6:
	.loc	22 1599 9
	movq	$3, -16(%rbp)
LBB77_7:
	.loc	22 1596 12
	jmp	LBB77_8
LBB77_8:
	.loc	22 1594 5
	jmp	LBB77_9
LBB77_9:
	.loc	22 1603 2
	movq	-16(%rbp), %rax
	addq	$24, %rsp
	popq	%rbp
	retq
Ltmp318:
Lfunc_end77:
	.cfi_endproc

	.p2align	4, 0x90
__ZN4core4iter5range101_$LT$impl$u20$core..iter..traits..iterator..Iterator$u20$for$u20$core..ops..range..Range$LT$A$GT$$GT$4next17h03cee1bff6059351E:
Lfunc_begin78:
	.loc	8 504 0
	.cfi_startproc
	pushq	%rbp
	.cfi_def_cfa_offset 16
	.cfi_offset %rbp, -16
	movq	%rsp, %rbp
	.cfi_def_cfa_register %rbp
	subq	$80, %rsp
	movq	%rdi, -16(%rbp)
Ltmp319:
	.loc	8 505 12 prologue_end
	movq	%rdi, %rax
	.loc	8 505 25 is_stmt 0
	movq	%rdi, %rcx
	addq	$8, %rcx
	movq	%rdi, -40(%rbp)
	.loc	8 505 12
	movq	%rax, %rdi
	movq	%rcx, %rsi
	callq	__ZN4core3cmp5impls57_$LT$impl$u20$core..cmp..PartialOrd$u20$for$u20$usize$GT$2lt17h77774977e915ee17E
	movb	%al, -41(%rbp)
	.loc	8 0 12
	movb	-41(%rbp), %al
	.loc	8 505 9
	testb	$1, %al
	jne	LBB78_3
	jmp	LBB78_2
LBB78_2:
	.loc	8 510 13 is_stmt 1
	movq	$0, -32(%rbp)
	.loc	8 505 9
	jmp	LBB78_7
LBB78_3:
	.loc	8 0 9 is_stmt 0
	movq	-40(%rbp), %rax
	.loc	8 507 54 is_stmt 1
	movq	%rax, %rdi
	callq	__ZN4core5clone5impls54_$LT$impl$u20$core..clone..Clone$u20$for$u20$usize$GT$5clone17h7825f52d81249b14E
	movq	%rax, -56(%rbp)
	.loc	8 0 54 is_stmt 0
	movq	-56(%rbp), %rdi
	.loc	8 507 30
	movl	$1, %esi
	callq	__ZN49_$LT$usize$u20$as$u20$core..iter..range..Step$GT$17forward_unchecked17hd2aafb21318ec46fE
	movq	%rax, -8(%rbp)
	movq	%rax, -64(%rbp)
	.loc	8 0 30
	movq	-40(%rbp), %rax
Ltmp320:
	.loc	8 508 18 is_stmt 1
	movq	%rax, %rdi
	movq	-64(%rbp), %rsi
	callq	__ZN4core3mem7replace17h216b9209a532afa9E
	movq	%rax, -72(%rbp)
	.loc	8 0 18 is_stmt 0
	movq	-72(%rbp), %rax
	.loc	8 508 13
	movq	%rax, -24(%rbp)
	movq	$1, -32(%rbp)
Ltmp321:
LBB78_7:
	.loc	8 512 6 is_stmt 1
	movq	-32(%rbp), %rax
	movq	-24(%rbp), %rdx
	addq	$80, %rsp
	popq	%rbp
	retq
Ltmp322:
Lfunc_end78:
	.cfi_endproc

	.p2align	4, 0x90
__ZN4core4iter5range116_$LT$impl$u20$core..iter..traits..double_ended..DoubleEndedIterator$u20$for$u20$core..ops..range..Range$LT$A$GT$$GT$9next_back17h92558403b6cb22ffE:
Lfunc_begin79:
	.loc	8 588 0
	.cfi_startproc
	pushq	%rbp
	.cfi_def_cfa_offset 16
	.cfi_offset %rbp, -16
	movq	%rsp, %rbp
	.cfi_def_cfa_register %rbp
	subq	$80, %rsp
	movq	%rdi, -24(%rbp)
Ltmp323:
	.loc	8 589 12 prologue_end
	movq	%rdi, %rax
	.loc	8 589 25 is_stmt 0
	movq	%rdi, %rcx
	addq	$8, %rcx
	movq	%rdi, -56(%rbp)
	.loc	8 589 12
	movq	%rax, %rdi
	movq	%rcx, %rsi
	callq	__ZN4core3cmp5impls57_$LT$impl$u20$core..cmp..PartialOrd$u20$for$u20$usize$GT$2lt17h77774977e915ee17E
	movb	%al, -57(%rbp)
	.loc	8 0 12
	movb	-57(%rbp), %al
	.loc	8 589 9
	testb	$1, %al
	jne	LBB79_3
	jmp	LBB79_2
LBB79_2:
	.loc	8 594 13 is_stmt 1
	movq	$0, -48(%rbp)
	.loc	8 589 9
	jmp	LBB79_7
LBB79_3:
	.loc	8 0 9 is_stmt 0
	movq	-56(%rbp), %rax
	.loc	8 591 58 is_stmt 1
	addq	$8, %rax
	movq	%rax, %rdi
	callq	__ZN4core5clone5impls54_$LT$impl$u20$core..clone..Clone$u20$for$u20$usize$GT$5clone17h7825f52d81249b14E
	movq	%rax, -72(%rbp)
	.loc	8 0 58 is_stmt 0
	movq	-72(%rbp), %rdi
	.loc	8 591 33
	movl	$1, %esi
	callq	__ZN49_$LT$usize$u20$as$u20$core..iter..range..Step$GT$18backward_unchecked17h207b2bdf48b72dcdE
	movq	%rax, -80(%rbp)
	.loc	8 591 13
	jmp	LBB79_8
LBB79_6:
	.loc	8 592 13 is_stmt 1
	movq	-32(%rbp), %rax
	movq	%rax, -40(%rbp)
	movq	$1, -48(%rbp)
LBB79_7:
	.loc	8 596 6
	movq	-48(%rbp), %rax
	movq	-40(%rbp), %rdx
	addq	$80, %rsp
	popq	%rbp
	retq
LBB79_8:
	.loc	8 0 6 is_stmt 0
	movq	-56(%rbp), %rax
	movq	-80(%rbp), %rcx
	.loc	8 591 13 is_stmt 1
	movq	%rcx, 8(%rax)
	.loc	8 592 18
	addq	$8, %rax
	movq	%rax, %rdi
	callq	__ZN4core5clone5impls54_$LT$impl$u20$core..clone..Clone$u20$for$u20$usize$GT$5clone17h7825f52d81249b14E
	movq	%rax, -32(%rbp)
	jmp	LBB79_6
Ltmp324:
Lfunc_end79:
	.cfi_endproc

	.p2align	4, 0x90
__ZN4core4iter6traits8iterator8Iterator3rev17ha77597d004e63360E:
Lfunc_begin80:
	.file	23 "/rustc/6c8927b0cf80ceee19386026cf9d7fd4fd9d486f/src/libcore/iter/traits/iterator.rs"
	.loc	23 2621 0
	.cfi_startproc
	pushq	%rbp
	.cfi_def_cfa_offset 16
	.cfi_offset %rbp, -16
	movq	%rsp, %rbp
	.cfi_def_cfa_register %rbp
	subq	$32, %rsp
	movq	%rdi, -16(%rbp)
	movq	%rsi, -8(%rbp)
Ltmp325:
	.loc	23 2625 9 prologue_end
	callq	__ZN4core4iter8adapters12Rev$LT$T$GT$3new17h6b654946c79c3a1eE
	movq	%rax, -24(%rbp)
	movq	%rdx, -32(%rbp)
	.loc	23 0 9 is_stmt 0
	movq	-24(%rbp), %rax
	movq	-32(%rbp), %rdx
	.loc	23 2626 6 is_stmt 1
	addq	$32, %rsp
	popq	%rbp
	retq
Ltmp326:
Lfunc_end80:
	.cfi_endproc

	.p2align	4, 0x90
__ZN4core4iter8adapters12Rev$LT$T$GT$3new17h6b654946c79c3a1eE:
Lfunc_begin81:
	.file	24 "/rustc/6c8927b0cf80ceee19386026cf9d7fd4fd9d486f/src/libcore/iter/adapters/mod.rs"
	.loc	24 35 0
	.cfi_startproc
	pushq	%rbp
	.cfi_def_cfa_offset 16
	.cfi_offset %rbp, -16
	movq	%rsp, %rbp
	.cfi_def_cfa_register %rbp
	subq	$32, %rsp
	movq	%rdi, -16(%rbp)
	movq	%rsi, -8(%rbp)
Ltmp327:
	.loc	24 36 9 prologue_end
	movq	%rdi, -32(%rbp)
	movq	%rsi, -24(%rbp)
	.loc	24 37 6
	movq	-32(%rbp), %rax
	movq	-24(%rbp), %rdx
	addq	$32, %rsp
	popq	%rbp
	retq
Ltmp328:
Lfunc_end81:
	.cfi_endproc

	.p2align	4, 0x90
__ZN4core5alloc6layout6Layout25from_size_align_unchecked17h16796ee524494379E:
Lfunc_begin82:
	.file	25 "/rustc/6c8927b0cf80ceee19386026cf9d7fd4fd9d486f/src/libcore/alloc/layout.rs"
	.loc	25 92 0
	.cfi_startproc
	pushq	%rbp
	.cfi_def_cfa_offset 16
	.cfi_offset %rbp, -16
	movq	%rsp, %rbp
	.cfi_def_cfa_register %rbp
	subq	$48, %rsp
	movq	%rdi, -16(%rbp)
	movq	%rsi, -8(%rbp)
	movq	%rdi, -40(%rbp)
Ltmp329:
	.loc	25 94 48 prologue_end
	movq	%rsi, %rdi
	callq	__ZN4core3num12NonZeroUsize13new_unchecked17h12edd71f1ec1dbe0E
	movq	%rax, -48(%rbp)
	.loc	25 0 48 is_stmt 0
	movq	-40(%rbp), %rax
	.loc	25 94 9
	movq	%rax, -32(%rbp)
	movq	-48(%rbp), %rcx
	movq	%rcx, -24(%rbp)
	.loc	25 95 6 is_stmt 1
	movq	-32(%rbp), %rax
	movq	-24(%rbp), %rdx
	addq	$48, %rsp
	popq	%rbp
	retq
Ltmp330:
Lfunc_end82:
	.cfi_endproc

	.p2align	4, 0x90
__ZN4core5alloc6layout6Layout4size17h9d608be0b7138a74E:
Lfunc_begin83:
	.loc	25 101 0
	.cfi_startproc
	pushq	%rbp
	.cfi_def_cfa_offset 16
	.cfi_offset %rbp, -16
	movq	%rsp, %rbp
	.cfi_def_cfa_register %rbp
	pushq	%rax
	movq	%rdi, -8(%rbp)
Ltmp331:
	.loc	25 102 9 prologue_end
	movq	(%rdi), %rax
	.loc	25 103 6
	addq	$8, %rsp
	popq	%rbp
	retq
Ltmp332:
Lfunc_end83:
	.cfi_endproc

	.p2align	4, 0x90
__ZN4core5alloc6layout6Layout5align17h716e9a808091ffe6E:
Lfunc_begin84:
	.loc	25 109 0
	.cfi_startproc
	pushq	%rbp
	.cfi_def_cfa_offset 16
	.cfi_offset %rbp, -16
	movq	%rsp, %rbp
	.cfi_def_cfa_register %rbp
	subq	$16, %rsp
	movq	%rdi, -8(%rbp)
Ltmp333:
	.loc	25 110 9 prologue_end
	movq	8(%rdi), %rdi
	callq	__ZN4core3num12NonZeroUsize3get17h4828ec35c6ae6634E
	movq	%rax, -16(%rbp)
	.loc	25 0 9 is_stmt 0
	movq	-16(%rbp), %rax
	.loc	25 111 6 is_stmt 1
	addq	$16, %rsp
	popq	%rbp
	retq
Ltmp334:
Lfunc_end84:
	.cfi_endproc

	.p2align	4, 0x90
__ZN4core5clone5impls54_$LT$impl$u20$core..clone..Clone$u20$for$u20$usize$GT$5clone17h7825f52d81249b14E:
Lfunc_begin85:
	.file	26 "/rustc/6c8927b0cf80ceee19386026cf9d7fd4fd9d486f/src/libcore/clone.rs"
	.loc	26 184 0
	.cfi_startproc
	pushq	%rbp
	.cfi_def_cfa_offset 16
	.cfi_offset %rbp, -16
	movq	%rsp, %rbp
	.cfi_def_cfa_register %rbp
	pushq	%rax
	movq	%rdi, -8(%rbp)
Ltmp335:
	.loc	26 185 25 prologue_end
	movq	(%rdi), %rax
	.loc	26 186 22
	addq	$8, %rsp
	popq	%rbp
	retq
Ltmp336:
Lfunc_end85:
	.cfi_endproc

	.p2align	4, 0x90
__ZN4core5slice14from_raw_parts17h1adb2d8f61824f9eE:
Lfunc_begin86:
	.file	27 "/rustc/6c8927b0cf80ceee19386026cf9d7fd4fd9d486f/src/libcore/slice/mod.rs"
	.loc	27 6094 0
	.cfi_startproc
	pushq	%rbp
	.cfi_def_cfa_offset 16
	.cfi_offset %rbp, -16
	movq	%rsp, %rbp
	.cfi_def_cfa_register %rbp
	subq	$32, %rsp
	movq	%rdi, -16(%rbp)
	movq	%rsi, -8(%rbp)
Ltmp337:
	.loc	27 6101 16 prologue_end
	callq	__ZN4core3ptr20slice_from_raw_parts17hf57a907b7d2fd9efE
	movq	%rax, -24(%rbp)
	movq	%rdx, -32(%rbp)
	.loc	27 0 16 is_stmt 0
	movq	-24(%rbp), %rax
	movq	-32(%rbp), %rdx
	.loc	27 6102 2 is_stmt 1
	addq	$32, %rsp
	popq	%rbp
	retq
Ltmp338:
Lfunc_end86:
	.cfi_endproc

	.p2align	4, 0x90
__ZN4core5slice29_$LT$impl$u20$$u5b$T$u5d$$GT$3get17h2d5c816240b961cfE:
Lfunc_begin87:
	.loc	27 256 0
	.cfi_startproc
	pushq	%rbp
	.cfi_def_cfa_offset 16
	.cfi_offset %rbp, -16
	movq	%rsp, %rbp
	.cfi_def_cfa_register %rbp
	subq	$48, %rsp
	movq	%rdi, -24(%rbp)
	movq	%rsi, -16(%rbp)
	movq	%rdx, -8(%rbp)
	movq	%rdi, -32(%rbp)
Ltmp339:
	.loc	27 260 9 prologue_end
	movq	%rdx, %rdi
	movq	-32(%rbp), %rax
	movq	%rsi, -40(%rbp)
	movq	%rax, %rsi
	movq	-40(%rbp), %rdx
	callq	__ZN68_$LT$usize$u20$as$u20$core..slice..SliceIndex$LT$$u5b$T$u5d$$GT$$GT$3get17hb58d792e1b8bc90cE
	movq	%rax, -48(%rbp)
	.loc	27 0 9 is_stmt 0
	movq	-48(%rbp), %rax
	.loc	27 261 6 is_stmt 1
	addq	$48, %rsp
	popq	%rbp
	retq
Ltmp340:
Lfunc_end87:
	.cfi_endproc

	.p2align	4, 0x90
__ZN4core5slice29_$LT$impl$u20$$u5b$T$u5d$$GT$3len17hee3fa036b8f7c7c7E:
Lfunc_begin88:
	.loc	27 72 0
	.cfi_startproc
	pushq	%rbp
	.cfi_def_cfa_offset 16
	.cfi_offset %rbp, -16
	movq	%rsp, %rbp
	.cfi_def_cfa_register %rbp
	subq	$32, %rsp
	movq	%rdi, -16(%rbp)
	movq	%rsi, -8(%rbp)
Ltmp341:
	.loc	27 73 18 prologue_end
	movq	%rdi, -32(%rbp)
	movq	%rsi, -24(%rbp)
	movq	-24(%rbp), %rax
	.loc	27 74 6
	addq	$32, %rsp
	popq	%rbp
	retq
Ltmp342:
Lfunc_end88:
	.cfi_endproc

	.p2align	4, 0x90
__ZN4core5slice29_$LT$impl$u20$$u5b$T$u5d$$GT$4iter17ha3d7a3213ebb318bE:
Lfunc_begin89:
	.loc	27 611 0
	.cfi_startproc
	pushq	%rbp
	.cfi_def_cfa_offset 16
	.cfi_offset %rbp, -16
	movq	%rsp, %rbp
	.cfi_def_cfa_register %rbp
	subq	$128, %rsp
	movq	%rdi, -32(%rbp)
	movq	%rsi, -24(%rbp)
	movq	%rdi, -72(%rbp)
	movq	%rsi, -80(%rbp)
Ltmp343:
	.loc	27 613 23 prologue_end
	callq	__ZN4core5slice29_$LT$impl$u20$$u5b$T$u5d$$GT$6as_ptr17he6165b43675c3263E
	movq	%rax, -16(%rbp)
	movq	%rax, -88(%rbp)
	.loc	27 0 23 is_stmt 0
	movq	-88(%rbp), %rdi
Ltmp344:
	.loc	27 614 21 is_stmt 1
	callq	__ZN4core3ptr9const_ptr33_$LT$impl$u20$$BP$const$u20$T$GT$7is_null17hd4d4d3a75fe335e5E
Ltmp345:
	.loc	12 310 5
	movq	$1, -8(%rbp)
	movq	-8(%rbp), %rax
	movq	%rax, -96(%rbp)
Ltmp346:
	.loc	12 0 5 is_stmt 0
	movq	-96(%rbp), %rax
	.loc	27 616 26 is_stmt 1
	cmpq	$0, %rax
	.loc	27 616 23 is_stmt 0
	je	LBB89_6
	.loc	27 0 23
	movq	-72(%rbp), %rdi
	movq	-80(%rbp), %rsi
	.loc	27 619 25 is_stmt 1
	callq	__ZN4core5slice29_$LT$impl$u20$$u5b$T$u5d$$GT$3len17hee3fa036b8f7c7c7E
	movq	%rax, -104(%rbp)
	jmp	LBB89_9
LBB89_6:
	.loc	27 0 25 is_stmt 0
	movq	-72(%rbp), %rdi
	movq	-80(%rbp), %rsi
	.loc	27 617 49 is_stmt 1
	callq	__ZN4core5slice29_$LT$impl$u20$$u5b$T$u5d$$GT$3len17hee3fa036b8f7c7c7E
	movq	%rax, -112(%rbp)
	.loc	27 0 49 is_stmt 0
	movq	-88(%rbp), %rdi
	movq	-112(%rbp), %rsi
	.loc	27 617 17
	callq	__ZN4core3ptr9const_ptr33_$LT$impl$u20$$BP$const$u20$T$GT$12wrapping_add17h00762e9b3e72f378E
	movq	%rax, -120(%rbp)
	.loc	27 0 17
	movq	-120(%rbp), %rax
	.loc	27 617 17
	movq	%rax, -48(%rbp)
	.loc	27 616 23 is_stmt 1
	jmp	LBB89_11
LBB89_9:
	.loc	27 0 23 is_stmt 0
	movq	-88(%rbp), %rdi
	movq	-104(%rbp), %rsi
	.loc	27 619 17 is_stmt 1
	callq	__ZN4core3ptr9const_ptr33_$LT$impl$u20$$BP$const$u20$T$GT$3add17ha61b93b3a7879760E
	movq	%rax, -48(%rbp)
	.loc	27 616 23
	jmp	LBB89_11
LBB89_11:
	.loc	27 0 23 is_stmt 0
	movq	-88(%rbp), %rdi
Ltmp347:
	.loc	27 622 25 is_stmt 1
	callq	__ZN4core3ptr8non_null16NonNull$LT$T$GT$13new_unchecked17h4c5c135ae33634cdE
	movq	%rax, -128(%rbp)
	.loc	27 622 64 is_stmt 0
	movq	-48(%rbp), %rax
	movq	-128(%rbp), %rcx
	.loc	27 622 13
	movq	%rcx, -64(%rbp)
	movq	%rax, -56(%rbp)
Ltmp348:
	.loc	27 624 6 is_stmt 1
	movq	-64(%rbp), %rax
	movq	-56(%rbp), %rdx
	addq	$128, %rsp
	popq	%rbp
	retq
Ltmp349:
Lfunc_end89:
	.cfi_endproc

	.p2align	4, 0x90
__ZN4core5slice29_$LT$impl$u20$$u5b$T$u5d$$GT$6as_ptr17he6165b43675c3263E:
Lfunc_begin90:
	.loc	27 382 0
	.cfi_startproc
	pushq	%rbp
	.cfi_def_cfa_offset 16
	.cfi_offset %rbp, -16
	movq	%rsp, %rbp
	.cfi_def_cfa_register %rbp
	subq	$16, %rsp
	movq	%rdi, -16(%rbp)
	movq	%rsi, -8(%rbp)
Ltmp350:
	.loc	27 384 6 prologue_end
	movq	%rdi, %rax
	addq	$16, %rsp
	popq	%rbp
	retq
Ltmp351:
Lfunc_end90:
	.cfi_endproc

	.p2align	4, 0x90
__ZN4core6option15Option$LT$T$GT$14unwrap_or_else17h2ddcb7066a750eaaE:
Lfunc_begin91:
	.file	28 "/rustc/6c8927b0cf80ceee19386026cf9d7fd4fd9d486f/src/libcore/option.rs"
	.loc	28 425 0
	.cfi_startproc
	.cfi_personality 155, _rust_eh_personality
	.cfi_lsda 16, Lexception7
	pushq	%rbp
	.cfi_def_cfa_offset 16
	.cfi_offset %rbp, -16
	movq	%rsp, %rbp
	.cfi_def_cfa_register %rbp
	subq	$128, %rsp
	movq	%rdi, -96(%rbp)
	movq	%rsi, -88(%rbp)
Ltmp355:
	.loc	28 427 13 prologue_end
	movb	$0, -33(%rbp)
	movb	$1, -33(%rbp)
	movq	-96(%rbp), %rax
	testq	%rax, %rax
	setne	%cl
	movzbl	%cl, %r8d
	movl	%r8d, %eax
	movq	%rdx, -104(%rbp)
Ltmp356:
	je	LBB91_1
	jmp	LBB91_10
Ltmp357:
LBB91_10:
	jmp	LBB91_3
Ltmp358:
LBB91_1:
	.loc	28 428 21
	movb	$0, -33(%rbp)
	movq	-104(%rbp), %rax
	movq	16(%rax), %rcx
	movq	%rcx, -48(%rbp)
	movq	(%rax), %rcx
	movq	8(%rax), %rdx
	movq	%rdx, -56(%rbp)
	movq	%rcx, -64(%rbp)
Ltmp352:
	leaq	-64(%rbp), %rdi
	callq	__ZN4core3str6traits105_$LT$impl$u20$core..slice..SliceIndex$LT$str$GT$$u20$for$u20$core..ops..range..RangeFrom$LT$usize$GT$$GT$5index28_$u7b$$u7b$closure$u7d$$u7d$17h7990b4198477e6a8E
Ltmp353:
	movq	%rdx, -112(%rbp)
	movq	%rax, -120(%rbp)
	jmp	LBB91_4
Ltmp359:
	.loc	28 426 15
	ud2
LBB91_3:
Ltmp360:
	.loc	28 427 18
	movq	-96(%rbp), %rax
	movq	-88(%rbp), %rcx
	movq	%rax, -32(%rbp)
	movq	%rcx, -24(%rbp)
Ltmp361:
	.loc	28 427 24 is_stmt 0
	movq	%rax, -80(%rbp)
	movq	%rcx, -72(%rbp)
Ltmp362:
	.loc	28 426 9 is_stmt 1
	jmp	LBB91_8
Ltmp363:
LBB91_4:
	.loc	28 0 9 is_stmt 0
	movq	-120(%rbp), %rax
	.loc	28 428 21 is_stmt 1
	movq	%rax, -80(%rbp)
	movq	-112(%rbp), %rcx
	movq	%rcx, -72(%rbp)
	.loc	28 426 9
	jmp	LBB91_8
Ltmp364:
LBB91_5:
	.loc	28 430 6
	movq	-80(%rbp), %rax
	movq	-72(%rbp), %rdx
	addq	$128, %rsp
	popq	%rbp
	retq
Ltmp365:
LBB91_6:
	.loc	28 425 5
	movq	-16(%rbp), %rdi
	callq	__Unwind_Resume
	ud2
Ltmp366:
LBB91_7:
	.loc	28 430 5
	movb	$0, -33(%rbp)
	jmp	LBB91_5
Ltmp367:
LBB91_8:
	testb	$1, -33(%rbp)
	jne	LBB91_7
	jmp	LBB91_5
Ltmp368:
LBB91_9:
Ltmp354:
	.loc	28 0 5 is_stmt 0
	movq	%rax, -16(%rbp)
	movl	%edx, -8(%rbp)
	jmp	LBB91_6
Lfunc_end91:
	.cfi_endproc
	.section	__TEXT,__gcc_except_tab
	.p2align	2
GCC_except_table91:
Lexception7:
	.byte	255
	.byte	255
	.byte	1
	.uleb128 Lcst_end7-Lcst_begin7
Lcst_begin7:
	.uleb128 Ltmp352-Lfunc_begin91
	.uleb128 Ltmp353-Ltmp352
	.uleb128 Ltmp354-Lfunc_begin91
	.byte	0
	.uleb128 Ltmp353-Lfunc_begin91
	.uleb128 Lfunc_end91-Ltmp353
	.byte	0
	.byte	0
Lcst_end7:
	.p2align	2

	.section	__TEXT,__text,regular,pure_instructions
	.p2align	4, 0x90
__ZN4core6option15Option$LT$T$GT$3map17hf387cae0c771f094E:
Lfunc_begin92:
	.loc	28 454 0 is_stmt 1
	.cfi_startproc
	.cfi_personality 155, _rust_eh_personality
	.cfi_lsda 16, Lexception8
	pushq	%rbp
	.cfi_def_cfa_offset 16
	.cfi_offset %rbp, -16
	movq	%rsp, %rbp
	.cfi_def_cfa_register %rbp
	subq	$64, %rsp
	movl	%edi, -48(%rbp)
	movl	%esi, -44(%rbp)
Ltmp372:
	.loc	28 456 13 prologue_end
	movb	$0, -25(%rbp)
	movb	$1, -25(%rbp)
	movl	-48(%rbp), %eax
	movl	%eax, %ecx
	testq	%rcx, %rcx
	je	LBB92_1
	jmp	LBB92_10
LBB92_10:
	jmp	LBB92_3
LBB92_1:
	.loc	28 457 21
	movl	$1114112, -36(%rbp)
	.loc	28 455 9
	jmp	LBB92_8
	.loc	28 455 15 is_stmt 0
	ud2
LBB92_3:
	.loc	28 456 18 is_stmt 1
	movl	-44(%rbp), %eax
	movl	%eax, -20(%rbp)
Ltmp373:
	.loc	28 456 29 is_stmt 0
	movb	$0, -25(%rbp)
	movl	%eax, -32(%rbp)
	movl	-32(%rbp), %edi
Ltmp369:
	callq	__ZN75_$LT$core..str..Chars$u20$as$u20$core..iter..traits..iterator..Iterator$GT$4next28_$u7b$$u7b$closure$u7d$$u7d$17h80a1f124a994d9ccE
Ltmp370:
	movl	%eax, -52(%rbp)
	jmp	LBB92_4
LBB92_4:
	.loc	28 0 29
	movl	-52(%rbp), %eax
	.loc	28 456 24
	movl	%eax, -36(%rbp)
Ltmp374:
	.loc	28 459 5 is_stmt 1
	jmp	LBB92_8
LBB92_5:
	.loc	28 459 6 is_stmt 0
	movl	-36(%rbp), %eax
	addq	$64, %rsp
	popq	%rbp
	retq
LBB92_6:
	.loc	28 454 5 is_stmt 1
	movq	-16(%rbp), %rdi
	callq	__Unwind_Resume
	ud2
LBB92_7:
	.loc	28 459 5
	movb	$0, -25(%rbp)
	jmp	LBB92_5
LBB92_8:
	testb	$1, -25(%rbp)
	jne	LBB92_7
	jmp	LBB92_5
Ltmp375:
LBB92_9:
Ltmp371:
	.loc	28 0 5 is_stmt 0
	movq	%rax, -16(%rbp)
	movl	%edx, -8(%rbp)
	jmp	LBB92_6
Lfunc_end92:
	.cfi_endproc
	.section	__TEXT,__gcc_except_tab
	.p2align	2
GCC_except_table92:
Lexception8:
	.byte	255
	.byte	255
	.byte	1
	.uleb128 Lcst_end8-Lcst_begin8
Lcst_begin8:
	.uleb128 Ltmp369-Lfunc_begin92
	.uleb128 Ltmp370-Ltmp369
	.uleb128 Ltmp371-Lfunc_begin92
	.byte	0
	.uleb128 Ltmp370-Lfunc_begin92
	.uleb128 Lfunc_end92-Ltmp370
	.byte	0
	.byte	0
Lcst_end8:
	.p2align	2

	.section	__TEXT,__text,regular,pure_instructions
	.p2align	4, 0x90
__ZN4core6option15Option$LT$T$GT$5ok_or17h1c41d92c8af2ecf0E:
Lfunc_begin93:
	.loc	28 536 0 is_stmt 1
	.cfi_startproc
	pushq	%rbp
	.cfi_def_cfa_offset 16
	.cfi_offset %rbp, -16
	movq	%rsp, %rbp
	.cfi_def_cfa_register %rbp
	subq	$56, %rsp
	movq	%rdi, -56(%rbp)
Ltmp376:
	.loc	28 538 13 prologue_end
	movb	$0, -33(%rbp)
	movb	$1, -33(%rbp)
	movq	-56(%rbp), %rax
	testq	%rax, %rax
	setne	%cl
	movzbl	%cl, %edx
	movl	%edx, %eax
	je	LBB93_1
	jmp	LBB93_7
LBB93_7:
	jmp	LBB93_3
LBB93_1:
	.loc	28 539 25
	movb	$0, -33(%rbp)
	.loc	28 539 21 is_stmt 0
	movq	$0, -48(%rbp)
	.loc	28 537 9 is_stmt 1
	jmp	LBB93_4
	.loc	28 537 15 is_stmt 0
	ud2
LBB93_3:
	.loc	28 538 18 is_stmt 1
	movq	-56(%rbp), %rax
	movq	%rax, -24(%rbp)
Ltmp377:
	.loc	28 538 24 is_stmt 0
	movq	%rax, -48(%rbp)
Ltmp378:
LBB93_4:
	.loc	28 541 5 is_stmt 1
	testb	$1, -33(%rbp)
	jne	LBB93_6
LBB93_5:
	.loc	28 541 6 is_stmt 0
	movq	-48(%rbp), %rax
	addq	$56, %rsp
	popq	%rbp
	retq
LBB93_6:
	.loc	28 541 5
	movb	$0, -33(%rbp)
	jmp	LBB93_5
Ltmp379:
Lfunc_end93:
	.cfi_endproc

	.p2align	4, 0x90
__ZN4core6option15Option$LT$T$GT$7is_some17h6d54eb909fc7d2e0E:
Lfunc_begin94:
	.loc	28 184 0 is_stmt 1
	.cfi_startproc
	pushq	%rbp
	.cfi_def_cfa_offset 16
	.cfi_offset %rbp, -16
	movq	%rsp, %rbp
	.cfi_def_cfa_register %rbp
	subq	$16, %rsp
	movq	%rdi, -8(%rbp)
Ltmp380:
	.loc	28 185 25 prologue_end
	cmpq	$1, (%rdi)
	je	LBB94_2
	.file	29 "/rustc/6c8927b0cf80ceee19386026cf9d7fd4fd9d486f/src/libcore/macros/mod.rs"
	.loc	29 261 18
	movb	$0, -9(%rbp)
	.loc	29 259 9
	jmp	LBB94_3
LBB94_2:
	.loc	29 260 48
	movb	$1, -9(%rbp)
LBB94_3:
	.loc	28 186 6
	movb	-9(%rbp), %al
	andb	$1, %al
	movzbl	%al, %eax
	addq	$16, %rsp
	popq	%rbp
	retq
Ltmp381:
Lfunc_end94:
	.cfi_endproc

	.p2align	4, 0x90
__ZN4core6result19Result$LT$T$C$E$GT$6expect17h284a62adb5e0520cE:
Lfunc_begin95:
	.file	30 "/rustc/6c8927b0cf80ceee19386026cf9d7fd4fd9d486f/src/libcore/result.rs"
	.loc	30 960 0
	.cfi_startproc
	.cfi_personality 155, _rust_eh_personality
	.cfi_lsda 16, Lexception9
	pushq	%rbp
	.cfi_def_cfa_offset 16
	.cfi_offset %rbp, -16
	movq	%rsp, %rbp
	.cfi_def_cfa_register %rbp
	subq	$112, %rsp
Ltmp385:
	movq	%rdi, %rax
	movq	%rdx, -32(%rbp)
	movq	%rcx, -24(%rbp)
Ltmp386:
	.loc	30 962 13 prologue_end
	movq	(%rsi), %r9
	testq	%r9, %r9
	movq	%r8, -64(%rbp)
	movq	%rcx, -72(%rbp)
	movq	%rdx, -80(%rbp)
	movq	%rsi, -88(%rbp)
Ltmp387:
	.loc	30 0 13 is_stmt 0
	movq	%rdi, -96(%rbp)
Ltmp388:
	movq	%rax, -104(%rbp)
	.loc	30 962 13
	je	LBB95_3
	jmp	LBB95_8
Ltmp389:
LBB95_8:
	.loc	30 0 13
	movq	-88(%rbp), %rax
	.loc	30 963 17 is_stmt 1
	movq	24(%rax), %rcx
	movq	%rcx, -40(%rbp)
	movq	8(%rax), %rcx
	movq	16(%rax), %rdx
	movq	%rdx, -48(%rbp)
	movq	%rcx, -56(%rbp)
Ltmp382:
Ltmp390:
	.loc	30 963 23 is_stmt 0
	leaq	l___unnamed_2(%rip), %rcx
	leaq	-56(%rbp), %rdx
	movq	-80(%rbp), %rdi
	movq	-72(%rbp), %rsi
	movq	-64(%rbp), %r8
	callq	__ZN4core6result13unwrap_failed17hc193898ef513e81fE
Ltmp383:
	jmp	LBB95_6
Ltmp391:
	.loc	30 961 15 is_stmt 1
	ud2
LBB95_3:
Ltmp392:
	.loc	30 0 15 is_stmt 0
	movq	-88(%rbp), %rax
	.loc	30 962 16 is_stmt 1
	movq	8(%rax), %rcx
	movq	-96(%rbp), %rdx
	movq	%rcx, (%rdx)
	movq	16(%rax), %rcx
	movq	%rcx, 8(%rdx)
	movq	24(%rax), %rcx
	movq	%rcx, 16(%rdx)
	movq	-104(%rbp), %rax
	.loc	30 965 6
	addq	$112, %rsp
	popq	%rbp
	retq
Ltmp393:
LBB95_4:
	.loc	30 960 5
	movq	-16(%rbp), %rdi
	callq	__Unwind_Resume
	ud2
Ltmp394:
LBB95_5:
	.loc	30 963 44
	leaq	-56(%rbp), %rdi
	callq	__ZN4core3ptr13drop_in_place17hf2f249d0f3e85b7bE
	jmp	LBB95_4
Ltmp395:
LBB95_6:
	.loc	30 0 44 is_stmt 0
	ud2
Ltmp396:
LBB95_7:
Ltmp384:
	movq	%rax, -16(%rbp)
	movl	%edx, -8(%rbp)
	jmp	LBB95_5
Lfunc_end95:
	.cfi_endproc
	.section	__TEXT,__gcc_except_tab
	.p2align	2
GCC_except_table95:
Lexception9:
	.byte	255
	.byte	255
	.byte	1
	.uleb128 Lcst_end9-Lcst_begin9
Lcst_begin9:
	.uleb128 Ltmp382-Lfunc_begin95
	.uleb128 Ltmp383-Ltmp382
	.uleb128 Ltmp384-Lfunc_begin95
	.byte	0
	.uleb128 Ltmp383-Lfunc_begin95
	.uleb128 Lfunc_end95-Ltmp383
	.byte	0
	.byte	0
Lcst_end9:
	.p2align	2

	.section	__TEXT,__text,regular,pure_instructions
	.p2align	4, 0x90
__ZN50_$LT$T$u20$as$u20$core..convert..From$LT$T$GT$$GT$4from17h8acbe9730f626a16E:
Lfunc_begin96:
	.file	31 "/rustc/6c8927b0cf80ceee19386026cf9d7fd4fd9d486f/src/libcore/convert/mod.rs"
	.loc	31 570 0 is_stmt 1
	.cfi_startproc
	pushq	%rbp
	.cfi_def_cfa_offset 16
	.cfi_offset %rbp, -16
	movq	%rsp, %rbp
	.cfi_def_cfa_register %rbp
	pushq	%rax
Ltmp397:
	.loc	31 572 6 prologue_end
	addq	$8, %rsp
	popq	%rbp
	retq
Ltmp398:
Lfunc_end96:
	.cfi_endproc

	.p2align	4, 0x90
__ZN50_$LT$T$u20$as$u20$core..convert..Into$LT$U$GT$$GT$4into17hb4a980a768a521cdE:
Lfunc_begin97:
	.loc	31 562 0
	.cfi_startproc
	pushq	%rbp
	.cfi_def_cfa_offset 16
	.cfi_offset %rbp, -16
	movq	%rsp, %rbp
	.cfi_def_cfa_register %rbp
	subq	$16, %rsp
	movq	%rdi, -8(%rbp)
Ltmp399:
	.loc	31 563 9 prologue_end
	callq	__ZN119_$LT$core..ptr..non_null..NonNull$LT$T$GT$$u20$as$u20$core..convert..From$LT$core..ptr..unique..Unique$LT$T$GT$$GT$$GT$4from17hae0b2ec2581ba09fE
	movq	%rax, -16(%rbp)
	.loc	31 0 9 is_stmt 0
	movq	-16(%rbp), %rax
	.loc	31 564 6 is_stmt 1
	addq	$16, %rsp
	popq	%rbp
	retq
Ltmp400:
Lfunc_end97:
	.cfi_endproc

	.p2align	4, 0x90
__ZN54_$LT$$LP$$RP$$u20$as$u20$std..process..Termination$GT$6report17h5fe4c0b183863df2E:
Lfunc_begin98:
	.file	32 "/rustc/6c8927b0cf80ceee19386026cf9d7fd4fd9d486f/src/libstd/process.rs"
	.loc	32 1667 0
	.cfi_startproc
	pushq	%rbp
	.cfi_def_cfa_offset 16
	.cfi_offset %rbp, -16
	movq	%rsp, %rbp
	.cfi_def_cfa_register %rbp
	subq	$16, %rsp
	xorl	%edi, %edi
Ltmp401:
	.loc	32 1668 9 prologue_end
	callq	__ZN68_$LT$std..process..ExitCode$u20$as$u20$std..process..Termination$GT$6report17h71e31c1edf99f945E
	movl	%eax, -12(%rbp)
	.loc	32 0 9 is_stmt 0
	movl	-12(%rbp), %eax
	.loc	32 1669 6 is_stmt 1
	addq	$16, %rsp
	popq	%rbp
	retq
Ltmp402:
Lfunc_end98:
	.cfi_endproc

	.p2align	4, 0x90
__ZN55_$LT$$RF$T$u20$as$u20$core..convert..AsRef$LT$U$GT$$GT$6as_ref17h7915a09819e56c89E:
Lfunc_begin99:
	.loc	31 513 0
	.cfi_startproc
	pushq	%rbp
	.cfi_def_cfa_offset 16
	.cfi_offset %rbp, -16
	movq	%rsp, %rbp
	.cfi_def_cfa_register %rbp
	subq	$32, %rsp
	movq	%rdi, -8(%rbp)
Ltmp403:
	.loc	31 514 33 prologue_end
	movq	(%rdi), %rax
	movq	8(%rdi), %rsi
	.loc	31 514 9 is_stmt 0
	movq	%rax, %rdi
	callq	__ZN3std3ffi6os_str85_$LT$impl$u20$core..convert..AsRef$LT$std..ffi..os_str..OsStr$GT$$u20$for$u20$str$GT$6as_ref17h062e173f364b19c6E
	movq	%rax, -16(%rbp)
	movq	%rdx, -24(%rbp)
	.loc	31 0 9
	movq	-16(%rbp), %rax
	movq	-24(%rbp), %rdx
	.loc	31 515 6 is_stmt 1
	addq	$32, %rsp
	popq	%rbp
	retq
Ltmp404:
Lfunc_end99:
	.cfi_endproc

	.p2align	4, 0x90
__ZN55_$LT$$RF$str$u20$as$u20$core..str..pattern..Pattern$GT$13into_searcher17hbb7e32e099a1e9fdE:
Lfunc_begin100:
	.loc	20 866 0
	.cfi_startproc
	pushq	%rbp
	.cfi_def_cfa_offset 16
	.cfi_offset %rbp, -16
	movq	%rsp, %rbp
	.cfi_def_cfa_register %rbp
	subq	$64, %rsp
	movq	%rdi, %rax
	movq	%rsi, -32(%rbp)
	movq	%rdx, -24(%rbp)
	movq	%rcx, -16(%rbp)
	movq	%r8, -8(%rbp)
	movq	%rsi, -40(%rbp)
Ltmp405:
	.loc	20 867 9 prologue_end
	movq	%rcx, %rsi
	movq	%rdx, -48(%rbp)
	movq	%r8, %rdx
	movq	-40(%rbp), %rcx
	movq	-48(%rbp), %r8
	movq	%rax, -56(%rbp)
	callq	__ZN4core3str7pattern11StrSearcher3new17hb3e2f8082f620422E
	.loc	20 0 9 is_stmt 0
	movq	-56(%rbp), %rax
	.loc	20 868 6 is_stmt 1
	addq	$64, %rsp
	popq	%rbp
	retq
Ltmp406:
Lfunc_end100:
	.cfi_endproc

	.p2align	4, 0x90
__ZN5alloc3vec12Vec$LT$T$GT$10as_mut_ptr17h61aefecba3a94ec7E:
Lfunc_begin101:
	.file	33 "/rustc/6c8927b0cf80ceee19386026cf9d7fd4fd9d486f/src/liballoc/vec.rs"
	.loc	33 851 0
	.cfi_startproc
	pushq	%rbp
	.cfi_def_cfa_offset 16
	.cfi_offset %rbp, -16
	movq	%rsp, %rbp
	.cfi_def_cfa_register %rbp
	subq	$32, %rsp
	movq	%rdi, -16(%rbp)
Ltmp407:
	.loc	33 854 19 prologue_end
	callq	__ZN5alloc7raw_vec19RawVec$LT$T$C$A$GT$3ptr17hf102ec0b207bc28eE
	movq	%rax, -8(%rbp)
	movq	%rax, -24(%rbp)
	.loc	33 0 19 is_stmt 0
	movq	-24(%rbp), %rdi
Ltmp408:
	.loc	33 856 21 is_stmt 1
	callq	__ZN4core3ptr7mut_ptr31_$LT$impl$u20$$BP$mut$u20$T$GT$7is_null17h284ceb068cd846c4E
Ltmp409:
	.loc	33 0 21 is_stmt 0
	movq	-24(%rbp), %rax
	.loc	33 859 6 is_stmt 1
	addq	$32, %rsp
	popq	%rbp
	retq
Ltmp410:
Lfunc_end101:
	.cfi_endproc

	.p2align	4, 0x90
__ZN5alloc3vec12Vec$LT$T$GT$6as_ptr17h65f1deaca496cfc2E:
Lfunc_begin102:
	.loc	33 815 0
	.cfi_startproc
	pushq	%rbp
	.cfi_def_cfa_offset 16
	.cfi_offset %rbp, -16
	movq	%rsp, %rbp
	.cfi_def_cfa_register %rbp
	subq	$32, %rsp
	movq	%rdi, -16(%rbp)
Ltmp411:
	.loc	33 818 19 prologue_end
	callq	__ZN5alloc7raw_vec19RawVec$LT$T$C$A$GT$3ptr17hf102ec0b207bc28eE
	movq	%rax, -8(%rbp)
	movq	%rax, -24(%rbp)
	.loc	33 0 19 is_stmt 0
	movq	-24(%rbp), %rdi
Ltmp412:
	.loc	33 820 21 is_stmt 1
	callq	__ZN4core3ptr7mut_ptr31_$LT$impl$u20$$BP$mut$u20$T$GT$7is_null17h284ceb068cd846c4E
Ltmp413:
	.loc	33 0 21 is_stmt 0
	movq	-24(%rbp), %rax
	.loc	33 823 6 is_stmt 1
	addq	$32, %rsp
	popq	%rbp
	retq
Ltmp414:
Lfunc_end102:
	.cfi_endproc

	.p2align	4, 0x90
__ZN5alloc5alloc7dealloc17h2bc2d7e6b50f8a68E:
Lfunc_begin103:
	.file	34 "/rustc/6c8927b0cf80ceee19386026cf9d7fd4fd9d486f/src/liballoc/alloc.rs"
	.loc	34 101 0
	.cfi_startproc
	pushq	%rbp
	.cfi_def_cfa_offset 16
	.cfi_offset %rbp, -16
	movq	%rsp, %rbp
	.cfi_def_cfa_register %rbp
	subq	$48, %rsp
	movq	%rsi, -24(%rbp)
	movq	%rdx, -16(%rbp)
	movq	%rdi, -8(%rbp)
Ltmp415:
	.loc	34 102 34 prologue_end
	leaq	-24(%rbp), %rax
Ltmp416:
	.loc	34 0 34 is_stmt 0
	movq	%rdi, -32(%rbp)
	.loc	34 102 34
	movq	%rax, %rdi
	callq	__ZN4core5alloc6layout6Layout4size17h9d608be0b7138a74E
Ltmp417:
	.loc	34 0 34
	movq	%rax, -40(%rbp)
	.loc	34 102 49
	leaq	-24(%rbp), %rdi
	callq	__ZN4core5alloc6layout6Layout5align17h716e9a808091ffe6E
	movq	%rax, -48(%rbp)
	.loc	34 0 49
	movq	-32(%rbp), %rdi
	movq	-40(%rbp), %rsi
	movq	-48(%rbp), %rdx
	.loc	34 102 14
	callq	___rust_dealloc
	.loc	34 103 2 is_stmt 1
	addq	$48, %rsp
	popq	%rbp
	retq
Ltmp418:
Lfunc_end103:
	.cfi_endproc

	.p2align	4, 0x90
__ZN5alloc7raw_vec19RawVec$LT$T$C$A$GT$14current_memory17h0c9d14e0c1284ffaE:
Lfunc_begin104:
	.file	35 "/rustc/6c8927b0cf80ceee19386026cf9d7fd4fd9d486f/src/liballoc/raw_vec.rs"
	.loc	35 234 0
	.cfi_startproc
	pushq	%rbp
	.cfi_def_cfa_offset 16
	.cfi_offset %rbp, -16
	movq	%rsp, %rbp
	.cfi_def_cfa_register %rbp
	subq	$176, %rsp
	movq	%rdi, %rax
	movq	%rsi, -64(%rbp)
Ltmp419:
	.loc	12 310 5 prologue_end
	movq	$1, -24(%rbp)
	movq	-24(%rbp), %rcx
	movq	%rsi, -104(%rbp)
	movq	%rdi, -112(%rbp)
	movq	%rax, -120(%rbp)
	movq	%rcx, -128(%rbp)
Ltmp420:
	.loc	35 235 12
	jmp	LBB104_5
LBB104_1:
	movb	$1, -89(%rbp)
	jmp	LBB104_4
LBB104_2:
	movb	$0, -89(%rbp)
	jmp	LBB104_4
LBB104_3:
	.loc	35 0 12 is_stmt 0
	movq	-104(%rbp), %rax
	.loc	35 235 40
	cmpq	$0, 8(%rax)
	.loc	35 235 12
	je	LBB104_1
	jmp	LBB104_2
LBB104_4:
	.loc	35 235 9
	testb	$1, -89(%rbp)
	jne	LBB104_7
	jmp	LBB104_6
LBB104_5:
	.loc	35 0 9
	movq	-128(%rbp), %rax
	.loc	35 235 12
	cmpq	$0, %rax
	je	LBB104_1
	jmp	LBB104_3
LBB104_6:
Ltmp421:
	.loc	12 451 5 is_stmt 1
	movq	$1, -16(%rbp)
	movq	-16(%rbp), %rax
Ltmp422:
	.loc	35 241 29
	movq	%rax, -56(%rbp)
	movq	%rax, -136(%rbp)
	jmp	LBB104_8
LBB104_7:
	.loc	35 0 29 is_stmt 0
	movq	-112(%rbp), %rax
	.loc	35 236 13 is_stmt 1
	movq	$0, (%rax)
	.loc	35 235 9
	jmp	LBB104_13
LBB104_8:
Ltmp423:
	.loc	12 310 5
	movq	$1, -8(%rbp)
	movq	-8(%rbp), %rax
	movq	%rax, -144(%rbp)
Ltmp424:
	.loc	12 0 5 is_stmt 0
	movq	-144(%rbp), %rax
	movq	-104(%rbp), %rcx
	.loc	35 242 28 is_stmt 1
	imulq	8(%rcx), %rax
	movq	%rax, -48(%rbp)
Ltmp425:
	.loc	35 243 30
	movq	%rax, %rdi
	movq	-136(%rbp), %rsi
	callq	__ZN4core5alloc6layout6Layout25from_size_align_unchecked17h16796ee524494379E
	movq	%rax, -40(%rbp)
	movq	%rdx, -32(%rbp)
	movq	%rax, -152(%rbp)
	movq	%rdx, -160(%rbp)
	.loc	35 0 30 is_stmt 0
	movq	-104(%rbp), %rax
Ltmp426:
	.loc	35 244 23 is_stmt 1
	movq	(%rax), %rdi
	callq	__ZN4core3ptr6unique15Unique$LT$T$GT$4cast17h5e16209cc29f3253E
	movq	%rax, -168(%rbp)
	.loc	35 0 23 is_stmt 0
	movq	-168(%rbp), %rdi
	.loc	35 244 23
	callq	__ZN50_$LT$T$u20$as$u20$core..convert..Into$LT$U$GT$$GT$4into17hb4a980a768a521cdE
	movq	%rax, -176(%rbp)
	.loc	35 0 23
	movq	-176(%rbp), %rax
	.loc	35 244 22
	movq	%rax, -88(%rbp)
	movq	-152(%rbp), %rcx
	movq	%rcx, -80(%rbp)
	movq	-160(%rbp), %rdx
	movq	%rdx, -72(%rbp)
	.loc	35 244 17
	movq	-88(%rbp), %rsi
	movq	-112(%rbp), %rdi
	movq	%rsi, (%rdi)
	movq	-80(%rbp), %rsi
	movq	%rsi, 8(%rdi)
	movq	-72(%rbp), %rsi
	movq	%rsi, 16(%rdi)
Ltmp427:
LBB104_13:
	.loc	35 0 17
	movq	-120(%rbp), %rax
	.loc	35 247 6 is_stmt 1
	addq	$176, %rsp
	popq	%rbp
	retq
Ltmp428:
Lfunc_end104:
	.cfi_endproc

	.p2align	4, 0x90
__ZN5alloc7raw_vec19RawVec$LT$T$C$A$GT$3ptr17hf102ec0b207bc28eE:
Lfunc_begin105:
	.loc	35 212 0
	.cfi_startproc
	pushq	%rbp
	.cfi_def_cfa_offset 16
	.cfi_offset %rbp, -16
	movq	%rsp, %rbp
	.cfi_def_cfa_register %rbp
	subq	$16, %rsp
	movq	%rdi, -8(%rbp)
Ltmp429:
	.loc	35 213 9 prologue_end
	movq	(%rdi), %rdi
	callq	__ZN4core3ptr6unique15Unique$LT$T$GT$6as_ptr17hfcd403a3fea93302E
	movq	%rax, -16(%rbp)
	.loc	35 0 9 is_stmt 0
	movq	-16(%rbp), %rax
	.loc	35 214 6 is_stmt 1
	addq	$16, %rsp
	popq	%rbp
	retq
Ltmp430:
Lfunc_end105:
	.cfi_endproc

	.p2align	4, 0x90
__ZN62_$LT$alloc..alloc..Global$u20$as$u20$core..alloc..AllocRef$GT$7dealloc17h54523f2e8aca63cdE:
Lfunc_begin106:
	.loc	34 184 0
	.cfi_startproc
	pushq	%rbp
	.cfi_def_cfa_offset 16
	.cfi_offset %rbp, -16
	movq	%rsp, %rbp
	.cfi_def_cfa_register %rbp
	subq	$64, %rsp
	movq	%rdx, -40(%rbp)
	movq	%rcx, -32(%rbp)
	movq	%rdi, -16(%rbp)
	movq	%rsi, -8(%rbp)
Ltmp431:
	.loc	34 185 12 prologue_end
	leaq	-40(%rbp), %rdi
Ltmp432:
	.loc	34 0 12 is_stmt 0
	movq	%rsi, -48(%rbp)
	.loc	34 185 12
	callq	__ZN4core5alloc6layout6Layout4size17h9d608be0b7138a74E
Ltmp433:
	.loc	34 0 12
	movq	%rax, -56(%rbp)
	movq	-56(%rbp), %rax
	.loc	34 185 12
	cmpq	$0, %rax
	.loc	34 185 9
	jne	LBB106_3
	jmp	LBB106_6
LBB106_3:
	.loc	34 0 9
	movq	-48(%rbp), %rdi
	.loc	34 186 30 is_stmt 1
	callq	__ZN4core3ptr8non_null16NonNull$LT$T$GT$6as_ptr17hb2477d78ec6d1ec7E
	movq	%rax, -64(%rbp)
	.loc	34 186 44 is_stmt 0
	movq	-40(%rbp), %rsi
	movq	-32(%rbp), %rdx
	movq	-64(%rbp), %rdi
	.loc	34 186 22
	callq	__ZN5alloc5alloc7dealloc17h2bc2d7e6b50f8a68E
	.loc	34 185 9 is_stmt 1
	jmp	LBB106_6
LBB106_6:
	.loc	34 188 6
	addq	$64, %rsp
	popq	%rbp
	retq
Ltmp434:
Lfunc_end106:
	.cfi_endproc

	.p2align	4, 0x90
__ZN63_$LT$I$u20$as$u20$core..iter..traits..collect..IntoIterator$GT$9into_iter17hacf26d324441d20cE:
Lfunc_begin107:
	.file	36 "/rustc/6c8927b0cf80ceee19386026cf9d7fd4fd9d486f/src/libcore/iter/traits/collect.rs"
	.loc	36 247 0
	.cfi_startproc
	pushq	%rbp
	.cfi_def_cfa_offset 16
	.cfi_offset %rbp, -16
	movq	%rsp, %rbp
	.cfi_def_cfa_register %rbp
	subq	$16, %rsp
	movq	%rdi, -16(%rbp)
	movq	%rsi, -8(%rbp)
Ltmp435:
	.loc	36 249 6 prologue_end
	movq	%rdi, %rax
	movq	%rsi, %rdx
	addq	$16, %rsp
	popq	%rbp
	retq
Ltmp436:
Lfunc_end107:
	.cfi_endproc

	.p2align	4, 0x90
__ZN63_$LT$I$u20$as$u20$core..iter..traits..collect..IntoIterator$GT$9into_iter17hee590cea7cd8613aE:
Lfunc_begin108:
	.loc	36 247 0
	.cfi_startproc
	pushq	%rbp
	.cfi_def_cfa_offset 16
	.cfi_offset %rbp, -16
	movq	%rsp, %rbp
	.cfi_def_cfa_register %rbp
	subq	$16, %rsp
	movq	%rdi, -16(%rbp)
	movq	%rsi, -8(%rbp)
Ltmp437:
	.loc	36 249 6 prologue_end
	movq	%rdi, %rax
	movq	%rsi, %rdx
	addq	$16, %rsp
	popq	%rbp
	retq
Ltmp438:
Lfunc_end108:
	.cfi_endproc

	.p2align	4, 0x90
__ZN65_$LT$alloc..string..String$u20$as$u20$core..ops..deref..Deref$GT$5deref17h30398c2ec8aadbc7E:
Lfunc_begin109:
	.file	37 "/rustc/6c8927b0cf80ceee19386026cf9d7fd4fd9d486f/src/liballoc/string.rs"
	.loc	37 2134 0
	.cfi_startproc
	pushq	%rbp
	.cfi_def_cfa_offset 16
	.cfi_offset %rbp, -16
	movq	%rsp, %rbp
	.cfi_def_cfa_register %rbp
	subq	$48, %rsp
	movq	%rdi, -8(%rbp)
Ltmp439:
	.loc	37 2135 43 prologue_end
	callq	__ZN68_$LT$alloc..vec..Vec$LT$T$GT$$u20$as$u20$core..ops..deref..Deref$GT$5deref17h42e8ca10f0944285E
	movq	%rax, -16(%rbp)
	movq	%rdx, -24(%rbp)
	.loc	37 0 43 is_stmt 0
	movq	-16(%rbp), %rdi
	movq	-24(%rbp), %rsi
	.loc	37 2135 18
	callq	__ZN4core3str19from_utf8_unchecked17h07e11375b4df2f18E
	movq	%rax, -32(%rbp)
	movq	%rdx, -40(%rbp)
	.loc	37 0 18
	movq	-32(%rbp), %rax
	movq	-40(%rbp), %rdx
	.loc	37 2136 6 is_stmt 1
	addq	$48, %rsp
	popq	%rbp
	retq
Ltmp440:
Lfunc_end109:
	.cfi_endproc

	.p2align	4, 0x90
__ZN66_$LT$alloc..vec..Vec$LT$T$GT$$u20$as$u20$core..ops..drop..Drop$GT$4drop17hc8aae524c8335831E:
Lfunc_begin110:
	.loc	33 2416 0
	.cfi_startproc
	pushq	%rbp
	.cfi_def_cfa_offset 16
	.cfi_offset %rbp, -16
	movq	%rsp, %rbp
	.cfi_def_cfa_register %rbp
	subq	$32, %rsp
	movq	%rdi, -8(%rbp)
	movq	%rdi, -16(%rbp)
Ltmp441:
	.loc	33 2421 62 prologue_end
	callq	__ZN5alloc3vec12Vec$LT$T$GT$10as_mut_ptr17h61aefecba3a94ec7E
	movq	%rax, -24(%rbp)
	.loc	33 0 62 is_stmt 0
	movq	-16(%rbp), %rax
	.loc	33 2421 81
	movq	16(%rax), %rsi
	movq	-24(%rbp), %rdi
	.loc	33 2421 32
	callq	__ZN4core3ptr24slice_from_raw_parts_mut17hc1186761dc234335E
	.loc	33 2421 13
	jmp	LBB110_3
LBB110_3:
	.loc	33 2424 6 is_stmt 1
	addq	$32, %rsp
	popq	%rbp
	retq
Ltmp442:
Lfunc_end110:
	.cfi_endproc

	.p2align	4, 0x90
__ZN68_$LT$alloc..vec..Vec$LT$T$GT$$u20$as$u20$core..ops..deref..Deref$GT$5deref17h42e8ca10f0944285E:
Lfunc_begin111:
	.loc	33 1922 0
	.cfi_startproc
	pushq	%rbp
	.cfi_def_cfa_offset 16
	.cfi_offset %rbp, -16
	movq	%rsp, %rbp
	.cfi_def_cfa_register %rbp
	subq	$48, %rsp
	movq	%rdi, -8(%rbp)
	movq	%rdi, -16(%rbp)
Ltmp443:
	.loc	33 1923 40 prologue_end
	callq	__ZN5alloc3vec12Vec$LT$T$GT$6as_ptr17h65f1deaca496cfc2E
	movq	%rax, -24(%rbp)
	.loc	33 0 40 is_stmt 0
	movq	-16(%rbp), %rax
	.loc	33 1923 55
	movq	16(%rax), %rsi
	movq	-24(%rbp), %rdi
	.loc	33 1923 18
	callq	__ZN4core5slice14from_raw_parts17h1adb2d8f61824f9eE
	movq	%rax, -32(%rbp)
	movq	%rdx, -40(%rbp)
	.loc	33 0 18
	movq	-32(%rbp), %rax
	movq	-40(%rbp), %rdx
	.loc	33 1924 6 is_stmt 1
	addq	$48, %rsp
	popq	%rbp
	retq
Ltmp444:
Lfunc_end111:
	.cfi_endproc

	.p2align	4, 0x90
__ZN68_$LT$std..process..ExitCode$u20$as$u20$std..process..Termination$GT$6report17h71e31c1edf99f945E:
Lfunc_begin112:
	.loc	32 1701 0
	.cfi_startproc
	pushq	%rbp
	.cfi_def_cfa_offset 16
	.cfi_offset %rbp, -16
	movq	%rsp, %rbp
	.cfi_def_cfa_register %rbp
	subq	$16, %rsp
	movb	%dil, -1(%rbp)
Ltmp445:
	.loc	32 1702 9 prologue_end
	leaq	-1(%rbp), %rdi
Ltmp446:
	callq	__ZN3std3sys4unix7process14process_common8ExitCode6as_i3217h989c62f7fb4e6761E
Ltmp447:
	.loc	32 0 9 is_stmt 0
	movl	%eax, -8(%rbp)
	movl	-8(%rbp), %eax
	.loc	32 1703 6 is_stmt 1
	addq	$16, %rsp
	popq	%rbp
	retq
Ltmp448:
Lfunc_end112:
	.cfi_endproc

	.p2align	4, 0x90
__ZN68_$LT$usize$u20$as$u20$core..slice..SliceIndex$LT$$u5b$T$u5d$$GT$$GT$13get_unchecked17h1c1a967b6c48d8f3E:
Lfunc_begin113:
	.loc	27 3099 0
	.cfi_startproc
	pushq	%rbp
	.cfi_def_cfa_offset 16
	.cfi_offset %rbp, -16
	movq	%rsp, %rbp
	.cfi_def_cfa_register %rbp
	subq	$48, %rsp
	movq	%rdi, -24(%rbp)
	movq	%rsi, -16(%rbp)
	movq	%rdx, -8(%rbp)
	movq	%rdi, -32(%rbp)
Ltmp449:
	.loc	27 3104 18 prologue_end
	movq	%rsi, %rdi
	movq	%rdx, %rsi
	callq	__ZN4core3ptr9const_ptr43_$LT$impl$u20$$BP$const$u20$$u5b$T$u5d$$GT$6as_ptr17hf02d59080baf85cfE
	movq	%rax, -40(%rbp)
	.loc	27 0 18 is_stmt 0
	movq	-40(%rbp), %rdi
	movq	-32(%rbp), %rsi
	.loc	27 3104 18
	callq	__ZN4core3ptr9const_ptr33_$LT$impl$u20$$BP$const$u20$T$GT$3add17ha61b93b3a7879760E
	movq	%rax, -48(%rbp)
	.loc	27 0 18
	movq	-48(%rbp), %rax
	.loc	27 3105 6 is_stmt 1
	addq	$48, %rsp
	popq	%rbp
	retq
Ltmp450:
Lfunc_end113:
	.cfi_endproc

	.p2align	4, 0x90
__ZN68_$LT$usize$u20$as$u20$core..slice..SliceIndex$LT$$u5b$T$u5d$$GT$$GT$3get17hb58d792e1b8bc90cE:
Lfunc_begin114:
	.loc	27 3089 0
	.cfi_startproc
	pushq	%rbp
	.cfi_def_cfa_offset 16
	.cfi_offset %rbp, -16
	movq	%rsp, %rbp
	.cfi_def_cfa_register %rbp
	subq	$80, %rsp
	movq	%rdi, -24(%rbp)
	movq	%rsi, -16(%rbp)
	movq	%rdx, -8(%rbp)
	movq	%rdi, -40(%rbp)
Ltmp451:
	.loc	27 3090 19 prologue_end
	movq	%rsi, %rdi
	movq	%rsi, -48(%rbp)
	movq	%rdx, %rsi
	movq	%rdx, -56(%rbp)
	callq	__ZN4core5slice29_$LT$impl$u20$$u5b$T$u5d$$GT$3len17hee3fa036b8f7c7c7E
	movq	%rax, -64(%rbp)
	.loc	27 0 19 is_stmt 0
	movq	-40(%rbp), %rax
	movq	-64(%rbp), %rcx
	.loc	27 3090 12
	cmpq	%rcx, %rax
	.loc	27 3090 9
	jb	LBB114_3
	.loc	27 3090 87
	movq	$0, -32(%rbp)
	.loc	27 3090 9
	jmp	LBB114_5
LBB114_3:
	.loc	27 0 9
	movq	-40(%rbp), %rdi
	movq	-48(%rbp), %rsi
	movq	-56(%rbp), %rdx
	.loc	27 3090 49
	callq	__ZN68_$LT$usize$u20$as$u20$core..slice..SliceIndex$LT$$u5b$T$u5d$$GT$$GT$13get_unchecked17h1c1a967b6c48d8f3E
	movq	%rax, -72(%rbp)
	.loc	27 0 49
	movq	-72(%rbp), %rax
	.loc	27 3090 42
	movq	%rax, -32(%rbp)
LBB114_5:
	.loc	27 3091 6 is_stmt 1
	movq	-32(%rbp), %rax
	addq	$80, %rsp
	popq	%rbp
	retq
Ltmp452:
Lfunc_end114:
	.cfi_endproc

	.p2align	4, 0x90
__ZN69_$LT$core..option..Option$LT$T$GT$$u20$as$u20$core..ops..try..Try$GT$10from_error17hbed3c0a171fa82f7E:
Lfunc_begin115:
	.loc	28 1709 0
	.cfi_startproc
	pushq	%rbp
	.cfi_def_cfa_offset 16
	.cfi_offset %rbp, -16
	movq	%rsp, %rbp
	.cfi_def_cfa_register %rbp
	subq	$16, %rsp
Ltmp453:
	.loc	28 1710 9 prologue_end
	movl	$0, -16(%rbp)
	.loc	28 1711 6
	movl	-16(%rbp), %eax
	movl	-12(%rbp), %edx
	addq	$16, %rsp
	popq	%rbp
	retq
Ltmp454:
Lfunc_end115:
	.cfi_endproc

	.p2align	4, 0x90
__ZN69_$LT$core..option..Option$LT$T$GT$$u20$as$u20$core..ops..try..Try$GT$11into_result17h617900dfb6e29561E:
Lfunc_begin116:
	.loc	28 1699 0
	.cfi_startproc
	pushq	%rbp
	.cfi_def_cfa_offset 16
	.cfi_offset %rbp, -16
	movq	%rsp, %rbp
	.cfi_def_cfa_register %rbp
	subq	$16, %rsp
	movq	%rdi, -8(%rbp)
Ltmp455:
	.loc	28 1700 9 prologue_end
	callq	__ZN4core6option15Option$LT$T$GT$5ok_or17h1c41d92c8af2ecf0E
	movq	%rax, -16(%rbp)
	.loc	28 0 9 is_stmt 0
	movq	-16(%rbp), %rax
	.loc	28 1701 6 is_stmt 1
	addq	$16, %rsp
	popq	%rbp
	retq
Ltmp456:
Lfunc_end116:
	.cfi_endproc

	.p2align	4, 0x90
__ZN75_$LT$core..str..Chars$u20$as$u20$core..iter..traits..iterator..Iterator$GT$4next17he5bcaebb759ef54eE:
Lfunc_begin117:
	.loc	3 585 0
	.cfi_startproc
	pushq	%rbp
	.cfi_def_cfa_offset 16
	.cfi_offset %rbp, -16
	movq	%rsp, %rbp
	.cfi_def_cfa_register %rbp
	subq	$32, %rsp
	movq	%rdi, -8(%rbp)
Ltmp457:
	.loc	3 586 9 prologue_end
	callq	__ZN4core3str15next_code_point17h41313b448804fd06E
	movl	%eax, -12(%rbp)
	movl	%edx, -16(%rbp)
	.loc	3 0 9 is_stmt 0
	movl	-12(%rbp), %edi
	movl	-16(%rbp), %esi
	.loc	3 586 9
	callq	__ZN4core6option15Option$LT$T$GT$3map17hf387cae0c771f094E
	movl	%eax, -20(%rbp)
	.loc	3 0 9
	movl	-20(%rbp), %eax
	.loc	3 590 6 is_stmt 1
	addq	$32, %rsp
	popq	%rbp
	retq
Ltmp458:
Lfunc_end117:
	.cfi_endproc

	.p2align	4, 0x90
__ZN75_$LT$core..str..Chars$u20$as$u20$core..iter..traits..iterator..Iterator$GT$4next28_$u7b$$u7b$closure$u7d$$u7d$17h80a1f124a994d9ccE:
Lfunc_begin118:
	.loc	3 586 0
	.cfi_startproc
	pushq	%rbp
	.cfi_def_cfa_offset 16
	.cfi_offset %rbp, -16
	movq	%rsp, %rbp
	.cfi_def_cfa_register %rbp
	subq	$16, %rsp
	movl	%edi, -4(%rbp)
Ltmp459:
	.loc	3 588 22 prologue_end
	callq	__ZN4core4char7convert18from_u32_unchecked17ha3a3f1fb53ccc585E
	movl	%eax, -12(%rbp)
	.loc	3 0 22 is_stmt 0
	movl	-12(%rbp), %eax
	.loc	3 589 10 is_stmt 1
	addq	$16, %rsp
	popq	%rbp
	retq
Ltmp460:
Lfunc_end118:
	.cfi_endproc

	.p2align	4, 0x90
__ZN77_$LT$alloc..raw_vec..RawVec$LT$T$C$A$GT$$u20$as$u20$core..ops..drop..Drop$GT$4drop17h389ebcbac2991bbaE:
Lfunc_begin119:
	.loc	35 506 0
	.cfi_startproc
	pushq	%rbp
	.cfi_def_cfa_offset 16
	.cfi_offset %rbp, -16
	movq	%rsp, %rbp
	.cfi_def_cfa_register %rbp
	subq	$80, %rsp
	movq	%rdi, -32(%rbp)
Ltmp461:
	.loc	35 507 38 prologue_end
	leaq	-56(%rbp), %rax
	movq	%rdi, -72(%rbp)
	movq	%rax, %rdi
	movq	-72(%rbp), %rsi
	callq	__ZN5alloc7raw_vec19RawVec$LT$T$C$A$GT$14current_memory17h0c9d14e0c1284ffaE
	.loc	35 0 38 is_stmt 0
	xorl	%eax, %eax
	movl	%eax, %ecx
	.loc	35 507 16
	cmpq	$0, -56(%rbp)
	movl	$1, %edx
	cmovbeq	%rcx, %rdx
	cmpq	$1, %rdx
	je	LBB119_3
	.loc	35 507 9
	jmp	LBB119_5
LBB119_3:
	.loc	35 507 22
	movq	-56(%rbp), %rax
	movq	%rax, -24(%rbp)
	.loc	35 507 27
	movq	-48(%rbp), %rcx
	movq	-40(%rbp), %rdx
	movq	%rcx, -16(%rbp)
	movq	%rdx, -8(%rbp)
	movq	-72(%rbp), %rsi
Ltmp462:
	.loc	35 508 22 is_stmt 1
	movq	%rsi, %rdi
	movq	%rax, %rsi
	movq	%rdx, -80(%rbp)
	movq	%rcx, %rdx
	movq	-80(%rbp), %rcx
	callq	__ZN62_$LT$alloc..alloc..Global$u20$as$u20$core..alloc..AllocRef$GT$7dealloc17h54523f2e8aca63cdE
Ltmp463:
	.loc	35 507 9
	jmp	LBB119_5
LBB119_5:
	.loc	35 510 6
	addq	$80, %rsp
	popq	%rbp
	retq
Ltmp464:
Lfunc_end119:
	.cfi_endproc

	.p2align	4, 0x90
__ZN80_$LT$core..str..pattern..StrSearcher$u20$as$u20$core..str..pattern..Searcher$GT$10next_match17h45803cd60d407f3fE:
Lfunc_begin120:
	.loc	20 1012 0
	.cfi_startproc
	pushq	%rbp
	.cfi_def_cfa_offset 16
	.cfi_offset %rbp, -16
	movq	%rsp, %rbp
	.cfi_def_cfa_register %rbp
	subq	$336, %rsp
	movq	%rdi, %rax
	movq	%rsi, -168(%rbp)
Ltmp465:
	.loc	20 1014 13 prologue_end
	movq	32(%rsi), %rcx
	testq	%rcx, %rcx
	movq	%rsi, -216(%rbp)
	movq	%rdi, -224(%rbp)
	movq	%rax, -232(%rbp)
	je	LBB120_3
	jmp	LBB120_21
LBB120_21:
	.loc	20 0 13 is_stmt 0
	movq	-216(%rbp), %rax
	.loc	20 1021 37 is_stmt 1
	addq	$32, %rax
	addq	$8, %rax
	movq	%rax, -160(%rbp)
	movq	-216(%rbp), %rcx
Ltmp466:
	.loc	20 1022 31
	cmpq	$-1, 88(%rcx)
	sete	%dl
	movb	%dl, %sil
	andb	$1, %sil
	movb	%sil, -145(%rbp)
Ltmp467:
	.loc	20 1025 17
	testb	$1, %dl
	movq	%rax, -240(%rbp)
	jne	LBB120_13
	jmp	LBB120_12
Ltmp468:
	.loc	20 1013 15
	ud2
LBB120_3:
	.loc	20 1014 43
	jmp	LBB120_4
LBB120_4:
	.loc	20 1015 23
	leaq	-208(%rbp), %rdi
	movq	-216(%rbp), %rsi
	callq	__ZN80_$LT$core..str..pattern..StrSearcher$u20$as$u20$core..str..pattern..Searcher$GT$4next17hbdf810982b2354b9E
	.loc	20 1016 21
	movq	-208(%rbp), %rax
	testq	%rax, %rax
	movq	%rax, -248(%rbp)
	je	LBB120_8
	jmp	LBB120_22
LBB120_22:
	.loc	20 0 21 is_stmt 0
	movq	-248(%rbp), %rax
	.loc	20 1016 21
	subq	$1, %rax
	je	LBB120_6
	jmp	LBB120_23
LBB120_23:
	jmp	LBB120_11
LBB120_6:
	.loc	20 1014 43 is_stmt 1
	jmp	LBB120_4
	.loc	20 1015 23
	ud2
LBB120_8:
	.loc	20 1016 39
	movq	-200(%rbp), %rax
	movq	%rax, -144(%rbp)
	.loc	20 1016 42 is_stmt 0
	movq	-192(%rbp), %rcx
	movq	%rcx, -136(%rbp)
Ltmp469:
	.loc	20 1016 60
	movq	%rax, -184(%rbp)
	movq	%rcx, -176(%rbp)
	.loc	20 1016 55
	movq	-184(%rbp), %rax
	movq	-176(%rbp), %rcx
	movq	-224(%rbp), %rdx
	movq	%rax, 8(%rdx)
	movq	%rcx, 16(%rdx)
	movq	$1, (%rdx)
Ltmp470:
	.loc	20 1016 48
	jmp	LBB120_10
LBB120_9:
	.loc	20 0 48
	movq	-232(%rbp), %rax
	.loc	20 1040 6 is_stmt 1
	addq	$336, %rsp
	popq	%rbp
	retq
LBB120_10:
	.loc	20 1016 48
	jmp	LBB120_9
LBB120_11:
	.loc	20 0 48 is_stmt 0
	movq	-224(%rbp), %rax
	.loc	20 1017 48 is_stmt 1
	movq	$0, (%rax)
	.loc	20 1017 41 is_stmt 0
	jmp	LBB120_10
LBB120_12:
	.loc	20 0 41
	movq	-216(%rbp), %rax
Ltmp471:
	.loc	20 1033 25 is_stmt 1
	movq	(%rax), %rcx
	movq	8(%rax), %rdx
	movq	%rcx, -112(%rbp)
	movq	%rdx, -104(%rbp)
Ltmp472:
	.loc	3 2359 18
	movq	%rcx, -128(%rbp)
	movq	%rdx, -120(%rbp)
	movq	-128(%rbp), %rdx
	movq	-120(%rbp), %rcx
	movq	%rdx, -256(%rbp)
	movq	%rcx, -264(%rbp)
Ltmp473:
	.loc	20 1033 25
	jmp	LBB120_17
LBB120_13:
	.loc	20 0 25 is_stmt 0
	movq	-216(%rbp), %rax
	.loc	20 1027 25 is_stmt 1
	movq	(%rax), %rcx
	movq	8(%rax), %rdx
	movq	%rcx, -80(%rbp)
	movq	%rdx, -72(%rbp)
Ltmp474:
	.loc	3 2359 18
	movq	%rcx, -96(%rbp)
	movq	%rdx, -88(%rbp)
	movq	-96(%rbp), %rdx
	movq	-88(%rbp), %rcx
	movq	%rdx, -272(%rbp)
	movq	%rcx, -280(%rbp)
Ltmp475:
	.loc	3 0 18 is_stmt 0
	movq	-216(%rbp), %rax
	.loc	20 1028 25 is_stmt 1
	movq	16(%rax), %rcx
	movq	24(%rax), %rdx
	movq	%rcx, -16(%rbp)
	movq	%rdx, -8(%rbp)
Ltmp476:
	.loc	3 2359 18
	movq	%rcx, -32(%rbp)
	movq	%rdx, -24(%rbp)
	movq	-32(%rbp), %r8
	movq	-24(%rbp), %r9
	movq	%r8, -288(%rbp)
	movq	%r9, -296(%rbp)
Ltmp477:
	.loc	3 0 18 is_stmt 0
	movq	-224(%rbp), %rdi
	movq	-240(%rbp), %rsi
	movq	-272(%rbp), %rdx
	movq	-280(%rbp), %rcx
	movq	-288(%rbp), %r8
	movq	-296(%rbp), %r9
	.loc	20 1026 21 is_stmt 1
	movl	$1, (%rsp)
	callq	__ZN4core3str7pattern14TwoWaySearcher4next17h85b8c497b3d2a48fE
	.loc	20 1025 17
	jmp	LBB120_20
LBB120_17:
	.loc	20 0 17 is_stmt 0
	movq	-216(%rbp), %rax
	.loc	20 1034 25 is_stmt 1
	movq	16(%rax), %rcx
	movq	24(%rax), %rdx
	movq	%rcx, -48(%rbp)
	movq	%rdx, -40(%rbp)
Ltmp478:
	.loc	3 2359 18
	movq	%rcx, -64(%rbp)
	movq	%rdx, -56(%rbp)
	movq	-64(%rbp), %r8
	movq	-56(%rbp), %r9
	movq	%r8, -304(%rbp)
	movq	%r9, -312(%rbp)
Ltmp479:
	.loc	3 0 18 is_stmt 0
	xorl	%eax, %eax
	movq	-224(%rbp), %rdi
	movq	-240(%rbp), %rsi
	movq	-256(%rbp), %rdx
	movq	-264(%rbp), %rcx
	movq	-304(%rbp), %r8
	movq	-312(%rbp), %r9
	.loc	20 1032 21 is_stmt 1
	movl	$0, (%rsp)
	movl	%eax, -316(%rbp)
	callq	__ZN4core3str7pattern14TwoWaySearcher4next17h85b8c497b3d2a48fE
	.loc	20 1025 17
	jmp	LBB120_20
Ltmp480:
LBB120_20:
	.loc	20 1013 9
	jmp	LBB120_9
Ltmp481:
Lfunc_end120:
	.cfi_endproc

	.p2align	4, 0x90
__ZN80_$LT$core..str..pattern..StrSearcher$u20$as$u20$core..str..pattern..Searcher$GT$4next17hbdf810982b2354b9E:
Lfunc_begin121:
	.loc	20 966 0
	.cfi_startproc
	pushq	%rbp
	.cfi_def_cfa_offset 16
	.cfi_offset %rbp, -16
	movq	%rsp, %rbp
	.cfi_def_cfa_register %rbp
	subq	$384, %rsp
	movq	%rdi, %rax
	movq	%rsi, -128(%rbp)
Ltmp482:
	.loc	20 968 13 prologue_end
	movq	32(%rsi), %rcx
	testq	%rcx, %rcx
	movq	%rsi, -224(%rbp)
	movq	%rdi, -232(%rbp)
	movq	%rax, -240(%rbp)
	je	LBB121_3
	jmp	LBB121_29
LBB121_29:
	.loc	20 0 13 is_stmt 0
	movq	-224(%rbp), %rax
	.loc	20 982 37 is_stmt 1
	addq	$32, %rax
	addq	$8, %rax
	movq	%rax, -120(%rbp)
	movq	-224(%rbp), %rcx
Ltmp483:
	.loc	20 988 20
	movq	72(%rcx), %rdx
	.loc	20 988 41 is_stmt 0
	movq	(%rcx), %rdi
	movq	8(%rcx), %rsi
	movq	%rax, -248(%rbp)
	movq	%rdx, -256(%rbp)
	callq	__ZN4core3str21_$LT$impl$u20$str$GT$3len17hfa2bb2f478c7a9d7E
	movq	%rax, -264(%rbp)
	jmp	LBB121_14
Ltmp484:
	.loc	20 967 15 is_stmt 1
	ud2
LBB121_3:
	.loc	20 0 15 is_stmt 0
	leaq	l___unnamed_8(%rip), %rax
	movq	-224(%rbp), %rcx
	.loc	20 968 36 is_stmt 1
	addq	$32, %rcx
	addq	$8, %rcx
	movq	%rcx, -96(%rbp)
	movq	-224(%rbp), %rdx
Ltmp485:
	.loc	20 970 32
	movb	56(%rdx), %sil
	movb	%sil, %dil
	andb	$1, %dil
	movb	%dil, -81(%rbp)
Ltmp486:
	.loc	20 971 41
	movb	56(%rdx), %dil
	.loc	20 971 17 is_stmt 0
	xorb	$-1, %dil
	andb	$1, %dil
	movb	%dil, 56(%rdx)
	.loc	20 972 27 is_stmt 1
	movq	40(%rdx), %r8
	movq	%r8, -80(%rbp)
Ltmp487:
	.loc	20 973 23
	movq	(%rdx), %rdi
	movq	8(%rdx), %r9
	.loc	20 973 37 is_stmt 0
	movq	%r8, -192(%rbp)
	.loc	20 973 23
	movq	-192(%rbp), %rdx
	movb	%sil, -265(%rbp)
	movq	%r9, %rsi
	movq	%rcx, -280(%rbp)
	movq	%rax, %rcx
	movq	%r8, -288(%rbp)
	callq	__ZN4core3str6traits66_$LT$impl$u20$core..ops..index..Index$LT$I$GT$$u20$for$u20$str$GT$5index17h332f6c5bc41fabb8E
	movq	%rax, -296(%rbp)
	movq	%rdx, -304(%rbp)
	.loc	20 0 23
	movq	-296(%rbp), %rdi
	movq	-304(%rbp), %rsi
	.loc	20 973 23
	callq	__ZN4core3str21_$LT$impl$u20$str$GT$5chars17h2c72cffd1afccf18E
	movq	%rdx, -200(%rbp)
	movq	%rax, -208(%rbp)
	leaq	-208(%rbp), %rdi
	callq	__ZN75_$LT$core..str..Chars$u20$as$u20$core..iter..traits..iterator..Iterator$GT$4next17he5bcaebb759ef54eE
	movl	%eax, -212(%rbp)
	.loc	20 0 23
	movb	-265(%rbp), %al
	.loc	20 974 26 is_stmt 1
	testb	$1, %al
	jne	LBB121_9
	jmp	LBB121_10
LBB121_7:
	.loc	20 976 26
	movl	-212(%rbp), %eax
	movl	%eax, -68(%rbp)
Ltmp488:
	.loc	20 977 46
	movl	%eax, %edi
	callq	__ZN4core4char7methods22_$LT$impl$u20$char$GT$8len_utf817hc35da86fd555c8f9E
	movq	%rax, -312(%rbp)
	jmp	LBB121_12
Ltmp489:
	.loc	20 973 23
	ud2
LBB121_9:
	.loc	20 0 23 is_stmt 0
	movq	-232(%rbp), %rax
	movq	-288(%rbp), %rcx
	.loc	20 974 38 is_stmt 1
	movq	%rcx, 8(%rax)
	movq	%rcx, 16(%rax)
	movq	$0, (%rax)
	.loc	20 973 17
	jmp	LBB121_13
LBB121_10:
	.loc	20 975 21
	movl	-212(%rbp), %eax
	addl	$-1114112, %eax
	setne	%cl
	movzbl	%cl, %edx
	movl	%edx, %esi
	je	LBB121_11
	jmp	LBB121_30
LBB121_30:
	jmp	LBB121_7
LBB121_11:
	.loc	20 0 21 is_stmt 0
	movq	-232(%rbp), %rax
	.loc	20 975 29
	movq	$2, (%rax)
	.loc	20 973 17 is_stmt 1
	jmp	LBB121_13
LBB121_12:
	.loc	20 0 17 is_stmt 0
	movq	-312(%rbp), %rax
	movq	-280(%rbp), %rcx
Ltmp490:
	.loc	20 977 25 is_stmt 1
	addq	(%rcx), %rax
	movq	%rax, (%rcx)
	.loc	20 978 49
	movq	(%rcx), %rax
	movq	-232(%rbp), %rdx
	movq	-288(%rbp), %rsi
	.loc	20 978 25 is_stmt 0
	movq	%rsi, 8(%rdx)
	movq	%rax, 16(%rdx)
	movq	$1, (%rdx)
Ltmp491:
LBB121_13:
	.loc	20 967 9 is_stmt 1
	jmp	LBB121_17
LBB121_14:
	.loc	20 0 9 is_stmt 0
	movq	-256(%rbp), %rax
	movq	-264(%rbp), %rcx
Ltmp492:
	.loc	20 988 20 is_stmt 1
	cmpq	%rcx, %rax
	.loc	20 988 17 is_stmt 0
	je	LBB121_16
	.loc	20 0 17
	movq	-248(%rbp), %rax
	.loc	20 991 31 is_stmt 1
	movq	48(%rax), %rcx
	subq	$-1, %rcx
	sete	%dl
	sete	-105(%rbp)
	movq	-224(%rbp), %rsi
Ltmp493:
	.loc	20 993 21
	movq	(%rsi), %rdi
	movq	8(%rsi), %r8
	movq	%rdi, -48(%rbp)
	movq	%r8, -40(%rbp)
Ltmp494:
	.loc	3 2359 18
	movq	%rdi, -64(%rbp)
	movq	%r8, -56(%rbp)
	movq	-64(%rbp), %rdi
	movq	-56(%rbp), %r8
	movb	%dl, -313(%rbp)
	movq	%rdi, -328(%rbp)
	movq	%r8, -336(%rbp)
Ltmp495:
	.loc	20 993 21
	jmp	LBB121_18
Ltmp496:
LBB121_16:
	.loc	20 0 21 is_stmt 0
	movq	-232(%rbp), %rax
	.loc	20 989 28 is_stmt 1
	movq	$2, (%rax)
Ltmp497:
LBB121_17:
	.loc	20 0 28 is_stmt 0
	movq	-240(%rbp), %rax
	.loc	20 1009 6 is_stmt 1
	addq	$384, %rsp
	popq	%rbp
	retq
LBB121_18:
	.loc	20 0 6 is_stmt 0
	movq	-224(%rbp), %rax
Ltmp498:
	.loc	20 994 21 is_stmt 1
	movq	16(%rax), %rcx
	movq	24(%rax), %rdx
	movq	%rcx, -16(%rbp)
	movq	%rdx, -8(%rbp)
Ltmp499:
	.loc	3 2359 18
	movq	%rcx, -32(%rbp)
	movq	%rdx, -24(%rbp)
	movq	-32(%rbp), %r8
	movq	-24(%rbp), %r9
	movq	%r8, -344(%rbp)
	movq	%r9, -352(%rbp)
Ltmp500:
	.loc	3 0 18 is_stmt 0
	movb	-313(%rbp), %al
	.loc	20 992 23 is_stmt 1
	movzbl	%al, %ecx
	andl	$1, %ecx
	movq	%rsp, %rdx
	movl	%ecx, (%rdx)
	leaq	-184(%rbp), %rdi
	movq	-248(%rbp), %rsi
	movq	-328(%rbp), %rdx
	movq	-336(%rbp), %rcx
	movq	-344(%rbp), %r8
	movq	-352(%rbp), %r9
	callq	__ZN4core3str7pattern14TwoWaySearcher4next17h76dc69d125d4d87bE
	.loc	20 997 21
	cmpq	$1, -184(%rbp)
	je	LBB121_22
	.loc	20 1005 21
	movq	-184(%rbp), %rax
	movq	%rax, -152(%rbp)
	movq	-176(%rbp), %rax
	movq	%rax, -144(%rbp)
	movq	-168(%rbp), %rax
	movq	%rax, -136(%rbp)
Ltmp501:
	.loc	20 1005 34 is_stmt 0
	movq	-152(%rbp), %rax
	movq	-232(%rbp), %rcx
	movq	%rax, (%rcx)
	movq	-144(%rbp), %rax
	movq	%rax, 8(%rcx)
	movq	-136(%rbp), %rax
	movq	%rax, 16(%rcx)
Ltmp502:
	.loc	20 992 17 is_stmt 1
	jmp	LBB121_28
LBB121_22:
	.loc	20 997 40
	movq	-176(%rbp), %rax
	movq	%rax, -104(%rbp)
	.loc	20 997 43 is_stmt 0
	movq	-168(%rbp), %rcx
	movq	%rcx, -160(%rbp)
	movq	%rax, -360(%rbp)
LBB121_23:
	.loc	20 0 43
	movq	-224(%rbp), %rax
Ltmp503:
	.loc	20 999 32 is_stmt 1
	movq	(%rax), %rdi
	movq	8(%rax), %rsi
	.loc	20 999 63 is_stmt 0
	movq	-160(%rbp), %rdx
	.loc	20 999 32
	callq	__ZN4core3str21_$LT$impl$u20$str$GT$16is_char_boundary17hd62397ef1e80adbcE
	movb	%al, -361(%rbp)
	.loc	20 0 32
	movb	-361(%rbp), %al
	.loc	20 999 31
	xorb	$-1, %al
	.loc	20 999 25
	testb	$1, %al
	jne	LBB121_26
	.loc	20 1002 54 is_stmt 1
	movq	-160(%rbp), %rdi
	movq	-248(%rbp), %rax
	.loc	20 1002 57 is_stmt 0
	movq	32(%rax), %rsi
	.loc	20 1002 45
	callq	__ZN4core3cmp3max17ha2acf5674cb28d4cE
	movq	%rax, -376(%rbp)
	jmp	LBB121_27
LBB121_26:
	.loc	20 1000 29 is_stmt 1
	movq	-160(%rbp), %rax
	addq	$1, %rax
	movq	%rax, -160(%rbp)
	.loc	20 999 25
	jmp	LBB121_23
LBB121_27:
	.loc	20 0 25 is_stmt 0
	movq	-248(%rbp), %rax
	movq	-376(%rbp), %rcx
	.loc	20 1002 25 is_stmt 1
	movq	%rcx, 32(%rax)
	.loc	20 1003 47
	movq	-160(%rbp), %rdx
	movq	-232(%rbp), %rsi
	movq	-360(%rbp), %rdi
	.loc	20 1003 25 is_stmt 0
	movq	%rdi, 8(%rsi)
	movq	%rdx, 16(%rsi)
	movq	$1, (%rsi)
Ltmp504:
LBB121_28:
	.loc	20 967 9 is_stmt 1
	jmp	LBB121_17
Ltmp505:
Lfunc_end121:
	.cfi_endproc

	.p2align	4, 0x90
__ZN84_$LT$core..str..pattern..MatchOnly$u20$as$u20$core..str..pattern..TwoWayStrategy$GT$16use_early_reject17h8dfa10c95e5f5214E:
Lfunc_begin122:
	.loc	20 1567 0
	.cfi_startproc
	pushq	%rbp
	.cfi_def_cfa_offset 16
	.cfi_offset %rbp, -16
	movq	%rsp, %rbp
	.cfi_def_cfa_register %rbp
	xorl	%eax, %eax
Ltmp506:
	.loc	20 1569 6 prologue_end
	andb	$1, %al
	movzbl	%al, %eax
	popq	%rbp
	retq
Ltmp507:
Lfunc_end122:
	.cfi_endproc

	.p2align	4, 0x90
__ZN84_$LT$core..str..pattern..MatchOnly$u20$as$u20$core..str..pattern..TwoWayStrategy$GT$8matching17h40bfcb969cef9749E:
Lfunc_begin123:
	.loc	20 1575 0
	.cfi_startproc
	pushq	%rbp
	.cfi_def_cfa_offset 16
	.cfi_offset %rbp, -16
	movq	%rsp, %rbp
	.cfi_def_cfa_register %rbp
	subq	$32, %rsp
	movq	%rdi, %rax
	movq	%rsi, -16(%rbp)
	movq	%rdx, -8(%rbp)
Ltmp508:
	.loc	20 1576 14 prologue_end
	movq	%rsi, -32(%rbp)
	movq	%rdx, -24(%rbp)
	.loc	20 1576 9 is_stmt 0
	movq	-32(%rbp), %rcx
	movq	-24(%rbp), %rdx
	movq	%rcx, 8(%rdi)
	movq	%rdx, 16(%rdi)
	movq	$1, (%rdi)
	.loc	20 1577 6 is_stmt 1
	addq	$32, %rsp
	popq	%rbp
	retq
Ltmp509:
Lfunc_end123:
	.cfi_endproc

	.p2align	4, 0x90
__ZN84_$LT$core..str..pattern..MatchOnly$u20$as$u20$core..str..pattern..TwoWayStrategy$GT$9rejecting17h36e0955fb075295aE:
Lfunc_begin124:
	.loc	20 1571 0
	.cfi_startproc
	pushq	%rbp
	.cfi_def_cfa_offset 16
	.cfi_offset %rbp, -16
	movq	%rsp, %rbp
	.cfi_def_cfa_register %rbp
	subq	$16, %rsp
	movq	%rdi, %rax
	movq	%rsi, -16(%rbp)
	movq	%rdx, -8(%rbp)
Ltmp510:
	.loc	20 1572 9 prologue_end
	movq	$0, (%rdi)
	.loc	20 1573 6
	addq	$16, %rsp
	popq	%rbp
	retq
Ltmp511:
Lfunc_end124:
	.cfi_endproc

	.p2align	4, 0x90
__ZN85_$LT$core..slice..Iter$LT$T$GT$$u20$as$u20$core..iter..traits..iterator..Iterator$GT$4next17hfaec1a08291206e1E:
Lfunc_begin125:
	.loc	27 3563 0
	.cfi_startproc
	pushq	%rbp
	.cfi_def_cfa_offset 16
	.cfi_offset %rbp, -16
	movq	%rsp, %rbp
	.cfi_def_cfa_register %rbp
	subq	$112, %rsp
	movq	%rdi, -56(%rbp)
Ltmp512:
	.loc	27 3566 29 prologue_end
	movq	(%rdi), %rax
	movq	%rdi, -72(%rbp)
	movq	%rax, %rdi
	callq	__ZN4core3ptr8non_null16NonNull$LT$T$GT$6as_ptr17hb2477d78ec6d1ec7E
	movq	%rax, -80(%rbp)
	.loc	27 0 29 is_stmt 0
	movq	-80(%rbp), %rdi
	.loc	27 3566 29
	callq	__ZN4core3ptr7mut_ptr31_$LT$impl$u20$$BP$mut$u20$T$GT$7is_null17h284ceb068cd846c4E
Ltmp513:
	.loc	12 310 5 is_stmt 1
	movq	$1, -48(%rbp)
	movq	-48(%rbp), %rax
	movq	%rax, -88(%rbp)
Ltmp514:
	.loc	12 0 5 is_stmt 0
	movq	-88(%rbp), %rax
	.loc	27 3567 24 is_stmt 1
	cmpq	$0, %rax
	.loc	27 3567 21 is_stmt 0
	jne	LBB125_6
	jmp	LBB125_9
LBB125_6:
	.loc	27 0 21
	movq	-72(%rbp), %rax
	.loc	27 3568 33 is_stmt 1
	movq	8(%rax), %rdi
	callq	__ZN4core3ptr9const_ptr33_$LT$impl$u20$$BP$const$u20$T$GT$7is_null17hd4d4d3a75fe335e5E
	.loc	27 3567 21
	jmp	LBB125_9
LBB125_9:
	.loc	27 0 21 is_stmt 0
	movq	-72(%rbp), %rax
	.loc	27 3440 9 is_stmt 1
	movq	(%rax), %rdi
	callq	__ZN4core3ptr8non_null16NonNull$LT$T$GT$6as_ptr17hb2477d78ec6d1ec7E
	movq	%rax, -96(%rbp)
	.loc	27 0 9 is_stmt 0
	movq	-96(%rbp), %rax
	movq	-72(%rbp), %rcx
	.loc	27 3440 9
	cmpq	8(%rcx), %rax
	.loc	27 3570 21 is_stmt 1
	je	LBB125_15
	.loc	27 0 21 is_stmt 0
	movq	-72(%rbp), %rax
	movq	%rax, -32(%rbp)
	movq	$1, -24(%rbp)
Ltmp515:
	.loc	12 310 5 is_stmt 1
	movq	$1, -8(%rbp)
Ltmp516:
	.loc	27 3515 20
	cmpq	$0, -8(%rbp)
	.loc	27 3515 17 is_stmt 0
	je	LBB125_13
	.loc	27 0 17
	movq	-72(%rbp), %rax
	.loc	27 3519 31 is_stmt 1
	movq	(%rax), %rdi
	callq	__ZN4core3ptr8non_null16NonNull$LT$T$GT$6as_ptr17hb2477d78ec6d1ec7E
	movq	%rax, -16(%rbp)
	movq	-72(%rbp), %rcx
Ltmp517:
	.loc	27 3522 64
	movq	(%rcx), %rdi
	movq	%rax, -104(%rbp)
	callq	__ZN4core3ptr8non_null16NonNull$LT$T$GT$6as_ptr17hb2477d78ec6d1ec7E
	movq	%rax, %rdi
	movl	$1, %esi
	callq	__ZN4core3ptr7mut_ptr31_$LT$impl$u20$$BP$mut$u20$T$GT$6offset17h4f2ab2f2078d470bE
	.loc	27 3522 41 is_stmt 0
	movq	%rax, %rdi
	callq	__ZN4core3ptr8non_null16NonNull$LT$T$GT$13new_unchecked17h4c5c135ae33634cdE
	movq	-72(%rbp), %rcx
	.loc	27 3522 21
	movq	%rax, (%rcx)
	movq	-104(%rbp), %rax
	.loc	27 3523 21 is_stmt 1
	movq	%rax, -40(%rbp)
Ltmp518:
	.loc	27 3515 17
	jmp	LBB125_14
LBB125_13:
	.loc	27 0 17 is_stmt 0
	movq	-72(%rbp), %rax
	.loc	27 3499 30 is_stmt 1
	movq	8(%rax), %rdi
	.loc	27 3499 29 is_stmt 0
	movq	$-1, %rsi
	callq	__ZN4core3ptr9const_ptr33_$LT$impl$u20$$BP$const$u20$T$GT$15wrapping_offset17h51c77858071358a2E
	movq	-72(%rbp), %rcx
	.loc	27 3499 17
	movq	%rax, 8(%rcx)
	.loc	27 3517 21 is_stmt 1
	movq	(%rcx), %rdi
	callq	__ZN4core3ptr8non_null16NonNull$LT$T$GT$6as_ptr17hb2477d78ec6d1ec7E
	movq	%rax, -40(%rbp)
LBB125_14:
	.loc	27 3525 14
	movq	-40(%rbp), %rax
	movq	%rax, -112(%rbp)
Ltmp519:
	.loc	27 3485 47
	jmp	LBB125_16
LBB125_15:
	.loc	27 3571 25
	movq	$0, -64(%rbp)
	.loc	27 3570 21
	jmp	LBB125_17
LBB125_16:
	.loc	27 0 21 is_stmt 0
	movq	-112(%rbp), %rax
	.loc	27 3573 25 is_stmt 1
	movq	%rax, -64(%rbp)
LBB125_17:
	.loc	27 3576 14
	movq	-64(%rbp), %rax
	addq	$112, %rsp
	popq	%rbp
	retq
Ltmp520:
Lfunc_end125:
	.cfi_endproc

	.p2align	4, 0x90
__ZN89_$LT$core..str..pattern..RejectAndMatch$u20$as$u20$core..str..pattern..TwoWayStrategy$GT$16use_early_reject17h0780e509952dfbe8E:
Lfunc_begin126:
	.loc	20 1587 0
	.cfi_startproc
	pushq	%rbp
	.cfi_def_cfa_offset 16
	.cfi_offset %rbp, -16
	movq	%rsp, %rbp
	.cfi_def_cfa_register %rbp
Ltmp521:
	.loc	20 1589 6 prologue_end
	movb	$1, %al
	andb	$1, %al
	movzbl	%al, %eax
	popq	%rbp
	retq
Ltmp522:
Lfunc_end126:
	.cfi_endproc

	.p2align	4, 0x90
__ZN89_$LT$core..str..pattern..RejectAndMatch$u20$as$u20$core..str..pattern..TwoWayStrategy$GT$8matching17hf0c5f11ce630b6b4E:
Lfunc_begin127:
	.loc	20 1595 0
	.cfi_startproc
	pushq	%rbp
	.cfi_def_cfa_offset 16
	.cfi_offset %rbp, -16
	movq	%rsp, %rbp
	.cfi_def_cfa_register %rbp
	subq	$16, %rsp
	movq	%rdi, %rax
	movq	%rsi, -16(%rbp)
	movq	%rdx, -8(%rbp)
Ltmp523:
	.loc	20 1596 9 prologue_end
	movq	%rsi, 8(%rdi)
	movq	%rdx, 16(%rdi)
	movq	$0, (%rdi)
	.loc	20 1597 6
	addq	$16, %rsp
	popq	%rbp
	retq
Ltmp524:
Lfunc_end127:
	.cfi_endproc

	.p2align	4, 0x90
__ZN89_$LT$core..str..pattern..RejectAndMatch$u20$as$u20$core..str..pattern..TwoWayStrategy$GT$9rejecting17h2823cb2fa9911a8fE:
Lfunc_begin128:
	.loc	20 1591 0
	.cfi_startproc
	pushq	%rbp
	.cfi_def_cfa_offset 16
	.cfi_offset %rbp, -16
	movq	%rsp, %rbp
	.cfi_def_cfa_register %rbp
	subq	$16, %rsp
	movq	%rdi, %rax
	movq	%rsi, -16(%rbp)
	movq	%rdx, -8(%rbp)
Ltmp525:
	.loc	20 1592 9 prologue_end
	movq	%rsi, 8(%rdi)
	movq	%rdx, 16(%rdi)
	movq	$1, (%rdi)
	.loc	20 1593 6
	addq	$16, %rsp
	popq	%rbp
	retq
Ltmp526:
Lfunc_end128:
	.cfi_endproc

	.p2align	4, 0x90
__ZN93_$LT$core..iter..adapters..Rev$LT$I$GT$$u20$as$u20$core..iter..traits..iterator..Iterator$GT$4next17h0e4615dd19c669cbE:
Lfunc_begin129:
	.loc	24 48 0
	.cfi_startproc
	pushq	%rbp
	.cfi_def_cfa_offset 16
	.cfi_offset %rbp, -16
	movq	%rsp, %rbp
	.cfi_def_cfa_register %rbp
	subq	$32, %rsp
	movq	%rdi, -8(%rbp)
Ltmp527:
	.loc	24 49 9 prologue_end
	callq	__ZN4core4iter5range116_$LT$impl$u20$core..iter..traits..double_ended..DoubleEndedIterator$u20$for$u20$core..ops..range..Range$LT$A$GT$$GT$9next_back17h92558403b6cb22ffE
	movq	%rax, -16(%rbp)
	movq	%rdx, -24(%rbp)
	.loc	24 0 9 is_stmt 0
	movq	-16(%rbp), %rax
	movq	-24(%rbp), %rdx
	.loc	24 50 6 is_stmt 1
	addq	$32, %rsp
	popq	%rbp
	retq
Ltmp528:
Lfunc_end129:
	.cfi_endproc

	.p2align	4, 0x90
__ZN18build_script_build4main17h8183db154e6dd665E:
Lfunc_begin130:
	.file	38 "/Users/yingyuhang/.cargo/registry/src/github.com-1ecc6299db9ec823/getrandom-0.1.14/build.rs"
	.loc	38 5 0
	.cfi_startproc
	.cfi_personality 155, _rust_eh_personality
	.cfi_lsda 16, Lexception10
	pushq	%rbp
	.cfi_def_cfa_offset 16
	.cfi_offset %rbp, -16
	movq	%rsp, %rbp
	.cfi_def_cfa_register %rbp
	subq	$352, %rsp
	leaq	l___unnamed_9(%rip), %rax
Ltmp558:
	.loc	38 6 18 prologue_end
	leaq	-240(%rbp), %rdi
	movq	%rax, %rsi
	movl	$6, %edx
	callq	__ZN3std3env3var17h7e7541ce4a2df7bfE
	jmp	LBB130_2
LBB130_1:
	.loc	38 5 1
	movq	-16(%rbp), %rdi
	callq	__Unwind_Resume
	ud2
LBB130_2:
	.loc	38 0 1 is_stmt 0
	leaq	l___unnamed_10(%rip), %rax
	leaq	l___unnamed_11(%rip), %rcx
	.loc	38 6 18 is_stmt 1
	leaq	-264(%rbp), %rdi
	leaq	-240(%rbp), %rsi
	movq	%rax, %rdx
	movl	$18, %eax
	movq	%rcx, -280(%rbp)
	movq	%rax, %rcx
	movq	-280(%rbp), %r8
	callq	__ZN4core6result19Result$LT$T$C$E$GT$6expect17h284a62adb5e0520cE
Ltmp529:
	.loc	38 0 18 is_stmt 0
	leaq	-264(%rbp), %rdi
Ltmp559:
	.loc	38 7 8 is_stmt 1
	callq	__ZN65_$LT$alloc..string..String$u20$as$u20$core..ops..deref..Deref$GT$5deref17h30398c2ec8aadbc7E
Ltmp530:
	movq	%rdx, -288(%rbp)
	movq	%rax, -296(%rbp)
	jmp	LBB130_4
LBB130_4:
Ltmp531:
	leaq	l___unnamed_12(%rip), %rdx
	movl	$13, %ecx
	movq	-296(%rbp), %rdi
	movq	-288(%rbp), %rsi
	callq	__ZN4core3str21_$LT$impl$u20$str$GT$8contains17h51082499ce6020daE
Ltmp532:
	movb	%al, -297(%rbp)
	jmp	LBB130_6
Ltmp560:
LBB130_5:
	.loc	38 19 1
	leaq	-264(%rbp), %rdi
	callq	__ZN4core3ptr13drop_in_place17h27de600514ef3df0E
	jmp	LBB130_1
LBB130_6:
	.loc	38 0 1 is_stmt 0
	movb	-297(%rbp), %al
Ltmp561:
	.loc	38 7 5 is_stmt 1
	testb	$1, %al
	jne	LBB130_8
	jmp	LBB130_7
LBB130_7:
Ltmp533:
	.loc	38 0 5 is_stmt 0
	leaq	-264(%rbp), %rdi
	.loc	38 12 15 is_stmt 1
	callq	__ZN65_$LT$alloc..string..String$u20$as$u20$core..ops..deref..Deref$GT$5deref17h30398c2ec8aadbc7E
Ltmp534:
	movq	%rdx, -312(%rbp)
	movq	%rax, -320(%rbp)
	jmp	LBB130_13
LBB130_8:
	.loc	38 9 18
	movq	l___unnamed_13(%rip), %rsi
	.loc	38 9 9 is_stmt 0
	movq	l___unnamed_14(%rip), %rcx
Ltmp549:
	xorl	%eax, %eax
	movl	%eax, %r8d
	leaq	-208(%rbp), %rdi
	movl	$1, %edx
	callq	__ZN4core3fmt9Arguments6new_v117hf3c38736f403eac8E
Ltmp550:
	jmp	LBB130_9
LBB130_9:
Ltmp551:
	.loc	38 0 9
	leaq	-208(%rbp), %rdi
	.loc	38 9 9
	callq	__ZN3std2io5stdio6_print17h84d1497a7551d848E
Ltmp552:
	jmp	LBB130_10
LBB130_10:
	.loc	38 11 18 is_stmt 1
	movq	l___unnamed_15(%rip), %rsi
	.loc	38 11 9 is_stmt 0
	movq	l___unnamed_14(%rip), %rcx
Ltmp553:
	xorl	%eax, %eax
	movl	%eax, %r8d
	leaq	-160(%rbp), %rdi
	movl	$1, %edx
	callq	__ZN4core3fmt9Arguments6new_v117hf3c38736f403eac8E
Ltmp554:
	jmp	LBB130_11
LBB130_11:
Ltmp555:
	.loc	38 0 9
	leaq	-160(%rbp), %rdi
	.loc	38 11 9
	callq	__ZN3std2io5stdio6_print17h84d1497a7551d848E
Ltmp556:
	jmp	LBB130_12
LBB130_12:
	.loc	38 7 5 is_stmt 1
	jmp	LBB130_27
LBB130_13:
Ltmp535:
	.loc	38 12 15
	leaq	l___unnamed_16(%rip), %rdx
	movl	$7, %ecx
	movq	-320(%rbp), %rdi
	movq	-312(%rbp), %rsi
	callq	__ZN4core3str21_$LT$impl$u20$str$GT$8contains17h51082499ce6020daE
Ltmp536:
	movb	%al, -321(%rbp)
	jmp	LBB130_14
LBB130_14:
	.loc	38 0 15 is_stmt 0
	movb	-321(%rbp), %al
	.loc	38 12 12
	testb	$1, %al
	jne	LBB130_16
	jmp	LBB130_15
LBB130_15:
Ltmp537:
	.loc	38 0 12
	leaq	-264(%rbp), %rdi
	.loc	38 15 15 is_stmt 1
	callq	__ZN65_$LT$alloc..string..String$u20$as$u20$core..ops..deref..Deref$GT$5deref17h30398c2ec8aadbc7E
Ltmp538:
	movq	%rdx, -336(%rbp)
	movq	%rax, -344(%rbp)
	jmp	LBB130_19
LBB130_16:
	.loc	38 14 18
	movq	l___unnamed_17(%rip), %rsi
	.loc	38 14 9 is_stmt 0
	movq	l___unnamed_14(%rip), %rcx
Ltmp545:
	xorl	%eax, %eax
	movl	%eax, %r8d
	leaq	-112(%rbp), %rdi
	movl	$1, %edx
	callq	__ZN4core3fmt9Arguments6new_v117hf3c38736f403eac8E
Ltmp546:
	jmp	LBB130_17
LBB130_17:
Ltmp547:
	.loc	38 0 9
	leaq	-112(%rbp), %rdi
	.loc	38 14 9
	callq	__ZN3std2io5stdio6_print17h84d1497a7551d848E
Ltmp548:
	jmp	LBB130_18
LBB130_18:
	.loc	38 12 12 is_stmt 1
	jmp	LBB130_26
LBB130_19:
Ltmp539:
	.loc	38 15 15
	leaq	l___unnamed_18(%rip), %rdx
	movl	$9, %ecx
	movq	-344(%rbp), %rdi
	movq	-336(%rbp), %rsi
	callq	__ZN4core3str21_$LT$impl$u20$str$GT$8contains17h51082499ce6020daE
Ltmp540:
	movb	%al, -345(%rbp)
	jmp	LBB130_20
LBB130_20:
	.loc	38 0 15 is_stmt 0
	movb	-345(%rbp), %al
	.loc	38 15 12
	testb	$1, %al
	jne	LBB130_22
	jmp	LBB130_21
LBB130_21:
	jmp	LBB130_25
LBB130_22:
	.loc	38 17 18 is_stmt 1
	movq	l___unnamed_19(%rip), %rsi
	.loc	38 17 9 is_stmt 0
	movq	l___unnamed_14(%rip), %rcx
Ltmp541:
	xorl	%eax, %eax
	movl	%eax, %r8d
	leaq	-64(%rbp), %rdi
	movl	$1, %edx
	callq	__ZN4core3fmt9Arguments6new_v117hf3c38736f403eac8E
Ltmp542:
	jmp	LBB130_23
LBB130_23:
Ltmp543:
	.loc	38 0 9
	leaq	-64(%rbp), %rdi
	.loc	38 17 9
	callq	__ZN3std2io5stdio6_print17h84d1497a7551d848E
Ltmp544:
	jmp	LBB130_24
LBB130_24:
	.loc	38 15 12 is_stmt 1
	jmp	LBB130_25
LBB130_25:
	.loc	38 12 12
	jmp	LBB130_26
LBB130_26:
	.loc	38 7 5
	jmp	LBB130_27
Ltmp562:
LBB130_27:
	.loc	38 19 1
	leaq	-264(%rbp), %rdi
	callq	__ZN4core3ptr13drop_in_place17h27de600514ef3df0E
	.loc	38 19 2 is_stmt 0
	addq	$352, %rsp
	popq	%rbp
	retq
Ltmp563:
LBB130_29:
Ltmp557:
	.loc	38 0 2
	movq	%rax, -16(%rbp)
	movl	%edx, -8(%rbp)
	jmp	LBB130_5
Lfunc_end130:
	.cfi_endproc
	.section	__TEXT,__gcc_except_tab
	.p2align	2
GCC_except_table130:
Lexception10:
	.byte	255
	.byte	255
	.byte	1
	.uleb128 Lcst_end10-Lcst_begin10
Lcst_begin10:
	.uleb128 Lfunc_begin130-Lfunc_begin130
	.uleb128 Ltmp529-Lfunc_begin130
	.byte	0
	.byte	0
	.uleb128 Ltmp529-Lfunc_begin130
	.uleb128 Ltmp532-Ltmp529
	.uleb128 Ltmp557-Lfunc_begin130
	.byte	0
	.uleb128 Ltmp532-Lfunc_begin130
	.uleb128 Ltmp533-Ltmp532
	.byte	0
	.byte	0
	.uleb128 Ltmp533-Lfunc_begin130
	.uleb128 Ltmp544-Ltmp533
	.uleb128 Ltmp557-Lfunc_begin130
	.byte	0
	.uleb128 Ltmp544-Lfunc_begin130
	.uleb128 Lfunc_end130-Ltmp544
	.byte	0
	.byte	0
Lcst_end10:
	.p2align	2

	.section	__TEXT,__text,regular,pure_instructions
	.globl	_main
	.p2align	4, 0x90
_main:
Lfunc_begin131:
	.cfi_startproc
	pushq	%rbp
	.cfi_def_cfa_offset 16
	.cfi_offset %rbp, -16
	movq	%rsp, %rbp
	.cfi_def_cfa_register %rbp
	subq	$16, %rsp
	movslq	%edi, %rax
	leaq	__ZN18build_script_build4main17h8183db154e6dd665E(%rip), %rdi
	movq	%rsi, -8(%rbp)
	movq	%rax, %rsi
	movq	-8(%rbp), %rdx
	callq	__ZN3std2rt10lang_start17h31b04acb988da7b5E
	addq	$16, %rsp
	popq	%rbp
	retq
Lfunc_end131:
	.cfi_endproc

	.section	__DATA,__const
	.p2align	3
l___unnamed_1:
	.quad	__ZN4core3ptr13drop_in_place17h2af6521252462ebaE
	.quad	8
	.quad	8
	.quad	__ZN3std2rt10lang_start28_$u7b$$u7b$closure$u7d$$u7d$17h0a80c16f09f8c0c6E
	.quad	__ZN3std2rt10lang_start28_$u7b$$u7b$closure$u7d$$u7d$17h0a80c16f09f8c0c6E
	.quad	__ZN4core3ops8function6FnOnce40call_once$u7b$$u7b$vtable.shim$u7d$$u7d$17h33f5cab140fbc8cfE

	.section	__TEXT,__const
l___unnamed_20:
	.ascii	"/rustc/6c8927b0cf80ceee19386026cf9d7fd4fd9d486f/src/libcore/str/mod.rs"

	.section	__DATA,__const
	.p2align	3
l___unnamed_3:
	.quad	l___unnamed_20
	.asciz	"F\000\000\000\000\000\000\000\027\b\000\000/\000\000"

	.section	__TEXT,__const
l___unnamed_21:
	.ascii	"/rustc/6c8927b0cf80ceee19386026cf9d7fd4fd9d486f/src/libcore/str/pattern.rs"

	.section	__DATA,__const
	.p2align	3
l___unnamed_4:
	.quad	l___unnamed_21
	.asciz	"J\000\000\000\000\000\000\0004\005\000\000\024\000\000"

	.p2align	3
l___unnamed_5:
	.quad	l___unnamed_21
	.asciz	"J\000\000\000\000\000\000\0004\005\000\000!\000\000"

	.p2align	3
l___unnamed_6:
	.quad	l___unnamed_21
	.asciz	"J\000\000\000\000\000\000\000@\005\000\000\024\000\000"

	.p2align	3
l___unnamed_7:
	.quad	l___unnamed_21
	.asciz	"J\000\000\000\000\000\000\000@\005\000\000!\000\000"

	.p2align	3
l___unnamed_2:
	.quad	__ZN4core3ptr13drop_in_place17hf2f249d0f3e85b7bE
	.quad	24
	.quad	8
	.quad	__ZN55_$LT$std..env..VarError$u20$as$u20$core..fmt..Debug$GT$3fmt17hd989a661295131d7E

	.p2align	3
l___unnamed_8:
	.quad	l___unnamed_21
	.asciz	"J\000\000\000\000\000\000\000\315\003\000\000\027\000\000"

	.section	__TEXT,__const
l___unnamed_9:
	.ascii	"TARGET"

l___unnamed_10:
	.ascii	"TARGET was not set"

l___unnamed_22:
	.ascii	"/Users/yingyuhang/.cargo/registry/src/github.com-1ecc6299db9ec823/getrandom-0.1.14/build.rs"

	.section	__DATA,__const
	.p2align	3
l___unnamed_11:
	.quad	l___unnamed_22
	.asciz	"[\000\000\000\000\000\000\000\006\000\000\000%\000\000"

	.section	__TEXT,__const
l___unnamed_12:
	.ascii	"-uwp-windows-"

l___unnamed_23:
	.ascii	"cargo:rustc-link-lib=bcrypt\n"

	.section	__DATA,__const
	.p2align	3
l___unnamed_24:
	.quad	l___unnamed_23
	.asciz	"\034\000\000\000\000\000\000"

	.p2align	3
l___unnamed_13:
	.quad	l___unnamed_24

	.section	__TEXT,__const
	.p2align	3
l___unnamed_25:
	.byte	0

	.section	__DATA,__const
	.p2align	3
l___unnamed_14:
	.quad	l___unnamed_25

	.section	__TEXT,__const
l___unnamed_26:
	.ascii	"cargo:rustc-cfg=getrandom_uwp\n"

	.section	__DATA,__const
	.p2align	3
l___unnamed_27:
	.quad	l___unnamed_26
	.asciz	"\036\000\000\000\000\000\000"

	.p2align	3
l___unnamed_15:
	.quad	l___unnamed_27

	.section	__TEXT,__const
l___unnamed_16:
	.ascii	"windows"

l___unnamed_28:
	.ascii	"cargo:rustc-link-lib=advapi32\n"

	.section	__DATA,__const
	.p2align	3
l___unnamed_29:
	.quad	l___unnamed_28
	.asciz	"\036\000\000\000\000\000\000"

	.p2align	3
l___unnamed_17:
	.quad	l___unnamed_29

	.section	__TEXT,__const
l___unnamed_18:
	.ascii	"apple-ios"

l___unnamed_30:
	.ascii	"cargo:rustc-link-lib=framework=Security\n"

	.section	__DATA,__const
	.p2align	3
l___unnamed_31:
	.quad	l___unnamed_30
	.asciz	"(\000\000\000\000\000\000"

	.p2align	3
l___unnamed_19:
	.quad	l___unnamed_31

	.section	__DATA,__const
Lsec_end0:
	.section	__TEXT,__text,regular,pure_instructions
Lsec_end1: