	.section	__TEXT,__text,regular,pure_instructions
	.macosx_version_min 10, 7
	.private_extern	__ZN3std2rt10lang_start17h781ba2bc6cc112e5E
	.globl	__ZN3std2rt10lang_start17h781ba2bc6cc112e5E
	.p2align	4, 0x90
__ZN3std2rt10lang_start17h781ba2bc6cc112e5E:
Lfunc_begin0:
	.file	1 "/rustc/a74d1862d4d87a56244958416fd05976c58ca1a8/src/libstd/rt.rs"
	.loc	1 62 0
	.cfi_startproc
	pushq	%rbp
	.cfi_def_cfa_offset 16
	.cfi_offset %rbp, -16
	movq	%rsp, %rbp
	.cfi_def_cfa_register %rbp
	subq	$16, %rsp
	movq	%rdx, %rcx
Ltmp0:
	movq	%rsi, %rdx
Ltmp1:
	.loc	1 67 26 prologue_end
	movq	%rdi, -8(%rbp)
	.loc	1 67 5 is_stmt 0
	leaq	l___unnamed_1(%rip), %rsi
	leaq	-8(%rbp), %rdi
Ltmp2:
	callq	__ZN3std2rt19lang_start_internal17hebefdaa8fd585aefE
Ltmp3:
	.loc	1 68 2 is_stmt 1
	addq	$16, %rsp
	popq	%rbp
	retq
Ltmp4:
Lfunc_end0:
	.cfi_endproc

	.p2align	4, 0x90
__ZN3std2rt10lang_start28_$u7b$$u7b$closure$u7d$$u7d$17h23fb21965aa3823cE:
Lfunc_begin1:
	.loc	1 67 0
	.cfi_startproc
	pushq	%rbp
	.cfi_def_cfa_offset 16
	.cfi_offset %rbp, -16
	movq	%rsp, %rbp
	.cfi_def_cfa_register %rbp
Ltmp5:
	.loc	1 67 34 prologue_end
	callq	*(%rdi)
Ltmp6:
	.loc	1 67 49 is_stmt 0
	xorl	%eax, %eax
	popq	%rbp
	retq
Ltmp7:
Lfunc_end1:
	.cfi_endproc

	.p2align	4, 0x90
__ZN4core3ops8function6FnOnce40call_once$u7b$$u7b$vtable.shim$u7d$$u7d$17h88fc7058e13c910bE:
Lfunc_begin2:
	.file	2 "/rustc/a74d1862d4d87a56244958416fd05976c58ca1a8/src/libcore/ops/function.rs"
	.loc	2 232 0 is_stmt 1
	.cfi_startproc
	pushq	%rbp
	.cfi_def_cfa_offset 16
	.cfi_offset %rbp, -16
	movq	%rsp, %rbp
	.cfi_def_cfa_register %rbp
Ltmp8:
	.loc	1 67 34 prologue_end
	callq	*(%rdi)
Ltmp9:
	.loc	2 232 5
	xorl	%eax, %eax
	popq	%rbp
	retq
Ltmp10:
Lfunc_end2:
	.cfi_endproc

	.p2align	4, 0x90
__ZN4core3ptr13drop_in_place17h263de90e3db38813E:
Lfunc_begin3:
	.file	3 "/rustc/a74d1862d4d87a56244958416fd05976c58ca1a8/src/libcore/ptr/mod.rs"
	.loc	3 178 0
	.cfi_startproc
	pushq	%rbp
	.cfi_def_cfa_offset 16
	.cfi_offset %rbp, -16
	movq	%rsp, %rbp
	.cfi_def_cfa_register %rbp
Ltmp11:
	.loc	3 178 1 prologue_end
	popq	%rbp
	retq
Ltmp12:
Lfunc_end3:
	.cfi_endproc

	.p2align	4, 0x90
__ZN4core3ptr13drop_in_place17h9f226bd0ee1e92e5E:
Lfunc_begin4:
	.loc	3 178 0
	.cfi_startproc
	pushq	%rbp
	.cfi_def_cfa_offset 16
	.cfi_offset %rbp, -16
	movq	%rsp, %rbp
	.cfi_def_cfa_register %rbp
	pushq	%r15
	pushq	%r14
	pushq	%rbx
	pushq	%rax
	.cfi_offset %rbx, -40
	.cfi_offset %r14, -32
	.cfi_offset %r15, -24
	movq	%rdi, %r14
Ltmp13:
	.loc	3 178 1 prologue_end
	movq	(%rdi), %rdi
Ltmp14:
	.file	4 "/rustc/a74d1862d4d87a56244958416fd05976c58ca1a8/src/liballoc/raw_vec.rs"
	.loc	4 532 16
	testq	%rdi, %rdi
Ltmp15:
	.loc	4 200 9
	je	LBB4_3
Ltmp16:
	.loc	3 0 0 is_stmt 0
	movq	8(%r14), %rsi
Ltmp17:
	.loc	4 200 9
	testq	%rsi, %rsi
	je	LBB4_3
Ltmp18:
	.file	5 "/rustc/a74d1862d4d87a56244958416fd05976c58ca1a8/src/liballoc/alloc.rs"
	.loc	5 102 5 is_stmt 1
	movl	$1, %edx
	callq	___rust_dealloc
Ltmp19:
LBB4_3:
	.loc	3 178 1
	movq	24(%r14), %rdi
Ltmp20:
	.loc	4 532 16
	testq	%rdi, %rdi
Ltmp21:
	.loc	4 200 9
	je	LBB4_6
Ltmp22:
	.loc	3 0 0 is_stmt 0
	movq	32(%r14), %rsi
Ltmp23:
	.loc	4 200 9
	testq	%rsi, %rsi
	je	LBB4_6
Ltmp24:
	.loc	5 102 5 is_stmt 1
	movl	$1, %edx
	callq	___rust_dealloc
Ltmp25:
LBB4_6:
	.loc	3 178 1
	movq	72(%r14), %rdi
Ltmp26:
	testq	%rdi, %rdi
	je	LBB4_7
Ltmp27:
	.loc	3 178 1 is_stmt 0
	movq	80(%r14), %rsi
Ltmp28:
	.loc	4 200 40 is_stmt 1
	testq	%rsi, %rsi
	.loc	4 200 9 is_stmt 0
	je	LBB4_7
Ltmp29:
	.loc	5 102 5 is_stmt 1
	movl	$1, %edx
	callq	___rust_dealloc
Ltmp30:
LBB4_7:
	.loc	3 178 1
	movq	96(%r14), %rbx
	testq	%rbx, %rbx
	je	LBB4_18
Ltmp31:
	.file	6 "/rustc/a74d1862d4d87a56244958416fd05976c58ca1a8/src/liballoc/vec.rs"
	.loc	6 2384 81
	movq	112(%r14), %rax
Ltmp32:
	.loc	3 178 1
	testq	%rax, %rax
	je	LBB4_15
Ltmp33:
	leaq	(%rax,%rax,2), %rax
Ltmp34:
	leaq	(%rbx,%rax,8), %r15
Ltmp35:
	.loc	3 178 1 is_stmt 0
	movq	(%rbx), %rdi
Ltmp36:
	.loc	4 532 16 is_stmt 1
	testq	%rdi, %rdi
Ltmp37:
	.loc	4 200 9
	jne	LBB4_11
Ltmp38:
	.p2align	4, 0x90
LBB4_13:
	.loc	3 178 1
	addq	$24, %rbx
Ltmp39:
	cmpq	%r15, %rbx
	je	LBB4_14
Ltmp40:
LBB4_10:
	.loc	3 178 1 is_stmt 0
	movq	(%rbx), %rdi
Ltmp41:
	.loc	4 532 16 is_stmt 1
	testq	%rdi, %rdi
Ltmp42:
	.loc	4 200 9
	je	LBB4_13
Ltmp43:
LBB4_11:
	.loc	3 0 0 is_stmt 0
	movq	8(%rbx), %rsi
Ltmp44:
	.loc	4 200 9
	testq	%rsi, %rsi
	je	LBB4_13
Ltmp45:
	.loc	5 102 5 is_stmt 1
	movl	$1, %edx
	callq	___rust_dealloc
Ltmp46:
	.loc	3 178 1
	addq	$24, %rbx
Ltmp47:
	cmpq	%r15, %rbx
	jne	LBB4_10
Ltmp48:
LBB4_14:
	.loc	3 178 1 is_stmt 0
	movq	96(%r14), %rbx
Ltmp49:
LBB4_15:
	movq	104(%r14), %rax
Ltmp50:
	.loc	4 200 40 is_stmt 1
	testq	%rax, %rax
	.loc	4 200 9 is_stmt 0
	je	LBB4_18
Ltmp51:
	.loc	4 532 16 is_stmt 1
	testq	%rbx, %rbx
Ltmp52:
	je	LBB4_18
Ltmp53:
	.loc	4 0 0 is_stmt 0
	shlq	$3, %rax
	leaq	(%rax,%rax,2), %rsi
Ltmp54:
	.loc	4 532 16
	testq	%rsi, %rsi
	je	LBB4_18
Ltmp55:
	.loc	5 102 5 is_stmt 1
	movl	$8, %edx
	movq	%rbx, %rdi
	addq	$8, %rsp
	popq	%rbx
Ltmp56:
	popq	%r14
Ltmp57:
	popq	%r15
	popq	%rbp
	jmp	___rust_dealloc
Ltmp58:
LBB4_18:
	.loc	3 178 1
	addq	$8, %rsp
	popq	%rbx
	popq	%r14
Ltmp59:
	popq	%r15
	popq	%rbp
	retq
Ltmp60:
Lfunc_end4:
	.cfi_endproc

	.p2align	4, 0x90
__ZN18build_script_build4main17ha84c8ac7139f4e2aE:
Lfunc_begin5:
	.file	7 "/Users/yingyuhang/.cargo/registry/src/github.com-1ecc6299db9ec823/crossbeam-utils-0.7.2/build.rs"
	.loc	7 3 0
	.cfi_startproc
	.cfi_personality 155, _rust_eh_personality
	.cfi_lsda 16, Lexception0
	pushq	%rbp
	.cfi_def_cfa_offset 16
	.cfi_offset %rbp, -16
	movq	%rsp, %rbp
	.cfi_def_cfa_register %rbp
	pushq	%rbx
	subq	$136, %rsp
	.cfi_offset %rbx, -24
Ltmp76:
	leaq	-136(%rbp), %rbx
Ltmp77:
	.loc	7 4 15 prologue_end
	movq	%rbx, %rdi
	callq	__ZN7autocfg3new17h27aaef3f6341d34dE
Ltmp61:
Ltmp78:
	.loc	7 5 8
	movl	$1, %esi
	movl	$31, %edx
	movq	%rbx, %rdi
	callq	__ZN7autocfg7AutoCfg19probe_rustc_version17h9395d7565ddde6deE
Ltmp62:
Ltmp79:
	.loc	7 5 5 is_stmt 0
	testb	%al, %al
	je	LBB5_3
Ltmp80:
Ltmp63:
	.loc	7 6 9 is_stmt 1
	leaq	L___unnamed_2(%rip), %rdi
	movl	$16, %esi
	callq	__ZN7autocfg4emit17h9ba7e40c366cf9d5E
Ltmp64:
Ltmp81:
LBB5_3:
Ltmp65:
	.loc	7 9 5
	leaq	l___unnamed_3(%rip), %rsi
	leaq	l___unnamed_4(%rip), %rcx
	leaq	-136(%rbp), %rdi
	movl	$28, %edx
	movl	$13, %r8d
	callq	__ZN7autocfg7AutoCfg13emit_type_cfg17h1993ec44c9d66809E
Ltmp66:
Ltmp82:
Ltmp67:
	.loc	7 10 5
	leaq	l___unnamed_5(%rip), %rsi
	leaq	l___unnamed_6(%rip), %rcx
	leaq	-136(%rbp), %rdi
	movl	$29, %edx
	movl	$14, %r8d
	callq	__ZN7autocfg7AutoCfg13emit_type_cfg17h1993ec44c9d66809E
Ltmp68:
Ltmp83:
Ltmp69:
	.loc	7 11 5
	leaq	l___unnamed_7(%rip), %rsi
	leaq	l___unnamed_8(%rip), %rcx
	leaq	-136(%rbp), %rdi
	movl	$29, %edx
	movl	$14, %r8d
	callq	__ZN7autocfg7AutoCfg13emit_type_cfg17h1993ec44c9d66809E
Ltmp70:
Ltmp84:
Ltmp71:
	.loc	7 12 5
	leaq	l___unnamed_9(%rip), %rsi
	leaq	l___unnamed_10(%rip), %rcx
	leaq	-136(%rbp), %rdi
	movl	$29, %edx
	movl	$14, %r8d
	callq	__ZN7autocfg7AutoCfg13emit_type_cfg17h1993ec44c9d66809E
Ltmp72:
Ltmp85:
Ltmp73:
	.loc	7 13 5
	leaq	l___unnamed_11(%rip), %rsi
	leaq	l___unnamed_12(%rip), %rcx
	leaq	-136(%rbp), %rdi
	movl	$30, %edx
	movl	$15, %r8d
	callq	__ZN7autocfg7AutoCfg13emit_type_cfg17h1993ec44c9d66809E
Ltmp74:
Ltmp86:
	.loc	7 0 5 is_stmt 0
	leaq	-136(%rbp), %rdi
	.loc	7 14 1 is_stmt 1
	callq	__ZN4core3ptr13drop_in_place17h9f226bd0ee1e92e5E
	.loc	7 14 2 is_stmt 0
	addq	$136, %rsp
	popq	%rbx
	popq	%rbp
	retq
Ltmp87:
LBB5_9:
Ltmp75:
	.loc	7 0 2
	movq	%rax, %rbx
	leaq	-136(%rbp), %rdi
	.loc	7 14 1
	callq	__ZN4core3ptr13drop_in_place17h9f226bd0ee1e92e5E
	movq	%rbx, %rdi
	callq	__Unwind_Resume
	ud2
Ltmp88:
Lfunc_end5:
	.cfi_endproc
	.section	__TEXT,__gcc_except_tab
	.p2align	2
GCC_except_table5:
Lexception0:
	.byte	255
	.byte	255
	.byte	1
	.uleb128 Lcst_end0-Lcst_begin0
Lcst_begin0:
	.uleb128 Lfunc_begin5-Lfunc_begin5
	.uleb128 Ltmp61-Lfunc_begin5
	.byte	0
	.byte	0
	.uleb128 Ltmp61-Lfunc_begin5
	.uleb128 Ltmp74-Ltmp61
	.uleb128 Ltmp75-Lfunc_begin5
	.byte	0
	.uleb128 Ltmp74-Lfunc_begin5
	.uleb128 Lfunc_end5-Ltmp74
	.byte	0
	.byte	0
Lcst_end0:
	.p2align	2

	.section	__TEXT,__text,regular,pure_instructions
	.globl	_main
	.p2align	4, 0x90
_main:
Lfunc_begin6:
	.cfi_startproc
	pushq	%rbp
	.cfi_def_cfa_offset 16
	.cfi_offset %rbp, -16
	movq	%rsp, %rbp
	.cfi_def_cfa_register %rbp
	subq	$16, %rsp
	movq	%rsi, %rcx
	movslq	%edi, %rdx
	leaq	__ZN18build_script_build4main17ha84c8ac7139f4e2aE(%rip), %rax
	movq	%rax, -8(%rbp)
	leaq	l___unnamed_1(%rip), %rsi
	leaq	-8(%rbp), %rdi
	callq	__ZN3std2rt19lang_start_internal17hebefdaa8fd585aefE
	addq	$16, %rsp
	popq	%rbp
	retq
Lfunc_end6:
	.cfi_endproc

	.section	__DATA,__const
	.p2align	3
l___unnamed_1:
	.quad	__ZN4core3ptr13drop_in_place17h263de90e3db38813E
	.quad	8
	.quad	8
	.quad	__ZN3std2rt10lang_start28_$u7b$$u7b$closure$u7d$$u7d$17h23fb21965aa3823cE
	.quad	__ZN3std2rt10lang_start28_$u7b$$u7b$closure$u7d$$u7d$17h23fb21965aa3823cE
	.quad	__ZN4core3ops8function6FnOnce40call_once$u7b$$u7b$vtable.shim$u7d$$u7d$17h88fc7058e13c910bE

	.section	__TEXT,__literal16,16byte_literals
L___unnamed_2:
	.ascii	"has_min_const_fn"

	.section	__TEXT,__const
l___unnamed_3:
	.ascii	"core::sync::atomic::AtomicU8"

l___unnamed_4:
	.ascii	"has_atomic_u8"

l___unnamed_5:
	.ascii	"core::sync::atomic::AtomicU16"

l___unnamed_6:
	.ascii	"has_atomic_u16"

l___unnamed_7:
	.ascii	"core::sync::atomic::AtomicU32"

l___unnamed_8:
	.ascii	"has_atomic_u32"

l___unnamed_9:
	.ascii	"core::sync::atomic::AtomicU64"

l___unnamed_10:
	.ascii	"has_atomic_u64"

l___unnamed_11:
	.ascii	"core::sync::atomic::AtomicU128"

l___unnamed_12:
	.ascii	"has_atomic_u128"

	.section	__DATA,__const
Lsec_end0:
	.section	__TEXT,__text,regular,pure_instructions
Lsec_end1: