	.section	__TEXT,__text,regular,pure_instructions
	.macosx_version_min 10, 7
	.p2align	4, 0x90
__ZN112_$LT$alloc..collections..btree..map..IntoIter$LT$K$C$V$GT$$u20$as$u20$core..iter..traits..iterator..Iterator$GT$4next17hd5b3ecfe41dada9aE:
Lfunc_begin0:
	.file	1 "/rustc/a74d1862d4d87a56244958416fd05976c58ca1a8/src/liballoc/collections/btree/map.rs"
	.loc	1 1598 0
	.cfi_startproc
	pushq	%rbp
	.cfi_def_cfa_offset 16
	.cfi_offset %rbp, -16
	movq	%rsp, %rbp
	.cfi_def_cfa_register %rbp
	pushq	%r15
	pushq	%r14
	pushq	%r13
	pushq	%r12
	pushq	%rbx
	subq	$120, %rsp
	.cfi_offset %rbx, -56
	.cfi_offset %r12, -48
	.cfi_offset %r13, -40
	.cfi_offset %r14, -32
	.cfi_offset %r15, -24
	movq	%rdi, %r9
Ltmp0:
	.loc	1 1599 12 prologue_end
	movq	64(%rsi), %rax
	testq	%rax, %rax
	.loc	1 1599 9 is_stmt 0
	je	LBB0_21
Ltmp1:
	.loc	1 0 9
	movq	%rsi, %r12
Ltmp2:
	.loc	1 1602 13 is_stmt 1
	decq	%rax
	movq	%rax, 64(%rsi)
Ltmp3:
	.file	2 "/rustc/a74d1862d4d87a56244958416fd05976c58ca1a8/src/libcore/option.rs"
	.loc	2 291 13
	movq	8(%rsi), %rax
	testq	%rax, %rax
	cmoveq	%rax, %r12
Ltmp4:
	.loc	2 387 13
	je	LBB0_23
Ltmp5:
	.file	3 "/rustc/a74d1862d4d87a56244958416fd05976c58ca1a8/src/libcore/ptr/mod.rs"
	.loc	3 651 5
	movq	(%r12), %rax
Ltmp6:
	movq	8(%r12), %rdi
Ltmp7:
	movq	16(%r12), %r10
Ltmp8:
	movq	24(%r12), %r13
Ltmp9:
	.file	4 "/rustc/a74d1862d4d87a56244958416fd05976c58ca1a8/src/liballoc/collections/btree/node.rs"
	.loc	4 293 9
	movzwl	10(%rdi), %ecx
Ltmp10:
	.loc	4 814 12
	cmpq	%rcx, %r13
	.loc	4 814 9 is_stmt 0
	jae	LBB0_4
Ltmp11:
	.file	5 "/rustc/a74d1862d4d87a56244958416fd05976c58ca1a8/src/liballoc/collections/btree/navigate.rs"
	.loc	5 0 0
	movq	%rax, %rbx
Ltmp12:
	jmp	LBB0_10
Ltmp13:
LBB0_21:
	.loc	1 1600 13 is_stmt 1
	movq	$0, (%r9)
	jmp	LBB0_22
Ltmp14:
LBB0_4:
	.loc	1 0 13 is_stmt 0
	movq	%r10, -48(%rbp)
Ltmp15:
	movq	%r9, -56(%rbp)
	movl	$544, %r15d
Ltmp16:
	.loc	4 344 30 is_stmt 1
	movq	(%rdi), %r14
Ltmp17:
	.loc	4 345 16
	testq	%r14, %r14
	je	LBB0_6
Ltmp18:
	.p2align	4, 0x90
LBB0_7:
	.loc	4 348 29
	leaq	1(%rax), %rbx
Ltmp19:
	.loc	4 353 43
	movzwl	8(%rdi), %r13d
Ltmp20:
LBB0_8:
	.loc	4 397 16
	testq	%rax, %rax
	.loc	4 397 13 is_stmt 0
	movl	$640, %esi
	cmoveq	%r15, %rsi
Ltmp21:
	.file	6 "/rustc/a74d1862d4d87a56244958416fd05976c58ca1a8/src/liballoc/alloc.rs"
	.loc	6 102 5 is_stmt 1
	movl	$8, %edx
	callq	___rust_dealloc
Ltmp22:
	.loc	4 293 9
	movzwl	10(%r14), %ecx
	movq	%rbx, %rax
	movq	%r14, %rdi
Ltmp23:
	.loc	4 814 12
	cmpq	%rcx, %r13
	.loc	4 814 9 is_stmt 0
	jb	LBB0_9
Ltmp24:
	.loc	4 344 30 is_stmt 1
	movq	(%rdi), %r14
Ltmp25:
	.loc	4 345 16
	testq	%r14, %r14
	jne	LBB0_7
Ltmp26:
LBB0_6:
	.loc	4 0 16 is_stmt 0
	movq	%rax, %rbx
Ltmp27:
	xorl	%r14d, %r14d
Ltmp28:
	jmp	LBB0_8
Ltmp29:
LBB0_9:
	movq	%r14, %rdi
	movq	-56(%rbp), %r9
	movq	-48(%rbp), %r10
Ltmp30:
LBB0_10:
	.loc	4 975 13 is_stmt 1
	leaq	(%r13,%r13,2), %rax
Ltmp31:
	.loc	3 651 5
	movq	32(%rdi,%rax,8), %rcx
	movq	%rcx, -64(%rbp)
	movq	16(%rdi,%rax,8), %rcx
	movq	24(%rdi,%rax,8), %rdx
	movq	%rdx, -72(%rbp)
	movq	%rcx, -80(%rbp)
Ltmp32:
	.loc	3 651 5 is_stmt 0
	movq	296(%rdi,%rax,8), %rcx
	movq	%rcx, -88(%rbp)
	movq	280(%rdi,%rax,8), %rcx
	movq	288(%rdi,%rax,8), %rax
	movq	%rax, -96(%rbp)
	movq	%rcx, -104(%rbp)
Ltmp33:
	.loc	4 680 12 is_stmt 1
	testq	%rbx, %rbx
Ltmp34:
	.loc	5 223 13
	je	LBB0_11
Ltmp35:
	.loc	4 680 12
	movq	%rbx, %rax
Ltmp36:
	.loc	4 963 17
	movq	552(%rdi,%r13,8), %rdi
Ltmp37:
	.loc	4 680 12
	decq	%rax
Ltmp38:
	.loc	5 199 17
	je	LBB0_13
Ltmp39:
	addq	$-2, %rbx
Ltmp40:
	movq	%rax, %rcx
	andq	$7, %rcx
	je	LBB0_18
Ltmp41:
	.loc	5 0 17 is_stmt 0
	xorl	%edx, %edx
Ltmp42:
	.p2align	4, 0x90
LBB0_16:
	movq	544(%rdi), %rdi
Ltmp43:
	.loc	5 199 17
	incq	%rdx
	cmpq	%rdx, %rcx
	jne	LBB0_16
Ltmp44:
	subq	%rdx, %rax
Ltmp45:
LBB0_18:
	.loc	5 0 17
	xorl	%r13d, %r13d
Ltmp46:
	.loc	5 199 17
	cmpq	$7, %rbx
	jb	LBB0_20
Ltmp47:
	.p2align	4, 0x90
LBB0_19:
	.loc	5 0 0
	movq	544(%rdi), %rcx
Ltmp48:
	movq	544(%rcx), %rcx
Ltmp49:
	movq	544(%rcx), %rcx
Ltmp50:
	movq	544(%rcx), %rcx
Ltmp51:
	movq	544(%rcx), %rcx
Ltmp52:
	movq	544(%rcx), %rcx
Ltmp53:
	movq	544(%rcx), %rcx
Ltmp54:
	movq	544(%rcx), %rdi
Ltmp55:
	.loc	4 680 12 is_stmt 1
	addq	$-8, %rax
Ltmp56:
	.loc	5 199 17
	jne	LBB0_19
	jmp	LBB0_20
Ltmp57:
LBB0_11:
	.loc	5 0 17 is_stmt 0
	incq	%r13
Ltmp58:
	jmp	LBB0_20
Ltmp59:
LBB0_13:
	xorl	%r13d, %r13d
Ltmp60:
LBB0_20:
	.loc	5 166 36 is_stmt 1
	movq	-64(%rbp), %r8
	movq	%r8, -136(%rbp)
	movq	-80(%rbp), %rcx
	movq	-72(%rbp), %rdx
	movq	%rdx, -144(%rbp)
	movq	%rcx, -152(%rbp)
	.loc	5 166 35 is_stmt 0
	movq	-104(%rbp), %rsi
	movq	-96(%rbp), %rbx
	movq	%rsi, -128(%rbp)
	movq	%rbx, -120(%rbp)
	movq	-88(%rbp), %rax
	movq	%rax, -112(%rbp)
	.loc	5 166 13
	movq	%rax, 40(%r9)
	movq	%rbx, 32(%r9)
	movq	%rsi, 24(%r9)
	movq	%r8, 16(%r9)
	movq	%rdx, 8(%r9)
	movq	%rcx, (%r9)
Ltmp61:
	.loc	3 836 42 is_stmt 1
	movq	$0, (%r12)
	movq	%rdi, 8(%r12)
	movq	%r10, 16(%r12)
	movq	%r13, 24(%r12)
Ltmp62:
LBB0_22:
	.loc	1 1605 6
	addq	$120, %rsp
	popq	%rbx
	popq	%r12
	popq	%r13
	popq	%r14
	popq	%r15
	popq	%rbp
	retq
LBB0_23:
Ltmp63:
	.file	7 "/rustc/a74d1862d4d87a56244958416fd05976c58ca1a8/src/libcore/macros/mod.rs"
	.loc	7 10 9
	leaq	l___unnamed_4(%rip), %rdi
	leaq	l___unnamed_5(%rip), %rdx
	movl	$43, %esi
	callq	__ZN4core9panicking5panic17h736ee47a631475c0E
Ltmp64:
Lfunc_end0:
	.cfi_endproc
	.file	8 "/rustc/a74d1862d4d87a56244958416fd05976c58ca1a8/src/libcore/result.rs"

	.p2align	4, 0x90
__ZN36_$LT$T$u20$as$u20$core..any..Any$GT$7type_id17ha59333ca60bcdcd4E:
Lfunc_begin1:
	.file	9 "/rustc/a74d1862d4d87a56244958416fd05976c58ca1a8/src/libcore/any.rs"
	.loc	9 109 0
	.cfi_startproc
	pushq	%rbp
	.cfi_def_cfa_offset 16
	.cfi_offset %rbp, -16
	movq	%rsp, %rbp
	.cfi_def_cfa_register %rbp
	movabsq	$1229646359891580772, %rax
Ltmp65:
	.loc	9 111 6 prologue_end
	popq	%rbp
	retq
Ltmp66:
Lfunc_end1:
	.cfi_endproc

	.private_extern	__ZN3std2rt10lang_start17h21ce45c3a79ea8ebE
	.globl	__ZN3std2rt10lang_start17h21ce45c3a79ea8ebE
	.p2align	4, 0x90
__ZN3std2rt10lang_start17h21ce45c3a79ea8ebE:
Lfunc_begin2:
	.file	10 "/rustc/a74d1862d4d87a56244958416fd05976c58ca1a8/src/libstd/rt.rs"
	.loc	10 62 0
	.cfi_startproc
	pushq	%rbp
	.cfi_def_cfa_offset 16
	.cfi_offset %rbp, -16
	movq	%rsp, %rbp
	.cfi_def_cfa_register %rbp
	subq	$16, %rsp
	movq	%rdx, %rcx
Ltmp67:
	movq	%rsi, %rdx
Ltmp68:
	.loc	10 67 26 prologue_end
	movq	%rdi, -8(%rbp)
	.loc	10 67 5 is_stmt 0
	leaq	l___unnamed_1(%rip), %rsi
	leaq	-8(%rbp), %rdi
Ltmp69:
	callq	__ZN3std2rt19lang_start_internal17hebefdaa8fd585aefE
Ltmp70:
	.loc	10 68 2 is_stmt 1
	addq	$16, %rsp
	popq	%rbp
	retq
Ltmp71:
Lfunc_end2:
	.cfi_endproc

	.p2align	4, 0x90
__ZN3std2rt10lang_start28_$u7b$$u7b$closure$u7d$$u7d$17h7b28980c9cbbe685E:
Lfunc_begin3:
	.loc	10 67 0
	.cfi_startproc
	pushq	%rbp
	.cfi_def_cfa_offset 16
	.cfi_offset %rbp, -16
	movq	%rsp, %rbp
	.cfi_def_cfa_register %rbp
Ltmp72:
	.loc	10 67 34 prologue_end
	callq	*(%rdi)
Ltmp73:
	.loc	10 67 49 is_stmt 0
	xorl	%eax, %eax
	popq	%rbp
	retq
Ltmp74:
Lfunc_end3:
	.cfi_endproc

	.p2align	4, 0x90
__ZN3std9panicking11begin_panic17he6ad4b92376b2fa5E:
Lfunc_begin4:
	.file	11 "/rustc/a74d1862d4d87a56244958416fd05976c58ca1a8/src/libstd/panicking.rs"
	.loc	11 399 0 is_stmt 1
	.cfi_startproc
	pushq	%rbp
	.cfi_def_cfa_offset 16
	.cfi_offset %rbp, -16
	movq	%rsp, %rbp
	.cfi_def_cfa_register %rbp
	subq	$16, %rsp
Ltmp75:
	.loc	11 404 31 prologue_end
	leaq	l___unnamed_6(%rip), %rax
	movq	%rax, -16(%rbp)
	movq	$51, -8(%rbp)
	.loc	11 404 61 is_stmt 0
	leaq	l___unnamed_7(%rip), %rdi
	callq	__ZN4core5panic8Location6caller17hf55c9a52d6249cfcE
	.loc	11 404 5
	leaq	l___unnamed_2(%rip), %rsi
	leaq	-16(%rbp), %rdi
	xorl	%edx, %edx
	movq	%rax, %rcx
	callq	__ZN3std9panicking20rust_panic_with_hook17hf8b9378dd2e7986aE
Ltmp76:
Lfunc_end4:
	.cfi_endproc

	.p2align	4, 0x90
__ZN44_$LT$$RF$T$u20$as$u20$core..fmt..Display$GT$3fmt17h19fb445a040f1298E:
Lfunc_begin5:
	.file	12 "/rustc/a74d1862d4d87a56244958416fd05976c58ca1a8/src/libcore/fmt/mod.rs"
	.loc	12 1973 0 is_stmt 1
	.cfi_startproc
	pushq	%rbp
	.cfi_def_cfa_offset 16
	.cfi_offset %rbp, -16
	movq	%rsp, %rbp
	.cfi_def_cfa_register %rbp
	movq	%rsi, %rdx
Ltmp77:
	.loc	12 1973 71 prologue_end
	movq	(%rdi), %rax
	movq	8(%rdi), %rsi
	.loc	12 1973 62 is_stmt 0
	movq	%rax, %rdi
Ltmp78:
	popq	%rbp
	jmp	__ZN42_$LT$str$u20$as$u20$core..fmt..Display$GT$3fmt17hd4dee1c1c4ccf892E
Ltmp79:
Lfunc_end5:
	.cfi_endproc

	.p2align	4, 0x90
__ZN4core3ops8function6FnOnce40call_once$u7b$$u7b$vtable.shim$u7d$$u7d$17h391adb54085aca0eE:
Lfunc_begin6:
	.file	13 "/rustc/a74d1862d4d87a56244958416fd05976c58ca1a8/src/libcore/ops/function.rs"
	.loc	13 232 0 is_stmt 1
	.cfi_startproc
	pushq	%rbp
	.cfi_def_cfa_offset 16
	.cfi_offset %rbp, -16
	movq	%rsp, %rbp
	.cfi_def_cfa_register %rbp
Ltmp80:
	.loc	10 67 34 prologue_end
	callq	*(%rdi)
Ltmp81:
	.loc	13 232 5
	xorl	%eax, %eax
	popq	%rbp
	retq
Ltmp82:
Lfunc_end6:
	.cfi_endproc

	.p2align	4, 0x90
__ZN4core3ptr13drop_in_place17h232e100e201e800bE:
Lfunc_begin7:
	.loc	3 178 0
	.cfi_startproc
	pushq	%rbp
	.cfi_def_cfa_offset 16
	.cfi_offset %rbp, -16
	movq	%rsp, %rbp
	.cfi_def_cfa_register %rbp
Ltmp83:
	.file	14 "/rustc/a74d1862d4d87a56244958416fd05976c58ca1a8/src/liballoc/raw_vec.rs"
	.loc	14 200 40 prologue_end
	testq	%rsi, %rsi
	.loc	14 200 9 is_stmt 0
	je	LBB7_3
Ltmp84:
	.loc	14 532 16 is_stmt 1
	testq	%rdi, %rdi
Ltmp85:
	je	LBB7_3
Ltmp86:
	.loc	14 0 0 is_stmt 0
	shlq	$4, %rsi
Ltmp87:
	.loc	14 532 16
	je	LBB7_3
Ltmp88:
	.loc	6 102 5 is_stmt 1
	movl	$8, %edx
	popq	%rbp
	jmp	___rust_dealloc
Ltmp89:
LBB7_3:
	.loc	3 178 1
	popq	%rbp
	retq
Ltmp90:
Lfunc_end7:
	.cfi_endproc

	.p2align	4, 0x90
__ZN4core3ptr13drop_in_place17h29107596b921c161E:
Lfunc_begin8:
	.loc	3 178 0
	.cfi_startproc
	pushq	%rbp
	.cfi_def_cfa_offset 16
	.cfi_offset %rbp, -16
	movq	%rsp, %rbp
	.cfi_def_cfa_register %rbp
	pushq	%rbx
	pushq	%rax
	.cfi_offset %rbx, -24
	movq	%rdi, %rbx
Ltmp91:
	.loc	3 178 1 prologue_end
	movq	(%rdi), %rdi
Ltmp92:
	.loc	14 532 16
	testq	%rdi, %rdi
Ltmp93:
	.loc	14 200 9
	je	LBB8_3
Ltmp94:
	.loc	3 0 0 is_stmt 0
	movq	8(%rbx), %rsi
Ltmp95:
	.loc	14 200 9
	testq	%rsi, %rsi
	je	LBB8_3
Ltmp96:
	.loc	6 102 5 is_stmt 1
	movl	$1, %edx
	callq	___rust_dealloc
Ltmp97:
LBB8_3:
	.loc	3 178 1
	movq	24(%rbx), %rdi
Ltmp98:
	.loc	14 532 16
	testq	%rdi, %rdi
Ltmp99:
	.loc	14 200 9
	je	LBB8_5
Ltmp100:
	.loc	3 0 0 is_stmt 0
	movq	32(%rbx), %rsi
Ltmp101:
	.loc	14 200 9
	testq	%rsi, %rsi
	je	LBB8_5
Ltmp102:
	.loc	6 102 5 is_stmt 1
	movl	$1, %edx
	addq	$8, %rsp
	popq	%rbx
Ltmp103:
	popq	%rbp
	jmp	___rust_dealloc
Ltmp104:
LBB8_5:
	.loc	3 178 1
	addq	$8, %rsp
	popq	%rbx
Ltmp105:
	popq	%rbp
	retq
Ltmp106:
Lfunc_end8:
	.cfi_endproc

	.p2align	4, 0x90
__ZN4core3ptr13drop_in_place17h50ab6a7394a78639E:
Lfunc_begin9:
	.loc	3 178 0
	.cfi_startproc
	pushq	%rbp
	.cfi_def_cfa_offset 16
	.cfi_offset %rbp, -16
	movq	%rsp, %rbp
	.cfi_def_cfa_register %rbp
Ltmp107:
	.loc	3 178 1 prologue_end
	popq	%rbp
	retq
Ltmp108:
Lfunc_end9:
	.cfi_endproc

	.p2align	4, 0x90
__ZN4core3ptr13drop_in_place17h5bfe67b2903bc9f5E:
Lfunc_begin10:
	.loc	3 178 0
	.cfi_startproc
	pushq	%rbp
	.cfi_def_cfa_offset 16
	.cfi_offset %rbp, -16
	movq	%rsp, %rbp
	.cfi_def_cfa_register %rbp
Ltmp109:
	.loc	3 178 1 prologue_end
	cmpl	$3, (%rdi)
	jne	LBB10_1
Ltmp110:
	.loc	3 178 1 is_stmt 0
	addq	$4, %rdi
Ltmp111:
	.loc	3 178 1
	popq	%rbp
	jmp	__ZN70_$LT$std..sys..unix..fd..FileDesc$u20$as$u20$core..ops..drop..Drop$GT$4drop17hf5fce2bf4d9f8deaE
Ltmp112:
LBB10_1:
	.loc	3 178 1
	popq	%rbp
	retq
Ltmp113:
Lfunc_end10:
	.cfi_endproc

	.p2align	4, 0x90
__ZN4core3ptr13drop_in_place17h5ce6d74ef0a281c2E:
Lfunc_begin11:
	.loc	3 178 0 is_stmt 1
	.cfi_startproc
	pushq	%rbp
	.cfi_def_cfa_offset 16
	.cfi_offset %rbp, -16
	movq	%rsp, %rbp
	.cfi_def_cfa_register %rbp
	movq	%rdi, %rax
Ltmp114:
	.loc	3 178 1 prologue_end
	movq	(%rdi), %rdi
Ltmp115:
	.loc	14 532 16
	testq	%rdi, %rdi
Ltmp116:
	.loc	14 200 9
	je	LBB11_2
Ltmp117:
	.loc	3 0 0 is_stmt 0
	movq	8(%rax), %rsi
Ltmp118:
	.loc	14 200 9
	testq	%rsi, %rsi
	je	LBB11_2
Ltmp119:
	.loc	6 102 5 is_stmt 1
	movl	$1, %edx
	popq	%rbp
	jmp	___rust_dealloc
Ltmp120:
LBB11_2:
	.loc	3 178 1
	popq	%rbp
	retq
Ltmp121:
Lfunc_end11:
	.cfi_endproc

	.p2align	4, 0x90
__ZN4core3ptr13drop_in_place17h703bc1dfc5d4daddE:
Lfunc_begin12:
	.loc	3 178 0
	.cfi_startproc
	.cfi_personality 155, _rust_eh_personality
	.cfi_lsda 16, Lexception0
	pushq	%rbp
	.cfi_def_cfa_offset 16
	.cfi_offset %rbp, -16
	movq	%rsp, %rbp
	.cfi_def_cfa_register %rbp
	pushq	%r15
	pushq	%r14
	pushq	%r13
	pushq	%r12
	pushq	%rbx
	subq	$120, %rsp
	.cfi_offset %rbx, -56
	.cfi_offset %r12, -48
	.cfi_offset %r13, -40
	.cfi_offset %r14, -32
	.cfi_offset %r15, -24
	movq	%rdi, %r14
Ltmp139:
	.file	15 "/rustc/a74d1862d4d87a56244958416fd05976c58ca1a8/src/libstd/ffi/c_str.rs"
	.loc	15 645 14 prologue_end
	movq	(%rdi), %rax
Ltmp140:
	.loc	15 645 13 is_stmt 0
	movb	$0, (%rax)
Ltmp141:
	.loc	3 178 1 is_stmt 1
	movq	8(%rdi), %rsi
Ltmp142:
	.loc	6 185 12
	testq	%rsi, %rsi
	.loc	6 185 9 is_stmt 0
	je	LBB12_2
Ltmp143:
	.loc	3 178 1 is_stmt 1
	movq	(%r14), %rdi
Ltmp144:
	.loc	6 102 5
	movl	$1, %edx
	callq	___rust_dealloc
Ltmp145:
LBB12_2:
	.file	16 "/rustc/a74d1862d4d87a56244958416fd05976c58ca1a8/src/liballoc/vec.rs"
	.loc	16 850 19
	movq	16(%r14), %rbx
Ltmp146:
	.loc	16 2384 81
	movq	32(%r14), %r15
Ltmp147:
	.loc	3 178 1
	testq	%r15, %r15
	je	LBB12_8
Ltmp148:
	shlq	$4, %r15
Ltmp149:
	addq	%rbx, %r15
	jmp	LBB12_4
Ltmp150:
	.p2align	4, 0x90
LBB12_6:
	addq	$16, %rbx
Ltmp151:
	cmpq	%r15, %rbx
	je	LBB12_7
Ltmp152:
LBB12_4:
	.loc	15 645 14
	movq	(%rbx), %rax
Ltmp153:
	.loc	15 645 13 is_stmt 0
	movb	$0, (%rax)
Ltmp154:
	.loc	3 178 1 is_stmt 1
	movq	8(%rbx), %rsi
Ltmp155:
	.loc	6 185 12
	testq	%rsi, %rsi
	.loc	6 185 9 is_stmt 0
	je	LBB12_6
Ltmp156:
	.loc	3 178 1 is_stmt 1
	movq	(%rbx), %rdi
Ltmp157:
	.loc	6 102 5
	movl	$1, %edx
	callq	___rust_dealloc
Ltmp158:
	.loc	6 0 5 is_stmt 0
	jmp	LBB12_6
Ltmp159:
LBB12_7:
	.loc	3 178 1 is_stmt 1
	movq	16(%r14), %rbx
Ltmp160:
LBB12_8:
	movq	24(%r14), %rsi
Ltmp161:
	.loc	14 200 40
	testq	%rsi, %rsi
	.loc	14 200 9 is_stmt 0
	je	LBB12_12
Ltmp162:
	.loc	14 532 16 is_stmt 1
	testq	%rbx, %rbx
Ltmp163:
	je	LBB12_12
Ltmp164:
	.loc	14 0 0 is_stmt 0
	shlq	$4, %rsi
Ltmp165:
	.loc	14 532 16
	je	LBB12_12
Ltmp166:
	.loc	6 102 5 is_stmt 1
	movl	$8, %edx
	movq	%rbx, %rdi
	callq	___rust_dealloc
Ltmp167:
LBB12_12:
	.loc	3 178 1
	movq	48(%r14), %rsi
Ltmp168:
	.loc	14 200 40
	testq	%rsi, %rsi
	.loc	14 200 9 is_stmt 0
	je	LBB12_16
Ltmp169:
	.loc	3 0 0
	movq	40(%r14), %rdi
Ltmp170:
	.loc	14 532 16 is_stmt 1
	testq	%rdi, %rdi
Ltmp171:
	je	LBB12_16
Ltmp172:
	.loc	14 0 0 is_stmt 0
	shlq	$3, %rsi
Ltmp173:
	.loc	14 532 16
	testq	%rsi, %rsi
	je	LBB12_16
Ltmp174:
	.loc	6 102 5 is_stmt 1
	movl	$8, %edx
	callq	___rust_dealloc
Ltmp175:
LBB12_16:
	.loc	3 178 1
	movq	64(%r14), %rcx
Ltmp176:
	.loc	1 1544 16
	testq	%rcx, %rcx
	je	LBB12_17
Ltmp177:
	.loc	3 0 0 is_stmt 0
	movq	72(%r14), %rdi
Ltmp178:
	movq	80(%r14), %rax
Ltmp179:
	.loc	4 293 9 is_stmt 1
	movzwl	10(%rcx), %edx
Ltmp180:
	.loc	4 680 12
	testq	%rdi, %rdi
Ltmp181:
	.loc	1 2136 14
	je	LBB12_32
Ltmp182:
	.loc	1 0 14 is_stmt 0
	movb	$1, %bl
	movq	%rcx, %rsi
Ltmp183:
	.p2align	4, 0x90
LBB12_36:
	.loc	1 2139 33 is_stmt 1
	testb	$1, %bl
	je	LBB12_33
Ltmp184:
	.loc	4 680 12
	cmpq	$1, %rdi
	setne	%bl
Ltmp185:
	.loc	4 963 17
	movq	544(%rcx), %rcx
Ltmp186:
	.loc	4 963 17 is_stmt 0
	movq	544(%rsi,%rdx,8), %rsi
Ltmp187:
	.loc	4 293 9 is_stmt 1
	movzwl	10(%rsi), %edx
Ltmp188:
	.loc	4 680 12
	decq	%rdi
Ltmp189:
	.loc	1 2136 14
	jne	LBB12_36
	jmp	LBB12_38
Ltmp190:
LBB12_17:
	.loc	1 1549 13
	movq	$0, -104(%rbp)
	movq	$0, -72(%rbp)
	xorl	%eax, %eax
	jmp	LBB12_39
Ltmp191:
LBB12_32:
	.loc	1 0 13 is_stmt 0
	movq	%rcx, %rsi
Ltmp192:
LBB12_38:
	.loc	1 1547 13 is_stmt 1
	movq	$0, -112(%rbp)
	movq	%rcx, -104(%rbp)
	movq	$0, -96(%rbp)
	movq	$0, -88(%rbp)
	movq	$0, -80(%rbp)
	movq	%rsi, -72(%rbp)
	movq	$0, -64(%rbp)
	movq	%rdx, -56(%rbp)
Ltmp193:
LBB12_39:
	.loc	1 0 0 is_stmt 0
	movq	%rax, -48(%rbp)
Ltmp194:
Ltmp124:
	leaq	-160(%rbp), %rdi
	leaq	-112(%rbp), %rsi
Ltmp195:
	.loc	1 1575 32 is_stmt 1
	callq	__ZN112_$LT$alloc..collections..btree..map..IntoIter$LT$K$C$V$GT$$u20$as$u20$core..iter..traits..iterator..Iterator$GT$4next17hd5b3ecfe41dada9aE
Ltmp125:
Ltmp196:
	.loc	1 1575 19 is_stmt 0
	movq	-160(%rbp), %rdi
	testq	%rdi, %rdi
	je	LBB12_50
Ltmp197:
	.loc	1 0 19
	leaq	-160(%rbp), %r15
	leaq	-112(%rbp), %r12
Ltmp198:
	.p2align	4, 0x90
LBB12_42:
	.loc	1 1575 24
	movq	-136(%rbp), %rbx
Ltmp199:
	movq	-128(%rbp), %r13
Ltmp200:
	.loc	14 532 16 is_stmt 1
	testq	%rdi, %rdi
Ltmp201:
	.loc	14 200 9
	je	LBB12_45
Ltmp202:
	.loc	1 0 0 is_stmt 0
	movq	-152(%rbp), %rsi
Ltmp203:
	.loc	14 200 9
	testq	%rsi, %rsi
	je	LBB12_45
Ltmp204:
	.loc	6 102 5 is_stmt 1
	movl	$1, %edx
	callq	___rust_dealloc
Ltmp205:
LBB12_45:
	.loc	3 178 1
	testq	%rbx, %rbx
Ltmp206:
	je	LBB12_48
Ltmp207:
	testq	%r13, %r13
	je	LBB12_48
Ltmp208:
	.loc	6 102 5
	movl	$1, %edx
	movq	%rbx, %rdi
	movq	%r13, %rsi
	callq	___rust_dealloc
Ltmp209:
LBB12_48:
Ltmp127:
	.loc	1 1575 32
	movq	%r15, %rdi
	movq	%r12, %rsi
	callq	__ZN112_$LT$alloc..collections..btree..map..IntoIter$LT$K$C$V$GT$$u20$as$u20$core..iter..traits..iterator..Iterator$GT$4next17hd5b3ecfe41dada9aE
Ltmp128:
Ltmp210:
	.loc	1 1575 19 is_stmt 0
	movq	-160(%rbp), %rdi
	testq	%rdi, %rdi
	jne	LBB12_42
Ltmp211:
LBB12_50:
	.loc	3 651 5 is_stmt 1
	movq	-104(%rbp), %rdi
Ltmp212:
	.loc	1 1582 20
	testq	%rdi, %rdi
	je	LBB12_27
Ltmp213:
	.loc	3 651 5
	movq	-112(%rbp), %rax
Ltmp214:
	.loc	3 0 5 is_stmt 0
	movl	$544, %r15d
Ltmp215:
	.p2align	4, 0x90
LBB12_52:
	.loc	4 344 30 is_stmt 1
	movq	(%rdi), %r12
Ltmp216:
	.loc	4 345 16
	xorl	%ebx, %ebx
	testq	%r12, %r12
	setne	%bl
	addq	%rax, %rbx
Ltmp217:
	.loc	4 397 16
	testq	%rax, %rax
	.loc	4 397 13 is_stmt 0
	movl	$640, %esi
	cmoveq	%r15, %rsi
Ltmp218:
	.loc	6 102 5 is_stmt 1
	movl	$8, %edx
	callq	___rust_dealloc
Ltmp219:
	.loc	1 0 0 is_stmt 0
	movq	%rbx, %rax
	movq	%r12, %rdi
Ltmp220:
	.loc	4 345 16 is_stmt 1
	testq	%r12, %r12
Ltmp221:
	.loc	1 1586 27
	jne	LBB12_52
Ltmp222:
LBB12_27:
	.loc	3 178 1
	movq	96(%r14), %rax
Ltmp223:
	testq	%rax, %rax
	je	LBB12_30
Ltmp224:
	.loc	15 645 13
	movb	$0, (%rax)
Ltmp225:
	.loc	3 178 1
	movq	104(%r14), %rsi
Ltmp226:
	.loc	6 185 12
	testq	%rsi, %rsi
	.loc	6 185 9 is_stmt 0
	je	LBB12_30
Ltmp227:
	.loc	3 178 1 is_stmt 1
	movq	96(%r14), %rdi
Ltmp228:
	.loc	6 102 5
	movl	$1, %edx
	callq	___rust_dealloc
Ltmp229:
LBB12_30:
	.loc	3 178 1
	leaq	112(%r14), %rdi
Ltmp130:
	callq	__ZN4core3ptr13drop_in_place17h786af8adbbbb9219E
Ltmp131:
Ltmp230:
	.loc	3 178 1 is_stmt 0
	cmpl	$3, 152(%r14)
	jne	LBB12_23
Ltmp231:
	.loc	3 178 1
	leaq	156(%r14), %rdi
Ltmp232:
Ltmp133:
	.loc	3 178 1
	callq	__ZN70_$LT$std..sys..unix..fd..FileDesc$u20$as$u20$core..ops..drop..Drop$GT$4drop17hf5fce2bf4d9f8deaE
Ltmp233:
Ltmp134:
LBB12_23:
	.loc	3 178 1
	cmpl	$3, 160(%r14)
	jne	LBB12_21
Ltmp234:
	.loc	3 178 1
	leaq	164(%r14), %rdi
Ltmp235:
Ltmp136:
	.loc	3 178 1
	callq	__ZN70_$LT$std..sys..unix..fd..FileDesc$u20$as$u20$core..ops..drop..Drop$GT$4drop17hf5fce2bf4d9f8deaE
Ltmp236:
Ltmp137:
LBB12_21:
	.loc	3 178 1
	cmpl	$3, 168(%r14)
	jne	LBB12_59
Ltmp237:
	.loc	3 178 1
	addq	$172, %r14
Ltmp238:
	.loc	3 178 1
	movq	%r14, %rdi
	addq	$120, %rsp
	popq	%rbx
	popq	%r12
	popq	%r13
	popq	%r14
Ltmp239:
	popq	%r15
	popq	%rbp
	jmp	__ZN70_$LT$std..sys..unix..fd..FileDesc$u20$as$u20$core..ops..drop..Drop$GT$4drop17hf5fce2bf4d9f8deaE
Ltmp240:
LBB12_59:
	.loc	3 178 1
	addq	$120, %rsp
	popq	%rbx
	popq	%r12
	popq	%r13
	popq	%r14
Ltmp241:
	popq	%r15
	popq	%rbp
	retq
LBB12_33:
Ltmp242:
	.loc	7 16 38 is_stmt 1
	leaq	__ZN44_$LT$$RF$T$u20$as$u20$core..fmt..Display$GT$3fmt17h19fb445a040f1298E(%rip), %rax
Ltmp243:
	movq	%rax, %xmm0
	leaq	l___unnamed_8(%rip), %rax
	movq	%rax, %xmm1
	punpcklqdq	%xmm0, %xmm1
	movdqa	%xmm1, -160(%rbp)
Ltmp244:
	.loc	12 328 9
	leaq	l___unnamed_9(%rip), %rax
Ltmp245:
	movq	%rax, -112(%rbp)
	movq	$1, -104(%rbp)
	movq	$0, -96(%rbp)
	leaq	-160(%rbp), %rax
Ltmp246:
	movq	%rax, -80(%rbp)
	movq	$1, -72(%rbp)
Ltmp247:
Ltmp122:
	.loc	7 16 9
	leaq	l___unnamed_10(%rip), %rsi
	leaq	-112(%rbp), %rdi
Ltmp248:
	callq	__ZN4core9panicking9panic_fmt17hab6ef1464e9720aaE
Ltmp249:
Ltmp123:
	ud2
Ltmp250:
LBB12_58:
Ltmp138:
	.loc	7 0 9 is_stmt 0
	movq	%rax, %rbx
	jmp	LBB12_20
Ltmp251:
LBB12_18:
Ltmp135:
	movq	%rax, %rbx
	jmp	LBB12_19
Ltmp252:
LBB12_54:
Ltmp126:
	jmp	LBB12_55
Ltmp253:
LBB12_57:
Ltmp132:
	movq	%rax, %rbx
	jmp	LBB12_56
Ltmp254:
LBB12_53:
Ltmp129:
LBB12_55:
	movq	%rax, %rbx
	.loc	3 178 1 is_stmt 1
	leaq	96(%r14), %rdi
	callq	__ZN4core3ptr13drop_in_place17h8e520e4218783f94E
	leaq	112(%r14), %rdi
	callq	__ZN4core3ptr13drop_in_place17h786af8adbbbb9219E
Ltmp255:
LBB12_56:
	leaq	152(%r14), %rdi
	callq	__ZN4core3ptr13drop_in_place17h5bfe67b2903bc9f5E
Ltmp256:
LBB12_19:
	leaq	160(%r14), %rdi
	callq	__ZN4core3ptr13drop_in_place17h5bfe67b2903bc9f5E
Ltmp257:
LBB12_20:
	addq	$168, %r14
Ltmp258:
	movq	%r14, %rdi
	callq	__ZN4core3ptr13drop_in_place17h5bfe67b2903bc9f5E
	movq	%rbx, %rdi
	callq	__Unwind_Resume
	ud2
Ltmp259:
Lfunc_end12:
	.cfi_endproc
	.file	17 "/rustc/a74d1862d4d87a56244958416fd05976c58ca1a8/src/libcore/mem/mod.rs"
	.section	__TEXT,__gcc_except_tab
	.p2align	2
GCC_except_table12:
Lexception0:
	.byte	255
	.byte	255
	.byte	1
	.uleb128 Lcst_end0-Lcst_begin0
Lcst_begin0:
	.uleb128 Ltmp124-Lfunc_begin12
	.uleb128 Ltmp125-Ltmp124
	.uleb128 Ltmp126-Lfunc_begin12
	.byte	0
	.uleb128 Ltmp127-Lfunc_begin12
	.uleb128 Ltmp128-Ltmp127
	.uleb128 Ltmp129-Lfunc_begin12
	.byte	0
	.uleb128 Ltmp130-Lfunc_begin12
	.uleb128 Ltmp131-Ltmp130
	.uleb128 Ltmp132-Lfunc_begin12
	.byte	0
	.uleb128 Ltmp133-Lfunc_begin12
	.uleb128 Ltmp134-Ltmp133
	.uleb128 Ltmp135-Lfunc_begin12
	.byte	0
	.uleb128 Ltmp136-Lfunc_begin12
	.uleb128 Ltmp137-Ltmp136
	.uleb128 Ltmp138-Lfunc_begin12
	.byte	0
	.uleb128 Ltmp137-Lfunc_begin12
	.uleb128 Ltmp122-Ltmp137
	.byte	0
	.byte	0
	.uleb128 Ltmp122-Lfunc_begin12
	.uleb128 Ltmp123-Ltmp122
	.uleb128 Ltmp126-Lfunc_begin12
	.byte	0
	.uleb128 Ltmp123-Lfunc_begin12
	.uleb128 Lfunc_end12-Ltmp123
	.byte	0
	.byte	0
Lcst_end0:
	.p2align	2

	.section	__TEXT,__text,regular,pure_instructions
	.p2align	4, 0x90
__ZN4core3ptr13drop_in_place17h717b0a02b43c292eE:
Lfunc_begin13:
	.loc	3 178 0
	.cfi_startproc
	pushq	%rbp
	.cfi_def_cfa_offset 16
	.cfi_offset %rbp, -16
	movq	%rsp, %rbp
	.cfi_def_cfa_register %rbp
	pushq	%rbx
	pushq	%rax
	.cfi_offset %rbx, -24
	movq	%rdi, %rbx
Ltmp260:
	.loc	3 178 1 prologue_end
	movq	(%rdi), %rdi
Ltmp261:
	testq	%rdi, %rdi
	je	LBB13_5
Ltmp262:
	.loc	3 178 1 is_stmt 0
	movq	8(%rbx), %rsi
Ltmp263:
	.loc	14 200 40 is_stmt 1
	testq	%rsi, %rsi
	.loc	14 200 9 is_stmt 0
	je	LBB13_3
Ltmp264:
	.loc	6 102 5 is_stmt 1
	movl	$1, %edx
	callq	___rust_dealloc
Ltmp265:
LBB13_3:
	.loc	3 178 1
	movq	24(%rbx), %rdi
Ltmp266:
	.loc	14 532 16
	testq	%rdi, %rdi
Ltmp267:
	.loc	14 200 9
	je	LBB13_5
Ltmp268:
	.loc	3 0 0 is_stmt 0
	movq	32(%rbx), %rsi
Ltmp269:
	.loc	14 200 9
	testq	%rsi, %rsi
	je	LBB13_5
Ltmp270:
	.loc	6 102 5 is_stmt 1
	movl	$1, %edx
	addq	$8, %rsp
	popq	%rbx
Ltmp271:
	popq	%rbp
	jmp	___rust_dealloc
Ltmp272:
LBB13_5:
	.loc	3 178 1
	addq	$8, %rsp
	popq	%rbx
Ltmp273:
	popq	%rbp
	retq
Ltmp274:
Lfunc_end13:
	.cfi_endproc

	.p2align	4, 0x90
__ZN4core3ptr13drop_in_place17h786af8adbbbb9219E:
Lfunc_begin14:
	.loc	3 178 0
	.cfi_startproc
	.cfi_personality 155, _rust_eh_personality
	.cfi_lsda 16, Lexception1
	pushq	%rbp
	.cfi_def_cfa_offset 16
	.cfi_offset %rbp, -16
	movq	%rsp, %rbp
	.cfi_def_cfa_register %rbp
	pushq	%r15
	pushq	%r14
	pushq	%r13
	pushq	%r12
	pushq	%rbx
	pushq	%rax
	.cfi_offset %rbx, -56
	.cfi_offset %r12, -48
	.cfi_offset %r13, -40
	.cfi_offset %r14, -32
	.cfi_offset %r15, -24
	movq	%rdi, %r14
Ltmp281:
	.loc	16 850 19 prologue_end
	movq	(%rdi), %rbx
Ltmp282:
	.loc	16 2384 81
	movq	16(%rdi), %r12
Ltmp283:
	.loc	3 178 1
	testq	%r12, %r12
	je	LBB14_7
Ltmp284:
	.loc	3 0 0 is_stmt 0
	shlq	$4, %r12
Ltmp285:
	leaq	(%rbx,%r12), %r15
Ltmp286:
	.loc	3 178 1
	addq	$-16, %r12
	addq	$16, %rbx
Ltmp287:
	.loc	3 0 1
	jmp	LBB14_2
Ltmp288:
	.p2align	4, 0x90
LBB14_5:
	.loc	3 178 1
	addq	$-16, %r12
	addq	$16, %rbx
	addq	$16, %r13
	cmpq	%r15, %r13
	je	LBB14_6
Ltmp289:
LBB14_2:
	.loc	3 178 1
	movq	-16(%rbx), %rdi
	movq	-8(%rbx), %rax
Ltmp275:
	callq	*(%rax)
Ltmp276:
Ltmp290:
	leaq	-16(%rbx), %r13
	movq	8(%r13), %rax
Ltmp291:
	.loc	6 282 16 is_stmt 1
	movq	8(%rax), %rsi
Ltmp292:
	.loc	6 185 12
	testq	%rsi, %rsi
	.loc	6 185 9 is_stmt 0
	je	LBB14_5
Ltmp293:
	.loc	3 178 1 is_stmt 1
	movq	-16(%rbx), %rdi
Ltmp294:
	.loc	6 283 17
	movq	16(%rax), %rdx
Ltmp295:
	.loc	6 102 5
	callq	___rust_dealloc
Ltmp296:
	.loc	6 0 5 is_stmt 0
	jmp	LBB14_5
Ltmp297:
LBB14_6:
	.loc	3 178 1 is_stmt 1
	movq	(%r14), %rbx
Ltmp298:
LBB14_7:
	movq	8(%r14), %rsi
Ltmp299:
	.loc	14 200 40
	testq	%rsi, %rsi
	.loc	14 200 9 is_stmt 0
	je	LBB14_14
Ltmp300:
	.loc	14 532 16 is_stmt 1
	testq	%rbx, %rbx
Ltmp301:
	je	LBB14_14
Ltmp302:
	.loc	14 0 0 is_stmt 0
	shlq	$4, %rsi
Ltmp303:
	.loc	14 532 16
	je	LBB14_14
Ltmp304:
	.loc	6 102 5 is_stmt 1
	movl	$8, %edx
	movq	%rbx, %rdi
	addq	$8, %rsp
	popq	%rbx
Ltmp305:
	popq	%r12
	popq	%r13
	popq	%r14
Ltmp306:
	popq	%r15
	popq	%rbp
	jmp	___rust_dealloc
Ltmp307:
LBB14_14:
	.loc	3 178 1
	addq	$8, %rsp
	popq	%rbx
	popq	%r12
	popq	%r13
	popq	%r14
Ltmp308:
	popq	%r15
	popq	%rbp
	retq
LBB14_11:
Ltmp309:
Ltmp277:
	.loc	3 0 1 is_stmt 0
	movq	%rax, %r15
Ltmp310:
	.loc	3 178 1
	movq	-16(%rbx), %rdi
	movq	-8(%rbx), %rsi
	callq	__ZN5alloc5alloc8box_free17h4a191d37e5dcdd6fE
Ltmp311:
	.loc	3 178 1
	testq	%r12, %r12
	je	LBB14_16
Ltmp312:
	.p2align	4, 0x90
LBB14_12:
Ltmp278:
	movq	%rbx, %rdi
	callq	__ZN4core3ptr13drop_in_place17h9f019919ebce232cE
Ltmp279:
Ltmp313:
	addq	$16, %rbx
	addq	$-16, %r12
	jne	LBB14_12
	jmp	LBB14_16
Ltmp314:
LBB14_15:
Ltmp280:
	.loc	3 0 1
	movq	%rax, %r15
Ltmp315:
LBB14_16:
	.loc	3 178 1
	movq	(%r14), %rdi
	movq	8(%r14), %rsi
	callq	__ZN4core3ptr13drop_in_place17h232e100e201e800bE
	movq	%r15, %rdi
	callq	__Unwind_Resume
	ud2
Ltmp316:
Lfunc_end14:
	.cfi_endproc
	.section	__TEXT,__gcc_except_tab
	.p2align	2
GCC_except_table14:
Lexception1:
	.byte	255
	.byte	255
	.byte	1
	.uleb128 Lcst_end1-Lcst_begin1
Lcst_begin1:
	.uleb128 Ltmp275-Lfunc_begin14
	.uleb128 Ltmp276-Ltmp275
	.uleb128 Ltmp277-Lfunc_begin14
	.byte	0
	.uleb128 Ltmp278-Lfunc_begin14
	.uleb128 Ltmp279-Ltmp278
	.uleb128 Ltmp280-Lfunc_begin14
	.byte	0
	.uleb128 Ltmp279-Lfunc_begin14
	.uleb128 Lfunc_end14-Ltmp279
	.byte	0
	.byte	0
Lcst_end1:
	.p2align	2

	.section	__TEXT,__text,regular,pure_instructions
	.p2align	4, 0x90
__ZN4core3ptr13drop_in_place17h8e520e4218783f94E:
Lfunc_begin15:
	.loc	3 178 0 is_stmt 1
	.cfi_startproc
	pushq	%rbp
	.cfi_def_cfa_offset 16
	.cfi_offset %rbp, -16
	movq	%rsp, %rbp
	.cfi_def_cfa_register %rbp
Ltmp317:
	.loc	3 178 1 prologue_end
	movq	(%rdi), %rax
Ltmp318:
	testq	%rax, %rax
	je	LBB15_2
Ltmp319:
	.loc	15 645 13
	movb	$0, (%rax)
Ltmp320:
	.loc	3 178 1
	movq	8(%rdi), %rsi
Ltmp321:
	.loc	6 185 12
	testq	%rsi, %rsi
	.loc	6 185 9 is_stmt 0
	je	LBB15_2
Ltmp322:
	.loc	3 178 1 is_stmt 1
	movq	(%rdi), %rdi
Ltmp323:
	.loc	6 102 5
	movl	$1, %edx
	popq	%rbp
	jmp	___rust_dealloc
Ltmp324:
LBB15_2:
	.loc	3 178 1
	popq	%rbp
	retq
Ltmp325:
Lfunc_end15:
	.cfi_endproc

	.p2align	4, 0x90
__ZN4core3ptr13drop_in_place17h9f019919ebce232cE:
Lfunc_begin16:
	.loc	3 178 0
	.cfi_startproc
	.cfi_personality 155, _rust_eh_personality
	.cfi_lsda 16, Lexception2
	pushq	%rbp
	.cfi_def_cfa_offset 16
	.cfi_offset %rbp, -16
	movq	%rsp, %rbp
	.cfi_def_cfa_register %rbp
	pushq	%r14
	pushq	%rbx
	.cfi_offset %rbx, -32
	.cfi_offset %r14, -24
	movq	%rdi, %rbx
Ltmp329:
	.loc	3 178 1 prologue_end
	movq	(%rdi), %rdi
	movq	8(%rbx), %rax
Ltmp326:
	callq	*(%rax)
Ltmp327:
Ltmp330:
	movq	8(%rbx), %rax
Ltmp331:
	.loc	6 282 16
	movq	8(%rax), %rsi
Ltmp332:
	.loc	6 185 12
	testq	%rsi, %rsi
	.loc	6 185 9 is_stmt 0
	je	LBB16_2
Ltmp333:
	.loc	3 178 1 is_stmt 1
	movq	(%rbx), %rdi
Ltmp334:
	.loc	6 283 17
	movq	16(%rax), %rdx
Ltmp335:
	.loc	6 102 5
	popq	%rbx
Ltmp336:
	popq	%r14
	popq	%rbp
	jmp	___rust_dealloc
Ltmp337:
LBB16_2:
	.loc	3 178 1
	popq	%rbx
Ltmp338:
	popq	%r14
	popq	%rbp
	retq
LBB16_3:
Ltmp339:
Ltmp328:
	.loc	3 0 1 is_stmt 0
	movq	%rax, %r14
	.loc	3 178 1
	movq	(%rbx), %rdi
	movq	8(%rbx), %rsi
	callq	__ZN5alloc5alloc8box_free17h4a191d37e5dcdd6fE
	movq	%r14, %rdi
	callq	__Unwind_Resume
	ud2
Ltmp340:
Lfunc_end16:
	.cfi_endproc
	.section	__TEXT,__gcc_except_tab
	.p2align	2
GCC_except_table16:
Lexception2:
	.byte	255
	.byte	255
	.byte	1
	.uleb128 Lcst_end2-Lcst_begin2
Lcst_begin2:
	.uleb128 Ltmp326-Lfunc_begin16
	.uleb128 Ltmp327-Ltmp326
	.uleb128 Ltmp328-Lfunc_begin16
	.byte	0
	.uleb128 Ltmp327-Lfunc_begin16
	.uleb128 Lfunc_end16-Ltmp327
	.byte	0
	.byte	0
Lcst_end2:
	.p2align	2

	.section	__TEXT,__text,regular,pure_instructions
	.p2align	4, 0x90
__ZN4core3ptr13drop_in_place17hf401c3ebf6cf462bE:
Lfunc_begin17:
	.loc	3 178 0 is_stmt 1
	.cfi_startproc
	pushq	%rbp
	.cfi_def_cfa_offset 16
	.cfi_offset %rbp, -16
	movq	%rsp, %rbp
	.cfi_def_cfa_register %rbp
	movq	%rdi, %rax
Ltmp341:
	.loc	3 178 1 prologue_end
	movq	(%rdi), %rdi
Ltmp342:
	.loc	14 532 16
	testq	%rdi, %rdi
Ltmp343:
	.loc	14 200 9
	je	LBB17_2
Ltmp344:
	.loc	3 0 0 is_stmt 0
	movq	8(%rax), %rsi
Ltmp345:
	.loc	14 200 9
	testq	%rsi, %rsi
	je	LBB17_2
Ltmp346:
	.loc	6 102 5 is_stmt 1
	movl	$1, %edx
	popq	%rbp
	jmp	___rust_dealloc
Ltmp347:
LBB17_2:
	.loc	3 178 1
	popq	%rbp
	retq
Ltmp348:
Lfunc_end17:
	.cfi_endproc

	.p2align	4, 0x90
__ZN5alloc5alloc8box_free17h4a191d37e5dcdd6fE:
Lfunc_begin18:
	.loc	6 281 0
	.cfi_startproc
	pushq	%rbp
	.cfi_def_cfa_offset 16
	.cfi_offset %rbp, -16
	movq	%rsp, %rbp
	.cfi_def_cfa_register %rbp
	movq	%rsi, %rax
Ltmp349:
	.loc	6 282 16 prologue_end
	movq	8(%rsi), %rsi
Ltmp350:
	.loc	6 185 12
	testq	%rsi, %rsi
	.loc	6 185 9 is_stmt 0
	je	LBB18_1
Ltmp351:
	.loc	6 283 17 is_stmt 1
	movq	16(%rax), %rdx
Ltmp352:
	.loc	6 102 5
	popq	%rbp
	jmp	___rust_dealloc
Ltmp353:
LBB18_1:
	.loc	6 286 2
	popq	%rbp
	retq
Ltmp354:
Lfunc_end18:
	.cfi_endproc

	.p2align	4, 0x90
__ZN5alloc5alloc8box_free17he611c60053e682b4E:
Lfunc_begin19:
	.loc	6 281 0
	.cfi_startproc
	pushq	%rbp
	.cfi_def_cfa_offset 16
	.cfi_offset %rbp, -16
	movq	%rsp, %rbp
	.cfi_def_cfa_register %rbp
Ltmp355:
	.loc	6 102 5 prologue_end
	movl	$24, %esi
	movl	$8, %edx
	popq	%rbp
	jmp	___rust_dealloc
Ltmp356:
Lfunc_end19:
	.cfi_endproc

	.p2align	4, 0x90
__ZN84_$LT$core..str..Split$LT$P$GT$$u20$as$u20$core..iter..traits..iterator..Iterator$GT$4next17hc1454517e1eb37a8E:
Lfunc_begin20:
	.file	18 "/rustc/a74d1862d4d87a56244958416fd05976c58ca1a8/src/libcore/str/mod.rs"
	.loc	18 975 0
	.cfi_startproc
	pushq	%rbp
	.cfi_def_cfa_offset 16
	.cfi_offset %rbp, -16
	movq	%rsp, %rbp
	.cfi_def_cfa_register %rbp
Ltmp357:
	pushq	%r15
	pushq	%r14
	pushq	%r13
	pushq	%r12
	pushq	%rbx
	subq	$24, %rsp
	.cfi_offset %rbx, -56
	.cfi_offset %r12, -48
	.cfi_offset %r13, -40
	.cfi_offset %r14, -32
	.cfi_offset %r15, -24
	.loc	18 1121 12 prologue_end
	cmpb	$0, 65(%rdi)
	.loc	18 1121 9 is_stmt 0
	jne	LBB20_1
Ltmp358:
	.loc	18 0 9
	movq	%rdi, %r13
Ltmp359:
	.file	19 "/rustc/a74d1862d4d87a56244958416fd05976c58ca1a8/src/libcore/str/pattern.rs"
	.loc	19 369 54 is_stmt 1
	movq	32(%rdi), %rsi
Ltmp360:
	.loc	19 369 67 is_stmt 0
	movq	40(%rdi), %rax
Ltmp361:
	.file	20 "/rustc/a74d1862d4d87a56244958416fd05976c58ca1a8/src/libcore/slice/mod.rs"
	.loc	20 2888 12 is_stmt 1
	movq	%rax, %rdx
	subq	%rsi, %rdx
Ltmp362:
	.loc	19 369 84
	jb	LBB20_16
Ltmp363:
	cmpq	%rax, 24(%r13)
	jb	LBB20_16
Ltmp364:
	.loc	18 0 0 is_stmt 0
	movq	16(%r13), %rcx
Ltmp365:
	.loc	19 372 71 is_stmt 1
	movq	48(%r13), %rax
Ltmp366:
	.loc	19 0 71 is_stmt 0
	movq	%rcx, -56(%rbp)
Ltmp367:
	.loc	20 2888 12 is_stmt 1
	addq	%rcx, %rsi
Ltmp368:
	.loc	19 373 34
	movzbl	59(%rax,%r13), %edi
	callq	__ZN4core5slice6memchr6memchr17h319ffdabcbdf42caE
Ltmp369:
	.loc	19 373 20 is_stmt 0
	cmpq	$1, %rax
	jne	LBB20_15
Ltmp370:
	.loc	19 0 20
	leaq	60(%r13), %rax
	movq	%rax, -48(%rbp)
Ltmp371:
	.p2align	4, 0x90
LBB20_6:
	.loc	19 391 17 is_stmt 1
	movq	32(%r13), %rax
	.loc	19 392 35
	movq	48(%r13), %r15
Ltmp372:
	.loc	19 391 17
	leaq	1(%rdx,%rax), %rbx
Ltmp373:
	movq	%rbx, 32(%r13)
	.loc	19 392 20
	movq	%rbx, %r12
	subq	%r15, %r12
	.loc	19 392 17 is_stmt 0
	jae	LBB20_8
Ltmp374:
	.loc	19 369 25 is_stmt 1
	movq	24(%r13), %r14
Ltmp375:
	.loc	19 369 67 is_stmt 0
	movq	40(%r13), %rax
Ltmp376:
	.loc	20 2888 12 is_stmt 1
	movq	%rax, %rdx
	subq	%rbx, %rdx
	jae	LBB20_13
	jmp	LBB20_16
Ltmp377:
	.p2align	4, 0x90
LBB20_8:
	.loc	19 394 42
	movq	24(%r13), %r14
Ltmp378:
	.loc	20 2888 37
	cmpq	%rbx, %r14
Ltmp379:
	.loc	19 394 28
	jb	LBB20_12
Ltmp380:
	.loc	20 2918 19
	cmpq	$5, %r15
	.loc	20 2918 16 is_stmt 0
	jae	LBB20_23
Ltmp381:
	.loc	20 0 16
	movq	16(%r13), %rdi
	addq	%r12, %rdi
Ltmp382:
	.loc	20 5863 12 is_stmt 1
	cmpq	-48(%rbp), %rdi
	.loc	20 5863 9 is_stmt 0
	je	LBB20_21
Ltmp383:
	.loc	20 0 9
	movq	-48(%rbp), %rsi
Ltmp384:
	.loc	20 5868 13 is_stmt 1
	movq	%r15, %rdx
Ltmp385:
	callq	_bcmp
Ltmp386:
	testl	%eax, %eax
Ltmp387:
	.loc	19 395 25
	je	LBB20_21
Ltmp388:
LBB20_12:
	.loc	19 369 67
	movq	40(%r13), %rax
Ltmp389:
	.loc	20 2888 12
	movq	%rax, %rdx
	subq	%rbx, %rdx
Ltmp390:
	.loc	19 369 84
	jb	LBB20_16
Ltmp391:
LBB20_13:
	cmpq	%rax, %r14
	jb	LBB20_16
Ltmp392:
	.loc	20 2888 12
	addq	16(%r13), %rbx
Ltmp393:
	.loc	19 373 34
	movzbl	59(%r15,%r13), %edi
	movq	%rbx, %rsi
	callq	__ZN4core5slice6memchr6memchr17h319ffdabcbdf42caE
Ltmp394:
	.loc	19 373 20 is_stmt 0
	cmpq	$1, %rax
	je	LBB20_6
Ltmp395:
LBB20_15:
	.loc	19 402 31 is_stmt 1
	movq	40(%r13), %rax
	.loc	19 402 17 is_stmt 0
	movq	%rax, 32(%r13)
Ltmp396:
LBB20_16:
	.loc	18 1107 13 is_stmt 1
	cmpb	$0, 65(%r13)
	.loc	18 1107 12 is_stmt 0
	je	LBB20_17
Ltmp397:
LBB20_1:
	.loc	18 0 12
	xorl	%eax, %eax
LBB20_22:
	.loc	18 977 14 is_stmt 1
	movq	%r12, %rdx
	addq	$24, %rsp
	popq	%rbx
	popq	%r12
	popq	%r13
	popq	%r14
	popq	%r15
	popq	%rbp
	retq
LBB20_17:
Ltmp398:
	.loc	18 1107 31
	cmpb	$0, 64(%r13)
	.loc	18 1107 30 is_stmt 0
	je	LBB20_19
Ltmp399:
	.loc	18 1111 68 is_stmt 1
	movq	(%r13), %rax
	.loc	18 1111 80 is_stmt 0
	movq	8(%r13), %r12
	jmp	LBB20_20
Ltmp400:
LBB20_19:
	.loc	18 1107 71 is_stmt 1
	movq	(%r13), %rax
	.loc	18 1107 60 is_stmt 0
	movq	8(%r13), %r12
	cmpq	%rax, %r12
	.loc	18 1107 12
	je	LBB20_1
Ltmp401:
LBB20_20:
	.loc	18 1108 13 is_stmt 1
	movb	$1, 65(%r13)
Ltmp402:
	.loc	18 1908 23
	subq	%rax, %r12
Ltmp403:
	.file	21 "/rustc/a74d1862d4d87a56244958416fd05976c58ca1a8/src/libcore/ptr/const_ptr.rs"
	.loc	21 158 9
	addq	16(%r13), %rax
Ltmp404:
	.loc	21 0 9 is_stmt 0
	jmp	LBB20_22
Ltmp405:
LBB20_21:
	.loc	18 1129 50 is_stmt 1
	movq	(%r13), %rcx
Ltmp406:
	.loc	18 0 50 is_stmt 0
	movq	-56(%rbp), %rax
Ltmp407:
	.loc	21 158 9 is_stmt 1
	addq	%rcx, %rax
Ltmp408:
	.loc	18 1908 23
	subq	%rcx, %r12
Ltmp409:
	.loc	18 1130 17
	movq	%rbx, (%r13)
	jmp	LBB20_22
Ltmp410:
LBB20_23:
	.loc	20 2919 13
	leaq	l___unnamed_11(%rip), %rdx
Ltmp411:
	movl	$4, %esi
	movq	%r15, %rdi
	callq	__ZN4core5slice20slice_index_len_fail17h550a313151a85135E
Ltmp412:
Lfunc_end20:
	.cfi_endproc
	.file	22 "/rustc/a74d1862d4d87a56244958416fd05976c58ca1a8/src/libcore/cmp.rs"

	.p2align	4, 0x90
__ZN91_$LT$std..panicking..begin_panic..PanicPayload$LT$A$GT$$u20$as$u20$core..panic..BoxMeUp$GT$3get17h835052256563f2a5E:
Lfunc_begin21:
	.loc	11 430 0
	.cfi_startproc
	pushq	%rbp
	.cfi_def_cfa_offset 16
	.cfi_offset %rbp, -16
	movq	%rsp, %rbp
	.cfi_def_cfa_register %rbp
Ltmp413:
	.loc	11 432 17 prologue_end
	cmpq	$0, (%rdi)
	je	LBB21_2
Ltmp414:
	.loc	11 0 17 is_stmt 0
	movq	%rdi, %rax
Ltmp415:
	.loc	11 435 10 is_stmt 1
	leaq	l___unnamed_3(%rip), %rdx
	popq	%rbp
	retq
Ltmp416:
LBB21_2:
	.loc	11 433 25
	callq	__ZN3std7process5abort17h4dccaf05298ce780E
Ltmp417:
Lfunc_end21:
	.cfi_endproc

	.p2align	4, 0x90
__ZN91_$LT$std..panicking..begin_panic..PanicPayload$LT$A$GT$$u20$as$u20$core..panic..BoxMeUp$GT$8take_box17h67ea3b282d660789E:
Lfunc_begin22:
	.loc	11 417 0
	.cfi_startproc
	pushq	%rbp
	.cfi_def_cfa_offset 16
	.cfi_offset %rbp, -16
	movq	%rsp, %rbp
	.cfi_def_cfa_register %rbp
Ltmp418:
	pushq	%r14
	pushq	%rbx
	.cfi_offset %rbx, -32
	.cfi_offset %r14, -24
Ltmp419:
	.file	23 "/rustc/a74d1862d4d87a56244958416fd05976c58ca1a8/src/libcore/intrinsics.rs"
	.loc	23 2058 5 prologue_end
	movq	(%rdi), %rbx
Ltmp420:
	movq	8(%rdi), %r14
Ltmp421:
	.loc	23 2058 5 is_stmt 0
	movq	$0, (%rdi)
Ltmp422:
	.loc	11 424 17 is_stmt 1
	testq	%rbx, %rbx
	je	LBB22_3
Ltmp423:
	.loc	6 80 5
	movl	$16, %edi
Ltmp424:
	movl	$8, %esi
	callq	___rust_alloc
Ltmp425:
	.loc	6 269 9
	testq	%rax, %rax
	je	LBB22_4
Ltmp426:
	.file	24 "/rustc/a74d1862d4d87a56244958416fd05976c58ca1a8/src/liballoc/boxed.rs"
	.loc	24 174 13
	movq	%rbx, (%rax)
	movq	%r14, 8(%rax)
Ltmp427:
	.file	25 "/rustc/a74d1862d4d87a56244958416fd05976c58ca1a8/src/libcore/ptr/unique.rs"
	.loc	25 108 6
	leaq	l___unnamed_3(%rip), %rdx
Ltmp428:
	.loc	11 428 10
	popq	%rbx
Ltmp429:
	popq	%r14
Ltmp430:
	popq	%rbp
	retq
Ltmp431:
LBB22_3:
	.loc	11 425 25
	callq	__ZN3std7process5abort17h4dccaf05298ce780E
Ltmp432:
LBB22_4:
	.loc	6 270 19
	movl	$16, %edi
	movl	$8, %esi
	callq	__ZN5alloc5alloc18handle_alloc_error17hbc0ab0ed90816c07E
Ltmp433:
Lfunc_end22:
	.cfi_endproc

	.p2align	4, 0x90
__ZN18build_script_build4main17h1330e58d05a0eb7eE:
Lfunc_begin23:
	.file	26 "/Users/yingyuhang/.cargo/registry/src/github.com-1ecc6299db9ec823/libc-0.2.71/build.rs"
	.loc	26 5 0
	.cfi_startproc
	.cfi_personality 155, _rust_eh_personality
	.cfi_lsda 16, Lexception3
	pushq	%rbp
	.cfi_def_cfa_offset 16
	.cfi_offset %rbp, -16
	movq	%rsp, %rbp
	.cfi_def_cfa_register %rbp
Ltmp482:
	pushq	%r15
	pushq	%r14
	pushq	%r13
	pushq	%r12
	pushq	%rbx
	subq	$600, %rsp
	.cfi_offset %rbx, -56
	.cfi_offset %r12, -48
	.cfi_offset %r13, -40
	.cfi_offset %r14, -32
	.cfi_offset %r15, -24
	.file	27 "/rustc/a74d1862d4d87a56244958416fd05976c58ca1a8/src/libstd/env.rs"
	.loc	27 246 5 prologue_end
	leaq	l___unnamed_12(%rip), %rsi
	leaq	-256(%rbp), %rdi
	movl	$5, %edx
	callq	__ZN3std3env7_var_os17hc8b7303001145450E
Ltmp483:
	.loc	26 96 17
	cmpq	$0, -256(%rbp)
	je	LBB23_13
	movq	-240(%rbp), %rdx
	movq	%rdx, -616(%rbp)
	movq	-256(%rbp), %rbx
Ltmp484:
	movq	-248(%rbp), %rax
	movq	%rax, -624(%rbp)
	movq	%rbx, -632(%rbp)
Ltmp485:
	.loc	26 97 37
	movq	%rdx, -592(%rbp)
	movq	%rax, -600(%rbp)
	movq	%rbx, -608(%rbp)
Ltmp434:
	leaq	-256(%rbp), %rdi
Ltmp486:
	.file	28 "/rustc/a74d1862d4d87a56244958416fd05976c58ca1a8/src/libstd/process.rs"
	.loc	28 501 26
	movq	%rbx, %rsi
	callq	__ZN3std3sys4unix7process14process_common7Command3new17hcd746a384cbb0b47E
Ltmp435:
Ltmp487:
	.loc	28 0 26 is_stmt 0
	leaq	-512(%rbp), %rdi
	leaq	-256(%rbp), %rsi
	.loc	28 501 9
	movl	$184, %edx
	callq	_memcpy
Ltmp488:
	.loc	3 178 1 is_stmt 1
	movq	-600(%rbp), %rsi
Ltmp489:
	.loc	14 200 40
	testq	%rsi, %rsi
	.loc	14 200 9 is_stmt 0
	je	LBB23_4
Ltmp490:
	.loc	6 102 5 is_stmt 1
	movl	$1, %edx
	movq	%rbx, %rdi
	callq	___rust_dealloc
Ltmp491:
LBB23_4:
Ltmp437:
	.loc	28 542 9
	leaq	l___unnamed_13(%rip), %rsi
	leaq	-512(%rbp), %rdi
	movl	$9, %edx
	callq	__ZN3std3sys4unix7process14process_common7Command3arg17hc476c471a9efd12bE
Ltmp438:
Ltmp492:
Ltmp439:
	.loc	28 0 9 is_stmt 0
	leaq	-328(%rbp), %rdi
	leaq	-512(%rbp), %rsi
	.loc	26 97 24 is_stmt 1
	callq	__ZN3std7process7Command6output17h3119df81721f3b73E
Ltmp440:
Ltmp493:
	.loc	8 396 13
	cmpq	$1, -328(%rbp)
	je	LBB23_7
Ltmp494:
	.loc	8 396 27 is_stmt 0
	movq	-320(%rbp), %r12
Ltmp495:
	movq	-312(%rbp), %rdx
Ltmp496:
	movq	-304(%rbp), %rbx
	movq	-296(%rbp), %r15
Ltmp497:
	movq	-288(%rbp), %rcx
Ltmp498:
	movq	-280(%rbp), %rax
	movq	%rax, -528(%rbp)
	movq	-272(%rbp), %rax
	movq	%rax, -520(%rbp)
Ltmp499:
	.loc	26 97 18 is_stmt 1
	testq	%r12, %r12
	je	LBB23_12
Ltmp500:
	.loc	26 97 18 is_stmt 0
	movq	%r12, -584(%rbp)
	movq	%rdx, -72(%rbp)
	movq	%rdx, -576(%rbp)
	movq	%rbx, -568(%rbp)
Ltmp501:
	movq	%r15, -560(%rbp)
	movq	%rcx, -64(%rbp)
	movq	%rcx, -552(%rbp)
	movq	-528(%rbp), %rax
	movq	-520(%rbp), %rcx
	movq	%rax, -544(%rbp)
	movq	%rcx, -536(%rbp)
Ltmp442:
	leaq	-512(%rbp), %rdi
Ltmp502:
	.loc	26 97 75
	callq	__ZN4core3ptr13drop_in_place17h703bc1dfc5d4daddE
Ltmp443:
Ltmp503:
Ltmp444:
	.loc	26 0 75
	leaq	-256(%rbp), %rdi
Ltmp504:
	.loc	26 98 25 is_stmt 1
	movq	%r12, %rsi
	movq	%rbx, %rdx
	callq	__ZN4core3str9from_utf817he06957962f38305fE
Ltmp445:
Ltmp505:
	.loc	8 396 13
	cmpq	$1, -256(%rbp)
Ltmp506:
	.loc	26 98 19
	je	LBB23_30
	.loc	26 0 0 is_stmt 0
	movq	-248(%rbp), %rax
Ltmp507:
	.loc	26 98 19
	testq	%rax, %rax
	je	LBB23_30
Ltmp508:
	.loc	26 0 0
	movq	-240(%rbp), %rcx
Ltmp509:
	.loc	18 3299 9 is_stmt 1
	movq	$0, -512(%rbp)
	movq	%rcx, -504(%rbp)
	movq	%rax, -496(%rbp)
	movq	%rcx, -488(%rbp)
	movq	$0, -480(%rbp)
	movq	%rcx, -472(%rbp)
	movq	$1, -464(%rbp)
	movabsq	$197568495662, %rax
Ltmp510:
	movq	%rax, -456(%rbp)
	movw	$1, -448(%rbp)
Ltmp446:
	leaq	-512(%rbp), %rdi
Ltmp511:
	.loc	26 101 8
	callq	__ZN84_$LT$core..str..Split$LT$P$GT$$u20$as$u20$core..iter..traits..iterator..Iterator$GT$4next17hc1454517e1eb37a8E
Ltmp512:
Ltmp447:
	.loc	2 151 16
	xorl	%esi, %esi
	testq	%rax, %rax
	setne	%sil
Ltmp513:
	.loc	2 151 16 is_stmt 0
	leaq	l___unnamed_14(%rip), %rcx
	xorl	%edi, %edi
	testq	%rcx, %rcx
	setne	%dil
Ltmp514:
	cmpq	%rdi, %rsi
	jne	LBB23_30
Ltmp515:
	testq	%rax, %rax
	je	LBB23_26
Ltmp516:
	.loc	2 0 16
	testq	%rcx, %rcx
	.loc	2 151 16
	je	LBB23_26
Ltmp517:
	.loc	20 5860 12 is_stmt 1
	cmpq	$7, %rdx
	.loc	20 5860 9 is_stmt 0
	jne	LBB23_30
Ltmp518:
	.loc	20 5863 12 is_stmt 1
	cmpq	%rcx, %rax
	.loc	20 5863 9 is_stmt 0
	je	LBB23_26
Ltmp519:
	.loc	20 0 9
	movl	$1953723762, %ecx
Ltmp520:
	.loc	20 5868 13 is_stmt 1
	xorl	(%rax), %ecx
	movl	$824206196, %edx
Ltmp521:
	xorl	3(%rax), %edx
	orl	%ecx, %edx
Ltmp522:
	.loc	26 101 5
	jne	LBB23_30
Ltmp523:
LBB23_26:
Ltmp448:
	.loc	26 0 5 is_stmt 0
	leaq	-512(%rbp), %rdi
	.loc	26 105 17 is_stmt 1
	callq	__ZN84_$LT$core..str..Split$LT$P$GT$$u20$as$u20$core..iter..traits..iterator..Iterator$GT$4next17hc1454517e1eb37a8E
Ltmp449:
	.loc	26 0 0 is_stmt 0
	movq	%rax, %r14
	movq	%rdx, %rbx
Ltmp450:
	leaq	-512(%rbp), %rdi
Ltmp524:
	.loc	26 112 29 is_stmt 1
	callq	__ZN84_$LT$core..str..Split$LT$P$GT$$u20$as$u20$core..iter..traits..iterator..Iterator$GT$4next17hc1454517e1eb37a8E
Ltmp451:
	.loc	26 0 29 is_stmt 0
	movq	%rbx, -264(%rbp)
	movq	%r15, %r13
	.loc	26 112 23
	testq	%rax, %rax
	je	LBB23_29
Ltmp525:
	.loc	18 3299 9 is_stmt 1
	movq	$0, -256(%rbp)
	movq	%rdx, -248(%rbp)
	movq	%rax, -240(%rbp)
	movq	%rdx, -232(%rbp)
	movq	$0, -224(%rbp)
	movq	%rdx, -216(%rbp)
	movq	$1, -208(%rbp)
	movabsq	$193273528365, %rax
Ltmp526:
	movq	%rax, -200(%rbp)
	movw	$1, -192(%rbp)
	movq	$-1, %rbx
Ltmp527:
	.loc	18 0 9 is_stmt 0
	leaq	-256(%rbp), %r15
Ltmp528:
	.p2align	4, 0x90
LBB23_36:
Ltmp452:
	.file	29 "/rustc/a74d1862d4d87a56244958416fd05976c58ca1a8/src/libcore/iter/traits/iterator.rs"
	.loc	29 3258 9 is_stmt 1
	movq	%r15, %rdi
	callq	__ZN84_$LT$core..str..Split$LT$P$GT$$u20$as$u20$core..iter..traits..iterator..Iterator$GT$4next17hc1454517e1eb37a8E
Ltmp453:
Ltmp529:
	.loc	29 337 16
	testq	%rbx, %rbx
Ltmp530:
	.loc	29 336 13
	je	LBB23_39
Ltmp531:
	incq	%rbx
	testq	%rax, %rax
	jne	LBB23_36
Ltmp532:
LBB23_39:
	testq	%rax, %rax
Ltmp533:
	.loc	2 458 13
	je	LBB23_40
Ltmp534:
	.loc	20 1430 9
	cmpq	$3, %rdx
	movq	%r13, %r15
	jae	LBB23_42
Ltmp535:
LBB23_47:
	.loc	20 0 9 is_stmt 0
	xorl	%ebx, %ebx
Ltmp536:
	.loc	26 116 23 is_stmt 1
	testq	%r14, %r14
	jne	LBB23_49
	jmp	LBB23_30
Ltmp537:
LBB23_40:
	.loc	26 0 23 is_stmt 0
	movb	$2, %bl
	movq	%r13, %r15
Ltmp538:
	.loc	26 116 23
	testq	%r14, %r14
	jne	LBB23_49
	jmp	LBB23_30
Ltmp539:
LBB23_42:
	.loc	26 0 23
	movb	$1, %bl
Ltmp540:
	.loc	20 5863 12 is_stmt 1
	leaq	l___unnamed_15(%rip), %rcx
	cmpq	%rcx, %rax
	.loc	20 5863 9 is_stmt 0
	je	LBB23_48
Ltmp541:
	.loc	20 5868 13 is_stmt 1
	movzwl	(%rax), %ecx
	xorl	$25956, %ecx
	movzbl	2(%rax), %esi
	xorl	$118, %esi
	orw	%cx, %si
Ltmp542:
	.loc	20 1430 9
	je	LBB23_48
Ltmp543:
	.loc	20 1430 9 is_stmt 0
	cmpq	$7, %rdx
	jb	LBB23_47
Ltmp544:
	.loc	20 5863 12 is_stmt 1
	leaq	l___unnamed_16(%rip), %rcx
	cmpq	%rcx, %rax
	.loc	20 5863 9 is_stmt 0
	je	LBB23_48
Ltmp545:
	.loc	20 0 9
	movl	$1751607662, %ecx
Ltmp546:
	.loc	20 5868 13 is_stmt 1
	xorl	(%rax), %ecx
	movl	$2037150824, %edx
Ltmp547:
	xorl	3(%rax), %edx
	orl	%ecx, %edx
Ltmp548:
	.loc	20 1430 9
	jne	LBB23_47
Ltmp549:
LBB23_48:
	.loc	26 116 23
	testq	%r14, %r14
	je	LBB23_30
Ltmp550:
LBB23_49:
Ltmp455:
	.loc	18 4280 9
	movq	%r14, %rdi
	movq	-264(%rbp), %rsi
	callq	__ZN4core3num52_$LT$impl$u20$core..str..FromStr$u20$for$u20$u32$GT$8from_str17hb8ee2851a4cfefb0E
Ltmp456:
Ltmp551:
	.loc	26 0 0 is_stmt 0
	movq	%rax, %r13
	.loc	26 116 17 is_stmt 1
	testb	$1, %r13b
	jne	LBB23_30
Ltmp552:
	.loc	26 0 17 is_stmt 0
	movq	-72(%rbp), %rsi
Ltmp553:
	.loc	14 200 40 is_stmt 1
	testq	%rsi, %rsi
	.loc	14 200 9 is_stmt 0
	je	LBB23_53
Ltmp554:
	.loc	6 102 5 is_stmt 1
	movl	$1, %edx
	movq	%r12, %rdi
	callq	___rust_dealloc
Ltmp555:
LBB23_53:
	.loc	14 532 16
	testq	%r15, %r15
	movq	-64(%rbp), %rsi
Ltmp556:
	.loc	14 200 9
	je	LBB23_56
Ltmp557:
	testq	%rsi, %rsi
	je	LBB23_56
Ltmp558:
	.loc	6 102 5
	movl	$1, %edx
	movq	%r15, %rdi
	callq	___rust_dealloc
Ltmp559:
LBB23_56:
	.loc	2 411 13
	testb	$1, %bl
	sete	-264(%rbp)
	cmpb	$2, %bl
	sete	%r15b
Ltmp560:
	.loc	27 212 5
	leaq	l___unnamed_17(%rip), %rsi
	leaq	-256(%rbp), %rdi
	movl	$30, %edx
	callq	__ZN3std3env4_var17heb54e5eb7997d7b3E
Ltmp561:
	.loc	26 8 28
	movq	-256(%rbp), %r14
Ltmp562:
	.loc	8 286 25
	testq	%r14, %r14
Ltmp563:
	.loc	3 0 0 is_stmt 0
	movq	-248(%rbp), %rdi
Ltmp564:
	testq	%rdi, %rdi
	je	LBB23_59
Ltmp565:
	movq	-240(%rbp), %rsi
Ltmp566:
	testq	%rsi, %rsi
	je	LBB23_59
Ltmp567:
	movl	$1, %edx
	callq	___rust_dealloc
Ltmp568:
LBB23_59:
	.loc	27 212 5 is_stmt 1
	leaq	l___unnamed_18(%rip), %rsi
	leaq	-256(%rbp), %rdi
	movl	$19, %edx
	callq	__ZN3std3env4_var17heb54e5eb7997d7b3E
Ltmp569:
	.loc	26 9 31
	movq	-256(%rbp), %rax
	movq	%rax, -72(%rbp)
Ltmp570:
	.loc	8 286 25
	testq	%rax, %rax
Ltmp571:
	.loc	3 0 0 is_stmt 0
	movq	-248(%rbp), %rdi
Ltmp572:
	testq	%rdi, %rdi
	je	LBB23_62
Ltmp573:
	movq	-240(%rbp), %rsi
Ltmp574:
	testq	%rsi, %rsi
	je	LBB23_62
Ltmp575:
	movl	$1, %edx
	callq	___rust_dealloc
Ltmp576:
LBB23_62:
	.loc	27 212 5 is_stmt 1
	leaq	l___unnamed_19(%rip), %rsi
	leaq	-256(%rbp), %rdi
	movl	$29, %edx
	callq	__ZN3std3env4_var17heb54e5eb7997d7b3E
Ltmp577:
	.loc	26 11 9
	movq	-256(%rbp), %rax
Ltmp578:
	.loc	8 286 25
	testq	%rax, %rax
Ltmp579:
	.loc	8 0 25 is_stmt 0
	movq	%rax, -64(%rbp)
Ltmp580:
	movq	-248(%rbp), %rdi
Ltmp581:
	testq	%rdi, %rdi
	je	LBB23_65
Ltmp582:
	movq	-240(%rbp), %rsi
Ltmp583:
	testq	%rsi, %rsi
	je	LBB23_65
Ltmp584:
	movl	$1, %edx
	callq	___rust_dealloc
Ltmp585:
LBB23_65:
	.loc	27 212 5 is_stmt 1
	leaq	l___unnamed_20(%rip), %rsi
	leaq	-256(%rbp), %rdi
	movl	$7, %edx
	callq	__ZN3std3env4_var17heb54e5eb7997d7b3E
Ltmp586:
	.loc	26 12 19
	movq	-256(%rbp), %r12
Ltmp587:
	.loc	8 286 25
	testq	%r12, %r12
Ltmp588:
	.loc	3 0 0 is_stmt 0
	movq	-248(%rbp), %rdi
Ltmp589:
	testq	%rdi, %rdi
	je	LBB23_68
Ltmp590:
	movq	-240(%rbp), %rsi
Ltmp591:
	testq	%rsi, %rsi
	je	LBB23_68
Ltmp592:
	movl	$1, %edx
	callq	___rust_dealloc
Ltmp593:
LBB23_68:
	.loc	27 212 5 is_stmt 1
	leaq	l___unnamed_21(%rip), %rsi
	leaq	-256(%rbp), %rdi
	movl	$21, %edx
	callq	__ZN3std3env4_var17heb54e5eb7997d7b3E
Ltmp594:
	.loc	8 286 25
	cmpq	$0, -256(%rbp)
Ltmp595:
	.loc	3 178 1
	je	LBB23_69
Ltmp596:
	.loc	3 178 1 is_stmt 0
	movq	-248(%rbp), %rdi
Ltmp597:
	testq	%rdi, %rdi
	je	LBB23_82
Ltmp598:
	.loc	3 178 1
	movq	-240(%rbp), %rsi
Ltmp599:
	.loc	14 200 40 is_stmt 1
	testq	%rsi, %rsi
	.loc	14 200 9 is_stmt 0
	je	LBB23_82
Ltmp600:
	.loc	6 102 5 is_stmt 1
	movl	$1, %edx
	callq	___rust_dealloc
Ltmp601:
	.loc	6 0 5 is_stmt 0
	jmp	LBB23_82
Ltmp602:
LBB23_69:
	.loc	3 178 1 is_stmt 1
	movq	-248(%rbp), %rdi
Ltmp603:
	.loc	14 532 16
	testq	%rdi, %rdi
Ltmp604:
	.loc	14 200 9
	je	LBB23_72
Ltmp605:
	.loc	3 0 0 is_stmt 0
	movq	-240(%rbp), %rsi
Ltmp606:
	.loc	14 200 9
	testq	%rsi, %rsi
	je	LBB23_72
Ltmp607:
	.loc	6 102 5 is_stmt 1
	movl	$1, %edx
	callq	___rust_dealloc
Ltmp608:
LBB23_72:
	.loc	12 328 9
	leaq	l___unnamed_22(%rip), %rax
Ltmp609:
	movq	%rax, -256(%rbp)
	movq	$1, -248(%rbp)
	movq	$0, -240(%rbp)
	leaq	l___unnamed_23(%rip), %rax
Ltmp610:
	movq	%rax, -224(%rbp)
	movq	$0, -216(%rbp)
	leaq	-256(%rbp), %rdi
Ltmp611:
	.loc	26 15 9
	callq	__ZN3std2io5stdio6_print17hdea2154009b9e479E
Ltmp612:
LBB23_82:
	.loc	28 501 26
	leaq	l___unnamed_24(%rip), %rsi
	leaq	-256(%rbp), %rbx
	movl	$15, %edx
	movq	%rbx, %rdi
	callq	__ZN3std3sys4unix7process14process_common7Command3new17hcd746a384cbb0b47E
Ltmp458:
	leaq	-512(%rbp), %rdi
Ltmp613:
	.loc	26 122 18
	movq	%rbx, %rsi
	callq	__ZN3std7process7Command6output17h3119df81721f3b73E
Ltmp459:
Ltmp614:
	.loc	8 396 13
	cmpq	$1, -512(%rbp)
	jne	LBB23_84
	.loc	8 397 23
	movq	$0, -328(%rbp)
Ltmp615:
	.loc	3 178 1
	cmpb	$2, -504(%rbp)
	jb	LBB23_90
Ltmp616:
	.loc	3 178 1 is_stmt 0
	movq	-496(%rbp), %rbx
Ltmp617:
	.loc	3 178 1
	movq	(%rbx), %rdi
	movq	8(%rbx), %rax
Ltmp461:
	callq	*(%rax)
Ltmp462:
Ltmp618:
	movq	8(%rbx), %rax
Ltmp619:
	.loc	6 282 16 is_stmt 1
	movq	8(%rax), %rsi
Ltmp620:
	.loc	6 185 12
	testq	%rsi, %rsi
	.loc	6 185 9 is_stmt 0
	je	LBB23_89
Ltmp621:
	.loc	3 178 1 is_stmt 1
	movq	(%rbx), %rdi
Ltmp622:
	.loc	6 283 17
	movq	16(%rax), %rdx
Ltmp623:
	.loc	6 102 5
	callq	___rust_dealloc
Ltmp624:
LBB23_89:
	.loc	6 102 5 is_stmt 0
	movl	$24, %esi
	movl	$8, %edx
	movq	%rbx, %rdi
	callq	___rust_dealloc
	jmp	LBB23_90
Ltmp625:
LBB23_84:
	.loc	8 396 27 is_stmt 1
	movq	-456(%rbp), %rax
	movq	%rax, -280(%rbp)
	movq	-464(%rbp), %rax
	movq	%rax, -288(%rbp)
	movq	-472(%rbp), %rax
	movq	%rax, -296(%rbp)
	movq	-480(%rbp), %rax
	movq	%rax, -304(%rbp)
	movq	-488(%rbp), %rax
	movq	%rax, -312(%rbp)
	movq	-504(%rbp), %rax
	movq	-496(%rbp), %rcx
	movq	%rcx, -320(%rbp)
	movq	%rax, -328(%rbp)
Ltmp626:
LBB23_90:
Ltmp464:
	.loc	8 0 27 is_stmt 0
	leaq	-256(%rbp), %rbx
	.loc	26 122 77 is_stmt 1
	movq	%rbx, %rdi
	callq	__ZN4core3ptr13drop_in_place17h703bc1dfc5d4daddE
Ltmp465:
Ltmp627:
	.loc	2 189 25
	cmpq	$0, -328(%rbp)
Ltmp628:
	.loc	26 123 5
	je	LBB23_140
Ltmp629:
	.loc	26 126 18
	movq	-280(%rbp), %rax
	movq	%rax, -208(%rbp)
	movq	-288(%rbp), %rax
	movq	%rax, -216(%rbp)
	movq	-296(%rbp), %rax
	movq	%rax, -224(%rbp)
	movq	-304(%rbp), %rax
	movq	%rax, -232(%rbp)
	movq	-312(%rbp), %rax
	movq	%rax, -240(%rbp)
	movq	-328(%rbp), %rax
	movq	-320(%rbp), %rcx
	movq	%rcx, -248(%rbp)
	movq	%rax, -256(%rbp)
Ltmp630:
	.loc	2 387 13
	testq	%rax, %rax
	je	LBB23_93
	.loc	2 387 18 is_stmt 0
	movq	-208(%rbp), %rax
	movq	%rax, -464(%rbp)
	movq	-216(%rbp), %rax
	movq	%rax, -472(%rbp)
	movq	-224(%rbp), %rax
	movq	%rax, -480(%rbp)
	movq	-232(%rbp), %rax
	movq	%rax, -488(%rbp)
	movq	-240(%rbp), %rax
	movq	%rax, -496(%rbp)
	movq	-256(%rbp), %rax
	movq	-248(%rbp), %rcx
	movq	%rcx, -504(%rbp)
	movq	%rax, -512(%rbp)
	leaq	-464(%rbp), %rdi
Ltmp631:
Ltmp467:
	.loc	26 127 9 is_stmt 1
	callq	__ZN3std7process10ExitStatus7success17h2b8b99214fbc7387E
Ltmp468:
	.loc	26 127 5 is_stmt 0
	testb	%al, %al
	je	LBB23_129
	.loc	26 0 5
	movb	%r15b, -41(%rbp)
	.loc	26 131 36 is_stmt 1
	movq	-496(%rbp), %r15
	movq	%r15, -568(%rbp)
	movq	-512(%rbp), %rbx
Ltmp632:
	movq	-504(%rbp), %rax
	movq	%rax, -576(%rbp)
	movq	%rbx, -584(%rbp)
Ltmp633:
Ltmp470:
	.loc	26 0 36 is_stmt 0
	leaq	-256(%rbp), %rdi
Ltmp634:
	.file	30 "/rustc/a74d1862d4d87a56244958416fd05976c58ca1a8/src/liballoc/string.rs"
	.loc	30 494 15 is_stmt 1
	movq	%rbx, %rsi
	movq	%r15, %rdx
	callq	__ZN4core3str9from_utf817he06957962f38305fE
Ltmp471:
Ltmp635:
	.loc	30 495 13
	cmpq	$1, -256(%rbp)
	.loc	30 0 0 is_stmt 0
	movq	-576(%rbp), %rsi
Ltmp636:
	.loc	30 495 13
	jne	LBB23_106
Ltmp637:
	.loc	3 0 0
	testq	%rsi, %rsi
Ltmp638:
	movb	-41(%rbp), %r15b
Ltmp639:
	.loc	14 200 9 is_stmt 1
	je	LBB23_102
Ltmp640:
	.loc	6 102 5
	movl	$1, %edx
	movq	%rbx, %rdi
	jmp	LBB23_101
Ltmp641:
LBB23_129:
	.loc	3 178 1
	movq	-512(%rbp), %rdi
Ltmp642:
	.loc	14 532 16
	testq	%rdi, %rdi
Ltmp643:
	.loc	14 200 9
	je	LBB23_102
Ltmp644:
	.loc	3 0 0 is_stmt 0
	movq	-504(%rbp), %rsi
Ltmp645:
	.loc	14 200 9
	testq	%rsi, %rsi
	je	LBB23_102
Ltmp646:
	.loc	6 102 5 is_stmt 1
	movl	$1, %edx
Ltmp647:
LBB23_101:
	.loc	26 0 0 is_stmt 0
	callq	___rust_dealloc
LBB23_102:
Ltmp648:
	.loc	3 178 1 is_stmt 1
	movq	-488(%rbp), %rdi
Ltmp649:
	.loc	14 532 16
	testq	%rdi, %rdi
Ltmp650:
	.loc	14 200 9
	je	LBB23_105
Ltmp651:
	.loc	3 0 0 is_stmt 0
	movq	-480(%rbp), %rsi
Ltmp652:
	.loc	14 200 9
	testq	%rsi, %rsi
	je	LBB23_105
Ltmp653:
	.loc	6 102 5 is_stmt 1
	movl	$1, %edx
	callq	___rust_dealloc
Ltmp654:
LBB23_105:
	.loc	6 0 5 is_stmt 0
	leaq	-256(%rbp), %rbx
LBB23_140:
	leaq	l___unnamed_25(%rip), %rax
Ltmp655:
	movq	%rbx, %rdi
Ltmp656:
LBB23_141:
	movq	%rax, (%rdi)
	movq	$1, 8(%rdi)
	movq	$0, 16(%rdi)
	leaq	l___unnamed_23(%rip), %rax
	movq	%rax, 32(%rdi)
	movq	$0, 40(%rdi)
	callq	__ZN3std2io5stdio6_print17hdea2154009b9e479E
Ltmp657:
	.loc	8 286 25 is_stmt 1
	testq	%r12, %r12
	movq	-64(%rbp), %rbx
Ltmp658:
	.loc	26 37 5
	je	LBB23_149
	.loc	26 0 5 is_stmt 0
	shrq	$32, %r13
Ltmp659:
	.loc	26 42 8 is_stmt 1
	cmpl	$14, %r13d
	.loc	26 42 5 is_stmt 0
	ja	LBB23_152
Ltmp660:
LBB23_151:
	testq	%r14, %r14
	je	LBB23_152
Ltmp661:
	.loc	26 47 8 is_stmt 1
	cmpl	$18, %r13d
	.loc	26 47 5 is_stmt 0
	ja	LBB23_155
Ltmp662:
LBB23_154:
	testq	%r14, %r14
	je	LBB23_155
Ltmp663:
	.loc	26 52 8 is_stmt 1
	cmpl	$23, %r13d
	.loc	26 52 5 is_stmt 0
	ja	LBB23_158
Ltmp664:
LBB23_157:
	testq	%r14, %r14
	je	LBB23_158
Ltmp665:
	.loc	26 57 8 is_stmt 1
	cmpl	$24, %r13d
	ja	LBB23_162
Ltmp666:
LBB23_160:
	testq	%r14, %r14
	je	LBB23_162
Ltmp667:
	cmpq	$0, -72(%rbp)
	jne	LBB23_163
Ltmp668:
LBB23_162:
	.loc	12 328 9
	leaq	l___unnamed_26(%rip), %rax
Ltmp669:
	movq	%rax, -256(%rbp)
	movq	$1, -248(%rbp)
	movq	$0, -240(%rbp)
	leaq	l___unnamed_23(%rip), %rax
Ltmp670:
	movq	%rax, -224(%rbp)
	movq	$0, -216(%rbp)
	leaq	-256(%rbp), %rdi
Ltmp671:
	.loc	26 58 9
	callq	__ZN3std2io5stdio6_print17hdea2154009b9e479E
Ltmp672:
LBB23_163:
	.loc	26 64 8
	cmpl	$29, %r13d
	.loc	26 64 5 is_stmt 0
	ja	LBB23_165
Ltmp673:
	testq	%r14, %r14
	jne	LBB23_166
Ltmp674:
LBB23_165:
	.loc	12 328 9 is_stmt 1
	leaq	l___unnamed_27(%rip), %rax
Ltmp675:
	movq	%rax, -256(%rbp)
	movq	$1, -248(%rbp)
	movq	$0, -240(%rbp)
	leaq	l___unnamed_23(%rip), %rax
Ltmp676:
	movq	%rax, -224(%rbp)
	movq	$0, -216(%rbp)
	leaq	-256(%rbp), %rdi
Ltmp677:
	.loc	26 65 9
	callq	__ZN3std2io5stdio6_print17hdea2154009b9e479E
Ltmp678:
LBB23_166:
	.loc	26 69 8
	cmpl	$32, %r13d
	.loc	26 69 5 is_stmt 0
	ja	LBB23_168
Ltmp679:
	testq	%r14, %r14
	je	LBB23_168
Ltmp680:
	.loc	8 286 25 is_stmt 1
	testq	%r14, %r14
Ltmp681:
	.loc	26 74 5
	je	LBB23_170
Ltmp682:
LBB23_171:
	.loc	8 286 25
	testq	%rbx, %rbx
	jne	LBB23_174
	jmp	LBB23_172
Ltmp683:
LBB23_168:
	.loc	12 328 9
	leaq	l___unnamed_28(%rip), %rax
Ltmp684:
	movq	%rax, -256(%rbp)
	movq	$1, -248(%rbp)
	movq	$0, -240(%rbp)
	leaq	l___unnamed_23(%rip), %rax
Ltmp685:
	movq	%rax, -224(%rbp)
	movq	$0, -216(%rbp)
	leaq	-256(%rbp), %rdi
Ltmp686:
	.loc	26 70 9
	callq	__ZN3std2io5stdio6_print17hdea2154009b9e479E
Ltmp687:
	.loc	8 286 25
	testq	%r14, %r14
Ltmp688:
	.loc	26 74 5
	jne	LBB23_171
Ltmp689:
LBB23_170:
	.loc	12 328 9
	leaq	l___unnamed_29(%rip), %rax
Ltmp690:
	movq	%rax, -256(%rbp)
	movq	$1, -248(%rbp)
	movq	$0, -240(%rbp)
	leaq	l___unnamed_23(%rip), %rax
Ltmp691:
	movq	%rax, -224(%rbp)
	movq	$0, -216(%rbp)
	leaq	-256(%rbp), %rdi
Ltmp692:
	.loc	26 75 9
	callq	__ZN3std2io5stdio6_print17hdea2154009b9e479E
Ltmp693:
	.loc	8 286 25
	testq	%rbx, %rbx
Ltmp694:
	.loc	26 78 5
	jne	LBB23_174
Ltmp695:
LBB23_172:
	.loc	26 0 0 is_stmt 0
	orb	-264(%rbp), %r15b
Ltmp696:
	.loc	26 79 27 is_stmt 1
	cmpl	$40, %r13d
	setb	%al
	.loc	26 79 12 is_stmt 0
	orb	%r15b, %al
	.loc	26 79 9
	jne	LBB23_181
Ltmp697:
	.loc	12 328 9 is_stmt 1
	leaq	l___unnamed_30(%rip), %rax
Ltmp698:
	movq	%rax, -256(%rbp)
	movq	$1, -248(%rbp)
	movq	$0, -240(%rbp)
	leaq	l___unnamed_23(%rip), %rax
Ltmp699:
	movq	%rax, -224(%rbp)
	movq	$0, -216(%rbp)
	leaq	-256(%rbp), %rdi
Ltmp700:
	.loc	26 82 9
	callq	__ZN3std2io5stdio6_print17hdea2154009b9e479E
Ltmp701:
LBB23_174:
	.loc	26 84 2
	addq	$600, %rsp
	popq	%rbx
	popq	%r12
	popq	%r13
	popq	%r14
	popq	%r15
	popq	%rbp
	retq
LBB23_106:
Ltmp702:
	.loc	20 1430 9
	cmpq	$2, %r15
Ltmp703:
	jae	LBB23_108
Ltmp704:
LBB23_107:
	.loc	20 0 9 is_stmt 0
	movl	$13, %eax
	movq	%rax, -56(%rbp)
	xorl	%r15d, %r15d
Ltmp705:
	.loc	14 200 40 is_stmt 1
	testq	%rsi, %rsi
	.loc	14 200 9 is_stmt 0
	je	LBB23_123
Ltmp706:
LBB23_122:
	.loc	6 102 5 is_stmt 1
	movl	$1, %edx
	movq	%rbx, %rdi
	callq	___rust_dealloc
Ltmp707:
LBB23_123:
	.loc	3 178 1
	movq	-488(%rbp), %rdi
Ltmp708:
	.loc	14 532 16
	testq	%rdi, %rdi
Ltmp709:
	.loc	14 200 9
	je	LBB23_126
Ltmp710:
	.loc	3 0 0 is_stmt 0
	movq	-480(%rbp), %rsi
Ltmp711:
	.loc	14 200 9
	testq	%rsi, %rsi
	je	LBB23_126
Ltmp712:
	.loc	6 102 5 is_stmt 1
	movl	$1, %edx
	callq	___rust_dealloc
Ltmp713:
LBB23_126:
	.loc	26 27 9
	testl	%r15d, %r15d
	movb	-41(%rbp), %r15b
	leaq	-256(%rbp), %rbx
	movq	-56(%rbp), %rcx
	je	LBB23_140
	.loc	26 27 14 is_stmt 0
	addl	$-10, %ecx
	cmpl	$3, %ecx
	ja	LBB23_140
Ltmp714:
	.loc	26 0 14
	leaq	LJTI23_0(%rip), %rax
	movslq	(%rax,%rcx,4), %rcx
	addq	%rax, %rcx
	jmpq	*%rcx
LBB23_138:
	leaq	l___unnamed_31(%rip), %rax
	leaq	-512(%rbp), %rdi
Ltmp715:
	.loc	8 286 25 is_stmt 1
	testq	%r14, %r14
Ltmp716:
	.loc	26 27 21
	je	LBB23_141
	testq	%r12, %r12
	jne	LBB23_140
	jmp	LBB23_141
LBB23_108:
Ltmp717:
	.loc	26 0 21 is_stmt 0
	movl	$1, %r15d
Ltmp718:
	.loc	20 5863 12 is_stmt 1
	leaq	l___unnamed_32(%rip), %rax
Ltmp719:
	cmpq	%rax, %rbx
	.loc	20 5863 9 is_stmt 0
	je	LBB23_109
Ltmp720:
	.loc	20 5868 13 is_stmt 1
	movzwl	(%rbx), %eax
Ltmp721:
	cmpl	$12337, %eax
Ltmp722:
	.loc	20 1430 9
	je	LBB23_109
Ltmp723:
	.loc	20 5863 12
	leaq	l___unnamed_33(%rip), %rax
Ltmp724:
	cmpq	%rax, %rbx
	.loc	20 5863 9 is_stmt 0
	je	LBB23_112
Ltmp725:
	.loc	20 5868 13 is_stmt 1
	movzwl	(%rbx), %eax
Ltmp726:
	cmpl	$12593, %eax
Ltmp727:
	.loc	20 1430 9
	je	LBB23_112
Ltmp728:
	.loc	20 5863 12
	leaq	l___unnamed_34(%rip), %rax
Ltmp729:
	cmpq	%rax, %rbx
	.loc	20 5863 9 is_stmt 0
	je	LBB23_115
Ltmp730:
	.loc	20 5868 13 is_stmt 1
	movzwl	(%rbx), %eax
Ltmp731:
	cmpl	$12849, %eax
Ltmp732:
	.loc	20 1430 9
	je	LBB23_115
Ltmp733:
	.loc	20 5863 12
	leaq	l___unnamed_35(%rip), %rax
Ltmp734:
	cmpq	%rax, %rbx
	.loc	20 5863 9 is_stmt 0
	je	LBB23_119
Ltmp735:
	.loc	20 5868 13 is_stmt 1
	movzwl	(%rbx), %eax
Ltmp736:
	cmpl	$13105, %eax
Ltmp737:
	.loc	20 1430 9
	jne	LBB23_107
Ltmp738:
LBB23_119:
	.loc	20 0 9 is_stmt 0
	movl	$13, %eax
	movq	%rax, -56(%rbp)
Ltmp739:
	.loc	14 200 40 is_stmt 1
	testq	%rsi, %rsi
	.loc	14 200 9 is_stmt 0
	jne	LBB23_122
	jmp	LBB23_123
Ltmp740:
LBB23_109:
	.loc	14 0 9
	movl	$10, %eax
	movq	%rax, -56(%rbp)
Ltmp741:
	.loc	14 200 40
	testq	%rsi, %rsi
	.loc	14 200 9
	jne	LBB23_122
	jmp	LBB23_123
Ltmp742:
LBB23_144:
	.loc	8 286 25 is_stmt 1
	testq	%r12, %r12
Ltmp743:
	.loc	26 31 21
	jne	LBB23_140
Ltmp744:
	.loc	26 0 21 is_stmt 0
	leaq	l___unnamed_36(%rip), %rax
	leaq	-512(%rbp), %rdi
	jmp	LBB23_148
LBB23_146:
Ltmp745:
	.loc	8 286 25 is_stmt 1
	testq	%r12, %r12
Ltmp746:
	.loc	26 32 21
	jne	LBB23_140
Ltmp747:
	.loc	26 0 21 is_stmt 0
	leaq	l___unnamed_37(%rip), %rax
	leaq	-256(%rbp), %rdi
	jmp	LBB23_148
LBB23_142:
Ltmp748:
	.loc	8 286 25 is_stmt 1
	testq	%r12, %r12
Ltmp749:
	.loc	26 30 21
	jne	LBB23_140
	.loc	26 0 21 is_stmt 0
	leaq	l___unnamed_25(%rip), %rax
	leaq	-328(%rbp), %rdi
LBB23_148:
	movq	%rax, (%rdi)
	movq	$1, 8(%rdi)
	movq	$0, 16(%rdi)
	leaq	l___unnamed_23(%rip), %rax
	movq	%rax, 32(%rdi)
	movq	$0, 40(%rdi)
	callq	__ZN3std2io5stdio6_print17hdea2154009b9e479E
	movq	-64(%rbp), %rbx
LBB23_149:
Ltmp750:
	.loc	12 328 9 is_stmt 1
	leaq	l___unnamed_38(%rip), %rax
Ltmp751:
	movq	%rax, -256(%rbp)
	movq	$1, -248(%rbp)
	movq	$0, -240(%rbp)
	leaq	l___unnamed_23(%rip), %rax
Ltmp752:
	movq	%rax, -224(%rbp)
	movq	$0, -216(%rbp)
	leaq	-256(%rbp), %rdi
Ltmp753:
	.loc	26 38 9
	callq	__ZN3std2io5stdio6_print17hdea2154009b9e479E
Ltmp754:
	.loc	26 0 9 is_stmt 0
	shrq	$32, %r13
Ltmp755:
	.loc	26 42 8 is_stmt 1
	cmpl	$14, %r13d
	.loc	26 42 5 is_stmt 0
	jbe	LBB23_151
Ltmp756:
LBB23_152:
	.loc	12 328 9 is_stmt 1
	leaq	l___unnamed_39(%rip), %rax
Ltmp757:
	movq	%rax, -256(%rbp)
	movq	$1, -248(%rbp)
	movq	$0, -240(%rbp)
	leaq	l___unnamed_23(%rip), %rax
Ltmp758:
	movq	%rax, -224(%rbp)
	movq	$0, -216(%rbp)
	leaq	-256(%rbp), %rdi
Ltmp759:
	.loc	26 43 9
	callq	__ZN3std2io5stdio6_print17hdea2154009b9e479E
Ltmp760:
	.loc	26 47 8
	cmpl	$18, %r13d
	.loc	26 47 5 is_stmt 0
	jbe	LBB23_154
Ltmp761:
LBB23_155:
	.loc	12 328 9 is_stmt 1
	leaq	l___unnamed_40(%rip), %rax
Ltmp762:
	movq	%rax, -256(%rbp)
	movq	$1, -248(%rbp)
	movq	$0, -240(%rbp)
	leaq	l___unnamed_23(%rip), %rax
Ltmp763:
	movq	%rax, -224(%rbp)
	movq	$0, -216(%rbp)
	leaq	-256(%rbp), %rdi
Ltmp764:
	.loc	26 48 9
	callq	__ZN3std2io5stdio6_print17hdea2154009b9e479E
Ltmp765:
	.loc	26 52 8
	cmpl	$23, %r13d
	.loc	26 52 5 is_stmt 0
	jbe	LBB23_157
Ltmp766:
LBB23_158:
	.loc	12 328 9 is_stmt 1
	leaq	l___unnamed_41(%rip), %rax
Ltmp767:
	movq	%rax, -256(%rbp)
	movq	$1, -248(%rbp)
	movq	$0, -240(%rbp)
	leaq	l___unnamed_23(%rip), %rax
Ltmp768:
	movq	%rax, -224(%rbp)
	movq	$0, -216(%rbp)
	leaq	-256(%rbp), %rdi
Ltmp769:
	.loc	26 53 9
	callq	__ZN3std2io5stdio6_print17hdea2154009b9e479E
Ltmp770:
	.loc	26 57 8
	cmpl	$24, %r13d
	jbe	LBB23_160
	jmp	LBB23_162
Ltmp771:
LBB23_112:
	.loc	26 0 8 is_stmt 0
	movl	$11, %eax
	movq	%rax, -56(%rbp)
Ltmp772:
	.loc	14 200 40 is_stmt 1
	testq	%rsi, %rsi
	.loc	14 200 9 is_stmt 0
	jne	LBB23_122
	jmp	LBB23_123
Ltmp773:
LBB23_115:
	.loc	14 0 9
	movl	$12, %eax
	movq	%rax, -56(%rbp)
Ltmp774:
	.loc	14 200 40
	testq	%rsi, %rsi
	.loc	14 200 9
	jne	LBB23_122
	jmp	LBB23_123
Ltmp775:
LBB23_7:
	.loc	3 178 1 is_stmt 1
	cmpb	$2, -320(%rbp)
	jb	LBB23_12
Ltmp776:
	.loc	3 178 1 is_stmt 0
	movq	-312(%rbp), %r14
Ltmp777:
	.loc	3 178 1
	movq	(%r14), %rdi
	movq	8(%r14), %rax
Ltmp476:
	callq	*(%rax)
Ltmp477:
Ltmp778:
	movq	8(%r14), %rax
Ltmp779:
	.loc	6 282 16 is_stmt 1
	movq	8(%rax), %rsi
Ltmp780:
	.loc	6 185 12
	testq	%rsi, %rsi
	.loc	6 185 9 is_stmt 0
	je	LBB23_11
Ltmp781:
	.loc	3 178 1 is_stmt 1
	movq	(%r14), %rdi
Ltmp782:
	.loc	6 283 17
	movq	16(%rax), %rdx
Ltmp783:
	.loc	6 102 5
	callq	___rust_dealloc
Ltmp784:
LBB23_11:
	.loc	6 102 5 is_stmt 0
	movl	$24, %esi
	movl	$8, %edx
	movq	%r14, %rdi
	callq	___rust_dealloc
Ltmp785:
LBB23_12:
Ltmp479:
	.loc	6 0 5
	leaq	-512(%rbp), %rdi
	.loc	26 97 75 is_stmt 1
	callq	__ZN4core3ptr13drop_in_place17h703bc1dfc5d4daddE
Ltmp480:
	jmp	LBB23_13
LBB23_29:
	.loc	26 0 75 is_stmt 0
	movq	%r13, %r15
LBB23_30:
Ltmp786:
	.loc	14 200 40 is_stmt 1
	cmpq	$0, -72(%rbp)
	.loc	14 200 9 is_stmt 0
	je	LBB23_32
Ltmp787:
	.loc	6 102 5 is_stmt 1
	movl	$1, %edx
	movq	%r12, %rdi
	movq	-72(%rbp), %rsi
	callq	___rust_dealloc
Ltmp788:
LBB23_32:
	.loc	14 532 16
	testq	%r15, %r15
Ltmp789:
	.loc	14 200 9
	je	LBB23_13
Ltmp790:
	cmpq	$0, -64(%rbp)
	je	LBB23_13
Ltmp791:
	.loc	6 102 5
	movl	$1, %edx
	movq	%r15, %rdi
	movq	-64(%rbp), %rsi
	callq	___rust_dealloc
Ltmp792:
LBB23_13:
	.loc	2 349 21
	leaq	l___unnamed_42(%rip), %rdi
Ltmp793:
	leaq	l___unnamed_43(%rip), %rdx
	movl	$27, %esi
	callq	__ZN4core6option13expect_failed17h68bd601d867bb8d1E
Ltmp794:
LBB23_93:
Ltmp473:
	.loc	7 10 9
	leaq	l___unnamed_4(%rip), %rdi
	leaq	l___unnamed_44(%rip), %rdx
	movl	$43, %esi
	callq	__ZN4core9panicking5panic17h736ee47a631475c0E
Ltmp474:
Ltmp795:
	.loc	7 0 9 is_stmt 0
	ud2
LBB23_181:
Ltmp796:
	.loc	26 80 13 is_stmt 1
	callq	__ZN3std9panicking11begin_panic17he6ad4b92376b2fa5E
Ltmp797:
LBB23_179:
Ltmp478:
	.loc	26 0 13 is_stmt 0
	movq	%rax, %r15
Ltmp798:
	.loc	3 178 1 is_stmt 1
	movq	(%r14), %rdi
	movq	8(%r14), %rsi
	callq	__ZN5alloc5alloc8box_free17h4a191d37e5dcdd6fE
Ltmp799:
	.loc	3 178 1 is_stmt 0
	movq	%r14, %rdi
	callq	__ZN5alloc5alloc8box_free17he611c60053e682b4E
	jmp	LBB23_75
Ltmp800:
LBB23_135:
Ltmp475:
	.loc	3 0 1
	movq	%rax, %r15
Ltmp801:
	leaq	-256(%rbp), %rdi
	jmp	LBB23_176
Ltmp802:
LBB23_73:
Ltmp481:
	movq	%rax, %r15
	movq	%r15, %rdi
	callq	__Unwind_Resume
	ud2
LBB23_180:
Ltmp803:
Ltmp463:
	movq	%rax, %r15
Ltmp804:
	.loc	3 178 1
	movq	(%rbx), %rdi
	movq	8(%rbx), %rsi
	callq	__ZN5alloc5alloc8box_free17h4a191d37e5dcdd6fE
Ltmp805:
	.loc	3 178 1
	movq	%rbx, %rdi
	callq	__ZN5alloc5alloc8box_free17he611c60053e682b4E
	jmp	LBB23_137
Ltmp806:
LBB23_134:
Ltmp472:
	.loc	3 0 1
	movq	%rax, %r15
Ltmp807:
	leaq	-584(%rbp), %rdi
	jmp	LBB23_133
Ltmp808:
LBB23_132:
Ltmp469:
	movq	%rax, %r15
	leaq	-512(%rbp), %rdi
LBB23_133:
Ltmp809:
	callq	__ZN4core3ptr13drop_in_place17hf401c3ebf6cf462bE
	.loc	26 144 1 is_stmt 1
	leaq	-488(%rbp), %rdi
	callq	__ZN4core3ptr13drop_in_place17hf401c3ebf6cf462bE
	movq	%r15, %rdi
	callq	__Unwind_Resume
	ud2
Ltmp810:
LBB23_175:
Ltmp466:
	.loc	26 0 1 is_stmt 0
	movq	%rax, %r15
Ltmp811:
	leaq	-328(%rbp), %rdi
Ltmp812:
LBB23_176:
	callq	__ZN4core3ptr13drop_in_place17h717b0a02b43c292eE
	movq	%r15, %rdi
	callq	__Unwind_Resume
	ud2
LBB23_136:
Ltmp460:
	movq	%rax, %r15
LBB23_137:
	leaq	-256(%rbp), %rdi
	.loc	26 122 77 is_stmt 1
	callq	__ZN4core3ptr13drop_in_place17h703bc1dfc5d4daddE
	movq	%r15, %rdi
	callq	__Unwind_Resume
	ud2
Ltmp813:
LBB23_178:
Ltmp436:
	.loc	26 0 77 is_stmt 0
	movq	%rax, %r15
Ltmp814:
	leaq	-608(%rbp), %rdi
Ltmp815:
	.loc	28 502 5 is_stmt 1
	callq	__ZN4core3ptr13drop_in_place17h5ce6d74ef0a281c2E
	movq	%r15, %rdi
	callq	__Unwind_Resume
	ud2
Ltmp816:
LBB23_74:
Ltmp441:
	.loc	28 0 5 is_stmt 0
	movq	%rax, %r15
LBB23_75:
	leaq	-512(%rbp), %rdi
	.loc	26 97 75 is_stmt 1
	callq	__ZN4core3ptr13drop_in_place17h703bc1dfc5d4daddE
	movq	%r15, %rdi
	callq	__Unwind_Resume
	ud2
LBB23_77:
Ltmp457:
	.loc	26 0 75 is_stmt 0
	jmp	LBB23_78
LBB23_76:
Ltmp817:
Ltmp454:
LBB23_78:
	movq	%rax, %r15
Ltmp818:
	leaq	-584(%rbp), %rdi
	.loc	26 119 1 is_stmt 1
	callq	__ZN4core3ptr13drop_in_place17h29107596b921c161E
	movq	%r15, %rdi
	callq	__Unwind_Resume
	ud2
Ltmp819:
Lfunc_end23:
	.cfi_endproc
	.p2align	2, 0x90
	.data_region jt32
.set L23_0_set_138, LBB23_138-LJTI23_0
.set L23_0_set_142, LBB23_142-LJTI23_0
.set L23_0_set_144, LBB23_144-LJTI23_0
.set L23_0_set_146, LBB23_146-LJTI23_0
LJTI23_0:
	.long	L23_0_set_138
	.long	L23_0_set_142
	.long	L23_0_set_144
	.long	L23_0_set_146
	.end_data_region
	.section	__TEXT,__gcc_except_tab
	.p2align	2
GCC_except_table23:
Lexception3:
	.byte	255
	.byte	255
	.byte	1
	.uleb128 Lcst_end3-Lcst_begin3
Lcst_begin3:
	.uleb128 Lfunc_begin23-Lfunc_begin23
	.uleb128 Ltmp434-Lfunc_begin23
	.byte	0
	.byte	0
	.uleb128 Ltmp434-Lfunc_begin23
	.uleb128 Ltmp435-Ltmp434
	.uleb128 Ltmp436-Lfunc_begin23
	.byte	0
	.uleb128 Ltmp435-Lfunc_begin23
	.uleb128 Ltmp437-Ltmp435
	.byte	0
	.byte	0
	.uleb128 Ltmp437-Lfunc_begin23
	.uleb128 Ltmp440-Ltmp437
	.uleb128 Ltmp441-Lfunc_begin23
	.byte	0
	.uleb128 Ltmp442-Lfunc_begin23
	.uleb128 Ltmp451-Ltmp442
	.uleb128 Ltmp457-Lfunc_begin23
	.byte	0
	.uleb128 Ltmp452-Lfunc_begin23
	.uleb128 Ltmp453-Ltmp452
	.uleb128 Ltmp454-Lfunc_begin23
	.byte	0
	.uleb128 Ltmp455-Lfunc_begin23
	.uleb128 Ltmp456-Ltmp455
	.uleb128 Ltmp457-Lfunc_begin23
	.byte	0
	.uleb128 Ltmp456-Lfunc_begin23
	.uleb128 Ltmp458-Ltmp456
	.byte	0
	.byte	0
	.uleb128 Ltmp458-Lfunc_begin23
	.uleb128 Ltmp459-Ltmp458
	.uleb128 Ltmp460-Lfunc_begin23
	.byte	0
	.uleb128 Ltmp461-Lfunc_begin23
	.uleb128 Ltmp462-Ltmp461
	.uleb128 Ltmp463-Lfunc_begin23
	.byte	0
	.uleb128 Ltmp464-Lfunc_begin23
	.uleb128 Ltmp465-Ltmp464
	.uleb128 Ltmp466-Lfunc_begin23
	.byte	0
	.uleb128 Ltmp467-Lfunc_begin23
	.uleb128 Ltmp468-Ltmp467
	.uleb128 Ltmp469-Lfunc_begin23
	.byte	0
	.uleb128 Ltmp470-Lfunc_begin23
	.uleb128 Ltmp471-Ltmp470
	.uleb128 Ltmp472-Lfunc_begin23
	.byte	0
	.uleb128 Ltmp471-Lfunc_begin23
	.uleb128 Ltmp476-Ltmp471
	.byte	0
	.byte	0
	.uleb128 Ltmp476-Lfunc_begin23
	.uleb128 Ltmp477-Ltmp476
	.uleb128 Ltmp478-Lfunc_begin23
	.byte	0
	.uleb128 Ltmp479-Lfunc_begin23
	.uleb128 Ltmp480-Ltmp479
	.uleb128 Ltmp481-Lfunc_begin23
	.byte	0
	.uleb128 Ltmp480-Lfunc_begin23
	.uleb128 Ltmp473-Ltmp480
	.byte	0
	.byte	0
	.uleb128 Ltmp473-Lfunc_begin23
	.uleb128 Ltmp474-Ltmp473
	.uleb128 Ltmp475-Lfunc_begin23
	.byte	0
	.uleb128 Ltmp474-Lfunc_begin23
	.uleb128 Lfunc_end23-Ltmp474
	.byte	0
	.byte	0
Lcst_end3:
	.p2align	2

	.section	__TEXT,__text,regular,pure_instructions
	.globl	_main
	.p2align	4, 0x90
_main:
Lfunc_begin24:
	.cfi_startproc
	pushq	%rbp
	.cfi_def_cfa_offset 16
	.cfi_offset %rbp, -16
	movq	%rsp, %rbp
	.cfi_def_cfa_register %rbp
	subq	$16, %rsp
	movq	%rsi, %rcx
	movslq	%edi, %rdx
	leaq	__ZN18build_script_build4main17h1330e58d05a0eb7eE(%rip), %rax
	movq	%rax, -8(%rbp)
	leaq	l___unnamed_1(%rip), %rsi
	leaq	-8(%rbp), %rdi
	callq	__ZN3std2rt19lang_start_internal17hebefdaa8fd585aefE
	addq	$16, %rsp
	popq	%rbp
	retq
Lfunc_end24:
	.cfi_endproc

	.section	__TEXT,__const
l___unnamed_45:
	.ascii	"/rustc/a74d1862d4d87a56244958416fd05976c58ca1a8/src/liballoc/collections/btree/map.rs"

	.section	__DATA,__const
	.p2align	3
l___unnamed_5:
	.quad	l___unnamed_45
	.asciz	"U\000\000\000\000\000\000\000C\006\000\000\033\000\000"

	.p2align	3
l___unnamed_1:
	.quad	__ZN4core3ptr13drop_in_place17h50ab6a7394a78639E
	.quad	8
	.quad	8
	.quad	__ZN3std2rt10lang_start28_$u7b$$u7b$closure$u7d$$u7d$17h7b28980c9cbbe685E
	.quad	__ZN3std2rt10lang_start28_$u7b$$u7b$closure$u7d$$u7d$17h7b28980c9cbbe685E
	.quad	__ZN4core3ops8function6FnOnce40call_once$u7b$$u7b$vtable.shim$u7d$$u7d$17h391adb54085aca0eE

	.p2align	3
l___unnamed_2:
	.quad	__ZN4core3ptr13drop_in_place17h50ab6a7394a78639E
	.quad	16
	.quad	8
	.quad	__ZN91_$LT$std..panicking..begin_panic..PanicPayload$LT$A$GT$$u20$as$u20$core..panic..BoxMeUp$GT$8take_box17h67ea3b282d660789E
	.quad	__ZN91_$LT$std..panicking..begin_panic..PanicPayload$LT$A$GT$$u20$as$u20$core..panic..BoxMeUp$GT$3get17h835052256563f2a5E

	.section	__TEXT,__const
l___unnamed_46:
	.ascii	"/rustc/a74d1862d4d87a56244958416fd05976c58ca1a8/src/libcore/macros/mod.rs"

	.section	__DATA,__const
	.p2align	3
l___unnamed_10:
	.quad	l___unnamed_46
	.asciz	"I\000\000\000\000\000\000\000\020\000\000\000\t\000\000"

	.section	__TEXT,__const
l___unnamed_4:
	.ascii	"called `Option::unwrap()` on a `None` value"

l___unnamed_47:
	.ascii	"internal error: entered unreachable code: "

	.section	__DATA,__const
	.p2align	3
l___unnamed_9:
	.quad	l___unnamed_47
	.asciz	"*\000\000\000\000\000\000"

	.section	__TEXT,__const
l___unnamed_48:
	.ascii	"BTreeMap has different depths"

	.section	__DATA,__const
	.p2align	3
l___unnamed_8:
	.quad	l___unnamed_48
	.asciz	"\035\000\000\000\000\000\000"

	.section	__TEXT,__const
l___unnamed_49:
	.ascii	"/rustc/a74d1862d4d87a56244958416fd05976c58ca1a8/src/libcore/str/pattern.rs"

	.section	__DATA,__const
	.p2align	3
l___unnamed_11:
	.quad	l___unnamed_49
	.asciz	"J\000\000\000\000\000\000\000\213\001\000\000&\000\000"

	.p2align	3
l___unnamed_3:
	.quad	__ZN4core3ptr13drop_in_place17h50ab6a7394a78639E
	.quad	16
	.quad	8
	.quad	__ZN36_$LT$T$u20$as$u20$core..any..Any$GT$7type_id17ha59333ca60bcdcd4E

	.section	__TEXT,__const
l___unnamed_42:
	.ascii	"Failed to get rustc version"

l___unnamed_50:
	.ascii	"/Users/yingyuhang/.cargo/registry/src/github.com-1ecc6299db9ec823/libc-0.2.71/build.rs"

	.section	__DATA,__const
	.p2align	3
l___unnamed_43:
	.quad	l___unnamed_50
	.asciz	"V\000\000\000\000\000\000\000\007\000\000\000\t\000\000"

	.section	__TEXT,__const
l___unnamed_17:
	.ascii	"CARGO_FEATURE_RUSTC_DEP_OF_STD"

l___unnamed_18:
	.ascii	"CARGO_FEATURE_ALIGN"

l___unnamed_19:
	.ascii	"CARGO_FEATURE_CONST_EXTERN_FN"

l___unnamed_20:
	.ascii	"LIBC_CI"

l___unnamed_21:
	.ascii	"CARGO_FEATURE_USE_STD"

l___unnamed_51:
	.ascii	"cargo:warning=\"libc's use_std cargo feature is deprecated since libc 0.2.55; please consider using the `std` cargo feature instead\"\n"

	.section	__DATA,__const
	.p2align	3
l___unnamed_22:
	.quad	l___unnamed_51
	.asciz	"\204\000\000\000\000\000\000"

	.section	__TEXT,__const
	.p2align	3
l___unnamed_23:
	.byte	0

l___unnamed_52:
	.ascii	"cargo:rustc-cfg=freebsd13\n"

	.section	__DATA,__const
	.p2align	3
l___unnamed_37:
	.quad	l___unnamed_52
	.asciz	"\032\000\000\000\000\000\000"

	.section	__TEXT,__const
l___unnamed_53:
	.ascii	"cargo:rustc-cfg=freebsd12\n"

	.section	__DATA,__const
	.p2align	3
l___unnamed_36:
	.quad	l___unnamed_53
	.asciz	"\032\000\000\000\000\000\000"

	.section	__TEXT,__const
l___unnamed_54:
	.ascii	"cargo:rustc-cfg=freebsd11\n"

	.section	__DATA,__const
	.p2align	3
l___unnamed_25:
	.quad	l___unnamed_54
	.asciz	"\032\000\000\000\000\000\000"

	.section	__TEXT,__const
l___unnamed_55:
	.ascii	"cargo:rustc-cfg=freebsd10\n"

	.section	__DATA,__const
	.p2align	3
l___unnamed_31:
	.quad	l___unnamed_55
	.asciz	"\032\000\000\000\000\000\000"

	.section	__TEXT,__const
l___unnamed_56:
	.ascii	"cargo:rustc-cfg=libc_deny_warnings\n"

	.section	__DATA,__const
	.p2align	3
l___unnamed_38:
	.quad	l___unnamed_56
	.asciz	"#\000\000\000\000\000\000"

	.section	__TEXT,__const
l___unnamed_57:
	.ascii	"cargo:rustc-cfg=libc_priv_mod_use\n"

	.section	__DATA,__const
	.p2align	3
l___unnamed_39:
	.quad	l___unnamed_57
	.asciz	"\"\000\000\000\000\000\000"

	.section	__TEXT,__const
l___unnamed_58:
	.ascii	"cargo:rustc-cfg=libc_union\n"

	.section	__DATA,__const
	.p2align	3
l___unnamed_40:
	.quad	l___unnamed_58
	.asciz	"\033\000\000\000\000\000\000"

	.section	__TEXT,__const
l___unnamed_59:
	.ascii	"cargo:rustc-cfg=libc_const_size_of\n"

	.section	__DATA,__const
	.p2align	3
l___unnamed_41:
	.quad	l___unnamed_59
	.asciz	"#\000\000\000\000\000\000"

	.section	__TEXT,__const
l___unnamed_60:
	.ascii	"cargo:rustc-cfg=libc_align\n"

	.section	__DATA,__const
	.p2align	3
l___unnamed_26:
	.quad	l___unnamed_60
	.asciz	"\033\000\000\000\000\000\000"

	.section	__TEXT,__const
l___unnamed_61:
	.ascii	"cargo:rustc-cfg=libc_core_cvoid\n"

	.section	__DATA,__const
	.p2align	3
l___unnamed_27:
	.quad	l___unnamed_61
	.asciz	" \000\000\000\000\000\000"

	.section	__TEXT,__const
l___unnamed_62:
	.ascii	"cargo:rustc-cfg=libc_packedN\n"

	.section	__DATA,__const
	.p2align	3
l___unnamed_28:
	.quad	l___unnamed_62
	.asciz	"\035\000\000\000\000\000\000"

	.section	__TEXT,__const
l___unnamed_63:
	.ascii	"cargo:rustc-cfg=libc_thread_local\n"

	.section	__DATA,__const
	.p2align	3
l___unnamed_29:
	.quad	l___unnamed_63
	.asciz	"\"\000\000\000\000\000\000"

	.section	__TEXT,__const
l___unnamed_6:
	.ascii	"const-extern-fn requires a nightly compiler >= 1.40"

	.section	__DATA,__const
	.p2align	3
l___unnamed_7:
	.quad	l___unnamed_50
	.asciz	"V\000\000\000\000\000\000\000P\000\000\000\r\000\000"

	.section	__TEXT,__const
l___unnamed_64:
	.ascii	"cargo:rustc-cfg=libc_const_extern_fn\n"

	.section	__DATA,__const
	.p2align	3
l___unnamed_30:
	.quad	l___unnamed_64
	.asciz	"%\000\000\000\000\000\000"

	.section	__TEXT,__const
l___unnamed_12:
	.ascii	"RUSTC"

l___unnamed_13:
	.ascii	"--version"

l___unnamed_14:
	.ascii	"rustc 1"

l___unnamed_15:
	.ascii	"dev"

l___unnamed_16:
	.ascii	"nightly"

l___unnamed_24:
	.ascii	"freebsd-version"

	.section	__DATA,__const
	.p2align	3
l___unnamed_44:
	.quad	l___unnamed_50
	.asciz	"V\000\000\000\000\000\000\000~\000\000\000\022\000\000"

	.section	__TEXT,__const
l___unnamed_32:
	.ascii	"10"

l___unnamed_33:
	.space	2,49

l___unnamed_34:
	.ascii	"12"

l___unnamed_35:
	.ascii	"13"

	.section	__DATA,__const
Lsec_end0:
	.section	__TEXT,__text,regular,pure_instructions
Lsec_end1: