	.section	__TEXT,__text,regular,pure_instructions
	.macosx_version_min 10, 7
	.p2align	4, 0x90
__ZN112_$LT$alloc..collections..btree..map..IntoIter$LT$K$C$V$GT$$u20$as$u20$core..iter..traits..iterator..Iterator$GT$4next17h3f794e2c7b35518aE:
Lfunc_begin0:
	.file	1 "/rustc/a74d1862d4d87a56244958416fd05976c58ca1a8/src/liballoc/collections/btree/map.rs"
	.loc	1 1598 0
	.cfi_startproc
	pushq	%rbp
	.cfi_def_cfa_offset 16
	.cfi_offset %rbp, -16
	movq	%rsp, %rbp
	.cfi_def_cfa_register %rbp
	pushq	%r15
	pushq	%r14
	pushq	%r13
	pushq	%r12
	pushq	%rbx
	subq	$120, %rsp
	.cfi_offset %rbx, -56
	.cfi_offset %r12, -48
	.cfi_offset %r13, -40
	.cfi_offset %r14, -32
	.cfi_offset %r15, -24
	movq	%rdi, %r9
Ltmp0:
	.loc	1 1599 12 prologue_end
	movq	64(%rsi), %rax
	testq	%rax, %rax
	.loc	1 1599 9 is_stmt 0
	je	LBB0_21
Ltmp1:
	.loc	1 0 9
	movq	%rsi, %r12
Ltmp2:
	.loc	1 1602 13 is_stmt 1
	decq	%rax
	movq	%rax, 64(%rsi)
Ltmp3:
	.file	2 "/rustc/a74d1862d4d87a56244958416fd05976c58ca1a8/src/libcore/option.rs"
	.loc	2 291 13
	movq	8(%rsi), %rax
	testq	%rax, %rax
	cmoveq	%rax, %r12
Ltmp4:
	.loc	2 387 13
	je	LBB0_23
Ltmp5:
	.file	3 "/rustc/a74d1862d4d87a56244958416fd05976c58ca1a8/src/libcore/ptr/mod.rs"
	.loc	3 651 5
	movq	(%r12), %rax
Ltmp6:
	movq	8(%r12), %rdi
Ltmp7:
	movq	16(%r12), %r10
Ltmp8:
	movq	24(%r12), %r13
Ltmp9:
	.file	4 "/rustc/a74d1862d4d87a56244958416fd05976c58ca1a8/src/liballoc/collections/btree/node.rs"
	.loc	4 293 9
	movzwl	10(%rdi), %ecx
Ltmp10:
	.loc	4 814 12
	cmpq	%rcx, %r13
	.loc	4 814 9 is_stmt 0
	jae	LBB0_4
Ltmp11:
	.file	5 "/rustc/a74d1862d4d87a56244958416fd05976c58ca1a8/src/liballoc/collections/btree/navigate.rs"
	.loc	5 0 0
	movq	%rax, %rbx
Ltmp12:
	jmp	LBB0_10
Ltmp13:
LBB0_21:
	.loc	1 1600 13 is_stmt 1
	movq	$0, (%r9)
	jmp	LBB0_22
Ltmp14:
LBB0_4:
	.loc	1 0 13 is_stmt 0
	movq	%r10, -48(%rbp)
Ltmp15:
	movq	%r9, -56(%rbp)
	movl	$544, %r15d
Ltmp16:
	.loc	4 344 30 is_stmt 1
	movq	(%rdi), %r14
Ltmp17:
	.loc	4 345 16
	testq	%r14, %r14
	je	LBB0_6
Ltmp18:
	.p2align	4, 0x90
LBB0_7:
	.loc	4 348 29
	leaq	1(%rax), %rbx
Ltmp19:
	.loc	4 353 43
	movzwl	8(%rdi), %r13d
Ltmp20:
LBB0_8:
	.loc	4 397 16
	testq	%rax, %rax
	.loc	4 397 13 is_stmt 0
	movl	$640, %esi
	cmoveq	%r15, %rsi
Ltmp21:
	.file	6 "/rustc/a74d1862d4d87a56244958416fd05976c58ca1a8/src/liballoc/alloc.rs"
	.loc	6 102 5 is_stmt 1
	movl	$8, %edx
	callq	___rust_dealloc
Ltmp22:
	.loc	4 293 9
	movzwl	10(%r14), %ecx
	movq	%rbx, %rax
	movq	%r14, %rdi
Ltmp23:
	.loc	4 814 12
	cmpq	%rcx, %r13
	.loc	4 814 9 is_stmt 0
	jb	LBB0_9
Ltmp24:
	.loc	4 344 30 is_stmt 1
	movq	(%rdi), %r14
Ltmp25:
	.loc	4 345 16
	testq	%r14, %r14
	jne	LBB0_7
Ltmp26:
LBB0_6:
	.loc	4 0 16 is_stmt 0
	movq	%rax, %rbx
Ltmp27:
	xorl	%r14d, %r14d
Ltmp28:
	jmp	LBB0_8
Ltmp29:
LBB0_9:
	movq	%r14, %rdi
	movq	-56(%rbp), %r9
	movq	-48(%rbp), %r10
Ltmp30:
LBB0_10:
	.loc	4 975 13 is_stmt 1
	leaq	(%r13,%r13,2), %rax
Ltmp31:
	.loc	3 651 5
	movq	32(%rdi,%rax,8), %rcx
	movq	%rcx, -64(%rbp)
	movq	16(%rdi,%rax,8), %rcx
	movq	24(%rdi,%rax,8), %rdx
	movq	%rdx, -72(%rbp)
	movq	%rcx, -80(%rbp)
Ltmp32:
	.loc	3 651 5 is_stmt 0
	movq	296(%rdi,%rax,8), %rcx
	movq	%rcx, -88(%rbp)
	movq	280(%rdi,%rax,8), %rcx
	movq	288(%rdi,%rax,8), %rax
	movq	%rax, -96(%rbp)
	movq	%rcx, -104(%rbp)
Ltmp33:
	.loc	4 680 12 is_stmt 1
	testq	%rbx, %rbx
Ltmp34:
	.loc	5 223 13
	je	LBB0_11
Ltmp35:
	.loc	4 680 12
	movq	%rbx, %rax
Ltmp36:
	.loc	4 963 17
	movq	552(%rdi,%r13,8), %rdi
Ltmp37:
	.loc	4 680 12
	decq	%rax
Ltmp38:
	.loc	5 199 17
	je	LBB0_13
Ltmp39:
	addq	$-2, %rbx
Ltmp40:
	movq	%rax, %rcx
	andq	$7, %rcx
	je	LBB0_18
Ltmp41:
	.loc	5 0 17 is_stmt 0
	xorl	%edx, %edx
Ltmp42:
	.p2align	4, 0x90
LBB0_16:
	movq	544(%rdi), %rdi
Ltmp43:
	.loc	5 199 17
	incq	%rdx
	cmpq	%rdx, %rcx
	jne	LBB0_16
Ltmp44:
	subq	%rdx, %rax
Ltmp45:
LBB0_18:
	.loc	5 0 17
	xorl	%r13d, %r13d
Ltmp46:
	.loc	5 199 17
	cmpq	$7, %rbx
	jb	LBB0_20
Ltmp47:
	.p2align	4, 0x90
LBB0_19:
	.loc	5 0 0
	movq	544(%rdi), %rcx
Ltmp48:
	movq	544(%rcx), %rcx
Ltmp49:
	movq	544(%rcx), %rcx
Ltmp50:
	movq	544(%rcx), %rcx
Ltmp51:
	movq	544(%rcx), %rcx
Ltmp52:
	movq	544(%rcx), %rcx
Ltmp53:
	movq	544(%rcx), %rcx
Ltmp54:
	movq	544(%rcx), %rdi
Ltmp55:
	.loc	4 680 12 is_stmt 1
	addq	$-8, %rax
Ltmp56:
	.loc	5 199 17
	jne	LBB0_19
	jmp	LBB0_20
Ltmp57:
LBB0_11:
	.loc	5 0 17 is_stmt 0
	incq	%r13
Ltmp58:
	jmp	LBB0_20
Ltmp59:
LBB0_13:
	xorl	%r13d, %r13d
Ltmp60:
LBB0_20:
	.loc	5 166 36 is_stmt 1
	movq	-64(%rbp), %r8
	movq	%r8, -136(%rbp)
	movq	-80(%rbp), %rcx
	movq	-72(%rbp), %rdx
	movq	%rdx, -144(%rbp)
	movq	%rcx, -152(%rbp)
	.loc	5 166 35 is_stmt 0
	movq	-104(%rbp), %rsi
	movq	-96(%rbp), %rbx
	movq	%rsi, -128(%rbp)
	movq	%rbx, -120(%rbp)
	movq	-88(%rbp), %rax
	movq	%rax, -112(%rbp)
	.loc	5 166 13
	movq	%rax, 40(%r9)
	movq	%rbx, 32(%r9)
	movq	%rsi, 24(%r9)
	movq	%r8, 16(%r9)
	movq	%rdx, 8(%r9)
	movq	%rcx, (%r9)
Ltmp61:
	.loc	3 836 42 is_stmt 1
	movq	$0, (%r12)
	movq	%rdi, 8(%r12)
	movq	%r10, 16(%r12)
	movq	%r13, 24(%r12)
Ltmp62:
LBB0_22:
	.loc	1 1605 6
	addq	$120, %rsp
	popq	%rbx
	popq	%r12
	popq	%r13
	popq	%r14
	popq	%r15
	popq	%rbp
	retq
LBB0_23:
Ltmp63:
	.file	7 "/rustc/a74d1862d4d87a56244958416fd05976c58ca1a8/src/libcore/macros/mod.rs"
	.loc	7 10 9
	leaq	l___unnamed_2(%rip), %rdi
	leaq	l___unnamed_3(%rip), %rdx
	movl	$43, %esi
	callq	__ZN4core9panicking5panic17h736ee47a631475c0E
Ltmp64:
Lfunc_end0:
	.cfi_endproc
	.file	8 "/rustc/a74d1862d4d87a56244958416fd05976c58ca1a8/src/libcore/result.rs"

	.private_extern	__ZN3std2rt10lang_start17he3bd0ca838dddac1E
	.globl	__ZN3std2rt10lang_start17he3bd0ca838dddac1E
	.p2align	4, 0x90
__ZN3std2rt10lang_start17he3bd0ca838dddac1E:
Lfunc_begin1:
	.file	9 "/rustc/a74d1862d4d87a56244958416fd05976c58ca1a8/src/libstd/rt.rs"
	.loc	9 62 0
	.cfi_startproc
	pushq	%rbp
	.cfi_def_cfa_offset 16
	.cfi_offset %rbp, -16
	movq	%rsp, %rbp
	.cfi_def_cfa_register %rbp
	subq	$16, %rsp
	movq	%rdx, %rcx
Ltmp65:
	movq	%rsi, %rdx
Ltmp66:
	.loc	9 67 26 prologue_end
	movq	%rdi, -8(%rbp)
	.loc	9 67 5 is_stmt 0
	leaq	l___unnamed_1(%rip), %rsi
	leaq	-8(%rbp), %rdi
Ltmp67:
	callq	__ZN3std2rt19lang_start_internal17hebefdaa8fd585aefE
Ltmp68:
	.loc	9 68 2 is_stmt 1
	addq	$16, %rsp
	popq	%rbp
	retq
Ltmp69:
Lfunc_end1:
	.cfi_endproc

	.p2align	4, 0x90
__ZN3std2rt10lang_start28_$u7b$$u7b$closure$u7d$$u7d$17h672d320b5e399309E:
Lfunc_begin2:
	.loc	9 67 0
	.cfi_startproc
	pushq	%rbp
	.cfi_def_cfa_offset 16
	.cfi_offset %rbp, -16
	movq	%rsp, %rbp
	.cfi_def_cfa_register %rbp
Ltmp70:
	.loc	9 67 34 prologue_end
	callq	*(%rdi)
Ltmp71:
	.loc	9 67 49 is_stmt 0
	xorl	%eax, %eax
	popq	%rbp
	retq
Ltmp72:
Lfunc_end2:
	.cfi_endproc

	.p2align	4, 0x90
__ZN44_$LT$$RF$T$u20$as$u20$core..fmt..Display$GT$3fmt17hc8df986b873136a5E:
Lfunc_begin3:
	.file	10 "/rustc/a74d1862d4d87a56244958416fd05976c58ca1a8/src/libcore/fmt/mod.rs"
	.loc	10 1973 0 is_stmt 1
	.cfi_startproc
	pushq	%rbp
	.cfi_def_cfa_offset 16
	.cfi_offset %rbp, -16
	movq	%rsp, %rbp
	.cfi_def_cfa_register %rbp
	movq	%rsi, %rdx
Ltmp73:
	.loc	10 1973 71 prologue_end
	movq	(%rdi), %rax
	movq	8(%rdi), %rsi
	.loc	10 1973 62 is_stmt 0
	movq	%rax, %rdi
Ltmp74:
	popq	%rbp
	jmp	__ZN42_$LT$str$u20$as$u20$core..fmt..Display$GT$3fmt17hd4dee1c1c4ccf892E
Ltmp75:
Lfunc_end3:
	.cfi_endproc

	.p2align	4, 0x90
__ZN4core3ops8function6FnOnce40call_once$u7b$$u7b$vtable.shim$u7d$$u7d$17h1785c96eda2150b0E:
Lfunc_begin4:
	.file	11 "/rustc/a74d1862d4d87a56244958416fd05976c58ca1a8/src/libcore/ops/function.rs"
	.loc	11 232 0 is_stmt 1
	.cfi_startproc
	pushq	%rbp
	.cfi_def_cfa_offset 16
	.cfi_offset %rbp, -16
	movq	%rsp, %rbp
	.cfi_def_cfa_register %rbp
Ltmp76:
	.loc	9 67 34 prologue_end
	callq	*(%rdi)
Ltmp77:
	.loc	11 232 5
	xorl	%eax, %eax
	popq	%rbp
	retq
Ltmp78:
Lfunc_end4:
	.cfi_endproc

	.p2align	4, 0x90
__ZN4core3ptr13drop_in_place17h098792f8d9e52fa8E:
Lfunc_begin5:
	.loc	3 178 0
	.cfi_startproc
	.cfi_personality 155, _rust_eh_personality
	.cfi_lsda 16, Lexception0
	pushq	%rbp
	.cfi_def_cfa_offset 16
	.cfi_offset %rbp, -16
	movq	%rsp, %rbp
	.cfi_def_cfa_register %rbp
	pushq	%r15
	pushq	%r14
	pushq	%r13
	pushq	%r12
	pushq	%rbx
	pushq	%rax
	.cfi_offset %rbx, -56
	.cfi_offset %r12, -48
	.cfi_offset %r13, -40
	.cfi_offset %r14, -32
	.cfi_offset %r15, -24
	movq	%rdi, %r14
Ltmp85:
	.file	12 "/rustc/a74d1862d4d87a56244958416fd05976c58ca1a8/src/liballoc/vec.rs"
	.loc	12 850 19 prologue_end
	movq	(%rdi), %rbx
Ltmp86:
	.loc	12 2384 81
	movq	16(%rdi), %r12
Ltmp87:
	.loc	3 178 1
	testq	%r12, %r12
	je	LBB5_7
Ltmp88:
	.loc	3 0 0 is_stmt 0
	shlq	$4, %r12
Ltmp89:
	leaq	(%rbx,%r12), %r15
Ltmp90:
	.loc	3 178 1
	addq	$-16, %r12
	addq	$16, %rbx
Ltmp91:
	.loc	3 0 1
	jmp	LBB5_2
Ltmp92:
	.p2align	4, 0x90
LBB5_5:
	.loc	3 178 1
	addq	$-16, %r12
	addq	$16, %rbx
	addq	$16, %r13
	cmpq	%r15, %r13
	je	LBB5_6
Ltmp93:
LBB5_2:
	.loc	3 178 1
	movq	-16(%rbx), %rdi
	movq	-8(%rbx), %rax
Ltmp79:
	callq	*(%rax)
Ltmp80:
Ltmp94:
	leaq	-16(%rbx), %r13
	movq	8(%r13), %rax
Ltmp95:
	.loc	6 282 16 is_stmt 1
	movq	8(%rax), %rsi
Ltmp96:
	.loc	6 185 12
	testq	%rsi, %rsi
	.loc	6 185 9 is_stmt 0
	je	LBB5_5
Ltmp97:
	.loc	3 178 1 is_stmt 1
	movq	-16(%rbx), %rdi
Ltmp98:
	.loc	6 283 17
	movq	16(%rax), %rdx
Ltmp99:
	.loc	6 102 5
	callq	___rust_dealloc
Ltmp100:
	.loc	6 0 5 is_stmt 0
	jmp	LBB5_5
Ltmp101:
LBB5_6:
	.loc	3 178 1 is_stmt 1
	movq	(%r14), %rbx
Ltmp102:
LBB5_7:
	movq	8(%r14), %rsi
Ltmp103:
	.file	13 "/rustc/a74d1862d4d87a56244958416fd05976c58ca1a8/src/liballoc/raw_vec.rs"
	.loc	13 200 40
	testq	%rsi, %rsi
	.loc	13 200 9 is_stmt 0
	je	LBB5_14
Ltmp104:
	.loc	13 532 16 is_stmt 1
	testq	%rbx, %rbx
Ltmp105:
	je	LBB5_14
Ltmp106:
	.loc	13 0 0 is_stmt 0
	shlq	$4, %rsi
Ltmp107:
	.loc	13 532 16
	je	LBB5_14
Ltmp108:
	.loc	6 102 5 is_stmt 1
	movl	$8, %edx
	movq	%rbx, %rdi
	addq	$8, %rsp
	popq	%rbx
Ltmp109:
	popq	%r12
	popq	%r13
	popq	%r14
Ltmp110:
	popq	%r15
	popq	%rbp
	jmp	___rust_dealloc
Ltmp111:
LBB5_14:
	.loc	3 178 1
	addq	$8, %rsp
	popq	%rbx
	popq	%r12
	popq	%r13
	popq	%r14
Ltmp112:
	popq	%r15
	popq	%rbp
	retq
LBB5_11:
Ltmp113:
Ltmp81:
	.loc	3 0 1 is_stmt 0
	movq	%rax, %r15
Ltmp114:
	.loc	3 178 1
	movq	-16(%rbx), %rdi
	movq	-8(%rbx), %rsi
	callq	__ZN5alloc5alloc8box_free17h221118fb852a164aE
Ltmp115:
	.loc	3 178 1
	testq	%r12, %r12
	je	LBB5_16
Ltmp116:
	.p2align	4, 0x90
LBB5_12:
Ltmp82:
	movq	%rbx, %rdi
	callq	__ZN4core3ptr13drop_in_place17h3a55dc211a66ada8E
Ltmp83:
Ltmp117:
	addq	$16, %rbx
	addq	$-16, %r12
	jne	LBB5_12
	jmp	LBB5_16
Ltmp118:
LBB5_15:
Ltmp84:
	.loc	3 0 1
	movq	%rax, %r15
Ltmp119:
LBB5_16:
	.loc	3 178 1
	movq	(%r14), %rdi
	movq	8(%r14), %rsi
	callq	__ZN4core3ptr13drop_in_place17h25f056d6bcfdb913E
	movq	%r15, %rdi
	callq	__Unwind_Resume
	ud2
Ltmp120:
Lfunc_end5:
	.cfi_endproc
	.section	__TEXT,__gcc_except_tab
	.p2align	2
GCC_except_table5:
Lexception0:
	.byte	255
	.byte	255
	.byte	1
	.uleb128 Lcst_end0-Lcst_begin0
Lcst_begin0:
	.uleb128 Ltmp79-Lfunc_begin5
	.uleb128 Ltmp80-Ltmp79
	.uleb128 Ltmp81-Lfunc_begin5
	.byte	0
	.uleb128 Ltmp82-Lfunc_begin5
	.uleb128 Ltmp83-Ltmp82
	.uleb128 Ltmp84-Lfunc_begin5
	.byte	0
	.uleb128 Ltmp83-Lfunc_begin5
	.uleb128 Lfunc_end5-Ltmp83
	.byte	0
	.byte	0
Lcst_end0:
	.p2align	2

	.section	__TEXT,__text,regular,pure_instructions
	.p2align	4, 0x90
__ZN4core3ptr13drop_in_place17h25f056d6bcfdb913E:
Lfunc_begin6:
	.loc	3 178 0 is_stmt 1
	.cfi_startproc
	pushq	%rbp
	.cfi_def_cfa_offset 16
	.cfi_offset %rbp, -16
	movq	%rsp, %rbp
	.cfi_def_cfa_register %rbp
Ltmp121:
	.loc	13 200 40 prologue_end
	testq	%rsi, %rsi
	.loc	13 200 9 is_stmt 0
	je	LBB6_3
Ltmp122:
	.loc	13 532 16 is_stmt 1
	testq	%rdi, %rdi
Ltmp123:
	je	LBB6_3
Ltmp124:
	.loc	13 0 0 is_stmt 0
	shlq	$4, %rsi
Ltmp125:
	.loc	13 532 16
	je	LBB6_3
Ltmp126:
	.loc	6 102 5 is_stmt 1
	movl	$8, %edx
	popq	%rbp
	jmp	___rust_dealloc
Ltmp127:
LBB6_3:
	.loc	3 178 1
	popq	%rbp
	retq
Ltmp128:
Lfunc_end6:
	.cfi_endproc

	.p2align	4, 0x90
__ZN4core3ptr13drop_in_place17h2e42f34a344b8bd1E:
Lfunc_begin7:
	.loc	3 178 0
	.cfi_startproc
	.cfi_personality 155, _rust_eh_personality
	.cfi_lsda 16, Lexception1
	pushq	%rbp
	.cfi_def_cfa_offset 16
	.cfi_offset %rbp, -16
	movq	%rsp, %rbp
	.cfi_def_cfa_register %rbp
	pushq	%r15
	pushq	%r14
	pushq	%r13
	pushq	%r12
	pushq	%rbx
	subq	$120, %rsp
	.cfi_offset %rbx, -56
	.cfi_offset %r12, -48
	.cfi_offset %r13, -40
	.cfi_offset %r14, -32
	.cfi_offset %r15, -24
	movq	%rdi, %r14
Ltmp146:
	.file	14 "/rustc/a74d1862d4d87a56244958416fd05976c58ca1a8/src/libstd/ffi/c_str.rs"
	.loc	14 645 14 prologue_end
	movq	(%rdi), %rax
Ltmp147:
	.loc	14 645 13 is_stmt 0
	movb	$0, (%rax)
Ltmp148:
	.loc	3 178 1 is_stmt 1
	movq	8(%rdi), %rsi
Ltmp149:
	.loc	6 185 12
	testq	%rsi, %rsi
	.loc	6 185 9 is_stmt 0
	je	LBB7_2
Ltmp150:
	.loc	3 178 1 is_stmt 1
	movq	(%r14), %rdi
Ltmp151:
	.loc	6 102 5
	movl	$1, %edx
	callq	___rust_dealloc
Ltmp152:
LBB7_2:
	.loc	12 850 19
	movq	16(%r14), %rbx
Ltmp153:
	.loc	12 2384 81
	movq	32(%r14), %r15
Ltmp154:
	.loc	3 178 1
	testq	%r15, %r15
	je	LBB7_8
Ltmp155:
	shlq	$4, %r15
Ltmp156:
	addq	%rbx, %r15
	jmp	LBB7_4
Ltmp157:
	.p2align	4, 0x90
LBB7_6:
	addq	$16, %rbx
Ltmp158:
	cmpq	%r15, %rbx
	je	LBB7_7
Ltmp159:
LBB7_4:
	.loc	14 645 14
	movq	(%rbx), %rax
Ltmp160:
	.loc	14 645 13 is_stmt 0
	movb	$0, (%rax)
Ltmp161:
	.loc	3 178 1 is_stmt 1
	movq	8(%rbx), %rsi
Ltmp162:
	.loc	6 185 12
	testq	%rsi, %rsi
	.loc	6 185 9 is_stmt 0
	je	LBB7_6
Ltmp163:
	.loc	3 178 1 is_stmt 1
	movq	(%rbx), %rdi
Ltmp164:
	.loc	6 102 5
	movl	$1, %edx
	callq	___rust_dealloc
Ltmp165:
	.loc	6 0 5 is_stmt 0
	jmp	LBB7_6
Ltmp166:
LBB7_7:
	.loc	3 178 1 is_stmt 1
	movq	16(%r14), %rbx
Ltmp167:
LBB7_8:
	movq	24(%r14), %rsi
Ltmp168:
	.loc	13 200 40
	testq	%rsi, %rsi
	.loc	13 200 9 is_stmt 0
	je	LBB7_12
Ltmp169:
	.loc	13 532 16 is_stmt 1
	testq	%rbx, %rbx
Ltmp170:
	je	LBB7_12
Ltmp171:
	.loc	13 0 0 is_stmt 0
	shlq	$4, %rsi
Ltmp172:
	.loc	13 532 16
	je	LBB7_12
Ltmp173:
	.loc	6 102 5 is_stmt 1
	movl	$8, %edx
	movq	%rbx, %rdi
	callq	___rust_dealloc
Ltmp174:
LBB7_12:
	.loc	3 178 1
	movq	48(%r14), %rsi
Ltmp175:
	.loc	13 200 40
	testq	%rsi, %rsi
	.loc	13 200 9 is_stmt 0
	je	LBB7_16
Ltmp176:
	.loc	3 0 0
	movq	40(%r14), %rdi
Ltmp177:
	.loc	13 532 16 is_stmt 1
	testq	%rdi, %rdi
Ltmp178:
	je	LBB7_16
Ltmp179:
	.loc	13 0 0 is_stmt 0
	shlq	$3, %rsi
Ltmp180:
	.loc	13 532 16
	testq	%rsi, %rsi
	je	LBB7_16
Ltmp181:
	.loc	6 102 5 is_stmt 1
	movl	$8, %edx
	callq	___rust_dealloc
Ltmp182:
LBB7_16:
	.loc	3 178 1
	movq	64(%r14), %rcx
Ltmp183:
	.loc	1 1544 16
	testq	%rcx, %rcx
	je	LBB7_17
Ltmp184:
	.loc	3 0 0 is_stmt 0
	movq	72(%r14), %rdi
Ltmp185:
	movq	80(%r14), %rax
Ltmp186:
	.loc	4 293 9 is_stmt 1
	movzwl	10(%rcx), %edx
Ltmp187:
	.loc	4 680 12
	testq	%rdi, %rdi
Ltmp188:
	.loc	1 2136 14
	je	LBB7_32
Ltmp189:
	.loc	1 0 14 is_stmt 0
	movb	$1, %bl
	movq	%rcx, %rsi
Ltmp190:
	.p2align	4, 0x90
LBB7_36:
	.loc	1 2139 33 is_stmt 1
	testb	$1, %bl
	je	LBB7_33
Ltmp191:
	.loc	4 680 12
	cmpq	$1, %rdi
	setne	%bl
Ltmp192:
	.loc	4 963 17
	movq	544(%rcx), %rcx
Ltmp193:
	.loc	4 963 17 is_stmt 0
	movq	544(%rsi,%rdx,8), %rsi
Ltmp194:
	.loc	4 293 9 is_stmt 1
	movzwl	10(%rsi), %edx
Ltmp195:
	.loc	4 680 12
	decq	%rdi
Ltmp196:
	.loc	1 2136 14
	jne	LBB7_36
	jmp	LBB7_38
Ltmp197:
LBB7_17:
	.loc	1 1549 13
	movq	$0, -104(%rbp)
	movq	$0, -72(%rbp)
	xorl	%eax, %eax
	jmp	LBB7_39
Ltmp198:
LBB7_32:
	.loc	1 0 13 is_stmt 0
	movq	%rcx, %rsi
Ltmp199:
LBB7_38:
	.loc	1 1547 13 is_stmt 1
	movq	$0, -112(%rbp)
	movq	%rcx, -104(%rbp)
	movq	$0, -96(%rbp)
	movq	$0, -88(%rbp)
	movq	$0, -80(%rbp)
	movq	%rsi, -72(%rbp)
	movq	$0, -64(%rbp)
	movq	%rdx, -56(%rbp)
Ltmp200:
LBB7_39:
	.loc	1 0 0 is_stmt 0
	movq	%rax, -48(%rbp)
Ltmp201:
Ltmp131:
	leaq	-160(%rbp), %rdi
	leaq	-112(%rbp), %rsi
Ltmp202:
	.loc	1 1575 32 is_stmt 1
	callq	__ZN112_$LT$alloc..collections..btree..map..IntoIter$LT$K$C$V$GT$$u20$as$u20$core..iter..traits..iterator..Iterator$GT$4next17h3f794e2c7b35518aE
Ltmp132:
Ltmp203:
	.loc	1 1575 19 is_stmt 0
	movq	-160(%rbp), %rdi
	testq	%rdi, %rdi
	je	LBB7_50
Ltmp204:
	.loc	1 0 19
	leaq	-160(%rbp), %r15
	leaq	-112(%rbp), %r12
Ltmp205:
	.p2align	4, 0x90
LBB7_42:
	.loc	1 1575 24
	movq	-136(%rbp), %rbx
Ltmp206:
	movq	-128(%rbp), %r13
Ltmp207:
	.loc	13 532 16 is_stmt 1
	testq	%rdi, %rdi
Ltmp208:
	.loc	13 200 9
	je	LBB7_45
Ltmp209:
	.loc	1 0 0 is_stmt 0
	movq	-152(%rbp), %rsi
Ltmp210:
	.loc	13 200 9
	testq	%rsi, %rsi
	je	LBB7_45
Ltmp211:
	.loc	6 102 5 is_stmt 1
	movl	$1, %edx
	callq	___rust_dealloc
Ltmp212:
LBB7_45:
	.loc	3 178 1
	testq	%rbx, %rbx
Ltmp213:
	je	LBB7_48
Ltmp214:
	testq	%r13, %r13
	je	LBB7_48
Ltmp215:
	.loc	6 102 5
	movl	$1, %edx
	movq	%rbx, %rdi
	movq	%r13, %rsi
	callq	___rust_dealloc
Ltmp216:
LBB7_48:
Ltmp134:
	.loc	1 1575 32
	movq	%r15, %rdi
	movq	%r12, %rsi
	callq	__ZN112_$LT$alloc..collections..btree..map..IntoIter$LT$K$C$V$GT$$u20$as$u20$core..iter..traits..iterator..Iterator$GT$4next17h3f794e2c7b35518aE
Ltmp135:
Ltmp217:
	.loc	1 1575 19 is_stmt 0
	movq	-160(%rbp), %rdi
	testq	%rdi, %rdi
	jne	LBB7_42
Ltmp218:
LBB7_50:
	.loc	3 651 5 is_stmt 1
	movq	-104(%rbp), %rdi
Ltmp219:
	.loc	1 1582 20
	testq	%rdi, %rdi
	je	LBB7_27
Ltmp220:
	.loc	3 651 5
	movq	-112(%rbp), %rax
Ltmp221:
	.loc	3 0 5 is_stmt 0
	movl	$544, %r15d
Ltmp222:
	.p2align	4, 0x90
LBB7_52:
	.loc	4 344 30 is_stmt 1
	movq	(%rdi), %r12
Ltmp223:
	.loc	4 345 16
	xorl	%ebx, %ebx
	testq	%r12, %r12
	setne	%bl
	addq	%rax, %rbx
Ltmp224:
	.loc	4 397 16
	testq	%rax, %rax
	.loc	4 397 13 is_stmt 0
	movl	$640, %esi
	cmoveq	%r15, %rsi
Ltmp225:
	.loc	6 102 5 is_stmt 1
	movl	$8, %edx
	callq	___rust_dealloc
Ltmp226:
	.loc	1 0 0 is_stmt 0
	movq	%rbx, %rax
	movq	%r12, %rdi
Ltmp227:
	.loc	4 345 16 is_stmt 1
	testq	%r12, %r12
Ltmp228:
	.loc	1 1586 27
	jne	LBB7_52
Ltmp229:
LBB7_27:
	.loc	3 178 1
	movq	96(%r14), %rax
Ltmp230:
	testq	%rax, %rax
	je	LBB7_30
Ltmp231:
	.loc	14 645 13
	movb	$0, (%rax)
Ltmp232:
	.loc	3 178 1
	movq	104(%r14), %rsi
Ltmp233:
	.loc	6 185 12
	testq	%rsi, %rsi
	.loc	6 185 9 is_stmt 0
	je	LBB7_30
Ltmp234:
	.loc	3 178 1 is_stmt 1
	movq	96(%r14), %rdi
Ltmp235:
	.loc	6 102 5
	movl	$1, %edx
	callq	___rust_dealloc
Ltmp236:
LBB7_30:
	.loc	3 178 1
	leaq	112(%r14), %rdi
Ltmp137:
	callq	__ZN4core3ptr13drop_in_place17h098792f8d9e52fa8E
Ltmp138:
Ltmp237:
	.loc	3 178 1 is_stmt 0
	cmpl	$3, 152(%r14)
	jne	LBB7_23
Ltmp238:
	.loc	3 178 1
	leaq	156(%r14), %rdi
Ltmp239:
Ltmp140:
	.loc	3 178 1
	callq	__ZN70_$LT$std..sys..unix..fd..FileDesc$u20$as$u20$core..ops..drop..Drop$GT$4drop17hf5fce2bf4d9f8deaE
Ltmp240:
Ltmp141:
LBB7_23:
	.loc	3 178 1
	cmpl	$3, 160(%r14)
	jne	LBB7_21
Ltmp241:
	.loc	3 178 1
	leaq	164(%r14), %rdi
Ltmp242:
Ltmp143:
	.loc	3 178 1
	callq	__ZN70_$LT$std..sys..unix..fd..FileDesc$u20$as$u20$core..ops..drop..Drop$GT$4drop17hf5fce2bf4d9f8deaE
Ltmp243:
Ltmp144:
LBB7_21:
	.loc	3 178 1
	cmpl	$3, 168(%r14)
	jne	LBB7_59
Ltmp244:
	.loc	3 178 1
	addq	$172, %r14
Ltmp245:
	.loc	3 178 1
	movq	%r14, %rdi
	addq	$120, %rsp
	popq	%rbx
	popq	%r12
	popq	%r13
	popq	%r14
Ltmp246:
	popq	%r15
	popq	%rbp
	jmp	__ZN70_$LT$std..sys..unix..fd..FileDesc$u20$as$u20$core..ops..drop..Drop$GT$4drop17hf5fce2bf4d9f8deaE
Ltmp247:
LBB7_59:
	.loc	3 178 1
	addq	$120, %rsp
	popq	%rbx
	popq	%r12
	popq	%r13
	popq	%r14
Ltmp248:
	popq	%r15
	popq	%rbp
	retq
LBB7_33:
Ltmp249:
	.loc	7 16 38 is_stmt 1
	leaq	__ZN44_$LT$$RF$T$u20$as$u20$core..fmt..Display$GT$3fmt17hc8df986b873136a5E(%rip), %rax
Ltmp250:
	movq	%rax, %xmm0
	leaq	l___unnamed_4(%rip), %rax
	movq	%rax, %xmm1
	punpcklqdq	%xmm0, %xmm1
	movdqa	%xmm1, -160(%rbp)
Ltmp251:
	.loc	10 328 9
	leaq	l___unnamed_5(%rip), %rax
Ltmp252:
	movq	%rax, -112(%rbp)
	movq	$1, -104(%rbp)
	movq	$0, -96(%rbp)
	leaq	-160(%rbp), %rax
Ltmp253:
	movq	%rax, -80(%rbp)
	movq	$1, -72(%rbp)
Ltmp254:
Ltmp129:
	.loc	7 16 9
	leaq	l___unnamed_6(%rip), %rsi
	leaq	-112(%rbp), %rdi
Ltmp255:
	callq	__ZN4core9panicking9panic_fmt17hab6ef1464e9720aaE
Ltmp256:
Ltmp130:
	ud2
Ltmp257:
LBB7_58:
Ltmp145:
	.loc	7 0 9 is_stmt 0
	movq	%rax, %rbx
	jmp	LBB7_20
Ltmp258:
LBB7_18:
Ltmp142:
	movq	%rax, %rbx
	jmp	LBB7_19
Ltmp259:
LBB7_54:
Ltmp133:
	jmp	LBB7_55
Ltmp260:
LBB7_57:
Ltmp139:
	movq	%rax, %rbx
	jmp	LBB7_56
Ltmp261:
LBB7_53:
Ltmp136:
LBB7_55:
	movq	%rax, %rbx
	.loc	3 178 1 is_stmt 1
	leaq	96(%r14), %rdi
	callq	__ZN4core3ptr13drop_in_place17h58c3e51c8d581ccaE
	leaq	112(%r14), %rdi
	callq	__ZN4core3ptr13drop_in_place17h098792f8d9e52fa8E
Ltmp262:
LBB7_56:
	leaq	152(%r14), %rdi
	callq	__ZN4core3ptr13drop_in_place17hf5a4ec57d4d60d1bE
Ltmp263:
LBB7_19:
	leaq	160(%r14), %rdi
	callq	__ZN4core3ptr13drop_in_place17hf5a4ec57d4d60d1bE
Ltmp264:
LBB7_20:
	addq	$168, %r14
Ltmp265:
	movq	%r14, %rdi
	callq	__ZN4core3ptr13drop_in_place17hf5a4ec57d4d60d1bE
	movq	%rbx, %rdi
	callq	__Unwind_Resume
	ud2
Ltmp266:
Lfunc_end7:
	.cfi_endproc
	.file	15 "/rustc/a74d1862d4d87a56244958416fd05976c58ca1a8/src/libcore/mem/mod.rs"
	.section	__TEXT,__gcc_except_tab
	.p2align	2
GCC_except_table7:
Lexception1:
	.byte	255
	.byte	255
	.byte	1
	.uleb128 Lcst_end1-Lcst_begin1
Lcst_begin1:
	.uleb128 Ltmp131-Lfunc_begin7
	.uleb128 Ltmp132-Ltmp131
	.uleb128 Ltmp133-Lfunc_begin7
	.byte	0
	.uleb128 Ltmp134-Lfunc_begin7
	.uleb128 Ltmp135-Ltmp134
	.uleb128 Ltmp136-Lfunc_begin7
	.byte	0
	.uleb128 Ltmp137-Lfunc_begin7
	.uleb128 Ltmp138-Ltmp137
	.uleb128 Ltmp139-Lfunc_begin7
	.byte	0
	.uleb128 Ltmp140-Lfunc_begin7
	.uleb128 Ltmp141-Ltmp140
	.uleb128 Ltmp142-Lfunc_begin7
	.byte	0
	.uleb128 Ltmp143-Lfunc_begin7
	.uleb128 Ltmp144-Ltmp143
	.uleb128 Ltmp145-Lfunc_begin7
	.byte	0
	.uleb128 Ltmp144-Lfunc_begin7
	.uleb128 Ltmp129-Ltmp144
	.byte	0
	.byte	0
	.uleb128 Ltmp129-Lfunc_begin7
	.uleb128 Ltmp130-Ltmp129
	.uleb128 Ltmp133-Lfunc_begin7
	.byte	0
	.uleb128 Ltmp130-Lfunc_begin7
	.uleb128 Lfunc_end7-Ltmp130
	.byte	0
	.byte	0
Lcst_end1:
	.p2align	2

	.section	__TEXT,__text,regular,pure_instructions
	.p2align	4, 0x90
__ZN4core3ptr13drop_in_place17h3a55dc211a66ada8E:
Lfunc_begin8:
	.loc	3 178 0
	.cfi_startproc
	.cfi_personality 155, _rust_eh_personality
	.cfi_lsda 16, Lexception2
	pushq	%rbp
	.cfi_def_cfa_offset 16
	.cfi_offset %rbp, -16
	movq	%rsp, %rbp
	.cfi_def_cfa_register %rbp
	pushq	%r14
	pushq	%rbx
	.cfi_offset %rbx, -32
	.cfi_offset %r14, -24
	movq	%rdi, %rbx
Ltmp270:
	.loc	3 178 1 prologue_end
	movq	(%rdi), %rdi
	movq	8(%rbx), %rax
Ltmp267:
	callq	*(%rax)
Ltmp268:
Ltmp271:
	movq	8(%rbx), %rax
Ltmp272:
	.loc	6 282 16
	movq	8(%rax), %rsi
Ltmp273:
	.loc	6 185 12
	testq	%rsi, %rsi
	.loc	6 185 9 is_stmt 0
	je	LBB8_2
Ltmp274:
	.loc	3 178 1 is_stmt 1
	movq	(%rbx), %rdi
Ltmp275:
	.loc	6 283 17
	movq	16(%rax), %rdx
Ltmp276:
	.loc	6 102 5
	popq	%rbx
Ltmp277:
	popq	%r14
	popq	%rbp
	jmp	___rust_dealloc
Ltmp278:
LBB8_2:
	.loc	3 178 1
	popq	%rbx
Ltmp279:
	popq	%r14
	popq	%rbp
	retq
LBB8_3:
Ltmp280:
Ltmp269:
	.loc	3 0 1 is_stmt 0
	movq	%rax, %r14
	.loc	3 178 1
	movq	(%rbx), %rdi
	movq	8(%rbx), %rsi
	callq	__ZN5alloc5alloc8box_free17h221118fb852a164aE
	movq	%r14, %rdi
	callq	__Unwind_Resume
	ud2
Ltmp281:
Lfunc_end8:
	.cfi_endproc
	.section	__TEXT,__gcc_except_tab
	.p2align	2
GCC_except_table8:
Lexception2:
	.byte	255
	.byte	255
	.byte	1
	.uleb128 Lcst_end2-Lcst_begin2
Lcst_begin2:
	.uleb128 Ltmp267-Lfunc_begin8
	.uleb128 Ltmp268-Ltmp267
	.uleb128 Ltmp269-Lfunc_begin8
	.byte	0
	.uleb128 Ltmp268-Lfunc_begin8
	.uleb128 Lfunc_end8-Ltmp268
	.byte	0
	.byte	0
Lcst_end2:
	.p2align	2

	.section	__TEXT,__text,regular,pure_instructions
	.p2align	4, 0x90
__ZN4core3ptr13drop_in_place17h3e0f9772965ca45eE:
Lfunc_begin9:
	.loc	3 178 0 is_stmt 1
	.cfi_startproc
	pushq	%rbp
	.cfi_def_cfa_offset 16
	.cfi_offset %rbp, -16
	movq	%rsp, %rbp
	.cfi_def_cfa_register %rbp
	movq	%rdi, %rax
Ltmp282:
	.loc	3 178 1 prologue_end
	movq	(%rdi), %rdi
Ltmp283:
	.loc	13 532 16
	testq	%rdi, %rdi
Ltmp284:
	.loc	13 200 9
	je	LBB9_2
Ltmp285:
	.loc	3 0 0 is_stmt 0
	movq	8(%rax), %rsi
Ltmp286:
	.loc	13 200 9
	testq	%rsi, %rsi
	je	LBB9_2
Ltmp287:
	.loc	6 102 5 is_stmt 1
	movl	$1, %edx
	popq	%rbp
	jmp	___rust_dealloc
Ltmp288:
LBB9_2:
	.loc	3 178 1
	popq	%rbp
	retq
Ltmp289:
Lfunc_end9:
	.cfi_endproc

	.p2align	4, 0x90
__ZN4core3ptr13drop_in_place17h43b0407807649467E:
Lfunc_begin10:
	.loc	3 178 0
	.cfi_startproc
	pushq	%rbp
	.cfi_def_cfa_offset 16
	.cfi_offset %rbp, -16
	movq	%rsp, %rbp
	.cfi_def_cfa_register %rbp
Ltmp290:
	.loc	3 178 1 prologue_end
	popq	%rbp
	retq
Ltmp291:
Lfunc_end10:
	.cfi_endproc

	.p2align	4, 0x90
__ZN4core3ptr13drop_in_place17h58c3e51c8d581ccaE:
Lfunc_begin11:
	.loc	3 178 0
	.cfi_startproc
	pushq	%rbp
	.cfi_def_cfa_offset 16
	.cfi_offset %rbp, -16
	movq	%rsp, %rbp
	.cfi_def_cfa_register %rbp
Ltmp292:
	.loc	3 178 1 prologue_end
	movq	(%rdi), %rax
Ltmp293:
	testq	%rax, %rax
	je	LBB11_2
Ltmp294:
	.loc	14 645 13
	movb	$0, (%rax)
Ltmp295:
	.loc	3 178 1
	movq	8(%rdi), %rsi
Ltmp296:
	.loc	6 185 12
	testq	%rsi, %rsi
	.loc	6 185 9 is_stmt 0
	je	LBB11_2
Ltmp297:
	.loc	3 178 1 is_stmt 1
	movq	(%rdi), %rdi
Ltmp298:
	.loc	6 102 5
	movl	$1, %edx
	popq	%rbp
	jmp	___rust_dealloc
Ltmp299:
LBB11_2:
	.loc	3 178 1
	popq	%rbp
	retq
Ltmp300:
Lfunc_end11:
	.cfi_endproc

	.p2align	4, 0x90
__ZN4core3ptr13drop_in_place17ha783bc597f707f9cE:
Lfunc_begin12:
	.loc	3 178 0
	.cfi_startproc
	pushq	%rbp
	.cfi_def_cfa_offset 16
	.cfi_offset %rbp, -16
	movq	%rsp, %rbp
	.cfi_def_cfa_register %rbp
	pushq	%rbx
	pushq	%rax
	.cfi_offset %rbx, -24
	movq	%rdi, %rbx
Ltmp301:
	.loc	3 178 1 prologue_end
	movq	(%rdi), %rdi
Ltmp302:
	.loc	13 532 16
	testq	%rdi, %rdi
Ltmp303:
	.loc	13 200 9
	je	LBB12_3
Ltmp304:
	.loc	3 0 0 is_stmt 0
	movq	8(%rbx), %rsi
Ltmp305:
	.loc	13 200 9
	testq	%rsi, %rsi
	je	LBB12_3
Ltmp306:
	.loc	6 102 5 is_stmt 1
	movl	$1, %edx
	callq	___rust_dealloc
Ltmp307:
LBB12_3:
	.loc	3 178 1
	movq	24(%rbx), %rdi
Ltmp308:
	.loc	13 532 16
	testq	%rdi, %rdi
Ltmp309:
	.loc	13 200 9
	je	LBB12_5
Ltmp310:
	.loc	3 0 0 is_stmt 0
	movq	32(%rbx), %rsi
Ltmp311:
	.loc	13 200 9
	testq	%rsi, %rsi
	je	LBB12_5
Ltmp312:
	.loc	6 102 5 is_stmt 1
	movl	$1, %edx
	addq	$8, %rsp
	popq	%rbx
Ltmp313:
	popq	%rbp
	jmp	___rust_dealloc
Ltmp314:
LBB12_5:
	.loc	3 178 1
	addq	$8, %rsp
	popq	%rbx
Ltmp315:
	popq	%rbp
	retq
Ltmp316:
Lfunc_end12:
	.cfi_endproc

	.p2align	4, 0x90
__ZN4core3ptr13drop_in_place17hf5a4ec57d4d60d1bE:
Lfunc_begin13:
	.loc	3 178 0
	.cfi_startproc
	pushq	%rbp
	.cfi_def_cfa_offset 16
	.cfi_offset %rbp, -16
	movq	%rsp, %rbp
	.cfi_def_cfa_register %rbp
Ltmp317:
	.loc	3 178 1 prologue_end
	cmpl	$3, (%rdi)
	jne	LBB13_1
Ltmp318:
	.loc	3 178 1 is_stmt 0
	addq	$4, %rdi
Ltmp319:
	.loc	3 178 1
	popq	%rbp
	jmp	__ZN70_$LT$std..sys..unix..fd..FileDesc$u20$as$u20$core..ops..drop..Drop$GT$4drop17hf5fce2bf4d9f8deaE
Ltmp320:
LBB13_1:
	.loc	3 178 1
	popq	%rbp
	retq
Ltmp321:
Lfunc_end13:
	.cfi_endproc

	.p2align	4, 0x90
__ZN5alloc5alloc8box_free17h221118fb852a164aE:
Lfunc_begin14:
	.loc	6 281 0 is_stmt 1
	.cfi_startproc
	pushq	%rbp
	.cfi_def_cfa_offset 16
	.cfi_offset %rbp, -16
	movq	%rsp, %rbp
	.cfi_def_cfa_register %rbp
	movq	%rsi, %rax
Ltmp322:
	.loc	6 282 16 prologue_end
	movq	8(%rsi), %rsi
Ltmp323:
	.loc	6 185 12
	testq	%rsi, %rsi
	.loc	6 185 9 is_stmt 0
	je	LBB14_1
Ltmp324:
	.loc	6 283 17 is_stmt 1
	movq	16(%rax), %rdx
Ltmp325:
	.loc	6 102 5
	popq	%rbp
	jmp	___rust_dealloc
Ltmp326:
LBB14_1:
	.loc	6 286 2
	popq	%rbp
	retq
Ltmp327:
Lfunc_end14:
	.cfi_endproc

	.p2align	4, 0x90
__ZN5alloc5alloc8box_free17haabf827477175f97E:
Lfunc_begin15:
	.loc	6 281 0
	.cfi_startproc
	pushq	%rbp
	.cfi_def_cfa_offset 16
	.cfi_offset %rbp, -16
	movq	%rsp, %rbp
	.cfi_def_cfa_register %rbp
Ltmp328:
	.loc	6 102 5 prologue_end
	movl	$24, %esi
	movl	$8, %edx
	popq	%rbp
	jmp	___rust_dealloc
Ltmp329:
Lfunc_end15:
	.cfi_endproc

	.p2align	4, 0x90
__ZN84_$LT$core..str..Split$LT$P$GT$$u20$as$u20$core..iter..traits..iterator..Iterator$GT$4next17hd966c057caf86fb8E:
Lfunc_begin16:
	.file	16 "/rustc/a74d1862d4d87a56244958416fd05976c58ca1a8/src/libcore/str/mod.rs"
	.loc	16 975 0
	.cfi_startproc
	pushq	%rbp
	.cfi_def_cfa_offset 16
	.cfi_offset %rbp, -16
	movq	%rsp, %rbp
	.cfi_def_cfa_register %rbp
Ltmp330:
	pushq	%r15
	pushq	%r14
	pushq	%r13
	pushq	%r12
	pushq	%rbx
	subq	$24, %rsp
	.cfi_offset %rbx, -56
	.cfi_offset %r12, -48
	.cfi_offset %r13, -40
	.cfi_offset %r14, -32
	.cfi_offset %r15, -24
	.loc	16 1121 12 prologue_end
	cmpb	$0, 65(%rdi)
	.loc	16 1121 9 is_stmt 0
	jne	LBB16_1
Ltmp331:
	.loc	16 0 9
	movq	%rdi, %r13
Ltmp332:
	.file	17 "/rustc/a74d1862d4d87a56244958416fd05976c58ca1a8/src/libcore/str/pattern.rs"
	.loc	17 369 54 is_stmt 1
	movq	32(%rdi), %rsi
Ltmp333:
	.loc	17 369 67 is_stmt 0
	movq	40(%rdi), %rax
Ltmp334:
	.file	18 "/rustc/a74d1862d4d87a56244958416fd05976c58ca1a8/src/libcore/slice/mod.rs"
	.loc	18 2888 12 is_stmt 1
	movq	%rax, %rdx
	subq	%rsi, %rdx
Ltmp335:
	.loc	17 369 84
	jb	LBB16_16
Ltmp336:
	cmpq	%rax, 24(%r13)
	jb	LBB16_16
Ltmp337:
	.loc	16 0 0 is_stmt 0
	movq	16(%r13), %rcx
Ltmp338:
	.loc	17 372 71 is_stmt 1
	movq	48(%r13), %rax
Ltmp339:
	.loc	17 0 71 is_stmt 0
	movq	%rcx, -56(%rbp)
Ltmp340:
	.loc	18 2888 12 is_stmt 1
	addq	%rcx, %rsi
Ltmp341:
	.loc	17 373 34
	movzbl	59(%rax,%r13), %edi
	callq	__ZN4core5slice6memchr6memchr17h319ffdabcbdf42caE
Ltmp342:
	.loc	17 373 20 is_stmt 0
	cmpq	$1, %rax
	jne	LBB16_15
Ltmp343:
	.loc	17 0 20
	leaq	60(%r13), %rax
	movq	%rax, -48(%rbp)
Ltmp344:
	.p2align	4, 0x90
LBB16_6:
	.loc	17 391 17 is_stmt 1
	movq	32(%r13), %rax
	.loc	17 392 35
	movq	48(%r13), %r15
Ltmp345:
	.loc	17 391 17
	leaq	1(%rdx,%rax), %rbx
Ltmp346:
	movq	%rbx, 32(%r13)
	.loc	17 392 20
	movq	%rbx, %r12
	subq	%r15, %r12
	.loc	17 392 17 is_stmt 0
	jae	LBB16_8
Ltmp347:
	.loc	17 369 25 is_stmt 1
	movq	24(%r13), %r14
Ltmp348:
	.loc	17 369 67 is_stmt 0
	movq	40(%r13), %rax
Ltmp349:
	.loc	18 2888 12 is_stmt 1
	movq	%rax, %rdx
	subq	%rbx, %rdx
	jae	LBB16_13
	jmp	LBB16_16
Ltmp350:
	.p2align	4, 0x90
LBB16_8:
	.loc	17 394 42
	movq	24(%r13), %r14
Ltmp351:
	.loc	18 2888 37
	cmpq	%rbx, %r14
Ltmp352:
	.loc	17 394 28
	jb	LBB16_12
Ltmp353:
	.loc	18 2918 19
	cmpq	$5, %r15
	.loc	18 2918 16 is_stmt 0
	jae	LBB16_23
Ltmp354:
	.loc	18 0 16
	movq	16(%r13), %rdi
	addq	%r12, %rdi
Ltmp355:
	.loc	18 5863 12 is_stmt 1
	cmpq	-48(%rbp), %rdi
	.loc	18 5863 9 is_stmt 0
	je	LBB16_21
Ltmp356:
	.loc	18 0 9
	movq	-48(%rbp), %rsi
Ltmp357:
	.loc	18 5868 13 is_stmt 1
	movq	%r15, %rdx
Ltmp358:
	callq	_bcmp
Ltmp359:
	testl	%eax, %eax
Ltmp360:
	.loc	17 395 25
	je	LBB16_21
Ltmp361:
LBB16_12:
	.loc	17 369 67
	movq	40(%r13), %rax
Ltmp362:
	.loc	18 2888 12
	movq	%rax, %rdx
	subq	%rbx, %rdx
Ltmp363:
	.loc	17 369 84
	jb	LBB16_16
Ltmp364:
LBB16_13:
	cmpq	%rax, %r14
	jb	LBB16_16
Ltmp365:
	.loc	18 2888 12
	addq	16(%r13), %rbx
Ltmp366:
	.loc	17 373 34
	movzbl	59(%r15,%r13), %edi
	movq	%rbx, %rsi
	callq	__ZN4core5slice6memchr6memchr17h319ffdabcbdf42caE
Ltmp367:
	.loc	17 373 20 is_stmt 0
	cmpq	$1, %rax
	je	LBB16_6
Ltmp368:
LBB16_15:
	.loc	17 402 31 is_stmt 1
	movq	40(%r13), %rax
	.loc	17 402 17 is_stmt 0
	movq	%rax, 32(%r13)
Ltmp369:
LBB16_16:
	.loc	16 1107 13 is_stmt 1
	cmpb	$0, 65(%r13)
	.loc	16 1107 12 is_stmt 0
	je	LBB16_17
Ltmp370:
LBB16_1:
	.loc	16 0 12
	xorl	%eax, %eax
LBB16_22:
	.loc	16 977 14 is_stmt 1
	movq	%r12, %rdx
	addq	$24, %rsp
	popq	%rbx
	popq	%r12
	popq	%r13
	popq	%r14
	popq	%r15
	popq	%rbp
	retq
LBB16_17:
Ltmp371:
	.loc	16 1107 31
	cmpb	$0, 64(%r13)
	.loc	16 1107 30 is_stmt 0
	je	LBB16_19
Ltmp372:
	.loc	16 1111 68 is_stmt 1
	movq	(%r13), %rax
	.loc	16 1111 80 is_stmt 0
	movq	8(%r13), %r12
	jmp	LBB16_20
Ltmp373:
LBB16_19:
	.loc	16 1107 71 is_stmt 1
	movq	(%r13), %rax
	.loc	16 1107 60 is_stmt 0
	movq	8(%r13), %r12
	cmpq	%rax, %r12
	.loc	16 1107 12
	je	LBB16_1
Ltmp374:
LBB16_20:
	.loc	16 1108 13 is_stmt 1
	movb	$1, 65(%r13)
Ltmp375:
	.loc	16 1908 23
	subq	%rax, %r12
Ltmp376:
	.file	19 "/rustc/a74d1862d4d87a56244958416fd05976c58ca1a8/src/libcore/ptr/const_ptr.rs"
	.loc	19 158 9
	addq	16(%r13), %rax
Ltmp377:
	.loc	19 0 9 is_stmt 0
	jmp	LBB16_22
Ltmp378:
LBB16_21:
	.loc	16 1129 50 is_stmt 1
	movq	(%r13), %rcx
Ltmp379:
	.loc	16 0 50 is_stmt 0
	movq	-56(%rbp), %rax
Ltmp380:
	.loc	19 158 9 is_stmt 1
	addq	%rcx, %rax
Ltmp381:
	.loc	16 1908 23
	subq	%rcx, %r12
Ltmp382:
	.loc	16 1130 17
	movq	%rbx, (%r13)
	jmp	LBB16_22
Ltmp383:
LBB16_23:
	.loc	18 2919 13
	leaq	l___unnamed_7(%rip), %rdx
Ltmp384:
	movl	$4, %esi
	movq	%r15, %rdi
	callq	__ZN4core5slice20slice_index_len_fail17h550a313151a85135E
Ltmp385:
Lfunc_end16:
	.cfi_endproc
	.file	20 "/rustc/a74d1862d4d87a56244958416fd05976c58ca1a8/src/libcore/cmp.rs"

	.p2align	4, 0x90
__ZN18build_script_build4main17h6761324f6c8d629bE:
Lfunc_begin17:
	.file	21 "/Users/yingyuhang/.cargo/registry/src/github.com-1ecc6299db9ec823/serde_derive-1.0.114/build.rs"
	.loc	21 8 0
	.cfi_startproc
	.cfi_personality 155, _rust_eh_personality
	.cfi_lsda 16, Lexception3
	pushq	%rbp
	.cfi_def_cfa_offset 16
	.cfi_offset %rbp, -16
	movq	%rsp, %rbp
	.cfi_def_cfa_register %rbp
Ltmp411:
	pushq	%r15
	pushq	%r14
	pushq	%r13
	pushq	%r12
	pushq	%rbx
	subq	$488, %rsp
	.cfi_offset %rbx, -56
	.cfi_offset %r12, -48
	.cfi_offset %r13, -40
	.cfi_offset %r14, -32
	.cfi_offset %r15, -24
Ltmp412:
	.file	22 "/rustc/a74d1862d4d87a56244958416fd05976c58ca1a8/src/libstd/env.rs"
	.loc	22 246 5 prologue_end
	leaq	l___unnamed_8(%rip), %rsi
	leaq	-240(%rbp), %rdi
	movl	$5, %edx
	callq	__ZN3std3env7_var_os17hc8b7303001145450E
Ltmp413:
	.loc	2 1698 9
	movq	-240(%rbp), %rbx
Ltmp414:
	.loc	2 540 13
	testq	%rbx, %rbx
	je	LBB17_37
Ltmp415:
	.loc	21 0 0 is_stmt 0
	movq	-232(%rbp), %r14
Ltmp416:
	movq	-224(%rbp), %rdx
Ltmp417:
	.loc	21 23 31 is_stmt 1
	movq	%rbx, -264(%rbp)
	movq	%r14, -256(%rbp)
	movq	%rdx, -248(%rbp)
Ltmp418:
Ltmp386:
	.loc	21 0 31 is_stmt 0
	leaq	-240(%rbp), %rdi
Ltmp419:
	.file	23 "/rustc/a74d1862d4d87a56244958416fd05976c58ca1a8/src/libstd/process.rs"
	.loc	23 501 26 is_stmt 1
	movq	%rbx, %rsi
	callq	__ZN3std3sys4unix7process14process_common7Command3new17hcd746a384cbb0b47E
Ltmp420:
Ltmp387:
	.loc	23 0 26 is_stmt 0
	leaq	-520(%rbp), %rdi
	leaq	-240(%rbp), %rsi
	.loc	23 501 9
	movl	$184, %edx
	callq	_memcpy
Ltmp421:
	.loc	13 200 40 is_stmt 1
	testq	%r14, %r14
	.loc	13 200 9 is_stmt 0
	je	LBB17_4
Ltmp422:
	.loc	6 102 5 is_stmt 1
	movl	$1, %edx
	movq	%rbx, %rdi
	movq	%r14, %rsi
	callq	___rust_dealloc
Ltmp423:
LBB17_4:
Ltmp389:
	.loc	23 542 9
	leaq	l___unnamed_9(%rip), %rsi
	leaq	-520(%rbp), %rdi
	movl	$9, %edx
	callq	__ZN3std3sys4unix7process14process_common7Command3arg17hc476c471a9efd12bE
Ltmp390:
Ltmp424:
Ltmp391:
	.loc	23 0 9 is_stmt 0
	leaq	-240(%rbp), %rdi
	leaq	-520(%rbp), %rsi
	.loc	21 23 18 is_stmt 1
	callq	__ZN3std7process7Command6output17h3119df81721f3b73E
Ltmp392:
Ltmp425:
	.loc	8 396 13
	cmpq	$1, -240(%rbp)
	jne	LBB17_7
Ltmp426:
	.loc	3 178 1
	cmpb	$2, -232(%rbp)
	jb	LBB17_13
Ltmp427:
	.loc	3 178 1 is_stmt 0
	movq	-224(%rbp), %rbx
Ltmp428:
	.loc	3 178 1
	movq	(%rbx), %rdi
	movq	8(%rbx), %rax
Ltmp394:
	callq	*(%rax)
Ltmp395:
Ltmp429:
	movq	8(%rbx), %rax
Ltmp430:
	.loc	6 282 16 is_stmt 1
	movq	8(%rax), %rsi
Ltmp431:
	.loc	6 185 12
	testq	%rsi, %rsi
	.loc	6 185 9 is_stmt 0
	je	LBB17_12
Ltmp432:
	.loc	3 178 1 is_stmt 1
	movq	(%rbx), %rdi
Ltmp433:
	.loc	6 283 17
	movq	16(%rax), %rdx
Ltmp434:
	.loc	6 102 5
	callq	___rust_dealloc
Ltmp435:
LBB17_12:
	.loc	6 102 5 is_stmt 0
	movl	$24, %esi
	movl	$8, %edx
	movq	%rbx, %rdi
	callq	___rust_dealloc
Ltmp436:
LBB17_13:
	.loc	6 0 5
	xorl	%r13d, %r13d
	jmp	LBB17_14
Ltmp437:
LBB17_7:
	.loc	8 396 27 is_stmt 1
	movq	-232(%rbp), %r13
Ltmp438:
	movq	-224(%rbp), %r12
Ltmp439:
	movq	-216(%rbp), %rbx
Ltmp440:
	movq	-208(%rbp), %r15
Ltmp441:
	movq	-200(%rbp), %r14
Ltmp442:
	movq	-192(%rbp), %rax
	movq	%rax, -56(%rbp)
	movq	-184(%rbp), %rax
	movq	%rax, -48(%rbp)
Ltmp443:
LBB17_14:
	.loc	2 1698 9
	movq	-56(%rbp), %rax
	movq	-48(%rbp), %rcx
	movq	%rcx, -232(%rbp)
	movq	%rax, -240(%rbp)
Ltmp444:
	.loc	2 540 13
	testq	%r13, %r13
	je	LBB17_43
Ltmp445:
	.loc	2 540 27 is_stmt 0
	movq	-240(%rbp), %rax
	movq	-232(%rbp), %rcx
	movq	%rcx, -328(%rbp)
	movq	%rax, -336(%rbp)
Ltmp446:
	.loc	21 23 18 is_stmt 1
	movq	%r13, -320(%rbp)
	movq	%r12, -312(%rbp)
	movq	%rbx, -304(%rbp)
Ltmp447:
	movq	%r15, -296(%rbp)
	movq	%r14, -288(%rbp)
	movq	%rax, -280(%rbp)
	movq	%rcx, -272(%rbp)
Ltmp397:
	leaq	-520(%rbp), %rdi
Ltmp448:
	.loc	21 23 69 is_stmt 0
	callq	__ZN4core3ptr13drop_in_place17h2e42f34a344b8bd1E
Ltmp398:
Ltmp449:
Ltmp399:
	.loc	21 0 69
	leaq	-240(%rbp), %rdi
Ltmp450:
	.loc	21 24 19 is_stmt 1
	movq	%r13, %rsi
	movq	%rbx, %rdx
	callq	__ZN4core3str9from_utf817he06957962f38305fE
Ltmp400:
Ltmp451:
	.loc	8 396 13
	cmpq	$1, -240(%rbp)
Ltmp452:
	.loc	21 24 54
	je	LBB17_38
	.loc	21 0 0 is_stmt 0
	movq	-232(%rbp), %rax
Ltmp453:
	.loc	21 24 54
	testq	%rax, %rax
	je	LBB17_38
Ltmp454:
	.loc	21 0 0
	movq	-224(%rbp), %rcx
Ltmp455:
	.loc	16 3299 9 is_stmt 1
	movq	$0, -240(%rbp)
	movq	%rcx, -232(%rbp)
	movq	%rax, -224(%rbp)
	movq	%rcx, -216(%rbp)
	movq	$0, -208(%rbp)
	movq	%rcx, -200(%rbp)
	movq	$1, -192(%rbp)
	movabsq	$197568495662, %rax
Ltmp456:
	movq	%rax, -184(%rbp)
	movw	$1, -176(%rbp)
Ltmp401:
	leaq	-240(%rbp), %rdi
Ltmp457:
	.loc	21 26 8
	callq	__ZN84_$LT$core..str..Split$LT$P$GT$$u20$as$u20$core..iter..traits..iterator..Iterator$GT$4next17hd966c057caf86fb8E
Ltmp458:
Ltmp402:
	.loc	2 151 16
	xorl	%esi, %esi
	testq	%rax, %rax
	setne	%sil
Ltmp459:
	.loc	2 151 16 is_stmt 0
	leaq	l___unnamed_10(%rip), %rcx
	xorl	%edi, %edi
	testq	%rcx, %rcx
	setne	%dil
Ltmp460:
	cmpq	%rdi, %rsi
	jne	LBB17_38
Ltmp461:
	testq	%rax, %rax
	je	LBB17_26
Ltmp462:
	.loc	2 0 16
	testq	%rcx, %rcx
	.loc	2 151 16
	je	LBB17_26
Ltmp463:
	.loc	18 5860 12 is_stmt 1
	cmpq	$7, %rdx
	.loc	18 5860 9 is_stmt 0
	jne	LBB17_38
Ltmp464:
	.loc	18 5863 12 is_stmt 1
	cmpq	%rcx, %rax
	.loc	18 5863 9 is_stmt 0
	je	LBB17_26
Ltmp465:
	.loc	18 0 9
	movl	$1953723762, %ecx
Ltmp466:
	.loc	18 5868 13 is_stmt 1
	xorl	(%rax), %ecx
	movl	$824206196, %edx
Ltmp467:
	xorl	3(%rax), %edx
	orl	%ecx, %edx
Ltmp468:
	.loc	21 26 5
	jne	LBB17_38
Ltmp469:
LBB17_26:
Ltmp403:
	.loc	21 0 5 is_stmt 0
	leaq	-240(%rbp), %rdi
	.loc	21 29 5 is_stmt 1
	callq	__ZN84_$LT$core..str..Split$LT$P$GT$$u20$as$u20$core..iter..traits..iterator..Iterator$GT$4next17hd966c057caf86fb8E
Ltmp404:
	.loc	21 29 18 is_stmt 0
	testq	%rax, %rax
	je	LBB17_38
Ltmp405:
Ltmp470:
	.loc	16 4280 9 is_stmt 1
	movq	%rax, %rdi
	movq	%rdx, %rsi
	callq	__ZN4core3num52_$LT$impl$u20$core..str..FromStr$u20$for$u20$u32$GT$8from_str17hb8ee2851a4cfefb0E
Ltmp471:
Ltmp406:
	.loc	21 0 0 is_stmt 0
	movq	%rax, %rbx
Ltmp472:
	.loc	13 200 40 is_stmt 1
	testq	%r12, %r12
	.loc	13 200 9 is_stmt 0
	je	LBB17_31
Ltmp473:
	.loc	6 102 5 is_stmt 1
	movl	$1, %edx
	movq	%r13, %rdi
	movq	%r12, %rsi
	callq	___rust_dealloc
Ltmp474:
LBB17_31:
	.loc	13 532 16
	testq	%r15, %r15
Ltmp475:
	.loc	13 200 9
	je	LBB17_34
Ltmp476:
	testq	%r14, %r14
	je	LBB17_34
Ltmp477:
	.loc	6 102 5
	movl	$1, %edx
	movq	%r15, %rdi
	movq	%r14, %rsi
	callq	___rust_dealloc
Ltmp478:
LBB17_34:
	.loc	21 10 9
	testb	$1, %bl
	jne	LBB17_37
	.loc	21 0 9 is_stmt 0
	shrq	$32, %rbx
	.loc	21 10 9
	cmpl	$37, %ebx
	jb	LBB17_37
Ltmp479:
	.loc	10 328 9 is_stmt 1
	leaq	l___unnamed_11(%rip), %rax
Ltmp480:
	movq	%rax, -240(%rbp)
	movq	$1, -232(%rbp)
	movq	$0, -224(%rbp)
	leaq	l___unnamed_12(%rip), %rax
Ltmp481:
	movq	%rax, -208(%rbp)
	movq	$0, -200(%rbp)
	leaq	-240(%rbp), %rdi
Ltmp482:
	.loc	21 17 9
	callq	__ZN3std2io5stdio6_print17hdea2154009b9e479E
Ltmp483:
	.loc	21 0 9 is_stmt 0
	jmp	LBB17_37
Ltmp484:
LBB17_38:
	testq	%r12, %r12
	je	LBB17_40
Ltmp485:
	movl	$1, %edx
	movq	%r13, %rdi
	movq	%r12, %rsi
	callq	___rust_dealloc
Ltmp486:
LBB17_40:
	testq	%r15, %r15
	je	LBB17_37
Ltmp487:
	testq	%r14, %r14
	je	LBB17_37
Ltmp488:
	movl	$1, %edx
	movq	%r15, %rdi
	movq	%r14, %rsi
	callq	___rust_dealloc
	jmp	LBB17_37
Ltmp489:
LBB17_43:
Ltmp408:
	leaq	-520(%rbp), %rdi
	.loc	21 23 69 is_stmt 1
	callq	__ZN4core3ptr13drop_in_place17h2e42f34a344b8bd1E
Ltmp409:
Ltmp490:
LBB17_37:
	.loc	21 19 2
	addq	$488, %rsp
	popq	%rbx
	popq	%r12
	popq	%r13
	popq	%r14
	popq	%r15
	popq	%rbp
	retq
LBB17_44:
Ltmp491:
Ltmp396:
	.loc	21 0 2 is_stmt 0
	movq	%rax, %r14
Ltmp492:
	.loc	3 178 1 is_stmt 1
	movq	(%rbx), %rdi
	movq	8(%rbx), %rsi
	callq	__ZN5alloc5alloc8box_free17h221118fb852a164aE
Ltmp493:
	.loc	3 178 1 is_stmt 0
	movq	%rbx, %rdi
	callq	__ZN5alloc5alloc8box_free17haabf827477175f97E
	jmp	LBB17_45
Ltmp494:
LBB17_47:
Ltmp410:
	.loc	3 0 1
	movq	%rax, %r14
	movq	%r14, %rdi
	callq	__Unwind_Resume
	ud2
LBB17_50:
Ltmp388:
	movq	%rax, %r14
Ltmp495:
	leaq	-264(%rbp), %rdi
Ltmp496:
	.loc	23 502 5 is_stmt 1
	callq	__ZN4core3ptr13drop_in_place17h3e0f9772965ca45eE
	movq	%r14, %rdi
	callq	__Unwind_Resume
	ud2
Ltmp497:
LBB17_49:
Ltmp407:
	.loc	23 0 5 is_stmt 0
	movq	%rax, %r14
Ltmp498:
	leaq	-320(%rbp), %rdi
	.loc	21 30 1 is_stmt 1
	callq	__ZN4core3ptr13drop_in_place17ha783bc597f707f9cE
	movq	%r14, %rdi
	callq	__Unwind_Resume
	ud2
Ltmp499:
LBB17_48:
Ltmp393:
	.loc	21 0 1 is_stmt 0
	movq	%rax, %r14
LBB17_45:
	leaq	-520(%rbp), %rdi
	.loc	21 23 69 is_stmt 1
	callq	__ZN4core3ptr13drop_in_place17h2e42f34a344b8bd1E
	movq	%r14, %rdi
	callq	__Unwind_Resume
	ud2
Ltmp500:
Lfunc_end17:
	.cfi_endproc
	.section	__TEXT,__gcc_except_tab
	.p2align	2
GCC_except_table17:
Lexception3:
	.byte	255
	.byte	255
	.byte	1
	.uleb128 Lcst_end3-Lcst_begin3
Lcst_begin3:
	.uleb128 Lfunc_begin17-Lfunc_begin17
	.uleb128 Ltmp386-Lfunc_begin17
	.byte	0
	.byte	0
	.uleb128 Ltmp386-Lfunc_begin17
	.uleb128 Ltmp387-Ltmp386
	.uleb128 Ltmp388-Lfunc_begin17
	.byte	0
	.uleb128 Ltmp387-Lfunc_begin17
	.uleb128 Ltmp389-Ltmp387
	.byte	0
	.byte	0
	.uleb128 Ltmp389-Lfunc_begin17
	.uleb128 Ltmp392-Ltmp389
	.uleb128 Ltmp393-Lfunc_begin17
	.byte	0
	.uleb128 Ltmp394-Lfunc_begin17
	.uleb128 Ltmp395-Ltmp394
	.uleb128 Ltmp396-Lfunc_begin17
	.byte	0
	.uleb128 Ltmp397-Lfunc_begin17
	.uleb128 Ltmp406-Ltmp397
	.uleb128 Ltmp407-Lfunc_begin17
	.byte	0
	.uleb128 Ltmp406-Lfunc_begin17
	.uleb128 Ltmp408-Ltmp406
	.byte	0
	.byte	0
	.uleb128 Ltmp408-Lfunc_begin17
	.uleb128 Ltmp409-Ltmp408
	.uleb128 Ltmp410-Lfunc_begin17
	.byte	0
	.uleb128 Ltmp409-Lfunc_begin17
	.uleb128 Lfunc_end17-Ltmp409
	.byte	0
	.byte	0
Lcst_end3:
	.p2align	2

	.section	__TEXT,__text,regular,pure_instructions
	.globl	_main
	.p2align	4, 0x90
_main:
Lfunc_begin18:
	.cfi_startproc
	pushq	%rbp
	.cfi_def_cfa_offset 16
	.cfi_offset %rbp, -16
	movq	%rsp, %rbp
	.cfi_def_cfa_register %rbp
	subq	$16, %rsp
	movq	%rsi, %rcx
	movslq	%edi, %rdx
	leaq	__ZN18build_script_build4main17h6761324f6c8d629bE(%rip), %rax
	movq	%rax, -8(%rbp)
	leaq	l___unnamed_1(%rip), %rsi
	leaq	-8(%rbp), %rdi
	callq	__ZN3std2rt19lang_start_internal17hebefdaa8fd585aefE
	addq	$16, %rsp
	popq	%rbp
	retq
Lfunc_end18:
	.cfi_endproc

	.section	__TEXT,__const
l___unnamed_13:
	.ascii	"/rustc/a74d1862d4d87a56244958416fd05976c58ca1a8/src/liballoc/collections/btree/map.rs"

	.section	__DATA,__const
	.p2align	3
l___unnamed_3:
	.quad	l___unnamed_13
	.asciz	"U\000\000\000\000\000\000\000C\006\000\000\033\000\000"

	.p2align	3
l___unnamed_1:
	.quad	__ZN4core3ptr13drop_in_place17h43b0407807649467E
	.quad	8
	.quad	8
	.quad	__ZN3std2rt10lang_start28_$u7b$$u7b$closure$u7d$$u7d$17h672d320b5e399309E
	.quad	__ZN3std2rt10lang_start28_$u7b$$u7b$closure$u7d$$u7d$17h672d320b5e399309E
	.quad	__ZN4core3ops8function6FnOnce40call_once$u7b$$u7b$vtable.shim$u7d$$u7d$17h1785c96eda2150b0E

	.section	__TEXT,__const
l___unnamed_14:
	.ascii	"/rustc/a74d1862d4d87a56244958416fd05976c58ca1a8/src/libcore/macros/mod.rs"

	.section	__DATA,__const
	.p2align	3
l___unnamed_6:
	.quad	l___unnamed_14
	.asciz	"I\000\000\000\000\000\000\000\020\000\000\000\t\000\000"

	.section	__TEXT,__const
l___unnamed_2:
	.ascii	"called `Option::unwrap()` on a `None` value"

l___unnamed_15:
	.ascii	"internal error: entered unreachable code: "

	.section	__DATA,__const
	.p2align	3
l___unnamed_5:
	.quad	l___unnamed_15
	.asciz	"*\000\000\000\000\000\000"

	.section	__TEXT,__const
l___unnamed_16:
	.ascii	"BTreeMap has different depths"

	.section	__DATA,__const
	.p2align	3
l___unnamed_4:
	.quad	l___unnamed_16
	.asciz	"\035\000\000\000\000\000\000"

	.section	__TEXT,__const
l___unnamed_17:
	.ascii	"/rustc/a74d1862d4d87a56244958416fd05976c58ca1a8/src/libcore/str/pattern.rs"

	.section	__DATA,__const
	.p2align	3
l___unnamed_7:
	.quad	l___unnamed_17
	.asciz	"J\000\000\000\000\000\000\000\213\001\000\000&\000\000"

	.section	__TEXT,__const
l___unnamed_18:
	.ascii	"cargo:rustc-cfg=underscore_consts\n"

	.section	__DATA,__const
	.p2align	3
l___unnamed_11:
	.quad	l___unnamed_18
	.asciz	"\"\000\000\000\000\000\000"

	.section	__TEXT,__const
	.p2align	3
l___unnamed_12:
	.byte	0

l___unnamed_8:
	.ascii	"RUSTC"

l___unnamed_9:
	.ascii	"--version"

l___unnamed_10:
	.ascii	"rustc 1"

	.section	__DATA,__const
Lsec_end0:
	.section	__TEXT,__text,regular,pure_instructions
Lsec_end1: