	.section	__TEXT,__text,regular,pure_instructions
	.macosx_version_min 10, 7
	.private_extern	__ZN3std2rt10lang_start17h85d0b75f4aee41edE
	.globl	__ZN3std2rt10lang_start17h85d0b75f4aee41edE
	.p2align	4, 0x90
__ZN3std2rt10lang_start17h85d0b75f4aee41edE:
	.cfi_startproc
	pushq	%rbp
	.cfi_def_cfa_offset 16
	.cfi_offset %rbp, -16
	movq	%rsp, %rbp
	.cfi_def_cfa_register %rbp
	subq	$32, %rsp
	leaq	l___unnamed_1(%rip), %rax
	movq	%rdi, -8(%rbp)
	leaq	-8(%rbp), %rcx
	movq	%rcx, %rdi
	movq	%rsi, -16(%rbp)
	movq	%rax, %rsi
	movq	-16(%rbp), %rax
	movq	%rdx, -24(%rbp)
	movq	%rax, %rdx
	movq	-24(%rbp), %rcx
	callq	__ZN3std2rt19lang_start_internal17hbbd10965adc92ae7E
	movq	%rax, -32(%rbp)
	movq	-32(%rbp), %rax
	addq	$32, %rsp
	popq	%rbp
	retq
	.cfi_endproc

	.p2align	4, 0x90
__ZN3std2rt10lang_start28_$u7b$$u7b$closure$u7d$$u7d$17hb6c47d2a9bed0df0E:
	.cfi_startproc
	pushq	%rbp
	.cfi_def_cfa_offset 16
	.cfi_offset %rbp, -16
	movq	%rsp, %rbp
	.cfi_def_cfa_register %rbp
	subq	$16, %rsp
	callq	*(%rdi)
	callq	__ZN54_$LT$$LP$$RP$$u20$as$u20$std..process..Termination$GT$6report17h6ce4f084885c5e9aE
	movl	%eax, -4(%rbp)
	movl	-4(%rbp), %eax
	addq	$16, %rsp
	popq	%rbp
	retq
	.cfi_endproc

	.p2align	4, 0x90
__ZN3std3sys4unix7process14process_common8ExitCode6as_i3217h5fda945ec178e475E:
	.cfi_startproc
	pushq	%rbp
	.cfi_def_cfa_offset 16
	.cfi_offset %rbp, -16
	movq	%rsp, %rbp
	.cfi_def_cfa_register %rbp
	movzbl	(%rdi), %eax
	popq	%rbp
	retq
	.cfi_endproc

	.p2align	4, 0x90
__ZN4core3fmt9Arguments6new_v117h0f8dd655999a0db0E:
	.cfi_startproc
	pushq	%rbp
	.cfi_def_cfa_offset 16
	.cfi_offset %rbp, -16
	movq	%rsp, %rbp
	.cfi_def_cfa_register %rbp
	subq	$16, %rsp
	movq	%rdi, %rax
	movq	$0, -16(%rbp)
	movq	%rsi, (%rdi)
	movq	%rdx, 8(%rdi)
	movq	-16(%rbp), %rdx
	movq	-8(%rbp), %rsi
	movq	%rdx, 16(%rdi)
	movq	%rsi, 24(%rdi)
	movq	%rcx, 32(%rdi)
	movq	%r8, 40(%rdi)
	addq	$16, %rsp
	popq	%rbp
	retq
	.cfi_endproc

	.p2align	4, 0x90
__ZN4core3ops8function6FnOnce40call_once$u7b$$u7b$vtable.shim$u7d$$u7d$17h91083b420bde58c5E:
	.cfi_startproc
	pushq	%rbp
	.cfi_def_cfa_offset 16
	.cfi_offset %rbp, -16
	movq	%rsp, %rbp
	.cfi_def_cfa_register %rbp
	subq	$16, %rsp
	movq	(%rdi), %rdi
	callq	__ZN4core3ops8function6FnOnce9call_once17h2bc782c44f0bc0b7E
	movl	%eax, -12(%rbp)
	movl	-12(%rbp), %eax
	addq	$16, %rsp
	popq	%rbp
	retq
	.cfi_endproc

	.p2align	4, 0x90
__ZN4core3ops8function6FnOnce9call_once17h2bc782c44f0bc0b7E:
Lfunc_begin0:
	.cfi_startproc
	.cfi_personality 155, _rust_eh_personality
	.cfi_lsda 16, Lexception0
	pushq	%rbp
	.cfi_def_cfa_offset 16
	.cfi_offset %rbp, -16
	movq	%rsp, %rbp
	.cfi_def_cfa_register %rbp
	subq	$48, %rsp
	movq	%rdi, -32(%rbp)
Ltmp0:
	leaq	-32(%rbp), %rdi
	callq	__ZN3std2rt10lang_start28_$u7b$$u7b$closure$u7d$$u7d$17hb6c47d2a9bed0df0E
Ltmp1:
	movl	%eax, -36(%rbp)
	jmp	LBB5_1
LBB5_1:
	jmp	LBB5_2
LBB5_2:
	movl	-36(%rbp), %eax
	addq	$48, %rsp
	popq	%rbp
	retq
LBB5_3:
	jmp	LBB5_4
LBB5_4:
	movq	-16(%rbp), %rdi
	callq	__Unwind_Resume
	ud2
LBB5_5:
Ltmp2:
	movq	%rax, -16(%rbp)
	movl	%edx, -8(%rbp)
	jmp	LBB5_3
Lfunc_end0:
	.cfi_endproc
	.section	__TEXT,__gcc_except_tab
	.p2align	2
GCC_except_table5:
Lexception0:
	.byte	255
	.byte	255
	.byte	1
	.uleb128 Lcst_end0-Lcst_begin0
Lcst_begin0:
	.uleb128 Ltmp0-Lfunc_begin0
	.uleb128 Ltmp1-Ltmp0
	.uleb128 Ltmp2-Lfunc_begin0
	.byte	0
	.uleb128 Ltmp1-Lfunc_begin0
	.uleb128 Lfunc_end0-Ltmp1
	.byte	0
	.byte	0
Lcst_end0:
	.p2align	2

	.section	__TEXT,__text,regular,pure_instructions
	.p2align	4, 0x90
__ZN4core3ptr13drop_in_place17h6c2f61b94d38e5daE:
	.cfi_startproc
	pushq	%rbp
	.cfi_def_cfa_offset 16
	.cfi_offset %rbp, -16
	movq	%rsp, %rbp
	.cfi_def_cfa_register %rbp
	pushq	%rax
	addq	$8, %rsp
	popq	%rbp
	retq
	.cfi_endproc

	.p2align	4, 0x90
__ZN54_$LT$$LP$$RP$$u20$as$u20$std..process..Termination$GT$6report17h6ce4f084885c5e9aE:
	.cfi_startproc
	pushq	%rbp
	.cfi_def_cfa_offset 16
	.cfi_offset %rbp, -16
	movq	%rsp, %rbp
	.cfi_def_cfa_register %rbp
	subq	$16, %rsp
	xorl	%edi, %edi
	callq	__ZN68_$LT$std..process..ExitCode$u20$as$u20$std..process..Termination$GT$6report17h382ae166caf163e7E
	movl	%eax, -4(%rbp)
	movl	-4(%rbp), %eax
	addq	$16, %rsp
	popq	%rbp
	retq
	.cfi_endproc

	.p2align	4, 0x90
__ZN68_$LT$std..process..ExitCode$u20$as$u20$std..process..Termination$GT$6report17h382ae166caf163e7E:
	.cfi_startproc
	pushq	%rbp
	.cfi_def_cfa_offset 16
	.cfi_offset %rbp, -16
	movq	%rsp, %rbp
	.cfi_def_cfa_register %rbp
	subq	$16, %rsp
	movb	%dil, -1(%rbp)
	leaq	-1(%rbp), %rdi
	callq	__ZN3std3sys4unix7process14process_common8ExitCode6as_i3217h5fda945ec178e475E
	movl	%eax, -8(%rbp)
	movl	-8(%rbp), %eax
	addq	$16, %rsp
	popq	%rbp
	retq
	.cfi_endproc

	.p2align	4, 0x90
__ZN18build_script_build4main17h572a661728c1b506E:
	.cfi_startproc
	pushq	%rbp
	.cfi_def_cfa_offset 16
	.cfi_offset %rbp, -16
	movq	%rsp, %rbp
	.cfi_def_cfa_register %rbp
	subq	$64, %rsp
	xorl	%eax, %eax
	movl	%eax, %r8d
	movq	l___unnamed_2(%rip), %rcx
	movq	l___unnamed_3(%rip), %rdx
	leaq	-48(%rbp), %rdi
	movq	%rcx, %rsi
	movl	$1, %ecx
	movq	%rdx, -56(%rbp)
	movq	%rcx, %rdx
	movq	-56(%rbp), %rcx
	callq	__ZN4core3fmt9Arguments6new_v117h0f8dd655999a0db0E
	leaq	-48(%rbp), %rdi
	callq	__ZN3std2io5stdio6_print17h84d1497a7551d848E
	addq	$64, %rsp
	popq	%rbp
	retq
	.cfi_endproc

	.globl	_main
	.p2align	4, 0x90
_main:
	.cfi_startproc
	pushq	%rbp
	.cfi_def_cfa_offset 16
	.cfi_offset %rbp, -16
	movq	%rsp, %rbp
	.cfi_def_cfa_register %rbp
	subq	$16, %rsp
	movslq	%edi, %rax
	leaq	__ZN18build_script_build4main17h572a661728c1b506E(%rip), %rdi
	movq	%rsi, -8(%rbp)
	movq	%rax, %rsi
	movq	-8(%rbp), %rdx
	callq	__ZN3std2rt10lang_start17h85d0b75f4aee41edE
	addq	$16, %rsp
	popq	%rbp
	retq
	.cfi_endproc

	.section	__DATA,__const
	.p2align	3
l___unnamed_1:
	.quad	__ZN4core3ptr13drop_in_place17h6c2f61b94d38e5daE
	.quad	8
	.quad	8
	.quad	__ZN3std2rt10lang_start28_$u7b$$u7b$closure$u7d$$u7d$17hb6c47d2a9bed0df0E
	.quad	__ZN3std2rt10lang_start28_$u7b$$u7b$closure$u7d$$u7d$17hb6c47d2a9bed0df0E
	.quad	__ZN4core3ops8function6FnOnce40call_once$u7b$$u7b$vtable.shim$u7d$$u7d$17h91083b420bde58c5E

	.section	__TEXT,__const
l___unnamed_4:
	.ascii	"cargo:rerun-if-changed=build.rs\n"

	.section	__DATA,__const
	.p2align	3
l___unnamed_5:
	.quad	l___unnamed_4
	.asciz	" \000\000\000\000\000\000"

	.p2align	3
l___unnamed_2:
	.quad	l___unnamed_5

	.section	__TEXT,__const
	.p2align	3
l___unnamed_6:
	.byte	0

	.section	__DATA,__const
	.p2align	3
l___unnamed_3:
	.quad	l___unnamed_6

.subsections_via_symbols
