	.section	__TEXT,__text,regular,pure_instructions
	.macosx_version_min 10, 7
	.p2align	4, 0x90
__ZN112_$LT$alloc..collections..btree..map..IntoIter$LT$K$C$V$GT$$u20$as$u20$core..iter..traits..iterator..Iterator$GT$4next17h0d79330efe51cc6bE:
Lfunc_begin0:
	.file	1 "/rustc/a74d1862d4d87a56244958416fd05976c58ca1a8/src/liballoc/collections/btree/map.rs"
	.loc	1 1598 0
	.cfi_startproc
	pushq	%rbp
	.cfi_def_cfa_offset 16
	.cfi_offset %rbp, -16
	movq	%rsp, %rbp
	.cfi_def_cfa_register %rbp
	pushq	%r15
	pushq	%r14
	pushq	%r13
	pushq	%r12
	pushq	%rbx
	subq	$120, %rsp
	.cfi_offset %rbx, -56
	.cfi_offset %r12, -48
	.cfi_offset %r13, -40
	.cfi_offset %r14, -32
	.cfi_offset %r15, -24
	movq	%rdi, %r9
Ltmp0:
	.loc	1 1599 12 prologue_end
	movq	64(%rsi), %rax
	testq	%rax, %rax
	.loc	1 1599 9 is_stmt 0
	je	LBB0_21
Ltmp1:
	.loc	1 0 9
	movq	%rsi, %r12
Ltmp2:
	.loc	1 1602 13 is_stmt 1
	decq	%rax
	movq	%rax, 64(%rsi)
Ltmp3:
	.file	2 "/rustc/a74d1862d4d87a56244958416fd05976c58ca1a8/src/libcore/option.rs"
	.loc	2 291 13
	movq	8(%rsi), %rax
	testq	%rax, %rax
	cmoveq	%rax, %r12
Ltmp4:
	.loc	2 387 13
	je	LBB0_23
Ltmp5:
	.file	3 "/rustc/a74d1862d4d87a56244958416fd05976c58ca1a8/src/libcore/ptr/mod.rs"
	.loc	3 651 5
	movq	(%r12), %rax
Ltmp6:
	movq	8(%r12), %rdi
Ltmp7:
	movq	16(%r12), %r10
Ltmp8:
	movq	24(%r12), %r13
Ltmp9:
	.file	4 "/rustc/a74d1862d4d87a56244958416fd05976c58ca1a8/src/liballoc/collections/btree/node.rs"
	.loc	4 293 9
	movzwl	10(%rdi), %ecx
Ltmp10:
	.loc	4 814 12
	cmpq	%rcx, %r13
	.loc	4 814 9 is_stmt 0
	jae	LBB0_4
Ltmp11:
	.file	5 "/rustc/a74d1862d4d87a56244958416fd05976c58ca1a8/src/liballoc/collections/btree/navigate.rs"
	.loc	5 0 0
	movq	%rax, %rbx
Ltmp12:
	jmp	LBB0_10
Ltmp13:
LBB0_21:
	.loc	1 1600 13 is_stmt 1
	movq	$0, (%r9)
	jmp	LBB0_22
Ltmp14:
LBB0_4:
	.loc	1 0 13 is_stmt 0
	movq	%r10, -48(%rbp)
Ltmp15:
	movq	%r9, -56(%rbp)
	movl	$544, %r15d
Ltmp16:
	.loc	4 344 30 is_stmt 1
	movq	(%rdi), %r14
Ltmp17:
	.loc	4 345 16
	testq	%r14, %r14
	je	LBB0_6
Ltmp18:
	.p2align	4, 0x90
LBB0_7:
	.loc	4 348 29
	leaq	1(%rax), %rbx
Ltmp19:
	.loc	4 353 43
	movzwl	8(%rdi), %r13d
Ltmp20:
LBB0_8:
	.loc	4 397 16
	testq	%rax, %rax
	.loc	4 397 13 is_stmt 0
	movl	$640, %esi
	cmoveq	%r15, %rsi
Ltmp21:
	.file	6 "/rustc/a74d1862d4d87a56244958416fd05976c58ca1a8/src/liballoc/alloc.rs"
	.loc	6 102 5 is_stmt 1
	movl	$8, %edx
	callq	___rust_dealloc
Ltmp22:
	.loc	4 293 9
	movzwl	10(%r14), %ecx
	movq	%rbx, %rax
	movq	%r14, %rdi
Ltmp23:
	.loc	4 814 12
	cmpq	%rcx, %r13
	.loc	4 814 9 is_stmt 0
	jb	LBB0_9
Ltmp24:
	.loc	4 344 30 is_stmt 1
	movq	(%rdi), %r14
Ltmp25:
	.loc	4 345 16
	testq	%r14, %r14
	jne	LBB0_7
Ltmp26:
LBB0_6:
	.loc	4 0 16 is_stmt 0
	movq	%rax, %rbx
Ltmp27:
	xorl	%r14d, %r14d
Ltmp28:
	jmp	LBB0_8
Ltmp29:
LBB0_9:
	movq	%r14, %rdi
	movq	-56(%rbp), %r9
	movq	-48(%rbp), %r10
Ltmp30:
LBB0_10:
	.loc	4 975 13 is_stmt 1
	leaq	(%r13,%r13,2), %rax
Ltmp31:
	.loc	3 651 5
	movq	32(%rdi,%rax,8), %rcx
	movq	%rcx, -64(%rbp)
	movq	16(%rdi,%rax,8), %rcx
	movq	24(%rdi,%rax,8), %rdx
	movq	%rdx, -72(%rbp)
	movq	%rcx, -80(%rbp)
Ltmp32:
	.loc	3 651 5 is_stmt 0
	movq	296(%rdi,%rax,8), %rcx
	movq	%rcx, -88(%rbp)
	movq	280(%rdi,%rax,8), %rcx
	movq	288(%rdi,%rax,8), %rax
	movq	%rax, -96(%rbp)
	movq	%rcx, -104(%rbp)
Ltmp33:
	.loc	4 680 12 is_stmt 1
	testq	%rbx, %rbx
Ltmp34:
	.loc	5 223 13
	je	LBB0_11
Ltmp35:
	.loc	4 680 12
	movq	%rbx, %rax
Ltmp36:
	.loc	4 963 17
	movq	552(%rdi,%r13,8), %rdi
Ltmp37:
	.loc	4 680 12
	decq	%rax
Ltmp38:
	.loc	5 199 17
	je	LBB0_13
Ltmp39:
	addq	$-2, %rbx
Ltmp40:
	movq	%rax, %rcx
	andq	$7, %rcx
	je	LBB0_18
Ltmp41:
	.loc	5 0 17 is_stmt 0
	xorl	%edx, %edx
Ltmp42:
	.p2align	4, 0x90
LBB0_16:
	movq	544(%rdi), %rdi
Ltmp43:
	.loc	5 199 17
	incq	%rdx
	cmpq	%rdx, %rcx
	jne	LBB0_16
Ltmp44:
	subq	%rdx, %rax
Ltmp45:
LBB0_18:
	.loc	5 0 17
	xorl	%r13d, %r13d
Ltmp46:
	.loc	5 199 17
	cmpq	$7, %rbx
	jb	LBB0_20
Ltmp47:
	.p2align	4, 0x90
LBB0_19:
	.loc	5 0 0
	movq	544(%rdi), %rcx
Ltmp48:
	movq	544(%rcx), %rcx
Ltmp49:
	movq	544(%rcx), %rcx
Ltmp50:
	movq	544(%rcx), %rcx
Ltmp51:
	movq	544(%rcx), %rcx
Ltmp52:
	movq	544(%rcx), %rcx
Ltmp53:
	movq	544(%rcx), %rcx
Ltmp54:
	movq	544(%rcx), %rdi
Ltmp55:
	.loc	4 680 12 is_stmt 1
	addq	$-8, %rax
Ltmp56:
	.loc	5 199 17
	jne	LBB0_19
	jmp	LBB0_20
Ltmp57:
LBB0_11:
	.loc	5 0 17 is_stmt 0
	incq	%r13
Ltmp58:
	jmp	LBB0_20
Ltmp59:
LBB0_13:
	xorl	%r13d, %r13d
Ltmp60:
LBB0_20:
	.loc	5 166 36 is_stmt 1
	movq	-64(%rbp), %r8
	movq	%r8, -136(%rbp)
	movq	-80(%rbp), %rcx
	movq	-72(%rbp), %rdx
	movq	%rdx, -144(%rbp)
	movq	%rcx, -152(%rbp)
	.loc	5 166 35 is_stmt 0
	movq	-104(%rbp), %rsi
	movq	-96(%rbp), %rbx
	movq	%rsi, -128(%rbp)
	movq	%rbx, -120(%rbp)
	movq	-88(%rbp), %rax
	movq	%rax, -112(%rbp)
	.loc	5 166 13
	movq	%rax, 40(%r9)
	movq	%rbx, 32(%r9)
	movq	%rsi, 24(%r9)
	movq	%r8, 16(%r9)
	movq	%rdx, 8(%r9)
	movq	%rcx, (%r9)
Ltmp61:
	.loc	3 836 42 is_stmt 1
	movq	$0, (%r12)
	movq	%rdi, 8(%r12)
	movq	%r10, 16(%r12)
	movq	%r13, 24(%r12)
Ltmp62:
LBB0_22:
	.loc	1 1605 6
	addq	$120, %rsp
	popq	%rbx
	popq	%r12
	popq	%r13
	popq	%r14
	popq	%r15
	popq	%rbp
	retq
LBB0_23:
Ltmp63:
	.file	7 "/rustc/a74d1862d4d87a56244958416fd05976c58ca1a8/src/libcore/macros/mod.rs"
	.loc	7 10 9
	leaq	l___unnamed_2(%rip), %rdi
	leaq	l___unnamed_3(%rip), %rdx
	movl	$43, %esi
	callq	__ZN4core9panicking5panic17h736ee47a631475c0E
Ltmp64:
Lfunc_end0:
	.cfi_endproc
	.file	8 "/rustc/a74d1862d4d87a56244958416fd05976c58ca1a8/src/libcore/result.rs"

	.private_extern	__ZN3std2rt10lang_start17h08ef327f61ea3157E
	.globl	__ZN3std2rt10lang_start17h08ef327f61ea3157E
	.p2align	4, 0x90
__ZN3std2rt10lang_start17h08ef327f61ea3157E:
Lfunc_begin1:
	.file	9 "/rustc/a74d1862d4d87a56244958416fd05976c58ca1a8/src/libstd/rt.rs"
	.loc	9 62 0
	.cfi_startproc
	pushq	%rbp
	.cfi_def_cfa_offset 16
	.cfi_offset %rbp, -16
	movq	%rsp, %rbp
	.cfi_def_cfa_register %rbp
	subq	$16, %rsp
	movq	%rdx, %rcx
Ltmp65:
	movq	%rsi, %rdx
Ltmp66:
	.loc	9 67 26 prologue_end
	movq	%rdi, -8(%rbp)
	.loc	9 67 5 is_stmt 0
	leaq	l___unnamed_1(%rip), %rsi
	leaq	-8(%rbp), %rdi
Ltmp67:
	callq	__ZN3std2rt19lang_start_internal17hebefdaa8fd585aefE
Ltmp68:
	.loc	9 68 2 is_stmt 1
	addq	$16, %rsp
	popq	%rbp
	retq
Ltmp69:
Lfunc_end1:
	.cfi_endproc

	.p2align	4, 0x90
__ZN3std2rt10lang_start28_$u7b$$u7b$closure$u7d$$u7d$17hc1c1f871d1c30c3dE:
Lfunc_begin2:
	.loc	9 67 0
	.cfi_startproc
	pushq	%rbp
	.cfi_def_cfa_offset 16
	.cfi_offset %rbp, -16
	movq	%rsp, %rbp
	.cfi_def_cfa_register %rbp
Ltmp70:
	.loc	9 67 34 prologue_end
	callq	*(%rdi)
Ltmp71:
	.loc	9 67 49 is_stmt 0
	xorl	%eax, %eax
	popq	%rbp
	retq
Ltmp72:
Lfunc_end2:
	.cfi_endproc

	.p2align	4, 0x90
__ZN44_$LT$$RF$T$u20$as$u20$core..fmt..Display$GT$3fmt17hce52cc15029fc4c7E:
Lfunc_begin3:
	.file	10 "/rustc/a74d1862d4d87a56244958416fd05976c58ca1a8/src/libcore/fmt/mod.rs"
	.loc	10 1973 0 is_stmt 1
	.cfi_startproc
	pushq	%rbp
	.cfi_def_cfa_offset 16
	.cfi_offset %rbp, -16
	movq	%rsp, %rbp
	.cfi_def_cfa_register %rbp
	movq	%rsi, %rdx
Ltmp73:
	.loc	10 1973 71 prologue_end
	movq	(%rdi), %rax
	movq	8(%rdi), %rsi
	.loc	10 1973 62 is_stmt 0
	movq	%rax, %rdi
Ltmp74:
	popq	%rbp
	jmp	__ZN42_$LT$str$u20$as$u20$core..fmt..Display$GT$3fmt17hd4dee1c1c4ccf892E
Ltmp75:
Lfunc_end3:
	.cfi_endproc

	.p2align	4, 0x90
__ZN4core3ops8function6FnOnce40call_once$u7b$$u7b$vtable.shim$u7d$$u7d$17hc3edbbf00c989a07E:
Lfunc_begin4:
	.file	11 "/rustc/a74d1862d4d87a56244958416fd05976c58ca1a8/src/libcore/ops/function.rs"
	.loc	11 232 0 is_stmt 1
	.cfi_startproc
	pushq	%rbp
	.cfi_def_cfa_offset 16
	.cfi_offset %rbp, -16
	movq	%rsp, %rbp
	.cfi_def_cfa_register %rbp
Ltmp76:
	.loc	9 67 34 prologue_end
	callq	*(%rdi)
Ltmp77:
	.loc	11 232 5
	xorl	%eax, %eax
	popq	%rbp
	retq
Ltmp78:
Lfunc_end4:
	.cfi_endproc

	.p2align	4, 0x90
__ZN4core3ptr13drop_in_place17h0a44d44afc935b7bE:
Lfunc_begin5:
	.loc	3 178 0
	.cfi_startproc
	pushq	%rbp
	.cfi_def_cfa_offset 16
	.cfi_offset %rbp, -16
	movq	%rsp, %rbp
	.cfi_def_cfa_register %rbp
Ltmp79:
	.loc	3 178 1 prologue_end
	popq	%rbp
	retq
Ltmp80:
Lfunc_end5:
	.cfi_endproc

	.p2align	4, 0x90
__ZN4core3ptr13drop_in_place17h101c08d6cd9b9ed0E:
Lfunc_begin6:
	.loc	3 178 0
	.cfi_startproc
	pushq	%rbp
	.cfi_def_cfa_offset 16
	.cfi_offset %rbp, -16
	movq	%rsp, %rbp
	.cfi_def_cfa_register %rbp
Ltmp81:
	.loc	3 178 1 prologue_end
	cmpl	$3, (%rdi)
	jne	LBB6_1
Ltmp82:
	.loc	3 178 1 is_stmt 0
	addq	$4, %rdi
Ltmp83:
	.loc	3 178 1
	popq	%rbp
	jmp	__ZN70_$LT$std..sys..unix..fd..FileDesc$u20$as$u20$core..ops..drop..Drop$GT$4drop17hf5fce2bf4d9f8deaE
Ltmp84:
LBB6_1:
	.loc	3 178 1
	popq	%rbp
	retq
Ltmp85:
Lfunc_end6:
	.cfi_endproc

	.p2align	4, 0x90
__ZN4core3ptr13drop_in_place17h38ef860b4386506fE:
Lfunc_begin7:
	.loc	3 178 0 is_stmt 1
	.cfi_startproc
	pushq	%rbp
	.cfi_def_cfa_offset 16
	.cfi_offset %rbp, -16
	movq	%rsp, %rbp
	.cfi_def_cfa_register %rbp
	movq	%rdi, %rax
Ltmp86:
	.loc	3 178 1 prologue_end
	movq	(%rdi), %rdi
Ltmp87:
	.file	12 "/rustc/a74d1862d4d87a56244958416fd05976c58ca1a8/src/liballoc/raw_vec.rs"
	.loc	12 532 16
	testq	%rdi, %rdi
Ltmp88:
	.loc	12 200 9
	je	LBB7_2
Ltmp89:
	.loc	3 0 0 is_stmt 0
	movq	8(%rax), %rsi
Ltmp90:
	.loc	12 200 9
	testq	%rsi, %rsi
	je	LBB7_2
Ltmp91:
	.loc	6 102 5 is_stmt 1
	movl	$1, %edx
	popq	%rbp
	jmp	___rust_dealloc
Ltmp92:
LBB7_2:
	.loc	3 178 1
	popq	%rbp
	retq
Ltmp93:
Lfunc_end7:
	.cfi_endproc

	.p2align	4, 0x90
__ZN4core3ptr13drop_in_place17h3aec47605aaafca8E:
Lfunc_begin8:
	.loc	3 178 0
	.cfi_startproc
	pushq	%rbp
	.cfi_def_cfa_offset 16
	.cfi_offset %rbp, -16
	movq	%rsp, %rbp
	.cfi_def_cfa_register %rbp
	movq	%rdi, %rax
Ltmp94:
	.loc	3 178 1 prologue_end
	movq	(%rdi), %rdi
Ltmp95:
	.loc	12 532 16
	testq	%rdi, %rdi
Ltmp96:
	.loc	12 200 9
	je	LBB8_2
Ltmp97:
	.loc	3 0 0 is_stmt 0
	movq	8(%rax), %rsi
Ltmp98:
	.loc	12 200 9
	testq	%rsi, %rsi
	je	LBB8_2
Ltmp99:
	.loc	6 102 5 is_stmt 1
	movl	$1, %edx
	popq	%rbp
	jmp	___rust_dealloc
Ltmp100:
LBB8_2:
	.loc	3 178 1
	popq	%rbp
	retq
Ltmp101:
Lfunc_end8:
	.cfi_endproc

	.p2align	4, 0x90
__ZN4core3ptr13drop_in_place17h410f8744ca9fcfd0E:
Lfunc_begin9:
	.loc	3 178 0
	.cfi_startproc
	pushq	%rbp
	.cfi_def_cfa_offset 16
	.cfi_offset %rbp, -16
	movq	%rsp, %rbp
	.cfi_def_cfa_register %rbp
Ltmp102:
	.loc	3 178 1 prologue_end
	movq	(%rdi), %rax
Ltmp103:
	testq	%rax, %rax
	je	LBB9_2
Ltmp104:
	.file	13 "/rustc/a74d1862d4d87a56244958416fd05976c58ca1a8/src/libstd/ffi/c_str.rs"
	.loc	13 645 13
	movb	$0, (%rax)
Ltmp105:
	.loc	3 178 1
	movq	8(%rdi), %rsi
Ltmp106:
	.loc	6 185 12
	testq	%rsi, %rsi
	.loc	6 185 9 is_stmt 0
	je	LBB9_2
Ltmp107:
	.loc	3 178 1 is_stmt 1
	movq	(%rdi), %rdi
Ltmp108:
	.loc	6 102 5
	movl	$1, %edx
	popq	%rbp
	jmp	___rust_dealloc
Ltmp109:
LBB9_2:
	.loc	3 178 1
	popq	%rbp
	retq
Ltmp110:
Lfunc_end9:
	.cfi_endproc

	.p2align	4, 0x90
__ZN4core3ptr13drop_in_place17h692f96ea3eb31fa6E:
Lfunc_begin10:
	.loc	3 178 0
	.cfi_startproc
	.cfi_personality 155, _rust_eh_personality
	.cfi_lsda 16, Lexception0
	pushq	%rbp
	.cfi_def_cfa_offset 16
	.cfi_offset %rbp, -16
	movq	%rsp, %rbp
	.cfi_def_cfa_register %rbp
	pushq	%r15
	pushq	%r14
	pushq	%r13
	pushq	%r12
	pushq	%rbx
	pushq	%rax
	.cfi_offset %rbx, -56
	.cfi_offset %r12, -48
	.cfi_offset %r13, -40
	.cfi_offset %r14, -32
	.cfi_offset %r15, -24
	movq	%rdi, %r14
Ltmp117:
	.file	14 "/rustc/a74d1862d4d87a56244958416fd05976c58ca1a8/src/liballoc/vec.rs"
	.loc	14 850 19 prologue_end
	movq	(%rdi), %rbx
Ltmp118:
	.loc	14 2384 81
	movq	16(%rdi), %r12
Ltmp119:
	.loc	3 178 1
	testq	%r12, %r12
	je	LBB10_7
Ltmp120:
	.loc	3 0 0 is_stmt 0
	shlq	$4, %r12
Ltmp121:
	leaq	(%rbx,%r12), %r15
Ltmp122:
	.loc	3 178 1
	addq	$-16, %r12
	addq	$16, %rbx
Ltmp123:
	.loc	3 0 1
	jmp	LBB10_2
Ltmp124:
	.p2align	4, 0x90
LBB10_5:
	.loc	3 178 1
	addq	$-16, %r12
	addq	$16, %rbx
	addq	$16, %r13
	cmpq	%r15, %r13
	je	LBB10_6
Ltmp125:
LBB10_2:
	.loc	3 178 1
	movq	-16(%rbx), %rdi
	movq	-8(%rbx), %rax
Ltmp111:
	callq	*(%rax)
Ltmp112:
Ltmp126:
	leaq	-16(%rbx), %r13
	movq	8(%r13), %rax
Ltmp127:
	.loc	6 282 16 is_stmt 1
	movq	8(%rax), %rsi
Ltmp128:
	.loc	6 185 12
	testq	%rsi, %rsi
	.loc	6 185 9 is_stmt 0
	je	LBB10_5
Ltmp129:
	.loc	3 178 1 is_stmt 1
	movq	-16(%rbx), %rdi
Ltmp130:
	.loc	6 283 17
	movq	16(%rax), %rdx
Ltmp131:
	.loc	6 102 5
	callq	___rust_dealloc
Ltmp132:
	.loc	6 0 5 is_stmt 0
	jmp	LBB10_5
Ltmp133:
LBB10_6:
	.loc	3 178 1 is_stmt 1
	movq	(%r14), %rbx
Ltmp134:
LBB10_7:
	movq	8(%r14), %rsi
Ltmp135:
	.loc	12 200 40
	testq	%rsi, %rsi
	.loc	12 200 9 is_stmt 0
	je	LBB10_14
Ltmp136:
	.loc	12 532 16 is_stmt 1
	testq	%rbx, %rbx
Ltmp137:
	je	LBB10_14
Ltmp138:
	.loc	12 0 0 is_stmt 0
	shlq	$4, %rsi
Ltmp139:
	.loc	12 532 16
	je	LBB10_14
Ltmp140:
	.loc	6 102 5 is_stmt 1
	movl	$8, %edx
	movq	%rbx, %rdi
	addq	$8, %rsp
	popq	%rbx
Ltmp141:
	popq	%r12
	popq	%r13
	popq	%r14
Ltmp142:
	popq	%r15
	popq	%rbp
	jmp	___rust_dealloc
Ltmp143:
LBB10_14:
	.loc	3 178 1
	addq	$8, %rsp
	popq	%rbx
	popq	%r12
	popq	%r13
	popq	%r14
Ltmp144:
	popq	%r15
	popq	%rbp
	retq
LBB10_11:
Ltmp145:
Ltmp113:
	.loc	3 0 1 is_stmt 0
	movq	%rax, %r15
Ltmp146:
	.loc	3 178 1
	movq	-16(%rbx), %rdi
	movq	-8(%rbx), %rsi
	callq	__ZN5alloc5alloc8box_free17h1a20f55ae96302bcE
Ltmp147:
	.loc	3 178 1
	testq	%r12, %r12
	je	LBB10_16
Ltmp148:
	.p2align	4, 0x90
LBB10_12:
Ltmp114:
	movq	%rbx, %rdi
	callq	__ZN4core3ptr13drop_in_place17hcf6b9277ff831310E
Ltmp115:
Ltmp149:
	addq	$16, %rbx
	addq	$-16, %r12
	jne	LBB10_12
	jmp	LBB10_16
Ltmp150:
LBB10_15:
Ltmp116:
	.loc	3 0 1
	movq	%rax, %r15
Ltmp151:
LBB10_16:
	.loc	3 178 1
	movq	(%r14), %rdi
	movq	8(%r14), %rsi
	callq	__ZN4core3ptr13drop_in_place17hadcf1799cc07a764E
	movq	%r15, %rdi
	callq	__Unwind_Resume
	ud2
Ltmp152:
Lfunc_end10:
	.cfi_endproc
	.section	__TEXT,__gcc_except_tab
	.p2align	2
GCC_except_table10:
Lexception0:
	.byte	255
	.byte	255
	.byte	1
	.uleb128 Lcst_end0-Lcst_begin0
Lcst_begin0:
	.uleb128 Ltmp111-Lfunc_begin10
	.uleb128 Ltmp112-Ltmp111
	.uleb128 Ltmp113-Lfunc_begin10
	.byte	0
	.uleb128 Ltmp114-Lfunc_begin10
	.uleb128 Ltmp115-Ltmp114
	.uleb128 Ltmp116-Lfunc_begin10
	.byte	0
	.uleb128 Ltmp115-Lfunc_begin10
	.uleb128 Lfunc_end10-Ltmp115
	.byte	0
	.byte	0
Lcst_end0:
	.p2align	2

	.section	__TEXT,__text,regular,pure_instructions
	.p2align	4, 0x90
__ZN4core3ptr13drop_in_place17h8cf11ea880c61634E:
Lfunc_begin11:
	.loc	3 178 0 is_stmt 1
	.cfi_startproc
	pushq	%rbp
	.cfi_def_cfa_offset 16
	.cfi_offset %rbp, -16
	movq	%rsp, %rbp
	.cfi_def_cfa_register %rbp
	movq	%rdi, %rax
Ltmp153:
	.loc	3 178 1 prologue_end
	movq	(%rdi), %rdi
Ltmp154:
	.loc	12 532 16
	testq	%rdi, %rdi
Ltmp155:
	.loc	12 200 9
	je	LBB11_2
Ltmp156:
	.loc	3 0 0 is_stmt 0
	movq	8(%rax), %rsi
Ltmp157:
	.loc	12 200 9
	testq	%rsi, %rsi
	je	LBB11_2
Ltmp158:
	.loc	6 102 5 is_stmt 1
	movl	$1, %edx
	popq	%rbp
	jmp	___rust_dealloc
Ltmp159:
LBB11_2:
	.loc	3 178 1
	popq	%rbp
	retq
Ltmp160:
Lfunc_end11:
	.cfi_endproc

	.p2align	4, 0x90
__ZN4core3ptr13drop_in_place17h9ef53b4663df7b7dE:
Lfunc_begin12:
	.loc	3 178 0
	.cfi_startproc
	.cfi_personality 155, _rust_eh_personality
	.cfi_lsda 16, Lexception1
	pushq	%rbp
	.cfi_def_cfa_offset 16
	.cfi_offset %rbp, -16
	movq	%rsp, %rbp
	.cfi_def_cfa_register %rbp
	pushq	%r15
	pushq	%r14
	pushq	%r13
	pushq	%r12
	pushq	%rbx
	subq	$120, %rsp
	.cfi_offset %rbx, -56
	.cfi_offset %r12, -48
	.cfi_offset %r13, -40
	.cfi_offset %r14, -32
	.cfi_offset %r15, -24
	movq	%rdi, %r14
Ltmp178:
	.loc	13 645 14 prologue_end
	movq	(%rdi), %rax
Ltmp179:
	.loc	13 645 13 is_stmt 0
	movb	$0, (%rax)
Ltmp180:
	.loc	3 178 1 is_stmt 1
	movq	8(%rdi), %rsi
Ltmp181:
	.loc	6 185 12
	testq	%rsi, %rsi
	.loc	6 185 9 is_stmt 0
	je	LBB12_2
Ltmp182:
	.loc	3 178 1 is_stmt 1
	movq	(%r14), %rdi
Ltmp183:
	.loc	6 102 5
	movl	$1, %edx
	callq	___rust_dealloc
Ltmp184:
LBB12_2:
	.loc	14 850 19
	movq	16(%r14), %rbx
Ltmp185:
	.loc	14 2384 81
	movq	32(%r14), %r15
Ltmp186:
	.loc	3 178 1
	testq	%r15, %r15
	je	LBB12_8
Ltmp187:
	shlq	$4, %r15
Ltmp188:
	addq	%rbx, %r15
	jmp	LBB12_4
Ltmp189:
	.p2align	4, 0x90
LBB12_6:
	addq	$16, %rbx
Ltmp190:
	cmpq	%r15, %rbx
	je	LBB12_7
Ltmp191:
LBB12_4:
	.loc	13 645 14
	movq	(%rbx), %rax
Ltmp192:
	.loc	13 645 13 is_stmt 0
	movb	$0, (%rax)
Ltmp193:
	.loc	3 178 1 is_stmt 1
	movq	8(%rbx), %rsi
Ltmp194:
	.loc	6 185 12
	testq	%rsi, %rsi
	.loc	6 185 9 is_stmt 0
	je	LBB12_6
Ltmp195:
	.loc	3 178 1 is_stmt 1
	movq	(%rbx), %rdi
Ltmp196:
	.loc	6 102 5
	movl	$1, %edx
	callq	___rust_dealloc
Ltmp197:
	.loc	6 0 5 is_stmt 0
	jmp	LBB12_6
Ltmp198:
LBB12_7:
	.loc	3 178 1 is_stmt 1
	movq	16(%r14), %rbx
Ltmp199:
LBB12_8:
	movq	24(%r14), %rsi
Ltmp200:
	.loc	12 200 40
	testq	%rsi, %rsi
	.loc	12 200 9 is_stmt 0
	je	LBB12_12
Ltmp201:
	.loc	12 532 16 is_stmt 1
	testq	%rbx, %rbx
Ltmp202:
	je	LBB12_12
Ltmp203:
	.loc	12 0 0 is_stmt 0
	shlq	$4, %rsi
Ltmp204:
	.loc	12 532 16
	je	LBB12_12
Ltmp205:
	.loc	6 102 5 is_stmt 1
	movl	$8, %edx
	movq	%rbx, %rdi
	callq	___rust_dealloc
Ltmp206:
LBB12_12:
	.loc	3 178 1
	movq	48(%r14), %rsi
Ltmp207:
	.loc	12 200 40
	testq	%rsi, %rsi
	.loc	12 200 9 is_stmt 0
	je	LBB12_16
Ltmp208:
	.loc	3 0 0
	movq	40(%r14), %rdi
Ltmp209:
	.loc	12 532 16 is_stmt 1
	testq	%rdi, %rdi
Ltmp210:
	je	LBB12_16
Ltmp211:
	.loc	12 0 0 is_stmt 0
	shlq	$3, %rsi
Ltmp212:
	.loc	12 532 16
	testq	%rsi, %rsi
	je	LBB12_16
Ltmp213:
	.loc	6 102 5 is_stmt 1
	movl	$8, %edx
	callq	___rust_dealloc
Ltmp214:
LBB12_16:
	.loc	3 178 1
	movq	64(%r14), %rcx
Ltmp215:
	.loc	1 1544 16
	testq	%rcx, %rcx
	je	LBB12_17
Ltmp216:
	.loc	3 0 0 is_stmt 0
	movq	72(%r14), %rdi
Ltmp217:
	movq	80(%r14), %rax
Ltmp218:
	.loc	4 293 9 is_stmt 1
	movzwl	10(%rcx), %edx
Ltmp219:
	.loc	4 680 12
	testq	%rdi, %rdi
Ltmp220:
	.loc	1 2136 14
	je	LBB12_32
Ltmp221:
	.loc	1 0 14 is_stmt 0
	movb	$1, %bl
	movq	%rcx, %rsi
Ltmp222:
	.p2align	4, 0x90
LBB12_36:
	.loc	1 2139 33 is_stmt 1
	testb	$1, %bl
	je	LBB12_33
Ltmp223:
	.loc	4 680 12
	cmpq	$1, %rdi
	setne	%bl
Ltmp224:
	.loc	4 963 17
	movq	544(%rcx), %rcx
Ltmp225:
	.loc	4 963 17 is_stmt 0
	movq	544(%rsi,%rdx,8), %rsi
Ltmp226:
	.loc	4 293 9 is_stmt 1
	movzwl	10(%rsi), %edx
Ltmp227:
	.loc	4 680 12
	decq	%rdi
Ltmp228:
	.loc	1 2136 14
	jne	LBB12_36
	jmp	LBB12_38
Ltmp229:
LBB12_17:
	.loc	1 1549 13
	movq	$0, -104(%rbp)
	movq	$0, -72(%rbp)
	xorl	%eax, %eax
	jmp	LBB12_39
Ltmp230:
LBB12_32:
	.loc	1 0 13 is_stmt 0
	movq	%rcx, %rsi
Ltmp231:
LBB12_38:
	.loc	1 1547 13 is_stmt 1
	movq	$0, -112(%rbp)
	movq	%rcx, -104(%rbp)
	movq	$0, -96(%rbp)
	movq	$0, -88(%rbp)
	movq	$0, -80(%rbp)
	movq	%rsi, -72(%rbp)
	movq	$0, -64(%rbp)
	movq	%rdx, -56(%rbp)
Ltmp232:
LBB12_39:
	.loc	1 0 0 is_stmt 0
	movq	%rax, -48(%rbp)
Ltmp233:
Ltmp163:
	leaq	-160(%rbp), %rdi
	leaq	-112(%rbp), %rsi
Ltmp234:
	.loc	1 1575 32 is_stmt 1
	callq	__ZN112_$LT$alloc..collections..btree..map..IntoIter$LT$K$C$V$GT$$u20$as$u20$core..iter..traits..iterator..Iterator$GT$4next17h0d79330efe51cc6bE
Ltmp164:
Ltmp235:
	.loc	1 1575 19 is_stmt 0
	movq	-160(%rbp), %rdi
	testq	%rdi, %rdi
	je	LBB12_50
Ltmp236:
	.loc	1 0 19
	leaq	-160(%rbp), %r15
	leaq	-112(%rbp), %r12
Ltmp237:
	.p2align	4, 0x90
LBB12_42:
	.loc	1 1575 24
	movq	-136(%rbp), %rbx
Ltmp238:
	movq	-128(%rbp), %r13
Ltmp239:
	.loc	12 532 16 is_stmt 1
	testq	%rdi, %rdi
Ltmp240:
	.loc	12 200 9
	je	LBB12_45
Ltmp241:
	.loc	1 0 0 is_stmt 0
	movq	-152(%rbp), %rsi
Ltmp242:
	.loc	12 200 9
	testq	%rsi, %rsi
	je	LBB12_45
Ltmp243:
	.loc	6 102 5 is_stmt 1
	movl	$1, %edx
	callq	___rust_dealloc
Ltmp244:
LBB12_45:
	.loc	3 178 1
	testq	%rbx, %rbx
Ltmp245:
	je	LBB12_48
Ltmp246:
	testq	%r13, %r13
	je	LBB12_48
Ltmp247:
	.loc	6 102 5
	movl	$1, %edx
	movq	%rbx, %rdi
	movq	%r13, %rsi
	callq	___rust_dealloc
Ltmp248:
LBB12_48:
Ltmp166:
	.loc	1 1575 32
	movq	%r15, %rdi
	movq	%r12, %rsi
	callq	__ZN112_$LT$alloc..collections..btree..map..IntoIter$LT$K$C$V$GT$$u20$as$u20$core..iter..traits..iterator..Iterator$GT$4next17h0d79330efe51cc6bE
Ltmp167:
Ltmp249:
	.loc	1 1575 19 is_stmt 0
	movq	-160(%rbp), %rdi
	testq	%rdi, %rdi
	jne	LBB12_42
Ltmp250:
LBB12_50:
	.loc	3 651 5 is_stmt 1
	movq	-104(%rbp), %rdi
Ltmp251:
	.loc	1 1582 20
	testq	%rdi, %rdi
	je	LBB12_27
Ltmp252:
	.loc	3 651 5
	movq	-112(%rbp), %rax
Ltmp253:
	.loc	3 0 5 is_stmt 0
	movl	$544, %r15d
Ltmp254:
	.p2align	4, 0x90
LBB12_52:
	.loc	4 344 30 is_stmt 1
	movq	(%rdi), %r12
Ltmp255:
	.loc	4 345 16
	xorl	%ebx, %ebx
	testq	%r12, %r12
	setne	%bl
	addq	%rax, %rbx
Ltmp256:
	.loc	4 397 16
	testq	%rax, %rax
	.loc	4 397 13 is_stmt 0
	movl	$640, %esi
	cmoveq	%r15, %rsi
Ltmp257:
	.loc	6 102 5 is_stmt 1
	movl	$8, %edx
	callq	___rust_dealloc
Ltmp258:
	.loc	1 0 0 is_stmt 0
	movq	%rbx, %rax
	movq	%r12, %rdi
Ltmp259:
	.loc	4 345 16 is_stmt 1
	testq	%r12, %r12
Ltmp260:
	.loc	1 1586 27
	jne	LBB12_52
Ltmp261:
LBB12_27:
	.loc	3 178 1
	movq	96(%r14), %rax
Ltmp262:
	testq	%rax, %rax
	je	LBB12_30
Ltmp263:
	.loc	13 645 13
	movb	$0, (%rax)
Ltmp264:
	.loc	3 178 1
	movq	104(%r14), %rsi
Ltmp265:
	.loc	6 185 12
	testq	%rsi, %rsi
	.loc	6 185 9 is_stmt 0
	je	LBB12_30
Ltmp266:
	.loc	3 178 1 is_stmt 1
	movq	96(%r14), %rdi
Ltmp267:
	.loc	6 102 5
	movl	$1, %edx
	callq	___rust_dealloc
Ltmp268:
LBB12_30:
	.loc	3 178 1
	leaq	112(%r14), %rdi
Ltmp169:
	callq	__ZN4core3ptr13drop_in_place17h692f96ea3eb31fa6E
Ltmp170:
Ltmp269:
	.loc	3 178 1 is_stmt 0
	cmpl	$3, 152(%r14)
	jne	LBB12_23
Ltmp270:
	.loc	3 178 1
	leaq	156(%r14), %rdi
Ltmp271:
Ltmp172:
	.loc	3 178 1
	callq	__ZN70_$LT$std..sys..unix..fd..FileDesc$u20$as$u20$core..ops..drop..Drop$GT$4drop17hf5fce2bf4d9f8deaE
Ltmp272:
Ltmp173:
LBB12_23:
	.loc	3 178 1
	cmpl	$3, 160(%r14)
	jne	LBB12_21
Ltmp273:
	.loc	3 178 1
	leaq	164(%r14), %rdi
Ltmp274:
Ltmp175:
	.loc	3 178 1
	callq	__ZN70_$LT$std..sys..unix..fd..FileDesc$u20$as$u20$core..ops..drop..Drop$GT$4drop17hf5fce2bf4d9f8deaE
Ltmp275:
Ltmp176:
LBB12_21:
	.loc	3 178 1
	cmpl	$3, 168(%r14)
	jne	LBB12_59
Ltmp276:
	.loc	3 178 1
	addq	$172, %r14
Ltmp277:
	.loc	3 178 1
	movq	%r14, %rdi
	addq	$120, %rsp
	popq	%rbx
	popq	%r12
	popq	%r13
	popq	%r14
Ltmp278:
	popq	%r15
	popq	%rbp
	jmp	__ZN70_$LT$std..sys..unix..fd..FileDesc$u20$as$u20$core..ops..drop..Drop$GT$4drop17hf5fce2bf4d9f8deaE
Ltmp279:
LBB12_59:
	.loc	3 178 1
	addq	$120, %rsp
	popq	%rbx
	popq	%r12
	popq	%r13
	popq	%r14
Ltmp280:
	popq	%r15
	popq	%rbp
	retq
LBB12_33:
Ltmp281:
	.loc	7 16 38 is_stmt 1
	leaq	__ZN44_$LT$$RF$T$u20$as$u20$core..fmt..Display$GT$3fmt17hce52cc15029fc4c7E(%rip), %rax
Ltmp282:
	movq	%rax, %xmm0
	leaq	l___unnamed_4(%rip), %rax
	movq	%rax, %xmm1
	punpcklqdq	%xmm0, %xmm1
	movdqa	%xmm1, -160(%rbp)
Ltmp283:
	.loc	10 328 9
	leaq	l___unnamed_5(%rip), %rax
Ltmp284:
	movq	%rax, -112(%rbp)
	movq	$1, -104(%rbp)
	movq	$0, -96(%rbp)
	leaq	-160(%rbp), %rax
Ltmp285:
	movq	%rax, -80(%rbp)
	movq	$1, -72(%rbp)
Ltmp286:
Ltmp161:
	.loc	7 16 9
	leaq	l___unnamed_6(%rip), %rsi
	leaq	-112(%rbp), %rdi
Ltmp287:
	callq	__ZN4core9panicking9panic_fmt17hab6ef1464e9720aaE
Ltmp288:
Ltmp162:
	ud2
Ltmp289:
LBB12_58:
Ltmp177:
	.loc	7 0 9 is_stmt 0
	movq	%rax, %rbx
	jmp	LBB12_20
Ltmp290:
LBB12_18:
Ltmp174:
	movq	%rax, %rbx
	jmp	LBB12_19
Ltmp291:
LBB12_54:
Ltmp165:
	jmp	LBB12_55
Ltmp292:
LBB12_57:
Ltmp171:
	movq	%rax, %rbx
	jmp	LBB12_56
Ltmp293:
LBB12_53:
Ltmp168:
LBB12_55:
	movq	%rax, %rbx
	.loc	3 178 1 is_stmt 1
	leaq	96(%r14), %rdi
	callq	__ZN4core3ptr13drop_in_place17h410f8744ca9fcfd0E
	leaq	112(%r14), %rdi
	callq	__ZN4core3ptr13drop_in_place17h692f96ea3eb31fa6E
Ltmp294:
LBB12_56:
	leaq	152(%r14), %rdi
	callq	__ZN4core3ptr13drop_in_place17h101c08d6cd9b9ed0E
Ltmp295:
LBB12_19:
	leaq	160(%r14), %rdi
	callq	__ZN4core3ptr13drop_in_place17h101c08d6cd9b9ed0E
Ltmp296:
LBB12_20:
	addq	$168, %r14
Ltmp297:
	movq	%r14, %rdi
	callq	__ZN4core3ptr13drop_in_place17h101c08d6cd9b9ed0E
	movq	%rbx, %rdi
	callq	__Unwind_Resume
	ud2
Ltmp298:
Lfunc_end12:
	.cfi_endproc
	.file	15 "/rustc/a74d1862d4d87a56244958416fd05976c58ca1a8/src/libcore/mem/mod.rs"
	.section	__TEXT,__gcc_except_tab
	.p2align	2
GCC_except_table12:
Lexception1:
	.byte	255
	.byte	255
	.byte	1
	.uleb128 Lcst_end1-Lcst_begin1
Lcst_begin1:
	.uleb128 Ltmp163-Lfunc_begin12
	.uleb128 Ltmp164-Ltmp163
	.uleb128 Ltmp165-Lfunc_begin12
	.byte	0
	.uleb128 Ltmp166-Lfunc_begin12
	.uleb128 Ltmp167-Ltmp166
	.uleb128 Ltmp168-Lfunc_begin12
	.byte	0
	.uleb128 Ltmp169-Lfunc_begin12
	.uleb128 Ltmp170-Ltmp169
	.uleb128 Ltmp171-Lfunc_begin12
	.byte	0
	.uleb128 Ltmp172-Lfunc_begin12
	.uleb128 Ltmp173-Ltmp172
	.uleb128 Ltmp174-Lfunc_begin12
	.byte	0
	.uleb128 Ltmp175-Lfunc_begin12
	.uleb128 Ltmp176-Ltmp175
	.uleb128 Ltmp177-Lfunc_begin12
	.byte	0
	.uleb128 Ltmp176-Lfunc_begin12
	.uleb128 Ltmp161-Ltmp176
	.byte	0
	.byte	0
	.uleb128 Ltmp161-Lfunc_begin12
	.uleb128 Ltmp162-Ltmp161
	.uleb128 Ltmp165-Lfunc_begin12
	.byte	0
	.uleb128 Ltmp162-Lfunc_begin12
	.uleb128 Lfunc_end12-Ltmp162
	.byte	0
	.byte	0
Lcst_end1:
	.p2align	2

	.section	__TEXT,__text,regular,pure_instructions
	.p2align	4, 0x90
__ZN4core3ptr13drop_in_place17hadcf1799cc07a764E:
Lfunc_begin13:
	.loc	3 178 0
	.cfi_startproc
	pushq	%rbp
	.cfi_def_cfa_offset 16
	.cfi_offset %rbp, -16
	movq	%rsp, %rbp
	.cfi_def_cfa_register %rbp
Ltmp299:
	.loc	12 200 40 prologue_end
	testq	%rsi, %rsi
	.loc	12 200 9 is_stmt 0
	je	LBB13_3
Ltmp300:
	.loc	12 532 16 is_stmt 1
	testq	%rdi, %rdi
Ltmp301:
	je	LBB13_3
Ltmp302:
	.loc	12 0 0 is_stmt 0
	shlq	$4, %rsi
Ltmp303:
	.loc	12 532 16
	je	LBB13_3
Ltmp304:
	.loc	6 102 5 is_stmt 1
	movl	$8, %edx
	popq	%rbp
	jmp	___rust_dealloc
Ltmp305:
LBB13_3:
	.loc	3 178 1
	popq	%rbp
	retq
Ltmp306:
Lfunc_end13:
	.cfi_endproc

	.p2align	4, 0x90
__ZN4core3ptr13drop_in_place17hcf6b9277ff831310E:
Lfunc_begin14:
	.loc	3 178 0
	.cfi_startproc
	.cfi_personality 155, _rust_eh_personality
	.cfi_lsda 16, Lexception2
	pushq	%rbp
	.cfi_def_cfa_offset 16
	.cfi_offset %rbp, -16
	movq	%rsp, %rbp
	.cfi_def_cfa_register %rbp
	pushq	%r14
	pushq	%rbx
	.cfi_offset %rbx, -32
	.cfi_offset %r14, -24
	movq	%rdi, %rbx
Ltmp310:
	.loc	3 178 1 prologue_end
	movq	(%rdi), %rdi
	movq	8(%rbx), %rax
Ltmp307:
	callq	*(%rax)
Ltmp308:
Ltmp311:
	movq	8(%rbx), %rax
Ltmp312:
	.loc	6 282 16
	movq	8(%rax), %rsi
Ltmp313:
	.loc	6 185 12
	testq	%rsi, %rsi
	.loc	6 185 9 is_stmt 0
	je	LBB14_2
Ltmp314:
	.loc	3 178 1 is_stmt 1
	movq	(%rbx), %rdi
Ltmp315:
	.loc	6 283 17
	movq	16(%rax), %rdx
Ltmp316:
	.loc	6 102 5
	popq	%rbx
Ltmp317:
	popq	%r14
	popq	%rbp
	jmp	___rust_dealloc
Ltmp318:
LBB14_2:
	.loc	3 178 1
	popq	%rbx
Ltmp319:
	popq	%r14
	popq	%rbp
	retq
LBB14_3:
Ltmp320:
Ltmp309:
	.loc	3 0 1 is_stmt 0
	movq	%rax, %r14
	.loc	3 178 1
	movq	(%rbx), %rdi
	movq	8(%rbx), %rsi
	callq	__ZN5alloc5alloc8box_free17h1a20f55ae96302bcE
	movq	%r14, %rdi
	callq	__Unwind_Resume
	ud2
Ltmp321:
Lfunc_end14:
	.cfi_endproc
	.section	__TEXT,__gcc_except_tab
	.p2align	2
GCC_except_table14:
Lexception2:
	.byte	255
	.byte	255
	.byte	1
	.uleb128 Lcst_end2-Lcst_begin2
Lcst_begin2:
	.uleb128 Ltmp307-Lfunc_begin14
	.uleb128 Ltmp308-Ltmp307
	.uleb128 Ltmp309-Lfunc_begin14
	.byte	0
	.uleb128 Ltmp308-Lfunc_begin14
	.uleb128 Lfunc_end14-Ltmp308
	.byte	0
	.byte	0
Lcst_end2:
	.p2align	2

	.section	__TEXT,__text,regular,pure_instructions
	.p2align	4, 0x90
__ZN5alloc5alloc8box_free17h1a20f55ae96302bcE:
Lfunc_begin15:
	.loc	6 281 0 is_stmt 1
	.cfi_startproc
	pushq	%rbp
	.cfi_def_cfa_offset 16
	.cfi_offset %rbp, -16
	movq	%rsp, %rbp
	.cfi_def_cfa_register %rbp
	movq	%rsi, %rax
Ltmp322:
	.loc	6 282 16 prologue_end
	movq	8(%rsi), %rsi
Ltmp323:
	.loc	6 185 12
	testq	%rsi, %rsi
	.loc	6 185 9 is_stmt 0
	je	LBB15_1
Ltmp324:
	.loc	6 283 17 is_stmt 1
	movq	16(%rax), %rdx
Ltmp325:
	.loc	6 102 5
	popq	%rbp
	jmp	___rust_dealloc
Ltmp326:
LBB15_1:
	.loc	6 286 2
	popq	%rbp
	retq
Ltmp327:
Lfunc_end15:
	.cfi_endproc

	.p2align	4, 0x90
__ZN5alloc5alloc8box_free17h68a56325f40ad56fE:
Lfunc_begin16:
	.loc	6 281 0
	.cfi_startproc
	pushq	%rbp
	.cfi_def_cfa_offset 16
	.cfi_offset %rbp, -16
	movq	%rsp, %rbp
	.cfi_def_cfa_register %rbp
Ltmp328:
	.loc	6 102 5 prologue_end
	movl	$24, %esi
	movl	$8, %edx
	popq	%rbp
	jmp	___rust_dealloc
Ltmp329:
Lfunc_end16:
	.cfi_endproc

	.p2align	4, 0x90
__ZN84_$LT$core..str..Split$LT$P$GT$$u20$as$u20$core..iter..traits..iterator..Iterator$GT$4next17hd047ab97bdb88d2eE:
Lfunc_begin17:
	.file	16 "/rustc/a74d1862d4d87a56244958416fd05976c58ca1a8/src/libcore/str/mod.rs"
	.loc	16 975 0
	.cfi_startproc
	pushq	%rbp
	.cfi_def_cfa_offset 16
	.cfi_offset %rbp, -16
	movq	%rsp, %rbp
	.cfi_def_cfa_register %rbp
Ltmp330:
	pushq	%r15
	pushq	%r14
	pushq	%r13
	pushq	%r12
	pushq	%rbx
	subq	$24, %rsp
	.cfi_offset %rbx, -56
	.cfi_offset %r12, -48
	.cfi_offset %r13, -40
	.cfi_offset %r14, -32
	.cfi_offset %r15, -24
	.loc	16 1121 12 prologue_end
	cmpb	$0, 65(%rdi)
	.loc	16 1121 9 is_stmt 0
	jne	LBB17_1
Ltmp331:
	.loc	16 0 9
	movq	%rdi, %r13
Ltmp332:
	.file	17 "/rustc/a74d1862d4d87a56244958416fd05976c58ca1a8/src/libcore/str/pattern.rs"
	.loc	17 369 54 is_stmt 1
	movq	32(%rdi), %rsi
Ltmp333:
	.loc	17 369 67 is_stmt 0
	movq	40(%rdi), %rax
Ltmp334:
	.file	18 "/rustc/a74d1862d4d87a56244958416fd05976c58ca1a8/src/libcore/slice/mod.rs"
	.loc	18 2888 12 is_stmt 1
	movq	%rax, %rdx
	subq	%rsi, %rdx
Ltmp335:
	.loc	17 369 84
	jb	LBB17_16
Ltmp336:
	cmpq	%rax, 24(%r13)
	jb	LBB17_16
Ltmp337:
	.loc	16 0 0 is_stmt 0
	movq	16(%r13), %rcx
Ltmp338:
	.loc	17 372 71 is_stmt 1
	movq	48(%r13), %rax
Ltmp339:
	.loc	17 0 71 is_stmt 0
	movq	%rcx, -56(%rbp)
Ltmp340:
	.loc	18 2888 12 is_stmt 1
	addq	%rcx, %rsi
Ltmp341:
	.loc	17 373 34
	movzbl	59(%rax,%r13), %edi
	callq	__ZN4core5slice6memchr6memchr17h319ffdabcbdf42caE
Ltmp342:
	.loc	17 373 20 is_stmt 0
	cmpq	$1, %rax
	jne	LBB17_15
Ltmp343:
	.loc	17 0 20
	leaq	60(%r13), %rax
	movq	%rax, -48(%rbp)
Ltmp344:
	.p2align	4, 0x90
LBB17_6:
	.loc	17 391 17 is_stmt 1
	movq	32(%r13), %rax
	.loc	17 392 35
	movq	48(%r13), %r15
Ltmp345:
	.loc	17 391 17
	leaq	1(%rdx,%rax), %rbx
Ltmp346:
	movq	%rbx, 32(%r13)
	.loc	17 392 20
	movq	%rbx, %r12
	subq	%r15, %r12
	.loc	17 392 17 is_stmt 0
	jae	LBB17_8
Ltmp347:
	.loc	17 369 25 is_stmt 1
	movq	24(%r13), %r14
Ltmp348:
	.loc	17 369 67 is_stmt 0
	movq	40(%r13), %rax
Ltmp349:
	.loc	18 2888 12 is_stmt 1
	movq	%rax, %rdx
	subq	%rbx, %rdx
	jae	LBB17_13
	jmp	LBB17_16
Ltmp350:
	.p2align	4, 0x90
LBB17_8:
	.loc	17 394 42
	movq	24(%r13), %r14
Ltmp351:
	.loc	18 2888 37
	cmpq	%rbx, %r14
Ltmp352:
	.loc	17 394 28
	jb	LBB17_12
Ltmp353:
	.loc	18 2918 19
	cmpq	$5, %r15
	.loc	18 2918 16 is_stmt 0
	jae	LBB17_23
Ltmp354:
	.loc	18 0 16
	movq	16(%r13), %rdi
	addq	%r12, %rdi
Ltmp355:
	.loc	18 5863 12 is_stmt 1
	cmpq	-48(%rbp), %rdi
	.loc	18 5863 9 is_stmt 0
	je	LBB17_21
Ltmp356:
	.loc	18 0 9
	movq	-48(%rbp), %rsi
Ltmp357:
	.loc	18 5868 13 is_stmt 1
	movq	%r15, %rdx
Ltmp358:
	callq	_bcmp
Ltmp359:
	testl	%eax, %eax
Ltmp360:
	.loc	17 395 25
	je	LBB17_21
Ltmp361:
LBB17_12:
	.loc	17 369 67
	movq	40(%r13), %rax
Ltmp362:
	.loc	18 2888 12
	movq	%rax, %rdx
	subq	%rbx, %rdx
Ltmp363:
	.loc	17 369 84
	jb	LBB17_16
Ltmp364:
LBB17_13:
	cmpq	%rax, %r14
	jb	LBB17_16
Ltmp365:
	.loc	18 2888 12
	addq	16(%r13), %rbx
Ltmp366:
	.loc	17 373 34
	movzbl	59(%r15,%r13), %edi
	movq	%rbx, %rsi
	callq	__ZN4core5slice6memchr6memchr17h319ffdabcbdf42caE
Ltmp367:
	.loc	17 373 20 is_stmt 0
	cmpq	$1, %rax
	je	LBB17_6
Ltmp368:
LBB17_15:
	.loc	17 402 31 is_stmt 1
	movq	40(%r13), %rax
	.loc	17 402 17 is_stmt 0
	movq	%rax, 32(%r13)
Ltmp369:
LBB17_16:
	.loc	16 1107 13 is_stmt 1
	cmpb	$0, 65(%r13)
	.loc	16 1107 12 is_stmt 0
	je	LBB17_17
Ltmp370:
LBB17_1:
	.loc	16 0 12
	xorl	%eax, %eax
LBB17_22:
	.loc	16 977 14 is_stmt 1
	movq	%r12, %rdx
	addq	$24, %rsp
	popq	%rbx
	popq	%r12
	popq	%r13
	popq	%r14
	popq	%r15
	popq	%rbp
	retq
LBB17_17:
Ltmp371:
	.loc	16 1107 31
	cmpb	$0, 64(%r13)
	.loc	16 1107 30 is_stmt 0
	je	LBB17_19
Ltmp372:
	.loc	16 1111 68 is_stmt 1
	movq	(%r13), %rax
	.loc	16 1111 80 is_stmt 0
	movq	8(%r13), %r12
	jmp	LBB17_20
Ltmp373:
LBB17_19:
	.loc	16 1107 71 is_stmt 1
	movq	(%r13), %rax
	.loc	16 1107 60 is_stmt 0
	movq	8(%r13), %r12
	cmpq	%rax, %r12
	.loc	16 1107 12
	je	LBB17_1
Ltmp374:
LBB17_20:
	.loc	16 1108 13 is_stmt 1
	movb	$1, 65(%r13)
Ltmp375:
	.loc	16 1908 23
	subq	%rax, %r12
Ltmp376:
	.file	19 "/rustc/a74d1862d4d87a56244958416fd05976c58ca1a8/src/libcore/ptr/const_ptr.rs"
	.loc	19 158 9
	addq	16(%r13), %rax
Ltmp377:
	.loc	19 0 9 is_stmt 0
	jmp	LBB17_22
Ltmp378:
LBB17_21:
	.loc	16 1129 50 is_stmt 1
	movq	(%r13), %rcx
Ltmp379:
	.loc	16 0 50 is_stmt 0
	movq	-56(%rbp), %rax
Ltmp380:
	.loc	19 158 9 is_stmt 1
	addq	%rcx, %rax
Ltmp381:
	.loc	16 1908 23
	subq	%rcx, %r12
Ltmp382:
	.loc	16 1130 17
	movq	%rbx, (%r13)
	jmp	LBB17_22
Ltmp383:
LBB17_23:
	.loc	18 2919 13
	leaq	l___unnamed_7(%rip), %rdx
Ltmp384:
	movl	$4, %esi
	movq	%r15, %rdi
	callq	__ZN4core5slice20slice_index_len_fail17h550a313151a85135E
Ltmp385:
Lfunc_end17:
	.cfi_endproc
	.file	20 "/rustc/a74d1862d4d87a56244958416fd05976c58ca1a8/src/libcore/cmp.rs"

	.p2align	4, 0x90
__ZN18build_script_build4main17hc15beed1e2db663aE:
Lfunc_begin18:
	.file	21 "/Users/yingyuhang/.cargo/registry/src/github.com-1ecc6299db9ec823/maybe-uninit-2.0.0/build.rs"
	.loc	21 5 0
	.cfi_startproc
	.cfi_personality 155, _rust_eh_personality
	.cfi_lsda 16, Lexception3
	pushq	%rbp
	.cfi_def_cfa_offset 16
	.cfi_offset %rbp, -16
	movq	%rsp, %rbp
	.cfi_def_cfa_register %rbp
Ltmp407:
	pushq	%r15
	pushq	%r14
	pushq	%rbx
	subq	$488, %rsp
	.cfi_offset %rbx, -40
	.cfi_offset %r14, -32
	.cfi_offset %r15, -24
Ltmp408:
	.file	22 "/rustc/a74d1862d4d87a56244958416fd05976c58ca1a8/src/libstd/env.rs"
	.loc	22 246 5 prologue_end
	leaq	l___unnamed_8(%rip), %rsi
	leaq	-328(%rbp), %rdi
	movl	$5, %edx
	callq	__ZN3std3env7_var_os17hc8b7303001145450E
Ltmp409:
	.loc	21 25 18
	movq	-328(%rbp), %rbx
Ltmp410:
	movq	-320(%rbp), %rax
	movq	%rax, -48(%rbp)
	movq	-312(%rbp), %rax
	movq	%rax, -40(%rbp)
Ltmp411:
	.loc	2 672 13
	testq	%rbx, %rbx
	je	LBB18_9
Ltmp412:
	.loc	21 26 22
	movq	%rbx, -72(%rbp)
	movq	-48(%rbp), %rax
	movq	-40(%rbp), %rdx
	movq	%rax, -64(%rbp)
	movq	%rdx, -56(%rbp)
Ltmp413:
Ltmp386:
	.loc	21 0 22 is_stmt 0
	leaq	-256(%rbp), %rdi
Ltmp414:
	.file	23 "/rustc/a74d1862d4d87a56244958416fd05976c58ca1a8/src/libstd/process.rs"
	.loc	23 501 26 is_stmt 1
	movq	%rbx, %rsi
	callq	__ZN3std3sys4unix7process14process_common7Command3new17hcd746a384cbb0b47E
Ltmp387:
Ltmp415:
	.loc	23 0 26 is_stmt 0
	leaq	-512(%rbp), %rdi
	leaq	-256(%rbp), %rsi
	.loc	23 501 9
	movl	$184, %edx
	callq	_memcpy
Ltmp416:
	.loc	3 178 1 is_stmt 1
	movq	-64(%rbp), %rsi
Ltmp417:
	.loc	12 200 40
	testq	%rsi, %rsi
	.loc	12 200 9 is_stmt 0
	je	LBB18_4
Ltmp418:
	.loc	6 102 5 is_stmt 1
	movl	$1, %edx
	movq	%rbx, %rdi
	callq	___rust_dealloc
Ltmp419:
LBB18_4:
Ltmp389:
	.loc	23 542 9
	leaq	l___unnamed_9(%rip), %rsi
	leaq	-512(%rbp), %rdi
	movl	$9, %edx
	callq	__ZN3std3sys4unix7process14process_common7Command3arg17hc476c471a9efd12bE
Ltmp390:
Ltmp420:
Ltmp391:
	.loc	23 0 9 is_stmt 0
	leaq	-256(%rbp), %rdi
	leaq	-512(%rbp), %rsi
	.loc	21 26 9 is_stmt 1
	callq	__ZN3std7process7Command6output17h3119df81721f3b73E
Ltmp392:
Ltmp421:
	.loc	8 396 13
	cmpq	$1, -256(%rbp)
	jne	LBB18_10
Ltmp422:
	.loc	3 178 1
	cmpb	$2, -248(%rbp)
	jb	LBB18_15
Ltmp423:
	.loc	3 178 1 is_stmt 0
	movq	-240(%rbp), %rbx
Ltmp424:
	.loc	3 178 1
	movq	(%rbx), %rdi
	movq	8(%rbx), %rax
Ltmp394:
	callq	*(%rax)
Ltmp395:
Ltmp425:
	movq	8(%rbx), %rax
Ltmp426:
	.loc	6 282 16 is_stmt 1
	movq	8(%rax), %rsi
Ltmp427:
	.loc	6 185 12
	testq	%rsi, %rsi
	.loc	6 185 9 is_stmt 0
	je	LBB18_14
Ltmp428:
	.loc	3 178 1 is_stmt 1
	movq	(%rbx), %rdi
Ltmp429:
	.loc	6 283 17
	movq	16(%rax), %rdx
Ltmp430:
	.loc	6 102 5
	callq	___rust_dealloc
Ltmp431:
LBB18_14:
	.loc	6 102 5 is_stmt 0
	movl	$24, %esi
	movl	$8, %edx
	movq	%rbx, %rdi
	callq	___rust_dealloc
Ltmp432:
LBB18_15:
	.loc	6 0 5
	xorl	%r15d, %r15d
	jmp	LBB18_16
Ltmp433:
LBB18_9:
	xorl	%r15d, %r15d
	jmp	LBB18_17
Ltmp434:
LBB18_10:
	.loc	8 396 27 is_stmt 1
	movq	-248(%rbp), %r15
	movq	-240(%rbp), %rax
	movq	%rax, -304(%rbp)
	movq	-232(%rbp), %rax
	movq	%rax, -296(%rbp)
	movq	-224(%rbp), %rax
	movq	%rax, -288(%rbp)
	movq	-216(%rbp), %rax
	movq	%rax, -280(%rbp)
	movq	-208(%rbp), %rax
	movq	%rax, -272(%rbp)
	movq	-200(%rbp), %rax
	movq	%rax, -264(%rbp)
Ltmp435:
LBB18_16:
	.loc	8 0 27 is_stmt 0
	leaq	-512(%rbp), %rdi
	.loc	21 27 5 is_stmt 1
	callq	__ZN4core3ptr13drop_in_place17h9ef53b4663df7b7dE
Ltmp436:
LBB18_17:
	.loc	21 29 19
	movq	-264(%rbp), %rax
	movq	%rax, -472(%rbp)
	movq	-272(%rbp), %rax
	movq	%rax, -480(%rbp)
	movq	-280(%rbp), %rax
	movq	%rax, -488(%rbp)
	movq	-288(%rbp), %rax
	movq	%rax, -496(%rbp)
	movq	-304(%rbp), %rax
	movq	-296(%rbp), %rcx
	movq	%rcx, -504(%rbp)
	movq	%rax, -512(%rbp)
Ltmp437:
	.loc	2 672 13
	testq	%r15, %r15
	je	LBB18_46
Ltmp438:
	.loc	2 672 26 is_stmt 0
	movq	%r15, -256(%rbp)
	movq	-512(%rbp), %rax
	movq	-504(%rbp), %rbx
Ltmp439:
	movq	%rax, -248(%rbp)
	movq	%rbx, -240(%rbp)
	movq	-496(%rbp), %rcx
	movq	%rcx, -232(%rbp)
	movq	-488(%rbp), %rcx
	movq	%rcx, -224(%rbp)
	movq	-480(%rbp), %rcx
	movq	%rcx, -216(%rbp)
	movq	-472(%rbp), %rcx
	movq	%rcx, -208(%rbp)
Ltmp440:
	.loc	21 30 27 is_stmt 1
	movq	%r15, -48(%rbp)
	movq	%rax, -40(%rbp)
	movq	%rbx, -32(%rbp)
Ltmp397:
	leaq	-72(%rbp), %rdi
Ltmp441:
	.file	24 "/rustc/a74d1862d4d87a56244958416fd05976c58ca1a8/src/liballoc/string.rs"
	.loc	24 494 15
	movq	%r15, %rsi
	movq	%rbx, %rdx
	callq	__ZN4core3str9from_utf817he06957962f38305fE
Ltmp398:
Ltmp442:
	.loc	24 495 13
	cmpq	$1, -72(%rbp)
	.loc	24 0 0 is_stmt 0
	movq	-40(%rbp), %r14
Ltmp443:
	.loc	24 495 13
	jne	LBB18_23
Ltmp444:
	.loc	3 0 0
	testq	%r14, %r14
Ltmp445:
	.loc	12 200 9 is_stmt 1
	je	LBB18_22
Ltmp446:
	.loc	6 102 5
	movl	$1, %edx
	movq	%r15, %rdi
	movq	%r14, %rsi
	callq	___rust_dealloc
Ltmp447:
LBB18_22:
	.loc	6 0 5 is_stmt 0
	xorl	%r15d, %r15d
Ltmp448:
LBB18_23:
	.loc	3 178 1 is_stmt 1
	movq	-232(%rbp), %rdi
Ltmp449:
	.loc	12 532 16
	testq	%rdi, %rdi
Ltmp450:
	.loc	12 200 9
	je	LBB18_26
Ltmp451:
	.loc	3 0 0 is_stmt 0
	movq	-224(%rbp), %rsi
Ltmp452:
	.loc	12 200 9
	testq	%rsi, %rsi
	je	LBB18_26
Ltmp453:
	.loc	6 102 5 is_stmt 1
	movl	$1, %edx
	callq	___rust_dealloc
Ltmp454:
LBB18_26:
	.loc	21 33 26
	testq	%r15, %r15
	je	LBB18_46
Ltmp455:
	.loc	21 34 9
	movq	%r15, -512(%rbp)
	movq	%r14, -504(%rbp)
	movq	%rbx, -496(%rbp)
Ltmp456:
	.loc	16 3299 9
	movq	$0, -256(%rbp)
	movq	%rbx, -248(%rbp)
	movq	%r15, -240(%rbp)
	movq	%rbx, -232(%rbp)
	movq	$0, -224(%rbp)
	movq	%rbx, -216(%rbp)
	movq	$1, -208(%rbp)
	movabsq	$197568495662, %rax
	movq	%rax, -200(%rbp)
	movw	$1, -192(%rbp)
Ltmp400:
	leaq	-256(%rbp), %rdi
Ltmp457:
	.loc	21 40 8
	callq	__ZN84_$LT$core..str..Split$LT$P$GT$$u20$as$u20$core..iter..traits..iterator..Iterator$GT$4next17hd047ab97bdb88d2eE
Ltmp401:
Ltmp458:
	.loc	2 151 16
	xorl	%esi, %esi
	testq	%rax, %rax
	setne	%sil
Ltmp459:
	.loc	2 151 16 is_stmt 0
	leaq	l___unnamed_10(%rip), %rcx
	xorl	%edi, %edi
	testq	%rcx, %rcx
	setne	%dil
Ltmp460:
	cmpq	%rdi, %rsi
	jne	LBB18_44
Ltmp461:
	testq	%rax, %rax
	je	LBB18_34
Ltmp462:
	.loc	2 0 16
	testq	%rcx, %rcx
	.loc	2 151 16
	je	LBB18_34
Ltmp463:
	.loc	18 5860 12 is_stmt 1
	cmpq	$7, %rdx
	.loc	18 5860 9 is_stmt 0
	jne	LBB18_44
Ltmp464:
	.loc	18 5863 12 is_stmt 1
	cmpq	%rcx, %rax
	.loc	18 5863 9 is_stmt 0
	je	LBB18_34
Ltmp465:
	.loc	18 0 9
	movl	$1953723762, %ecx
Ltmp466:
	.loc	18 5868 13 is_stmt 1
	xorl	(%rax), %ecx
	movl	$824206196, %edx
Ltmp467:
	xorl	3(%rax), %edx
	orl	%ecx, %edx
Ltmp468:
	.loc	21 40 5
	jne	LBB18_44
Ltmp469:
LBB18_34:
Ltmp402:
	.loc	21 0 5 is_stmt 0
	leaq	-256(%rbp), %rdi
	.loc	21 44 22 is_stmt 1
	callq	__ZN84_$LT$core..str..Split$LT$P$GT$$u20$as$u20$core..iter..traits..iterator..Iterator$GT$4next17hd047ab97bdb88d2eE
Ltmp403:
Ltmp470:
	.loc	21 45 9
	testq	%rax, %rax
	je	LBB18_44
Ltmp471:
Ltmp404:
	.loc	21 49 5
	movq	%rax, %rdi
	movq	%rdx, %rsi
	callq	__ZN4core3num52_$LT$impl$u20$core..str..FromStr$u20$for$u20$u32$GT$8from_str17hb8ee2851a4cfefb0E
Ltmp472:
Ltmp405:
	.loc	21 0 0 is_stmt 0
	movq	%rax, %rbx
Ltmp473:
	.loc	12 200 40 is_stmt 1
	testq	%r14, %r14
	.loc	12 200 9 is_stmt 0
	je	LBB18_39
Ltmp474:
	.loc	6 102 5 is_stmt 1
	movl	$1, %edx
	movq	%r15, %rdi
	movq	%r14, %rsi
	callq	___rust_dealloc
Ltmp475:
LBB18_39:
	.loc	21 7 9
	testb	$1, %bl
	jne	LBB18_46
	.loc	21 0 9 is_stmt 0
	shrq	$32, %rbx
Ltmp476:
	.loc	21 7 9
	cmpl	$22, %ebx
	jb	LBB18_46
Ltmp477:
	.loc	10 328 9 is_stmt 1
	leaq	l___unnamed_11(%rip), %rax
Ltmp478:
	movq	%rax, -256(%rbp)
	movq	$1, -248(%rbp)
	movq	$0, -240(%rbp)
	leaq	l___unnamed_12(%rip), %r14
Ltmp479:
	movq	%r14, -224(%rbp)
	movq	$0, -216(%rbp)
	leaq	-256(%rbp), %rdi
Ltmp480:
	.loc	21 11 9
	callq	__ZN3std2io5stdio6_print17hdea2154009b9e479E
Ltmp481:
	.loc	21 13 8
	cmpl	$28, %ebx
	.loc	21 13 5 is_stmt 0
	jb	LBB18_46
Ltmp482:
	.loc	10 328 9 is_stmt 1
	leaq	l___unnamed_13(%rip), %rax
Ltmp483:
	movq	%rax, -256(%rbp)
	movq	$1, -248(%rbp)
	movq	$0, -240(%rbp)
Ltmp484:
	movq	%r14, -224(%rbp)
	movq	$0, -216(%rbp)
	leaq	-256(%rbp), %rdi
Ltmp485:
	.loc	21 14 9
	callq	__ZN3std2io5stdio6_print17hdea2154009b9e479E
Ltmp486:
	.loc	21 16 8
	cmpl	$36, %ebx
	.loc	21 16 5 is_stmt 0
	jb	LBB18_46
Ltmp487:
	.loc	10 328 9 is_stmt 1
	leaq	l___unnamed_14(%rip), %rax
Ltmp488:
	movq	%rax, -256(%rbp)
	movq	$1, -248(%rbp)
	movq	$0, -240(%rbp)
Ltmp489:
	movq	%r14, -224(%rbp)
	movq	$0, -216(%rbp)
	leaq	-256(%rbp), %rdi
Ltmp490:
	.loc	21 17 9
	callq	__ZN3std2io5stdio6_print17hdea2154009b9e479E
Ltmp491:
	.loc	21 0 9 is_stmt 0
	jmp	LBB18_46
Ltmp492:
LBB18_44:
	.loc	12 200 40 is_stmt 1
	testq	%r14, %r14
	.loc	12 200 9 is_stmt 0
	je	LBB18_46
Ltmp493:
	.loc	6 102 5 is_stmt 1
	movl	$1, %edx
	movq	%r15, %rdi
	movq	%r14, %rsi
	callq	___rust_dealloc
Ltmp494:
LBB18_46:
	.loc	21 20 2
	addq	$488, %rsp
	popq	%rbx
	popq	%r14
	popq	%r15
	popq	%rbp
	retq
LBB18_47:
Ltmp495:
Ltmp396:
	.loc	21 0 2 is_stmt 0
	movq	%rax, %r14
Ltmp496:
	.loc	3 178 1 is_stmt 1
	movq	(%rbx), %rdi
	movq	8(%rbx), %rsi
	callq	__ZN5alloc5alloc8box_free17h1a20f55ae96302bcE
Ltmp497:
	.loc	3 178 1 is_stmt 0
	movq	%rbx, %rdi
	callq	__ZN5alloc5alloc8box_free17h68a56325f40ad56fE
	jmp	LBB18_52
Ltmp498:
LBB18_48:
Ltmp406:
	.loc	3 0 1
	movq	%rax, %r14
	leaq	-512(%rbp), %rdi
Ltmp499:
	.loc	21 50 1 is_stmt 1
	callq	__ZN4core3ptr13drop_in_place17h38ef860b4386506fE
	movq	%r14, %rdi
	callq	__Unwind_Resume
	ud2
Ltmp500:
LBB18_49:
Ltmp399:
	.loc	21 0 1 is_stmt 0
	movq	%rax, %r14
	leaq	-48(%rbp), %rdi
Ltmp501:
	.loc	24 498 5 is_stmt 1
	callq	__ZN4core3ptr13drop_in_place17h8cf11ea880c61634E
Ltmp502:
	.loc	21 31 5
	leaq	-232(%rbp), %rdi
	callq	__ZN4core3ptr13drop_in_place17h8cf11ea880c61634E
	movq	%r14, %rdi
	callq	__Unwind_Resume
	ud2
Ltmp503:
LBB18_50:
Ltmp388:
	.loc	21 0 5 is_stmt 0
	movq	%rax, %r14
	leaq	-72(%rbp), %rdi
Ltmp504:
	.loc	23 502 5 is_stmt 1
	callq	__ZN4core3ptr13drop_in_place17h3aec47605aaafca8E
	movq	%r14, %rdi
	callq	__Unwind_Resume
	ud2
Ltmp505:
LBB18_51:
Ltmp393:
	.loc	23 0 5 is_stmt 0
	movq	%rax, %r14
Ltmp506:
LBB18_52:
	leaq	-512(%rbp), %rdi
	.loc	21 27 5 is_stmt 1
	callq	__ZN4core3ptr13drop_in_place17h9ef53b4663df7b7dE
	movq	%r14, %rdi
	callq	__Unwind_Resume
	ud2
Ltmp507:
Lfunc_end18:
	.cfi_endproc
	.section	__TEXT,__gcc_except_tab
	.p2align	2
GCC_except_table18:
Lexception3:
	.byte	255
	.byte	255
	.byte	1
	.uleb128 Lcst_end3-Lcst_begin3
Lcst_begin3:
	.uleb128 Lfunc_begin18-Lfunc_begin18
	.uleb128 Ltmp386-Lfunc_begin18
	.byte	0
	.byte	0
	.uleb128 Ltmp386-Lfunc_begin18
	.uleb128 Ltmp387-Ltmp386
	.uleb128 Ltmp388-Lfunc_begin18
	.byte	0
	.uleb128 Ltmp387-Lfunc_begin18
	.uleb128 Ltmp389-Ltmp387
	.byte	0
	.byte	0
	.uleb128 Ltmp389-Lfunc_begin18
	.uleb128 Ltmp392-Ltmp389
	.uleb128 Ltmp393-Lfunc_begin18
	.byte	0
	.uleb128 Ltmp394-Lfunc_begin18
	.uleb128 Ltmp395-Ltmp394
	.uleb128 Ltmp396-Lfunc_begin18
	.byte	0
	.uleb128 Ltmp395-Lfunc_begin18
	.uleb128 Ltmp397-Ltmp395
	.byte	0
	.byte	0
	.uleb128 Ltmp397-Lfunc_begin18
	.uleb128 Ltmp398-Ltmp397
	.uleb128 Ltmp399-Lfunc_begin18
	.byte	0
	.uleb128 Ltmp400-Lfunc_begin18
	.uleb128 Ltmp405-Ltmp400
	.uleb128 Ltmp406-Lfunc_begin18
	.byte	0
	.uleb128 Ltmp405-Lfunc_begin18
	.uleb128 Lfunc_end18-Ltmp405
	.byte	0
	.byte	0
Lcst_end3:
	.p2align	2

	.section	__TEXT,__text,regular,pure_instructions
	.globl	_main
	.p2align	4, 0x90
_main:
Lfunc_begin19:
	.cfi_startproc
	pushq	%rbp
	.cfi_def_cfa_offset 16
	.cfi_offset %rbp, -16
	movq	%rsp, %rbp
	.cfi_def_cfa_register %rbp
	subq	$16, %rsp
	movq	%rsi, %rcx
	movslq	%edi, %rdx
	leaq	__ZN18build_script_build4main17hc15beed1e2db663aE(%rip), %rax
	movq	%rax, -8(%rbp)
	leaq	l___unnamed_1(%rip), %rsi
	leaq	-8(%rbp), %rdi
	callq	__ZN3std2rt19lang_start_internal17hebefdaa8fd585aefE
	addq	$16, %rsp
	popq	%rbp
	retq
Lfunc_end19:
	.cfi_endproc

	.section	__TEXT,__const
l___unnamed_15:
	.ascii	"/rustc/a74d1862d4d87a56244958416fd05976c58ca1a8/src/liballoc/collections/btree/map.rs"

	.section	__DATA,__const
	.p2align	3
l___unnamed_3:
	.quad	l___unnamed_15
	.asciz	"U\000\000\000\000\000\000\000C\006\000\000\033\000\000"

	.p2align	3
l___unnamed_1:
	.quad	__ZN4core3ptr13drop_in_place17h0a44d44afc935b7bE
	.quad	8
	.quad	8
	.quad	__ZN3std2rt10lang_start28_$u7b$$u7b$closure$u7d$$u7d$17hc1c1f871d1c30c3dE
	.quad	__ZN3std2rt10lang_start28_$u7b$$u7b$closure$u7d$$u7d$17hc1c1f871d1c30c3dE
	.quad	__ZN4core3ops8function6FnOnce40call_once$u7b$$u7b$vtable.shim$u7d$$u7d$17hc3edbbf00c989a07E

	.section	__TEXT,__const
l___unnamed_16:
	.ascii	"/rustc/a74d1862d4d87a56244958416fd05976c58ca1a8/src/libcore/macros/mod.rs"

	.section	__DATA,__const
	.p2align	3
l___unnamed_6:
	.quad	l___unnamed_16
	.asciz	"I\000\000\000\000\000\000\000\020\000\000\000\t\000\000"

	.section	__TEXT,__const
l___unnamed_2:
	.ascii	"called `Option::unwrap()` on a `None` value"

l___unnamed_17:
	.ascii	"internal error: entered unreachable code: "

	.section	__DATA,__const
	.p2align	3
l___unnamed_5:
	.quad	l___unnamed_17
	.asciz	"*\000\000\000\000\000\000"

	.section	__TEXT,__const
l___unnamed_18:
	.ascii	"BTreeMap has different depths"

	.section	__DATA,__const
	.p2align	3
l___unnamed_4:
	.quad	l___unnamed_18
	.asciz	"\035\000\000\000\000\000\000"

	.section	__TEXT,__const
l___unnamed_19:
	.ascii	"/rustc/a74d1862d4d87a56244958416fd05976c58ca1a8/src/libcore/str/pattern.rs"

	.section	__DATA,__const
	.p2align	3
l___unnamed_7:
	.quad	l___unnamed_19
	.asciz	"J\000\000\000\000\000\000\000\213\001\000\000&\000\000"

	.section	__TEXT,__const
l___unnamed_20:
	.ascii	"cargo:rustc-cfg=derive_copy\n"

	.section	__DATA,__const
	.p2align	3
l___unnamed_11:
	.quad	l___unnamed_20
	.asciz	"\034\000\000\000\000\000\000"

	.section	__TEXT,__const
	.p2align	3
l___unnamed_12:
	.byte	0

l___unnamed_21:
	.ascii	"cargo:rustc-cfg=repr_transparent\n"

	.section	__DATA,__const
	.p2align	3
l___unnamed_13:
	.quad	l___unnamed_21
	.asciz	"!\000\000\000\000\000\000"

	.section	__TEXT,__const
l___unnamed_22:
	.ascii	"cargo:rustc-cfg=native_uninit\n"

	.section	__DATA,__const
	.p2align	3
l___unnamed_14:
	.quad	l___unnamed_22
	.asciz	"\036\000\000\000\000\000\000"

	.section	__TEXT,__const
l___unnamed_8:
	.ascii	"RUSTC"

l___unnamed_10:
	.ascii	"rustc 1"

l___unnamed_9:
	.ascii	"--version"

	.section	__DATA,__const
Lsec_end0:
	.section	__TEXT,__text,regular,pure_instructions
Lsec_end1: