	.section	__TEXT,__text,regular,pure_instructions
	.macosx_version_min 10, 7
	.p2align	4, 0x90
__ZN101_$LT$core..ops..range..RangeTo$LT$usize$GT$$u20$as$u20$core..slice..SliceIndex$LT$$u5b$T$u5d$$GT$$GT$5index17h2f4b36a14e8d50f1E:
Lfunc_begin0:
	.file	1 "/rustc/6c8927b0cf80ceee19386026cf9d7fd4fd9d486f/src/libcore/slice/mod.rs"
	.loc	1 3213 0
	.cfi_startproc
	pushq	%rbp
	.cfi_def_cfa_offset 16
	.cfi_offset %rbp, -16
	movq	%rsp, %rbp
	.cfi_def_cfa_register %rbp
	subq	$80, %rsp
	movq	%rdi, -24(%rbp)
	movq	%rsi, -16(%rbp)
	movq	%rdx, -8(%rbp)
Ltmp0:
	.loc	1 3214 9 prologue_end
	movq	$0, -40(%rbp)
	movq	%rdi, -32(%rbp)
	movq	-40(%rbp), %rdi
	movq	-32(%rbp), %rax
	movq	%rsi, -48(%rbp)
	movq	%rax, %rsi
	movq	-48(%rbp), %rax
	movq	%rdx, -56(%rbp)
	movq	%rax, %rdx
	movq	-56(%rbp), %r8
	movq	%rcx, -64(%rbp)
	movq	%r8, %rcx
	movq	-64(%rbp), %r8
	callq	__ZN99_$LT$core..ops..range..Range$LT$usize$GT$$u20$as$u20$core..slice..SliceIndex$LT$$u5b$T$u5d$$GT$$GT$5index17h551433a5142190b0E
	movq	%rax, -72(%rbp)
	movq	%rdx, -80(%rbp)
	.loc	1 0 9 is_stmt 0
	movq	-72(%rbp), %rax
	movq	-80(%rbp), %rdx
	.loc	1 3215 6 is_stmt 1
	addq	$80, %rsp
	popq	%rbp
	retq
Ltmp1:
Lfunc_end0:
	.cfi_endproc

	.p2align	4, 0x90
__ZN101_$LT$core..ops..range..RangeTo$LT$usize$GT$$u20$as$u20$core..slice..SliceIndex$LT$$u5b$T$u5d$$GT$$GT$9index_mut17h70c0188e52e3b4bdE:
Lfunc_begin1:
	.loc	1 3218 0
	.cfi_startproc
	pushq	%rbp
	.cfi_def_cfa_offset 16
	.cfi_offset %rbp, -16
	movq	%rsp, %rbp
	.cfi_def_cfa_register %rbp
	subq	$80, %rsp
	movq	%rdi, -24(%rbp)
	movq	%rsi, -16(%rbp)
	movq	%rdx, -8(%rbp)
Ltmp2:
	.loc	1 3219 9 prologue_end
	movq	$0, -40(%rbp)
	movq	%rdi, -32(%rbp)
	movq	-40(%rbp), %rdi
	movq	-32(%rbp), %rax
	movq	%rsi, -48(%rbp)
	movq	%rax, %rsi
	movq	-48(%rbp), %rax
	movq	%rdx, -56(%rbp)
	movq	%rax, %rdx
	movq	-56(%rbp), %r8
	movq	%rcx, -64(%rbp)
	movq	%r8, %rcx
	movq	-64(%rbp), %r8
	callq	__ZN99_$LT$core..ops..range..Range$LT$usize$GT$$u20$as$u20$core..slice..SliceIndex$LT$$u5b$T$u5d$$GT$$GT$9index_mut17h62266d865631876dE
	movq	%rax, -72(%rbp)
	movq	%rdx, -80(%rbp)
	.loc	1 0 9 is_stmt 0
	movq	-72(%rbp), %rax
	movq	-80(%rbp), %rdx
	.loc	1 3220 6 is_stmt 1
	addq	$80, %rsp
	popq	%rbp
	retq
Ltmp3:
Lfunc_end1:
	.cfi_endproc

	.p2align	4, 0x90
__ZN105_$LT$std..ffi..os_str..OsString$u20$as$u20$core..ops..index..Index$LT$core..ops..range..RangeFull$GT$$GT$5index17h9f134b12fc7f8383E:
Lfunc_begin2:
	.file	2 "/rustc/6c8927b0cf80ceee19386026cf9d7fd4fd9d486f/src/libstd/ffi/os_str.rs"
	.loc	2 378 0
	.cfi_startproc
	pushq	%rbp
	.cfi_def_cfa_offset 16
	.cfi_offset %rbp, -16
	movq	%rsp, %rbp
	.cfi_def_cfa_register %rbp
	subq	$64, %rsp
	movq	%rdi, -16(%rbp)
	movq	%rsi, -24(%rbp)
Ltmp4:
	.loc	2 379 27 prologue_end
	callq	__ZN3std10sys_common12os_str_bytes3Buf8as_slice17h49179d5025f0c81fE
	movq	%rax, -32(%rbp)
	movq	%rdx, -40(%rbp)
	.loc	2 0 27 is_stmt 0
	movq	-32(%rbp), %rdi
	movq	-40(%rbp), %rsi
	.loc	2 379 9
	callq	__ZN3std3ffi6os_str5OsStr10from_inner17h40df521d4bd2e6f8E
	movq	%rax, -48(%rbp)
	movq	%rdx, -56(%rbp)
	.loc	2 0 9
	movq	-48(%rbp), %rax
	movq	-56(%rbp), %rdx
	.loc	2 380 6 is_stmt 1
	addq	$64, %rsp
	popq	%rbp
	retq
Ltmp5:
Lfunc_end2:
	.cfi_endproc

	.p2align	4, 0x90
__ZN112_$LT$alloc..collections..btree..map..IntoIter$LT$K$C$V$GT$$u20$as$u20$core..iter..traits..iterator..Iterator$GT$4next17h9e35d72c99df413cE:
Lfunc_begin3:
	.file	3 "/rustc/6c8927b0cf80ceee19386026cf9d7fd4fd9d486f/src/liballoc/collections/btree/map.rs"
	.loc	3 1486 0
	.cfi_startproc
	pushq	%rbp
	.cfi_def_cfa_offset 16
	.cfi_offset %rbp, -16
	movq	%rsp, %rbp
	.cfi_def_cfa_register %rbp
	subq	$96, %rsp
	movq	%rdi, %rax
	movq	%rsi, -8(%rbp)
Ltmp6:
	.loc	3 1487 12 prologue_end
	cmpq	$0, 64(%rsi)
	movq	%rsi, -64(%rbp)
	movq	%rdi, -72(%rbp)
	movq	%rax, -80(%rbp)
	.loc	3 1487 9 is_stmt 0
	je	LBB3_2
	.loc	3 0 9
	movq	-64(%rbp), %rax
	.loc	3 1490 13 is_stmt 1
	movq	64(%rax), %rcx
	subq	$1, %rcx
	movq	%rcx, 64(%rax)
	.loc	3 1491 27
	movq	%rax, %rdi
	callq	__ZN4core6option15Option$LT$T$GT$6as_mut17hc015ea074e57e346E
	movq	%rax, -88(%rbp)
	jmp	LBB3_3
LBB3_2:
	.loc	3 0 27 is_stmt 0
	movq	-72(%rbp), %rax
	.loc	3 1488 13 is_stmt 1
	movq	$0, (%rax)
	.loc	3 1487 9
	jmp	LBB3_6
LBB3_3:
	.loc	3 0 9 is_stmt 0
	leaq	l___unnamed_4(%rip), %rax
	movq	-88(%rbp), %rdi
	.loc	3 1491 27 is_stmt 1
	movq	%rax, %rsi
	callq	__ZN4core6option15Option$LT$T$GT$6unwrap17h0b29733009aae528E
	movq	%rax, -96(%rbp)
	leaq	-56(%rbp), %rdi
	movq	-96(%rbp), %rsi
	callq	__ZN5alloc11collections5btree8navigate263_$LT$impl$u20$alloc..collections..btree..node..Handle$LT$alloc..collections..btree..node..NodeRef$LT$alloc..collections..btree..node..marker..Owned$C$K$C$V$C$alloc..collections..btree..node..marker..Leaf$GT$$C$alloc..collections..btree..node..marker..Edge$GT$$GT$14next_unchecked17hcd53860a2d829983E
	.loc	3 0 27 is_stmt 0
	movq	-72(%rbp), %rax
	.loc	3 1491 13
	leaq	-56(%rbp), %rcx
	movq	%rax, %rdi
	movq	%rcx, %rsi
	movl	$48, %edx
	callq	_memcpy
LBB3_6:
	.loc	3 0 13
	movq	-80(%rbp), %rax
	.loc	3 1493 6 is_stmt 1
	addq	$96, %rsp
	popq	%rbp
	retq
Ltmp7:
Lfunc_end3:
	.cfi_endproc

	.p2align	4, 0x90
__ZN115_$LT$alloc..collections..btree..map..BTreeMap$LT$K$C$V$GT$$u20$as$u20$core..iter..traits..collect..IntoIterator$GT$9into_iter17hbfe2995724a4b645E:
Lfunc_begin4:
	.loc	3 1430 0
	.cfi_startproc
	pushq	%rbp
	.cfi_def_cfa_offset 16
	.cfi_offset %rbp, -16
	movq	%rsp, %rbp
	.cfi_def_cfa_register %rbp
	subq	$496, %rsp
	movq	%rdi, %rax
Ltmp8:
	.loc	3 1431 40 prologue_end
	movq	(%rsi), %rcx
	movq	%rcx, -440(%rbp)
	movq	8(%rsi), %rcx
	movq	%rcx, -432(%rbp)
	movq	16(%rsi), %rcx
	movq	%rcx, -424(%rbp)
Ltmp9:
	.file	4 "/rustc/6c8927b0cf80ceee19386026cf9d7fd4fd9d486f/src/libcore/mem/manually_drop.rs"
	.loc	4 83 24
	movq	-440(%rbp), %rcx
	movq	%rcx, -40(%rbp)
	movq	-432(%rbp), %rcx
	movq	%rcx, -32(%rbp)
	movq	-424(%rbp), %rcx
	movq	%rcx, -24(%rbp)
	.loc	4 83 9 is_stmt 0
	movq	-40(%rbp), %rcx
	movq	%rcx, -464(%rbp)
	movq	-32(%rbp), %rcx
	movq	%rcx, -456(%rbp)
	movq	-24(%rbp), %rcx
	movq	%rcx, -448(%rbp)
	movq	%rdi, -472(%rbp)
	movq	%rax, -480(%rbp)
Ltmp10:
	.loc	4 0 9
	leaq	-464(%rbp), %rax
	movq	%rax, -8(%rbp)
	movq	%rax, -488(%rbp)
Ltmp11:
	movq	-488(%rbp), %rdi
Ltmp12:
	.loc	3 1432 29 is_stmt 1
	callq	__ZN4core6option15Option$LT$T$GT$4take17h05b99ce1b32a88aaE
Ltmp13:
	movq	%rdx, -408(%rbp)
	movq	%rax, -416(%rbp)
	.loc	3 0 29 is_stmt 0
	xorl	%eax, %eax
	movl	%eax, %ecx
	.loc	3 1432 16
	cmpq	$0, -416(%rbp)
	movl	$1, %edx
	cmovbeq	%rcx, %rdx
	cmpq	$1, %rdx
	je	LBB4_5
	.loc	3 1437 31 is_stmt 1
	movq	$0, -112(%rbp)
	.loc	3 1437 43 is_stmt 0
	movq	$0, -80(%rbp)
	.loc	3 1437 13
	movq	-120(%rbp), %rax
	movq	-472(%rbp), %rcx
	movq	%rax, (%rcx)
	movq	-112(%rbp), %rax
	movq	%rax, 8(%rcx)
	movq	-104(%rbp), %rax
	movq	%rax, 16(%rcx)
	movq	-96(%rbp), %rax
	movq	%rax, 24(%rcx)
	movq	-88(%rbp), %rax
	movq	%rax, 32(%rcx)
	movq	-80(%rbp), %rax
	movq	%rax, 40(%rcx)
	movq	-72(%rbp), %rax
	movq	%rax, 48(%rcx)
	movq	-64(%rbp), %rax
	movq	%rax, 56(%rcx)
	movq	$0, 64(%rcx)
	.loc	3 1432 9 is_stmt 1
	jmp	LBB4_9
LBB4_5:
	.loc	3 1432 21 is_stmt 0
	movq	-416(%rbp), %rax
	movq	-408(%rbp), %rcx
	movq	%rax, -56(%rbp)
	movq	%rcx, -48(%rbp)
Ltmp14:
	.loc	3 1433 44 is_stmt 1
	leaq	-272(%rbp), %rdi
	movq	%rax, %rsi
	movq	%rcx, %rdx
	callq	__ZN5alloc11collections5btree4node17Root$LT$K$C$V$GT$8into_ref17h24aa2ff08d15258fE
	.loc	3 1433 26 is_stmt 0
	leaq	-336(%rbp), %rdi
	leaq	-272(%rbp), %rsi
	callq	__ZN5alloc11collections5btree3map17full_range_search17hb0bdf84b80ef1cd1E
	.loc	3 1433 18
	movq	-336(%rbp), %rax
	movq	%rax, -400(%rbp)
	movq	-328(%rbp), %rax
	movq	%rax, -392(%rbp)
	movq	-320(%rbp), %rax
	movq	%rax, -384(%rbp)
	movq	-312(%rbp), %rax
	movq	%rax, -376(%rbp)
	.loc	3 1433 21
	movq	-304(%rbp), %rax
	movq	%rax, -368(%rbp)
	movq	-296(%rbp), %rax
	movq	%rax, -360(%rbp)
	movq	-288(%rbp), %rax
	movq	%rax, -352(%rbp)
	movq	-280(%rbp), %rax
	movq	%rax, -344(%rbp)
Ltmp15:
	.loc	3 1435 36 is_stmt 1
	movq	-400(%rbp), %rax
	movq	%rax, -216(%rbp)
	movq	-392(%rbp), %rax
	movq	%rax, -208(%rbp)
	movq	-384(%rbp), %rax
	movq	%rax, -200(%rbp)
	movq	-376(%rbp), %rax
	movq	%rax, -192(%rbp)
	.loc	3 1435 31 is_stmt 0
	movq	-216(%rbp), %rax
	movq	%rax, -248(%rbp)
	movq	-208(%rbp), %rax
	movq	%rax, -240(%rbp)
	movq	-200(%rbp), %rax
	movq	%rax, -232(%rbp)
	movq	-192(%rbp), %rax
	movq	%rax, -224(%rbp)
	.loc	3 1435 51
	movq	-368(%rbp), %rax
	movq	%rax, -152(%rbp)
	movq	-360(%rbp), %rax
	movq	%rax, -144(%rbp)
	movq	-352(%rbp), %rax
	movq	%rax, -136(%rbp)
	movq	-344(%rbp), %rax
	movq	%rax, -128(%rbp)
	.loc	3 1435 46
	movq	-152(%rbp), %rax
	movq	%rax, -184(%rbp)
	movq	-144(%rbp), %rax
	movq	%rax, -176(%rbp)
	movq	-136(%rbp), %rax
	movq	%rax, -168(%rbp)
	movq	-128(%rbp), %rax
	movq	%rax, -160(%rbp)
	leaq	-464(%rbp), %rax
	movq	%rax, -16(%rbp)
	movq	%rax, -496(%rbp)
	.loc	3 0 46
	movq	-496(%rbp), %rax
	.loc	3 1435 63
	movq	16(%rax), %rcx
	.loc	3 1435 13
	movq	-248(%rbp), %rdx
	movq	-472(%rbp), %rsi
	movq	%rdx, (%rsi)
	movq	-240(%rbp), %rdx
	movq	%rdx, 8(%rsi)
	movq	-232(%rbp), %rdx
	movq	%rdx, 16(%rsi)
	movq	-224(%rbp), %rdx
	movq	%rdx, 24(%rsi)
	movq	-184(%rbp), %rdx
	movq	%rdx, 32(%rsi)
	movq	-176(%rbp), %rdx
	movq	%rdx, 40(%rsi)
	movq	-168(%rbp), %rdx
	movq	%rdx, 48(%rsi)
	movq	-160(%rbp), %rdx
	movq	%rdx, 56(%rsi)
	movq	%rcx, 64(%rsi)
Ltmp16:
LBB4_9:
	.loc	3 0 13
	movq	-480(%rbp), %rax
	.loc	3 1439 6 is_stmt 1
	addq	$496, %rsp
	popq	%rbp
	retq
Ltmp17:
Lfunc_end4:
	.cfi_endproc

	.p2align	4, 0x90
__ZN119_$LT$core..ptr..non_null..NonNull$LT$T$GT$$u20$as$u20$core..convert..From$LT$core..ptr..unique..Unique$LT$T$GT$$GT$$GT$4from17h010adc659cd94a87E:
Lfunc_begin5:
	.file	5 "/rustc/6c8927b0cf80ceee19386026cf9d7fd4fd9d486f/src/libcore/ptr/non_null.rs"
	.loc	5 329 0
	.cfi_startproc
	pushq	%rbp
	.cfi_def_cfa_offset 16
	.cfi_offset %rbp, -16
	movq	%rsp, %rbp
	.cfi_def_cfa_register %rbp
	subq	$32, %rsp
	movq	%rdi, -8(%rbp)
Ltmp18:
	.loc	5 332 41 prologue_end
	callq	__ZN4core3ptr6unique15Unique$LT$T$GT$6as_ptr17h20d10d0d1abfec7aE
	movq	%rax, -16(%rbp)
	.loc	5 0 41 is_stmt 0
	movq	-16(%rbp), %rdi
	.loc	5 332 18
	callq	__ZN4core3ptr8non_null16NonNull$LT$T$GT$13new_unchecked17hf44635e6c8cfe568E
	movq	%rax, -24(%rbp)
	.loc	5 0 18
	movq	-24(%rbp), %rax
	.loc	5 333 6 is_stmt 1
	addq	$32, %rsp
	popq	%rbp
	retq
Ltmp19:
Lfunc_end5:
	.cfi_endproc

	.p2align	4, 0x90
__ZN119_$LT$core..ptr..non_null..NonNull$LT$T$GT$$u20$as$u20$core..convert..From$LT$core..ptr..unique..Unique$LT$T$GT$$GT$$GT$4from17h9fcc9c2d70e28205E:
Lfunc_begin6:
	.loc	5 329 0
	.cfi_startproc
	pushq	%rbp
	.cfi_def_cfa_offset 16
	.cfi_offset %rbp, -16
	movq	%rsp, %rbp
	.cfi_def_cfa_register %rbp
	subq	$32, %rsp
	movq	%rdi, -8(%rbp)
Ltmp20:
	.loc	5 332 41 prologue_end
	callq	__ZN4core3ptr6unique15Unique$LT$T$GT$6as_ptr17h268fd328f55cd8f3E
	movq	%rax, -16(%rbp)
	.loc	5 0 41 is_stmt 0
	movq	-16(%rbp), %rdi
	.loc	5 332 18
	callq	__ZN4core3ptr8non_null16NonNull$LT$T$GT$13new_unchecked17h64efe28f8b9a46e8E
	movq	%rax, -24(%rbp)
	.loc	5 0 18
	movq	-24(%rbp), %rax
	.loc	5 333 6 is_stmt 1
	addq	$32, %rsp
	popq	%rbp
	retq
Ltmp21:
Lfunc_end6:
	.cfi_endproc

	.p2align	4, 0x90
__ZN166_$LT$$LT$alloc..collections..btree..map..IntoIter$LT$K$C$V$GT$$u20$as$u20$core..ops..drop..Drop$GT$..drop..DropGuard$LT$K$C$V$GT$$u20$as$u20$core..ops..drop..Drop$GT$4drop17h946f93a4fc4a3efeE:
Lfunc_begin7:
	.loc	3 1448 0
	.cfi_startproc
	pushq	%rbp
	.cfi_def_cfa_offset 16
	.cfi_offset %rbp, -16
	movq	%rsp, %rbp
	.cfi_def_cfa_register %rbp
	subq	$384, %rsp
	movq	%rdi, -40(%rbp)
	movq	%rdi, -376(%rbp)
LBB7_1:
	movq	-376(%rbp), %rax
Ltmp22:
	.loc	3 1451 37 prologue_end
	movq	(%rax), %rsi
	leaq	-368(%rbp), %rdi
	callq	__ZN112_$LT$alloc..collections..btree..map..IntoIter$LT$K$C$V$GT$$u20$as$u20$core..iter..traits..iterator..Iterator$GT$4next17h9e35d72c99df413cE
	.loc	3 0 37 is_stmt 0
	xorl	%eax, %eax
	movl	%eax, %ecx
	.loc	3 1451 27
	cmpq	$0, -368(%rbp)
	movl	$1, %edx
	cmovbeq	%rcx, %rdx
	cmpq	$1, %rdx
	je	LBB7_4
	.loc	3 1451 52
	leaq	-368(%rbp), %rdi
	callq	__ZN4core3ptr13drop_in_place17h148b2b10391f1c38E
	jmp	LBB7_5
LBB7_4:
	leaq	-368(%rbp), %rdi
	callq	__ZN4core3ptr13drop_in_place17h148b2b10391f1c38E
	jmp	LBB7_6
LBB7_5:
	.loc	3 0 52
	movq	-376(%rbp), %rax
	.loc	3 1455 52 is_stmt 1
	movq	(%rax), %rcx
	.loc	3 1455 42 is_stmt 0
	leaq	-240(%rbp), %rdi
	movq	%rcx, %rsi
	callq	__ZN4core3ptr4read17hd7bd0a6b4c7804bfE
	jmp	LBB7_7
LBB7_6:
	.loc	3 1451 17 is_stmt 1
	jmp	LBB7_1
LBB7_7:
Ltmp23:
	.file	6 "/rustc/6c8927b0cf80ceee19386026cf9d7fd4fd9d486f/src/liballoc/collections/btree/mod.rs"
	.loc	6 18 5
	movq	-240(%rbp), %rax
	movq	%rax, -32(%rbp)
	movq	-232(%rbp), %rax
	movq	%rax, -24(%rbp)
	movq	-224(%rbp), %rax
	movq	%rax, -16(%rbp)
	movq	-216(%rbp), %rax
	movq	%rax, -8(%rbp)
	leaq	-272(%rbp), %rdi
	leaq	-32(%rbp), %rsi
	callq	__ZN4core6option15Option$LT$T$GT$14unwrap_or_else17h39121e2aa0523d90E
Ltmp24:
	.loc	3 1455 25
	leaq	-296(%rbp), %rdi
	leaq	-272(%rbp), %rsi
	callq	__ZN5alloc11collections5btree4node25Handle$LT$Node$C$Type$GT$9into_node17h2473a6f785b7d135E
	leaq	-320(%rbp), %rdi
	leaq	-296(%rbp), %rsi
	callq	__ZN5alloc11collections5btree4node40NodeRef$LT$BorrowType$C$K$C$V$C$Type$GT$11forget_type17h8f8256777498eba2E
Ltmp25:
	.loc	3 1456 21
	jmp	LBB7_11
LBB7_11:
	.loc	3 1456 46 is_stmt 0
	movq	-320(%rbp), %rax
	movq	%rax, -176(%rbp)
	movq	-312(%rbp), %rax
	movq	%rax, -168(%rbp)
	movq	-304(%rbp), %rax
	movq	%rax, -160(%rbp)
	leaq	-208(%rbp), %rdi
	leaq	-176(%rbp), %rsi
	callq	__ZN5alloc11collections5btree4node127NodeRef$LT$alloc..collections..btree..node..marker..Owned$C$K$C$V$C$alloc..collections..btree..node..marker..LeafOrInternal$GT$21deallocate_and_ascend17h6ce6135ccda256aaE
	.loc	3 0 46
	xorl	%eax, %eax
	movl	%eax, %ecx
	.loc	3 1456 31
	cmpq	$0, -200(%rbp)
	movl	$1, %edx
	cmovbeq	%rcx, %rdx
	cmpq	$1, %rdx
	je	LBB7_14
Ltmp26:
	.loc	3 1460 14 is_stmt 1
	addq	$384, %rsp
	popq	%rbp
	retq
LBB7_14:
Ltmp27:
	.loc	3 1456 36
	movq	-208(%rbp), %rax
	movq	%rax, -152(%rbp)
	movq	-200(%rbp), %rax
	movq	%rax, -144(%rbp)
	movq	-192(%rbp), %rax
	movq	%rax, -136(%rbp)
	movq	-184(%rbp), %rax
	movq	%rax, -128(%rbp)
Ltmp28:
	.loc	3 1457 32
	movq	-152(%rbp), %rax
	movq	%rax, -72(%rbp)
	movq	-144(%rbp), %rax
	movq	%rax, -64(%rbp)
	movq	-136(%rbp), %rax
	movq	%rax, -56(%rbp)
	movq	-128(%rbp), %rax
	movq	%rax, -48(%rbp)
	leaq	-96(%rbp), %rdi
	leaq	-72(%rbp), %rsi
	callq	__ZN5alloc11collections5btree4node25Handle$LT$Node$C$Type$GT$9into_node17hff1cd63eede3ea74E
	leaq	-120(%rbp), %rdi
	leaq	-96(%rbp), %rsi
	callq	__ZN5alloc11collections5btree4node40NodeRef$LT$BorrowType$C$K$C$V$C$Type$GT$11forget_type17hfe095c26b4bb417dE
	.loc	3 1457 25 is_stmt 0
	movq	-120(%rbp), %rax
	movq	%rax, -320(%rbp)
	movq	-112(%rbp), %rax
	movq	%rax, -312(%rbp)
	movq	-104(%rbp), %rax
	movq	%rax, -304(%rbp)
Ltmp29:
	.loc	3 1456 21 is_stmt 1
	jmp	LBB7_11
Ltmp30:
Lfunc_end7:
	.cfi_endproc

	.p2align	4, 0x90
__ZN36_$LT$T$u20$as$u20$core..any..Any$GT$7type_id17h4f81e158456b6e44E:
Lfunc_begin8:
	.file	7 "/rustc/6c8927b0cf80ceee19386026cf9d7fd4fd9d486f/src/libcore/any.rs"
	.loc	7 109 0
	.cfi_startproc
	pushq	%rbp
	.cfi_def_cfa_offset 16
	.cfi_offset %rbp, -16
	movq	%rsp, %rbp
	.cfi_def_cfa_register %rbp
	subq	$16, %rsp
	movq	%rdi, -8(%rbp)
Ltmp31:
	.loc	7 110 9 prologue_end
	callq	__ZN4core3any6TypeId2of17heaac787942f98eeeE
	movq	%rax, -16(%rbp)
	.loc	7 0 9 is_stmt 0
	movq	-16(%rbp), %rax
	.loc	7 111 6 is_stmt 1
	addq	$16, %rsp
	popq	%rbp
	retq
Ltmp32:
Lfunc_end8:
	.cfi_endproc

	.p2align	4, 0x90
__ZN3std10sys_common12os_str_bytes3Buf8as_slice17h49179d5025f0c81fE:
Lfunc_begin9:
	.file	8 "/rustc/6c8927b0cf80ceee19386026cf9d7fd4fd9d486f/src/libstd/sys_common/os_str_bytes.rs"
	.loc	8 108 0
	.cfi_startproc
	pushq	%rbp
	.cfi_def_cfa_offset 16
	.cfi_offset %rbp, -16
	movq	%rsp, %rbp
	.cfi_def_cfa_register %rbp
	subq	$64, %rsp
	movq	%rdi, -24(%rbp)
Ltmp33:
	.loc	8 112 34 prologue_end
	callq	__ZN68_$LT$alloc..vec..Vec$LT$T$GT$$u20$as$u20$core..ops..deref..Deref$GT$5deref17h5f11611ea4103589E
	movq	%rax, -32(%rbp)
	movq	%rdx, -40(%rbp)
	.loc	8 0 34 is_stmt 0
	movq	-32(%rbp), %rax
	.loc	8 112 18
	movq	%rax, -16(%rbp)
	movq	-40(%rbp), %rcx
	movq	%rcx, -8(%rbp)
	movq	-16(%rbp), %rax
	movq	-8(%rbp), %rdx
	movq	%rax, -48(%rbp)
	movq	%rdx, -56(%rbp)
	.loc	8 0 18
	movq	-48(%rbp), %rax
	movq	-56(%rbp), %rdx
	.loc	8 113 6 is_stmt 1
	addq	$64, %rsp
	popq	%rbp
	retq
Ltmp34:
Lfunc_end9:
	.cfi_endproc

	.p2align	4, 0x90
__ZN3std10sys_common12os_str_bytes5Slice13from_u8_slice17hedbca91f0622e3cfE:
Lfunc_begin10:
	.loc	8 155 0
	.cfi_startproc
	pushq	%rbp
	.cfi_def_cfa_offset 16
	.cfi_offset %rbp, -16
	movq	%rsp, %rbp
	.cfi_def_cfa_register %rbp
	subq	$48, %rsp
	movq	%rdi, -32(%rbp)
	movq	%rsi, -24(%rbp)
Ltmp35:
	.loc	8 156 18 prologue_end
	movq	%rdi, -16(%rbp)
	movq	%rsi, -8(%rbp)
	movq	-16(%rbp), %rax
	movq	-8(%rbp), %rdx
	movq	%rax, -40(%rbp)
	movq	%rdx, -48(%rbp)
	.loc	8 0 18 is_stmt 0
	movq	-40(%rbp), %rax
	movq	-48(%rbp), %rdx
	.loc	8 157 6 is_stmt 1
	addq	$48, %rsp
	popq	%rbp
	retq
Ltmp36:
Lfunc_end10:
	.cfi_endproc

	.p2align	4, 0x90
__ZN3std10sys_common12os_str_bytes5Slice8from_str17hb95e8db69feebf62E:
Lfunc_begin11:
	.loc	8 160 0
	.cfi_startproc
	pushq	%rbp
	.cfi_def_cfa_offset 16
	.cfi_offset %rbp, -16
	movq	%rsp, %rbp
	.cfi_def_cfa_register %rbp
	subq	$80, %rsp
	movq	%rdi, -48(%rbp)
	movq	%rsi, -40(%rbp)
	movq	%rdi, -16(%rbp)
	movq	%rsi, -8(%rbp)
Ltmp37:
	.file	9 "/rustc/6c8927b0cf80ceee19386026cf9d7fd4fd9d486f/src/libcore/str/mod.rs"
	.loc	9 2359 18 prologue_end
	movq	%rdi, -32(%rbp)
	movq	%rsi, -24(%rbp)
	movq	-32(%rbp), %rdi
	movq	-24(%rbp), %rsi
	movq	%rdi, -56(%rbp)
	movq	%rsi, -64(%rbp)
Ltmp38:
	.loc	9 0 18 is_stmt 0
	movq	-56(%rbp), %rdi
	movq	-64(%rbp), %rsi
	.loc	8 161 9 is_stmt 1
	callq	__ZN3std10sys_common12os_str_bytes5Slice13from_u8_slice17hedbca91f0622e3cfE
	movq	%rax, -72(%rbp)
	movq	%rdx, -80(%rbp)
	.loc	8 0 9 is_stmt 0
	movq	-72(%rbp), %rax
	movq	-80(%rbp), %rdx
	.loc	8 162 6 is_stmt 1
	addq	$80, %rsp
	popq	%rbp
	retq
Ltmp39:
Lfunc_end11:
	.cfi_endproc

	.private_extern	__ZN3std2rt10lang_start17ha41b65d4335c11f1E
	.globl	__ZN3std2rt10lang_start17ha41b65d4335c11f1E
	.p2align	4, 0x90
__ZN3std2rt10lang_start17ha41b65d4335c11f1E:
Lfunc_begin12:
	.file	10 "/rustc/6c8927b0cf80ceee19386026cf9d7fd4fd9d486f/src/libstd/rt.rs"
	.loc	10 62 0
	.cfi_startproc
	pushq	%rbp
	.cfi_def_cfa_offset 16
	.cfi_offset %rbp, -16
	movq	%rsp, %rbp
	.cfi_def_cfa_register %rbp
	subq	$64, %rsp
	leaq	l___unnamed_1(%rip), %rax
	movq	%rdi, -24(%rbp)
	movq	%rsi, -16(%rbp)
	movq	%rdx, -8(%rbp)
Ltmp40:
	.loc	10 67 26 prologue_end
	movq	%rdi, -32(%rbp)
	.loc	10 67 25 is_stmt 0
	leaq	-32(%rbp), %rcx
	.loc	10 67 5
	movq	%rcx, %rdi
	movq	%rsi, -40(%rbp)
	movq	%rax, %rsi
	movq	-40(%rbp), %rax
	movq	%rdx, -48(%rbp)
	movq	%rax, %rdx
	movq	-48(%rbp), %rcx
	callq	__ZN3std2rt19lang_start_internal17hbbd10965adc92ae7E
	movq	%rax, -56(%rbp)
	.loc	10 0 5
	movq	-56(%rbp), %rax
	.loc	10 68 2 is_stmt 1
	addq	$64, %rsp
	popq	%rbp
	retq
Ltmp41:
Lfunc_end12:
	.cfi_endproc

	.p2align	4, 0x90
__ZN3std2rt10lang_start28_$u7b$$u7b$closure$u7d$$u7d$17hd803cd721314e6f4E:
Lfunc_begin13:
	.loc	10 67 0
	.cfi_startproc
	pushq	%rbp
	.cfi_def_cfa_offset 16
	.cfi_offset %rbp, -16
	movq	%rsp, %rbp
	.cfi_def_cfa_register %rbp
	subq	$16, %rsp
	movq	%rdi, -8(%rbp)
Ltmp42:
	.loc	10 67 34 prologue_end
	callq	*(%rdi)
	callq	__ZN54_$LT$$LP$$RP$$u20$as$u20$std..process..Termination$GT$6report17h181ede4d7f050f06E
	movl	%eax, -12(%rbp)
	.loc	10 0 34 is_stmt 0
	movl	-12(%rbp), %eax
	.loc	10 67 49
	addq	$16, %rsp
	popq	%rbp
	retq
Ltmp43:
Lfunc_end13:
	.cfi_endproc

	.p2align	4, 0x90
__ZN3std3env3var17h52a61c2a6eea8d66E:
Lfunc_begin14:
	.file	11 "/rustc/6c8927b0cf80ceee19386026cf9d7fd4fd9d486f/src/libstd/env.rs"
	.loc	11 211 0 is_stmt 1
	.cfi_startproc
	.cfi_personality 155, _rust_eh_personality
	.cfi_lsda 16, Lexception0
	pushq	%rbp
	.cfi_def_cfa_offset 16
	.cfi_offset %rbp, -16
	movq	%rsp, %rbp
	.cfi_def_cfa_register %rbp
	subq	$64, %rsp
	movq	%rdi, %rax
	movq	%rsi, -32(%rbp)
	movq	%rdx, -24(%rbp)
Ltmp44:
	leaq	-32(%rbp), %rcx
	movq	%rdi, -40(%rbp)
Ltmp49:
	.loc	11 212 10 prologue_end
	movq	%rcx, %rdi
	movq	%rax, -48(%rbp)
	callq	__ZN55_$LT$$RF$T$u20$as$u20$core..convert..AsRef$LT$U$GT$$GT$6as_ref17h77b4d4a298279978E
Ltmp45:
	movq	%rdx, -56(%rbp)
	movq	%rax, -64(%rbp)
	jmp	LBB14_2
LBB14_1:
	.loc	11 211 1
	movq	-16(%rbp), %rdi
	callq	__Unwind_Resume
	ud2
LBB14_2:
Ltmp46:
	.loc	11 0 1 is_stmt 0
	movq	-40(%rbp), %rdi
	movq	-64(%rbp), %rsi
	movq	-56(%rbp), %rdx
	.loc	11 212 5 is_stmt 1
	callq	__ZN3std3env4_var17h5f49b4c5e0582abcE
Ltmp47:
	jmp	LBB14_4
LBB14_3:
	.loc	11 213 1
	jmp	LBB14_1
LBB14_4:
	jmp	LBB14_5
LBB14_5:
	.loc	11 0 1 is_stmt 0
	movq	-48(%rbp), %rax
	.loc	11 213 2
	addq	$64, %rsp
	popq	%rbp
	retq
Ltmp50:
LBB14_6:
Ltmp48:
	.loc	11 0 2
	movq	%rax, -16(%rbp)
	movl	%edx, -8(%rbp)
	jmp	LBB14_3
Lfunc_end14:
	.cfi_endproc
	.section	__TEXT,__gcc_except_tab
	.p2align	2
GCC_except_table14:
Lexception0:
	.byte	255
	.byte	255
	.byte	1
	.uleb128 Lcst_end0-Lcst_begin0
Lcst_begin0:
	.uleb128 Ltmp44-Lfunc_begin14
	.uleb128 Ltmp45-Ltmp44
	.uleb128 Ltmp48-Lfunc_begin14
	.byte	0
	.uleb128 Ltmp45-Lfunc_begin14
	.uleb128 Ltmp46-Ltmp45
	.byte	0
	.byte	0
	.uleb128 Ltmp46-Lfunc_begin14
	.uleb128 Ltmp47-Ltmp46
	.uleb128 Ltmp48-Lfunc_begin14
	.byte	0
Lcst_end0:
	.p2align	2

	.section	__TEXT,__text,regular,pure_instructions
	.p2align	4, 0x90
__ZN3std3env6var_os17h008cd472d8c20724E:
Lfunc_begin15:
	.loc	11 245 0 is_stmt 1
	.cfi_startproc
	.cfi_personality 155, _rust_eh_personality
	.cfi_lsda 16, Lexception1
	pushq	%rbp
	.cfi_def_cfa_offset 16
	.cfi_offset %rbp, -16
	movq	%rsp, %rbp
	.cfi_def_cfa_register %rbp
	subq	$64, %rsp
	movq	%rdi, %rax
	movq	%rsi, -32(%rbp)
	movq	%rdx, -24(%rbp)
Ltmp51:
	leaq	-32(%rbp), %rcx
	movq	%rdi, -40(%rbp)
Ltmp56:
	.loc	11 246 13 prologue_end
	movq	%rcx, %rdi
	movq	%rax, -48(%rbp)
	callq	__ZN55_$LT$$RF$T$u20$as$u20$core..convert..AsRef$LT$U$GT$$GT$6as_ref17h77b4d4a298279978E
Ltmp52:
	movq	%rdx, -56(%rbp)
	movq	%rax, -64(%rbp)
	jmp	LBB15_2
LBB15_1:
	.loc	11 245 1
	movq	-16(%rbp), %rdi
	callq	__Unwind_Resume
	ud2
LBB15_2:
Ltmp53:
	.loc	11 0 1 is_stmt 0
	movq	-40(%rbp), %rdi
	movq	-64(%rbp), %rsi
	movq	-56(%rbp), %rdx
	.loc	11 246 5 is_stmt 1
	callq	__ZN3std3env7_var_os17hc628b18a701aa4a3E
Ltmp54:
	jmp	LBB15_4
LBB15_3:
	.loc	11 247 1
	jmp	LBB15_1
LBB15_4:
	jmp	LBB15_5
LBB15_5:
	.loc	11 0 1 is_stmt 0
	movq	-48(%rbp), %rax
	.loc	11 247 2
	addq	$64, %rsp
	popq	%rbp
	retq
Ltmp57:
LBB15_6:
Ltmp55:
	.loc	11 0 2
	movq	%rax, -16(%rbp)
	movl	%edx, -8(%rbp)
	jmp	LBB15_3
Lfunc_end15:
	.cfi_endproc
	.section	__TEXT,__gcc_except_tab
	.p2align	2
GCC_except_table15:
Lexception1:
	.byte	255
	.byte	255
	.byte	1
	.uleb128 Lcst_end1-Lcst_begin1
Lcst_begin1:
	.uleb128 Ltmp51-Lfunc_begin15
	.uleb128 Ltmp52-Ltmp51
	.uleb128 Ltmp55-Lfunc_begin15
	.byte	0
	.uleb128 Ltmp52-Lfunc_begin15
	.uleb128 Ltmp53-Ltmp52
	.byte	0
	.byte	0
	.uleb128 Ltmp53-Lfunc_begin15
	.uleb128 Ltmp54-Ltmp53
	.uleb128 Ltmp55-Lfunc_begin15
	.byte	0
Lcst_end1:
	.p2align	2

	.section	__TEXT,__text,regular,pure_instructions
	.p2align	4, 0x90
__ZN3std3ffi6os_str5OsStr10from_inner17h40df521d4bd2e6f8E:
Lfunc_begin16:
	.loc	2 528 0 is_stmt 1
	.cfi_startproc
	pushq	%rbp
	.cfi_def_cfa_offset 16
	.cfi_offset %rbp, -16
	movq	%rsp, %rbp
	.cfi_def_cfa_register %rbp
	subq	$16, %rsp
	movq	%rdi, -16(%rbp)
	movq	%rsi, -8(%rbp)
Ltmp58:
	.loc	2 532 6 prologue_end
	movq	%rdi, %rax
	movq	%rsi, %rdx
	addq	$16, %rsp
	popq	%rbp
	retq
Ltmp59:
Lfunc_end16:
	.cfi_endproc

	.p2align	4, 0x90
__ZN3std3ffi6os_str85_$LT$impl$u20$core..convert..AsRef$LT$std..ffi..os_str..OsStr$GT$$u20$for$u20$str$GT$6as_ref17h26b0d1daa740a625E:
Lfunc_begin17:
	.loc	2 1157 0
	.cfi_startproc
	pushq	%rbp
	.cfi_def_cfa_offset 16
	.cfi_offset %rbp, -16
	movq	%rsp, %rbp
	.cfi_def_cfa_register %rbp
	subq	$48, %rsp
	movq	%rdi, -16(%rbp)
	movq	%rsi, -8(%rbp)
Ltmp60:
	.loc	2 1158 27 prologue_end
	callq	__ZN3std10sys_common12os_str_bytes5Slice8from_str17hb95e8db69feebf62E
	movq	%rax, -24(%rbp)
	movq	%rdx, -32(%rbp)
	.loc	2 0 27 is_stmt 0
	movq	-24(%rbp), %rdi
	movq	-32(%rbp), %rsi
	.loc	2 1158 9
	callq	__ZN3std3ffi6os_str5OsStr10from_inner17h40df521d4bd2e6f8E
	movq	%rax, -40(%rbp)
	movq	%rdx, -48(%rbp)
	.loc	2 0 9
	movq	-40(%rbp), %rax
	movq	-48(%rbp), %rdx
	.loc	2 1159 6 is_stmt 1
	addq	$48, %rsp
	popq	%rbp
	retq
Ltmp61:
Lfunc_end17:
	.cfi_endproc

	.p2align	4, 0x90
__ZN3std3sys4unix7process14process_common8ExitCode6as_i3217hea233ab2d33bd20dE:
Lfunc_begin18:
	.file	12 "/rustc/6c8927b0cf80ceee19386026cf9d7fd4fd9d486f/src/libstd/sys/unix/process/process_common.rs"
	.loc	12 398 0
	.cfi_startproc
	pushq	%rbp
	.cfi_def_cfa_offset 16
	.cfi_offset %rbp, -16
	movq	%rsp, %rbp
	.cfi_def_cfa_register %rbp
	pushq	%rax
	movq	%rdi, -8(%rbp)
Ltmp62:
	.loc	12 399 9 prologue_end
	movzbl	(%rdi), %eax
	.loc	12 400 6
	addq	$8, %rsp
	popq	%rbp
	retq
Ltmp63:
Lfunc_end18:
	.cfi_endproc

	.p2align	4, 0x90
__ZN3std7process7Command3arg17h45b7516503b4fa7eE:
Lfunc_begin19:
	.file	13 "/rustc/6c8927b0cf80ceee19386026cf9d7fd4fd9d486f/src/libstd/process.rs"
	.loc	13 541 0
	.cfi_startproc
	.cfi_personality 155, _rust_eh_personality
	.cfi_lsda 16, Lexception2
	pushq	%rbp
	.cfi_def_cfa_offset 16
	.cfi_offset %rbp, -16
	movq	%rsp, %rbp
	.cfi_def_cfa_register %rbp
	subq	$80, %rsp
	movq	%rsi, -40(%rbp)
	movq	%rdx, -32(%rbp)
	movq	%rdi, -24(%rbp)
Ltmp69:
	.loc	13 542 9 prologue_end
	movq	%rdi, %rax
Ltmp64:
	leaq	-40(%rbp), %rcx
	movq	%rdi, -48(%rbp)
	.loc	13 542 24 is_stmt 0
	movq	%rcx, %rdi
	movq	%rax, -56(%rbp)
	callq	__ZN55_$LT$$RF$T$u20$as$u20$core..convert..AsRef$LT$U$GT$$GT$6as_ref17h77b4d4a298279978E
Ltmp65:
	movq	%rdx, -64(%rbp)
	movq	%rax, -72(%rbp)
	jmp	LBB19_2
LBB19_1:
	.loc	13 541 5 is_stmt 1
	movq	-16(%rbp), %rdi
	callq	__Unwind_Resume
	ud2
LBB19_2:
Ltmp66:
	.loc	13 0 5 is_stmt 0
	movq	-56(%rbp), %rdi
	movq	-72(%rbp), %rsi
	movq	-64(%rbp), %rdx
	.loc	13 542 9 is_stmt 1
	callq	__ZN3std3sys4unix7process14process_common7Command3arg17he3b985033bebdb87E
Ltmp67:
	jmp	LBB19_4
LBB19_3:
	.loc	13 544 5
	jmp	LBB19_1
LBB19_4:
	jmp	LBB19_5
LBB19_5:
	.loc	13 0 5 is_stmt 0
	movq	-48(%rbp), %rax
	.loc	13 544 6
	addq	$80, %rsp
	popq	%rbp
	retq
Ltmp70:
LBB19_6:
Ltmp68:
	.loc	13 0 6
	movq	%rax, -16(%rbp)
	movl	%edx, -8(%rbp)
	jmp	LBB19_3
Lfunc_end19:
	.cfi_endproc
	.section	__TEXT,__gcc_except_tab
	.p2align	2
GCC_except_table19:
Lexception2:
	.byte	255
	.byte	255
	.byte	1
	.uleb128 Lcst_end2-Lcst_begin2
Lcst_begin2:
	.uleb128 Ltmp64-Lfunc_begin19
	.uleb128 Ltmp65-Ltmp64
	.uleb128 Ltmp68-Lfunc_begin19
	.byte	0
	.uleb128 Ltmp65-Lfunc_begin19
	.uleb128 Ltmp66-Ltmp65
	.byte	0
	.byte	0
	.uleb128 Ltmp66-Lfunc_begin19
	.uleb128 Ltmp67-Ltmp66
	.uleb128 Ltmp68-Lfunc_begin19
	.byte	0
Lcst_end2:
	.p2align	2

	.section	__TEXT,__text,regular,pure_instructions
	.p2align	4, 0x90
__ZN3std7process7Command3new17h99023d8e0db12ae8E:
Lfunc_begin20:
	.loc	13 500 0 is_stmt 1
	.cfi_startproc
	.cfi_personality 155, _rust_eh_personality
	.cfi_lsda 16, Lexception3
	pushq	%rbp
	.cfi_def_cfa_offset 16
	.cfi_offset %rbp, -16
	movq	%rsp, %rbp
	.cfi_def_cfa_register %rbp
	subq	$256, %rsp
	movq	%rdi, %rax
	movq	%rsi, -216(%rbp)
	movq	%rdx, -208(%rbp)
Ltmp71:
	leaq	-216(%rbp), %rcx
	movq	%rdi, -224(%rbp)
Ltmp76:
	.loc	13 501 44 prologue_end
	movq	%rcx, %rdi
	movq	%rax, -232(%rbp)
	callq	__ZN55_$LT$$RF$T$u20$as$u20$core..convert..AsRef$LT$U$GT$$GT$6as_ref17h77b4d4a298279978E
Ltmp72:
	movq	%rdx, -240(%rbp)
	movq	%rax, -248(%rbp)
	jmp	LBB20_2
LBB20_1:
	.loc	13 500 5
	movq	-16(%rbp), %rdi
	callq	__Unwind_Resume
	ud2
LBB20_2:
Ltmp73:
	.loc	13 0 5 is_stmt 0
	leaq	-200(%rbp), %rdi
	movq	-248(%rbp), %rsi
	movq	-240(%rbp), %rdx
	.loc	13 501 26 is_stmt 1
	callq	__ZN3std3sys4unix7process14process_common7Command3new17h6b51c4bb5fada643E
Ltmp74:
	jmp	LBB20_4
LBB20_3:
	.loc	13 502 5
	jmp	LBB20_1
LBB20_4:
	.loc	13 0 5 is_stmt 0
	movq	-224(%rbp), %rax
	.loc	13 501 9 is_stmt 1
	leaq	-200(%rbp), %rcx
	movq	%rax, %rdi
	movq	%rcx, %rsi
	movl	$184, %edx
	callq	_memcpy
	.loc	13 0 9 is_stmt 0
	movq	-232(%rbp), %rax
	.loc	13 502 6 is_stmt 1
	addq	$256, %rsp
	popq	%rbp
	retq
Ltmp77:
LBB20_6:
Ltmp75:
	.loc	13 0 6 is_stmt 0
	movq	%rax, -16(%rbp)
	movl	%edx, -8(%rbp)
	jmp	LBB20_3
Lfunc_end20:
	.cfi_endproc
	.section	__TEXT,__gcc_except_tab
	.p2align	2
GCC_except_table20:
Lexception3:
	.byte	255
	.byte	255
	.byte	1
	.uleb128 Lcst_end3-Lcst_begin3
Lcst_begin3:
	.uleb128 Ltmp71-Lfunc_begin20
	.uleb128 Ltmp72-Ltmp71
	.uleb128 Ltmp75-Lfunc_begin20
	.byte	0
	.uleb128 Ltmp72-Lfunc_begin20
	.uleb128 Ltmp73-Ltmp72
	.byte	0
	.byte	0
	.uleb128 Ltmp73-Lfunc_begin20
	.uleb128 Ltmp74-Ltmp73
	.uleb128 Ltmp75-Lfunc_begin20
	.byte	0
	.uleb128 Ltmp74-Lfunc_begin20
	.uleb128 Lfunc_end20-Ltmp74
	.byte	0
	.byte	0
Lcst_end3:
	.p2align	2

	.section	__TEXT,__text,regular,pure_instructions
	.p2align	4, 0x90
__ZN3std7process7Command3new17hf7041b9028fef51dE:
Lfunc_begin21:
	.loc	13 500 0 is_stmt 1
	.cfi_startproc
	.cfi_personality 155, _rust_eh_personality
	.cfi_lsda 16, Lexception4
	pushq	%rbp
	.cfi_def_cfa_offset 16
	.cfi_offset %rbp, -16
	movq	%rsp, %rbp
	.cfi_def_cfa_register %rbp
	subq	$240, %rsp
	movq	%rdi, %rax
Ltmp78:
	movq	%rdi, -208(%rbp)
Ltmp83:
	.loc	13 501 44 prologue_end
	movq	%rsi, %rdi
	movq	%rsi, -216(%rbp)
Ltmp84:
	.loc	13 0 44 is_stmt 0
	movq	%rax, -224(%rbp)
	.loc	13 501 44
	callq	__ZN98_$LT$std..ffi..os_str..OsString$u20$as$u20$core..convert..AsRef$LT$std..ffi..os_str..OsStr$GT$$GT$6as_ref17hd89494fdbc7b820bE
Ltmp79:
	movq	%rdx, -232(%rbp)
	movq	%rax, -240(%rbp)
	jmp	LBB21_2
Ltmp85:
LBB21_1:
	.loc	13 500 5 is_stmt 1
	movq	-16(%rbp), %rdi
	callq	__Unwind_Resume
	ud2
Ltmp86:
LBB21_2:
Ltmp80:
	.loc	13 0 5 is_stmt 0
	leaq	-200(%rbp), %rdi
	movq	-240(%rbp), %rsi
	movq	-232(%rbp), %rdx
	.loc	13 501 26 is_stmt 1
	callq	__ZN3std3sys4unix7process14process_common7Command3new17h6b51c4bb5fada643E
Ltmp81:
	jmp	LBB21_4
Ltmp87:
LBB21_3:
	.loc	13 0 26 is_stmt 0
	movq	-216(%rbp), %rdi
	.loc	13 502 5 is_stmt 1
	callq	__ZN4core3ptr13drop_in_place17h1c78fe9b567101e6E
	jmp	LBB21_1
Ltmp88:
LBB21_4:
	.loc	13 0 5 is_stmt 0
	movq	-208(%rbp), %rax
	.loc	13 501 9 is_stmt 1
	leaq	-200(%rbp), %rcx
	movq	%rax, %rdi
	movq	%rcx, %rsi
	movl	$184, %edx
	callq	_memcpy
	movq	-216(%rbp), %rdi
	.loc	13 502 5
	callq	__ZN4core3ptr13drop_in_place17h1c78fe9b567101e6E
Ltmp89:
	.loc	13 0 5 is_stmt 0
	movq	-224(%rbp), %rax
	.loc	13 502 6
	addq	$240, %rsp
	popq	%rbp
	retq
Ltmp90:
LBB21_6:
Ltmp82:
	.loc	13 0 6
	movq	%rax, -16(%rbp)
	movl	%edx, -8(%rbp)
	jmp	LBB21_3
Lfunc_end21:
	.cfi_endproc
	.section	__TEXT,__gcc_except_tab
	.p2align	2
GCC_except_table21:
Lexception4:
	.byte	255
	.byte	255
	.byte	1
	.uleb128 Lcst_end4-Lcst_begin4
Lcst_begin4:
	.uleb128 Ltmp78-Lfunc_begin21
	.uleb128 Ltmp79-Ltmp78
	.uleb128 Ltmp82-Lfunc_begin21
	.byte	0
	.uleb128 Ltmp79-Lfunc_begin21
	.uleb128 Ltmp80-Ltmp79
	.byte	0
	.byte	0
	.uleb128 Ltmp80-Lfunc_begin21
	.uleb128 Ltmp81-Ltmp80
	.uleb128 Ltmp82-Lfunc_begin21
	.byte	0
	.uleb128 Ltmp81-Lfunc_begin21
	.uleb128 Lfunc_end21-Ltmp81
	.byte	0
	.byte	0
Lcst_end4:
	.p2align	2

	.section	__TEXT,__text,regular,pure_instructions
	.p2align	4, 0x90
__ZN3std9panicking11begin_panic17hbe18a4871567264fE:
Lfunc_begin22:
	.file	14 "/rustc/6c8927b0cf80ceee19386026cf9d7fd4fd9d486f/src/libstd/panicking.rs"
	.loc	14 451 0 is_stmt 1
	.cfi_startproc
	.cfi_personality 155, _rust_eh_personality
	.cfi_lsda 16, Lexception5
	pushq	%rbp
	.cfi_def_cfa_offset 16
	.cfi_offset %rbp, -16
	movq	%rsp, %rbp
	.cfi_def_cfa_register %rbp
	subq	$96, %rsp
	movq	%rdi, -32(%rbp)
	movq	%rsi, -24(%rbp)
Ltmp99:
	.loc	14 452 5 prologue_end
	movb	$0, -33(%rbp)
	movb	$1, -33(%rbp)
	.loc	14 456 49
	movb	$0, -33(%rbp)
Ltmp91:
	movq	%rdx, -64(%rbp)
	.loc	14 456 31 is_stmt 0
	callq	__ZN3std9panicking11begin_panic21PanicPayload$LT$A$GT$3new17h1860664b72a27454E
Ltmp92:
	movq	%rdx, -72(%rbp)
	movq	%rax, -80(%rbp)
	jmp	LBB22_2
LBB22_1:
	.loc	14 451 1 is_stmt 1
	movq	-16(%rbp), %rdi
	callq	__Unwind_Resume
	ud2
LBB22_2:
	.loc	14 0 1 is_stmt 0
	movq	-80(%rbp), %rax
	.loc	14 456 31 is_stmt 1
	movq	%rax, -56(%rbp)
	movq	-72(%rbp), %rcx
	movq	%rcx, -48(%rbp)
	leaq	-56(%rbp), %rdi
Ltmp94:
	movq	-64(%rbp), %rdx
	movq	%rdi, -88(%rbp)
	.loc	14 456 61 is_stmt 0
	movq	%rdx, %rdi
	callq	__ZN4core5panic8Location6caller17hb284bf0993c43fcaE
Ltmp95:
	movq	%rax, -96(%rbp)
	jmp	LBB22_4
LBB22_3:
	.loc	14 456 80
	jmp	LBB22_6
LBB22_4:
Ltmp96:
	.loc	14 456 5
	leaq	l___unnamed_2(%rip), %rsi
	xorl	%eax, %eax
	movl	%eax, %edx
	movq	-88(%rbp), %rdi
	movq	-96(%rbp), %rcx
	callq	__ZN3std9panicking20rust_panic_with_hook17h720143ee15fc80baE
Ltmp97:
	jmp	LBB22_9
LBB22_5:
	.loc	14 489 1 is_stmt 1
	movb	$0, -33(%rbp)
	jmp	LBB22_1
LBB22_6:
	testb	$1, -33(%rbp)
	jne	LBB22_5
	jmp	LBB22_1
Ltmp100:
LBB22_7:
Ltmp93:
	.loc	14 0 1 is_stmt 0
	movq	%rax, -16(%rbp)
	movl	%edx, -8(%rbp)
	jmp	LBB22_6
LBB22_8:
Ltmp98:
	movq	%rax, -16(%rbp)
	movl	%edx, -8(%rbp)
	jmp	LBB22_3
LBB22_9:
	ud2
Lfunc_end22:
	.cfi_endproc
	.section	__TEXT,__gcc_except_tab
	.p2align	2
GCC_except_table22:
Lexception5:
	.byte	255
	.byte	255
	.byte	1
	.uleb128 Lcst_end5-Lcst_begin5
Lcst_begin5:
	.uleb128 Ltmp91-Lfunc_begin22
	.uleb128 Ltmp92-Ltmp91
	.uleb128 Ltmp93-Lfunc_begin22
	.byte	0
	.uleb128 Ltmp92-Lfunc_begin22
	.uleb128 Ltmp94-Ltmp92
	.byte	0
	.byte	0
	.uleb128 Ltmp94-Lfunc_begin22
	.uleb128 Ltmp97-Ltmp94
	.uleb128 Ltmp98-Lfunc_begin22
	.byte	0
Lcst_end5:
	.p2align	2

	.section	__TEXT,__text,regular,pure_instructions
	.p2align	4, 0x90
__ZN3std9panicking11begin_panic21PanicPayload$LT$A$GT$3new17h1860664b72a27454E:
Lfunc_begin23:
	.loc	14 463 0 is_stmt 1
	.cfi_startproc
	pushq	%rbp
	.cfi_def_cfa_offset 16
	.cfi_offset %rbp, -16
	movq	%rsp, %rbp
	.cfi_def_cfa_register %rbp
	subq	$48, %rsp
	movq	%rdi, -16(%rbp)
	movq	%rsi, -8(%rbp)
Ltmp101:
	.loc	14 464 35 prologue_end
	movq	%rdi, -32(%rbp)
	movq	%rsi, -24(%rbp)
	.loc	14 464 13 is_stmt 0
	movq	-32(%rbp), %rax
	movq	-24(%rbp), %rcx
	movq	%rax, -48(%rbp)
	movq	%rcx, -40(%rbp)
	.loc	14 465 10 is_stmt 1
	movq	-48(%rbp), %rax
	movq	-40(%rbp), %rdx
	addq	$48, %rsp
	popq	%rbp
	retq
Ltmp102:
Lfunc_end23:
	.cfi_endproc

	.p2align	4, 0x90
__ZN44_$LT$$RF$T$u20$as$u20$core..fmt..Display$GT$3fmt17h57e10aecc73b715dE:
Lfunc_begin24:
	.file	15 "/rustc/6c8927b0cf80ceee19386026cf9d7fd4fd9d486f/src/libcore/fmt/mod.rs"
	.loc	15 2022 0
	.cfi_startproc
	pushq	%rbp
	.cfi_def_cfa_offset 16
	.cfi_offset %rbp, -16
	movq	%rsp, %rbp
	.cfi_def_cfa_register %rbp
	subq	$32, %rsp
	movq	%rdi, -16(%rbp)
	movq	%rsi, -8(%rbp)
Ltmp103:
	.loc	15 2022 71 prologue_end
	movq	(%rdi), %rax
	movq	8(%rdi), %rcx
	.loc	15 2022 62 is_stmt 0
	movq	%rax, %rdi
	movq	%rsi, -24(%rbp)
	movq	%rcx, %rsi
	movq	-24(%rbp), %rdx
	callq	__ZN42_$LT$str$u20$as$u20$core..fmt..Display$GT$3fmt17h6768afae62e94f93E
	movb	%al, -25(%rbp)
	.loc	15 0 62
	movb	-25(%rbp), %al
	.loc	15 2022 84
	andb	$1, %al
	movzbl	%al, %eax
	addq	$32, %rsp
	popq	%rbp
	retq
Ltmp104:
Lfunc_end24:
	.cfi_endproc

	.p2align	4, 0x90
__ZN4core10intrinsics19copy_nonoverlapping17h078e4e56a98c8020E:
Lfunc_begin25:
	.file	16 "/rustc/6c8927b0cf80ceee19386026cf9d7fd4fd9d486f/src/libcore/intrinsics.rs"
	.loc	16 2114 0 is_stmt 1
	.cfi_startproc
	pushq	%rbp
	.cfi_def_cfa_offset 16
	.cfi_offset %rbp, -16
	movq	%rsp, %rbp
	.cfi_def_cfa_register %rbp
	subq	$32, %rsp
	movq	%rdi, -24(%rbp)
	movq	%rsi, -16(%rbp)
	movq	%rdx, -8(%rbp)
Ltmp105:
	.loc	16 2130 14 prologue_end
	imulq	$24, %rdx, %rdx
	movq	%rdi, -32(%rbp)
	movq	%rsi, %rdi
	movq	-32(%rbp), %rsi
	callq	_memcpy
	.loc	16 2131 2
	addq	$32, %rsp
	popq	%rbp
	retq
Ltmp106:
Lfunc_end25:
	.cfi_endproc

	.p2align	4, 0x90
__ZN4core10intrinsics19copy_nonoverlapping17h3ce23c7424cee6c4E:
Lfunc_begin26:
	.loc	16 2114 0
	.cfi_startproc
	pushq	%rbp
	.cfi_def_cfa_offset 16
	.cfi_offset %rbp, -16
	movq	%rsp, %rbp
	.cfi_def_cfa_register %rbp
	subq	$32, %rsp
	movq	%rdi, -24(%rbp)
	movq	%rsi, -16(%rbp)
	movq	%rdx, -8(%rbp)
Ltmp107:
	.loc	16 2130 14 prologue_end
	shlq	$5, %rdx
	movq	%rdi, -32(%rbp)
	movq	%rsi, %rdi
	movq	-32(%rbp), %rsi
	callq	_memcpy
	.loc	16 2131 2
	addq	$32, %rsp
	popq	%rbp
	retq
Ltmp108:
Lfunc_end26:
	.cfi_endproc

	.p2align	4, 0x90
__ZN4core10intrinsics19copy_nonoverlapping17h88adfb1c7a1293b6E:
Lfunc_begin27:
	.loc	16 2114 0
	.cfi_startproc
	pushq	%rbp
	.cfi_def_cfa_offset 16
	.cfi_offset %rbp, -16
	movq	%rsp, %rbp
	.cfi_def_cfa_register %rbp
	subq	$32, %rsp
	movq	%rdi, -24(%rbp)
	movq	%rsi, -16(%rbp)
	movq	%rdx, -8(%rbp)
Ltmp109:
	.loc	16 2130 14 prologue_end
	imulq	$24, %rdx, %rdx
	movq	%rdi, -32(%rbp)
	movq	%rsi, %rdi
	movq	-32(%rbp), %rsi
	callq	_memcpy
	.loc	16 2131 2
	addq	$32, %rsp
	popq	%rbp
	retq
Ltmp110:
Lfunc_end27:
	.cfi_endproc

	.p2align	4, 0x90
__ZN4core10intrinsics19copy_nonoverlapping17ha07f876e938b45d2E:
Lfunc_begin28:
	.loc	16 2114 0
	.cfi_startproc
	pushq	%rbp
	.cfi_def_cfa_offset 16
	.cfi_offset %rbp, -16
	movq	%rsp, %rbp
	.cfi_def_cfa_register %rbp
	subq	$32, %rsp
	movq	%rdi, -24(%rbp)
	movq	%rsi, -16(%rbp)
	movq	%rdx, -8(%rbp)
Ltmp111:
	.loc	16 2130 14 prologue_end
	shlq	$0, %rdx
	movq	%rdi, -32(%rbp)
	movq	%rsi, %rdi
	movq	-32(%rbp), %rsi
	callq	_memcpy
	.loc	16 2131 2
	addq	$32, %rsp
	popq	%rbp
	retq
Ltmp112:
Lfunc_end28:
	.cfi_endproc

	.p2align	4, 0x90
__ZN4core10intrinsics19copy_nonoverlapping17hab2511eb1d3e8d06E:
Lfunc_begin29:
	.loc	16 2114 0
	.cfi_startproc
	pushq	%rbp
	.cfi_def_cfa_offset 16
	.cfi_offset %rbp, -16
	movq	%rsp, %rbp
	.cfi_def_cfa_register %rbp
	subq	$32, %rsp
	movq	%rdi, -24(%rbp)
	movq	%rsi, -16(%rbp)
	movq	%rdx, -8(%rbp)
Ltmp113:
	.loc	16 2130 14 prologue_end
	shlq	$4, %rdx
	movq	%rdi, -32(%rbp)
	movq	%rsi, %rdi
	movq	-32(%rbp), %rsi
	callq	_memcpy
	.loc	16 2131 2
	addq	$32, %rsp
	popq	%rbp
	retq
Ltmp114:
Lfunc_end29:
	.cfi_endproc

	.p2align	4, 0x90
__ZN4core10intrinsics19copy_nonoverlapping17hb214e5cb8c4ba693E:
Lfunc_begin30:
	.loc	16 2114 0
	.cfi_startproc
	pushq	%rbp
	.cfi_def_cfa_offset 16
	.cfi_offset %rbp, -16
	movq	%rsp, %rbp
	.cfi_def_cfa_register %rbp
	subq	$32, %rsp
	movq	%rdi, -24(%rbp)
	movq	%rsi, -16(%rbp)
	movq	%rdx, -8(%rbp)
Ltmp115:
	.loc	16 2130 14 prologue_end
	shlq	$4, %rdx
	movq	%rdi, -32(%rbp)
	movq	%rsi, %rdi
	movq	-32(%rbp), %rsi
	callq	_memcpy
	.loc	16 2131 2
	addq	$32, %rsp
	popq	%rbp
	retq
Ltmp116:
Lfunc_end30:
	.cfi_endproc

	.p2align	4, 0x90
__ZN4core10intrinsics19copy_nonoverlapping17hb652b189bc9dc4c2E:
Lfunc_begin31:
	.loc	16 2114 0
	.cfi_startproc
	pushq	%rbp
	.cfi_def_cfa_offset 16
	.cfi_offset %rbp, -16
	movq	%rsp, %rbp
	.cfi_def_cfa_register %rbp
	subq	$32, %rsp
	movq	%rdi, -24(%rbp)
	movq	%rsi, -16(%rbp)
	movq	%rdx, -8(%rbp)
Ltmp117:
	.loc	16 2130 14 prologue_end
	imulq	$24, %rdx, %rdx
	movq	%rdi, -32(%rbp)
	movq	%rsi, %rdi
	movq	-32(%rbp), %rsi
	callq	_memcpy
	.loc	16 2131 2
	addq	$32, %rsp
	popq	%rbp
	retq
Ltmp118:
Lfunc_end31:
	.cfi_endproc

	.p2align	4, 0x90
__ZN4core10intrinsics19copy_nonoverlapping17hd65de80ed47975f3E:
Lfunc_begin32:
	.loc	16 2114 0
	.cfi_startproc
	pushq	%rbp
	.cfi_def_cfa_offset 16
	.cfi_offset %rbp, -16
	movq	%rsp, %rbp
	.cfi_def_cfa_register %rbp
	subq	$32, %rsp
	movq	%rdi, -24(%rbp)
	movq	%rsi, -16(%rbp)
	movq	%rdx, -8(%rbp)
Ltmp119:
	.loc	16 2130 14 prologue_end
	imulq	$24, %rdx, %rdx
	movq	%rdi, -32(%rbp)
	movq	%rsi, %rdi
	movq	-32(%rbp), %rsi
	callq	_memcpy
	.loc	16 2131 2
	addq	$32, %rsp
	popq	%rbp
	retq
Ltmp120:
Lfunc_end32:
	.cfi_endproc

	.p2align	4, 0x90
__ZN4core10intrinsics19copy_nonoverlapping17he1ec528f40df0181E:
Lfunc_begin33:
	.loc	16 2114 0
	.cfi_startproc
	pushq	%rbp
	.cfi_def_cfa_offset 16
	.cfi_offset %rbp, -16
	movq	%rsp, %rbp
	.cfi_def_cfa_register %rbp
	subq	$32, %rsp
	movq	%rdi, -24(%rbp)
	movq	%rsi, -16(%rbp)
	movq	%rdx, -8(%rbp)
Ltmp121:
	.loc	16 2130 14 prologue_end
	shlq	$5, %rdx
	movq	%rdi, -32(%rbp)
	movq	%rsi, %rdi
	movq	-32(%rbp), %rsi
	callq	_memcpy
	.loc	16 2131 2
	addq	$32, %rsp
	popq	%rbp
	retq
Ltmp122:
Lfunc_end33:
	.cfi_endproc

	.p2align	4, 0x90
__ZN4core10intrinsics19copy_nonoverlapping17hee0b568ae43cc7ecE:
Lfunc_begin34:
	.loc	16 2114 0
	.cfi_startproc
	pushq	%rbp
	.cfi_def_cfa_offset 16
	.cfi_offset %rbp, -16
	movq	%rsp, %rbp
	.cfi_def_cfa_register %rbp
	subq	$32, %rsp
	movq	%rdi, -24(%rbp)
	movq	%rsi, -16(%rbp)
	movq	%rdx, -8(%rbp)
Ltmp123:
	.loc	16 2130 14 prologue_end
	imulq	$24, %rdx, %rdx
	movq	%rdi, -32(%rbp)
	movq	%rsi, %rdi
	movq	-32(%rbp), %rsi
	callq	_memcpy
	.loc	16 2131 2
	addq	$32, %rsp
	popq	%rbp
	retq
Ltmp124:
Lfunc_end34:
	.cfi_endproc

	.p2align	4, 0x90
__ZN4core3any6TypeId2of17heaac787942f98eeeE:
Lfunc_begin35:
	.loc	7 439 0
	.cfi_startproc
	pushq	%rbp
	.cfi_def_cfa_offset 16
	.cfi_offset %rbp, -16
	movq	%rsp, %rbp
	.cfi_def_cfa_register %rbp
	subq	$24, %rsp
Ltmp125:
	.loc	7 440 21 prologue_end
	movabsq	$9147559743429524724, %rax
	movq	%rax, -8(%rbp)
	movq	-8(%rbp), %rax
	movq	%rax, -24(%rbp)
	.loc	7 0 21 is_stmt 0
	movq	-24(%rbp), %rax
	.loc	7 440 9
	movq	%rax, -16(%rbp)
	.loc	7 441 6 is_stmt 1
	movq	-16(%rbp), %rax
	addq	$24, %rsp
	popq	%rbp
	retq
Ltmp126:
Lfunc_end35:
	.cfi_endproc

	.p2align	4, 0x90
__ZN4core3cmp5impls69_$LT$impl$u20$core..cmp..PartialEq$LT$$RF$B$GT$$u20$for$u20$$RF$A$GT$2eq17h55e2b1ee441e6ad8E:
Lfunc_begin36:
	.file	17 "/rustc/6c8927b0cf80ceee19386026cf9d7fd4fd9d486f/src/libcore/cmp.rs"
	.loc	17 1218 0
	.cfi_startproc
	pushq	%rbp
	.cfi_def_cfa_offset 16
	.cfi_offset %rbp, -16
	movq	%rsp, %rbp
	.cfi_def_cfa_register %rbp
	subq	$32, %rsp
	movq	%rdi, -16(%rbp)
	movq	%rsi, -8(%rbp)
Ltmp127:
	.loc	17 1219 27 prologue_end
	movq	(%rdi), %rax
	movq	8(%rdi), %rcx
	.loc	17 1219 34 is_stmt 0
	movq	(%rsi), %rdx
	movq	8(%rsi), %rsi
	.loc	17 1219 13
	movq	%rax, %rdi
	movq	%rsi, -24(%rbp)
	movq	%rcx, %rsi
	movq	-24(%rbp), %rcx
	callq	__ZN4core5slice81_$LT$impl$u20$core..cmp..PartialEq$LT$$u5b$B$u5d$$GT$$u20$for$u20$$u5b$A$u5d$$GT$2eq17hf85c4d50d0b38659E
	movb	%al, -25(%rbp)
	.loc	17 0 13
	movb	-25(%rbp), %al
	.loc	17 1220 10 is_stmt 1
	andb	$1, %al
	movzbl	%al, %eax
	addq	$32, %rsp
	popq	%rbp
	retq
Ltmp128:
Lfunc_end36:
	.cfi_endproc

	.p2align	4, 0x90
__ZN4core3cmp5impls69_$LT$impl$u20$core..cmp..PartialEq$LT$$RF$B$GT$$u20$for$u20$$RF$A$GT$2ne17h42628fe2ac00ca76E:
Lfunc_begin37:
	.loc	17 1222 0
	.cfi_startproc
	pushq	%rbp
	.cfi_def_cfa_offset 16
	.cfi_offset %rbp, -16
	movq	%rsp, %rbp
	.cfi_def_cfa_register %rbp
	subq	$32, %rsp
	movq	%rdi, -16(%rbp)
	movq	%rsi, -8(%rbp)
Ltmp129:
	.loc	17 1223 27 prologue_end
	movq	(%rdi), %rax
	movq	8(%rdi), %rcx
	.loc	17 1223 34 is_stmt 0
	movq	(%rsi), %rdx
	movq	8(%rsi), %rsi
	.loc	17 1223 13
	movq	%rax, %rdi
	movq	%rsi, -24(%rbp)
	movq	%rcx, %rsi
	movq	-24(%rbp), %rcx
	callq	__ZN4core3str6traits54_$LT$impl$u20$core..cmp..PartialEq$u20$for$u20$str$GT$2ne17hd5ea90b6d35342e6E
	movb	%al, -25(%rbp)
	.loc	17 0 13
	movb	-25(%rbp), %al
	.loc	17 1224 10 is_stmt 1
	andb	$1, %al
	movzbl	%al, %eax
	addq	$32, %rsp
	popq	%rbp
	retq
Ltmp130:
Lfunc_end37:
	.cfi_endproc

	.p2align	4, 0x90
__ZN4core3fmt10ArgumentV13new17h520322e041245b46E:
Lfunc_begin38:
	.loc	15 281 0
	.cfi_startproc
	pushq	%rbp
	.cfi_def_cfa_offset 16
	.cfi_offset %rbp, -16
	movq	%rsp, %rbp
	.cfi_def_cfa_register %rbp
	subq	$72, %rsp
	movq	%rdi, -32(%rbp)
	movq	%rsi, -24(%rbp)
Ltmp131:
	.loc	15 290 42 prologue_end
	movq	%rsi, -16(%rbp)
	movq	-16(%rbp), %rax
	movq	%rdi, -56(%rbp)
	movq	%rax, -64(%rbp)
	.loc	15 0 42 is_stmt 0
	movq	-56(%rbp), %rax
	.loc	15 290 68
	movq	%rax, -8(%rbp)
	movq	-8(%rbp), %rcx
	movq	%rcx, -72(%rbp)
	.loc	15 0 68
	movq	-72(%rbp), %rax
	.loc	15 290 18
	movq	%rax, -48(%rbp)
	movq	-64(%rbp), %rcx
	movq	%rcx, -40(%rbp)
	.loc	15 291 6 is_stmt 1
	movq	-48(%rbp), %rax
	movq	-40(%rbp), %rdx
	addq	$72, %rsp
	popq	%rbp
	retq
Ltmp132:
Lfunc_end38:
	.cfi_endproc

	.p2align	4, 0x90
__ZN4core3fmt10ArgumentV13new17hbe65aa89abf5c132E:
Lfunc_begin39:
	.loc	15 281 0
	.cfi_startproc
	pushq	%rbp
	.cfi_def_cfa_offset 16
	.cfi_offset %rbp, -16
	movq	%rsp, %rbp
	.cfi_def_cfa_register %rbp
	subq	$72, %rsp
	movq	%rdi, -32(%rbp)
	movq	%rsi, -24(%rbp)
Ltmp133:
	.loc	15 290 42 prologue_end
	movq	%rsi, -16(%rbp)
	movq	-16(%rbp), %rax
	movq	%rdi, -56(%rbp)
	movq	%rax, -64(%rbp)
	.loc	15 0 42 is_stmt 0
	movq	-56(%rbp), %rax
	.loc	15 290 68
	movq	%rax, -8(%rbp)
	movq	-8(%rbp), %rcx
	movq	%rcx, -72(%rbp)
	.loc	15 0 68
	movq	-72(%rbp), %rax
	.loc	15 290 18
	movq	%rax, -48(%rbp)
	movq	-64(%rbp), %rcx
	movq	%rcx, -40(%rbp)
	.loc	15 291 6 is_stmt 1
	movq	-48(%rbp), %rax
	movq	-40(%rbp), %rdx
	addq	$72, %rsp
	popq	%rbp
	retq
Ltmp134:
Lfunc_end39:
	.cfi_endproc

	.p2align	4, 0x90
__ZN4core3fmt10ArgumentV13new17heddde21c0ed38d31E:
Lfunc_begin40:
	.loc	15 281 0
	.cfi_startproc
	pushq	%rbp
	.cfi_def_cfa_offset 16
	.cfi_offset %rbp, -16
	movq	%rsp, %rbp
	.cfi_def_cfa_register %rbp
	subq	$72, %rsp
	movq	%rdi, -32(%rbp)
	movq	%rsi, -24(%rbp)
Ltmp135:
	.loc	15 290 42 prologue_end
	movq	%rsi, -16(%rbp)
	movq	-16(%rbp), %rax
	movq	%rdi, -56(%rbp)
	movq	%rax, -64(%rbp)
	.loc	15 0 42 is_stmt 0
	movq	-56(%rbp), %rax
	.loc	15 290 68
	movq	%rax, -8(%rbp)
	movq	-8(%rbp), %rcx
	movq	%rcx, -72(%rbp)
	.loc	15 0 68
	movq	-72(%rbp), %rax
	.loc	15 290 18
	movq	%rax, -48(%rbp)
	movq	-64(%rbp), %rcx
	movq	%rcx, -40(%rbp)
	.loc	15 291 6 is_stmt 1
	movq	-48(%rbp), %rax
	movq	-40(%rbp), %rdx
	addq	$72, %rsp
	popq	%rbp
	retq
Ltmp136:
Lfunc_end40:
	.cfi_endproc

	.p2align	4, 0x90
__ZN4core3fmt9Arguments6new_v117hecb3f1ddb34b0c6dE:
Lfunc_begin41:
	.loc	15 327 0
	.cfi_startproc
	pushq	%rbp
	.cfi_def_cfa_offset 16
	.cfi_offset %rbp, -16
	movq	%rsp, %rbp
	.cfi_def_cfa_register %rbp
	subq	$48, %rsp
	movq	%rdi, %rax
	movq	%rsi, -32(%rbp)
	movq	%rdx, -24(%rbp)
	movq	%rcx, -16(%rbp)
	movq	%r8, -8(%rbp)
Ltmp137:
	.loc	15 328 34 prologue_end
	movq	$0, -48(%rbp)
	.loc	15 328 9 is_stmt 0
	movq	%rsi, (%rdi)
	movq	%rdx, 8(%rdi)
	movq	-48(%rbp), %rdx
	movq	-40(%rbp), %rsi
	movq	%rdx, 16(%rdi)
	movq	%rsi, 24(%rdi)
	movq	%rcx, 32(%rdi)
	movq	%r8, 40(%rdi)
	.loc	15 329 6 is_stmt 1
	addq	$48, %rsp
	popq	%rbp
	retq
Ltmp138:
Lfunc_end41:
	.cfi_endproc

	.p2align	4, 0x90
__ZN4core3mem11size_of_val17h3767df0b13c713a1E:
Lfunc_begin42:
	.file	18 "/rustc/6c8927b0cf80ceee19386026cf9d7fd4fd9d486f/src/libcore/mem/mod.rs"
	.loc	18 335 0
	.cfi_startproc
	pushq	%rbp
	.cfi_def_cfa_offset 16
	.cfi_offset %rbp, -16
	movq	%rsp, %rbp
	.cfi_def_cfa_register %rbp
	subq	$32, %rsp
	movq	%rdi, -24(%rbp)
	movq	%rsi, -16(%rbp)
Ltmp139:
	.loc	18 336 5 prologue_end
	shlq	$0, %rsi
	movq	%rsi, -8(%rbp)
	movq	-8(%rbp), %rax
	movq	%rax, -32(%rbp)
	.loc	18 0 5 is_stmt 0
	movq	-32(%rbp), %rax
	.loc	18 337 2 is_stmt 1
	addq	$32, %rsp
	popq	%rbp
	retq
Ltmp140:
Lfunc_end42:
	.cfi_endproc

	.p2align	4, 0x90
__ZN4core3mem4drop17h9f6b5c0243e2dc9bE:
Lfunc_begin43:
	.loc	18 883 0
	.cfi_startproc
	pushq	%rbp
	.cfi_def_cfa_offset 16
	.cfi_offset %rbp, -16
	movq	%rsp, %rbp
	.cfi_def_cfa_register %rbp
Ltmp141:
	.loc	18 883 24 prologue_end
	callq	__ZN4core3ptr13drop_in_place17h4a58d25856d776afE
Ltmp142:
	.loc	18 883 25 is_stmt 0
	popq	%rbp
	retq
Ltmp143:
Lfunc_end43:
	.cfi_endproc

	.p2align	4, 0x90
__ZN4core3mem4drop17ha9b9ad46c8273beeE:
Lfunc_begin44:
	.loc	18 883 0 is_stmt 1
	.cfi_startproc
	pushq	%rbp
	.cfi_def_cfa_offset 16
	.cfi_offset %rbp, -16
	movq	%rsp, %rbp
	.cfi_def_cfa_register %rbp
Ltmp144:
	.loc	18 883 24 prologue_end
	callq	__ZN4core3ptr13drop_in_place17h24c64c99a0b11d2eE
Ltmp145:
	.loc	18 883 25 is_stmt 0
	popq	%rbp
	retq
Ltmp146:
Lfunc_end44:
	.cfi_endproc

	.p2align	4, 0x90
__ZN4core3mem4swap17h6d5db5376cbb34a3E:
Lfunc_begin45:
	.loc	18 686 0 is_stmt 1
	.cfi_startproc
	pushq	%rbp
	.cfi_def_cfa_offset 16
	.cfi_offset %rbp, -16
	movq	%rsp, %rbp
	.cfi_def_cfa_register %rbp
	subq	$16, %rsp
	movq	%rdi, -16(%rbp)
	movq	%rsi, -8(%rbp)
Ltmp147:
	.loc	18 690 9 prologue_end
	callq	__ZN4core3ptr23swap_nonoverlapping_one17h3e2de08147ca2b45E
	.loc	18 692 2
	addq	$16, %rsp
	popq	%rbp
	retq
Ltmp148:
Lfunc_end45:
	.cfi_endproc

	.p2align	4, 0x90
__ZN4core3mem4swap17hac6175f20b222ac8E:
Lfunc_begin46:
	.loc	18 686 0
	.cfi_startproc
	pushq	%rbp
	.cfi_def_cfa_offset 16
	.cfi_offset %rbp, -16
	movq	%rsp, %rbp
	.cfi_def_cfa_register %rbp
	subq	$16, %rsp
	movq	%rdi, -16(%rbp)
	movq	%rsi, -8(%rbp)
Ltmp149:
	.loc	18 690 9 prologue_end
	callq	__ZN4core3ptr23swap_nonoverlapping_one17hbb741bb3c5590377E
	.loc	18 692 2
	addq	$16, %rsp
	popq	%rbp
	retq
Ltmp150:
Lfunc_end46:
	.cfi_endproc

	.p2align	4, 0x90
__ZN4core3mem4take17h1c46225fc38d8c8dE:
Lfunc_begin47:
	.loc	18 750 0
	.cfi_startproc
	pushq	%rbp
	.cfi_def_cfa_offset 16
	.cfi_offset %rbp, -16
	movq	%rsp, %rbp
	.cfi_def_cfa_register %rbp
	subq	$48, %rsp
	movq	%rdi, -8(%rbp)
	movq	%rdi, -16(%rbp)
Ltmp151:
	.loc	18 751 19 prologue_end
	callq	__ZN72_$LT$core..option..Option$LT$T$GT$$u20$as$u20$core..default..Default$GT$7default17ha14082a21ed90941E
	movq	%rax, -24(%rbp)
	movq	%rdx, -32(%rbp)
	.loc	18 0 19 is_stmt 0
	movq	-16(%rbp), %rdi
	movq	-24(%rbp), %rsi
	movq	-32(%rbp), %rdx
	.loc	18 751 5
	callq	__ZN4core3mem7replace17h6d468955105975bcE
	movq	%rax, -40(%rbp)
	movq	%rdx, -48(%rbp)
	.loc	18 0 5
	movq	-40(%rbp), %rax
	movq	-48(%rbp), %rdx
	.loc	18 752 2 is_stmt 1
	addq	$48, %rsp
	popq	%rbp
	retq
Ltmp152:
Lfunc_end47:
	.cfi_endproc

	.p2align	4, 0x90
__ZN4core3mem4take17h52f597086a201a23E:
Lfunc_begin48:
	.loc	18 750 0
	.cfi_startproc
	pushq	%rbp
	.cfi_def_cfa_offset 16
	.cfi_offset %rbp, -16
	movq	%rsp, %rbp
	.cfi_def_cfa_register %rbp
	subq	$48, %rsp
	movq	%rdi, -8(%rbp)
	movq	%rdi, -16(%rbp)
Ltmp153:
	.loc	18 751 19 prologue_end
	callq	__ZN72_$LT$core..option..Option$LT$T$GT$$u20$as$u20$core..default..Default$GT$7default17ha83ae0eba9abe2b2E
	movq	%rax, -24(%rbp)
	movq	%rdx, -32(%rbp)
	.loc	18 0 19 is_stmt 0
	movq	-16(%rbp), %rdi
	movq	-24(%rbp), %rsi
	movq	-32(%rbp), %rdx
	.loc	18 751 5
	callq	__ZN4core3mem7replace17h926ab6d29272b7f9E
	movq	%rax, -40(%rbp)
	movq	%rdx, -48(%rbp)
	.loc	18 0 5
	movq	-40(%rbp), %rax
	movq	-48(%rbp), %rdx
	.loc	18 752 2 is_stmt 1
	addq	$48, %rsp
	popq	%rbp
	retq
Ltmp154:
Lfunc_end48:
	.cfi_endproc

	.p2align	4, 0x90
__ZN4core3mem6forget17h448dc63e222b9247E:
Lfunc_begin49:
	.loc	18 147 0
	.cfi_startproc
	pushq	%rbp
	.cfi_def_cfa_offset 16
	.cfi_offset %rbp, -16
	movq	%rsp, %rbp
	.cfi_def_cfa_register %rbp
	subq	$24, %rsp
	movq	%rdi, -24(%rbp)
	movq	%rdi, -8(%rbp)
Ltmp155:
	.loc	4 83 9 prologue_end
	movq	%rdi, -16(%rbp)
Ltmp156:
	.loc	18 149 2
	addq	$24, %rsp
	popq	%rbp
	retq
Ltmp157:
Lfunc_end49:
	.cfi_endproc

	.p2align	4, 0x90
__ZN4core3mem7replace17h6d468955105975bcE:
Lfunc_begin50:
	.loc	18 814 0
	.cfi_startproc
	.cfi_personality 155, _rust_eh_personality
	.cfi_lsda 16, Lexception6
	pushq	%rbp
	.cfi_def_cfa_offset 16
	.cfi_offset %rbp, -16
	movq	%rsp, %rbp
	.cfi_def_cfa_register %rbp
	subq	$48, %rsp
	movq	%rsi, -40(%rbp)
	movq	%rdx, -32(%rbp)
	movq	%rdi, -24(%rbp)
Ltmp158:
	leaq	-40(%rbp), %rsi
Ltmp161:
	.loc	18 815 5 prologue_end
	callq	__ZN4core3mem4swap17hac6175f20b222ac8E
Ltmp159:
	jmp	LBB50_2
LBB50_1:
	.loc	18 814 1
	movq	-16(%rbp), %rdi
	callq	__Unwind_Resume
	ud2
LBB50_2:
	.loc	18 816 5
	movq	-40(%rbp), %rax
	movq	-32(%rbp), %rdx
	.loc	18 817 2
	addq	$48, %rsp
	popq	%rbp
	retq
LBB50_3:
	.loc	18 817 1 is_stmt 0
	jmp	LBB50_1
Ltmp162:
LBB50_4:
Ltmp160:
	.loc	18 0 1
	movq	%rax, -16(%rbp)
	movl	%edx, -8(%rbp)
	jmp	LBB50_3
Lfunc_end50:
	.cfi_endproc
	.section	__TEXT,__gcc_except_tab
	.p2align	2
GCC_except_table50:
Lexception6:
	.byte	255
	.byte	255
	.byte	1
	.uleb128 Lcst_end6-Lcst_begin6
Lcst_begin6:
	.uleb128 Ltmp158-Lfunc_begin50
	.uleb128 Ltmp159-Ltmp158
	.uleb128 Ltmp160-Lfunc_begin50
	.byte	0
	.uleb128 Ltmp159-Lfunc_begin50
	.uleb128 Lfunc_end50-Ltmp159
	.byte	0
	.byte	0
Lcst_end6:
	.p2align	2

	.section	__TEXT,__text,regular,pure_instructions
	.p2align	4, 0x90
__ZN4core3mem7replace17h926ab6d29272b7f9E:
Lfunc_begin51:
	.loc	18 814 0 is_stmt 1
	.cfi_startproc
	.cfi_personality 155, _rust_eh_personality
	.cfi_lsda 16, Lexception7
	pushq	%rbp
	.cfi_def_cfa_offset 16
	.cfi_offset %rbp, -16
	movq	%rsp, %rbp
	.cfi_def_cfa_register %rbp
	subq	$48, %rsp
	movq	%rsi, -40(%rbp)
	movq	%rdx, -32(%rbp)
	movq	%rdi, -24(%rbp)
Ltmp163:
	leaq	-40(%rbp), %rsi
Ltmp166:
	.loc	18 815 5 prologue_end
	callq	__ZN4core3mem4swap17h6d5db5376cbb34a3E
Ltmp164:
	jmp	LBB51_2
LBB51_1:
	.loc	18 814 1
	movq	-16(%rbp), %rdi
	callq	__Unwind_Resume
	ud2
LBB51_2:
	.loc	18 816 5
	movq	-40(%rbp), %rax
	movq	-32(%rbp), %rdx
	.loc	18 817 2
	addq	$48, %rsp
	popq	%rbp
	retq
LBB51_3:
	.loc	18 817 1 is_stmt 0
	jmp	LBB51_1
Ltmp167:
LBB51_4:
Ltmp165:
	.loc	18 0 1
	movq	%rax, -16(%rbp)
	movl	%edx, -8(%rbp)
	jmp	LBB51_3
Lfunc_end51:
	.cfi_endproc
	.section	__TEXT,__gcc_except_tab
	.p2align	2
GCC_except_table51:
Lexception7:
	.byte	255
	.byte	255
	.byte	1
	.uleb128 Lcst_end7-Lcst_begin7
Lcst_begin7:
	.uleb128 Ltmp163-Lfunc_begin51
	.uleb128 Ltmp164-Ltmp163
	.uleb128 Ltmp165-Lfunc_begin51
	.byte	0
	.uleb128 Ltmp164-Lfunc_begin51
	.uleb128 Lfunc_end51-Ltmp164
	.byte	0
	.byte	0
Lcst_end7:
	.p2align	2

	.section	__TEXT,__text,regular,pure_instructions
	.p2align	4, 0x90
__ZN4core3num12NonZeroUsize13new_unchecked17h362c2f5f50984205E:
Lfunc_begin52:
	.file	19 "/rustc/6c8927b0cf80ceee19386026cf9d7fd4fd9d486f/src/libcore/num/mod.rs"
	.loc	19 83 0 is_stmt 1
	.cfi_startproc
	pushq	%rbp
	.cfi_def_cfa_offset 16
	.cfi_offset %rbp, -16
	movq	%rsp, %rbp
	.cfi_def_cfa_register %rbp
	subq	$16, %rsp
	movq	%rdi, -8(%rbp)
Ltmp168:
	.loc	19 85 30 prologue_end
	movq	%rdi, -16(%rbp)
	.loc	19 86 18
	movq	-16(%rbp), %rax
	addq	$16, %rsp
	popq	%rbp
	retq
Ltmp169:
Lfunc_end52:
	.cfi_endproc

	.p2align	4, 0x90
__ZN4core3num12NonZeroUsize3get17h70daa29668f1efb5E:
Lfunc_begin53:
	.loc	19 105 0
	.cfi_startproc
	pushq	%rbp
	.cfi_def_cfa_offset 16
	.cfi_offset %rbp, -16
	movq	%rsp, %rbp
	.cfi_def_cfa_register %rbp
	pushq	%rax
	movq	%rdi, -8(%rbp)
Ltmp170:
	.loc	19 107 18 prologue_end
	movq	%rdi, %rax
	addq	$8, %rsp
	popq	%rbp
	retq
Ltmp171:
Lfunc_end53:
	.cfi_endproc

	.p2align	4, 0x90
__ZN4core3ops8function6FnOnce40call_once$u7b$$u7b$vtable.shim$u7d$$u7d$17hb0280c1a66898102E:
Lfunc_begin54:
	.file	20 "/rustc/6c8927b0cf80ceee19386026cf9d7fd4fd9d486f/src/libcore/ops/function.rs"
	.loc	20 233 0
	.cfi_startproc
	pushq	%rbp
	.cfi_def_cfa_offset 16
	.cfi_offset %rbp, -16
	movq	%rsp, %rbp
	.cfi_def_cfa_register %rbp
	subq	$32, %rsp
	movq	%rdi, -8(%rbp)
Ltmp172:
	.loc	20 233 5 prologue_end
	movq	(%rdi), %rdi
	callq	__ZN4core3ops8function6FnOnce9call_once17hacd3aaa0de190493E
	movl	%eax, -20(%rbp)
	.loc	20 0 5 is_stmt 0
	movl	-20(%rbp), %eax
	.loc	20 233 5
	addq	$32, %rsp
	popq	%rbp
	retq
Ltmp173:
Lfunc_end54:
	.cfi_endproc

	.p2align	4, 0x90
__ZN4core3ops8function6FnOnce9call_once17hacd3aaa0de190493E:
Lfunc_begin55:
	.loc	20 233 0 is_stmt 1
	.cfi_startproc
	.cfi_personality 155, _rust_eh_personality
	.cfi_lsda 16, Lexception8
	pushq	%rbp
	.cfi_def_cfa_offset 16
	.cfi_offset %rbp, -16
	movq	%rsp, %rbp
	.cfi_def_cfa_register %rbp
	subq	$48, %rsp
	movq	%rdi, -32(%rbp)
Ltmp174:
	leaq	-32(%rbp), %rdi
Ltmp177:
	.loc	20 233 5 prologue_end
	callq	__ZN3std2rt10lang_start28_$u7b$$u7b$closure$u7d$$u7d$17hd803cd721314e6f4E
Ltmp175:
	movl	%eax, -36(%rbp)
	jmp	LBB55_1
LBB55_1:
	jmp	LBB55_2
LBB55_2:
	.loc	20 0 5 is_stmt 0
	movl	-36(%rbp), %eax
	.loc	20 233 5
	addq	$48, %rsp
	popq	%rbp
	retq
LBB55_3:
	jmp	LBB55_4
LBB55_4:
	movq	-16(%rbp), %rdi
	callq	__Unwind_Resume
	ud2
Ltmp178:
LBB55_5:
Ltmp176:
	.loc	20 0 5
	movq	%rax, -16(%rbp)
	movl	%edx, -8(%rbp)
	jmp	LBB55_3
Lfunc_end55:
	.cfi_endproc
	.section	__TEXT,__gcc_except_tab
	.p2align	2
GCC_except_table55:
Lexception8:
	.byte	255
	.byte	255
	.byte	1
	.uleb128 Lcst_end8-Lcst_begin8
Lcst_begin8:
	.uleb128 Ltmp174-Lfunc_begin55
	.uleb128 Ltmp175-Ltmp174
	.uleb128 Ltmp176-Lfunc_begin55
	.byte	0
	.uleb128 Ltmp175-Lfunc_begin55
	.uleb128 Lfunc_end55-Ltmp175
	.byte	0
	.byte	0
Lcst_end8:
	.p2align	2

	.section	__TEXT,__text,regular,pure_instructions
	.p2align	4, 0x90
__ZN4core3ptr13drop_in_place17h089994be64f1c27cE:
Lfunc_begin56:
	.file	21 "/rustc/6c8927b0cf80ceee19386026cf9d7fd4fd9d486f/src/libcore/ptr/mod.rs"
	.loc	21 184 0 is_stmt 1
	.cfi_startproc
	pushq	%rbp
	.cfi_def_cfa_offset 16
	.cfi_offset %rbp, -16
	movq	%rsp, %rbp
	.cfi_def_cfa_register %rbp
	subq	$16, %rsp
	movq	%rdi, -8(%rbp)
Ltmp179:
	.loc	21 184 1 prologue_end
	addq	$16, %rsp
	popq	%rbp
	retq
Ltmp180:
Lfunc_end56:
	.cfi_endproc

	.p2align	4, 0x90
__ZN4core3ptr13drop_in_place17h0a2ba2f4b286950eE:
Lfunc_begin57:
	.loc	21 184 0
	.cfi_startproc
	pushq	%rbp
	.cfi_def_cfa_offset 16
	.cfi_offset %rbp, -16
	movq	%rsp, %rbp
	.cfi_def_cfa_register %rbp
	subq	$16, %rsp
	movq	%rdi, -8(%rbp)
Ltmp181:
	.loc	21 184 1 prologue_end
	callq	__ZN4core3ptr13drop_in_place17hb1800c69a8322351E
	addq	$16, %rsp
	popq	%rbp
	retq
Ltmp182:
Lfunc_end57:
	.cfi_endproc

	.p2align	4, 0x90
__ZN4core3ptr13drop_in_place17h0b8d62218b36dab2E:
Lfunc_begin58:
	.loc	21 184 0
	.cfi_startproc
	pushq	%rbp
	.cfi_def_cfa_offset 16
	.cfi_offset %rbp, -16
	movq	%rsp, %rbp
	.cfi_def_cfa_register %rbp
	subq	$16, %rsp
	movq	%rdi, -8(%rbp)
Ltmp183:
	.loc	21 184 1 prologue_end
	addq	$16, %rsp
	popq	%rbp
	retq
Ltmp184:
Lfunc_end58:
	.cfi_endproc

	.p2align	4, 0x90
__ZN4core3ptr13drop_in_place17h148b2b10391f1c38E:
Lfunc_begin59:
	.loc	21 184 0
	.cfi_startproc
	pushq	%rbp
	.cfi_def_cfa_offset 16
	.cfi_offset %rbp, -16
	movq	%rsp, %rbp
	.cfi_def_cfa_register %rbp
	subq	$32, %rsp
	xorl	%eax, %eax
	movl	%eax, %ecx
	movq	%rdi, -8(%rbp)
Ltmp185:
	.loc	21 184 1 prologue_end
	cmpq	$0, (%rdi)
	movl	$1, %edx
	cmovbeq	%rcx, %rdx
	cmpq	$0, %rdx
	movq	%rdi, -24(%rbp)
	jne	LBB59_2
LBB59_1:
	addq	$32, %rsp
	popq	%rbp
	retq
LBB59_2:
	.loc	21 0 1 is_stmt 0
	movq	-24(%rbp), %rax
	.loc	21 184 1
	movq	%rax, %rdi
	callq	__ZN4core3ptr13drop_in_place17h24c64c99a0b11d2eE
	jmp	LBB59_1
Ltmp186:
Lfunc_end59:
	.cfi_endproc

	.p2align	4, 0x90
__ZN4core3ptr13drop_in_place17h14c12d9cac52df95E:
Lfunc_begin60:
	.loc	21 184 0 is_stmt 1
	.cfi_startproc
	.cfi_personality 155, _rust_eh_personality
	.cfi_lsda 16, Lexception9
	pushq	%rbp
	.cfi_def_cfa_offset 16
	.cfi_offset %rbp, -16
	movq	%rsp, %rbp
	.cfi_def_cfa_register %rbp
	subq	$48, %rsp
	movq	%rdi, -24(%rbp)
Ltmp187:
	movq	%rdi, -40(%rbp)
Ltmp190:
	.loc	21 184 1 prologue_end
	callq	__ZN4core3ptr13drop_in_place17hb56a32f3c2dde7ecE
Ltmp188:
	jmp	LBB60_4
LBB60_1:
	movq	-16(%rbp), %rdi
	callq	__Unwind_Resume
	ud2
LBB60_2:
	addq	$48, %rsp
	popq	%rbp
	retq
LBB60_3:
	.loc	21 0 1 is_stmt 0
	movq	-40(%rbp), %rax
	.loc	21 184 1
	addq	$24, %rax
	movq	%rax, %rdi
	callq	__ZN4core3ptr13drop_in_place17hb56a32f3c2dde7ecE
	jmp	LBB60_1
LBB60_4:
	.loc	21 0 1
	movq	-40(%rbp), %rax
	.loc	21 184 1
	addq	$24, %rax
	movq	%rax, %rdi
	callq	__ZN4core3ptr13drop_in_place17hb56a32f3c2dde7ecE
	jmp	LBB60_2
Ltmp191:
LBB60_5:
Ltmp189:
	.loc	21 0 1
	movq	%rax, -16(%rbp)
	movl	%edx, -8(%rbp)
	jmp	LBB60_3
Lfunc_end60:
	.cfi_endproc
	.section	__TEXT,__gcc_except_tab
	.p2align	2
GCC_except_table60:
Lexception9:
	.byte	255
	.byte	255
	.byte	1
	.uleb128 Lcst_end9-Lcst_begin9
Lcst_begin9:
	.uleb128 Ltmp187-Lfunc_begin60
	.uleb128 Ltmp188-Ltmp187
	.uleb128 Ltmp189-Lfunc_begin60
	.byte	0
	.uleb128 Ltmp188-Lfunc_begin60
	.uleb128 Lfunc_end60-Ltmp188
	.byte	0
	.byte	0
Lcst_end9:
	.p2align	2

	.section	__TEXT,__text,regular,pure_instructions
	.p2align	4, 0x90
__ZN4core3ptr13drop_in_place17h1c78fe9b567101e6E:
Lfunc_begin61:
	.loc	21 184 0 is_stmt 1
	.cfi_startproc
	pushq	%rbp
	.cfi_def_cfa_offset 16
	.cfi_offset %rbp, -16
	movq	%rsp, %rbp
	.cfi_def_cfa_register %rbp
	subq	$16, %rsp
	movq	%rdi, -8(%rbp)
Ltmp192:
	.loc	21 184 1 prologue_end
	callq	__ZN4core3ptr13drop_in_place17hdfc9ceb364fb6483E
	addq	$16, %rsp
	popq	%rbp
	retq
Ltmp193:
Lfunc_end61:
	.cfi_endproc

	.p2align	4, 0x90
__ZN4core3ptr13drop_in_place17h224c0ba52b897c85E:
Lfunc_begin62:
	.loc	21 184 0
	.cfi_startproc
	pushq	%rbp
	.cfi_def_cfa_offset 16
	.cfi_offset %rbp, -16
	movq	%rsp, %rbp
	.cfi_def_cfa_register %rbp
	subq	$32, %rsp
	movq	%rdi, -16(%rbp)
	movq	%rsi, -8(%rbp)
Ltmp194:
	.loc	21 184 1 prologue_end
	callq	*(%rsi)
	addq	$32, %rsp
	popq	%rbp
	retq
Ltmp195:
Lfunc_end62:
	.cfi_endproc

	.p2align	4, 0x90
__ZN4core3ptr13drop_in_place17h24c64c99a0b11d2eE:
Lfunc_begin63:
	.loc	21 184 0
	.cfi_startproc
	.cfi_personality 155, _rust_eh_personality
	.cfi_lsda 16, Lexception10
	pushq	%rbp
	.cfi_def_cfa_offset 16
	.cfi_offset %rbp, -16
	movq	%rsp, %rbp
	.cfi_def_cfa_register %rbp
	subq	$48, %rsp
	movq	%rdi, -24(%rbp)
Ltmp196:
	movq	%rdi, -40(%rbp)
Ltmp199:
	.loc	21 184 1 prologue_end
	callq	__ZN4core3ptr13drop_in_place17h1c78fe9b567101e6E
Ltmp197:
	jmp	LBB63_4
LBB63_1:
	movq	-16(%rbp), %rdi
	callq	__Unwind_Resume
	ud2
LBB63_2:
	addq	$48, %rsp
	popq	%rbp
	retq
LBB63_3:
	.loc	21 0 1 is_stmt 0
	movq	-40(%rbp), %rax
	.loc	21 184 1
	addq	$24, %rax
	movq	%rax, %rdi
	callq	__ZN4core3ptr13drop_in_place17h8984a0a6fa6f0242E
	jmp	LBB63_1
LBB63_4:
	.loc	21 0 1
	movq	-40(%rbp), %rax
	.loc	21 184 1
	addq	$24, %rax
	movq	%rax, %rdi
	callq	__ZN4core3ptr13drop_in_place17h8984a0a6fa6f0242E
	jmp	LBB63_2
Ltmp200:
LBB63_5:
Ltmp198:
	.loc	21 0 1
	movq	%rax, -16(%rbp)
	movl	%edx, -8(%rbp)
	jmp	LBB63_3
Lfunc_end63:
	.cfi_endproc
	.section	__TEXT,__gcc_except_tab
	.p2align	2
GCC_except_table63:
Lexception10:
	.byte	255
	.byte	255
	.byte	1
	.uleb128 Lcst_end10-Lcst_begin10
Lcst_begin10:
	.uleb128 Ltmp196-Lfunc_begin63
	.uleb128 Ltmp197-Ltmp196
	.uleb128 Ltmp198-Lfunc_begin63
	.byte	0
	.uleb128 Ltmp197-Lfunc_begin63
	.uleb128 Lfunc_end63-Ltmp197
	.byte	0
	.byte	0
Lcst_end10:
	.p2align	2

	.section	__TEXT,__text,regular,pure_instructions
	.p2align	4, 0x90
__ZN4core3ptr13drop_in_place17h347ce771c5128e3fE:
Lfunc_begin64:
	.loc	21 184 0 is_stmt 1
	.cfi_startproc
	pushq	%rbp
	.cfi_def_cfa_offset 16
	.cfi_offset %rbp, -16
	movq	%rsp, %rbp
	.cfi_def_cfa_register %rbp
	subq	$32, %rsp
	movq	%rdi, -8(%rbp)
Ltmp201:
	.loc	21 184 1 prologue_end
	movl	(%rdi), %eax
	subl	$2, %eax
	movq	%rdi, -24(%rbp)
	ja	LBB64_2
	jmp	LBB64_1
LBB64_1:
	addq	$32, %rsp
	popq	%rbp
	retq
LBB64_2:
	.loc	21 0 1 is_stmt 0
	movq	-24(%rbp), %rax
	.loc	21 184 1
	addq	$4, %rax
	movq	%rax, %rdi
	callq	__ZN4core3ptr13drop_in_place17hdfb01e86c69920c4E
	jmp	LBB64_1
Ltmp202:
Lfunc_end64:
	.cfi_endproc

	.p2align	4, 0x90
__ZN4core3ptr13drop_in_place17h43fc8c5bfa913933E:
Lfunc_begin65:
	.loc	21 184 0 is_stmt 1
	.cfi_startproc
	pushq	%rbp
	.cfi_def_cfa_offset 16
	.cfi_offset %rbp, -16
	movq	%rsp, %rbp
	.cfi_def_cfa_register %rbp
	subq	$32, %rsp
	xorl	%eax, %eax
	movl	%eax, %ecx
	movq	%rdi, -8(%rbp)
Ltmp203:
	.loc	21 184 1 prologue_end
	cmpq	$0, (%rdi)
	movl	$1, %edx
	cmovbeq	%rcx, %rdx
	cmpq	$0, %rdx
	movq	%rdi, -24(%rbp)
	jne	LBB65_2
LBB65_1:
	addq	$32, %rsp
	popq	%rbp
	retq
LBB65_2:
	.loc	21 0 1 is_stmt 0
	movq	-24(%rbp), %rax
	.loc	21 184 1
	movq	%rax, %rdi
	callq	__ZN4core3ptr13drop_in_place17h907d9ba19d8d7b32E
	jmp	LBB65_1
Ltmp204:
Lfunc_end65:
	.cfi_endproc

	.p2align	4, 0x90
__ZN4core3ptr13drop_in_place17h4a58d25856d776afE:
Lfunc_begin66:
	.loc	21 184 0 is_stmt 1
	.cfi_startproc
	pushq	%rbp
	.cfi_def_cfa_offset 16
	.cfi_offset %rbp, -16
	movq	%rsp, %rbp
	.cfi_def_cfa_register %rbp
	subq	$16, %rsp
	movq	%rdi, -8(%rbp)
Ltmp205:
	.loc	21 184 1 prologue_end
	callq	__ZN95_$LT$alloc..collections..btree..map..IntoIter$LT$K$C$V$GT$$u20$as$u20$core..ops..drop..Drop$GT$4drop17h775fbb8a852edb9dE
	addq	$16, %rsp
	popq	%rbp
	retq
Ltmp206:
Lfunc_end66:
	.cfi_endproc

	.p2align	4, 0x90
__ZN4core3ptr13drop_in_place17h56043cc4bb5eac60E:
Lfunc_begin67:
	.loc	21 184 0
	.cfi_startproc
	.cfi_personality 155, _rust_eh_personality
	.cfi_lsda 16, Lexception11
	pushq	%rbp
	.cfi_def_cfa_offset 16
	.cfi_offset %rbp, -16
	movq	%rsp, %rbp
	.cfi_def_cfa_register %rbp
	subq	$80, %rsp
	xorl	%eax, %eax
	movq	%rdi, -32(%rbp)
	movq	%rsi, -24(%rbp)
Ltmp213:
	.loc	21 184 1 prologue_end
	testb	$1, %al
	movq	%rdi, -72(%rbp)
	movq	%rsi, -80(%rbp)
	jne	LBB67_7
	jmp	LBB67_12
LBB67_1:
	addq	$80, %rsp
	popq	%rbp
	retq
LBB67_2:
	movq	-16(%rbp), %rdi
	callq	__Unwind_Resume
	ud2
LBB67_3:
	movq	-56(%rbp), %rax
	shlq	$4, %rax
	movq	-72(%rbp), %rcx
	addq	%rax, %rcx
	movq	-56(%rbp), %rax
	addq	$1, %rax
	movq	%rax, -56(%rbp)
	movq	%rcx, %rdi
	callq	__ZN4core3ptr13drop_in_place17h925b7b6121363bd0E
LBB67_4:
	.loc	21 0 1 is_stmt 0
	movq	-80(%rbp), %rax
	.loc	21 184 1
	cmpq	%rax, -56(%rbp)
	je	LBB67_2
	jmp	LBB67_3
LBB67_5:
	movq	-56(%rbp), %rax
	movq	%rax, %rcx
	shlq	$4, %rcx
	movq	-72(%rbp), %rdx
	addq	%rcx, %rdx
	incq	%rax
	movq	%rax, -56(%rbp)
Ltmp210:
	movq	%rdx, %rdi
	callq	__ZN4core3ptr13drop_in_place17h925b7b6121363bd0E
Ltmp211:
	jmp	LBB67_6
LBB67_6:
	.loc	21 0 1
	movq	-80(%rbp), %rax
	.loc	21 184 1
	cmpq	%rax, -56(%rbp)
	je	LBB67_1
	jmp	LBB67_5
LBB67_7:
	movq	$0, -56(%rbp)
	jmp	LBB67_6
LBB67_8:
	movq	-48(%rbp), %rdi
	movq	-48(%rbp), %rax
	addq	$16, %rax
	movq	%rax, -48(%rbp)
	callq	__ZN4core3ptr13drop_in_place17h925b7b6121363bd0E
LBB67_9:
	movq	-48(%rbp), %rax
	cmpq	-40(%rbp), %rax
	je	LBB67_2
	jmp	LBB67_8
LBB67_10:
	movq	-48(%rbp), %rax
	movq	%rax, %rcx
	addq	$16, %rcx
	movq	%rcx, -48(%rbp)
Ltmp207:
	movq	%rax, %rdi
	callq	__ZN4core3ptr13drop_in_place17h925b7b6121363bd0E
Ltmp208:
	jmp	LBB67_11
LBB67_11:
	movq	-48(%rbp), %rax
	cmpq	-40(%rbp), %rax
	je	LBB67_1
	jmp	LBB67_10
LBB67_12:
	.loc	21 0 1
	movq	-72(%rbp), %rax
	.loc	21 184 1
	movq	%rax, -48(%rbp)
	movq	-80(%rbp), %rax
	shlq	$4, %rax
	addq	-48(%rbp), %rax
	movq	%rax, -40(%rbp)
	jmp	LBB67_11
Ltmp214:
LBB67_13:
Ltmp209:
	.loc	21 0 1
	movq	%rax, -16(%rbp)
	movl	%edx, -8(%rbp)
	jmp	LBB67_9
LBB67_14:
Ltmp212:
	movq	%rax, -16(%rbp)
	movl	%edx, -8(%rbp)
	jmp	LBB67_4
Lfunc_end67:
	.cfi_endproc
	.section	__TEXT,__gcc_except_tab
	.p2align	2
GCC_except_table67:
Lexception11:
	.byte	255
	.byte	255
	.byte	1
	.uleb128 Lcst_end11-Lcst_begin11
Lcst_begin11:
	.uleb128 Lfunc_begin67-Lfunc_begin67
	.uleb128 Ltmp210-Lfunc_begin67
	.byte	0
	.byte	0
	.uleb128 Ltmp210-Lfunc_begin67
	.uleb128 Ltmp211-Ltmp210
	.uleb128 Ltmp212-Lfunc_begin67
	.byte	0
	.uleb128 Ltmp211-Lfunc_begin67
	.uleb128 Ltmp207-Ltmp211
	.byte	0
	.byte	0
	.uleb128 Ltmp207-Lfunc_begin67
	.uleb128 Ltmp208-Ltmp207
	.uleb128 Ltmp209-Lfunc_begin67
	.byte	0
Lcst_end11:
	.p2align	2

	.section	__TEXT,__text,regular,pure_instructions
	.p2align	4, 0x90
__ZN4core3ptr13drop_in_place17h5688df9b63642a96E:
Lfunc_begin68:
	.loc	21 184 0 is_stmt 1
	.cfi_startproc
	pushq	%rbp
	.cfi_def_cfa_offset 16
	.cfi_offset %rbp, -16
	movq	%rsp, %rbp
	.cfi_def_cfa_register %rbp
	subq	$32, %rsp
	movq	%rdi, -8(%rbp)
Ltmp215:
	.loc	21 184 1 prologue_end
	cmpq	$0, (%rdi)
	movq	%rdi, -24(%rbp)
	je	LBB68_2
	jmp	LBB68_3
LBB68_1:
	addq	$32, %rsp
	popq	%rbp
	retq
LBB68_2:
	.loc	21 0 1 is_stmt 0
	movq	-24(%rbp), %rax
	.loc	21 184 1
	addq	$8, %rax
	movq	%rax, %rdi
	callq	__ZN4core3ptr13drop_in_place17h14c12d9cac52df95E
	jmp	LBB68_1
LBB68_3:
	.loc	21 0 1
	movq	-24(%rbp), %rax
	.loc	21 184 1
	addq	$8, %rax
	movq	%rax, %rdi
	callq	__ZN4core3ptr13drop_in_place17hd4e3c94eb1558b36E
	jmp	LBB68_1
Ltmp216:
Lfunc_end68:
	.cfi_endproc

	.p2align	4, 0x90
__ZN4core3ptr13drop_in_place17h58d7da8c143014ebE:
Lfunc_begin69:
	.loc	21 184 0 is_stmt 1
	.cfi_startproc
	pushq	%rbp
	.cfi_def_cfa_offset 16
	.cfi_offset %rbp, -16
	movq	%rsp, %rbp
	.cfi_def_cfa_register %rbp
	subq	$32, %rsp
	movq	%rdi, -8(%rbp)
Ltmp217:
	.loc	21 184 1 prologue_end
	movb	(%rdi), %al
	subb	$1, %al
	movq	%rdi, -24(%rbp)
	ja	LBB69_2
	jmp	LBB69_1
LBB69_1:
	addq	$32, %rsp
	popq	%rbp
	retq
LBB69_2:
	.loc	21 0 1 is_stmt 0
	movq	-24(%rbp), %rax
	.loc	21 184 1
	addq	$8, %rax
	movq	%rax, %rdi
	callq	__ZN4core3ptr13drop_in_place17h622f0612ab303ecfE
	jmp	LBB69_1
Ltmp218:
Lfunc_end69:
	.cfi_endproc

	.p2align	4, 0x90
__ZN4core3ptr13drop_in_place17h5910622e3c95066eE:
Lfunc_begin70:
	.loc	21 184 0 is_stmt 1
	.cfi_startproc
	pushq	%rbp
	.cfi_def_cfa_offset 16
	.cfi_offset %rbp, -16
	movq	%rsp, %rbp
	.cfi_def_cfa_register %rbp
	subq	$16, %rsp
	movq	%rdi, -8(%rbp)
Ltmp219:
	.loc	21 184 1 prologue_end
	callq	__ZN166_$LT$$LT$alloc..collections..btree..map..IntoIter$LT$K$C$V$GT$$u20$as$u20$core..ops..drop..Drop$GT$..drop..DropGuard$LT$K$C$V$GT$$u20$as$u20$core..ops..drop..Drop$GT$4drop17h946f93a4fc4a3efeE
	addq	$16, %rsp
	popq	%rbp
	retq
Ltmp220:
Lfunc_end70:
	.cfi_endproc

	.p2align	4, 0x90
__ZN4core3ptr13drop_in_place17h622f0612ab303ecfE:
Lfunc_begin71:
	.loc	21 184 0
	.cfi_startproc
	.cfi_personality 155, _rust_eh_personality
	.cfi_lsda 16, Lexception12
	pushq	%rbp
	.cfi_def_cfa_offset 16
	.cfi_offset %rbp, -16
	movq	%rsp, %rbp
	.cfi_def_cfa_register %rbp
	subq	$48, %rsp
	movq	%rdi, -24(%rbp)
Ltmp224:
	.loc	21 184 1 prologue_end
	movq	(%rdi), %rax
Ltmp221:
	movq	%rdi, -40(%rbp)
	movq	%rax, %rdi
	callq	__ZN4core3ptr13drop_in_place17h0a2ba2f4b286950eE
Ltmp222:
	jmp	LBB71_3
LBB71_1:
	addq	$48, %rsp
	popq	%rbp
	retq
LBB71_2:
	movq	-16(%rbp), %rdi
	callq	__Unwind_Resume
	ud2
LBB71_3:
	.loc	21 0 1 is_stmt 0
	movq	-40(%rbp), %rax
	.loc	21 184 1
	movq	(%rax), %rdi
	callq	__ZN5alloc5alloc8box_free17hb610968b05f88e6eE
	jmp	LBB71_1
LBB71_4:
	.loc	21 0 1
	movq	-40(%rbp), %rax
	.loc	21 184 1
	movq	(%rax), %rdi
	callq	__ZN5alloc5alloc8box_free17hb610968b05f88e6eE
	jmp	LBB71_2
Ltmp225:
LBB71_5:
Ltmp223:
	.loc	21 0 1
	movq	%rax, -16(%rbp)
	movl	%edx, -8(%rbp)
	jmp	LBB71_4
Lfunc_end71:
	.cfi_endproc
	.section	__TEXT,__gcc_except_tab
	.p2align	2
GCC_except_table71:
Lexception12:
	.byte	255
	.byte	255
	.byte	1
	.uleb128 Lcst_end12-Lcst_begin12
Lcst_begin12:
	.uleb128 Ltmp221-Lfunc_begin71
	.uleb128 Ltmp222-Ltmp221
	.uleb128 Ltmp223-Lfunc_begin71
	.byte	0
	.uleb128 Ltmp222-Lfunc_begin71
	.uleb128 Lfunc_end71-Ltmp222
	.byte	0
	.byte	0
Lcst_end12:
	.p2align	2

	.section	__TEXT,__text,regular,pure_instructions
	.p2align	4, 0x90
__ZN4core3ptr13drop_in_place17h696e83cca251fc28E:
Lfunc_begin72:
	.loc	21 184 0 is_stmt 1
	.cfi_startproc
	pushq	%rbp
	.cfi_def_cfa_offset 16
	.cfi_offset %rbp, -16
	movq	%rsp, %rbp
	.cfi_def_cfa_register %rbp
	subq	$16, %rsp
	movq	%rdi, -8(%rbp)
Ltmp226:
	.loc	21 184 1 prologue_end
	addq	$16, %rsp
	popq	%rbp
	retq
Ltmp227:
Lfunc_end72:
	.cfi_endproc

	.p2align	4, 0x90
__ZN4core3ptr13drop_in_place17h714273e3fd10b028E:
Lfunc_begin73:
	.loc	21 184 0
	.cfi_startproc
	pushq	%rbp
	.cfi_def_cfa_offset 16
	.cfi_offset %rbp, -16
	movq	%rsp, %rbp
	.cfi_def_cfa_register %rbp
	subq	$32, %rsp
	movq	%rdi, -8(%rbp)
Ltmp228:
	.loc	21 184 1 prologue_end
	cmpq	$0, (%rdi)
	movq	%rdi, -24(%rbp)
	je	LBB73_2
	jmp	LBB73_3
LBB73_1:
	addq	$32, %rsp
	popq	%rbp
	retq
LBB73_2:
	.loc	21 0 1 is_stmt 0
	movq	-24(%rbp), %rax
	.loc	21 184 1
	addq	$8, %rax
	movq	%rax, %rdi
	callq	__ZN4core3ptr13drop_in_place17h907d9ba19d8d7b32E
	jmp	LBB73_1
LBB73_3:
	.loc	21 0 1
	movq	-24(%rbp), %rax
	.loc	21 184 1
	addq	$8, %rax
	movq	%rax, %rdi
	callq	__ZN4core3ptr13drop_in_place17h97e9f91223163c97E
	jmp	LBB73_1
Ltmp229:
Lfunc_end73:
	.cfi_endproc

	.p2align	4, 0x90
__ZN4core3ptr13drop_in_place17h77765e6c8fd0b200E:
Lfunc_begin74:
	.loc	21 184 0 is_stmt 1
	.cfi_startproc
	pushq	%rbp
	.cfi_def_cfa_offset 16
	.cfi_offset %rbp, -16
	movq	%rsp, %rbp
	.cfi_def_cfa_register %rbp
	subq	$16, %rsp
	movq	%rdi, -8(%rbp)
Ltmp230:
	.loc	21 184 1 prologue_end
	callq	__ZN4core3ptr13drop_in_place17hd9d3ce41089af10fE
	addq	$16, %rsp
	popq	%rbp
	retq
Ltmp231:
Lfunc_end74:
	.cfi_endproc

	.p2align	4, 0x90
__ZN4core3ptr13drop_in_place17h7c459de9455023e1E:
Lfunc_begin75:
	.loc	21 184 0
	.cfi_startproc
	.cfi_personality 155, _rust_eh_personality
	.cfi_lsda 16, Lexception13
	pushq	%rbp
	.cfi_def_cfa_offset 16
	.cfi_offset %rbp, -16
	movq	%rsp, %rbp
	.cfi_def_cfa_register %rbp
	subq	$80, %rsp
	xorl	%eax, %eax
	movq	%rdi, -32(%rbp)
	movq	%rsi, -24(%rbp)
Ltmp238:
	.loc	21 184 1 prologue_end
	testb	$1, %al
	movq	%rdi, -72(%rbp)
	movq	%rsi, -80(%rbp)
	jne	LBB75_7
	jmp	LBB75_12
LBB75_1:
	addq	$80, %rsp
	popq	%rbp
	retq
LBB75_2:
	movq	-16(%rbp), %rdi
	callq	__Unwind_Resume
	ud2
LBB75_3:
	movq	-56(%rbp), %rax
	shlq	$4, %rax
	movq	-72(%rbp), %rcx
	addq	%rax, %rcx
	movq	-56(%rbp), %rax
	addq	$1, %rax
	movq	%rax, -56(%rbp)
	movq	%rcx, %rdi
	callq	__ZN4core3ptr13drop_in_place17hf3a81b896739b726E
LBB75_4:
	.loc	21 0 1 is_stmt 0
	movq	-80(%rbp), %rax
	.loc	21 184 1
	cmpq	%rax, -56(%rbp)
	je	LBB75_2
	jmp	LBB75_3
LBB75_5:
	movq	-56(%rbp), %rax
	movq	%rax, %rcx
	shlq	$4, %rcx
	movq	-72(%rbp), %rdx
	addq	%rcx, %rdx
	incq	%rax
	movq	%rax, -56(%rbp)
Ltmp235:
	movq	%rdx, %rdi
	callq	__ZN4core3ptr13drop_in_place17hf3a81b896739b726E
Ltmp236:
	jmp	LBB75_6
LBB75_6:
	.loc	21 0 1
	movq	-80(%rbp), %rax
	.loc	21 184 1
	cmpq	%rax, -56(%rbp)
	je	LBB75_1
	jmp	LBB75_5
LBB75_7:
	movq	$0, -56(%rbp)
	jmp	LBB75_6
LBB75_8:
	movq	-48(%rbp), %rdi
	movq	-48(%rbp), %rax
	addq	$16, %rax
	movq	%rax, -48(%rbp)
	callq	__ZN4core3ptr13drop_in_place17hf3a81b896739b726E
LBB75_9:
	movq	-48(%rbp), %rax
	cmpq	-40(%rbp), %rax
	je	LBB75_2
	jmp	LBB75_8
LBB75_10:
	movq	-48(%rbp), %rax
	movq	%rax, %rcx
	addq	$16, %rcx
	movq	%rcx, -48(%rbp)
Ltmp232:
	movq	%rax, %rdi
	callq	__ZN4core3ptr13drop_in_place17hf3a81b896739b726E
Ltmp233:
	jmp	LBB75_11
LBB75_11:
	movq	-48(%rbp), %rax
	cmpq	-40(%rbp), %rax
	je	LBB75_1
	jmp	LBB75_10
LBB75_12:
	.loc	21 0 1
	movq	-72(%rbp), %rax
	.loc	21 184 1
	movq	%rax, -48(%rbp)
	movq	-80(%rbp), %rax
	shlq	$4, %rax
	addq	-48(%rbp), %rax
	movq	%rax, -40(%rbp)
	jmp	LBB75_11
Ltmp239:
LBB75_13:
Ltmp234:
	.loc	21 0 1
	movq	%rax, -16(%rbp)
	movl	%edx, -8(%rbp)
	jmp	LBB75_9
LBB75_14:
Ltmp237:
	movq	%rax, -16(%rbp)
	movl	%edx, -8(%rbp)
	jmp	LBB75_4
Lfunc_end75:
	.cfi_endproc
	.section	__TEXT,__gcc_except_tab
	.p2align	2
GCC_except_table75:
Lexception13:
	.byte	255
	.byte	255
	.byte	1
	.uleb128 Lcst_end13-Lcst_begin13
Lcst_begin13:
	.uleb128 Lfunc_begin75-Lfunc_begin75
	.uleb128 Ltmp235-Lfunc_begin75
	.byte	0
	.byte	0
	.uleb128 Ltmp235-Lfunc_begin75
	.uleb128 Ltmp236-Ltmp235
	.uleb128 Ltmp237-Lfunc_begin75
	.byte	0
	.uleb128 Ltmp236-Lfunc_begin75
	.uleb128 Ltmp232-Ltmp236
	.byte	0
	.byte	0
	.uleb128 Ltmp232-Lfunc_begin75
	.uleb128 Ltmp233-Ltmp232
	.uleb128 Ltmp234-Lfunc_begin75
	.byte	0
Lcst_end13:
	.p2align	2

	.section	__TEXT,__text,regular,pure_instructions
	.p2align	4, 0x90
__ZN4core3ptr13drop_in_place17h89592f29e00ff23aE:
Lfunc_begin76:
	.loc	21 184 0 is_stmt 1
	.cfi_startproc
	pushq	%rbp
	.cfi_def_cfa_offset 16
	.cfi_offset %rbp, -16
	movq	%rsp, %rbp
	.cfi_def_cfa_register %rbp
	subq	$16, %rsp
	movq	%rdi, -8(%rbp)
Ltmp240:
	.loc	21 184 1 prologue_end
	callq	__ZN77_$LT$alloc..raw_vec..RawVec$LT$T$C$A$GT$$u20$as$u20$core..ops..drop..Drop$GT$4drop17hf9eb90765400396cE
	addq	$16, %rsp
	popq	%rbp
	retq
Ltmp241:
Lfunc_end76:
	.cfi_endproc

	.p2align	4, 0x90
__ZN4core3ptr13drop_in_place17h8984a0a6fa6f0242E:
Lfunc_begin77:
	.loc	21 184 0
	.cfi_startproc
	pushq	%rbp
	.cfi_def_cfa_offset 16
	.cfi_offset %rbp, -16
	movq	%rsp, %rbp
	.cfi_def_cfa_register %rbp
	subq	$32, %rsp
	xorl	%eax, %eax
	movl	%eax, %ecx
	movq	%rdi, -8(%rbp)
Ltmp242:
	.loc	21 184 1 prologue_end
	cmpq	$0, (%rdi)
	movl	$1, %edx
	cmovbeq	%rcx, %rdx
	cmpq	$0, %rdx
	movq	%rdi, -24(%rbp)
	jne	LBB77_2
LBB77_1:
	addq	$32, %rsp
	popq	%rbp
	retq
LBB77_2:
	.loc	21 0 1 is_stmt 0
	movq	-24(%rbp), %rax
	.loc	21 184 1
	movq	%rax, %rdi
	callq	__ZN4core3ptr13drop_in_place17h1c78fe9b567101e6E
	jmp	LBB77_1
Ltmp243:
Lfunc_end77:
	.cfi_endproc

	.p2align	4, 0x90
__ZN4core3ptr13drop_in_place17h8c512502b459718cE:
Lfunc_begin78:
	.loc	21 184 0 is_stmt 1
	.cfi_startproc
	pushq	%rbp
	.cfi_def_cfa_offset 16
	.cfi_offset %rbp, -16
	movq	%rsp, %rbp
	.cfi_def_cfa_register %rbp
	subq	$32, %rsp
	movq	%rdi, -8(%rbp)
Ltmp244:
	.loc	21 184 1 prologue_end
	cmpq	$0, (%rdi)
	movq	%rdi, -24(%rbp)
	je	LBB78_2
	jmp	LBB78_3
LBB78_1:
	addq	$32, %rsp
	popq	%rbp
	retq
LBB78_2:
	.loc	21 0 1 is_stmt 0
	movq	-24(%rbp), %rax
	.loc	21 184 1
	addq	$8, %rax
	movq	%rax, %rdi
	callq	__ZN4core3ptr13drop_in_place17h907d9ba19d8d7b32E
	jmp	LBB78_1
LBB78_3:
	.loc	21 0 1
	movq	-24(%rbp), %rax
	.loc	21 184 1
	addq	$8, %rax
	movq	%rax, %rdi
	callq	__ZN4core3ptr13drop_in_place17hd5d3dcef86963201E
	jmp	LBB78_1
Ltmp245:
Lfunc_end78:
	.cfi_endproc

	.p2align	4, 0x90
__ZN4core3ptr13drop_in_place17h907d9ba19d8d7b32E:
Lfunc_begin79:
	.loc	21 184 0 is_stmt 1
	.cfi_startproc
	pushq	%rbp
	.cfi_def_cfa_offset 16
	.cfi_offset %rbp, -16
	movq	%rsp, %rbp
	.cfi_def_cfa_register %rbp
	subq	$16, %rsp
	movq	%rdi, -8(%rbp)
Ltmp246:
	.loc	21 184 1 prologue_end
	callq	__ZN4core3ptr13drop_in_place17hb56a32f3c2dde7ecE
	addq	$16, %rsp
	popq	%rbp
	retq
Ltmp247:
Lfunc_end79:
	.cfi_endproc

	.p2align	4, 0x90
__ZN4core3ptr13drop_in_place17h925b7b6121363bd0E:
Lfunc_begin80:
	.loc	21 184 0
	.cfi_startproc
	.cfi_personality 155, _rust_eh_personality
	.cfi_lsda 16, Lexception14
	pushq	%rbp
	.cfi_def_cfa_offset 16
	.cfi_offset %rbp, -16
	movq	%rsp, %rbp
	.cfi_def_cfa_register %rbp
	subq	$48, %rsp
	movq	%rdi, -24(%rbp)
Ltmp248:
	movq	%rdi, -40(%rbp)
Ltmp251:
	.loc	21 184 1 prologue_end
	callq	__ZN66_$LT$std..ffi..c_str..CString$u20$as$u20$core..ops..drop..Drop$GT$4drop17h8a2d9f6834f1cc35E
Ltmp249:
	jmp	LBB80_4
LBB80_1:
	movq	-16(%rbp), %rdi
	callq	__Unwind_Resume
	ud2
LBB80_2:
	addq	$48, %rsp
	popq	%rbp
	retq
LBB80_3:
	.loc	21 0 1 is_stmt 0
	movq	-40(%rbp), %rax
	.loc	21 184 1
	movq	%rax, %rdi
	callq	__ZN4core3ptr13drop_in_place17hf55f9492fbce32b1E
	jmp	LBB80_1
LBB80_4:
	.loc	21 0 1
	movq	-40(%rbp), %rax
	.loc	21 184 1
	movq	%rax, %rdi
	callq	__ZN4core3ptr13drop_in_place17hf55f9492fbce32b1E
	jmp	LBB80_2
Ltmp252:
LBB80_5:
Ltmp250:
	.loc	21 0 1
	movq	%rax, -16(%rbp)
	movl	%edx, -8(%rbp)
	jmp	LBB80_3
Lfunc_end80:
	.cfi_endproc
	.section	__TEXT,__gcc_except_tab
	.p2align	2
GCC_except_table80:
Lexception14:
	.byte	255
	.byte	255
	.byte	1
	.uleb128 Lcst_end14-Lcst_begin14
Lcst_begin14:
	.uleb128 Ltmp248-Lfunc_begin80
	.uleb128 Ltmp249-Ltmp248
	.uleb128 Ltmp250-Lfunc_begin80
	.byte	0
	.uleb128 Ltmp249-Lfunc_begin80
	.uleb128 Lfunc_end80-Ltmp249
	.byte	0
	.byte	0
Lcst_end14:
	.p2align	2

	.section	__TEXT,__text,regular,pure_instructions
	.p2align	4, 0x90
__ZN4core3ptr13drop_in_place17h975d16fab5e152caE:
Lfunc_begin81:
	.loc	21 184 0 is_stmt 1
	.cfi_startproc
	pushq	%rbp
	.cfi_def_cfa_offset 16
	.cfi_offset %rbp, -16
	movq	%rsp, %rbp
	.cfi_def_cfa_register %rbp
	subq	$16, %rsp
	movq	%rdi, -8(%rbp)
Ltmp253:
	.loc	21 184 1 prologue_end
	callq	__ZN95_$LT$alloc..collections..btree..map..BTreeMap$LT$K$C$V$GT$$u20$as$u20$core..ops..drop..Drop$GT$4drop17h27fc6ed8e15bc8f7E
	addq	$16, %rsp
	popq	%rbp
	retq
Ltmp254:
Lfunc_end81:
	.cfi_endproc

	.p2align	4, 0x90
__ZN4core3ptr13drop_in_place17h97e9f91223163c97E:
Lfunc_begin82:
	.loc	21 184 0
	.cfi_startproc
	pushq	%rbp
	.cfi_def_cfa_offset 16
	.cfi_offset %rbp, -16
	movq	%rsp, %rbp
	.cfi_def_cfa_register %rbp
	subq	$32, %rsp
	xorl	%eax, %eax
	movl	%eax, %ecx
	movq	%rdi, -8(%rbp)
Ltmp255:
	.loc	21 184 1 prologue_end
	cmpq	$0, (%rdi)
	movl	$1, %edx
	cmovbeq	%rcx, %rdx
	cmpq	$0, %rdx
	movq	%rdi, -24(%rbp)
	jne	LBB82_2
LBB82_1:
	addq	$32, %rsp
	popq	%rbp
	retq
LBB82_2:
	.loc	21 0 1 is_stmt 0
	movq	-24(%rbp), %rax
	.loc	21 184 1
	movq	%rax, %rdi
	callq	__ZN4core3ptr13drop_in_place17h1c78fe9b567101e6E
	jmp	LBB82_1
Ltmp256:
Lfunc_end82:
	.cfi_endproc

	.p2align	4, 0x90
__ZN4core3ptr13drop_in_place17haa097e93963b2f07E:
Lfunc_begin83:
	.loc	21 184 0 is_stmt 1
	.cfi_startproc
	pushq	%rbp
	.cfi_def_cfa_offset 16
	.cfi_offset %rbp, -16
	movq	%rsp, %rbp
	.cfi_def_cfa_register %rbp
	subq	$16, %rsp
	movq	%rdi, -8(%rbp)
Ltmp257:
	.loc	21 184 1 prologue_end
	callq	__ZN77_$LT$alloc..raw_vec..RawVec$LT$T$C$A$GT$$u20$as$u20$core..ops..drop..Drop$GT$4drop17h4664d53deca8fc36E
	addq	$16, %rsp
	popq	%rbp
	retq
Ltmp258:
Lfunc_end83:
	.cfi_endproc

	.p2align	4, 0x90
__ZN4core3ptr13drop_in_place17had2de5f7dcb748ceE:
Lfunc_begin84:
	.loc	21 184 0
	.cfi_startproc
	pushq	%rbp
	.cfi_def_cfa_offset 16
	.cfi_offset %rbp, -16
	movq	%rsp, %rbp
	.cfi_def_cfa_register %rbp
	subq	$32, %rsp
	xorl	%eax, %eax
	movl	%eax, %ecx
	movq	%rdi, -8(%rbp)
Ltmp259:
	.loc	21 184 1 prologue_end
	cmpq	$0, (%rdi)
	movl	$1, %edx
	cmovbeq	%rcx, %rdx
	cmpq	$0, %rdx
	movq	%rdi, -24(%rbp)
	jne	LBB84_2
LBB84_1:
	addq	$32, %rsp
	popq	%rbp
	retq
LBB84_2:
	.loc	21 0 1 is_stmt 0
	movq	-24(%rbp), %rax
	.loc	21 184 1
	movq	%rax, %rdi
	callq	__ZN4core3ptr13drop_in_place17h14c12d9cac52df95E
	jmp	LBB84_1
Ltmp260:
Lfunc_end84:
	.cfi_endproc

	.p2align	4, 0x90
__ZN4core3ptr13drop_in_place17hafcc3192b63481f9E:
Lfunc_begin85:
	.loc	21 184 0 is_stmt 1
	.cfi_startproc
	pushq	%rbp
	.cfi_def_cfa_offset 16
	.cfi_offset %rbp, -16
	movq	%rsp, %rbp
	.cfi_def_cfa_register %rbp
	subq	$16, %rsp
	movq	%rdi, -8(%rbp)
Ltmp261:
	.loc	21 184 1 prologue_end
	callq	__ZN77_$LT$alloc..raw_vec..RawVec$LT$T$C$A$GT$$u20$as$u20$core..ops..drop..Drop$GT$4drop17habb7af63029f29a5E
	addq	$16, %rsp
	popq	%rbp
	retq
Ltmp262:
Lfunc_end85:
	.cfi_endproc

	.p2align	4, 0x90
__ZN4core3ptr13drop_in_place17hb1800c69a8322351E:
Lfunc_begin86:
	.loc	21 184 0
	.cfi_startproc
	.cfi_personality 155, _rust_eh_personality
	.cfi_lsda 16, Lexception15
	pushq	%rbp
	.cfi_def_cfa_offset 16
	.cfi_offset %rbp, -16
	movq	%rsp, %rbp
	.cfi_def_cfa_register %rbp
	subq	$48, %rsp
	movq	%rdi, -24(%rbp)
Ltmp266:
	.loc	21 184 1 prologue_end
	movq	(%rdi), %rax
	movq	8(%rdi), %rcx
	movq	(%rcx), %rcx
Ltmp263:
	movq	%rdi, -40(%rbp)
	movq	%rax, %rdi
	callq	*%rcx
Ltmp264:
	jmp	LBB86_3
LBB86_1:
	addq	$48, %rsp
	popq	%rbp
	retq
LBB86_2:
	movq	-16(%rbp), %rdi
	callq	__Unwind_Resume
	ud2
LBB86_3:
	.loc	21 0 1 is_stmt 0
	movq	-40(%rbp), %rax
	.loc	21 184 1
	movq	(%rax), %rdi
	movq	8(%rax), %rsi
	callq	__ZN5alloc5alloc8box_free17hc6deb01b037f4ea8E
	jmp	LBB86_1
LBB86_4:
	.loc	21 0 1
	movq	-40(%rbp), %rax
	.loc	21 184 1
	movq	(%rax), %rdi
	movq	8(%rax), %rsi
	callq	__ZN5alloc5alloc8box_free17hc6deb01b037f4ea8E
	jmp	LBB86_2
Ltmp267:
LBB86_5:
Ltmp265:
	.loc	21 0 1
	movq	%rax, -16(%rbp)
	movl	%edx, -8(%rbp)
	jmp	LBB86_4
Lfunc_end86:
	.cfi_endproc
	.section	__TEXT,__gcc_except_tab
	.p2align	2
GCC_except_table86:
Lexception15:
	.byte	255
	.byte	255
	.byte	1
	.uleb128 Lcst_end15-Lcst_begin15
Lcst_begin15:
	.uleb128 Ltmp263-Lfunc_begin86
	.uleb128 Ltmp264-Ltmp263
	.uleb128 Ltmp265-Lfunc_begin86
	.byte	0
	.uleb128 Ltmp264-Lfunc_begin86
	.uleb128 Lfunc_end86-Ltmp264
	.byte	0
	.byte	0
Lcst_end15:
	.p2align	2

	.section	__TEXT,__text,regular,pure_instructions
	.p2align	4, 0x90
__ZN4core3ptr13drop_in_place17hb56a32f3c2dde7ecE:
Lfunc_begin87:
	.loc	21 184 0 is_stmt 1
	.cfi_startproc
	.cfi_personality 155, _rust_eh_personality
	.cfi_lsda 16, Lexception16
	pushq	%rbp
	.cfi_def_cfa_offset 16
	.cfi_offset %rbp, -16
	movq	%rsp, %rbp
	.cfi_def_cfa_register %rbp
	subq	$48, %rsp
	movq	%rdi, -24(%rbp)
Ltmp268:
	movq	%rdi, -40(%rbp)
Ltmp271:
	.loc	21 184 1 prologue_end
	callq	__ZN66_$LT$alloc..vec..Vec$LT$T$GT$$u20$as$u20$core..ops..drop..Drop$GT$4drop17h69e1339402cf4a6bE
Ltmp269:
	jmp	LBB87_4
LBB87_1:
	movq	-16(%rbp), %rdi
	callq	__Unwind_Resume
	ud2
LBB87_2:
	addq	$48, %rsp
	popq	%rbp
	retq
LBB87_3:
	.loc	21 0 1 is_stmt 0
	movq	-40(%rbp), %rax
	.loc	21 184 1
	movq	%rax, %rdi
	callq	__ZN4core3ptr13drop_in_place17hafcc3192b63481f9E
	jmp	LBB87_1
LBB87_4:
	.loc	21 0 1
	movq	-40(%rbp), %rax
	.loc	21 184 1
	movq	%rax, %rdi
	callq	__ZN4core3ptr13drop_in_place17hafcc3192b63481f9E
	jmp	LBB87_2
Ltmp272:
LBB87_5:
Ltmp270:
	.loc	21 0 1
	movq	%rax, -16(%rbp)
	movl	%edx, -8(%rbp)
	jmp	LBB87_3
Lfunc_end87:
	.cfi_endproc
	.section	__TEXT,__gcc_except_tab
	.p2align	2
GCC_except_table87:
Lexception16:
	.byte	255
	.byte	255
	.byte	1
	.uleb128 Lcst_end16-Lcst_begin16
Lcst_begin16:
	.uleb128 Ltmp268-Lfunc_begin87
	.uleb128 Ltmp269-Ltmp268
	.uleb128 Ltmp270-Lfunc_begin87
	.byte	0
	.uleb128 Ltmp269-Lfunc_begin87
	.uleb128 Lfunc_end87-Ltmp269
	.byte	0
	.byte	0
Lcst_end16:
	.p2align	2

	.section	__TEXT,__text,regular,pure_instructions
	.p2align	4, 0x90
__ZN4core3ptr13drop_in_place17hb58f1b4a480c10f3E:
Lfunc_begin88:
	.loc	21 184 0 is_stmt 1
	.cfi_startproc
	pushq	%rbp
	.cfi_def_cfa_offset 16
	.cfi_offset %rbp, -16
	movq	%rsp, %rbp
	.cfi_def_cfa_register %rbp
	subq	$16, %rsp
	movq	%rdi, -8(%rbp)
Ltmp273:
	.loc	21 184 1 prologue_end
	callq	__ZN77_$LT$alloc..raw_vec..RawVec$LT$T$C$A$GT$$u20$as$u20$core..ops..drop..Drop$GT$4drop17h01bad0cf1b86c374E
	addq	$16, %rsp
	popq	%rbp
	retq
Ltmp274:
Lfunc_end88:
	.cfi_endproc

	.p2align	4, 0x90
__ZN4core3ptr13drop_in_place17hbe55d5a1ceef1ff4E:
Lfunc_begin89:
	.loc	21 184 0
	.cfi_startproc
	pushq	%rbp
	.cfi_def_cfa_offset 16
	.cfi_offset %rbp, -16
	movq	%rsp, %rbp
	.cfi_def_cfa_register %rbp
	subq	$16, %rsp
	movq	%rdi, -8(%rbp)
Ltmp275:
	.loc	21 184 1 prologue_end
	callq	__ZN4core3ptr13drop_in_place17hcf1acc9b3ef8c4dfE
	addq	$16, %rsp
	popq	%rbp
	retq
Ltmp276:
Lfunc_end89:
	.cfi_endproc

	.p2align	4, 0x90
__ZN4core3ptr13drop_in_place17hc1dae0735360acd5E:
Lfunc_begin90:
	.loc	21 184 0
	.cfi_startproc
	pushq	%rbp
	.cfi_def_cfa_offset 16
	.cfi_offset %rbp, -16
	movq	%rsp, %rbp
	.cfi_def_cfa_register %rbp
	subq	$32, %rsp
	xorl	%eax, %eax
	movl	%eax, %ecx
	movq	%rdi, -8(%rbp)
Ltmp277:
	.loc	21 184 1 prologue_end
	cmpq	$0, (%rdi)
	movl	$1, %edx
	cmovbeq	%rcx, %rdx
	cmpq	$0, %rdx
	movq	%rdi, -24(%rbp)
	jne	LBB90_2
LBB90_1:
	addq	$32, %rsp
	popq	%rbp
	retq
LBB90_2:
	.loc	21 0 1 is_stmt 0
	movq	-24(%rbp), %rdi
	.loc	21 184 1
	callq	__ZN4core3ptr13drop_in_place17h925b7b6121363bd0E
	jmp	LBB90_1
Ltmp278:
Lfunc_end90:
	.cfi_endproc

	.p2align	4, 0x90
__ZN4core3ptr13drop_in_place17hcf1acc9b3ef8c4dfE:
Lfunc_begin91:
	.loc	21 184 0 is_stmt 1
	.cfi_startproc
	.cfi_personality 155, _rust_eh_personality
	.cfi_lsda 16, Lexception17
	pushq	%rbp
	.cfi_def_cfa_offset 16
	.cfi_offset %rbp, -16
	movq	%rsp, %rbp
	.cfi_def_cfa_register %rbp
	subq	$48, %rsp
	movq	%rdi, -24(%rbp)
Ltmp279:
	movq	%rdi, -40(%rbp)
Ltmp282:
	.loc	21 184 1 prologue_end
	callq	__ZN66_$LT$alloc..vec..Vec$LT$T$GT$$u20$as$u20$core..ops..drop..Drop$GT$4drop17h51abb5e7f57d3732E
Ltmp280:
	jmp	LBB91_4
LBB91_1:
	movq	-16(%rbp), %rdi
	callq	__Unwind_Resume
	ud2
LBB91_2:
	addq	$48, %rsp
	popq	%rbp
	retq
LBB91_3:
	.loc	21 0 1 is_stmt 0
	movq	-40(%rbp), %rax
	.loc	21 184 1
	movq	%rax, %rdi
	callq	__ZN4core3ptr13drop_in_place17h89592f29e00ff23aE
	jmp	LBB91_1
LBB91_4:
	.loc	21 0 1
	movq	-40(%rbp), %rax
	.loc	21 184 1
	movq	%rax, %rdi
	callq	__ZN4core3ptr13drop_in_place17h89592f29e00ff23aE
	jmp	LBB91_2
Ltmp283:
LBB91_5:
Ltmp281:
	.loc	21 0 1
	movq	%rax, -16(%rbp)
	movl	%edx, -8(%rbp)
	jmp	LBB91_3
Lfunc_end91:
	.cfi_endproc
	.section	__TEXT,__gcc_except_tab
	.p2align	2
GCC_except_table91:
Lexception17:
	.byte	255
	.byte	255
	.byte	1
	.uleb128 Lcst_end17-Lcst_begin17
Lcst_begin17:
	.uleb128 Ltmp279-Lfunc_begin91
	.uleb128 Ltmp280-Ltmp279
	.uleb128 Ltmp281-Lfunc_begin91
	.byte	0
	.uleb128 Ltmp280-Lfunc_begin91
	.uleb128 Lfunc_end91-Ltmp280
	.byte	0
	.byte	0
Lcst_end17:
	.p2align	2

	.section	__TEXT,__text,regular,pure_instructions
	.p2align	4, 0x90
__ZN4core3ptr13drop_in_place17hd06dc2077fc488adE:
Lfunc_begin92:
	.loc	21 184 0 is_stmt 1
	.cfi_startproc
	.cfi_personality 155, _rust_eh_personality
	.cfi_lsda 16, Lexception18
	pushq	%rbp
	.cfi_def_cfa_offset 16
	.cfi_offset %rbp, -16
	movq	%rsp, %rbp
	.cfi_def_cfa_register %rbp
	subq	$48, %rsp
	movq	%rdi, -24(%rbp)
Ltmp284:
	movq	%rdi, -40(%rbp)
Ltmp287:
	.loc	21 184 1 prologue_end
	callq	__ZN66_$LT$alloc..vec..Vec$LT$T$GT$$u20$as$u20$core..ops..drop..Drop$GT$4drop17h674485fff21a8355E
Ltmp285:
	jmp	LBB92_4
LBB92_1:
	movq	-16(%rbp), %rdi
	callq	__Unwind_Resume
	ud2
LBB92_2:
	addq	$48, %rsp
	popq	%rbp
	retq
LBB92_3:
	.loc	21 0 1 is_stmt 0
	movq	-40(%rbp), %rax
	.loc	21 184 1
	movq	%rax, %rdi
	callq	__ZN4core3ptr13drop_in_place17hb58f1b4a480c10f3E
	jmp	LBB92_1
LBB92_4:
	.loc	21 0 1
	movq	-40(%rbp), %rax
	.loc	21 184 1
	movq	%rax, %rdi
	callq	__ZN4core3ptr13drop_in_place17hb58f1b4a480c10f3E
	jmp	LBB92_2
Ltmp288:
LBB92_5:
Ltmp286:
	.loc	21 0 1
	movq	%rax, -16(%rbp)
	movl	%edx, -8(%rbp)
	jmp	LBB92_3
Lfunc_end92:
	.cfi_endproc
	.section	__TEXT,__gcc_except_tab
	.p2align	2
GCC_except_table92:
Lexception18:
	.byte	255
	.byte	255
	.byte	1
	.uleb128 Lcst_end18-Lcst_begin18
Lcst_begin18:
	.uleb128 Ltmp284-Lfunc_begin92
	.uleb128 Ltmp285-Ltmp284
	.uleb128 Ltmp286-Lfunc_begin92
	.byte	0
	.uleb128 Ltmp285-Lfunc_begin92
	.uleb128 Lfunc_end92-Ltmp285
	.byte	0
	.byte	0
Lcst_end18:
	.p2align	2

	.section	__TEXT,__text,regular,pure_instructions
	.p2align	4, 0x90
__ZN4core3ptr13drop_in_place17hd200e4a8d498fbe5E:
Lfunc_begin93:
	.loc	21 184 0 is_stmt 1
	.cfi_startproc
	pushq	%rbp
	.cfi_def_cfa_offset 16
	.cfi_offset %rbp, -16
	movq	%rsp, %rbp
	.cfi_def_cfa_register %rbp
	subq	$32, %rsp
	movq	%rdi, -16(%rbp)
	movq	%rsi, -8(%rbp)
Ltmp289:
	.loc	21 184 1 prologue_end
	callq	*(%rsi)
	addq	$32, %rsp
	popq	%rbp
	retq
Ltmp290:
Lfunc_end93:
	.cfi_endproc

	.p2align	4, 0x90
__ZN4core3ptr13drop_in_place17hd4e3c94eb1558b36E:
Lfunc_begin94:
	.loc	21 184 0
	.cfi_startproc
	pushq	%rbp
	.cfi_def_cfa_offset 16
	.cfi_offset %rbp, -16
	movq	%rsp, %rbp
	.cfi_def_cfa_register %rbp
	subq	$16, %rsp
	movq	%rdi, -8(%rbp)
Ltmp291:
	.loc	21 184 1 prologue_end
	callq	__ZN4core3ptr13drop_in_place17h58d7da8c143014ebE
	addq	$16, %rsp
	popq	%rbp
	retq
Ltmp292:
Lfunc_end94:
	.cfi_endproc

	.p2align	4, 0x90
__ZN4core3ptr13drop_in_place17hd5d3dcef86963201E:
Lfunc_begin95:
	.loc	21 184 0
	.cfi_startproc
	pushq	%rbp
	.cfi_def_cfa_offset 16
	.cfi_offset %rbp, -16
	movq	%rsp, %rbp
	.cfi_def_cfa_register %rbp
	subq	$16, %rsp
	movq	%rdi, -8(%rbp)
Ltmp293:
	.loc	21 184 1 prologue_end
	callq	__ZN4core3ptr13drop_in_place17hb56a32f3c2dde7ecE
	addq	$16, %rsp
	popq	%rbp
	retq
Ltmp294:
Lfunc_end95:
	.cfi_endproc

	.p2align	4, 0x90
__ZN4core3ptr13drop_in_place17hd82bde0305b1f86dE:
Lfunc_begin96:
	.loc	21 184 0
	.cfi_startproc
	.cfi_personality 155, _rust_eh_personality
	.cfi_lsda 16, Lexception19
	pushq	%rbp
	.cfi_def_cfa_offset 16
	.cfi_offset %rbp, -16
	movq	%rsp, %rbp
	.cfi_def_cfa_register %rbp
	subq	$48, %rsp
	movq	%rdi, -24(%rbp)
Ltmp295:
	movq	%rdi, -40(%rbp)
Ltmp298:
	.loc	21 184 1 prologue_end
	callq	__ZN66_$LT$alloc..vec..Vec$LT$T$GT$$u20$as$u20$core..ops..drop..Drop$GT$4drop17h633331e69e4b833cE
Ltmp296:
	jmp	LBB96_4
LBB96_1:
	movq	-16(%rbp), %rdi
	callq	__Unwind_Resume
	ud2
LBB96_2:
	addq	$48, %rsp
	popq	%rbp
	retq
LBB96_3:
	.loc	21 0 1 is_stmt 0
	movq	-40(%rbp), %rax
	.loc	21 184 1
	movq	%rax, %rdi
	callq	__ZN4core3ptr13drop_in_place17haa097e93963b2f07E
	jmp	LBB96_1
LBB96_4:
	.loc	21 0 1
	movq	-40(%rbp), %rax
	.loc	21 184 1
	movq	%rax, %rdi
	callq	__ZN4core3ptr13drop_in_place17haa097e93963b2f07E
	jmp	LBB96_2
Ltmp299:
LBB96_5:
Ltmp297:
	.loc	21 0 1
	movq	%rax, -16(%rbp)
	movl	%edx, -8(%rbp)
	jmp	LBB96_3
Lfunc_end96:
	.cfi_endproc
	.section	__TEXT,__gcc_except_tab
	.p2align	2
GCC_except_table96:
Lexception19:
	.byte	255
	.byte	255
	.byte	1
	.uleb128 Lcst_end19-Lcst_begin19
Lcst_begin19:
	.uleb128 Ltmp295-Lfunc_begin96
	.uleb128 Ltmp296-Ltmp295
	.uleb128 Ltmp297-Lfunc_begin96
	.byte	0
	.uleb128 Ltmp296-Lfunc_begin96
	.uleb128 Lfunc_end96-Ltmp296
	.byte	0
	.byte	0
Lcst_end19:
	.p2align	2

	.section	__TEXT,__text,regular,pure_instructions
	.p2align	4, 0x90
__ZN4core3ptr13drop_in_place17hd90400f9025b72b7E:
Lfunc_begin97:
	.loc	21 184 0 is_stmt 1
	.cfi_startproc
	.cfi_personality 155, _rust_eh_personality
	.cfi_lsda 16, Lexception20
	pushq	%rbp
	.cfi_def_cfa_offset 16
	.cfi_offset %rbp, -16
	movq	%rsp, %rbp
	.cfi_def_cfa_register %rbp
	subq	$48, %rsp
	movq	%rdi, -24(%rbp)
Ltmp303:
	.loc	21 184 1 prologue_end
	movq	(%rdi), %rax
	movq	8(%rdi), %rcx
	movq	(%rcx), %rcx
Ltmp300:
	movq	%rdi, -40(%rbp)
	movq	%rax, %rdi
	callq	*%rcx
Ltmp301:
	jmp	LBB97_3
LBB97_1:
	addq	$48, %rsp
	popq	%rbp
	retq
LBB97_2:
	movq	-16(%rbp), %rdi
	callq	__Unwind_Resume
	ud2
LBB97_3:
	.loc	21 0 1 is_stmt 0
	movq	-40(%rbp), %rax
	.loc	21 184 1
	movq	(%rax), %rdi
	movq	8(%rax), %rsi
	callq	__ZN5alloc5alloc8box_free17h68d35b12c304780fE
	jmp	LBB97_1
LBB97_4:
	.loc	21 0 1
	movq	-40(%rbp), %rax
	.loc	21 184 1
	movq	(%rax), %rdi
	movq	8(%rax), %rsi
	callq	__ZN5alloc5alloc8box_free17h68d35b12c304780fE
	jmp	LBB97_2
Ltmp304:
LBB97_5:
Ltmp302:
	.loc	21 0 1
	movq	%rax, -16(%rbp)
	movl	%edx, -8(%rbp)
	jmp	LBB97_4
Lfunc_end97:
	.cfi_endproc
	.section	__TEXT,__gcc_except_tab
	.p2align	2
GCC_except_table97:
Lexception20:
	.byte	255
	.byte	255
	.byte	1
	.uleb128 Lcst_end20-Lcst_begin20
Lcst_begin20:
	.uleb128 Ltmp300-Lfunc_begin97
	.uleb128 Ltmp301-Ltmp300
	.uleb128 Ltmp302-Lfunc_begin97
	.byte	0
	.uleb128 Ltmp301-Lfunc_begin97
	.uleb128 Lfunc_end97-Ltmp301
	.byte	0
	.byte	0
Lcst_end20:
	.p2align	2

	.section	__TEXT,__text,regular,pure_instructions
	.p2align	4, 0x90
__ZN4core3ptr13drop_in_place17hd9d3ce41089af10fE:
Lfunc_begin98:
	.loc	21 184 0 is_stmt 1
	.cfi_startproc
	.cfi_personality 155, _rust_eh_personality
	.cfi_lsda 16, Lexception21
	pushq	%rbp
	.cfi_def_cfa_offset 16
	.cfi_offset %rbp, -16
	movq	%rsp, %rbp
	.cfi_def_cfa_register %rbp
	subq	$48, %rsp
	movq	%rdi, -24(%rbp)
Ltmp305:
	movq	%rdi, -40(%rbp)
Ltmp329:
	.loc	21 184 1 prologue_end
	callq	__ZN4core3ptr13drop_in_place17h925b7b6121363bd0E
Ltmp306:
	jmp	LBB98_18
LBB98_1:
	movq	-16(%rbp), %rdi
	callq	__Unwind_Resume
	ud2
LBB98_2:
	addq	$48, %rsp
	popq	%rbp
	retq
LBB98_3:
	.loc	21 0 1 is_stmt 0
	movq	-40(%rbp), %rax
	.loc	21 184 1
	addq	$168, %rax
	movq	%rax, %rdi
	callq	__ZN4core3ptr13drop_in_place17hdde008a08f8781e1E
	jmp	LBB98_1
LBB98_4:
	.loc	21 0 1
	movq	-40(%rbp), %rax
	.loc	21 184 1
	addq	$160, %rax
	movq	%rax, %rdi
	callq	__ZN4core3ptr13drop_in_place17hdde008a08f8781e1E
	jmp	LBB98_3
LBB98_5:
	.loc	21 0 1
	movq	-40(%rbp), %rax
	.loc	21 184 1
	addq	$152, %rax
	movq	%rax, %rdi
	callq	__ZN4core3ptr13drop_in_place17hdde008a08f8781e1E
	jmp	LBB98_4
LBB98_6:
	.loc	21 0 1
	movq	-40(%rbp), %rax
	.loc	21 184 1
	addq	$112, %rax
	movq	%rax, %rdi
	callq	__ZN4core3ptr13drop_in_place17hd06dc2077fc488adE
	jmp	LBB98_5
LBB98_7:
	.loc	21 0 1
	movq	-40(%rbp), %rax
	.loc	21 184 1
	addq	$96, %rax
	movq	%rax, %rdi
	callq	__ZN4core3ptr13drop_in_place17hc1dae0735360acd5E
	jmp	LBB98_6
LBB98_8:
	.loc	21 0 1
	movq	-40(%rbp), %rax
	.loc	21 184 1
	addq	$64, %rax
	movq	%rax, %rdi
	callq	__ZN4core3ptr13drop_in_place17hfb70a5aafdc2a031E
	jmp	LBB98_7
LBB98_9:
	.loc	21 0 1
	movq	-40(%rbp), %rax
	.loc	21 184 1
	addq	$40, %rax
	movq	%rax, %rdi
	callq	__ZN4core3ptr13drop_in_place17hbe55d5a1ceef1ff4E
	jmp	LBB98_8
LBB98_10:
	.loc	21 0 1
	movq	-40(%rbp), %rax
	.loc	21 184 1
	addq	$16, %rax
	movq	%rax, %rdi
	callq	__ZN4core3ptr13drop_in_place17hd82bde0305b1f86dE
	jmp	LBB98_9
LBB98_11:
	.loc	21 0 1
	movq	-40(%rbp), %rax
	.loc	21 184 1
	addq	$168, %rax
	movq	%rax, %rdi
	callq	__ZN4core3ptr13drop_in_place17hdde008a08f8781e1E
	jmp	LBB98_2
LBB98_12:
	.loc	21 0 1
	movq	-40(%rbp), %rax
	.loc	21 184 1
	addq	$160, %rax
Ltmp326:
	movq	%rax, %rdi
	callq	__ZN4core3ptr13drop_in_place17hdde008a08f8781e1E
Ltmp327:
	jmp	LBB98_11
LBB98_13:
	.loc	21 0 1
	movq	-40(%rbp), %rax
	.loc	21 184 1
	addq	$152, %rax
Ltmp323:
	movq	%rax, %rdi
	callq	__ZN4core3ptr13drop_in_place17hdde008a08f8781e1E
Ltmp324:
	jmp	LBB98_12
LBB98_14:
	.loc	21 0 1
	movq	-40(%rbp), %rax
	.loc	21 184 1
	addq	$112, %rax
Ltmp320:
	movq	%rax, %rdi
	callq	__ZN4core3ptr13drop_in_place17hd06dc2077fc488adE
Ltmp321:
	jmp	LBB98_13
LBB98_15:
	.loc	21 0 1
	movq	-40(%rbp), %rax
	.loc	21 184 1
	addq	$96, %rax
Ltmp317:
	movq	%rax, %rdi
	callq	__ZN4core3ptr13drop_in_place17hc1dae0735360acd5E
Ltmp318:
	jmp	LBB98_14
LBB98_16:
	.loc	21 0 1
	movq	-40(%rbp), %rax
	.loc	21 184 1
	addq	$64, %rax
Ltmp314:
	movq	%rax, %rdi
	callq	__ZN4core3ptr13drop_in_place17hfb70a5aafdc2a031E
Ltmp315:
	jmp	LBB98_15
LBB98_17:
	.loc	21 0 1
	movq	-40(%rbp), %rax
	.loc	21 184 1
	addq	$40, %rax
Ltmp311:
	movq	%rax, %rdi
	callq	__ZN4core3ptr13drop_in_place17hbe55d5a1ceef1ff4E
Ltmp312:
	jmp	LBB98_16
LBB98_18:
	.loc	21 0 1
	movq	-40(%rbp), %rax
	.loc	21 184 1
	addq	$16, %rax
Ltmp308:
	movq	%rax, %rdi
	callq	__ZN4core3ptr13drop_in_place17hd82bde0305b1f86dE
Ltmp309:
	jmp	LBB98_17
Ltmp330:
LBB98_19:
Ltmp307:
	.loc	21 0 1
	movq	%rax, -16(%rbp)
	movl	%edx, -8(%rbp)
	jmp	LBB98_10
LBB98_20:
Ltmp310:
	movq	%rax, -16(%rbp)
	movl	%edx, -8(%rbp)
	jmp	LBB98_9
LBB98_21:
Ltmp313:
	movq	%rax, -16(%rbp)
	movl	%edx, -8(%rbp)
	jmp	LBB98_8
LBB98_22:
Ltmp316:
	movq	%rax, -16(%rbp)
	movl	%edx, -8(%rbp)
	jmp	LBB98_7
LBB98_23:
Ltmp319:
	movq	%rax, -16(%rbp)
	movl	%edx, -8(%rbp)
	jmp	LBB98_6
LBB98_24:
Ltmp322:
	movq	%rax, -16(%rbp)
	movl	%edx, -8(%rbp)
	jmp	LBB98_5
LBB98_25:
Ltmp325:
	movq	%rax, -16(%rbp)
	movl	%edx, -8(%rbp)
	jmp	LBB98_4
LBB98_26:
Ltmp328:
	movq	%rax, -16(%rbp)
	movl	%edx, -8(%rbp)
	jmp	LBB98_3
Lfunc_end98:
	.cfi_endproc
	.section	__TEXT,__gcc_except_tab
	.p2align	2
GCC_except_table98:
Lexception21:
	.byte	255
	.byte	255
	.byte	1
	.uleb128 Lcst_end21-Lcst_begin21
Lcst_begin21:
	.uleb128 Ltmp305-Lfunc_begin98
	.uleb128 Ltmp306-Ltmp305
	.uleb128 Ltmp307-Lfunc_begin98
	.byte	0
	.uleb128 Ltmp306-Lfunc_begin98
	.uleb128 Ltmp326-Ltmp306
	.byte	0
	.byte	0
	.uleb128 Ltmp326-Lfunc_begin98
	.uleb128 Ltmp327-Ltmp326
	.uleb128 Ltmp328-Lfunc_begin98
	.byte	0
	.uleb128 Ltmp323-Lfunc_begin98
	.uleb128 Ltmp324-Ltmp323
	.uleb128 Ltmp325-Lfunc_begin98
	.byte	0
	.uleb128 Ltmp320-Lfunc_begin98
	.uleb128 Ltmp321-Ltmp320
	.uleb128 Ltmp322-Lfunc_begin98
	.byte	0
	.uleb128 Ltmp317-Lfunc_begin98
	.uleb128 Ltmp318-Ltmp317
	.uleb128 Ltmp319-Lfunc_begin98
	.byte	0
	.uleb128 Ltmp314-Lfunc_begin98
	.uleb128 Ltmp315-Ltmp314
	.uleb128 Ltmp316-Lfunc_begin98
	.byte	0
	.uleb128 Ltmp311-Lfunc_begin98
	.uleb128 Ltmp312-Ltmp311
	.uleb128 Ltmp313-Lfunc_begin98
	.byte	0
	.uleb128 Ltmp308-Lfunc_begin98
	.uleb128 Ltmp309-Ltmp308
	.uleb128 Ltmp310-Lfunc_begin98
	.byte	0
Lcst_end21:
	.p2align	2

	.section	__TEXT,__text,regular,pure_instructions
	.p2align	4, 0x90
__ZN4core3ptr13drop_in_place17hdde008a08f8781e1E:
Lfunc_begin99:
	.loc	21 184 0 is_stmt 1
	.cfi_startproc
	pushq	%rbp
	.cfi_def_cfa_offset 16
	.cfi_offset %rbp, -16
	movq	%rsp, %rbp
	.cfi_def_cfa_register %rbp
	subq	$32, %rsp
	xorl	%eax, %eax
	movl	%eax, %ecx
	movq	%rdi, -8(%rbp)
Ltmp331:
	.loc	21 184 1 prologue_end
	movl	(%rdi), %eax
	subl	$4, %eax
	cmpl	$0, %eax
	movl	$1, %edx
	cmovbeq	%rcx, %rdx
	cmpq	$0, %rdx
	movq	%rdi, -24(%rbp)
	jne	LBB99_2
LBB99_1:
	addq	$32, %rsp
	popq	%rbp
	retq
LBB99_2:
	.loc	21 0 1 is_stmt 0
	movq	-24(%rbp), %rdi
	.loc	21 184 1
	callq	__ZN4core3ptr13drop_in_place17h347ce771c5128e3fE
	jmp	LBB99_1
Ltmp332:
Lfunc_end99:
	.cfi_endproc

	.p2align	4, 0x90
__ZN4core3ptr13drop_in_place17hdfb01e86c69920c4E:
Lfunc_begin100:
	.loc	21 184 0 is_stmt 1
	.cfi_startproc
	pushq	%rbp
	.cfi_def_cfa_offset 16
	.cfi_offset %rbp, -16
	movq	%rsp, %rbp
	.cfi_def_cfa_register %rbp
	subq	$16, %rsp
	movq	%rdi, -8(%rbp)
Ltmp333:
	.loc	21 184 1 prologue_end
	callq	__ZN70_$LT$std..sys..unix..fd..FileDesc$u20$as$u20$core..ops..drop..Drop$GT$4drop17h633394f1cf9da1c8E
	addq	$16, %rsp
	popq	%rbp
	retq
Ltmp334:
Lfunc_end100:
	.cfi_endproc

	.p2align	4, 0x90
__ZN4core3ptr13drop_in_place17hdfc9ceb364fb6483E:
Lfunc_begin101:
	.loc	21 184 0
	.cfi_startproc
	pushq	%rbp
	.cfi_def_cfa_offset 16
	.cfi_offset %rbp, -16
	movq	%rsp, %rbp
	.cfi_def_cfa_register %rbp
	subq	$16, %rsp
	movq	%rdi, -8(%rbp)
Ltmp335:
	.loc	21 184 1 prologue_end
	callq	__ZN4core3ptr13drop_in_place17hb56a32f3c2dde7ecE
	addq	$16, %rsp
	popq	%rbp
	retq
Ltmp336:
Lfunc_end101:
	.cfi_endproc

	.p2align	4, 0x90
__ZN4core3ptr13drop_in_place17hf0e325ed7eaa85c6E:
Lfunc_begin102:
	.loc	21 184 0
	.cfi_startproc
	pushq	%rbp
	.cfi_def_cfa_offset 16
	.cfi_offset %rbp, -16
	movq	%rsp, %rbp
	.cfi_def_cfa_register %rbp
	subq	$32, %rsp
	movq	%rdi, -16(%rbp)
	movq	%rsi, -8(%rbp)
Ltmp337:
	.loc	21 184 1 prologue_end
	callq	*(%rsi)
	addq	$32, %rsp
	popq	%rbp
	retq
Ltmp338:
Lfunc_end102:
	.cfi_endproc

	.p2align	4, 0x90
__ZN4core3ptr13drop_in_place17hf3a81b896739b726E:
Lfunc_begin103:
	.loc	21 184 0
	.cfi_startproc
	.cfi_personality 155, _rust_eh_personality
	.cfi_lsda 16, Lexception22
	pushq	%rbp
	.cfi_def_cfa_offset 16
	.cfi_offset %rbp, -16
	movq	%rsp, %rbp
	.cfi_def_cfa_register %rbp
	subq	$48, %rsp
	movq	%rdi, -24(%rbp)
Ltmp342:
	.loc	21 184 1 prologue_end
	movq	(%rdi), %rax
	movq	8(%rdi), %rcx
	movq	(%rcx), %rcx
Ltmp339:
	movq	%rdi, -40(%rbp)
	movq	%rax, %rdi
	callq	*%rcx
Ltmp340:
	jmp	LBB103_3
LBB103_1:
	addq	$48, %rsp
	popq	%rbp
	retq
LBB103_2:
	movq	-16(%rbp), %rdi
	callq	__Unwind_Resume
	ud2
LBB103_3:
	.loc	21 0 1 is_stmt 0
	movq	-40(%rbp), %rax
	.loc	21 184 1
	movq	(%rax), %rdi
	movq	8(%rax), %rsi
	callq	__ZN5alloc5alloc8box_free17h6aa868bb865d18feE
	jmp	LBB103_1
LBB103_4:
	.loc	21 0 1
	movq	-40(%rbp), %rax
	.loc	21 184 1
	movq	(%rax), %rdi
	movq	8(%rax), %rsi
	callq	__ZN5alloc5alloc8box_free17h6aa868bb865d18feE
	jmp	LBB103_2
Ltmp343:
LBB103_5:
Ltmp341:
	.loc	21 0 1
	movq	%rax, -16(%rbp)
	movl	%edx, -8(%rbp)
	jmp	LBB103_4
Lfunc_end103:
	.cfi_endproc
	.section	__TEXT,__gcc_except_tab
	.p2align	2
GCC_except_table103:
Lexception22:
	.byte	255
	.byte	255
	.byte	1
	.uleb128 Lcst_end22-Lcst_begin22
Lcst_begin22:
	.uleb128 Ltmp339-Lfunc_begin103
	.uleb128 Ltmp340-Ltmp339
	.uleb128 Ltmp341-Lfunc_begin103
	.byte	0
	.uleb128 Ltmp340-Lfunc_begin103
	.uleb128 Lfunc_end103-Ltmp340
	.byte	0
	.byte	0
Lcst_end22:
	.p2align	2

	.section	__TEXT,__text,regular,pure_instructions
	.p2align	4, 0x90
__ZN4core3ptr13drop_in_place17hf55f9492fbce32b1E:
Lfunc_begin104:
	.loc	21 184 0 is_stmt 1
	.cfi_startproc
	pushq	%rbp
	.cfi_def_cfa_offset 16
	.cfi_offset %rbp, -16
	movq	%rsp, %rbp
	.cfi_def_cfa_register %rbp
	subq	$48, %rsp
	movq	%rdi, -24(%rbp)
	movq	%rdi, -40(%rbp)
Ltmp344:
	.loc	21 184 1 prologue_end
	jmp	LBB104_2
LBB104_1:
	addq	$48, %rsp
	popq	%rbp
	retq
LBB104_2:
	.loc	21 0 1 is_stmt 0
	movq	-40(%rbp), %rax
	.loc	21 184 1
	movq	(%rax), %rdi
	movq	8(%rax), %rsi
	callq	__ZN5alloc5alloc8box_free17h4f4346793d760280E
	jmp	LBB104_1
Ltmp345:
Lfunc_end104:
	.cfi_endproc

	.p2align	4, 0x90
__ZN4core3ptr13drop_in_place17hfb70a5aafdc2a031E:
Lfunc_begin105:
	.loc	21 184 0 is_stmt 1
	.cfi_startproc
	pushq	%rbp
	.cfi_def_cfa_offset 16
	.cfi_offset %rbp, -16
	movq	%rsp, %rbp
	.cfi_def_cfa_register %rbp
	subq	$16, %rsp
	movq	%rdi, -8(%rbp)
Ltmp346:
	.loc	21 184 1 prologue_end
	callq	__ZN4core3ptr13drop_in_place17h975d16fab5e152caE
	addq	$16, %rsp
	popq	%rbp
	retq
Ltmp347:
Lfunc_end105:
	.cfi_endproc

	.p2align	4, 0x90
__ZN4core3ptr19swap_nonoverlapping17h7e85e98235331a2eE:
Lfunc_begin106:
	.loc	21 430 0
	.cfi_startproc
	pushq	%rbp
	.cfi_def_cfa_offset 16
	.cfi_offset %rbp, -16
	movq	%rsp, %rbp
	.cfi_def_cfa_register %rbp
	subq	$96, %rsp
	movq	%rdi, -56(%rbp)
	movq	%rsi, -48(%rbp)
	movq	%rdx, -40(%rbp)
Ltmp348:
	.loc	21 440 13 prologue_end
	movq	%rdi, -32(%rbp)
Ltmp349:
	.loc	21 441 13
	movq	%rsi, -24(%rbp)
Ltmp350:
	.loc	18 310 5
	movq	$16, -8(%rbp)
	movq	-8(%rbp), %rax
	movq	%rdx, -64(%rbp)
	movq	%rdi, -72(%rbp)
	movq	%rsi, -80(%rbp)
	movq	%rax, -88(%rbp)
Ltmp351:
	.loc	18 0 5 is_stmt 0
	movq	-88(%rbp), %rax
	movq	-64(%rbp), %rcx
	.loc	21 442 15 is_stmt 1
	imulq	%rcx, %rax
	movq	%rax, -16(%rbp)
	movq	-72(%rbp), %rdi
	movq	-80(%rbp), %rsi
Ltmp352:
	.loc	21 445 14
	movq	%rax, %rdx
	callq	__ZN4core3ptr25swap_nonoverlapping_bytes17he6b48044895d497eE
Ltmp353:
	.loc	21 446 2
	addq	$96, %rsp
	popq	%rbp
	retq
Ltmp354:
Lfunc_end106:
	.cfi_endproc

	.p2align	4, 0x90
__ZN4core3ptr19swap_nonoverlapping17hb3d82a71f30203a0E:
Lfunc_begin107:
	.loc	21 430 0
	.cfi_startproc
	pushq	%rbp
	.cfi_def_cfa_offset 16
	.cfi_offset %rbp, -16
	movq	%rsp, %rbp
	.cfi_def_cfa_register %rbp
	subq	$96, %rsp
	movq	%rdi, -56(%rbp)
	movq	%rsi, -48(%rbp)
	movq	%rdx, -40(%rbp)
Ltmp355:
	.loc	21 440 13 prologue_end
	movq	%rdi, -32(%rbp)
Ltmp356:
	.loc	21 441 13
	movq	%rsi, -24(%rbp)
Ltmp357:
	.loc	18 310 5
	movq	$16, -8(%rbp)
	movq	-8(%rbp), %rax
	movq	%rdx, -64(%rbp)
	movq	%rdi, -72(%rbp)
	movq	%rsi, -80(%rbp)
	movq	%rax, -88(%rbp)
Ltmp358:
	.loc	18 0 5 is_stmt 0
	movq	-88(%rbp), %rax
	movq	-64(%rbp), %rcx
	.loc	21 442 15 is_stmt 1
	imulq	%rcx, %rax
	movq	%rax, -16(%rbp)
	movq	-72(%rbp), %rdi
	movq	-80(%rbp), %rsi
Ltmp359:
	.loc	21 445 14
	movq	%rax, %rdx
	callq	__ZN4core3ptr25swap_nonoverlapping_bytes17he6b48044895d497eE
Ltmp360:
	.loc	21 446 2
	addq	$96, %rsp
	popq	%rbp
	retq
Ltmp361:
Lfunc_end107:
	.cfi_endproc

	.p2align	4, 0x90
__ZN4core3ptr20slice_from_raw_parts17h09e94f5870c606d3E:
Lfunc_begin108:
	.loc	21 264 0
	.cfi_startproc
	pushq	%rbp
	.cfi_def_cfa_offset 16
	.cfi_offset %rbp, -16
	movq	%rsp, %rbp
	.cfi_def_cfa_register %rbp
	subq	$48, %rsp
	movq	%rdi, -16(%rbp)
	movq	%rsi, -8(%rbp)
Ltmp362:
	.loc	21 268 26 prologue_end
	movq	%rdi, -32(%rbp)
	movq	%rsi, -24(%rbp)
	.loc	21 268 14 is_stmt 0
	movq	-32(%rbp), %rax
	movq	-24(%rbp), %rcx
	movq	%rax, -48(%rbp)
	movq	%rcx, -40(%rbp)
	movq	-48(%rbp), %rax
	movq	-40(%rbp), %rdx
	.loc	21 269 2 is_stmt 1
	addq	$48, %rsp
	popq	%rbp
	retq
Ltmp363:
Lfunc_end108:
	.cfi_endproc

	.p2align	4, 0x90
__ZN4core3ptr20slice_from_raw_parts17ha316e0cb2307ff51E:
Lfunc_begin109:
	.loc	21 264 0
	.cfi_startproc
	pushq	%rbp
	.cfi_def_cfa_offset 16
	.cfi_offset %rbp, -16
	movq	%rsp, %rbp
	.cfi_def_cfa_register %rbp
	subq	$48, %rsp
	movq	%rdi, -16(%rbp)
	movq	%rsi, -8(%rbp)
Ltmp364:
	.loc	21 268 26 prologue_end
	movq	%rdi, -32(%rbp)
	movq	%rsi, -24(%rbp)
	.loc	21 268 14 is_stmt 0
	movq	-32(%rbp), %rax
	movq	-24(%rbp), %rcx
	movq	%rax, -48(%rbp)
	movq	%rcx, -40(%rbp)
	movq	-48(%rbp), %rax
	movq	-40(%rbp), %rdx
	.loc	21 269 2 is_stmt 1
	addq	$48, %rsp
	popq	%rbp
	retq
Ltmp365:
Lfunc_end109:
	.cfi_endproc

	.p2align	4, 0x90
__ZN4core3ptr20slice_from_raw_parts17hfb7d96fb3fe569b7E:
Lfunc_begin110:
	.loc	21 264 0
	.cfi_startproc
	pushq	%rbp
	.cfi_def_cfa_offset 16
	.cfi_offset %rbp, -16
	movq	%rsp, %rbp
	.cfi_def_cfa_register %rbp
	subq	$48, %rsp
	movq	%rdi, -16(%rbp)
	movq	%rsi, -8(%rbp)
Ltmp366:
	.loc	21 268 26 prologue_end
	movq	%rdi, -32(%rbp)
	movq	%rsi, -24(%rbp)
	.loc	21 268 14 is_stmt 0
	movq	-32(%rbp), %rax
	movq	-24(%rbp), %rcx
	movq	%rax, -48(%rbp)
	movq	%rcx, -40(%rbp)
	movq	-48(%rbp), %rax
	movq	-40(%rbp), %rdx
	.loc	21 269 2 is_stmt 1
	addq	$48, %rsp
	popq	%rbp
	retq
Ltmp367:
Lfunc_end110:
	.cfi_endproc

	.p2align	4, 0x90
__ZN4core3ptr23swap_nonoverlapping_one17h3e2de08147ca2b45E:
Lfunc_begin111:
	.loc	21 449 0
	.cfi_startproc
	.cfi_personality 155, _rust_eh_personality
	.cfi_lsda 16, Lexception23
	pushq	%rbp
	.cfi_def_cfa_offset 16
	.cfi_offset %rbp, -16
	movq	%rsp, %rbp
	.cfi_def_cfa_register %rbp
	subq	$112, %rsp
	movq	%rdi, -56(%rbp)
	movq	%rsi, -48(%rbp)
Ltmp373:
	.loc	21 452 8 prologue_end
	movb	$0, -57(%rbp)
Ltmp374:
	.loc	18 310 5
	movq	$16, -8(%rbp)
	movq	-8(%rbp), %rax
	movq	%rdi, -72(%rbp)
	movq	%rsi, -80(%rbp)
	movq	%rax, -88(%rbp)
Ltmp375:
	.loc	21 452 8
	jmp	LBB111_2
LBB111_1:
	.loc	21 449 1
	movq	-24(%rbp), %rdi
	callq	__Unwind_Resume
	ud2
LBB111_2:
	.loc	21 0 1 is_stmt 0
	movq	-88(%rbp), %rax
	.loc	21 452 8 is_stmt 1
	cmpq	$32, %rax
	.loc	21 452 5 is_stmt 0
	jb	LBB111_4
	.loc	21 0 5
	movq	-72(%rbp), %rdi
	movq	-80(%rbp), %rsi
	.loc	21 462 18 is_stmt 1
	movl	$1, %edx
	callq	__ZN4core3ptr19swap_nonoverlapping17h7e85e98235331a2eE
	jmp	LBB111_8
LBB111_4:
	.loc	21 456 21
	movb	$1, -57(%rbp)
	movq	-72(%rbp), %rdi
	callq	__ZN4core3ptr4read17h7d5a38c82cfe30aaE
	movq	%rax, -40(%rbp)
	movq	%rdx, -32(%rbp)
	movq	%rax, -96(%rbp)
	movq	%rdx, -104(%rbp)
Ltmp368:
	.loc	21 0 21 is_stmt 0
	movl	$1, %edx
	movq	-80(%rbp), %rdi
	movq	-72(%rbp), %rsi
Ltmp376:
	.loc	21 457 13 is_stmt 1
	callq	__ZN4core10intrinsics19copy_nonoverlapping17hab2511eb1d3e8d06E
Ltmp369:
	jmp	LBB111_6
LBB111_6:
	.loc	21 458 22
	movb	$0, -57(%rbp)
Ltmp370:
	movq	-80(%rbp), %rdi
	movq	-96(%rbp), %rsi
	movq	-104(%rbp), %rdx
	.loc	21 458 13 is_stmt 0
	callq	__ZN4core3ptr5write17h95a6c7fa3c8cbe07E
Ltmp371:
	jmp	LBB111_7
Ltmp377:
LBB111_7:
	.loc	21 459 9 is_stmt 1
	movb	$0, -57(%rbp)
	.loc	21 452 5
	jmp	LBB111_9
LBB111_8:
	jmp	LBB111_9
LBB111_9:
	.loc	21 464 2
	addq	$112, %rsp
	popq	%rbp
	retq
LBB111_10:
	.loc	21 459 9
	movb	$0, -57(%rbp)
	jmp	LBB111_1
LBB111_11:
	testb	$1, -57(%rbp)
	jne	LBB111_10
	jmp	LBB111_1
Ltmp378:
LBB111_12:
Ltmp372:
	.loc	21 0 9 is_stmt 0
	movq	%rax, -24(%rbp)
	movl	%edx, -16(%rbp)
	jmp	LBB111_11
Lfunc_end111:
	.cfi_endproc
	.section	__TEXT,__gcc_except_tab
	.p2align	2
GCC_except_table111:
Lexception23:
	.byte	255
	.byte	255
	.byte	1
	.uleb128 Lcst_end23-Lcst_begin23
Lcst_begin23:
	.uleb128 Lfunc_begin111-Lfunc_begin111
	.uleb128 Ltmp368-Lfunc_begin111
	.byte	0
	.byte	0
	.uleb128 Ltmp368-Lfunc_begin111
	.uleb128 Ltmp371-Ltmp368
	.uleb128 Ltmp372-Lfunc_begin111
	.byte	0
Lcst_end23:
	.p2align	2

	.section	__TEXT,__text,regular,pure_instructions
	.p2align	4, 0x90
__ZN4core3ptr23swap_nonoverlapping_one17hbb741bb3c5590377E:
Lfunc_begin112:
	.loc	21 449 0 is_stmt 1
	.cfi_startproc
	.cfi_personality 155, _rust_eh_personality
	.cfi_lsda 16, Lexception24
	pushq	%rbp
	.cfi_def_cfa_offset 16
	.cfi_offset %rbp, -16
	movq	%rsp, %rbp
	.cfi_def_cfa_register %rbp
	subq	$112, %rsp
	movq	%rdi, -56(%rbp)
	movq	%rsi, -48(%rbp)
Ltmp384:
	.loc	21 452 8 prologue_end
	movb	$0, -57(%rbp)
Ltmp385:
	.loc	18 310 5
	movq	$16, -8(%rbp)
	movq	-8(%rbp), %rax
	movq	%rdi, -72(%rbp)
	movq	%rsi, -80(%rbp)
	movq	%rax, -88(%rbp)
Ltmp386:
	.loc	21 452 8
	jmp	LBB112_2
LBB112_1:
	.loc	21 449 1
	movq	-24(%rbp), %rdi
	callq	__Unwind_Resume
	ud2
LBB112_2:
	.loc	21 0 1 is_stmt 0
	movq	-88(%rbp), %rax
	.loc	21 452 8 is_stmt 1
	cmpq	$32, %rax
	.loc	21 452 5 is_stmt 0
	jb	LBB112_4
	.loc	21 0 5
	movq	-72(%rbp), %rdi
	movq	-80(%rbp), %rsi
	.loc	21 462 18 is_stmt 1
	movl	$1, %edx
	callq	__ZN4core3ptr19swap_nonoverlapping17hb3d82a71f30203a0E
	jmp	LBB112_8
LBB112_4:
	.loc	21 456 21
	movb	$1, -57(%rbp)
	movq	-72(%rbp), %rdi
	callq	__ZN4core3ptr4read17h5f6997dd1bbdf1b8E
	movq	%rax, -40(%rbp)
	movq	%rdx, -32(%rbp)
	movq	%rax, -96(%rbp)
	movq	%rdx, -104(%rbp)
Ltmp379:
	.loc	21 0 21 is_stmt 0
	movl	$1, %edx
	movq	-80(%rbp), %rdi
	movq	-72(%rbp), %rsi
Ltmp387:
	.loc	21 457 13 is_stmt 1
	callq	__ZN4core10intrinsics19copy_nonoverlapping17hb214e5cb8c4ba693E
Ltmp380:
	jmp	LBB112_6
LBB112_6:
	.loc	21 458 22
	movb	$0, -57(%rbp)
Ltmp381:
	movq	-80(%rbp), %rdi
	movq	-96(%rbp), %rsi
	movq	-104(%rbp), %rdx
	.loc	21 458 13 is_stmt 0
	callq	__ZN4core3ptr5write17h4d4560b61b94a8edE
Ltmp382:
	jmp	LBB112_7
Ltmp388:
LBB112_7:
	.loc	21 459 9 is_stmt 1
	movb	$0, -57(%rbp)
	.loc	21 452 5
	jmp	LBB112_9
LBB112_8:
	jmp	LBB112_9
LBB112_9:
	.loc	21 464 2
	addq	$112, %rsp
	popq	%rbp
	retq
LBB112_10:
	.loc	21 459 9
	movb	$0, -57(%rbp)
	jmp	LBB112_1
LBB112_11:
	testb	$1, -57(%rbp)
	jne	LBB112_10
	jmp	LBB112_1
Ltmp389:
LBB112_12:
Ltmp383:
	.loc	21 0 9 is_stmt 0
	movq	%rax, -24(%rbp)
	movl	%edx, -16(%rbp)
	jmp	LBB112_11
Lfunc_end112:
	.cfi_endproc
	.section	__TEXT,__gcc_except_tab
	.p2align	2
GCC_except_table112:
Lexception24:
	.byte	255
	.byte	255
	.byte	1
	.uleb128 Lcst_end24-Lcst_begin24
Lcst_begin24:
	.uleb128 Lfunc_begin112-Lfunc_begin112
	.uleb128 Ltmp379-Lfunc_begin112
	.byte	0
	.byte	0
	.uleb128 Ltmp379-Lfunc_begin112
	.uleb128 Ltmp382-Ltmp379
	.uleb128 Ltmp383-Lfunc_begin112
	.byte	0
Lcst_end24:
	.p2align	2

	.section	__TEXT,__text,regular,pure_instructions
	.p2align	4, 0x90
__ZN4core3ptr24slice_from_raw_parts_mut17h06159479556df74eE:
Lfunc_begin113:
	.loc	21 300 0 is_stmt 1
	.cfi_startproc
	pushq	%rbp
	.cfi_def_cfa_offset 16
	.cfi_offset %rbp, -16
	movq	%rsp, %rbp
	.cfi_def_cfa_register %rbp
	subq	$48, %rsp
	movq	%rdi, -16(%rbp)
	movq	%rsi, -8(%rbp)
Ltmp390:
	.loc	21 303 26 prologue_end
	movq	%rdi, -32(%rbp)
	movq	%rsi, -24(%rbp)
	.loc	21 303 14 is_stmt 0
	movq	-32(%rbp), %rax
	movq	-24(%rbp), %rcx
	movq	%rax, -48(%rbp)
	movq	%rcx, -40(%rbp)
	movq	-48(%rbp), %rax
	movq	-40(%rbp), %rdx
	.loc	21 304 2 is_stmt 1
	addq	$48, %rsp
	popq	%rbp
	retq
Ltmp391:
Lfunc_end113:
	.cfi_endproc

	.p2align	4, 0x90
__ZN4core3ptr24slice_from_raw_parts_mut17h691aa37115e3d43cE:
Lfunc_begin114:
	.loc	21 300 0
	.cfi_startproc
	pushq	%rbp
	.cfi_def_cfa_offset 16
	.cfi_offset %rbp, -16
	movq	%rsp, %rbp
	.cfi_def_cfa_register %rbp
	subq	$48, %rsp
	movq	%rdi, -16(%rbp)
	movq	%rsi, -8(%rbp)
Ltmp392:
	.loc	21 303 26 prologue_end
	movq	%rdi, -32(%rbp)
	movq	%rsi, -24(%rbp)
	.loc	21 303 14 is_stmt 0
	movq	-32(%rbp), %rax
	movq	-24(%rbp), %rcx
	movq	%rax, -48(%rbp)
	movq	%rcx, -40(%rbp)
	movq	-48(%rbp), %rax
	movq	-40(%rbp), %rdx
	.loc	21 304 2 is_stmt 1
	addq	$48, %rsp
	popq	%rbp
	retq
Ltmp393:
Lfunc_end114:
	.cfi_endproc

	.p2align	4, 0x90
__ZN4core3ptr24slice_from_raw_parts_mut17h98594384d64674d9E:
Lfunc_begin115:
	.loc	21 300 0
	.cfi_startproc
	pushq	%rbp
	.cfi_def_cfa_offset 16
	.cfi_offset %rbp, -16
	movq	%rsp, %rbp
	.cfi_def_cfa_register %rbp
	subq	$48, %rsp
	movq	%rdi, -16(%rbp)
	movq	%rsi, -8(%rbp)
Ltmp394:
	.loc	21 303 26 prologue_end
	movq	%rdi, -32(%rbp)
	movq	%rsi, -24(%rbp)
	.loc	21 303 14 is_stmt 0
	movq	-32(%rbp), %rax
	movq	-24(%rbp), %rcx
	movq	%rax, -48(%rbp)
	movq	%rcx, -40(%rbp)
	movq	-48(%rbp), %rax
	movq	-40(%rbp), %rdx
	.loc	21 304 2 is_stmt 1
	addq	$48, %rsp
	popq	%rbp
	retq
Ltmp395:
Lfunc_end115:
	.cfi_endproc

	.p2align	4, 0x90
__ZN4core3ptr24slice_from_raw_parts_mut17he0d0e57b760282d1E:
Lfunc_begin116:
	.loc	21 300 0
	.cfi_startproc
	pushq	%rbp
	.cfi_def_cfa_offset 16
	.cfi_offset %rbp, -16
	movq	%rsp, %rbp
	.cfi_def_cfa_register %rbp
	subq	$48, %rsp
	movq	%rdi, -16(%rbp)
	movq	%rsi, -8(%rbp)
Ltmp396:
	.loc	21 303 26 prologue_end
	movq	%rdi, -32(%rbp)
	movq	%rsi, -24(%rbp)
	.loc	21 303 14 is_stmt 0
	movq	-32(%rbp), %rax
	movq	-24(%rbp), %rcx
	movq	%rax, -48(%rbp)
	movq	%rcx, -40(%rbp)
	movq	-48(%rbp), %rax
	movq	-40(%rbp), %rdx
	.loc	21 304 2 is_stmt 1
	addq	$48, %rsp
	popq	%rbp
	retq
Ltmp397:
Lfunc_end116:
	.cfi_endproc

	.p2align	4, 0x90
__ZN4core3ptr25swap_nonoverlapping_bytes17he6b48044895d497eE:
Lfunc_begin117:
	.loc	21 467 0
	.cfi_startproc
	pushq	%rbp
	.cfi_def_cfa_offset 16
	.cfi_offset %rbp, -16
	movq	%rsp, %rbp
	.cfi_def_cfa_register %rbp
	andq	$-32, %rsp
	subq	$352, %rsp
	movq	%rdi, 208(%rsp)
	movq	%rsi, 216(%rsp)
	movq	%rdx, 224(%rsp)
Ltmp398:
	.loc	18 310 5 prologue_end
	movq	$32, 296(%rsp)
	movq	296(%rsp), %rax
Ltmp399:
	.loc	21 478 22
	movq	%rax, 232(%rsp)
	movq	%rdi, 104(%rsp)
	movq	%rsi, 96(%rsp)
	movq	%rdx, 88(%rsp)
	movq	%rax, 80(%rsp)
Ltmp400:
	.loc	21 483 17
	movq	$0, 120(%rsp)
LBB117_2:
	.loc	21 0 17 is_stmt 0
	movq	80(%rsp), %rax
Ltmp401:
	.loc	21 484 11 is_stmt 1
	addq	120(%rsp), %rax
	movq	88(%rsp), %rcx
	cmpq	%rcx, %rax
	.loc	21 484 5 is_stmt 0
	jbe	LBB117_4
	.loc	21 0 5
	movq	88(%rsp), %rax
	.loc	21 509 8 is_stmt 1
	cmpq	%rax, 120(%rsp)
	.loc	21 509 5 is_stmt 0
	jb	LBB117_13
	jmp	LBB117_12
LBB117_4:
	.loc	21 0 5
	leaq	128(%rsp), %rax
	movq	%rax, 304(%rsp)
	movq	%rax, 312(%rsp)
Ltmp402:
	.loc	21 488 17 is_stmt 1
	leaq	128(%rsp), %rax
	movq	%rax, 240(%rsp)
Ltmp403:
	.loc	21 497 27
	movq	120(%rsp), %rsi
	movq	104(%rsp), %rdi
	movq	%rax, 72(%rsp)
	.loc	21 497 21 is_stmt 0
	callq	__ZN4core3ptr7mut_ptr31_$LT$impl$u20$$BP$mut$u20$T$GT$3add17h924bef6c22ed5e41E
	movq	%rax, 248(%rsp)
	movq	%rax, 64(%rsp)
Ltmp404:
	.loc	21 498 27 is_stmt 1
	movq	120(%rsp), %rsi
	movq	96(%rsp), %rdi
	.loc	21 498 21 is_stmt 0
	callq	__ZN4core3ptr7mut_ptr31_$LT$impl$u20$$BP$mut$u20$T$GT$3add17h924bef6c22ed5e41E
	movq	%rax, 256(%rsp)
	movq	%rax, 56(%rsp)
	.loc	21 0 21
	movq	64(%rsp), %rdi
	movq	72(%rsp), %rsi
	movq	80(%rsp), %rdx
Ltmp405:
	.loc	21 502 13 is_stmt 1
	callq	__ZN4core10intrinsics19copy_nonoverlapping17ha07f876e938b45d2E
	.loc	21 0 13 is_stmt 0
	movq	56(%rsp), %rdi
	movq	64(%rsp), %rsi
	movq	80(%rsp), %rdx
	.loc	21 503 13 is_stmt 1
	callq	__ZN4core10intrinsics19copy_nonoverlapping17ha07f876e938b45d2E
	.loc	21 0 13 is_stmt 0
	movq	72(%rsp), %rdi
	movq	56(%rsp), %rsi
	movq	80(%rsp), %rdx
	.loc	21 504 13 is_stmt 1
	callq	__ZN4core10intrinsics19copy_nonoverlapping17ha07f876e938b45d2E
Ltmp406:
	.loc	21 0 13 is_stmt 0
	movq	80(%rsp), %rax
	.loc	21 506 9 is_stmt 1
	addq	120(%rsp), %rax
	movq	%rax, 120(%rsp)
Ltmp407:
	.loc	21 484 5
	jmp	LBB117_2
LBB117_12:
	.loc	21 509 5
	jmp	LBB117_21
LBB117_13:
	.loc	21 0 5 is_stmt 0
	movq	88(%rsp), %rax
Ltmp408:
	.loc	21 512 19 is_stmt 1
	subq	120(%rsp), %rax
	movq	%rax, 264(%rsp)
	leaq	176(%rsp), %rcx
	movq	%rcx, 320(%rsp)
	movq	%rcx, 328(%rsp)
	movq	%rax, 48(%rsp)
	movq	%rcx, 40(%rsp)
	.loc	21 0 19 is_stmt 0
	movq	40(%rsp), %rax
Ltmp409:
	.loc	21 514 17 is_stmt 1
	movq	%rax, 272(%rsp)
Ltmp410:
	.loc	21 518 27
	movq	120(%rsp), %rsi
	movq	104(%rsp), %rdi
	movq	%rax, 32(%rsp)
	.loc	21 518 21 is_stmt 0
	callq	__ZN4core3ptr7mut_ptr31_$LT$impl$u20$$BP$mut$u20$T$GT$3add17h924bef6c22ed5e41E
	movq	%rax, 280(%rsp)
	movq	%rax, 24(%rsp)
Ltmp411:
	.loc	21 519 27 is_stmt 1
	movq	120(%rsp), %rsi
	movq	96(%rsp), %rdi
	.loc	21 519 21 is_stmt 0
	callq	__ZN4core3ptr7mut_ptr31_$LT$impl$u20$$BP$mut$u20$T$GT$3add17h924bef6c22ed5e41E
	movq	%rax, 288(%rsp)
	movq	%rax, 16(%rsp)
	.loc	21 0 21
	movq	24(%rsp), %rdi
	movq	32(%rsp), %rsi
	movq	48(%rsp), %rdx
Ltmp412:
	.loc	21 521 13 is_stmt 1
	callq	__ZN4core10intrinsics19copy_nonoverlapping17ha07f876e938b45d2E
	.loc	21 0 13 is_stmt 0
	movq	16(%rsp), %rdi
	movq	24(%rsp), %rsi
	movq	48(%rsp), %rdx
	.loc	21 522 13 is_stmt 1
	callq	__ZN4core10intrinsics19copy_nonoverlapping17ha07f876e938b45d2E
	.loc	21 0 13 is_stmt 0
	movq	32(%rsp), %rdi
	movq	16(%rsp), %rsi
	movq	48(%rsp), %rdx
	.loc	21 523 13 is_stmt 1
	callq	__ZN4core10intrinsics19copy_nonoverlapping17ha07f876e938b45d2E
Ltmp413:
	.loc	21 509 5
	jmp	LBB117_21
Ltmp414:
LBB117_21:
	.loc	21 526 2
	movq	%rbp, %rsp
	popq	%rbp
	retq
Ltmp415:
Lfunc_end117:
	.cfi_endproc

	.p2align	4, 0x90
__ZN4core3ptr4read17h2b25e299fa739447E:
Lfunc_begin118:
	.loc	21 692 0
	.cfi_startproc
	pushq	%rbp
	.cfi_def_cfa_offset 16
	.cfi_offset %rbp, -16
	movq	%rsp, %rbp
	.cfi_def_cfa_register %rbp
	subq	$128, %rsp
	movq	%rdi, %rax
	movq	%rsi, -48(%rbp)
	movq	%rsi, -104(%rbp)
	movq	%rdi, -112(%rbp)
	movq	%rax, -120(%rbp)
	leaq	-96(%rbp), %rax
	movq	%rax, -16(%rbp)
	movq	%rax, -8(%rbp)
	movq	%rax, -128(%rbp)
	movq	-104(%rbp), %rdi
	movq	-128(%rbp), %rsi
Ltmp416:
	.loc	21 702 9 prologue_end
	movl	$1, %edx
	callq	__ZN4core10intrinsics19copy_nonoverlapping17h078e4e56a98c8020E
	.loc	21 703 9
	movq	-96(%rbp), %rax
	movq	%rax, -72(%rbp)
	movq	-88(%rbp), %rax
	movq	%rax, -64(%rbp)
	movq	-80(%rbp), %rax
	movq	%rax, -56(%rbp)
Ltmp417:
	.file	22 "/rustc/6c8927b0cf80ceee19386026cf9d7fd4fd9d486f/src/libcore/mem/maybe_uninit.rs"
	.loc	22 501 38
	movq	-72(%rbp), %rax
	movq	%rax, -40(%rbp)
	movq	-64(%rbp), %rax
	movq	%rax, -32(%rbp)
	movq	-56(%rbp), %rax
	movq	%rax, -24(%rbp)
Ltmp418:
	.loc	4 101 9
	movq	-40(%rbp), %rax
	movq	-112(%rbp), %rcx
	movq	%rax, (%rcx)
	movq	-32(%rbp), %rax
	movq	%rax, 8(%rcx)
	movq	-24(%rbp), %rax
	movq	%rax, 16(%rcx)
Ltmp419:
	.loc	4 0 9 is_stmt 0
	movq	-120(%rbp), %rax
	.loc	21 705 2 is_stmt 1
	addq	$128, %rsp
	popq	%rbp
	retq
Ltmp420:
Lfunc_end118:
	.cfi_endproc

	.p2align	4, 0x90
__ZN4core3ptr4read17h5f6997dd1bbdf1b8E:
Lfunc_begin119:
	.loc	21 692 0
	.cfi_startproc
	pushq	%rbp
	.cfi_def_cfa_offset 16
	.cfi_offset %rbp, -16
	movq	%rsp, %rbp
	.cfi_def_cfa_register %rbp
	subq	$112, %rsp
	movq	%rdi, -72(%rbp)
Ltmp421:
	.loc	22 272 6 prologue_end
	movq	-64(%rbp), %rax
	movq	-56(%rbp), %rcx
Ltmp422:
	.loc	21 694 19
	movq	%rcx, -80(%rbp)
	movq	%rax, -88(%rbp)
	movq	%rdi, -96(%rbp)
	.loc	21 0 19 is_stmt 0
	leaq	-88(%rbp), %rax
	movq	%rax, -16(%rbp)
	movq	%rax, -8(%rbp)
	movq	-96(%rbp), %rdi
Ltmp423:
	.loc	21 702 9 is_stmt 1
	leaq	-88(%rbp), %rsi
	movl	$1, %edx
	callq	__ZN4core10intrinsics19copy_nonoverlapping17hb214e5cb8c4ba693E
	.loc	21 703 9
	movq	-88(%rbp), %rax
	movq	-80(%rbp), %rcx
	movq	%rax, -48(%rbp)
	movq	%rcx, -40(%rbp)
	movq	%rax, -32(%rbp)
	movq	%rcx, -24(%rbp)
	movq	%rax, -104(%rbp)
	movq	%rcx, -112(%rbp)
Ltmp424:
	.loc	21 0 9 is_stmt 0
	movq	-104(%rbp), %rax
	movq	-112(%rbp), %rdx
	.loc	21 705 2 is_stmt 1
	addq	$112, %rsp
	popq	%rbp
	retq
Ltmp425:
Lfunc_end119:
	.cfi_endproc

	.p2align	4, 0x90
__ZN4core3ptr4read17h60e68daeab113fc9E:
Lfunc_begin120:
	.loc	21 692 0
	.cfi_startproc
	pushq	%rbp
	.cfi_def_cfa_offset 16
	.cfi_offset %rbp, -16
	movq	%rsp, %rbp
	.cfi_def_cfa_register %rbp
	subq	$128, %rsp
	movq	%rdi, %rax
	movq	%rsi, -48(%rbp)
	movq	%rsi, -104(%rbp)
	movq	%rdi, -112(%rbp)
	movq	%rax, -120(%rbp)
	leaq	-96(%rbp), %rax
	movq	%rax, -16(%rbp)
	movq	%rax, -8(%rbp)
	movq	%rax, -128(%rbp)
	movq	-104(%rbp), %rdi
	movq	-128(%rbp), %rsi
Ltmp426:
	.loc	21 702 9 prologue_end
	movl	$1, %edx
	callq	__ZN4core10intrinsics19copy_nonoverlapping17h88adfb1c7a1293b6E
	.loc	21 703 9
	movq	-96(%rbp), %rax
	movq	%rax, -72(%rbp)
	movq	-88(%rbp), %rax
	movq	%rax, -64(%rbp)
	movq	-80(%rbp), %rax
	movq	%rax, -56(%rbp)
Ltmp427:
	.loc	22 501 38
	movq	-72(%rbp), %rax
	movq	%rax, -40(%rbp)
	movq	-64(%rbp), %rax
	movq	%rax, -32(%rbp)
	movq	-56(%rbp), %rax
	movq	%rax, -24(%rbp)
Ltmp428:
	.loc	4 101 9
	movq	-40(%rbp), %rax
	movq	-112(%rbp), %rcx
	movq	%rax, (%rcx)
	movq	-32(%rbp), %rax
	movq	%rax, 8(%rcx)
	movq	-24(%rbp), %rax
	movq	%rax, 16(%rcx)
Ltmp429:
	.loc	4 0 9 is_stmt 0
	movq	-120(%rbp), %rax
	.loc	21 705 2 is_stmt 1
	addq	$128, %rsp
	popq	%rbp
	retq
Ltmp430:
Lfunc_end120:
	.cfi_endproc

	.p2align	4, 0x90
__ZN4core3ptr4read17h7520d847c6e061f0E:
Lfunc_begin121:
	.loc	21 692 0
	.cfi_startproc
	pushq	%rbp
	.cfi_def_cfa_offset 16
	.cfi_offset %rbp, -16
	movq	%rsp, %rbp
	.cfi_def_cfa_register %rbp
	subq	$128, %rsp
	movq	%rdi, %rax
	movq	%rsi, -48(%rbp)
	movq	%rsi, -104(%rbp)
	movq	%rdi, -112(%rbp)
	movq	%rax, -120(%rbp)
	leaq	-96(%rbp), %rax
	movq	%rax, -16(%rbp)
	movq	%rax, -8(%rbp)
	movq	%rax, -128(%rbp)
	movq	-104(%rbp), %rdi
	movq	-128(%rbp), %rsi
Ltmp431:
	.loc	21 702 9 prologue_end
	movl	$1, %edx
	callq	__ZN4core10intrinsics19copy_nonoverlapping17hd65de80ed47975f3E
	.loc	21 703 9
	movq	-96(%rbp), %rax
	movq	%rax, -72(%rbp)
	movq	-88(%rbp), %rax
	movq	%rax, -64(%rbp)
	movq	-80(%rbp), %rax
	movq	%rax, -56(%rbp)
Ltmp432:
	.loc	22 501 38
	movq	-72(%rbp), %rax
	movq	%rax, -40(%rbp)
	movq	-64(%rbp), %rax
	movq	%rax, -32(%rbp)
	movq	-56(%rbp), %rax
	movq	%rax, -24(%rbp)
Ltmp433:
	.loc	4 101 9
	movq	-40(%rbp), %rax
	movq	-112(%rbp), %rcx
	movq	%rax, (%rcx)
	movq	-32(%rbp), %rax
	movq	%rax, 8(%rcx)
	movq	-24(%rbp), %rax
	movq	%rax, 16(%rcx)
Ltmp434:
	.loc	4 0 9 is_stmt 0
	movq	-120(%rbp), %rax
	.loc	21 705 2 is_stmt 1
	addq	$128, %rsp
	popq	%rbp
	retq
Ltmp435:
Lfunc_end121:
	.cfi_endproc

	.p2align	4, 0x90
__ZN4core3ptr4read17h7d5a38c82cfe30aaE:
Lfunc_begin122:
	.loc	21 692 0
	.cfi_startproc
	pushq	%rbp
	.cfi_def_cfa_offset 16
	.cfi_offset %rbp, -16
	movq	%rsp, %rbp
	.cfi_def_cfa_register %rbp
	subq	$128, %rsp
	movq	%rdi, -72(%rbp)
Ltmp436:
	.loc	22 272 6 prologue_end
	movq	-64(%rbp), %rax
	movq	-56(%rbp), %rcx
Ltmp437:
	.loc	21 694 19
	movq	%rcx, -80(%rbp)
	movq	%rax, -88(%rbp)
	movq	%rdi, -96(%rbp)
	.loc	21 0 19 is_stmt 0
	leaq	-88(%rbp), %rax
	movq	%rax, -16(%rbp)
	movq	%rax, -8(%rbp)
	movq	%rax, -104(%rbp)
	movq	-96(%rbp), %rdi
	movq	-104(%rbp), %rsi
Ltmp438:
	.loc	21 702 9 is_stmt 1
	movl	$1, %edx
	callq	__ZN4core10intrinsics19copy_nonoverlapping17hab2511eb1d3e8d06E
	.loc	21 703 9
	movq	-88(%rbp), %rax
	movq	-80(%rbp), %rcx
	movq	%rax, -48(%rbp)
	movq	%rcx, -40(%rbp)
	movq	%rax, -32(%rbp)
	movq	%rcx, -24(%rbp)
	movq	%rax, -112(%rbp)
	movq	%rcx, -120(%rbp)
Ltmp439:
	.loc	21 0 9 is_stmt 0
	movq	-112(%rbp), %rax
	movq	-120(%rbp), %rdx
	.loc	21 705 2 is_stmt 1
	addq	$128, %rsp
	popq	%rbp
	retq
Ltmp440:
Lfunc_end122:
	.cfi_endproc

	.p2align	4, 0x90
__ZN4core3ptr4read17h806c590fb7d0530cE:
Lfunc_begin123:
	.loc	21 692 0
	.cfi_startproc
	pushq	%rbp
	.cfi_def_cfa_offset 16
	.cfi_offset %rbp, -16
	movq	%rsp, %rbp
	.cfi_def_cfa_register %rbp
	subq	$128, %rsp
	movq	%rdi, %rax
	movq	%rsi, -48(%rbp)
	movq	%rsi, -104(%rbp)
	movq	%rdi, -112(%rbp)
	movq	%rax, -120(%rbp)
	leaq	-96(%rbp), %rax
	movq	%rax, -16(%rbp)
	movq	%rax, -8(%rbp)
	movq	%rax, -128(%rbp)
	movq	-104(%rbp), %rdi
	movq	-128(%rbp), %rsi
Ltmp441:
	.loc	21 702 9 prologue_end
	movl	$1, %edx
	callq	__ZN4core10intrinsics19copy_nonoverlapping17hb652b189bc9dc4c2E
	.loc	21 703 9
	movq	-96(%rbp), %rax
	movq	%rax, -72(%rbp)
	movq	-88(%rbp), %rax
	movq	%rax, -64(%rbp)
	movq	-80(%rbp), %rax
	movq	%rax, -56(%rbp)
Ltmp442:
	.loc	22 501 38
	movq	-72(%rbp), %rax
	movq	%rax, -40(%rbp)
	movq	-64(%rbp), %rax
	movq	%rax, -32(%rbp)
	movq	-56(%rbp), %rax
	movq	%rax, -24(%rbp)
Ltmp443:
	.loc	4 101 9
	movq	-40(%rbp), %rax
	movq	-112(%rbp), %rcx
	movq	%rax, (%rcx)
	movq	-32(%rbp), %rax
	movq	%rax, 8(%rcx)
	movq	-24(%rbp), %rax
	movq	%rax, 16(%rcx)
Ltmp444:
	.loc	4 0 9 is_stmt 0
	movq	-120(%rbp), %rax
	.loc	21 705 2 is_stmt 1
	addq	$128, %rsp
	popq	%rbp
	retq
Ltmp445:
Lfunc_end123:
	.cfi_endproc

	.p2align	4, 0x90
__ZN4core3ptr4read17ha50a374910feaec0E:
Lfunc_begin124:
	.loc	21 692 0
	.cfi_startproc
	pushq	%rbp
	.cfi_def_cfa_offset 16
	.cfi_offset %rbp, -16
	movq	%rsp, %rbp
	.cfi_def_cfa_register %rbp
	subq	$128, %rsp
	movq	%rdi, %rax
	movq	%rsi, -48(%rbp)
	movq	%rsi, -104(%rbp)
	movq	%rdi, -112(%rbp)
	movq	%rax, -120(%rbp)
	leaq	-96(%rbp), %rax
	movq	%rax, -16(%rbp)
	movq	%rax, -8(%rbp)
	movq	%rax, -128(%rbp)
	movq	-104(%rbp), %rdi
	movq	-128(%rbp), %rsi
Ltmp446:
	.loc	21 702 9 prologue_end
	movl	$1, %edx
	callq	__ZN4core10intrinsics19copy_nonoverlapping17hee0b568ae43cc7ecE
	.loc	21 703 9
	movq	-96(%rbp), %rax
	movq	%rax, -72(%rbp)
	movq	-88(%rbp), %rax
	movq	%rax, -64(%rbp)
	movq	-80(%rbp), %rax
	movq	%rax, -56(%rbp)
Ltmp447:
	.loc	22 501 38
	movq	-72(%rbp), %rax
	movq	%rax, -40(%rbp)
	movq	-64(%rbp), %rax
	movq	%rax, -32(%rbp)
	movq	-56(%rbp), %rax
	movq	%rax, -24(%rbp)
Ltmp448:
	.loc	4 101 9
	movq	-40(%rbp), %rax
	movq	-112(%rbp), %rcx
	movq	%rax, (%rcx)
	movq	-32(%rbp), %rax
	movq	%rax, 8(%rcx)
	movq	-24(%rbp), %rax
	movq	%rax, 16(%rcx)
Ltmp449:
	.loc	4 0 9 is_stmt 0
	movq	-120(%rbp), %rax
	.loc	21 705 2 is_stmt 1
	addq	$128, %rsp
	popq	%rbp
	retq
Ltmp450:
Lfunc_end124:
	.cfi_endproc

	.p2align	4, 0x90
__ZN4core3ptr4read17hd60476cdab12f8c7E:
Lfunc_begin125:
	.loc	21 692 0
	.cfi_startproc
	pushq	%rbp
	.cfi_def_cfa_offset 16
	.cfi_offset %rbp, -16
	movq	%rsp, %rbp
	.cfi_def_cfa_register %rbp
	subq	$160, %rsp
	movq	%rdi, %rax
	movq	%rsi, -56(%rbp)
	movq	%rsi, -128(%rbp)
	movq	%rdi, -136(%rbp)
	movq	%rax, -144(%rbp)
	leaq	-120(%rbp), %rax
	movq	%rax, -16(%rbp)
	movq	%rax, -8(%rbp)
	movq	%rax, -152(%rbp)
	movq	-128(%rbp), %rdi
	movq	-152(%rbp), %rsi
Ltmp451:
	.loc	21 702 9 prologue_end
	movl	$1, %edx
	callq	__ZN4core10intrinsics19copy_nonoverlapping17he1ec528f40df0181E
	.loc	21 703 9
	movq	-120(%rbp), %rax
	movq	%rax, -88(%rbp)
	movq	-112(%rbp), %rax
	movq	%rax, -80(%rbp)
	movq	-104(%rbp), %rax
	movq	%rax, -72(%rbp)
	movq	-96(%rbp), %rax
	movq	%rax, -64(%rbp)
Ltmp452:
	.loc	22 501 38
	movq	-88(%rbp), %rax
	movq	%rax, -48(%rbp)
	movq	-80(%rbp), %rax
	movq	%rax, -40(%rbp)
	movq	-72(%rbp), %rax
	movq	%rax, -32(%rbp)
	movq	-64(%rbp), %rax
	movq	%rax, -24(%rbp)
Ltmp453:
	.loc	4 101 9
	movq	-48(%rbp), %rax
	movq	-136(%rbp), %rcx
	movq	%rax, (%rcx)
	movq	-40(%rbp), %rax
	movq	%rax, 8(%rcx)
	movq	-32(%rbp), %rax
	movq	%rax, 16(%rcx)
	movq	-24(%rbp), %rax
	movq	%rax, 24(%rcx)
Ltmp454:
	.loc	4 0 9 is_stmt 0
	movq	-144(%rbp), %rax
	.loc	21 705 2 is_stmt 1
	addq	$160, %rsp
	popq	%rbp
	retq
Ltmp455:
Lfunc_end125:
	.cfi_endproc

	.p2align	4, 0x90
__ZN4core3ptr4read17hd7bd0a6b4c7804bfE:
Lfunc_begin126:
	.loc	21 692 0
	.cfi_startproc
	pushq	%rbp
	.cfi_def_cfa_offset 16
	.cfi_offset %rbp, -16
	movq	%rsp, %rbp
	.cfi_def_cfa_register %rbp
	subq	$160, %rsp
	movq	%rdi, %rax
	movq	%rsi, -56(%rbp)
	movq	%rsi, -128(%rbp)
	movq	%rdi, -136(%rbp)
	movq	%rax, -144(%rbp)
	leaq	-120(%rbp), %rax
	movq	%rax, -16(%rbp)
	movq	%rax, -8(%rbp)
	movq	%rax, -152(%rbp)
	movq	-128(%rbp), %rdi
	movq	-152(%rbp), %rsi
Ltmp456:
	.loc	21 702 9 prologue_end
	movl	$1, %edx
	callq	__ZN4core10intrinsics19copy_nonoverlapping17h3ce23c7424cee6c4E
	.loc	21 703 9
	movq	-120(%rbp), %rax
	movq	%rax, -88(%rbp)
	movq	-112(%rbp), %rax
	movq	%rax, -80(%rbp)
	movq	-104(%rbp), %rax
	movq	%rax, -72(%rbp)
	movq	-96(%rbp), %rax
	movq	%rax, -64(%rbp)
Ltmp457:
	.loc	22 501 38
	movq	-88(%rbp), %rax
	movq	%rax, -48(%rbp)
	movq	-80(%rbp), %rax
	movq	%rax, -40(%rbp)
	movq	-72(%rbp), %rax
	movq	%rax, -32(%rbp)
	movq	-64(%rbp), %rax
	movq	%rax, -24(%rbp)
Ltmp458:
	.loc	4 101 9
	movq	-48(%rbp), %rax
	movq	-136(%rbp), %rcx
	movq	%rax, (%rcx)
	movq	-40(%rbp), %rax
	movq	%rax, 8(%rcx)
	movq	-32(%rbp), %rax
	movq	%rax, 16(%rcx)
	movq	-24(%rbp), %rax
	movq	%rax, 24(%rcx)
Ltmp459:
	.loc	4 0 9 is_stmt 0
	movq	-144(%rbp), %rax
	.loc	21 705 2 is_stmt 1
	addq	$160, %rsp
	popq	%rbp
	retq
Ltmp460:
Lfunc_end126:
	.cfi_endproc

	.p2align	4, 0x90
__ZN4core3ptr5write17h0fe91745156177f1E:
Lfunc_begin127:
	.loc	21 895 0
	.cfi_startproc
	pushq	%rbp
	.cfi_def_cfa_offset 16
	.cfi_offset %rbp, -16
	movq	%rsp, %rbp
	.cfi_def_cfa_register %rbp
	subq	$16, %rsp
	movq	%rdi, -8(%rbp)
Ltmp461:
	.loc	21 901 51 prologue_end
	movq	(%rsi), %rax
	movq	%rax, (%rdi)
	movq	8(%rsi), %rax
	movq	%rax, 8(%rdi)
	movq	16(%rsi), %rax
	movq	%rax, 16(%rdi)
	movq	24(%rsi), %rax
	movq	%rax, 24(%rdi)
	.loc	21 902 2
	addq	$16, %rsp
	popq	%rbp
	retq
Ltmp462:
Lfunc_end127:
	.cfi_endproc

	.p2align	4, 0x90
__ZN4core3ptr5write17h4d4560b61b94a8edE:
Lfunc_begin128:
	.loc	21 895 0
	.cfi_startproc
	pushq	%rbp
	.cfi_def_cfa_offset 16
	.cfi_offset %rbp, -16
	movq	%rsp, %rbp
	.cfi_def_cfa_register %rbp
	subq	$32, %rsp
	movq	%rdi, -24(%rbp)
	movq	%rsi, -16(%rbp)
	movq	%rdx, -8(%rbp)
Ltmp463:
	.loc	21 901 51 prologue_end
	movq	%rsi, (%rdi)
	movq	%rdx, 8(%rdi)
	.loc	21 902 2
	addq	$32, %rsp
	popq	%rbp
	retq
Ltmp464:
Lfunc_end128:
	.cfi_endproc

	.p2align	4, 0x90
__ZN4core3ptr5write17h95a6c7fa3c8cbe07E:
Lfunc_begin129:
	.loc	21 895 0
	.cfi_startproc
	pushq	%rbp
	.cfi_def_cfa_offset 16
	.cfi_offset %rbp, -16
	movq	%rsp, %rbp
	.cfi_def_cfa_register %rbp
	subq	$32, %rsp
	movq	%rdi, -24(%rbp)
	movq	%rsi, -16(%rbp)
	movq	%rdx, -8(%rbp)
Ltmp465:
	.loc	21 901 51 prologue_end
	movq	%rsi, (%rdi)
	movq	%rdx, 8(%rdi)
	.loc	21 902 2
	addq	$32, %rsp
	popq	%rbp
	retq
Ltmp466:
Lfunc_end129:
	.cfi_endproc

	.p2align	4, 0x90
__ZN4core3ptr6unique15Unique$LT$T$GT$13new_unchecked17ha4135ee58dfa84c3E:
Lfunc_begin130:
	.file	23 "/rustc/6c8927b0cf80ceee19386026cf9d7fd4fd9d486f/src/libcore/ptr/unique.rs"
	.loc	23 89 0
	.cfi_startproc
	pushq	%rbp
	.cfi_def_cfa_offset 16
	.cfi_offset %rbp, -16
	movq	%rsp, %rbp
	.cfi_def_cfa_register %rbp
	subq	$24, %rsp
	movq	%rdi, -8(%rbp)
Ltmp467:
	.loc	23 91 18 prologue_end
	movq	%rdi, -24(%rbp)
	.loc	23 92 6
	movq	-24(%rbp), %rax
	addq	$24, %rsp
	popq	%rbp
	retq
Ltmp468:
Lfunc_end130:
	.cfi_endproc

	.p2align	4, 0x90
__ZN4core3ptr6unique15Unique$LT$T$GT$4cast17h085d40a17edc2fbaE:
Lfunc_begin131:
	.loc	23 137 0
	.cfi_startproc
	pushq	%rbp
	.cfi_def_cfa_offset 16
	.cfi_offset %rbp, -16
	movq	%rsp, %rbp
	.cfi_def_cfa_register %rbp
	subq	$32, %rsp
	movq	%rdi, -16(%rbp)
	movq	%rsi, -8(%rbp)
Ltmp469:
	.loc	23 141 40 prologue_end
	callq	__ZN4core3ptr6unique15Unique$LT$T$GT$6as_ptr17h2cc15e1cc05a8acfE
	movq	%rax, -24(%rbp)
	.loc	23 0 40 is_stmt 0
	movq	-24(%rbp), %rax
	.loc	23 141 18
	movq	%rax, %rdi
	callq	__ZN4core3ptr6unique15Unique$LT$T$GT$13new_unchecked17ha4135ee58dfa84c3E
	movq	%rax, -32(%rbp)
	.loc	23 0 18
	movq	-32(%rbp), %rax
	.loc	23 142 6 is_stmt 1
	addq	$32, %rsp
	popq	%rbp
	retq
Ltmp470:
Lfunc_end131:
	.cfi_endproc

	.p2align	4, 0x90
__ZN4core3ptr6unique15Unique$LT$T$GT$4cast17h0bd7589a2475d990E:
Lfunc_begin132:
	.loc	23 137 0
	.cfi_startproc
	pushq	%rbp
	.cfi_def_cfa_offset 16
	.cfi_offset %rbp, -16
	movq	%rsp, %rbp
	.cfi_def_cfa_register %rbp
	subq	$32, %rsp
	movq	%rdi, -8(%rbp)
Ltmp471:
	.loc	23 141 40 prologue_end
	callq	__ZN4core3ptr6unique15Unique$LT$T$GT$6as_ptr17h20d10d0d1abfec7aE
	movq	%rax, -16(%rbp)
	.loc	23 0 40 is_stmt 0
	movq	-16(%rbp), %rdi
	.loc	23 141 18
	callq	__ZN4core3ptr6unique15Unique$LT$T$GT$13new_unchecked17ha4135ee58dfa84c3E
	movq	%rax, -24(%rbp)
	.loc	23 0 18
	movq	-24(%rbp), %rax
	.loc	23 142 6 is_stmt 1
	addq	$32, %rsp
	popq	%rbp
	retq
Ltmp472:
Lfunc_end132:
	.cfi_endproc

	.p2align	4, 0x90
__ZN4core3ptr6unique15Unique$LT$T$GT$4cast17h4d7d90f5b6e9a21cE:
Lfunc_begin133:
	.loc	23 137 0
	.cfi_startproc
	pushq	%rbp
	.cfi_def_cfa_offset 16
	.cfi_offset %rbp, -16
	movq	%rsp, %rbp
	.cfi_def_cfa_register %rbp
	subq	$32, %rsp
	movq	%rdi, -16(%rbp)
	movq	%rsi, -8(%rbp)
Ltmp473:
	.loc	23 141 40 prologue_end
	callq	__ZN4core3ptr6unique15Unique$LT$T$GT$6as_ptr17h0457cb7488d3f13bE
	movq	%rax, -24(%rbp)
	.loc	23 0 40 is_stmt 0
	movq	-24(%rbp), %rax
	.loc	23 141 18
	movq	%rax, %rdi
	callq	__ZN4core3ptr6unique15Unique$LT$T$GT$13new_unchecked17ha4135ee58dfa84c3E
	movq	%rax, -32(%rbp)
	.loc	23 0 18
	movq	-32(%rbp), %rax
	.loc	23 142 6 is_stmt 1
	addq	$32, %rsp
	popq	%rbp
	retq
Ltmp474:
Lfunc_end133:
	.cfi_endproc

	.p2align	4, 0x90
__ZN4core3ptr6unique15Unique$LT$T$GT$4cast17h6afdccbbf52d8443E:
Lfunc_begin134:
	.loc	23 137 0
	.cfi_startproc
	pushq	%rbp
	.cfi_def_cfa_offset 16
	.cfi_offset %rbp, -16
	movq	%rsp, %rbp
	.cfi_def_cfa_register %rbp
	subq	$32, %rsp
	movq	%rdi, -8(%rbp)
Ltmp475:
	.loc	23 141 40 prologue_end
	callq	__ZN4core3ptr6unique15Unique$LT$T$GT$6as_ptr17h15b2fb3b672f2d7cE
	movq	%rax, -16(%rbp)
	.loc	23 0 40 is_stmt 0
	movq	-16(%rbp), %rax
	.loc	23 141 18
	movq	%rax, %rdi
	callq	__ZN4core3ptr6unique15Unique$LT$T$GT$13new_unchecked17ha4135ee58dfa84c3E
	movq	%rax, -24(%rbp)
	.loc	23 0 18
	movq	-24(%rbp), %rax
	.loc	23 142 6 is_stmt 1
	addq	$32, %rsp
	popq	%rbp
	retq
Ltmp476:
Lfunc_end134:
	.cfi_endproc

	.p2align	4, 0x90
__ZN4core3ptr6unique15Unique$LT$T$GT$4cast17h897cb63ac482de6eE:
Lfunc_begin135:
	.loc	23 137 0
	.cfi_startproc
	pushq	%rbp
	.cfi_def_cfa_offset 16
	.cfi_offset %rbp, -16
	movq	%rsp, %rbp
	.cfi_def_cfa_register %rbp
	subq	$32, %rsp
	movq	%rdi, -8(%rbp)
Ltmp477:
	.loc	23 141 40 prologue_end
	callq	__ZN4core3ptr6unique15Unique$LT$T$GT$6as_ptr17h45e37923890e4769E
	movq	%rax, -16(%rbp)
	.loc	23 0 40 is_stmt 0
	movq	-16(%rbp), %rax
	.loc	23 141 18
	movq	%rax, %rdi
	callq	__ZN4core3ptr6unique15Unique$LT$T$GT$13new_unchecked17ha4135ee58dfa84c3E
	movq	%rax, -24(%rbp)
	.loc	23 0 18
	movq	-24(%rbp), %rax
	.loc	23 142 6 is_stmt 1
	addq	$32, %rsp
	popq	%rbp
	retq
Ltmp478:
Lfunc_end135:
	.cfi_endproc

	.p2align	4, 0x90
__ZN4core3ptr6unique15Unique$LT$T$GT$4cast17h8cc6418585f753e4E:
Lfunc_begin136:
	.loc	23 137 0
	.cfi_startproc
	pushq	%rbp
	.cfi_def_cfa_offset 16
	.cfi_offset %rbp, -16
	movq	%rsp, %rbp
	.cfi_def_cfa_register %rbp
	subq	$32, %rsp
	movq	%rdi, -16(%rbp)
	movq	%rsi, -8(%rbp)
Ltmp479:
	.loc	23 141 40 prologue_end
	callq	__ZN4core3ptr6unique15Unique$LT$T$GT$6as_ptr17he0300ea0519fd19bE
	movq	%rax, -24(%rbp)
	.loc	23 0 40 is_stmt 0
	movq	-24(%rbp), %rax
	.loc	23 141 18
	movq	%rax, %rdi
	callq	__ZN4core3ptr6unique15Unique$LT$T$GT$13new_unchecked17ha4135ee58dfa84c3E
	movq	%rax, -32(%rbp)
	.loc	23 0 18
	movq	-32(%rbp), %rax
	.loc	23 142 6 is_stmt 1
	addq	$32, %rsp
	popq	%rbp
	retq
Ltmp480:
Lfunc_end136:
	.cfi_endproc

	.p2align	4, 0x90
__ZN4core3ptr6unique15Unique$LT$T$GT$4cast17ha4a6a98067b0413cE:
Lfunc_begin137:
	.loc	23 137 0
	.cfi_startproc
	pushq	%rbp
	.cfi_def_cfa_offset 16
	.cfi_offset %rbp, -16
	movq	%rsp, %rbp
	.cfi_def_cfa_register %rbp
	subq	$32, %rsp
	movq	%rdi, -8(%rbp)
Ltmp481:
	.loc	23 141 40 prologue_end
	callq	__ZN4core3ptr6unique15Unique$LT$T$GT$6as_ptr17h6cc8e426c471460eE
	movq	%rax, -16(%rbp)
	.loc	23 0 40 is_stmt 0
	movq	-16(%rbp), %rax
	.loc	23 141 18
	movq	%rax, %rdi
	callq	__ZN4core3ptr6unique15Unique$LT$T$GT$13new_unchecked17ha4135ee58dfa84c3E
	movq	%rax, -24(%rbp)
	.loc	23 0 18
	movq	-24(%rbp), %rax
	.loc	23 142 6 is_stmt 1
	addq	$32, %rsp
	popq	%rbp
	retq
Ltmp482:
Lfunc_end137:
	.cfi_endproc

	.p2align	4, 0x90
__ZN4core3ptr6unique15Unique$LT$T$GT$4cast17hab81dccb0005c2ccE:
Lfunc_begin138:
	.loc	23 137 0
	.cfi_startproc
	pushq	%rbp
	.cfi_def_cfa_offset 16
	.cfi_offset %rbp, -16
	movq	%rsp, %rbp
	.cfi_def_cfa_register %rbp
	subq	$32, %rsp
	movq	%rdi, -8(%rbp)
Ltmp483:
	.loc	23 141 40 prologue_end
	callq	__ZN4core3ptr6unique15Unique$LT$T$GT$6as_ptr17h87b9461dce636e9cE
	movq	%rax, -16(%rbp)
	.loc	23 0 40 is_stmt 0
	movq	-16(%rbp), %rax
	.loc	23 141 18
	movq	%rax, %rdi
	callq	__ZN4core3ptr6unique15Unique$LT$T$GT$13new_unchecked17ha4135ee58dfa84c3E
	movq	%rax, -24(%rbp)
	.loc	23 0 18
	movq	-24(%rbp), %rax
	.loc	23 142 6 is_stmt 1
	addq	$32, %rsp
	popq	%rbp
	retq
Ltmp484:
Lfunc_end138:
	.cfi_endproc

	.p2align	4, 0x90
__ZN4core3ptr6unique15Unique$LT$T$GT$4cast17hb87ab5572206d6d4E:
Lfunc_begin139:
	.loc	23 137 0
	.cfi_startproc
	pushq	%rbp
	.cfi_def_cfa_offset 16
	.cfi_offset %rbp, -16
	movq	%rsp, %rbp
	.cfi_def_cfa_register %rbp
	subq	$32, %rsp
	movq	%rdi, -16(%rbp)
	movq	%rsi, -8(%rbp)
Ltmp485:
	.loc	23 141 40 prologue_end
	callq	__ZN4core3ptr6unique15Unique$LT$T$GT$6as_ptr17h0f74b2a731d1b42eE
	movq	%rax, -24(%rbp)
	.loc	23 0 40 is_stmt 0
	movq	-24(%rbp), %rax
	.loc	23 141 18
	movq	%rax, %rdi
	callq	__ZN4core3ptr6unique15Unique$LT$T$GT$13new_unchecked17ha4135ee58dfa84c3E
	movq	%rax, -32(%rbp)
	.loc	23 0 18
	movq	-32(%rbp), %rax
	.loc	23 142 6 is_stmt 1
	addq	$32, %rsp
	popq	%rbp
	retq
Ltmp486:
Lfunc_end139:
	.cfi_endproc

	.p2align	4, 0x90
__ZN4core3ptr6unique15Unique$LT$T$GT$6as_ptr17h0457cb7488d3f13bE:
Lfunc_begin140:
	.loc	23 107 0
	.cfi_startproc
	pushq	%rbp
	.cfi_def_cfa_offset 16
	.cfi_offset %rbp, -16
	movq	%rsp, %rbp
	.cfi_def_cfa_register %rbp
	subq	$16, %rsp
	movq	%rdi, -16(%rbp)
	movq	%rsi, -8(%rbp)
Ltmp487:
	.loc	23 109 6 prologue_end
	movq	%rdi, %rax
	movq	%rsi, %rdx
	addq	$16, %rsp
	popq	%rbp
	retq
Ltmp488:
Lfunc_end140:
	.cfi_endproc

	.p2align	4, 0x90
__ZN4core3ptr6unique15Unique$LT$T$GT$6as_ptr17h0f74b2a731d1b42eE:
Lfunc_begin141:
	.loc	23 107 0
	.cfi_startproc
	pushq	%rbp
	.cfi_def_cfa_offset 16
	.cfi_offset %rbp, -16
	movq	%rsp, %rbp
	.cfi_def_cfa_register %rbp
	subq	$16, %rsp
	movq	%rdi, -16(%rbp)
	movq	%rsi, -8(%rbp)
Ltmp489:
	.loc	23 109 6 prologue_end
	movq	%rdi, %rax
	movq	%rsi, %rdx
	addq	$16, %rsp
	popq	%rbp
	retq
Ltmp490:
Lfunc_end141:
	.cfi_endproc

	.p2align	4, 0x90
__ZN4core3ptr6unique15Unique$LT$T$GT$6as_ptr17h15b2fb3b672f2d7cE:
Lfunc_begin142:
	.loc	23 107 0
	.cfi_startproc
	pushq	%rbp
	.cfi_def_cfa_offset 16
	.cfi_offset %rbp, -16
	movq	%rsp, %rbp
	.cfi_def_cfa_register %rbp
	pushq	%rax
	movq	%rdi, -8(%rbp)
Ltmp491:
	.loc	23 109 6 prologue_end
	movq	%rdi, %rax
	addq	$8, %rsp
	popq	%rbp
	retq
Ltmp492:
Lfunc_end142:
	.cfi_endproc

	.p2align	4, 0x90
__ZN4core3ptr6unique15Unique$LT$T$GT$6as_ptr17h20d10d0d1abfec7aE:
Lfunc_begin143:
	.loc	23 107 0
	.cfi_startproc
	pushq	%rbp
	.cfi_def_cfa_offset 16
	.cfi_offset %rbp, -16
	movq	%rsp, %rbp
	.cfi_def_cfa_register %rbp
	pushq	%rax
	movq	%rdi, -8(%rbp)
Ltmp493:
	.loc	23 109 6 prologue_end
	movq	%rdi, %rax
	addq	$8, %rsp
	popq	%rbp
	retq
Ltmp494:
Lfunc_end143:
	.cfi_endproc

	.p2align	4, 0x90
__ZN4core3ptr6unique15Unique$LT$T$GT$6as_ptr17h268fd328f55cd8f3E:
Lfunc_begin144:
	.loc	23 107 0
	.cfi_startproc
	pushq	%rbp
	.cfi_def_cfa_offset 16
	.cfi_offset %rbp, -16
	movq	%rsp, %rbp
	.cfi_def_cfa_register %rbp
	pushq	%rax
	movq	%rdi, -8(%rbp)
Ltmp495:
	.loc	23 109 6 prologue_end
	movq	%rdi, %rax
	addq	$8, %rsp
	popq	%rbp
	retq
Ltmp496:
Lfunc_end144:
	.cfi_endproc

	.p2align	4, 0x90
__ZN4core3ptr6unique15Unique$LT$T$GT$6as_ptr17h2cc15e1cc05a8acfE:
Lfunc_begin145:
	.loc	23 107 0
	.cfi_startproc
	pushq	%rbp
	.cfi_def_cfa_offset 16
	.cfi_offset %rbp, -16
	movq	%rsp, %rbp
	.cfi_def_cfa_register %rbp
	subq	$16, %rsp
	movq	%rdi, -16(%rbp)
	movq	%rsi, -8(%rbp)
Ltmp497:
	.loc	23 109 6 prologue_end
	movq	%rdi, %rax
	movq	%rsi, %rdx
	addq	$16, %rsp
	popq	%rbp
	retq
Ltmp498:
Lfunc_end145:
	.cfi_endproc

	.p2align	4, 0x90
__ZN4core3ptr6unique15Unique$LT$T$GT$6as_ptr17h45e37923890e4769E:
Lfunc_begin146:
	.loc	23 107 0
	.cfi_startproc
	pushq	%rbp
	.cfi_def_cfa_offset 16
	.cfi_offset %rbp, -16
	movq	%rsp, %rbp
	.cfi_def_cfa_register %rbp
	pushq	%rax
	movq	%rdi, -8(%rbp)
Ltmp499:
	.loc	23 109 6 prologue_end
	movq	%rdi, %rax
	addq	$8, %rsp
	popq	%rbp
	retq
Ltmp500:
Lfunc_end146:
	.cfi_endproc

	.p2align	4, 0x90
__ZN4core3ptr6unique15Unique$LT$T$GT$6as_ptr17h6cc8e426c471460eE:
Lfunc_begin147:
	.loc	23 107 0
	.cfi_startproc
	pushq	%rbp
	.cfi_def_cfa_offset 16
	.cfi_offset %rbp, -16
	movq	%rsp, %rbp
	.cfi_def_cfa_register %rbp
	pushq	%rax
	movq	%rdi, -8(%rbp)
Ltmp501:
	.loc	23 109 6 prologue_end
	movq	%rdi, %rax
	addq	$8, %rsp
	popq	%rbp
	retq
Ltmp502:
Lfunc_end147:
	.cfi_endproc

	.p2align	4, 0x90
__ZN4core3ptr6unique15Unique$LT$T$GT$6as_ptr17h87b9461dce636e9cE:
Lfunc_begin148:
	.loc	23 107 0
	.cfi_startproc
	pushq	%rbp
	.cfi_def_cfa_offset 16
	.cfi_offset %rbp, -16
	movq	%rsp, %rbp
	.cfi_def_cfa_register %rbp
	pushq	%rax
	movq	%rdi, -8(%rbp)
Ltmp503:
	.loc	23 109 6 prologue_end
	movq	%rdi, %rax
	addq	$8, %rsp
	popq	%rbp
	retq
Ltmp504:
Lfunc_end148:
	.cfi_endproc

	.p2align	4, 0x90
__ZN4core3ptr6unique15Unique$LT$T$GT$6as_ptr17he0300ea0519fd19bE:
Lfunc_begin149:
	.loc	23 107 0
	.cfi_startproc
	pushq	%rbp
	.cfi_def_cfa_offset 16
	.cfi_offset %rbp, -16
	movq	%rsp, %rbp
	.cfi_def_cfa_register %rbp
	subq	$16, %rsp
	movq	%rdi, -16(%rbp)
	movq	%rsi, -8(%rbp)
Ltmp505:
	.loc	23 109 6 prologue_end
	movq	%rdi, %rax
	movq	%rsi, %rdx
	addq	$16, %rsp
	popq	%rbp
	retq
Ltmp506:
Lfunc_end149:
	.cfi_endproc

	.p2align	4, 0x90
__ZN4core3ptr6unique15Unique$LT$T$GT$6as_ref17h1bbeddf37dfb495eE:
Lfunc_begin150:
	.loc	23 117 0
	.cfi_startproc
	pushq	%rbp
	.cfi_def_cfa_offset 16
	.cfi_offset %rbp, -16
	movq	%rsp, %rbp
	.cfi_def_cfa_register %rbp
	subq	$32, %rsp
	movq	%rdi, -8(%rbp)
Ltmp507:
	.loc	23 120 20 prologue_end
	movq	(%rdi), %rax
	movq	8(%rdi), %rsi
	movq	%rax, %rdi
	callq	__ZN4core3ptr6unique15Unique$LT$T$GT$6as_ptr17h0457cb7488d3f13bE
	movq	%rax, -16(%rbp)
	movq	%rdx, -24(%rbp)
	.loc	23 0 20 is_stmt 0
	movq	-16(%rbp), %rax
	movq	-24(%rbp), %rdx
	.loc	23 121 6 is_stmt 1
	addq	$32, %rsp
	popq	%rbp
	retq
Ltmp508:
Lfunc_end150:
	.cfi_endproc

	.p2align	4, 0x90
__ZN4core3ptr6unique15Unique$LT$T$GT$6as_ref17h37df57fb03cdd308E:
Lfunc_begin151:
	.loc	23 117 0
	.cfi_startproc
	pushq	%rbp
	.cfi_def_cfa_offset 16
	.cfi_offset %rbp, -16
	movq	%rsp, %rbp
	.cfi_def_cfa_register %rbp
	subq	$32, %rsp
	movq	%rdi, -8(%rbp)
Ltmp509:
	.loc	23 120 20 prologue_end
	movq	(%rdi), %rax
	movq	8(%rdi), %rsi
	movq	%rax, %rdi
	callq	__ZN4core3ptr6unique15Unique$LT$T$GT$6as_ptr17h0f74b2a731d1b42eE
	movq	%rax, -16(%rbp)
	movq	%rdx, -24(%rbp)
	.loc	23 0 20 is_stmt 0
	movq	-16(%rbp), %rax
	movq	-24(%rbp), %rdx
	.loc	23 121 6 is_stmt 1
	addq	$32, %rsp
	popq	%rbp
	retq
Ltmp510:
Lfunc_end151:
	.cfi_endproc

	.p2align	4, 0x90
__ZN4core3ptr6unique15Unique$LT$T$GT$6as_ref17h953ed8d25d63e5c8E:
Lfunc_begin152:
	.loc	23 117 0
	.cfi_startproc
	pushq	%rbp
	.cfi_def_cfa_offset 16
	.cfi_offset %rbp, -16
	movq	%rsp, %rbp
	.cfi_def_cfa_register %rbp
	subq	$32, %rsp
	movq	%rdi, -8(%rbp)
Ltmp511:
	.loc	23 120 20 prologue_end
	movq	(%rdi), %rax
	movq	8(%rdi), %rsi
	movq	%rax, %rdi
	callq	__ZN4core3ptr6unique15Unique$LT$T$GT$6as_ptr17h2cc15e1cc05a8acfE
	movq	%rax, -16(%rbp)
	movq	%rdx, -24(%rbp)
	.loc	23 0 20 is_stmt 0
	movq	-16(%rbp), %rax
	movq	-24(%rbp), %rdx
	.loc	23 121 6 is_stmt 1
	addq	$32, %rsp
	popq	%rbp
	retq
Ltmp512:
Lfunc_end152:
	.cfi_endproc

	.p2align	4, 0x90
__ZN4core3ptr6unique15Unique$LT$T$GT$6as_ref17he8e9cfb6ac69b7f5E:
Lfunc_begin153:
	.loc	23 117 0
	.cfi_startproc
	pushq	%rbp
	.cfi_def_cfa_offset 16
	.cfi_offset %rbp, -16
	movq	%rsp, %rbp
	.cfi_def_cfa_register %rbp
	subq	$16, %rsp
	movq	%rdi, -8(%rbp)
Ltmp513:
	.loc	23 120 20 prologue_end
	movq	(%rdi), %rdi
	callq	__ZN4core3ptr6unique15Unique$LT$T$GT$6as_ptr17h45e37923890e4769E
	movq	%rax, -16(%rbp)
	.loc	23 0 20 is_stmt 0
	movq	-16(%rbp), %rax
	.loc	23 121 6 is_stmt 1
	addq	$16, %rsp
	popq	%rbp
	retq
Ltmp514:
Lfunc_end153:
	.cfi_endproc

	.p2align	4, 0x90
__ZN4core3ptr6unique15Unique$LT$T$GT$6as_ref17hfa08cf864fe9cbc3E:
Lfunc_begin154:
	.loc	23 117 0
	.cfi_startproc
	pushq	%rbp
	.cfi_def_cfa_offset 16
	.cfi_offset %rbp, -16
	movq	%rsp, %rbp
	.cfi_def_cfa_register %rbp
	subq	$32, %rsp
	movq	%rdi, -8(%rbp)
Ltmp515:
	.loc	23 120 20 prologue_end
	movq	(%rdi), %rax
	movq	8(%rdi), %rsi
	movq	%rax, %rdi
	callq	__ZN4core3ptr6unique15Unique$LT$T$GT$6as_ptr17he0300ea0519fd19bE
	movq	%rax, -16(%rbp)
	movq	%rdx, -24(%rbp)
	.loc	23 0 20 is_stmt 0
	movq	-16(%rbp), %rax
	movq	-24(%rbp), %rdx
	.loc	23 121 6 is_stmt 1
	addq	$32, %rsp
	popq	%rbp
	retq
Ltmp516:
Lfunc_end154:
	.cfi_endproc

	.p2align	4, 0x90
__ZN4core3ptr7mut_ptr31_$LT$impl$u20$$BP$mut$u20$T$GT$3add17h924bef6c22ed5e41E:
Lfunc_begin155:
	.file	24 "/rustc/6c8927b0cf80ceee19386026cf9d7fd4fd9d486f/src/libcore/ptr/mut_ptr.rs"
	.loc	24 529 0
	.cfi_startproc
	pushq	%rbp
	.cfi_def_cfa_offset 16
	.cfi_offset %rbp, -16
	movq	%rsp, %rbp
	.cfi_def_cfa_register %rbp
	subq	$32, %rsp
	movq	%rdi, -16(%rbp)
	movq	%rsi, -8(%rbp)
Ltmp517:
	.loc	24 534 18 prologue_end
	callq	__ZN4core3ptr7mut_ptr31_$LT$impl$u20$$BP$mut$u20$T$GT$6offset17h8235187179f25debE
	movq	%rax, -24(%rbp)
	.loc	24 0 18 is_stmt 0
	movq	-24(%rbp), %rax
	.loc	24 535 6 is_stmt 1
	addq	$32, %rsp
	popq	%rbp
	retq
Ltmp518:
Lfunc_end155:
	.cfi_endproc

	.p2align	4, 0x90
__ZN4core3ptr7mut_ptr31_$LT$impl$u20$$BP$mut$u20$T$GT$6offset17h8235187179f25debE:
Lfunc_begin156:
	.loc	24 158 0
	.cfi_startproc
	pushq	%rbp
	.cfi_def_cfa_offset 16
	.cfi_offset %rbp, -16
	movq	%rsp, %rbp
	.cfi_def_cfa_register %rbp
	subq	$32, %rsp
	movq	%rdi, -24(%rbp)
	movq	%rsi, -16(%rbp)
Ltmp519:
	.loc	24 165 18 prologue_end
	addq	%rsi, %rdi
	movq	%rdi, -8(%rbp)
	movq	-8(%rbp), %rax
	movq	%rax, -32(%rbp)
	.loc	24 0 18 is_stmt 0
	movq	-32(%rbp), %rax
	.loc	24 166 6 is_stmt 1
	addq	$32, %rsp
	popq	%rbp
	retq
Ltmp520:
Lfunc_end156:
	.cfi_endproc

	.p2align	4, 0x90
__ZN4core3ptr7mut_ptr31_$LT$impl$u20$$BP$mut$u20$T$GT$7is_null17h04abaa237545df57E:
Lfunc_begin157:
	.loc	24 26 0
	.cfi_startproc
	pushq	%rbp
	.cfi_def_cfa_offset 16
	.cfi_offset %rbp, -16
	movq	%rsp, %rbp
	.cfi_def_cfa_register %rbp
	subq	$16, %rsp
	movq	%rdi, -8(%rbp)
	movq	%rdi, -16(%rbp)
	movq	-16(%rbp), %rax
Ltmp521:
	.loc	24 29 9 prologue_end
	cmpq	$0, %rax
	sete	%cl
	.loc	24 30 6
	andb	$1, %cl
	movzbl	%cl, %edx
	movl	%edx, %eax
	addq	$16, %rsp
	popq	%rbp
	retq
Ltmp522:
Lfunc_end157:
	.cfi_endproc

	.p2align	4, 0x90
__ZN4core3ptr7mut_ptr31_$LT$impl$u20$$BP$mut$u20$T$GT$7is_null17h715ef93b0b54cd31E:
Lfunc_begin158:
	.loc	24 26 0
	.cfi_startproc
	pushq	%rbp
	.cfi_def_cfa_offset 16
	.cfi_offset %rbp, -16
	movq	%rsp, %rbp
	.cfi_def_cfa_register %rbp
	subq	$16, %rsp
	movq	%rdi, -8(%rbp)
	movq	%rdi, -16(%rbp)
	movq	-16(%rbp), %rax
Ltmp523:
	.loc	24 29 9 prologue_end
	cmpq	$0, %rax
	sete	%cl
	.loc	24 30 6
	andb	$1, %cl
	movzbl	%cl, %edx
	movl	%edx, %eax
	addq	$16, %rsp
	popq	%rbp
	retq
Ltmp524:
Lfunc_end158:
	.cfi_endproc

	.p2align	4, 0x90
__ZN4core3ptr7mut_ptr31_$LT$impl$u20$$BP$mut$u20$T$GT$7is_null17h9664b9dd9e670503E:
Lfunc_begin159:
	.loc	24 26 0
	.cfi_startproc
	pushq	%rbp
	.cfi_def_cfa_offset 16
	.cfi_offset %rbp, -16
	movq	%rsp, %rbp
	.cfi_def_cfa_register %rbp
	subq	$16, %rsp
	movq	%rdi, -8(%rbp)
	movq	%rdi, -16(%rbp)
	movq	-16(%rbp), %rax
Ltmp525:
	.loc	24 29 9 prologue_end
	cmpq	$0, %rax
	sete	%cl
	.loc	24 30 6
	andb	$1, %cl
	movzbl	%cl, %edx
	movl	%edx, %eax
	addq	$16, %rsp
	popq	%rbp
	retq
Ltmp526:
Lfunc_end159:
	.cfi_endproc

	.p2align	4, 0x90
__ZN4core3ptr7mut_ptr31_$LT$impl$u20$$BP$mut$u20$T$GT$7is_null17had5d73a622f37cffE:
Lfunc_begin160:
	.loc	24 26 0
	.cfi_startproc
	pushq	%rbp
	.cfi_def_cfa_offset 16
	.cfi_offset %rbp, -16
	movq	%rsp, %rbp
	.cfi_def_cfa_register %rbp
	subq	$16, %rsp
	movq	%rdi, -8(%rbp)
	movq	%rdi, -16(%rbp)
	movq	-16(%rbp), %rax
Ltmp527:
	.loc	24 29 9 prologue_end
	cmpq	$0, %rax
	sete	%cl
	.loc	24 30 6
	andb	$1, %cl
	movzbl	%cl, %edx
	movl	%edx, %eax
	addq	$16, %rsp
	popq	%rbp
	retq
Ltmp528:
Lfunc_end160:
	.cfi_endproc

	.p2align	4, 0x90
__ZN4core3ptr7mut_ptr31_$LT$impl$u20$$BP$mut$u20$T$GT$7is_null17hd6ce5fa55141bb7bE:
Lfunc_begin161:
	.loc	24 26 0
	.cfi_startproc
	pushq	%rbp
	.cfi_def_cfa_offset 16
	.cfi_offset %rbp, -16
	movq	%rsp, %rbp
	.cfi_def_cfa_register %rbp
	subq	$16, %rsp
	movq	%rdi, -8(%rbp)
	movq	%rdi, -16(%rbp)
	movq	-16(%rbp), %rax
Ltmp529:
	.loc	24 29 9 prologue_end
	cmpq	$0, %rax
	sete	%cl
	.loc	24 30 6
	andb	$1, %cl
	movzbl	%cl, %edx
	movl	%edx, %eax
	addq	$16, %rsp
	popq	%rbp
	retq
Ltmp530:
Lfunc_end161:
	.cfi_endproc

	.p2align	4, 0x90
__ZN4core3ptr7mut_ptr41_$LT$impl$u20$$BP$mut$u20$$u5b$T$u5d$$GT$10as_mut_ptr17hfc8d4c29313eb30eE:
Lfunc_begin162:
	.loc	24 1051 0
	.cfi_startproc
	pushq	%rbp
	.cfi_def_cfa_offset 16
	.cfi_offset %rbp, -16
	movq	%rsp, %rbp
	.cfi_def_cfa_register %rbp
	subq	$16, %rsp
	movq	%rdi, -16(%rbp)
	movq	%rsi, -8(%rbp)
Ltmp531:
	.loc	24 1053 6 prologue_end
	movq	%rdi, %rax
	addq	$16, %rsp
	popq	%rbp
	retq
Ltmp532:
Lfunc_end162:
	.cfi_endproc

	.p2align	4, 0x90
__ZN4core3ptr8non_null16NonNull$LT$T$GT$13new_unchecked17h64efe28f8b9a46e8E:
Lfunc_begin163:
	.loc	5 90 0
	.cfi_startproc
	pushq	%rbp
	.cfi_def_cfa_offset 16
	.cfi_offset %rbp, -16
	movq	%rsp, %rbp
	.cfi_def_cfa_register %rbp
	subq	$16, %rsp
	movq	%rdi, -8(%rbp)
Ltmp533:
	.loc	5 92 18 prologue_end
	movq	%rdi, -16(%rbp)
	.loc	5 93 6
	movq	-16(%rbp), %rax
	addq	$16, %rsp
	popq	%rbp
	retq
Ltmp534:
Lfunc_end163:
	.cfi_endproc

	.p2align	4, 0x90
__ZN4core3ptr8non_null16NonNull$LT$T$GT$13new_unchecked17hf44635e6c8cfe568E:
Lfunc_begin164:
	.loc	5 90 0
	.cfi_startproc
	pushq	%rbp
	.cfi_def_cfa_offset 16
	.cfi_offset %rbp, -16
	movq	%rsp, %rbp
	.cfi_def_cfa_register %rbp
	subq	$16, %rsp
	movq	%rdi, -8(%rbp)
Ltmp535:
	.loc	5 92 18 prologue_end
	movq	%rdi, -16(%rbp)
	.loc	5 93 6
	movq	-16(%rbp), %rax
	addq	$16, %rsp
	popq	%rbp
	retq
Ltmp536:
Lfunc_end164:
	.cfi_endproc

	.p2align	4, 0x90
__ZN4core3ptr8non_null16NonNull$LT$T$GT$3new17ha132721bf038ba10E:
Lfunc_begin165:
	.loc	5 98 0
	.cfi_startproc
	pushq	%rbp
	.cfi_def_cfa_offset 16
	.cfi_offset %rbp, -16
	movq	%rsp, %rbp
	.cfi_def_cfa_register %rbp
	subq	$48, %rsp
	movq	%rdi, -8(%rbp)
	movq	%rdi, -24(%rbp)
Ltmp537:
	.loc	5 99 13 prologue_end
	callq	__ZN4core3ptr7mut_ptr31_$LT$impl$u20$$BP$mut$u20$T$GT$7is_null17hd6ce5fa55141bb7bE
	movb	%al, -25(%rbp)
	.loc	5 0 13 is_stmt 0
	movb	-25(%rbp), %al
	.loc	5 99 12
	xorb	$-1, %al
	.loc	5 99 9
	testb	$1, %al
	jne	LBB165_3
	.loc	5 103 13 is_stmt 1
	movq	$0, -16(%rbp)
	.loc	5 99 9
	jmp	LBB165_5
LBB165_3:
	.loc	5 0 9 is_stmt 0
	movq	-24(%rbp), %rdi
	.loc	5 101 27 is_stmt 1
	callq	__ZN4core3ptr8non_null16NonNull$LT$T$GT$13new_unchecked17hf44635e6c8cfe568E
	movq	%rax, -40(%rbp)
	.loc	5 0 27 is_stmt 0
	movq	-40(%rbp), %rax
	.loc	5 101 13
	movq	%rax, -16(%rbp)
LBB165_5:
	.loc	5 105 6 is_stmt 1
	movq	-16(%rbp), %rax
	addq	$48, %rsp
	popq	%rbp
	retq
Ltmp538:
Lfunc_end165:
	.cfi_endproc

	.p2align	4, 0x90
__ZN4core3ptr8non_null16NonNull$LT$T$GT$3new17hd4afbcae061324a6E:
Lfunc_begin166:
	.loc	5 98 0
	.cfi_startproc
	pushq	%rbp
	.cfi_def_cfa_offset 16
	.cfi_offset %rbp, -16
	movq	%rsp, %rbp
	.cfi_def_cfa_register %rbp
	subq	$48, %rsp
	movq	%rdi, -8(%rbp)
	movq	%rdi, -24(%rbp)
Ltmp539:
	.loc	5 99 13 prologue_end
	callq	__ZN4core3ptr7mut_ptr31_$LT$impl$u20$$BP$mut$u20$T$GT$7is_null17h9664b9dd9e670503E
	movb	%al, -25(%rbp)
	.loc	5 0 13 is_stmt 0
	movb	-25(%rbp), %al
	.loc	5 99 12
	xorb	$-1, %al
	.loc	5 99 9
	testb	$1, %al
	jne	LBB166_3
	.loc	5 103 13 is_stmt 1
	movq	$0, -16(%rbp)
	.loc	5 99 9
	jmp	LBB166_5
LBB166_3:
	.loc	5 0 9 is_stmt 0
	movq	-24(%rbp), %rdi
	.loc	5 101 27 is_stmt 1
	callq	__ZN4core3ptr8non_null16NonNull$LT$T$GT$13new_unchecked17h64efe28f8b9a46e8E
	movq	%rax, -40(%rbp)
	.loc	5 0 27 is_stmt 0
	movq	-40(%rbp), %rax
	.loc	5 101 13
	movq	%rax, -16(%rbp)
LBB166_5:
	.loc	5 105 6 is_stmt 1
	movq	-16(%rbp), %rax
	addq	$48, %rsp
	popq	%rbp
	retq
Ltmp540:
Lfunc_end166:
	.cfi_endproc

	.p2align	4, 0x90
__ZN4core3ptr8non_null16NonNull$LT$T$GT$4cast17hc24e8d6a2ed44211E:
Lfunc_begin167:
	.loc	5 145 0
	.cfi_startproc
	pushq	%rbp
	.cfi_def_cfa_offset 16
	.cfi_offset %rbp, -16
	movq	%rsp, %rbp
	.cfi_def_cfa_register %rbp
	subq	$32, %rsp
	movq	%rdi, -8(%rbp)
Ltmp541:
	.loc	5 147 41 prologue_end
	callq	__ZN4core3ptr8non_null16NonNull$LT$T$GT$6as_ptr17hc7ff6ff18e0b15c0E
	movq	%rax, -16(%rbp)
	.loc	5 0 41 is_stmt 0
	movq	-16(%rbp), %rax
	.loc	5 147 18
	movq	%rax, %rdi
	callq	__ZN4core3ptr8non_null16NonNull$LT$T$GT$13new_unchecked17hf44635e6c8cfe568E
	movq	%rax, -24(%rbp)
	.loc	5 0 18
	movq	-24(%rbp), %rax
	.loc	5 148 6 is_stmt 1
	addq	$32, %rsp
	popq	%rbp
	retq
Ltmp542:
Lfunc_end167:
	.cfi_endproc

	.p2align	4, 0x90
__ZN4core3ptr8non_null16NonNull$LT$T$GT$6as_ptr17h2ed7ef851979ef6eE:
Lfunc_begin168:
	.loc	5 111 0
	.cfi_startproc
	pushq	%rbp
	.cfi_def_cfa_offset 16
	.cfi_offset %rbp, -16
	movq	%rsp, %rbp
	.cfi_def_cfa_register %rbp
	pushq	%rax
	movq	%rdi, -8(%rbp)
Ltmp543:
	.loc	5 113 6 prologue_end
	movq	%rdi, %rax
	addq	$8, %rsp
	popq	%rbp
	retq
Ltmp544:
Lfunc_end168:
	.cfi_endproc

	.p2align	4, 0x90
__ZN4core3ptr8non_null16NonNull$LT$T$GT$6as_ptr17hc7ff6ff18e0b15c0E:
Lfunc_begin169:
	.loc	5 111 0
	.cfi_startproc
	pushq	%rbp
	.cfi_def_cfa_offset 16
	.cfi_offset %rbp, -16
	movq	%rsp, %rbp
	.cfi_def_cfa_register %rbp
	pushq	%rax
	movq	%rdi, -8(%rbp)
Ltmp545:
	.loc	5 113 6 prologue_end
	movq	%rdi, %rax
	addq	$8, %rsp
	popq	%rbp
	retq
Ltmp546:
Lfunc_end169:
	.cfi_endproc

	.p2align	4, 0x90
__ZN4core3ptr8non_null16NonNull$LT$T$GT$6as_ref17h06e483840dfc7b6cE:
Lfunc_begin170:
	.loc	5 122 0
	.cfi_startproc
	pushq	%rbp
	.cfi_def_cfa_offset 16
	.cfi_offset %rbp, -16
	movq	%rsp, %rbp
	.cfi_def_cfa_register %rbp
	subq	$16, %rsp
	movq	%rdi, -8(%rbp)
Ltmp547:
	.loc	5 125 20 prologue_end
	movq	(%rdi), %rdi
	callq	__ZN4core3ptr8non_null16NonNull$LT$T$GT$6as_ptr17hc7ff6ff18e0b15c0E
	movq	%rax, -16(%rbp)
	.loc	5 0 20 is_stmt 0
	movq	-16(%rbp), %rax
	.loc	5 126 6 is_stmt 1
	addq	$16, %rsp
	popq	%rbp
	retq
Ltmp548:
Lfunc_end170:
	.cfi_endproc

	.p2align	4, 0x90
__ZN4core3ptr9const_ptr33_$LT$impl$u20$$BP$const$u20$T$GT$13guaranteed_eq17hdc4284e75d68b86eE:
Lfunc_begin171:
	.file	25 "/rustc/6c8927b0cf80ceee19386026cf9d7fd4fd9d486f/src/libcore/ptr/const_ptr.rs"
	.loc	25 327 0
	.cfi_startproc
	pushq	%rbp
	.cfi_def_cfa_offset 16
	.cfi_offset %rbp, -16
	movq	%rsp, %rbp
	.cfi_def_cfa_register %rbp
	subq	$32, %rsp
	movq	%rdi, -24(%rbp)
	movq	%rsi, -16(%rbp)
Ltmp549:
	.loc	25 331 9 prologue_end
	cmpq	%rsi, %rdi
	sete	%al
	andb	$1, %al
	movb	%al, -1(%rbp)
	movb	-1(%rbp), %al
	movb	%al, -25(%rbp)
	.loc	25 0 9 is_stmt 0
	movb	-25(%rbp), %al
	.loc	25 332 6 is_stmt 1
	andb	$1, %al
	movzbl	%al, %eax
	addq	$32, %rsp
	popq	%rbp
	retq
Ltmp550:
Lfunc_end171:
	.cfi_endproc

	.p2align	4, 0x90
__ZN4core3ptr9const_ptr33_$LT$impl$u20$$BP$const$u20$T$GT$3add17h01db47034b2c56d6E:
Lfunc_begin172:
	.loc	25 473 0
	.cfi_startproc
	pushq	%rbp
	.cfi_def_cfa_offset 16
	.cfi_offset %rbp, -16
	movq	%rsp, %rbp
	.cfi_def_cfa_register %rbp
	subq	$32, %rsp
	movq	%rdi, -16(%rbp)
	movq	%rsi, -8(%rbp)
Ltmp551:
	.loc	25 478 18 prologue_end
	callq	__ZN4core3ptr9const_ptr33_$LT$impl$u20$$BP$const$u20$T$GT$6offset17h80d90d12c52b5f2bE
	movq	%rax, -24(%rbp)
	.loc	25 0 18 is_stmt 0
	movq	-24(%rbp), %rax
	.loc	25 479 6 is_stmt 1
	addq	$32, %rsp
	popq	%rbp
	retq
Ltmp552:
Lfunc_end172:
	.cfi_endproc

	.p2align	4, 0x90
__ZN4core3ptr9const_ptr33_$LT$impl$u20$$BP$const$u20$T$GT$3add17he651bd6a56e7f6b5E:
Lfunc_begin173:
	.loc	25 473 0
	.cfi_startproc
	pushq	%rbp
	.cfi_def_cfa_offset 16
	.cfi_offset %rbp, -16
	movq	%rsp, %rbp
	.cfi_def_cfa_register %rbp
	subq	$32, %rsp
	movq	%rdi, -16(%rbp)
	movq	%rsi, -8(%rbp)
Ltmp553:
	.loc	25 478 18 prologue_end
	callq	__ZN4core3ptr9const_ptr33_$LT$impl$u20$$BP$const$u20$T$GT$6offset17h358caf66513203fcE
	movq	%rax, -24(%rbp)
	.loc	25 0 18 is_stmt 0
	movq	-24(%rbp), %rax
	.loc	25 479 6 is_stmt 1
	addq	$32, %rsp
	popq	%rbp
	retq
Ltmp554:
Lfunc_end173:
	.cfi_endproc

	.p2align	4, 0x90
__ZN4core3ptr9const_ptr33_$LT$impl$u20$$BP$const$u20$T$GT$3add17hec7754387e93c9a3E:
Lfunc_begin174:
	.loc	25 473 0
	.cfi_startproc
	pushq	%rbp
	.cfi_def_cfa_offset 16
	.cfi_offset %rbp, -16
	movq	%rsp, %rbp
	.cfi_def_cfa_register %rbp
	subq	$32, %rsp
	movq	%rdi, -16(%rbp)
	movq	%rsi, -8(%rbp)
Ltmp555:
	.loc	25 478 18 prologue_end
	callq	__ZN4core3ptr9const_ptr33_$LT$impl$u20$$BP$const$u20$T$GT$6offset17h67faebd2c052c3ccE
	movq	%rax, -24(%rbp)
	.loc	25 0 18 is_stmt 0
	movq	-24(%rbp), %rax
	.loc	25 479 6 is_stmt 1
	addq	$32, %rsp
	popq	%rbp
	retq
Ltmp556:
Lfunc_end174:
	.cfi_endproc

	.p2align	4, 0x90
__ZN4core3ptr9const_ptr33_$LT$impl$u20$$BP$const$u20$T$GT$3add17hf7094c61556acfe7E:
Lfunc_begin175:
	.loc	25 473 0
	.cfi_startproc
	pushq	%rbp
	.cfi_def_cfa_offset 16
	.cfi_offset %rbp, -16
	movq	%rsp, %rbp
	.cfi_def_cfa_register %rbp
	subq	$32, %rsp
	movq	%rdi, -16(%rbp)
	movq	%rsi, -8(%rbp)
Ltmp557:
	.loc	25 478 18 prologue_end
	callq	__ZN4core3ptr9const_ptr33_$LT$impl$u20$$BP$const$u20$T$GT$6offset17h9a40dfba6e7fe646E
	movq	%rax, -24(%rbp)
	.loc	25 0 18 is_stmt 0
	movq	-24(%rbp), %rax
	.loc	25 479 6 is_stmt 1
	addq	$32, %rsp
	popq	%rbp
	retq
Ltmp558:
Lfunc_end175:
	.cfi_endproc

	.p2align	4, 0x90
__ZN4core3ptr9const_ptr33_$LT$impl$u20$$BP$const$u20$T$GT$6offset17h358caf66513203fcE:
Lfunc_begin176:
	.loc	25 159 0
	.cfi_startproc
	pushq	%rbp
	.cfi_def_cfa_offset 16
	.cfi_offset %rbp, -16
	movq	%rsp, %rbp
	.cfi_def_cfa_register %rbp
	subq	$32, %rsp
	movq	%rdi, -24(%rbp)
	movq	%rsi, -16(%rbp)
Ltmp559:
	.loc	25 164 18 prologue_end
	imulq	$24, %rsi, %rax
	addq	%rax, %rdi
	movq	%rdi, -8(%rbp)
	movq	-8(%rbp), %rax
	movq	%rax, -32(%rbp)
	.loc	25 0 18 is_stmt 0
	movq	-32(%rbp), %rax
	.loc	25 165 6 is_stmt 1
	addq	$32, %rsp
	popq	%rbp
	retq
Ltmp560:
Lfunc_end176:
	.cfi_endproc

	.p2align	4, 0x90
__ZN4core3ptr9const_ptr33_$LT$impl$u20$$BP$const$u20$T$GT$6offset17h67faebd2c052c3ccE:
Lfunc_begin177:
	.loc	25 159 0
	.cfi_startproc
	pushq	%rbp
	.cfi_def_cfa_offset 16
	.cfi_offset %rbp, -16
	movq	%rsp, %rbp
	.cfi_def_cfa_register %rbp
	subq	$32, %rsp
	movq	%rdi, -24(%rbp)
	movq	%rsi, -16(%rbp)
Ltmp561:
	.loc	25 164 18 prologue_end
	imulq	$24, %rsi, %rax
	addq	%rax, %rdi
	movq	%rdi, -8(%rbp)
	movq	-8(%rbp), %rax
	movq	%rax, -32(%rbp)
	.loc	25 0 18 is_stmt 0
	movq	-32(%rbp), %rax
	.loc	25 165 6 is_stmt 1
	addq	$32, %rsp
	popq	%rbp
	retq
Ltmp562:
Lfunc_end177:
	.cfi_endproc

	.p2align	4, 0x90
__ZN4core3ptr9const_ptr33_$LT$impl$u20$$BP$const$u20$T$GT$6offset17h80d90d12c52b5f2bE:
Lfunc_begin178:
	.loc	25 159 0
	.cfi_startproc
	pushq	%rbp
	.cfi_def_cfa_offset 16
	.cfi_offset %rbp, -16
	movq	%rsp, %rbp
	.cfi_def_cfa_register %rbp
	subq	$32, %rsp
	movq	%rdi, -24(%rbp)
	movq	%rsi, -16(%rbp)
Ltmp563:
	.loc	25 164 18 prologue_end
	addq	%rsi, %rdi
	movq	%rdi, -8(%rbp)
	movq	-8(%rbp), %rax
	movq	%rax, -32(%rbp)
	.loc	25 0 18 is_stmt 0
	movq	-32(%rbp), %rax
	.loc	25 165 6 is_stmt 1
	addq	$32, %rsp
	popq	%rbp
	retq
Ltmp564:
Lfunc_end178:
	.cfi_endproc

	.p2align	4, 0x90
__ZN4core3ptr9const_ptr33_$LT$impl$u20$$BP$const$u20$T$GT$6offset17h9a40dfba6e7fe646E:
Lfunc_begin179:
	.loc	25 159 0
	.cfi_startproc
	pushq	%rbp
	.cfi_def_cfa_offset 16
	.cfi_offset %rbp, -16
	movq	%rsp, %rbp
	.cfi_def_cfa_register %rbp
	subq	$32, %rsp
	movq	%rdi, -24(%rbp)
	movq	%rsi, -16(%rbp)
Ltmp565:
	.loc	25 164 18 prologue_end
	shlq	$3, %rsi
	addq	%rsi, %rdi
	movq	%rdi, -8(%rbp)
	movq	-8(%rbp), %rax
	movq	%rax, -32(%rbp)
	.loc	25 0 18 is_stmt 0
	movq	-32(%rbp), %rax
	.loc	25 165 6 is_stmt 1
	addq	$32, %rsp
	popq	%rbp
	retq
Ltmp566:
Lfunc_end179:
	.cfi_endproc

	.p2align	4, 0x90
__ZN4core3ptr9const_ptr43_$LT$impl$u20$$BP$const$u20$$u5b$T$u5d$$GT$6as_ptr17h594491277a472780E:
Lfunc_begin180:
	.loc	25 845 0
	.cfi_startproc
	pushq	%rbp
	.cfi_def_cfa_offset 16
	.cfi_offset %rbp, -16
	movq	%rsp, %rbp
	.cfi_def_cfa_register %rbp
	subq	$16, %rsp
	movq	%rdi, -16(%rbp)
	movq	%rsi, -8(%rbp)
Ltmp567:
	.loc	25 847 6 prologue_end
	movq	%rdi, %rax
	addq	$16, %rsp
	popq	%rbp
	retq
Ltmp568:
Lfunc_end180:
	.cfi_endproc

	.p2align	4, 0x90
__ZN4core3ptr9const_ptr43_$LT$impl$u20$$BP$const$u20$$u5b$T$u5d$$GT$6as_ptr17h5ad136cb2d6e5edfE:
Lfunc_begin181:
	.loc	25 845 0
	.cfi_startproc
	pushq	%rbp
	.cfi_def_cfa_offset 16
	.cfi_offset %rbp, -16
	movq	%rsp, %rbp
	.cfi_def_cfa_register %rbp
	subq	$16, %rsp
	movq	%rdi, -16(%rbp)
	movq	%rsi, -8(%rbp)
Ltmp569:
	.loc	25 847 6 prologue_end
	movq	%rdi, %rax
	addq	$16, %rsp
	popq	%rbp
	retq
Ltmp570:
Lfunc_end181:
	.cfi_endproc

	.p2align	4, 0x90
__ZN4core3ptr9const_ptr43_$LT$impl$u20$$BP$const$u20$$u5b$T$u5d$$GT$6as_ptr17h5fcb9700ca06be06E:
Lfunc_begin182:
	.loc	25 845 0
	.cfi_startproc
	pushq	%rbp
	.cfi_def_cfa_offset 16
	.cfi_offset %rbp, -16
	movq	%rsp, %rbp
	.cfi_def_cfa_register %rbp
	subq	$16, %rsp
	movq	%rdi, -16(%rbp)
	movq	%rsi, -8(%rbp)
Ltmp571:
	.loc	25 847 6 prologue_end
	movq	%rdi, %rax
	addq	$16, %rsp
	popq	%rbp
	retq
Ltmp572:
Lfunc_end182:
	.cfi_endproc

	.p2align	4, 0x90
__ZN4core3ptr9const_ptr43_$LT$impl$u20$$BP$const$u20$$u5b$T$u5d$$GT$6as_ptr17h9c68eec0f94cc024E:
Lfunc_begin183:
	.loc	25 845 0
	.cfi_startproc
	pushq	%rbp
	.cfi_def_cfa_offset 16
	.cfi_offset %rbp, -16
	movq	%rsp, %rbp
	.cfi_def_cfa_register %rbp
	subq	$16, %rsp
	movq	%rdi, -16(%rbp)
	movq	%rsi, -8(%rbp)
Ltmp573:
	.loc	25 847 6 prologue_end
	movq	%rdi, %rax
	addq	$16, %rsp
	popq	%rbp
	retq
Ltmp574:
Lfunc_end183:
	.cfi_endproc

	.p2align	4, 0x90
__ZN4core3str19from_utf8_unchecked17ha5b414f584b32eeeE:
Lfunc_begin184:
	.loc	9 417 0
	.cfi_startproc
	pushq	%rbp
	.cfi_def_cfa_offset 16
	.cfi_offset %rbp, -16
	movq	%rsp, %rbp
	.cfi_def_cfa_register %rbp
	subq	$16, %rsp
	movq	%rdi, -16(%rbp)
	movq	%rsi, -8(%rbp)
Ltmp575:
	.loc	9 423 2 prologue_end
	movq	%rdi, %rax
	movq	%rsi, %rdx
	addq	$16, %rsp
	popq	%rbp
	retq
Ltmp576:
Lfunc_end184:
	.cfi_endproc

	.p2align	4, 0x90
__ZN4core3str21_$LT$impl$u20$str$GT$11starts_with17ha4ffe9edc890d20eE:
Lfunc_begin185:
	.loc	9 3086 0
	.cfi_startproc
	pushq	%rbp
	.cfi_def_cfa_offset 16
	.cfi_offset %rbp, -16
	movq	%rsp, %rbp
	.cfi_def_cfa_register %rbp
	subq	$64, %rsp
	movq	%rdi, -32(%rbp)
	movq	%rsi, -24(%rbp)
	movq	%rdx, -16(%rbp)
	movq	%rcx, -8(%rbp)
	movq	%rdi, -40(%rbp)
Ltmp577:
	.loc	9 3087 9 prologue_end
	movq	%rdx, %rdi
	movq	%rsi, -48(%rbp)
	movq	%rcx, %rsi
	movq	-40(%rbp), %rdx
	movq	-48(%rbp), %rcx
	callq	__ZN55_$LT$$RF$str$u20$as$u20$core..str..pattern..Pattern$GT$12is_prefix_of17ha863131d50047a60E
	movb	%al, -49(%rbp)
	.loc	9 0 9 is_stmt 0
	movb	-49(%rbp), %al
	.loc	9 3088 6 is_stmt 1
	andb	$1, %al
	movzbl	%al, %eax
	addq	$64, %rsp
	popq	%rbp
	retq
Ltmp578:
Lfunc_end185:
	.cfi_endproc

	.p2align	4, 0x90
__ZN4core3str21_$LT$impl$u20$str$GT$13get_unchecked17hbc27f2837138aab7E:
Lfunc_begin186:
	.loc	9 2533 0
	.cfi_startproc
	pushq	%rbp
	.cfi_def_cfa_offset 16
	.cfi_offset %rbp, -16
	movq	%rsp, %rbp
	.cfi_def_cfa_register %rbp
	subq	$64, %rsp
	movq	%rdi, -32(%rbp)
	movq	%rsi, -24(%rbp)
	movq	%rdx, -16(%rbp)
	movq	%rcx, -8(%rbp)
	movq	%rdi, -40(%rbp)
Ltmp579:
	.loc	9 2537 20 prologue_end
	movq	%rdx, %rdi
	movq	%rsi, -48(%rbp)
	movq	%rcx, %rsi
	movq	-40(%rbp), %rdx
	movq	-48(%rbp), %rcx
	callq	__ZN4core3str6traits101_$LT$impl$u20$core..slice..SliceIndex$LT$str$GT$$u20$for$u20$core..ops..range..Range$LT$usize$GT$$GT$13get_unchecked17hc909d73891c82a52E
	movq	%rax, -56(%rbp)
	movq	%rdx, -64(%rbp)
	.loc	9 0 20 is_stmt 0
	movq	-56(%rbp), %rax
	movq	-64(%rbp), %rdx
	.loc	9 2538 6 is_stmt 1
	addq	$64, %rsp
	popq	%rbp
	retq
Ltmp580:
Lfunc_end186:
	.cfi_endproc

	.p2align	4, 0x90
__ZN4core3str21_$LT$impl$u20$str$GT$3len17h4b31c56df222472cE:
Lfunc_begin187:
	.loc	9 2273 0
	.cfi_startproc
	pushq	%rbp
	.cfi_def_cfa_offset 16
	.cfi_offset %rbp, -16
	movq	%rsp, %rbp
	.cfi_def_cfa_register %rbp
	subq	$80, %rsp
	movq	%rdi, -48(%rbp)
	movq	%rsi, -40(%rbp)
	movq	%rdi, -16(%rbp)
	movq	%rsi, -8(%rbp)
Ltmp581:
	.loc	9 2359 18 prologue_end
	movq	%rdi, -32(%rbp)
	movq	%rsi, -24(%rbp)
	movq	-32(%rbp), %rdi
	movq	-24(%rbp), %rsi
	movq	%rdi, -56(%rbp)
	movq	%rsi, -64(%rbp)
Ltmp582:
	.loc	9 0 18 is_stmt 0
	movq	-56(%rbp), %rdi
	movq	-64(%rbp), %rsi
	.loc	9 2274 9 is_stmt 1
	callq	__ZN4core5slice29_$LT$impl$u20$$u5b$T$u5d$$GT$3len17h308c571c03cfc3daE
	movq	%rax, -72(%rbp)
	.loc	9 0 9 is_stmt 0
	movq	-72(%rbp), %rax
	.loc	9 2275 6 is_stmt 1
	addq	$80, %rsp
	popq	%rbp
	retq
Ltmp583:
Lfunc_end187:
	.cfi_endproc

	.p2align	4, 0x90
__ZN4core3str21_$LT$impl$u20$str$GT$5parse17ha19984ce0cc309b8E:
Lfunc_begin188:
	.loc	9 4268 0
	.cfi_startproc
	pushq	%rbp
	.cfi_def_cfa_offset 16
	.cfi_offset %rbp, -16
	movq	%rsp, %rbp
	.cfi_def_cfa_register %rbp
	subq	$32, %rsp
	movq	%rdi, -24(%rbp)
	movq	%rsi, -16(%rbp)
Ltmp584:
	.loc	9 4269 9 prologue_end
	callq	__ZN4core3num52_$LT$impl$u20$core..str..FromStr$u20$for$u20$u32$GT$8from_str17h7755800c3765c881E
	movq	%rax, -8(%rbp)
	movq	-8(%rbp), %rax
	movq	%rax, -32(%rbp)
	.loc	9 4270 6
	movq	-32(%rbp), %rax
	addq	$32, %rsp
	popq	%rbp
	retq
Ltmp585:
Lfunc_end188:
	.cfi_endproc

	.p2align	4, 0x90
__ZN4core3str21_$LT$impl$u20$str$GT$5split17h87e826393de4cdd2E:
Lfunc_begin189:
	.loc	9 3320 0
	.cfi_startproc
	.cfi_personality 155, _rust_eh_personality
	.cfi_lsda 16, Lexception25
	pushq	%rbp
	.cfi_def_cfa_offset 16
	.cfi_offset %rbp, -16
	movq	%rsp, %rbp
	.cfi_def_cfa_register %rbp
	subq	$224, %rsp
	movq	%rdi, %rax
	movq	%rsi, -40(%rbp)
	movq	%rdx, -32(%rbp)
	movl	%ecx, -20(%rbp)
Ltmp591:
	.loc	9 3321 15 prologue_end
	movb	$0, -41(%rbp)
	movb	$1, -41(%rbp)
Ltmp586:
	movq	%rdi, -176(%rbp)
	.loc	9 3323 18
	movq	%rsi, %rdi
	movq	%rsi, -184(%rbp)
	movq	%rdx, %rsi
	movl	%ecx, -188(%rbp)
	movq	%rdx, -200(%rbp)
	movq	%rax, -208(%rbp)
	callq	__ZN4core3str21_$LT$impl$u20$str$GT$3len17h4b31c56df222472cE
Ltmp587:
	movq	%rax, -216(%rbp)
	jmp	LBB189_2
LBB189_1:
	.loc	9 3320 5
	movq	-16(%rbp), %rdi
	callq	__Unwind_Resume
	ud2
LBB189_2:
	.loc	9 3324 22
	movb	$0, -41(%rbp)
Ltmp588:
	leaq	-96(%rbp), %rdi
	movl	-188(%rbp), %esi
	movq	-184(%rbp), %rdx
	movq	-200(%rbp), %rcx
	callq	__ZN52_$LT$char$u20$as$u20$core..str..pattern..Pattern$GT$13into_searcher17h872e490033106492E
Ltmp589:
	jmp	LBB189_3
LBB189_3:
	.loc	9 3321 15
	movq	$0, -168(%rbp)
	movq	-216(%rbp), %rax
	movq	%rax, -160(%rbp)
	leaq	-168(%rbp), %rcx
	movq	%rcx, %rdx
	addq	$16, %rdx
	leaq	-96(%rbp), %rsi
	movq	%rdx, %rdi
	movl	$48, %edx
	movq	%rcx, -224(%rbp)
	callq	_memcpy
	movb	$1, -104(%rbp)
	movb	$0, -103(%rbp)
	movq	-176(%rbp), %rax
	movq	-224(%rbp), %rcx
	.loc	9 3321 9 is_stmt 0
	movq	%rax, %rdi
	movq	%rcx, %rsi
	movl	$72, %edx
	callq	_memcpy
	movq	-208(%rbp), %rax
	.loc	9 3328 6 is_stmt 1
	addq	$224, %rsp
	popq	%rbp
	retq
LBB189_4:
	.loc	9 3328 5 is_stmt 0
	movb	$0, -41(%rbp)
	jmp	LBB189_1
LBB189_5:
	testb	$1, -41(%rbp)
	jne	LBB189_4
	jmp	LBB189_1
Ltmp592:
LBB189_6:
Ltmp590:
	.loc	9 0 5
	movq	%rax, -16(%rbp)
	movl	%edx, -8(%rbp)
	jmp	LBB189_5
Lfunc_end189:
	.cfi_endproc
	.section	__TEXT,__gcc_except_tab
	.p2align	2
GCC_except_table189:
Lexception25:
	.byte	255
	.byte	255
	.byte	1
	.uleb128 Lcst_end25-Lcst_begin25
Lcst_begin25:
	.uleb128 Ltmp586-Lfunc_begin189
	.uleb128 Ltmp587-Ltmp586
	.uleb128 Ltmp590-Lfunc_begin189
	.byte	0
	.uleb128 Ltmp587-Lfunc_begin189
	.uleb128 Ltmp588-Ltmp587
	.byte	0
	.byte	0
	.uleb128 Ltmp588-Lfunc_begin189
	.uleb128 Ltmp589-Ltmp588
	.uleb128 Ltmp590-Lfunc_begin189
	.byte	0
	.uleb128 Ltmp589-Lfunc_begin189
	.uleb128 Lfunc_end189-Ltmp589
	.byte	0
	.byte	0
Lcst_end25:
	.p2align	2

	.section	__TEXT,__text,regular,pure_instructions
	.p2align	4, 0x90
__ZN4core3str22SplitInternal$LT$P$GT$4next17hf28b43ee9e1dd079E:
Lfunc_begin190:
	.loc	9 1118 0 is_stmt 1
	.cfi_startproc
	pushq	%rbp
	.cfi_def_cfa_offset 16
	.cfi_offset %rbp, -16
	movq	%rsp, %rbp
	.cfi_def_cfa_register %rbp
	subq	$160, %rsp
	movq	%rdi, -56(%rbp)
Ltmp593:
	.loc	9 1119 9 prologue_end
	testb	$1, 65(%rdi)
	movq	%rdi, -120(%rbp)
	jne	LBB190_2
	.loc	9 0 9 is_stmt 0
	movq	-120(%rbp), %rax
	.loc	9 1123 24 is_stmt 1
	addq	$16, %rax
	movq	%rax, %rdi
	callq	__ZN81_$LT$core..str..pattern..CharSearcher$u20$as$u20$core..str..pattern..Searcher$GT$8haystack17h89c545c981842551E
	movq	%rax, -48(%rbp)
	movq	%rdx, -40(%rbp)
	movq	%rax, -128(%rbp)
	movq	%rdx, -136(%rbp)
	jmp	LBB190_4
LBB190_2:
	.loc	9 1120 20
	movq	$0, -112(%rbp)
LBB190_3:
	.loc	9 1133 6
	movq	-112(%rbp), %rax
	movq	-104(%rbp), %rdx
	addq	$160, %rsp
	popq	%rbp
	retq
LBB190_4:
	.loc	9 0 6 is_stmt 0
	movq	-120(%rbp), %rax
Ltmp594:
	.loc	9 1124 15 is_stmt 1
	addq	$16, %rax
	leaq	-96(%rbp), %rdi
	movq	%rax, %rsi
	callq	__ZN81_$LT$core..str..pattern..CharSearcher$u20$as$u20$core..str..pattern..Searcher$GT$10next_match17h5fcca0bea37d9816E
	.loc	9 1126 13
	movq	-96(%rbp), %rax
	testq	%rax, %rax
	je	LBB190_6
	jmp	LBB190_12
LBB190_12:
	jmp	LBB190_8
LBB190_6:
	.loc	9 0 13 is_stmt 0
	movq	-120(%rbp), %rdi
	.loc	9 1131 21 is_stmt 1
	callq	__ZN4core3str22SplitInternal$LT$P$GT$7get_end17hddef7046dc9c427fE
	movq	%rdx, -104(%rbp)
	movq	%rax, -112(%rbp)
	jmp	LBB190_10
	.loc	9 1124 15
	ud2
LBB190_8:
	.loc	9 1126 19
	movq	-88(%rbp), %rax
	movq	%rax, -32(%rbp)
	.loc	9 1126 22 is_stmt 0
	movq	-80(%rbp), %rcx
	movq	%rcx, -24(%rbp)
	movq	-120(%rbp), %rdx
Ltmp595:
	.loc	9 1127 50 is_stmt 1
	movq	(%rdx), %rsi
	movq	%rsi, -72(%rbp)
	movq	%rax, -64(%rbp)
	.loc	9 1127 27 is_stmt 0
	movq	-72(%rbp), %rdx
	movq	-64(%rbp), %rax
	movq	-128(%rbp), %rdi
	movq	-136(%rbp), %rsi
	movq	%rcx, -144(%rbp)
	movq	%rax, %rcx
	callq	__ZN4core3str21_$LT$impl$u20$str$GT$13get_unchecked17hbc27f2837138aab7E
	movq	%rax, -16(%rbp)
	movq	%rdx, -8(%rbp)
	movq	%rax, -152(%rbp)
	movq	%rdx, -160(%rbp)
	.loc	9 0 27
	movq	-120(%rbp), %rax
	movq	-144(%rbp), %rcx
Ltmp596:
	.loc	9 1128 17 is_stmt 1
	movq	%rcx, (%rax)
	movq	-152(%rbp), %rdx
	.loc	9 1129 17
	movq	%rdx, -112(%rbp)
	movq	-160(%rbp), %rsi
	movq	%rsi, -104(%rbp)
Ltmp597:
	.loc	9 1124 9
	jmp	LBB190_11
LBB190_10:
	jmp	LBB190_11
Ltmp598:
LBB190_11:
	.loc	9 1133 6
	jmp	LBB190_3
Ltmp599:
Lfunc_end190:
	.cfi_endproc

	.p2align	4, 0x90
__ZN4core3str22SplitInternal$LT$P$GT$7get_end17hddef7046dc9c427fE:
Lfunc_begin191:
	.loc	9 1104 0
	.cfi_startproc
	pushq	%rbp
	.cfi_def_cfa_offset 16
	.cfi_offset %rbp, -16
	movq	%rsp, %rbp
	.cfi_def_cfa_register %rbp
	subq	$112, %rsp
	movq	%rdi, -24(%rbp)
Ltmp600:
	.loc	9 1105 13 prologue_end
	movb	65(%rdi), %al
	.loc	9 1105 12 is_stmt 0
	xorb	$-1, %al
	testb	$1, %al
	movq	%rdi, -72(%rbp)
	jne	LBB191_3
	jmp	LBB191_2
LBB191_1:
	movb	$1, -42(%rbp)
	jmp	LBB191_4
LBB191_2:
	movb	$0, -42(%rbp)
	jmp	LBB191_4
LBB191_3:
	.loc	9 0 12
	movq	-72(%rbp), %rax
	.loc	9 1105 30
	testb	$1, 64(%rax)
	jne	LBB191_5
	jmp	LBB191_7
LBB191_4:
	.loc	9 1105 9
	testb	$1, -42(%rbp)
	jne	LBB191_10
	jmp	LBB191_9
LBB191_5:
	.loc	9 1105 30
	movb	$1, -41(%rbp)
	jmp	LBB191_8
LBB191_6:
	movb	$0, -41(%rbp)
	jmp	LBB191_8
LBB191_7:
	.loc	9 0 30
	movq	-72(%rbp), %rax
	.loc	9 1105 60
	movq	8(%rax), %rcx
	subq	(%rax), %rcx
	cmpq	$0, %rcx
	.loc	9 1105 30
	ja	LBB191_5
	jmp	LBB191_6
LBB191_8:
	.loc	9 1105 12
	testb	$1, -41(%rbp)
	jne	LBB191_1
	jmp	LBB191_2
LBB191_9:
	.loc	9 1113 13 is_stmt 1
	movq	$0, -64(%rbp)
	.loc	9 1105 9
	jmp	LBB191_13
LBB191_10:
	.loc	9 0 9 is_stmt 0
	movq	-72(%rbp), %rax
	.loc	9 1106 13 is_stmt 1
	movb	$1, 65(%rax)
	.loc	9 1109 30
	addq	$16, %rax
	movq	%rax, %rdi
	callq	__ZN81_$LT$core..str..pattern..CharSearcher$u20$as$u20$core..str..pattern..Searcher$GT$8haystack17h89c545c981842551E
	movq	%rax, -80(%rbp)
	movq	%rdx, -88(%rbp)
	.loc	9 0 30 is_stmt 0
	movq	-72(%rbp), %rax
	.loc	9 1109 68
	movq	(%rax), %rcx
	.loc	9 1109 80
	movq	8(%rax), %rdx
	.loc	9 1109 68
	movq	%rcx, -40(%rbp)
	movq	%rdx, -32(%rbp)
	.loc	9 1109 30
	movq	-40(%rbp), %rdx
	movq	-32(%rbp), %rcx
	movq	-80(%rbp), %rdi
	movq	-88(%rbp), %rsi
	callq	__ZN4core3str21_$LT$impl$u20$str$GT$13get_unchecked17hbc27f2837138aab7E
	movq	%rax, -16(%rbp)
	movq	%rdx, -8(%rbp)
	movq	%rax, -96(%rbp)
	movq	%rdx, -104(%rbp)
	.loc	9 0 30
	movq	-96(%rbp), %rax
Ltmp601:
	.loc	9 1110 17 is_stmt 1
	movq	%rax, -64(%rbp)
	movq	-104(%rbp), %rcx
	movq	%rcx, -56(%rbp)
Ltmp602:
LBB191_13:
	.loc	9 1115 6
	movq	-64(%rbp), %rax
	movq	-56(%rbp), %rdx
	addq	$112, %rsp
	popq	%rbp
	retq
Ltmp603:
Lfunc_end191:
	.cfi_endproc

	.p2align	4, 0x90
__ZN4core3str23from_utf8_unchecked_mut17h05a4db18357dd81eE:
Lfunc_begin192:
	.loc	9 444 0
	.cfi_startproc
	pushq	%rbp
	.cfi_def_cfa_offset 16
	.cfi_offset %rbp, -16
	movq	%rsp, %rbp
	.cfi_def_cfa_register %rbp
	subq	$16, %rsp
	movq	%rdi, -16(%rbp)
	movq	%rsi, -8(%rbp)
Ltmp604:
	.loc	9 450 2 prologue_end
	movq	%rdi, %rax
	movq	%rsi, %rdx
	addq	$16, %rsp
	popq	%rbp
	retq
Ltmp605:
Lfunc_end192:
	.cfi_endproc

	.p2align	4, 0x90
__ZN4core3str6traits101_$LT$impl$u20$core..slice..SliceIndex$LT$str$GT$$u20$for$u20$core..ops..range..Range$LT$usize$GT$$GT$13get_unchecked17hc909d73891c82a52E:
Lfunc_begin193:
	.loc	9 1907 0
	.cfi_startproc
	pushq	%rbp
	.cfi_def_cfa_offset 16
	.cfi_offset %rbp, -16
	movq	%rsp, %rbp
	.cfi_def_cfa_register %rbp
	subq	$112, %rsp
	movq	%rdi, -64(%rbp)
	movq	%rsi, -56(%rbp)
	movq	%rdx, -48(%rbp)
	movq	%rcx, -40(%rbp)
Ltmp606:
	.loc	9 1908 25 prologue_end
	movq	%rdx, -32(%rbp)
	movq	%rcx, -24(%rbp)
	movq	%rdi, -72(%rbp)
Ltmp607:
	.loc	9 1911 32
	movq	%rdx, %rdi
	movq	%rsi, -80(%rbp)
	movq	%rcx, %rsi
	callq	__ZN4core3ptr9const_ptr43_$LT$impl$u20$$BP$const$u20$$u5b$T$u5d$$GT$6as_ptr17h5fcb9700ca06be06E
	movq	%rax, -88(%rbp)
	.loc	9 0 32 is_stmt 0
	movq	-88(%rbp), %rdi
	movq	-72(%rbp), %rsi
	.loc	9 1911 32
	callq	__ZN4core3ptr9const_ptr33_$LT$impl$u20$$BP$const$u20$T$GT$3add17h01db47034b2c56d6E
	movq	%rax, -16(%rbp)
	movq	%rax, -96(%rbp)
	.loc	9 0 32
	movq	-80(%rbp), %rax
	movq	-72(%rbp), %rcx
Ltmp608:
	.loc	9 1912 23 is_stmt 1
	subq	%rcx, %rax
	movq	%rax, -8(%rbp)
	movq	-96(%rbp), %rdi
Ltmp609:
	.loc	9 1913 13
	movq	%rax, %rsi
	callq	__ZN4core3ptr20slice_from_raw_parts17hfb7d96fb3fe569b7E
	movq	%rax, -104(%rbp)
	movq	%rdx, -112(%rbp)
Ltmp610:
	.loc	9 0 13 is_stmt 0
	movq	-104(%rbp), %rax
	movq	-112(%rbp), %rdx
	.loc	9 1914 10 is_stmt 1
	addq	$112, %rsp
	popq	%rbp
	retq
Ltmp611:
Lfunc_end193:
	.cfi_endproc

	.p2align	4, 0x90
__ZN4core3str6traits54_$LT$impl$u20$core..cmp..PartialEq$u20$for$u20$str$GT$2eq17hf97e90d2374c4972E:
Lfunc_begin194:
	.loc	9 1742 0
	.cfi_startproc
	pushq	%rbp
	.cfi_def_cfa_offset 16
	.cfi_offset %rbp, -16
	movq	%rsp, %rbp
	.cfi_def_cfa_register %rbp
	subq	$160, %rsp
	movq	%rdi, -96(%rbp)
	movq	%rsi, -88(%rbp)
	movq	%rdx, -80(%rbp)
	movq	%rcx, -72(%rbp)
	movq	%rdi, -48(%rbp)
	movq	%rsi, -40(%rbp)
Ltmp612:
	.loc	9 2359 18 prologue_end
	movq	%rdi, -64(%rbp)
	movq	%rsi, -56(%rbp)
	movq	-64(%rbp), %rax
	movq	-56(%rbp), %rsi
Ltmp613:
	.loc	9 1743 13
	movq	%rsi, -120(%rbp)
	movq	%rax, -128(%rbp)
	movq	%rdx, -136(%rbp)
	movq	%rcx, -144(%rbp)
	.loc	9 0 13 is_stmt 0
	movq	-136(%rbp), %rax
	movq	%rax, -16(%rbp)
	movq	-144(%rbp), %rcx
	movq	%rcx, -8(%rbp)
Ltmp614:
	.loc	9 2359 18 is_stmt 1
	movq	%rax, -32(%rbp)
	movq	%rcx, -24(%rbp)
	movq	-32(%rbp), %rdx
	movq	-24(%rbp), %rsi
Ltmp615:
	.loc	9 1743 32
	movq	%rsi, -104(%rbp)
	movq	%rdx, -112(%rbp)
	.loc	9 1743 13 is_stmt 0
	leaq	-128(%rbp), %rdi
	leaq	-112(%rbp), %rsi
	callq	__ZN4core3cmp5impls69_$LT$impl$u20$core..cmp..PartialEq$LT$$RF$B$GT$$u20$for$u20$$RF$A$GT$2eq17h55e2b1ee441e6ad8E
	movb	%al, -145(%rbp)
	.loc	9 0 13
	movb	-145(%rbp), %al
	.loc	9 1744 10 is_stmt 1
	andb	$1, %al
	movzbl	%al, %eax
	addq	$160, %rsp
	popq	%rbp
	retq
Ltmp616:
Lfunc_end194:
	.cfi_endproc

	.p2align	4, 0x90
__ZN4core3str6traits54_$LT$impl$u20$core..cmp..PartialEq$u20$for$u20$str$GT$2ne17hd5ea90b6d35342e6E:
Lfunc_begin195:
	.loc	9 1746 0
	.cfi_startproc
	pushq	%rbp
	.cfi_def_cfa_offset 16
	.cfi_offset %rbp, -16
	movq	%rsp, %rbp
	.cfi_def_cfa_register %rbp
	subq	$48, %rsp
	movq	%rdi, -32(%rbp)
	movq	%rsi, -24(%rbp)
	movq	%rdx, -16(%rbp)
	movq	%rcx, -8(%rbp)
Ltmp617:
	.loc	9 1747 14 prologue_end
	callq	__ZN4core3str6traits54_$LT$impl$u20$core..cmp..PartialEq$u20$for$u20$str$GT$2eq17hf97e90d2374c4972E
	movb	%al, -33(%rbp)
	.loc	9 0 14 is_stmt 0
	movb	-33(%rbp), %al
	.loc	9 1747 13
	xorb	$-1, %al
	.loc	9 1748 10 is_stmt 1
	andb	$1, %al
	movzbl	%al, %eax
	addq	$48, %rsp
	popq	%rbp
	retq
Ltmp618:
Lfunc_end195:
	.cfi_endproc

	.p2align	4, 0x90
__ZN4core4char7methods15encode_utf8_raw17h267c812c4dea9d32E:
Lfunc_begin196:
	.file	26 "/rustc/6c8927b0cf80ceee19386026cf9d7fd4fd9d486f/src/libcore/char/methods.rs"
	.loc	26 1621 0
	.cfi_startproc
	pushq	%rbp
	.cfi_def_cfa_offset 16
	.cfi_offset %rbp, -16
	movq	%rsp, %rbp
	.cfi_def_cfa_register %rbp
	subq	$432, %rsp
	movl	%edi, -292(%rbp)
	movq	%rsi, -120(%rbp)
	movq	%rdx, -112(%rbp)
Ltmp619:
	.loc	26 1622 24 prologue_end
	movl	-292(%rbp), %edi
	movq	%rsi, -304(%rbp)
	movq	%rdx, -312(%rbp)
	.loc	26 1622 15 is_stmt 0
	callq	__ZN4core4char7methods8len_utf817h1d5311ba5bee051bE
	movq	%rax, -288(%rbp)
	.loc	26 0 15
	leaq	l___unnamed_5(%rip), %rax
Ltmp620:
	.loc	26 1623 12 is_stmt 1
	movq	-288(%rbp), %rcx
	movq	-304(%rbp), %rdi
	movq	-312(%rbp), %rsi
	.loc	26 1623 22 is_stmt 0
	movq	%rax, %rdx
	movq	%rcx, -320(%rbp)
	callq	__ZN4core5slice77_$LT$impl$u20$core..ops..index..IndexMut$LT$I$GT$$u20$for$u20$$u5b$T$u5d$$GT$9index_mut17h32169feeddf1c979E
	movq	%rax, -328(%rbp)
	movq	%rdx, -336(%rbp)
	.loc	26 0 22
	movq	-320(%rbp), %rax
	.loc	26 1623 11
	movq	%rax, -280(%rbp)
	movq	-328(%rbp), %rcx
	movq	%rcx, -272(%rbp)
	movq	-336(%rbp), %rdx
	movq	%rdx, -264(%rbp)
	.loc	26 1624 10 is_stmt 1
	movq	-280(%rbp), %rsi
	decq	%rsi
	movq	%rsi, %rdi
	subq	$3, %rdi
	movq	%rsi, -344(%rbp)
	ja	LBB196_4
	.loc	26 0 10 is_stmt 0
	leaq	LJTI196_0(%rip), %rax
	movq	-344(%rbp), %rcx
	movslq	(%rax,%rcx,4), %rdx
	addq	%rax, %rdx
	jmpq	*%rdx
LBB196_3:
	.loc	26 1624 13
	cmpq	$1, -264(%rbp)
	jae	LBB196_8
LBB196_4:
	.loc	26 1643 13 is_stmt 1
	movq	l___unnamed_6(%rip), %rax
	movq	-304(%rbp), %rdi
	movq	-312(%rbp), %rsi
	movq	%rax, -352(%rbp)
	.loc	26 1646 13
	callq	__ZN4core5slice29_$LT$impl$u20$$u5b$T$u5d$$GT$3len17h308c571c03cfc3daE
	movq	%rax, -136(%rbp)
	jmp	LBB196_12
LBB196_5:
	.loc	26 1627 13
	cmpq	$2, -264(%rbp)
	jae	LBB196_9
	jmp	LBB196_4
LBB196_6:
	.loc	26 1631 13
	cmpq	$3, -264(%rbp)
	jae	LBB196_10
	jmp	LBB196_4
LBB196_7:
	.loc	26 1636 13
	cmpq	$4, -264(%rbp)
	jae	LBB196_11
	jmp	LBB196_4
LBB196_8:
	.loc	26 1624 14
	movq	-272(%rbp), %rax
	movq	%rax, -32(%rbp)
Ltmp621:
	.loc	26 1625 18
	movl	-292(%rbp), %ecx
	.loc	26 1625 13 is_stmt 0
	movb	%cl, (%rax)
Ltmp622:
	.loc	26 1623 5 is_stmt 1
	jmp	LBB196_17
LBB196_9:
	.loc	26 1627 14
	movq	-272(%rbp), %rax
	movq	%rax, -48(%rbp)
	.loc	26 1627 17 is_stmt 0
	movq	-272(%rbp), %rcx
	movq	%rcx, %rdx
	addq	$1, %rdx
	movq	%rdx, -40(%rbp)
Ltmp623:
	.loc	26 1628 19 is_stmt 1
	movl	-292(%rbp), %esi
	shrl	$6, %esi
	.loc	26 1628 18 is_stmt 0
	andl	$31, %esi
	.loc	26 1628 13
	orb	$-64, %sil
	movb	%sil, (%rax)
	.loc	26 1629 19 is_stmt 1
	movl	-292(%rbp), %edi
	.loc	26 1629 18 is_stmt 0
	andl	$63, %edi
	.loc	26 1629 13
	orb	$-128, %dil
	movb	%dil, 1(%rcx)
Ltmp624:
	.loc	26 1623 5 is_stmt 1
	jmp	LBB196_17
LBB196_10:
	.loc	26 1631 14
	movq	-272(%rbp), %rax
	movq	%rax, -72(%rbp)
	.loc	26 1631 17 is_stmt 0
	movq	-272(%rbp), %rcx
	movq	%rcx, %rdx
	addq	$1, %rdx
	movq	%rdx, -64(%rbp)
	.loc	26 1631 20
	movq	-272(%rbp), %rdx
	movq	%rdx, %rsi
	addq	$2, %rsi
	movq	%rsi, -56(%rbp)
Ltmp625:
	.loc	26 1632 19 is_stmt 1
	movl	-292(%rbp), %edi
	shrl	$12, %edi
	.loc	26 1632 18 is_stmt 0
	andl	$15, %edi
	.loc	26 1632 13
	orb	$-32, %dil
	movb	%dil, (%rax)
	.loc	26 1633 19 is_stmt 1
	movl	-292(%rbp), %r8d
	shrl	$6, %r8d
	.loc	26 1633 18 is_stmt 0
	andl	$63, %r8d
	.loc	26 1633 13
	orb	$-128, %r8b
	movb	%r8b, 1(%rcx)
	.loc	26 1634 19 is_stmt 1
	movl	-292(%rbp), %r9d
	.loc	26 1634 18 is_stmt 0
	andl	$63, %r9d
	.loc	26 1634 13
	orb	$-128, %r9b
	movb	%r9b, 2(%rdx)
Ltmp626:
	.loc	26 1623 5 is_stmt 1
	jmp	LBB196_17
LBB196_11:
	.loc	26 1636 14
	movq	-272(%rbp), %rax
	movq	%rax, -104(%rbp)
	.loc	26 1636 17 is_stmt 0
	movq	-272(%rbp), %rcx
	movq	%rcx, %rdx
	addq	$1, %rdx
	movq	%rdx, -96(%rbp)
	.loc	26 1636 20
	movq	-272(%rbp), %rdx
	movq	%rdx, %rsi
	addq	$2, %rsi
	movq	%rsi, -88(%rbp)
	.loc	26 1636 23
	movq	-272(%rbp), %rsi
	movq	%rsi, %rdi
	addq	$3, %rdi
	movq	%rdi, -80(%rbp)
Ltmp627:
	.loc	26 1637 19 is_stmt 1
	movl	-292(%rbp), %r8d
	shrl	$18, %r8d
	.loc	26 1637 18 is_stmt 0
	andl	$7, %r8d
	.loc	26 1637 13
	orb	$-16, %r8b
	movb	%r8b, (%rax)
	.loc	26 1638 19 is_stmt 1
	movl	-292(%rbp), %r9d
	shrl	$12, %r9d
	.loc	26 1638 18 is_stmt 0
	andl	$63, %r9d
	.loc	26 1638 13
	orb	$-128, %r9b
	movb	%r9b, 1(%rcx)
	.loc	26 1639 19 is_stmt 1
	movl	-292(%rbp), %r10d
	shrl	$6, %r10d
	.loc	26 1639 18 is_stmt 0
	andl	$63, %r10d
	.loc	26 1639 13
	orb	$-128, %r10b
	movb	%r10b, 2(%rdx)
	.loc	26 1640 19 is_stmt 1
	movl	-292(%rbp), %r11d
	.loc	26 1640 18 is_stmt 0
	andl	$63, %r11d
	.loc	26 1640 13
	orb	$-128, %r11b
	movb	%r11b, 3(%rsi)
Ltmp628:
	.loc	26 1623 5 is_stmt 1
	jmp	LBB196_17
LBB196_12:
	.loc	26 0 5 is_stmt 0
	movq	__ZN4core3fmt3num3imp54_$LT$impl$u20$core..fmt..Display$u20$for$u20$usize$GT$3fmt17h12ea2856299c9b06E@GOTPCREL(%rip), %rsi
	.file	27 "/rustc/6c8927b0cf80ceee19386026cf9d7fd4fd9d486f/src/libcore/macros/mod.rs"
	.loc	27 19 38 is_stmt 1
	leaq	-288(%rbp), %rax
	movq	%rax, -160(%rbp)
	leaq	-292(%rbp), %rax
	movq	%rax, -152(%rbp)
	leaq	-136(%rbp), %rax
	movq	%rax, -144(%rbp)
	.loc	26 1644 13
	movq	-160(%rbp), %rax
	movq	%rax, -24(%rbp)
	.loc	26 1645 13
	movq	-152(%rbp), %rcx
	movq	%rcx, -16(%rbp)
	.loc	26 1646 13
	movq	-144(%rbp), %rdx
	movq	%rdx, -8(%rbp)
Ltmp629:
	.loc	27 19 38
	movq	%rax, %rdi
	movq	%rcx, -360(%rbp)
	movq	%rdx, -368(%rbp)
	callq	__ZN4core3fmt10ArgumentV13new17h520322e041245b46E
	movq	%rax, -376(%rbp)
	movq	%rdx, -384(%rbp)
	.loc	27 0 38 is_stmt 0
	movq	__ZN4core3fmt3num53_$LT$impl$u20$core..fmt..UpperHex$u20$for$u20$u32$GT$3fmt17h7bd10b5f3c9584f1E@GOTPCREL(%rip), %rsi
	movq	-360(%rbp), %rdi
	.loc	27 19 38
	callq	__ZN4core3fmt10ArgumentV13new17hbe65aa89abf5c132E
	movq	%rax, -392(%rbp)
	movq	%rdx, -400(%rbp)
	.loc	27 0 38
	movq	__ZN4core3fmt3num3imp54_$LT$impl$u20$core..fmt..Display$u20$for$u20$usize$GT$3fmt17h12ea2856299c9b06E@GOTPCREL(%rip), %rsi
	movq	-368(%rbp), %rdi
	.loc	27 19 38
	callq	__ZN4core3fmt10ArgumentV13new17h520322e041245b46E
	movq	%rax, -408(%rbp)
	movq	%rdx, -416(%rbp)
	.loc	27 0 38
	movq	-376(%rbp), %rax
	.loc	27 19 38
	movq	%rax, -208(%rbp)
	movq	-384(%rbp), %rcx
	movq	%rcx, -200(%rbp)
	movq	-392(%rbp), %rdx
	movq	%rdx, -192(%rbp)
	movq	-400(%rbp), %rsi
	movq	%rsi, -184(%rbp)
	movq	-408(%rbp), %rdi
	movq	%rdi, -176(%rbp)
	movq	-416(%rbp), %r8
	movq	%r8, -168(%rbp)
Ltmp630:
	.loc	27 19 38
	leaq	-208(%rbp), %r9
	leaq	-256(%rbp), %rdi
	movq	-352(%rbp), %rsi
	movl	$3, %r10d
	movq	%r10, %rdx
	movq	%r9, %rcx
	movq	%r10, %r8
	callq	__ZN4core3fmt9Arguments6new_v117hecb3f1ddb34b0c6dE
	.loc	27 19 9
	leaq	l___unnamed_7(%rip), %rsi
	leaq	-256(%rbp), %rdi
	callq	__ZN4core9panicking9panic_fmt17hfce5b7173905fc53E
LBB196_17:
	.loc	27 0 9
	leaq	l___unnamed_8(%rip), %rax
	.loc	26 1649 16 is_stmt 1
	movq	-288(%rbp), %rcx
	.loc	26 1649 14 is_stmt 0
	movq	%rcx, -128(%rbp)
	.loc	26 1649 10
	movq	-128(%rbp), %rdx
	movq	-304(%rbp), %rdi
	movq	-312(%rbp), %rsi
	movq	%rax, %rcx
	callq	__ZN4core5slice77_$LT$impl$u20$core..ops..index..IndexMut$LT$I$GT$$u20$for$u20$$u5b$T$u5d$$GT$9index_mut17he81146daa0ff2a66E
	movq	%rax, -424(%rbp)
	movq	%rdx, -432(%rbp)
Ltmp631:
	.loc	26 0 10
	movq	-424(%rbp), %rax
	movq	-432(%rbp), %rdx
	.loc	26 1650 2 is_stmt 1
	addq	$432, %rsp
	popq	%rbp
	retq
Ltmp632:
Lfunc_end196:
	.cfi_endproc
	.p2align	2, 0x90
	.data_region jt32
.set L196_0_set_3, LBB196_3-LJTI196_0
.set L196_0_set_5, LBB196_5-LJTI196_0
.set L196_0_set_6, LBB196_6-LJTI196_0
.set L196_0_set_7, LBB196_7-LJTI196_0
LJTI196_0:
	.long	L196_0_set_3
	.long	L196_0_set_5
	.long	L196_0_set_6
	.long	L196_0_set_7
	.end_data_region

	.p2align	4, 0x90
__ZN4core4char7methods22_$LT$impl$u20$char$GT$11encode_utf817h2345c06b97169d07E:
Lfunc_begin197:
	.loc	26 642 0
	.cfi_startproc
	pushq	%rbp
	.cfi_def_cfa_offset 16
	.cfi_offset %rbp, -16
	movq	%rsp, %rbp
	.cfi_def_cfa_register %rbp
	subq	$64, %rsp
	movl	%edi, -20(%rbp)
	movq	%rsi, -16(%rbp)
	movq	%rdx, -8(%rbp)
Ltmp633:
	.loc	26 644 42 prologue_end
	callq	__ZN4core4char7methods15encode_utf8_raw17h267c812c4dea9d32E
	movq	%rax, -32(%rbp)
	movq	%rdx, -40(%rbp)
	.loc	26 0 42 is_stmt 0
	movq	-32(%rbp), %rdi
	movq	-40(%rbp), %rsi
	.loc	26 644 18
	callq	__ZN4core3str23from_utf8_unchecked_mut17h05a4db18357dd81eE
	movq	%rax, -48(%rbp)
	movq	%rdx, -56(%rbp)
	.loc	26 0 18
	movq	-48(%rbp), %rax
	movq	-56(%rbp), %rdx
	.loc	26 645 6 is_stmt 1
	addq	$64, %rsp
	popq	%rbp
	retq
Ltmp634:
Lfunc_end197:
	.cfi_endproc

	.p2align	4, 0x90
__ZN4core4char7methods8len_utf817h1d5311ba5bee051bE:
Lfunc_begin198:
	.loc	26 1593 0
	.cfi_startproc
	pushq	%rbp
	.cfi_def_cfa_offset 16
	.cfi_offset %rbp, -16
	movq	%rsp, %rbp
	.cfi_def_cfa_register %rbp
	subq	$24, %rsp
	movl	%edi, -4(%rbp)
Ltmp635:
	.loc	26 1594 8 prologue_end
	cmpl	$128, %edi
	movl	%edi, -20(%rbp)
	.loc	26 1594 5 is_stmt 0
	jb	LBB198_2
	.loc	26 0 5
	movl	-20(%rbp), %eax
	.loc	26 1596 15 is_stmt 1
	cmpl	$2048, %eax
	.loc	26 1596 12 is_stmt 0
	jb	LBB198_4
	jmp	LBB198_3
LBB198_2:
	.loc	26 1595 9 is_stmt 1
	movq	$1, -16(%rbp)
	.loc	26 1594 5
	jmp	LBB198_9
LBB198_3:
	.loc	26 0 5 is_stmt 0
	movl	-20(%rbp), %eax
	.loc	26 1598 15 is_stmt 1
	cmpl	$65536, %eax
	.loc	26 1598 12 is_stmt 0
	jb	LBB198_6
	jmp	LBB198_5
LBB198_4:
	.loc	26 1597 9 is_stmt 1
	movq	$2, -16(%rbp)
	.loc	26 1596 12
	jmp	LBB198_8
LBB198_5:
	.loc	26 1601 9
	movq	$4, -16(%rbp)
	.loc	26 1598 12
	jmp	LBB198_7
LBB198_6:
	.loc	26 1599 9
	movq	$3, -16(%rbp)
LBB198_7:
	.loc	26 1596 12
	jmp	LBB198_8
LBB198_8:
	.loc	26 1594 5
	jmp	LBB198_9
LBB198_9:
	.loc	26 1603 2
	movq	-16(%rbp), %rax
	addq	$24, %rsp
	popq	%rbp
	retq
Ltmp636:
Lfunc_end198:
	.cfi_endproc

	.p2align	4, 0x90
__ZN4core4iter6traits8iterator8Iterator3nth17h79dbacb1a55b5adaE:
Lfunc_begin199:
	.file	28 "/rustc/6c8927b0cf80ceee19386026cf9d7fd4fd9d486f/src/libcore/iter/traits/iterator.rs"
	.loc	28 327 0
	.cfi_startproc
	pushq	%rbp
	.cfi_def_cfa_offset 16
	.cfi_offset %rbp, -16
	movq	%rsp, %rbp
	.cfi_def_cfa_register %rbp
	subq	$112, %rsp
	movq	%rsi, -80(%rbp)
	movq	%rdi, -40(%rbp)
	movq	%rdi, -88(%rbp)
LBB199_1:
	movq	-88(%rbp), %rdi
Ltmp637:
	.loc	28 328 29 prologue_end
	callq	__ZN84_$LT$core..str..Split$LT$P$GT$$u20$as$u20$core..iter..traits..iterator..Iterator$GT$4next17h1d42fbaacfd81e91E
	movq	%rdx, -48(%rbp)
	movq	%rax, -56(%rbp)
	.loc	28 0 29 is_stmt 0
	xorl	%eax, %eax
	movl	%eax, %ecx
	.loc	28 328 19
	cmpq	$0, -56(%rbp)
	movl	$1, %edx
	cmovbeq	%rcx, %rdx
	cmpq	$1, %rdx
	je	LBB199_4
	.loc	28 333 9 is_stmt 1
	jmp	LBB199_9
LBB199_4:
	.loc	28 328 24
	movq	-56(%rbp), %rax
	movq	-48(%rbp), %rcx
	movq	%rax, -32(%rbp)
	movq	%rcx, -24(%rbp)
Ltmp638:
	.loc	28 329 16
	cmpq	$0, -80(%rbp)
	movq	%rax, -96(%rbp)
	movq	%rcx, -104(%rbp)
	.loc	28 329 13 is_stmt 0
	je	LBB199_6
	.loc	28 332 13 is_stmt 1
	movq	-80(%rbp), %rax
	subq	$1, %rax
	movq	%rax, -80(%rbp)
Ltmp639:
	.loc	28 333 9
	jmp	LBB199_8
LBB199_6:
	.loc	28 0 9 is_stmt 0
	movq	-96(%rbp), %rax
Ltmp640:
	.loc	28 330 24 is_stmt 1
	movq	%rax, -72(%rbp)
	movq	-104(%rbp), %rcx
	movq	%rcx, -64(%rbp)
Ltmp641:
LBB199_7:
	.loc	28 335 6
	movq	-72(%rbp), %rax
	movq	-64(%rbp), %rdx
	addq	$112, %rsp
	popq	%rbp
	retq
LBB199_8:
	.loc	28 328 9
	jmp	LBB199_1
LBB199_9:
	.loc	28 334 9
	movq	$0, -72(%rbp)
	.loc	28 335 6
	jmp	LBB199_7
Ltmp642:
Lfunc_end199:
	.cfi_endproc

	.p2align	4, 0x90
__ZN4core5alloc6layout10size_align17hb04bd8d4c351a9cbE:
Lfunc_begin200:
	.file	29 "/rustc/6c8927b0cf80ceee19386026cf9d7fd4fd9d486f/src/libcore/alloc/layout.rs"
	.loc	29 7 0
	.cfi_startproc
	pushq	%rbp
	.cfi_def_cfa_offset 16
	.cfi_offset %rbp, -16
	movq	%rsp, %rbp
	.cfi_def_cfa_register %rbp
	subq	$48, %rsp
Ltmp643:
	.loc	18 310 5 prologue_end
	movq	$640, -16(%rbp)
	movq	-16(%rbp), %rax
	movq	%rax, -40(%rbp)
Ltmp644:
	.loc	18 451 5
	movq	$8, -8(%rbp)
	movq	-8(%rbp), %rax
	movq	%rax, -48(%rbp)
Ltmp645:
	.loc	18 0 5 is_stmt 0
	movq	-40(%rbp), %rax
	.loc	29 8 5 is_stmt 1
	movq	%rax, -32(%rbp)
	movq	-48(%rbp), %rcx
	movq	%rcx, -24(%rbp)
	.loc	29 9 2
	movq	-32(%rbp), %rax
	movq	-24(%rbp), %rdx
	addq	$48, %rsp
	popq	%rbp
	retq
Ltmp646:
Lfunc_end200:
	.cfi_endproc

	.p2align	4, 0x90
__ZN4core5alloc6layout10size_align17hf95310bd2154f4acE:
Lfunc_begin201:
	.loc	29 7 0
	.cfi_startproc
	pushq	%rbp
	.cfi_def_cfa_offset 16
	.cfi_offset %rbp, -16
	movq	%rsp, %rbp
	.cfi_def_cfa_register %rbp
	subq	$48, %rsp
Ltmp647:
	.loc	18 310 5 prologue_end
	movq	$544, -16(%rbp)
	movq	-16(%rbp), %rax
	movq	%rax, -40(%rbp)
Ltmp648:
	.loc	18 451 5
	movq	$8, -8(%rbp)
	movq	-8(%rbp), %rax
	movq	%rax, -48(%rbp)
Ltmp649:
	.loc	18 0 5 is_stmt 0
	movq	-40(%rbp), %rax
	.loc	29 8 5 is_stmt 1
	movq	%rax, -32(%rbp)
	movq	-48(%rbp), %rcx
	movq	%rcx, -24(%rbp)
	.loc	29 9 2
	movq	-32(%rbp), %rax
	movq	-24(%rbp), %rdx
	addq	$48, %rsp
	popq	%rbp
	retq
Ltmp650:
Lfunc_end201:
	.cfi_endproc

	.p2align	4, 0x90
__ZN4core5alloc6layout6Layout25from_size_align_unchecked17h11e3b4ea3d6d5b69E:
Lfunc_begin202:
	.loc	29 92 0
	.cfi_startproc
	pushq	%rbp
	.cfi_def_cfa_offset 16
	.cfi_offset %rbp, -16
	movq	%rsp, %rbp
	.cfi_def_cfa_register %rbp
	subq	$48, %rsp
	movq	%rdi, -16(%rbp)
	movq	%rsi, -8(%rbp)
	movq	%rdi, -40(%rbp)
Ltmp651:
	.loc	29 94 48 prologue_end
	movq	%rsi, %rdi
	callq	__ZN4core3num12NonZeroUsize13new_unchecked17h362c2f5f50984205E
	movq	%rax, -48(%rbp)
	.loc	29 0 48 is_stmt 0
	movq	-40(%rbp), %rax
	.loc	29 94 9
	movq	%rax, -32(%rbp)
	movq	-48(%rbp), %rcx
	movq	%rcx, -24(%rbp)
	.loc	29 95 6 is_stmt 1
	movq	-32(%rbp), %rax
	movq	-24(%rbp), %rdx
	addq	$48, %rsp
	popq	%rbp
	retq
Ltmp652:
Lfunc_end202:
	.cfi_endproc

	.p2align	4, 0x90
__ZN4core5alloc6layout6Layout3new17h52c1a340dbc10651E:
Lfunc_begin203:
	.loc	29 117 0
	.cfi_startproc
	pushq	%rbp
	.cfi_def_cfa_offset 16
	.cfi_offset %rbp, -16
	movq	%rsp, %rbp
	.cfi_def_cfa_register %rbp
	subq	$48, %rsp
Ltmp653:
	.loc	29 118 29 prologue_end
	callq	__ZN4core5alloc6layout10size_align17hf95310bd2154f4acE
	movq	%rax, -24(%rbp)
	movq	%rdx, -32(%rbp)
	.loc	29 0 29 is_stmt 0
	movq	-24(%rbp), %rax
	.loc	29 118 14
	movq	%rax, -16(%rbp)
	movq	-32(%rbp), %rcx
	.loc	29 118 20
	movq	%rcx, -8(%rbp)
Ltmp654:
	.loc	29 123 18 is_stmt 1
	movq	%rax, %rdi
	movq	%rcx, %rsi
	callq	__ZN4core5alloc6layout6Layout25from_size_align_unchecked17h11e3b4ea3d6d5b69E
	movq	%rax, -40(%rbp)
	movq	%rdx, -48(%rbp)
Ltmp655:
	.loc	29 0 18 is_stmt 0
	movq	-40(%rbp), %rax
	movq	-48(%rbp), %rdx
	.loc	29 124 6 is_stmt 1
	addq	$48, %rsp
	popq	%rbp
	retq
Ltmp656:
Lfunc_end203:
	.cfi_endproc

	.p2align	4, 0x90
__ZN4core5alloc6layout6Layout3new17h8ca6648922735df9E:
Lfunc_begin204:
	.loc	29 117 0
	.cfi_startproc
	pushq	%rbp
	.cfi_def_cfa_offset 16
	.cfi_offset %rbp, -16
	movq	%rsp, %rbp
	.cfi_def_cfa_register %rbp
	subq	$48, %rsp
Ltmp657:
	.loc	29 118 29 prologue_end
	callq	__ZN4core5alloc6layout10size_align17hb04bd8d4c351a9cbE
	movq	%rax, -24(%rbp)
	movq	%rdx, -32(%rbp)
	.loc	29 0 29 is_stmt 0
	movq	-24(%rbp), %rax
	.loc	29 118 14
	movq	%rax, -16(%rbp)
	movq	-32(%rbp), %rcx
	.loc	29 118 20
	movq	%rcx, -8(%rbp)
Ltmp658:
	.loc	29 123 18 is_stmt 1
	movq	%rax, %rdi
	movq	%rcx, %rsi
	callq	__ZN4core5alloc6layout6Layout25from_size_align_unchecked17h11e3b4ea3d6d5b69E
	movq	%rax, -40(%rbp)
	movq	%rdx, -48(%rbp)
Ltmp659:
	.loc	29 0 18 is_stmt 0
	movq	-40(%rbp), %rax
	movq	-48(%rbp), %rdx
	.loc	29 124 6 is_stmt 1
	addq	$48, %rsp
	popq	%rbp
	retq
Ltmp660:
Lfunc_end204:
	.cfi_endproc

	.p2align	4, 0x90
__ZN4core5alloc6layout6Layout4size17h84bd5b7a85252298E:
Lfunc_begin205:
	.loc	29 101 0
	.cfi_startproc
	pushq	%rbp
	.cfi_def_cfa_offset 16
	.cfi_offset %rbp, -16
	movq	%rsp, %rbp
	.cfi_def_cfa_register %rbp
	pushq	%rax
	movq	%rdi, -8(%rbp)
Ltmp661:
	.loc	29 102 9 prologue_end
	movq	(%rdi), %rax
	.loc	29 103 6
	addq	$8, %rsp
	popq	%rbp
	retq
Ltmp662:
Lfunc_end205:
	.cfi_endproc

	.p2align	4, 0x90
__ZN4core5alloc6layout6Layout5align17hc8fe2a13dcd0bcfbE:
Lfunc_begin206:
	.loc	29 109 0
	.cfi_startproc
	pushq	%rbp
	.cfi_def_cfa_offset 16
	.cfi_offset %rbp, -16
	movq	%rsp, %rbp
	.cfi_def_cfa_register %rbp
	subq	$16, %rsp
	movq	%rdi, -8(%rbp)
Ltmp663:
	.loc	29 110 9 prologue_end
	movq	8(%rdi), %rdi
	callq	__ZN4core3num12NonZeroUsize3get17h70daa29668f1efb5E
	movq	%rax, -16(%rbp)
	.loc	29 0 9 is_stmt 0
	movq	-16(%rbp), %rax
	.loc	29 111 6 is_stmt 1
	addq	$16, %rsp
	popq	%rbp
	retq
Ltmp664:
Lfunc_end206:
	.cfi_endproc

	.p2align	4, 0x90
__ZN4core5alloc6layout6Layout8dangling17hb4796b79535b8c83E:
Lfunc_begin207:
	.loc	29 181 0
	.cfi_startproc
	pushq	%rbp
	.cfi_def_cfa_offset 16
	.cfi_offset %rbp, -16
	movq	%rsp, %rbp
	.cfi_def_cfa_register %rbp
	subq	$32, %rsp
	movq	%rdi, -8(%rbp)
Ltmp665:
	.loc	29 183 41 prologue_end
	callq	__ZN4core5alloc6layout6Layout5align17hc8fe2a13dcd0bcfbE
	movq	%rax, -16(%rbp)
	.loc	29 0 41 is_stmt 0
	movq	-16(%rbp), %rdi
	.loc	29 183 18
	callq	__ZN4core3ptr8non_null16NonNull$LT$T$GT$13new_unchecked17hf44635e6c8cfe568E
	movq	%rax, -24(%rbp)
	.loc	29 0 18
	movq	-24(%rbp), %rax
	.loc	29 184 6 is_stmt 1
	addq	$32, %rsp
	popq	%rbp
	retq
Ltmp666:
Lfunc_end207:
	.cfi_endproc

	.p2align	4, 0x90
__ZN4core5slice14from_raw_parts17h7f709e53c03370efE:
Lfunc_begin208:
	.loc	1 6094 0
	.cfi_startproc
	pushq	%rbp
	.cfi_def_cfa_offset 16
	.cfi_offset %rbp, -16
	movq	%rsp, %rbp
	.cfi_def_cfa_register %rbp
	subq	$32, %rsp
	movq	%rdi, -16(%rbp)
	movq	%rsi, -8(%rbp)
Ltmp667:
	.loc	1 6101 16 prologue_end
	callq	__ZN4core3ptr20slice_from_raw_parts17hfb7d96fb3fe569b7E
	movq	%rax, -24(%rbp)
	movq	%rdx, -32(%rbp)
	.loc	1 0 16 is_stmt 0
	movq	-24(%rbp), %rax
	movq	-32(%rbp), %rdx
	.loc	1 6102 2 is_stmt 1
	addq	$32, %rsp
	popq	%rbp
	retq
Ltmp668:
Lfunc_end208:
	.cfi_endproc

	.p2align	4, 0x90
__ZN4core5slice14from_raw_parts17h8327c2619ec68e6eE:
Lfunc_begin209:
	.loc	1 6094 0
	.cfi_startproc
	pushq	%rbp
	.cfi_def_cfa_offset 16
	.cfi_offset %rbp, -16
	movq	%rsp, %rbp
	.cfi_def_cfa_register %rbp
	subq	$32, %rsp
	movq	%rdi, -16(%rbp)
	movq	%rsi, -8(%rbp)
Ltmp669:
	.loc	1 6101 16 prologue_end
	callq	__ZN4core3ptr20slice_from_raw_parts17h09e94f5870c606d3E
	movq	%rax, -24(%rbp)
	movq	%rdx, -32(%rbp)
	.loc	1 0 16 is_stmt 0
	movq	-24(%rbp), %rax
	movq	-32(%rbp), %rdx
	.loc	1 6102 2 is_stmt 1
	addq	$32, %rsp
	popq	%rbp
	retq
Ltmp670:
Lfunc_end209:
	.cfi_endproc

	.p2align	4, 0x90
__ZN4core5slice14from_raw_parts17hbbd15163943728ddE:
Lfunc_begin210:
	.loc	1 6094 0
	.cfi_startproc
	pushq	%rbp
	.cfi_def_cfa_offset 16
	.cfi_offset %rbp, -16
	movq	%rsp, %rbp
	.cfi_def_cfa_register %rbp
	subq	$32, %rsp
	movq	%rdi, -16(%rbp)
	movq	%rsi, -8(%rbp)
Ltmp671:
	.loc	1 6101 16 prologue_end
	callq	__ZN4core3ptr20slice_from_raw_parts17ha316e0cb2307ff51E
	movq	%rax, -24(%rbp)
	movq	%rdx, -32(%rbp)
	.loc	1 0 16 is_stmt 0
	movq	-24(%rbp), %rax
	movq	-32(%rbp), %rdx
	.loc	1 6102 2 is_stmt 1
	addq	$32, %rsp
	popq	%rbp
	retq
Ltmp672:
Lfunc_end210:
	.cfi_endproc

	.p2align	4, 0x90
__ZN4core5slice29_$LT$impl$u20$$u5b$T$u5d$$GT$11starts_with17hee8f669029e23a64E:
Lfunc_begin211:
	.loc	1 1431 0
	.cfi_startproc
	pushq	%rbp
	.cfi_def_cfa_offset 16
	.cfi_offset %rbp, -16
	movq	%rsp, %rbp
	.cfi_def_cfa_register %rbp
	subq	$128, %rsp
	movq	%rdx, -72(%rbp)
	movq	%rcx, -64(%rbp)
	movq	%rdi, -24(%rbp)
	movq	%rsi, -16(%rbp)
Ltmp673:
	.loc	1 1435 17 prologue_end
	movq	-72(%rbp), %rax
	movq	-64(%rbp), %rcx
	movq	%rdi, -80(%rbp)
	movq	%rax, %rdi
	movq	%rsi, -88(%rbp)
	movq	%rcx, %rsi
	callq	__ZN4core5slice29_$LT$impl$u20$$u5b$T$u5d$$GT$3len17h308c571c03cfc3daE
	movq	%rax, -8(%rbp)
	movq	%rax, -96(%rbp)
	.loc	1 0 17 is_stmt 0
	movq	-80(%rbp), %rdi
	movq	-88(%rbp), %rsi
Ltmp674:
	.loc	1 1436 9 is_stmt 1
	callq	__ZN4core5slice29_$LT$impl$u20$$u5b$T$u5d$$GT$3len17h308c571c03cfc3daE
	movq	%rax, -104(%rbp)
	jmp	LBB211_6
LBB211_2:
	movb	$1, -49(%rbp)
	jmp	LBB211_5
LBB211_3:
	movb	$0, -49(%rbp)
	jmp	LBB211_5
LBB211_4:
	.loc	1 0 9 is_stmt 0
	leaq	l___unnamed_9(%rip), %rax
	movq	-96(%rbp), %rcx
	.loc	1 1436 44
	movq	%rcx, -32(%rbp)
	.loc	1 1436 39
	movq	-32(%rbp), %rdx
	movq	-80(%rbp), %rdi
	movq	-88(%rbp), %rsi
	movq	%rax, %rcx
	callq	__ZN4core5slice74_$LT$impl$u20$core..ops..index..Index$LT$I$GT$$u20$for$u20$$u5b$T$u5d$$GT$5index17h4bbae5b4ce4b5d4fE
	movq	%rax, -112(%rbp)
	movq	%rdx, -120(%rbp)
	jmp	LBB211_7
Ltmp675:
LBB211_5:
	.loc	1 1437 6 is_stmt 1
	movb	-49(%rbp), %al
	andb	$1, %al
	movzbl	%al, %eax
	addq	$128, %rsp
	popq	%rbp
	retq
LBB211_6:
	.loc	1 0 6 is_stmt 0
	movq	-104(%rbp), %rax
	movq	-96(%rbp), %rcx
Ltmp676:
	.loc	1 1436 9 is_stmt 1
	cmpq	%rcx, %rax
	jae	LBB211_4
	jmp	LBB211_3
LBB211_7:
	.loc	1 0 9 is_stmt 0
	movq	-112(%rbp), %rax
	.loc	1 1436 38
	movq	%rax, -48(%rbp)
	movq	-120(%rbp), %rcx
	movq	%rcx, -40(%rbp)
	.loc	1 1436 28
	leaq	-72(%rbp), %rdi
	leaq	-48(%rbp), %rsi
	callq	__ZN4core3cmp5impls69_$LT$impl$u20$core..cmp..PartialEq$LT$$RF$B$GT$$u20$for$u20$$RF$A$GT$2eq17h55e2b1ee441e6ad8E
	movb	%al, -121(%rbp)
	.loc	1 0 28
	movb	-121(%rbp), %al
	.loc	1 1436 9
	testb	$1, %al
	jne	LBB211_2
	jmp	LBB211_3
Ltmp677:
Lfunc_end211:
	.cfi_endproc

	.p2align	4, 0x90
__ZN4core5slice29_$LT$impl$u20$$u5b$T$u5d$$GT$13get_unchecked17h4c542546dc33dfddE:
Lfunc_begin212:
	.loc	1 309 0 is_stmt 1
	.cfi_startproc
	pushq	%rbp
	.cfi_def_cfa_offset 16
	.cfi_offset %rbp, -16
	movq	%rsp, %rbp
	.cfi_def_cfa_register %rbp
	subq	$48, %rsp
	movq	%rdi, -24(%rbp)
	movq	%rsi, -16(%rbp)
	movq	%rdx, -8(%rbp)
	movq	%rdi, -32(%rbp)
Ltmp678:
	.loc	1 316 20 prologue_end
	movq	%rdx, %rdi
	movq	-32(%rbp), %rax
	movq	%rsi, -40(%rbp)
	movq	%rax, %rsi
	movq	-40(%rbp), %rdx
	callq	__ZN68_$LT$usize$u20$as$u20$core..slice..SliceIndex$LT$$u5b$T$u5d$$GT$$GT$13get_unchecked17h000761933fb3ec87E
	movq	%rax, -48(%rbp)
	.loc	1 0 20 is_stmt 0
	movq	-48(%rbp), %rax
	.loc	1 317 6 is_stmt 1
	addq	$48, %rsp
	popq	%rbp
	retq
Ltmp679:
Lfunc_end212:
	.cfi_endproc

	.p2align	4, 0x90
__ZN4core5slice29_$LT$impl$u20$$u5b$T$u5d$$GT$13get_unchecked17h829e327c16220656E:
Lfunc_begin213:
	.loc	1 309 0
	.cfi_startproc
	pushq	%rbp
	.cfi_def_cfa_offset 16
	.cfi_offset %rbp, -16
	movq	%rsp, %rbp
	.cfi_def_cfa_register %rbp
	subq	$48, %rsp
	movq	%rdi, -24(%rbp)
	movq	%rsi, -16(%rbp)
	movq	%rdx, -8(%rbp)
	movq	%rdi, -32(%rbp)
Ltmp680:
	.loc	1 316 20 prologue_end
	movq	%rdx, %rdi
	movq	-32(%rbp), %rax
	movq	%rsi, -40(%rbp)
	movq	%rax, %rsi
	movq	-40(%rbp), %rdx
	callq	__ZN68_$LT$usize$u20$as$u20$core..slice..SliceIndex$LT$$u5b$T$u5d$$GT$$GT$13get_unchecked17h3cced54b54a4c903E
	movq	%rax, -48(%rbp)
	.loc	1 0 20 is_stmt 0
	movq	-48(%rbp), %rax
	.loc	1 317 6 is_stmt 1
	addq	$48, %rsp
	popq	%rbp
	retq
Ltmp681:
Lfunc_end213:
	.cfi_endproc

	.p2align	4, 0x90
__ZN4core5slice29_$LT$impl$u20$$u5b$T$u5d$$GT$13get_unchecked17hce4872b92bb7aae1E:
Lfunc_begin214:
	.loc	1 309 0
	.cfi_startproc
	pushq	%rbp
	.cfi_def_cfa_offset 16
	.cfi_offset %rbp, -16
	movq	%rsp, %rbp
	.cfi_def_cfa_register %rbp
	subq	$48, %rsp
	movq	%rdi, -24(%rbp)
	movq	%rsi, -16(%rbp)
	movq	%rdx, -8(%rbp)
	movq	%rdi, -32(%rbp)
Ltmp682:
	.loc	1 316 20 prologue_end
	movq	%rdx, %rdi
	movq	-32(%rbp), %rax
	movq	%rsi, -40(%rbp)
	movq	%rax, %rsi
	movq	-40(%rbp), %rdx
	callq	__ZN68_$LT$usize$u20$as$u20$core..slice..SliceIndex$LT$$u5b$T$u5d$$GT$$GT$13get_unchecked17h7bf9dbddfefde7cdE
	movq	%rax, -48(%rbp)
	.loc	1 0 20 is_stmt 0
	movq	-48(%rbp), %rax
	.loc	1 317 6 is_stmt 1
	addq	$48, %rsp
	popq	%rbp
	retq
Ltmp683:
Lfunc_end214:
	.cfi_endproc

	.p2align	4, 0x90
__ZN4core5slice29_$LT$impl$u20$$u5b$T$u5d$$GT$13get_unchecked17heeabf00a121fae88E:
Lfunc_begin215:
	.loc	1 309 0
	.cfi_startproc
	pushq	%rbp
	.cfi_def_cfa_offset 16
	.cfi_offset %rbp, -16
	movq	%rsp, %rbp
	.cfi_def_cfa_register %rbp
	subq	$48, %rsp
	movq	%rdi, -24(%rbp)
	movq	%rsi, -16(%rbp)
	movq	%rdx, -8(%rbp)
	movq	%rdi, -32(%rbp)
Ltmp684:
	.loc	1 316 20 prologue_end
	movq	%rdx, %rdi
	movq	-32(%rbp), %rax
	movq	%rsi, -40(%rbp)
	movq	%rax, %rsi
	movq	-40(%rbp), %rdx
	callq	__ZN68_$LT$usize$u20$as$u20$core..slice..SliceIndex$LT$$u5b$T$u5d$$GT$$GT$13get_unchecked17h28c107a8d7c4b09aE
	movq	%rax, -48(%rbp)
	.loc	1 0 20 is_stmt 0
	movq	-48(%rbp), %rax
	.loc	1 317 6 is_stmt 1
	addq	$48, %rsp
	popq	%rbp
	retq
Ltmp685:
Lfunc_end215:
	.cfi_endproc

	.p2align	4, 0x90
__ZN4core5slice29_$LT$impl$u20$$u5b$T$u5d$$GT$17get_unchecked_mut17h6928e0de4deb6818E:
Lfunc_begin216:
	.loc	1 343 0
	.cfi_startproc
	pushq	%rbp
	.cfi_def_cfa_offset 16
	.cfi_offset %rbp, -16
	movq	%rsp, %rbp
	.cfi_def_cfa_register %rbp
	subq	$48, %rsp
	movq	%rdi, -24(%rbp)
	movq	%rsi, -16(%rbp)
	movq	%rdx, -8(%rbp)
	movq	%rdi, -32(%rbp)
Ltmp686:
	.loc	1 350 24 prologue_end
	movq	%rdx, %rdi
	movq	-32(%rbp), %rax
	movq	%rsi, -40(%rbp)
	movq	%rax, %rsi
	movq	-40(%rbp), %rdx
	callq	__ZN68_$LT$usize$u20$as$u20$core..slice..SliceIndex$LT$$u5b$T$u5d$$GT$$GT$17get_unchecked_mut17h60d8876e309589acE
	movq	%rax, -48(%rbp)
	.loc	1 0 24 is_stmt 0
	movq	-48(%rbp), %rax
	.loc	1 351 6 is_stmt 1
	addq	$48, %rsp
	popq	%rbp
	retq
Ltmp687:
Lfunc_end216:
	.cfi_endproc

	.p2align	4, 0x90
__ZN4core5slice29_$LT$impl$u20$$u5b$T$u5d$$GT$3get17ha21f17621da4e126E:
Lfunc_begin217:
	.loc	1 256 0
	.cfi_startproc
	pushq	%rbp
	.cfi_def_cfa_offset 16
	.cfi_offset %rbp, -16
	movq	%rsp, %rbp
	.cfi_def_cfa_register %rbp
	subq	$64, %rsp
	movq	%rdi, -32(%rbp)
	movq	%rsi, -24(%rbp)
	movq	%rdx, -16(%rbp)
	movq	%rcx, -8(%rbp)
	movq	%rdi, -40(%rbp)
Ltmp688:
	.loc	1 260 9 prologue_end
	movq	%rdx, %rdi
	movq	%rsi, -48(%rbp)
	movq	%rcx, %rsi
	movq	-40(%rbp), %rdx
	movq	-48(%rbp), %rcx
	callq	__ZN99_$LT$core..ops..range..Range$LT$usize$GT$$u20$as$u20$core..slice..SliceIndex$LT$$u5b$T$u5d$$GT$$GT$3get17h2eb5fd5ea20fc265E
	movq	%rax, -56(%rbp)
	movq	%rdx, -64(%rbp)
	.loc	1 0 9 is_stmt 0
	movq	-56(%rbp), %rax
	movq	-64(%rbp), %rdx
	.loc	1 261 6 is_stmt 1
	addq	$64, %rsp
	popq	%rbp
	retq
Ltmp689:
Lfunc_end217:
	.cfi_endproc

	.p2align	4, 0x90
__ZN4core5slice29_$LT$impl$u20$$u5b$T$u5d$$GT$3len17h308c571c03cfc3daE:
Lfunc_begin218:
	.loc	1 72 0
	.cfi_startproc
	pushq	%rbp
	.cfi_def_cfa_offset 16
	.cfi_offset %rbp, -16
	movq	%rsp, %rbp
	.cfi_def_cfa_register %rbp
	subq	$32, %rsp
	movq	%rdi, -16(%rbp)
	movq	%rsi, -8(%rbp)
Ltmp690:
	.loc	1 73 18 prologue_end
	movq	%rdi, -32(%rbp)
	movq	%rsi, -24(%rbp)
	movq	-24(%rbp), %rax
	.loc	1 74 6
	addq	$32, %rsp
	popq	%rbp
	retq
Ltmp691:
Lfunc_end218:
	.cfi_endproc

	.p2align	4, 0x90
__ZN4core5slice29_$LT$impl$u20$$u5b$T$u5d$$GT$6as_ptr17h256c051578408661E:
Lfunc_begin219:
	.loc	1 382 0
	.cfi_startproc
	pushq	%rbp
	.cfi_def_cfa_offset 16
	.cfi_offset %rbp, -16
	movq	%rsp, %rbp
	.cfi_def_cfa_register %rbp
	subq	$16, %rsp
	movq	%rdi, -16(%rbp)
	movq	%rsi, -8(%rbp)
Ltmp692:
	.loc	1 384 6 prologue_end
	movq	%rdi, %rax
	addq	$16, %rsp
	popq	%rbp
	retq
Ltmp693:
Lfunc_end219:
	.cfi_endproc

	.p2align	4, 0x90
__ZN4core5slice74_$LT$impl$u20$core..ops..index..Index$LT$I$GT$$u20$for$u20$$u5b$T$u5d$$GT$5index17h4582bdefb8f0568eE:
Lfunc_begin220:
	.loc	1 2958 0
	.cfi_startproc
	pushq	%rbp
	.cfi_def_cfa_offset 16
	.cfi_offset %rbp, -16
	movq	%rsp, %rbp
	.cfi_def_cfa_register %rbp
	subq	$64, %rsp
	movq	%rdi, -32(%rbp)
	movq	%rsi, -24(%rbp)
	movq	%rdx, -16(%rbp)
	movq	%rcx, -8(%rbp)
	movq	%rdi, -40(%rbp)
Ltmp694:
	.loc	1 2959 9 prologue_end
	movq	%rdx, %rdi
	movq	%rsi, -48(%rbp)
	movq	%rcx, %rsi
	movq	-40(%rbp), %rdx
	movq	-48(%rbp), %rcx
	callq	__ZN99_$LT$core..ops..range..Range$LT$usize$GT$$u20$as$u20$core..slice..SliceIndex$LT$$u5b$T$u5d$$GT$$GT$5index17h551433a5142190b0E
	movq	%rax, -56(%rbp)
	movq	%rdx, -64(%rbp)
	.loc	1 0 9 is_stmt 0
	movq	-56(%rbp), %rax
	movq	-64(%rbp), %rdx
	.loc	1 2960 6 is_stmt 1
	addq	$64, %rsp
	popq	%rbp
	retq
Ltmp695:
Lfunc_end220:
	.cfi_endproc

	.p2align	4, 0x90
__ZN4core5slice74_$LT$impl$u20$core..ops..index..Index$LT$I$GT$$u20$for$u20$$u5b$T$u5d$$GT$5index17h4bbae5b4ce4b5d4fE:
Lfunc_begin221:
	.loc	1 2958 0
	.cfi_startproc
	pushq	%rbp
	.cfi_def_cfa_offset 16
	.cfi_offset %rbp, -16
	movq	%rsp, %rbp
	.cfi_def_cfa_register %rbp
	subq	$64, %rsp
	movq	%rdi, -24(%rbp)
	movq	%rsi, -16(%rbp)
	movq	%rdx, -8(%rbp)
	movq	%rdi, -32(%rbp)
Ltmp696:
	.loc	1 2959 9 prologue_end
	movq	%rdx, %rdi
	movq	-32(%rbp), %rax
	movq	%rsi, -40(%rbp)
	movq	%rax, %rsi
	movq	-40(%rbp), %rdx
	callq	__ZN101_$LT$core..ops..range..RangeTo$LT$usize$GT$$u20$as$u20$core..slice..SliceIndex$LT$$u5b$T$u5d$$GT$$GT$5index17h2f4b36a14e8d50f1E
	movq	%rax, -48(%rbp)
	movq	%rdx, -56(%rbp)
	.loc	1 0 9 is_stmt 0
	movq	-48(%rbp), %rax
	movq	-56(%rbp), %rdx
	.loc	1 2960 6 is_stmt 1
	addq	$64, %rsp
	popq	%rbp
	retq
Ltmp697:
Lfunc_end221:
	.cfi_endproc

	.p2align	4, 0x90
__ZN4core5slice77_$LT$impl$u20$core..ops..index..IndexMut$LT$I$GT$$u20$for$u20$$u5b$T$u5d$$GT$9index_mut17h32169feeddf1c979E:
Lfunc_begin222:
	.loc	1 2969 0
	.cfi_startproc
	pushq	%rbp
	.cfi_def_cfa_offset 16
	.cfi_offset %rbp, -16
	movq	%rsp, %rbp
	.cfi_def_cfa_register %rbp
	subq	$48, %rsp
	movq	%rdi, -24(%rbp)
	movq	%rsi, -16(%rbp)
Ltmp698:
	.loc	1 2970 9 prologue_end
	callq	__ZN90_$LT$core..ops..range..RangeFull$u20$as$u20$core..slice..SliceIndex$LT$$u5b$T$u5d$$GT$$GT$9index_mut17hc959cbd0fa8e127aE
	movq	%rax, -32(%rbp)
	movq	%rdx, -40(%rbp)
	.loc	1 0 9 is_stmt 0
	movq	-32(%rbp), %rax
	movq	-40(%rbp), %rdx
	.loc	1 2971 6 is_stmt 1
	addq	$48, %rsp
	popq	%rbp
	retq
Ltmp699:
Lfunc_end222:
	.cfi_endproc

	.p2align	4, 0x90
__ZN4core5slice77_$LT$impl$u20$core..ops..index..IndexMut$LT$I$GT$$u20$for$u20$$u5b$T$u5d$$GT$9index_mut17he81146daa0ff2a66E:
Lfunc_begin223:
	.loc	1 2969 0
	.cfi_startproc
	pushq	%rbp
	.cfi_def_cfa_offset 16
	.cfi_offset %rbp, -16
	movq	%rsp, %rbp
	.cfi_def_cfa_register %rbp
	subq	$64, %rsp
	movq	%rdi, -24(%rbp)
	movq	%rsi, -16(%rbp)
	movq	%rdx, -8(%rbp)
	movq	%rdi, -32(%rbp)
Ltmp700:
	.loc	1 2970 9 prologue_end
	movq	%rdx, %rdi
	movq	-32(%rbp), %rax
	movq	%rsi, -40(%rbp)
	movq	%rax, %rsi
	movq	-40(%rbp), %rdx
	callq	__ZN101_$LT$core..ops..range..RangeTo$LT$usize$GT$$u20$as$u20$core..slice..SliceIndex$LT$$u5b$T$u5d$$GT$$GT$9index_mut17h70c0188e52e3b4bdE
	movq	%rax, -48(%rbp)
	movq	%rdx, -56(%rbp)
	.loc	1 0 9 is_stmt 0
	movq	-48(%rbp), %rax
	movq	-56(%rbp), %rdx
	.loc	1 2971 6 is_stmt 1
	addq	$64, %rsp
	popq	%rbp
	retq
Ltmp701:
Lfunc_end223:
	.cfi_endproc

	.p2align	4, 0x90
__ZN4core5slice81_$LT$impl$u20$core..cmp..PartialEq$LT$$u5b$B$u5d$$GT$$u20$for$u20$$u5b$A$u5d$$GT$2eq17hf85c4d50d0b38659E:
Lfunc_begin224:
	.loc	1 6187 0
	.cfi_startproc
	pushq	%rbp
	.cfi_def_cfa_offset 16
	.cfi_offset %rbp, -16
	movq	%rsp, %rbp
	.cfi_def_cfa_register %rbp
	subq	$48, %rsp
	movq	%rdi, -32(%rbp)
	movq	%rsi, -24(%rbp)
	movq	%rdx, -16(%rbp)
	movq	%rcx, -8(%rbp)
Ltmp702:
	.loc	1 6188 9 prologue_end
	callq	__ZN68_$LT$$u5b$A$u5d$$u20$as$u20$core..slice..SlicePartialEq$LT$A$GT$$GT$5equal17h00d5e6294b5896d6E
	movb	%al, -33(%rbp)
	.loc	1 0 9 is_stmt 0
	movb	-33(%rbp), %al
	.loc	1 6189 6 is_stmt 1
	andb	$1, %al
	movzbl	%al, %eax
	addq	$48, %rsp
	popq	%rbp
	retq
Ltmp703:
Lfunc_end224:
	.cfi_endproc

	.p2align	4, 0x90
__ZN4core6option15Option$LT$T$GT$14unwrap_or_else17h39121e2aa0523d90E:
Lfunc_begin225:
	.file	30 "/rustc/6c8927b0cf80ceee19386026cf9d7fd4fd9d486f/src/libcore/option.rs"
	.loc	30 425 0
	.cfi_startproc
	.cfi_personality 155, _rust_eh_personality
	.cfi_lsda 16, Lexception26
	pushq	%rbp
	.cfi_def_cfa_offset 16
	.cfi_offset %rbp, -16
	movq	%rsp, %rbp
	.cfi_def_cfa_register %rbp
	subq	$96, %rsp
	movq	%rdi, %rax
Ltmp707:
	.loc	30 427 13 prologue_end
	movb	$0, -25(%rbp)
	movb	$1, -25(%rbp)
	movq	8(%rsi), %rcx
	testq	%rcx, %rcx
	setne	%dl
	movzbl	%dl, %r8d
	movl	%r8d, %ecx
	movq	%rsi, -72(%rbp)
Ltmp708:
	.loc	30 0 13 is_stmt 0
	movq	%rdi, -80(%rbp)
	movq	%rax, -88(%rbp)
	.loc	30 427 13
	je	LBB225_1
	jmp	LBB225_10
Ltmp709:
LBB225_10:
	jmp	LBB225_3
Ltmp710:
LBB225_1:
	.loc	30 428 21 is_stmt 1
	movb	$0, -25(%rbp)
Ltmp704:
	movq	-80(%rbp), %rdi
	callq	__ZN5alloc11collections5btree16unwrap_unchecked28_$u7b$$u7b$closure$u7d$$u7d$17hb02bee03b759db4eE
Ltmp705:
	jmp	LBB225_4
Ltmp711:
	.loc	30 426 15
	ud2
LBB225_3:
Ltmp712:
	.loc	30 0 15 is_stmt 0
	movq	-72(%rbp), %rax
	.loc	30 427 18 is_stmt 1
	movq	(%rax), %rcx
	movq	%rcx, -64(%rbp)
	movq	8(%rax), %rcx
	movq	%rcx, -56(%rbp)
	movq	16(%rax), %rcx
	movq	%rcx, -48(%rbp)
	movq	24(%rax), %rcx
	movq	%rcx, -40(%rbp)
Ltmp713:
	.loc	30 427 24 is_stmt 0
	movq	-64(%rbp), %rcx
	movq	-80(%rbp), %rdx
	movq	%rcx, (%rdx)
	movq	-56(%rbp), %rcx
	movq	%rcx, 8(%rdx)
	movq	-48(%rbp), %rcx
	movq	%rcx, 16(%rdx)
	movq	-40(%rbp), %rcx
	movq	%rcx, 24(%rdx)
Ltmp714:
	.loc	30 426 9 is_stmt 1
	jmp	LBB225_8
Ltmp715:
LBB225_4:
	jmp	LBB225_8
Ltmp716:
LBB225_5:
	.loc	30 0 9 is_stmt 0
	movq	-88(%rbp), %rax
	.loc	30 430 6 is_stmt 1
	addq	$96, %rsp
	popq	%rbp
	retq
Ltmp717:
LBB225_6:
	.loc	30 425 5
	movq	-16(%rbp), %rdi
	callq	__Unwind_Resume
	ud2
Ltmp718:
LBB225_7:
	.loc	30 430 5
	movb	$0, -25(%rbp)
	jmp	LBB225_5
Ltmp719:
LBB225_8:
	testb	$1, -25(%rbp)
	jne	LBB225_7
	jmp	LBB225_5
Ltmp720:
LBB225_9:
Ltmp706:
	.loc	30 0 5 is_stmt 0
	movq	%rax, -16(%rbp)
	movl	%edx, -8(%rbp)
	jmp	LBB225_6
Lfunc_end225:
	.cfi_endproc
	.section	__TEXT,__gcc_except_tab
	.p2align	2
GCC_except_table225:
Lexception26:
	.byte	255
	.byte	255
	.byte	1
	.uleb128 Lcst_end26-Lcst_begin26
Lcst_begin26:
	.uleb128 Ltmp704-Lfunc_begin225
	.uleb128 Ltmp705-Ltmp704
	.uleb128 Ltmp706-Lfunc_begin225
	.byte	0
	.uleb128 Ltmp705-Lfunc_begin225
	.uleb128 Lfunc_end225-Ltmp705
	.byte	0
	.byte	0
Lcst_end26:
	.p2align	2

	.section	__TEXT,__text,regular,pure_instructions
	.p2align	4, 0x90
__ZN4core6option15Option$LT$T$GT$14unwrap_or_else17hff7606b7da40d41dE:
Lfunc_begin226:
	.loc	30 425 0 is_stmt 1
	.cfi_startproc
	.cfi_personality 155, _rust_eh_personality
	.cfi_lsda 16, Lexception27
	pushq	%rbp
	.cfi_def_cfa_offset 16
	.cfi_offset %rbp, -16
	movq	%rsp, %rbp
	.cfi_def_cfa_register %rbp
	subq	$96, %rsp
	movq	%rdi, %rax
Ltmp724:
	.loc	30 427 13 prologue_end
	movb	$0, -25(%rbp)
	movb	$1, -25(%rbp)
	movq	8(%rsi), %rcx
	testq	%rcx, %rcx
	setne	%dl
	movzbl	%dl, %r8d
	movl	%r8d, %ecx
	movq	%rsi, -72(%rbp)
Ltmp725:
	.loc	30 0 13 is_stmt 0
	movq	%rdi, -80(%rbp)
	movq	%rax, -88(%rbp)
	.loc	30 427 13
	je	LBB226_1
	jmp	LBB226_10
Ltmp726:
LBB226_10:
	jmp	LBB226_3
Ltmp727:
LBB226_1:
	.loc	30 428 21 is_stmt 1
	movb	$0, -25(%rbp)
Ltmp721:
	movq	-80(%rbp), %rdi
	callq	__ZN5alloc11collections5btree16unwrap_unchecked28_$u7b$$u7b$closure$u7d$$u7d$17h25192a5d5fee8a71E
Ltmp722:
	jmp	LBB226_4
Ltmp728:
	.loc	30 426 15
	ud2
LBB226_3:
Ltmp729:
	.loc	30 0 15 is_stmt 0
	movq	-72(%rbp), %rax
	.loc	30 427 18 is_stmt 1
	movq	(%rax), %rcx
	movq	%rcx, -64(%rbp)
	movq	8(%rax), %rcx
	movq	%rcx, -56(%rbp)
	movq	16(%rax), %rcx
	movq	%rcx, -48(%rbp)
	movq	24(%rax), %rcx
	movq	%rcx, -40(%rbp)
Ltmp730:
	.loc	30 427 24 is_stmt 0
	movq	-64(%rbp), %rcx
	movq	-80(%rbp), %rdx
	movq	%rcx, (%rdx)
	movq	-56(%rbp), %rcx
	movq	%rcx, 8(%rdx)
	movq	-48(%rbp), %rcx
	movq	%rcx, 16(%rdx)
	movq	-40(%rbp), %rcx
	movq	%rcx, 24(%rdx)
Ltmp731:
	.loc	30 426 9 is_stmt 1
	jmp	LBB226_8
Ltmp732:
LBB226_4:
	jmp	LBB226_8
Ltmp733:
LBB226_5:
	.loc	30 0 9 is_stmt 0
	movq	-88(%rbp), %rax
	.loc	30 430 6 is_stmt 1
	addq	$96, %rsp
	popq	%rbp
	retq
Ltmp734:
LBB226_6:
	.loc	30 425 5
	movq	-16(%rbp), %rdi
	callq	__Unwind_Resume
	ud2
Ltmp735:
LBB226_7:
	.loc	30 430 5
	movb	$0, -25(%rbp)
	jmp	LBB226_5
Ltmp736:
LBB226_8:
	testb	$1, -25(%rbp)
	jne	LBB226_7
	jmp	LBB226_5
Ltmp737:
LBB226_9:
Ltmp723:
	.loc	30 0 5 is_stmt 0
	movq	%rax, -16(%rbp)
	movl	%edx, -8(%rbp)
	jmp	LBB226_6
Lfunc_end226:
	.cfi_endproc
	.section	__TEXT,__gcc_except_tab
	.p2align	2
GCC_except_table226:
Lexception27:
	.byte	255
	.byte	255
	.byte	1
	.uleb128 Lcst_end27-Lcst_begin27
Lcst_begin27:
	.uleb128 Ltmp721-Lfunc_begin226
	.uleb128 Ltmp722-Ltmp721
	.uleb128 Ltmp723-Lfunc_begin226
	.byte	0
	.uleb128 Ltmp722-Lfunc_begin226
	.uleb128 Lfunc_end226-Ltmp722
	.byte	0
	.byte	0
Lcst_end27:
	.p2align	2

	.section	__TEXT,__text,regular,pure_instructions
	.p2align	4, 0x90
__ZN4core6option15Option$LT$T$GT$3map17h18b7709eb2273f43E:
Lfunc_begin227:
	.loc	30 454 0 is_stmt 1
	.cfi_startproc
	.cfi_personality 155, _rust_eh_personality
	.cfi_lsda 16, Lexception28
	pushq	%rbp
	.cfi_def_cfa_offset 16
	.cfi_offset %rbp, -16
	movq	%rsp, %rbp
	.cfi_def_cfa_register %rbp
	subq	$96, %rsp
	movq	%rdi, -88(%rbp)
	movq	%rsi, -80(%rbp)
Ltmp741:
	.loc	30 456 13 prologue_end
	movb	$0, -41(%rbp)
	movb	$1, -41(%rbp)
	movq	-88(%rbp), %rax
	testq	%rax, %rax
	setne	%cl
	movzbl	%cl, %edx
	movl	%edx, %eax
	je	LBB227_1
	jmp	LBB227_10
LBB227_10:
	jmp	LBB227_3
LBB227_1:
	.loc	30 457 21
	movb	$2, -65(%rbp)
	.loc	30 455 9
	jmp	LBB227_8
	.loc	30 455 15 is_stmt 0
	ud2
LBB227_3:
	.loc	30 456 18 is_stmt 1
	movq	-88(%rbp), %rax
	movq	-80(%rbp), %rcx
	movq	%rax, -32(%rbp)
	movq	%rcx, -24(%rbp)
Ltmp742:
	.loc	30 456 29 is_stmt 0
	movb	$0, -41(%rbp)
	movq	%rax, -64(%rbp)
	movq	%rcx, -56(%rbp)
	movq	-64(%rbp), %rdi
	movq	-56(%rbp), %rsi
Ltmp738:
	callq	__ZN18build_script_build19rustc_minor_nightly28_$u7b$$u7b$closure$u7d$$u7d$17hacd4fcf0a9961a59E
Ltmp739:
	movb	%al, -89(%rbp)
	jmp	LBB227_4
LBB227_4:
	.loc	30 0 29
	movb	-89(%rbp), %al
	.loc	30 456 24
	andb	$1, %al
	movb	%al, -65(%rbp)
Ltmp743:
	.loc	30 459 5 is_stmt 1
	jmp	LBB227_8
LBB227_5:
	.loc	30 459 6 is_stmt 0
	movb	-65(%rbp), %al
	addq	$96, %rsp
	popq	%rbp
	retq
LBB227_6:
	.loc	30 454 5 is_stmt 1
	movq	-16(%rbp), %rdi
	callq	__Unwind_Resume
	ud2
LBB227_7:
	.loc	30 459 5
	movb	$0, -41(%rbp)
	jmp	LBB227_5
LBB227_8:
	testb	$1, -41(%rbp)
	jne	LBB227_7
	jmp	LBB227_5
Ltmp744:
LBB227_9:
Ltmp740:
	.loc	30 0 5 is_stmt 0
	movq	%rax, -16(%rbp)
	movl	%edx, -8(%rbp)
	jmp	LBB227_6
Lfunc_end227:
	.cfi_endproc
	.section	__TEXT,__gcc_except_tab
	.p2align	2
GCC_except_table227:
Lexception28:
	.byte	255
	.byte	255
	.byte	1
	.uleb128 Lcst_end28-Lcst_begin28
Lcst_begin28:
	.uleb128 Ltmp738-Lfunc_begin227
	.uleb128 Ltmp739-Ltmp738
	.uleb128 Ltmp740-Lfunc_begin227
	.byte	0
	.uleb128 Ltmp739-Lfunc_begin227
	.uleb128 Lfunc_end227-Ltmp739
	.byte	0
	.byte	0
Lcst_end28:
	.p2align	2

	.section	__TEXT,__text,regular,pure_instructions
	.p2align	4, 0x90
__ZN4core6option15Option$LT$T$GT$4take17h05b99ce1b32a88aaE:
Lfunc_begin228:
	.loc	30 891 0 is_stmt 1
	.cfi_startproc
	pushq	%rbp
	.cfi_def_cfa_offset 16
	.cfi_offset %rbp, -16
	movq	%rsp, %rbp
	.cfi_def_cfa_register %rbp
	subq	$32, %rsp
	movq	%rdi, -8(%rbp)
Ltmp745:
	.loc	30 892 9 prologue_end
	callq	__ZN4core3mem4take17h52f597086a201a23E
	movq	%rax, -16(%rbp)
	movq	%rdx, -24(%rbp)
	.loc	30 0 9 is_stmt 0
	movq	-16(%rbp), %rax
	movq	-24(%rbp), %rdx
	.loc	30 893 6 is_stmt 1
	addq	$32, %rsp
	popq	%rbp
	retq
Ltmp746:
Lfunc_end228:
	.cfi_endproc

	.p2align	4, 0x90
__ZN4core6option15Option$LT$T$GT$4take17hcc124703a7d2ce62E:
Lfunc_begin229:
	.loc	30 891 0
	.cfi_startproc
	pushq	%rbp
	.cfi_def_cfa_offset 16
	.cfi_offset %rbp, -16
	movq	%rsp, %rbp
	.cfi_def_cfa_register %rbp
	subq	$32, %rsp
	movq	%rdi, -8(%rbp)
Ltmp747:
	.loc	30 892 9 prologue_end
	callq	__ZN4core3mem4take17h1c46225fc38d8c8dE
	movq	%rax, -16(%rbp)
	movq	%rdx, -24(%rbp)
	.loc	30 0 9 is_stmt 0
	movq	-16(%rbp), %rax
	movq	-24(%rbp), %rdx
	.loc	30 893 6 is_stmt 1
	addq	$32, %rsp
	popq	%rbp
	retq
Ltmp748:
Lfunc_end229:
	.cfi_endproc

	.p2align	4, 0x90
__ZN4core6option15Option$LT$T$GT$5ok_or17h822cbd59076c65a2E:
Lfunc_begin230:
	.loc	30 536 0
	.cfi_startproc
	pushq	%rbp
	.cfi_def_cfa_offset 16
	.cfi_offset %rbp, -16
	movq	%rsp, %rbp
	.cfi_def_cfa_register %rbp
	subq	$80, %rsp
	movq	%rdi, -80(%rbp)
	movq	%rsi, -72(%rbp)
Ltmp749:
	.loc	30 538 13 prologue_end
	movb	$0, -41(%rbp)
	movb	$1, -41(%rbp)
	movq	-80(%rbp), %rax
	testq	%rax, %rax
	setne	%cl
	movzbl	%cl, %edx
	movl	%edx, %eax
	je	LBB230_1
	jmp	LBB230_7
LBB230_7:
	jmp	LBB230_3
LBB230_1:
	.loc	30 539 25
	movb	$0, -41(%rbp)
	.loc	30 539 21 is_stmt 0
	movq	$0, -64(%rbp)
	.loc	30 537 9 is_stmt 1
	jmp	LBB230_4
	.loc	30 537 15 is_stmt 0
	ud2
LBB230_3:
	.loc	30 538 18 is_stmt 1
	movq	-80(%rbp), %rax
	movq	-72(%rbp), %rcx
	movq	%rax, -32(%rbp)
	movq	%rcx, -24(%rbp)
Ltmp750:
	.loc	30 538 24 is_stmt 0
	movq	%rax, -64(%rbp)
	movq	%rcx, -56(%rbp)
Ltmp751:
LBB230_4:
	.loc	30 541 5 is_stmt 1
	testb	$1, -41(%rbp)
	jne	LBB230_6
LBB230_5:
	.loc	30 541 6 is_stmt 0
	movq	-64(%rbp), %rax
	movq	-56(%rbp), %rdx
	addq	$80, %rsp
	popq	%rbp
	retq
LBB230_6:
	.loc	30 541 5
	movb	$0, -41(%rbp)
	jmp	LBB230_5
Ltmp752:
Lfunc_end230:
	.cfi_endproc

	.p2align	4, 0x90
__ZN4core6option15Option$LT$T$GT$5ok_or17h9389da2a5b383ad6E:
Lfunc_begin231:
	.loc	30 536 0 is_stmt 1
	.cfi_startproc
	pushq	%rbp
	.cfi_def_cfa_offset 16
	.cfi_offset %rbp, -16
	movq	%rsp, %rbp
	.cfi_def_cfa_register %rbp
	subq	$56, %rsp
	movq	%rdi, -56(%rbp)
Ltmp753:
	.loc	30 538 13 prologue_end
	movb	$0, -33(%rbp)
	movb	$1, -33(%rbp)
	movq	-56(%rbp), %rax
	testq	%rax, %rax
	setne	%cl
	movzbl	%cl, %edx
	movl	%edx, %eax
	je	LBB231_1
	jmp	LBB231_7
LBB231_7:
	jmp	LBB231_3
LBB231_1:
	.loc	30 539 25
	movb	$0, -33(%rbp)
	.loc	30 539 21 is_stmt 0
	movq	$0, -48(%rbp)
	.loc	30 537 9 is_stmt 1
	jmp	LBB231_4
	.loc	30 537 15 is_stmt 0
	ud2
LBB231_3:
	.loc	30 538 18 is_stmt 1
	movq	-56(%rbp), %rax
	movq	%rax, -24(%rbp)
Ltmp754:
	.loc	30 538 24 is_stmt 0
	movq	%rax, -48(%rbp)
Ltmp755:
LBB231_4:
	.loc	30 541 5 is_stmt 1
	testb	$1, -33(%rbp)
	jne	LBB231_6
LBB231_5:
	.loc	30 541 6 is_stmt 0
	movq	-48(%rbp), %rax
	addq	$56, %rsp
	popq	%rbp
	retq
LBB231_6:
	.loc	30 541 5
	movb	$0, -33(%rbp)
	jmp	LBB231_5
Ltmp756:
Lfunc_end231:
	.cfi_endproc

	.p2align	4, 0x90
__ZN4core6option15Option$LT$T$GT$6as_mut17hc015ea074e57e346E:
Lfunc_begin232:
	.loc	30 287 0 is_stmt 1
	.cfi_startproc
	pushq	%rbp
	.cfi_def_cfa_offset 16
	.cfi_offset %rbp, -16
	movq	%rsp, %rbp
	.cfi_def_cfa_register %rbp
	subq	$32, %rsp
	movq	%rdi, -16(%rbp)
Ltmp757:
	.loc	30 289 13 prologue_end
	movq	8(%rdi), %rax
	testq	%rax, %rax
	setne	%cl
	movzbl	%cl, %edx
	movl	%edx, %eax
	movq	%rdi, -32(%rbp)
	je	LBB232_1
	jmp	LBB232_5
LBB232_5:
	jmp	LBB232_3
LBB232_1:
	.loc	30 290 21
	movq	$0, -24(%rbp)
	.loc	30 288 9
	jmp	LBB232_4
	.loc	30 288 15 is_stmt 0
	ud2
LBB232_3:
	.loc	30 0 15
	movq	-32(%rbp), %rax
	.loc	30 289 18 is_stmt 1
	movq	%rax, -8(%rbp)
Ltmp758:
	.loc	30 289 32 is_stmt 0
	movq	%rax, -24(%rbp)
Ltmp759:
LBB232_4:
	.loc	30 292 6 is_stmt 1
	movq	-24(%rbp), %rax
	addq	$32, %rsp
	popq	%rbp
	retq
Ltmp760:
Lfunc_end232:
	.cfi_endproc

	.p2align	4, 0x90
__ZN4core6option15Option$LT$T$GT$6expect17h24737c1fcef24fdeE:
Lfunc_begin233:
	.loc	30 344 0
	.cfi_startproc
	.cfi_personality 155, _rust_eh_personality
	.cfi_lsda 16, Lexception29
	pushq	%rbp
	.cfi_def_cfa_offset 16
	.cfi_offset %rbp, -16
	movq	%rsp, %rbp
	.cfi_def_cfa_register %rbp
	subq	$80, %rsp
	movl	%edi, -48(%rbp)
	movb	%sil, -44(%rbp)
	movq	%rdx, -40(%rbp)
	movq	%rcx, -32(%rbp)
Ltmp764:
	.loc	30 346 13 prologue_end
	movb	-44(%rbp), %al
	addb	$-2, %al
	setne	%sil
	movzbl	%sil, %edi
	movl	%edi, %r9d
	movq	%r8, -56(%rbp)
	movq	%rcx, -64(%rbp)
	movq	%rdx, -72(%rbp)
	je	LBB233_1
	jmp	LBB233_7
LBB233_7:
	jmp	LBB233_3
LBB233_1:
Ltmp761:
	.loc	30 0 13 is_stmt 0
	movq	-72(%rbp), %rdi
	movq	-64(%rbp), %rsi
	movq	-56(%rbp), %rdx
	.loc	30 347 21 is_stmt 1
	callq	__ZN4core6option13expect_failed17h7591ba70e88f159aE
Ltmp762:
	jmp	LBB233_5
	.loc	30 345 15
	ud2
LBB233_3:
	.loc	30 346 18
	movl	-48(%rbp), %eax
	movb	-44(%rbp), %cl
	movl	%eax, -24(%rbp)
	movb	%cl, -20(%rbp)
	.loc	30 349 6
	movb	%cl, %dl
	addq	$80, %rsp
	popq	%rbp
	retq
LBB233_4:
	.loc	30 344 5
	movq	-16(%rbp), %rdi
	callq	__Unwind_Resume
	ud2
Ltmp765:
LBB233_5:
	.loc	30 0 5 is_stmt 0
	ud2
LBB233_6:
Ltmp763:
	movq	%rax, -16(%rbp)
	movl	%edx, -8(%rbp)
	jmp	LBB233_4
Lfunc_end233:
	.cfi_endproc
	.section	__TEXT,__gcc_except_tab
	.p2align	2
GCC_except_table233:
Lexception29:
	.byte	255
	.byte	255
	.byte	1
	.uleb128 Lcst_end29-Lcst_begin29
Lcst_begin29:
	.uleb128 Ltmp761-Lfunc_begin233
	.uleb128 Ltmp762-Ltmp761
	.uleb128 Ltmp763-Lfunc_begin233
	.byte	0
	.uleb128 Ltmp762-Lfunc_begin233
	.uleb128 Lfunc_end233-Ltmp762
	.byte	0
	.byte	0
Lcst_end29:
	.p2align	2

	.section	__TEXT,__text,regular,pure_instructions
	.p2align	4, 0x90
__ZN4core6option15Option$LT$T$GT$6unwrap17h0b29733009aae528E:
Lfunc_begin234:
	.loc	30 383 0 is_stmt 1
	.cfi_startproc
	.cfi_personality 155, _rust_eh_personality
	.cfi_lsda 16, Lexception30
	pushq	%rbp
	.cfi_def_cfa_offset 16
	.cfi_offset %rbp, -16
	movq	%rsp, %rbp
	.cfi_def_cfa_register %rbp
	subq	$48, %rsp
	movq	%rdi, -32(%rbp)
Ltmp769:
	.loc	30 385 13 prologue_end
	movq	-32(%rbp), %rax
	testq	%rax, %rax
	setne	%cl
	movzbl	%cl, %edx
	movl	%edx, %eax
	movq	%rsi, -40(%rbp)
	je	LBB234_1
	jmp	LBB234_7
LBB234_7:
	jmp	LBB234_3
LBB234_1:
Ltmp766:
	.loc	27 10 9
	leaq	l___unnamed_10(%rip), %rdi
	movl	$43, %esi
	movq	-40(%rbp), %rdx
	callq	__ZN4core9panicking5panic17h383a6b80ea7021aaE
Ltmp767:
	jmp	LBB234_5
	.loc	30 384 15
	ud2
LBB234_3:
	.loc	30 385 18
	movq	-32(%rbp), %rax
	movq	%rax, -24(%rbp)
	.loc	30 388 6
	addq	$48, %rsp
	popq	%rbp
	retq
LBB234_4:
	.loc	30 383 5
	movq	-16(%rbp), %rdi
	callq	__Unwind_Resume
	ud2
Ltmp770:
LBB234_5:
	.loc	30 0 5 is_stmt 0
	ud2
LBB234_6:
Ltmp768:
	movq	%rax, -16(%rbp)
	movl	%edx, -8(%rbp)
	jmp	LBB234_4
Lfunc_end234:
	.cfi_endproc
	.section	__TEXT,__gcc_except_tab
	.p2align	2
GCC_except_table234:
Lexception30:
	.byte	255
	.byte	255
	.byte	1
	.uleb128 Lcst_end30-Lcst_begin30
Lcst_begin30:
	.uleb128 Ltmp766-Lfunc_begin234
	.uleb128 Ltmp767-Ltmp766
	.uleb128 Ltmp768-Lfunc_begin234
	.byte	0
	.uleb128 Ltmp767-Lfunc_begin234
	.uleb128 Lfunc_end234-Ltmp767
	.byte	0
	.byte	0
Lcst_end30:
	.p2align	2

	.section	__TEXT,__text,regular,pure_instructions
	.p2align	4, 0x90
__ZN4core6option15Option$LT$T$GT$6unwrap17hb2939db716251fc1E:
Lfunc_begin235:
	.loc	30 383 0 is_stmt 1
	.cfi_startproc
	.cfi_personality 155, _rust_eh_personality
	.cfi_lsda 16, Lexception31
	pushq	%rbp
	.cfi_def_cfa_offset 16
	.cfi_offset %rbp, -16
	movq	%rsp, %rbp
	.cfi_def_cfa_register %rbp
	subq	$48, %rsp
Ltmp774:
	movq	%rdi, %rax
Ltmp775:
	.loc	30 385 13 prologue_end
	movq	(%rsi), %rcx
	testq	%rcx, %rcx
	setne	%r8b
	movzbl	%r8b, %r9d
	movl	%r9d, %ecx
	movq	%rdx, -24(%rbp)
	movq	%rsi, -32(%rbp)
Ltmp776:
	.loc	30 0 13 is_stmt 0
	movq	%rdi, -40(%rbp)
Ltmp777:
	movq	%rax, -48(%rbp)
	.loc	30 385 13
	je	LBB235_1
	jmp	LBB235_7
Ltmp778:
LBB235_7:
	jmp	LBB235_3
Ltmp779:
LBB235_1:
Ltmp771:
	.loc	27 10 9 is_stmt 1
	leaq	l___unnamed_10(%rip), %rdi
	movl	$43, %esi
	movq	-24(%rbp), %rdx
	callq	__ZN4core9panicking5panic17h383a6b80ea7021aaE
Ltmp772:
	jmp	LBB235_5
Ltmp780:
	.loc	30 384 15
	ud2
LBB235_3:
Ltmp781:
	.loc	30 0 15 is_stmt 0
	movq	-32(%rbp), %rax
	movq	-40(%rbp), %rcx
	.loc	30 385 18 is_stmt 1
	movq	%rcx, %rdi
	movq	%rax, %rsi
	movl	$56, %edx
	callq	_memcpy
	movq	-48(%rbp), %rax
	.loc	30 388 6
	addq	$48, %rsp
	popq	%rbp
	retq
Ltmp782:
LBB235_4:
	.loc	30 383 5
	movq	-16(%rbp), %rdi
	callq	__Unwind_Resume
	ud2
Ltmp783:
LBB235_5:
	.loc	30 0 5 is_stmt 0
	ud2
Ltmp784:
LBB235_6:
Ltmp773:
	movq	%rax, -16(%rbp)
	movl	%edx, -8(%rbp)
	jmp	LBB235_4
Lfunc_end235:
	.cfi_endproc
	.section	__TEXT,__gcc_except_tab
	.p2align	2
GCC_except_table235:
Lexception31:
	.byte	255
	.byte	255
	.byte	1
	.uleb128 Lcst_end31-Lcst_begin31
Lcst_begin31:
	.uleb128 Ltmp771-Lfunc_begin235
	.uleb128 Ltmp772-Ltmp771
	.uleb128 Ltmp773-Lfunc_begin235
	.byte	0
	.uleb128 Ltmp772-Lfunc_begin235
	.uleb128 Lfunc_end235-Ltmp772
	.byte	0
	.byte	0
Lcst_end31:
	.p2align	2

	.section	__TEXT,__text,regular,pure_instructions
	.p2align	4, 0x90
__ZN4core6option15Option$LT$T$GT$6unwrap17hf6c811e08963238cE:
Lfunc_begin236:
	.loc	30 383 0 is_stmt 1
	.cfi_startproc
	.cfi_personality 155, _rust_eh_personality
	.cfi_lsda 16, Lexception32
	pushq	%rbp
	.cfi_def_cfa_offset 16
	.cfi_offset %rbp, -16
	movq	%rsp, %rbp
	.cfi_def_cfa_register %rbp
	subq	$48, %rsp
Ltmp788:
	movq	%rdi, %rax
Ltmp789:
	.loc	30 385 13 prologue_end
	movq	(%rsi), %rcx
	testq	%rcx, %rcx
	setne	%r8b
	movzbl	%r8b, %r9d
	movl	%r9d, %ecx
	movq	%rdx, -24(%rbp)
	movq	%rsi, -32(%rbp)
Ltmp790:
	.loc	30 0 13 is_stmt 0
	movq	%rdi, -40(%rbp)
Ltmp791:
	movq	%rax, -48(%rbp)
	.loc	30 385 13
	je	LBB236_1
	jmp	LBB236_7
Ltmp792:
LBB236_7:
	jmp	LBB236_3
Ltmp793:
LBB236_1:
Ltmp785:
	.loc	27 10 9 is_stmt 1
	leaq	l___unnamed_10(%rip), %rdi
	movl	$43, %esi
	movq	-24(%rbp), %rdx
	callq	__ZN4core9panicking5panic17h383a6b80ea7021aaE
Ltmp786:
	jmp	LBB236_5
Ltmp794:
	.loc	30 384 15
	ud2
LBB236_3:
Ltmp795:
	.loc	30 0 15 is_stmt 0
	movq	-32(%rbp), %rax
	.loc	30 385 18 is_stmt 1
	movq	(%rax), %rcx
	movq	-40(%rbp), %rdx
	movq	%rcx, (%rdx)
	movq	8(%rax), %rcx
	movq	%rcx, 8(%rdx)
	movq	16(%rax), %rcx
	movq	%rcx, 16(%rdx)
	movq	-48(%rbp), %rax
	.loc	30 388 6
	addq	$48, %rsp
	popq	%rbp
	retq
Ltmp796:
LBB236_4:
	.loc	30 383 5
	movq	-16(%rbp), %rdi
	callq	__Unwind_Resume
	ud2
Ltmp797:
LBB236_5:
	.loc	30 0 5 is_stmt 0
	ud2
Ltmp798:
LBB236_6:
Ltmp787:
	movq	%rax, -16(%rbp)
	movl	%edx, -8(%rbp)
	jmp	LBB236_4
Lfunc_end236:
	.cfi_endproc
	.section	__TEXT,__gcc_except_tab
	.p2align	2
GCC_except_table236:
Lexception32:
	.byte	255
	.byte	255
	.byte	1
	.uleb128 Lcst_end32-Lcst_begin32
Lcst_begin32:
	.uleb128 Ltmp785-Lfunc_begin236
	.uleb128 Ltmp786-Ltmp785
	.uleb128 Ltmp787-Lfunc_begin236
	.byte	0
	.uleb128 Ltmp786-Lfunc_begin236
	.uleb128 Lfunc_end236-Ltmp786
	.byte	0
	.byte	0
Lcst_end32:
	.p2align	2

	.section	__TEXT,__text,regular,pure_instructions
	.p2align	4, 0x90
__ZN4core6option15Option$LT$T$GT$7is_none17h4e7d70531c7563afE:
Lfunc_begin237:
	.loc	30 206 0 is_stmt 1
	.cfi_startproc
	pushq	%rbp
	.cfi_def_cfa_offset 16
	.cfi_offset %rbp, -16
	movq	%rsp, %rbp
	.cfi_def_cfa_register %rbp
	subq	$16, %rsp
	movq	%rdi, -8(%rbp)
Ltmp799:
	.loc	30 207 10 prologue_end
	callq	__ZN4core6option15Option$LT$T$GT$7is_some17h9049ff2bd07e82caE
	movb	%al, -9(%rbp)
	.loc	30 0 10 is_stmt 0
	movb	-9(%rbp), %al
	.loc	30 207 9
	xorb	$-1, %al
	.loc	30 208 6 is_stmt 1
	andb	$1, %al
	movzbl	%al, %eax
	addq	$16, %rsp
	popq	%rbp
	retq
Ltmp800:
Lfunc_end237:
	.cfi_endproc

	.p2align	4, 0x90
__ZN4core6option15Option$LT$T$GT$7is_none17h8f97c862f984df88E:
Lfunc_begin238:
	.loc	30 206 0
	.cfi_startproc
	pushq	%rbp
	.cfi_def_cfa_offset 16
	.cfi_offset %rbp, -16
	movq	%rsp, %rbp
	.cfi_def_cfa_register %rbp
	subq	$16, %rsp
	movq	%rdi, -8(%rbp)
Ltmp801:
	.loc	30 207 10 prologue_end
	callq	__ZN4core6option15Option$LT$T$GT$7is_some17hfb9ea960d587bf69E
	movb	%al, -9(%rbp)
	.loc	30 0 10 is_stmt 0
	movb	-9(%rbp), %al
	.loc	30 207 9
	xorb	$-1, %al
	.loc	30 208 6 is_stmt 1
	andb	$1, %al
	movzbl	%al, %eax
	addq	$16, %rsp
	popq	%rbp
	retq
Ltmp802:
Lfunc_end238:
	.cfi_endproc

	.p2align	4, 0x90
__ZN4core6option15Option$LT$T$GT$7is_some17h9049ff2bd07e82caE:
Lfunc_begin239:
	.loc	30 184 0
	.cfi_startproc
	pushq	%rbp
	.cfi_def_cfa_offset 16
	.cfi_offset %rbp, -16
	movq	%rsp, %rbp
	.cfi_def_cfa_register %rbp
	subq	$16, %rsp
	xorl	%eax, %eax
	movl	%eax, %ecx
	movq	%rdi, -8(%rbp)
Ltmp803:
	.loc	30 185 25 prologue_end
	cmpq	$0, (%rdi)
	movl	$1, %edx
	cmovbeq	%rcx, %rdx
	cmpq	$1, %rdx
	je	LBB239_2
	.loc	27 261 18
	movb	$0, -9(%rbp)
	.loc	27 259 9
	jmp	LBB239_3
LBB239_2:
	.loc	27 260 48
	movb	$1, -9(%rbp)
LBB239_3:
	.loc	30 186 6
	movb	-9(%rbp), %al
	andb	$1, %al
	movzbl	%al, %eax
	addq	$16, %rsp
	popq	%rbp
	retq
Ltmp804:
Lfunc_end239:
	.cfi_endproc

	.p2align	4, 0x90
__ZN4core6option15Option$LT$T$GT$7is_some17hfb9ea960d587bf69E:
Lfunc_begin240:
	.loc	30 184 0
	.cfi_startproc
	pushq	%rbp
	.cfi_def_cfa_offset 16
	.cfi_offset %rbp, -16
	movq	%rsp, %rbp
	.cfi_def_cfa_register %rbp
	subq	$16, %rsp
	xorl	%eax, %eax
	movl	%eax, %ecx
	movq	%rdi, -8(%rbp)
Ltmp805:
	.loc	30 185 25 prologue_end
	cmpq	$0, (%rdi)
	movl	$1, %edx
	cmovbeq	%rcx, %rdx
	cmpq	$1, %rdx
	je	LBB240_2
	.loc	27 261 18
	movb	$0, -9(%rbp)
	.loc	27 259 9
	jmp	LBB240_3
LBB240_2:
	.loc	27 260 48
	movb	$1, -9(%rbp)
LBB240_3:
	.loc	30 186 6
	movb	-9(%rbp), %al
	andb	$1, %al
	movzbl	%al, %eax
	addq	$16, %rsp
	popq	%rbp
	retq
Ltmp806:
Lfunc_end240:
	.cfi_endproc

	.p2align	4, 0x90
__ZN4core6option15Option$LT$T$GT$9unwrap_or17ha12a22aef93bcdecE:
Lfunc_begin241:
	.loc	30 407 0
	.cfi_startproc
	pushq	%rbp
	.cfi_def_cfa_offset 16
	.cfi_offset %rbp, -16
	movq	%rsp, %rbp
	.cfi_def_cfa_register %rbp
	subq	$24, %rsp
	movb	%dil, -21(%rbp)
	movb	%sil, %al
	andb	$1, %al
	movb	%al, -18(%rbp)
Ltmp807:
	.loc	30 409 13 prologue_end
	movb	$0, -19(%rbp)
	movb	$1, -19(%rbp)
	movb	-21(%rbp), %al
	addb	$-2, %al
	setne	%cl
	movzbl	%cl, %edx
	movl	%edx, %r8d
	movb	%sil, -22(%rbp)
	je	LBB241_1
	jmp	LBB241_7
LBB241_7:
	jmp	LBB241_3
LBB241_1:
	.loc	30 410 21
	movb	$0, -19(%rbp)
	movb	-22(%rbp), %al
	andb	$1, %al
	movb	%al, -20(%rbp)
	.loc	30 408 9
	jmp	LBB241_6
	.loc	30 408 15 is_stmt 0
	ud2
LBB241_3:
	.loc	30 409 18 is_stmt 1
	movb	-21(%rbp), %al
	movb	%al, %cl
	andb	$1, %cl
	movb	%cl, -17(%rbp)
Ltmp808:
	.loc	30 409 24 is_stmt 0
	andb	$1, %al
	movb	%al, -20(%rbp)
Ltmp809:
	.loc	30 412 5 is_stmt 1
	jmp	LBB241_6
LBB241_4:
	.loc	30 412 6 is_stmt 0
	movb	-20(%rbp), %al
	andb	$1, %al
	movzbl	%al, %eax
	addq	$24, %rsp
	popq	%rbp
	retq
LBB241_5:
	.loc	30 412 5
	movb	$0, -19(%rbp)
	jmp	LBB241_4
LBB241_6:
	testb	$1, -19(%rbp)
	jne	LBB241_5
	jmp	LBB241_4
Ltmp810:
Lfunc_end241:
	.cfi_endproc

	.p2align	4, 0x90
__ZN4core6result19Result$LT$T$C$E$GT$2ok17h28a7f4ef12a1b686E:
Lfunc_begin242:
	.file	31 "/rustc/6c8927b0cf80ceee19386026cf9d7fd4fd9d486f/src/libcore/result.rs"
	.loc	31 394 0 is_stmt 1
	.cfi_startproc
	pushq	%rbp
	.cfi_def_cfa_offset 16
	.cfi_offset %rbp, -16
	movq	%rsp, %rbp
	.cfi_def_cfa_register %rbp
	subq	$88, %rsp
	movq	%rdi, %rax
Ltmp811:
	.loc	31 396 13 prologue_end
	movq	(%rsi), %rcx
	testq	%rcx, %rcx
	movq	%rsi, -72(%rbp)
Ltmp812:
	.loc	31 0 13 is_stmt 0
	movq	%rdi, -80(%rbp)
	movq	%rax, -88(%rbp)
	.loc	31 396 13
	je	LBB242_3
	jmp	LBB242_7
Ltmp813:
LBB242_7:
	.loc	31 0 13
	movq	-80(%rbp), %rax
	.loc	31 397 23 is_stmt 1
	movq	$0, 8(%rax)
	.loc	31 395 9
	jmp	LBB242_6
Ltmp814:
	.loc	31 395 15 is_stmt 0
	ud2
LBB242_3:
Ltmp815:
	.loc	31 0 15
	movq	-72(%rbp), %rax
	.loc	31 396 16 is_stmt 1
	movq	8(%rax), %rcx
	movq	%rcx, -64(%rbp)
	movq	16(%rax), %rcx
	movq	%rcx, -56(%rbp)
	movq	24(%rax), %rcx
	movq	%rcx, -48(%rbp)
	movq	32(%rax), %rcx
	movq	%rcx, -40(%rbp)
Ltmp816:
	.loc	31 396 27 is_stmt 0
	movq	-64(%rbp), %rcx
	movq	%rcx, -32(%rbp)
	movq	-56(%rbp), %rcx
	movq	%rcx, -24(%rbp)
	movq	-48(%rbp), %rcx
	movq	%rcx, -16(%rbp)
	movq	-40(%rbp), %rcx
	movq	%rcx, -8(%rbp)
	.loc	31 396 22
	movq	-32(%rbp), %rcx
	movq	-80(%rbp), %rdx
	movq	%rcx, (%rdx)
	movq	-24(%rbp), %rcx
	movq	%rcx, 8(%rdx)
	movq	-16(%rbp), %rcx
	movq	%rcx, 16(%rdx)
	movq	-8(%rbp), %rcx
	movq	%rcx, 24(%rdx)
Ltmp817:
	.loc	31 399 5 is_stmt 1
	jmp	LBB242_6
Ltmp818:
LBB242_4:
	.loc	31 0 5 is_stmt 0
	movq	-88(%rbp), %rax
	.loc	31 399 6
	addq	$88, %rsp
	popq	%rbp
	retq
Ltmp819:
LBB242_5:
	.loc	31 399 5
	jmp	LBB242_4
Ltmp820:
LBB242_6:
	.loc	31 0 5
	movq	-72(%rbp), %rax
	.loc	31 399 5
	cmpq	$0, (%rax)
	je	LBB242_4
	jmp	LBB242_5
Ltmp821:
Lfunc_end242:
	.cfi_endproc

	.p2align	4, 0x90
__ZN4core6result19Result$LT$T$C$E$GT$2ok17h49618567e63ad315E:
Lfunc_begin243:
	.loc	31 394 0 is_stmt 1
	.cfi_startproc
	pushq	%rbp
	.cfi_def_cfa_offset 16
	.cfi_offset %rbp, -16
	movq	%rsp, %rbp
	.cfi_def_cfa_register %rbp
	subq	$80, %rsp
	movq	%rdi, %rax
Ltmp822:
	.loc	31 396 13 prologue_end
	movq	(%rsi), %rcx
	testq	%rcx, %rcx
	movq	%rsi, -56(%rbp)
Ltmp823:
	.loc	31 0 13 is_stmt 0
	movq	%rdi, -64(%rbp)
	movq	%rax, -72(%rbp)
	.loc	31 396 13
	je	LBB243_3
	jmp	LBB243_7
Ltmp824:
LBB243_7:
	.loc	31 0 13
	movq	-64(%rbp), %rax
	.loc	31 397 23 is_stmt 1
	movq	$0, (%rax)
	.loc	31 395 9
	jmp	LBB243_6
Ltmp825:
	.loc	31 395 15 is_stmt 0
	ud2
LBB243_3:
Ltmp826:
	.loc	31 0 15
	movq	-56(%rbp), %rax
	.loc	31 396 16 is_stmt 1
	movq	8(%rax), %rcx
	movq	%rcx, -48(%rbp)
	movq	16(%rax), %rcx
	movq	%rcx, -40(%rbp)
	movq	24(%rax), %rcx
	movq	%rcx, -32(%rbp)
Ltmp827:
	.loc	31 396 27 is_stmt 0
	movq	-48(%rbp), %rcx
	movq	%rcx, -24(%rbp)
	movq	-40(%rbp), %rcx
	movq	%rcx, -16(%rbp)
	movq	-32(%rbp), %rcx
	movq	%rcx, -8(%rbp)
	.loc	31 396 22
	movq	-24(%rbp), %rcx
	movq	-64(%rbp), %rdx
	movq	%rcx, (%rdx)
	movq	-16(%rbp), %rcx
	movq	%rcx, 8(%rdx)
	movq	-8(%rbp), %rcx
	movq	%rcx, 16(%rdx)
Ltmp828:
	.loc	31 399 5 is_stmt 1
	jmp	LBB243_6
Ltmp829:
LBB243_4:
	.loc	31 0 5 is_stmt 0
	movq	-72(%rbp), %rax
	.loc	31 399 6
	addq	$80, %rsp
	popq	%rbp
	retq
Ltmp830:
LBB243_5:
	.loc	31 0 6
	movq	-56(%rbp), %rdi
	.loc	31 399 5
	callq	__ZN4core3ptr13drop_in_place17h8c512502b459718cE
	jmp	LBB243_4
Ltmp831:
LBB243_6:
	.loc	31 0 5
	movq	-56(%rbp), %rax
	.loc	31 399 5
	cmpq	$0, (%rax)
	je	LBB243_4
	jmp	LBB243_5
Ltmp832:
Lfunc_end243:
	.cfi_endproc

	.p2align	4, 0x90
__ZN4core6result19Result$LT$T$C$E$GT$2ok17h850e376c1371c2fdE:
Lfunc_begin244:
	.loc	31 394 0 is_stmt 1
	.cfi_startproc
	pushq	%rbp
	.cfi_def_cfa_offset 16
	.cfi_offset %rbp, -16
	movq	%rsp, %rbp
	.cfi_def_cfa_register %rbp
	subq	$40, %rsp
Ltmp833:
	.loc	31 396 13 prologue_end
	movq	(%rdi), %rax
	testq	%rax, %rax
	movq	%rdi, -40(%rbp)
Ltmp834:
	je	LBB244_3
	jmp	LBB244_7
Ltmp835:
LBB244_7:
	.loc	31 397 23
	movq	$0, -32(%rbp)
	.loc	31 395 9
	jmp	LBB244_6
Ltmp836:
	.loc	31 395 15 is_stmt 0
	ud2
LBB244_3:
Ltmp837:
	.loc	31 0 15
	movq	-40(%rbp), %rax
	.loc	31 396 16 is_stmt 1
	movq	8(%rax), %rcx
	movq	16(%rax), %rdx
	movq	%rcx, -16(%rbp)
	movq	%rdx, -8(%rbp)
Ltmp838:
	.loc	31 396 22 is_stmt 0
	movq	%rcx, -32(%rbp)
	movq	%rdx, -24(%rbp)
Ltmp839:
	.loc	31 399 5 is_stmt 1
	jmp	LBB244_6
Ltmp840:
LBB244_4:
	.loc	31 399 6 is_stmt 0
	movq	-32(%rbp), %rax
	movq	-24(%rbp), %rdx
	addq	$40, %rsp
	popq	%rbp
	retq
Ltmp841:
LBB244_5:
	.loc	31 399 5
	jmp	LBB244_4
Ltmp842:
LBB244_6:
	.loc	31 0 5
	movq	-40(%rbp), %rax
	.loc	31 399 5
	cmpq	$0, (%rax)
	je	LBB244_4
	jmp	LBB244_5
Ltmp843:
Lfunc_end244:
	.cfi_endproc

	.p2align	4, 0x90
__ZN4core6result19Result$LT$T$C$E$GT$2ok17h9d6bc5ec0ad13a17E:
Lfunc_begin245:
	.loc	31 394 0 is_stmt 1
	.cfi_startproc
	pushq	%rbp
	.cfi_def_cfa_offset 16
	.cfi_offset %rbp, -16
	movq	%rsp, %rbp
	.cfi_def_cfa_register %rbp
	subq	$32, %rsp
	movq	%rdi, -24(%rbp)
	movq	-24(%rbp), %rax
	movq	%rax, -32(%rbp)
Ltmp844:
	.loc	31 396 13 prologue_end
	movzbl	-32(%rbp), %ecx
	movl	%ecx, %eax
	testb	$1, %al
	je	LBB245_3
	jmp	LBB245_7
LBB245_7:
	.loc	31 397 23
	movl	$0, -16(%rbp)
	.loc	31 395 9
	jmp	LBB245_6
	.loc	31 395 15 is_stmt 0
	ud2
LBB245_3:
	.loc	31 396 16 is_stmt 1
	movl	-28(%rbp), %eax
	movl	%eax, -4(%rbp)
Ltmp845:
	.loc	31 396 22 is_stmt 0
	movl	%eax, -12(%rbp)
	movl	$1, -16(%rbp)
Ltmp846:
	.loc	31 399 5 is_stmt 1
	jmp	LBB245_6
LBB245_4:
	.loc	31 399 6 is_stmt 0
	movl	-16(%rbp), %eax
	movl	-12(%rbp), %edx
	addq	$32, %rsp
	popq	%rbp
	retq
LBB245_5:
	.loc	31 399 5
	jmp	LBB245_4
LBB245_6:
	movb	-32(%rbp), %al
	andb	$1, %al
	movzbl	%al, %ecx
	movl	%ecx, %edx
	cmpq	$0, %rdx
	je	LBB245_4
	jmp	LBB245_5
Ltmp847:
Lfunc_end245:
	.cfi_endproc

	.p2align	4, 0x90
__ZN4core6result19Result$LT$T$C$E$GT$2ok17hec3370358cef5f46E:
Lfunc_begin246:
	.loc	31 394 0 is_stmt 1
	.cfi_startproc
	pushq	%rbp
	.cfi_def_cfa_offset 16
	.cfi_offset %rbp, -16
	movq	%rsp, %rbp
	.cfi_def_cfa_register %rbp
	subq	$160, %rsp
	movq	%rdi, %rax
Ltmp848:
	.loc	31 396 13 prologue_end
	movq	(%rsi), %rcx
	testq	%rcx, %rcx
	movq	%rsi, -120(%rbp)
Ltmp849:
	.loc	31 0 13 is_stmt 0
	movq	%rdi, -128(%rbp)
	movq	%rax, -136(%rbp)
	.loc	31 396 13
	je	LBB246_3
	jmp	LBB246_7
Ltmp850:
LBB246_7:
	.loc	31 0 13
	movq	-128(%rbp), %rax
	.loc	31 397 23 is_stmt 1
	movq	$0, (%rax)
	.loc	31 395 9
	jmp	LBB246_6
Ltmp851:
	.loc	31 395 15 is_stmt 0
	ud2
LBB246_3:
Ltmp852:
	.loc	31 0 15
	movq	-120(%rbp), %rax
	.loc	31 396 16 is_stmt 1
	addq	$8, %rax
	leaq	-112(%rbp), %rcx
	movq	%rcx, %rdx
	movq	%rdx, %rdi
	movq	%rax, %rsi
	movl	$56, %eax
	movq	%rax, %rdx
	movq	%rcx, -144(%rbp)
	movq	%rax, -152(%rbp)
	callq	_memcpy
Ltmp853:
	.loc	31 396 27 is_stmt 0
	leaq	-56(%rbp), %rax
	movq	%rax, %rcx
	movq	-144(%rbp), %rdx
	movq	%rcx, %rdi
	movq	%rdx, %rsi
	movq	-152(%rbp), %rdx
	movq	%rax, -160(%rbp)
	callq	_memcpy
	movq	-128(%rbp), %rax
	movq	-160(%rbp), %rcx
	.loc	31 396 22
	movq	%rax, %rdi
	movq	%rcx, %rsi
	movq	-152(%rbp), %rdx
	callq	_memcpy
Ltmp854:
	.loc	31 399 5 is_stmt 1
	jmp	LBB246_6
Ltmp855:
LBB246_4:
	.loc	31 0 5 is_stmt 0
	movq	-136(%rbp), %rax
	.loc	31 399 6
	addq	$160, %rsp
	popq	%rbp
	retq
Ltmp856:
LBB246_5:
	.loc	31 0 6
	movq	-120(%rbp), %rdi
	.loc	31 399 5
	callq	__ZN4core3ptr13drop_in_place17h5688df9b63642a96E
	jmp	LBB246_4
Ltmp857:
LBB246_6:
	.loc	31 0 5
	movq	-120(%rbp), %rax
	.loc	31 399 5
	cmpq	$0, (%rax)
	je	LBB246_4
	jmp	LBB246_5
Ltmp858:
Lfunc_end246:
	.cfi_endproc

	.p2align	4, 0x90
__ZN4core6result19Result$LT$T$C$E$GT$5is_ok17h46dc2edaccd36032E:
Lfunc_begin247:
	.loc	31 285 0 is_stmt 1
	.cfi_startproc
	pushq	%rbp
	.cfi_def_cfa_offset 16
	.cfi_offset %rbp, -16
	movq	%rsp, %rbp
	.cfi_def_cfa_register %rbp
	subq	$16, %rsp
	movq	%rdi, -8(%rbp)
Ltmp859:
	.loc	31 286 25 prologue_end
	cmpq	$0, (%rdi)
	je	LBB247_2
	.loc	27 261 18
	movb	$0, -9(%rbp)
	.loc	27 259 9
	jmp	LBB247_3
LBB247_2:
	.loc	27 260 48
	movb	$1, -9(%rbp)
LBB247_3:
	.loc	31 287 6
	movb	-9(%rbp), %al
	andb	$1, %al
	movzbl	%al, %eax
	addq	$16, %rsp
	popq	%rbp
	retq
Ltmp860:
Lfunc_end247:
	.cfi_endproc

	.p2align	4, 0x90
__ZN4core7convert3num66_$LT$impl$u20$core..convert..From$LT$u16$GT$$u20$for$u20$usize$GT$4from17h6f3e4acaf4a0697eE:
Lfunc_begin248:
	.file	32 "/rustc/6c8927b0cf80ceee19386026cf9d7fd4fd9d486f/src/libcore/convert/num.rs"
	.loc	32 51 0
	.cfi_startproc
	pushq	%rbp
	.cfi_def_cfa_offset 16
	.cfi_offset %rbp, -16
	movq	%rsp, %rbp
	.cfi_def_cfa_register %rbp
	subq	$2, %rsp
	movw	%di, -2(%rbp)
Ltmp861:
	.loc	32 52 17 prologue_end
	movzwl	%di, %eax
	.loc	32 53 14
	addq	$2, %rsp
	popq	%rbp
	retq
Ltmp862:
Lfunc_end248:
	.cfi_endproc

	.p2align	4, 0x90
__ZN50_$LT$T$u20$as$u20$core..convert..From$LT$T$GT$$GT$4from17haedfbbae4bb5cea0E:
Lfunc_begin249:
	.file	33 "/rustc/6c8927b0cf80ceee19386026cf9d7fd4fd9d486f/src/libcore/convert/mod.rs"
	.loc	33 570 0
	.cfi_startproc
	pushq	%rbp
	.cfi_def_cfa_offset 16
	.cfi_offset %rbp, -16
	movq	%rsp, %rbp
	.cfi_def_cfa_register %rbp
	pushq	%rax
Ltmp863:
	.loc	33 572 6 prologue_end
	addq	$8, %rsp
	popq	%rbp
	retq
Ltmp864:
Lfunc_end249:
	.cfi_endproc

	.p2align	4, 0x90
__ZN50_$LT$T$u20$as$u20$core..convert..From$LT$T$GT$$GT$4from17hbdd8724e71f9b6a0E:
Lfunc_begin250:
	.loc	33 570 0
	.cfi_startproc
	pushq	%rbp
	.cfi_def_cfa_offset 16
	.cfi_offset %rbp, -16
	movq	%rsp, %rbp
	.cfi_def_cfa_register %rbp
	pushq	%rax
Ltmp865:
	.loc	33 572 6 prologue_end
	addq	$8, %rsp
	popq	%rbp
	retq
Ltmp866:
Lfunc_end250:
	.cfi_endproc

	.p2align	4, 0x90
__ZN50_$LT$T$u20$as$u20$core..convert..Into$LT$U$GT$$GT$4into17ha3f6da0241de74cbE:
Lfunc_begin251:
	.loc	33 562 0
	.cfi_startproc
	pushq	%rbp
	.cfi_def_cfa_offset 16
	.cfi_offset %rbp, -16
	movq	%rsp, %rbp
	.cfi_def_cfa_register %rbp
	subq	$16, %rsp
	movq	%rdi, -8(%rbp)
Ltmp867:
	.loc	33 563 9 prologue_end
	callq	__ZN119_$LT$core..ptr..non_null..NonNull$LT$T$GT$$u20$as$u20$core..convert..From$LT$core..ptr..unique..Unique$LT$T$GT$$GT$$GT$4from17h010adc659cd94a87E
	movq	%rax, -16(%rbp)
	.loc	33 0 9 is_stmt 0
	movq	-16(%rbp), %rax
	.loc	33 564 6 is_stmt 1
	addq	$16, %rsp
	popq	%rbp
	retq
Ltmp868:
Lfunc_end251:
	.cfi_endproc

	.p2align	4, 0x90
__ZN52_$LT$char$u20$as$u20$core..str..pattern..Pattern$GT$13into_searcher17h872e490033106492E:
Lfunc_begin252:
	.file	34 "/rustc/6c8927b0cf80ceee19386026cf9d7fd4fd9d486f/src/libcore/str/pattern.rs"
	.loc	34 535 0
	.cfi_startproc
	pushq	%rbp
	.cfi_def_cfa_offset 16
	.cfi_offset %rbp, -16
	movq	%rsp, %rbp
	.cfi_def_cfa_register %rbp
	subq	$128, %rsp
	movq	%rdi, %rax
	leaq	-36(%rbp), %r8
	xorl	%r9d, %r9d
	movl	%esi, -28(%rbp)
	movq	%rdx, -24(%rbp)
	movq	%rcx, -16(%rbp)
Ltmp869:
	movq	%rdi, -48(%rbp)
Ltmp870:
	.loc	34 536 32 prologue_end
	movq	%r8, %rdi
	movl	%esi, -52(%rbp)
	movl	%r9d, %esi
	movl	$4, %r10d
	movq	%rdx, -64(%rbp)
	movq	%r10, %rdx
	movq	%rcx, -72(%rbp)
	movq	%rax, -80(%rbp)
	movq	%r8, -88(%rbp)
Ltmp871:
	.loc	34 0 32 is_stmt 0
	movq	%r10, -96(%rbp)
	.loc	34 536 32
	callq	_memset
	movq	-88(%rbp), %rax
	movl	-52(%rbp), %edi
Ltmp872:
	.loc	34 537 25 is_stmt 1
	movq	%rax, %rsi
	movq	-96(%rbp), %rdx
	callq	__ZN4core4char7methods22_$LT$impl$u20$char$GT$11encode_utf817h2345c06b97169d07E
	movq	%rax, -104(%rbp)
	movq	%rdx, -112(%rbp)
Ltmp873:
	.loc	34 0 25 is_stmt 0
	movq	-104(%rbp), %rdi
	movq	-112(%rbp), %rsi
	.loc	34 537 25
	callq	__ZN4core3str21_$LT$impl$u20$str$GT$3len17h4b31c56df222472cE
	movq	%rax, -8(%rbp)
	movq	%rax, -120(%rbp)
Ltmp874:
	.loc	34 0 25
	movq	-64(%rbp), %rdi
	movq	-72(%rbp), %rsi
Ltmp875:
	.loc	34 541 26 is_stmt 1
	callq	__ZN4core3str21_$LT$impl$u20$str$GT$3len17h4b31c56df222472cE
	movq	%rax, -128(%rbp)
Ltmp876:
	.loc	34 544 13
	movl	-36(%rbp), %eax
	movl	%eax, -32(%rbp)
	movq	-48(%rbp), %rcx
	movq	-64(%rbp), %rdx
	.loc	34 538 9
	movq	%rdx, (%rcx)
	movq	-72(%rbp), %rsi
	movq	%rsi, 8(%rcx)
	movq	$0, 16(%rcx)
	movq	-128(%rbp), %rdi
	movq	%rdi, 24(%rcx)
	movl	-52(%rbp), %eax
	movl	%eax, 40(%rcx)
	movq	-120(%rbp), %r8
	movq	%r8, 32(%rcx)
	movl	-32(%rbp), %r9d
	movl	%r9d, 44(%rcx)
	movq	-80(%rbp), %r10
Ltmp877:
	.loc	34 546 6
	movq	%r10, %rax
	addq	$128, %rsp
	popq	%rbp
	retq
Ltmp878:
Lfunc_end252:
	.cfi_endproc

	.p2align	4, 0x90
__ZN54_$LT$$LP$$RP$$u20$as$u20$std..process..Termination$GT$6report17h181ede4d7f050f06E:
Lfunc_begin253:
	.loc	13 1667 0
	.cfi_startproc
	pushq	%rbp
	.cfi_def_cfa_offset 16
	.cfi_offset %rbp, -16
	movq	%rsp, %rbp
	.cfi_def_cfa_register %rbp
	subq	$16, %rsp
	xorl	%edi, %edi
Ltmp879:
	.loc	13 1668 9 prologue_end
	callq	__ZN68_$LT$std..process..ExitCode$u20$as$u20$std..process..Termination$GT$6report17hd0894db257c755a2E
	movl	%eax, -12(%rbp)
	.loc	13 0 9 is_stmt 0
	movl	-12(%rbp), %eax
	.loc	13 1669 6 is_stmt 1
	addq	$16, %rsp
	popq	%rbp
	retq
Ltmp880:
Lfunc_end253:
	.cfi_endproc

	.p2align	4, 0x90
__ZN55_$LT$$RF$T$u20$as$u20$core..convert..AsRef$LT$U$GT$$GT$6as_ref17h77b4d4a298279978E:
Lfunc_begin254:
	.loc	33 513 0
	.cfi_startproc
	pushq	%rbp
	.cfi_def_cfa_offset 16
	.cfi_offset %rbp, -16
	movq	%rsp, %rbp
	.cfi_def_cfa_register %rbp
	subq	$32, %rsp
	movq	%rdi, -8(%rbp)
Ltmp881:
	.loc	33 514 33 prologue_end
	movq	(%rdi), %rax
	movq	8(%rdi), %rsi
	.loc	33 514 9 is_stmt 0
	movq	%rax, %rdi
	callq	__ZN3std3ffi6os_str85_$LT$impl$u20$core..convert..AsRef$LT$std..ffi..os_str..OsStr$GT$$u20$for$u20$str$GT$6as_ref17h26b0d1daa740a625E
	movq	%rax, -16(%rbp)
	movq	%rdx, -24(%rbp)
	.loc	33 0 9
	movq	-16(%rbp), %rax
	movq	-24(%rbp), %rdx
	.loc	33 515 6 is_stmt 1
	addq	$32, %rsp
	popq	%rbp
	retq
Ltmp882:
Lfunc_end254:
	.cfi_endproc

	.p2align	4, 0x90
__ZN55_$LT$$RF$str$u20$as$u20$core..str..pattern..Pattern$GT$12is_prefix_of17ha863131d50047a60E:
Lfunc_begin255:
	.loc	34 872 0
	.cfi_startproc
	pushq	%rbp
	.cfi_def_cfa_offset 16
	.cfi_offset %rbp, -16
	movq	%rsp, %rbp
	.cfi_def_cfa_register %rbp
	subq	$160, %rsp
	movq	%rdi, -96(%rbp)
	movq	%rsi, -88(%rbp)
	movq	%rdx, -80(%rbp)
	movq	%rcx, -72(%rbp)
	movq	%rdx, -48(%rbp)
	movq	%rcx, -40(%rbp)
Ltmp883:
	.loc	9 2359 18 prologue_end
	movq	%rdx, -64(%rbp)
	movq	%rcx, -56(%rbp)
	movq	-64(%rbp), %rax
	movq	-56(%rbp), %rcx
	movq	%rdi, -104(%rbp)
	movq	%rsi, -112(%rbp)
	movq	%rax, -120(%rbp)
	movq	%rcx, -128(%rbp)
Ltmp884:
	.loc	9 0 18 is_stmt 0
	movq	-104(%rbp), %rax
	movq	%rax, -16(%rbp)
	movq	-112(%rbp), %rcx
	movq	%rcx, -8(%rbp)
Ltmp885:
	.loc	9 2359 18
	movq	%rax, -32(%rbp)
	movq	%rcx, -24(%rbp)
	movq	-32(%rbp), %rdx
	movq	-24(%rbp), %rcx
	movq	%rdx, -136(%rbp)
	movq	%rcx, -144(%rbp)
Ltmp886:
	.loc	9 0 18
	movq	-120(%rbp), %rdi
	movq	-128(%rbp), %rsi
	movq	-136(%rbp), %rdx
	movq	-144(%rbp), %rcx
	.loc	34 873 9 is_stmt 1
	callq	__ZN4core5slice29_$LT$impl$u20$$u5b$T$u5d$$GT$11starts_with17hee8f669029e23a64E
	movb	%al, -145(%rbp)
	.loc	34 0 9 is_stmt 0
	movb	-145(%rbp), %al
	.loc	34 874 6 is_stmt 1
	andb	$1, %al
	movzbl	%al, %eax
	addq	$160, %rsp
	popq	%rbp
	retq
Ltmp887:
Lfunc_end255:
	.cfi_endproc

	.p2align	4, 0x90
__ZN5alloc11collections5btree16unwrap_unchecked28_$u7b$$u7b$closure$u7d$$u7d$17h25192a5d5fee8a71E:
Lfunc_begin256:
	.loc	6 18 0
	.cfi_startproc
	pushq	%rbp
	.cfi_def_cfa_offset 16
	.cfi_offset %rbp, -16
	movq	%rsp, %rbp
	.cfi_def_cfa_register %rbp
	pushq	%rax
Ltmp888:
	.loc	6 23 17 prologue_end
	ud2
Ltmp889:
Lfunc_end256:
	.cfi_endproc

	.p2align	4, 0x90
__ZN5alloc11collections5btree16unwrap_unchecked28_$u7b$$u7b$closure$u7d$$u7d$17hb02bee03b759db4eE:
Lfunc_begin257:
	.loc	6 18 0
	.cfi_startproc
	pushq	%rbp
	.cfi_def_cfa_offset 16
	.cfi_offset %rbp, -16
	movq	%rsp, %rbp
	.cfi_def_cfa_register %rbp
	pushq	%rax
Ltmp890:
	.loc	6 23 17 prologue_end
	ud2
Ltmp891:
Lfunc_end257:
	.cfi_endproc

	.p2align	4, 0x90
__ZN5alloc11collections5btree3map17full_range_search17hb0bdf84b80ef1cd1E:
Lfunc_begin258:
	.loc	3 2039 0
	.cfi_startproc
	pushq	%rbp
	.cfi_def_cfa_offset 16
	.cfi_offset %rbp, -16
	movq	%rsp, %rbp
	.cfi_def_cfa_register %rbp
	subq	$832, %rsp
	movq	%rdi, %rax
Ltmp892:
	.loc	3 2047 33 prologue_end
	leaq	-768(%rbp), %rcx
Ltmp893:
	.loc	3 0 33 is_stmt 0
	movq	%rdi, -776(%rbp)
	.loc	3 2047 33
	movq	%rcx, %rdi
	movq	%rsi, -784(%rbp)
Ltmp894:
	.loc	3 0 33
	movq	%rax, -792(%rbp)
	.loc	3 2047 33
	callq	__ZN4core3ptr4read17h60e68daeab113fc9E
Ltmp895:
	.loc	3 0 33
	movq	-784(%rbp), %rax
Ltmp896:
	.loc	3 2048 24 is_stmt 1
	movq	(%rax), %rcx
	movq	%rcx, -744(%rbp)
	movq	8(%rax), %rcx
	movq	%rcx, -736(%rbp)
	movq	16(%rax), %rcx
	movq	%rcx, -728(%rbp)
Ltmp897:
LBB258_2:
	.loc	3 2050 21
	movq	-768(%rbp), %rax
	movq	%rax, -688(%rbp)
	movq	-760(%rbp), %rax
	movq	%rax, -680(%rbp)
	movq	-752(%rbp), %rax
	movq	%rax, -672(%rbp)
	leaq	-720(%rbp), %rdi
	leaq	-688(%rbp), %rsi
	callq	__ZN5alloc11collections5btree4node40NodeRef$LT$BorrowType$C$K$C$V$C$Type$GT$10first_edge17he038d307750cf7efE
Ltmp898:
	.loc	3 2051 20
	movq	-744(%rbp), %rax
	movq	%rax, -632(%rbp)
	movq	-736(%rbp), %rax
	movq	%rax, -624(%rbp)
	movq	-728(%rbp), %rax
	movq	%rax, -616(%rbp)
	leaq	-664(%rbp), %rdi
	leaq	-632(%rbp), %rsi
	callq	__ZN5alloc11collections5btree4node40NodeRef$LT$BorrowType$C$K$C$V$C$Type$GT$9last_edge17h3512c39fa077fc27E
Ltmp899:
	.loc	3 2052 16
	movq	-720(%rbp), %rax
	movq	%rax, -488(%rbp)
	movq	-712(%rbp), %rax
	movq	%rax, -480(%rbp)
	movq	-704(%rbp), %rax
	movq	%rax, -472(%rbp)
	movq	-696(%rbp), %rax
	movq	%rax, -464(%rbp)
	leaq	-528(%rbp), %rdi
	leaq	-488(%rbp), %rsi
	callq	__ZN5alloc11collections5btree4node151Handle$LT$alloc..collections..btree..node..NodeRef$LT$BorrowType$C$K$C$V$C$alloc..collections..btree..node..marker..LeafOrInternal$GT$$C$HandleType$GT$5force17haab89b538f1c0fa5E
Ltmp900:
	.loc	3 2052 31 is_stmt 0
	movq	-664(%rbp), %rax
	movq	%rax, -416(%rbp)
	movq	-656(%rbp), %rax
	movq	%rax, -408(%rbp)
	movq	-648(%rbp), %rax
	movq	%rax, -400(%rbp)
	movq	-640(%rbp), %rax
	movq	%rax, -392(%rbp)
	leaq	-456(%rbp), %rdi
	leaq	-416(%rbp), %rsi
	callq	__ZN5alloc11collections5btree4node151Handle$LT$alloc..collections..btree..node..NodeRef$LT$BorrowType$C$K$C$V$C$alloc..collections..btree..node..marker..LeafOrInternal$GT$$C$HandleType$GT$5force17haab89b538f1c0fa5E
Ltmp901:
	.loc	3 2052 15
	movq	-496(%rbp), %rax
	movq	%rax, -576(%rbp)
	movq	-504(%rbp), %rax
	movq	%rax, -584(%rbp)
	movq	-512(%rbp), %rax
	movq	%rax, -592(%rbp)
	movq	-528(%rbp), %rax
	movq	-520(%rbp), %rcx
	movq	%rcx, -600(%rbp)
	movq	%rax, -608(%rbp)
	movq	-424(%rbp), %rax
	movq	%rax, -536(%rbp)
	movq	-432(%rbp), %rax
	movq	%rax, -544(%rbp)
	movq	-440(%rbp), %rax
	movq	%rax, -552(%rbp)
	movq	-456(%rbp), %rax
	movq	-448(%rbp), %rcx
	movq	%rcx, -560(%rbp)
	movq	%rax, -568(%rbp)
	.loc	3 2053 14 is_stmt 1
	movq	-608(%rbp), %rax
	testq	%rax, %rax
	movq	%rax, -800(%rbp)
	je	LBB258_7
	jmp	LBB258_16
Ltmp902:
LBB258_16:
	.loc	3 0 14 is_stmt 0
	movq	-800(%rbp), %rax
	.loc	3 2053 14
	subq	$1, %rax
	je	LBB258_9
	jmp	LBB258_8
Ltmp903:
LBB258_7:
	.loc	3 2053 23
	cmpq	$0, -568(%rbp)
	je	LBB258_10
Ltmp904:
LBB258_8:
	.loc	27 548 16 is_stmt 1
	movq	l___unnamed_11(%rip), %rax
	.loc	3 2060 31
	movq	l___unnamed_12(%rip), %rcx
	.loc	27 19 38
	movq	%rcx, -16(%rbp)
	.loc	3 2060 31
	movq	-16(%rbp), %rcx
	movq	%rcx, -8(%rbp)
Ltmp905:
	.loc	27 19 38
	movq	%rcx, %rdi
	leaq	__ZN44_$LT$$RF$T$u20$as$u20$core..fmt..Display$GT$3fmt17h57e10aecc73b715dE(%rip), %rsi
	movq	%rax, -808(%rbp)
	callq	__ZN4core3fmt10ArgumentV13new17heddde21c0ed38d31E
	movq	%rax, -816(%rbp)
	movq	%rdx, -824(%rbp)
	jmp	LBB258_14
Ltmp906:
LBB258_9:
	.loc	3 2056 33
	cmpq	$1, -568(%rbp)
	je	LBB258_11
	jmp	LBB258_8
Ltmp907:
LBB258_10:
	.loc	3 2053 19
	movq	-600(%rbp), %rax
	movq	%rax, -384(%rbp)
	movq	-592(%rbp), %rax
	movq	%rax, -376(%rbp)
	movq	-584(%rbp), %rax
	movq	%rax, -368(%rbp)
	movq	-576(%rbp), %rax
	movq	%rax, -360(%rbp)
	.loc	3 2053 28 is_stmt 0
	movq	-560(%rbp), %rax
	movq	%rax, -352(%rbp)
	movq	-552(%rbp), %rax
	movq	%rax, -344(%rbp)
	movq	-544(%rbp), %rax
	movq	%rax, -336(%rbp)
	movq	-536(%rbp), %rax
	movq	%rax, -328(%rbp)
Ltmp908:
	.loc	3 2054 25 is_stmt 1
	movq	-384(%rbp), %rax
	movq	%rax, -320(%rbp)
	movq	-376(%rbp), %rax
	movq	%rax, -312(%rbp)
	movq	-368(%rbp), %rax
	movq	%rax, -304(%rbp)
	movq	-360(%rbp), %rax
	movq	%rax, -296(%rbp)
	.loc	3 2054 28 is_stmt 0
	movq	-352(%rbp), %rax
	movq	%rax, -288(%rbp)
	movq	-344(%rbp), %rax
	movq	%rax, -280(%rbp)
	movq	-336(%rbp), %rax
	movq	%rax, -272(%rbp)
	movq	-328(%rbp), %rax
	movq	%rax, -264(%rbp)
	.loc	3 2054 24
	movq	-320(%rbp), %rax
	movq	-776(%rbp), %rcx
	movq	%rax, (%rcx)
	movq	-312(%rbp), %rax
	movq	%rax, 8(%rcx)
	movq	-304(%rbp), %rax
	movq	%rax, 16(%rcx)
	movq	-296(%rbp), %rax
	movq	%rax, 24(%rcx)
	movq	-288(%rbp), %rax
	movq	%rax, 32(%rcx)
	movq	-280(%rbp), %rax
	movq	%rax, 40(%rcx)
	movq	-272(%rbp), %rax
	movq	%rax, 48(%rcx)
	movq	-264(%rbp), %rax
	movq	%rax, 56(%rcx)
	movq	-792(%rbp), %rax
Ltmp909:
	.loc	3 2063 2 is_stmt 1
	addq	$832, %rsp
	popq	%rbp
	retq
Ltmp910:
LBB258_11:
	.loc	3 2056 23
	movq	-600(%rbp), %rax
	movq	%rax, -256(%rbp)
	movq	-592(%rbp), %rax
	movq	%rax, -248(%rbp)
	movq	-584(%rbp), %rax
	movq	%rax, -240(%rbp)
	movq	-576(%rbp), %rax
	movq	%rax, -232(%rbp)
	.loc	3 2056 42 is_stmt 0
	movq	-560(%rbp), %rax
	movq	%rax, -224(%rbp)
	movq	-552(%rbp), %rax
	movq	%rax, -216(%rbp)
	movq	-544(%rbp), %rax
	movq	%rax, -208(%rbp)
	movq	-536(%rbp), %rax
	movq	%rax, -200(%rbp)
Ltmp911:
	.loc	3 2057 28 is_stmt 1
	movq	-256(%rbp), %rax
	movq	%rax, -168(%rbp)
	movq	-248(%rbp), %rax
	movq	%rax, -160(%rbp)
	movq	-240(%rbp), %rax
	movq	%rax, -152(%rbp)
	movq	-232(%rbp), %rax
	movq	%rax, -144(%rbp)
	leaq	-192(%rbp), %rdi
	leaq	-168(%rbp), %rsi
	callq	__ZN5alloc11collections5btree4node180Handle$LT$alloc..collections..btree..node..NodeRef$LT$BorrowType$C$K$C$V$C$alloc..collections..btree..node..marker..Internal$GT$$C$alloc..collections..btree..node..marker..Edge$GT$7descend17hec67de23a1e03162E
Ltmp912:
	.loc	3 2057 17 is_stmt 0
	movq	-192(%rbp), %rax
	movq	%rax, -768(%rbp)
	movq	-184(%rbp), %rax
	movq	%rax, -760(%rbp)
	movq	-176(%rbp), %rax
	movq	%rax, -752(%rbp)
	.loc	3 2058 28 is_stmt 1
	movq	-224(%rbp), %rax
	movq	%rax, -112(%rbp)
	movq	-216(%rbp), %rax
	movq	%rax, -104(%rbp)
	movq	-208(%rbp), %rax
	movq	%rax, -96(%rbp)
	movq	-200(%rbp), %rax
	movq	%rax, -88(%rbp)
	leaq	-136(%rbp), %rdi
	leaq	-112(%rbp), %rsi
	callq	__ZN5alloc11collections5btree4node180Handle$LT$alloc..collections..btree..node..NodeRef$LT$BorrowType$C$K$C$V$C$alloc..collections..btree..node..marker..Internal$GT$$C$alloc..collections..btree..node..marker..Edge$GT$7descend17hec67de23a1e03162E
Ltmp913:
	.loc	3 2058 17 is_stmt 0
	movq	-136(%rbp), %rax
	movq	%rax, -744(%rbp)
	movq	-128(%rbp), %rax
	movq	%rax, -736(%rbp)
	movq	-120(%rbp), %rax
	movq	%rax, -728(%rbp)
Ltmp914:
	.loc	3 2049 5 is_stmt 1
	jmp	LBB258_2
Ltmp915:
LBB258_14:
	.loc	3 0 5 is_stmt 0
	movq	-816(%rbp), %rax
Ltmp916:
	.loc	27 19 38 is_stmt 1
	movq	%rax, -32(%rbp)
	movq	-824(%rbp), %rcx
	movq	%rcx, -24(%rbp)
Ltmp917:
	.loc	27 19 38 is_stmt 0
	leaq	-32(%rbp), %rdx
	leaq	-80(%rbp), %rdi
	movq	-808(%rbp), %rsi
	movl	$1, %r8d
	movq	%rdx, -832(%rbp)
	movq	%r8, %rdx
	movq	-832(%rbp), %rcx
	callq	__ZN4core3fmt9Arguments6new_v117hecb3f1ddb34b0c6dE
Ltmp918:
	.loc	27 19 9
	leaq	l___unnamed_7(%rip), %rsi
	leaq	-80(%rbp), %rdi
	callq	__ZN4core9panicking9panic_fmt17hfce5b7173905fc53E
Ltmp919:
Lfunc_end258:
	.cfi_endproc

	.p2align	4, 0x90
__ZN5alloc11collections5btree4node104Handle$LT$alloc..collections..btree..node..NodeRef$LT$BorrowType$C$K$C$V$C$NodeType$GT$$C$HandleType$GT$8reborrow17hbed3c32b19b81edaE:
Lfunc_begin259:
	.file	35 "/rustc/6c8927b0cf80ceee19386026cf9d7fd4fd9d486f/src/liballoc/collections/btree/node.rs"
	.loc	35 781 0 is_stmt 1
	.cfi_startproc
	pushq	%rbp
	.cfi_def_cfa_offset 16
	.cfi_offset %rbp, -16
	movq	%rsp, %rbp
	.cfi_def_cfa_register %rbp
	subq	$64, %rsp
	movq	%rdi, %rax
	movq	%rsi, -8(%rbp)
Ltmp920:
	.loc	35 783 24 prologue_end
	movq	%rsi, %rcx
	leaq	-40(%rbp), %rdx
	movq	%rdi, -48(%rbp)
	movq	%rdx, %rdi
