	.section	__TEXT,__text,regular,pure_instructions
	.macosx_version_min 10, 7
	.private_extern	__ZN3std2rt10lang_start17hc7a7f996d2d11dabE
	.globl	__ZN3std2rt10lang_start17hc7a7f996d2d11dabE
	.p2align	4, 0x90
__ZN3std2rt10lang_start17hc7a7f996d2d11dabE:
Lfunc_begin0:
	.file	1 "/rustc/6c8927b0cf80ceee19386026cf9d7fd4fd9d486f/src/libstd/rt.rs"
	.loc	1 62 0
	.cfi_startproc
	pushq	%rbp
	.cfi_def_cfa_offset 16
	.cfi_offset %rbp, -16
	movq	%rsp, %rbp
	.cfi_def_cfa_register %rbp
	subq	$64, %rsp
	leaq	l___unnamed_1(%rip), %rax
	movq	%rdi, -24(%rbp)
	movq	%rsi, -16(%rbp)
	movq	%rdx, -8(%rbp)
Ltmp0:
	.loc	1 67 26 prologue_end
	movq	%rdi, -32(%rbp)
	.loc	1 67 25 is_stmt 0
	leaq	-32(%rbp), %rcx
	.loc	1 67 5
	movq	%rcx, %rdi
	movq	%rsi, -40(%rbp)
	movq	%rax, %rsi
	movq	-40(%rbp), %rax
	movq	%rdx, -48(%rbp)
	movq	%rax, %rdx
	movq	-48(%rbp), %rcx
	callq	__ZN3std2rt19lang_start_internal17hbbd10965adc92ae7E
	movq	%rax, -56(%rbp)
	.loc	1 0 5
	movq	-56(%rbp), %rax
	.loc	1 68 2 is_stmt 1
	addq	$64, %rsp
	popq	%rbp
	retq
Ltmp1:
Lfunc_end0:
	.cfi_endproc

	.p2align	4, 0x90
__ZN3std2rt10lang_start28_$u7b$$u7b$closure$u7d$$u7d$17h3ae08adcfd88d909E:
Lfunc_begin1:
	.loc	1 67 0
	.cfi_startproc
	pushq	%rbp
	.cfi_def_cfa_offset 16
	.cfi_offset %rbp, -16
	movq	%rsp, %rbp
	.cfi_def_cfa_register %rbp
	subq	$16, %rsp
	movq	%rdi, -8(%rbp)
Ltmp2:
	.loc	1 67 34 prologue_end
	callq	*(%rdi)
	callq	__ZN54_$LT$$LP$$RP$$u20$as$u20$std..process..Termination$GT$6report17h6e7d2d8581339b81E
	movl	%eax, -12(%rbp)
	.loc	1 0 34 is_stmt 0
	movl	-12(%rbp), %eax
	.loc	1 67 49
	addq	$16, %rsp
	popq	%rbp
	retq
Ltmp3:
Lfunc_end1:
	.cfi_endproc

	.p2align	4, 0x90
__ZN3std3sys4unix7process14process_common8ExitCode6as_i3217heec5c551aef6e67dE:
Lfunc_begin2:
	.file	2 "/rustc/6c8927b0cf80ceee19386026cf9d7fd4fd9d486f/src/libstd/sys/unix/process/process_common.rs"
	.loc	2 398 0 is_stmt 1
	.cfi_startproc
	pushq	%rbp
	.cfi_def_cfa_offset 16
	.cfi_offset %rbp, -16
	movq	%rsp, %rbp
	.cfi_def_cfa_register %rbp
	pushq	%rax
	movq	%rdi, -8(%rbp)
Ltmp4:
	.loc	2 399 9 prologue_end
	movzbl	(%rdi), %eax
	.loc	2 400 6
	addq	$8, %rsp
	popq	%rbp
	retq
Ltmp5:
Lfunc_end2:
	.cfi_endproc

	.p2align	4, 0x90
__ZN4core3fmt9Arguments6new_v117hbe69f5a117cd1635E:
Lfunc_begin3:
	.file	3 "/rustc/6c8927b0cf80ceee19386026cf9d7fd4fd9d486f/src/libcore/fmt/mod.rs"
	.loc	3 327 0
	.cfi_startproc
	pushq	%rbp
	.cfi_def_cfa_offset 16
	.cfi_offset %rbp, -16
	movq	%rsp, %rbp
	.cfi_def_cfa_register %rbp
	subq	$48, %rsp
	movq	%rdi, %rax
	movq	%rsi, -32(%rbp)
	movq	%rdx, -24(%rbp)
	movq	%rcx, -16(%rbp)
	movq	%r8, -8(%rbp)
Ltmp6:
	.loc	3 328 34 prologue_end
	movq	$0, -48(%rbp)
	.loc	3 328 9 is_stmt 0
	movq	%rsi, (%rdi)
	movq	%rdx, 8(%rdi)
	movq	-48(%rbp), %rdx
	movq	-40(%rbp), %rsi
	movq	%rdx, 16(%rdi)
	movq	%rsi, 24(%rdi)
	movq	%rcx, 32(%rdi)
	movq	%r8, 40(%rdi)
	.loc	3 329 6 is_stmt 1
	addq	$48, %rsp
	popq	%rbp
	retq
Ltmp7:
Lfunc_end3:
	.cfi_endproc

	.p2align	4, 0x90
__ZN4core3ops8function6FnOnce40call_once$u7b$$u7b$vtable.shim$u7d$$u7d$17he0852887a6d8bac6E:
Lfunc_begin4:
	.file	4 "/rustc/6c8927b0cf80ceee19386026cf9d7fd4fd9d486f/src/libcore/ops/function.rs"
	.loc	4 233 0
	.cfi_startproc
	pushq	%rbp
	.cfi_def_cfa_offset 16
	.cfi_offset %rbp, -16
	movq	%rsp, %rbp
	.cfi_def_cfa_register %rbp
	subq	$32, %rsp
	movq	%rdi, -8(%rbp)
Ltmp8:
	.loc	4 233 5 prologue_end
	movq	(%rdi), %rdi
	callq	__ZN4core3ops8function6FnOnce9call_once17h54ca2e18a159d96bE
	movl	%eax, -20(%rbp)
	.loc	4 0 5 is_stmt 0
	movl	-20(%rbp), %eax
	.loc	4 233 5
	addq	$32, %rsp
	popq	%rbp
	retq
Ltmp9:
Lfunc_end4:
	.cfi_endproc

	.p2align	4, 0x90
__ZN4core3ops8function6FnOnce9call_once17h54ca2e18a159d96bE:
Lfunc_begin5:
	.loc	4 233 0 is_stmt 1
	.cfi_startproc
	.cfi_personality 155, _rust_eh_personality
	.cfi_lsda 16, Lexception0
	pushq	%rbp
	.cfi_def_cfa_offset 16
	.cfi_offset %rbp, -16
	movq	%rsp, %rbp
	.cfi_def_cfa_register %rbp
	subq	$48, %rsp
	movq	%rdi, -32(%rbp)
Ltmp10:
	leaq	-32(%rbp), %rdi
Ltmp13:
	.loc	4 233 5 prologue_end
	callq	__ZN3std2rt10lang_start28_$u7b$$u7b$closure$u7d$$u7d$17h3ae08adcfd88d909E
Ltmp11:
	movl	%eax, -36(%rbp)
	jmp	LBB5_1
LBB5_1:
	jmp	LBB5_2
LBB5_2:
	.loc	4 0 5 is_stmt 0
	movl	-36(%rbp), %eax
	.loc	4 233 5
	addq	$48, %rsp
	popq	%rbp
	retq
LBB5_3:
	jmp	LBB5_4
LBB5_4:
	movq	-16(%rbp), %rdi
	callq	__Unwind_Resume
	ud2
Ltmp14:
LBB5_5:
Ltmp12:
	.loc	4 0 5
	movq	%rax, -16(%rbp)
	movl	%edx, -8(%rbp)
	jmp	LBB5_3
Lfunc_end5:
	.cfi_endproc
	.section	__TEXT,__gcc_except_tab
	.p2align	2
GCC_except_table5:
Lexception0:
	.byte	255
	.byte	255
	.byte	1
	.uleb128 Lcst_end0-Lcst_begin0
Lcst_begin0:
	.uleb128 Ltmp10-Lfunc_begin5
	.uleb128 Ltmp11-Ltmp10
	.uleb128 Ltmp12-Lfunc_begin5
	.byte	0
	.uleb128 Ltmp11-Lfunc_begin5
	.uleb128 Lfunc_end5-Ltmp11
	.byte	0
	.byte	0
Lcst_end0:
	.p2align	2

	.section	__TEXT,__text,regular,pure_instructions
	.p2align	4, 0x90
__ZN4core3ptr13drop_in_place17h2835a00e765ae804E:
Lfunc_begin6:
	.file	5 "/rustc/6c8927b0cf80ceee19386026cf9d7fd4fd9d486f/src/libcore/ptr/mod.rs"
	.loc	5 184 0 is_stmt 1
	.cfi_startproc
	pushq	%rbp
	.cfi_def_cfa_offset 16
	.cfi_offset %rbp, -16
	movq	%rsp, %rbp
	.cfi_def_cfa_register %rbp
	subq	$16, %rsp
	movq	%rdi, -8(%rbp)
Ltmp15:
	.loc	5 184 1 prologue_end
	addq	$16, %rsp
	popq	%rbp
	retq
Ltmp16:
Lfunc_end6:
	.cfi_endproc

	.p2align	4, 0x90
__ZN54_$LT$$LP$$RP$$u20$as$u20$std..process..Termination$GT$6report17h6e7d2d8581339b81E:
Lfunc_begin7:
	.file	6 "/rustc/6c8927b0cf80ceee19386026cf9d7fd4fd9d486f/src/libstd/process.rs"
	.loc	6 1667 0
	.cfi_startproc
	pushq	%rbp
	.cfi_def_cfa_offset 16
	.cfi_offset %rbp, -16
	movq	%rsp, %rbp
	.cfi_def_cfa_register %rbp
	subq	$16, %rsp
	xorl	%edi, %edi
Ltmp17:
	.loc	6 1668 9 prologue_end
	callq	__ZN68_$LT$std..process..ExitCode$u20$as$u20$std..process..Termination$GT$6report17h3b395cb97747dd01E
	movl	%eax, -12(%rbp)
	.loc	6 0 9 is_stmt 0
	movl	-12(%rbp), %eax
	.loc	6 1669 6 is_stmt 1
	addq	$16, %rsp
	popq	%rbp
	retq
Ltmp18:
Lfunc_end7:
	.cfi_endproc

	.p2align	4, 0x90
__ZN68_$LT$std..process..ExitCode$u20$as$u20$std..process..Termination$GT$6report17h3b395cb97747dd01E:
Lfunc_begin8:
	.loc	6 1701 0
	.cfi_startproc
	pushq	%rbp
	.cfi_def_cfa_offset 16
	.cfi_offset %rbp, -16
	movq	%rsp, %rbp
	.cfi_def_cfa_register %rbp
	subq	$16, %rsp
	movb	%dil, -1(%rbp)
Ltmp19:
	.loc	6 1702 9 prologue_end
	leaq	-1(%rbp), %rdi
Ltmp20:
	callq	__ZN3std3sys4unix7process14process_common8ExitCode6as_i3217heec5c551aef6e67dE
Ltmp21:
	.loc	6 0 9 is_stmt 0
	movl	%eax, -8(%rbp)
	movl	-8(%rbp), %eax
	.loc	6 1703 6 is_stmt 1
	addq	$16, %rsp
	popq	%rbp
	retq
Ltmp22:
Lfunc_end8:
	.cfi_endproc

	.p2align	4, 0x90
__ZN18build_script_build4main17hefd5aeb494642769E:
Lfunc_begin9:
	.file	7 "/Users/yingyuhang/.cargo/registry/src/github.com-1ecc6299db9ec823/rayon-core-1.7.1/build.rs"
	.loc	7 4 0
	.cfi_startproc
	pushq	%rbp
	.cfi_def_cfa_offset 16
	.cfi_offset %rbp, -16
	movq	%rsp, %rbp
	.cfi_def_cfa_register %rbp
	subq	$64, %rsp
	xorl	%eax, %eax
	movl	%eax, %r8d
Ltmp23:
	.loc	7 6 14 prologue_end
	movq	l___unnamed_2(%rip), %rcx
	.loc	7 6 5 is_stmt 0
	movq	l___unnamed_3(%rip), %rdx
	leaq	-48(%rbp), %rdi
	movq	%rcx, %rsi
	movl	$1, %ecx
	movq	%rdx, -56(%rbp)
	movq	%rcx, %rdx
	movq	-56(%rbp), %rcx
	callq	__ZN4core3fmt9Arguments6new_v117hbe69f5a117cd1635E
	leaq	-48(%rbp), %rdi
	callq	__ZN3std2io5stdio6_print17h84d1497a7551d848E
	.loc	7 7 2 is_stmt 1
	addq	$64, %rsp
	popq	%rbp
	retq
Ltmp24:
Lfunc_end9:
	.cfi_endproc

	.globl	_main
	.p2align	4, 0x90
_main:
Lfunc_begin10:
	.cfi_startproc
	pushq	%rbp
	.cfi_def_cfa_offset 16
	.cfi_offset %rbp, -16
	movq	%rsp, %rbp
	.cfi_def_cfa_register %rbp
	subq	$16, %rsp
	movslq	%edi, %rax
	leaq	__ZN18build_script_build4main17hefd5aeb494642769E(%rip), %rdi
	movq	%rsi, -8(%rbp)
	movq	%rax, %rsi
	movq	-8(%rbp), %rdx
	callq	__ZN3std2rt10lang_start17hc7a7f996d2d11dabE
	addq	$16, %rsp
	popq	%rbp
	retq
Lfunc_end10:
	.cfi_endproc

	.section	__DATA,__const
	.p2align	3
l___unnamed_1:
	.quad	__ZN4core3ptr13drop_in_place17h2835a00e765ae804E
	.quad	8
	.quad	8
	.quad	__ZN3std2rt10lang_start28_$u7b$$u7b$closure$u7d$$u7d$17h3ae08adcfd88d909E
	.quad	__ZN3std2rt10lang_start28_$u7b$$u7b$closure$u7d$$u7d$17h3ae08adcfd88d909E
	.quad	__ZN4core3ops8function6FnOnce40call_once$u7b$$u7b$vtable.shim$u7d$$u7d$17he0852887a6d8bac6E

	.section	__TEXT,__const
l___unnamed_4:
	.ascii	"cargo:rerun-if-changed=build.rs\n"

	.section	__DATA,__const
	.p2align	3
l___unnamed_5:
	.quad	l___unnamed_4
	.asciz	" \000\000\000\000\000\000"

	.p2align	3
l___unnamed_2:
	.quad	l___unnamed_5

	.section	__TEXT,__const
	.p2align	3
l___unnamed_6:
	.byte	0

	.section	__DATA,__const
	.p2align	3
l___unnamed_3:
	.quad	l___unnamed_6

	.section	__DATA,__const
Lsec_end0:
	.section	__TEXT,__text,regular,pure_instructions
Lsec_end1: