	.section	__TEXT,__text,regular,pure_instructions
	.macosx_version_min 10, 7
	.private_extern	__ZN3std2rt10lang_start17h803ab3117b806369E
	.globl	__ZN3std2rt10lang_start17h803ab3117b806369E
	.p2align	4, 0x90
__ZN3std2rt10lang_start17h803ab3117b806369E:
Lfunc_begin0:
	.file	1 "/rustc/6c8927b0cf80ceee19386026cf9d7fd4fd9d486f/src/libstd/rt.rs"
	.loc	1 62 0
	.cfi_startproc
	pushq	%rbp
	.cfi_def_cfa_offset 16
	.cfi_offset %rbp, -16
	movq	%rsp, %rbp
	.cfi_def_cfa_register %rbp
	subq	$64, %rsp
	leaq	l___unnamed_1(%rip), %rax
	movq	%rdi, -24(%rbp)
	movq	%rsi, -16(%rbp)
	movq	%rdx, -8(%rbp)
Ltmp0:
	.loc	1 67 26 prologue_end
	movq	%rdi, -32(%rbp)
	.loc	1 67 25 is_stmt 0
	leaq	-32(%rbp), %rcx
	.loc	1 67 5
	movq	%rcx, %rdi
	movq	%rsi, -40(%rbp)
	movq	%rax, %rsi
	movq	-40(%rbp), %rax
	movq	%rdx, -48(%rbp)
	movq	%rax, %rdx
	movq	-48(%rbp), %rcx
	callq	__ZN3std2rt19lang_start_internal17hbbd10965adc92ae7E
	movq	%rax, -56(%rbp)
	.loc	1 0 5
	movq	-56(%rbp), %rax
	.loc	1 68 2 is_stmt 1
	addq	$64, %rsp
	popq	%rbp
	retq
Ltmp1:
Lfunc_end0:
	.cfi_endproc

	.p2align	4, 0x90
__ZN3std2rt10lang_start28_$u7b$$u7b$closure$u7d$$u7d$17h32c415649c00d954E:
Lfunc_begin1:
	.loc	1 67 0
	.cfi_startproc
	pushq	%rbp
	.cfi_def_cfa_offset 16
	.cfi_offset %rbp, -16
	movq	%rsp, %rbp
	.cfi_def_cfa_register %rbp
	subq	$16, %rsp
	movq	%rdi, -8(%rbp)
Ltmp2:
	.loc	1 67 34 prologue_end
	callq	*(%rdi)
	callq	__ZN54_$LT$$LP$$RP$$u20$as$u20$std..process..Termination$GT$6report17h51122a8aa4d47a9dE
	movl	%eax, -12(%rbp)
	.loc	1 0 34 is_stmt 0
	movl	-12(%rbp), %eax
	.loc	1 67 49
	addq	$16, %rsp
	popq	%rbp
	retq
Ltmp3:
Lfunc_end1:
	.cfi_endproc

	.p2align	4, 0x90
__ZN3std3sys4unix7process14process_common8ExitCode6as_i3217hf3800db3417342ccE:
Lfunc_begin2:
	.file	2 "/rustc/6c8927b0cf80ceee19386026cf9d7fd4fd9d486f/src/libstd/sys/unix/process/process_common.rs"
	.loc	2 398 0 is_stmt 1
	.cfi_startproc
	pushq	%rbp
	.cfi_def_cfa_offset 16
	.cfi_offset %rbp, -16
	movq	%rsp, %rbp
	.cfi_def_cfa_register %rbp
	pushq	%rax
	movq	%rdi, -8(%rbp)
Ltmp4:
	.loc	2 399 9 prologue_end
	movzbl	(%rdi), %eax
	.loc	2 400 6
	addq	$8, %rsp
	popq	%rbp
	retq
Ltmp5:
Lfunc_end2:
	.cfi_endproc

	.p2align	4, 0x90
__ZN4core3fmt9Arguments6new_v117h1e3d8d2f61046bb4E:
Lfunc_begin3:
	.file	3 "/rustc/6c8927b0cf80ceee19386026cf9d7fd4fd9d486f/src/libcore/fmt/mod.rs"
	.loc	3 327 0
	.cfi_startproc
	pushq	%rbp
	.cfi_def_cfa_offset 16
	.cfi_offset %rbp, -16
	movq	%rsp, %rbp
	.cfi_def_cfa_register %rbp
	subq	$48, %rsp
	movq	%rdi, %rax
	movq	%rsi, -32(%rbp)
	movq	%rdx, -24(%rbp)
	movq	%rcx, -16(%rbp)
	movq	%r8, -8(%rbp)
Ltmp6:
	.loc	3 328 34 prologue_end
	movq	$0, -48(%rbp)
	.loc	3 328 9 is_stmt 0
	movq	%rsi, (%rdi)
	movq	%rdx, 8(%rdi)
	movq	-48(%rbp), %rdx
	movq	-40(%rbp), %rsi
	movq	%rdx, 16(%rdi)
	movq	%rsi, 24(%rdi)
	movq	%rcx, 32(%rdi)
	movq	%r8, 40(%rdi)
	.loc	3 329 6 is_stmt 1
	addq	$48, %rsp
	popq	%rbp
	retq
Ltmp7:
Lfunc_end3:
	.cfi_endproc

	.p2align	4, 0x90
__ZN4core3ops8function6FnOnce40call_once$u7b$$u7b$vtable.shim$u7d$$u7d$17h584808e95f89d243E:
Lfunc_begin4:
	.file	4 "/rustc/6c8927b0cf80ceee19386026cf9d7fd4fd9d486f/src/libcore/ops/function.rs"
	.loc	4 233 0
	.cfi_startproc
	pushq	%rbp
	.cfi_def_cfa_offset 16
	.cfi_offset %rbp, -16
	movq	%rsp, %rbp
	.cfi_def_cfa_register %rbp
	subq	$32, %rsp
	movq	%rdi, -8(%rbp)
Ltmp8:
	.loc	4 233 5 prologue_end
	movq	(%rdi), %rdi
	callq	__ZN4core3ops8function6FnOnce9call_once17he87ade9c5fdb684bE
	movl	%eax, -20(%rbp)
	.loc	4 0 5 is_stmt 0
	movl	-20(%rbp), %eax
	.loc	4 233 5
	addq	$32, %rsp
	popq	%rbp
	retq
Ltmp9:
Lfunc_end4:
	.cfi_endproc

	.p2align	4, 0x90
__ZN4core3ops8function6FnOnce9call_once17he87ade9c5fdb684bE:
Lfunc_begin5:
	.loc	4 233 0 is_stmt 1
	.cfi_startproc
	.cfi_personality 155, _rust_eh_personality
	.cfi_lsda 16, Lexception0
	pushq	%rbp
	.cfi_def_cfa_offset 16
	.cfi_offset %rbp, -16
	movq	%rsp, %rbp
	.cfi_def_cfa_register %rbp
	subq	$48, %rsp
	movq	%rdi, -32(%rbp)
Ltmp10:
	leaq	-32(%rbp), %rdi
Ltmp13:
	.loc	4 233 5 prologue_end
	callq	__ZN3std2rt10lang_start28_$u7b$$u7b$closure$u7d$$u7d$17h32c415649c00d954E
Ltmp11:
	movl	%eax, -36(%rbp)
	jmp	LBB5_1
LBB5_1:
	jmp	LBB5_2
LBB5_2:
	.loc	4 0 5 is_stmt 0
	movl	-36(%rbp), %eax
	.loc	4 233 5
	addq	$48, %rsp
	popq	%rbp
	retq
LBB5_3:
	jmp	LBB5_4
LBB5_4:
	movq	-16(%rbp), %rdi
	callq	__Unwind_Resume
	ud2
Ltmp14:
LBB5_5:
Ltmp12:
	.loc	4 0 5
	movq	%rax, -16(%rbp)
	movl	%edx, -8(%rbp)
	jmp	LBB5_3
Lfunc_end5:
	.cfi_endproc
	.section	__TEXT,__gcc_except_tab
	.p2align	2
GCC_except_table5:
Lexception0:
	.byte	255
	.byte	255
	.byte	1
	.uleb128 Lcst_end0-Lcst_begin0
Lcst_begin0:
	.uleb128 Ltmp10-Lfunc_begin5
	.uleb128 Ltmp11-Ltmp10
	.uleb128 Ltmp12-Lfunc_begin5
	.byte	0
	.uleb128 Ltmp11-Lfunc_begin5
	.uleb128 Lfunc_end5-Ltmp11
	.byte	0
	.byte	0
Lcst_end0:
	.p2align	2

	.section	__TEXT,__text,regular,pure_instructions
	.p2align	4, 0x90
__ZN4core3ptr13drop_in_place17hc6abb8a4094b9d62E:
Lfunc_begin6:
	.file	5 "/rustc/6c8927b0cf80ceee19386026cf9d7fd4fd9d486f/src/libcore/ptr/mod.rs"
	.loc	5 184 0 is_stmt 1
	.cfi_startproc
	pushq	%rbp
	.cfi_def_cfa_offset 16
	.cfi_offset %rbp, -16
	movq	%rsp, %rbp
	.cfi_def_cfa_register %rbp
	subq	$16, %rsp
	movq	%rdi, -8(%rbp)
Ltmp15:
	.loc	5 184 1 prologue_end
	addq	$16, %rsp
	popq	%rbp
	retq
Ltmp16:
Lfunc_end6:
	.cfi_endproc

	.p2align	4, 0x90
__ZN54_$LT$$LP$$RP$$u20$as$u20$std..process..Termination$GT$6report17h51122a8aa4d47a9dE:
Lfunc_begin7:
	.file	6 "/rustc/6c8927b0cf80ceee19386026cf9d7fd4fd9d486f/src/libstd/process.rs"
	.loc	6 1667 0
	.cfi_startproc
	pushq	%rbp
	.cfi_def_cfa_offset 16
	.cfi_offset %rbp, -16
	movq	%rsp, %rbp
	.cfi_def_cfa_register %rbp
	subq	$16, %rsp
	xorl	%edi, %edi
Ltmp17:
	.loc	6 1668 9 prologue_end
	callq	__ZN68_$LT$std..process..ExitCode$u20$as$u20$std..process..Termination$GT$6report17hefaa1a65fd8f172aE
	movl	%eax, -12(%rbp)
	.loc	6 0 9 is_stmt 0
	movl	-12(%rbp), %eax
	.loc	6 1669 6 is_stmt 1
	addq	$16, %rsp
	popq	%rbp
	retq
Ltmp18:
Lfunc_end7:
	.cfi_endproc

	.p2align	4, 0x90
__ZN68_$LT$std..process..ExitCode$u20$as$u20$std..process..Termination$GT$6report17hefaa1a65fd8f172aE:
Lfunc_begin8:
	.loc	6 1701 0
	.cfi_startproc
	pushq	%rbp
	.cfi_def_cfa_offset 16
	.cfi_offset %rbp, -16
	movq	%rsp, %rbp
	.cfi_def_cfa_register %rbp
	subq	$16, %rsp
	movb	%dil, -1(%rbp)
Ltmp19:
	.loc	6 1702 9 prologue_end
	leaq	-1(%rbp), %rdi
Ltmp20:
	callq	__ZN3std3sys4unix7process14process_common8ExitCode6as_i3217hf3800db3417342ccE
Ltmp21:
	.loc	6 0 9 is_stmt 0
	movl	%eax, -8(%rbp)
	movl	-8(%rbp), %eax
	.loc	6 1703 6 is_stmt 1
	addq	$16, %rsp
	popq	%rbp
	retq
Ltmp22:
Lfunc_end8:
	.cfi_endproc

	.p2align	4, 0x90
__ZN18build_script_build4main17hec39924fb3ed6432E:
Lfunc_begin9:
	.file	7 "/Users/yingyuhang/.cargo/registry/src/github.com-1ecc6299db9ec823/memoffset-0.5.5/build.rs"
	.loc	7 3 0
	.cfi_startproc
	.cfi_personality 155, _rust_eh_personality
	.cfi_lsda 16, Lexception1
	pushq	%rbp
	.cfi_def_cfa_offset 16
	.cfi_offset %rbp, -16
	movq	%rsp, %rbp
	.cfi_def_cfa_register %rbp
	subq	$304, %rsp
Ltmp42:
	.loc	7 4 14 prologue_end
	leaq	-288(%rbp), %rdi
Ltmp43:
	callq	__ZN7autocfg3new17h27716e9c459c201aE
Ltmp44:
	jmp	LBB9_2
LBB9_1:
	.loc	7 3 1
	movq	-16(%rbp), %rdi
	callq	__Unwind_Resume
	ud2
LBB9_2:
Ltmp23:
	.loc	7 0 1 is_stmt 0
	leaq	-288(%rbp), %rdi
	movl	$1, %esi
	movl	$31, %edx
Ltmp45:
	.loc	7 7 8 is_stmt 1
	callq	__ZN7autocfg7AutoCfg19probe_rustc_version17he331dd36e07f7581E
Ltmp24:
	movb	%al, -297(%rbp)
	jmp	LBB9_3
LBB9_3:
	.loc	7 0 8 is_stmt 0
	movb	-297(%rbp), %al
	.loc	7 7 5
	testb	$1, %al
	jne	LBB9_6
	jmp	LBB9_5
Ltmp46:
LBB9_4:
	.loc	7 16 1 is_stmt 1
	leaq	-288(%rbp), %rdi
	callq	__ZN4core3ptr13drop_in_place17h0f004417ad3a5453E
	jmp	LBB9_1
LBB9_5:
Ltmp47:
	.loc	7 7 5
	jmp	LBB9_9
LBB9_6:
	.loc	7 8 18
	movq	l___unnamed_2(%rip), %rsi
	.loc	7 8 9 is_stmt 0
	movq	l___unnamed_3(%rip), %rcx
Ltmp25:
	xorl	%eax, %eax
	movl	%eax, %r8d
	leaq	-160(%rbp), %rdi
	movl	$1, %edx
	callq	__ZN4core3fmt9Arguments6new_v117h1e3d8d2f61046bb4E
Ltmp26:
	jmp	LBB9_7
LBB9_7:
Ltmp27:
	.loc	7 0 9
	leaq	-160(%rbp), %rdi
	.loc	7 8 9
	callq	__ZN3std2io5stdio6_print17h84d1497a7551d848E
Ltmp28:
	jmp	LBB9_8
LBB9_8:
	.loc	7 7 5 is_stmt 1
	jmp	LBB9_9
LBB9_9:
Ltmp29:
	.loc	7 0 5 is_stmt 0
	leaq	-288(%rbp), %rdi
	movl	$1, %esi
	movl	$36, %edx
	.loc	7 10 8 is_stmt 1
	callq	__ZN7autocfg7AutoCfg19probe_rustc_version17he331dd36e07f7581E
Ltmp30:
	movb	%al, -298(%rbp)
	jmp	LBB9_10
LBB9_10:
	.loc	7 0 8 is_stmt 0
	movb	-298(%rbp), %al
	.loc	7 10 5
	testb	$1, %al
	jne	LBB9_12
	jmp	LBB9_11
LBB9_11:
	jmp	LBB9_15
LBB9_12:
	.loc	7 11 18 is_stmt 1
	movq	l___unnamed_4(%rip), %rsi
	.loc	7 11 9 is_stmt 0
	movq	l___unnamed_3(%rip), %rcx
Ltmp31:
	xorl	%eax, %eax
	movl	%eax, %r8d
	leaq	-112(%rbp), %rdi
	movl	$1, %edx
	callq	__ZN4core3fmt9Arguments6new_v117h1e3d8d2f61046bb4E
Ltmp32:
	jmp	LBB9_13
LBB9_13:
Ltmp33:
	.loc	7 0 9
	leaq	-112(%rbp), %rdi
	.loc	7 11 9
	callq	__ZN3std2io5stdio6_print17h84d1497a7551d848E
Ltmp34:
	jmp	LBB9_14
LBB9_14:
	.loc	7 10 5 is_stmt 1
	jmp	LBB9_15
LBB9_15:
Ltmp35:
	.loc	7 0 5 is_stmt 0
	leaq	-288(%rbp), %rdi
	movl	$1, %esi
	movl	$40, %edx
	.loc	7 13 8 is_stmt 1
	callq	__ZN7autocfg7AutoCfg19probe_rustc_version17he331dd36e07f7581E
Ltmp36:
	movb	%al, -299(%rbp)
	jmp	LBB9_16
LBB9_16:
	.loc	7 0 8 is_stmt 0
	movb	-299(%rbp), %al
	.loc	7 13 5
	testb	$1, %al
	jne	LBB9_18
	jmp	LBB9_17
LBB9_17:
	jmp	LBB9_21
LBB9_18:
	.loc	7 14 18 is_stmt 1
	movq	l___unnamed_5(%rip), %rsi
	.loc	7 14 9 is_stmt 0
	movq	l___unnamed_3(%rip), %rcx
Ltmp37:
	xorl	%eax, %eax
	movl	%eax, %r8d
	leaq	-64(%rbp), %rdi
	movl	$1, %edx
	callq	__ZN4core3fmt9Arguments6new_v117h1e3d8d2f61046bb4E
Ltmp38:
	jmp	LBB9_19
LBB9_19:
Ltmp39:
	.loc	7 0 9
	leaq	-64(%rbp), %rdi
	.loc	7 14 9
	callq	__ZN3std2io5stdio6_print17h84d1497a7551d848E
Ltmp40:
	jmp	LBB9_20
LBB9_20:
	.loc	7 13 5 is_stmt 1
	jmp	LBB9_21
Ltmp48:
LBB9_21:
	.loc	7 16 1
	leaq	-288(%rbp), %rdi
	callq	__ZN4core3ptr13drop_in_place17h0f004417ad3a5453E
	.loc	7 16 2 is_stmt 0
	addq	$304, %rsp
	popq	%rbp
	retq
Ltmp49:
LBB9_23:
Ltmp41:
	.loc	7 0 2
	movq	%rax, -16(%rbp)
	movl	%edx, -8(%rbp)
	jmp	LBB9_4
Lfunc_end9:
	.cfi_endproc
	.section	__TEXT,__gcc_except_tab
	.p2align	2
GCC_except_table9:
Lexception1:
	.byte	255
	.byte	255
	.byte	1
	.uleb128 Lcst_end1-Lcst_begin1
Lcst_begin1:
	.uleb128 Lfunc_begin9-Lfunc_begin9
	.uleb128 Ltmp23-Lfunc_begin9
	.byte	0
	.byte	0
	.uleb128 Ltmp23-Lfunc_begin9
	.uleb128 Ltmp24-Ltmp23
	.uleb128 Ltmp41-Lfunc_begin9
	.byte	0
	.uleb128 Ltmp24-Lfunc_begin9
	.uleb128 Ltmp25-Ltmp24
	.byte	0
	.byte	0
	.uleb128 Ltmp25-Lfunc_begin9
	.uleb128 Ltmp40-Ltmp25
	.uleb128 Ltmp41-Lfunc_begin9
	.byte	0
	.uleb128 Ltmp40-Lfunc_begin9
	.uleb128 Lfunc_end9-Ltmp40
	.byte	0
	.byte	0
Lcst_end1:
	.p2align	2

	.section	__TEXT,__text,regular,pure_instructions
	.globl	_main
	.p2align	4, 0x90
_main:
Lfunc_begin10:
	.cfi_startproc
	pushq	%rbp
	.cfi_def_cfa_offset 16
	.cfi_offset %rbp, -16
	movq	%rsp, %rbp
	.cfi_def_cfa_register %rbp
	subq	$16, %rsp
	movslq	%edi, %rax
	leaq	__ZN18build_script_build4main17hec39924fb3ed6432E(%rip), %rdi
	movq	%rsi, -8(%rbp)
	movq	%rax, %rsi
	movq	-8(%rbp), %rdx
	callq	__ZN3std2rt10lang_start17h803ab3117b806369E
	addq	$16, %rsp
	popq	%rbp
	retq
Lfunc_end10:
	.cfi_endproc

	.section	__DATA,__const
	.p2align	3
l___unnamed_1:
	.quad	__ZN4core3ptr13drop_in_place17hc6abb8a4094b9d62E
	.quad	8
	.quad	8
	.quad	__ZN3std2rt10lang_start28_$u7b$$u7b$closure$u7d$$u7d$17h32c415649c00d954E
	.quad	__ZN3std2rt10lang_start28_$u7b$$u7b$closure$u7d$$u7d$17h32c415649c00d954E
	.quad	__ZN4core3ops8function6FnOnce40call_once$u7b$$u7b$vtable.shim$u7d$$u7d$17h584808e95f89d243E

	.section	__TEXT,__const
l___unnamed_6:
	.ascii	"cargo:rustc-cfg=allow_clippy\n"

	.section	__DATA,__const
	.p2align	3
l___unnamed_7:
	.quad	l___unnamed_6
	.asciz	"\035\000\000\000\000\000\000"

	.p2align	3
l___unnamed_2:
	.quad	l___unnamed_7

	.section	__TEXT,__const
	.p2align	3
l___unnamed_8:
	.byte	0

	.section	__DATA,__const
	.p2align	3
l___unnamed_3:
	.quad	l___unnamed_8

	.section	__TEXT,__const
l___unnamed_9:
	.ascii	"cargo:rustc-cfg=maybe_uninit\n"

	.section	__DATA,__const
	.p2align	3
l___unnamed_10:
	.quad	l___unnamed_9
	.asciz	"\035\000\000\000\000\000\000"

	.p2align	3
l___unnamed_4:
	.quad	l___unnamed_10

	.section	__TEXT,__const
l___unnamed_11:
	.ascii	"cargo:rustc-cfg=doctests\n"

	.section	__DATA,__const
	.p2align	3
l___unnamed_12:
	.quad	l___unnamed_11
	.asciz	"\031\000\000\000\000\000\000"

	.p2align	3
l___unnamed_5:
	.quad	l___unnamed_12

	.section	__DATA,__const
Lsec_end0:
	.section	__TEXT,__text,regular,pure_instructions
Lsec_end1: