	.section	__TEXT,__text,regular,pure_instructions
	.macosx_version_min 10, 7
	.p2align	4, 0x90
__ZN101_$LT$core..ops..range..RangeTo$LT$usize$GT$$u20$as$u20$core..slice..SliceIndex$LT$$u5b$T$u5d$$GT$$GT$9index_mut17h8db58186f5bb1cf9E:
Lfunc_begin0:
	.file	1 "/rustc/6c8927b0cf80ceee19386026cf9d7fd4fd9d486f/src/libcore/slice/mod.rs"
	.loc	1 3218 0
	.cfi_startproc
	pushq	%rbp
	.cfi_def_cfa_offset 16
	.cfi_offset %rbp, -16
	movq	%rsp, %rbp
	.cfi_def_cfa_register %rbp
	subq	$80, %rsp
	movq	%rdi, -24(%rbp)
	movq	%rsi, -16(%rbp)
	movq	%rdx, -8(%rbp)
Ltmp0:
	.loc	1 3219 9 prologue_end
	movq	$0, -40(%rbp)
	movq	%rdi, -32(%rbp)
	movq	-40(%rbp), %rdi
	movq	-32(%rbp), %rax
	movq	%rsi, -48(%rbp)
	movq	%rax, %rsi
	movq	-48(%rbp), %rax
	movq	%rdx, -56(%rbp)
	movq	%rax, %rdx
	movq	-56(%rbp), %r8
	movq	%rcx, -64(%rbp)
	movq	%r8, %rcx
	movq	-64(%rbp), %r8
	callq	__ZN99_$LT$core..ops..range..Range$LT$usize$GT$$u20$as$u20$core..slice..SliceIndex$LT$$u5b$T$u5d$$GT$$GT$9index_mut17hc817c8a7a5b73751E
	movq	%rax, -72(%rbp)
	movq	%rdx, -80(%rbp)
	.loc	1 0 9 is_stmt 0
	movq	-72(%rbp), %rax
	movq	-80(%rbp), %rdx
	.loc	1 3220 6 is_stmt 1
	addq	$80, %rsp
	popq	%rbp
	retq
Ltmp1:
Lfunc_end0:
	.cfi_endproc

	.p2align	4, 0x90
__ZN105_$LT$std..ffi..os_str..OsString$u20$as$u20$core..ops..index..Index$LT$core..ops..range..RangeFull$GT$$GT$5index17ha14c94543e156039E:
Lfunc_begin1:
	.file	2 "/rustc/6c8927b0cf80ceee19386026cf9d7fd4fd9d486f/src/libstd/ffi/os_str.rs"
	.loc	2 378 0
	.cfi_startproc
	pushq	%rbp
	.cfi_def_cfa_offset 16
	.cfi_offset %rbp, -16
	movq	%rsp, %rbp
	.cfi_def_cfa_register %rbp
	subq	$64, %rsp
	movq	%rdi, -16(%rbp)
	movq	%rsi, -24(%rbp)
Ltmp2:
	.loc	2 379 27 prologue_end
	callq	__ZN3std10sys_common12os_str_bytes3Buf8as_slice17h5b646407a40886eaE
	movq	%rax, -32(%rbp)
	movq	%rdx, -40(%rbp)
	.loc	2 0 27 is_stmt 0
	movq	-32(%rbp), %rdi
	movq	-40(%rbp), %rsi
	.loc	2 379 9
	callq	__ZN3std3ffi6os_str5OsStr10from_inner17h83bf966a69daa489E
	movq	%rax, -48(%rbp)
	movq	%rdx, -56(%rbp)
	.loc	2 0 9
	movq	-48(%rbp), %rax
	movq	-56(%rbp), %rdx
	.loc	2 380 6 is_stmt 1
	addq	$64, %rsp
	popq	%rbp
	retq
Ltmp3:
Lfunc_end1:
	.cfi_endproc

	.p2align	4, 0x90
__ZN112_$LT$alloc..collections..btree..map..IntoIter$LT$K$C$V$GT$$u20$as$u20$core..iter..traits..iterator..Iterator$GT$4next17h176bd0306e655612E:
Lfunc_begin2:
	.file	3 "/rustc/6c8927b0cf80ceee19386026cf9d7fd4fd9d486f/src/liballoc/collections/btree/map.rs"
	.loc	3 1486 0
	.cfi_startproc
	pushq	%rbp
	.cfi_def_cfa_offset 16
	.cfi_offset %rbp, -16
	movq	%rsp, %rbp
	.cfi_def_cfa_register %rbp
	subq	$96, %rsp
	movq	%rdi, %rax
	movq	%rsi, -8(%rbp)
Ltmp4:
	.loc	3 1487 12 prologue_end
	cmpq	$0, 64(%rsi)
	movq	%rsi, -64(%rbp)
	movq	%rdi, -72(%rbp)
	movq	%rax, -80(%rbp)
	.loc	3 1487 9 is_stmt 0
	je	LBB2_2
	.loc	3 0 9
	movq	-64(%rbp), %rax
	.loc	3 1490 13 is_stmt 1
	movq	64(%rax), %rcx
	subq	$1, %rcx
	movq	%rcx, 64(%rax)
	.loc	3 1491 27
	movq	%rax, %rdi
	callq	__ZN4core6option15Option$LT$T$GT$6as_mut17h19ab84dec1f1acb5E
	movq	%rax, -88(%rbp)
	jmp	LBB2_3
LBB2_2:
	.loc	3 0 27 is_stmt 0
	movq	-72(%rbp), %rax
	.loc	3 1488 13 is_stmt 1
	movq	$0, (%rax)
	.loc	3 1487 9
	jmp	LBB2_6
LBB2_3:
	.loc	3 0 9 is_stmt 0
	leaq	l___unnamed_2(%rip), %rax
	movq	-88(%rbp), %rdi
	.loc	3 1491 27 is_stmt 1
	movq	%rax, %rsi
	callq	__ZN4core6option15Option$LT$T$GT$6unwrap17h7b623753e579024eE
	movq	%rax, -96(%rbp)
	leaq	-56(%rbp), %rdi
	movq	-96(%rbp), %rsi
	callq	__ZN5alloc11collections5btree8navigate263_$LT$impl$u20$alloc..collections..btree..node..Handle$LT$alloc..collections..btree..node..NodeRef$LT$alloc..collections..btree..node..marker..Owned$C$K$C$V$C$alloc..collections..btree..node..marker..Leaf$GT$$C$alloc..collections..btree..node..marker..Edge$GT$$GT$14next_unchecked17hd50af09134254bbcE
	.loc	3 0 27 is_stmt 0
	movq	-72(%rbp), %rax
	.loc	3 1491 13
	leaq	-56(%rbp), %rcx
	movq	%rax, %rdi
	movq	%rcx, %rsi
	movl	$48, %edx
	callq	_memcpy
LBB2_6:
	.loc	3 0 13
	movq	-80(%rbp), %rax
	.loc	3 1493 6 is_stmt 1
	addq	$96, %rsp
	popq	%rbp
	retq
Ltmp5:
Lfunc_end2:
	.cfi_endproc

	.p2align	4, 0x90
__ZN115_$LT$alloc..collections..btree..map..BTreeMap$LT$K$C$V$GT$$u20$as$u20$core..iter..traits..collect..IntoIterator$GT$9into_iter17h61d0b014414d16b8E:
Lfunc_begin3:
	.loc	3 1430 0
	.cfi_startproc
	pushq	%rbp
	.cfi_def_cfa_offset 16
	.cfi_offset %rbp, -16
	movq	%rsp, %rbp
	.cfi_def_cfa_register %rbp
	subq	$496, %rsp
	movq	%rdi, %rax
Ltmp6:
	.loc	3 1431 40 prologue_end
	movq	(%rsi), %rcx
	movq	%rcx, -440(%rbp)
	movq	8(%rsi), %rcx
	movq	%rcx, -432(%rbp)
	movq	16(%rsi), %rcx
	movq	%rcx, -424(%rbp)
Ltmp7:
	.file	4 "/rustc/6c8927b0cf80ceee19386026cf9d7fd4fd9d486f/src/libcore/mem/manually_drop.rs"
	.loc	4 83 24
	movq	-440(%rbp), %rcx
	movq	%rcx, -40(%rbp)
	movq	-432(%rbp), %rcx
	movq	%rcx, -32(%rbp)
	movq	-424(%rbp), %rcx
	movq	%rcx, -24(%rbp)
	.loc	4 83 9 is_stmt 0
	movq	-40(%rbp), %rcx
	movq	%rcx, -464(%rbp)
	movq	-32(%rbp), %rcx
	movq	%rcx, -456(%rbp)
	movq	-24(%rbp), %rcx
	movq	%rcx, -448(%rbp)
	movq	%rdi, -472(%rbp)
	movq	%rax, -480(%rbp)
Ltmp8:
	.loc	4 0 9
	leaq	-464(%rbp), %rax
	movq	%rax, -8(%rbp)
	movq	%rax, -488(%rbp)
Ltmp9:
	movq	-488(%rbp), %rdi
Ltmp10:
	.loc	3 1432 29 is_stmt 1
	callq	__ZN4core6option15Option$LT$T$GT$4take17h7982677a1e6fa421E
Ltmp11:
	movq	%rdx, -408(%rbp)
	movq	%rax, -416(%rbp)
	.loc	3 0 29 is_stmt 0
	xorl	%eax, %eax
	movl	%eax, %ecx
	.loc	3 1432 16
	cmpq	$0, -416(%rbp)
	movl	$1, %edx
	cmovbeq	%rcx, %rdx
	cmpq	$1, %rdx
	je	LBB3_5
	.loc	3 1437 31 is_stmt 1
	movq	$0, -112(%rbp)
	.loc	3 1437 43 is_stmt 0
	movq	$0, -80(%rbp)
	.loc	3 1437 13
	movq	-120(%rbp), %rax
	movq	-472(%rbp), %rcx
	movq	%rax, (%rcx)
	movq	-112(%rbp), %rax
	movq	%rax, 8(%rcx)
	movq	-104(%rbp), %rax
	movq	%rax, 16(%rcx)
	movq	-96(%rbp), %rax
	movq	%rax, 24(%rcx)
	movq	-88(%rbp), %rax
	movq	%rax, 32(%rcx)
	movq	-80(%rbp), %rax
	movq	%rax, 40(%rcx)
	movq	-72(%rbp), %rax
	movq	%rax, 48(%rcx)
	movq	-64(%rbp), %rax
	movq	%rax, 56(%rcx)
	movq	$0, 64(%rcx)
	.loc	3 1432 9 is_stmt 1
	jmp	LBB3_9
LBB3_5:
	.loc	3 1432 21 is_stmt 0
	movq	-416(%rbp), %rax
	movq	-408(%rbp), %rcx
	movq	%rax, -56(%rbp)
	movq	%rcx, -48(%rbp)
Ltmp12:
	.loc	3 1433 44 is_stmt 1
	leaq	-272(%rbp), %rdi
	movq	%rax, %rsi
	movq	%rcx, %rdx
	callq	__ZN5alloc11collections5btree4node17Root$LT$K$C$V$GT$8into_ref17h75965c3203d89bb5E
	.loc	3 1433 26 is_stmt 0
	leaq	-336(%rbp), %rdi
	leaq	-272(%rbp), %rsi
	callq	__ZN5alloc11collections5btree3map17full_range_search17h41d8d339cbaadde5E
	.loc	3 1433 18
	movq	-336(%rbp), %rax
	movq	%rax, -400(%rbp)
	movq	-328(%rbp), %rax
	movq	%rax, -392(%rbp)
	movq	-320(%rbp), %rax
	movq	%rax, -384(%rbp)
	movq	-312(%rbp), %rax
	movq	%rax, -376(%rbp)
	.loc	3 1433 21
	movq	-304(%rbp), %rax
	movq	%rax, -368(%rbp)
	movq	-296(%rbp), %rax
	movq	%rax, -360(%rbp)
	movq	-288(%rbp), %rax
	movq	%rax, -352(%rbp)
	movq	-280(%rbp), %rax
	movq	%rax, -344(%rbp)
Ltmp13:
	.loc	3 1435 36 is_stmt 1
	movq	-400(%rbp), %rax
	movq	%rax, -216(%rbp)
	movq	-392(%rbp), %rax
	movq	%rax, -208(%rbp)
	movq	-384(%rbp), %rax
	movq	%rax, -200(%rbp)
	movq	-376(%rbp), %rax
	movq	%rax, -192(%rbp)
	.loc	3 1435 31 is_stmt 0
	movq	-216(%rbp), %rax
	movq	%rax, -248(%rbp)
	movq	-208(%rbp), %rax
	movq	%rax, -240(%rbp)
	movq	-200(%rbp), %rax
	movq	%rax, -232(%rbp)
	movq	-192(%rbp), %rax
	movq	%rax, -224(%rbp)
	.loc	3 1435 51
	movq	-368(%rbp), %rax
	movq	%rax, -152(%rbp)
	movq	-360(%rbp), %rax
	movq	%rax, -144(%rbp)
	movq	-352(%rbp), %rax
	movq	%rax, -136(%rbp)
	movq	-344(%rbp), %rax
	movq	%rax, -128(%rbp)
	.loc	3 1435 46
	movq	-152(%rbp), %rax
	movq	%rax, -184(%rbp)
	movq	-144(%rbp), %rax
	movq	%rax, -176(%rbp)
	movq	-136(%rbp), %rax
	movq	%rax, -168(%rbp)
	movq	-128(%rbp), %rax
	movq	%rax, -160(%rbp)
	leaq	-464(%rbp), %rax
	movq	%rax, -16(%rbp)
	movq	%rax, -496(%rbp)
	.loc	3 0 46
	movq	-496(%rbp), %rax
	.loc	3 1435 63
	movq	16(%rax), %rcx
	.loc	3 1435 13
	movq	-248(%rbp), %rdx
	movq	-472(%rbp), %rsi
	movq	%rdx, (%rsi)
	movq	-240(%rbp), %rdx
	movq	%rdx, 8(%rsi)
	movq	-232(%rbp), %rdx
	movq	%rdx, 16(%rsi)
	movq	-224(%rbp), %rdx
	movq	%rdx, 24(%rsi)
	movq	-184(%rbp), %rdx
	movq	%rdx, 32(%rsi)
	movq	-176(%rbp), %rdx
	movq	%rdx, 40(%rsi)
	movq	-168(%rbp), %rdx
	movq	%rdx, 48(%rsi)
	movq	-160(%rbp), %rdx
	movq	%rdx, 56(%rsi)
	movq	%rcx, 64(%rsi)
Ltmp14:
LBB3_9:
	.loc	3 0 13
	movq	-480(%rbp), %rax
	.loc	3 1439 6 is_stmt 1
	addq	$496, %rsp
	popq	%rbp
	retq
Ltmp15:
Lfunc_end3:
	.cfi_endproc

	.p2align	4, 0x90
__ZN119_$LT$core..ptr..non_null..NonNull$LT$T$GT$$u20$as$u20$core..convert..From$LT$core..ptr..unique..Unique$LT$T$GT$$GT$$GT$4from17h190a2598db684770E:
Lfunc_begin4:
	.file	5 "/rustc/6c8927b0cf80ceee19386026cf9d7fd4fd9d486f/src/libcore/ptr/non_null.rs"
	.loc	5 329 0
	.cfi_startproc
	pushq	%rbp
	.cfi_def_cfa_offset 16
	.cfi_offset %rbp, -16
	movq	%rsp, %rbp
	.cfi_def_cfa_register %rbp
	subq	$32, %rsp
	movq	%rdi, -8(%rbp)
Ltmp16:
	.loc	5 332 41 prologue_end
	callq	__ZN4core3ptr6unique15Unique$LT$T$GT$6as_ptr17h7c82be61e2a76526E
	movq	%rax, -16(%rbp)
	.loc	5 0 41 is_stmt 0
	movq	-16(%rbp), %rdi
	.loc	5 332 18
	callq	__ZN4core3ptr8non_null16NonNull$LT$T$GT$13new_unchecked17hee784606c7090980E
	movq	%rax, -24(%rbp)
	.loc	5 0 18
	movq	-24(%rbp), %rax
	.loc	5 333 6 is_stmt 1
	addq	$32, %rsp
	popq	%rbp
	retq
Ltmp17:
Lfunc_end4:
	.cfi_endproc

	.p2align	4, 0x90
__ZN119_$LT$core..ptr..non_null..NonNull$LT$T$GT$$u20$as$u20$core..convert..From$LT$core..ptr..unique..Unique$LT$T$GT$$GT$$GT$4from17h321385d1b3a9e679E:
Lfunc_begin5:
	.loc	5 329 0
	.cfi_startproc
	pushq	%rbp
	.cfi_def_cfa_offset 16
	.cfi_offset %rbp, -16
	movq	%rsp, %rbp
	.cfi_def_cfa_register %rbp
	subq	$32, %rsp
	movq	%rdi, -8(%rbp)
Ltmp18:
	.loc	5 332 41 prologue_end
	callq	__ZN4core3ptr6unique15Unique$LT$T$GT$6as_ptr17h78061224a81d39bcE
	movq	%rax, -16(%rbp)
	.loc	5 0 41 is_stmt 0
	movq	-16(%rbp), %rdi
	.loc	5 332 18
	callq	__ZN4core3ptr8non_null16NonNull$LT$T$GT$13new_unchecked17h5d21770454e7a6a6E
	movq	%rax, -24(%rbp)
	.loc	5 0 18
	movq	-24(%rbp), %rax
	.loc	5 333 6 is_stmt 1
	addq	$32, %rsp
	popq	%rbp
	retq
Ltmp19:
Lfunc_end5:
	.cfi_endproc

	.p2align	4, 0x90
__ZN166_$LT$$LT$alloc..collections..btree..map..IntoIter$LT$K$C$V$GT$$u20$as$u20$core..ops..drop..Drop$GT$..drop..DropGuard$LT$K$C$V$GT$$u20$as$u20$core..ops..drop..Drop$GT$4drop17h4d8ffc01f9ab5f66E:
Lfunc_begin6:
	.loc	3 1448 0
	.cfi_startproc
	pushq	%rbp
	.cfi_def_cfa_offset 16
	.cfi_offset %rbp, -16
	movq	%rsp, %rbp
	.cfi_def_cfa_register %rbp
	subq	$384, %rsp
	movq	%rdi, -40(%rbp)
	movq	%rdi, -376(%rbp)
LBB6_1:
	movq	-376(%rbp), %rax
Ltmp20:
	.loc	3 1451 37 prologue_end
	movq	(%rax), %rsi
	leaq	-368(%rbp), %rdi
	callq	__ZN112_$LT$alloc..collections..btree..map..IntoIter$LT$K$C$V$GT$$u20$as$u20$core..iter..traits..iterator..Iterator$GT$4next17h176bd0306e655612E
	.loc	3 0 37 is_stmt 0
	xorl	%eax, %eax
	movl	%eax, %ecx
	.loc	3 1451 27
	cmpq	$0, -368(%rbp)
	movl	$1, %edx
	cmovbeq	%rcx, %rdx
	cmpq	$1, %rdx
	je	LBB6_4
	.loc	3 1451 52
	leaq	-368(%rbp), %rdi
	callq	__ZN4core3ptr13drop_in_place17h85bdae504decbc4cE
	jmp	LBB6_5
LBB6_4:
	leaq	-368(%rbp), %rdi
	callq	__ZN4core3ptr13drop_in_place17h85bdae504decbc4cE
	jmp	LBB6_6
LBB6_5:
	.loc	3 0 52
	movq	-376(%rbp), %rax
	.loc	3 1455 52 is_stmt 1
	movq	(%rax), %rcx
	.loc	3 1455 42 is_stmt 0
	leaq	-240(%rbp), %rdi
	movq	%rcx, %rsi
	callq	__ZN4core3ptr4read17h1d28a3aae1c906a4E
	jmp	LBB6_7
LBB6_6:
	.loc	3 1451 17 is_stmt 1
	jmp	LBB6_1
LBB6_7:
Ltmp21:
	.file	6 "/rustc/6c8927b0cf80ceee19386026cf9d7fd4fd9d486f/src/liballoc/collections/btree/mod.rs"
	.loc	6 18 5
	movq	-240(%rbp), %rax
	movq	%rax, -32(%rbp)
	movq	-232(%rbp), %rax
	movq	%rax, -24(%rbp)
	movq	-224(%rbp), %rax
	movq	%rax, -16(%rbp)
	movq	-216(%rbp), %rax
	movq	%rax, -8(%rbp)
	leaq	-272(%rbp), %rdi
	leaq	-32(%rbp), %rsi
	callq	__ZN4core6option15Option$LT$T$GT$14unwrap_or_else17h4592d3b0db396e89E
Ltmp22:
	.loc	3 1455 25
	leaq	-296(%rbp), %rdi
	leaq	-272(%rbp), %rsi
	callq	__ZN5alloc11collections5btree4node25Handle$LT$Node$C$Type$GT$9into_node17h7219aceb12892d72E
	leaq	-320(%rbp), %rdi
	leaq	-296(%rbp), %rsi
	callq	__ZN5alloc11collections5btree4node40NodeRef$LT$BorrowType$C$K$C$V$C$Type$GT$11forget_type17h5af6ba2783dde880E
Ltmp23:
	.loc	3 1456 21
	jmp	LBB6_11
LBB6_11:
	.loc	3 1456 46 is_stmt 0
	movq	-320(%rbp), %rax
	movq	%rax, -176(%rbp)
	movq	-312(%rbp), %rax
	movq	%rax, -168(%rbp)
	movq	-304(%rbp), %rax
	movq	%rax, -160(%rbp)
	leaq	-208(%rbp), %rdi
	leaq	-176(%rbp), %rsi
	callq	__ZN5alloc11collections5btree4node127NodeRef$LT$alloc..collections..btree..node..marker..Owned$C$K$C$V$C$alloc..collections..btree..node..marker..LeafOrInternal$GT$21deallocate_and_ascend17hdb9d8bc63dfc8b41E
	.loc	3 0 46
	xorl	%eax, %eax
	movl	%eax, %ecx
	.loc	3 1456 31
	cmpq	$0, -200(%rbp)
	movl	$1, %edx
	cmovbeq	%rcx, %rdx
	cmpq	$1, %rdx
	je	LBB6_14
Ltmp24:
	.loc	3 1460 14 is_stmt 1
	addq	$384, %rsp
	popq	%rbp
	retq
LBB6_14:
Ltmp25:
	.loc	3 1456 36
	movq	-208(%rbp), %rax
	movq	%rax, -152(%rbp)
	movq	-200(%rbp), %rax
	movq	%rax, -144(%rbp)
	movq	-192(%rbp), %rax
	movq	%rax, -136(%rbp)
	movq	-184(%rbp), %rax
	movq	%rax, -128(%rbp)
Ltmp26:
	.loc	3 1457 32
	movq	-152(%rbp), %rax
	movq	%rax, -72(%rbp)
	movq	-144(%rbp), %rax
	movq	%rax, -64(%rbp)
	movq	-136(%rbp), %rax
	movq	%rax, -56(%rbp)
	movq	-128(%rbp), %rax
	movq	%rax, -48(%rbp)
	leaq	-96(%rbp), %rdi
	leaq	-72(%rbp), %rsi
	callq	__ZN5alloc11collections5btree4node25Handle$LT$Node$C$Type$GT$9into_node17h57c0ad0f36269067E
	leaq	-120(%rbp), %rdi
	leaq	-96(%rbp), %rsi
	callq	__ZN5alloc11collections5btree4node40NodeRef$LT$BorrowType$C$K$C$V$C$Type$GT$11forget_type17hc2575a9df03a0eb2E
	.loc	3 1457 25 is_stmt 0
	movq	-120(%rbp), %rax
	movq	%rax, -320(%rbp)
	movq	-112(%rbp), %rax
	movq	%rax, -312(%rbp)
	movq	-104(%rbp), %rax
	movq	%rax, -304(%rbp)
Ltmp27:
	.loc	3 1456 21 is_stmt 1
	jmp	LBB6_11
Ltmp28:
Lfunc_end6:
	.cfi_endproc

	.p2align	4, 0x90
__ZN3std10sys_common12os_str_bytes3Buf8as_slice17h5b646407a40886eaE:
Lfunc_begin7:
	.file	7 "/rustc/6c8927b0cf80ceee19386026cf9d7fd4fd9d486f/src/libstd/sys_common/os_str_bytes.rs"
	.loc	7 108 0
	.cfi_startproc
	pushq	%rbp
	.cfi_def_cfa_offset 16
	.cfi_offset %rbp, -16
	movq	%rsp, %rbp
	.cfi_def_cfa_register %rbp
	subq	$64, %rsp
	movq	%rdi, -24(%rbp)
Ltmp29:
	.loc	7 112 34 prologue_end
	callq	__ZN68_$LT$alloc..vec..Vec$LT$T$GT$$u20$as$u20$core..ops..deref..Deref$GT$5deref17h91a396207090c2b0E
	movq	%rax, -32(%rbp)
	movq	%rdx, -40(%rbp)
	.loc	7 0 34 is_stmt 0
	movq	-32(%rbp), %rax
	.loc	7 112 18
	movq	%rax, -16(%rbp)
	movq	-40(%rbp), %rcx
	movq	%rcx, -8(%rbp)
	movq	-16(%rbp), %rax
	movq	-8(%rbp), %rdx
	movq	%rax, -48(%rbp)
	movq	%rdx, -56(%rbp)
	.loc	7 0 18
	movq	-48(%rbp), %rax
	movq	-56(%rbp), %rdx
	.loc	7 113 6 is_stmt 1
	addq	$64, %rsp
	popq	%rbp
	retq
Ltmp30:
Lfunc_end7:
	.cfi_endproc

	.p2align	4, 0x90
__ZN3std10sys_common12os_str_bytes5Slice13from_u8_slice17h8f292390a8cb2e06E:
Lfunc_begin8:
	.loc	7 155 0
	.cfi_startproc
	pushq	%rbp
	.cfi_def_cfa_offset 16
	.cfi_offset %rbp, -16
	movq	%rsp, %rbp
	.cfi_def_cfa_register %rbp
	subq	$48, %rsp
	movq	%rdi, -32(%rbp)
	movq	%rsi, -24(%rbp)
Ltmp31:
	.loc	7 156 18 prologue_end
	movq	%rdi, -16(%rbp)
	movq	%rsi, -8(%rbp)
	movq	-16(%rbp), %rax
	movq	-8(%rbp), %rdx
	movq	%rax, -40(%rbp)
	movq	%rdx, -48(%rbp)
	.loc	7 0 18 is_stmt 0
	movq	-40(%rbp), %rax
	movq	-48(%rbp), %rdx
	.loc	7 157 6 is_stmt 1
	addq	$48, %rsp
	popq	%rbp
	retq
Ltmp32:
Lfunc_end8:
	.cfi_endproc

	.p2align	4, 0x90
__ZN3std10sys_common12os_str_bytes5Slice8from_str17ha677ff973407fb8fE:
Lfunc_begin9:
	.loc	7 160 0
	.cfi_startproc
	pushq	%rbp
	.cfi_def_cfa_offset 16
	.cfi_offset %rbp, -16
	movq	%rsp, %rbp
	.cfi_def_cfa_register %rbp
	subq	$80, %rsp
	movq	%rdi, -48(%rbp)
	movq	%rsi, -40(%rbp)
	movq	%rdi, -16(%rbp)
	movq	%rsi, -8(%rbp)
Ltmp33:
	.file	8 "/rustc/6c8927b0cf80ceee19386026cf9d7fd4fd9d486f/src/libcore/str/mod.rs"
	.loc	8 2359 18 prologue_end
	movq	%rdi, -32(%rbp)
	movq	%rsi, -24(%rbp)
	movq	-32(%rbp), %rdi
	movq	-24(%rbp), %rsi
	movq	%rdi, -56(%rbp)
	movq	%rsi, -64(%rbp)
Ltmp34:
	.loc	8 0 18 is_stmt 0
	movq	-56(%rbp), %rdi
	movq	-64(%rbp), %rsi
	.loc	7 161 9 is_stmt 1
	callq	__ZN3std10sys_common12os_str_bytes5Slice13from_u8_slice17h8f292390a8cb2e06E
	movq	%rax, -72(%rbp)
	movq	%rdx, -80(%rbp)
	.loc	7 0 9 is_stmt 0
	movq	-72(%rbp), %rax
	movq	-80(%rbp), %rdx
	.loc	7 162 6 is_stmt 1
	addq	$80, %rsp
	popq	%rbp
	retq
Ltmp35:
Lfunc_end9:
	.cfi_endproc

	.private_extern	__ZN3std2rt10lang_start17hc5e1c01cabd040d1E
	.globl	__ZN3std2rt10lang_start17hc5e1c01cabd040d1E
	.p2align	4, 0x90
__ZN3std2rt10lang_start17hc5e1c01cabd040d1E:
Lfunc_begin10:
	.file	9 "/rustc/6c8927b0cf80ceee19386026cf9d7fd4fd9d486f/src/libstd/rt.rs"
	.loc	9 62 0
	.cfi_startproc
	pushq	%rbp
	.cfi_def_cfa_offset 16
	.cfi_offset %rbp, -16
	movq	%rsp, %rbp
	.cfi_def_cfa_register %rbp
	subq	$64, %rsp
	leaq	l___unnamed_1(%rip), %rax
	movq	%rdi, -24(%rbp)
	movq	%rsi, -16(%rbp)
	movq	%rdx, -8(%rbp)
Ltmp36:
	.loc	9 67 26 prologue_end
	movq	%rdi, -32(%rbp)
	.loc	9 67 25 is_stmt 0
	leaq	-32(%rbp), %rcx
	.loc	9 67 5
	movq	%rcx, %rdi
	movq	%rsi, -40(%rbp)
	movq	%rax, %rsi
	movq	-40(%rbp), %rax
	movq	%rdx, -48(%rbp)
	movq	%rax, %rdx
	movq	-48(%rbp), %rcx
	callq	__ZN3std2rt19lang_start_internal17hbbd10965adc92ae7E
	movq	%rax, -56(%rbp)
	.loc	9 0 5
	movq	-56(%rbp), %rax
	.loc	9 68 2 is_stmt 1
	addq	$64, %rsp
	popq	%rbp
	retq
Ltmp37:
Lfunc_end10:
	.cfi_endproc

	.p2align	4, 0x90
__ZN3std2rt10lang_start28_$u7b$$u7b$closure$u7d$$u7d$17h93482436f3d2ff0fE:
Lfunc_begin11:
	.loc	9 67 0
	.cfi_startproc
	pushq	%rbp
	.cfi_def_cfa_offset 16
	.cfi_offset %rbp, -16
	movq	%rsp, %rbp
	.cfi_def_cfa_register %rbp
	subq	$16, %rsp
	movq	%rdi, -8(%rbp)
Ltmp38:
	.loc	9 67 34 prologue_end
	callq	*(%rdi)
	callq	__ZN54_$LT$$LP$$RP$$u20$as$u20$std..process..Termination$GT$6report17h22d8a59ae4568724E
	movl	%eax, -12(%rbp)
	.loc	9 0 34 is_stmt 0
	movl	-12(%rbp), %eax
	.loc	9 67 49
	addq	$16, %rsp
	popq	%rbp
	retq
Ltmp39:
Lfunc_end11:
	.cfi_endproc

	.p2align	4, 0x90
__ZN3std3env6var_os17hcecab7e193f57039E:
Lfunc_begin12:
	.file	10 "/rustc/6c8927b0cf80ceee19386026cf9d7fd4fd9d486f/src/libstd/env.rs"
	.loc	10 245 0 is_stmt 1
	.cfi_startproc
	.cfi_personality 155, _rust_eh_personality
	.cfi_lsda 16, Lexception0
	pushq	%rbp
	.cfi_def_cfa_offset 16
	.cfi_offset %rbp, -16
	movq	%rsp, %rbp
	.cfi_def_cfa_register %rbp
	subq	$64, %rsp
	movq	%rdi, %rax
	movq	%rsi, -32(%rbp)
	movq	%rdx, -24(%rbp)
Ltmp40:
	leaq	-32(%rbp), %rcx
	movq	%rdi, -40(%rbp)
Ltmp45:
	.loc	10 246 13 prologue_end
	movq	%rcx, %rdi
	movq	%rax, -48(%rbp)
	callq	__ZN55_$LT$$RF$T$u20$as$u20$core..convert..AsRef$LT$U$GT$$GT$6as_ref17h93c879749d269c46E
Ltmp41:
	movq	%rdx, -56(%rbp)
	movq	%rax, -64(%rbp)
	jmp	LBB12_2
LBB12_1:
	.loc	10 245 1
	movq	-16(%rbp), %rdi
	callq	__Unwind_Resume
	ud2
LBB12_2:
Ltmp42:
	.loc	10 0 1 is_stmt 0
	movq	-40(%rbp), %rdi
	movq	-64(%rbp), %rsi
	movq	-56(%rbp), %rdx
	.loc	10 246 5 is_stmt 1
	callq	__ZN3std3env7_var_os17hc628b18a701aa4a3E
Ltmp43:
	jmp	LBB12_4
LBB12_3:
	.loc	10 247 1
	jmp	LBB12_1
LBB12_4:
	jmp	LBB12_5
LBB12_5:
	.loc	10 0 1 is_stmt 0
	movq	-48(%rbp), %rax
	.loc	10 247 2
	addq	$64, %rsp
	popq	%rbp
	retq
Ltmp46:
LBB12_6:
Ltmp44:
	.loc	10 0 2
	movq	%rax, -16(%rbp)
	movl	%edx, -8(%rbp)
	jmp	LBB12_3
Lfunc_end12:
	.cfi_endproc
	.section	__TEXT,__gcc_except_tab
	.p2align	2
GCC_except_table12:
Lexception0:
	.byte	255
	.byte	255
	.byte	1
	.uleb128 Lcst_end0-Lcst_begin0
Lcst_begin0:
	.uleb128 Ltmp40-Lfunc_begin12
	.uleb128 Ltmp41-Ltmp40
	.uleb128 Ltmp44-Lfunc_begin12
	.byte	0
	.uleb128 Ltmp41-Lfunc_begin12
	.uleb128 Ltmp42-Ltmp41
	.byte	0
	.byte	0
	.uleb128 Ltmp42-Lfunc_begin12
	.uleb128 Ltmp43-Ltmp42
	.uleb128 Ltmp44-Lfunc_begin12
	.byte	0
Lcst_end0:
	.p2align	2

	.section	__TEXT,__text,regular,pure_instructions
	.p2align	4, 0x90
__ZN3std3ffi6os_str5OsStr10from_inner17h83bf966a69daa489E:
Lfunc_begin13:
	.loc	2 528 0 is_stmt 1
	.cfi_startproc
	pushq	%rbp
	.cfi_def_cfa_offset 16
	.cfi_offset %rbp, -16
	movq	%rsp, %rbp
	.cfi_def_cfa_register %rbp
	subq	$16, %rsp
	movq	%rdi, -16(%rbp)
	movq	%rsi, -8(%rbp)
Ltmp47:
	.loc	2 532 6 prologue_end
	movq	%rdi, %rax
	movq	%rsi, %rdx
	addq	$16, %rsp
	popq	%rbp
	retq
Ltmp48:
Lfunc_end13:
	.cfi_endproc

	.p2align	4, 0x90
__ZN3std3ffi6os_str85_$LT$impl$u20$core..convert..AsRef$LT$std..ffi..os_str..OsStr$GT$$u20$for$u20$str$GT$6as_ref17hc01ae73e5e5eadb6E:
Lfunc_begin14:
	.loc	2 1157 0
	.cfi_startproc
	pushq	%rbp
	.cfi_def_cfa_offset 16
	.cfi_offset %rbp, -16
	movq	%rsp, %rbp
	.cfi_def_cfa_register %rbp
	subq	$48, %rsp
	movq	%rdi, -16(%rbp)
	movq	%rsi, -8(%rbp)
Ltmp49:
	.loc	2 1158 27 prologue_end
	callq	__ZN3std10sys_common12os_str_bytes5Slice8from_str17ha677ff973407fb8fE
	movq	%rax, -24(%rbp)
	movq	%rdx, -32(%rbp)
	.loc	2 0 27 is_stmt 0
	movq	-24(%rbp), %rdi
	movq	-32(%rbp), %rsi
	.loc	2 1158 9
	callq	__ZN3std3ffi6os_str5OsStr10from_inner17h83bf966a69daa489E
	movq	%rax, -40(%rbp)
	movq	%rdx, -48(%rbp)
	.loc	2 0 9
	movq	-40(%rbp), %rax
	movq	-48(%rbp), %rdx
	.loc	2 1159 6 is_stmt 1
	addq	$48, %rsp
	popq	%rbp
	retq
Ltmp50:
Lfunc_end14:
	.cfi_endproc

	.p2align	4, 0x90
__ZN3std3sys4unix7process14process_common8ExitCode6as_i3217h7ef2a9cd7c90f077E:
Lfunc_begin15:
	.file	11 "/rustc/6c8927b0cf80ceee19386026cf9d7fd4fd9d486f/src/libstd/sys/unix/process/process_common.rs"
	.loc	11 398 0
	.cfi_startproc
	pushq	%rbp
	.cfi_def_cfa_offset 16
	.cfi_offset %rbp, -16
	movq	%rsp, %rbp
	.cfi_def_cfa_register %rbp
	pushq	%rax
	movq	%rdi, -8(%rbp)
Ltmp51:
	.loc	11 399 9 prologue_end
	movzbl	(%rdi), %eax
	.loc	11 400 6
	addq	$8, %rsp
	popq	%rbp
	retq
Ltmp52:
Lfunc_end15:
	.cfi_endproc

	.p2align	4, 0x90
__ZN3std7process7Command3arg17hcb2163cd009e923eE:
Lfunc_begin16:
	.file	12 "/rustc/6c8927b0cf80ceee19386026cf9d7fd4fd9d486f/src/libstd/process.rs"
	.loc	12 541 0
	.cfi_startproc
	.cfi_personality 155, _rust_eh_personality
	.cfi_lsda 16, Lexception1
	pushq	%rbp
	.cfi_def_cfa_offset 16
	.cfi_offset %rbp, -16
	movq	%rsp, %rbp
	.cfi_def_cfa_register %rbp
	subq	$80, %rsp
	movq	%rsi, -40(%rbp)
	movq	%rdx, -32(%rbp)
	movq	%rdi, -24(%rbp)
Ltmp58:
	.loc	12 542 9 prologue_end
	movq	%rdi, %rax
Ltmp53:
	leaq	-40(%rbp), %rcx
	movq	%rdi, -48(%rbp)
	.loc	12 542 24 is_stmt 0
	movq	%rcx, %rdi
	movq	%rax, -56(%rbp)
	callq	__ZN55_$LT$$RF$T$u20$as$u20$core..convert..AsRef$LT$U$GT$$GT$6as_ref17h93c879749d269c46E
Ltmp54:
	movq	%rdx, -64(%rbp)
	movq	%rax, -72(%rbp)
	jmp	LBB16_2
LBB16_1:
	.loc	12 541 5 is_stmt 1
	movq	-16(%rbp), %rdi
	callq	__Unwind_Resume
	ud2
LBB16_2:
Ltmp55:
	.loc	12 0 5 is_stmt 0
	movq	-56(%rbp), %rdi
	movq	-72(%rbp), %rsi
	movq	-64(%rbp), %rdx
	.loc	12 542 9 is_stmt 1
	callq	__ZN3std3sys4unix7process14process_common7Command3arg17he3b985033bebdb87E
Ltmp56:
	jmp	LBB16_4
LBB16_3:
	.loc	12 544 5
	jmp	LBB16_1
LBB16_4:
	jmp	LBB16_5
LBB16_5:
	.loc	12 0 5 is_stmt 0
	movq	-48(%rbp), %rax
	.loc	12 544 6
	addq	$80, %rsp
	popq	%rbp
	retq
Ltmp59:
LBB16_6:
Ltmp57:
	.loc	12 0 6
	movq	%rax, -16(%rbp)
	movl	%edx, -8(%rbp)
	jmp	LBB16_3
Lfunc_end16:
	.cfi_endproc
	.section	__TEXT,__gcc_except_tab
	.p2align	2
GCC_except_table16:
Lexception1:
	.byte	255
	.byte	255
	.byte	1
	.uleb128 Lcst_end1-Lcst_begin1
Lcst_begin1:
	.uleb128 Ltmp53-Lfunc_begin16
	.uleb128 Ltmp54-Ltmp53
	.uleb128 Ltmp57-Lfunc_begin16
	.byte	0
	.uleb128 Ltmp54-Lfunc_begin16
	.uleb128 Ltmp55-Ltmp54
	.byte	0
	.byte	0
	.uleb128 Ltmp55-Lfunc_begin16
	.uleb128 Ltmp56-Ltmp55
	.uleb128 Ltmp57-Lfunc_begin16
	.byte	0
Lcst_end1:
	.p2align	2

	.section	__TEXT,__text,regular,pure_instructions
	.p2align	4, 0x90
__ZN3std7process7Command3new17hfde4330017009f48E:
Lfunc_begin17:
	.loc	12 500 0 is_stmt 1
	.cfi_startproc
	.cfi_personality 155, _rust_eh_personality
	.cfi_lsda 16, Lexception2
	pushq	%rbp
	.cfi_def_cfa_offset 16
	.cfi_offset %rbp, -16
	movq	%rsp, %rbp
	.cfi_def_cfa_register %rbp
	subq	$240, %rsp
	movq	%rdi, %rax
Ltmp60:
	movq	%rdi, -208(%rbp)
Ltmp65:
	.loc	12 501 44 prologue_end
	movq	%rsi, %rdi
	movq	%rsi, -216(%rbp)
Ltmp66:
	.loc	12 0 44 is_stmt 0
	movq	%rax, -224(%rbp)
	.loc	12 501 44
	callq	__ZN98_$LT$std..ffi..os_str..OsString$u20$as$u20$core..convert..AsRef$LT$std..ffi..os_str..OsStr$GT$$GT$6as_ref17he86ba095e0338e79E
Ltmp61:
	movq	%rdx, -232(%rbp)
	movq	%rax, -240(%rbp)
	jmp	LBB17_2
Ltmp67:
LBB17_1:
	.loc	12 500 5 is_stmt 1
	movq	-16(%rbp), %rdi
	callq	__Unwind_Resume
	ud2
Ltmp68:
LBB17_2:
Ltmp62:
	.loc	12 0 5 is_stmt 0
	leaq	-200(%rbp), %rdi
	movq	-240(%rbp), %rsi
	movq	-232(%rbp), %rdx
	.loc	12 501 26 is_stmt 1
	callq	__ZN3std3sys4unix7process14process_common7Command3new17h6b51c4bb5fada643E
Ltmp63:
	jmp	LBB17_4
Ltmp69:
LBB17_3:
	.loc	12 0 26 is_stmt 0
	movq	-216(%rbp), %rdi
	.loc	12 502 5 is_stmt 1
	callq	__ZN4core3ptr13drop_in_place17h93f304b0d24efec0E
	jmp	LBB17_1
Ltmp70:
LBB17_4:
	.loc	12 0 5 is_stmt 0
	movq	-208(%rbp), %rax
	.loc	12 501 9 is_stmt 1
	leaq	-200(%rbp), %rcx
	movq	%rax, %rdi
	movq	%rcx, %rsi
	movl	$184, %edx
	callq	_memcpy
	movq	-216(%rbp), %rdi
	.loc	12 502 5
	callq	__ZN4core3ptr13drop_in_place17h93f304b0d24efec0E
Ltmp71:
	.loc	12 0 5 is_stmt 0
	movq	-224(%rbp), %rax
	.loc	12 502 6
	addq	$240, %rsp
	popq	%rbp
	retq
Ltmp72:
LBB17_6:
Ltmp64:
	.loc	12 0 6
	movq	%rax, -16(%rbp)
	movl	%edx, -8(%rbp)
	jmp	LBB17_3
Lfunc_end17:
	.cfi_endproc
	.section	__TEXT,__gcc_except_tab
	.p2align	2
GCC_except_table17:
Lexception2:
	.byte	255
	.byte	255
	.byte	1
	.uleb128 Lcst_end2-Lcst_begin2
Lcst_begin2:
	.uleb128 Ltmp60-Lfunc_begin17
	.uleb128 Ltmp61-Ltmp60
	.uleb128 Ltmp64-Lfunc_begin17
	.byte	0
	.uleb128 Ltmp61-Lfunc_begin17
	.uleb128 Ltmp62-Ltmp61
	.byte	0
	.byte	0
	.uleb128 Ltmp62-Lfunc_begin17
	.uleb128 Ltmp63-Ltmp62
	.uleb128 Ltmp64-Lfunc_begin17
	.byte	0
	.uleb128 Ltmp63-Lfunc_begin17
	.uleb128 Lfunc_end17-Ltmp63
	.byte	0
	.byte	0
Lcst_end2:
	.p2align	2

	.section	__TEXT,__text,regular,pure_instructions
	.p2align	4, 0x90
__ZN44_$LT$$RF$T$u20$as$u20$core..fmt..Display$GT$3fmt17h37a7c401dab49b22E:
Lfunc_begin18:
	.file	13 "/rustc/6c8927b0cf80ceee19386026cf9d7fd4fd9d486f/src/libcore/fmt/mod.rs"
	.loc	13 2022 0 is_stmt 1
	.cfi_startproc
	pushq	%rbp
	.cfi_def_cfa_offset 16
	.cfi_offset %rbp, -16
	movq	%rsp, %rbp
	.cfi_def_cfa_register %rbp
	subq	$32, %rsp
	movq	%rdi, -16(%rbp)
	movq	%rsi, -8(%rbp)
Ltmp73:
	.loc	13 2022 71 prologue_end
	movq	(%rdi), %rax
	movq	8(%rdi), %rcx
	.loc	13 2022 62 is_stmt 0
	movq	%rax, %rdi
	movq	%rsi, -24(%rbp)
	movq	%rcx, %rsi
	movq	-24(%rbp), %rdx
	callq	__ZN42_$LT$str$u20$as$u20$core..fmt..Display$GT$3fmt17h6768afae62e94f93E
	movb	%al, -25(%rbp)
	.loc	13 0 62
	movb	-25(%rbp), %al
	.loc	13 2022 84
	andb	$1, %al
	movzbl	%al, %eax
	addq	$32, %rsp
	popq	%rbp
	retq
Ltmp74:
Lfunc_end18:
	.cfi_endproc

	.p2align	4, 0x90
__ZN4core10intrinsics19copy_nonoverlapping17h2f7f8eab06e4b0e2E:
Lfunc_begin19:
	.file	14 "/rustc/6c8927b0cf80ceee19386026cf9d7fd4fd9d486f/src/libcore/intrinsics.rs"
	.loc	14 2114 0 is_stmt 1
	.cfi_startproc
	pushq	%rbp
	.cfi_def_cfa_offset 16
	.cfi_offset %rbp, -16
	movq	%rsp, %rbp
	.cfi_def_cfa_register %rbp
	subq	$32, %rsp
	movq	%rdi, -24(%rbp)
	movq	%rsi, -16(%rbp)
	movq	%rdx, -8(%rbp)
Ltmp75:
	.loc	14 2130 14 prologue_end
	shlq	$0, %rdx
	movq	%rdi, -32(%rbp)
	movq	%rsi, %rdi
	movq	-32(%rbp), %rsi
	callq	_memcpy
	.loc	14 2131 2
	addq	$32, %rsp
	popq	%rbp
	retq
Ltmp76:
Lfunc_end19:
	.cfi_endproc

	.p2align	4, 0x90
__ZN4core10intrinsics19copy_nonoverlapping17h566335906d8dc1ccE:
Lfunc_begin20:
	.loc	14 2114 0
	.cfi_startproc
	pushq	%rbp
	.cfi_def_cfa_offset 16
	.cfi_offset %rbp, -16
	movq	%rsp, %rbp
	.cfi_def_cfa_register %rbp
	subq	$32, %rsp
	movq	%rdi, -24(%rbp)
	movq	%rsi, -16(%rbp)
	movq	%rdx, -8(%rbp)
Ltmp77:
	.loc	14 2130 14 prologue_end
	shlq	$4, %rdx
	movq	%rdi, -32(%rbp)
	movq	%rsi, %rdi
	movq	-32(%rbp), %rsi
	callq	_memcpy
	.loc	14 2131 2
	addq	$32, %rsp
	popq	%rbp
	retq
Ltmp78:
Lfunc_end20:
	.cfi_endproc

	.p2align	4, 0x90
__ZN4core10intrinsics19copy_nonoverlapping17h64ee59d91335dcc9E:
Lfunc_begin21:
	.loc	14 2114 0
	.cfi_startproc
	pushq	%rbp
	.cfi_def_cfa_offset 16
	.cfi_offset %rbp, -16
	movq	%rsp, %rbp
	.cfi_def_cfa_register %rbp
	subq	$32, %rsp
	movq	%rdi, -24(%rbp)
	movq	%rsi, -16(%rbp)
	movq	%rdx, -8(%rbp)
Ltmp79:
	.loc	14 2130 14 prologue_end
	shlq	$5, %rdx
	movq	%rdi, -32(%rbp)
	movq	%rsi, %rdi
	movq	-32(%rbp), %rsi
	callq	_memcpy
	.loc	14 2131 2
	addq	$32, %rsp
	popq	%rbp
	retq
Ltmp80:
Lfunc_end21:
	.cfi_endproc

	.p2align	4, 0x90
__ZN4core10intrinsics19copy_nonoverlapping17h8a0a7b1fe70be788E:
Lfunc_begin22:
	.loc	14 2114 0
	.cfi_startproc
	pushq	%rbp
	.cfi_def_cfa_offset 16
	.cfi_offset %rbp, -16
	movq	%rsp, %rbp
	.cfi_def_cfa_register %rbp
	subq	$32, %rsp
	movq	%rdi, -24(%rbp)
	movq	%rsi, -16(%rbp)
	movq	%rdx, -8(%rbp)
Ltmp81:
	.loc	14 2130 14 prologue_end
	imulq	$24, %rdx, %rdx
	movq	%rdi, -32(%rbp)
	movq	%rsi, %rdi
	movq	-32(%rbp), %rsi
	callq	_memcpy
	.loc	14 2131 2
	addq	$32, %rsp
	popq	%rbp
	retq
Ltmp82:
Lfunc_end22:
	.cfi_endproc

	.p2align	4, 0x90
__ZN4core10intrinsics19copy_nonoverlapping17h9b2af6b0af4b801cE:
Lfunc_begin23:
	.loc	14 2114 0
	.cfi_startproc
	pushq	%rbp
	.cfi_def_cfa_offset 16
	.cfi_offset %rbp, -16
	movq	%rsp, %rbp
	.cfi_def_cfa_register %rbp
	subq	$32, %rsp
	movq	%rdi, -24(%rbp)
	movq	%rsi, -16(%rbp)
	movq	%rdx, -8(%rbp)
Ltmp83:
	.loc	14 2130 14 prologue_end
	imulq	$24, %rdx, %rdx
	movq	%rdi, -32(%rbp)
	movq	%rsi, %rdi
	movq	-32(%rbp), %rsi
	callq	_memcpy
	.loc	14 2131 2
	addq	$32, %rsp
	popq	%rbp
	retq
Ltmp84:
Lfunc_end23:
	.cfi_endproc

	.p2align	4, 0x90
__ZN4core10intrinsics19copy_nonoverlapping17ha0ee0bb4dd7663c1E:
Lfunc_begin24:
	.loc	14 2114 0
	.cfi_startproc
	pushq	%rbp
	.cfi_def_cfa_offset 16
	.cfi_offset %rbp, -16
	movq	%rsp, %rbp
	.cfi_def_cfa_register %rbp
	subq	$32, %rsp
	movq	%rdi, -24(%rbp)
	movq	%rsi, -16(%rbp)
	movq	%rdx, -8(%rbp)
Ltmp85:
	.loc	14 2130 14 prologue_end
	shlq	$5, %rdx
	movq	%rdi, -32(%rbp)
	movq	%rsi, %rdi
	movq	-32(%rbp), %rsi
	callq	_memcpy
	.loc	14 2131 2
	addq	$32, %rsp
	popq	%rbp
	retq
Ltmp86:
Lfunc_end24:
	.cfi_endproc

	.p2align	4, 0x90
__ZN4core10intrinsics19copy_nonoverlapping17hcee71e4b726e9acdE:
Lfunc_begin25:
	.loc	14 2114 0
	.cfi_startproc
	pushq	%rbp
	.cfi_def_cfa_offset 16
	.cfi_offset %rbp, -16
	movq	%rsp, %rbp
	.cfi_def_cfa_register %rbp
	subq	$32, %rsp
	movq	%rdi, -24(%rbp)
	movq	%rsi, -16(%rbp)
	movq	%rdx, -8(%rbp)
Ltmp87:
	.loc	14 2130 14 prologue_end
	imulq	$24, %rdx, %rdx
	movq	%rdi, -32(%rbp)
	movq	%rsi, %rdi
	movq	-32(%rbp), %rsi
	callq	_memcpy
	.loc	14 2131 2
	addq	$32, %rsp
	popq	%rbp
	retq
Ltmp88:
Lfunc_end25:
	.cfi_endproc

	.p2align	4, 0x90
__ZN4core10intrinsics19copy_nonoverlapping17hee81b0fd3a2d233dE:
Lfunc_begin26:
	.loc	14 2114 0
	.cfi_startproc
	pushq	%rbp
	.cfi_def_cfa_offset 16
	.cfi_offset %rbp, -16
	movq	%rsp, %rbp
	.cfi_def_cfa_register %rbp
	subq	$32, %rsp
	movq	%rdi, -24(%rbp)
	movq	%rsi, -16(%rbp)
	movq	%rdx, -8(%rbp)
Ltmp89:
	.loc	14 2130 14 prologue_end
	imulq	$24, %rdx, %rdx
	movq	%rdi, -32(%rbp)
	movq	%rsi, %rdi
	movq	-32(%rbp), %rsi
	callq	_memcpy
	.loc	14 2131 2
	addq	$32, %rsp
	popq	%rbp
	retq
Ltmp90:
Lfunc_end26:
	.cfi_endproc

	.p2align	4, 0x90
__ZN4core10intrinsics19copy_nonoverlapping17hf3727eab9fb6631aE:
Lfunc_begin27:
	.loc	14 2114 0
	.cfi_startproc
	pushq	%rbp
	.cfi_def_cfa_offset 16
	.cfi_offset %rbp, -16
	movq	%rsp, %rbp
	.cfi_def_cfa_register %rbp
	subq	$32, %rsp
	movq	%rdi, -24(%rbp)
	movq	%rsi, -16(%rbp)
	movq	%rdx, -8(%rbp)
Ltmp91:
	.loc	14 2130 14 prologue_end
	imulq	$24, %rdx, %rdx
	movq	%rdi, -32(%rbp)
	movq	%rsi, %rdi
	movq	-32(%rbp), %rsi
	callq	_memcpy
	.loc	14 2131 2
	addq	$32, %rsp
	popq	%rbp
	retq
Ltmp92:
Lfunc_end27:
	.cfi_endproc

	.p2align	4, 0x90
__ZN4core3cmp5impls69_$LT$impl$u20$core..cmp..PartialEq$LT$$RF$B$GT$$u20$for$u20$$RF$A$GT$2eq17h63addb247a1782a8E:
Lfunc_begin28:
	.file	15 "/rustc/6c8927b0cf80ceee19386026cf9d7fd4fd9d486f/src/libcore/cmp.rs"
	.loc	15 1218 0
	.cfi_startproc
	pushq	%rbp
	.cfi_def_cfa_offset 16
	.cfi_offset %rbp, -16
	movq	%rsp, %rbp
	.cfi_def_cfa_register %rbp
	subq	$32, %rsp
	movq	%rdi, -16(%rbp)
	movq	%rsi, -8(%rbp)
Ltmp93:
	.loc	15 1219 27 prologue_end
	movq	(%rdi), %rax
	movq	8(%rdi), %rcx
	.loc	15 1219 34 is_stmt 0
	movq	(%rsi), %rdx
	movq	8(%rsi), %rsi
	.loc	15 1219 13
	movq	%rax, %rdi
	movq	%rsi, -24(%rbp)
	movq	%rcx, %rsi
	movq	-24(%rbp), %rcx
	callq	__ZN4core5slice81_$LT$impl$u20$core..cmp..PartialEq$LT$$u5b$B$u5d$$GT$$u20$for$u20$$u5b$A$u5d$$GT$2eq17h34fb1bbc91940418E
	movb	%al, -25(%rbp)
	.loc	15 0 13
	movb	-25(%rbp), %al
	.loc	15 1220 10 is_stmt 1
	andb	$1, %al
	movzbl	%al, %eax
	addq	$32, %rsp
	popq	%rbp
	retq
Ltmp94:
Lfunc_end28:
	.cfi_endproc

	.p2align	4, 0x90
__ZN4core3cmp5impls69_$LT$impl$u20$core..cmp..PartialEq$LT$$RF$B$GT$$u20$for$u20$$RF$A$GT$2ne17h1777f3d534b28f7bE:
Lfunc_begin29:
	.loc	15 1222 0
	.cfi_startproc
	pushq	%rbp
	.cfi_def_cfa_offset 16
	.cfi_offset %rbp, -16
	movq	%rsp, %rbp
	.cfi_def_cfa_register %rbp
	subq	$32, %rsp
	movq	%rdi, -16(%rbp)
	movq	%rsi, -8(%rbp)
Ltmp95:
	.loc	15 1223 27 prologue_end
	movq	(%rdi), %rax
	movq	8(%rdi), %rcx
	.loc	15 1223 34 is_stmt 0
	movq	(%rsi), %rdx
	movq	8(%rsi), %rsi
	.loc	15 1223 13
	movq	%rax, %rdi
	movq	%rsi, -24(%rbp)
	movq	%rcx, %rsi
	movq	-24(%rbp), %rcx
	callq	__ZN4core3str6traits54_$LT$impl$u20$core..cmp..PartialEq$u20$for$u20$str$GT$2ne17h841a5101aa868805E
	movb	%al, -25(%rbp)
	.loc	15 0 13
	movb	-25(%rbp), %al
	.loc	15 1224 10 is_stmt 1
	andb	$1, %al
	movzbl	%al, %eax
	addq	$32, %rsp
	popq	%rbp
	retq
Ltmp96:
Lfunc_end29:
	.cfi_endproc

	.p2align	4, 0x90
__ZN4core3fmt10ArgumentV13new17h0370a324ab47ef5fE:
Lfunc_begin30:
	.loc	13 281 0
	.cfi_startproc
	pushq	%rbp
	.cfi_def_cfa_offset 16
	.cfi_offset %rbp, -16
	movq	%rsp, %rbp
	.cfi_def_cfa_register %rbp
	subq	$72, %rsp
	movq	%rdi, -32(%rbp)
	movq	%rsi, -24(%rbp)
Ltmp97:
	.loc	13 290 42 prologue_end
	movq	%rsi, -16(%rbp)
	movq	-16(%rbp), %rax
	movq	%rdi, -56(%rbp)
	movq	%rax, -64(%rbp)
	.loc	13 0 42 is_stmt 0
	movq	-56(%rbp), %rax
	.loc	13 290 68
	movq	%rax, -8(%rbp)
	movq	-8(%rbp), %rcx
	movq	%rcx, -72(%rbp)
	.loc	13 0 68
	movq	-72(%rbp), %rax
	.loc	13 290 18
	movq	%rax, -48(%rbp)
	movq	-64(%rbp), %rcx
	movq	%rcx, -40(%rbp)
	.loc	13 291 6 is_stmt 1
	movq	-48(%rbp), %rax
	movq	-40(%rbp), %rdx
	addq	$72, %rsp
	popq	%rbp
	retq
Ltmp98:
Lfunc_end30:
	.cfi_endproc

	.p2align	4, 0x90
__ZN4core3fmt10ArgumentV13new17h52123589741a80c0E:
Lfunc_begin31:
	.loc	13 281 0
	.cfi_startproc
	pushq	%rbp
	.cfi_def_cfa_offset 16
	.cfi_offset %rbp, -16
	movq	%rsp, %rbp
	.cfi_def_cfa_register %rbp
	subq	$72, %rsp
	movq	%rdi, -32(%rbp)
	movq	%rsi, -24(%rbp)
Ltmp99:
	.loc	13 290 42 prologue_end
	movq	%rsi, -16(%rbp)
	movq	-16(%rbp), %rax
	movq	%rdi, -56(%rbp)
	movq	%rax, -64(%rbp)
	.loc	13 0 42 is_stmt 0
	movq	-56(%rbp), %rax
	.loc	13 290 68
	movq	%rax, -8(%rbp)
	movq	-8(%rbp), %rcx
	movq	%rcx, -72(%rbp)
	.loc	13 0 68
	movq	-72(%rbp), %rax
	.loc	13 290 18
	movq	%rax, -48(%rbp)
	movq	-64(%rbp), %rcx
	movq	%rcx, -40(%rbp)
	.loc	13 291 6 is_stmt 1
	movq	-48(%rbp), %rax
	movq	-40(%rbp), %rdx
	addq	$72, %rsp
	popq	%rbp
	retq
Ltmp100:
Lfunc_end31:
	.cfi_endproc

	.p2align	4, 0x90
__ZN4core3fmt10ArgumentV13new17hc97647eb9e96c0b0E:
Lfunc_begin32:
	.loc	13 281 0
	.cfi_startproc
	pushq	%rbp
	.cfi_def_cfa_offset 16
	.cfi_offset %rbp, -16
	movq	%rsp, %rbp
	.cfi_def_cfa_register %rbp
	subq	$72, %rsp
	movq	%rdi, -32(%rbp)
	movq	%rsi, -24(%rbp)
Ltmp101:
	.loc	13 290 42 prologue_end
	movq	%rsi, -16(%rbp)
	movq	-16(%rbp), %rax
	movq	%rdi, -56(%rbp)
	movq	%rax, -64(%rbp)
	.loc	13 0 42 is_stmt 0
	movq	-56(%rbp), %rax
	.loc	13 290 68
	movq	%rax, -8(%rbp)
	movq	-8(%rbp), %rcx
	movq	%rcx, -72(%rbp)
	.loc	13 0 68
	movq	-72(%rbp), %rax
	.loc	13 290 18
	movq	%rax, -48(%rbp)
	movq	-64(%rbp), %rcx
	movq	%rcx, -40(%rbp)
	.loc	13 291 6 is_stmt 1
	movq	-48(%rbp), %rax
	movq	-40(%rbp), %rdx
	addq	$72, %rsp
	popq	%rbp
	retq
Ltmp102:
Lfunc_end32:
	.cfi_endproc

	.p2align	4, 0x90
__ZN4core3fmt9Arguments6new_v117he0e983ba2e6e5445E:
Lfunc_begin33:
	.loc	13 327 0
	.cfi_startproc
	pushq	%rbp
	.cfi_def_cfa_offset 16
	.cfi_offset %rbp, -16
	movq	%rsp, %rbp
	.cfi_def_cfa_register %rbp
	subq	$48, %rsp
	movq	%rdi, %rax
	movq	%rsi, -32(%rbp)
	movq	%rdx, -24(%rbp)
	movq	%rcx, -16(%rbp)
	movq	%r8, -8(%rbp)
Ltmp103:
	.loc	13 328 34 prologue_end
	movq	$0, -48(%rbp)
	.loc	13 328 9 is_stmt 0
	movq	%rsi, (%rdi)
	movq	%rdx, 8(%rdi)
	movq	-48(%rbp), %rdx
	movq	-40(%rbp), %rsi
	movq	%rdx, 16(%rdi)
	movq	%rsi, 24(%rdi)
	movq	%rcx, 32(%rdi)
	movq	%r8, 40(%rdi)
	.loc	13 329 6 is_stmt 1
	addq	$48, %rsp
	popq	%rbp
	retq
Ltmp104:
Lfunc_end33:
	.cfi_endproc

	.p2align	4, 0x90
__ZN4core3mem11size_of_val17ha4f1f9f9a9d5d59fE:
Lfunc_begin34:
	.file	16 "/rustc/6c8927b0cf80ceee19386026cf9d7fd4fd9d486f/src/libcore/mem/mod.rs"
	.loc	16 335 0
	.cfi_startproc
	pushq	%rbp
	.cfi_def_cfa_offset 16
	.cfi_offset %rbp, -16
	movq	%rsp, %rbp
	.cfi_def_cfa_register %rbp
	subq	$32, %rsp
	movq	%rdi, -24(%rbp)
	movq	%rsi, -16(%rbp)
Ltmp105:
	.loc	16 336 5 prologue_end
	shlq	$0, %rsi
	movq	%rsi, -8(%rbp)
	movq	-8(%rbp), %rax
	movq	%rax, -32(%rbp)
	.loc	16 0 5 is_stmt 0
	movq	-32(%rbp), %rax
	.loc	16 337 2 is_stmt 1
	addq	$32, %rsp
	popq	%rbp
	retq
Ltmp106:
Lfunc_end34:
	.cfi_endproc

	.p2align	4, 0x90
__ZN4core3mem4drop17h0c2a6dd42b941d64E:
Lfunc_begin35:
	.loc	16 883 0
	.cfi_startproc
	pushq	%rbp
	.cfi_def_cfa_offset 16
	.cfi_offset %rbp, -16
	movq	%rsp, %rbp
	.cfi_def_cfa_register %rbp
Ltmp107:
	.loc	16 883 24 prologue_end
	callq	__ZN4core3ptr13drop_in_place17h3c3be387784c8551E
Ltmp108:
	.loc	16 883 25 is_stmt 0
	popq	%rbp
	retq
Ltmp109:
Lfunc_end35:
	.cfi_endproc

	.p2align	4, 0x90
__ZN4core3mem4drop17he75632465209a184E:
Lfunc_begin36:
	.loc	16 883 0 is_stmt 1
	.cfi_startproc
	pushq	%rbp
	.cfi_def_cfa_offset 16
	.cfi_offset %rbp, -16
	movq	%rsp, %rbp
	.cfi_def_cfa_register %rbp
Ltmp110:
	.loc	16 883 24 prologue_end
	callq	__ZN4core3ptr13drop_in_place17h943540c7d302842cE
Ltmp111:
	.loc	16 883 25 is_stmt 0
	popq	%rbp
	retq
Ltmp112:
Lfunc_end36:
	.cfi_endproc

	.p2align	4, 0x90
__ZN4core3mem4swap17h6939f7bfc902683fE:
Lfunc_begin37:
	.loc	16 686 0 is_stmt 1
	.cfi_startproc
	pushq	%rbp
	.cfi_def_cfa_offset 16
	.cfi_offset %rbp, -16
	movq	%rsp, %rbp
	.cfi_def_cfa_register %rbp
	subq	$16, %rsp
	movq	%rdi, -16(%rbp)
	movq	%rsi, -8(%rbp)
Ltmp113:
	.loc	16 690 9 prologue_end
	callq	__ZN4core3ptr23swap_nonoverlapping_one17h3e92218de31b75f0E
	.loc	16 692 2
	addq	$16, %rsp
	popq	%rbp
	retq
Ltmp114:
Lfunc_end37:
	.cfi_endproc

	.p2align	4, 0x90
__ZN4core3mem4take17h6e94670961c5815cE:
Lfunc_begin38:
	.loc	16 750 0
	.cfi_startproc
	pushq	%rbp
	.cfi_def_cfa_offset 16
	.cfi_offset %rbp, -16
	movq	%rsp, %rbp
	.cfi_def_cfa_register %rbp
	subq	$48, %rsp
	movq	%rdi, -8(%rbp)
	movq	%rdi, -16(%rbp)
Ltmp115:
	.loc	16 751 19 prologue_end
	callq	__ZN72_$LT$core..option..Option$LT$T$GT$$u20$as$u20$core..default..Default$GT$7default17hc210eb790b22c7b7E
	movq	%rax, -24(%rbp)
	movq	%rdx, -32(%rbp)
	.loc	16 0 19 is_stmt 0
	movq	-16(%rbp), %rdi
	movq	-24(%rbp), %rsi
	movq	-32(%rbp), %rdx
	.loc	16 751 5
	callq	__ZN4core3mem7replace17hb843aa96df79a88fE
	movq	%rax, -40(%rbp)
	movq	%rdx, -48(%rbp)
	.loc	16 0 5
	movq	-40(%rbp), %rax
	movq	-48(%rbp), %rdx
	.loc	16 752 2 is_stmt 1
	addq	$48, %rsp
	popq	%rbp
	retq
Ltmp116:
Lfunc_end38:
	.cfi_endproc

	.p2align	4, 0x90
__ZN4core3mem6forget17h9da3ed8469c7e7fdE:
Lfunc_begin39:
	.loc	16 147 0
	.cfi_startproc
	pushq	%rbp
	.cfi_def_cfa_offset 16
	.cfi_offset %rbp, -16
	movq	%rsp, %rbp
	.cfi_def_cfa_register %rbp
	subq	$24, %rsp
	movq	%rdi, -24(%rbp)
	movq	%rdi, -8(%rbp)
Ltmp117:
	.loc	4 83 9 prologue_end
	movq	%rdi, -16(%rbp)
Ltmp118:
	.loc	16 149 2
	addq	$24, %rsp
	popq	%rbp
	retq
Ltmp119:
Lfunc_end39:
	.cfi_endproc

	.p2align	4, 0x90
__ZN4core3mem7replace17hb843aa96df79a88fE:
Lfunc_begin40:
	.loc	16 814 0
	.cfi_startproc
	.cfi_personality 155, _rust_eh_personality
	.cfi_lsda 16, Lexception3
	pushq	%rbp
	.cfi_def_cfa_offset 16
	.cfi_offset %rbp, -16
	movq	%rsp, %rbp
	.cfi_def_cfa_register %rbp
	subq	$48, %rsp
	movq	%rsi, -40(%rbp)
	movq	%rdx, -32(%rbp)
	movq	%rdi, -24(%rbp)
Ltmp120:
	leaq	-40(%rbp), %rsi
Ltmp123:
	.loc	16 815 5 prologue_end
	callq	__ZN4core3mem4swap17h6939f7bfc902683fE
Ltmp121:
	jmp	LBB40_2
LBB40_1:
	.loc	16 814 1
	movq	-16(%rbp), %rdi
	callq	__Unwind_Resume
	ud2
LBB40_2:
	.loc	16 816 5
	movq	-40(%rbp), %rax
	movq	-32(%rbp), %rdx
	.loc	16 817 2
	addq	$48, %rsp
	popq	%rbp
	retq
LBB40_3:
	.loc	16 817 1 is_stmt 0
	jmp	LBB40_1
Ltmp124:
LBB40_4:
Ltmp122:
	.loc	16 0 1
	movq	%rax, -16(%rbp)
	movl	%edx, -8(%rbp)
	jmp	LBB40_3
Lfunc_end40:
	.cfi_endproc
	.section	__TEXT,__gcc_except_tab
	.p2align	2
GCC_except_table40:
Lexception3:
	.byte	255
	.byte	255
	.byte	1
	.uleb128 Lcst_end3-Lcst_begin3
Lcst_begin3:
	.uleb128 Ltmp120-Lfunc_begin40
	.uleb128 Ltmp121-Ltmp120
	.uleb128 Ltmp122-Lfunc_begin40
	.byte	0
	.uleb128 Ltmp121-Lfunc_begin40
	.uleb128 Lfunc_end40-Ltmp121
	.byte	0
	.byte	0
Lcst_end3:
	.p2align	2

	.section	__TEXT,__text,regular,pure_instructions
	.p2align	4, 0x90
__ZN4core3num12NonZeroUsize13new_unchecked17h61f7b37304243501E:
Lfunc_begin41:
	.file	17 "/rustc/6c8927b0cf80ceee19386026cf9d7fd4fd9d486f/src/libcore/num/mod.rs"
	.loc	17 83 0 is_stmt 1
	.cfi_startproc
	pushq	%rbp
	.cfi_def_cfa_offset 16
	.cfi_offset %rbp, -16
	movq	%rsp, %rbp
	.cfi_def_cfa_register %rbp
	subq	$16, %rsp
	movq	%rdi, -8(%rbp)
Ltmp125:
	.loc	17 85 30 prologue_end
	movq	%rdi, -16(%rbp)
	.loc	17 86 18
	movq	-16(%rbp), %rax
	addq	$16, %rsp
	popq	%rbp
	retq
Ltmp126:
Lfunc_end41:
	.cfi_endproc

	.p2align	4, 0x90
__ZN4core3num12NonZeroUsize3get17hc93a0142e23fb7a9E:
Lfunc_begin42:
	.loc	17 105 0
	.cfi_startproc
	pushq	%rbp
	.cfi_def_cfa_offset 16
	.cfi_offset %rbp, -16
	movq	%rsp, %rbp
	.cfi_def_cfa_register %rbp
	pushq	%rax
	movq	%rdi, -8(%rbp)
Ltmp127:
	.loc	17 107 18 prologue_end
	movq	%rdi, %rax
	addq	$8, %rsp
	popq	%rbp
	retq
Ltmp128:
Lfunc_end42:
	.cfi_endproc

	.p2align	4, 0x90
__ZN4core3ops8function6FnOnce40call_once$u7b$$u7b$vtable.shim$u7d$$u7d$17hcae4ece1f4aa37acE:
Lfunc_begin43:
	.file	18 "/rustc/6c8927b0cf80ceee19386026cf9d7fd4fd9d486f/src/libcore/ops/function.rs"
	.loc	18 233 0
	.cfi_startproc
	pushq	%rbp
	.cfi_def_cfa_offset 16
	.cfi_offset %rbp, -16
	movq	%rsp, %rbp
	.cfi_def_cfa_register %rbp
	subq	$32, %rsp
	movq	%rdi, -8(%rbp)
Ltmp129:
	.loc	18 233 5 prologue_end
	movq	(%rdi), %rdi
	callq	__ZN4core3ops8function6FnOnce9call_once17h1cb8903d52d2aa89E
	movl	%eax, -20(%rbp)
	.loc	18 0 5 is_stmt 0
	movl	-20(%rbp), %eax
	.loc	18 233 5
	addq	$32, %rsp
	popq	%rbp
	retq
Ltmp130:
Lfunc_end43:
	.cfi_endproc

	.p2align	4, 0x90
__ZN4core3ops8function6FnOnce9call_once17h1cb8903d52d2aa89E:
Lfunc_begin44:
	.loc	18 233 0 is_stmt 1
	.cfi_startproc
	.cfi_personality 155, _rust_eh_personality
	.cfi_lsda 16, Lexception4
	pushq	%rbp
	.cfi_def_cfa_offset 16
	.cfi_offset %rbp, -16
	movq	%rsp, %rbp
	.cfi_def_cfa_register %rbp
	subq	$48, %rsp
	movq	%rdi, -32(%rbp)
Ltmp131:
	leaq	-32(%rbp), %rdi
Ltmp134:
	.loc	18 233 5 prologue_end
	callq	__ZN3std2rt10lang_start28_$u7b$$u7b$closure$u7d$$u7d$17h93482436f3d2ff0fE
Ltmp132:
	movl	%eax, -36(%rbp)
	jmp	LBB44_1
LBB44_1:
	jmp	LBB44_2
LBB44_2:
	.loc	18 0 5 is_stmt 0
	movl	-36(%rbp), %eax
	.loc	18 233 5
	addq	$48, %rsp
	popq	%rbp
	retq
LBB44_3:
	jmp	LBB44_4
LBB44_4:
	movq	-16(%rbp), %rdi
	callq	__Unwind_Resume
	ud2
Ltmp135:
LBB44_5:
Ltmp133:
	.loc	18 0 5
	movq	%rax, -16(%rbp)
	movl	%edx, -8(%rbp)
	jmp	LBB44_3
Lfunc_end44:
	.cfi_endproc
	.section	__TEXT,__gcc_except_tab
	.p2align	2
GCC_except_table44:
Lexception4:
	.byte	255
	.byte	255
	.byte	1
	.uleb128 Lcst_end4-Lcst_begin4
Lcst_begin4:
	.uleb128 Ltmp131-Lfunc_begin44
	.uleb128 Ltmp132-Ltmp131
	.uleb128 Ltmp133-Lfunc_begin44
	.byte	0
	.uleb128 Ltmp132-Lfunc_begin44
	.uleb128 Lfunc_end44-Ltmp132
	.byte	0
	.byte	0
Lcst_end4:
	.p2align	2

	.section	__TEXT,__text,regular,pure_instructions
	.p2align	4, 0x90
__ZN4core3ptr13drop_in_place17h0039f52c509032d3E:
Lfunc_begin45:
	.file	19 "/rustc/6c8927b0cf80ceee19386026cf9d7fd4fd9d486f/src/libcore/ptr/mod.rs"
	.loc	19 184 0 is_stmt 1
	.cfi_startproc
	.cfi_personality 155, _rust_eh_personality
	.cfi_lsda 16, Lexception5
	pushq	%rbp
	.cfi_def_cfa_offset 16
	.cfi_offset %rbp, -16
	movq	%rsp, %rbp
	.cfi_def_cfa_register %rbp
	subq	$48, %rsp
	movq	%rdi, -24(%rbp)
Ltmp136:
	movq	%rdi, -40(%rbp)
Ltmp139:
	.loc	19 184 1 prologue_end
	callq	__ZN66_$LT$alloc..vec..Vec$LT$T$GT$$u20$as$u20$core..ops..drop..Drop$GT$4drop17habb2c814cb31fc18E
Ltmp137:
	jmp	LBB45_4
LBB45_1:
	movq	-16(%rbp), %rdi
	callq	__Unwind_Resume
	ud2
LBB45_2:
	addq	$48, %rsp
	popq	%rbp
	retq
LBB45_3:
	.loc	19 0 1 is_stmt 0
	movq	-40(%rbp), %rax
	.loc	19 184 1
	movq	%rax, %rdi
	callq	__ZN4core3ptr13drop_in_place17hd77d7866e1270410E
	jmp	LBB45_1
LBB45_4:
	.loc	19 0 1
	movq	-40(%rbp), %rax
	.loc	19 184 1
	movq	%rax, %rdi
	callq	__ZN4core3ptr13drop_in_place17hd77d7866e1270410E
	jmp	LBB45_2
Ltmp140:
LBB45_5:
Ltmp138:
	.loc	19 0 1
	movq	%rax, -16(%rbp)
	movl	%edx, -8(%rbp)
	jmp	LBB45_3
Lfunc_end45:
	.cfi_endproc
	.section	__TEXT,__gcc_except_tab
	.p2align	2
GCC_except_table45:
Lexception5:
	.byte	255
	.byte	255
	.byte	1
	.uleb128 Lcst_end5-Lcst_begin5
Lcst_begin5:
	.uleb128 Ltmp136-Lfunc_begin45
	.uleb128 Ltmp137-Ltmp136
	.uleb128 Ltmp138-Lfunc_begin45
	.byte	0
	.uleb128 Ltmp137-Lfunc_begin45
	.uleb128 Lfunc_end45-Ltmp137
	.byte	0
	.byte	0
Lcst_end5:
	.p2align	2

	.section	__TEXT,__text,regular,pure_instructions
	.p2align	4, 0x90
__ZN4core3ptr13drop_in_place17h03918638005d154aE:
Lfunc_begin46:
	.loc	19 184 0 is_stmt 1
	.cfi_startproc
	pushq	%rbp
	.cfi_def_cfa_offset 16
	.cfi_offset %rbp, -16
	movq	%rsp, %rbp
	.cfi_def_cfa_register %rbp
	subq	$16, %rsp
	movq	%rdi, -8(%rbp)
Ltmp141:
	.loc	19 184 1 prologue_end
	callq	__ZN70_$LT$std..sys..unix..fd..FileDesc$u20$as$u20$core..ops..drop..Drop$GT$4drop17h633394f1cf9da1c8E
	addq	$16, %rsp
	popq	%rbp
	retq
Ltmp142:
Lfunc_end46:
	.cfi_endproc

	.p2align	4, 0x90
__ZN4core3ptr13drop_in_place17h17c7c8e1676411ccE:
Lfunc_begin47:
	.loc	19 184 0
	.cfi_startproc
	pushq	%rbp
	.cfi_def_cfa_offset 16
	.cfi_offset %rbp, -16
	movq	%rsp, %rbp
	.cfi_def_cfa_register %rbp
	subq	$16, %rsp
	movq	%rdi, -8(%rbp)
Ltmp143:
	.loc	19 184 1 prologue_end
	callq	__ZN4core3ptr13drop_in_place17h40ea58f9e837aa8eE
	addq	$16, %rsp
	popq	%rbp
	retq
Ltmp144:
Lfunc_end47:
	.cfi_endproc

	.p2align	4, 0x90
__ZN4core3ptr13drop_in_place17h18d9a76ca9300c0dE:
Lfunc_begin48:
	.loc	19 184 0
	.cfi_startproc
	pushq	%rbp
	.cfi_def_cfa_offset 16
	.cfi_offset %rbp, -16
	movq	%rsp, %rbp
	.cfi_def_cfa_register %rbp
	subq	$48, %rsp
	movq	%rdi, -24(%rbp)
	movq	%rdi, -40(%rbp)
Ltmp145:
	.loc	19 184 1 prologue_end
	jmp	LBB48_2
LBB48_1:
	addq	$48, %rsp
	popq	%rbp
	retq
LBB48_2:
	.loc	19 0 1 is_stmt 0
	movq	-40(%rbp), %rax
	.loc	19 184 1
	movq	(%rax), %rdi
	movq	8(%rax), %rsi
	callq	__ZN5alloc5alloc8box_free17h46d87d36f936e7e7E
	jmp	LBB48_1
Ltmp146:
Lfunc_end48:
	.cfi_endproc

	.p2align	4, 0x90
__ZN4core3ptr13drop_in_place17h1fcc644ff04f808cE:
Lfunc_begin49:
	.loc	19 184 0 is_stmt 1
	.cfi_startproc
	pushq	%rbp
	.cfi_def_cfa_offset 16
	.cfi_offset %rbp, -16
	movq	%rsp, %rbp
	.cfi_def_cfa_register %rbp
	subq	$16, %rsp
	movq	%rdi, -8(%rbp)
Ltmp147:
	.loc	19 184 1 prologue_end
	callq	__ZN4core3ptr13drop_in_place17ha8f5563571bc998fE
	addq	$16, %rsp
	popq	%rbp
	retq
Ltmp148:
Lfunc_end49:
	.cfi_endproc

	.p2align	4, 0x90
__ZN4core3ptr13drop_in_place17h24b78902c93123feE:
Lfunc_begin50:
	.loc	19 184 0
	.cfi_startproc
	.cfi_personality 155, _rust_eh_personality
	.cfi_lsda 16, Lexception6
	pushq	%rbp
	.cfi_def_cfa_offset 16
	.cfi_offset %rbp, -16
	movq	%rsp, %rbp
	.cfi_def_cfa_register %rbp
	subq	$48, %rsp
	movq	%rdi, -24(%rbp)
Ltmp152:
	.loc	19 184 1 prologue_end
	movq	(%rdi), %rax
Ltmp149:
	movq	%rdi, -40(%rbp)
	movq	%rax, %rdi
	callq	__ZN4core3ptr13drop_in_place17h1fcc644ff04f808cE
Ltmp150:
	jmp	LBB50_3
LBB50_1:
	addq	$48, %rsp
	popq	%rbp
	retq
LBB50_2:
	movq	-16(%rbp), %rdi
	callq	__Unwind_Resume
	ud2
LBB50_3:
	.loc	19 0 1 is_stmt 0
	movq	-40(%rbp), %rax
	.loc	19 184 1
	movq	(%rax), %rdi
	callq	__ZN5alloc5alloc8box_free17hebc9f5cafa24682dE
	jmp	LBB50_1
LBB50_4:
	.loc	19 0 1
	movq	-40(%rbp), %rax
	.loc	19 184 1
	movq	(%rax), %rdi
	callq	__ZN5alloc5alloc8box_free17hebc9f5cafa24682dE
	jmp	LBB50_2
Ltmp153:
LBB50_5:
Ltmp151:
	.loc	19 0 1
	movq	%rax, -16(%rbp)
	movl	%edx, -8(%rbp)
	jmp	LBB50_4
Lfunc_end50:
	.cfi_endproc
	.section	__TEXT,__gcc_except_tab
	.p2align	2
GCC_except_table50:
Lexception6:
	.byte	255
	.byte	255
	.byte	1
	.uleb128 Lcst_end6-Lcst_begin6
Lcst_begin6:
	.uleb128 Ltmp149-Lfunc_begin50
	.uleb128 Ltmp150-Ltmp149
	.uleb128 Ltmp151-Lfunc_begin50
	.byte	0
	.uleb128 Ltmp150-Lfunc_begin50
	.uleb128 Lfunc_end50-Ltmp150
	.byte	0
	.byte	0
Lcst_end6:
	.p2align	2

	.section	__TEXT,__text,regular,pure_instructions
	.p2align	4, 0x90
__ZN4core3ptr13drop_in_place17h297d8343677a0330E:
Lfunc_begin51:
	.loc	19 184 0 is_stmt 1
	.cfi_startproc
	.cfi_personality 155, _rust_eh_personality
	.cfi_lsda 16, Lexception7
	pushq	%rbp
	.cfi_def_cfa_offset 16
	.cfi_offset %rbp, -16
	movq	%rsp, %rbp
	.cfi_def_cfa_register %rbp
	subq	$48, %rsp
	movq	%rdi, -24(%rbp)
Ltmp154:
	movq	%rdi, -40(%rbp)
Ltmp157:
	.loc	19 184 1 prologue_end
	callq	__ZN66_$LT$alloc..vec..Vec$LT$T$GT$$u20$as$u20$core..ops..drop..Drop$GT$4drop17h61e461322a196518E
Ltmp155:
	jmp	LBB51_4
LBB51_1:
	movq	-16(%rbp), %rdi
	callq	__Unwind_Resume
	ud2
LBB51_2:
	addq	$48, %rsp
	popq	%rbp
	retq
LBB51_3:
	.loc	19 0 1 is_stmt 0
	movq	-40(%rbp), %rax
	.loc	19 184 1
	movq	%rax, %rdi
	callq	__ZN4core3ptr13drop_in_place17h4a8900e681631349E
	jmp	LBB51_1
LBB51_4:
	.loc	19 0 1
	movq	-40(%rbp), %rax
	.loc	19 184 1
	movq	%rax, %rdi
	callq	__ZN4core3ptr13drop_in_place17h4a8900e681631349E
	jmp	LBB51_2
Ltmp158:
LBB51_5:
Ltmp156:
	.loc	19 0 1
	movq	%rax, -16(%rbp)
	movl	%edx, -8(%rbp)
	jmp	LBB51_3
Lfunc_end51:
	.cfi_endproc
	.section	__TEXT,__gcc_except_tab
	.p2align	2
GCC_except_table51:
Lexception7:
	.byte	255
	.byte	255
	.byte	1
	.uleb128 Lcst_end7-Lcst_begin7
Lcst_begin7:
	.uleb128 Ltmp154-Lfunc_begin51
	.uleb128 Ltmp155-Ltmp154
	.uleb128 Ltmp156-Lfunc_begin51
	.byte	0
	.uleb128 Ltmp155-Lfunc_begin51
	.uleb128 Lfunc_end51-Ltmp155
	.byte	0
	.byte	0
Lcst_end7:
	.p2align	2

	.section	__TEXT,__text,regular,pure_instructions
	.p2align	4, 0x90
__ZN4core3ptr13drop_in_place17h2d7a393bcee220c7E:
Lfunc_begin52:
	.loc	19 184 0 is_stmt 1
	.cfi_startproc
	.cfi_personality 155, _rust_eh_personality
	.cfi_lsda 16, Lexception8
	pushq	%rbp
	.cfi_def_cfa_offset 16
	.cfi_offset %rbp, -16
	movq	%rsp, %rbp
	.cfi_def_cfa_register %rbp
	subq	$48, %rsp
	movq	%rdi, -24(%rbp)
Ltmp162:
	.loc	19 184 1 prologue_end
	movq	(%rdi), %rax
	movq	8(%rdi), %rcx
	movq	(%rcx), %rcx
Ltmp159:
	movq	%rdi, -40(%rbp)
	movq	%rax, %rdi
	callq	*%rcx
Ltmp160:
	jmp	LBB52_3
LBB52_1:
	addq	$48, %rsp
	popq	%rbp
	retq
LBB52_2:
	movq	-16(%rbp), %rdi
	callq	__Unwind_Resume
	ud2
LBB52_3:
	.loc	19 0 1 is_stmt 0
	movq	-40(%rbp), %rax
	.loc	19 184 1
	movq	(%rax), %rdi
	movq	8(%rax), %rsi
	callq	__ZN5alloc5alloc8box_free17hca6f56b7b63b6110E
	jmp	LBB52_1
LBB52_4:
	.loc	19 0 1
	movq	-40(%rbp), %rax
	.loc	19 184 1
	movq	(%rax), %rdi
	movq	8(%rax), %rsi
	callq	__ZN5alloc5alloc8box_free17hca6f56b7b63b6110E
	jmp	LBB52_2
Ltmp163:
LBB52_5:
Ltmp161:
	.loc	19 0 1
	movq	%rax, -16(%rbp)
	movl	%edx, -8(%rbp)
	jmp	LBB52_4
Lfunc_end52:
	.cfi_endproc
	.section	__TEXT,__gcc_except_tab
	.p2align	2
GCC_except_table52:
Lexception8:
	.byte	255
	.byte	255
	.byte	1
	.uleb128 Lcst_end8-Lcst_begin8
Lcst_begin8:
	.uleb128 Ltmp159-Lfunc_begin52
	.uleb128 Ltmp160-Ltmp159
	.uleb128 Ltmp161-Lfunc_begin52
	.byte	0
	.uleb128 Ltmp160-Lfunc_begin52
	.uleb128 Lfunc_end52-Ltmp160
	.byte	0
	.byte	0
Lcst_end8:
	.p2align	2

	.section	__TEXT,__text,regular,pure_instructions
	.p2align	4, 0x90
__ZN4core3ptr13drop_in_place17h34810a4115464d01E:
Lfunc_begin53:
	.loc	19 184 0 is_stmt 1
	.cfi_startproc
	pushq	%rbp
	.cfi_def_cfa_offset 16
	.cfi_offset %rbp, -16
	movq	%rsp, %rbp
	.cfi_def_cfa_register %rbp
	subq	$16, %rsp
	movq	%rdi, -8(%rbp)
Ltmp164:
	.loc	19 184 1 prologue_end
	callq	__ZN4core3ptr13drop_in_place17h6bb08f9efc3e2b79E
	addq	$16, %rsp
	popq	%rbp
	retq
Ltmp165:
Lfunc_end53:
	.cfi_endproc

	.p2align	4, 0x90
__ZN4core3ptr13drop_in_place17h35975663f0d1b4b5E:
Lfunc_begin54:
	.loc	19 184 0
	.cfi_startproc
	pushq	%rbp
	.cfi_def_cfa_offset 16
	.cfi_offset %rbp, -16
	movq	%rsp, %rbp
	.cfi_def_cfa_register %rbp
	subq	$32, %rsp
	movq	%rdi, -16(%rbp)
	movq	%rsi, -8(%rbp)
Ltmp166:
	.loc	19 184 1 prologue_end
	callq	*(%rsi)
	addq	$32, %rsp
	popq	%rbp
	retq
Ltmp167:
Lfunc_end54:
	.cfi_endproc

	.p2align	4, 0x90
__ZN4core3ptr13drop_in_place17h3c3be387784c8551E:
Lfunc_begin55:
	.loc	19 184 0
	.cfi_startproc
	.cfi_personality 155, _rust_eh_personality
	.cfi_lsda 16, Lexception9
	pushq	%rbp
	.cfi_def_cfa_offset 16
	.cfi_offset %rbp, -16
	movq	%rsp, %rbp
	.cfi_def_cfa_register %rbp
	subq	$48, %rsp
	movq	%rdi, -24(%rbp)
Ltmp168:
	movq	%rdi, -40(%rbp)
Ltmp171:
	.loc	19 184 1 prologue_end
	callq	__ZN4core3ptr13drop_in_place17h93f304b0d24efec0E
Ltmp169:
	jmp	LBB55_4
LBB55_1:
	movq	-16(%rbp), %rdi
	callq	__Unwind_Resume
	ud2
LBB55_2:
	addq	$48, %rsp
	popq	%rbp
	retq
LBB55_3:
	.loc	19 0 1 is_stmt 0
	movq	-40(%rbp), %rax
	.loc	19 184 1
	addq	$24, %rax
	movq	%rax, %rdi
	callq	__ZN4core3ptr13drop_in_place17h9ea772a75c24b66eE
	jmp	LBB55_1
LBB55_4:
	.loc	19 0 1
	movq	-40(%rbp), %rax
	.loc	19 184 1
	addq	$24, %rax
	movq	%rax, %rdi
	callq	__ZN4core3ptr13drop_in_place17h9ea772a75c24b66eE
	jmp	LBB55_2
Ltmp172:
LBB55_5:
Ltmp170:
	.loc	19 0 1
	movq	%rax, -16(%rbp)
	movl	%edx, -8(%rbp)
	jmp	LBB55_3
Lfunc_end55:
	.cfi_endproc
	.section	__TEXT,__gcc_except_tab
	.p2align	2
GCC_except_table55:
Lexception9:
	.byte	255
	.byte	255
	.byte	1
	.uleb128 Lcst_end9-Lcst_begin9
Lcst_begin9:
	.uleb128 Ltmp168-Lfunc_begin55
	.uleb128 Ltmp169-Ltmp168
	.uleb128 Ltmp170-Lfunc_begin55
	.byte	0
	.uleb128 Ltmp169-Lfunc_begin55
	.uleb128 Lfunc_end55-Ltmp169
	.byte	0
	.byte	0
Lcst_end9:
	.p2align	2

	.section	__TEXT,__text,regular,pure_instructions
	.p2align	4, 0x90
__ZN4core3ptr13drop_in_place17h3d71cd39611642adE:
Lfunc_begin56:
	.loc	19 184 0 is_stmt 1
	.cfi_startproc
	pushq	%rbp
	.cfi_def_cfa_offset 16
	.cfi_offset %rbp, -16
	movq	%rsp, %rbp
	.cfi_def_cfa_register %rbp
	subq	$32, %rsp
	movq	%rdi, -8(%rbp)
Ltmp173:
	.loc	19 184 1 prologue_end
	cmpq	$0, (%rdi)
	movq	%rdi, -24(%rbp)
	je	LBB56_2
	jmp	LBB56_3
LBB56_1:
	addq	$32, %rsp
	popq	%rbp
	retq
LBB56_2:
	.loc	19 0 1 is_stmt 0
	movq	-24(%rbp), %rax
	.loc	19 184 1
	addq	$8, %rax
	movq	%rax, %rdi
	callq	__ZN4core3ptr13drop_in_place17h6c05ad5b8e7b7fccE
	jmp	LBB56_1
LBB56_3:
	.loc	19 0 1
	movq	-24(%rbp), %rax
	.loc	19 184 1
	addq	$8, %rax
	movq	%rax, %rdi
	callq	__ZN4core3ptr13drop_in_place17h5b0cad01837f7de9E
	jmp	LBB56_1
Ltmp174:
Lfunc_end56:
	.cfi_endproc

	.p2align	4, 0x90
__ZN4core3ptr13drop_in_place17h40ea58f9e837aa8eE:
Lfunc_begin57:
	.loc	19 184 0 is_stmt 1
	.cfi_startproc
	.cfi_personality 155, _rust_eh_personality
	.cfi_lsda 16, Lexception10
	pushq	%rbp
	.cfi_def_cfa_offset 16
	.cfi_offset %rbp, -16
	movq	%rsp, %rbp
	.cfi_def_cfa_register %rbp
	subq	$48, %rsp
	movq	%rdi, -24(%rbp)
Ltmp175:
	movq	%rdi, -40(%rbp)
Ltmp178:
	.loc	19 184 1 prologue_end
	callq	__ZN66_$LT$alloc..vec..Vec$LT$T$GT$$u20$as$u20$core..ops..drop..Drop$GT$4drop17hb1445b672b863202E
Ltmp176:
	jmp	LBB57_4
LBB57_1:
	movq	-16(%rbp), %rdi
	callq	__Unwind_Resume
	ud2
LBB57_2:
	addq	$48, %rsp
	popq	%rbp
	retq
LBB57_3:
	.loc	19 0 1 is_stmt 0
	movq	-40(%rbp), %rax
	.loc	19 184 1
	movq	%rax, %rdi
	callq	__ZN4core3ptr13drop_in_place17hc48cbf6b0722bfceE
	jmp	LBB57_1
LBB57_4:
	.loc	19 0 1
	movq	-40(%rbp), %rax
	.loc	19 184 1
	movq	%rax, %rdi
	callq	__ZN4core3ptr13drop_in_place17hc48cbf6b0722bfceE
	jmp	LBB57_2
Ltmp179:
LBB57_5:
Ltmp177:
	.loc	19 0 1
	movq	%rax, -16(%rbp)
	movl	%edx, -8(%rbp)
	jmp	LBB57_3
Lfunc_end57:
	.cfi_endproc
	.section	__TEXT,__gcc_except_tab
	.p2align	2
GCC_except_table57:
Lexception10:
	.byte	255
	.byte	255
	.byte	1
	.uleb128 Lcst_end10-Lcst_begin10
Lcst_begin10:
	.uleb128 Ltmp175-Lfunc_begin57
	.uleb128 Ltmp176-Ltmp175
	.uleb128 Ltmp177-Lfunc_begin57
	.byte	0
	.uleb128 Ltmp176-Lfunc_begin57
	.uleb128 Lfunc_end57-Ltmp176
	.byte	0
	.byte	0
Lcst_end10:
	.p2align	2

	.section	__TEXT,__text,regular,pure_instructions
	.p2align	4, 0x90
__ZN4core3ptr13drop_in_place17h410bcba24c8d3750E:
Lfunc_begin58:
	.loc	19 184 0 is_stmt 1
	.cfi_startproc
	.cfi_personality 155, _rust_eh_personality
	.cfi_lsda 16, Lexception11
	pushq	%rbp
	.cfi_def_cfa_offset 16
	.cfi_offset %rbp, -16
	movq	%rsp, %rbp
	.cfi_def_cfa_register %rbp
	subq	$80, %rsp
	xorl	%eax, %eax
	movq	%rdi, -32(%rbp)
	movq	%rsi, -24(%rbp)
Ltmp186:
	.loc	19 184 1 prologue_end
	testb	$1, %al
	movq	%rdi, -72(%rbp)
	movq	%rsi, -80(%rbp)
	jne	LBB58_7
	jmp	LBB58_12
LBB58_1:
	addq	$80, %rsp
	popq	%rbp
	retq
LBB58_2:
	movq	-16(%rbp), %rdi
	callq	__Unwind_Resume
	ud2
LBB58_3:
	movq	-56(%rbp), %rax
	shlq	$4, %rax
	movq	-72(%rbp), %rcx
	addq	%rax, %rcx
	movq	-56(%rbp), %rax
	addq	$1, %rax
	movq	%rax, -56(%rbp)
	movq	%rcx, %rdi
	callq	__ZN4core3ptr13drop_in_place17h71017bfd2918e330E
LBB58_4:
	.loc	19 0 1 is_stmt 0
	movq	-80(%rbp), %rax
	.loc	19 184 1
	cmpq	%rax, -56(%rbp)
	je	LBB58_2
	jmp	LBB58_3
LBB58_5:
	movq	-56(%rbp), %rax
	movq	%rax, %rcx
	shlq	$4, %rcx
	movq	-72(%rbp), %rdx
	addq	%rcx, %rdx
	incq	%rax
	movq	%rax, -56(%rbp)
Ltmp183:
	movq	%rdx, %rdi
	callq	__ZN4core3ptr13drop_in_place17h71017bfd2918e330E
Ltmp184:
	jmp	LBB58_6
LBB58_6:
	.loc	19 0 1
	movq	-80(%rbp), %rax
	.loc	19 184 1
	cmpq	%rax, -56(%rbp)
	je	LBB58_1
	jmp	LBB58_5
LBB58_7:
	movq	$0, -56(%rbp)
	jmp	LBB58_6
LBB58_8:
	movq	-48(%rbp), %rdi
	movq	-48(%rbp), %rax
	addq	$16, %rax
	movq	%rax, -48(%rbp)
	callq	__ZN4core3ptr13drop_in_place17h71017bfd2918e330E
LBB58_9:
	movq	-48(%rbp), %rax
	cmpq	-40(%rbp), %rax
	je	LBB58_2
	jmp	LBB58_8
LBB58_10:
	movq	-48(%rbp), %rax
	movq	%rax, %rcx
	addq	$16, %rcx
	movq	%rcx, -48(%rbp)
Ltmp180:
	movq	%rax, %rdi
	callq	__ZN4core3ptr13drop_in_place17h71017bfd2918e330E
Ltmp181:
	jmp	LBB58_11
LBB58_11:
	movq	-48(%rbp), %rax
	cmpq	-40(%rbp), %rax
	je	LBB58_1
	jmp	LBB58_10
LBB58_12:
	.loc	19 0 1
	movq	-72(%rbp), %rax
	.loc	19 184 1
	movq	%rax, -48(%rbp)
	movq	-80(%rbp), %rax
	shlq	$4, %rax
	addq	-48(%rbp), %rax
	movq	%rax, -40(%rbp)
	jmp	LBB58_11
Ltmp187:
LBB58_13:
Ltmp182:
	.loc	19 0 1
	movq	%rax, -16(%rbp)
	movl	%edx, -8(%rbp)
	jmp	LBB58_9
LBB58_14:
Ltmp185:
	movq	%rax, -16(%rbp)
	movl	%edx, -8(%rbp)
	jmp	LBB58_4
Lfunc_end58:
	.cfi_endproc
	.section	__TEXT,__gcc_except_tab
	.p2align	2
GCC_except_table58:
Lexception11:
	.byte	255
	.byte	255
	.byte	1
	.uleb128 Lcst_end11-Lcst_begin11
Lcst_begin11:
	.uleb128 Lfunc_begin58-Lfunc_begin58
	.uleb128 Ltmp183-Lfunc_begin58
	.byte	0
	.byte	0
	.uleb128 Ltmp183-Lfunc_begin58
	.uleb128 Ltmp184-Ltmp183
	.uleb128 Ltmp185-Lfunc_begin58
	.byte	0
	.uleb128 Ltmp184-Lfunc_begin58
	.uleb128 Ltmp180-Ltmp184
	.byte	0
	.byte	0
	.uleb128 Ltmp180-Lfunc_begin58
	.uleb128 Ltmp181-Ltmp180
	.uleb128 Ltmp182-Lfunc_begin58
	.byte	0
Lcst_end11:
	.p2align	2

	.section	__TEXT,__text,regular,pure_instructions
	.p2align	4, 0x90
__ZN4core3ptr13drop_in_place17h46eda7c39e0c71f0E:
Lfunc_begin59:
	.loc	19 184 0 is_stmt 1
	.cfi_startproc
	pushq	%rbp
	.cfi_def_cfa_offset 16
	.cfi_offset %rbp, -16
	movq	%rsp, %rbp
	.cfi_def_cfa_register %rbp
	subq	$16, %rsp
	movq	%rdi, -8(%rbp)
Ltmp188:
	.loc	19 184 1 prologue_end
	addq	$16, %rsp
	popq	%rbp
	retq
Ltmp189:
Lfunc_end59:
	.cfi_endproc

	.p2align	4, 0x90
__ZN4core3ptr13drop_in_place17h4a8900e681631349E:
Lfunc_begin60:
	.loc	19 184 0
	.cfi_startproc
	pushq	%rbp
	.cfi_def_cfa_offset 16
	.cfi_offset %rbp, -16
	movq	%rsp, %rbp
	.cfi_def_cfa_register %rbp
	subq	$16, %rsp
	movq	%rdi, -8(%rbp)
Ltmp190:
	.loc	19 184 1 prologue_end
	callq	__ZN77_$LT$alloc..raw_vec..RawVec$LT$T$C$A$GT$$u20$as$u20$core..ops..drop..Drop$GT$4drop17h966a522b4a0ddf28E
	addq	$16, %rsp
	popq	%rbp
	retq
Ltmp191:
Lfunc_end60:
	.cfi_endproc

	.p2align	4, 0x90
__ZN4core3ptr13drop_in_place17h4f8635fb7e571c64E:
Lfunc_begin61:
	.loc	19 184 0
	.cfi_startproc
	pushq	%rbp
	.cfi_def_cfa_offset 16
	.cfi_offset %rbp, -16
	movq	%rsp, %rbp
	.cfi_def_cfa_register %rbp
	subq	$16, %rsp
	movq	%rdi, -8(%rbp)
Ltmp192:
	.loc	19 184 1 prologue_end
	callq	__ZN166_$LT$$LT$alloc..collections..btree..map..IntoIter$LT$K$C$V$GT$$u20$as$u20$core..ops..drop..Drop$GT$..drop..DropGuard$LT$K$C$V$GT$$u20$as$u20$core..ops..drop..Drop$GT$4drop17h4d8ffc01f9ab5f66E
	addq	$16, %rsp
	popq	%rbp
	retq
Ltmp193:
Lfunc_end61:
	.cfi_endproc

	.p2align	4, 0x90
__ZN4core3ptr13drop_in_place17h550fdf783234d739E:
Lfunc_begin62:
	.loc	19 184 0
	.cfi_startproc
	pushq	%rbp
	.cfi_def_cfa_offset 16
	.cfi_offset %rbp, -16
	movq	%rsp, %rbp
	.cfi_def_cfa_register %rbp
	subq	$16, %rsp
	movq	%rdi, -8(%rbp)
Ltmp194:
	.loc	19 184 1 prologue_end
	callq	__ZN4core3ptr13drop_in_place17he0dca16419723bb9E
	addq	$16, %rsp
	popq	%rbp
	retq
Ltmp195:
Lfunc_end62:
	.cfi_endproc

	.p2align	4, 0x90
__ZN4core3ptr13drop_in_place17h5b0cad01837f7de9E:
Lfunc_begin63:
	.loc	19 184 0
	.cfi_startproc
	pushq	%rbp
	.cfi_def_cfa_offset 16
	.cfi_offset %rbp, -16
	movq	%rsp, %rbp
	.cfi_def_cfa_register %rbp
	subq	$16, %rsp
	movq	%rdi, -8(%rbp)
Ltmp196:
	.loc	19 184 1 prologue_end
	callq	__ZN4core3ptr13drop_in_place17hff84df4d6da6f119E
	addq	$16, %rsp
	popq	%rbp
	retq
Ltmp197:
Lfunc_end63:
	.cfi_endproc

	.p2align	4, 0x90
__ZN4core3ptr13drop_in_place17h6bb08f9efc3e2b79E:
Lfunc_begin64:
	.loc	19 184 0
	.cfi_startproc
	.cfi_personality 155, _rust_eh_personality
	.cfi_lsda 16, Lexception12
	pushq	%rbp
	.cfi_def_cfa_offset 16
	.cfi_offset %rbp, -16
	movq	%rsp, %rbp
	.cfi_def_cfa_register %rbp
	subq	$48, %rsp
	movq	%rdi, -24(%rbp)
Ltmp198:
	movq	%rdi, -40(%rbp)
Ltmp201:
	.loc	19 184 1 prologue_end
	callq	__ZN66_$LT$alloc..vec..Vec$LT$T$GT$$u20$as$u20$core..ops..drop..Drop$GT$4drop17hc0653026668913e3E
Ltmp199:
	jmp	LBB64_4
LBB64_1:
	movq	-16(%rbp), %rdi
	callq	__Unwind_Resume
	ud2
LBB64_2:
	addq	$48, %rsp
	popq	%rbp
	retq
LBB64_3:
	.loc	19 0 1 is_stmt 0
	movq	-40(%rbp), %rax
	.loc	19 184 1
	movq	%rax, %rdi
	callq	__ZN4core3ptr13drop_in_place17h910de3bf03f31739E
	jmp	LBB64_1
LBB64_4:
	.loc	19 0 1
	movq	-40(%rbp), %rax
	.loc	19 184 1
	movq	%rax, %rdi
	callq	__ZN4core3ptr13drop_in_place17h910de3bf03f31739E
	jmp	LBB64_2
Ltmp202:
LBB64_5:
Ltmp200:
	.loc	19 0 1
	movq	%rax, -16(%rbp)
	movl	%edx, -8(%rbp)
	jmp	LBB64_3
Lfunc_end64:
	.cfi_endproc
	.section	__TEXT,__gcc_except_tab
	.p2align	2
GCC_except_table64:
Lexception12:
	.byte	255
	.byte	255
	.byte	1
	.uleb128 Lcst_end12-Lcst_begin12
Lcst_begin12:
	.uleb128 Ltmp198-Lfunc_begin64
	.uleb128 Ltmp199-Ltmp198
	.uleb128 Ltmp200-Lfunc_begin64
	.byte	0
	.uleb128 Ltmp199-Lfunc_begin64
	.uleb128 Lfunc_end64-Ltmp199
	.byte	0
	.byte	0
Lcst_end12:
	.p2align	2

	.section	__TEXT,__text,regular,pure_instructions
	.p2align	4, 0x90
__ZN4core3ptr13drop_in_place17h6c05ad5b8e7b7fccE:
Lfunc_begin65:
	.loc	19 184 0 is_stmt 1
	.cfi_startproc
	.cfi_personality 155, _rust_eh_personality
	.cfi_lsda 16, Lexception13
	pushq	%rbp
	.cfi_def_cfa_offset 16
	.cfi_offset %rbp, -16
	movq	%rsp, %rbp
	.cfi_def_cfa_register %rbp
	subq	$48, %rsp
	movq	%rdi, -24(%rbp)
Ltmp203:
	movq	%rdi, -40(%rbp)
Ltmp206:
	.loc	19 184 1 prologue_end
	callq	__ZN4core3ptr13drop_in_place17h6bb08f9efc3e2b79E
Ltmp204:
	jmp	LBB65_4
LBB65_1:
	movq	-16(%rbp), %rdi
	callq	__Unwind_Resume
	ud2
LBB65_2:
	addq	$48, %rsp
	popq	%rbp
	retq
LBB65_3:
	.loc	19 0 1 is_stmt 0
	movq	-40(%rbp), %rax
	.loc	19 184 1
	addq	$24, %rax
	movq	%rax, %rdi
	callq	__ZN4core3ptr13drop_in_place17h6bb08f9efc3e2b79E
	jmp	LBB65_1
LBB65_4:
	.loc	19 0 1
	movq	-40(%rbp), %rax
	.loc	19 184 1
	addq	$24, %rax
	movq	%rax, %rdi
	callq	__ZN4core3ptr13drop_in_place17h6bb08f9efc3e2b79E
	jmp	LBB65_2
Ltmp207:
LBB65_5:
Ltmp205:
	.loc	19 0 1
	movq	%rax, -16(%rbp)
	movl	%edx, -8(%rbp)
	jmp	LBB65_3
Lfunc_end65:
	.cfi_endproc
	.section	__TEXT,__gcc_except_tab
	.p2align	2
GCC_except_table65:
Lexception13:
	.byte	255
	.byte	255
	.byte	1
	.uleb128 Lcst_end13-Lcst_begin13
Lcst_begin13:
	.uleb128 Ltmp203-Lfunc_begin65
	.uleb128 Ltmp204-Ltmp203
	.uleb128 Ltmp205-Lfunc_begin65
	.byte	0
	.uleb128 Ltmp204-Lfunc_begin65
	.uleb128 Lfunc_end65-Ltmp204
	.byte	0
	.byte	0
Lcst_end13:
	.p2align	2

	.section	__TEXT,__text,regular,pure_instructions
	.p2align	4, 0x90
__ZN4core3ptr13drop_in_place17h71017bfd2918e330E:
Lfunc_begin66:
	.loc	19 184 0 is_stmt 1
	.cfi_startproc
	.cfi_personality 155, _rust_eh_personality
	.cfi_lsda 16, Lexception14
	pushq	%rbp
	.cfi_def_cfa_offset 16
	.cfi_offset %rbp, -16
	movq	%rsp, %rbp
	.cfi_def_cfa_register %rbp
	subq	$48, %rsp
	movq	%rdi, -24(%rbp)
Ltmp208:
	movq	%rdi, -40(%rbp)
Ltmp211:
	.loc	19 184 1 prologue_end
	callq	__ZN66_$LT$std..ffi..c_str..CString$u20$as$u20$core..ops..drop..Drop$GT$4drop17h02aa4dc105b19fa8E
Ltmp209:
	jmp	LBB66_4
LBB66_1:
	movq	-16(%rbp), %rdi
	callq	__Unwind_Resume
	ud2
LBB66_2:
	addq	$48, %rsp
	popq	%rbp
	retq
LBB66_3:
	.loc	19 0 1 is_stmt 0
	movq	-40(%rbp), %rax
	.loc	19 184 1
	movq	%rax, %rdi
	callq	__ZN4core3ptr13drop_in_place17h18d9a76ca9300c0dE
	jmp	LBB66_1
LBB66_4:
	.loc	19 0 1
	movq	-40(%rbp), %rax
	.loc	19 184 1
	movq	%rax, %rdi
	callq	__ZN4core3ptr13drop_in_place17h18d9a76ca9300c0dE
	jmp	LBB66_2
Ltmp212:
LBB66_5:
Ltmp210:
	.loc	19 0 1
	movq	%rax, -16(%rbp)
	movl	%edx, -8(%rbp)
	jmp	LBB66_3
Lfunc_end66:
	.cfi_endproc
	.section	__TEXT,__gcc_except_tab
	.p2align	2
GCC_except_table66:
Lexception14:
	.byte	255
	.byte	255
	.byte	1
	.uleb128 Lcst_end14-Lcst_begin14
Lcst_begin14:
	.uleb128 Ltmp208-Lfunc_begin66
	.uleb128 Ltmp209-Ltmp208
	.uleb128 Ltmp210-Lfunc_begin66
	.byte	0
	.uleb128 Ltmp209-Lfunc_begin66
	.uleb128 Lfunc_end66-Ltmp209
	.byte	0
	.byte	0
Lcst_end14:
	.p2align	2

	.section	__TEXT,__text,regular,pure_instructions
	.p2align	4, 0x90
__ZN4core3ptr13drop_in_place17h77a111e68e5860cbE:
Lfunc_begin67:
	.loc	19 184 0 is_stmt 1
	.cfi_startproc
	pushq	%rbp
	.cfi_def_cfa_offset 16
	.cfi_offset %rbp, -16
	movq	%rsp, %rbp
	.cfi_def_cfa_register %rbp
	subq	$16, %rsp
	movq	%rdi, -8(%rbp)
Ltmp213:
	.loc	19 184 1 prologue_end
	callq	__ZN4core3ptr13drop_in_place17hf808e6c690c882a8E
	addq	$16, %rsp
	popq	%rbp
	retq
Ltmp214:
Lfunc_end67:
	.cfi_endproc

	.p2align	4, 0x90
__ZN4core3ptr13drop_in_place17h85bdae504decbc4cE:
Lfunc_begin68:
	.loc	19 184 0
	.cfi_startproc
	pushq	%rbp
	.cfi_def_cfa_offset 16
	.cfi_offset %rbp, -16
	movq	%rsp, %rbp
	.cfi_def_cfa_register %rbp
	subq	$32, %rsp
	xorl	%eax, %eax
	movl	%eax, %ecx
	movq	%rdi, -8(%rbp)
Ltmp215:
	.loc	19 184 1 prologue_end
	cmpq	$0, (%rdi)
	movl	$1, %edx
	cmovbeq	%rcx, %rdx
	cmpq	$0, %rdx
	movq	%rdi, -24(%rbp)
	jne	LBB68_2
LBB68_1:
	addq	$32, %rsp
	popq	%rbp
	retq
LBB68_2:
	.loc	19 0 1 is_stmt 0
	movq	-24(%rbp), %rax
	.loc	19 184 1
	movq	%rax, %rdi
	callq	__ZN4core3ptr13drop_in_place17h3c3be387784c8551E
	jmp	LBB68_1
Ltmp216:
Lfunc_end68:
	.cfi_endproc

	.p2align	4, 0x90
__ZN4core3ptr13drop_in_place17h87659827748ade6fE:
Lfunc_begin69:
	.loc	19 184 0 is_stmt 1
	.cfi_startproc
	.cfi_personality 155, _rust_eh_personality
	.cfi_lsda 16, Lexception15
	pushq	%rbp
	.cfi_def_cfa_offset 16
	.cfi_offset %rbp, -16
	movq	%rsp, %rbp
	.cfi_def_cfa_register %rbp
	subq	$80, %rsp
	xorl	%eax, %eax
	movq	%rdi, -32(%rbp)
	movq	%rsi, -24(%rbp)
Ltmp223:
	.loc	19 184 1 prologue_end
	testb	$1, %al
	movq	%rdi, -72(%rbp)
	movq	%rsi, -80(%rbp)
	jne	LBB69_7
	jmp	LBB69_12
LBB69_1:
	addq	$80, %rsp
	popq	%rbp
	retq
LBB69_2:
	movq	-16(%rbp), %rdi
	callq	__Unwind_Resume
	ud2
LBB69_3:
	movq	-56(%rbp), %rax
	shlq	$4, %rax
	movq	-72(%rbp), %rcx
	addq	%rax, %rcx
	movq	-56(%rbp), %rax
	addq	$1, %rax
	movq	%rax, -56(%rbp)
	movq	%rcx, %rdi
	callq	__ZN4core3ptr13drop_in_place17h2d7a393bcee220c7E
LBB69_4:
	.loc	19 0 1 is_stmt 0
	movq	-80(%rbp), %rax
	.loc	19 184 1
	cmpq	%rax, -56(%rbp)
	je	LBB69_2
	jmp	LBB69_3
LBB69_5:
	movq	-56(%rbp), %rax
	movq	%rax, %rcx
	shlq	$4, %rcx
	movq	-72(%rbp), %rdx
	addq	%rcx, %rdx
	incq	%rax
	movq	%rax, -56(%rbp)
Ltmp220:
	movq	%rdx, %rdi
	callq	__ZN4core3ptr13drop_in_place17h2d7a393bcee220c7E
Ltmp221:
	jmp	LBB69_6
LBB69_6:
	.loc	19 0 1
	movq	-80(%rbp), %rax
	.loc	19 184 1
	cmpq	%rax, -56(%rbp)
	je	LBB69_1
	jmp	LBB69_5
LBB69_7:
	movq	$0, -56(%rbp)
	jmp	LBB69_6
LBB69_8:
	movq	-48(%rbp), %rdi
	movq	-48(%rbp), %rax
	addq	$16, %rax
	movq	%rax, -48(%rbp)
	callq	__ZN4core3ptr13drop_in_place17h2d7a393bcee220c7E
LBB69_9:
	movq	-48(%rbp), %rax
	cmpq	-40(%rbp), %rax
	je	LBB69_2
	jmp	LBB69_8
LBB69_10:
	movq	-48(%rbp), %rax
	movq	%rax, %rcx
	addq	$16, %rcx
	movq	%rcx, -48(%rbp)
Ltmp217:
	movq	%rax, %rdi
	callq	__ZN4core3ptr13drop_in_place17h2d7a393bcee220c7E
Ltmp218:
	jmp	LBB69_11
LBB69_11:
	movq	-48(%rbp), %rax
	cmpq	-40(%rbp), %rax
	je	LBB69_1
	jmp	LBB69_10
LBB69_12:
	.loc	19 0 1
	movq	-72(%rbp), %rax
	.loc	19 184 1
	movq	%rax, -48(%rbp)
	movq	-80(%rbp), %rax
	shlq	$4, %rax
	addq	-48(%rbp), %rax
	movq	%rax, -40(%rbp)
	jmp	LBB69_11
Ltmp224:
LBB69_13:
Ltmp219:
	.loc	19 0 1
	movq	%rax, -16(%rbp)
	movl	%edx, -8(%rbp)
	jmp	LBB69_9
LBB69_14:
Ltmp222:
	movq	%rax, -16(%rbp)
	movl	%edx, -8(%rbp)
	jmp	LBB69_4
Lfunc_end69:
	.cfi_endproc
	.section	__TEXT,__gcc_except_tab
	.p2align	2
GCC_except_table69:
Lexception15:
	.byte	255
	.byte	255
	.byte	1
	.uleb128 Lcst_end15-Lcst_begin15
Lcst_begin15:
	.uleb128 Lfunc_begin69-Lfunc_begin69
	.uleb128 Ltmp220-Lfunc_begin69
	.byte	0
	.byte	0
	.uleb128 Ltmp220-Lfunc_begin69
	.uleb128 Ltmp221-Ltmp220
	.uleb128 Ltmp222-Lfunc_begin69
	.byte	0
	.uleb128 Ltmp221-Lfunc_begin69
	.uleb128 Ltmp217-Ltmp221
	.byte	0
	.byte	0
	.uleb128 Ltmp217-Lfunc_begin69
	.uleb128 Ltmp218-Ltmp217
	.uleb128 Ltmp219-Lfunc_begin69
	.byte	0
Lcst_end15:
	.p2align	2

	.section	__TEXT,__text,regular,pure_instructions
	.p2align	4, 0x90
__ZN4core3ptr13drop_in_place17h910de3bf03f31739E:
Lfunc_begin70:
	.loc	19 184 0 is_stmt 1
	.cfi_startproc
	pushq	%rbp
	.cfi_def_cfa_offset 16
	.cfi_offset %rbp, -16
	movq	%rsp, %rbp
	.cfi_def_cfa_register %rbp
	subq	$16, %rsp
	movq	%rdi, -8(%rbp)
Ltmp225:
	.loc	19 184 1 prologue_end
	callq	__ZN77_$LT$alloc..raw_vec..RawVec$LT$T$C$A$GT$$u20$as$u20$core..ops..drop..Drop$GT$4drop17hb6d81ed174608750E
	addq	$16, %rsp
	popq	%rbp
	retq
Ltmp226:
Lfunc_end70:
	.cfi_endproc

	.p2align	4, 0x90
__ZN4core3ptr13drop_in_place17h93f304b0d24efec0E:
Lfunc_begin71:
	.loc	19 184 0
	.cfi_startproc
	pushq	%rbp
	.cfi_def_cfa_offset 16
	.cfi_offset %rbp, -16
	movq	%rsp, %rbp
	.cfi_def_cfa_register %rbp
	subq	$16, %rsp
	movq	%rdi, -8(%rbp)
Ltmp227:
	.loc	19 184 1 prologue_end
	callq	__ZN4core3ptr13drop_in_place17h34810a4115464d01E
	addq	$16, %rsp
	popq	%rbp
	retq
Ltmp228:
Lfunc_end71:
	.cfi_endproc

	.p2align	4, 0x90
__ZN4core3ptr13drop_in_place17h943540c7d302842cE:
Lfunc_begin72:
	.loc	19 184 0
	.cfi_startproc
	pushq	%rbp
	.cfi_def_cfa_offset 16
	.cfi_offset %rbp, -16
	movq	%rsp, %rbp
	.cfi_def_cfa_register %rbp
	subq	$16, %rsp
	movq	%rdi, -8(%rbp)
Ltmp229:
	.loc	19 184 1 prologue_end
	callq	__ZN95_$LT$alloc..collections..btree..map..IntoIter$LT$K$C$V$GT$$u20$as$u20$core..ops..drop..Drop$GT$4drop17hc45266b85e2b4b00E
	addq	$16, %rsp
	popq	%rbp
	retq
Ltmp230:
Lfunc_end72:
	.cfi_endproc

	.p2align	4, 0x90
__ZN4core3ptr13drop_in_place17h9ea772a75c24b66eE:
Lfunc_begin73:
	.loc	19 184 0
	.cfi_startproc
	pushq	%rbp
	.cfi_def_cfa_offset 16
	.cfi_offset %rbp, -16
	movq	%rsp, %rbp
	.cfi_def_cfa_register %rbp
	subq	$32, %rsp
	xorl	%eax, %eax
	movl	%eax, %ecx
	movq	%rdi, -8(%rbp)
Ltmp231:
	.loc	19 184 1 prologue_end
	cmpq	$0, (%rdi)
	movl	$1, %edx
	cmovbeq	%rcx, %rdx
	cmpq	$0, %rdx
	movq	%rdi, -24(%rbp)
	jne	LBB73_2
LBB73_1:
	addq	$32, %rsp
	popq	%rbp
	retq
LBB73_2:
	.loc	19 0 1 is_stmt 0
	movq	-24(%rbp), %rax
	.loc	19 184 1
	movq	%rax, %rdi
	callq	__ZN4core3ptr13drop_in_place17h93f304b0d24efec0E
	jmp	LBB73_1
Ltmp232:
Lfunc_end73:
	.cfi_endproc

	.p2align	4, 0x90
__ZN4core3ptr13drop_in_place17ha8f5563571bc998fE:
Lfunc_begin74:
	.loc	19 184 0 is_stmt 1
	.cfi_startproc
	.cfi_personality 155, _rust_eh_personality
	.cfi_lsda 16, Lexception16
	pushq	%rbp
	.cfi_def_cfa_offset 16
	.cfi_offset %rbp, -16
	movq	%rsp, %rbp
	.cfi_def_cfa_register %rbp
	subq	$48, %rsp
	movq	%rdi, -24(%rbp)
Ltmp236:
	.loc	19 184 1 prologue_end
	movq	(%rdi), %rax
	movq	8(%rdi), %rcx
	movq	(%rcx), %rcx
Ltmp233:
	movq	%rdi, -40(%rbp)
	movq	%rax, %rdi
	callq	*%rcx
Ltmp234:
	jmp	LBB74_3
LBB74_1:
	addq	$48, %rsp
	popq	%rbp
	retq
LBB74_2:
	movq	-16(%rbp), %rdi
	callq	__Unwind_Resume
	ud2
LBB74_3:
	.loc	19 0 1 is_stmt 0
	movq	-40(%rbp), %rax
	.loc	19 184 1
	movq	(%rax), %rdi
	movq	8(%rax), %rsi
	callq	__ZN5alloc5alloc8box_free17h8cc53c1a3d22e6b6E
	jmp	LBB74_1
LBB74_4:
	.loc	19 0 1
	movq	-40(%rbp), %rax
	.loc	19 184 1
	movq	(%rax), %rdi
	movq	8(%rax), %rsi
	callq	__ZN5alloc5alloc8box_free17h8cc53c1a3d22e6b6E
	jmp	LBB74_2
Ltmp237:
LBB74_5:
Ltmp235:
	.loc	19 0 1
	movq	%rax, -16(%rbp)
	movl	%edx, -8(%rbp)
	jmp	LBB74_4
Lfunc_end74:
	.cfi_endproc
	.section	__TEXT,__gcc_except_tab
	.p2align	2
GCC_except_table74:
Lexception16:
	.byte	255
	.byte	255
	.byte	1
	.uleb128 Lcst_end16-Lcst_begin16
Lcst_begin16:
	.uleb128 Ltmp233-Lfunc_begin74
	.uleb128 Ltmp234-Ltmp233
	.uleb128 Ltmp235-Lfunc_begin74
	.byte	0
	.uleb128 Ltmp234-Lfunc_begin74
	.uleb128 Lfunc_end74-Ltmp234
	.byte	0
	.byte	0
Lcst_end16:
	.p2align	2

	.section	__TEXT,__text,regular,pure_instructions
	.p2align	4, 0x90
__ZN4core3ptr13drop_in_place17hb598ade5d879813fE:
Lfunc_begin75:
	.loc	19 184 0 is_stmt 1
	.cfi_startproc
	pushq	%rbp
	.cfi_def_cfa_offset 16
	.cfi_offset %rbp, -16
	movq	%rsp, %rbp
	.cfi_def_cfa_register %rbp
	subq	$32, %rsp
	xorl	%eax, %eax
	movl	%eax, %ecx
	movq	%rdi, -8(%rbp)
Ltmp238:
	.loc	19 184 1 prologue_end
	movl	(%rdi), %eax
	subl	$4, %eax
	cmpl	$0, %eax
	movl	$1, %edx
	cmovbeq	%rcx, %rdx
	cmpq	$0, %rdx
	movq	%rdi, -24(%rbp)
	jne	LBB75_2
LBB75_1:
	addq	$32, %rsp
	popq	%rbp
	retq
LBB75_2:
	.loc	19 0 1 is_stmt 0
	movq	-24(%rbp), %rdi
	.loc	19 184 1
	callq	__ZN4core3ptr13drop_in_place17hc6e8725e9c06427dE
	jmp	LBB75_1
Ltmp239:
Lfunc_end75:
	.cfi_endproc

	.p2align	4, 0x90
__ZN4core3ptr13drop_in_place17hb87d91dac2b8334eE:
Lfunc_begin76:
	.loc	19 184 0 is_stmt 1
	.cfi_startproc
	pushq	%rbp
	.cfi_def_cfa_offset 16
	.cfi_offset %rbp, -16
	movq	%rsp, %rbp
	.cfi_def_cfa_register %rbp
	subq	$32, %rsp
	xorl	%eax, %eax
	movl	%eax, %ecx
	movq	%rdi, -8(%rbp)
Ltmp240:
	.loc	19 184 1 prologue_end
	cmpq	$0, (%rdi)
	movl	$1, %edx
	cmovbeq	%rcx, %rdx
	cmpq	$0, %rdx
	movq	%rdi, -24(%rbp)
	jne	LBB76_2
LBB76_1:
	addq	$32, %rsp
	popq	%rbp
	retq
LBB76_2:
	.loc	19 0 1 is_stmt 0
	movq	-24(%rbp), %rdi
	.loc	19 184 1
	callq	__ZN4core3ptr13drop_in_place17h71017bfd2918e330E
	jmp	LBB76_1
Ltmp241:
Lfunc_end76:
	.cfi_endproc

	.p2align	4, 0x90
__ZN4core3ptr13drop_in_place17hc48cbf6b0722bfceE:
Lfunc_begin77:
	.loc	19 184 0 is_stmt 1
	.cfi_startproc
	pushq	%rbp
	.cfi_def_cfa_offset 16
	.cfi_offset %rbp, -16
	movq	%rsp, %rbp
	.cfi_def_cfa_register %rbp
	subq	$16, %rsp
	movq	%rdi, -8(%rbp)
Ltmp242:
	.loc	19 184 1 prologue_end
	callq	__ZN77_$LT$alloc..raw_vec..RawVec$LT$T$C$A$GT$$u20$as$u20$core..ops..drop..Drop$GT$4drop17hfe1a165244393b16E
	addq	$16, %rsp
	popq	%rbp
	retq
Ltmp243:
Lfunc_end77:
	.cfi_endproc

	.p2align	4, 0x90
__ZN4core3ptr13drop_in_place17hc6e8725e9c06427dE:
Lfunc_begin78:
	.loc	19 184 0
	.cfi_startproc
	pushq	%rbp
	.cfi_def_cfa_offset 16
	.cfi_offset %rbp, -16
	movq	%rsp, %rbp
	.cfi_def_cfa_register %rbp
	subq	$32, %rsp
	movq	%rdi, -8(%rbp)
Ltmp244:
	.loc	19 184 1 prologue_end
	movl	(%rdi), %eax
	subl	$2, %eax
	movq	%rdi, -24(%rbp)
	ja	LBB78_2
	jmp	LBB78_1
LBB78_1:
	addq	$32, %rsp
	popq	%rbp
	retq
LBB78_2:
	.loc	19 0 1 is_stmt 0
	movq	-24(%rbp), %rax
	.loc	19 184 1
	addq	$4, %rax
	movq	%rax, %rdi
	callq	__ZN4core3ptr13drop_in_place17h03918638005d154aE
	jmp	LBB78_1
Ltmp245:
Lfunc_end78:
	.cfi_endproc

	.p2align	4, 0x90
__ZN4core3ptr13drop_in_place17hd77d7866e1270410E:
Lfunc_begin79:
	.loc	19 184 0 is_stmt 1
	.cfi_startproc
	pushq	%rbp
	.cfi_def_cfa_offset 16
	.cfi_offset %rbp, -16
	movq	%rsp, %rbp
	.cfi_def_cfa_register %rbp
	subq	$16, %rsp
	movq	%rdi, -8(%rbp)
Ltmp246:
	.loc	19 184 1 prologue_end
	callq	__ZN77_$LT$alloc..raw_vec..RawVec$LT$T$C$A$GT$$u20$as$u20$core..ops..drop..Drop$GT$4drop17ha5d0a248bc1110f2E
	addq	$16, %rsp
	popq	%rbp
	retq
Ltmp247:
Lfunc_end79:
	.cfi_endproc

	.p2align	4, 0x90
__ZN4core3ptr13drop_in_place17he0dca16419723bb9E:
Lfunc_begin80:
	.loc	19 184 0
	.cfi_startproc
	.cfi_personality 155, _rust_eh_personality
	.cfi_lsda 16, Lexception17
	pushq	%rbp
	.cfi_def_cfa_offset 16
	.cfi_offset %rbp, -16
	movq	%rsp, %rbp
	.cfi_def_cfa_register %rbp
	subq	$48, %rsp
	movq	%rdi, -24(%rbp)
Ltmp248:
	movq	%rdi, -40(%rbp)
Ltmp272:
	.loc	19 184 1 prologue_end
	callq	__ZN4core3ptr13drop_in_place17h71017bfd2918e330E
Ltmp249:
	jmp	LBB80_18
LBB80_1:
	movq	-16(%rbp), %rdi
	callq	__Unwind_Resume
	ud2
LBB80_2:
	addq	$48, %rsp
	popq	%rbp
	retq
LBB80_3:
	.loc	19 0 1 is_stmt 0
	movq	-40(%rbp), %rax
	.loc	19 184 1
	addq	$168, %rax
	movq	%rax, %rdi
	callq	__ZN4core3ptr13drop_in_place17hb598ade5d879813fE
	jmp	LBB80_1
LBB80_4:
	.loc	19 0 1
	movq	-40(%rbp), %rax
	.loc	19 184 1
	addq	$160, %rax
	movq	%rax, %rdi
	callq	__ZN4core3ptr13drop_in_place17hb598ade5d879813fE
	jmp	LBB80_3
LBB80_5:
	.loc	19 0 1
	movq	-40(%rbp), %rax
	.loc	19 184 1
	addq	$152, %rax
	movq	%rax, %rdi
	callq	__ZN4core3ptr13drop_in_place17hb598ade5d879813fE
	jmp	LBB80_4
LBB80_6:
	.loc	19 0 1
	movq	-40(%rbp), %rax
	.loc	19 184 1
	addq	$112, %rax
	movq	%rax, %rdi
	callq	__ZN4core3ptr13drop_in_place17h0039f52c509032d3E
	jmp	LBB80_5
LBB80_7:
	.loc	19 0 1
	movq	-40(%rbp), %rax
	.loc	19 184 1
	addq	$96, %rax
	movq	%rax, %rdi
	callq	__ZN4core3ptr13drop_in_place17hb87d91dac2b8334eE
	jmp	LBB80_6
LBB80_8:
	.loc	19 0 1
	movq	-40(%rbp), %rax
	.loc	19 184 1
	addq	$64, %rax
	movq	%rax, %rdi
	callq	__ZN4core3ptr13drop_in_place17h77a111e68e5860cbE
	jmp	LBB80_7
LBB80_9:
	.loc	19 0 1
	movq	-40(%rbp), %rax
	.loc	19 184 1
	addq	$40, %rax
	movq	%rax, %rdi
	callq	__ZN4core3ptr13drop_in_place17h17c7c8e1676411ccE
	jmp	LBB80_8
LBB80_10:
	.loc	19 0 1
	movq	-40(%rbp), %rax
	.loc	19 184 1
	addq	$16, %rax
	movq	%rax, %rdi
	callq	__ZN4core3ptr13drop_in_place17h297d8343677a0330E
	jmp	LBB80_9
LBB80_11:
	.loc	19 0 1
	movq	-40(%rbp), %rax
	.loc	19 184 1
	addq	$168, %rax
	movq	%rax, %rdi
	callq	__ZN4core3ptr13drop_in_place17hb598ade5d879813fE
	jmp	LBB80_2
LBB80_12:
	.loc	19 0 1
	movq	-40(%rbp), %rax
	.loc	19 184 1
	addq	$160, %rax
Ltmp269:
	movq	%rax, %rdi
	callq	__ZN4core3ptr13drop_in_place17hb598ade5d879813fE
Ltmp270:
	jmp	LBB80_11
LBB80_13:
	.loc	19 0 1
	movq	-40(%rbp), %rax
	.loc	19 184 1
	addq	$152, %rax
Ltmp266:
	movq	%rax, %rdi
	callq	__ZN4core3ptr13drop_in_place17hb598ade5d879813fE
Ltmp267:
	jmp	LBB80_12
LBB80_14:
	.loc	19 0 1
	movq	-40(%rbp), %rax
	.loc	19 184 1
	addq	$112, %rax
Ltmp263:
	movq	%rax, %rdi
	callq	__ZN4core3ptr13drop_in_place17h0039f52c509032d3E
Ltmp264:
	jmp	LBB80_13
LBB80_15:
	.loc	19 0 1
	movq	-40(%rbp), %rax
	.loc	19 184 1
	addq	$96, %rax
Ltmp260:
	movq	%rax, %rdi
	callq	__ZN4core3ptr13drop_in_place17hb87d91dac2b8334eE
Ltmp261:
	jmp	LBB80_14
LBB80_16:
	.loc	19 0 1
	movq	-40(%rbp), %rax
	.loc	19 184 1
	addq	$64, %rax
Ltmp257:
	movq	%rax, %rdi
	callq	__ZN4core3ptr13drop_in_place17h77a111e68e5860cbE
Ltmp258:
	jmp	LBB80_15
LBB80_17:
	.loc	19 0 1
	movq	-40(%rbp), %rax
	.loc	19 184 1
	addq	$40, %rax
Ltmp254:
	movq	%rax, %rdi
	callq	__ZN4core3ptr13drop_in_place17h17c7c8e1676411ccE
Ltmp255:
	jmp	LBB80_16
LBB80_18:
	.loc	19 0 1
	movq	-40(%rbp), %rax
	.loc	19 184 1
	addq	$16, %rax
Ltmp251:
	movq	%rax, %rdi
	callq	__ZN4core3ptr13drop_in_place17h297d8343677a0330E
Ltmp252:
	jmp	LBB80_17
Ltmp273:
LBB80_19:
Ltmp250:
	.loc	19 0 1
	movq	%rax, -16(%rbp)
	movl	%edx, -8(%rbp)
	jmp	LBB80_10
LBB80_20:
Ltmp253:
	movq	%rax, -16(%rbp)
	movl	%edx, -8(%rbp)
	jmp	LBB80_9
LBB80_21:
Ltmp256:
	movq	%rax, -16(%rbp)
	movl	%edx, -8(%rbp)
	jmp	LBB80_8
LBB80_22:
Ltmp259:
	movq	%rax, -16(%rbp)
	movl	%edx, -8(%rbp)
	jmp	LBB80_7
LBB80_23:
Ltmp262:
	movq	%rax, -16(%rbp)
	movl	%edx, -8(%rbp)
	jmp	LBB80_6
LBB80_24:
Ltmp265:
	movq	%rax, -16(%rbp)
	movl	%edx, -8(%rbp)
	jmp	LBB80_5
LBB80_25:
Ltmp268:
	movq	%rax, -16(%rbp)
	movl	%edx, -8(%rbp)
	jmp	LBB80_4
LBB80_26:
Ltmp271:
	movq	%rax, -16(%rbp)
	movl	%edx, -8(%rbp)
	jmp	LBB80_3
Lfunc_end80:
	.cfi_endproc
	.section	__TEXT,__gcc_except_tab
	.p2align	2
GCC_except_table80:
Lexception17:
	.byte	255
	.byte	255
	.byte	1
	.uleb128 Lcst_end17-Lcst_begin17
Lcst_begin17:
	.uleb128 Ltmp248-Lfunc_begin80
	.uleb128 Ltmp249-Ltmp248
	.uleb128 Ltmp250-Lfunc_begin80
	.byte	0
	.uleb128 Ltmp249-Lfunc_begin80
	.uleb128 Ltmp269-Ltmp249
	.byte	0
	.byte	0
	.uleb128 Ltmp269-Lfunc_begin80
	.uleb128 Ltmp270-Ltmp269
	.uleb128 Ltmp271-Lfunc_begin80
	.byte	0
	.uleb128 Ltmp266-Lfunc_begin80
	.uleb128 Ltmp267-Ltmp266
	.uleb128 Ltmp268-Lfunc_begin80
	.byte	0
	.uleb128 Ltmp263-Lfunc_begin80
	.uleb128 Ltmp264-Ltmp263
	.uleb128 Ltmp265-Lfunc_begin80
	.byte	0
	.uleb128 Ltmp260-Lfunc_begin80
	.uleb128 Ltmp261-Ltmp260
	.uleb128 Ltmp262-Lfunc_begin80
	.byte	0
	.uleb128 Ltmp257-Lfunc_begin80
	.uleb128 Ltmp258-Ltmp257
	.uleb128 Ltmp259-Lfunc_begin80
	.byte	0
	.uleb128 Ltmp254-Lfunc_begin80
	.uleb128 Ltmp255-Ltmp254
	.uleb128 Ltmp256-Lfunc_begin80
	.byte	0
	.uleb128 Ltmp251-Lfunc_begin80
	.uleb128 Ltmp252-Ltmp251
	.uleb128 Ltmp253-Lfunc_begin80
	.byte	0
Lcst_end17:
	.p2align	2

	.section	__TEXT,__text,regular,pure_instructions
	.p2align	4, 0x90
__ZN4core3ptr13drop_in_place17hf2de9429ac381376E:
Lfunc_begin81:
	.loc	19 184 0 is_stmt 1
	.cfi_startproc
	pushq	%rbp
	.cfi_def_cfa_offset 16
	.cfi_offset %rbp, -16
	movq	%rsp, %rbp
	.cfi_def_cfa_register %rbp
	subq	$32, %rsp
	movq	%rdi, -16(%rbp)
	movq	%rsi, -8(%rbp)
Ltmp274:
	.loc	19 184 1 prologue_end
	callq	*(%rsi)
	addq	$32, %rsp
	popq	%rbp
	retq
Ltmp275:
Lfunc_end81:
	.cfi_endproc

	.p2align	4, 0x90
__ZN4core3ptr13drop_in_place17hf808e6c690c882a8E:
Lfunc_begin82:
	.loc	19 184 0
	.cfi_startproc
	pushq	%rbp
	.cfi_def_cfa_offset 16
	.cfi_offset %rbp, -16
	movq	%rsp, %rbp
	.cfi_def_cfa_register %rbp
	subq	$16, %rsp
	movq	%rdi, -8(%rbp)
Ltmp276:
	.loc	19 184 1 prologue_end
	callq	__ZN95_$LT$alloc..collections..btree..map..BTreeMap$LT$K$C$V$GT$$u20$as$u20$core..ops..drop..Drop$GT$4drop17hfb3c666f21aed098E
	addq	$16, %rsp
	popq	%rbp
	retq
Ltmp277:
Lfunc_end82:
	.cfi_endproc

	.p2align	4, 0x90
__ZN4core3ptr13drop_in_place17hff84df4d6da6f119E:
Lfunc_begin83:
	.loc	19 184 0
	.cfi_startproc
	pushq	%rbp
	.cfi_def_cfa_offset 16
	.cfi_offset %rbp, -16
	movq	%rsp, %rbp
	.cfi_def_cfa_register %rbp
	subq	$32, %rsp
	movq	%rdi, -8(%rbp)
Ltmp278:
	.loc	19 184 1 prologue_end
	movb	(%rdi), %al
	subb	$1, %al
	movq	%rdi, -24(%rbp)
	ja	LBB83_2
	jmp	LBB83_1
LBB83_1:
	addq	$32, %rsp
	popq	%rbp
	retq
LBB83_2:
	.loc	19 0 1 is_stmt 0
	movq	-24(%rbp), %rax
	.loc	19 184 1
	addq	$8, %rax
	movq	%rax, %rdi
	callq	__ZN4core3ptr13drop_in_place17h24b78902c93123feE
	jmp	LBB83_1
Ltmp279:
Lfunc_end83:
	.cfi_endproc

	.p2align	4, 0x90
__ZN4core3ptr19swap_nonoverlapping17hef16ecbdfc7dd921E:
Lfunc_begin84:
	.loc	19 430 0 is_stmt 1
	.cfi_startproc
	pushq	%rbp
	.cfi_def_cfa_offset 16
	.cfi_offset %rbp, -16
	movq	%rsp, %rbp
	.cfi_def_cfa_register %rbp
	subq	$96, %rsp
	movq	%rdi, -56(%rbp)
	movq	%rsi, -48(%rbp)
	movq	%rdx, -40(%rbp)
Ltmp280:
	.loc	19 440 13 prologue_end
	movq	%rdi, -32(%rbp)
Ltmp281:
	.loc	19 441 13
	movq	%rsi, -24(%rbp)
Ltmp282:
	.loc	16 310 5
	movq	$16, -8(%rbp)
	movq	-8(%rbp), %rax
	movq	%rdx, -64(%rbp)
	movq	%rdi, -72(%rbp)
	movq	%rsi, -80(%rbp)
	movq	%rax, -88(%rbp)
Ltmp283:
	.loc	16 0 5 is_stmt 0
	movq	-88(%rbp), %rax
	movq	-64(%rbp), %rcx
	.loc	19 442 15 is_stmt 1
	imulq	%rcx, %rax
	movq	%rax, -16(%rbp)
	movq	-72(%rbp), %rdi
	movq	-80(%rbp), %rsi
Ltmp284:
	.loc	19 445 14
	movq	%rax, %rdx
	callq	__ZN4core3ptr25swap_nonoverlapping_bytes17hcc472bec5fecddebE
Ltmp285:
	.loc	19 446 2
	addq	$96, %rsp
	popq	%rbp
	retq
Ltmp286:
Lfunc_end84:
	.cfi_endproc

	.p2align	4, 0x90
__ZN4core3ptr20slice_from_raw_parts17h0dbae17e769a9425E:
Lfunc_begin85:
	.loc	19 264 0
	.cfi_startproc
	pushq	%rbp
	.cfi_def_cfa_offset 16
	.cfi_offset %rbp, -16
	movq	%rsp, %rbp
	.cfi_def_cfa_register %rbp
	subq	$48, %rsp
	movq	%rdi, -16(%rbp)
	movq	%rsi, -8(%rbp)
Ltmp287:
	.loc	19 268 26 prologue_end
	movq	%rdi, -32(%rbp)
	movq	%rsi, -24(%rbp)
	.loc	19 268 14 is_stmt 0
	movq	-32(%rbp), %rax
	movq	-24(%rbp), %rcx
	movq	%rax, -48(%rbp)
	movq	%rcx, -40(%rbp)
	movq	-48(%rbp), %rax
	movq	-40(%rbp), %rdx
	.loc	19 269 2 is_stmt 1
	addq	$48, %rsp
	popq	%rbp
	retq
Ltmp288:
Lfunc_end85:
	.cfi_endproc

	.p2align	4, 0x90
__ZN4core3ptr20slice_from_raw_parts17h389f779b6eace06aE:
Lfunc_begin86:
	.loc	19 264 0
	.cfi_startproc
	pushq	%rbp
	.cfi_def_cfa_offset 16
	.cfi_offset %rbp, -16
	movq	%rsp, %rbp
	.cfi_def_cfa_register %rbp
	subq	$48, %rsp
	movq	%rdi, -16(%rbp)
	movq	%rsi, -8(%rbp)
Ltmp289:
	.loc	19 268 26 prologue_end
	movq	%rdi, -32(%rbp)
	movq	%rsi, -24(%rbp)
	.loc	19 268 14 is_stmt 0
	movq	-32(%rbp), %rax
	movq	-24(%rbp), %rcx
	movq	%rax, -48(%rbp)
	movq	%rcx, -40(%rbp)
	movq	-48(%rbp), %rax
	movq	-40(%rbp), %rdx
	.loc	19 269 2 is_stmt 1
	addq	$48, %rsp
	popq	%rbp
	retq
Ltmp290:
Lfunc_end86:
	.cfi_endproc

	.p2align	4, 0x90
__ZN4core3ptr20slice_from_raw_parts17hbe5db4710ab42c2bE:
Lfunc_begin87:
	.loc	19 264 0
	.cfi_startproc
	pushq	%rbp
	.cfi_def_cfa_offset 16
	.cfi_offset %rbp, -16
	movq	%rsp, %rbp
	.cfi_def_cfa_register %rbp
	subq	$48, %rsp
	movq	%rdi, -16(%rbp)
	movq	%rsi, -8(%rbp)
Ltmp291:
	.loc	19 268 26 prologue_end
	movq	%rdi, -32(%rbp)
	movq	%rsi, -24(%rbp)
	.loc	19 268 14 is_stmt 0
	movq	-32(%rbp), %rax
	movq	-24(%rbp), %rcx
	movq	%rax, -48(%rbp)
	movq	%rcx, -40(%rbp)
	movq	-48(%rbp), %rax
	movq	-40(%rbp), %rdx
	.loc	19 269 2 is_stmt 1
	addq	$48, %rsp
	popq	%rbp
	retq
Ltmp292:
Lfunc_end87:
	.cfi_endproc

	.p2align	4, 0x90
__ZN4core3ptr23swap_nonoverlapping_one17h3e92218de31b75f0E:
Lfunc_begin88:
	.loc	19 449 0
	.cfi_startproc
	.cfi_personality 155, _rust_eh_personality
	.cfi_lsda 16, Lexception18
	pushq	%rbp
	.cfi_def_cfa_offset 16
	.cfi_offset %rbp, -16
	movq	%rsp, %rbp
	.cfi_def_cfa_register %rbp
	subq	$112, %rsp
	movq	%rdi, -56(%rbp)
	movq	%rsi, -48(%rbp)
Ltmp298:
	.loc	19 452 8 prologue_end
	movb	$0, -57(%rbp)
Ltmp299:
	.loc	16 310 5
	movq	$16, -8(%rbp)
	movq	-8(%rbp), %rax
	movq	%rdi, -72(%rbp)
	movq	%rsi, -80(%rbp)
	movq	%rax, -88(%rbp)
Ltmp300:
	.loc	19 452 8
	jmp	LBB88_2
LBB88_1:
	.loc	19 449 1
	movq	-24(%rbp), %rdi
	callq	__Unwind_Resume
	ud2
LBB88_2:
	.loc	19 0 1 is_stmt 0
	movq	-88(%rbp), %rax
	.loc	19 452 8 is_stmt 1
	cmpq	$32, %rax
	.loc	19 452 5 is_stmt 0
	jb	LBB88_4
	.loc	19 0 5
	movq	-72(%rbp), %rdi
	movq	-80(%rbp), %rsi
	.loc	19 462 18 is_stmt 1
	movl	$1, %edx
	callq	__ZN4core3ptr19swap_nonoverlapping17hef16ecbdfc7dd921E
	jmp	LBB88_8
LBB88_4:
	.loc	19 456 21
	movb	$1, -57(%rbp)
	movq	-72(%rbp), %rdi
	callq	__ZN4core3ptr4read17hf00318be4b7cc21cE
	movq	%rax, -40(%rbp)
	movq	%rdx, -32(%rbp)
	movq	%rax, -96(%rbp)
	movq	%rdx, -104(%rbp)
Ltmp293:
	.loc	19 0 21 is_stmt 0
	movl	$1, %edx
	movq	-80(%rbp), %rdi
	movq	-72(%rbp), %rsi
Ltmp301:
	.loc	19 457 13 is_stmt 1
	callq	__ZN4core10intrinsics19copy_nonoverlapping17h566335906d8dc1ccE
Ltmp294:
	jmp	LBB88_6
LBB88_6:
	.loc	19 458 22
	movb	$0, -57(%rbp)
Ltmp295:
	movq	-80(%rbp), %rdi
	movq	-96(%rbp), %rsi
	movq	-104(%rbp), %rdx
	.loc	19 458 13 is_stmt 0
	callq	__ZN4core3ptr5write17hc93b2d1ee0ea4878E
Ltmp296:
	jmp	LBB88_7
Ltmp302:
LBB88_7:
	.loc	19 459 9 is_stmt 1
	movb	$0, -57(%rbp)
	.loc	19 452 5
	jmp	LBB88_9
LBB88_8:
	jmp	LBB88_9
LBB88_9:
	.loc	19 464 2
	addq	$112, %rsp
	popq	%rbp
	retq
LBB88_10:
	.loc	19 459 9
	movb	$0, -57(%rbp)
	jmp	LBB88_1
LBB88_11:
	testb	$1, -57(%rbp)
	jne	LBB88_10
	jmp	LBB88_1
Ltmp303:
LBB88_12:
Ltmp297:
	.loc	19 0 9 is_stmt 0
	movq	%rax, -24(%rbp)
	movl	%edx, -16(%rbp)
	jmp	LBB88_11
Lfunc_end88:
	.cfi_endproc
	.section	__TEXT,__gcc_except_tab
	.p2align	2
GCC_except_table88:
Lexception18:
	.byte	255
	.byte	255
	.byte	1
	.uleb128 Lcst_end18-Lcst_begin18
Lcst_begin18:
	.uleb128 Lfunc_begin88-Lfunc_begin88
	.uleb128 Ltmp293-Lfunc_begin88
	.byte	0
	.byte	0
	.uleb128 Ltmp293-Lfunc_begin88
	.uleb128 Ltmp296-Ltmp293
	.uleb128 Ltmp297-Lfunc_begin88
	.byte	0
Lcst_end18:
	.p2align	2

	.section	__TEXT,__text,regular,pure_instructions
	.p2align	4, 0x90
__ZN4core3ptr24slice_from_raw_parts_mut17h1f6381af40a93459E:
Lfunc_begin89:
	.loc	19 300 0 is_stmt 1
	.cfi_startproc
	pushq	%rbp
	.cfi_def_cfa_offset 16
	.cfi_offset %rbp, -16
	movq	%rsp, %rbp
	.cfi_def_cfa_register %rbp
	subq	$48, %rsp
	movq	%rdi, -16(%rbp)
	movq	%rsi, -8(%rbp)
Ltmp304:
	.loc	19 303 26 prologue_end
	movq	%rdi, -32(%rbp)
	movq	%rsi, -24(%rbp)
	.loc	19 303 14 is_stmt 0
	movq	-32(%rbp), %rax
	movq	-24(%rbp), %rcx
	movq	%rax, -48(%rbp)
	movq	%rcx, -40(%rbp)
	movq	-48(%rbp), %rax
	movq	-40(%rbp), %rdx
	.loc	19 304 2 is_stmt 1
	addq	$48, %rsp
	popq	%rbp
	retq
Ltmp305:
Lfunc_end89:
	.cfi_endproc

	.p2align	4, 0x90
__ZN4core3ptr24slice_from_raw_parts_mut17h6728e04fb183e1ffE:
Lfunc_begin90:
	.loc	19 300 0
	.cfi_startproc
	pushq	%rbp
	.cfi_def_cfa_offset 16
	.cfi_offset %rbp, -16
	movq	%rsp, %rbp
	.cfi_def_cfa_register %rbp
	subq	$48, %rsp
	movq	%rdi, -16(%rbp)
	movq	%rsi, -8(%rbp)
Ltmp306:
	.loc	19 303 26 prologue_end
	movq	%rdi, -32(%rbp)
	movq	%rsi, -24(%rbp)
	.loc	19 303 14 is_stmt 0
	movq	-32(%rbp), %rax
	movq	-24(%rbp), %rcx
	movq	%rax, -48(%rbp)
	movq	%rcx, -40(%rbp)
	movq	-48(%rbp), %rax
	movq	-40(%rbp), %rdx
	.loc	19 304 2 is_stmt 1
	addq	$48, %rsp
	popq	%rbp
	retq
Ltmp307:
Lfunc_end90:
	.cfi_endproc

	.p2align	4, 0x90
__ZN4core3ptr24slice_from_raw_parts_mut17h8e66807d56a817d4E:
Lfunc_begin91:
	.loc	19 300 0
	.cfi_startproc
	pushq	%rbp
	.cfi_def_cfa_offset 16
	.cfi_offset %rbp, -16
	movq	%rsp, %rbp
	.cfi_def_cfa_register %rbp
	subq	$48, %rsp
	movq	%rdi, -16(%rbp)
	movq	%rsi, -8(%rbp)
Ltmp308:
	.loc	19 303 26 prologue_end
	movq	%rdi, -32(%rbp)
	movq	%rsi, -24(%rbp)
	.loc	19 303 14 is_stmt 0
	movq	-32(%rbp), %rax
	movq	-24(%rbp), %rcx
	movq	%rax, -48(%rbp)
	movq	%rcx, -40(%rbp)
	movq	-48(%rbp), %rax
	movq	-40(%rbp), %rdx
	.loc	19 304 2 is_stmt 1
	addq	$48, %rsp
	popq	%rbp
	retq
Ltmp309:
Lfunc_end91:
	.cfi_endproc

	.p2align	4, 0x90
__ZN4core3ptr24slice_from_raw_parts_mut17hfc0158caf9ccebd2E:
Lfunc_begin92:
	.loc	19 300 0
	.cfi_startproc
	pushq	%rbp
	.cfi_def_cfa_offset 16
	.cfi_offset %rbp, -16
	movq	%rsp, %rbp
	.cfi_def_cfa_register %rbp
	subq	$48, %rsp
	movq	%rdi, -16(%rbp)
	movq	%rsi, -8(%rbp)
Ltmp310:
	.loc	19 303 26 prologue_end
	movq	%rdi, -32(%rbp)
	movq	%rsi, -24(%rbp)
	.loc	19 303 14 is_stmt 0
	movq	-32(%rbp), %rax
	movq	-24(%rbp), %rcx
	movq	%rax, -48(%rbp)
	movq	%rcx, -40(%rbp)
	movq	-48(%rbp), %rax
	movq	-40(%rbp), %rdx
	.loc	19 304 2 is_stmt 1
	addq	$48, %rsp
	popq	%rbp
	retq
Ltmp311:
Lfunc_end92:
	.cfi_endproc

	.p2align	4, 0x90
__ZN4core3ptr25swap_nonoverlapping_bytes17hcc472bec5fecddebE:
Lfunc_begin93:
	.loc	19 467 0
	.cfi_startproc
	pushq	%rbp
	.cfi_def_cfa_offset 16
	.cfi_offset %rbp, -16
	movq	%rsp, %rbp
	.cfi_def_cfa_register %rbp
	andq	$-32, %rsp
	subq	$352, %rsp
	movq	%rdi, 208(%rsp)
	movq	%rsi, 216(%rsp)
	movq	%rdx, 224(%rsp)
Ltmp312:
	.loc	16 310 5 prologue_end
	movq	$32, 296(%rsp)
	movq	296(%rsp), %rax
Ltmp313:
	.loc	19 478 22
	movq	%rax, 232(%rsp)
	movq	%rdi, 104(%rsp)
	movq	%rsi, 96(%rsp)
	movq	%rdx, 88(%rsp)
	movq	%rax, 80(%rsp)
Ltmp314:
	.loc	19 483 17
	movq	$0, 120(%rsp)
LBB93_2:
	.loc	19 0 17 is_stmt 0
	movq	80(%rsp), %rax
Ltmp315:
	.loc	19 484 11 is_stmt 1
	addq	120(%rsp), %rax
	movq	88(%rsp), %rcx
	cmpq	%rcx, %rax
	.loc	19 484 5 is_stmt 0
	jbe	LBB93_4
	.loc	19 0 5
	movq	88(%rsp), %rax
	.loc	19 509 8 is_stmt 1
	cmpq	%rax, 120(%rsp)
	.loc	19 509 5 is_stmt 0
	jb	LBB93_13
	jmp	LBB93_12
LBB93_4:
	.loc	19 0 5
	leaq	128(%rsp), %rax
	movq	%rax, 304(%rsp)
	movq	%rax, 312(%rsp)
Ltmp316:
	.loc	19 488 17 is_stmt 1
	leaq	128(%rsp), %rax
	movq	%rax, 240(%rsp)
Ltmp317:
	.loc	19 497 27
	movq	120(%rsp), %rsi
	movq	104(%rsp), %rdi
	movq	%rax, 72(%rsp)
	.loc	19 497 21 is_stmt 0
	callq	__ZN4core3ptr7mut_ptr31_$LT$impl$u20$$BP$mut$u20$T$GT$3add17h428ec8ff45805f60E
	movq	%rax, 248(%rsp)
	movq	%rax, 64(%rsp)
Ltmp318:
	.loc	19 498 27 is_stmt 1
	movq	120(%rsp), %rsi
	movq	96(%rsp), %rdi
	.loc	19 498 21 is_stmt 0
	callq	__ZN4core3ptr7mut_ptr31_$LT$impl$u20$$BP$mut$u20$T$GT$3add17h428ec8ff45805f60E
	movq	%rax, 256(%rsp)
	movq	%rax, 56(%rsp)
	.loc	19 0 21
	movq	64(%rsp), %rdi
	movq	72(%rsp), %rsi
	movq	80(%rsp), %rdx
Ltmp319:
	.loc	19 502 13 is_stmt 1
	callq	__ZN4core10intrinsics19copy_nonoverlapping17h2f7f8eab06e4b0e2E
	.loc	19 0 13 is_stmt 0
	movq	56(%rsp), %rdi
	movq	64(%rsp), %rsi
	movq	80(%rsp), %rdx
	.loc	19 503 13 is_stmt 1
	callq	__ZN4core10intrinsics19copy_nonoverlapping17h2f7f8eab06e4b0e2E
	.loc	19 0 13 is_stmt 0
	movq	72(%rsp), %rdi
	movq	56(%rsp), %rsi
	movq	80(%rsp), %rdx
	.loc	19 504 13 is_stmt 1
	callq	__ZN4core10intrinsics19copy_nonoverlapping17h2f7f8eab06e4b0e2E
Ltmp320:
	.loc	19 0 13 is_stmt 0
	movq	80(%rsp), %rax
	.loc	19 506 9 is_stmt 1
	addq	120(%rsp), %rax
	movq	%rax, 120(%rsp)
Ltmp321:
	.loc	19 484 5
	jmp	LBB93_2
LBB93_12:
	.loc	19 509 5
	jmp	LBB93_21
LBB93_13:
	.loc	19 0 5 is_stmt 0
	movq	88(%rsp), %rax
Ltmp322:
	.loc	19 512 19 is_stmt 1
	subq	120(%rsp), %rax
	movq	%rax, 264(%rsp)
	leaq	176(%rsp), %rcx
	movq	%rcx, 320(%rsp)
	movq	%rcx, 328(%rsp)
	movq	%rax, 48(%rsp)
	movq	%rcx, 40(%rsp)
	.loc	19 0 19 is_stmt 0
	movq	40(%rsp), %rax
Ltmp323:
	.loc	19 514 17 is_stmt 1
	movq	%rax, 272(%rsp)
Ltmp324:
	.loc	19 518 27
	movq	120(%rsp), %rsi
	movq	104(%rsp), %rdi
	movq	%rax, 32(%rsp)
	.loc	19 518 21 is_stmt 0
	callq	__ZN4core3ptr7mut_ptr31_$LT$impl$u20$$BP$mut$u20$T$GT$3add17h428ec8ff45805f60E
	movq	%rax, 280(%rsp)
	movq	%rax, 24(%rsp)
Ltmp325:
	.loc	19 519 27 is_stmt 1
	movq	120(%rsp), %rsi
	movq	96(%rsp), %rdi
	.loc	19 519 21 is_stmt 0
	callq	__ZN4core3ptr7mut_ptr31_$LT$impl$u20$$BP$mut$u20$T$GT$3add17h428ec8ff45805f60E
	movq	%rax, 288(%rsp)
	movq	%rax, 16(%rsp)
	.loc	19 0 21
	movq	24(%rsp), %rdi
	movq	32(%rsp), %rsi
	movq	48(%rsp), %rdx
Ltmp326:
	.loc	19 521 13 is_stmt 1
	callq	__ZN4core10intrinsics19copy_nonoverlapping17h2f7f8eab06e4b0e2E
	.loc	19 0 13 is_stmt 0
	movq	16(%rsp), %rdi
	movq	24(%rsp), %rsi
	movq	48(%rsp), %rdx
	.loc	19 522 13 is_stmt 1
	callq	__ZN4core10intrinsics19copy_nonoverlapping17h2f7f8eab06e4b0e2E
	.loc	19 0 13 is_stmt 0
	movq	32(%rsp), %rdi
	movq	16(%rsp), %rsi
	movq	48(%rsp), %rdx
	.loc	19 523 13 is_stmt 1
	callq	__ZN4core10intrinsics19copy_nonoverlapping17h2f7f8eab06e4b0e2E
Ltmp327:
	.loc	19 509 5
	jmp	LBB93_21
Ltmp328:
LBB93_21:
	.loc	19 526 2
	movq	%rbp, %rsp
	popq	%rbp
	retq
Ltmp329:
Lfunc_end93:
	.cfi_endproc

	.p2align	4, 0x90
__ZN4core3ptr4read17h1d28a3aae1c906a4E:
Lfunc_begin94:
	.loc	19 692 0
	.cfi_startproc
	pushq	%rbp
	.cfi_def_cfa_offset 16
	.cfi_offset %rbp, -16
	movq	%rsp, %rbp
	.cfi_def_cfa_register %rbp
	subq	$160, %rsp
	movq	%rdi, %rax
	movq	%rsi, -56(%rbp)
	movq	%rsi, -128(%rbp)
	movq	%rdi, -136(%rbp)
	movq	%rax, -144(%rbp)
	leaq	-120(%rbp), %rax
	movq	%rax, -16(%rbp)
	movq	%rax, -8(%rbp)
	movq	%rax, -152(%rbp)
	movq	-128(%rbp), %rdi
	movq	-152(%rbp), %rsi
Ltmp330:
	.loc	19 702 9 prologue_end
	movl	$1, %edx
	callq	__ZN4core10intrinsics19copy_nonoverlapping17h64ee59d91335dcc9E
	.loc	19 703 9
	movq	-120(%rbp), %rax
	movq	%rax, -88(%rbp)
	movq	-112(%rbp), %rax
	movq	%rax, -80(%rbp)
	movq	-104(%rbp), %rax
	movq	%rax, -72(%rbp)
	movq	-96(%rbp), %rax
	movq	%rax, -64(%rbp)
Ltmp331:
	.file	20 "/rustc/6c8927b0cf80ceee19386026cf9d7fd4fd9d486f/src/libcore/mem/maybe_uninit.rs"
	.loc	20 501 38
	movq	-88(%rbp), %rax
	movq	%rax, -48(%rbp)
	movq	-80(%rbp), %rax
	movq	%rax, -40(%rbp)
	movq	-72(%rbp), %rax
	movq	%rax, -32(%rbp)
	movq	-64(%rbp), %rax
	movq	%rax, -24(%rbp)
Ltmp332:
	.loc	4 101 9
	movq	-48(%rbp), %rax
	movq	-136(%rbp), %rcx
	movq	%rax, (%rcx)
	movq	-40(%rbp), %rax
	movq	%rax, 8(%rcx)
	movq	-32(%rbp), %rax
	movq	%rax, 16(%rcx)
	movq	-24(%rbp), %rax
	movq	%rax, 24(%rcx)
Ltmp333:
	.loc	4 0 9 is_stmt 0
	movq	-144(%rbp), %rax
	.loc	19 705 2 is_stmt 1
	addq	$160, %rsp
	popq	%rbp
	retq
Ltmp334:
Lfunc_end94:
	.cfi_endproc

	.p2align	4, 0x90
__ZN4core3ptr4read17h46d40133ea5426a8E:
Lfunc_begin95:
	.loc	19 692 0
	.cfi_startproc
	pushq	%rbp
	.cfi_def_cfa_offset 16
	.cfi_offset %rbp, -16
	movq	%rsp, %rbp
	.cfi_def_cfa_register %rbp
	subq	$128, %rsp
	movq	%rdi, %rax
	movq	%rsi, -48(%rbp)
	movq	%rsi, -104(%rbp)
	movq	%rdi, -112(%rbp)
	movq	%rax, -120(%rbp)
	leaq	-96(%rbp), %rax
	movq	%rax, -16(%rbp)
	movq	%rax, -8(%rbp)
	movq	%rax, -128(%rbp)
	movq	-104(%rbp), %rdi
	movq	-128(%rbp), %rsi
Ltmp335:
	.loc	19 702 9 prologue_end
	movl	$1, %edx
	callq	__ZN4core10intrinsics19copy_nonoverlapping17h8a0a7b1fe70be788E
	.loc	19 703 9
	movq	-96(%rbp), %rax
	movq	%rax, -72(%rbp)
	movq	-88(%rbp), %rax
	movq	%rax, -64(%rbp)
	movq	-80(%rbp), %rax
	movq	%rax, -56(%rbp)
Ltmp336:
	.loc	20 501 38
	movq	-72(%rbp), %rax
	movq	%rax, -40(%rbp)
	movq	-64(%rbp), %rax
	movq	%rax, -32(%rbp)
	movq	-56(%rbp), %rax
	movq	%rax, -24(%rbp)
Ltmp337:
	.loc	4 101 9
	movq	-40(%rbp), %rax
	movq	-112(%rbp), %rcx
	movq	%rax, (%rcx)
	movq	-32(%rbp), %rax
	movq	%rax, 8(%rcx)
	movq	-24(%rbp), %rax
	movq	%rax, 16(%rcx)
Ltmp338:
	.loc	4 0 9 is_stmt 0
	movq	-120(%rbp), %rax
	.loc	19 705 2 is_stmt 1
	addq	$128, %rsp
	popq	%rbp
	retq
Ltmp339:
Lfunc_end95:
	.cfi_endproc

	.p2align	4, 0x90
__ZN4core3ptr4read17h4f1db87240fa6de3E:
Lfunc_begin96:
	.loc	19 692 0
	.cfi_startproc
	pushq	%rbp
	.cfi_def_cfa_offset 16
	.cfi_offset %rbp, -16
	movq	%rsp, %rbp
	.cfi_def_cfa_register %rbp
	subq	$160, %rsp
	movq	%rdi, %rax
	movq	%rsi, -56(%rbp)
	movq	%rsi, -128(%rbp)
	movq	%rdi, -136(%rbp)
	movq	%rax, -144(%rbp)
	leaq	-120(%rbp), %rax
	movq	%rax, -16(%rbp)
	movq	%rax, -8(%rbp)
	movq	%rax, -152(%rbp)
	movq	-128(%rbp), %rdi
	movq	-152(%rbp), %rsi
Ltmp340:
	.loc	19 702 9 prologue_end
	movl	$1, %edx
	callq	__ZN4core10intrinsics19copy_nonoverlapping17ha0ee0bb4dd7663c1E
	.loc	19 703 9
	movq	-120(%rbp), %rax
	movq	%rax, -88(%rbp)
	movq	-112(%rbp), %rax
	movq	%rax, -80(%rbp)
	movq	-104(%rbp), %rax
	movq	%rax, -72(%rbp)
	movq	-96(%rbp), %rax
	movq	%rax, -64(%rbp)
Ltmp341:
	.loc	20 501 38
	movq	-88(%rbp), %rax
	movq	%rax, -48(%rbp)
	movq	-80(%rbp), %rax
	movq	%rax, -40(%rbp)
	movq	-72(%rbp), %rax
	movq	%rax, -32(%rbp)
	movq	-64(%rbp), %rax
	movq	%rax, -24(%rbp)
Ltmp342:
	.loc	4 101 9
	movq	-48(%rbp), %rax
	movq	-136(%rbp), %rcx
	movq	%rax, (%rcx)
	movq	-40(%rbp), %rax
	movq	%rax, 8(%rcx)
	movq	-32(%rbp), %rax
	movq	%rax, 16(%rcx)
	movq	-24(%rbp), %rax
	movq	%rax, 24(%rcx)
Ltmp343:
	.loc	4 0 9 is_stmt 0
	movq	-144(%rbp), %rax
	.loc	19 705 2 is_stmt 1
	addq	$160, %rsp
	popq	%rbp
	retq
Ltmp344:
Lfunc_end96:
	.cfi_endproc

	.p2align	4, 0x90
__ZN4core3ptr4read17h54fec535a595c18bE:
Lfunc_begin97:
	.loc	19 692 0
	.cfi_startproc
	pushq	%rbp
	.cfi_def_cfa_offset 16
	.cfi_offset %rbp, -16
	movq	%rsp, %rbp
	.cfi_def_cfa_register %rbp
	subq	$128, %rsp
	movq	%rdi, %rax
	movq	%rsi, -48(%rbp)
	movq	%rsi, -104(%rbp)
	movq	%rdi, -112(%rbp)
	movq	%rax, -120(%rbp)
	leaq	-96(%rbp), %rax
	movq	%rax, -16(%rbp)
	movq	%rax, -8(%rbp)
	movq	%rax, -128(%rbp)
	movq	-104(%rbp), %rdi
	movq	-128(%rbp), %rsi
Ltmp345:
	.loc	19 702 9 prologue_end
	movl	$1, %edx
	callq	__ZN4core10intrinsics19copy_nonoverlapping17h9b2af6b0af4b801cE
	.loc	19 703 9
	movq	-96(%rbp), %rax
	movq	%rax, -72(%rbp)
	movq	-88(%rbp), %rax
	movq	%rax, -64(%rbp)
	movq	-80(%rbp), %rax
	movq	%rax, -56(%rbp)
Ltmp346:
	.loc	20 501 38
	movq	-72(%rbp), %rax
	movq	%rax, -40(%rbp)
	movq	-64(%rbp), %rax
	movq	%rax, -32(%rbp)
	movq	-56(%rbp), %rax
	movq	%rax, -24(%rbp)
Ltmp347:
	.loc	4 101 9
	movq	-40(%rbp), %rax
	movq	-112(%rbp), %rcx
	movq	%rax, (%rcx)
	movq	-32(%rbp), %rax
	movq	%rax, 8(%rcx)
	movq	-24(%rbp), %rax
	movq	%rax, 16(%rcx)
Ltmp348:
	.loc	4 0 9 is_stmt 0
	movq	-120(%rbp), %rax
	.loc	19 705 2 is_stmt 1
	addq	$128, %rsp
	popq	%rbp
	retq
Ltmp349:
Lfunc_end97:
	.cfi_endproc

	.p2align	4, 0x90
__ZN4core3ptr4read17h83f79eb2df01ffa8E:
Lfunc_begin98:
	.loc	19 692 0
	.cfi_startproc
	pushq	%rbp
	.cfi_def_cfa_offset 16
	.cfi_offset %rbp, -16
	movq	%rsp, %rbp
	.cfi_def_cfa_register %rbp
	subq	$128, %rsp
	movq	%rdi, %rax
	movq	%rsi, -48(%rbp)
	movq	%rsi, -104(%rbp)
	movq	%rdi, -112(%rbp)
	movq	%rax, -120(%rbp)
	leaq	-96(%rbp), %rax
	movq	%rax, -16(%rbp)
	movq	%rax, -8(%rbp)
	movq	%rax, -128(%rbp)
	movq	-104(%rbp), %rdi
	movq	-128(%rbp), %rsi
Ltmp350:
	.loc	19 702 9 prologue_end
	movl	$1, %edx
	callq	__ZN4core10intrinsics19copy_nonoverlapping17hf3727eab9fb6631aE
	.loc	19 703 9
	movq	-96(%rbp), %rax
	movq	%rax, -72(%rbp)
	movq	-88(%rbp), %rax
	movq	%rax, -64(%rbp)
	movq	-80(%rbp), %rax
	movq	%rax, -56(%rbp)
Ltmp351:
	.loc	20 501 38
	movq	-72(%rbp), %rax
	movq	%rax, -40(%rbp)
	movq	-64(%rbp), %rax
	movq	%rax, -32(%rbp)
	movq	-56(%rbp), %rax
	movq	%rax, -24(%rbp)
Ltmp352:
	.loc	4 101 9
	movq	-40(%rbp), %rax
	movq	-112(%rbp), %rcx
	movq	%rax, (%rcx)
	movq	-32(%rbp), %rax
	movq	%rax, 8(%rcx)
	movq	-24(%rbp), %rax
	movq	%rax, 16(%rcx)
Ltmp353:
	.loc	4 0 9 is_stmt 0
	movq	-120(%rbp), %rax
	.loc	19 705 2 is_stmt 1
	addq	$128, %rsp
	popq	%rbp
	retq
Ltmp354:
Lfunc_end98:
	.cfi_endproc

	.p2align	4, 0x90
__ZN4core3ptr4read17hbd4c18c15c4d6837E:
Lfunc_begin99:
	.loc	19 692 0
	.cfi_startproc
	pushq	%rbp
	.cfi_def_cfa_offset 16
	.cfi_offset %rbp, -16
	movq	%rsp, %rbp
	.cfi_def_cfa_register %rbp
	subq	$128, %rsp
	movq	%rdi, %rax
	movq	%rsi, -48(%rbp)
	movq	%rsi, -104(%rbp)
	movq	%rdi, -112(%rbp)
	movq	%rax, -120(%rbp)
	leaq	-96(%rbp), %rax
	movq	%rax, -16(%rbp)
	movq	%rax, -8(%rbp)
	movq	%rax, -128(%rbp)
	movq	-104(%rbp), %rdi
	movq	-128(%rbp), %rsi
Ltmp355:
	.loc	19 702 9 prologue_end
	movl	$1, %edx
	callq	__ZN4core10intrinsics19copy_nonoverlapping17hcee71e4b726e9acdE
	.loc	19 703 9
	movq	-96(%rbp), %rax
	movq	%rax, -72(%rbp)
	movq	-88(%rbp), %rax
	movq	%rax, -64(%rbp)
	movq	-80(%rbp), %rax
	movq	%rax, -56(%rbp)
Ltmp356:
	.loc	20 501 38
	movq	-72(%rbp), %rax
	movq	%rax, -40(%rbp)
	movq	-64(%rbp), %rax
	movq	%rax, -32(%rbp)
	movq	-56(%rbp), %rax
	movq	%rax, -24(%rbp)
Ltmp357:
	.loc	4 101 9
	movq	-40(%rbp), %rax
	movq	-112(%rbp), %rcx
	movq	%rax, (%rcx)
	movq	-32(%rbp), %rax
	movq	%rax, 8(%rcx)
	movq	-24(%rbp), %rax
	movq	%rax, 16(%rcx)
Ltmp358:
	.loc	4 0 9 is_stmt 0
	movq	-120(%rbp), %rax
	.loc	19 705 2 is_stmt 1
	addq	$128, %rsp
	popq	%rbp
	retq
Ltmp359:
Lfunc_end99:
	.cfi_endproc

	.p2align	4, 0x90
__ZN4core3ptr4read17hc430f9c3b21aa9aeE:
Lfunc_begin100:
	.loc	19 692 0
	.cfi_startproc
	pushq	%rbp
	.cfi_def_cfa_offset 16
	.cfi_offset %rbp, -16
	movq	%rsp, %rbp
	.cfi_def_cfa_register %rbp
	subq	$128, %rsp
	movq	%rdi, %rax
	movq	%rsi, -48(%rbp)
	movq	%rsi, -104(%rbp)
	movq	%rdi, -112(%rbp)
	movq	%rax, -120(%rbp)
	leaq	-96(%rbp), %rax
	movq	%rax, -16(%rbp)
	movq	%rax, -8(%rbp)
	movq	%rax, -128(%rbp)
	movq	-104(%rbp), %rdi
	movq	-128(%rbp), %rsi
Ltmp360:
	.loc	19 702 9 prologue_end
	movl	$1, %edx
	callq	__ZN4core10intrinsics19copy_nonoverlapping17hee81b0fd3a2d233dE
	.loc	19 703 9
	movq	-96(%rbp), %rax
	movq	%rax, -72(%rbp)
	movq	-88(%rbp), %rax
	movq	%rax, -64(%rbp)
	movq	-80(%rbp), %rax
	movq	%rax, -56(%rbp)
Ltmp361:
	.loc	20 501 38
	movq	-72(%rbp), %rax
	movq	%rax, -40(%rbp)
	movq	-64(%rbp), %rax
	movq	%rax, -32(%rbp)
	movq	-56(%rbp), %rax
	movq	%rax, -24(%rbp)
Ltmp362:
	.loc	4 101 9
	movq	-40(%rbp), %rax
	movq	-112(%rbp), %rcx
	movq	%rax, (%rcx)
	movq	-32(%rbp), %rax
	movq	%rax, 8(%rcx)
	movq	-24(%rbp), %rax
	movq	%rax, 16(%rcx)
Ltmp363:
	.loc	4 0 9 is_stmt 0
	movq	-120(%rbp), %rax
	.loc	19 705 2 is_stmt 1
	addq	$128, %rsp
	popq	%rbp
	retq
Ltmp364:
Lfunc_end100:
	.cfi_endproc

	.p2align	4, 0x90
__ZN4core3ptr4read17hf00318be4b7cc21cE:
Lfunc_begin101:
	.loc	19 692 0
	.cfi_startproc
	pushq	%rbp
	.cfi_def_cfa_offset 16
	.cfi_offset %rbp, -16
	movq	%rsp, %rbp
	.cfi_def_cfa_register %rbp
	subq	$128, %rsp
	movq	%rdi, -72(%rbp)
Ltmp365:
	.loc	20 272 6 prologue_end
	movq	-64(%rbp), %rax
	movq	-56(%rbp), %rcx
Ltmp366:
	.loc	19 694 19
	movq	%rcx, -80(%rbp)
	movq	%rax, -88(%rbp)
	movq	%rdi, -96(%rbp)
	.loc	19 0 19 is_stmt 0
	leaq	-88(%rbp), %rax
	movq	%rax, -16(%rbp)
	movq	%rax, -8(%rbp)
	movq	%rax, -104(%rbp)
	movq	-96(%rbp), %rdi
	movq	-104(%rbp), %rsi
Ltmp367:
	.loc	19 702 9 is_stmt 1
	movl	$1, %edx
	callq	__ZN4core10intrinsics19copy_nonoverlapping17h566335906d8dc1ccE
	.loc	19 703 9
	movq	-88(%rbp), %rax
	movq	-80(%rbp), %rcx
	movq	%rax, -48(%rbp)
	movq	%rcx, -40(%rbp)
	movq	%rax, -32(%rbp)
	movq	%rcx, -24(%rbp)
	movq	%rax, -112(%rbp)
	movq	%rcx, -120(%rbp)
Ltmp368:
	.loc	19 0 9 is_stmt 0
	movq	-112(%rbp), %rax
	movq	-120(%rbp), %rdx
	.loc	19 705 2 is_stmt 1
	addq	$128, %rsp
	popq	%rbp
	retq
Ltmp369:
Lfunc_end101:
	.cfi_endproc

	.p2align	4, 0x90
__ZN4core3ptr5write17hc93b2d1ee0ea4878E:
Lfunc_begin102:
	.loc	19 895 0
	.cfi_startproc
	pushq	%rbp
	.cfi_def_cfa_offset 16
	.cfi_offset %rbp, -16
	movq	%rsp, %rbp
	.cfi_def_cfa_register %rbp
	subq	$32, %rsp
	movq	%rdi, -24(%rbp)
	movq	%rsi, -16(%rbp)
	movq	%rdx, -8(%rbp)
Ltmp370:
	.loc	19 901 51 prologue_end
	movq	%rsi, (%rdi)
	movq	%rdx, 8(%rdi)
	.loc	19 902 2
	addq	$32, %rsp
	popq	%rbp
	retq
Ltmp371:
Lfunc_end102:
	.cfi_endproc

	.p2align	4, 0x90
__ZN4core3ptr5write17hde5e4c066502e460E:
Lfunc_begin103:
	.loc	19 895 0
	.cfi_startproc
	pushq	%rbp
	.cfi_def_cfa_offset 16
	.cfi_offset %rbp, -16
	movq	%rsp, %rbp
	.cfi_def_cfa_register %rbp
	subq	$16, %rsp
	movq	%rdi, -8(%rbp)
Ltmp372:
	.loc	19 901 51 prologue_end
	movq	(%rsi), %rax
	movq	%rax, (%rdi)
	movq	8(%rsi), %rax
	movq	%rax, 8(%rdi)
	movq	16(%rsi), %rax
	movq	%rax, 16(%rdi)
	movq	24(%rsi), %rax
	movq	%rax, 24(%rdi)
	.loc	19 902 2
	addq	$16, %rsp
	popq	%rbp
	retq
Ltmp373:
Lfunc_end103:
	.cfi_endproc

	.p2align	4, 0x90
__ZN4core3ptr6unique15Unique$LT$T$GT$13new_unchecked17h386ba1ff67777bceE:
Lfunc_begin104:
	.file	21 "/rustc/6c8927b0cf80ceee19386026cf9d7fd4fd9d486f/src/libcore/ptr/unique.rs"
	.loc	21 89 0
	.cfi_startproc
	pushq	%rbp
	.cfi_def_cfa_offset 16
	.cfi_offset %rbp, -16
	movq	%rsp, %rbp
	.cfi_def_cfa_register %rbp
	subq	$24, %rsp
	movq	%rdi, -8(%rbp)
Ltmp374:
	.loc	21 91 18 prologue_end
	movq	%rdi, -24(%rbp)
	.loc	21 92 6
	movq	-24(%rbp), %rax
	addq	$24, %rsp
	popq	%rbp
	retq
Ltmp375:
Lfunc_end104:
	.cfi_endproc

	.p2align	4, 0x90
__ZN4core3ptr6unique15Unique$LT$T$GT$4cast17h03e7d48d01e69667E:
Lfunc_begin105:
	.loc	21 137 0
	.cfi_startproc
	pushq	%rbp
	.cfi_def_cfa_offset 16
	.cfi_offset %rbp, -16
	movq	%rsp, %rbp
	.cfi_def_cfa_register %rbp
	subq	$32, %rsp
	movq	%rdi, -8(%rbp)
Ltmp376:
	.loc	21 141 40 prologue_end
	callq	__ZN4core3ptr6unique15Unique$LT$T$GT$6as_ptr17h78061224a81d39bcE
	movq	%rax, -16(%rbp)
	.loc	21 0 40 is_stmt 0
	movq	-16(%rbp), %rdi
	.loc	21 141 18
	callq	__ZN4core3ptr6unique15Unique$LT$T$GT$13new_unchecked17h386ba1ff67777bceE
	movq	%rax, -24(%rbp)
	.loc	21 0 18
	movq	-24(%rbp), %rax
	.loc	21 142 6 is_stmt 1
	addq	$32, %rsp
	popq	%rbp
	retq
Ltmp377:
Lfunc_end105:
	.cfi_endproc

	.p2align	4, 0x90
__ZN4core3ptr6unique15Unique$LT$T$GT$4cast17h1b207b2126ef0139E:
Lfunc_begin106:
	.loc	21 137 0
	.cfi_startproc
	pushq	%rbp
	.cfi_def_cfa_offset 16
	.cfi_offset %rbp, -16
	movq	%rsp, %rbp
	.cfi_def_cfa_register %rbp
	subq	$32, %rsp
	movq	%rdi, -8(%rbp)
Ltmp378:
	.loc	21 141 40 prologue_end
	callq	__ZN4core3ptr6unique15Unique$LT$T$GT$6as_ptr17h3102576db1a9510aE
	movq	%rax, -16(%rbp)
	.loc	21 0 40 is_stmt 0
	movq	-16(%rbp), %rax
	.loc	21 141 18
	movq	%rax, %rdi
	callq	__ZN4core3ptr6unique15Unique$LT$T$GT$13new_unchecked17h386ba1ff67777bceE
	movq	%rax, -24(%rbp)
	.loc	21 0 18
	movq	-24(%rbp), %rax
	.loc	21 142 6 is_stmt 1
	addq	$32, %rsp
	popq	%rbp
	retq
Ltmp379:
Lfunc_end106:
	.cfi_endproc

	.p2align	4, 0x90
__ZN4core3ptr6unique15Unique$LT$T$GT$4cast17h30b6dddff1aad4d2E:
Lfunc_begin107:
	.loc	21 137 0
	.cfi_startproc
	pushq	%rbp
	.cfi_def_cfa_offset 16
	.cfi_offset %rbp, -16
	movq	%rsp, %rbp
	.cfi_def_cfa_register %rbp
	subq	$32, %rsp
	movq	%rdi, -16(%rbp)
	movq	%rsi, -8(%rbp)
Ltmp380:
	.loc	21 141 40 prologue_end
	callq	__ZN4core3ptr6unique15Unique$LT$T$GT$6as_ptr17hc64e6bfb62b40b07E
	movq	%rax, -24(%rbp)
	.loc	21 0 40 is_stmt 0
	movq	-24(%rbp), %rax
	.loc	21 141 18
	movq	%rax, %rdi
	callq	__ZN4core3ptr6unique15Unique$LT$T$GT$13new_unchecked17h386ba1ff67777bceE
	movq	%rax, -32(%rbp)
	.loc	21 0 18
	movq	-32(%rbp), %rax
	.loc	21 142 6 is_stmt 1
	addq	$32, %rsp
	popq	%rbp
	retq
Ltmp381:
Lfunc_end107:
	.cfi_endproc

	.p2align	4, 0x90
__ZN4core3ptr6unique15Unique$LT$T$GT$4cast17h5881c957258adfecE:
Lfunc_begin108:
	.loc	21 137 0
	.cfi_startproc
	pushq	%rbp
	.cfi_def_cfa_offset 16
	.cfi_offset %rbp, -16
	movq	%rsp, %rbp
	.cfi_def_cfa_register %rbp
	subq	$32, %rsp
	movq	%rdi, -8(%rbp)
Ltmp382:
	.loc	21 141 40 prologue_end
	callq	__ZN4core3ptr6unique15Unique$LT$T$GT$6as_ptr17hb255fdeb25011573E
	movq	%rax, -16(%rbp)
	.loc	21 0 40 is_stmt 0
	movq	-16(%rbp), %rax
	.loc	21 141 18
	movq	%rax, %rdi
	callq	__ZN4core3ptr6unique15Unique$LT$T$GT$13new_unchecked17h386ba1ff67777bceE
	movq	%rax, -24(%rbp)
	.loc	21 0 18
	movq	-24(%rbp), %rax
	.loc	21 142 6 is_stmt 1
	addq	$32, %rsp
	popq	%rbp
	retq
Ltmp383:
Lfunc_end108:
	.cfi_endproc

	.p2align	4, 0x90
__ZN4core3ptr6unique15Unique$LT$T$GT$4cast17h906fc5955288b2bfE:
Lfunc_begin109:
	.loc	21 137 0
	.cfi_startproc
	pushq	%rbp
	.cfi_def_cfa_offset 16
	.cfi_offset %rbp, -16
	movq	%rsp, %rbp
	.cfi_def_cfa_register %rbp
	subq	$32, %rsp
	movq	%rdi, -8(%rbp)
Ltmp384:
	.loc	21 141 40 prologue_end
	callq	__ZN4core3ptr6unique15Unique$LT$T$GT$6as_ptr17hb8225bd84dc4b8adE
	movq	%rax, -16(%rbp)
	.loc	21 0 40 is_stmt 0
	movq	-16(%rbp), %rax
	.loc	21 141 18
	movq	%rax, %rdi
	callq	__ZN4core3ptr6unique15Unique$LT$T$GT$13new_unchecked17h386ba1ff67777bceE
	movq	%rax, -24(%rbp)
	.loc	21 0 18
	movq	-24(%rbp), %rax
	.loc	21 142 6 is_stmt 1
	addq	$32, %rsp
	popq	%rbp
	retq
Ltmp385:
Lfunc_end109:
	.cfi_endproc

	.p2align	4, 0x90
__ZN4core3ptr6unique15Unique$LT$T$GT$4cast17h90fe0ae415c0e184E:
Lfunc_begin110:
	.loc	21 137 0
	.cfi_startproc
	pushq	%rbp
	.cfi_def_cfa_offset 16
	.cfi_offset %rbp, -16
	movq	%rsp, %rbp
	.cfi_def_cfa_register %rbp
	subq	$32, %rsp
	movq	%rdi, -16(%rbp)
	movq	%rsi, -8(%rbp)
Ltmp386:
	.loc	21 141 40 prologue_end
	callq	__ZN4core3ptr6unique15Unique$LT$T$GT$6as_ptr17hfea923b84cc1603eE
	movq	%rax, -24(%rbp)
	.loc	21 0 40 is_stmt 0
	movq	-24(%rbp), %rax
	.loc	21 141 18
	movq	%rax, %rdi
	callq	__ZN4core3ptr6unique15Unique$LT$T$GT$13new_unchecked17h386ba1ff67777bceE
	movq	%rax, -32(%rbp)
	.loc	21 0 18
	movq	-32(%rbp), %rax
	.loc	21 142 6 is_stmt 1
	addq	$32, %rsp
	popq	%rbp
	retq
Ltmp387:
Lfunc_end110:
	.cfi_endproc

	.p2align	4, 0x90
__ZN4core3ptr6unique15Unique$LT$T$GT$4cast17h9aa96a32ba5661d3E:
Lfunc_begin111:
	.loc	21 137 0
	.cfi_startproc
	pushq	%rbp
	.cfi_def_cfa_offset 16
	.cfi_offset %rbp, -16
	movq	%rsp, %rbp
	.cfi_def_cfa_register %rbp
	subq	$32, %rsp
	movq	%rdi, -8(%rbp)
Ltmp388:
	.loc	21 141 40 prologue_end
	callq	__ZN4core3ptr6unique15Unique$LT$T$GT$6as_ptr17hebc358be975d7a7bE
	movq	%rax, -16(%rbp)
	.loc	21 0 40 is_stmt 0
	movq	-16(%rbp), %rax
	.loc	21 141 18
	movq	%rax, %rdi
	callq	__ZN4core3ptr6unique15Unique$LT$T$GT$13new_unchecked17h386ba1ff67777bceE
	movq	%rax, -24(%rbp)
	.loc	21 0 18
	movq	-24(%rbp), %rax
	.loc	21 142 6 is_stmt 1
	addq	$32, %rsp
	popq	%rbp
	retq
Ltmp389:
Lfunc_end111:
	.cfi_endproc

	.p2align	4, 0x90
__ZN4core3ptr6unique15Unique$LT$T$GT$4cast17hc75fd8b54c7967f0E:
Lfunc_begin112:
	.loc	21 137 0
	.cfi_startproc
	pushq	%rbp
	.cfi_def_cfa_offset 16
	.cfi_offset %rbp, -16
	movq	%rsp, %rbp
	.cfi_def_cfa_register %rbp
	subq	$32, %rsp
	movq	%rdi, -16(%rbp)
	movq	%rsi, -8(%rbp)
Ltmp390:
	.loc	21 141 40 prologue_end
	callq	__ZN4core3ptr6unique15Unique$LT$T$GT$6as_ptr17h63544afa136f8dcfE
	movq	%rax, -24(%rbp)
	.loc	21 0 40 is_stmt 0
	movq	-24(%rbp), %rax
	.loc	21 141 18
	movq	%rax, %rdi
	callq	__ZN4core3ptr6unique15Unique$LT$T$GT$13new_unchecked17h386ba1ff67777bceE
	movq	%rax, -32(%rbp)
	.loc	21 0 18
	movq	-32(%rbp), %rax
	.loc	21 142 6 is_stmt 1
	addq	$32, %rsp
	popq	%rbp
	retq
Ltmp391:
Lfunc_end112:
	.cfi_endproc

	.p2align	4, 0x90
__ZN4core3ptr6unique15Unique$LT$T$GT$6as_ptr17h3102576db1a9510aE:
Lfunc_begin113:
	.loc	21 107 0
	.cfi_startproc
	pushq	%rbp
	.cfi_def_cfa_offset 16
	.cfi_offset %rbp, -16
	movq	%rsp, %rbp
	.cfi_def_cfa_register %rbp
	pushq	%rax
	movq	%rdi, -8(%rbp)
Ltmp392:
	.loc	21 109 6 prologue_end
	movq	%rdi, %rax
	addq	$8, %rsp
	popq	%rbp
	retq
Ltmp393:
Lfunc_end113:
	.cfi_endproc

	.p2align	4, 0x90
__ZN4core3ptr6unique15Unique$LT$T$GT$6as_ptr17h63544afa136f8dcfE:
Lfunc_begin114:
	.loc	21 107 0
	.cfi_startproc
	pushq	%rbp
	.cfi_def_cfa_offset 16
	.cfi_offset %rbp, -16
	movq	%rsp, %rbp
	.cfi_def_cfa_register %rbp
	subq	$16, %rsp
	movq	%rdi, -16(%rbp)
	movq	%rsi, -8(%rbp)
Ltmp394:
	.loc	21 109 6 prologue_end
	movq	%rdi, %rax
	movq	%rsi, %rdx
	addq	$16, %rsp
	popq	%rbp
	retq
Ltmp395:
Lfunc_end114:
	.cfi_endproc

	.p2align	4, 0x90
__ZN4core3ptr6unique15Unique$LT$T$GT$6as_ptr17h78061224a81d39bcE:
Lfunc_begin115:
	.loc	21 107 0
	.cfi_startproc
	pushq	%rbp
	.cfi_def_cfa_offset 16
	.cfi_offset %rbp, -16
	movq	%rsp, %rbp
	.cfi_def_cfa_register %rbp
	pushq	%rax
	movq	%rdi, -8(%rbp)
Ltmp396:
	.loc	21 109 6 prologue_end
	movq	%rdi, %rax
	addq	$8, %rsp
	popq	%rbp
	retq
Ltmp397:
Lfunc_end115:
	.cfi_endproc

	.p2align	4, 0x90
__ZN4core3ptr6unique15Unique$LT$T$GT$6as_ptr17h7c82be61e2a76526E:
Lfunc_begin116:
	.loc	21 107 0
	.cfi_startproc
	pushq	%rbp
	.cfi_def_cfa_offset 16
	.cfi_offset %rbp, -16
	movq	%rsp, %rbp
	.cfi_def_cfa_register %rbp
	pushq	%rax
	movq	%rdi, -8(%rbp)
Ltmp398:
	.loc	21 109 6 prologue_end
	movq	%rdi, %rax
	addq	$8, %rsp
	popq	%rbp
	retq
Ltmp399:
Lfunc_end116:
	.cfi_endproc

	.p2align	4, 0x90
__ZN4core3ptr6unique15Unique$LT$T$GT$6as_ptr17hb255fdeb25011573E:
Lfunc_begin117:
	.loc	21 107 0
	.cfi_startproc
	pushq	%rbp
	.cfi_def_cfa_offset 16
	.cfi_offset %rbp, -16
	movq	%rsp, %rbp
	.cfi_def_cfa_register %rbp
	pushq	%rax
	movq	%rdi, -8(%rbp)
Ltmp400:
	.loc	21 109 6 prologue_end
	movq	%rdi, %rax
	addq	$8, %rsp
	popq	%rbp
	retq
Ltmp401:
Lfunc_end117:
	.cfi_endproc

	.p2align	4, 0x90
__ZN4core3ptr6unique15Unique$LT$T$GT$6as_ptr17hb8225bd84dc4b8adE:
Lfunc_begin118:
	.loc	21 107 0
	.cfi_startproc
	pushq	%rbp
	.cfi_def_cfa_offset 16
	.cfi_offset %rbp, -16
	movq	%rsp, %rbp
	.cfi_def_cfa_register %rbp
	pushq	%rax
	movq	%rdi, -8(%rbp)
Ltmp402:
	.loc	21 109 6 prologue_end
	movq	%rdi, %rax
	addq	$8, %rsp
	popq	%rbp
	retq
Ltmp403:
Lfunc_end118:
	.cfi_endproc

	.p2align	4, 0x90
__ZN4core3ptr6unique15Unique$LT$T$GT$6as_ptr17hc64e6bfb62b40b07E:
Lfunc_begin119:
	.loc	21 107 0
	.cfi_startproc
	pushq	%rbp
	.cfi_def_cfa_offset 16
	.cfi_offset %rbp, -16
	movq	%rsp, %rbp
	.cfi_def_cfa_register %rbp
	subq	$16, %rsp
	movq	%rdi, -16(%rbp)
	movq	%rsi, -8(%rbp)
Ltmp404:
	.loc	21 109 6 prologue_end
	movq	%rdi, %rax
	movq	%rsi, %rdx
	addq	$16, %rsp
	popq	%rbp
	retq
Ltmp405:
Lfunc_end119:
	.cfi_endproc

	.p2align	4, 0x90
__ZN4core3ptr6unique15Unique$LT$T$GT$6as_ptr17hebc358be975d7a7bE:
Lfunc_begin120:
	.loc	21 107 0
	.cfi_startproc
	pushq	%rbp
	.cfi_def_cfa_offset 16
	.cfi_offset %rbp, -16
	movq	%rsp, %rbp
	.cfi_def_cfa_register %rbp
	pushq	%rax
	movq	%rdi, -8(%rbp)
Ltmp406:
	.loc	21 109 6 prologue_end
	movq	%rdi, %rax
	addq	$8, %rsp
	popq	%rbp
	retq
Ltmp407:
Lfunc_end120:
	.cfi_endproc

	.p2align	4, 0x90
__ZN4core3ptr6unique15Unique$LT$T$GT$6as_ptr17hfea923b84cc1603eE:
Lfunc_begin121:
	.loc	21 107 0
	.cfi_startproc
	pushq	%rbp
	.cfi_def_cfa_offset 16
	.cfi_offset %rbp, -16
	movq	%rsp, %rbp
	.cfi_def_cfa_register %rbp
	subq	$16, %rsp
	movq	%rdi, -16(%rbp)
	movq	%rsi, -8(%rbp)
Ltmp408:
	.loc	21 109 6 prologue_end
	movq	%rdi, %rax
	movq	%rsi, %rdx
	addq	$16, %rsp
	popq	%rbp
	retq
Ltmp409:
Lfunc_end121:
	.cfi_endproc

	.p2align	4, 0x90
__ZN4core3ptr6unique15Unique$LT$T$GT$6as_ref17h4674e137a1a0ea8aE:
Lfunc_begin122:
	.loc	21 117 0
	.cfi_startproc
	pushq	%rbp
	.cfi_def_cfa_offset 16
	.cfi_offset %rbp, -16
	movq	%rsp, %rbp
	.cfi_def_cfa_register %rbp
	subq	$32, %rsp
	movq	%rdi, -8(%rbp)
Ltmp410:
	.loc	21 120 20 prologue_end
	movq	(%rdi), %rax
	movq	8(%rdi), %rsi
	movq	%rax, %rdi
	callq	__ZN4core3ptr6unique15Unique$LT$T$GT$6as_ptr17hfea923b84cc1603eE
	movq	%rax, -16(%rbp)
	movq	%rdx, -24(%rbp)
	.loc	21 0 20 is_stmt 0
	movq	-16(%rbp), %rax
	movq	-24(%rbp), %rdx
	.loc	21 121 6 is_stmt 1
	addq	$32, %rsp
	popq	%rbp
	retq
Ltmp411:
Lfunc_end122:
	.cfi_endproc

	.p2align	4, 0x90
__ZN4core3ptr6unique15Unique$LT$T$GT$6as_ref17h893dbffd58a77e82E:
Lfunc_begin123:
	.loc	21 117 0
	.cfi_startproc
	pushq	%rbp
	.cfi_def_cfa_offset 16
	.cfi_offset %rbp, -16
	movq	%rsp, %rbp
	.cfi_def_cfa_register %rbp
	subq	$32, %rsp
	movq	%rdi, -8(%rbp)
Ltmp412:
	.loc	21 120 20 prologue_end
	movq	(%rdi), %rax
	movq	8(%rdi), %rsi
	movq	%rax, %rdi
	callq	__ZN4core3ptr6unique15Unique$LT$T$GT$6as_ptr17h63544afa136f8dcfE
	movq	%rax, -16(%rbp)
	movq	%rdx, -24(%rbp)
	.loc	21 0 20 is_stmt 0
	movq	-16(%rbp), %rax
	movq	-24(%rbp), %rdx
	.loc	21 121 6 is_stmt 1
	addq	$32, %rsp
	popq	%rbp
	retq
Ltmp413:
Lfunc_end123:
	.cfi_endproc

	.p2align	4, 0x90
__ZN4core3ptr6unique15Unique$LT$T$GT$6as_ref17hedcfff338ab3a80fE:
Lfunc_begin124:
	.loc	21 117 0
	.cfi_startproc
	pushq	%rbp
	.cfi_def_cfa_offset 16
	.cfi_offset %rbp, -16
	movq	%rsp, %rbp
	.cfi_def_cfa_register %rbp
	subq	$16, %rsp
	movq	%rdi, -8(%rbp)
Ltmp414:
	.loc	21 120 20 prologue_end
	movq	(%rdi), %rdi
	callq	__ZN4core3ptr6unique15Unique$LT$T$GT$6as_ptr17hb8225bd84dc4b8adE
	movq	%rax, -16(%rbp)
	.loc	21 0 20 is_stmt 0
	movq	-16(%rbp), %rax
	.loc	21 121 6 is_stmt 1
	addq	$16, %rsp
	popq	%rbp
	retq
Ltmp415:
Lfunc_end124:
	.cfi_endproc

	.p2align	4, 0x90
__ZN4core3ptr6unique15Unique$LT$T$GT$6as_ref17hf6f4adbcd81a1cddE:
Lfunc_begin125:
	.loc	21 117 0
	.cfi_startproc
	pushq	%rbp
	.cfi_def_cfa_offset 16
	.cfi_offset %rbp, -16
	movq	%rsp, %rbp
	.cfi_def_cfa_register %rbp
	subq	$32, %rsp
	movq	%rdi, -8(%rbp)
Ltmp416:
	.loc	21 120 20 prologue_end
	movq	(%rdi), %rax
	movq	8(%rdi), %rsi
	movq	%rax, %rdi
	callq	__ZN4core3ptr6unique15Unique$LT$T$GT$6as_ptr17hc64e6bfb62b40b07E
	movq	%rax, -16(%rbp)
	movq	%rdx, -24(%rbp)
	.loc	21 0 20 is_stmt 0
	movq	-16(%rbp), %rax
	movq	-24(%rbp), %rdx
	.loc	21 121 6 is_stmt 1
	addq	$32, %rsp
	popq	%rbp
	retq
Ltmp417:
Lfunc_end125:
	.cfi_endproc

	.p2align	4, 0x90
__ZN4core3ptr7mut_ptr31_$LT$impl$u20$$BP$mut$u20$T$GT$3add17h428ec8ff45805f60E:
Lfunc_begin126:
	.file	22 "/rustc/6c8927b0cf80ceee19386026cf9d7fd4fd9d486f/src/libcore/ptr/mut_ptr.rs"
	.loc	22 529 0
	.cfi_startproc
	pushq	%rbp
	.cfi_def_cfa_offset 16
	.cfi_offset %rbp, -16
	movq	%rsp, %rbp
	.cfi_def_cfa_register %rbp
	subq	$32, %rsp
	movq	%rdi, -16(%rbp)
	movq	%rsi, -8(%rbp)
Ltmp418:
	.loc	22 534 18 prologue_end
	callq	__ZN4core3ptr7mut_ptr31_$LT$impl$u20$$BP$mut$u20$T$GT$6offset17h97e4dd76eb7b5205E
	movq	%rax, -24(%rbp)
	.loc	22 0 18 is_stmt 0
	movq	-24(%rbp), %rax
	.loc	22 535 6 is_stmt 1
	addq	$32, %rsp
	popq	%rbp
	retq
Ltmp419:
Lfunc_end126:
	.cfi_endproc

	.p2align	4, 0x90
__ZN4core3ptr7mut_ptr31_$LT$impl$u20$$BP$mut$u20$T$GT$6offset17h97e4dd76eb7b5205E:
Lfunc_begin127:
	.loc	22 158 0
	.cfi_startproc
	pushq	%rbp
	.cfi_def_cfa_offset 16
	.cfi_offset %rbp, -16
	movq	%rsp, %rbp
	.cfi_def_cfa_register %rbp
	subq	$32, %rsp
	movq	%rdi, -24(%rbp)
	movq	%rsi, -16(%rbp)
Ltmp420:
	.loc	22 165 18 prologue_end
	addq	%rsi, %rdi
	movq	%rdi, -8(%rbp)
	movq	-8(%rbp), %rax
	movq	%rax, -32(%rbp)
	.loc	22 0 18 is_stmt 0
	movq	-32(%rbp), %rax
	.loc	22 166 6 is_stmt 1
	addq	$32, %rsp
	popq	%rbp
	retq
Ltmp421:
Lfunc_end127:
	.cfi_endproc

	.p2align	4, 0x90
__ZN4core3ptr7mut_ptr31_$LT$impl$u20$$BP$mut$u20$T$GT$7is_null17h2af74ab47688a675E:
Lfunc_begin128:
	.loc	22 26 0
	.cfi_startproc
	pushq	%rbp
	.cfi_def_cfa_offset 16
	.cfi_offset %rbp, -16
	movq	%rsp, %rbp
	.cfi_def_cfa_register %rbp
	subq	$16, %rsp
	movq	%rdi, -8(%rbp)
	movq	%rdi, -16(%rbp)
	movq	-16(%rbp), %rax
Ltmp422:
	.loc	22 29 9 prologue_end
	cmpq	$0, %rax
	sete	%cl
	.loc	22 30 6
	andb	$1, %cl
	movzbl	%cl, %edx
	movl	%edx, %eax
	addq	$16, %rsp
	popq	%rbp
	retq
Ltmp423:
Lfunc_end128:
	.cfi_endproc

	.p2align	4, 0x90
__ZN4core3ptr7mut_ptr31_$LT$impl$u20$$BP$mut$u20$T$GT$7is_null17h9c8c5758f256f8b3E:
Lfunc_begin129:
	.loc	22 26 0
	.cfi_startproc
	pushq	%rbp
	.cfi_def_cfa_offset 16
	.cfi_offset %rbp, -16
	movq	%rsp, %rbp
	.cfi_def_cfa_register %rbp
	subq	$16, %rsp
	movq	%rdi, -8(%rbp)
	movq	%rdi, -16(%rbp)
	movq	-16(%rbp), %rax
Ltmp424:
	.loc	22 29 9 prologue_end
	cmpq	$0, %rax
	sete	%cl
	.loc	22 30 6
	andb	$1, %cl
	movzbl	%cl, %edx
	movl	%edx, %eax
	addq	$16, %rsp
	popq	%rbp
	retq
Ltmp425:
Lfunc_end129:
	.cfi_endproc

	.p2align	4, 0x90
__ZN4core3ptr7mut_ptr31_$LT$impl$u20$$BP$mut$u20$T$GT$7is_null17hb048a98e9914b827E:
Lfunc_begin130:
	.loc	22 26 0
	.cfi_startproc
	pushq	%rbp
	.cfi_def_cfa_offset 16
	.cfi_offset %rbp, -16
	movq	%rsp, %rbp
	.cfi_def_cfa_register %rbp
	subq	$16, %rsp
	movq	%rdi, -8(%rbp)
	movq	%rdi, -16(%rbp)
	movq	-16(%rbp), %rax
Ltmp426:
	.loc	22 29 9 prologue_end
	cmpq	$0, %rax
	sete	%cl
	.loc	22 30 6
	andb	$1, %cl
	movzbl	%cl, %edx
	movl	%edx, %eax
	addq	$16, %rsp
	popq	%rbp
	retq
Ltmp427:
Lfunc_end130:
	.cfi_endproc

	.p2align	4, 0x90
__ZN4core3ptr7mut_ptr31_$LT$impl$u20$$BP$mut$u20$T$GT$7is_null17hd27b5d8ad169800eE:
Lfunc_begin131:
	.loc	22 26 0
	.cfi_startproc
	pushq	%rbp
	.cfi_def_cfa_offset 16
	.cfi_offset %rbp, -16
	movq	%rsp, %rbp
	.cfi_def_cfa_register %rbp
	subq	$16, %rsp
	movq	%rdi, -8(%rbp)
	movq	%rdi, -16(%rbp)
	movq	-16(%rbp), %rax
Ltmp428:
	.loc	22 29 9 prologue_end
	cmpq	$0, %rax
	sete	%cl
	.loc	22 30 6
	andb	$1, %cl
	movzbl	%cl, %edx
	movl	%edx, %eax
	addq	$16, %rsp
	popq	%rbp
	retq
Ltmp429:
Lfunc_end131:
	.cfi_endproc

	.p2align	4, 0x90
__ZN4core3ptr7mut_ptr31_$LT$impl$u20$$BP$mut$u20$T$GT$7is_null17he1afba94b1feb3d4E:
Lfunc_begin132:
	.loc	22 26 0
	.cfi_startproc
	pushq	%rbp
	.cfi_def_cfa_offset 16
	.cfi_offset %rbp, -16
	movq	%rsp, %rbp
	.cfi_def_cfa_register %rbp
	subq	$16, %rsp
	movq	%rdi, -8(%rbp)
	movq	%rdi, -16(%rbp)
	movq	-16(%rbp), %rax
Ltmp430:
	.loc	22 29 9 prologue_end
	cmpq	$0, %rax
	sete	%cl
	.loc	22 30 6
	andb	$1, %cl
	movzbl	%cl, %edx
	movl	%edx, %eax
	addq	$16, %rsp
	popq	%rbp
	retq
Ltmp431:
Lfunc_end132:
	.cfi_endproc

	.p2align	4, 0x90
__ZN4core3ptr7mut_ptr41_$LT$impl$u20$$BP$mut$u20$$u5b$T$u5d$$GT$10as_mut_ptr17h3915a5c2206efff0E:
Lfunc_begin133:
	.loc	22 1051 0
	.cfi_startproc
	pushq	%rbp
	.cfi_def_cfa_offset 16
	.cfi_offset %rbp, -16
	movq	%rsp, %rbp
	.cfi_def_cfa_register %rbp
	subq	$16, %rsp
	movq	%rdi, -16(%rbp)
	movq	%rsi, -8(%rbp)
Ltmp432:
	.loc	22 1053 6 prologue_end
	movq	%rdi, %rax
	addq	$16, %rsp
	popq	%rbp
	retq
Ltmp433:
Lfunc_end133:
	.cfi_endproc

	.p2align	4, 0x90
__ZN4core3ptr8non_null16NonNull$LT$T$GT$13new_unchecked17h5d21770454e7a6a6E:
Lfunc_begin134:
	.loc	5 90 0
	.cfi_startproc
	pushq	%rbp
	.cfi_def_cfa_offset 16
	.cfi_offset %rbp, -16
	movq	%rsp, %rbp
	.cfi_def_cfa_register %rbp
	subq	$16, %rsp
	movq	%rdi, -8(%rbp)
Ltmp434:
	.loc	5 92 18 prologue_end
	movq	%rdi, -16(%rbp)
	.loc	5 93 6
	movq	-16(%rbp), %rax
	addq	$16, %rsp
	popq	%rbp
	retq
Ltmp435:
Lfunc_end134:
	.cfi_endproc

	.p2align	4, 0x90
__ZN4core3ptr8non_null16NonNull$LT$T$GT$13new_unchecked17hee784606c7090980E:
Lfunc_begin135:
	.loc	5 90 0
	.cfi_startproc
	pushq	%rbp
	.cfi_def_cfa_offset 16
	.cfi_offset %rbp, -16
	movq	%rsp, %rbp
	.cfi_def_cfa_register %rbp
	subq	$16, %rsp
	movq	%rdi, -8(%rbp)
Ltmp436:
	.loc	5 92 18 prologue_end
	movq	%rdi, -16(%rbp)
	.loc	5 93 6
	movq	-16(%rbp), %rax
	addq	$16, %rsp
	popq	%rbp
	retq
Ltmp437:
Lfunc_end135:
	.cfi_endproc

	.p2align	4, 0x90
__ZN4core3ptr8non_null16NonNull$LT$T$GT$3new17h26ce46f5def8f538E:
Lfunc_begin136:
	.loc	5 98 0
	.cfi_startproc
	pushq	%rbp
	.cfi_def_cfa_offset 16
	.cfi_offset %rbp, -16
	movq	%rsp, %rbp
	.cfi_def_cfa_register %rbp
	subq	$48, %rsp
	movq	%rdi, -8(%rbp)
	movq	%rdi, -24(%rbp)
Ltmp438:
	.loc	5 99 13 prologue_end
	callq	__ZN4core3ptr7mut_ptr31_$LT$impl$u20$$BP$mut$u20$T$GT$7is_null17hd27b5d8ad169800eE
	movb	%al, -25(%rbp)
	.loc	5 0 13 is_stmt 0
	movb	-25(%rbp), %al
	.loc	5 99 12
	xorb	$-1, %al
	.loc	5 99 9
	testb	$1, %al
	jne	LBB136_3
	.loc	5 103 13 is_stmt 1
	movq	$0, -16(%rbp)
	.loc	5 99 9
	jmp	LBB136_5
LBB136_3:
	.loc	5 0 9 is_stmt 0
	movq	-24(%rbp), %rdi
	.loc	5 101 27 is_stmt 1
	callq	__ZN4core3ptr8non_null16NonNull$LT$T$GT$13new_unchecked17hee784606c7090980E
	movq	%rax, -40(%rbp)
	.loc	5 0 27 is_stmt 0
	movq	-40(%rbp), %rax
	.loc	5 101 13
	movq	%rax, -16(%rbp)
LBB136_5:
	.loc	5 105 6 is_stmt 1
	movq	-16(%rbp), %rax
	addq	$48, %rsp
	popq	%rbp
	retq
Ltmp439:
Lfunc_end136:
	.cfi_endproc

	.p2align	4, 0x90
__ZN4core3ptr8non_null16NonNull$LT$T$GT$4cast17h66cb4aa5744d132dE:
Lfunc_begin137:
	.loc	5 145 0
	.cfi_startproc
	pushq	%rbp
	.cfi_def_cfa_offset 16
	.cfi_offset %rbp, -16
	movq	%rsp, %rbp
	.cfi_def_cfa_register %rbp
	subq	$32, %rsp
	movq	%rdi, -8(%rbp)
Ltmp440:
	.loc	5 147 41 prologue_end
	callq	__ZN4core3ptr8non_null16NonNull$LT$T$GT$6as_ptr17h8184dc69c8ad2345E
	movq	%rax, -16(%rbp)
	.loc	5 0 41 is_stmt 0
	movq	-16(%rbp), %rax
	.loc	5 147 18
	movq	%rax, %rdi
	callq	__ZN4core3ptr8non_null16NonNull$LT$T$GT$13new_unchecked17h5d21770454e7a6a6E
	movq	%rax, -24(%rbp)
	.loc	5 0 18
	movq	-24(%rbp), %rax
	.loc	5 148 6 is_stmt 1
	addq	$32, %rsp
	popq	%rbp
	retq
Ltmp441:
Lfunc_end137:
	.cfi_endproc

	.p2align	4, 0x90
__ZN4core3ptr8non_null16NonNull$LT$T$GT$6as_ptr17h22ac767803151babE:
Lfunc_begin138:
	.loc	5 111 0
	.cfi_startproc
	pushq	%rbp
	.cfi_def_cfa_offset 16
	.cfi_offset %rbp, -16
	movq	%rsp, %rbp
	.cfi_def_cfa_register %rbp
	pushq	%rax
	movq	%rdi, -8(%rbp)
Ltmp442:
	.loc	5 113 6 prologue_end
	movq	%rdi, %rax
	addq	$8, %rsp
	popq	%rbp
	retq
Ltmp443:
Lfunc_end138:
	.cfi_endproc

	.p2align	4, 0x90
__ZN4core3ptr8non_null16NonNull$LT$T$GT$6as_ptr17h8184dc69c8ad2345E:
Lfunc_begin139:
	.loc	5 111 0
	.cfi_startproc
	pushq	%rbp
	.cfi_def_cfa_offset 16
	.cfi_offset %rbp, -16
	movq	%rsp, %rbp
	.cfi_def_cfa_register %rbp
	pushq	%rax
	movq	%rdi, -8(%rbp)
Ltmp444:
	.loc	5 113 6 prologue_end
	movq	%rdi, %rax
	addq	$8, %rsp
	popq	%rbp
	retq
Ltmp445:
Lfunc_end139:
	.cfi_endproc

	.p2align	4, 0x90
__ZN4core3ptr8non_null16NonNull$LT$T$GT$6as_ref17h3b46056c9a047875E:
Lfunc_begin140:
	.loc	5 122 0
	.cfi_startproc
	pushq	%rbp
	.cfi_def_cfa_offset 16
	.cfi_offset %rbp, -16
	movq	%rsp, %rbp
	.cfi_def_cfa_register %rbp
	subq	$16, %rsp
	movq	%rdi, -8(%rbp)
Ltmp446:
	.loc	5 125 20 prologue_end
	movq	(%rdi), %rdi
	callq	__ZN4core3ptr8non_null16NonNull$LT$T$GT$6as_ptr17h8184dc69c8ad2345E
	movq	%rax, -16(%rbp)
	.loc	5 0 20 is_stmt 0
	movq	-16(%rbp), %rax
	.loc	5 126 6 is_stmt 1
	addq	$16, %rsp
	popq	%rbp
	retq
Ltmp447:
Lfunc_end140:
	.cfi_endproc

	.p2align	4, 0x90
__ZN4core3ptr9const_ptr33_$LT$impl$u20$$BP$const$u20$T$GT$13guaranteed_eq17h34373b06c5c4a26eE:
Lfunc_begin141:
	.file	23 "/rustc/6c8927b0cf80ceee19386026cf9d7fd4fd9d486f/src/libcore/ptr/const_ptr.rs"
	.loc	23 327 0
	.cfi_startproc
	pushq	%rbp
	.cfi_def_cfa_offset 16
	.cfi_offset %rbp, -16
	movq	%rsp, %rbp
	.cfi_def_cfa_register %rbp
	subq	$32, %rsp
	movq	%rdi, -24(%rbp)
	movq	%rsi, -16(%rbp)
Ltmp448:
	.loc	23 331 9 prologue_end
	cmpq	%rsi, %rdi
	sete	%al
	andb	$1, %al
	movb	%al, -1(%rbp)
	movb	-1(%rbp), %al
	movb	%al, -25(%rbp)
	.loc	23 0 9 is_stmt 0
	movb	-25(%rbp), %al
	.loc	23 332 6 is_stmt 1
	andb	$1, %al
	movzbl	%al, %eax
	addq	$32, %rsp
	popq	%rbp
	retq
Ltmp449:
Lfunc_end141:
	.cfi_endproc

	.p2align	4, 0x90
__ZN4core3ptr9const_ptr33_$LT$impl$u20$$BP$const$u20$T$GT$3add17h16297d975783f190E:
Lfunc_begin142:
	.loc	23 473 0
	.cfi_startproc
	pushq	%rbp
	.cfi_def_cfa_offset 16
	.cfi_offset %rbp, -16
	movq	%rsp, %rbp
	.cfi_def_cfa_register %rbp
	subq	$32, %rsp
	movq	%rdi, -16(%rbp)
	movq	%rsi, -8(%rbp)
Ltmp450:
	.loc	23 478 18 prologue_end
	callq	__ZN4core3ptr9const_ptr33_$LT$impl$u20$$BP$const$u20$T$GT$6offset17h2ab58cc99f5d3328E
	movq	%rax, -24(%rbp)
	.loc	23 0 18 is_stmt 0
	movq	-24(%rbp), %rax
	.loc	23 479 6 is_stmt 1
	addq	$32, %rsp
	popq	%rbp
	retq
Ltmp451:
Lfunc_end142:
	.cfi_endproc

	.p2align	4, 0x90
__ZN4core3ptr9const_ptr33_$LT$impl$u20$$BP$const$u20$T$GT$3add17h2182a602342404a9E:
Lfunc_begin143:
	.loc	23 473 0
	.cfi_startproc
	pushq	%rbp
	.cfi_def_cfa_offset 16
	.cfi_offset %rbp, -16
	movq	%rsp, %rbp
	.cfi_def_cfa_register %rbp
	subq	$32, %rsp
	movq	%rdi, -16(%rbp)
	movq	%rsi, -8(%rbp)
Ltmp452:
	.loc	23 478 18 prologue_end
	callq	__ZN4core3ptr9const_ptr33_$LT$impl$u20$$BP$const$u20$T$GT$6offset17h3f4b78c36b091e91E
	movq	%rax, -24(%rbp)
	.loc	23 0 18 is_stmt 0
	movq	-24(%rbp), %rax
	.loc	23 479 6 is_stmt 1
	addq	$32, %rsp
	popq	%rbp
	retq
Ltmp453:
Lfunc_end143:
	.cfi_endproc

	.p2align	4, 0x90
__ZN4core3ptr9const_ptr33_$LT$impl$u20$$BP$const$u20$T$GT$3add17h2e1c7f79ea854974E:
Lfunc_begin144:
	.loc	23 473 0
	.cfi_startproc
	pushq	%rbp
	.cfi_def_cfa_offset 16
	.cfi_offset %rbp, -16
	movq	%rsp, %rbp
	.cfi_def_cfa_register %rbp
	subq	$32, %rsp
	movq	%rdi, -16(%rbp)
	movq	%rsi, -8(%rbp)
Ltmp454:
	.loc	23 478 18 prologue_end
	callq	__ZN4core3ptr9const_ptr33_$LT$impl$u20$$BP$const$u20$T$GT$6offset17h69ad499edf8a8432E
	movq	%rax, -24(%rbp)
	.loc	23 0 18 is_stmt 0
	movq	-24(%rbp), %rax
	.loc	23 479 6 is_stmt 1
	addq	$32, %rsp
	popq	%rbp
	retq
Ltmp455:
Lfunc_end144:
	.cfi_endproc

	.p2align	4, 0x90
__ZN4core3ptr9const_ptr33_$LT$impl$u20$$BP$const$u20$T$GT$3add17hb44605a56b000a68E:
Lfunc_begin145:
	.loc	23 473 0
	.cfi_startproc
	pushq	%rbp
	.cfi_def_cfa_offset 16
	.cfi_offset %rbp, -16
	movq	%rsp, %rbp
	.cfi_def_cfa_register %rbp
	subq	$32, %rsp
	movq	%rdi, -16(%rbp)
	movq	%rsi, -8(%rbp)
Ltmp456:
	.loc	23 478 18 prologue_end
	callq	__ZN4core3ptr9const_ptr33_$LT$impl$u20$$BP$const$u20$T$GT$6offset17hf6bdae61717ac333E
	movq	%rax, -24(%rbp)
	.loc	23 0 18 is_stmt 0
	movq	-24(%rbp), %rax
	.loc	23 479 6 is_stmt 1
	addq	$32, %rsp
	popq	%rbp
	retq
Ltmp457:
Lfunc_end145:
	.cfi_endproc

	.p2align	4, 0x90
__ZN4core3ptr9const_ptr33_$LT$impl$u20$$BP$const$u20$T$GT$6offset17h2ab58cc99f5d3328E:
Lfunc_begin146:
	.loc	23 159 0
	.cfi_startproc
	pushq	%rbp
	.cfi_def_cfa_offset 16
	.cfi_offset %rbp, -16
	movq	%rsp, %rbp
	.cfi_def_cfa_register %rbp
	subq	$32, %rsp
	movq	%rdi, -24(%rbp)
	movq	%rsi, -16(%rbp)
Ltmp458:
	.loc	23 164 18 prologue_end
	imulq	$24, %rsi, %rax
	addq	%rax, %rdi
	movq	%rdi, -8(%rbp)
	movq	-8(%rbp), %rax
	movq	%rax, -32(%rbp)
	.loc	23 0 18 is_stmt 0
	movq	-32(%rbp), %rax
	.loc	23 165 6 is_stmt 1
	addq	$32, %rsp
	popq	%rbp
	retq
Ltmp459:
Lfunc_end146:
	.cfi_endproc

	.p2align	4, 0x90
__ZN4core3ptr9const_ptr33_$LT$impl$u20$$BP$const$u20$T$GT$6offset17h3f4b78c36b091e91E:
Lfunc_begin147:
	.loc	23 159 0
	.cfi_startproc
	pushq	%rbp
	.cfi_def_cfa_offset 16
	.cfi_offset %rbp, -16
	movq	%rsp, %rbp
	.cfi_def_cfa_register %rbp
	subq	$32, %rsp
	movq	%rdi, -24(%rbp)
	movq	%rsi, -16(%rbp)
Ltmp460:
	.loc	23 164 18 prologue_end
	imulq	$24, %rsi, %rax
	addq	%rax, %rdi
	movq	%rdi, -8(%rbp)
	movq	-8(%rbp), %rax
	movq	%rax, -32(%rbp)
	.loc	23 0 18 is_stmt 0
	movq	-32(%rbp), %rax
	.loc	23 165 6 is_stmt 1
	addq	$32, %rsp
	popq	%rbp
	retq
Ltmp461:
Lfunc_end147:
	.cfi_endproc

	.p2align	4, 0x90
__ZN4core3ptr9const_ptr33_$LT$impl$u20$$BP$const$u20$T$GT$6offset17h69ad499edf8a8432E:
Lfunc_begin148:
	.loc	23 159 0
	.cfi_startproc
	pushq	%rbp
	.cfi_def_cfa_offset 16
	.cfi_offset %rbp, -16
	movq	%rsp, %rbp
	.cfi_def_cfa_register %rbp
	subq	$32, %rsp
	movq	%rdi, -24(%rbp)
	movq	%rsi, -16(%rbp)
Ltmp462:
	.loc	23 164 18 prologue_end
	shlq	$3, %rsi
	addq	%rsi, %rdi
	movq	%rdi, -8(%rbp)
	movq	-8(%rbp), %rax
	movq	%rax, -32(%rbp)
	.loc	23 0 18 is_stmt 0
	movq	-32(%rbp), %rax
	.loc	23 165 6 is_stmt 1
	addq	$32, %rsp
	popq	%rbp
	retq
Ltmp463:
Lfunc_end148:
	.cfi_endproc

	.p2align	4, 0x90
__ZN4core3ptr9const_ptr33_$LT$impl$u20$$BP$const$u20$T$GT$6offset17hf6bdae61717ac333E:
Lfunc_begin149:
	.loc	23 159 0
	.cfi_startproc
	pushq	%rbp
	.cfi_def_cfa_offset 16
	.cfi_offset %rbp, -16
	movq	%rsp, %rbp
	.cfi_def_cfa_register %rbp
	subq	$32, %rsp
	movq	%rdi, -24(%rbp)
	movq	%rsi, -16(%rbp)
Ltmp464:
	.loc	23 164 18 prologue_end
	addq	%rsi, %rdi
	movq	%rdi, -8(%rbp)
	movq	-8(%rbp), %rax
	movq	%rax, -32(%rbp)
	.loc	23 0 18 is_stmt 0
	movq	-32(%rbp), %rax
	.loc	23 165 6 is_stmt 1
	addq	$32, %rsp
	popq	%rbp
	retq
Ltmp465:
Lfunc_end149:
	.cfi_endproc

	.p2align	4, 0x90
__ZN4core3ptr9const_ptr43_$LT$impl$u20$$BP$const$u20$$u5b$T$u5d$$GT$6as_ptr17h1accc2777d2ec85cE:
Lfunc_begin150:
	.loc	23 845 0
	.cfi_startproc
	pushq	%rbp
	.cfi_def_cfa_offset 16
	.cfi_offset %rbp, -16
	movq	%rsp, %rbp
	.cfi_def_cfa_register %rbp
	subq	$16, %rsp
	movq	%rdi, -16(%rbp)
	movq	%rsi, -8(%rbp)
Ltmp466:
	.loc	23 847 6 prologue_end
	movq	%rdi, %rax
	addq	$16, %rsp
	popq	%rbp
	retq
Ltmp467:
Lfunc_end150:
	.cfi_endproc

	.p2align	4, 0x90
__ZN4core3ptr9const_ptr43_$LT$impl$u20$$BP$const$u20$$u5b$T$u5d$$GT$6as_ptr17h796c01d709ee557cE:
Lfunc_begin151:
	.loc	23 845 0
	.cfi_startproc
	pushq	%rbp
	.cfi_def_cfa_offset 16
	.cfi_offset %rbp, -16
	movq	%rsp, %rbp
	.cfi_def_cfa_register %rbp
	subq	$16, %rsp
	movq	%rdi, -16(%rbp)
	movq	%rsi, -8(%rbp)
Ltmp468:
	.loc	23 847 6 prologue_end
	movq	%rdi, %rax
	addq	$16, %rsp
	popq	%rbp
	retq
Ltmp469:
Lfunc_end151:
	.cfi_endproc

	.p2align	4, 0x90
__ZN4core3ptr9const_ptr43_$LT$impl$u20$$BP$const$u20$$u5b$T$u5d$$GT$6as_ptr17hba8a4d8319969d8aE:
Lfunc_begin152:
	.loc	23 845 0
	.cfi_startproc
	pushq	%rbp
	.cfi_def_cfa_offset 16
	.cfi_offset %rbp, -16
	movq	%rsp, %rbp
	.cfi_def_cfa_register %rbp
	subq	$16, %rsp
	movq	%rdi, -16(%rbp)
	movq	%rsi, -8(%rbp)
Ltmp470:
	.loc	23 847 6 prologue_end
	movq	%rdi, %rax
	addq	$16, %rsp
	popq	%rbp
	retq
Ltmp471:
Lfunc_end152:
	.cfi_endproc

	.p2align	4, 0x90
__ZN4core3ptr9const_ptr43_$LT$impl$u20$$BP$const$u20$$u5b$T$u5d$$GT$6as_ptr17hcdf3e8e4e59371a6E:
Lfunc_begin153:
	.loc	23 845 0
	.cfi_startproc
	pushq	%rbp
	.cfi_def_cfa_offset 16
	.cfi_offset %rbp, -16
	movq	%rsp, %rbp
	.cfi_def_cfa_register %rbp
	subq	$16, %rsp
	movq	%rdi, -16(%rbp)
	movq	%rsi, -8(%rbp)
Ltmp472:
	.loc	23 847 6 prologue_end
	movq	%rdi, %rax
	addq	$16, %rsp
	popq	%rbp
	retq
Ltmp473:
Lfunc_end153:
	.cfi_endproc

	.p2align	4, 0x90
__ZN4core3str21_$LT$impl$u20$str$GT$13get_unchecked17h27eac9344e57ee70E:
Lfunc_begin154:
	.loc	8 2533 0
	.cfi_startproc
	pushq	%rbp
	.cfi_def_cfa_offset 16
	.cfi_offset %rbp, -16
	movq	%rsp, %rbp
	.cfi_def_cfa_register %rbp
	subq	$64, %rsp
	movq	%rdi, -32(%rbp)
	movq	%rsi, -24(%rbp)
	movq	%rdx, -16(%rbp)
	movq	%rcx, -8(%rbp)
	movq	%rdi, -40(%rbp)
Ltmp474:
	.loc	8 2537 20 prologue_end
	movq	%rdx, %rdi
	movq	%rsi, -48(%rbp)
	movq	%rcx, %rsi
	movq	-40(%rbp), %rdx
	movq	-48(%rbp), %rcx
	callq	__ZN4core3str6traits101_$LT$impl$u20$core..slice..SliceIndex$LT$str$GT$$u20$for$u20$core..ops..range..Range$LT$usize$GT$$GT$13get_unchecked17ha61a8edd23ffa13bE
	movq	%rax, -56(%rbp)
	movq	%rdx, -64(%rbp)
	.loc	8 0 20 is_stmt 0
	movq	-56(%rbp), %rax
	movq	-64(%rbp), %rdx
	.loc	8 2538 6 is_stmt 1
	addq	$64, %rsp
	popq	%rbp
	retq
Ltmp475:
Lfunc_end154:
	.cfi_endproc

	.p2align	4, 0x90
__ZN4core3str21_$LT$impl$u20$str$GT$3len17hcf1fbeec53ed04a6E:
Lfunc_begin155:
	.loc	8 2273 0
	.cfi_startproc
	pushq	%rbp
	.cfi_def_cfa_offset 16
	.cfi_offset %rbp, -16
	movq	%rsp, %rbp
	.cfi_def_cfa_register %rbp
	subq	$80, %rsp
	movq	%rdi, -48(%rbp)
	movq	%rsi, -40(%rbp)
	movq	%rdi, -16(%rbp)
	movq	%rsi, -8(%rbp)
Ltmp476:
	.loc	8 2359 18 prologue_end
	movq	%rdi, -32(%rbp)
	movq	%rsi, -24(%rbp)
	movq	-32(%rbp), %rdi
	movq	-24(%rbp), %rsi
	movq	%rdi, -56(%rbp)
	movq	%rsi, -64(%rbp)
Ltmp477:
	.loc	8 0 18 is_stmt 0
	movq	-56(%rbp), %rdi
	movq	-64(%rbp), %rsi
	.loc	8 2274 9 is_stmt 1
	callq	__ZN4core5slice29_$LT$impl$u20$$u5b$T$u5d$$GT$3len17hfdc7413d98089755E
	movq	%rax, -72(%rbp)
	.loc	8 0 9 is_stmt 0
	movq	-72(%rbp), %rax
	.loc	8 2275 6 is_stmt 1
	addq	$80, %rsp
	popq	%rbp
	retq
Ltmp478:
Lfunc_end155:
	.cfi_endproc

	.p2align	4, 0x90
__ZN4core3str21_$LT$impl$u20$str$GT$5parse17hedc4dce0e081c4d4E:
Lfunc_begin156:
	.loc	8 4268 0
	.cfi_startproc
	pushq	%rbp
	.cfi_def_cfa_offset 16
	.cfi_offset %rbp, -16
	movq	%rsp, %rbp
	.cfi_def_cfa_register %rbp
	subq	$32, %rsp
	movq	%rdi, -24(%rbp)
	movq	%rsi, -16(%rbp)
Ltmp479:
	.loc	8 4269 9 prologue_end
	callq	__ZN4core3num52_$LT$impl$u20$core..str..FromStr$u20$for$u20$u32$GT$8from_str17h7755800c3765c881E
	movq	%rax, -8(%rbp)
	movq	-8(%rbp), %rax
	movq	%rax, -32(%rbp)
	.loc	8 4270 6
	movq	-32(%rbp), %rax
	addq	$32, %rsp
	popq	%rbp
	retq
Ltmp480:
Lfunc_end156:
	.cfi_endproc

	.p2align	4, 0x90
__ZN4core3str21_$LT$impl$u20$str$GT$5split17hbf8e4ea7d1be84f3E:
Lfunc_begin157:
	.loc	8 3320 0
	.cfi_startproc
	.cfi_personality 155, _rust_eh_personality
	.cfi_lsda 16, Lexception19
	pushq	%rbp
	.cfi_def_cfa_offset 16
	.cfi_offset %rbp, -16
	movq	%rsp, %rbp
	.cfi_def_cfa_register %rbp
	subq	$224, %rsp
	movq	%rdi, %rax
	movq	%rsi, -40(%rbp)
	movq	%rdx, -32(%rbp)
	movl	%ecx, -20(%rbp)
Ltmp486:
	.loc	8 3321 15 prologue_end
	movb	$0, -41(%rbp)
	movb	$1, -41(%rbp)
Ltmp481:
	movq	%rdi, -176(%rbp)
	.loc	8 3323 18
	movq	%rsi, %rdi
	movq	%rsi, -184(%rbp)
	movq	%rdx, %rsi
	movl	%ecx, -188(%rbp)
	movq	%rdx, -200(%rbp)
	movq	%rax, -208(%rbp)
	callq	__ZN4core3str21_$LT$impl$u20$str$GT$3len17hcf1fbeec53ed04a6E
Ltmp482:
	movq	%rax, -216(%rbp)
	jmp	LBB157_2
LBB157_1:
	.loc	8 3320 5
	movq	-16(%rbp), %rdi
	callq	__Unwind_Resume
	ud2
LBB157_2:
	.loc	8 3324 22
	movb	$0, -41(%rbp)
Ltmp483:
	leaq	-96(%rbp), %rdi
	movl	-188(%rbp), %esi
	movq	-184(%rbp), %rdx
	movq	-200(%rbp), %rcx
	callq	__ZN52_$LT$char$u20$as$u20$core..str..pattern..Pattern$GT$13into_searcher17h0a20ada8ac6f906fE
Ltmp484:
	jmp	LBB157_3
LBB157_3:
	.loc	8 3321 15
	movq	$0, -168(%rbp)
	movq	-216(%rbp), %rax
	movq	%rax, -160(%rbp)
	leaq	-168(%rbp), %rcx
	movq	%rcx, %rdx
	addq	$16, %rdx
	leaq	-96(%rbp), %rsi
	movq	%rdx, %rdi
	movl	$48, %edx
	movq	%rcx, -224(%rbp)
	callq	_memcpy
	movb	$1, -104(%rbp)
	movb	$0, -103(%rbp)
	movq	-176(%rbp), %rax
	movq	-224(%rbp), %rcx
	.loc	8 3321 9 is_stmt 0
	movq	%rax, %rdi
	movq	%rcx, %rsi
	movl	$72, %edx
	callq	_memcpy
	movq	-208(%rbp), %rax
	.loc	8 3328 6 is_stmt 1
	addq	$224, %rsp
	popq	%rbp
	retq
LBB157_4:
	.loc	8 3328 5 is_stmt 0
	movb	$0, -41(%rbp)
	jmp	LBB157_1
LBB157_5:
	testb	$1, -41(%rbp)
	jne	LBB157_4
	jmp	LBB157_1
Ltmp487:
LBB157_6:
Ltmp485:
	.loc	8 0 5
	movq	%rax, -16(%rbp)
	movl	%edx, -8(%rbp)
	jmp	LBB157_5
Lfunc_end157:
	.cfi_endproc
	.section	__TEXT,__gcc_except_tab
	.p2align	2
GCC_except_table157:
Lexception19:
	.byte	255
	.byte	255
	.byte	1
	.uleb128 Lcst_end19-Lcst_begin19
Lcst_begin19:
	.uleb128 Ltmp481-Lfunc_begin157
	.uleb128 Ltmp482-Ltmp481
	.uleb128 Ltmp485-Lfunc_begin157
	.byte	0
	.uleb128 Ltmp482-Lfunc_begin157
	.uleb128 Ltmp483-Ltmp482
	.byte	0
	.byte	0
	.uleb128 Ltmp483-Lfunc_begin157
	.uleb128 Ltmp484-Ltmp483
	.uleb128 Ltmp485-Lfunc_begin157
	.byte	0
	.uleb128 Ltmp484-Lfunc_begin157
	.uleb128 Lfunc_end157-Ltmp484
	.byte	0
	.byte	0
Lcst_end19:
	.p2align	2

	.section	__TEXT,__text,regular,pure_instructions
	.p2align	4, 0x90
__ZN4core3str22SplitInternal$LT$P$GT$4next17h6635d04ba264f448E:
Lfunc_begin158:
	.loc	8 1118 0 is_stmt 1
	.cfi_startproc
	pushq	%rbp
	.cfi_def_cfa_offset 16
	.cfi_offset %rbp, -16
	movq	%rsp, %rbp
	.cfi_def_cfa_register %rbp
	subq	$160, %rsp
	movq	%rdi, -56(%rbp)
Ltmp488:
	.loc	8 1119 9 prologue_end
	testb	$1, 65(%rdi)
	movq	%rdi, -120(%rbp)
	jne	LBB158_2
	.loc	8 0 9 is_stmt 0
	movq	-120(%rbp), %rax
	.loc	8 1123 24 is_stmt 1
	addq	$16, %rax
	movq	%rax, %rdi
	callq	__ZN81_$LT$core..str..pattern..CharSearcher$u20$as$u20$core..str..pattern..Searcher$GT$8haystack17h29f844445840f0dcE
	movq	%rax, -48(%rbp)
	movq	%rdx, -40(%rbp)
	movq	%rax, -128(%rbp)
	movq	%rdx, -136(%rbp)
	jmp	LBB158_4
LBB158_2:
	.loc	8 1120 20
	movq	$0, -112(%rbp)
LBB158_3:
	.loc	8 1133 6
	movq	-112(%rbp), %rax
	movq	-104(%rbp), %rdx
	addq	$160, %rsp
	popq	%rbp
	retq
LBB158_4:
	.loc	8 0 6 is_stmt 0
	movq	-120(%rbp), %rax
Ltmp489:
	.loc	8 1124 15 is_stmt 1
	addq	$16, %rax
	leaq	-96(%rbp), %rdi
	movq	%rax, %rsi
	callq	__ZN81_$LT$core..str..pattern..CharSearcher$u20$as$u20$core..str..pattern..Searcher$GT$10next_match17h7761ca56da351bf0E
	.loc	8 1126 13
	movq	-96(%rbp), %rax
	testq	%rax, %rax
	je	LBB158_6
	jmp	LBB158_12
LBB158_12:
	jmp	LBB158_8
LBB158_6:
	.loc	8 0 13 is_stmt 0
	movq	-120(%rbp), %rdi
	.loc	8 1131 21 is_stmt 1
	callq	__ZN4core3str22SplitInternal$LT$P$GT$7get_end17h04ffe28dbb940f2aE
	movq	%rdx, -104(%rbp)
	movq	%rax, -112(%rbp)
	jmp	LBB158_10
	.loc	8 1124 15
	ud2
LBB158_8:
	.loc	8 1126 19
	movq	-88(%rbp), %rax
	movq	%rax, -32(%rbp)
	.loc	8 1126 22 is_stmt 0
	movq	-80(%rbp), %rcx
	movq	%rcx, -24(%rbp)
	movq	-120(%rbp), %rdx
Ltmp490:
	.loc	8 1127 50 is_stmt 1
	movq	(%rdx), %rsi
	movq	%rsi, -72(%rbp)
	movq	%rax, -64(%rbp)
	.loc	8 1127 27 is_stmt 0
	movq	-72(%rbp), %rdx
	movq	-64(%rbp), %rax
	movq	-128(%rbp), %rdi
	movq	-136(%rbp), %rsi
	movq	%rcx, -144(%rbp)
	movq	%rax, %rcx
	callq	__ZN4core3str21_$LT$impl$u20$str$GT$13get_unchecked17h27eac9344e57ee70E
	movq	%rax, -16(%rbp)
	movq	%rdx, -8(%rbp)
	movq	%rax, -152(%rbp)
	movq	%rdx, -160(%rbp)
	.loc	8 0 27
	movq	-120(%rbp), %rax
	movq	-144(%rbp), %rcx
Ltmp491:
	.loc	8 1128 17 is_stmt 1
	movq	%rcx, (%rax)
	movq	-152(%rbp), %rdx
	.loc	8 1129 17
	movq	%rdx, -112(%rbp)
	movq	-160(%rbp), %rsi
	movq	%rsi, -104(%rbp)
Ltmp492:
	.loc	8 1124 9
	jmp	LBB158_11
LBB158_10:
	jmp	LBB158_11
Ltmp493:
LBB158_11:
	.loc	8 1133 6
	jmp	LBB158_3
Ltmp494:
Lfunc_end158:
	.cfi_endproc

	.p2align	4, 0x90
__ZN4core3str22SplitInternal$LT$P$GT$7get_end17h04ffe28dbb940f2aE:
Lfunc_begin159:
	.loc	8 1104 0
	.cfi_startproc
	pushq	%rbp
	.cfi_def_cfa_offset 16
	.cfi_offset %rbp, -16
	movq	%rsp, %rbp
	.cfi_def_cfa_register %rbp
	subq	$112, %rsp
	movq	%rdi, -24(%rbp)
Ltmp495:
	.loc	8 1105 13 prologue_end
	movb	65(%rdi), %al
	.loc	8 1105 12 is_stmt 0
	xorb	$-1, %al
	testb	$1, %al
	movq	%rdi, -72(%rbp)
	jne	LBB159_3
	jmp	LBB159_2
LBB159_1:
	movb	$1, -42(%rbp)
	jmp	LBB159_4
LBB159_2:
	movb	$0, -42(%rbp)
	jmp	LBB159_4
LBB159_3:
	.loc	8 0 12
	movq	-72(%rbp), %rax
	.loc	8 1105 30
	testb	$1, 64(%rax)
	jne	LBB159_5
	jmp	LBB159_7
LBB159_4:
	.loc	8 1105 9
	testb	$1, -42(%rbp)
	jne	LBB159_10
	jmp	LBB159_9
LBB159_5:
	.loc	8 1105 30
	movb	$1, -41(%rbp)
	jmp	LBB159_8
LBB159_6:
	movb	$0, -41(%rbp)
	jmp	LBB159_8
LBB159_7:
	.loc	8 0 30
	movq	-72(%rbp), %rax
	.loc	8 1105 60
	movq	8(%rax), %rcx
	subq	(%rax), %rcx
	cmpq	$0, %rcx
	.loc	8 1105 30
	ja	LBB159_5
	jmp	LBB159_6
LBB159_8:
	.loc	8 1105 12
	testb	$1, -41(%rbp)
	jne	LBB159_1
	jmp	LBB159_2
LBB159_9:
	.loc	8 1113 13 is_stmt 1
	movq	$0, -64(%rbp)
	.loc	8 1105 9
	jmp	LBB159_13
LBB159_10:
	.loc	8 0 9 is_stmt 0
	movq	-72(%rbp), %rax
	.loc	8 1106 13 is_stmt 1
	movb	$1, 65(%rax)
	.loc	8 1109 30
	addq	$16, %rax
	movq	%rax, %rdi
	callq	__ZN81_$LT$core..str..pattern..CharSearcher$u20$as$u20$core..str..pattern..Searcher$GT$8haystack17h29f844445840f0dcE
	movq	%rax, -80(%rbp)
	movq	%rdx, -88(%rbp)
	.loc	8 0 30 is_stmt 0
	movq	-72(%rbp), %rax
	.loc	8 1109 68
	movq	(%rax), %rcx
	.loc	8 1109 80
	movq	8(%rax), %rdx
	.loc	8 1109 68
	movq	%rcx, -40(%rbp)
	movq	%rdx, -32(%rbp)
	.loc	8 1109 30
	movq	-40(%rbp), %rdx
	movq	-32(%rbp), %rcx
	movq	-80(%rbp), %rdi
	movq	-88(%rbp), %rsi
	callq	__ZN4core3str21_$LT$impl$u20$str$GT$13get_unchecked17h27eac9344e57ee70E
	movq	%rax, -16(%rbp)
	movq	%rdx, -8(%rbp)
	movq	%rax, -96(%rbp)
	movq	%rdx, -104(%rbp)
	.loc	8 0 30
	movq	-96(%rbp), %rax
Ltmp496:
	.loc	8 1110 17 is_stmt 1
	movq	%rax, -64(%rbp)
	movq	-104(%rbp), %rcx
	movq	%rcx, -56(%rbp)
Ltmp497:
LBB159_13:
	.loc	8 1115 6
	movq	-64(%rbp), %rax
	movq	-56(%rbp), %rdx
	addq	$112, %rsp
	popq	%rbp
	retq
Ltmp498:
Lfunc_end159:
	.cfi_endproc

	.p2align	4, 0x90
__ZN4core3str23from_utf8_unchecked_mut17h23875c6b64fe7a4bE:
Lfunc_begin160:
	.loc	8 444 0
	.cfi_startproc
	pushq	%rbp
	.cfi_def_cfa_offset 16
	.cfi_offset %rbp, -16
	movq	%rsp, %rbp
	.cfi_def_cfa_register %rbp
	subq	$16, %rsp
	movq	%rdi, -16(%rbp)
	movq	%rsi, -8(%rbp)
Ltmp499:
	.loc	8 450 2 prologue_end
	movq	%rdi, %rax
	movq	%rsi, %rdx
	addq	$16, %rsp
	popq	%rbp
	retq
Ltmp500:
Lfunc_end160:
	.cfi_endproc

	.p2align	4, 0x90
__ZN4core3str6traits101_$LT$impl$u20$core..slice..SliceIndex$LT$str$GT$$u20$for$u20$core..ops..range..Range$LT$usize$GT$$GT$13get_unchecked17ha61a8edd23ffa13bE:
Lfunc_begin161:
	.loc	8 1907 0
	.cfi_startproc
	pushq	%rbp
	.cfi_def_cfa_offset 16
	.cfi_offset %rbp, -16
	movq	%rsp, %rbp
	.cfi_def_cfa_register %rbp
	subq	$112, %rsp
	movq	%rdi, -64(%rbp)
	movq	%rsi, -56(%rbp)
	movq	%rdx, -48(%rbp)
	movq	%rcx, -40(%rbp)
Ltmp501:
	.loc	8 1908 25 prologue_end
	movq	%rdx, -32(%rbp)
	movq	%rcx, -24(%rbp)
	movq	%rdi, -72(%rbp)
Ltmp502:
	.loc	8 1911 32
	movq	%rdx, %rdi
	movq	%rsi, -80(%rbp)
	movq	%rcx, %rsi
	callq	__ZN4core3ptr9const_ptr43_$LT$impl$u20$$BP$const$u20$$u5b$T$u5d$$GT$6as_ptr17h796c01d709ee557cE
	movq	%rax, -88(%rbp)
	.loc	8 0 32 is_stmt 0
	movq	-88(%rbp), %rdi
	movq	-72(%rbp), %rsi
	.loc	8 1911 32
	callq	__ZN4core3ptr9const_ptr33_$LT$impl$u20$$BP$const$u20$T$GT$3add17hb44605a56b000a68E
	movq	%rax, -16(%rbp)
	movq	%rax, -96(%rbp)
	.loc	8 0 32
	movq	-80(%rbp), %rax
	movq	-72(%rbp), %rcx
Ltmp503:
	.loc	8 1912 23 is_stmt 1
	subq	%rcx, %rax
	movq	%rax, -8(%rbp)
	movq	-96(%rbp), %rdi
Ltmp504:
	.loc	8 1913 13
	movq	%rax, %rsi
	callq	__ZN4core3ptr20slice_from_raw_parts17hbe5db4710ab42c2bE
	movq	%rax, -104(%rbp)
	movq	%rdx, -112(%rbp)
Ltmp505:
	.loc	8 0 13 is_stmt 0
	movq	-104(%rbp), %rax
	movq	-112(%rbp), %rdx
	.loc	8 1914 10 is_stmt 1
	addq	$112, %rsp
	popq	%rbp
	retq
Ltmp506:
Lfunc_end161:
	.cfi_endproc

	.p2align	4, 0x90
__ZN4core3str6traits54_$LT$impl$u20$core..cmp..PartialEq$u20$for$u20$str$GT$2eq17hdef6bf6fe249148cE:
Lfunc_begin162:
	.loc	8 1742 0
	.cfi_startproc
	pushq	%rbp
	.cfi_def_cfa_offset 16
	.cfi_offset %rbp, -16
	movq	%rsp, %rbp
	.cfi_def_cfa_register %rbp
	subq	$160, %rsp
	movq	%rdi, -96(%rbp)
	movq	%rsi, -88(%rbp)
	movq	%rdx, -80(%rbp)
	movq	%rcx, -72(%rbp)
	movq	%rdi, -48(%rbp)
	movq	%rsi, -40(%rbp)
Ltmp507:
	.loc	8 2359 18 prologue_end
	movq	%rdi, -64(%rbp)
	movq	%rsi, -56(%rbp)
	movq	-64(%rbp), %rax
	movq	-56(%rbp), %rsi
Ltmp508:
	.loc	8 1743 13
	movq	%rsi, -120(%rbp)
	movq	%rax, -128(%rbp)
	movq	%rdx, -136(%rbp)
	movq	%rcx, -144(%rbp)
	.loc	8 0 13 is_stmt 0
	movq	-136(%rbp), %rax
	movq	%rax, -16(%rbp)
	movq	-144(%rbp), %rcx
	movq	%rcx, -8(%rbp)
Ltmp509:
	.loc	8 2359 18 is_stmt 1
	movq	%rax, -32(%rbp)
	movq	%rcx, -24(%rbp)
	movq	-32(%rbp), %rdx
	movq	-24(%rbp), %rsi
Ltmp510:
	.loc	8 1743 32
	movq	%rsi, -104(%rbp)
	movq	%rdx, -112(%rbp)
	.loc	8 1743 13 is_stmt 0
	leaq	-128(%rbp), %rdi
	leaq	-112(%rbp), %rsi
	callq	__ZN4core3cmp5impls69_$LT$impl$u20$core..cmp..PartialEq$LT$$RF$B$GT$$u20$for$u20$$RF$A$GT$2eq17h63addb247a1782a8E
	movb	%al, -145(%rbp)
	.loc	8 0 13
	movb	-145(%rbp), %al
	.loc	8 1744 10 is_stmt 1
	andb	$1, %al
	movzbl	%al, %eax
	addq	$160, %rsp
	popq	%rbp
	retq
Ltmp511:
Lfunc_end162:
	.cfi_endproc

	.p2align	4, 0x90
__ZN4core3str6traits54_$LT$impl$u20$core..cmp..PartialEq$u20$for$u20$str$GT$2ne17h841a5101aa868805E:
Lfunc_begin163:
	.loc	8 1746 0
	.cfi_startproc
	pushq	%rbp
	.cfi_def_cfa_offset 16
	.cfi_offset %rbp, -16
	movq	%rsp, %rbp
	.cfi_def_cfa_register %rbp
	subq	$48, %rsp
	movq	%rdi, -32(%rbp)
	movq	%rsi, -24(%rbp)
	movq	%rdx, -16(%rbp)
	movq	%rcx, -8(%rbp)
Ltmp512:
	.loc	8 1747 14 prologue_end
	callq	__ZN4core3str6traits54_$LT$impl$u20$core..cmp..PartialEq$u20$for$u20$str$GT$2eq17hdef6bf6fe249148cE
	movb	%al, -33(%rbp)
	.loc	8 0 14 is_stmt 0
	movb	-33(%rbp), %al
	.loc	8 1747 13
	xorb	$-1, %al
	.loc	8 1748 10 is_stmt 1
	andb	$1, %al
	movzbl	%al, %eax
	addq	$48, %rsp
	popq	%rbp
	retq
Ltmp513:
Lfunc_end163:
	.cfi_endproc

	.p2align	4, 0x90
__ZN4core4char7methods15encode_utf8_raw17h3ba8d8bf189b71e2E:
Lfunc_begin164:
	.file	24 "/rustc/6c8927b0cf80ceee19386026cf9d7fd4fd9d486f/src/libcore/char/methods.rs"
	.loc	24 1621 0
	.cfi_startproc
	pushq	%rbp
	.cfi_def_cfa_offset 16
	.cfi_offset %rbp, -16
	movq	%rsp, %rbp
	.cfi_def_cfa_register %rbp
	subq	$432, %rsp
	movl	%edi, -292(%rbp)
	movq	%rsi, -120(%rbp)
	movq	%rdx, -112(%rbp)
Ltmp514:
	.loc	24 1622 24 prologue_end
	movl	-292(%rbp), %edi
	movq	%rsi, -304(%rbp)
	movq	%rdx, -312(%rbp)
	.loc	24 1622 15 is_stmt 0
	callq	__ZN4core4char7methods8len_utf817h873cdd5cadae4ecbE
	movq	%rax, -288(%rbp)
	.loc	24 0 15
	leaq	l___unnamed_3(%rip), %rax
Ltmp515:
	.loc	24 1623 12 is_stmt 1
	movq	-288(%rbp), %rcx
	movq	-304(%rbp), %rdi
	movq	-312(%rbp), %rsi
	.loc	24 1623 22 is_stmt 0
	movq	%rax, %rdx
	movq	%rcx, -320(%rbp)
	callq	__ZN4core5slice77_$LT$impl$u20$core..ops..index..IndexMut$LT$I$GT$$u20$for$u20$$u5b$T$u5d$$GT$9index_mut17hdeda991644ec3508E
	movq	%rax, -328(%rbp)
	movq	%rdx, -336(%rbp)
	.loc	24 0 22
	movq	-320(%rbp), %rax
	.loc	24 1623 11
	movq	%rax, -280(%rbp)
	movq	-328(%rbp), %rcx
	movq	%rcx, -272(%rbp)
	movq	-336(%rbp), %rdx
	movq	%rdx, -264(%rbp)
	.loc	24 1624 10 is_stmt 1
	movq	-280(%rbp), %rsi
	decq	%rsi
	movq	%rsi, %rdi
	subq	$3, %rdi
	movq	%rsi, -344(%rbp)
	ja	LBB164_4
	.loc	24 0 10 is_stmt 0
	leaq	LJTI164_0(%rip), %rax
	movq	-344(%rbp), %rcx
	movslq	(%rax,%rcx,4), %rdx
	addq	%rax, %rdx
	jmpq	*%rdx
LBB164_3:
	.loc	24 1624 13
	cmpq	$1, -264(%rbp)
	jae	LBB164_8
LBB164_4:
	.loc	24 1643 13 is_stmt 1
	movq	l___unnamed_4(%rip), %rax
	movq	-304(%rbp), %rdi
	movq	-312(%rbp), %rsi
	movq	%rax, -352(%rbp)
	.loc	24 1646 13
	callq	__ZN4core5slice29_$LT$impl$u20$$u5b$T$u5d$$GT$3len17hfdc7413d98089755E
	movq	%rax, -136(%rbp)
	jmp	LBB164_12
LBB164_5:
	.loc	24 1627 13
	cmpq	$2, -264(%rbp)
	jae	LBB164_9
	jmp	LBB164_4
LBB164_6:
	.loc	24 1631 13
	cmpq	$3, -264(%rbp)
	jae	LBB164_10
	jmp	LBB164_4
LBB164_7:
	.loc	24 1636 13
	cmpq	$4, -264(%rbp)
	jae	LBB164_11
	jmp	LBB164_4
LBB164_8:
	.loc	24 1624 14
	movq	-272(%rbp), %rax
	movq	%rax, -32(%rbp)
Ltmp516:
	.loc	24 1625 18
	movl	-292(%rbp), %ecx
	.loc	24 1625 13 is_stmt 0
	movb	%cl, (%rax)
Ltmp517:
	.loc	24 1623 5 is_stmt 1
	jmp	LBB164_17
LBB164_9:
	.loc	24 1627 14
	movq	-272(%rbp), %rax
	movq	%rax, -48(%rbp)
	.loc	24 1627 17 is_stmt 0
	movq	-272(%rbp), %rcx
	movq	%rcx, %rdx
	addq	$1, %rdx
	movq	%rdx, -40(%rbp)
Ltmp518:
	.loc	24 1628 19 is_stmt 1
	movl	-292(%rbp), %esi
	shrl	$6, %esi
	.loc	24 1628 18 is_stmt 0
	andl	$31, %esi
	.loc	24 1628 13
	orb	$-64, %sil
	movb	%sil, (%rax)
	.loc	24 1629 19 is_stmt 1
	movl	-292(%rbp), %edi
	.loc	24 1629 18 is_stmt 0
	andl	$63, %edi
	.loc	24 1629 13
	orb	$-128, %dil
	movb	%dil, 1(%rcx)
Ltmp519:
	.loc	24 1623 5 is_stmt 1
	jmp	LBB164_17
LBB164_10:
	.loc	24 1631 14
	movq	-272(%rbp), %rax
	movq	%rax, -72(%rbp)
	.loc	24 1631 17 is_stmt 0
	movq	-272(%rbp), %rcx
	movq	%rcx, %rdx
	addq	$1, %rdx
	movq	%rdx, -64(%rbp)
	.loc	24 1631 20
	movq	-272(%rbp), %rdx
	movq	%rdx, %rsi
	addq	$2, %rsi
	movq	%rsi, -56(%rbp)
Ltmp520:
	.loc	24 1632 19 is_stmt 1
	movl	-292(%rbp), %edi
	shrl	$12, %edi
	.loc	24 1632 18 is_stmt 0
	andl	$15, %edi
	.loc	24 1632 13
	orb	$-32, %dil
	movb	%dil, (%rax)
	.loc	24 1633 19 is_stmt 1
	movl	-292(%rbp), %r8d
	shrl	$6, %r8d
	.loc	24 1633 18 is_stmt 0
	andl	$63, %r8d
	.loc	24 1633 13
	orb	$-128, %r8b
	movb	%r8b, 1(%rcx)
	.loc	24 1634 19 is_stmt 1
	movl	-292(%rbp), %r9d
	.loc	24 1634 18 is_stmt 0
	andl	$63, %r9d
	.loc	24 1634 13
	orb	$-128, %r9b
	movb	%r9b, 2(%rdx)
Ltmp521:
	.loc	24 1623 5 is_stmt 1
	jmp	LBB164_17
LBB164_11:
	.loc	24 1636 14
	movq	-272(%rbp), %rax
	movq	%rax, -104(%rbp)
	.loc	24 1636 17 is_stmt 0
	movq	-272(%rbp), %rcx
	movq	%rcx, %rdx
	addq	$1, %rdx
	movq	%rdx, -96(%rbp)
	.loc	24 1636 20
	movq	-272(%rbp), %rdx
	movq	%rdx, %rsi
	addq	$2, %rsi
	movq	%rsi, -88(%rbp)
	.loc	24 1636 23
	movq	-272(%rbp), %rsi
	movq	%rsi, %rdi
	addq	$3, %rdi
	movq	%rdi, -80(%rbp)
Ltmp522:
	.loc	24 1637 19 is_stmt 1
	movl	-292(%rbp), %r8d
	shrl	$18, %r8d
	.loc	24 1637 18 is_stmt 0
	andl	$7, %r8d
	.loc	24 1637 13
	orb	$-16, %r8b
	movb	%r8b, (%rax)
	.loc	24 1638 19 is_stmt 1
	movl	-292(%rbp), %r9d
	shrl	$12, %r9d
	.loc	24 1638 18 is_stmt 0
	andl	$63, %r9d
	.loc	24 1638 13
	orb	$-128, %r9b
	movb	%r9b, 1(%rcx)
	.loc	24 1639 19 is_stmt 1
	movl	-292(%rbp), %r10d
	shrl	$6, %r10d
	.loc	24 1639 18 is_stmt 0
	andl	$63, %r10d
	.loc	24 1639 13
	orb	$-128, %r10b
	movb	%r10b, 2(%rdx)
	.loc	24 1640 19 is_stmt 1
	movl	-292(%rbp), %r11d
	.loc	24 1640 18 is_stmt 0
	andl	$63, %r11d
	.loc	24 1640 13
	orb	$-128, %r11b
	movb	%r11b, 3(%rsi)
Ltmp523:
	.loc	24 1623 5 is_stmt 1
	jmp	LBB164_17
LBB164_12:
	.loc	24 0 5 is_stmt 0
	movq	__ZN4core3fmt3num3imp54_$LT$impl$u20$core..fmt..Display$u20$for$u20$usize$GT$3fmt17h12ea2856299c9b06E@GOTPCREL(%rip), %rsi
	.file	25 "/rustc/6c8927b0cf80ceee19386026cf9d7fd4fd9d486f/src/libcore/macros/mod.rs"
	.loc	25 19 38 is_stmt 1
	leaq	-288(%rbp), %rax
	movq	%rax, -160(%rbp)
	leaq	-292(%rbp), %rax
	movq	%rax, -152(%rbp)
	leaq	-136(%rbp), %rax
	movq	%rax, -144(%rbp)
	.loc	24 1644 13
	movq	-160(%rbp), %rax
	movq	%rax, -24(%rbp)
	.loc	24 1645 13
	movq	-152(%rbp), %rcx
	movq	%rcx, -16(%rbp)
	.loc	24 1646 13
	movq	-144(%rbp), %rdx
	movq	%rdx, -8(%rbp)
Ltmp524:
	.loc	25 19 38
	movq	%rax, %rdi
	movq	%rcx, -360(%rbp)
	movq	%rdx, -368(%rbp)
	callq	__ZN4core3fmt10ArgumentV13new17hc97647eb9e96c0b0E
	movq	%rax, -376(%rbp)
	movq	%rdx, -384(%rbp)
	.loc	25 0 38 is_stmt 0
	movq	__ZN4core3fmt3num53_$LT$impl$u20$core..fmt..UpperHex$u20$for$u20$u32$GT$3fmt17h7bd10b5f3c9584f1E@GOTPCREL(%rip), %rsi
	movq	-360(%rbp), %rdi
	.loc	25 19 38
	callq	__ZN4core3fmt10ArgumentV13new17h0370a324ab47ef5fE
	movq	%rax, -392(%rbp)
	movq	%rdx, -400(%rbp)
	.loc	25 0 38
	movq	__ZN4core3fmt3num3imp54_$LT$impl$u20$core..fmt..Display$u20$for$u20$usize$GT$3fmt17h12ea2856299c9b06E@GOTPCREL(%rip), %rsi
	movq	-368(%rbp), %rdi
	.loc	25 19 38
	callq	__ZN4core3fmt10ArgumentV13new17hc97647eb9e96c0b0E
	movq	%rax, -408(%rbp)
	movq	%rdx, -416(%rbp)
	.loc	25 0 38
	movq	-376(%rbp), %rax
	.loc	25 19 38
	movq	%rax, -208(%rbp)
	movq	-384(%rbp), %rcx
	movq	%rcx, -200(%rbp)
	movq	-392(%rbp), %rdx
	movq	%rdx, -192(%rbp)
	movq	-400(%rbp), %rsi
	movq	%rsi, -184(%rbp)
	movq	-408(%rbp), %rdi
	movq	%rdi, -176(%rbp)
	movq	-416(%rbp), %r8
	movq	%r8, -168(%rbp)
Ltmp525:
	.loc	25 19 38
	leaq	-208(%rbp), %r9
	leaq	-256(%rbp), %rdi
	movq	-352(%rbp), %rsi
	movl	$3, %r10d
	movq	%r10, %rdx
	movq	%r9, %rcx
	movq	%r10, %r8
	callq	__ZN4core3fmt9Arguments6new_v117he0e983ba2e6e5445E
	.loc	25 19 9
	leaq	l___unnamed_5(%rip), %rsi
	leaq	-256(%rbp), %rdi
	callq	__ZN4core9panicking9panic_fmt17hfce5b7173905fc53E
LBB164_17:
	.loc	25 0 9
	leaq	l___unnamed_6(%rip), %rax
	.loc	24 1649 16 is_stmt 1
	movq	-288(%rbp), %rcx
	.loc	24 1649 14 is_stmt 0
	movq	%rcx, -128(%rbp)
	.loc	24 1649 10
	movq	-128(%rbp), %rdx
	movq	-304(%rbp), %rdi
	movq	-312(%rbp), %rsi
	movq	%rax, %rcx
	callq	__ZN4core5slice77_$LT$impl$u20$core..ops..index..IndexMut$LT$I$GT$$u20$for$u20$$u5b$T$u5d$$GT$9index_mut17h802b446f1c2d9770E
	movq	%rax, -424(%rbp)
	movq	%rdx, -432(%rbp)
Ltmp526:
	.loc	24 0 10
	movq	-424(%rbp), %rax
	movq	-432(%rbp), %rdx
	.loc	24 1650 2 is_stmt 1
	addq	$432, %rsp
	popq	%rbp
	retq
Ltmp527:
Lfunc_end164:
	.cfi_endproc
	.p2align	2, 0x90
	.data_region jt32
.set L164_0_set_3, LBB164_3-LJTI164_0
.set L164_0_set_5, LBB164_5-LJTI164_0
.set L164_0_set_6, LBB164_6-LJTI164_0
.set L164_0_set_7, LBB164_7-LJTI164_0
LJTI164_0:
	.long	L164_0_set_3
	.long	L164_0_set_5
	.long	L164_0_set_6
	.long	L164_0_set_7
	.end_data_region

	.p2align	4, 0x90
__ZN4core4char7methods22_$LT$impl$u20$char$GT$11encode_utf817h0660d503254a2b49E:
Lfunc_begin165:
	.loc	24 642 0
	.cfi_startproc
	pushq	%rbp
	.cfi_def_cfa_offset 16
	.cfi_offset %rbp, -16
	movq	%rsp, %rbp
	.cfi_def_cfa_register %rbp
	subq	$64, %rsp
	movl	%edi, -20(%rbp)
	movq	%rsi, -16(%rbp)
	movq	%rdx, -8(%rbp)
Ltmp528:
	.loc	24 644 42 prologue_end
	callq	__ZN4core4char7methods15encode_utf8_raw17h3ba8d8bf189b71e2E
	movq	%rax, -32(%rbp)
	movq	%rdx, -40(%rbp)
	.loc	24 0 42 is_stmt 0
	movq	-32(%rbp), %rdi
	movq	-40(%rbp), %rsi
	.loc	24 644 18
	callq	__ZN4core3str23from_utf8_unchecked_mut17h23875c6b64fe7a4bE
	movq	%rax, -48(%rbp)
	movq	%rdx, -56(%rbp)
	.loc	24 0 18
	movq	-48(%rbp), %rax
	movq	-56(%rbp), %rdx
	.loc	24 645 6 is_stmt 1
	addq	$64, %rsp
	popq	%rbp
	retq
Ltmp529:
Lfunc_end165:
	.cfi_endproc

	.p2align	4, 0x90
__ZN4core4char7methods8len_utf817h873cdd5cadae4ecbE:
Lfunc_begin166:
	.loc	24 1593 0
	.cfi_startproc
	pushq	%rbp
	.cfi_def_cfa_offset 16
	.cfi_offset %rbp, -16
	movq	%rsp, %rbp
	.cfi_def_cfa_register %rbp
	subq	$24, %rsp
	movl	%edi, -4(%rbp)
Ltmp530:
	.loc	24 1594 8 prologue_end
	cmpl	$128, %edi
	movl	%edi, -20(%rbp)
	.loc	24 1594 5 is_stmt 0
	jb	LBB166_2
	.loc	24 0 5
	movl	-20(%rbp), %eax
	.loc	24 1596 15 is_stmt 1
	cmpl	$2048, %eax
	.loc	24 1596 12 is_stmt 0
	jb	LBB166_4
	jmp	LBB166_3
LBB166_2:
	.loc	24 1595 9 is_stmt 1
	movq	$1, -16(%rbp)
	.loc	24 1594 5
	jmp	LBB166_9
LBB166_3:
	.loc	24 0 5 is_stmt 0
	movl	-20(%rbp), %eax
	.loc	24 1598 15 is_stmt 1
	cmpl	$65536, %eax
	.loc	24 1598 12 is_stmt 0
	jb	LBB166_6
	jmp	LBB166_5
LBB166_4:
	.loc	24 1597 9 is_stmt 1
	movq	$2, -16(%rbp)
	.loc	24 1596 12
	jmp	LBB166_8
LBB166_5:
	.loc	24 1601 9
	movq	$4, -16(%rbp)
	.loc	24 1598 12
	jmp	LBB166_7
LBB166_6:
	.loc	24 1599 9
	movq	$3, -16(%rbp)
LBB166_7:
	.loc	24 1596 12
	jmp	LBB166_8
LBB166_8:
	.loc	24 1594 5
	jmp	LBB166_9
LBB166_9:
	.loc	24 1603 2
	movq	-16(%rbp), %rax
	addq	$24, %rsp
	popq	%rbp
	retq
Ltmp531:
Lfunc_end166:
	.cfi_endproc

	.p2align	4, 0x90
__ZN4core5alloc6layout10size_align17h3012d34e92ba8179E:
Lfunc_begin167:
	.file	26 "/rustc/6c8927b0cf80ceee19386026cf9d7fd4fd9d486f/src/libcore/alloc/layout.rs"
	.loc	26 7 0
	.cfi_startproc
	pushq	%rbp
	.cfi_def_cfa_offset 16
	.cfi_offset %rbp, -16
	movq	%rsp, %rbp
	.cfi_def_cfa_register %rbp
	subq	$48, %rsp
Ltmp532:
	.loc	16 310 5 prologue_end
	movq	$640, -16(%rbp)
	movq	-16(%rbp), %rax
	movq	%rax, -40(%rbp)
Ltmp533:
	.loc	16 451 5
	movq	$8, -8(%rbp)
	movq	-8(%rbp), %rax
	movq	%rax, -48(%rbp)
Ltmp534:
	.loc	16 0 5 is_stmt 0
	movq	-40(%rbp), %rax
	.loc	26 8 5 is_stmt 1
	movq	%rax, -32(%rbp)
	movq	-48(%rbp), %rcx
	movq	%rcx, -24(%rbp)
	.loc	26 9 2
	movq	-32(%rbp), %rax
	movq	-24(%rbp), %rdx
	addq	$48, %rsp
	popq	%rbp
	retq
Ltmp535:
Lfunc_end167:
	.cfi_endproc

	.p2align	4, 0x90
__ZN4core5alloc6layout10size_align17hb7f8a0b149300840E:
Lfunc_begin168:
	.loc	26 7 0
	.cfi_startproc
	pushq	%rbp
	.cfi_def_cfa_offset 16
	.cfi_offset %rbp, -16
	movq	%rsp, %rbp
	.cfi_def_cfa_register %rbp
	subq	$48, %rsp
Ltmp536:
	.loc	16 310 5 prologue_end
	movq	$544, -16(%rbp)
	movq	-16(%rbp), %rax
	movq	%rax, -40(%rbp)
Ltmp537:
	.loc	16 451 5
	movq	$8, -8(%rbp)
	movq	-8(%rbp), %rax
	movq	%rax, -48(%rbp)
Ltmp538:
	.loc	16 0 5 is_stmt 0
	movq	-40(%rbp), %rax
	.loc	26 8 5 is_stmt 1
	movq	%rax, -32(%rbp)
	movq	-48(%rbp), %rcx
	movq	%rcx, -24(%rbp)
	.loc	26 9 2
	movq	-32(%rbp), %rax
	movq	-24(%rbp), %rdx
	addq	$48, %rsp
	popq	%rbp
	retq
Ltmp539:
Lfunc_end168:
	.cfi_endproc

	.p2align	4, 0x90
__ZN4core5alloc6layout6Layout25from_size_align_unchecked17h839e595282c12fb8E:
Lfunc_begin169:
	.loc	26 92 0
	.cfi_startproc
	pushq	%rbp
	.cfi_def_cfa_offset 16
	.cfi_offset %rbp, -16
	movq	%rsp, %rbp
	.cfi_def_cfa_register %rbp
	subq	$48, %rsp
	movq	%rdi, -16(%rbp)
	movq	%rsi, -8(%rbp)
	movq	%rdi, -40(%rbp)
Ltmp540:
	.loc	26 94 48 prologue_end
	movq	%rsi, %rdi
	callq	__ZN4core3num12NonZeroUsize13new_unchecked17h61f7b37304243501E
	movq	%rax, -48(%rbp)
	.loc	26 0 48 is_stmt 0
	movq	-40(%rbp), %rax
	.loc	26 94 9
	movq	%rax, -32(%rbp)
	movq	-48(%rbp), %rcx
	movq	%rcx, -24(%rbp)
	.loc	26 95 6 is_stmt 1
	movq	-32(%rbp), %rax
	movq	-24(%rbp), %rdx
	addq	$48, %rsp
	popq	%rbp
	retq
Ltmp541:
Lfunc_end169:
	.cfi_endproc

	.p2align	4, 0x90
__ZN4core5alloc6layout6Layout3new17h6dbe1e9a36165a32E:
Lfunc_begin170:
	.loc	26 117 0
	.cfi_startproc
	pushq	%rbp
	.cfi_def_cfa_offset 16
	.cfi_offset %rbp, -16
	movq	%rsp, %rbp
	.cfi_def_cfa_register %rbp
	subq	$48, %rsp
Ltmp542:
	.loc	26 118 29 prologue_end
	callq	__ZN4core5alloc6layout10size_align17h3012d34e92ba8179E
	movq	%rax, -24(%rbp)
	movq	%rdx, -32(%rbp)
	.loc	26 0 29 is_stmt 0
	movq	-24(%rbp), %rax
	.loc	26 118 14
	movq	%rax, -16(%rbp)
	movq	-32(%rbp), %rcx
	.loc	26 118 20
	movq	%rcx, -8(%rbp)
Ltmp543:
	.loc	26 123 18 is_stmt 1
	movq	%rax, %rdi
	movq	%rcx, %rsi
	callq	__ZN4core5alloc6layout6Layout25from_size_align_unchecked17h839e595282c12fb8E
	movq	%rax, -40(%rbp)
	movq	%rdx, -48(%rbp)
Ltmp544:
	.loc	26 0 18 is_stmt 0
	movq	-40(%rbp), %rax
	movq	-48(%rbp), %rdx
	.loc	26 124 6 is_stmt 1
	addq	$48, %rsp
	popq	%rbp
	retq
Ltmp545:
Lfunc_end170:
	.cfi_endproc

	.p2align	4, 0x90
__ZN4core5alloc6layout6Layout3new17ha6ee3ee0f84fb5b1E:
Lfunc_begin171:
	.loc	26 117 0
	.cfi_startproc
	pushq	%rbp
	.cfi_def_cfa_offset 16
	.cfi_offset %rbp, -16
	movq	%rsp, %rbp
	.cfi_def_cfa_register %rbp
	subq	$48, %rsp
Ltmp546:
	.loc	26 118 29 prologue_end
	callq	__ZN4core5alloc6layout10size_align17hb7f8a0b149300840E
	movq	%rax, -24(%rbp)
	movq	%rdx, -32(%rbp)
	.loc	26 0 29 is_stmt 0
	movq	-24(%rbp), %rax
	.loc	26 118 14
	movq	%rax, -16(%rbp)
	movq	-32(%rbp), %rcx
	.loc	26 118 20
	movq	%rcx, -8(%rbp)
Ltmp547:
	.loc	26 123 18 is_stmt 1
	movq	%rax, %rdi
	movq	%rcx, %rsi
	callq	__ZN4core5alloc6layout6Layout25from_size_align_unchecked17h839e595282c12fb8E
	movq	%rax, -40(%rbp)
	movq	%rdx, -48(%rbp)
Ltmp548:
	.loc	26 0 18 is_stmt 0
	movq	-40(%rbp), %rax
	movq	-48(%rbp), %rdx
	.loc	26 124 6 is_stmt 1
	addq	$48, %rsp
	popq	%rbp
	retq
Ltmp549:
Lfunc_end171:
	.cfi_endproc

	.p2align	4, 0x90
__ZN4core5alloc6layout6Layout4size17h2c701e36ca034da4E:
Lfunc_begin172:
	.loc	26 101 0
	.cfi_startproc
	pushq	%rbp
	.cfi_def_cfa_offset 16
	.cfi_offset %rbp, -16
	movq	%rsp, %rbp
	.cfi_def_cfa_register %rbp
	pushq	%rax
	movq	%rdi, -8(%rbp)
Ltmp550:
	.loc	26 102 9 prologue_end
	movq	(%rdi), %rax
	.loc	26 103 6
	addq	$8, %rsp
	popq	%rbp
	retq
Ltmp551:
Lfunc_end172:
	.cfi_endproc

	.p2align	4, 0x90
__ZN4core5alloc6layout6Layout5align17h4b1f0699c4a83fb3E:
Lfunc_begin173:
	.loc	26 109 0
	.cfi_startproc
	pushq	%rbp
	.cfi_def_cfa_offset 16
	.cfi_offset %rbp, -16
	movq	%rsp, %rbp
	.cfi_def_cfa_register %rbp
	subq	$16, %rsp
	movq	%rdi, -8(%rbp)
Ltmp552:
	.loc	26 110 9 prologue_end
	movq	8(%rdi), %rdi
	callq	__ZN4core3num12NonZeroUsize3get17hc93a0142e23fb7a9E
	movq	%rax, -16(%rbp)
	.loc	26 0 9 is_stmt 0
	movq	-16(%rbp), %rax
	.loc	26 111 6 is_stmt 1
	addq	$16, %rsp
	popq	%rbp
	retq
Ltmp553:
Lfunc_end173:
	.cfi_endproc

	.p2align	4, 0x90
__ZN4core5slice14from_raw_parts17h4195a0b662dd5f42E:
Lfunc_begin174:
	.loc	1 6094 0
	.cfi_startproc
	pushq	%rbp
	.cfi_def_cfa_offset 16
	.cfi_offset %rbp, -16
	movq	%rsp, %rbp
	.cfi_def_cfa_register %rbp
	subq	$32, %rsp
	movq	%rdi, -16(%rbp)
	movq	%rsi, -8(%rbp)
Ltmp554:
	.loc	1 6101 16 prologue_end
	callq	__ZN4core3ptr20slice_from_raw_parts17h389f779b6eace06aE
	movq	%rax, -24(%rbp)
	movq	%rdx, -32(%rbp)
	.loc	1 0 16 is_stmt 0
	movq	-24(%rbp), %rax
	movq	-32(%rbp), %rdx
	.loc	1 6102 2 is_stmt 1
	addq	$32, %rsp
	popq	%rbp
	retq
Ltmp555:
Lfunc_end174:
	.cfi_endproc

	.p2align	4, 0x90
__ZN4core5slice14from_raw_parts17hf7659755049b2b9dE:
Lfunc_begin175:
	.loc	1 6094 0
	.cfi_startproc
	pushq	%rbp
	.cfi_def_cfa_offset 16
	.cfi_offset %rbp, -16
	movq	%rsp, %rbp
	.cfi_def_cfa_register %rbp
	subq	$32, %rsp
	movq	%rdi, -16(%rbp)
	movq	%rsi, -8(%rbp)
Ltmp556:
	.loc	1 6101 16 prologue_end
	callq	__ZN4core3ptr20slice_from_raw_parts17hbe5db4710ab42c2bE
	movq	%rax, -24(%rbp)
	movq	%rdx, -32(%rbp)
	.loc	1 0 16 is_stmt 0
	movq	-24(%rbp), %rax
	movq	-32(%rbp), %rdx
	.loc	1 6102 2 is_stmt 1
	addq	$32, %rsp
	popq	%rbp
	retq
Ltmp557:
Lfunc_end175:
	.cfi_endproc

	.p2align	4, 0x90
__ZN4core5slice14from_raw_parts17hfc3a6c5a0b758414E:
Lfunc_begin176:
	.loc	1 6094 0
	.cfi_startproc
	pushq	%rbp
	.cfi_def_cfa_offset 16
	.cfi_offset %rbp, -16
	movq	%rsp, %rbp
	.cfi_def_cfa_register %rbp
	subq	$32, %rsp
	movq	%rdi, -16(%rbp)
	movq	%rsi, -8(%rbp)
Ltmp558:
	.loc	1 6101 16 prologue_end
	callq	__ZN4core3ptr20slice_from_raw_parts17h0dbae17e769a9425E
	movq	%rax, -24(%rbp)
	movq	%rdx, -32(%rbp)
	.loc	1 0 16 is_stmt 0
	movq	-24(%rbp), %rax
	movq	-32(%rbp), %rdx
	.loc	1 6102 2 is_stmt 1
	addq	$32, %rsp
	popq	%rbp
	retq
Ltmp559:
Lfunc_end176:
	.cfi_endproc

	.p2align	4, 0x90
__ZN4core5slice29_$LT$impl$u20$$u5b$T$u5d$$GT$13get_unchecked17h11e052e5c461c67dE:
Lfunc_begin177:
	.loc	1 309 0
	.cfi_startproc
	pushq	%rbp
	.cfi_def_cfa_offset 16
	.cfi_offset %rbp, -16
	movq	%rsp, %rbp
	.cfi_def_cfa_register %rbp
	subq	$48, %rsp
	movq	%rdi, -24(%rbp)
	movq	%rsi, -16(%rbp)
	movq	%rdx, -8(%rbp)
	movq	%rdi, -32(%rbp)
Ltmp560:
	.loc	1 316 20 prologue_end
	movq	%rdx, %rdi
	movq	-32(%rbp), %rax
	movq	%rsi, -40(%rbp)
	movq	%rax, %rsi
	movq	-40(%rbp), %rdx
	callq	__ZN68_$LT$usize$u20$as$u20$core..slice..SliceIndex$LT$$u5b$T$u5d$$GT$$GT$13get_unchecked17h19792ad064f1d43aE
	movq	%rax, -48(%rbp)
	.loc	1 0 20 is_stmt 0
	movq	-48(%rbp), %rax
	.loc	1 317 6 is_stmt 1
	addq	$48, %rsp
	popq	%rbp
	retq
Ltmp561:
Lfunc_end177:
	.cfi_endproc

	.p2align	4, 0x90
__ZN4core5slice29_$LT$impl$u20$$u5b$T$u5d$$GT$13get_unchecked17h4349f578e214840eE:
Lfunc_begin178:
	.loc	1 309 0
	.cfi_startproc
	pushq	%rbp
	.cfi_def_cfa_offset 16
	.cfi_offset %rbp, -16
	movq	%rsp, %rbp
	.cfi_def_cfa_register %rbp
	subq	$48, %rsp
	movq	%rdi, -24(%rbp)
	movq	%rsi, -16(%rbp)
	movq	%rdx, -8(%rbp)
	movq	%rdi, -32(%rbp)
Ltmp562:
	.loc	1 316 20 prologue_end
	movq	%rdx, %rdi
	movq	-32(%rbp), %rax
	movq	%rsi, -40(%rbp)
	movq	%rax, %rsi
	movq	-40(%rbp), %rdx
	callq	__ZN68_$LT$usize$u20$as$u20$core..slice..SliceIndex$LT$$u5b$T$u5d$$GT$$GT$13get_unchecked17h7115d4a1539d1bf7E
	movq	%rax, -48(%rbp)
	.loc	1 0 20 is_stmt 0
	movq	-48(%rbp), %rax
	.loc	1 317 6 is_stmt 1
	addq	$48, %rsp
	popq	%rbp
	retq
Ltmp563:
Lfunc_end178:
	.cfi_endproc

	.p2align	4, 0x90
__ZN4core5slice29_$LT$impl$u20$$u5b$T$u5d$$GT$13get_unchecked17h9454e51779cb9a57E:
Lfunc_begin179:
	.loc	1 309 0
	.cfi_startproc
	pushq	%rbp
	.cfi_def_cfa_offset 16
	.cfi_offset %rbp, -16
	movq	%rsp, %rbp
	.cfi_def_cfa_register %rbp
	subq	$48, %rsp
	movq	%rdi, -24(%rbp)
	movq	%rsi, -16(%rbp)
	movq	%rdx, -8(%rbp)
	movq	%rdi, -32(%rbp)
Ltmp564:
	.loc	1 316 20 prologue_end
	movq	%rdx, %rdi
	movq	-32(%rbp), %rax
	movq	%rsi, -40(%rbp)
	movq	%rax, %rsi
	movq	-40(%rbp), %rdx
	callq	__ZN68_$LT$usize$u20$as$u20$core..slice..SliceIndex$LT$$u5b$T$u5d$$GT$$GT$13get_unchecked17hc2e555a52f4fb24dE
	movq	%rax, -48(%rbp)
	.loc	1 0 20 is_stmt 0
	movq	-48(%rbp), %rax
	.loc	1 317 6 is_stmt 1
	addq	$48, %rsp
	popq	%rbp
	retq
Ltmp565:
Lfunc_end179:
	.cfi_endproc

	.p2align	4, 0x90
__ZN4core5slice29_$LT$impl$u20$$u5b$T$u5d$$GT$13get_unchecked17heef100fb11f79b89E:
Lfunc_begin180:
	.loc	1 309 0
	.cfi_startproc
	pushq	%rbp
	.cfi_def_cfa_offset 16
	.cfi_offset %rbp, -16
	movq	%rsp, %rbp
	.cfi_def_cfa_register %rbp
	subq	$48, %rsp
	movq	%rdi, -24(%rbp)
	movq	%rsi, -16(%rbp)
	movq	%rdx, -8(%rbp)
	movq	%rdi, -32(%rbp)
Ltmp566:
	.loc	1 316 20 prologue_end
	movq	%rdx, %rdi
	movq	-32(%rbp), %rax
	movq	%rsi, -40(%rbp)
	movq	%rax, %rsi
	movq	-40(%rbp), %rdx
	callq	__ZN68_$LT$usize$u20$as$u20$core..slice..SliceIndex$LT$$u5b$T$u5d$$GT$$GT$13get_unchecked17ha55f7c5f907c9919E
	movq	%rax, -48(%rbp)
	.loc	1 0 20 is_stmt 0
	movq	-48(%rbp), %rax
	.loc	1 317 6 is_stmt 1
	addq	$48, %rsp
	popq	%rbp
	retq
Ltmp567:
Lfunc_end180:
	.cfi_endproc

	.p2align	4, 0x90
__ZN4core5slice29_$LT$impl$u20$$u5b$T$u5d$$GT$17get_unchecked_mut17h17af8c64503e0d55E:
Lfunc_begin181:
	.loc	1 343 0
	.cfi_startproc
	pushq	%rbp
	.cfi_def_cfa_offset 16
	.cfi_offset %rbp, -16
	movq	%rsp, %rbp
	.cfi_def_cfa_register %rbp
	subq	$48, %rsp
	movq	%rdi, -24(%rbp)
	movq	%rsi, -16(%rbp)
	movq	%rdx, -8(%rbp)
	movq	%rdi, -32(%rbp)
Ltmp568:
	.loc	1 350 24 prologue_end
	movq	%rdx, %rdi
	movq	-32(%rbp), %rax
	movq	%rsi, -40(%rbp)
	movq	%rax, %rsi
	movq	-40(%rbp), %rdx
	callq	__ZN68_$LT$usize$u20$as$u20$core..slice..SliceIndex$LT$$u5b$T$u5d$$GT$$GT$17get_unchecked_mut17hf4a3ac19c8e8f9dcE
	movq	%rax, -48(%rbp)
	.loc	1 0 24 is_stmt 0
	movq	-48(%rbp), %rax
	.loc	1 351 6 is_stmt 1
	addq	$48, %rsp
	popq	%rbp
	retq
Ltmp569:
Lfunc_end181:
	.cfi_endproc

	.p2align	4, 0x90
__ZN4core5slice29_$LT$impl$u20$$u5b$T$u5d$$GT$3get17h461a5f6a6debd95cE:
Lfunc_begin182:
	.loc	1 256 0
	.cfi_startproc
	pushq	%rbp
	.cfi_def_cfa_offset 16
	.cfi_offset %rbp, -16
	movq	%rsp, %rbp
	.cfi_def_cfa_register %rbp
	subq	$64, %rsp
	movq	%rdi, -32(%rbp)
	movq	%rsi, -24(%rbp)
	movq	%rdx, -16(%rbp)
	movq	%rcx, -8(%rbp)
	movq	%rdi, -40(%rbp)
Ltmp570:
	.loc	1 260 9 prologue_end
	movq	%rdx, %rdi
	movq	%rsi, -48(%rbp)
	movq	%rcx, %rsi
	movq	-40(%rbp), %rdx
	movq	-48(%rbp), %rcx
	callq	__ZN99_$LT$core..ops..range..Range$LT$usize$GT$$u20$as$u20$core..slice..SliceIndex$LT$$u5b$T$u5d$$GT$$GT$3get17hb36b0551651445c1E
	movq	%rax, -56(%rbp)
	movq	%rdx, -64(%rbp)
	.loc	1 0 9 is_stmt 0
	movq	-56(%rbp), %rax
	movq	-64(%rbp), %rdx
	.loc	1 261 6 is_stmt 1
	addq	$64, %rsp
	popq	%rbp
	retq
Ltmp571:
Lfunc_end182:
	.cfi_endproc

	.p2align	4, 0x90
__ZN4core5slice29_$LT$impl$u20$$u5b$T$u5d$$GT$3len17hfdc7413d98089755E:
Lfunc_begin183:
	.loc	1 72 0
	.cfi_startproc
	pushq	%rbp
	.cfi_def_cfa_offset 16
	.cfi_offset %rbp, -16
	movq	%rsp, %rbp
	.cfi_def_cfa_register %rbp
	subq	$32, %rsp
	movq	%rdi, -16(%rbp)
	movq	%rsi, -8(%rbp)
Ltmp572:
	.loc	1 73 18 prologue_end
	movq	%rdi, -32(%rbp)
	movq	%rsi, -24(%rbp)
	movq	-24(%rbp), %rax
	.loc	1 74 6
	addq	$32, %rsp
	popq	%rbp
	retq
Ltmp573:
Lfunc_end183:
	.cfi_endproc

	.p2align	4, 0x90
__ZN4core5slice29_$LT$impl$u20$$u5b$T$u5d$$GT$6as_ptr17hf77cec15cd970294E:
Lfunc_begin184:
	.loc	1 382 0
	.cfi_startproc
	pushq	%rbp
	.cfi_def_cfa_offset 16
	.cfi_offset %rbp, -16
	movq	%rsp, %rbp
	.cfi_def_cfa_register %rbp
	subq	$16, %rsp
	movq	%rdi, -16(%rbp)
	movq	%rsi, -8(%rbp)
Ltmp574:
	.loc	1 384 6 prologue_end
	movq	%rdi, %rax
	addq	$16, %rsp
	popq	%rbp
	retq
Ltmp575:
Lfunc_end184:
	.cfi_endproc

	.p2align	4, 0x90
__ZN4core5slice74_$LT$impl$u20$core..ops..index..Index$LT$I$GT$$u20$for$u20$$u5b$T$u5d$$GT$5index17h9832a453d160f260E:
Lfunc_begin185:
	.loc	1 2958 0
	.cfi_startproc
	pushq	%rbp
	.cfi_def_cfa_offset 16
	.cfi_offset %rbp, -16
	movq	%rsp, %rbp
	.cfi_def_cfa_register %rbp
	subq	$64, %rsp
	movq	%rdi, -32(%rbp)
	movq	%rsi, -24(%rbp)
	movq	%rdx, -16(%rbp)
	movq	%rcx, -8(%rbp)
	movq	%rdi, -40(%rbp)
Ltmp576:
	.loc	1 2959 9 prologue_end
	movq	%rdx, %rdi
	movq	%rsi, -48(%rbp)
	movq	%rcx, %rsi
	movq	-40(%rbp), %rdx
	movq	-48(%rbp), %rcx
	callq	__ZN99_$LT$core..ops..range..Range$LT$usize$GT$$u20$as$u20$core..slice..SliceIndex$LT$$u5b$T$u5d$$GT$$GT$5index17hccea61f1f266eceaE
	movq	%rax, -56(%rbp)
	movq	%rdx, -64(%rbp)
	.loc	1 0 9 is_stmt 0
	movq	-56(%rbp), %rax
	movq	-64(%rbp), %rdx
	.loc	1 2960 6 is_stmt 1
	addq	$64, %rsp
	popq	%rbp
	retq
Ltmp577:
Lfunc_end185:
	.cfi_endproc

	.p2align	4, 0x90
__ZN4core5slice77_$LT$impl$u20$core..ops..index..IndexMut$LT$I$GT$$u20$for$u20$$u5b$T$u5d$$GT$9index_mut17h802b446f1c2d9770E:
Lfunc_begin186:
	.loc	1 2969 0
	.cfi_startproc
	pushq	%rbp
	.cfi_def_cfa_offset 16
	.cfi_offset %rbp, -16
	movq	%rsp, %rbp
	.cfi_def_cfa_register %rbp
	subq	$64, %rsp
	movq	%rdi, -24(%rbp)
	movq	%rsi, -16(%rbp)
	movq	%rdx, -8(%rbp)
	movq	%rdi, -32(%rbp)
Ltmp578:
	.loc	1 2970 9 prologue_end
	movq	%rdx, %rdi
	movq	-32(%rbp), %rax
	movq	%rsi, -40(%rbp)
	movq	%rax, %rsi
	movq	-40(%rbp), %rdx
	callq	__ZN101_$LT$core..ops..range..RangeTo$LT$usize$GT$$u20$as$u20$core..slice..SliceIndex$LT$$u5b$T$u5d$$GT$$GT$9index_mut17h8db58186f5bb1cf9E
	movq	%rax, -48(%rbp)
	movq	%rdx, -56(%rbp)
	.loc	1 0 9 is_stmt 0
	movq	-48(%rbp), %rax
	movq	-56(%rbp), %rdx
	.loc	1 2971 6 is_stmt 1
	addq	$64, %rsp
	popq	%rbp
	retq
Ltmp579:
Lfunc_end186:
	.cfi_endproc

	.p2align	4, 0x90
__ZN4core5slice77_$LT$impl$u20$core..ops..index..IndexMut$LT$I$GT$$u20$for$u20$$u5b$T$u5d$$GT$9index_mut17hdeda991644ec3508E:
Lfunc_begin187:
	.loc	1 2969 0
	.cfi_startproc
	pushq	%rbp
	.cfi_def_cfa_offset 16
	.cfi_offset %rbp, -16
	movq	%rsp, %rbp
	.cfi_def_cfa_register %rbp
	subq	$48, %rsp
	movq	%rdi, -24(%rbp)
	movq	%rsi, -16(%rbp)
Ltmp580:
	.loc	1 2970 9 prologue_end
	callq	__ZN90_$LT$core..ops..range..RangeFull$u20$as$u20$core..slice..SliceIndex$LT$$u5b$T$u5d$$GT$$GT$9index_mut17h15a11abe18c06ca9E
	movq	%rax, -32(%rbp)
	movq	%rdx, -40(%rbp)
	.loc	1 0 9 is_stmt 0
	movq	-32(%rbp), %rax
	movq	-40(%rbp), %rdx
	.loc	1 2971 6 is_stmt 1
	addq	$48, %rsp
	popq	%rbp
	retq
Ltmp581:
Lfunc_end187:
	.cfi_endproc

	.p2align	4, 0x90
__ZN4core5slice81_$LT$impl$u20$core..cmp..PartialEq$LT$$u5b$B$u5d$$GT$$u20$for$u20$$u5b$A$u5d$$GT$2eq17h34fb1bbc91940418E:
Lfunc_begin188:
	.loc	1 6187 0
	.cfi_startproc
	pushq	%rbp
	.cfi_def_cfa_offset 16
	.cfi_offset %rbp, -16
	movq	%rsp, %rbp
	.cfi_def_cfa_register %rbp
	subq	$48, %rsp
	movq	%rdi, -32(%rbp)
	movq	%rsi, -24(%rbp)
	movq	%rdx, -16(%rbp)
	movq	%rcx, -8(%rbp)
Ltmp582:
	.loc	1 6188 9 prologue_end
	callq	__ZN68_$LT$$u5b$A$u5d$$u20$as$u20$core..slice..SlicePartialEq$LT$A$GT$$GT$5equal17h7cfb6c1bea86057eE
	movb	%al, -33(%rbp)
	.loc	1 0 9 is_stmt 0
	movb	-33(%rbp), %al
	.loc	1 6189 6 is_stmt 1
	andb	$1, %al
	movzbl	%al, %eax
	addq	$48, %rsp
	popq	%rbp
	retq
Ltmp583:
Lfunc_end188:
	.cfi_endproc

	.p2align	4, 0x90
__ZN4core6option15Option$LT$T$GT$14unwrap_or_else17h4592d3b0db396e89E:
Lfunc_begin189:
	.file	27 "/rustc/6c8927b0cf80ceee19386026cf9d7fd4fd9d486f/src/libcore/option.rs"
	.loc	27 425 0
	.cfi_startproc
	.cfi_personality 155, _rust_eh_personality
	.cfi_lsda 16, Lexception20
	pushq	%rbp
	.cfi_def_cfa_offset 16
	.cfi_offset %rbp, -16
	movq	%rsp, %rbp
	.cfi_def_cfa_register %rbp
	subq	$96, %rsp
	movq	%rdi, %rax
Ltmp587:
	.loc	27 427 13 prologue_end
	movb	$0, -25(%rbp)
	movb	$1, -25(%rbp)
	movq	8(%rsi), %rcx
	testq	%rcx, %rcx
	setne	%dl
	movzbl	%dl, %r8d
	movl	%r8d, %ecx
	movq	%rsi, -72(%rbp)
Ltmp588:
	.loc	27 0 13 is_stmt 0
	movq	%rdi, -80(%rbp)
	movq	%rax, -88(%rbp)
	.loc	27 427 13
	je	LBB189_1
	jmp	LBB189_10
Ltmp589:
LBB189_10:
	jmp	LBB189_3
Ltmp590:
LBB189_1:
	.loc	27 428 21 is_stmt 1
	movb	$0, -25(%rbp)
Ltmp584:
	movq	-80(%rbp), %rdi
	callq	__ZN5alloc11collections5btree16unwrap_unchecked28_$u7b$$u7b$closure$u7d$$u7d$17ha44a8c01402aad63E
Ltmp585:
	jmp	LBB189_4
Ltmp591:
	.loc	27 426 15
	ud2
LBB189_3:
Ltmp592:
	.loc	27 0 15 is_stmt 0
	movq	-72(%rbp), %rax
	.loc	27 427 18 is_stmt 1
	movq	(%rax), %rcx
	movq	%rcx, -64(%rbp)
	movq	8(%rax), %rcx
	movq	%rcx, -56(%rbp)
	movq	16(%rax), %rcx
	movq	%rcx, -48(%rbp)
	movq	24(%rax), %rcx
	movq	%rcx, -40(%rbp)
Ltmp593:
	.loc	27 427 24 is_stmt 0
	movq	-64(%rbp), %rcx
	movq	-80(%rbp), %rdx
	movq	%rcx, (%rdx)
	movq	-56(%rbp), %rcx
	movq	%rcx, 8(%rdx)
	movq	-48(%rbp), %rcx
	movq	%rcx, 16(%rdx)
	movq	-40(%rbp), %rcx
	movq	%rcx, 24(%rdx)
Ltmp594:
	.loc	27 426 9 is_stmt 1
	jmp	LBB189_8
Ltmp595:
LBB189_4:
	jmp	LBB189_8
Ltmp596:
LBB189_5:
	.loc	27 0 9 is_stmt 0
	movq	-88(%rbp), %rax
	.loc	27 430 6 is_stmt 1
	addq	$96, %rsp
	popq	%rbp
	retq
Ltmp597:
LBB189_6:
	.loc	27 425 5
	movq	-16(%rbp), %rdi
	callq	__Unwind_Resume
	ud2
Ltmp598:
LBB189_7:
	.loc	27 430 5
	movb	$0, -25(%rbp)
	jmp	LBB189_5
Ltmp599:
LBB189_8:
	testb	$1, -25(%rbp)
	jne	LBB189_7
	jmp	LBB189_5
Ltmp600:
LBB189_9:
Ltmp586:
	.loc	27 0 5 is_stmt 0
	movq	%rax, -16(%rbp)
	movl	%edx, -8(%rbp)
	jmp	LBB189_6
Lfunc_end189:
	.cfi_endproc
	.section	__TEXT,__gcc_except_tab
	.p2align	2
GCC_except_table189:
Lexception20:
	.byte	255
	.byte	255
	.byte	1
	.uleb128 Lcst_end20-Lcst_begin20
Lcst_begin20:
	.uleb128 Ltmp584-Lfunc_begin189
	.uleb128 Ltmp585-Ltmp584
	.uleb128 Ltmp586-Lfunc_begin189
	.byte	0
	.uleb128 Ltmp585-Lfunc_begin189
	.uleb128 Lfunc_end189-Ltmp585
	.byte	0
	.byte	0
Lcst_end20:
	.p2align	2

	.section	__TEXT,__text,regular,pure_instructions
	.p2align	4, 0x90
__ZN4core6option15Option$LT$T$GT$14unwrap_or_else17ha32f5d3e519d81b7E:
Lfunc_begin190:
	.loc	27 425 0 is_stmt 1
	.cfi_startproc
	.cfi_personality 155, _rust_eh_personality
	.cfi_lsda 16, Lexception21
	pushq	%rbp
	.cfi_def_cfa_offset 16
	.cfi_offset %rbp, -16
	movq	%rsp, %rbp
	.cfi_def_cfa_register %rbp
	subq	$96, %rsp
	movq	%rdi, %rax
Ltmp604:
	.loc	27 427 13 prologue_end
	movb	$0, -25(%rbp)
	movb	$1, -25(%rbp)
	movq	8(%rsi), %rcx
	testq	%rcx, %rcx
	setne	%dl
	movzbl	%dl, %r8d
	movl	%r8d, %ecx
	movq	%rsi, -72(%rbp)
Ltmp605:
	.loc	27 0 13 is_stmt 0
	movq	%rdi, -80(%rbp)
	movq	%rax, -88(%rbp)
	.loc	27 427 13
	je	LBB190_1
	jmp	LBB190_10
Ltmp606:
LBB190_10:
	jmp	LBB190_3
Ltmp607:
LBB190_1:
	.loc	27 428 21 is_stmt 1
	movb	$0, -25(%rbp)
Ltmp601:
	movq	-80(%rbp), %rdi
	callq	__ZN5alloc11collections5btree16unwrap_unchecked28_$u7b$$u7b$closure$u7d$$u7d$17ha26a45867a6c7a60E
Ltmp602:
	jmp	LBB190_4
Ltmp608:
	.loc	27 426 15
	ud2
LBB190_3:
Ltmp609:
	.loc	27 0 15 is_stmt 0
	movq	-72(%rbp), %rax
	.loc	27 427 18 is_stmt 1
	movq	(%rax), %rcx
	movq	%rcx, -64(%rbp)
	movq	8(%rax), %rcx
	movq	%rcx, -56(%rbp)
	movq	16(%rax), %rcx
	movq	%rcx, -48(%rbp)
	movq	24(%rax), %rcx
	movq	%rcx, -40(%rbp)
Ltmp610:
	.loc	27 427 24 is_stmt 0
	movq	-64(%rbp), %rcx
	movq	-80(%rbp), %rdx
	movq	%rcx, (%rdx)
	movq	-56(%rbp), %rcx
	movq	%rcx, 8(%rdx)
	movq	-48(%rbp), %rcx
	movq	%rcx, 16(%rdx)
	movq	-40(%rbp), %rcx
	movq	%rcx, 24(%rdx)
Ltmp611:
	.loc	27 426 9 is_stmt 1
	jmp	LBB190_8
Ltmp612:
LBB190_4:
	jmp	LBB190_8
Ltmp613:
LBB190_5:
	.loc	27 0 9 is_stmt 0
	movq	-88(%rbp), %rax
	.loc	27 430 6 is_stmt 1
	addq	$96, %rsp
	popq	%rbp
	retq
Ltmp614:
LBB190_6:
	.loc	27 425 5
	movq	-16(%rbp), %rdi
	callq	__Unwind_Resume
	ud2
Ltmp615:
LBB190_7:
	.loc	27 430 5
	movb	$0, -25(%rbp)
	jmp	LBB190_5
Ltmp616:
LBB190_8:
	testb	$1, -25(%rbp)
	jne	LBB190_7
	jmp	LBB190_5
Ltmp617:
LBB190_9:
Ltmp603:
	.loc	27 0 5 is_stmt 0
	movq	%rax, -16(%rbp)
	movl	%edx, -8(%rbp)
	jmp	LBB190_6
Lfunc_end190:
	.cfi_endproc
	.section	__TEXT,__gcc_except_tab
	.p2align	2
GCC_except_table190:
Lexception21:
	.byte	255
	.byte	255
	.byte	1
	.uleb128 Lcst_end21-Lcst_begin21
Lcst_begin21:
	.uleb128 Ltmp601-Lfunc_begin190
	.uleb128 Ltmp602-Ltmp601
	.uleb128 Ltmp603-Lfunc_begin190
	.byte	0
	.uleb128 Ltmp602-Lfunc_begin190
	.uleb128 Lfunc_end190-Ltmp602
	.byte	0
	.byte	0
Lcst_end21:
	.p2align	2

	.section	__TEXT,__text,regular,pure_instructions
	.p2align	4, 0x90
__ZN4core6option15Option$LT$T$GT$4take17h7982677a1e6fa421E:
Lfunc_begin191:
	.loc	27 891 0 is_stmt 1
	.cfi_startproc
	pushq	%rbp
	.cfi_def_cfa_offset 16
	.cfi_offset %rbp, -16
	movq	%rsp, %rbp
	.cfi_def_cfa_register %rbp
	subq	$32, %rsp
	movq	%rdi, -8(%rbp)
Ltmp618:
	.loc	27 892 9 prologue_end
	callq	__ZN4core3mem4take17h6e94670961c5815cE
	movq	%rax, -16(%rbp)
	movq	%rdx, -24(%rbp)
	.loc	27 0 9 is_stmt 0
	movq	-16(%rbp), %rax
	movq	-24(%rbp), %rdx
	.loc	27 893 6 is_stmt 1
	addq	$32, %rsp
	popq	%rbp
	retq
Ltmp619:
Lfunc_end191:
	.cfi_endproc

	.p2align	4, 0x90
__ZN4core6option15Option$LT$T$GT$5ok_or17h24e931ecac9ad41fE:
Lfunc_begin192:
	.loc	27 536 0
	.cfi_startproc
	pushq	%rbp
	.cfi_def_cfa_offset 16
	.cfi_offset %rbp, -16
	movq	%rsp, %rbp
	.cfi_def_cfa_register %rbp
	subq	$80, %rsp
	movq	%rdi, -80(%rbp)
	movq	%rsi, -72(%rbp)
Ltmp620:
	.loc	27 538 13 prologue_end
	movb	$0, -41(%rbp)
	movb	$1, -41(%rbp)
	movq	-80(%rbp), %rax
	testq	%rax, %rax
	setne	%cl
	movzbl	%cl, %edx
	movl	%edx, %eax
	je	LBB192_1
	jmp	LBB192_7
LBB192_7:
	jmp	LBB192_3
LBB192_1:
	.loc	27 539 25
	movb	$0, -41(%rbp)
	.loc	27 539 21 is_stmt 0
	movq	$0, -64(%rbp)
	.loc	27 537 9 is_stmt 1
	jmp	LBB192_4
	.loc	27 537 15 is_stmt 0
	ud2
LBB192_3:
	.loc	27 538 18 is_stmt 1
	movq	-80(%rbp), %rax
	movq	-72(%rbp), %rcx
	movq	%rax, -32(%rbp)
	movq	%rcx, -24(%rbp)
Ltmp621:
	.loc	27 538 24 is_stmt 0
	movq	%rax, -64(%rbp)
	movq	%rcx, -56(%rbp)
Ltmp622:
LBB192_4:
	.loc	27 541 5 is_stmt 1
	testb	$1, -41(%rbp)
	jne	LBB192_6
LBB192_5:
	.loc	27 541 6 is_stmt 0
	movq	-64(%rbp), %rax
	movq	-56(%rbp), %rdx
	addq	$80, %rsp
	popq	%rbp
	retq
LBB192_6:
	.loc	27 541 5
	movb	$0, -41(%rbp)
	jmp	LBB192_5
Ltmp623:
Lfunc_end192:
	.cfi_endproc

	.p2align	4, 0x90
__ZN4core6option15Option$LT$T$GT$5ok_or17h98fc3b159783c8a8E:
Lfunc_begin193:
	.loc	27 536 0 is_stmt 1
	.cfi_startproc
	pushq	%rbp
	.cfi_def_cfa_offset 16
	.cfi_offset %rbp, -16
	movq	%rsp, %rbp
	.cfi_def_cfa_register %rbp
	subq	$80, %rsp
	movq	%rdi, -80(%rbp)
	movq	%rsi, -72(%rbp)
Ltmp624:
	.loc	27 538 13 prologue_end
	movb	$0, -41(%rbp)
	movb	$1, -41(%rbp)
	movq	-80(%rbp), %rax
	testq	%rax, %rax
	setne	%cl
	movzbl	%cl, %edx
	movl	%edx, %eax
	je	LBB193_1
	jmp	LBB193_7
LBB193_7:
	jmp	LBB193_3
LBB193_1:
	.loc	27 539 25
	movb	$0, -41(%rbp)
	.loc	27 539 21 is_stmt 0
	movq	$0, -64(%rbp)
	.loc	27 537 9 is_stmt 1
	jmp	LBB193_4
	.loc	27 537 15 is_stmt 0
	ud2
LBB193_3:
	.loc	27 538 18 is_stmt 1
	movq	-80(%rbp), %rax
	movq	-72(%rbp), %rcx
	movq	%rax, -32(%rbp)
	movq	%rcx, -24(%rbp)
Ltmp625:
	.loc	27 538 24 is_stmt 0
	movq	%rax, -64(%rbp)
	movq	%rcx, -56(%rbp)
Ltmp626:
LBB193_4:
	.loc	27 541 5 is_stmt 1
	testb	$1, -41(%rbp)
	jne	LBB193_6
LBB193_5:
	.loc	27 541 6 is_stmt 0
	movq	-64(%rbp), %rax
	movq	-56(%rbp), %rdx
	addq	$80, %rsp
	popq	%rbp
	retq
LBB193_6:
	.loc	27 541 5
	movb	$0, -41(%rbp)
	jmp	LBB193_5
Ltmp627:
Lfunc_end193:
	.cfi_endproc

	.p2align	4, 0x90
__ZN4core6option15Option$LT$T$GT$5ok_or17hd03cbafab0118d7bE:
Lfunc_begin194:
	.loc	27 536 0 is_stmt 1
	.cfi_startproc
	pushq	%rbp
	.cfi_def_cfa_offset 16
	.cfi_offset %rbp, -16
	movq	%rsp, %rbp
	.cfi_def_cfa_register %rbp
	subq	$192, %rsp
	movq	%rdi, %rax
Ltmp628:
	.loc	27 538 13 prologue_end
	movb	$0, -25(%rbp)
	movb	$1, -25(%rbp)
	movq	(%rsi), %rcx
	testq	%rcx, %rcx
	setne	%dl
	movzbl	%dl, %r8d
	movl	%r8d, %ecx
	movq	%rsi, -152(%rbp)
Ltmp629:
	.loc	27 0 13 is_stmt 0
	movq	%rdi, -160(%rbp)
	movq	%rax, -168(%rbp)
	.loc	27 538 13
	je	LBB194_1
	jmp	LBB194_7
Ltmp630:
LBB194_7:
	jmp	LBB194_3
Ltmp631:
LBB194_1:
	.loc	27 539 25 is_stmt 1
	movb	$0, -25(%rbp)
	movq	-160(%rbp), %rax
	.loc	27 539 21 is_stmt 0
	movq	$0, (%rax)
	.loc	27 537 9 is_stmt 1
	jmp	LBB194_4
Ltmp632:
	.loc	27 537 15 is_stmt 0
	ud2
LBB194_3:
Ltmp633:
	.loc	27 0 15
	movq	-152(%rbp), %rax
	.loc	27 538 18 is_stmt 1
	leaq	-144(%rbp), %rcx
	movq	%rcx, %rdx
	movq	%rdx, %rdi
	movq	%rax, %rsi
	movl	$56, %eax
	movq	%rax, %rdx
	movq	%rcx, -176(%rbp)
	movq	%rax, -184(%rbp)
	callq	_memcpy
Ltmp634:
	.loc	27 538 27 is_stmt 0
	leaq	-88(%rbp), %rax
	movq	%rax, %rcx
	movq	-176(%rbp), %rdx
	movq	%rcx, %rdi
	movq	%rdx, %rsi
	movq	-184(%rbp), %rdx
	movq	%rax, -192(%rbp)
	callq	_memcpy
	movq	-160(%rbp), %rax
	movq	-192(%rbp), %rcx
	.loc	27 538 24
	movq	%rax, %rdi
	movq	%rcx, %rsi
	movq	-184(%rbp), %rdx
	callq	_memcpy
Ltmp635:
LBB194_4:
	.loc	27 541 5 is_stmt 1
	testb	$1, -25(%rbp)
	jne	LBB194_6
Ltmp636:
LBB194_5:
	.loc	27 0 5 is_stmt 0
	movq	-168(%rbp), %rax
	.loc	27 541 6
	addq	$192, %rsp
	popq	%rbp
	retq
Ltmp637:
LBB194_6:
	.loc	27 541 5
	movb	$0, -25(%rbp)
	jmp	LBB194_5
Ltmp638:
Lfunc_end194:
	.cfi_endproc

	.p2align	4, 0x90
__ZN4core6option15Option$LT$T$GT$5ok_or17hdb4980c95d886f87E:
Lfunc_begin195:
	.loc	27 536 0 is_stmt 1
	.cfi_startproc
	pushq	%rbp
	.cfi_def_cfa_offset 16
	.cfi_offset %rbp, -16
	movq	%rsp, %rbp
	.cfi_def_cfa_register %rbp
	subq	$104, %rsp
	movq	%rdi, %rax
Ltmp639:
	.loc	27 538 13 prologue_end
	movb	$0, -25(%rbp)
	movb	$1, -25(%rbp)
	movq	(%rsi), %rcx
	testq	%rcx, %rcx
	setne	%dl
	movzbl	%dl, %r8d
	movl	%r8d, %ecx
	movq	%rsi, -88(%rbp)
Ltmp640:
	.loc	27 0 13 is_stmt 0
	movq	%rdi, -96(%rbp)
	movq	%rax, -104(%rbp)
	.loc	27 538 13
	je	LBB195_1
	jmp	LBB195_7
Ltmp641:
LBB195_7:
	jmp	LBB195_3
Ltmp642:
LBB195_1:
	.loc	27 539 25 is_stmt 1
	movb	$0, -25(%rbp)
	movq	-96(%rbp), %rax
	.loc	27 539 21 is_stmt 0
	movq	$0, (%rax)
	.loc	27 537 9 is_stmt 1
	jmp	LBB195_4
Ltmp643:
	.loc	27 537 15 is_stmt 0
	ud2
LBB195_3:
Ltmp644:
	.loc	27 0 15
	movq	-88(%rbp), %rax
	.loc	27 538 18 is_stmt 1
	movq	(%rax), %rcx
	movq	%rcx, -80(%rbp)
	movq	8(%rax), %rcx
	movq	%rcx, -72(%rbp)
	movq	16(%rax), %rcx
	movq	%rcx, -64(%rbp)
Ltmp645:
	.loc	27 538 27 is_stmt 0
	movq	-80(%rbp), %rcx
	movq	%rcx, -56(%rbp)
	movq	-72(%rbp), %rcx
	movq	%rcx, -48(%rbp)
	movq	-64(%rbp), %rcx
	movq	%rcx, -40(%rbp)
	.loc	27 538 24
	movq	-56(%rbp), %rcx
	movq	-96(%rbp), %rdx
	movq	%rcx, (%rdx)
	movq	-48(%rbp), %rcx
	movq	%rcx, 8(%rdx)
	movq	-40(%rbp), %rcx
	movq	%rcx, 16(%rdx)
Ltmp646:
LBB195_4:
	.loc	27 541 5 is_stmt 1
	testb	$1, -25(%rbp)
	jne	LBB195_6
Ltmp647:
LBB195_5:
	.loc	27 0 5 is_stmt 0
	movq	-104(%rbp), %rax
	.loc	27 541 6
	addq	$104, %rsp
	popq	%rbp
	retq
Ltmp648:
LBB195_6:
	.loc	27 541 5
	movb	$0, -25(%rbp)
	jmp	LBB195_5
Ltmp649:
Lfunc_end195:
	.cfi_endproc

	.p2align	4, 0x90
__ZN4core6option15Option$LT$T$GT$6as_mut17h19ab84dec1f1acb5E:
Lfunc_begin196:
	.loc	27 287 0 is_stmt 1
	.cfi_startproc
	pushq	%rbp
	.cfi_def_cfa_offset 16
	.cfi_offset %rbp, -16
	movq	%rsp, %rbp
	.cfi_def_cfa_register %rbp
	subq	$32, %rsp
	movq	%rdi, -16(%rbp)
Ltmp650:
	.loc	27 289 13 prologue_end
	movq	8(%rdi), %rax
	testq	%rax, %rax
	setne	%cl
	movzbl	%cl, %edx
	movl	%edx, %eax
	movq	%rdi, -32(%rbp)
	je	LBB196_1
	jmp	LBB196_5
LBB196_5:
	jmp	LBB196_3
LBB196_1:
	.loc	27 290 21
	movq	$0, -24(%rbp)
	.loc	27 288 9
	jmp	LBB196_4
	.loc	27 288 15 is_stmt 0
	ud2
LBB196_3:
	.loc	27 0 15
	movq	-32(%rbp), %rax
	.loc	27 289 18 is_stmt 1
	movq	%rax, -8(%rbp)
Ltmp651:
	.loc	27 289 32 is_stmt 0
	movq	%rax, -24(%rbp)
Ltmp652:
LBB196_4:
	.loc	27 292 6 is_stmt 1
	movq	-24(%rbp), %rax
	addq	$32, %rsp
	popq	%rbp
	retq
Ltmp653:
Lfunc_end196:
	.cfi_endproc

	.p2align	4, 0x90
__ZN4core6option15Option$LT$T$GT$6unwrap17h7b623753e579024eE:
Lfunc_begin197:
	.loc	27 383 0
	.cfi_startproc
	.cfi_personality 155, _rust_eh_personality
	.cfi_lsda 16, Lexception22
	pushq	%rbp
	.cfi_def_cfa_offset 16
	.cfi_offset %rbp, -16
	movq	%rsp, %rbp
	.cfi_def_cfa_register %rbp
	subq	$48, %rsp
	movq	%rdi, -32(%rbp)
Ltmp657:
	.loc	27 385 13 prologue_end
	movq	-32(%rbp), %rax
	testq	%rax, %rax
	setne	%cl
	movzbl	%cl, %edx
	movl	%edx, %eax
	movq	%rsi, -40(%rbp)
	je	LBB197_1
	jmp	LBB197_7
LBB197_7:
	jmp	LBB197_3
LBB197_1:
Ltmp654:
	.loc	25 10 9
	leaq	l___unnamed_7(%rip), %rdi
	movl	$43, %esi
	movq	-40(%rbp), %rdx
	callq	__ZN4core9panicking5panic17h383a6b80ea7021aaE
Ltmp655:
	jmp	LBB197_5
	.loc	27 384 15
	ud2
LBB197_3:
	.loc	27 385 18
	movq	-32(%rbp), %rax
	movq	%rax, -24(%rbp)
	.loc	27 388 6
	addq	$48, %rsp
	popq	%rbp
	retq
LBB197_4:
	.loc	27 383 5
	movq	-16(%rbp), %rdi
	callq	__Unwind_Resume
	ud2
Ltmp658:
LBB197_5:
	.loc	27 0 5 is_stmt 0
	ud2
LBB197_6:
Ltmp656:
	movq	%rax, -16(%rbp)
	movl	%edx, -8(%rbp)
	jmp	LBB197_4
Lfunc_end197:
	.cfi_endproc
	.section	__TEXT,__gcc_except_tab
	.p2align	2
GCC_except_table197:
Lexception22:
	.byte	255
	.byte	255
	.byte	1
	.uleb128 Lcst_end22-Lcst_begin22
Lcst_begin22:
	.uleb128 Ltmp654-Lfunc_begin197
	.uleb128 Ltmp655-Ltmp654
	.uleb128 Ltmp656-Lfunc_begin197
	.byte	0
	.uleb128 Ltmp655-Lfunc_begin197
	.uleb128 Lfunc_end197-Ltmp655
	.byte	0
	.byte	0
Lcst_end22:
	.p2align	2

	.section	__TEXT,__text,regular,pure_instructions
	.p2align	4, 0x90
__ZN4core6result19Result$LT$T$C$E$GT$2ok17h3a8de28062c5ca09E:
Lfunc_begin198:
	.file	28 "/rustc/6c8927b0cf80ceee19386026cf9d7fd4fd9d486f/src/libcore/result.rs"
	.loc	28 394 0 is_stmt 1
	.cfi_startproc
	pushq	%rbp
	.cfi_def_cfa_offset 16
	.cfi_offset %rbp, -16
	movq	%rsp, %rbp
	.cfi_def_cfa_register %rbp
	subq	$88, %rsp
	movq	%rdi, %rax
Ltmp659:
	.loc	28 396 13 prologue_end
	movq	(%rsi), %rcx
	testq	%rcx, %rcx
	movq	%rsi, -72(%rbp)
Ltmp660:
	.loc	28 0 13 is_stmt 0
	movq	%rdi, -80(%rbp)
	movq	%rax, -88(%rbp)
	.loc	28 396 13
	je	LBB198_3
	jmp	LBB198_7
Ltmp661:
LBB198_7:
	.loc	28 0 13
	movq	-80(%rbp), %rax
	.loc	28 397 23 is_stmt 1
	movq	$0, 8(%rax)
	.loc	28 395 9
	jmp	LBB198_6
Ltmp662:
	.loc	28 395 15 is_stmt 0
	ud2
LBB198_3:
Ltmp663:
	.loc	28 0 15
	movq	-72(%rbp), %rax
	.loc	28 396 16 is_stmt 1
	movq	8(%rax), %rcx
	movq	%rcx, -64(%rbp)
	movq	16(%rax), %rcx
	movq	%rcx, -56(%rbp)
	movq	24(%rax), %rcx
	movq	%rcx, -48(%rbp)
	movq	32(%rax), %rcx
	movq	%rcx, -40(%rbp)
Ltmp664:
	.loc	28 396 27 is_stmt 0
	movq	-64(%rbp), %rcx
	movq	%rcx, -32(%rbp)
	movq	-56(%rbp), %rcx
	movq	%rcx, -24(%rbp)
	movq	-48(%rbp), %rcx
	movq	%rcx, -16(%rbp)
	movq	-40(%rbp), %rcx
	movq	%rcx, -8(%rbp)
	.loc	28 396 22
	movq	-32(%rbp), %rcx
	movq	-80(%rbp), %rdx
	movq	%rcx, (%rdx)
	movq	-24(%rbp), %rcx
	movq	%rcx, 8(%rdx)
	movq	-16(%rbp), %rcx
	movq	%rcx, 16(%rdx)
	movq	-8(%rbp), %rcx
	movq	%rcx, 24(%rdx)
Ltmp665:
	.loc	28 399 5 is_stmt 1
	jmp	LBB198_6
Ltmp666:
LBB198_4:
	.loc	28 0 5 is_stmt 0
	movq	-88(%rbp), %rax
	.loc	28 399 6
	addq	$88, %rsp
	popq	%rbp
	retq
Ltmp667:
LBB198_5:
	.loc	28 399 5
	jmp	LBB198_4
Ltmp668:
LBB198_6:
	.loc	28 0 5
	movq	-72(%rbp), %rax
	.loc	28 399 5
	cmpq	$0, (%rax)
	je	LBB198_4
	jmp	LBB198_5
Ltmp669:
Lfunc_end198:
	.cfi_endproc

	.p2align	4, 0x90
__ZN4core6result19Result$LT$T$C$E$GT$2ok17h405989f65d4ac220E:
Lfunc_begin199:
	.loc	28 394 0 is_stmt 1
	.cfi_startproc
	pushq	%rbp
	.cfi_def_cfa_offset 16
	.cfi_offset %rbp, -16
	movq	%rsp, %rbp
	.cfi_def_cfa_register %rbp
	subq	$40, %rsp
Ltmp670:
	.loc	28 396 13 prologue_end
	movq	(%rdi), %rax
	testq	%rax, %rax
	movq	%rdi, -40(%rbp)
Ltmp671:
	je	LBB199_3
	jmp	LBB199_7
Ltmp672:
LBB199_7:
	.loc	28 397 23
	movq	$0, -32(%rbp)
	.loc	28 395 9
	jmp	LBB199_6
Ltmp673:
	.loc	28 395 15 is_stmt 0
	ud2
LBB199_3:
Ltmp674:
	.loc	28 0 15
	movq	-40(%rbp), %rax
	.loc	28 396 16 is_stmt 1
	movq	8(%rax), %rcx
	movq	16(%rax), %rdx
	movq	%rcx, -16(%rbp)
	movq	%rdx, -8(%rbp)
Ltmp675:
	.loc	28 396 22 is_stmt 0
	movq	%rcx, -32(%rbp)
	movq	%rdx, -24(%rbp)
Ltmp676:
	.loc	28 399 5 is_stmt 1
	jmp	LBB199_6
Ltmp677:
LBB199_4:
	.loc	28 399 6 is_stmt 0
	movq	-32(%rbp), %rax
	movq	-24(%rbp), %rdx
	addq	$40, %rsp
	popq	%rbp
	retq
Ltmp678:
LBB199_5:
	.loc	28 399 5
	jmp	LBB199_4
Ltmp679:
LBB199_6:
	.loc	28 0 5
	movq	-40(%rbp), %rax
	.loc	28 399 5
	cmpq	$0, (%rax)
	je	LBB199_4
	jmp	LBB199_5
Ltmp680:
Lfunc_end199:
	.cfi_endproc

	.p2align	4, 0x90
__ZN4core6result19Result$LT$T$C$E$GT$2ok17h514acd85b47d6c1dE:
Lfunc_begin200:
	.loc	28 394 0 is_stmt 1
	.cfi_startproc
	pushq	%rbp
	.cfi_def_cfa_offset 16
	.cfi_offset %rbp, -16
	movq	%rsp, %rbp
	.cfi_def_cfa_register %rbp
	subq	$160, %rsp
	movq	%rdi, %rax
Ltmp681:
	.loc	28 396 13 prologue_end
	movq	(%rsi), %rcx
	testq	%rcx, %rcx
	movq	%rsi, -120(%rbp)
Ltmp682:
	.loc	28 0 13 is_stmt 0
	movq	%rdi, -128(%rbp)
	movq	%rax, -136(%rbp)
	.loc	28 396 13
	je	LBB200_3
	jmp	LBB200_7
Ltmp683:
LBB200_7:
	.loc	28 0 13
	movq	-128(%rbp), %rax
	.loc	28 397 23 is_stmt 1
	movq	$0, (%rax)
	.loc	28 395 9
	jmp	LBB200_6
Ltmp684:
	.loc	28 395 15 is_stmt 0
	ud2
LBB200_3:
Ltmp685:
	.loc	28 0 15
	movq	-120(%rbp), %rax
	.loc	28 396 16 is_stmt 1
	addq	$8, %rax
	leaq	-112(%rbp), %rcx
	movq	%rcx, %rdx
	movq	%rdx, %rdi
	movq	%rax, %rsi
	movl	$56, %eax
	movq	%rax, %rdx
	movq	%rcx, -144(%rbp)
	movq	%rax, -152(%rbp)
	callq	_memcpy
Ltmp686:
	.loc	28 396 27 is_stmt 0
	leaq	-56(%rbp), %rax
	movq	%rax, %rcx
	movq	-144(%rbp), %rdx
	movq	%rcx, %rdi
	movq	%rdx, %rsi
	movq	-152(%rbp), %rdx
	movq	%rax, -160(%rbp)
	callq	_memcpy
	movq	-128(%rbp), %rax
	movq	-160(%rbp), %rcx
	.loc	28 396 22
	movq	%rax, %rdi
	movq	%rcx, %rsi
	movq	-152(%rbp), %rdx
	callq	_memcpy
Ltmp687:
	.loc	28 399 5 is_stmt 1
	jmp	LBB200_6
Ltmp688:
LBB200_4:
	.loc	28 0 5 is_stmt 0
	movq	-136(%rbp), %rax
	.loc	28 399 6
	addq	$160, %rsp
	popq	%rbp
	retq
Ltmp689:
LBB200_5:
	.loc	28 0 6
	movq	-120(%rbp), %rdi
	.loc	28 399 5
	callq	__ZN4core3ptr13drop_in_place17h3d71cd39611642adE
	jmp	LBB200_4
Ltmp690:
LBB200_6:
	.loc	28 0 5
	movq	-120(%rbp), %rax
	.loc	28 399 5
	cmpq	$0, (%rax)
	je	LBB200_4
	jmp	LBB200_5
Ltmp691:
Lfunc_end200:
	.cfi_endproc

	.p2align	4, 0x90
__ZN4core6result19Result$LT$T$C$E$GT$2ok17h940351d5934a7250E:
Lfunc_begin201:
	.loc	28 394 0 is_stmt 1
	.cfi_startproc
	pushq	%rbp
	.cfi_def_cfa_offset 16
	.cfi_offset %rbp, -16
	movq	%rsp, %rbp
	.cfi_def_cfa_register %rbp
	subq	$32, %rsp
	movq	%rdi, -24(%rbp)
	movq	-24(%rbp), %rax
	movq	%rax, -32(%rbp)
Ltmp692:
	.loc	28 396 13 prologue_end
	movzbl	-32(%rbp), %ecx
	movl	%ecx, %eax
	testb	$1, %al
	je	LBB201_3
	jmp	LBB201_7
LBB201_7:
	.loc	28 397 23
	movl	$0, -16(%rbp)
	.loc	28 395 9
	jmp	LBB201_6
	.loc	28 395 15 is_stmt 0
	ud2
LBB201_3:
	.loc	28 396 16 is_stmt 1
	movl	-28(%rbp), %eax
	movl	%eax, -4(%rbp)
Ltmp693:
	.loc	28 396 22 is_stmt 0
	movl	%eax, -12(%rbp)
	movl	$1, -16(%rbp)
Ltmp694:
	.loc	28 399 5 is_stmt 1
	jmp	LBB201_6
LBB201_4:
	.loc	28 399 6 is_stmt 0
	movl	-16(%rbp), %eax
	movl	-12(%rbp), %edx
	addq	$32, %rsp
	popq	%rbp
	retq
LBB201_5:
	.loc	28 399 5
	jmp	LBB201_4
LBB201_6:
	movb	-32(%rbp), %al
	andb	$1, %al
	movzbl	%al, %ecx
	movl	%ecx, %edx
	cmpq	$0, %rdx
	je	LBB201_4
	jmp	LBB201_5
Ltmp695:
Lfunc_end201:
	.cfi_endproc

	.p2align	4, 0x90
__ZN4core7convert3num66_$LT$impl$u20$core..convert..From$LT$u16$GT$$u20$for$u20$usize$GT$4from17hc9bbc50f1ced09ccE:
Lfunc_begin202:
	.file	29 "/rustc/6c8927b0cf80ceee19386026cf9d7fd4fd9d486f/src/libcore/convert/num.rs"
	.loc	29 51 0 is_stmt 1
	.cfi_startproc
	pushq	%rbp
	.cfi_def_cfa_offset 16
	.cfi_offset %rbp, -16
	movq	%rsp, %rbp
	.cfi_def_cfa_register %rbp
	subq	$2, %rsp
	movw	%di, -2(%rbp)
Ltmp696:
	.loc	29 52 17 prologue_end
	movzwl	%di, %eax
	.loc	29 53 14
	addq	$2, %rsp
	popq	%rbp
	retq
Ltmp697:
Lfunc_end202:
	.cfi_endproc

	.p2align	4, 0x90
__ZN50_$LT$T$u20$as$u20$core..convert..From$LT$T$GT$$GT$4from17hd84e9efb89979324E:
Lfunc_begin203:
	.file	30 "/rustc/6c8927b0cf80ceee19386026cf9d7fd4fd9d486f/src/libcore/convert/mod.rs"
	.loc	30 570 0
	.cfi_startproc
	pushq	%rbp
	.cfi_def_cfa_offset 16
	.cfi_offset %rbp, -16
	movq	%rsp, %rbp
	.cfi_def_cfa_register %rbp
	pushq	%rax
Ltmp698:
	.loc	30 572 6 prologue_end
	addq	$8, %rsp
	popq	%rbp
	retq
Ltmp699:
Lfunc_end203:
	.cfi_endproc

	.p2align	4, 0x90
__ZN50_$LT$T$u20$as$u20$core..convert..Into$LT$U$GT$$GT$4into17h0fa8b376cc1df6b4E:
Lfunc_begin204:
	.loc	30 562 0
	.cfi_startproc
	pushq	%rbp
	.cfi_def_cfa_offset 16
	.cfi_offset %rbp, -16
	movq	%rsp, %rbp
	.cfi_def_cfa_register %rbp
	subq	$16, %rsp
	movq	%rdi, -8(%rbp)
Ltmp700:
	.loc	30 563 9 prologue_end
	callq	__ZN119_$LT$core..ptr..non_null..NonNull$LT$T$GT$$u20$as$u20$core..convert..From$LT$core..ptr..unique..Unique$LT$T$GT$$GT$$GT$4from17h321385d1b3a9e679E
	movq	%rax, -16(%rbp)
	.loc	30 0 9 is_stmt 0
	movq	-16(%rbp), %rax
	.loc	30 564 6 is_stmt 1
	addq	$16, %rsp
	popq	%rbp
	retq
Ltmp701:
Lfunc_end204:
	.cfi_endproc

	.p2align	4, 0x90
__ZN52_$LT$char$u20$as$u20$core..str..pattern..Pattern$GT$13into_searcher17h0a20ada8ac6f906fE:
Lfunc_begin205:
	.file	31 "/rustc/6c8927b0cf80ceee19386026cf9d7fd4fd9d486f/src/libcore/str/pattern.rs"
	.loc	31 535 0
	.cfi_startproc
	pushq	%rbp
	.cfi_def_cfa_offset 16
	.cfi_offset %rbp, -16
	movq	%rsp, %rbp
	.cfi_def_cfa_register %rbp
	subq	$128, %rsp
	movq	%rdi, %rax
	leaq	-36(%rbp), %r8
	xorl	%r9d, %r9d
	movl	%esi, -28(%rbp)
	movq	%rdx, -24(%rbp)
	movq	%rcx, -16(%rbp)
Ltmp702:
	movq	%rdi, -48(%rbp)
Ltmp703:
	.loc	31 536 32 prologue_end
	movq	%r8, %rdi
	movl	%esi, -52(%rbp)
	movl	%r9d, %esi
	movl	$4, %r10d
	movq	%rdx, -64(%rbp)
	movq	%r10, %rdx
	movq	%rcx, -72(%rbp)
	movq	%rax, -80(%rbp)
	movq	%r8, -88(%rbp)
Ltmp704:
	.loc	31 0 32 is_stmt 0
	movq	%r10, -96(%rbp)
	.loc	31 536 32
	callq	_memset
	movq	-88(%rbp), %rax
	movl	-52(%rbp), %edi
Ltmp705:
	.loc	31 537 25 is_stmt 1
	movq	%rax, %rsi
	movq	-96(%rbp), %rdx
	callq	__ZN4core4char7methods22_$LT$impl$u20$char$GT$11encode_utf817h0660d503254a2b49E
	movq	%rax, -104(%rbp)
	movq	%rdx, -112(%rbp)
Ltmp706:
	.loc	31 0 25 is_stmt 0
	movq	-104(%rbp), %rdi
	movq	-112(%rbp), %rsi
	.loc	31 537 25
	callq	__ZN4core3str21_$LT$impl$u20$str$GT$3len17hcf1fbeec53ed04a6E
	movq	%rax, -8(%rbp)
	movq	%rax, -120(%rbp)
Ltmp707:
	.loc	31 0 25
	movq	-64(%rbp), %rdi
	movq	-72(%rbp), %rsi
Ltmp708:
	.loc	31 541 26 is_stmt 1
	callq	__ZN4core3str21_$LT$impl$u20$str$GT$3len17hcf1fbeec53ed04a6E
	movq	%rax, -128(%rbp)
Ltmp709:
	.loc	31 544 13
	movl	-36(%rbp), %eax
	movl	%eax, -32(%rbp)
	movq	-48(%rbp), %rcx
	movq	-64(%rbp), %rdx
	.loc	31 538 9
	movq	%rdx, (%rcx)
	movq	-72(%rbp), %rsi
	movq	%rsi, 8(%rcx)
	movq	$0, 16(%rcx)
	movq	-128(%rbp), %rdi
	movq	%rdi, 24(%rcx)
	movl	-52(%rbp), %eax
	movl	%eax, 40(%rcx)
	movq	-120(%rbp), %r8
	movq	%r8, 32(%rcx)
	movl	-32(%rbp), %r9d
	movl	%r9d, 44(%rcx)
	movq	-80(%rbp), %r10
Ltmp710:
	.loc	31 546 6
	movq	%r10, %rax
	addq	$128, %rsp
	popq	%rbp
	retq
Ltmp711:
Lfunc_end205:
	.cfi_endproc

	.p2align	4, 0x90
__ZN54_$LT$$LP$$RP$$u20$as$u20$std..process..Termination$GT$6report17h22d8a59ae4568724E:
Lfunc_begin206:
	.loc	12 1667 0
	.cfi_startproc
	pushq	%rbp
	.cfi_def_cfa_offset 16
	.cfi_offset %rbp, -16
	movq	%rsp, %rbp
	.cfi_def_cfa_register %rbp
	subq	$16, %rsp
	xorl	%edi, %edi
Ltmp712:
	.loc	12 1668 9 prologue_end
	callq	__ZN68_$LT$std..process..ExitCode$u20$as$u20$std..process..Termination$GT$6report17h1ff2c51219d9c5bcE
	movl	%eax, -12(%rbp)
	.loc	12 0 9 is_stmt 0
	movl	-12(%rbp), %eax
	.loc	12 1669 6 is_stmt 1
	addq	$16, %rsp
	popq	%rbp
	retq
Ltmp713:
Lfunc_end206:
	.cfi_endproc

	.p2align	4, 0x90
__ZN55_$LT$$RF$T$u20$as$u20$core..convert..AsRef$LT$U$GT$$GT$6as_ref17h93c879749d269c46E:
Lfunc_begin207:
	.loc	30 513 0
	.cfi_startproc
	pushq	%rbp
	.cfi_def_cfa_offset 16
	.cfi_offset %rbp, -16
	movq	%rsp, %rbp
	.cfi_def_cfa_register %rbp
	subq	$32, %rsp
	movq	%rdi, -8(%rbp)
Ltmp714:
	.loc	30 514 33 prologue_end
	movq	(%rdi), %rax
	movq	8(%rdi), %rsi
	.loc	30 514 9 is_stmt 0
	movq	%rax, %rdi
	callq	__ZN3std3ffi6os_str85_$LT$impl$u20$core..convert..AsRef$LT$std..ffi..os_str..OsStr$GT$$u20$for$u20$str$GT$6as_ref17hc01ae73e5e5eadb6E
	movq	%rax, -16(%rbp)
	movq	%rdx, -24(%rbp)
	.loc	30 0 9
	movq	-16(%rbp), %rax
	movq	-24(%rbp), %rdx
	.loc	30 515 6 is_stmt 1
	addq	$32, %rsp
	popq	%rbp
	retq
Ltmp715:
Lfunc_end207:
	.cfi_endproc

	.p2align	4, 0x90
__ZN5alloc11collections5btree16unwrap_unchecked28_$u7b$$u7b$closure$u7d$$u7d$17ha26a45867a6c7a60E:
Lfunc_begin208:
	.loc	6 18 0
	.cfi_startproc
	pushq	%rbp
	.cfi_def_cfa_offset 16
	.cfi_offset %rbp, -16
	movq	%rsp, %rbp
	.cfi_def_cfa_register %rbp
	pushq	%rax
Ltmp716:
	.loc	6 23 17 prologue_end
	ud2
Ltmp717:
Lfunc_end208:
	.cfi_endproc

	.p2align	4, 0x90
__ZN5alloc11collections5btree16unwrap_unchecked28_$u7b$$u7b$closure$u7d$$u7d$17ha44a8c01402aad63E:
Lfunc_begin209:
	.loc	6 18 0
	.cfi_startproc
	pushq	%rbp
	.cfi_def_cfa_offset 16
	.cfi_offset %rbp, -16
	movq	%rsp, %rbp
	.cfi_def_cfa_register %rbp
	pushq	%rax
Ltmp718:
	.loc	6 23 17 prologue_end
	ud2
Ltmp719:
Lfunc_end209:
	.cfi_endproc

	.p2align	4, 0x90
__ZN5alloc11collections5btree3map17full_range_search17h41d8d339cbaadde5E:
Lfunc_begin210:
	.loc	3 2039 0
	.cfi_startproc
	pushq	%rbp
	.cfi_def_cfa_offset 16
	.cfi_offset %rbp, -16
	movq	%rsp, %rbp
	.cfi_def_cfa_register %rbp
	subq	$832, %rsp
	movq	%rdi, %rax
Ltmp720:
	.loc	3 2047 33 prologue_end
	leaq	-768(%rbp), %rcx
Ltmp721:
	.loc	3 0 33 is_stmt 0
	movq	%rdi, -776(%rbp)
	.loc	3 2047 33
	movq	%rcx, %rdi
	movq	%rsi, -784(%rbp)
Ltmp722:
	.loc	3 0 33
	movq	%rax, -792(%rbp)
	.loc	3 2047 33
	callq	__ZN4core3ptr4read17hbd4c18c15c4d6837E
Ltmp723:
	.loc	3 0 33
	movq	-784(%rbp), %rax
Ltmp724:
	.loc	3 2048 24 is_stmt 1
	movq	(%rax), %rcx
	movq	%rcx, -744(%rbp)
	movq	8(%rax), %rcx
	movq	%rcx, -736(%rbp)
	movq	16(%rax), %rcx
	movq	%rcx, -728(%rbp)
Ltmp725:
LBB210_2:
	.loc	3 2050 21
	movq	-768(%rbp), %rax
	movq	%rax, -688(%rbp)
	movq	-760(%rbp), %rax
	movq	%rax, -680(%rbp)
	movq	-752(%rbp), %rax
	movq	%rax, -672(%rbp)
	leaq	-720(%rbp), %rdi
	leaq	-688(%rbp), %rsi
	callq	__ZN5alloc11collections5btree4node40NodeRef$LT$BorrowType$C$K$C$V$C$Type$GT$10first_edge17h3fef1f11dca2bb30E
Ltmp726:
	.loc	3 2051 20
	movq	-744(%rbp), %rax
	movq	%rax, -632(%rbp)
	movq	-736(%rbp), %rax
	movq	%rax, -624(%rbp)
	movq	-728(%rbp), %rax
	movq	%rax, -616(%rbp)
	leaq	-664(%rbp), %rdi
	leaq	-632(%rbp), %rsi
	callq	__ZN5alloc11collections5btree4node40NodeRef$LT$BorrowType$C$K$C$V$C$Type$GT$9last_edge17h3afd689fd2c88a5aE
Ltmp727:
	.loc	3 2052 16
	movq	-720(%rbp), %rax
	movq	%rax, -488(%rbp)
	movq	-712(%rbp), %rax
	movq	%rax, -480(%rbp)
	movq	-704(%rbp), %rax
	movq	%rax, -472(%rbp)
	movq	-696(%rbp), %rax
	movq	%rax, -464(%rbp)
	leaq	-528(%rbp), %rdi
	leaq	-488(%rbp), %rsi
	callq	__ZN5alloc11collections5btree4node151Handle$LT$alloc..collections..btree..node..NodeRef$LT$BorrowType$C$K$C$V$C$alloc..collections..btree..node..marker..LeafOrInternal$GT$$C$HandleType$GT$5force17hc173d6988309bf12E
Ltmp728:
	.loc	3 2052 31 is_stmt 0
	movq	-664(%rbp), %rax
	movq	%rax, -416(%rbp)
	movq	-656(%rbp), %rax
	movq	%rax, -408(%rbp)
	movq	-648(%rbp), %rax
	movq	%rax, -400(%rbp)
	movq	-640(%rbp), %rax
	movq	%rax, -392(%rbp)
	leaq	-456(%rbp), %rdi
	leaq	-416(%rbp), %rsi
	callq	__ZN5alloc11collections5btree4node151Handle$LT$alloc..collections..btree..node..NodeRef$LT$BorrowType$C$K$C$V$C$alloc..collections..btree..node..marker..LeafOrInternal$GT$$C$HandleType$GT$5force17hc173d6988309bf12E
Ltmp729:
	.loc	3 2052 15
	movq	-496(%rbp), %rax
	movq	%rax, -576(%rbp)
	movq	-504(%rbp), %rax
	movq	%rax, -584(%rbp)
	movq	-512(%rbp), %rax
	movq	%rax, -592(%rbp)
	movq	-528(%rbp), %rax
	movq	-520(%rbp), %rcx
	movq	%rcx, -600(%rbp)
	movq	%rax, -608(%rbp)
	movq	-424(%rbp), %rax
	movq	%rax, -536(%rbp)
	movq	-432(%rbp), %rax
	movq	%rax, -544(%rbp)
	movq	-440(%rbp), %rax
	movq	%rax, -552(%rbp)
	movq	-456(%rbp), %rax
	movq	-448(%rbp), %rcx
	movq	%rcx, -560(%rbp)
	movq	%rax, -568(%rbp)
	.loc	3 2053 14 is_stmt 1
	movq	-608(%rbp), %rax
	testq	%rax, %rax
	movq	%rax, -800(%rbp)
	je	LBB210_7
	jmp	LBB210_16
Ltmp730:
LBB210_16:
	.loc	3 0 14 is_stmt 0
	movq	-800(%rbp), %rax
	.loc	3 2053 14
	subq	$1, %rax
	je	LBB210_9
	jmp	LBB210_8
Ltmp731:
LBB210_7:
	.loc	3 2053 23
	cmpq	$0, -568(%rbp)
	je	LBB210_10
Ltmp732:
LBB210_8:
	.loc	25 548 16 is_stmt 1
	movq	l___unnamed_8(%rip), %rax
	.loc	3 2060 31
	movq	l___unnamed_9(%rip), %rcx
	.loc	25 19 38
	movq	%rcx, -16(%rbp)
	.loc	3 2060 31
	movq	-16(%rbp), %rcx
	movq	%rcx, -8(%rbp)
Ltmp733:
	.loc	25 19 38
	movq	%rcx, %rdi
	leaq	__ZN44_$LT$$RF$T$u20$as$u20$core..fmt..Display$GT$3fmt17h37a7c401dab49b22E(%rip), %rsi
	movq	%rax, -808(%rbp)
	callq	__ZN4core3fmt10ArgumentV13new17h52123589741a80c0E
	movq	%rax, -816(%rbp)
	movq	%rdx, -824(%rbp)
	jmp	LBB210_14
Ltmp734:
LBB210_9:
	.loc	3 2056 33
	cmpq	$1, -568(%rbp)
	je	LBB210_11
	jmp	LBB210_8
Ltmp735:
LBB210_10:
	.loc	3 2053 19
	movq	-600(%rbp), %rax
	movq	%rax, -384(%rbp)
	movq	-592(%rbp), %rax
	movq	%rax, -376(%rbp)
	movq	-584(%rbp), %rax
	movq	%rax, -368(%rbp)
	movq	-576(%rbp), %rax
	movq	%rax, -360(%rbp)
	.loc	3 2053 28 is_stmt 0
	movq	-560(%rbp), %rax
	movq	%rax, -352(%rbp)
	movq	-552(%rbp), %rax
	movq	%rax, -344(%rbp)
	movq	-544(%rbp), %rax
	movq	%rax, -336(%rbp)
	movq	-536(%rbp), %rax
	movq	%rax, -328(%rbp)
Ltmp736:
	.loc	3 2054 25 is_stmt 1
	movq	-384(%rbp), %rax
	movq	%rax, -320(%rbp)
	movq	-376(%rbp), %rax
	movq	%rax, -312(%rbp)
	movq	-368(%rbp), %rax
	movq	%rax, -304(%rbp)
	movq	-360(%rbp), %rax
	movq	%rax, -296(%rbp)
	.loc	3 2054 28 is_stmt 0
	movq	-352(%rbp), %rax
	movq	%rax, -288(%rbp)
	movq	-344(%rbp), %rax
	movq	%rax, -280(%rbp)
	movq	-336(%rbp), %rax
	movq	%rax, -272(%rbp)
	movq	-328(%rbp), %rax
	movq	%rax, -264(%rbp)
	.loc	3 2054 24
	movq	-320(%rbp), %rax
	movq	-776(%rbp), %rcx
	movq	%rax, (%rcx)
	movq	-312(%rbp), %rax
	movq	%rax, 8(%rcx)
	movq	-304(%rbp), %rax
	movq	%rax, 16(%rcx)
	movq	-296(%rbp), %rax
	movq	%rax, 24(%rcx)
	movq	-288(%rbp), %rax
	movq	%rax, 32(%rcx)
	movq	-280(%rbp), %rax
	movq	%rax, 40(%rcx)
	movq	-272(%rbp), %rax
	movq	%rax, 48(%rcx)
	movq	-264(%rbp), %rax
	movq	%rax, 56(%rcx)
	movq	-792(%rbp), %rax
Ltmp737:
	.loc	3 2063 2 is_stmt 1
	addq	$832, %rsp
	popq	%rbp
	retq
Ltmp738:
LBB210_11:
	.loc	3 2056 23
	movq	-600(%rbp), %rax
	movq	%rax, -256(%rbp)
	movq	-592(%rbp), %rax
	movq	%rax, -248(%rbp)
	movq	-584(%rbp), %rax
	movq	%rax, -240(%rbp)
	movq	-576(%rbp), %rax
	movq	%rax, -232(%rbp)
	.loc	3 2056 42 is_stmt 0
	movq	-560(%rbp), %rax
	movq	%rax, -224(%rbp)
	movq	-552(%rbp), %rax
	movq	%rax, -216(%rbp)
	movq	-544(%rbp), %rax
	movq	%rax, -208(%rbp)
	movq	-536(%rbp), %rax
	movq	%rax, -200(%rbp)
Ltmp739:
	.loc	3 2057 28 is_stmt 1
	movq	-256(%rbp), %rax
	movq	%rax, -168(%rbp)
	movq	-248(%rbp), %rax
	movq	%rax, -160(%rbp)
	movq	-240(%rbp), %rax
	movq	%rax, -152(%rbp)
	movq	-232(%rbp), %rax
	movq	%rax, -144(%rbp)
	leaq	-192(%rbp), %rdi
	leaq	-168(%rbp), %rsi
	callq	__ZN5alloc11collections5btree4node180Handle$LT$alloc..collections..btree..node..NodeRef$LT$BorrowType$C$K$C$V$C$alloc..collections..btree..node..marker..Internal$GT$$C$alloc..collections..btree..node..marker..Edge$GT$7descend17h001b1ff91f9e626eE
Ltmp740:
	.loc	3 2057 17 is_stmt 0
	movq	-192(%rbp), %rax
	movq	%rax, -768(%rbp)
	movq	-184(%rbp), %rax
	movq	%rax, -760(%rbp)
	movq	-176(%rbp), %rax
	movq	%rax, -752(%rbp)
	.loc	3 2058 28 is_stmt 1
	movq	-224(%rbp), %rax
	movq	%rax, -112(%rbp)
	movq	-216(%rbp), %rax
	movq	%rax, -104(%rbp)
	movq	-208(%rbp), %rax
	movq	%rax, -96(%rbp)
	movq	-200(%rbp), %rax
	movq	%rax, -88(%rbp)
	leaq	-136(%rbp), %rdi
	leaq	-112(%rbp), %rsi
	callq	__ZN5alloc11collections5btree4node180Handle$LT$alloc..collections..btree..node..NodeRef$LT$BorrowType$C$K$C$V$C$alloc..collections..btree..node..marker..Internal$GT$$C$alloc..collections..btree..node..marker..Edge$GT$7descend17h001b1ff91f9e626eE
Ltmp741:
	.loc	3 2058 17 is_stmt 0
	movq	-136(%rbp), %rax
	movq	%rax, -744(%rbp)
	movq	-128(%rbp), %rax
	movq	%rax, -736(%rbp)
	movq	-120(%rbp), %rax
	movq	%rax, -728(%rbp)
Ltmp742:
	.loc	3 2049 5 is_stmt 1
	jmp	LBB210_2
Ltmp743:
LBB210_14:
	.loc	3 0 5 is_stmt 0
	movq	-816(%rbp), %rax
Ltmp744:
	.loc	25 19 38 is_stmt 1
	movq	%rax, -32(%rbp)
	movq	-824(%rbp), %rcx
	movq	%rcx, -24(%rbp)
Ltmp745:
	.loc	25 19 38 is_stmt 0
	leaq	-32(%rbp), %rdx
	leaq	-80(%rbp), %rdi
	movq	-808(%rbp), %rsi
	movl	$1, %r8d
	movq	%rdx, -832(%rbp)
	movq	%r8, %rdx
	movq	-832(%rbp), %rcx
	callq	__ZN4core3fmt9Arguments6new_v117he0e983ba2e6e5445E
Ltmp746:
	.loc	25 19 9
	leaq	l___unnamed_5(%rip), %rsi
	leaq	-80(%rbp), %rdi
	callq	__ZN4core9panicking9panic_fmt17hfce5b7173905fc53E
Ltmp747:
Lfunc_end210:
	.cfi_endproc

	.p2align	4, 0x90
__ZN5alloc11collections5btree4node104Handle$LT$alloc..collections..btree..node..NodeRef$LT$BorrowType$C$K$C$V$C$NodeType$GT$$C$HandleType$GT$8reborrow17h3c274516bf1669b0E:
Lfunc_begin211:
	.file	32 "/rustc/6c8927b0cf80ceee19386026cf9d7fd4fd9d486f/src/liballoc/collections/btree/node.rs"
	.loc	32 781 0 is_stmt 1
	.cfi_startproc
	pushq	%rbp
	.cfi_def_cfa_offset 16
	.cfi_offset %rbp, -16
	movq	%rsp, %rbp
	.cfi_def_cfa_register %rbp
	subq	$64, %rsp
	movq	%rdi, %rax
	movq	%rsi, -8(%rbp)
Ltmp748:
	.loc	32 783 24 prologue_end
	movq	%rsi, %rcx
	leaq	-40(%rbp), %rdx
	movq	%rdi, -48(%rbp)
	movq	%rdx, %rdi
	movq	%rsi, -56(%rbp)
	movq	%rcx, %rsi
	movq	%rax, -64(%rbp)
	callq	__ZN5alloc11collections5btree4node40NodeRef$LT$BorrowType$C$K$C$V$C$Type$GT$8reborrow17h96747542e0be3b7cE
	.loc	32 0 24 is_stmt 0
	movq	-56(%rbp), %rax
	.loc	32 783 51
	movq	24(%rax), %rcx
	.loc	32 783 9
	movq	-40(%rbp), %rdx
	movq	-48(%rbp), %rsi
	movq	%rdx, (%rsi)
	movq	-32(%rbp), %rdx
	movq	%rdx, 8(%rsi)
	movq	-24(%rbp), %rdx
	movq	%rdx, 16(%rsi)
	movq	%rcx, 24(%rsi)
	movq	-64(%rbp), %rax
	.loc	32 784 6 is_stmt 1
	addq	$64, %rsp
	popq	%rbp
	retq
Ltmp749:
Lfunc_end211:
	.cfi_endproc

	.p2align	4, 0x90
__ZN5alloc11collections5btree4node127NodeRef$LT$alloc..collections..btree..node..marker..Owned$C$K$C$V$C$alloc..collections..btree..node..marker..LeafOrInternal$GT$21deallocate_and_ascend17hdb9d8bc63dfc8b41E:
Lfunc_begin212:
	.loc	32 395 0
	.cfi_startproc
	pushq	%rbp
	.cfi_def_cfa_offset 16
	.cfi_offset %rbp, -16
	movq	%rsp, %rbp
	.cfi_def_cfa_register %rbp
	subq	$144, %rsp
	movq	%rdi, %rax
Ltmp750:
	.loc	32 398 22 prologue_end
	movq	(%rsi), %rcx
	movq	%rcx, -16(%rbp)
Ltmp751:
	.loc	32 399 20
	movq	8(%rsi), %rdx
	movq	%rdx, -8(%rbp)
Ltmp752:
	.loc	32 400 19
	movq	(%rsi), %r8
	movq	%r8, -64(%rbp)
	movq	8(%rsi), %r8
	movq	%r8, -56(%rbp)
	movq	16(%rsi), %rsi
Ltmp753:
	movq	%rsi, -48(%rbp)
	leaq	-104(%rbp), %rsi
	movq	%rdi, -112(%rbp)
Ltmp754:
	movq	%rsi, %rdi
	leaq	-64(%rbp), %rsi
	movq	%rax, -120(%rbp)
	movq	%rcx, -128(%rbp)
	movq	%rdx, -136(%rbp)
	callq	__ZN5alloc11collections5btree4node40NodeRef$LT$BorrowType$C$K$C$V$C$Type$GT$6ascend17h298909fff548786fE
Ltmp755:
	.loc	32 0 19 is_stmt 0
	movq	-112(%rbp), %rdi
	.loc	32 400 19
	leaq	-104(%rbp), %rsi
	callq	__ZN4core6result19Result$LT$T$C$E$GT$2ok17h3a8de28062c5ca09E
	.loc	32 0 19
	movq	-136(%rbp), %rdi
Ltmp756:
	.loc	32 403 17 is_stmt 1
	callq	__ZN4core3ptr8non_null16NonNull$LT$T$GT$4cast17h66cb4aa5744d132dE
	movq	%rax, -144(%rbp)
	.loc	32 0 17 is_stmt 0
	movq	-128(%rbp), %rax
	.loc	32 404 20 is_stmt 1
	cmpq	$0, %rax
	.loc	32 404 17 is_stmt 0
	ja	LBB212_5
	.loc	32 407 21 is_stmt 1
	callq	__ZN4core5alloc6layout6Layout3new17ha6ee3ee0f84fb5b1E
	movq	%rdx, -24(%rbp)
	movq	%rax, -32(%rbp)
	jmp	LBB212_6
LBB212_5:
	.loc	32 405 21
	callq	__ZN4core5alloc6layout6Layout3new17h6dbe1e9a36165a32E
	movq	%rdx, -24(%rbp)
	movq	%rax, -32(%rbp)
LBB212_6:
	.loc	32 402 13
	movq	-32(%rbp), %rdx
	movq	-24(%rbp), %rcx
	leaq	-40(%rbp), %rdi
	movq	-144(%rbp), %rsi
	callq	__ZN62_$LT$alloc..alloc..Global$u20$as$u20$core..alloc..AllocRef$GT$7dealloc17hfdf8a77c8104efd1E
Ltmp757:
	.loc	32 0 13 is_stmt 0
	movq	-120(%rbp), %rax
	.loc	32 412 6 is_stmt 1
	addq	$144, %rsp
	popq	%rbp
	retq
Ltmp758:
Lfunc_end212:
	.cfi_endproc

	.p2align	4, 0x90
__ZN5alloc11collections5btree4node137Handle$LT$alloc..collections..btree..node..NodeRef$LT$BorrowType$C$K$C$V$C$NodeType$GT$$C$alloc..collections..btree..node..marker..KV$GT$10right_edge17h335e6acc3ed7775eE:
Lfunc_begin213:
	.loc	32 756 0
	.cfi_startproc
	pushq	%rbp
	.cfi_def_cfa_offset 16
	.cfi_offset %rbp, -16
	movq	%rsp, %rbp
	.cfi_def_cfa_register %rbp
	subq	$32, %rsp
	movq	%rdi, %rax
Ltmp759:
	.loc	32 757 35 prologue_end
	movq	(%rsi), %rcx
	movq	%rcx, -24(%rbp)
	movq	8(%rsi), %rcx
	movq	%rcx, -16(%rbp)
	movq	16(%rsi), %rcx
	movq	%rcx, -8(%rbp)
	.loc	32 757 46 is_stmt 0
	movq	24(%rsi), %rcx
	addq	$1, %rcx
	.loc	32 757 18
	leaq	-24(%rbp), %rsi
Ltmp760:
	movq	%rcx, %rdx
	movq	%rax, -32(%rbp)
	callq	__ZN5alloc11collections5btree4node139Handle$LT$alloc..collections..btree..node..NodeRef$LT$BorrowType$C$K$C$V$C$NodeType$GT$$C$alloc..collections..btree..node..marker..Edge$GT$8new_edge17h8be93c4ae1ee4bd9E
	.loc	32 0 18
	movq	-32(%rbp), %rax
	.loc	32 758 6 is_stmt 1
	addq	$32, %rsp
	popq	%rbp
	retq
Ltmp761:
Lfunc_end213:
	.cfi_endproc

	.p2align	4, 0x90
__ZN5alloc11collections5btree4node137Handle$LT$alloc..collections..btree..node..NodeRef$LT$BorrowType$C$K$C$V$C$NodeType$GT$$C$alloc..collections..btree..node..marker..KV$GT$10right_edge17hf0e094032d227c64E:
Lfunc_begin214:
	.loc	32 756 0
	.cfi_startproc
	pushq	%rbp
	.cfi_def_cfa_offset 16
	.cfi_offset %rbp, -16
	movq	%rsp, %rbp
	.cfi_def_cfa_register %rbp
	subq	$32, %rsp
	movq	%rdi, %rax
Ltmp762:
	.loc	32 757 35 prologue_end
	movq	(%rsi), %rcx
	movq	%rcx, -24(%rbp)
	movq	8(%rsi), %rcx
	movq	%rcx, -16(%rbp)
	movq	16(%rsi), %rcx
	movq	%rcx, -8(%rbp)
	.loc	32 757 46 is_stmt 0
	movq	24(%rsi), %rcx
	addq	$1, %rcx
	.loc	32 757 18
	leaq	-24(%rbp), %rsi
Ltmp763:
	movq	%rcx, %rdx
	movq	%rax, -32(%rbp)
	callq	__ZN5alloc11collections5btree4node139Handle$LT$alloc..collections..btree..node..NodeRef$LT$BorrowType$C$K$C$V$C$NodeType$GT$$C$alloc..collections..btree..node..marker..Edge$GT$8new_edge17hcc3dd6408e308869E
	.loc	32 0 18
	movq	-32(%rbp), %rax
	.loc	32 758 6 is_stmt 1
	addq	$32, %rsp
	popq	%rbp
	retq
Ltmp764:
Lfunc_end214:
	.cfi_endproc

	.p2align	4, 0x90
__ZN5alloc11collections5btree4node137Handle$LT$alloc..collections..btree..node..NodeRef$LT$BorrowType$C$K$C$V$C$NodeType$GT$$C$alloc..collections..btree..node..marker..KV$GT$6new_kv17h123aa7df9eb76d41E:
Lfunc_begin215:
	.loc	32 746 0
	.cfi_startproc
	pushq	%rbp
	.cfi_def_cfa_offset 16
	.cfi_offset %rbp, -16
	movq	%rsp, %rbp
	.cfi_def_cfa_register %rbp
	subq	$32, %rsp
	movq	%rdi, %rax
Ltmp765:
	movq	%rdx, -8(%rbp)
Ltmp766:
	.loc	32 749 18 prologue_end
	movq	(%rsi), %rcx
	movq	%rcx, -32(%rbp)
	movq	8(%rsi), %rcx
	movq	%rcx, -24(%rbp)
	movq	16(%rsi), %rcx
	movq	%rcx, -16(%rbp)
	.loc	32 749 9 is_stmt 0
	movq	-32(%rbp), %rcx
	movq	%rcx, (%rdi)
	movq	-24(%rbp), %rcx
	movq	%rcx, 8(%rdi)
	movq	-16(%rbp), %rcx
	movq	%rcx, 16(%rdi)
	movq	%rdx, 24(%rdi)
	.loc	32 750 6 is_stmt 1
	addq	$32, %rsp
	popq	%rbp
	retq
Ltmp767:
Lfunc_end215:
	.cfi_endproc

	.p2align	4, 0x90
__ZN5alloc11collections5btree4node139Handle$LT$alloc..collections..btree..node..NodeRef$LT$BorrowType$C$K$C$V$C$NodeType$GT$$C$alloc..collections..btree..node..marker..Edge$GT$8new_edge17h60f83b6584710a72E:
Lfunc_begin216:
	.loc	32 809 0
	.cfi_startproc
	pushq	%rbp
	.cfi_def_cfa_offset 16
	.cfi_offset %rbp, -16
	movq	%rsp, %rbp
	.cfi_def_cfa_register %rbp
	subq	$32, %rsp
	movq	%rdi, %rax
Ltmp768:
	movq	%rdx, -8(%rbp)
Ltmp769:
	.loc	32 812 18 prologue_end
	movq	(%rsi), %rcx
	movq	%rcx, -32(%rbp)
	movq	8(%rsi), %rcx
	movq	%rcx, -24(%rbp)
	movq	16(%rsi), %rcx
	movq	%rcx, -16(%rbp)
	.loc	32 812 9 is_stmt 0
	movq	-32(%rbp), %rcx
	movq	%rcx, (%rdi)
	movq	-24(%rbp), %rcx
	movq	%rcx, 8(%rdi)
	movq	-16(%rbp), %rcx
	movq	%rcx, 16(%rdi)
	movq	%rdx, 24(%rdi)
	.loc	32 813 6 is_stmt 1
	addq	$32, %rsp
	popq	%rbp
	retq
Ltmp770:
Lfunc_end216:
	.cfi_endproc

	.p2align	4, 0x90
__ZN5alloc11collections5btree4node139Handle$LT$alloc..collections..btree..node..NodeRef$LT$BorrowType$C$K$C$V$C$NodeType$GT$$C$alloc..collections..btree..node..marker..Edge$GT$8new_edge17h8be93c4ae1ee4bd9E:
Lfunc_begin217:
	.loc	32 809 0
	.cfi_startproc
	pushq	%rbp
	.cfi_def_cfa_offset 16
	.cfi_offset %rbp, -16
	movq	%rsp, %rbp
	.cfi_def_cfa_register %rbp
	subq	$32, %rsp
	movq	%rdi, %rax
Ltmp771:
	movq	%rdx, -8(%rbp)
Ltmp772:
	.loc	32 812 18 prologue_end
	movq	(%rsi), %rcx
	movq	%rcx, -32(%rbp)
	movq	8(%rsi), %rcx
	movq	%rcx, -24(%rbp)
	movq	16(%rsi), %rcx
	movq	%rcx, -16(%rbp)
	.loc	32 812 9 is_stmt 0
	movq	-32(%rbp), %rcx
	movq	%rcx, (%rdi)
	movq	-24(%rbp), %rcx
	movq	%rcx, 8(%rdi)
	movq	-16(%rbp), %rcx
	movq	%rcx, 16(%rdi)
	movq	%rdx, 24(%rdi)
	.loc	32 813 6 is_stmt 1
	addq	$32, %rsp
	popq	%rbp
	retq
Ltmp773:
Lfunc_end217:
	.cfi_endproc

	.p2align	4, 0x90
__ZN5alloc11collections5btree4node139Handle$LT$alloc..collections..btree..node..NodeRef$LT$BorrowType$C$K$C$V$C$NodeType$GT$$C$alloc..collections..btree..node..marker..Edge$GT$8new_edge17hcc3dd6408e308869E:
Lfunc_begin218:
	.loc	32 809 0
	.cfi_startproc
	pushq	%rbp
	.cfi_def_cfa_offset 16
	.cfi_offset %rbp, -16
	movq	%rsp, %rbp
	.cfi_def_cfa_register %rbp
	subq	$32, %rsp
	movq	%rdi, %rax
Ltmp774:
	movq	%rdx, -8(%rbp)
Ltmp775:
	.loc	32 812 18 prologue_end
	movq	(%rsi), %rcx
	movq	%rcx, -32(%rbp)
	movq	8(%rsi), %rcx
	movq	%rcx, -24(%rbp)
	movq	16(%rsi), %rcx
	movq	%rcx, -16(%rbp)
	.loc	32 812 9 is_stmt 0
	movq	-32(%rbp), %rcx
	movq	%rcx, (%rdi)
	movq	-24(%rbp), %rcx
	movq	%rcx, 8(%rdi)
	movq	-16(%rbp), %rcx
	movq	%rcx, 16(%rdi)
	movq	%rdx, 24(%rdi)
	.loc	32 813 6 is_stmt 1
	addq	$32, %rsp
	popq	%rbp
	retq
Ltmp776:
Lfunc_end218:
	.cfi_endproc

	.p2align	4, 0x90
__ZN5alloc11collections5btree4node139Handle$LT$alloc..collections..btree..node..NodeRef$LT$BorrowType$C$K$C$V$C$NodeType$GT$$C$alloc..collections..btree..node..marker..Edge$GT$8right_kv17h12befcaa1d1ccccbE:
Lfunc_begin219:
	.loc	32 823 0
	.cfi_startproc
	pushq	%rbp
	.cfi_def_cfa_offset 16
	.cfi_offset %rbp, -16
	movq	%rsp, %rbp
	.cfi_def_cfa_register %rbp
	subq	$128, %rsp
	movq	%rdi, %rax
Ltmp777:
	.loc	32 824 12 prologue_end
	movq	24(%rsi), %rcx
	.loc	32 824 23 is_stmt 0
	movq	%rsi, %rdx
	movq	%rdi, -96(%rbp)
	movq	%rdx, %rdi
	movq	%rsi, -104(%rbp)
Ltmp778:
	.loc	32 0 23
	movq	%rax, -112(%rbp)
	movq	%rcx, -120(%rbp)
	.loc	32 824 23
	callq	__ZN5alloc11collections5btree4node40NodeRef$LT$BorrowType$C$K$C$V$C$Type$GT$3len17hd781f4a3deac8271E
	movq	%rax, -128(%rbp)
Ltmp779:
	.loc	32 0 23
	movq	-120(%rbp), %rax
	movq	-128(%rbp), %rcx
	.loc	32 824 12
	cmpq	%rcx, %rax
	.loc	32 824 9
	jb	LBB219_3
Ltmp780:
	.loc	32 0 9
	movq	-104(%rbp), %rax
	.loc	32 827 17 is_stmt 1
	movq	(%rax), %rcx
	movq	%rcx, -32(%rbp)
	movq	8(%rax), %rcx
	movq	%rcx, -24(%rbp)
	movq	16(%rax), %rcx
	movq	%rcx, -16(%rbp)
	movq	24(%rax), %rcx
	movq	%rcx, -8(%rbp)
	.loc	32 827 13 is_stmt 0
	movq	-32(%rbp), %rcx
	movq	-96(%rbp), %rdx
	movq	%rcx, 8(%rdx)
	movq	-24(%rbp), %rcx
	movq	%rcx, 16(%rdx)
	movq	-16(%rbp), %rcx
	movq	%rcx, 24(%rdx)
	movq	-8(%rbp), %rcx
	movq	%rcx, 32(%rdx)
	movq	$1, (%rdx)
	.loc	32 824 9 is_stmt 1
	jmp	LBB219_5
Ltmp781:
LBB219_3:
	.loc	32 0 9 is_stmt 0
	movq	-104(%rbp), %rax
	.loc	32 825 40 is_stmt 1
	movq	(%rax), %rcx
	movq	%rcx, -56(%rbp)
	movq	8(%rax), %rcx
	movq	%rcx, -48(%rbp)
	movq	16(%rax), %rcx
	movq	%rcx, -40(%rbp)
	.loc	32 825 51 is_stmt 0
	movq	24(%rax), %rdx
	.loc	32 825 25
	leaq	-88(%rbp), %rdi
	leaq	-56(%rbp), %rsi
	callq	__ZN5alloc11collections5btree4node137Handle$LT$alloc..collections..btree..node..NodeRef$LT$BorrowType$C$K$C$V$C$NodeType$GT$$C$alloc..collections..btree..node..marker..KV$GT$6new_kv17h123aa7df9eb76d41E
Ltmp782:
	.loc	32 825 13
	movq	-88(%rbp), %rax
	movq	-96(%rbp), %rcx
	movq	%rax, 8(%rcx)
	movq	-80(%rbp), %rax
	movq	%rax, 16(%rcx)
	movq	-72(%rbp), %rax
	movq	%rax, 24(%rcx)
	movq	-64(%rbp), %rax
	movq	%rax, 32(%rcx)
	movq	$0, (%rcx)
Ltmp783:
LBB219_5:
	.loc	32 0 13
	movq	-112(%rbp), %rax
	.loc	32 829 6 is_stmt 1
	addq	$128, %rsp
	popq	%rbp
	retq
Ltmp784:
Lfunc_end219:
	.cfi_endproc

	.p2align	4, 0x90
__ZN5alloc11collections5btree4node151Handle$LT$alloc..collections..btree..node..NodeRef$LT$BorrowType$C$K$C$V$C$alloc..collections..btree..node..marker..LeafOrInternal$GT$$C$HandleType$GT$5force17hbd2c7d0c4afbaf36E:
Lfunc_begin220:
	.loc	32 1393 0
	.cfi_startproc
	pushq	%rbp
	.cfi_def_cfa_offset 16
	.cfi_offset %rbp, -16
	movq	%rsp, %rbp
	.cfi_def_cfa_register %rbp
	subq	$256, %rsp
	movq	%rdi, %rax
Ltmp785:
	.loc	32 1399 15 prologue_end
	movq	(%rsi), %rcx
	movq	%rcx, -200(%rbp)
	movq	8(%rsi), %rcx
	movq	%rcx, -192(%rbp)
	movq	16(%rsi), %rcx
	movq	%rcx, -184(%rbp)
	leaq	-232(%rbp), %rcx
	movq	%rdi, -240(%rbp)
	movq	%rcx, %rdi
	leaq	-200(%rbp), %rcx
	movq	%rsi, -248(%rbp)
Ltmp786:
	movq	%rcx, %rsi
	movq	%rax, -256(%rbp)
	callq	__ZN5alloc11collections5btree4node91NodeRef$LT$BorrowType$C$K$C$V$C$alloc..collections..btree..node..marker..LeafOrInternal$GT$5force17h4ad43047256f4722E
Ltmp787:
	.loc	32 1400 13
	movq	-232(%rbp), %rax
	testq	%rax, %rax
	je	LBB220_4
	jmp	LBB220_6
Ltmp788:
LBB220_6:
	.loc	32 1403 35
	movq	-224(%rbp), %rax
	movq	%rax, -88(%rbp)
	movq	-216(%rbp), %rax
	movq	%rax, -80(%rbp)
	movq	-208(%rbp), %rax
	movq	%rax, -72(%rbp)
Ltmp789:
	.loc	32 1404 48
	movq	-88(%rbp), %rax
	movq	%rax, -32(%rbp)
	movq	-80(%rbp), %rax
	movq	%rax, -24(%rbp)
	movq	-72(%rbp), %rax
	movq	%rax, -16(%rbp)
	movq	-248(%rbp), %rax
	.loc	32 1404 59 is_stmt 0
	movq	24(%rax), %rcx
	.loc	32 1404 39
	movq	-32(%rbp), %rdx
	movq	%rdx, -64(%rbp)
	movq	-24(%rbp), %rdx
	movq	%rdx, -56(%rbp)
	movq	-16(%rbp), %rdx
	movq	%rdx, -48(%rbp)
	movq	%rcx, -40(%rbp)
	.loc	32 1404 17
	movq	-64(%rbp), %rcx
	movq	-240(%rbp), %rdx
	movq	%rcx, 8(%rdx)
	movq	-56(%rbp), %rcx
	movq	%rcx, 16(%rdx)
	movq	-48(%rbp), %rcx
	movq	%rcx, 24(%rdx)
	movq	-40(%rbp), %rcx
	movq	%rcx, 32(%rdx)
	movq	$1, (%rdx)
Ltmp790:
	.loc	32 1399 9 is_stmt 1
	jmp	LBB220_5
Ltmp791:
	.loc	32 1399 15 is_stmt 0
	ud2
LBB220_4:
Ltmp792:
	.loc	32 1400 31 is_stmt 1
	movq	-224(%rbp), %rax
	movq	%rax, -176(%rbp)
	movq	-216(%rbp), %rax
	movq	%rax, -168(%rbp)
	movq	-208(%rbp), %rax
	movq	%rax, -160(%rbp)
Ltmp793:
	.loc	32 1401 44
	movq	-176(%rbp), %rax
	movq	%rax, -120(%rbp)
	movq	-168(%rbp), %rax
	movq	%rax, -112(%rbp)
	movq	-160(%rbp), %rax
	movq	%rax, -104(%rbp)
	movq	-248(%rbp), %rax
	.loc	32 1401 55 is_stmt 0
	movq	24(%rax), %rcx
	.loc	32 1401 35
	movq	-120(%rbp), %rdx
	movq	%rdx, -152(%rbp)
	movq	-112(%rbp), %rdx
	movq	%rdx, -144(%rbp)
	movq	-104(%rbp), %rdx
	movq	%rdx, -136(%rbp)
	movq	%rcx, -128(%rbp)
	.loc	32 1401 17
	movq	-152(%rbp), %rcx
	movq	-240(%rbp), %rdx
	movq	%rcx, 8(%rdx)
	movq	-144(%rbp), %rcx
	movq	%rcx, 16(%rdx)
	movq	-136(%rbp), %rcx
	movq	%rcx, 24(%rdx)
	movq	-128(%rbp), %rcx
	movq	%rcx, 32(%rdx)
	movq	$0, (%rdx)
Ltmp794:
LBB220_5:
	.loc	32 0 17
	movq	-256(%rbp), %rax
	.loc	32 1407 6 is_stmt 1
	addq	$256, %rsp
	popq	%rbp
	retq
Ltmp795:
Lfunc_end220:
	.cfi_endproc

	.p2align	4, 0x90
__ZN5alloc11collections5btree4node151Handle$LT$alloc..collections..btree..node..NodeRef$LT$BorrowType$C$K$C$V$C$alloc..collections..btree..node..marker..LeafOrInternal$GT$$C$HandleType$GT$5force17hc173d6988309bf12E:
Lfunc_begin221:
	.loc	32 1393 0
	.cfi_startproc
	pushq	%rbp
	.cfi_def_cfa_offset 16
	.cfi_offset %rbp, -16
	movq	%rsp, %rbp
	.cfi_def_cfa_register %rbp
	subq	$256, %rsp
	movq	%rdi, %rax
Ltmp796:
	.loc	32 1399 15 prologue_end
	movq	(%rsi), %rcx
	movq	%rcx, -200(%rbp)
	movq	8(%rsi), %rcx
	movq	%rcx, -192(%rbp)
	movq	16(%rsi), %rcx
	movq	%rcx, -184(%rbp)
	leaq	-232(%rbp), %rcx
	movq	%rdi, -240(%rbp)
	movq	%rcx, %rdi
	leaq	-200(%rbp), %rcx
	movq	%rsi, -248(%rbp)
Ltmp797:
	movq	%rcx, %rsi
	movq	%rax, -256(%rbp)
	callq	__ZN5alloc11collections5btree4node91NodeRef$LT$BorrowType$C$K$C$V$C$alloc..collections..btree..node..marker..LeafOrInternal$GT$5force17h4ad43047256f4722E
Ltmp798:
	.loc	32 1400 13
	movq	-232(%rbp), %rax
	testq	%rax, %rax
	je	LBB221_4
	jmp	LBB221_6
Ltmp799:
LBB221_6:
	.loc	32 1403 35
	movq	-224(%rbp), %rax
	movq	%rax, -88(%rbp)
	movq	-216(%rbp), %rax
	movq	%rax, -80(%rbp)
	movq	-208(%rbp), %rax
	movq	%rax, -72(%rbp)
Ltmp800:
	.loc	32 1404 48
	movq	-88(%rbp), %rax
	movq	%rax, -32(%rbp)
	movq	-80(%rbp), %rax
	movq	%rax, -24(%rbp)
	movq	-72(%rbp), %rax
	movq	%rax, -16(%rbp)
	movq	-248(%rbp), %rax
	.loc	32 1404 59 is_stmt 0
	movq	24(%rax), %rcx
	.loc	32 1404 39
	movq	-32(%rbp), %rdx
	movq	%rdx, -64(%rbp)
	movq	-24(%rbp), %rdx
	movq	%rdx, -56(%rbp)
	movq	-16(%rbp), %rdx
	movq	%rdx, -48(%rbp)
	movq	%rcx, -40(%rbp)
	.loc	32 1404 17
	movq	-64(%rbp), %rcx
	movq	-240(%rbp), %rdx
	movq	%rcx, 8(%rdx)
	movq	-56(%rbp), %rcx
	movq	%rcx, 16(%rdx)
	movq	-48(%rbp), %rcx
	movq	%rcx, 24(%rdx)
	movq	-40(%rbp), %rcx
	movq	%rcx, 32(%rdx)
	movq	$1, (%rdx)
Ltmp801:
	.loc	32 1399 9 is_stmt 1
	jmp	LBB221_5
Ltmp802:
	.loc	32 1399 15 is_stmt 0
	ud2
LBB221_4:
Ltmp803:
	.loc	32 1400 31 is_stmt 1
	movq	-224(%rbp), %rax
	movq	%rax, -176(%rbp)
	movq	-216(%rbp), %rax
	movq	%rax, -168(%rbp)
	movq	-208(%rbp), %rax
	movq	%rax, -160(%rbp)
Ltmp804:
	.loc	32 1401 44
	movq	-176(%rbp), %rax
	movq	%rax, -120(%rbp)
	movq	-168(%rbp), %rax
	movq	%rax, -112(%rbp)
	movq	-160(%rbp), %rax
	movq	%rax, -104(%rbp)
	movq	-248(%rbp), %rax
	.loc	32 1401 55 is_stmt 0
	movq	24(%rax), %rcx
	.loc	32 1401 35
	movq	-120(%rbp), %rdx
	movq	%rdx, -152(%rbp)
	movq	-112(%rbp), %rdx
	movq	%rdx, -144(%rbp)
	movq	-104(%rbp), %rdx
	movq	%rdx, -136(%rbp)
	movq	%rcx, -128(%rbp)
	.loc	32 1401 17
	movq	-152(%rbp), %rcx
	movq	-240(%rbp), %rdx
	movq	%rcx, 8(%rdx)
	movq	-144(%rbp), %rcx
	movq	%rcx, 16(%rdx)
	movq	-136(%rbp), %rcx
	movq	%rcx, 24(%rdx)
	movq	-128(%rbp), %rcx
	movq	%rcx, 32(%rdx)
	movq	$0, (%rdx)
Ltmp805:
LBB221_5:
	.loc	32 0 17
	movq	-256(%rbp), %rax
	.loc	32 1407 6 is_stmt 1
	addq	$256, %rsp
	popq	%rbp
	retq
Ltmp806:
Lfunc_end221:
	.cfi_endproc

	.p2align	4, 0x90
__ZN5alloc11collections5btree4node173Handle$LT$alloc..collections..btree..node..NodeRef$LT$alloc..collections..btree..node..marker..Immut$C$K$C$V$C$NodeType$GT$$C$alloc..collections..btree..node..marker..KV$GT$7into_kv17h17a73e0b728e9f21E:
Lfunc_begin222:
	.loc	32 982 0
	.cfi_startproc
	pushq	%rbp
	.cfi_def_cfa_offset 16
	.cfi_offset %rbp, -16
	movq	%rsp, %rbp
	.cfi_def_cfa_register %rbp
	subq	$144, %rsp
Ltmp807:
	.loc	32 984 32 prologue_end
	movq	(%rdi), %rax
	movq	%rax, -56(%rbp)
	movq	8(%rdi), %rax
	movq	%rax, -48(%rbp)
	movq	16(%rdi), %rax
	movq	%rax, -40(%rbp)
	leaq	-88(%rbp), %rax
	movq	%rdi, -112(%rbp)
Ltmp808:
	movq	%rax, %rdi
	leaq	-56(%rbp), %rsi
	callq	__ZN5alloc11collections5btree4node76NodeRef$LT$alloc..collections..btree..node..marker..Immut$C$K$C$V$C$Type$GT$11into_slices17hc290af1a2458284aE
Ltmp809:
	.loc	32 984 18 is_stmt 0
	movq	-88(%rbp), %rax
	movq	-80(%rbp), %rcx
	movq	%rax, -32(%rbp)
	movq	%rcx, -24(%rbp)
	.loc	32 984 24
	movq	-72(%rbp), %rdx
	movq	-64(%rbp), %rsi
	movq	%rdx, -16(%rbp)
	movq	%rsi, -8(%rbp)
	movq	-112(%rbp), %rdi
Ltmp810:
	.loc	32 985 33 is_stmt 1
	movq	24(%rdi), %r8
	.loc	32 985 14 is_stmt 0
	movq	%rax, %rdi
	movq	%rsi, -120(%rbp)
	movq	%rcx, %rsi
	movq	%rdx, -128(%rbp)
	movq	%r8, %rdx
	callq	__ZN4core5slice29_$LT$impl$u20$$u5b$T$u5d$$GT$13get_unchecked17h11e052e5c461c67dE
	movq	%rax, -136(%rbp)
Ltmp811:
	.loc	32 0 14
	movq	-112(%rbp), %rax
	.loc	32 985 63
	movq	24(%rax), %rdx
	movq	-128(%rbp), %rdi
	movq	-120(%rbp), %rsi
	.loc	32 985 44
	callq	__ZN4core5slice29_$LT$impl$u20$$u5b$T$u5d$$GT$13get_unchecked17h4349f578e214840eE
	movq	%rax, -144(%rbp)
Ltmp812:
	.loc	32 0 44
	movq	-136(%rbp), %rax
	.loc	32 985 13
	movq	%rax, -104(%rbp)
	movq	-144(%rbp), %rcx
	movq	%rcx, -96(%rbp)
Ltmp813:
	.loc	32 987 6 is_stmt 1
	movq	-104(%rbp), %rax
	movq	-96(%rbp), %rdx
	addq	$144, %rsp
	popq	%rbp
	retq
Ltmp814:
Lfunc_end222:
	.cfi_endproc

	.p2align	4, 0x90
__ZN5alloc11collections5btree4node176Handle$LT$alloc..collections..btree..node..NodeRef$LT$BorrowType$C$K$C$V$C$alloc..collections..btree..node..marker..Leaf$GT$$C$alloc..collections..btree..node..marker..Edge$GT$16forget_node_type17h1f608edced5c3678E:
Lfunc_begin223:
	.loc	32 1366 0
	.cfi_startproc
	pushq	%rbp
	.cfi_def_cfa_offset 16
	.cfi_offset %rbp, -16
	movq	%rsp, %rbp
	.cfi_def_cfa_register %rbp
	subq	$80, %rsp
	movq	%rdi, %rax
Ltmp815:
	.loc	32 1369 35 prologue_end
	movq	(%rsi), %rcx
	movq	%rcx, -24(%rbp)
	movq	8(%rsi), %rcx
	movq	%rcx, -16(%rbp)
	movq	16(%rsi), %rcx
	movq	%rcx, -8(%rbp)
	leaq	-48(%rbp), %rcx
	movq	%rdi, -56(%rbp)
	movq	%rcx, %rdi
	leaq	-24(%rbp), %rcx
	movq	%rsi, -64(%rbp)
Ltmp816:
	movq	%rcx, %rsi
	movq	%rax, -72(%rbp)
	callq	__ZN5alloc11collections5btree4node40NodeRef$LT$BorrowType$C$K$C$V$C$Type$GT$11forget_type17h5af6ba2783dde880E
Ltmp817:
	.loc	32 0 35 is_stmt 0
	movq	-64(%rbp), %rax
	.loc	32 1369 60
	movq	24(%rax), %rdx
	movq	-56(%rbp), %rdi
	.loc	32 1369 18
	leaq	-48(%rbp), %rsi
	callq	__ZN5alloc11collections5btree4node139Handle$LT$alloc..collections..btree..node..NodeRef$LT$BorrowType$C$K$C$V$C$NodeType$GT$$C$alloc..collections..btree..node..marker..Edge$GT$8new_edge17h60f83b6584710a72E
Ltmp818:
	.loc	32 0 18
	movq	-72(%rbp), %rax
	.loc	32 1370 6 is_stmt 1
	addq	$80, %rsp
	popq	%rbp
	retq
Ltmp819:
Lfunc_end223:
	.cfi_endproc

	.p2align	4, 0x90
__ZN5alloc11collections5btree4node17Root$LT$K$C$V$GT$8into_ref17h75965c3203d89bb5E:
Lfunc_begin224:
	.loc	32 184 0
	.cfi_startproc
	pushq	%rbp
	.cfi_def_cfa_offset 16
	.cfi_offset %rbp, -16
	movq	%rsp, %rbp
	.cfi_def_cfa_register %rbp
	subq	$48, %rsp
	movq	%rdi, %rax
	movq	%rsi, -16(%rbp)
	movq	%rdx, -8(%rbp)
Ltmp820:
	.loc	32 186 21 prologue_end
	movq	-8(%rbp), %rcx
	.loc	32 187 19
	leaq	-16(%rbp), %rdx
Ltmp821:
	.loc	32 0 19 is_stmt 0
	movq	%rdi, -24(%rbp)
	.loc	32 187 19
	movq	%rdx, %rdi
	movq	%rax, -32(%rbp)
	movq	%rcx, -40(%rbp)
	callq	__ZN5alloc11collections5btree4node22BoxedNode$LT$K$C$V$GT$6as_ptr17ha519474489d8cf8fE
Ltmp822:
	.loc	32 0 19
	movq	%rax, -48(%rbp)
	.loc	32 188 19 is_stmt 1
	jmp	LBB224_2
LBB224_2:
	.loc	32 0 19 is_stmt 0
	movq	-24(%rbp), %rax
	movq	-40(%rbp), %rcx
	.loc	32 185 9 is_stmt 1
	movq	%rcx, (%rax)
	movq	-48(%rbp), %rdx
	movq	%rdx, 8(%rax)
	movq	$0, 16(%rax)
	movq	-32(%rbp), %rax
	.loc	32 191 6
	addq	$48, %rsp
	popq	%rbp
	retq
Ltmp823:
Lfunc_end224:
	.cfi_endproc

	.p2align	4, 0x90
__ZN5alloc11collections5btree4node180Handle$LT$alloc..collections..btree..node..NodeRef$LT$BorrowType$C$K$C$V$C$alloc..collections..btree..node..marker..Internal$GT$$C$alloc..collections..btree..node..marker..Edge$GT$16forget_node_type17h5e8e1adacda3c4bbE:
Lfunc_begin225:
	.loc	32 1374 0
	.cfi_startproc
	pushq	%rbp
	.cfi_def_cfa_offset 16
	.cfi_offset %rbp, -16
	movq	%rsp, %rbp
	.cfi_def_cfa_register %rbp
	subq	$80, %rsp
	movq	%rdi, %rax
Ltmp824:
	.loc	32 1377 35 prologue_end
	movq	(%rsi), %rcx
	movq	%rcx, -24(%rbp)
	movq	8(%rsi), %rcx
	movq	%rcx, -16(%rbp)
	movq	16(%rsi), %rcx
	movq	%rcx, -8(%rbp)
	leaq	-48(%rbp), %rcx
	movq	%rdi, -56(%rbp)
	movq	%rcx, %rdi
	leaq	-24(%rbp), %rcx
	movq	%rsi, -64(%rbp)
Ltmp825:
	movq	%rcx, %rsi
	movq	%rax, -72(%rbp)
	callq	__ZN5alloc11collections5btree4node40NodeRef$LT$BorrowType$C$K$C$V$C$Type$GT$11forget_type17hc2575a9df03a0eb2E
Ltmp826:
	.loc	32 0 35 is_stmt 0
	movq	-64(%rbp), %rax
	.loc	32 1377 60
	movq	24(%rax), %rdx
	movq	-56(%rbp), %rdi
	.loc	32 1377 18
	leaq	-48(%rbp), %rsi
	callq	__ZN5alloc11collections5btree4node139Handle$LT$alloc..collections..btree..node..NodeRef$LT$BorrowType$C$K$C$V$C$NodeType$GT$$C$alloc..collections..btree..node..marker..Edge$GT$8new_edge17h60f83b6584710a72E
Ltmp827:
	.loc	32 0 18
	movq	-72(%rbp), %rax
	.loc	32 1378 6 is_stmt 1
	addq	$80, %rsp
	popq	%rbp
	retq
Ltmp828:
Lfunc_end225:
	.cfi_endproc

	.p2align	4, 0x90
__ZN5alloc11collections5btree4node180Handle$LT$alloc..collections..btree..node..NodeRef$LT$BorrowType$C$K$C$V$C$alloc..collections..btree..node..marker..Internal$GT$$C$alloc..collections..btree..node..marker..Edge$GT$7descend17h001b1ff91f9e626eE:
Lfunc_begin226:
	.loc	32 969 0
	.cfi_startproc
	pushq	%rbp
	.cfi_def_cfa_offset 16
	.cfi_offset %rbp, -16
	movq	%rsp, %rbp
	.cfi_def_cfa_register %rbp
	subq	$96, %rsp
	movq	%rdi, %rax
Ltmp829:
	.loc	32 971 21 prologue_end
	movq	(%rsi), %rcx
	subq	$1, %rcx
	.loc	32 973 20
	movq	%rsi, %rdx
	movq	%rdi, -32(%rbp)
	movq	%rdx, %rdi
	movq	%rsi, -40(%rbp)
Ltmp830:
	.loc	32 0 20 is_stmt 0
	movq	%rax, -48(%rbp)
	movq	%rcx, -56(%rbp)
	.loc	32 973 20
	callq	__ZN5alloc11collections5btree4node85NodeRef$LT$BorrowType$C$K$C$V$C$alloc..collections..btree..node..marker..Internal$GT$11as_internal17h00aab34f3297c00dE
	movq	%rax, -64(%rbp)
Ltmp831:
	.loc	32 0 20
	movq	-64(%rbp), %rax
	.loc	32 973 20
	addq	$544, %rax
	movq	-40(%rbp), %rcx
	.loc	32 973 64
	movq	24(%rcx), %rdx
	.loc	32 973 20
	movq	%rax, %rdi
	movl	$12, %esi
	callq	__ZN4core5slice29_$LT$impl$u20$$u5b$T$u5d$$GT$13get_unchecked17heef100fb11f79b89E
	movq	%rax, -72(%rbp)
Ltmp832:
	.loc	32 0 20
	movq	-72(%rbp), %rax
	movq	%rax, -16(%rbp)
	movq	%rax, -8(%rbp)
	movq	%rax, -80(%rbp)
Ltmp833:
	movq	-80(%rbp), %rdi
	.loc	32 973 17
	callq	__ZN5alloc11collections5btree4node22BoxedNode$LT$K$C$V$GT$6as_ptr17ha519474489d8cf8fE
	movq	%rax, -88(%rbp)
Ltmp834:
	.loc	32 0 17
	movq	-40(%rbp), %rax
	.loc	32 975 19 is_stmt 1
	movq	16(%rax), %rcx
	movq	-32(%rbp), %rdx
	movq	-56(%rbp), %rsi
	.loc	32 970 9
	movq	%rsi, (%rdx)
	movq	-88(%rbp), %rdi
	movq	%rdi, 8(%rdx)
	movq	%rcx, 16(%rdx)
	movq	-48(%rbp), %rax
	.loc	32 978 6
	addq	$96, %rsp
	popq	%rbp
	retq
Ltmp835:
Lfunc_end226:
	.cfi_endproc

	.p2align	4, 0x90
__ZN5alloc11collections5btree4node22BoxedNode$LT$K$C$V$GT$6as_ptr17ha519474489d8cf8fE:
Lfunc_begin227:
	.loc	32 138 0
	.cfi_startproc
	pushq	%rbp
	.cfi_def_cfa_offset 16
	.cfi_offset %rbp, -16
	movq	%rsp, %rbp
	.cfi_def_cfa_register %rbp
	subq	$16, %rsp
	movq	%rdi, -8(%rbp)
Ltmp836:
	.loc	32 139 23 prologue_end
	movq	(%rdi), %rdi
	.loc	32 139 9 is_stmt 0
	callq	__ZN119_$LT$core..ptr..non_null..NonNull$LT$T$GT$$u20$as$u20$core..convert..From$LT$core..ptr..unique..Unique$LT$T$GT$$GT$$GT$4from17h190a2598db684770E
	movq	%rax, -16(%rbp)
	.loc	32 0 9
	movq	-16(%rbp), %rax
	.loc	32 140 6 is_stmt 1
	addq	$16, %rsp
	popq	%rbp
	retq
Ltmp837:
Lfunc_end227:
	.cfi_endproc

	.p2align	4, 0x90
__ZN5alloc11collections5btree4node25Handle$LT$Node$C$Type$GT$9into_node17h37653927b866d189E:
Lfunc_begin228:
	.loc	32 733 0
	.cfi_startproc
	pushq	%rbp
	.cfi_def_cfa_offset 16
	.cfi_offset %rbp, -16
	movq	%rsp, %rbp
	.cfi_def_cfa_register %rbp
	movq	%rdi, %rax
Ltmp838:
	.loc	32 734 9 prologue_end
	movq	(%rsi), %rcx
	movq	%rcx, (%rdi)
	movq	8(%rsi), %rcx
	movq	%rcx, 8(%rdi)
	movq	16(%rsi), %rcx
	movq	%rcx, 16(%rdi)
	.loc	32 735 6
	popq	%rbp
	retq
Ltmp839:
Lfunc_end228:
	.cfi_endproc

	.p2align	4, 0x90
__ZN5alloc11collections5btree4node25Handle$LT$Node$C$Type$GT$9into_node17h57c0ad0f36269067E:
Lfunc_begin229:
	.loc	32 733 0
	.cfi_startproc
	pushq	%rbp
	.cfi_def_cfa_offset 16
	.cfi_offset %rbp, -16
	movq	%rsp, %rbp
	.cfi_def_cfa_register %rbp
	movq	%rdi, %rax
Ltmp840:
	.loc	32 734 9 prologue_end
	movq	(%rsi), %rcx
	movq	%rcx, (%rdi)
	movq	8(%rsi), %rcx
	movq	%rcx, 8(%rdi)
	movq	16(%rsi), %rcx
	movq	%rcx, 16(%rdi)
	.loc	32 735 6
	popq	%rbp
	retq
Ltmp841:
Lfunc_end229:
	.cfi_endproc

	.p2align	4, 0x90
__ZN5alloc11collections5btree4node25Handle$LT$Node$C$Type$GT$9into_node17h7219aceb12892d72E:
Lfunc_begin230:
	.loc	32 733 0
	.cfi_startproc
	pushq	%rbp
	.cfi_def_cfa_offset 16
	.cfi_offset %rbp, -16
	movq	%rsp, %rbp
	.cfi_def_cfa_register %rbp
	movq	%rdi, %rax
Ltmp842:
	.loc	32 734 9 prologue_end
	movq	(%rsi), %rcx
	movq	%rcx, (%rdi)
	movq	8(%rsi), %rcx
	movq	%rcx, 8(%rdi)
	movq	16(%rsi), %rcx
	movq	%rcx, 16(%rdi)
	.loc	32 735 6
	popq	%rbp
	retq
Ltmp843:
Lfunc_end230:
	.cfi_endproc

	.p2align	4, 0x90
__ZN5alloc11collections5btree4node40NodeRef$LT$BorrowType$C$K$C$V$C$Type$GT$10first_edge17h3fef1f11dca2bb30E:
Lfunc_begin231:
	.loc	32 367 0
	.cfi_startproc
	pushq	%rbp
	.cfi_def_cfa_offset 16
	.cfi_offset %rbp, -16
	movq	%rsp, %rbp
	.cfi_def_cfa_register %rbp
	subq	$32, %rsp
	movq	%rdi, %rax
	xorl	%ecx, %ecx
	movl	%ecx, %edx
Ltmp844:
	.loc	32 368 35 prologue_end
	movq	(%rsi), %r8
	movq	%r8, -24(%rbp)
	movq	8(%rsi), %r8
	movq	%r8, -16(%rbp)
	movq	16(%rsi), %rsi
Ltmp845:
	movq	%rsi, -8(%rbp)
	.loc	32 368 18 is_stmt 0
	leaq	-24(%rbp), %rsi
	movq	%rax, -32(%rbp)
	callq	__ZN5alloc11collections5btree4node139Handle$LT$alloc..collections..btree..node..NodeRef$LT$BorrowType$C$K$C$V$C$NodeType$GT$$C$alloc..collections..btree..node..marker..Edge$GT$8new_edge17h60f83b6584710a72E
	.loc	32 0 18
	movq	-32(%rbp), %rax
	.loc	32 369 6 is_stmt 1
	addq	$32, %rsp
	popq	%rbp
	retq
Ltmp846:
Lfunc_end231:
	.cfi_endproc

	.p2align	4, 0x90
__ZN5alloc11collections5btree4node40NodeRef$LT$BorrowType$C$K$C$V$C$Type$GT$10first_edge17hc984bbb24c491e9cE:
Lfunc_begin232:
	.loc	32 367 0
	.cfi_startproc
	pushq	%rbp
	.cfi_def_cfa_offset 16
	.cfi_offset %rbp, -16
	movq	%rsp, %rbp
	.cfi_def_cfa_register %rbp
	subq	$32, %rsp
	movq	%rdi, %rax
	xorl	%ecx, %ecx
	movl	%ecx, %edx
Ltmp847:
	.loc	32 368 35 prologue_end
	movq	(%rsi), %r8
	movq	%r8, -24(%rbp)
	movq	8(%rsi), %r8
	movq	%r8, -16(%rbp)
	movq	16(%rsi), %rsi
Ltmp848:
	movq	%rsi, -8(%rbp)
	.loc	32 368 18 is_stmt 0
	leaq	-24(%rbp), %rsi
	movq	%rax, -32(%rbp)
	callq	__ZN5alloc11collections5btree4node139Handle$LT$alloc..collections..btree..node..NodeRef$LT$BorrowType$C$K$C$V$C$NodeType$GT$$C$alloc..collections..btree..node..marker..Edge$GT$8new_edge17hcc3dd6408e308869E
	.loc	32 0 18
	movq	-32(%rbp), %rax
	.loc	32 369 6 is_stmt 1
	addq	$32, %rsp
	popq	%rbp
	retq
Ltmp849:
Lfunc_end232:
	.cfi_endproc

	.p2align	4, 0x90
__ZN5alloc11collections5btree4node40NodeRef$LT$BorrowType$C$K$C$V$C$Type$GT$10first_edge17hfe8b6a9d5610e8fcE:
Lfunc_begin233:
	.loc	32 367 0
	.cfi_startproc
	pushq	%rbp
	.cfi_def_cfa_offset 16
	.cfi_offset %rbp, -16
	movq	%rsp, %rbp
	.cfi_def_cfa_register %rbp
	subq	$32, %rsp
	movq	%rdi, %rax
	xorl	%ecx, %ecx
	movl	%ecx, %edx
Ltmp850:
	.loc	32 368 35 prologue_end
	movq	(%rsi), %r8
	movq	%r8, -24(%rbp)
	movq	8(%rsi), %r8
	movq	%r8, -16(%rbp)
	movq	16(%rsi), %rsi
Ltmp851:
	movq	%rsi, -8(%rbp)
	.loc	32 368 18 is_stmt 0
	leaq	-24(%rbp), %rsi
	movq	%rax, -32(%rbp)
	callq	__ZN5alloc11collections5btree4node139Handle$LT$alloc..collections..btree..node..NodeRef$LT$BorrowType$C$K$C$V$C$NodeType$GT$$C$alloc..collections..btree..node..marker..Edge$GT$8new_edge17h8be93c4ae1ee4bd9E
	.loc	32 0 18
	movq	-32(%rbp), %rax
	.loc	32 369 6 is_stmt 1
	addq	$32, %rsp
	popq	%rbp
	retq
Ltmp852:
Lfunc_end233:
	.cfi_endproc

	.p2align	4, 0x90
__ZN5alloc11collections5btree4node40NodeRef$LT$BorrowType$C$K$C$V$C$Type$GT$11forget_type17h5af6ba2783dde880E:
Lfunc_begin234:
	.loc	32 310 0
	.cfi_startproc
	pushq	%rbp
	.cfi_def_cfa_offset 16
	.cfi_offset %rbp, -16
	movq	%rsp, %rbp
	.cfi_def_cfa_register %rbp
	pushq	%rax
	movq	%rdi, %rax
Ltmp853:
	.loc	32 311 27 prologue_end
	movq	(%rsi), %rcx
	.loc	32 311 46 is_stmt 0
	movq	8(%rsi), %rdx
	.loc	32 311 63
	movq	16(%rsi), %rsi
Ltmp854:
	.loc	32 311 9
	movq	%rcx, (%rdi)
	movq	%rdx, 8(%rdi)
	movq	%rsi, 16(%rdi)
	.loc	32 312 6 is_stmt 1
	addq	$8, %rsp
	popq	%rbp
	retq
Ltmp855:
Lfunc_end234:
	.cfi_endproc

	.p2align	4, 0x90
__ZN5alloc11collections5btree4node40NodeRef$LT$BorrowType$C$K$C$V$C$Type$GT$11forget_type17hc2575a9df03a0eb2E:
Lfunc_begin235:
	.loc	32 310 0
	.cfi_startproc
	pushq	%rbp
	.cfi_def_cfa_offset 16
	.cfi_offset %rbp, -16
	movq	%rsp, %rbp
	.cfi_def_cfa_register %rbp
	pushq	%rax
	movq	%rdi, %rax
Ltmp856:
	.loc	32 311 27 prologue_end
	movq	(%rsi), %rcx
	.loc	32 311 46 is_stmt 0
	movq	8(%rsi), %rdx
	.loc	32 311 63
	movq	16(%rsi), %rsi
Ltmp857:
	.loc	32 311 9
	movq	%rcx, (%rdi)
	movq	%rdx, 8(%rdi)
	movq	%rsi, 16(%rdi)
	.loc	32 312 6 is_stmt 1
	addq	$8, %rsp
	popq	%rbp
	retq
Ltmp858:
Lfunc_end235:
	.cfi_endproc

	.p2align	4, 0x90
__ZN5alloc11collections5btree4node40NodeRef$LT$BorrowType$C$K$C$V$C$Type$GT$3len17h6b8ef56dc944b204E:
Lfunc_begin236:
	.loc	32 298 0
	.cfi_startproc
	pushq	%rbp
	.cfi_def_cfa_offset 16
	.cfi_offset %rbp, -16
	movq	%rsp, %rbp
	.cfi_def_cfa_register %rbp
	subq	$16, %rsp
	movq	%rdi, -8(%rbp)
Ltmp859:
	.loc	32 299 9 prologue_end
	callq	__ZN5alloc11collections5btree4node40NodeRef$LT$BorrowType$C$K$C$V$C$Type$GT$7as_leaf17h428640e053d1fcd1E
	movq	%rax, -16(%rbp)
	.loc	32 0 9 is_stmt 0
	movq	-16(%rbp), %rax
	.loc	32 299 9
	movzwl	10(%rax), %ecx
	movl	%ecx, %eax
	.loc	32 300 6 is_stmt 1
	addq	$16, %rsp
	popq	%rbp
	retq
Ltmp860:
Lfunc_end236:
	.cfi_endproc

	.p2align	4, 0x90
__ZN5alloc11collections5btree4node40NodeRef$LT$BorrowType$C$K$C$V$C$Type$GT$3len17hd781f4a3deac8271E:
Lfunc_begin237:
	.loc	32 298 0
	.cfi_startproc
	pushq	%rbp
	.cfi_def_cfa_offset 16
	.cfi_offset %rbp, -16
	movq	%rsp, %rbp
	.cfi_def_cfa_register %rbp
	subq	$16, %rsp
	movq	%rdi, -8(%rbp)
Ltmp861:
	.loc	32 299 9 prologue_end
	callq	__ZN5alloc11collections5btree4node40NodeRef$LT$BorrowType$C$K$C$V$C$Type$GT$7as_leaf17hcc7bfb8ecc9f7eb8E
	movq	%rax, -16(%rbp)
	.loc	32 0 9 is_stmt 0
	movq	-16(%rbp), %rax
	.loc	32 299 9
	movzwl	10(%rax), %ecx
	movl	%ecx, %eax
	.loc	32 300 6 is_stmt 1
	addq	$16, %rsp
	popq	%rbp
	retq
Ltmp862:
Lfunc_end237:
	.cfi_endproc

	.p2align	4, 0x90
__ZN5alloc11collections5btree4node40NodeRef$LT$BorrowType$C$K$C$V$C$Type$GT$6ascend17h298909fff548786fE:
Lfunc_begin238:
	.loc	32 347 0
	.cfi_startproc
	pushq	%rbp
	.cfi_def_cfa_offset 16
	.cfi_offset %rbp, -16
	movq	%rsp, %rbp
	.cfi_def_cfa_register %rbp
	subq	$192, %rsp
	movq	%rdi, %rax
Ltmp863:
	movq	%rdi, -136(%rbp)
Ltmp864:
	.loc	32 350 30 prologue_end
	movq	%rsi, %rdi
	movq	%rsi, -144(%rbp)
Ltmp865:
	.loc	32 0 30 is_stmt 0
	movq	%rax, -152(%rbp)
	.loc	32 350 30
	callq	__ZN5alloc11collections5btree4node40NodeRef$LT$BorrowType$C$K$C$V$C$Type$GT$7as_leaf17hcc7bfb8ecc9f7eb8E
	movq	%rax, -160(%rbp)
Ltmp866:
	.loc	32 0 30
	movq	-160(%rbp), %rax
	.loc	32 350 30
	movq	(%rax), %rcx
	movq	%rcx, -32(%rbp)
Ltmp867:
	.loc	32 351 33 is_stmt 1
	movq	%rcx, %rdi
	callq	__ZN4core3ptr8non_null16NonNull$LT$T$GT$3new17h26ce46f5def8f538E
	movq	%rax, -128(%rbp)
Ltmp868:
	.loc	32 0 33 is_stmt 0
	xorl	%eax, %eax
	movl	%eax, %ecx
	.loc	32 351 16
	cmpq	$0, -128(%rbp)
	movl	$1, %edx
	cmovbeq	%rcx, %rdx
	cmpq	$1, %rdx
	je	LBB238_4
Ltmp869:
	.loc	32 0 16
	movq	-144(%rbp), %rax
	.loc	32 363 17 is_stmt 1
	movq	(%rax), %rcx
	movq	%rcx, -56(%rbp)
	movq	8(%rax), %rcx
	movq	%rcx, -48(%rbp)
	movq	16(%rax), %rcx
	movq	%rcx, -40(%rbp)
	.loc	32 363 13 is_stmt 0
	movq	-56(%rbp), %rcx
	movq	-136(%rbp), %rdx
	movq	%rcx, 8(%rdx)
	movq	-48(%rbp), %rcx
	movq	%rcx, 16(%rdx)
	movq	-40(%rbp), %rcx
	movq	%rcx, 24(%rdx)
	movq	$1, (%rdx)
	.loc	32 351 9 is_stmt 1
	jmp	LBB238_8
Ltmp870:
LBB238_4:
	.loc	32 351 21 is_stmt 0
	movq	-128(%rbp), %rax
	movq	%rax, -24(%rbp)
	movq	-144(%rbp), %rcx
Ltmp871:
	.loc	32 354 29 is_stmt 1
	movq	(%rcx), %rdx
	addq	$1, %rdx
	.loc	32 356 27
	movq	16(%rcx), %rsi
	.loc	32 353 23
	movq	%rdx, -88(%rbp)
	movq	%rax, -80(%rbp)
	movq	%rsi, -72(%rbp)
	.loc	32 359 44
	movq	%rcx, %rdi
	callq	__ZN5alloc11collections5btree4node40NodeRef$LT$BorrowType$C$K$C$V$C$Type$GT$7as_leaf17hcc7bfb8ecc9f7eb8E
	movq	%rax, -168(%rbp)
Ltmp872:
	.loc	32 0 44 is_stmt 0
	movq	-168(%rbp), %rax
	.loc	32 359 44
	addq	$8, %rax
	movq	%rax, -16(%rbp)
	movq	%rax, -8(%rbp)
	movq	%rax, -176(%rbp)
Ltmp873:
	.loc	32 0 44
	movq	-176(%rbp), %rax
	.loc	32 359 31
	movzwl	(%rax), %edi
	callq	__ZN4core7convert3num66_$LT$impl$u20$core..convert..From$LT$u16$GT$$u20$for$u20$usize$GT$4from17hc9bbc50f1ced09ccE
	movq	%rax, -184(%rbp)
Ltmp874:
	.loc	32 352 16 is_stmt 1
	movq	-88(%rbp), %rax
	movq	%rax, -120(%rbp)
	movq	-80(%rbp), %rax
	movq	%rax, -112(%rbp)
	movq	-72(%rbp), %rax
	movq	%rax, -104(%rbp)
	movq	-184(%rbp), %rax
	movq	%rax, -96(%rbp)
	.loc	32 352 13 is_stmt 0
	movq	-120(%rbp), %rcx
	movq	-136(%rbp), %rdx
	movq	%rcx, 8(%rdx)
	movq	-112(%rbp), %rcx
	movq	%rcx, 16(%rdx)
	movq	-104(%rbp), %rcx
	movq	%rcx, 24(%rdx)
	movq	-96(%rbp), %rcx
	movq	%rcx, 32(%rdx)
	movq	$0, (%rdx)
Ltmp875:
LBB238_8:
	.loc	32 0 13
	movq	-152(%rbp), %rax
	.loc	32 365 6 is_stmt 1
	addq	$192, %rsp
	popq	%rbp
	retq
Ltmp876:
Lfunc_end238:
	.cfi_endproc

	.p2align	4, 0x90
__ZN5alloc11collections5btree4node40NodeRef$LT$BorrowType$C$K$C$V$C$Type$GT$7as_leaf17h428640e053d1fcd1E:
Lfunc_begin239:
	.loc	32 323 0
	.cfi_startproc
	pushq	%rbp
	.cfi_def_cfa_offset 16
	.cfi_offset %rbp, -16
	movq	%rsp, %rbp
	.cfi_def_cfa_register %rbp
	subq	$16, %rsp
	movq	%rdi, -8(%rbp)
Ltmp877:
	.loc	32 327 18 prologue_end
	addq	$8, %rdi
	callq	__ZN4core3ptr8non_null16NonNull$LT$T$GT$6as_ref17h3b46056c9a047875E
	movq	%rax, -16(%rbp)
	.loc	32 0 18 is_stmt 0
	movq	-16(%rbp), %rax
	.loc	32 328 6 is_stmt 1
	addq	$16, %rsp
	popq	%rbp
	retq
Ltmp878:
Lfunc_end239:
	.cfi_endproc

	.p2align	4, 0x90
__ZN5alloc11collections5btree4node40NodeRef$LT$BorrowType$C$K$C$V$C$Type$GT$7as_leaf17hcc7bfb8ecc9f7eb8E:
Lfunc_begin240:
	.loc	32 323 0
	.cfi_startproc
	pushq	%rbp
	.cfi_def_cfa_offset 16
	.cfi_offset %rbp, -16
	movq	%rsp, %rbp
	.cfi_def_cfa_register %rbp
	subq	$16, %rsp
	movq	%rdi, -8(%rbp)
Ltmp879:
	.loc	32 327 18 prologue_end
	addq	$8, %rdi
	callq	__ZN4core3ptr8non_null16NonNull$LT$T$GT$6as_ref17h3b46056c9a047875E
	movq	%rax, -16(%rbp)
	.loc	32 0 18 is_stmt 0
	movq	-16(%rbp), %rax
	.loc	32 328 6 is_stmt 1
	addq	$16, %rsp
	popq	%rbp
	retq
Ltmp880:
Lfunc_end240:
	.cfi_endproc

	.p2align	4, 0x90
__ZN5alloc11collections5btree4node40NodeRef$LT$BorrowType$C$K$C$V$C$Type$GT$8reborrow17h96747542e0be3b7cE:
Lfunc_begin241:
	.loc	32 315 0
	.cfi_startproc
	pushq	%rbp
	.cfi_def_cfa_offset 16
	.cfi_offset %rbp, -16
	movq	%rsp, %rbp
	.cfi_def_cfa_register %rbp
	subq	$16, %rsp
	movq	%rdi, %rax
	movq	%rsi, -8(%rbp)
Ltmp881:
	.loc	32 316 27 prologue_end
	movq	(%rsi), %rcx
	.loc	32 316 46 is_stmt 0
	movq	8(%rsi), %rdx
	.loc	32 316 63
	movq	16(%rsi), %rsi
	.loc	32 316 9
	movq	%rcx, (%rdi)
	movq	%rdx, 8(%rdi)
	movq	%rsi, 16(%rdi)
	.loc	32 317 6 is_stmt 1
	addq	$16, %rsp
	popq	%rbp
	retq
Ltmp882:
Lfunc_end241:
	.cfi_endproc

	.p2align	4, 0x90
__ZN5alloc11collections5btree4node40NodeRef$LT$BorrowType$C$K$C$V$C$Type$GT$9last_edge17h3afd689fd2c88a5aE:
Lfunc_begin242:
	.loc	32 371 0
	.cfi_startproc
	pushq	%rbp
	.cfi_def_cfa_offset 16
	.cfi_offset %rbp, -16
	movq	%rsp, %rbp
	.cfi_def_cfa_register %rbp
	subq	$64, %rsp
	movq	%rdi, %rax
Ltmp883:
	movq	%rdi, -40(%rbp)
Ltmp884:
	.loc	32 372 19 prologue_end
	movq	%rsi, %rdi
	movq	%rsi, -48(%rbp)
Ltmp885:
	.loc	32 0 19 is_stmt 0
	movq	%rax, -56(%rbp)
	.loc	32 372 19
	callq	__ZN5alloc11collections5btree4node40NodeRef$LT$BorrowType$C$K$C$V$C$Type$GT$3len17hd781f4a3deac8271E
	movq	%rax, -8(%rbp)
	movq	%rax, -64(%rbp)
Ltmp886:
	.loc	32 0 19
	movq	-48(%rbp), %rax
Ltmp887:
	.loc	32 373 35 is_stmt 1
	movq	(%rax), %rcx
	movq	%rcx, -32(%rbp)
	movq	8(%rax), %rcx
	movq	%rcx, -24(%rbp)
	movq	16(%rax), %rcx
	movq	%rcx, -16(%rbp)
	movq	-40(%rbp), %rdi
	.loc	32 373 18 is_stmt 0
	leaq	-32(%rbp), %rsi
	movq	-64(%rbp), %rdx
	callq	__ZN5alloc11collections5btree4node139Handle$LT$alloc..collections..btree..node..NodeRef$LT$BorrowType$C$K$C$V$C$NodeType$GT$$C$alloc..collections..btree..node..marker..Edge$GT$8new_edge17h60f83b6584710a72E
Ltmp888:
	.loc	32 0 18
	movq	-56(%rbp), %rax
	.loc	32 374 6 is_stmt 1
	addq	$64, %rsp
	popq	%rbp
	retq
Ltmp889:
Lfunc_end242:
	.cfi_endproc

	.p2align	4, 0x90
__ZN5alloc11collections5btree4node76NodeRef$LT$alloc..collections..btree..node..marker..Immut$C$K$C$V$C$Type$GT$11into_slices17hc290af1a2458284aE:
Lfunc_begin243:
	.loc	32 470 0
	.cfi_startproc
	pushq	%rbp
	.cfi_def_cfa_offset 16
	.cfi_offset %rbp, -16
	movq	%rsp, %rbp
	.cfi_def_cfa_register %rbp
	subq	$128, %rsp
	movq	%rdi, %rax
Ltmp890:
	.loc	32 472 26 prologue_end
	leaq	-72(%rbp), %rcx
Ltmp891:
	.loc	32 0 26 is_stmt 0
	movq	%rdi, -80(%rbp)
	.loc	32 472 26
	movq	%rcx, %rdi
	movq	%rsi, -88(%rbp)
Ltmp892:
	.loc	32 0 26
	movq	%rax, -96(%rbp)
	.loc	32 472 26
	callq	__ZN4core3ptr4read17hc430f9c3b21aa9aeE
Ltmp893:
	.loc	32 473 10 is_stmt 1
	movq	-72(%rbp), %rax
	movq	%rax, -48(%rbp)
	movq	-64(%rbp), %rax
	movq	%rax, -40(%rbp)
	movq	-56(%rbp), %rax
	movq	%rax, -32(%rbp)
	leaq	-48(%rbp), %rdi
	callq	__ZN5alloc11collections5btree4node76NodeRef$LT$alloc..collections..btree..node..marker..Immut$C$K$C$V$C$Type$GT$14into_key_slice17he96eb02c839bebb3E
	movq	%rax, -104(%rbp)
	movq	%rdx, -112(%rbp)
Ltmp894:
	.loc	32 0 10 is_stmt 0
	movq	-88(%rbp), %rax
	.loc	32 473 30
	movq	(%rax), %rcx
	movq	%rcx, -24(%rbp)
	movq	8(%rax), %rcx
	movq	%rcx, -16(%rbp)
	movq	16(%rax), %rcx
	movq	%rcx, -8(%rbp)
	leaq	-24(%rbp), %rdi
	callq	__ZN5alloc11collections5btree4node76NodeRef$LT$alloc..collections..btree..node..marker..Immut$C$K$C$V$C$Type$GT$14into_val_slice17h9fd9f31dada488f7E
	movq	%rax, -120(%rbp)
	movq	%rdx, -128(%rbp)
Ltmp895:
	.loc	32 0 30
	movq	-80(%rbp), %rax
	movq	-104(%rbp), %rcx
	.loc	32 473 9
	movq	%rcx, (%rax)
	movq	-112(%rbp), %rdx
	movq	%rdx, 8(%rax)
	movq	-120(%rbp), %rsi
	movq	%rsi, 16(%rax)
	movq	-128(%rbp), %rdi
	movq	%rdi, 24(%rax)
	movq	-96(%rbp), %rax
Ltmp896:
	.loc	32 474 6 is_stmt 1
	addq	$128, %rsp
	popq	%rbp
	retq
Ltmp897:
Lfunc_end243:
	.cfi_endproc

	.p2align	4, 0x90
__ZN5alloc11collections5btree4node76NodeRef$LT$alloc..collections..btree..node..marker..Immut$C$K$C$V$C$Type$GT$14into_key_slice17he96eb02c839bebb3E:
Lfunc_begin244:
	.loc	32 462 0
	.cfi_startproc
	pushq	%rbp
	.cfi_def_cfa_offset 16
	.cfi_offset %rbp, -16
	movq	%rsp, %rbp
	.cfi_def_cfa_register %rbp
	subq	$64, %rsp
	movq	%rdi, -24(%rbp)
Ltmp898:
	.loc	32 463 64 prologue_end
	callq	__ZN5alloc11collections5btree4node40NodeRef$LT$BorrowType$C$K$C$V$C$Type$GT$7as_leaf17h428640e053d1fcd1E
	movq	%rax, -32(%rbp)
Ltmp899:
	.loc	32 0 64 is_stmt 0
	movq	-32(%rbp), %rax
	.loc	32 463 63
	addq	$16, %rax
	movq	%rax, -16(%rbp)
	movq	$11, -8(%rbp)
	movq	%rax, -40(%rbp)
Ltmp900:
	.loc	32 0 63
	movq	-24(%rbp), %rdi
	.loc	32 463 86
	callq	__ZN5alloc11collections5btree4node40NodeRef$LT$BorrowType$C$K$C$V$C$Type$GT$3len17h6b8ef56dc944b204E
	movq	%rax, -48(%rbp)
Ltmp901:
	.loc	32 0 86
	movq	-40(%rbp), %rdi
	movq	-48(%rbp), %rsi
	.loc	32 463 18
	callq	__ZN4core5slice14from_raw_parts17h4195a0b662dd5f42E
	movq	%rax, -56(%rbp)
	movq	%rdx, -64(%rbp)
Ltmp902:
	.loc	32 0 18
	movq	-56(%rbp), %rax
	movq	-64(%rbp), %rdx
	.loc	32 464 6 is_stmt 1
	addq	$64, %rsp
	popq	%rbp
	retq
Ltmp903:
Lfunc_end244:
	.cfi_endproc

	.p2align	4, 0x90
__ZN5alloc11collections5btree4node76NodeRef$LT$alloc..collections..btree..node..marker..Immut$C$K$C$V$C$Type$GT$14into_val_slice17h9fd9f31dada488f7E:
Lfunc_begin245:
	.loc	32 466 0
	.cfi_startproc
	pushq	%rbp
	.cfi_def_cfa_offset 16
	.cfi_offset %rbp, -16
	movq	%rsp, %rbp
	.cfi_def_cfa_register %rbp
	subq	$64, %rsp
	movq	%rdi, -24(%rbp)
Ltmp904:
	.loc	32 467 64 prologue_end
	callq	__ZN5alloc11collections5btree4node40NodeRef$LT$BorrowType$C$K$C$V$C$Type$GT$7as_leaf17h428640e053d1fcd1E
	movq	%rax, -32(%rbp)
Ltmp905:
	.loc	32 0 64 is_stmt 0
	movq	-32(%rbp), %rax
	.loc	32 467 63
	addq	$280, %rax
	movq	%rax, -16(%rbp)
	movq	$11, -8(%rbp)
	movq	%rax, -40(%rbp)
Ltmp906:
	.loc	32 0 63
	movq	-24(%rbp), %rdi
	.loc	32 467 86
	callq	__ZN5alloc11collections5btree4node40NodeRef$LT$BorrowType$C$K$C$V$C$Type$GT$3len17h6b8ef56dc944b204E
	movq	%rax, -48(%rbp)
Ltmp907:
	.loc	32 0 86
	movq	-40(%rbp), %rdi
	movq	-48(%rbp), %rsi
	.loc	32 467 18
	callq	__ZN4core5slice14from_raw_parts17hfc3a6c5a0b758414E
	movq	%rax, -56(%rbp)
	movq	%rdx, -64(%rbp)
Ltmp908:
	.loc	32 0 18
	movq	-56(%rbp), %rax
	movq	-64(%rbp), %rdx
	.loc	32 468 6 is_stmt 1
	addq	$64, %rsp
	popq	%rbp
	retq
Ltmp909:
Lfunc_end245:
	.cfi_endproc

	.p2align	4, 0x90
__ZN5alloc11collections5btree4node85NodeRef$LT$BorrowType$C$K$C$V$C$alloc..collections..btree..node..marker..Internal$GT$11as_internal17h00aab34f3297c00dE:
Lfunc_begin246:
	.loc	32 281 0
	.cfi_startproc
	pushq	%rbp
	.cfi_def_cfa_offset 16
	.cfi_offset %rbp, -16
	movq	%rsp, %rbp
	.cfi_def_cfa_register %rbp
	subq	$16, %rsp
	movq	%rdi, -8(%rbp)
Ltmp910:
	.loc	32 282 21 prologue_end
	movq	8(%rdi), %rdi
	callq	__ZN4core3ptr8non_null16NonNull$LT$T$GT$6as_ptr17h8184dc69c8ad2345E
	movq	%rax, -16(%rbp)
	.loc	32 0 21 is_stmt 0
	movq	-16(%rbp), %rax
	.loc	32 283 6 is_stmt 1
	addq	$16, %rsp
	popq	%rbp
	retq
Ltmp911:
Lfunc_end246:
	.cfi_endproc

	.p2align	4, 0x90
__ZN5alloc11collections5btree4node91NodeRef$LT$BorrowType$C$K$C$V$C$alloc..collections..btree..node..marker..LeafOrInternal$GT$5force17h4ad43047256f4722E:
Lfunc_begin247:
	.loc	32 684 0
	.cfi_startproc
	pushq	%rbp
	.cfi_def_cfa_offset 16
	.cfi_offset %rbp, -16
	movq	%rsp, %rbp
	.cfi_def_cfa_register %rbp
	subq	$88, %rsp
	movq	%rdi, %rax
Ltmp912:
	.loc	32 690 12 prologue_end
	cmpq	$0, (%rsi)
	movq	%rsi, -72(%rbp)
Ltmp913:
	.loc	32 0 12 is_stmt 0
	movq	%rdi, -80(%rbp)
	movq	%rax, -88(%rbp)
	.loc	32 690 9
	je	LBB247_2
Ltmp914:
	.loc	32 0 9
	movq	-72(%rbp), %rax
	.loc	32 699 25 is_stmt 1
	movq	(%rax), %rcx
	.loc	32 700 23
	movq	8(%rax), %rdx
	.loc	32 701 23
	movq	16(%rax), %rsi
	.loc	32 698 35
	movq	%rcx, -32(%rbp)
	movq	%rdx, -24(%rbp)
	movq	%rsi, -16(%rbp)
	.loc	32 698 13 is_stmt 0
	movq	-32(%rbp), %rcx
	movq	-80(%rbp), %rdx
	movq	%rcx, 8(%rdx)
	movq	-24(%rbp), %rcx
	movq	%rcx, 16(%rdx)
	movq	-16(%rbp), %rcx
	movq	%rcx, 24(%rdx)
	movq	$1, (%rdx)
	.loc	32 690 9 is_stmt 1
	jmp	LBB247_3
Ltmp915:
LBB247_2:
	.loc	32 0 9 is_stmt 0
	movq	-72(%rbp), %rax
	.loc	32 692 25 is_stmt 1
	movq	(%rax), %rcx
	.loc	32 693 23
	movq	8(%rax), %rdx
	.loc	32 694 23
	movq	16(%rax), %rsi
	.loc	32 691 31
	movq	%rcx, -64(%rbp)
	movq	%rdx, -56(%rbp)
	movq	%rsi, -48(%rbp)
	.loc	32 691 13 is_stmt 0
	movq	-64(%rbp), %rcx
	movq	-80(%rbp), %rdx
	movq	%rcx, 8(%rdx)
	movq	-56(%rbp), %rcx
	movq	%rcx, 16(%rdx)
	movq	-48(%rbp), %rcx
	movq	%rcx, 24(%rdx)
	movq	$0, (%rdx)
Ltmp916:
LBB247_3:
	.loc	32 0 13
	movq	-88(%rbp), %rax
	.loc	32 705 6 is_stmt 1
	addq	$88, %rsp
	popq	%rbp
	retq
Ltmp917:
Lfunc_end247:
	.cfi_endproc

	.p2align	4, 0x90
__ZN5alloc11collections5btree8navigate142_$LT$impl$u20$alloc..collections..btree..node..NodeRef$LT$BorrowType$C$K$C$V$C$alloc..collections..btree..node..marker..LeafOrInternal$GT$$GT$15first_leaf_edge17h5b51714d6ede7dceE:
Lfunc_begin248:
	.file	33 "/rustc/6c8927b0cf80ceee19386026cf9d7fd4fd9d486f/src/liballoc/collections/btree/navigate.rs"
	.loc	33 213 0
	.cfi_startproc
	pushq	%rbp
	.cfi_def_cfa_offset 16
	.cfi_offset %rbp, -16
	movq	%rsp, %rbp
	.cfi_def_cfa_register %rbp
	subq	$256, %rsp
	movq	%rdi, %rax
Ltmp918:
	.loc	33 214 24 prologue_end
	movq	(%rsi), %rcx
	movq	%rcx, -232(%rbp)
	movq	8(%rsi), %rcx
	movq	%rcx, -224(%rbp)
	movq	16(%rsi), %rcx
	movq	%rcx, -216(%rbp)
	movq	%rdi, -240(%rbp)
	movq	%rax, -248(%rbp)
Ltmp919:
LBB248_1:
	.loc	33 216 19
	movq	-232(%rbp), %rax
	movq	%rax, -176(%rbp)
	movq	-224(%rbp), %rax
	movq	%rax, -168(%rbp)
	movq	-216(%rbp), %rax
	movq	%rax, -160(%rbp)
	leaq	-208(%rbp), %rdi
	leaq	-176(%rbp), %rsi
	callq	__ZN5alloc11collections5btree4node91NodeRef$LT$BorrowType$C$K$C$V$C$alloc..collections..btree..node..marker..LeafOrInternal$GT$5force17h4ad43047256f4722E
	.loc	33 217 17
	movq	-208(%rbp), %rax
	testq	%rax, %rax
	je	LBB248_5
	jmp	LBB248_9
LBB248_9:
	.loc	33 218 26
	movq	-200(%rbp), %rax
	movq	%rax, -104(%rbp)
	movq	-192(%rbp), %rax
	movq	%rax, -96(%rbp)
	movq	-184(%rbp), %rax
	movq	%rax, -88(%rbp)
Ltmp920:
	.loc	33 218 46 is_stmt 0
	movq	-104(%rbp), %rax
	movq	%rax, -24(%rbp)
	movq	-96(%rbp), %rax
	movq	%rax, -16(%rbp)
	movq	-88(%rbp), %rax
	movq	%rax, -8(%rbp)
	leaq	-56(%rbp), %rdi
	leaq	-24(%rbp), %rsi
