	.section	__TEXT,__text,regular,pure_instructions
	.macosx_version_min 10, 7
	.p2align	4, 0x90
__ZN101_$LT$core..ops..range..RangeTo$LT$usize$GT$$u20$as$u20$core..slice..SliceIndex$LT$$u5b$T$u5d$$GT$$GT$9index_mut17h1e6193cfec63a5aeE:
	.cfi_startproc
	pushq	%rbp
	.cfi_def_cfa_offset 16
	.cfi_offset %rbp, -16
	movq	%rsp, %rbp
	.cfi_def_cfa_register %rbp
	subq	$64, %rsp
	movq	$0, -16(%rbp)
	movq	%rdi, -8(%rbp)
	movq	-16(%rbp), %rdi
	movq	-8(%rbp), %rax
	movq	%rsi, -24(%rbp)
	movq	%rax, %rsi
	movq	-24(%rbp), %rax
	movq	%rdx, -32(%rbp)
	movq	%rax, %rdx
	movq	-32(%rbp), %r8
	movq	%rcx, -40(%rbp)
	movq	%r8, %rcx
	movq	-40(%rbp), %r8
	callq	__ZN99_$LT$core..ops..range..Range$LT$usize$GT$$u20$as$u20$core..slice..SliceIndex$LT$$u5b$T$u5d$$GT$$GT$9index_mut17h96aa2e6f73f91074E
	movq	%rax, -48(%rbp)
	movq	%rdx, -56(%rbp)
	movq	-48(%rbp), %rax
	movq	-56(%rbp), %rdx
	addq	$64, %rsp
	popq	%rbp
	retq
	.cfi_endproc

	.p2align	4, 0x90
__ZN105_$LT$std..ffi..os_str..OsString$u20$as$u20$core..ops..index..Index$LT$core..ops..range..RangeFull$GT$$GT$5index17hb1042b218905f71fE:
	.cfi_startproc
	pushq	%rbp
	.cfi_def_cfa_offset 16
	.cfi_offset %rbp, -16
	movq	%rsp, %rbp
	.cfi_def_cfa_register %rbp
	subq	$48, %rsp
	movq	%rsi, -8(%rbp)
	callq	__ZN3std10sys_common12os_str_bytes3Buf8as_slice17h15d7bc2ffdfd1968E
	movq	%rax, -16(%rbp)
	movq	%rdx, -24(%rbp)
	movq	-16(%rbp), %rdi
	movq	-24(%rbp), %rsi
	callq	__ZN3std3ffi6os_str5OsStr10from_inner17h4fca9894dba63374E
	movq	%rax, -32(%rbp)
	movq	%rdx, -40(%rbp)
	movq	-32(%rbp), %rax
	movq	-40(%rbp), %rdx
	addq	$48, %rsp
	popq	%rbp
	retq
	.cfi_endproc

	.p2align	4, 0x90
__ZN112_$LT$alloc..collections..btree..map..IntoIter$LT$K$C$V$GT$$u20$as$u20$core..iter..traits..iterator..Iterator$GT$4next17hee3058cb33db5e42E:
	.cfi_startproc
	pushq	%rbp
	.cfi_def_cfa_offset 16
	.cfi_offset %rbp, -16
	movq	%rsp, %rbp
	.cfi_def_cfa_register %rbp
	subq	$96, %rsp
	movq	%rdi, %rax
	cmpq	$0, 64(%rsi)
	movq	%rsi, -56(%rbp)
	movq	%rdi, -64(%rbp)
	movq	%rax, -72(%rbp)
	je	LBB2_2
	movq	-56(%rbp), %rax
	movq	64(%rax), %rcx
	subq	$1, %rcx
	movq	%rcx, 64(%rax)
	movq	%rax, %rdi
	callq	__ZN4core6option15Option$LT$T$GT$6as_mut17hf5b46b504d7e89c5E
	movq	%rax, -80(%rbp)
	jmp	LBB2_3
LBB2_2:
	movq	-64(%rbp), %rax
	movq	$0, (%rax)
	jmp	LBB2_6
LBB2_3:
	leaq	l___unnamed_1(%rip), %rax
	movq	-80(%rbp), %rdi
	movq	%rax, %rsi
	callq	__ZN4core6option15Option$LT$T$GT$6unwrap17h8c4642a572aecef8E
	movq	%rax, -88(%rbp)
	leaq	-48(%rbp), %rdi
	movq	-88(%rbp), %rsi
	callq	__ZN5alloc11collections5btree8navigate263_$LT$impl$u20$alloc..collections..btree..node..Handle$LT$alloc..collections..btree..node..NodeRef$LT$alloc..collections..btree..node..marker..Owned$C$K$C$V$C$alloc..collections..btree..node..marker..Leaf$GT$$C$alloc..collections..btree..node..marker..Edge$GT$$GT$14next_unchecked17h97df82f1f62e9601E
	movq	-64(%rbp), %rax
	leaq	-48(%rbp), %rcx
	movq	%rax, %rdi
	movq	%rcx, %rsi
	movl	$48, %edx
	callq	_memcpy
LBB2_6:
	movq	-72(%rbp), %rax
	addq	$96, %rsp
	popq	%rbp
	retq
	.cfi_endproc

	.p2align	4, 0x90
__ZN115_$LT$alloc..collections..btree..map..BTreeMap$LT$K$C$V$GT$$u20$as$u20$core..iter..traits..collect..IntoIterator$GT$9into_iter17hdc61f6f3521279afE:
	.cfi_startproc
	pushq	%rbp
	.cfi_def_cfa_offset 16
	.cfi_offset %rbp, -16
	movq	%rsp, %rbp
	.cfi_def_cfa_register %rbp
	subq	$464, %rsp
	movq	%rdi, %rax
	movq	(%rsi), %rcx
	movq	%rcx, -408(%rbp)
	movq	8(%rsi), %rcx
	movq	%rcx, -400(%rbp)
	movq	16(%rsi), %rcx
	movq	%rcx, -392(%rbp)
	movq	-408(%rbp), %rcx
	movq	%rcx, -24(%rbp)
	movq	-400(%rbp), %rcx
	movq	%rcx, -16(%rbp)
	movq	-392(%rbp), %rcx
	movq	%rcx, -8(%rbp)
	movq	-24(%rbp), %rcx
	movq	%rcx, -432(%rbp)
	movq	-16(%rbp), %rcx
	movq	%rcx, -424(%rbp)
	movq	-8(%rbp), %rcx
	movq	%rcx, -416(%rbp)
	movq	%rdi, -440(%rbp)
	movq	%rax, -448(%rbp)
	leaq	-432(%rbp), %rax
	movq	%rax, -456(%rbp)
	movq	-456(%rbp), %rdi
	callq	__ZN4core6option15Option$LT$T$GT$4take17h23a55f3de6b9e914E
	movq	%rdx, -376(%rbp)
	movq	%rax, -384(%rbp)
	xorl	%eax, %eax
	movl	%eax, %ecx
	cmpq	$0, -384(%rbp)
	movl	$1, %edx
	cmovbeq	%rcx, %rdx
	cmpq	$1, %rdx
	je	LBB3_5
	movq	$0, -80(%rbp)
	movq	$0, -48(%rbp)
	movq	-88(%rbp), %rax
	movq	-440(%rbp), %rcx
	movq	%rax, (%rcx)
	movq	-80(%rbp), %rax
	movq	%rax, 8(%rcx)
	movq	-72(%rbp), %rax
	movq	%rax, 16(%rcx)
	movq	-64(%rbp), %rax
	movq	%rax, 24(%rcx)
	movq	-56(%rbp), %rax
	movq	%rax, 32(%rcx)
	movq	-48(%rbp), %rax
	movq	%rax, 40(%rcx)
	movq	-40(%rbp), %rax
	movq	%rax, 48(%rcx)
	movq	-32(%rbp), %rax
	movq	%rax, 56(%rcx)
	movq	$0, 64(%rcx)
	jmp	LBB3_9
LBB3_5:
	movq	-384(%rbp), %rsi
	movq	-376(%rbp), %rdx
	leaq	-240(%rbp), %rdi
	callq	__ZN5alloc11collections5btree4node17Root$LT$K$C$V$GT$8into_ref17hf2bcd2a85deb53bfE
	leaq	-304(%rbp), %rdi
	leaq	-240(%rbp), %rsi
	callq	__ZN5alloc11collections5btree3map17full_range_search17ha6820dad0c07f009E
	movq	-304(%rbp), %rax
	movq	%rax, -368(%rbp)
	movq	-296(%rbp), %rax
	movq	%rax, -360(%rbp)
	movq	-288(%rbp), %rax
	movq	%rax, -352(%rbp)
	movq	-280(%rbp), %rax
	movq	%rax, -344(%rbp)
	movq	-272(%rbp), %rax
	movq	%rax, -336(%rbp)
	movq	-264(%rbp), %rax
	movq	%rax, -328(%rbp)
	movq	-256(%rbp), %rax
	movq	%rax, -320(%rbp)
	movq	-248(%rbp), %rax
	movq	%rax, -312(%rbp)
	movq	-368(%rbp), %rax
	movq	%rax, -184(%rbp)
	movq	-360(%rbp), %rax
	movq	%rax, -176(%rbp)
	movq	-352(%rbp), %rax
	movq	%rax, -168(%rbp)
	movq	-344(%rbp), %rax
	movq	%rax, -160(%rbp)
	movq	-184(%rbp), %rax
	movq	%rax, -216(%rbp)
	movq	-176(%rbp), %rax
	movq	%rax, -208(%rbp)
	movq	-168(%rbp), %rax
	movq	%rax, -200(%rbp)
	movq	-160(%rbp), %rax
	movq	%rax, -192(%rbp)
	movq	-336(%rbp), %rax
	movq	%rax, -120(%rbp)
	movq	-328(%rbp), %rax
	movq	%rax, -112(%rbp)
	movq	-320(%rbp), %rax
	movq	%rax, -104(%rbp)
	movq	-312(%rbp), %rax
	movq	%rax, -96(%rbp)
	movq	-120(%rbp), %rax
	movq	%rax, -152(%rbp)
	movq	-112(%rbp), %rax
	movq	%rax, -144(%rbp)
	movq	-104(%rbp), %rax
	movq	%rax, -136(%rbp)
	movq	-96(%rbp), %rax
	movq	%rax, -128(%rbp)
	leaq	-432(%rbp), %rax
	movq	%rax, -464(%rbp)
	movq	-464(%rbp), %rax
	movq	16(%rax), %rcx
	movq	-216(%rbp), %rdx
	movq	-440(%rbp), %rsi
	movq	%rdx, (%rsi)
	movq	-208(%rbp), %rdx
	movq	%rdx, 8(%rsi)
	movq	-200(%rbp), %rdx
	movq	%rdx, 16(%rsi)
	movq	-192(%rbp), %rdx
	movq	%rdx, 24(%rsi)
	movq	-152(%rbp), %rdx
	movq	%rdx, 32(%rsi)
	movq	-144(%rbp), %rdx
	movq	%rdx, 40(%rsi)
	movq	-136(%rbp), %rdx
	movq	%rdx, 48(%rsi)
	movq	-128(%rbp), %rdx
	movq	%rdx, 56(%rsi)
	movq	%rcx, 64(%rsi)
LBB3_9:
	movq	-448(%rbp), %rax
	addq	$464, %rsp
	popq	%rbp
	retq
	.cfi_endproc

	.p2align	4, 0x90
__ZN119_$LT$core..ptr..non_null..NonNull$LT$T$GT$$u20$as$u20$core..convert..From$LT$core..ptr..unique..Unique$LT$T$GT$$GT$$GT$4from17h7c3fb811b610cde4E:
	.cfi_startproc
	pushq	%rbp
	.cfi_def_cfa_offset 16
	.cfi_offset %rbp, -16
	movq	%rsp, %rbp
	.cfi_def_cfa_register %rbp
	subq	$16, %rsp
	callq	__ZN4core3ptr6unique15Unique$LT$T$GT$6as_ptr17h3581024014666349E
	movq	%rax, -8(%rbp)
	movq	-8(%rbp), %rdi
	callq	__ZN4core3ptr8non_null16NonNull$LT$T$GT$13new_unchecked17he268e45c17429bbfE
	movq	%rax, -16(%rbp)
	movq	-16(%rbp), %rax
	addq	$16, %rsp
	popq	%rbp
	retq
	.cfi_endproc

	.p2align	4, 0x90
__ZN119_$LT$core..ptr..non_null..NonNull$LT$T$GT$$u20$as$u20$core..convert..From$LT$core..ptr..unique..Unique$LT$T$GT$$GT$$GT$4from17hc1736343f30e7f23E:
	.cfi_startproc
	pushq	%rbp
	.cfi_def_cfa_offset 16
	.cfi_offset %rbp, -16
	movq	%rsp, %rbp
	.cfi_def_cfa_register %rbp
	subq	$16, %rsp
	callq	__ZN4core3ptr6unique15Unique$LT$T$GT$6as_ptr17hc94ce3d23fa18e34E
	movq	%rax, -8(%rbp)
	movq	-8(%rbp), %rdi
	callq	__ZN4core3ptr8non_null16NonNull$LT$T$GT$13new_unchecked17hc5a33e8af947d4e8E
	movq	%rax, -16(%rbp)
	movq	-16(%rbp), %rax
	addq	$16, %rsp
	popq	%rbp
	retq
	.cfi_endproc

	.p2align	4, 0x90
__ZN166_$LT$$LT$alloc..collections..btree..map..IntoIter$LT$K$C$V$GT$$u20$as$u20$core..ops..drop..Drop$GT$..drop..DropGuard$LT$K$C$V$GT$$u20$as$u20$core..ops..drop..Drop$GT$4drop17h868ac40fd149e48bE:
	.cfi_startproc
	pushq	%rbp
	.cfi_def_cfa_offset 16
	.cfi_offset %rbp, -16
	movq	%rsp, %rbp
	.cfi_def_cfa_register %rbp
	subq	$368, %rsp
	movq	%rdi, -368(%rbp)
LBB6_1:
	movq	-368(%rbp), %rax
	movq	(%rax), %rsi
	leaq	-360(%rbp), %rdi
	callq	__ZN112_$LT$alloc..collections..btree..map..IntoIter$LT$K$C$V$GT$$u20$as$u20$core..iter..traits..iterator..Iterator$GT$4next17hee3058cb33db5e42E
	xorl	%eax, %eax
	movl	%eax, %ecx
	cmpq	$0, -360(%rbp)
	movl	$1, %edx
	cmovbeq	%rcx, %rdx
	cmpq	$1, %rdx
	je	LBB6_4
	leaq	-360(%rbp), %rdi
	callq	__ZN4core3ptr13drop_in_place17h04d2c8926bd5c528E
	jmp	LBB6_5
LBB6_4:
	leaq	-360(%rbp), %rdi
	callq	__ZN4core3ptr13drop_in_place17h04d2c8926bd5c528E
	jmp	LBB6_6
LBB6_5:
	movq	-368(%rbp), %rax
	movq	(%rax), %rcx
	leaq	-232(%rbp), %rdi
	movq	%rcx, %rsi
	callq	__ZN4core3ptr4read17hb49c216d717a1241E
	jmp	LBB6_7
LBB6_6:
	jmp	LBB6_1
LBB6_7:
	movq	-232(%rbp), %rax
	movq	%rax, -32(%rbp)
	movq	-224(%rbp), %rax
	movq	%rax, -24(%rbp)
	movq	-216(%rbp), %rax
	movq	%rax, -16(%rbp)
	movq	-208(%rbp), %rax
	movq	%rax, -8(%rbp)
	leaq	-264(%rbp), %rdi
	leaq	-32(%rbp), %rsi
	callq	__ZN4core6option15Option$LT$T$GT$14unwrap_or_else17h7821de4fc15fe781E
	leaq	-288(%rbp), %rdi
	leaq	-264(%rbp), %rsi
	callq	__ZN5alloc11collections5btree4node25Handle$LT$Node$C$Type$GT$9into_node17he50e8ae86deaabe5E
	leaq	-312(%rbp), %rdi
	leaq	-288(%rbp), %rsi
	callq	__ZN5alloc11collections5btree4node40NodeRef$LT$BorrowType$C$K$C$V$C$Type$GT$11forget_type17h529c11ac5f5aac71E
	jmp	LBB6_11
LBB6_11:
	movq	-312(%rbp), %rax
	movq	%rax, -168(%rbp)
	movq	-304(%rbp), %rax
	movq	%rax, -160(%rbp)
	movq	-296(%rbp), %rax
	movq	%rax, -152(%rbp)
	leaq	-200(%rbp), %rdi
	leaq	-168(%rbp), %rsi
	callq	__ZN5alloc11collections5btree4node127NodeRef$LT$alloc..collections..btree..node..marker..Owned$C$K$C$V$C$alloc..collections..btree..node..marker..LeafOrInternal$GT$21deallocate_and_ascend17hebd5a88326869713E
	xorl	%eax, %eax
	movl	%eax, %ecx
	cmpq	$0, -192(%rbp)
	movl	$1, %edx
	cmovbeq	%rcx, %rdx
	cmpq	$1, %rdx
	je	LBB6_14
	addq	$368, %rsp
	popq	%rbp
	retq
LBB6_14:
	movq	-200(%rbp), %rax
	movq	%rax, -144(%rbp)
	movq	-192(%rbp), %rax
	movq	%rax, -136(%rbp)
	movq	-184(%rbp), %rax
	movq	%rax, -128(%rbp)
	movq	-176(%rbp), %rax
	movq	%rax, -120(%rbp)
	movq	-144(%rbp), %rax
	movq	%rax, -64(%rbp)
	movq	-136(%rbp), %rax
	movq	%rax, -56(%rbp)
	movq	-128(%rbp), %rax
	movq	%rax, -48(%rbp)
	movq	-120(%rbp), %rax
	movq	%rax, -40(%rbp)
	leaq	-88(%rbp), %rdi
	leaq	-64(%rbp), %rsi
	callq	__ZN5alloc11collections5btree4node25Handle$LT$Node$C$Type$GT$9into_node17h26013685f5f02695E
	leaq	-112(%rbp), %rdi
	leaq	-88(%rbp), %rsi
	callq	__ZN5alloc11collections5btree4node40NodeRef$LT$BorrowType$C$K$C$V$C$Type$GT$11forget_type17hc25813faddb1671cE
	movq	-112(%rbp), %rax
	movq	%rax, -312(%rbp)
	movq	-104(%rbp), %rax
	movq	%rax, -304(%rbp)
	movq	-96(%rbp), %rax
	movq	%rax, -296(%rbp)
	jmp	LBB6_11
	.cfi_endproc

	.p2align	4, 0x90
__ZN3std10sys_common12os_str_bytes3Buf8as_slice17h15d7bc2ffdfd1968E:
	.cfi_startproc
	pushq	%rbp
	.cfi_def_cfa_offset 16
	.cfi_offset %rbp, -16
	movq	%rsp, %rbp
	.cfi_def_cfa_register %rbp
	subq	$48, %rsp
	callq	__ZN68_$LT$alloc..vec..Vec$LT$T$GT$$u20$as$u20$core..ops..deref..Deref$GT$5deref17h16d32864b0b2fffbE
	movq	%rax, -24(%rbp)
	movq	%rdx, -32(%rbp)
	movq	-24(%rbp), %rax
	movq	%rax, -16(%rbp)
	movq	-32(%rbp), %rcx
	movq	%rcx, -8(%rbp)
	movq	-16(%rbp), %rax
	movq	-8(%rbp), %rdx
	movq	%rax, -40(%rbp)
	movq	%rdx, -48(%rbp)
	movq	-40(%rbp), %rax
	movq	-48(%rbp), %rdx
	addq	$48, %rsp
	popq	%rbp
	retq
	.cfi_endproc

	.p2align	4, 0x90
__ZN3std10sys_common12os_str_bytes5Slice13from_u8_slice17h37a9bac522e5ff9aE:
	.cfi_startproc
	pushq	%rbp
	.cfi_def_cfa_offset 16
	.cfi_offset %rbp, -16
	movq	%rsp, %rbp
	.cfi_def_cfa_register %rbp
	subq	$32, %rsp
	movq	%rdi, -16(%rbp)
	movq	%rsi, -8(%rbp)
	movq	-16(%rbp), %rax
	movq	-8(%rbp), %rdx
	movq	%rax, -24(%rbp)
	movq	%rdx, -32(%rbp)
	movq	-24(%rbp), %rax
	movq	-32(%rbp), %rdx
	addq	$32, %rsp
	popq	%rbp
	retq
	.cfi_endproc

	.p2align	4, 0x90
__ZN3std10sys_common12os_str_bytes5Slice8from_str17hcb204e4863898e90E:
	.cfi_startproc
	pushq	%rbp
	.cfi_def_cfa_offset 16
	.cfi_offset %rbp, -16
	movq	%rsp, %rbp
	.cfi_def_cfa_register %rbp
	subq	$48, %rsp
	movq	%rdi, -16(%rbp)
	movq	%rsi, -8(%rbp)
	movq	-16(%rbp), %rdi
	movq	-8(%rbp), %rsi
	movq	%rdi, -24(%rbp)
	movq	%rsi, -32(%rbp)
	movq	-24(%rbp), %rdi
	movq	-32(%rbp), %rsi
	callq	__ZN3std10sys_common12os_str_bytes5Slice13from_u8_slice17h37a9bac522e5ff9aE
	movq	%rax, -40(%rbp)
	movq	%rdx, -48(%rbp)
	movq	-40(%rbp), %rax
	movq	-48(%rbp), %rdx
	addq	$48, %rsp
	popq	%rbp
	retq
	.cfi_endproc

	.private_extern	__ZN3std2rt10lang_start17h2c5803c34d3c685cE
	.globl	__ZN3std2rt10lang_start17h2c5803c34d3c685cE
	.p2align	4, 0x90
__ZN3std2rt10lang_start17h2c5803c34d3c685cE:
	.cfi_startproc
	pushq	%rbp
	.cfi_def_cfa_offset 16
	.cfi_offset %rbp, -16
	movq	%rsp, %rbp
	.cfi_def_cfa_register %rbp
	subq	$32, %rsp
	leaq	l___unnamed_2(%rip), %rax
	movq	%rdi, -8(%rbp)
	leaq	-8(%rbp), %rcx
	movq	%rcx, %rdi
	movq	%rsi, -16(%rbp)
	movq	%rax, %rsi
	movq	-16(%rbp), %rax
	movq	%rdx, -24(%rbp)
	movq	%rax, %rdx
	movq	-24(%rbp), %rcx
	callq	__ZN3std2rt19lang_start_internal17hbbd10965adc92ae7E
	movq	%rax, -32(%rbp)
	movq	-32(%rbp), %rax
	addq	$32, %rsp
	popq	%rbp
	retq
	.cfi_endproc

	.p2align	4, 0x90
__ZN3std2rt10lang_start28_$u7b$$u7b$closure$u7d$$u7d$17h31c0bcd24248f78aE:
	.cfi_startproc
	pushq	%rbp
	.cfi_def_cfa_offset 16
	.cfi_offset %rbp, -16
	movq	%rsp, %rbp
	.cfi_def_cfa_register %rbp
	subq	$16, %rsp
	callq	*(%rdi)
	callq	__ZN54_$LT$$LP$$RP$$u20$as$u20$std..process..Termination$GT$6report17h0eabcf51bda8c505E
	movl	%eax, -4(%rbp)
	movl	-4(%rbp), %eax
	addq	$16, %rsp
	popq	%rbp
	retq
	.cfi_endproc

	.p2align	4, 0x90
__ZN3std3env6var_os17h4b3b6f8d03c0ed24E:
Lfunc_begin0:
	.cfi_startproc
	.cfi_personality 155, _rust_eh_personality
	.cfi_lsda 16, Lexception0
	pushq	%rbp
	.cfi_def_cfa_offset 16
	.cfi_offset %rbp, -16
	movq	%rsp, %rbp
	.cfi_def_cfa_register %rbp
	subq	$64, %rsp
	movq	%rdi, %rax
	movq	%rsi, -32(%rbp)
	movq	%rdx, -24(%rbp)
Ltmp0:
	leaq	-32(%rbp), %rcx
	movq	%rdi, -40(%rbp)
	movq	%rcx, %rdi
	movq	%rax, -48(%rbp)
	callq	__ZN55_$LT$$RF$T$u20$as$u20$core..convert..AsRef$LT$U$GT$$GT$6as_ref17hba39a6f20b39b47dE
Ltmp1:
	movq	%rdx, -56(%rbp)
	movq	%rax, -64(%rbp)
	jmp	LBB12_2
LBB12_1:
	movq	-16(%rbp), %rdi
	callq	__Unwind_Resume
	ud2
LBB12_2:
Ltmp2:
	movq	-40(%rbp), %rdi
	movq	-64(%rbp), %rsi
	movq	-56(%rbp), %rdx
	callq	__ZN3std3env7_var_os17hc628b18a701aa4a3E
Ltmp3:
	jmp	LBB12_4
LBB12_3:
	jmp	LBB12_1
LBB12_4:
	jmp	LBB12_5
LBB12_5:
	movq	-48(%rbp), %rax
	addq	$64, %rsp
	popq	%rbp
	retq
LBB12_6:
Ltmp4:
	movq	%rax, -16(%rbp)
	movl	%edx, -8(%rbp)
	jmp	LBB12_3
Lfunc_end0:
	.cfi_endproc
	.section	__TEXT,__gcc_except_tab
	.p2align	2
GCC_except_table12:
Lexception0:
	.byte	255
	.byte	255
	.byte	1
	.uleb128 Lcst_end0-Lcst_begin0
Lcst_begin0:
	.uleb128 Ltmp0-Lfunc_begin0
	.uleb128 Ltmp1-Ltmp0
	.uleb128 Ltmp4-Lfunc_begin0
	.byte	0
	.uleb128 Ltmp1-Lfunc_begin0
	.uleb128 Ltmp2-Ltmp1
	.byte	0
	.byte	0
	.uleb128 Ltmp2-Lfunc_begin0
	.uleb128 Ltmp3-Ltmp2
	.uleb128 Ltmp4-Lfunc_begin0
	.byte	0
Lcst_end0:
	.p2align	2

	.section	__TEXT,__text,regular,pure_instructions
	.p2align	4, 0x90
__ZN3std3ffi6os_str5OsStr10from_inner17h4fca9894dba63374E:
	.cfi_startproc
	pushq	%rbp
	.cfi_def_cfa_offset 16
	.cfi_offset %rbp, -16
	movq	%rsp, %rbp
	.cfi_def_cfa_register %rbp
	movq	%rdi, %rax
	movq	%rsi, %rdx
	popq	%rbp
	retq
	.cfi_endproc

	.p2align	4, 0x90
__ZN3std3ffi6os_str85_$LT$impl$u20$core..convert..AsRef$LT$std..ffi..os_str..OsStr$GT$$u20$for$u20$str$GT$6as_ref17hbc1c578c142fa206E:
	.cfi_startproc
	pushq	%rbp
	.cfi_def_cfa_offset 16
	.cfi_offset %rbp, -16
	movq	%rsp, %rbp
	.cfi_def_cfa_register %rbp
	subq	$32, %rsp
	callq	__ZN3std10sys_common12os_str_bytes5Slice8from_str17hcb204e4863898e90E
	movq	%rax, -8(%rbp)
	movq	%rdx, -16(%rbp)
	movq	-8(%rbp), %rdi
	movq	-16(%rbp), %rsi
	callq	__ZN3std3ffi6os_str5OsStr10from_inner17h4fca9894dba63374E
	movq	%rax, -24(%rbp)
	movq	%rdx, -32(%rbp)
	movq	-24(%rbp), %rax
	movq	-32(%rbp), %rdx
	addq	$32, %rsp
	popq	%rbp
	retq
	.cfi_endproc

	.p2align	4, 0x90
__ZN3std3sys4unix7process14process_common8ExitCode6as_i3217hee0312909f4d1c18E:
	.cfi_startproc
	pushq	%rbp
	.cfi_def_cfa_offset 16
	.cfi_offset %rbp, -16
	movq	%rsp, %rbp
	.cfi_def_cfa_register %rbp
	movzbl	(%rdi), %eax
	popq	%rbp
	retq
	.cfi_endproc

	.p2align	4, 0x90
__ZN3std7process7Command3arg17h1b6dec5c851108a4E:
Lfunc_begin1:
	.cfi_startproc
	.cfi_personality 155, _rust_eh_personality
	.cfi_lsda 16, Lexception1
	pushq	%rbp
	.cfi_def_cfa_offset 16
	.cfi_offset %rbp, -16
	movq	%rsp, %rbp
	.cfi_def_cfa_register %rbp
	subq	$64, %rsp
	movq	%rsi, -32(%rbp)
	movq	%rdx, -24(%rbp)
	movq	%rdi, %rax
Ltmp5:
	leaq	-32(%rbp), %rcx
	movq	%rdi, -40(%rbp)
	movq	%rcx, %rdi
	movq	%rax, -48(%rbp)
	callq	__ZN55_$LT$$RF$T$u20$as$u20$core..convert..AsRef$LT$U$GT$$GT$6as_ref17hba39a6f20b39b47dE
Ltmp6:
	movq	%rdx, -56(%rbp)
	movq	%rax, -64(%rbp)
	jmp	LBB16_2
LBB16_1:
	movq	-16(%rbp), %rdi
	callq	__Unwind_Resume
	ud2
LBB16_2:
Ltmp7:
	movq	-48(%rbp), %rdi
	movq	-64(%rbp), %rsi
	movq	-56(%rbp), %rdx
	callq	__ZN3std3sys4unix7process14process_common7Command3arg17he3b985033bebdb87E
Ltmp8:
	jmp	LBB16_4
LBB16_3:
	jmp	LBB16_1
LBB16_4:
	jmp	LBB16_5
LBB16_5:
	movq	-40(%rbp), %rax
	addq	$64, %rsp
	popq	%rbp
	retq
LBB16_6:
Ltmp9:
	movq	%rax, -16(%rbp)
	movl	%edx, -8(%rbp)
	jmp	LBB16_3
Lfunc_end1:
	.cfi_endproc
	.section	__TEXT,__gcc_except_tab
	.p2align	2
GCC_except_table16:
Lexception1:
	.byte	255
	.byte	255
	.byte	1
	.uleb128 Lcst_end1-Lcst_begin1
Lcst_begin1:
	.uleb128 Ltmp5-Lfunc_begin1
	.uleb128 Ltmp6-Ltmp5
	.uleb128 Ltmp9-Lfunc_begin1
	.byte	0
	.uleb128 Ltmp6-Lfunc_begin1
	.uleb128 Ltmp7-Ltmp6
	.byte	0
	.byte	0
	.uleb128 Ltmp7-Lfunc_begin1
	.uleb128 Ltmp8-Ltmp7
	.uleb128 Ltmp9-Lfunc_begin1
	.byte	0
Lcst_end1:
	.p2align	2

	.section	__TEXT,__text,regular,pure_instructions
	.p2align	4, 0x90
__ZN3std7process7Command3new17h5b7b69fd15cfe34eE:
Lfunc_begin2:
	.cfi_startproc
	.cfi_personality 155, _rust_eh_personality
	.cfi_lsda 16, Lexception2
	pushq	%rbp
	.cfi_def_cfa_offset 16
	.cfi_offset %rbp, -16
	movq	%rsp, %rbp
	.cfi_def_cfa_register %rbp
	subq	$240, %rsp
	movq	%rdi, %rax
Ltmp10:
	movq	%rdi, -208(%rbp)
	movq	%rsi, %rdi
	movq	%rsi, -216(%rbp)
	movq	%rax, -224(%rbp)
	callq	__ZN98_$LT$std..ffi..os_str..OsString$u20$as$u20$core..convert..AsRef$LT$std..ffi..os_str..OsStr$GT$$GT$6as_ref17h929e6dd57e1414daE
Ltmp11:
	movq	%rdx, -232(%rbp)
	movq	%rax, -240(%rbp)
	jmp	LBB17_2
LBB17_1:
	movq	-16(%rbp), %rdi
	callq	__Unwind_Resume
	ud2
LBB17_2:
Ltmp12:
	leaq	-200(%rbp), %rdi
	movq	-240(%rbp), %rsi
	movq	-232(%rbp), %rdx
	callq	__ZN3std3sys4unix7process14process_common7Command3new17h6b51c4bb5fada643E
Ltmp13:
	jmp	LBB17_4
LBB17_3:
	movq	-216(%rbp), %rdi
	callq	__ZN4core3ptr13drop_in_place17hbbcaa03185865565E
	jmp	LBB17_1
LBB17_4:
	movq	-208(%rbp), %rax
	leaq	-200(%rbp), %rcx
	movq	%rax, %rdi
	movq	%rcx, %rsi
	movl	$184, %edx
	callq	_memcpy
	movq	-216(%rbp), %rdi
	callq	__ZN4core3ptr13drop_in_place17hbbcaa03185865565E
	movq	-224(%rbp), %rax
	addq	$240, %rsp
	popq	%rbp
	retq
LBB17_6:
Ltmp14:
	movq	%rax, -16(%rbp)
	movl	%edx, -8(%rbp)
	jmp	LBB17_3
Lfunc_end2:
	.cfi_endproc
	.section	__TEXT,__gcc_except_tab
	.p2align	2
GCC_except_table17:
Lexception2:
	.byte	255
	.byte	255
	.byte	1
	.uleb128 Lcst_end2-Lcst_begin2
Lcst_begin2:
	.uleb128 Ltmp10-Lfunc_begin2
	.uleb128 Ltmp11-Ltmp10
	.uleb128 Ltmp14-Lfunc_begin2
	.byte	0
	.uleb128 Ltmp11-Lfunc_begin2
	.uleb128 Ltmp12-Ltmp11
	.byte	0
	.byte	0
	.uleb128 Ltmp12-Lfunc_begin2
	.uleb128 Ltmp13-Ltmp12
	.uleb128 Ltmp14-Lfunc_begin2
	.byte	0
	.uleb128 Ltmp13-Lfunc_begin2
	.uleb128 Lfunc_end2-Ltmp13
	.byte	0
	.byte	0
Lcst_end2:
	.p2align	2

	.section	__TEXT,__text,regular,pure_instructions
	.p2align	4, 0x90
__ZN44_$LT$$RF$T$u20$as$u20$core..fmt..Display$GT$3fmt17h195fa4af66487ab1E:
	.cfi_startproc
	pushq	%rbp
	.cfi_def_cfa_offset 16
	.cfi_offset %rbp, -16
	movq	%rsp, %rbp
	.cfi_def_cfa_register %rbp
	subq	$16, %rsp
	movq	(%rdi), %rax
	movq	8(%rdi), %rcx
	movq	%rax, %rdi
	movq	%rsi, -8(%rbp)
	movq	%rcx, %rsi
	movq	-8(%rbp), %rdx
	callq	__ZN42_$LT$str$u20$as$u20$core..fmt..Display$GT$3fmt17h6768afae62e94f93E
	movb	%al, -9(%rbp)
	movb	-9(%rbp), %al
	andb	$1, %al
	movzbl	%al, %eax
	addq	$16, %rsp
	popq	%rbp
	retq
	.cfi_endproc

	.p2align	4, 0x90
__ZN49_$LT$usize$u20$as$u20$core..iter..range..Step$GT$17forward_unchecked17h78cecb2a05dc8832E:
	.cfi_startproc
	pushq	%rbp
	.cfi_def_cfa_offset 16
	.cfi_offset %rbp, -16
	movq	%rsp, %rbp
	.cfi_def_cfa_register %rbp
	subq	$16, %rsp
	callq	__ZN4core3num23_$LT$impl$u20$usize$GT$13unchecked_add17hd2c9355302e098cbE
	movq	%rax, -8(%rbp)
	movq	-8(%rbp), %rax
	addq	$16, %rsp
	popq	%rbp
	retq
	.cfi_endproc

	.p2align	4, 0x90
__ZN49_$LT$usize$u20$as$u20$core..iter..range..Step$GT$18backward_unchecked17hdaa0092324e4818cE:
	.cfi_startproc
	pushq	%rbp
	.cfi_def_cfa_offset 16
	.cfi_offset %rbp, -16
	movq	%rsp, %rbp
	.cfi_def_cfa_register %rbp
	subq	$16, %rsp
	callq	__ZN4core3num23_$LT$impl$u20$usize$GT$13unchecked_sub17h88aaf9b296cc1dc2E
	movq	%rax, -8(%rbp)
	movq	-8(%rbp), %rax
	addq	$16, %rsp
	popq	%rbp
	retq
	.cfi_endproc

	.p2align	4, 0x90
__ZN4core10intrinsics19copy_nonoverlapping17h2c915086628df8d2E:
	.cfi_startproc
	pushq	%rbp
	.cfi_def_cfa_offset 16
	.cfi_offset %rbp, -16
	movq	%rsp, %rbp
	.cfi_def_cfa_register %rbp
	subq	$16, %rsp
	shlq	$5, %rdx
	movq	%rdi, -8(%rbp)
	movq	%rsi, %rdi
	movq	-8(%rbp), %rsi
	callq	_memcpy
	addq	$16, %rsp
	popq	%rbp
	retq
	.cfi_endproc

	.p2align	4, 0x90
__ZN4core10intrinsics19copy_nonoverlapping17h32cd9bff0990e643E:
	.cfi_startproc
	pushq	%rbp
	.cfi_def_cfa_offset 16
	.cfi_offset %rbp, -16
	movq	%rsp, %rbp
	.cfi_def_cfa_register %rbp
	subq	$16, %rsp
	imulq	$24, %rdx, %rdx
	movq	%rdi, -8(%rbp)
	movq	%rsi, %rdi
	movq	-8(%rbp), %rsi
	callq	_memcpy
	addq	$16, %rsp
	popq	%rbp
	retq
	.cfi_endproc

	.p2align	4, 0x90
__ZN4core10intrinsics19copy_nonoverlapping17h4a851177437403edE:
	.cfi_startproc
	pushq	%rbp
	.cfi_def_cfa_offset 16
	.cfi_offset %rbp, -16
	movq	%rsp, %rbp
	.cfi_def_cfa_register %rbp
	subq	$16, %rsp
	shlq	$3, %rdx
	movq	%rdi, -8(%rbp)
	movq	%rsi, %rdi
	movq	-8(%rbp), %rsi
	callq	_memcpy
	addq	$16, %rsp
	popq	%rbp
	retq
	.cfi_endproc

	.p2align	4, 0x90
__ZN4core10intrinsics19copy_nonoverlapping17h62f6b6c8b7a46d77E:
	.cfi_startproc
	pushq	%rbp
	.cfi_def_cfa_offset 16
	.cfi_offset %rbp, -16
	movq	%rsp, %rbp
	.cfi_def_cfa_register %rbp
	subq	$16, %rsp
	shlq	$4, %rdx
	movq	%rdi, -8(%rbp)
	movq	%rsi, %rdi
	movq	-8(%rbp), %rsi
	callq	_memcpy
	addq	$16, %rsp
	popq	%rbp
	retq
	.cfi_endproc

	.p2align	4, 0x90
__ZN4core10intrinsics19copy_nonoverlapping17ha97d74ba7261657cE:
	.cfi_startproc
	pushq	%rbp
	.cfi_def_cfa_offset 16
	.cfi_offset %rbp, -16
	movq	%rsp, %rbp
	.cfi_def_cfa_register %rbp
	subq	$16, %rsp
	imulq	$24, %rdx, %rdx
	movq	%rdi, -8(%rbp)
	movq	%rsi, %rdi
	movq	-8(%rbp), %rsi
	callq	_memcpy
	addq	$16, %rsp
	popq	%rbp
	retq
	.cfi_endproc

	.p2align	4, 0x90
__ZN4core10intrinsics19copy_nonoverlapping17hc6c52a1120e218f9E:
	.cfi_startproc
	pushq	%rbp
	.cfi_def_cfa_offset 16
	.cfi_offset %rbp, -16
	movq	%rsp, %rbp
	.cfi_def_cfa_register %rbp
	subq	$16, %rsp
	imulq	$24, %rdx, %rdx
	movq	%rdi, -8(%rbp)
	movq	%rsi, %rdi
	movq	-8(%rbp), %rsi
	callq	_memcpy
	addq	$16, %rsp
	popq	%rbp
	retq
	.cfi_endproc

	.p2align	4, 0x90
__ZN4core10intrinsics19copy_nonoverlapping17hc90263bd0a0b2f20E:
	.cfi_startproc
	pushq	%rbp
	.cfi_def_cfa_offset 16
	.cfi_offset %rbp, -16
	movq	%rsp, %rbp
	.cfi_def_cfa_register %rbp
	subq	$16, %rsp
	imulq	$24, %rdx, %rdx
	movq	%rdi, -8(%rbp)
	movq	%rsi, %rdi
	movq	-8(%rbp), %rsi
	callq	_memcpy
	addq	$16, %rsp
	popq	%rbp
	retq
	.cfi_endproc

	.p2align	4, 0x90
__ZN4core10intrinsics19copy_nonoverlapping17he2e25e94cc6ee45bE:
	.cfi_startproc
	pushq	%rbp
	.cfi_def_cfa_offset 16
	.cfi_offset %rbp, -16
	movq	%rsp, %rbp
	.cfi_def_cfa_register %rbp
	subq	$16, %rsp
	imulq	$24, %rdx, %rdx
	movq	%rdi, -8(%rbp)
	movq	%rsi, %rdi
	movq	-8(%rbp), %rsi
	callq	_memcpy
	addq	$16, %rsp
	popq	%rbp
	retq
	.cfi_endproc

	.p2align	4, 0x90
__ZN4core10intrinsics19copy_nonoverlapping17hf4619686c9b08620E:
	.cfi_startproc
	pushq	%rbp
	.cfi_def_cfa_offset 16
	.cfi_offset %rbp, -16
	movq	%rsp, %rbp
	.cfi_def_cfa_register %rbp
	subq	$16, %rsp
	shlq	$5, %rdx
	movq	%rdi, -8(%rbp)
	movq	%rsi, %rdi
	movq	-8(%rbp), %rsi
	callq	_memcpy
	addq	$16, %rsp
	popq	%rbp
	retq
	.cfi_endproc

	.p2align	4, 0x90
__ZN4core10intrinsics19copy_nonoverlapping17hf65895a9cf1a8af0E:
	.cfi_startproc
	pushq	%rbp
	.cfi_def_cfa_offset 16
	.cfi_offset %rbp, -16
	movq	%rsp, %rbp
	.cfi_def_cfa_register %rbp
	subq	$16, %rsp
	shlq	$0, %rdx
	movq	%rdi, -8(%rbp)
	movq	%rsi, %rdi
	movq	-8(%rbp), %rsi
	callq	_memcpy
	addq	$16, %rsp
	popq	%rbp
	retq
	.cfi_endproc

	.p2align	4, 0x90
__ZN4core3cmp3Ord3max17hc9665be0d20e751aE:
	.cfi_startproc
	pushq	%rbp
	.cfi_def_cfa_offset 16
	.cfi_offset %rbp, -16
	movq	%rsp, %rbp
	.cfi_def_cfa_register %rbp
	subq	$16, %rsp
	callq	__ZN4core3cmp6max_by17hcc58fbb05edd4169E
	movq	%rax, -8(%rbp)
	movq	-8(%rbp), %rax
	addq	$16, %rsp
	popq	%rbp
	retq
	.cfi_endproc

	.p2align	4, 0x90
__ZN4core3cmp3max17hd5de39af7cb052ceE:
	.cfi_startproc
	pushq	%rbp
	.cfi_def_cfa_offset 16
	.cfi_offset %rbp, -16
	movq	%rsp, %rbp
	.cfi_def_cfa_register %rbp
	subq	$16, %rsp
	callq	__ZN4core3cmp3Ord3max17hc9665be0d20e751aE
	movq	%rax, -8(%rbp)
	movq	-8(%rbp), %rax
	addq	$16, %rsp
	popq	%rbp
	retq
	.cfi_endproc

	.p2align	4, 0x90
__ZN4core3cmp5impls50_$LT$impl$u20$core..cmp..Ord$u20$for$u20$usize$GT$3cmp17hea9404bd562b2fe4E:
	.cfi_startproc
	pushq	%rbp
	.cfi_def_cfa_offset 16
	.cfi_offset %rbp, -16
	movq	%rsp, %rbp
	.cfi_def_cfa_register %rbp
	subq	$24, %rsp
	movq	(%rdi), %rax
	cmpq	(%rsi), %rax
	movq	%rdi, -16(%rbp)
	movq	%rsi, -24(%rbp)
	jb	LBB33_2
	movq	-16(%rbp), %rax
	movq	(%rax), %rcx
	movq	-24(%rbp), %rdx
	cmpq	(%rdx), %rcx
	je	LBB33_4
	jmp	LBB33_3
LBB33_2:
	movb	$-1, -1(%rbp)
	jmp	LBB33_6
LBB33_3:
	movb	$1, -1(%rbp)
	jmp	LBB33_5
LBB33_4:
	movb	$0, -1(%rbp)
LBB33_5:
	jmp	LBB33_6
LBB33_6:
	movb	-1(%rbp), %al
	addq	$24, %rsp
	popq	%rbp
	retq
	.cfi_endproc

	.p2align	4, 0x90
__ZN4core3cmp5impls57_$LT$impl$u20$core..cmp..PartialOrd$u20$for$u20$usize$GT$2lt17hb87a0dae1c3f87f0E:
	.cfi_startproc
	pushq	%rbp
	.cfi_def_cfa_offset 16
	.cfi_offset %rbp, -16
	movq	%rsp, %rbp
	.cfi_def_cfa_register %rbp
	movq	(%rdi), %rax
	cmpq	(%rsi), %rax
	setb	%cl
	andb	$1, %cl
	movzbl	%cl, %eax
	popq	%rbp
	retq
	.cfi_endproc

	.p2align	4, 0x90
__ZN4core3cmp5impls69_$LT$impl$u20$core..cmp..PartialEq$LT$$RF$B$GT$$u20$for$u20$$RF$A$GT$2eq17hd52cb1555bfd4eceE:
	.cfi_startproc
	pushq	%rbp
	.cfi_def_cfa_offset 16
	.cfi_offset %rbp, -16
	movq	%rsp, %rbp
	.cfi_def_cfa_register %rbp
	subq	$16, %rsp
	movq	(%rdi), %rax
	movq	8(%rdi), %rcx
	movq	(%rsi), %rdx
	movq	8(%rsi), %rsi
	movq	%rax, %rdi
	movq	%rsi, -8(%rbp)
	movq	%rcx, %rsi
	movq	-8(%rbp), %rcx
	callq	__ZN4core5slice81_$LT$impl$u20$core..cmp..PartialEq$LT$$u5b$B$u5d$$GT$$u20$for$u20$$u5b$A$u5d$$GT$2eq17hacdeaae4a9eaa811E
	movb	%al, -9(%rbp)
	movb	-9(%rbp), %al
	andb	$1, %al
	movzbl	%al, %eax
	addq	$16, %rsp
	popq	%rbp
	retq
	.cfi_endproc

	.p2align	4, 0x90
__ZN4core3cmp5impls69_$LT$impl$u20$core..cmp..PartialEq$LT$$RF$B$GT$$u20$for$u20$$RF$A$GT$2ne17he2ad959af336468aE:
	.cfi_startproc
	pushq	%rbp
	.cfi_def_cfa_offset 16
	.cfi_offset %rbp, -16
	movq	%rsp, %rbp
	.cfi_def_cfa_register %rbp
	subq	$16, %rsp
	movq	(%rdi), %rax
	movq	8(%rdi), %rcx
	movq	(%rsi), %rdx
	movq	8(%rsi), %rsi
	movq	%rax, %rdi
	movq	%rsi, -8(%rbp)
	movq	%rcx, %rsi
	movq	-8(%rbp), %rcx
	callq	__ZN4core3str6traits54_$LT$impl$u20$core..cmp..PartialEq$u20$for$u20$str$GT$2ne17hf3fcea8062ed83dfE
	movb	%al, -9(%rbp)
	movb	-9(%rbp), %al
	andb	$1, %al
	movzbl	%al, %eax
	addq	$16, %rsp
	popq	%rbp
	retq
	.cfi_endproc

	.p2align	4, 0x90
__ZN4core3cmp6max_by17hcc58fbb05edd4169E:
Lfunc_begin3:
	.cfi_startproc
	.cfi_personality 155, _rust_eh_personality
	.cfi_lsda 16, Lexception3
	pushq	%rbp
	.cfi_def_cfa_offset 16
	.cfi_offset %rbp, -16
	movq	%rsp, %rbp
	.cfi_def_cfa_register %rbp
	subq	$80, %rsp
	movq	%rdi, -72(%rbp)
	movq	%rsi, -64(%rbp)
	movb	$0, -18(%rbp)
	movb	$0, -17(%rbp)
	movb	$1, -18(%rbp)
	movb	$1, -17(%rbp)
	leaq	-72(%rbp), %rax
	movq	%rax, -40(%rbp)
	leaq	-64(%rbp), %rax
	movq	%rax, -32(%rbp)
	movq	-40(%rbp), %rdi
	movq	-32(%rbp), %rsi
Ltmp15:
	callq	__ZN4core3ops8function6FnOnce9call_once17h336090bf5512b20dE
Ltmp16:
	movb	%al, -73(%rbp)
	jmp	LBB37_2
LBB37_1:
	movq	-16(%rbp), %rdi
	callq	__Unwind_Resume
	ud2
LBB37_2:
	movb	-73(%rbp), %al
	movb	%al, -41(%rbp)
	movsbq	-41(%rbp), %rcx
	incq	%rcx
	subq	$2, %rcx
	jb	LBB37_7
	jmp	LBB37_15
LBB37_15:
	jmp	LBB37_5
LBB37_3:
	testb	$1, -18(%rbp)
	jne	LBB37_11
	jmp	LBB37_1
LBB37_4:
	movb	$0, -17(%rbp)
	jmp	LBB37_3
LBB37_5:
	movb	$0, -18(%rbp)
	movq	-72(%rbp), %rax
	movq	%rax, -56(%rbp)
	jmp	LBB37_8
	ud2
LBB37_7:
	movb	$0, -17(%rbp)
	movq	-64(%rbp), %rax
	movq	%rax, -56(%rbp)
LBB37_8:
	testb	$1, -17(%rbp)
	jne	LBB37_12
LBB37_9:
	testb	$1, -18(%rbp)
	jne	LBB37_13
LBB37_10:
	movq	-56(%rbp), %rax
	addq	$80, %rsp
	popq	%rbp
	retq
LBB37_11:
	movb	$0, -18(%rbp)
	jmp	LBB37_1
LBB37_12:
	movb	$0, -17(%rbp)
	jmp	LBB37_9
LBB37_13:
	movb	$0, -18(%rbp)
	jmp	LBB37_10
LBB37_14:
Ltmp17:
	movq	%rax, -16(%rbp)
	movl	%edx, -8(%rbp)
	jmp	LBB37_4
Lfunc_end3:
	.cfi_endproc
	.section	__TEXT,__gcc_except_tab
	.p2align	2
GCC_except_table37:
Lexception3:
	.byte	255
	.byte	255
	.byte	1
	.uleb128 Lcst_end3-Lcst_begin3
Lcst_begin3:
	.uleb128 Ltmp15-Lfunc_begin3
	.uleb128 Ltmp16-Ltmp15
	.uleb128 Ltmp17-Lfunc_begin3
	.byte	0
	.uleb128 Ltmp16-Lfunc_begin3
	.uleb128 Lfunc_end3-Ltmp16
	.byte	0
	.byte	0
Lcst_end3:
	.p2align	2

	.section	__TEXT,__text,regular,pure_instructions
	.p2align	4, 0x90
__ZN4core3fmt10ArgumentV13new17h3d477c87908d2858E:
	.cfi_startproc
	pushq	%rbp
	.cfi_def_cfa_offset 16
	.cfi_offset %rbp, -16
	movq	%rsp, %rbp
	.cfi_def_cfa_register %rbp
	subq	$56, %rsp
	movq	%rsi, -16(%rbp)
	movq	-16(%rbp), %rax
	movq	%rdi, -40(%rbp)
	movq	%rax, -48(%rbp)
	movq	-40(%rbp), %rax
	movq	%rax, -8(%rbp)
	movq	-8(%rbp), %rcx
	movq	%rcx, -56(%rbp)
	movq	-56(%rbp), %rax
	movq	%rax, -32(%rbp)
	movq	-48(%rbp), %rcx
	movq	%rcx, -24(%rbp)
	movq	-32(%rbp), %rax
	movq	-24(%rbp), %rdx
	addq	$56, %rsp
	popq	%rbp
	retq
	.cfi_endproc

	.p2align	4, 0x90
__ZN4core3fmt10ArgumentV13new17h4c9b3c749668d172E:
	.cfi_startproc
	pushq	%rbp
	.cfi_def_cfa_offset 16
	.cfi_offset %rbp, -16
	movq	%rsp, %rbp
	.cfi_def_cfa_register %rbp
	subq	$56, %rsp
	movq	%rsi, -16(%rbp)
	movq	-16(%rbp), %rax
	movq	%rdi, -40(%rbp)
	movq	%rax, -48(%rbp)
	movq	-40(%rbp), %rax
	movq	%rax, -8(%rbp)
	movq	-8(%rbp), %rcx
	movq	%rcx, -56(%rbp)
	movq	-56(%rbp), %rax
	movq	%rax, -32(%rbp)
	movq	-48(%rbp), %rcx
	movq	%rcx, -24(%rbp)
	movq	-32(%rbp), %rax
	movq	-24(%rbp), %rdx
	addq	$56, %rsp
	popq	%rbp
	retq
	.cfi_endproc

	.p2align	4, 0x90
__ZN4core3fmt10ArgumentV13new17hdd4b72865d6ae2fbE:
	.cfi_startproc
	pushq	%rbp
	.cfi_def_cfa_offset 16
	.cfi_offset %rbp, -16
	movq	%rsp, %rbp
	.cfi_def_cfa_register %rbp
	subq	$56, %rsp
	movq	%rsi, -16(%rbp)
	movq	-16(%rbp), %rax
	movq	%rdi, -40(%rbp)
	movq	%rax, -48(%rbp)
	movq	-40(%rbp), %rax
	movq	%rax, -8(%rbp)
	movq	-8(%rbp), %rcx
	movq	%rcx, -56(%rbp)
	movq	-56(%rbp), %rax
	movq	%rax, -32(%rbp)
	movq	-48(%rbp), %rcx
	movq	%rcx, -24(%rbp)
	movq	-32(%rbp), %rax
	movq	-24(%rbp), %rdx
	addq	$56, %rsp
	popq	%rbp
	retq
	.cfi_endproc

	.p2align	4, 0x90
__ZN4core3fmt9Arguments6new_v117h629f04ff1cc8bf0fE:
	.cfi_startproc
	pushq	%rbp
	.cfi_def_cfa_offset 16
	.cfi_offset %rbp, -16
	movq	%rsp, %rbp
	.cfi_def_cfa_register %rbp
	subq	$16, %rsp
	movq	%rdi, %rax
	movq	$0, -16(%rbp)
	movq	%rsi, (%rdi)
	movq	%rdx, 8(%rdi)
	movq	-16(%rbp), %rdx
	movq	-8(%rbp), %rsi
	movq	%rdx, 16(%rdi)
	movq	%rsi, 24(%rdi)
	movq	%rcx, 32(%rdi)
	movq	%r8, 40(%rdi)
	addq	$16, %rsp
	popq	%rbp
	retq
	.cfi_endproc

	.p2align	4, 0x90
__ZN4core3mem11size_of_val17hca12273a2d322c1cE:
	.cfi_startproc
	pushq	%rbp
	.cfi_def_cfa_offset 16
	.cfi_offset %rbp, -16
	movq	%rsp, %rbp
	.cfi_def_cfa_register %rbp
	subq	$16, %rsp
	shlq	$0, %rsi
	movq	%rsi, -8(%rbp)
	movq	-8(%rbp), %rax
	movq	%rax, -16(%rbp)
	movq	-16(%rbp), %rax
	addq	$16, %rsp
	popq	%rbp
	retq
	.cfi_endproc

	.p2align	4, 0x90
__ZN4core3mem4drop17h656e02f24dda9e6aE:
	.cfi_startproc
	pushq	%rbp
	.cfi_def_cfa_offset 16
	.cfi_offset %rbp, -16
	movq	%rsp, %rbp
	.cfi_def_cfa_register %rbp
	callq	__ZN4core3ptr13drop_in_place17hdd7aa19e43774062E
	popq	%rbp
	retq
	.cfi_endproc

	.p2align	4, 0x90
__ZN4core3mem4drop17ha4998d0812460e73E:
	.cfi_startproc
	pushq	%rbp
	.cfi_def_cfa_offset 16
	.cfi_offset %rbp, -16
	movq	%rsp, %rbp
	.cfi_def_cfa_register %rbp
	callq	__ZN4core3ptr13drop_in_place17hf7bd367f0ddea95eE
	popq	%rbp
	retq
	.cfi_endproc

	.p2align	4, 0x90
__ZN4core3mem4swap17he910f9ab8ac02196E:
	.cfi_startproc
	pushq	%rbp
	.cfi_def_cfa_offset 16
	.cfi_offset %rbp, -16
	movq	%rsp, %rbp
	.cfi_def_cfa_register %rbp
	callq	__ZN4core3ptr23swap_nonoverlapping_one17h819654271c7a6852E
	popq	%rbp
	retq
	.cfi_endproc

	.p2align	4, 0x90
__ZN4core3mem4swap17hf8b666a79451f832E:
	.cfi_startproc
	pushq	%rbp
	.cfi_def_cfa_offset 16
	.cfi_offset %rbp, -16
	movq	%rsp, %rbp
	.cfi_def_cfa_register %rbp
	callq	__ZN4core3ptr23swap_nonoverlapping_one17h0986a9a5693b15b5E
	popq	%rbp
	retq
	.cfi_endproc

	.p2align	4, 0x90
__ZN4core3mem4take17h71905baf1d2fb5a8E:
	.cfi_startproc
	pushq	%rbp
	.cfi_def_cfa_offset 16
	.cfi_offset %rbp, -16
	movq	%rsp, %rbp
	.cfi_def_cfa_register %rbp
	subq	$48, %rsp
	movq	%rdi, -8(%rbp)
	callq	__ZN72_$LT$core..option..Option$LT$T$GT$$u20$as$u20$core..default..Default$GT$7default17ha5076fe05b235f17E
	movq	%rax, -16(%rbp)
	movq	%rdx, -24(%rbp)
	movq	-8(%rbp), %rdi
	movq	-16(%rbp), %rsi
	movq	-24(%rbp), %rdx
	callq	__ZN4core3mem7replace17h15a7727a3206159cE
	movq	%rax, -32(%rbp)
	movq	%rdx, -40(%rbp)
	movq	-32(%rbp), %rax
	movq	-40(%rbp), %rdx
	addq	$48, %rsp
	popq	%rbp
	retq
	.cfi_endproc

	.p2align	4, 0x90
__ZN4core3mem6forget17ha20d9e4dc0e04f62E:
	.cfi_startproc
	pushq	%rbp
	.cfi_def_cfa_offset 16
	.cfi_offset %rbp, -16
	movq	%rsp, %rbp
	.cfi_def_cfa_register %rbp
	pushq	%rax
	movq	%rdi, -8(%rbp)
	addq	$8, %rsp
	popq	%rbp
	retq
	.cfi_endproc

	.p2align	4, 0x90
__ZN4core3mem7replace17h15a7727a3206159cE:
Lfunc_begin4:
	.cfi_startproc
	.cfi_personality 155, _rust_eh_personality
	.cfi_lsda 16, Lexception4
	pushq	%rbp
	.cfi_def_cfa_offset 16
	.cfi_offset %rbp, -16
	movq	%rsp, %rbp
	.cfi_def_cfa_register %rbp
	subq	$32, %rsp
	movq	%rsi, -32(%rbp)
	movq	%rdx, -24(%rbp)
Ltmp18:
	leaq	-32(%rbp), %rsi
	callq	__ZN4core3mem4swap17hf8b666a79451f832E
Ltmp19:
	jmp	LBB49_2
LBB49_1:
	movq	-16(%rbp), %rdi
	callq	__Unwind_Resume
	ud2
LBB49_2:
	movq	-32(%rbp), %rax
	movq	-24(%rbp), %rdx
	addq	$32, %rsp
	popq	%rbp
	retq
LBB49_3:
	jmp	LBB49_1
LBB49_4:
Ltmp20:
	movq	%rax, -16(%rbp)
	movl	%edx, -8(%rbp)
	jmp	LBB49_3
Lfunc_end4:
	.cfi_endproc
	.section	__TEXT,__gcc_except_tab
	.p2align	2
GCC_except_table49:
Lexception4:
	.byte	255
	.byte	255
	.byte	1
	.uleb128 Lcst_end4-Lcst_begin4
Lcst_begin4:
	.uleb128 Ltmp18-Lfunc_begin4
	.uleb128 Ltmp19-Ltmp18
	.uleb128 Ltmp20-Lfunc_begin4
	.byte	0
	.uleb128 Ltmp19-Lfunc_begin4
	.uleb128 Lfunc_end4-Ltmp19
	.byte	0
	.byte	0
Lcst_end4:
	.p2align	2

	.section	__TEXT,__text,regular,pure_instructions
	.p2align	4, 0x90
__ZN4core3mem7replace17h7c0c4362bb196c45E:
Lfunc_begin5:
	.cfi_startproc
	.cfi_personality 155, _rust_eh_personality
	.cfi_lsda 16, Lexception5
	pushq	%rbp
	.cfi_def_cfa_offset 16
	.cfi_offset %rbp, -16
	movq	%rsp, %rbp
	.cfi_def_cfa_register %rbp
	subq	$32, %rsp
	movq	%rsi, -24(%rbp)
Ltmp21:
	leaq	-24(%rbp), %rsi
	callq	__ZN4core3mem4swap17he910f9ab8ac02196E
Ltmp22:
	jmp	LBB50_2
LBB50_1:
	movq	-16(%rbp), %rdi
	callq	__Unwind_Resume
	ud2
LBB50_2:
	movq	-24(%rbp), %rax
	addq	$32, %rsp
	popq	%rbp
	retq
LBB50_3:
	jmp	LBB50_1
LBB50_4:
Ltmp23:
	movq	%rax, -16(%rbp)
	movl	%edx, -8(%rbp)
	jmp	LBB50_3
Lfunc_end5:
	.cfi_endproc
	.section	__TEXT,__gcc_except_tab
	.p2align	2
GCC_except_table50:
Lexception5:
	.byte	255
	.byte	255
	.byte	1
	.uleb128 Lcst_end5-Lcst_begin5
Lcst_begin5:
	.uleb128 Ltmp21-Lfunc_begin5
	.uleb128 Ltmp22-Ltmp21
	.uleb128 Ltmp23-Lfunc_begin5
	.byte	0
	.uleb128 Ltmp22-Lfunc_begin5
	.uleb128 Lfunc_end5-Ltmp22
	.byte	0
	.byte	0
Lcst_end5:
	.p2align	2

	.section	__TEXT,__text,regular,pure_instructions
	.p2align	4, 0x90
__ZN4core3num12NonZeroUsize13new_unchecked17h87c0a79a2910b586E:
	.cfi_startproc
	pushq	%rbp
	.cfi_def_cfa_offset 16
	.cfi_offset %rbp, -16
	movq	%rsp, %rbp
	.cfi_def_cfa_register %rbp
	pushq	%rax
	movq	%rdi, -8(%rbp)
	movq	-8(%rbp), %rax
	addq	$8, %rsp
	popq	%rbp
	retq
	.cfi_endproc

	.p2align	4, 0x90
__ZN4core3num12NonZeroUsize3get17h7479ae7c86e0baecE:
	.cfi_startproc
	pushq	%rbp
	.cfi_def_cfa_offset 16
	.cfi_offset %rbp, -16
	movq	%rsp, %rbp
	.cfi_def_cfa_register %rbp
	movq	%rdi, %rax
	popq	%rbp
	retq
	.cfi_endproc

	.p2align	4, 0x90
__ZN4core3num23_$LT$impl$u20$usize$GT$13unchecked_add17hd2c9355302e098cbE:
	.cfi_startproc
	pushq	%rbp
	.cfi_def_cfa_offset 16
	.cfi_offset %rbp, -16
	movq	%rsp, %rbp
	.cfi_def_cfa_register %rbp
	subq	$16, %rsp
	addq	%rsi, %rdi
	movq	%rdi, -8(%rbp)
	movq	-8(%rbp), %rax
	movq	%rax, -16(%rbp)
	movq	-16(%rbp), %rax
	addq	$16, %rsp
	popq	%rbp
	retq
	.cfi_endproc

	.p2align	4, 0x90
__ZN4core3num23_$LT$impl$u20$usize$GT$13unchecked_sub17h88aaf9b296cc1dc2E:
	.cfi_startproc
	pushq	%rbp
	.cfi_def_cfa_offset 16
	.cfi_offset %rbp, -16
	movq	%rsp, %rbp
	.cfi_def_cfa_register %rbp
	subq	$16, %rsp
	subq	%rsi, %rdi
	movq	%rdi, -8(%rbp)
	movq	-8(%rbp), %rax
	movq	%rax, -16(%rbp)
	movq	-16(%rbp), %rax
	addq	$16, %rsp
	popq	%rbp
	retq
	.cfi_endproc

	.p2align	4, 0x90
__ZN4core3ops8function6FnOnce40call_once$u7b$$u7b$vtable.shim$u7d$$u7d$17hd32fb798d830c57cE:
	.cfi_startproc
	pushq	%rbp
	.cfi_def_cfa_offset 16
	.cfi_offset %rbp, -16
	movq	%rsp, %rbp
	.cfi_def_cfa_register %rbp
	subq	$16, %rsp
	movq	(%rdi), %rdi
	callq	__ZN4core3ops8function6FnOnce9call_once17hf45fbe22f179558eE
	movl	%eax, -12(%rbp)
	movl	-12(%rbp), %eax
	addq	$16, %rsp
	popq	%rbp
	retq
	.cfi_endproc

	.p2align	4, 0x90
__ZN4core3ops8function6FnOnce9call_once17h336090bf5512b20dE:
	.cfi_startproc
	pushq	%rbp
	.cfi_def_cfa_offset 16
	.cfi_offset %rbp, -16
	movq	%rsp, %rbp
	.cfi_def_cfa_register %rbp
	subq	$32, %rsp
	movq	%rdi, -16(%rbp)
	movq	%rsi, -8(%rbp)
	movq	-16(%rbp), %rdi
	movq	-8(%rbp), %rsi
	callq	__ZN4core3cmp5impls50_$LT$impl$u20$core..cmp..Ord$u20$for$u20$usize$GT$3cmp17hea9404bd562b2fe4E
	movb	%al, -17(%rbp)
	movb	-17(%rbp), %al
	addq	$32, %rsp
	popq	%rbp
	retq
	.cfi_endproc

	.p2align	4, 0x90
__ZN4core3ops8function6FnOnce9call_once17hf45fbe22f179558eE:
Lfunc_begin6:
	.cfi_startproc
	.cfi_personality 155, _rust_eh_personality
	.cfi_lsda 16, Lexception6
	pushq	%rbp
	.cfi_def_cfa_offset 16
	.cfi_offset %rbp, -16
	movq	%rsp, %rbp
	.cfi_def_cfa_register %rbp
	subq	$48, %rsp
	movq	%rdi, -32(%rbp)
Ltmp24:
	leaq	-32(%rbp), %rdi
	callq	__ZN3std2rt10lang_start28_$u7b$$u7b$closure$u7d$$u7d$17h31c0bcd24248f78aE
Ltmp25:
	movl	%eax, -36(%rbp)
	jmp	LBB57_1
LBB57_1:
	jmp	LBB57_2
LBB57_2:
	movl	-36(%rbp), %eax
	addq	$48, %rsp
	popq	%rbp
	retq
LBB57_3:
	jmp	LBB57_4
LBB57_4:
	movq	-16(%rbp), %rdi
	callq	__Unwind_Resume
	ud2
LBB57_5:
Ltmp26:
	movq	%rax, -16(%rbp)
	movl	%edx, -8(%rbp)
	jmp	LBB57_3
Lfunc_end6:
	.cfi_endproc
	.section	__TEXT,__gcc_except_tab
	.p2align	2
GCC_except_table57:
Lexception6:
	.byte	255
	.byte	255
	.byte	1
	.uleb128 Lcst_end6-Lcst_begin6
Lcst_begin6:
	.uleb128 Ltmp24-Lfunc_begin6
	.uleb128 Ltmp25-Ltmp24
	.uleb128 Ltmp26-Lfunc_begin6
	.byte	0
	.uleb128 Ltmp25-Lfunc_begin6
	.uleb128 Lfunc_end6-Ltmp25
	.byte	0
	.byte	0
Lcst_end6:
	.p2align	2

	.section	__TEXT,__text,regular,pure_instructions
	.p2align	4, 0x90
__ZN4core3ptr13drop_in_place17h04d2c8926bd5c528E:
	.cfi_startproc
	pushq	%rbp
	.cfi_def_cfa_offset 16
	.cfi_offset %rbp, -16
	movq	%rsp, %rbp
	.cfi_def_cfa_register %rbp
	subq	$16, %rsp
	xorl	%eax, %eax
	movl	%eax, %ecx
	cmpq	$0, (%rdi)
	movl	$1, %edx
	cmovbeq	%rcx, %rdx
	cmpq	$0, %rdx
	movq	%rdi, -16(%rbp)
	jne	LBB58_2
LBB58_1:
	addq	$16, %rsp
	popq	%rbp
	retq
LBB58_2:
	movq	-16(%rbp), %rax
	movq	%rax, %rdi
	callq	__ZN4core3ptr13drop_in_place17hf7bd367f0ddea95eE
	jmp	LBB58_1
	.cfi_endproc

	.p2align	4, 0x90
__ZN4core3ptr13drop_in_place17h07b635197adcf61dE:
	.cfi_startproc
	pushq	%rbp
	.cfi_def_cfa_offset 16
	.cfi_offset %rbp, -16
	movq	%rsp, %rbp
	.cfi_def_cfa_register %rbp
	subq	$16, %rsp
	cmpq	$0, (%rdi)
	movq	%rdi, -16(%rbp)
	je	LBB59_2
	jmp	LBB59_3
LBB59_1:
	addq	$16, %rsp
	popq	%rbp
	retq
LBB59_2:
	movq	-16(%rbp), %rax
	addq	$8, %rax
	movq	%rax, %rdi
	callq	__ZN4core3ptr13drop_in_place17hb571a08c79d8e7ffE
	jmp	LBB59_1
LBB59_3:
	movq	-16(%rbp), %rax
	addq	$8, %rax
	movq	%rax, %rdi
	callq	__ZN4core3ptr13drop_in_place17h7f2253d15ae54c93E
	jmp	LBB59_1
	.cfi_endproc

	.p2align	4, 0x90
__ZN4core3ptr13drop_in_place17h0e356166067ea778E:
Lfunc_begin7:
	.cfi_startproc
	.cfi_personality 155, _rust_eh_personality
	.cfi_lsda 16, Lexception7
	pushq	%rbp
	.cfi_def_cfa_offset 16
	.cfi_offset %rbp, -16
	movq	%rsp, %rbp
	.cfi_def_cfa_register %rbp
	subq	$32, %rsp
Ltmp27:
	movq	%rdi, -32(%rbp)
	callq	__ZN66_$LT$alloc..vec..Vec$LT$T$GT$$u20$as$u20$core..ops..drop..Drop$GT$4drop17h6f1a07079344493dE
Ltmp28:
	jmp	LBB60_4
LBB60_1:
	movq	-16(%rbp), %rdi
	callq	__Unwind_Resume
	ud2
LBB60_2:
	addq	$32, %rsp
	popq	%rbp
	retq
LBB60_3:
	movq	-32(%rbp), %rax
	movq	%rax, %rdi
	callq	__ZN4core3ptr13drop_in_place17h9762fc259c8691c9E
	jmp	LBB60_1
LBB60_4:
	movq	-32(%rbp), %rax
	movq	%rax, %rdi
	callq	__ZN4core3ptr13drop_in_place17h9762fc259c8691c9E
	jmp	LBB60_2
LBB60_5:
Ltmp29:
	movq	%rax, -16(%rbp)
	movl	%edx, -8(%rbp)
	jmp	LBB60_3
Lfunc_end7:
	.cfi_endproc
	.section	__TEXT,__gcc_except_tab
	.p2align	2
GCC_except_table60:
Lexception7:
	.byte	255
	.byte	255
	.byte	1
	.uleb128 Lcst_end7-Lcst_begin7
Lcst_begin7:
	.uleb128 Ltmp27-Lfunc_begin7
	.uleb128 Ltmp28-Ltmp27
	.uleb128 Ltmp29-Lfunc_begin7
	.byte	0
	.uleb128 Ltmp28-Lfunc_begin7
	.uleb128 Lfunc_end7-Ltmp28
	.byte	0
	.byte	0
Lcst_end7:
	.p2align	2

	.section	__TEXT,__text,regular,pure_instructions
	.p2align	4, 0x90
__ZN4core3ptr13drop_in_place17h19f35864bb18b7ffE:
Lfunc_begin8:
	.cfi_startproc
	.cfi_personality 155, _rust_eh_personality
	.cfi_lsda 16, Lexception8
	pushq	%rbp
	.cfi_def_cfa_offset 16
	.cfi_offset %rbp, -16
	movq	%rsp, %rbp
	.cfi_def_cfa_register %rbp
	subq	$32, %rsp
	movq	(%rdi), %rax
Ltmp30:
	movq	%rdi, -32(%rbp)
	movq	%rax, %rdi
	callq	__ZN4core3ptr13drop_in_place17hceee0749a2a4a8a3E
Ltmp31:
	jmp	LBB61_3
LBB61_1:
	addq	$32, %rsp
	popq	%rbp
	retq
LBB61_2:
	movq	-16(%rbp), %rdi
	callq	__Unwind_Resume
	ud2
LBB61_3:
	movq	-32(%rbp), %rax
	movq	(%rax), %rdi
	callq	__ZN5alloc5alloc8box_free17hdb9ddd65e17cde82E
	jmp	LBB61_1
LBB61_4:
	movq	-32(%rbp), %rax
	movq	(%rax), %rdi
	callq	__ZN5alloc5alloc8box_free17hdb9ddd65e17cde82E
	jmp	LBB61_2
LBB61_5:
Ltmp32:
	movq	%rax, -16(%rbp)
	movl	%edx, -8(%rbp)
	jmp	LBB61_4
Lfunc_end8:
	.cfi_endproc
	.section	__TEXT,__gcc_except_tab
	.p2align	2
GCC_except_table61:
Lexception8:
	.byte	255
	.byte	255
	.byte	1
	.uleb128 Lcst_end8-Lcst_begin8
Lcst_begin8:
	.uleb128 Ltmp30-Lfunc_begin8
	.uleb128 Ltmp31-Ltmp30
	.uleb128 Ltmp32-Lfunc_begin8
	.byte	0
	.uleb128 Ltmp31-Lfunc_begin8
	.uleb128 Lfunc_end8-Ltmp31
	.byte	0
	.byte	0
Lcst_end8:
	.p2align	2

	.section	__TEXT,__text,regular,pure_instructions
	.p2align	4, 0x90
__ZN4core3ptr13drop_in_place17h277072026f138a60E:
	.cfi_startproc
	pushq	%rbp
	.cfi_def_cfa_offset 16
	.cfi_offset %rbp, -16
	movq	%rsp, %rbp
	.cfi_def_cfa_register %rbp
	subq	$16, %rsp
	callq	*(%rsi)
	addq	$16, %rsp
	popq	%rbp
	retq
	.cfi_endproc

	.p2align	4, 0x90
__ZN4core3ptr13drop_in_place17h29c6a9aa24802513E:
	.cfi_startproc
	pushq	%rbp
	.cfi_def_cfa_offset 16
	.cfi_offset %rbp, -16
	movq	%rsp, %rbp
	.cfi_def_cfa_register %rbp
	subq	$16, %rsp
	callq	__ZN166_$LT$$LT$alloc..collections..btree..map..IntoIter$LT$K$C$V$GT$$u20$as$u20$core..ops..drop..Drop$GT$..drop..DropGuard$LT$K$C$V$GT$$u20$as$u20$core..ops..drop..Drop$GT$4drop17h868ac40fd149e48bE
	addq	$16, %rsp
	popq	%rbp
	retq
	.cfi_endproc

	.p2align	4, 0x90
__ZN4core3ptr13drop_in_place17h3043a21abf7b761bE:
	.cfi_startproc
	pushq	%rbp
	.cfi_def_cfa_offset 16
	.cfi_offset %rbp, -16
	movq	%rsp, %rbp
	.cfi_def_cfa_register %rbp
	subq	$16, %rsp
	callq	__ZN4core3ptr13drop_in_place17hfb6eebec22f70437E
	addq	$16, %rsp
	popq	%rbp
	retq
	.cfi_endproc

	.p2align	4, 0x90
__ZN4core3ptr13drop_in_place17h3a0002a036f353feE:
	.cfi_startproc
	pushq	%rbp
	.cfi_def_cfa_offset 16
	.cfi_offset %rbp, -16
	movq	%rsp, %rbp
	.cfi_def_cfa_register %rbp
	subq	$32, %rsp
	movq	%rdi, -32(%rbp)
	jmp	LBB65_2
LBB65_1:
	addq	$32, %rsp
	popq	%rbp
	retq
LBB65_2:
	movq	-32(%rbp), %rax
	movq	(%rax), %rdi
	movq	8(%rax), %rsi
	callq	__ZN5alloc5alloc8box_free17hf2156175e773268dE
	jmp	LBB65_1
	.cfi_endproc

	.p2align	4, 0x90
__ZN4core3ptr13drop_in_place17h3ac925159f92ca06E:
Lfunc_begin9:
	.cfi_startproc
	.cfi_personality 155, _rust_eh_personality
	.cfi_lsda 16, Lexception9
	pushq	%rbp
	.cfi_def_cfa_offset 16
	.cfi_offset %rbp, -16
	movq	%rsp, %rbp
	.cfi_def_cfa_register %rbp
	subq	$32, %rsp
	movq	(%rdi), %rax
	movq	8(%rdi), %rcx
	movq	(%rcx), %rcx
Ltmp33:
	movq	%rdi, -32(%rbp)
	movq	%rax, %rdi
	callq	*%rcx
Ltmp34:
	jmp	LBB66_3
LBB66_1:
	addq	$32, %rsp
	popq	%rbp
	retq
LBB66_2:
	movq	-16(%rbp), %rdi
	callq	__Unwind_Resume
	ud2
LBB66_3:
	movq	-32(%rbp), %rax
	movq	(%rax), %rdi
	movq	8(%rax), %rsi
	callq	__ZN5alloc5alloc8box_free17h5c54c000cc1cba04E
	jmp	LBB66_1
LBB66_4:
	movq	-32(%rbp), %rax
	movq	(%rax), %rdi
	movq	8(%rax), %rsi
	callq	__ZN5alloc5alloc8box_free17h5c54c000cc1cba04E
	jmp	LBB66_2
LBB66_5:
Ltmp35:
	movq	%rax, -16(%rbp)
	movl	%edx, -8(%rbp)
	jmp	LBB66_4
Lfunc_end9:
	.cfi_endproc
	.section	__TEXT,__gcc_except_tab
	.p2align	2
GCC_except_table66:
Lexception9:
	.byte	255
	.byte	255
	.byte	1
	.uleb128 Lcst_end9-Lcst_begin9
Lcst_begin9:
	.uleb128 Ltmp33-Lfunc_begin9
	.uleb128 Ltmp34-Ltmp33
	.uleb128 Ltmp35-Lfunc_begin9
	.byte	0
	.uleb128 Ltmp34-Lfunc_begin9
	.uleb128 Lfunc_end9-Ltmp34
	.byte	0
	.byte	0
Lcst_end9:
	.p2align	2

	.section	__TEXT,__text,regular,pure_instructions
	.p2align	4, 0x90
__ZN4core3ptr13drop_in_place17h512a324dc6e9f2d7E:
	.cfi_startproc
	pushq	%rbp
	.cfi_def_cfa_offset 16
	.cfi_offset %rbp, -16
	movq	%rsp, %rbp
	.cfi_def_cfa_register %rbp
	subq	$16, %rsp
	movl	(%rdi), %eax
	subl	$2, %eax
	movq	%rdi, -16(%rbp)
	ja	LBB67_2
	jmp	LBB67_1
LBB67_1:
	addq	$16, %rsp
	popq	%rbp
	retq
LBB67_2:
	movq	-16(%rbp), %rax
	addq	$4, %rax
	movq	%rax, %rdi
	callq	__ZN4core3ptr13drop_in_place17had79dc516c5a3e1bE
	jmp	LBB67_1
	.cfi_endproc

	.p2align	4, 0x90
__ZN4core3ptr13drop_in_place17h5300bb944244fe0dE:
	.cfi_startproc
	pushq	%rbp
	.cfi_def_cfa_offset 16
	.cfi_offset %rbp, -16
	movq	%rsp, %rbp
	.cfi_def_cfa_register %rbp
	pushq	%rax
	addq	$8, %rsp
	popq	%rbp
	retq
	.cfi_endproc

	.p2align	4, 0x90
__ZN4core3ptr13drop_in_place17h552d52838070686eE:
	.cfi_startproc
	pushq	%rbp
	.cfi_def_cfa_offset 16
	.cfi_offset %rbp, -16
	movq	%rsp, %rbp
	.cfi_def_cfa_register %rbp
	subq	$16, %rsp
	callq	*(%rsi)
	addq	$16, %rsp
	popq	%rbp
	retq
	.cfi_endproc

	.p2align	4, 0x90
__ZN4core3ptr13drop_in_place17h5eeae2eede50eedeE:
Lfunc_begin10:
	.cfi_startproc
	.cfi_personality 155, _rust_eh_personality
	.cfi_lsda 16, Lexception10
	pushq	%rbp
	.cfi_def_cfa_offset 16
	.cfi_offset %rbp, -16
	movq	%rsp, %rbp
	.cfi_def_cfa_register %rbp
	subq	$64, %rsp
	xorl	%eax, %eax
	testb	$1, %al
	movq	%rdi, -56(%rbp)
	movq	%rsi, -64(%rbp)
	jne	LBB70_7
	jmp	LBB70_12
LBB70_1:
	addq	$64, %rsp
	popq	%rbp
	retq
LBB70_2:
	movq	-16(%rbp), %rdi
	callq	__Unwind_Resume
	ud2
LBB70_3:
	movq	-40(%rbp), %rax
	shlq	$4, %rax
	movq	-56(%rbp), %rcx
	addq	%rax, %rcx
	movq	-40(%rbp), %rax
	addq	$1, %rax
	movq	%rax, -40(%rbp)
	movq	%rcx, %rdi
	callq	__ZN4core3ptr13drop_in_place17h3ac925159f92ca06E
LBB70_4:
	movq	-64(%rbp), %rax
	cmpq	%rax, -40(%rbp)
	je	LBB70_2
	jmp	LBB70_3
LBB70_5:
	movq	-40(%rbp), %rax
	movq	%rax, %rcx
	shlq	$4, %rcx
	movq	-56(%rbp), %rdx
	addq	%rcx, %rdx
	incq	%rax
	movq	%rax, -40(%rbp)
Ltmp39:
	movq	%rdx, %rdi
	callq	__ZN4core3ptr13drop_in_place17h3ac925159f92ca06E
Ltmp40:
	jmp	LBB70_6
LBB70_6:
	movq	-64(%rbp), %rax
	cmpq	%rax, -40(%rbp)
	je	LBB70_1
	jmp	LBB70_5
LBB70_7:
	movq	$0, -40(%rbp)
	jmp	LBB70_6
LBB70_8:
	movq	-32(%rbp), %rdi
	movq	-32(%rbp), %rax
	addq	$16, %rax
	movq	%rax, -32(%rbp)
	callq	__ZN4core3ptr13drop_in_place17h3ac925159f92ca06E
LBB70_9:
	movq	-32(%rbp), %rax
	cmpq	-24(%rbp), %rax
	je	LBB70_2
	jmp	LBB70_8
LBB70_10:
	movq	-32(%rbp), %rax
	movq	%rax, %rcx
	addq	$16, %rcx
	movq	%rcx, -32(%rbp)
Ltmp36:
	movq	%rax, %rdi
	callq	__ZN4core3ptr13drop_in_place17h3ac925159f92ca06E
Ltmp37:
	jmp	LBB70_11
LBB70_11:
	movq	-32(%rbp), %rax
	cmpq	-24(%rbp), %rax
	je	LBB70_1
	jmp	LBB70_10
LBB70_12:
	movq	-56(%rbp), %rax
	movq	%rax, -32(%rbp)
	movq	-64(%rbp), %rax
	shlq	$4, %rax
	addq	-32(%rbp), %rax
	movq	%rax, -24(%rbp)
	jmp	LBB70_11
LBB70_13:
Ltmp38:
	movq	%rax, -16(%rbp)
	movl	%edx, -8(%rbp)
	jmp	LBB70_9
LBB70_14:
Ltmp41:
	movq	%rax, -16(%rbp)
	movl	%edx, -8(%rbp)
	jmp	LBB70_4
Lfunc_end10:
	.cfi_endproc
	.section	__TEXT,__gcc_except_tab
	.p2align	2
GCC_except_table70:
Lexception10:
	.byte	255
	.byte	255
	.byte	1
	.uleb128 Lcst_end10-Lcst_begin10
Lcst_begin10:
	.uleb128 Lfunc_begin10-Lfunc_begin10
	.uleb128 Ltmp39-Lfunc_begin10
	.byte	0
	.byte	0
	.uleb128 Ltmp39-Lfunc_begin10
	.uleb128 Ltmp40-Ltmp39
	.uleb128 Ltmp41-Lfunc_begin10
	.byte	0
	.uleb128 Ltmp40-Lfunc_begin10
	.uleb128 Ltmp36-Ltmp40
	.byte	0
	.byte	0
	.uleb128 Ltmp36-Lfunc_begin10
	.uleb128 Ltmp37-Ltmp36
	.uleb128 Ltmp38-Lfunc_begin10
	.byte	0
Lcst_end10:
	.p2align	2

	.section	__TEXT,__text,regular,pure_instructions
	.p2align	4, 0x90
__ZN4core3ptr13drop_in_place17h6d210f184b30bf4cE:
	.cfi_startproc
	pushq	%rbp
	.cfi_def_cfa_offset 16
	.cfi_offset %rbp, -16
	movq	%rsp, %rbp
	.cfi_def_cfa_register %rbp
	subq	$16, %rsp
	callq	__ZN4core3ptr13drop_in_place17hc8b7303738f8fe45E
	addq	$16, %rsp
	popq	%rbp
	retq
	.cfi_endproc

	.p2align	4, 0x90
__ZN4core3ptr13drop_in_place17h7f2253d15ae54c93E:
	.cfi_startproc
	pushq	%rbp
	.cfi_def_cfa_offset 16
	.cfi_offset %rbp, -16
	movq	%rsp, %rbp
	.cfi_def_cfa_register %rbp
	subq	$16, %rsp
	callq	__ZN4core3ptr13drop_in_place17hc12e3ddff6ef4ef0E
	addq	$16, %rsp
	popq	%rbp
	retq
	.cfi_endproc

	.p2align	4, 0x90
__ZN4core3ptr13drop_in_place17h83944c6411731ffaE:
Lfunc_begin11:
	.cfi_startproc
	.cfi_personality 155, _rust_eh_personality
	.cfi_lsda 16, Lexception11
	pushq	%rbp
	.cfi_def_cfa_offset 16
	.cfi_offset %rbp, -16
	movq	%rsp, %rbp
	.cfi_def_cfa_register %rbp
	subq	$64, %rsp
	xorl	%eax, %eax
	testb	$1, %al
	movq	%rdi, -56(%rbp)
	movq	%rsi, -64(%rbp)
	jne	LBB73_7
	jmp	LBB73_12
LBB73_1:
	addq	$64, %rsp
	popq	%rbp
	retq
LBB73_2:
	movq	-16(%rbp), %rdi
	callq	__Unwind_Resume
	ud2
LBB73_3:
	movq	-40(%rbp), %rax
	shlq	$4, %rax
	movq	-56(%rbp), %rcx
	addq	%rax, %rcx
	movq	-40(%rbp), %rax
	addq	$1, %rax
	movq	%rax, -40(%rbp)
	movq	%rcx, %rdi
	callq	__ZN4core3ptr13drop_in_place17h92e190887cfa8ffbE
LBB73_4:
	movq	-64(%rbp), %rax
	cmpq	%rax, -40(%rbp)
	je	LBB73_2
	jmp	LBB73_3
LBB73_5:
	movq	-40(%rbp), %rax
	movq	%rax, %rcx
	shlq	$4, %rcx
	movq	-56(%rbp), %rdx
	addq	%rcx, %rdx
	incq	%rax
	movq	%rax, -40(%rbp)
Ltmp45:
	movq	%rdx, %rdi
	callq	__ZN4core3ptr13drop_in_place17h92e190887cfa8ffbE
Ltmp46:
	jmp	LBB73_6
LBB73_6:
	movq	-64(%rbp), %rax
	cmpq	%rax, -40(%rbp)
	je	LBB73_1
	jmp	LBB73_5
LBB73_7:
	movq	$0, -40(%rbp)
	jmp	LBB73_6
LBB73_8:
	movq	-32(%rbp), %rdi
	movq	-32(%rbp), %rax
	addq	$16, %rax
	movq	%rax, -32(%rbp)
	callq	__ZN4core3ptr13drop_in_place17h92e190887cfa8ffbE
LBB73_9:
	movq	-32(%rbp), %rax
	cmpq	-24(%rbp), %rax
	je	LBB73_2
	jmp	LBB73_8
LBB73_10:
	movq	-32(%rbp), %rax
	movq	%rax, %rcx
	addq	$16, %rcx
	movq	%rcx, -32(%rbp)
Ltmp42:
	movq	%rax, %rdi
	callq	__ZN4core3ptr13drop_in_place17h92e190887cfa8ffbE
Ltmp43:
	jmp	LBB73_11
LBB73_11:
	movq	-32(%rbp), %rax
	cmpq	-24(%rbp), %rax
	je	LBB73_1
	jmp	LBB73_10
LBB73_12:
	movq	-56(%rbp), %rax
	movq	%rax, -32(%rbp)
	movq	-64(%rbp), %rax
	shlq	$4, %rax
	addq	-32(%rbp), %rax
	movq	%rax, -24(%rbp)
	jmp	LBB73_11
LBB73_13:
Ltmp44:
	movq	%rax, -16(%rbp)
	movl	%edx, -8(%rbp)
	jmp	LBB73_9
LBB73_14:
Ltmp47:
	movq	%rax, -16(%rbp)
	movl	%edx, -8(%rbp)
	jmp	LBB73_4
Lfunc_end11:
	.cfi_endproc
	.section	__TEXT,__gcc_except_tab
	.p2align	2
GCC_except_table73:
Lexception11:
	.byte	255
	.byte	255
	.byte	1
	.uleb128 Lcst_end11-Lcst_begin11
Lcst_begin11:
	.uleb128 Lfunc_begin11-Lfunc_begin11
	.uleb128 Ltmp45-Lfunc_begin11
	.byte	0
	.byte	0
	.uleb128 Ltmp45-Lfunc_begin11
	.uleb128 Ltmp46-Ltmp45
	.uleb128 Ltmp47-Lfunc_begin11
	.byte	0
	.uleb128 Ltmp46-Lfunc_begin11
	.uleb128 Ltmp42-Ltmp46
	.byte	0
	.byte	0
	.uleb128 Ltmp42-Lfunc_begin11
	.uleb128 Ltmp43-Ltmp42
	.uleb128 Ltmp44-Lfunc_begin11
	.byte	0
Lcst_end11:
	.p2align	2

	.section	__TEXT,__text,regular,pure_instructions
	.p2align	4, 0x90
__ZN4core3ptr13drop_in_place17h851d96192854157aE:
	.cfi_startproc
	pushq	%rbp
	.cfi_def_cfa_offset 16
	.cfi_offset %rbp, -16
	movq	%rsp, %rbp
	.cfi_def_cfa_register %rbp
	subq	$16, %rsp
	callq	__ZN77_$LT$alloc..raw_vec..RawVec$LT$T$C$A$GT$$u20$as$u20$core..ops..drop..Drop$GT$4drop17h4f6de2247b62910dE
	addq	$16, %rsp
	popq	%rbp
	retq
	.cfi_endproc

	.p2align	4, 0x90
__ZN4core3ptr13drop_in_place17h92e190887cfa8ffbE:
Lfunc_begin12:
	.cfi_startproc
	.cfi_personality 155, _rust_eh_personality
	.cfi_lsda 16, Lexception12
	pushq	%rbp
	.cfi_def_cfa_offset 16
	.cfi_offset %rbp, -16
	movq	%rsp, %rbp
	.cfi_def_cfa_register %rbp
	subq	$32, %rsp
Ltmp48:
	movq	%rdi, -32(%rbp)
	callq	__ZN66_$LT$std..ffi..c_str..CString$u20$as$u20$core..ops..drop..Drop$GT$4drop17h3a62b21181120701E
Ltmp49:
	jmp	LBB75_4
LBB75_1:
	movq	-16(%rbp), %rdi
	callq	__Unwind_Resume
	ud2
LBB75_2:
	addq	$32, %rsp
	popq	%rbp
	retq
LBB75_3:
	movq	-32(%rbp), %rax
	movq	%rax, %rdi
	callq	__ZN4core3ptr13drop_in_place17h3a0002a036f353feE
	jmp	LBB75_1
LBB75_4:
	movq	-32(%rbp), %rax
	movq	%rax, %rdi
	callq	__ZN4core3ptr13drop_in_place17h3a0002a036f353feE
	jmp	LBB75_2
LBB75_5:
Ltmp50:
	movq	%rax, -16(%rbp)
	movl	%edx, -8(%rbp)
	jmp	LBB75_3
Lfunc_end12:
	.cfi_endproc
	.section	__TEXT,__gcc_except_tab
	.p2align	2
GCC_except_table75:
Lexception12:
	.byte	255
	.byte	255
	.byte	1
	.uleb128 Lcst_end12-Lcst_begin12
Lcst_begin12:
	.uleb128 Ltmp48-Lfunc_begin12
	.uleb128 Ltmp49-Ltmp48
	.uleb128 Ltmp50-Lfunc_begin12
	.byte	0
	.uleb128 Ltmp49-Lfunc_begin12
	.uleb128 Lfunc_end12-Ltmp49
	.byte	0
	.byte	0
Lcst_end12:
	.p2align	2

	.section	__TEXT,__text,regular,pure_instructions
	.p2align	4, 0x90
__ZN4core3ptr13drop_in_place17h9762fc259c8691c9E:
	.cfi_startproc
	pushq	%rbp
	.cfi_def_cfa_offset 16
	.cfi_offset %rbp, -16
	movq	%rsp, %rbp
	.cfi_def_cfa_register %rbp
	subq	$16, %rsp
	callq	__ZN77_$LT$alloc..raw_vec..RawVec$LT$T$C$A$GT$$u20$as$u20$core..ops..drop..Drop$GT$4drop17h7712e0fbcba89c2aE
	addq	$16, %rsp
	popq	%rbp
	retq
	.cfi_endproc

	.p2align	4, 0x90
__ZN4core3ptr13drop_in_place17h9e109c26a3b4081fE:
Lfunc_begin13:
	.cfi_startproc
	.cfi_personality 155, _rust_eh_personality
	.cfi_lsda 16, Lexception13
	pushq	%rbp
	.cfi_def_cfa_offset 16
	.cfi_offset %rbp, -16
	movq	%rsp, %rbp
	.cfi_def_cfa_register %rbp
	subq	$32, %rsp
Ltmp51:
	movq	%rdi, -32(%rbp)
	callq	__ZN66_$LT$alloc..vec..Vec$LT$T$GT$$u20$as$u20$core..ops..drop..Drop$GT$4drop17hf7f538d1669aa028E
Ltmp52:
	jmp	LBB77_4
LBB77_1:
	movq	-16(%rbp), %rdi
	callq	__Unwind_Resume
	ud2
LBB77_2:
	addq	$32, %rsp
	popq	%rbp
	retq
LBB77_3:
	movq	-32(%rbp), %rax
	movq	%rax, %rdi
	callq	__ZN4core3ptr13drop_in_place17h851d96192854157aE
	jmp	LBB77_1
LBB77_4:
	movq	-32(%rbp), %rax
	movq	%rax, %rdi
	callq	__ZN4core3ptr13drop_in_place17h851d96192854157aE
	jmp	LBB77_2
LBB77_5:
Ltmp53:
	movq	%rax, -16(%rbp)
	movl	%edx, -8(%rbp)
	jmp	LBB77_3
Lfunc_end13:
	.cfi_endproc
	.section	__TEXT,__gcc_except_tab
	.p2align	2
GCC_except_table77:
Lexception13:
	.byte	255
	.byte	255
	.byte	1
	.uleb128 Lcst_end13-Lcst_begin13
Lcst_begin13:
	.uleb128 Ltmp51-Lfunc_begin13
	.uleb128 Ltmp52-Ltmp51
	.uleb128 Ltmp53-Lfunc_begin13
	.byte	0
	.uleb128 Ltmp52-Lfunc_begin13
	.uleb128 Lfunc_end13-Ltmp52
	.byte	0
	.byte	0
Lcst_end13:
	.p2align	2

	.section	__TEXT,__text,regular,pure_instructions
	.p2align	4, 0x90
__ZN4core3ptr13drop_in_place17ha23eca22a7c12a4cE:
	.cfi_startproc
	pushq	%rbp
	.cfi_def_cfa_offset 16
	.cfi_offset %rbp, -16
	movq	%rsp, %rbp
	.cfi_def_cfa_register %rbp
	subq	$16, %rsp
	callq	__ZN4core3ptr13drop_in_place17h9e109c26a3b4081fE
	addq	$16, %rsp
	popq	%rbp
	retq
	.cfi_endproc

	.p2align	4, 0x90
__ZN4core3ptr13drop_in_place17had79dc516c5a3e1bE:
	.cfi_startproc
	pushq	%rbp
	.cfi_def_cfa_offset 16
	.cfi_offset %rbp, -16
	movq	%rsp, %rbp
	.cfi_def_cfa_register %rbp
	subq	$16, %rsp
	callq	__ZN70_$LT$std..sys..unix..fd..FileDesc$u20$as$u20$core..ops..drop..Drop$GT$4drop17h633394f1cf9da1c8E
	addq	$16, %rsp
	popq	%rbp
	retq
	.cfi_endproc

	.p2align	4, 0x90
__ZN4core3ptr13drop_in_place17hb296fdf93f7dce7dE:
	.cfi_startproc
	pushq	%rbp
	.cfi_def_cfa_offset 16
	.cfi_offset %rbp, -16
	movq	%rsp, %rbp
	.cfi_def_cfa_register %rbp
	subq	$16, %rsp
	xorl	%eax, %eax
	movl	%eax, %ecx
	cmpq	$0, (%rdi)
	movl	$1, %edx
	cmovbeq	%rcx, %rdx
	cmpq	$0, %rdx
	movq	%rdi, -16(%rbp)
	jne	LBB80_2
LBB80_1:
	addq	$16, %rsp
	popq	%rbp
	retq
LBB80_2:
	movq	-16(%rbp), %rax
	movq	%rax, %rdi
	callq	__ZN4core3ptr13drop_in_place17hbbcaa03185865565E
	jmp	LBB80_1
	.cfi_endproc

	.p2align	4, 0x90
__ZN4core3ptr13drop_in_place17hb571a08c79d8e7ffE:
Lfunc_begin14:
	.cfi_startproc
	.cfi_personality 155, _rust_eh_personality
	.cfi_lsda 16, Lexception14
	pushq	%rbp
	.cfi_def_cfa_offset 16
	.cfi_offset %rbp, -16
	movq	%rsp, %rbp
	.cfi_def_cfa_register %rbp
	subq	$32, %rsp
Ltmp54:
	movq	%rdi, -32(%rbp)
	callq	__ZN4core3ptr13drop_in_place17h9e109c26a3b4081fE
Ltmp55:
	jmp	LBB81_4
LBB81_1:
	movq	-16(%rbp), %rdi
	callq	__Unwind_Resume
	ud2
LBB81_2:
	addq	$32, %rsp
	popq	%rbp
	retq
LBB81_3:
	movq	-32(%rbp), %rax
	addq	$24, %rax
	movq	%rax, %rdi
	callq	__ZN4core3ptr13drop_in_place17h9e109c26a3b4081fE
	jmp	LBB81_1
LBB81_4:
	movq	-32(%rbp), %rax
	addq	$24, %rax
	movq	%rax, %rdi
	callq	__ZN4core3ptr13drop_in_place17h9e109c26a3b4081fE
	jmp	LBB81_2
LBB81_5:
Ltmp56:
	movq	%rax, -16(%rbp)
	movl	%edx, -8(%rbp)
	jmp	LBB81_3
Lfunc_end14:
	.cfi_endproc
	.section	__TEXT,__gcc_except_tab
	.p2align	2
GCC_except_table81:
Lexception14:
	.byte	255
	.byte	255
	.byte	1
	.uleb128 Lcst_end14-Lcst_begin14
Lcst_begin14:
	.uleb128 Ltmp54-Lfunc_begin14
	.uleb128 Ltmp55-Ltmp54
	.uleb128 Ltmp56-Lfunc_begin14
	.byte	0
	.uleb128 Ltmp55-Lfunc_begin14
	.uleb128 Lfunc_end14-Ltmp55
	.byte	0
	.byte	0
Lcst_end14:
	.p2align	2

	.section	__TEXT,__text,regular,pure_instructions
	.p2align	4, 0x90
__ZN4core3ptr13drop_in_place17hbbcaa03185865565E:
	.cfi_startproc
	pushq	%rbp
	.cfi_def_cfa_offset 16
	.cfi_offset %rbp, -16
	movq	%rsp, %rbp
	.cfi_def_cfa_register %rbp
	subq	$16, %rsp
	callq	__ZN4core3ptr13drop_in_place17ha23eca22a7c12a4cE
	addq	$16, %rsp
	popq	%rbp
	retq
	.cfi_endproc

	.p2align	4, 0x90
__ZN4core3ptr13drop_in_place17hbe427af82d78a6eeE:
	.cfi_startproc
	pushq	%rbp
	.cfi_def_cfa_offset 16
	.cfi_offset %rbp, -16
	movq	%rsp, %rbp
	.cfi_def_cfa_register %rbp
	subq	$16, %rsp
	xorl	%eax, %eax
	movl	%eax, %ecx
	cmpq	$0, (%rdi)
	movl	$1, %edx
	cmovbeq	%rcx, %rdx
	cmpq	$0, %rdx
	movq	%rdi, -16(%rbp)
	jne	LBB83_2
LBB83_1:
	addq	$16, %rsp
	popq	%rbp
	retq
LBB83_2:
	movq	-16(%rbp), %rdi
	callq	__ZN4core3ptr13drop_in_place17h92e190887cfa8ffbE
	jmp	LBB83_1
	.cfi_endproc

	.p2align	4, 0x90
__ZN4core3ptr13drop_in_place17hbfbe558257607d97E:
	.cfi_startproc
	pushq	%rbp
	.cfi_def_cfa_offset 16
	.cfi_offset %rbp, -16
	movq	%rsp, %rbp
	.cfi_def_cfa_register %rbp
	subq	$16, %rsp
	callq	__ZN77_$LT$alloc..raw_vec..RawVec$LT$T$C$A$GT$$u20$as$u20$core..ops..drop..Drop$GT$4drop17h14539fdc5fd94e82E
	addq	$16, %rsp
	popq	%rbp
	retq
	.cfi_endproc

	.p2align	4, 0x90
__ZN4core3ptr13drop_in_place17hc12e3ddff6ef4ef0E:
	.cfi_startproc
	pushq	%rbp
	.cfi_def_cfa_offset 16
	.cfi_offset %rbp, -16
	movq	%rsp, %rbp
	.cfi_def_cfa_register %rbp
	subq	$16, %rsp
	movb	(%rdi), %al
	subb	$1, %al
	movq	%rdi, -16(%rbp)
	ja	LBB85_2
	jmp	LBB85_1
LBB85_1:
	addq	$16, %rsp
	popq	%rbp
	retq
LBB85_2:
	movq	-16(%rbp), %rax
	addq	$8, %rax
	movq	%rax, %rdi
	callq	__ZN4core3ptr13drop_in_place17h19f35864bb18b7ffE
	jmp	LBB85_1
	.cfi_endproc

	.p2align	4, 0x90
__ZN4core3ptr13drop_in_place17hc8b7303738f8fe45E:
Lfunc_begin15:
	.cfi_startproc
	.cfi_personality 155, _rust_eh_personality
	.cfi_lsda 16, Lexception15
	pushq	%rbp
	.cfi_def_cfa_offset 16
	.cfi_offset %rbp, -16
	movq	%rsp, %rbp
	.cfi_def_cfa_register %rbp
	subq	$32, %rsp
Ltmp57:
	movq	%rdi, -32(%rbp)
	callq	__ZN4core3ptr13drop_in_place17h92e190887cfa8ffbE
Ltmp58:
	jmp	LBB86_18
LBB86_1:
	movq	-16(%rbp), %rdi
	callq	__Unwind_Resume
	ud2
LBB86_2:
	addq	$32, %rsp
	popq	%rbp
	retq
LBB86_3:
	movq	-32(%rbp), %rax
	addq	$168, %rax
	movq	%rax, %rdi
	callq	__ZN4core3ptr13drop_in_place17hf9261b76aebacaaaE
	jmp	LBB86_1
LBB86_4:
	movq	-32(%rbp), %rax
	addq	$160, %rax
	movq	%rax, %rdi
	callq	__ZN4core3ptr13drop_in_place17hf9261b76aebacaaaE
	jmp	LBB86_3
LBB86_5:
	movq	-32(%rbp), %rax
	addq	$152, %rax
	movq	%rax, %rdi
	callq	__ZN4core3ptr13drop_in_place17hf9261b76aebacaaaE
	jmp	LBB86_4
LBB86_6:
	movq	-32(%rbp), %rax
	addq	$112, %rax
	movq	%rax, %rdi
	callq	__ZN4core3ptr13drop_in_place17hfcce02e6a5bdc7f2E
	jmp	LBB86_5
LBB86_7:
	movq	-32(%rbp), %rax
	addq	$96, %rax
	movq	%rax, %rdi
	callq	__ZN4core3ptr13drop_in_place17hbe427af82d78a6eeE
	jmp	LBB86_6
LBB86_8:
	movq	-32(%rbp), %rax
	addq	$64, %rax
	movq	%rax, %rdi
	callq	__ZN4core3ptr13drop_in_place17hd8ff52d92d98de41E
	jmp	LBB86_7
LBB86_9:
	movq	-32(%rbp), %rax
	addq	$40, %rax
	movq	%rax, %rdi
	callq	__ZN4core3ptr13drop_in_place17h3043a21abf7b761bE
	jmp	LBB86_8
LBB86_10:
	movq	-32(%rbp), %rax
	addq	$16, %rax
	movq	%rax, %rdi
	callq	__ZN4core3ptr13drop_in_place17h0e356166067ea778E
	jmp	LBB86_9
LBB86_11:
	movq	-32(%rbp), %rax
	addq	$168, %rax
	movq	%rax, %rdi
	callq	__ZN4core3ptr13drop_in_place17hf9261b76aebacaaaE
	jmp	LBB86_2
LBB86_12:
	movq	-32(%rbp), %rax
	addq	$160, %rax
Ltmp78:
	movq	%rax, %rdi
	callq	__ZN4core3ptr13drop_in_place17hf9261b76aebacaaaE
Ltmp79:
	jmp	LBB86_11
LBB86_13:
	movq	-32(%rbp), %rax
	addq	$152, %rax
Ltmp75:
	movq	%rax, %rdi
	callq	__ZN4core3ptr13drop_in_place17hf9261b76aebacaaaE
Ltmp76:
	jmp	LBB86_12
LBB86_14:
	movq	-32(%rbp), %rax
	addq	$112, %rax
Ltmp72:
	movq	%rax, %rdi
	callq	__ZN4core3ptr13drop_in_place17hfcce02e6a5bdc7f2E
Ltmp73:
	jmp	LBB86_13
LBB86_15:
	movq	-32(%rbp), %rax
	addq	$96, %rax
Ltmp69:
	movq	%rax, %rdi
	callq	__ZN4core3ptr13drop_in_place17hbe427af82d78a6eeE
Ltmp70:
	jmp	LBB86_14
LBB86_16:
	movq	-32(%rbp), %rax
	addq	$64, %rax
Ltmp66:
	movq	%rax, %rdi
	callq	__ZN4core3ptr13drop_in_place17hd8ff52d92d98de41E
Ltmp67:
	jmp	LBB86_15
LBB86_17:
	movq	-32(%rbp), %rax
	addq	$40, %rax
Ltmp63:
	movq	%rax, %rdi
	callq	__ZN4core3ptr13drop_in_place17h3043a21abf7b761bE
Ltmp64:
	jmp	LBB86_16
LBB86_18:
	movq	-32(%rbp), %rax
	addq	$16, %rax
Ltmp60:
	movq	%rax, %rdi
	callq	__ZN4core3ptr13drop_in_place17h0e356166067ea778E
Ltmp61:
	jmp	LBB86_17
LBB86_19:
Ltmp59:
	movq	%rax, -16(%rbp)
	movl	%edx, -8(%rbp)
	jmp	LBB86_10
LBB86_20:
Ltmp62:
	movq	%rax, -16(%rbp)
	movl	%edx, -8(%rbp)
	jmp	LBB86_9
LBB86_21:
Ltmp65:
	movq	%rax, -16(%rbp)
	movl	%edx, -8(%rbp)
	jmp	LBB86_8
LBB86_22:
Ltmp68:
	movq	%rax, -16(%rbp)
	movl	%edx, -8(%rbp)
	jmp	LBB86_7
LBB86_23:
Ltmp71:
	movq	%rax, -16(%rbp)
	movl	%edx, -8(%rbp)
	jmp	LBB86_6
LBB86_24:
Ltmp74:
	movq	%rax, -16(%rbp)
	movl	%edx, -8(%rbp)
	jmp	LBB86_5
LBB86_25:
Ltmp77:
	movq	%rax, -16(%rbp)
	movl	%edx, -8(%rbp)
	jmp	LBB86_4
LBB86_26:
Ltmp80:
	movq	%rax, -16(%rbp)
	movl	%edx, -8(%rbp)
	jmp	LBB86_3
Lfunc_end15:
	.cfi_endproc
	.section	__TEXT,__gcc_except_tab
	.p2align	2
GCC_except_table86:
Lexception15:
	.byte	255
	.byte	255
	.byte	1
	.uleb128 Lcst_end15-Lcst_begin15
Lcst_begin15:
	.uleb128 Ltmp57-Lfunc_begin15
	.uleb128 Ltmp58-Ltmp57
	.uleb128 Ltmp59-Lfunc_begin15
	.byte	0
	.uleb128 Ltmp58-Lfunc_begin15
	.uleb128 Ltmp78-Ltmp58
	.byte	0
	.byte	0
	.uleb128 Ltmp78-Lfunc_begin15
	.uleb128 Ltmp79-Ltmp78
	.uleb128 Ltmp80-Lfunc_begin15
	.byte	0
	.uleb128 Ltmp75-Lfunc_begin15
	.uleb128 Ltmp76-Ltmp75
	.uleb128 Ltmp77-Lfunc_begin15
	.byte	0
	.uleb128 Ltmp72-Lfunc_begin15
	.uleb128 Ltmp73-Ltmp72
	.uleb128 Ltmp74-Lfunc_begin15
	.byte	0
	.uleb128 Ltmp69-Lfunc_begin15
	.uleb128 Ltmp70-Ltmp69
	.uleb128 Ltmp71-Lfunc_begin15
	.byte	0
	.uleb128 Ltmp66-Lfunc_begin15
	.uleb128 Ltmp67-Ltmp66
	.uleb128 Ltmp68-Lfunc_begin15
	.byte	0
	.uleb128 Ltmp63-Lfunc_begin15
	.uleb128 Ltmp64-Ltmp63
	.uleb128 Ltmp65-Lfunc_begin15
	.byte	0
	.uleb128 Ltmp60-Lfunc_begin15
	.uleb128 Ltmp61-Ltmp60
	.uleb128 Ltmp62-Lfunc_begin15
	.byte	0
Lcst_end15:
	.p2align	2

	.section	__TEXT,__text,regular,pure_instructions
	.p2align	4, 0x90
__ZN4core3ptr13drop_in_place17hceee0749a2a4a8a3E:
	.cfi_startproc
	pushq	%rbp
	.cfi_def_cfa_offset 16
	.cfi_offset %rbp, -16
	movq	%rsp, %rbp
	.cfi_def_cfa_register %rbp
	subq	$16, %rsp
	callq	__ZN4core3ptr13drop_in_place17hd1a2d6ace7980a22E
	addq	$16, %rsp
	popq	%rbp
	retq
	.cfi_endproc

	.p2align	4, 0x90
__ZN4core3ptr13drop_in_place17hd1a2d6ace7980a22E:
Lfunc_begin16:
	.cfi_startproc
	.cfi_personality 155, _rust_eh_personality
	.cfi_lsda 16, Lexception16
	pushq	%rbp
	.cfi_def_cfa_offset 16
	.cfi_offset %rbp, -16
	movq	%rsp, %rbp
	.cfi_def_cfa_register %rbp
	subq	$32, %rsp
	movq	(%rdi), %rax
	movq	8(%rdi), %rcx
	movq	(%rcx), %rcx
Ltmp81:
	movq	%rdi, -32(%rbp)
	movq	%rax, %rdi
	callq	*%rcx
Ltmp82:
	jmp	LBB88_3
LBB88_1:
	addq	$32, %rsp
	popq	%rbp
	retq
LBB88_2:
	movq	-16(%rbp), %rdi
	callq	__Unwind_Resume
	ud2
LBB88_3:
	movq	-32(%rbp), %rax
	movq	(%rax), %rdi
	movq	8(%rax), %rsi
	callq	__ZN5alloc5alloc8box_free17he11fd0adc9ca59cdE
	jmp	LBB88_1
LBB88_4:
	movq	-32(%rbp), %rax
	movq	(%rax), %rdi
	movq	8(%rax), %rsi
	callq	__ZN5alloc5alloc8box_free17he11fd0adc9ca59cdE
	jmp	LBB88_2
LBB88_5:
Ltmp83:
	movq	%rax, -16(%rbp)
	movl	%edx, -8(%rbp)
	jmp	LBB88_4
Lfunc_end16:
	.cfi_endproc
	.section	__TEXT,__gcc_except_tab
	.p2align	2
GCC_except_table88:
Lexception16:
	.byte	255
	.byte	255
	.byte	1
	.uleb128 Lcst_end16-Lcst_begin16
Lcst_begin16:
	.uleb128 Ltmp81-Lfunc_begin16
	.uleb128 Ltmp82-Ltmp81
	.uleb128 Ltmp83-Lfunc_begin16
	.byte	0
	.uleb128 Ltmp82-Lfunc_begin16
	.uleb128 Lfunc_end16-Ltmp82
	.byte	0
	.byte	0
Lcst_end16:
	.p2align	2

	.section	__TEXT,__text,regular,pure_instructions
	.p2align	4, 0x90
__ZN4core3ptr13drop_in_place17hd20a627f435ffc70E:
	.cfi_startproc
	pushq	%rbp
	.cfi_def_cfa_offset 16
	.cfi_offset %rbp, -16
	movq	%rsp, %rbp
	.cfi_def_cfa_register %rbp
	subq	$16, %rsp
	callq	__ZN77_$LT$alloc..raw_vec..RawVec$LT$T$C$A$GT$$u20$as$u20$core..ops..drop..Drop$GT$4drop17h8b3eae34d8340b28E
	addq	$16, %rsp
	popq	%rbp
	retq
	.cfi_endproc

	.p2align	4, 0x90
__ZN4core3ptr13drop_in_place17hd8ff52d92d98de41E:
	.cfi_startproc
	pushq	%rbp
	.cfi_def_cfa_offset 16
	.cfi_offset %rbp, -16
	movq	%rsp, %rbp
	.cfi_def_cfa_register %rbp
	subq	$16, %rsp
	callq	__ZN4core3ptr13drop_in_place17hf541a75c286c843dE
	addq	$16, %rsp
	popq	%rbp
	retq
	.cfi_endproc

	.p2align	4, 0x90
__ZN4core3ptr13drop_in_place17hdd7aa19e43774062E:
	.cfi_startproc
	pushq	%rbp
	.cfi_def_cfa_offset 16
	.cfi_offset %rbp, -16
	movq	%rsp, %rbp
	.cfi_def_cfa_register %rbp
	subq	$16, %rsp
	callq	__ZN95_$LT$alloc..collections..btree..map..IntoIter$LT$K$C$V$GT$$u20$as$u20$core..ops..drop..Drop$GT$4drop17h98fe1c0d8ce178bbE
	addq	$16, %rsp
	popq	%rbp
	retq
	.cfi_endproc

	.p2align	4, 0x90
__ZN4core3ptr13drop_in_place17hf541a75c286c843dE:
	.cfi_startproc
	pushq	%rbp
	.cfi_def_cfa_offset 16
	.cfi_offset %rbp, -16
	movq	%rsp, %rbp
	.cfi_def_cfa_register %rbp
	subq	$16, %rsp
	callq	__ZN95_$LT$alloc..collections..btree..map..BTreeMap$LT$K$C$V$GT$$u20$as$u20$core..ops..drop..Drop$GT$4drop17h180b823171b5f589E
	addq	$16, %rsp
	popq	%rbp
	retq
	.cfi_endproc

	.p2align	4, 0x90
__ZN4core3ptr13drop_in_place17hf7bd367f0ddea95eE:
Lfunc_begin17:
	.cfi_startproc
	.cfi_personality 155, _rust_eh_personality
	.cfi_lsda 16, Lexception17
	pushq	%rbp
	.cfi_def_cfa_offset 16
	.cfi_offset %rbp, -16
	movq	%rsp, %rbp
	.cfi_def_cfa_register %rbp
	subq	$32, %rsp
Ltmp84:
	movq	%rdi, -32(%rbp)
	callq	__ZN4core3ptr13drop_in_place17hbbcaa03185865565E
Ltmp85:
	jmp	LBB93_4
LBB93_1:
	movq	-16(%rbp), %rdi
	callq	__Unwind_Resume
	ud2
LBB93_2:
	addq	$32, %rsp
	popq	%rbp
	retq
LBB93_3:
	movq	-32(%rbp), %rax
	addq	$24, %rax
	movq	%rax, %rdi
	callq	__ZN4core3ptr13drop_in_place17hb296fdf93f7dce7dE
	jmp	LBB93_1
LBB93_4:
	movq	-32(%rbp), %rax
	addq	$24, %rax
	movq	%rax, %rdi
	callq	__ZN4core3ptr13drop_in_place17hb296fdf93f7dce7dE
	jmp	LBB93_2
LBB93_5:
Ltmp86:
	movq	%rax, -16(%rbp)
	movl	%edx, -8(%rbp)
	jmp	LBB93_3
Lfunc_end17:
	.cfi_endproc
	.section	__TEXT,__gcc_except_tab
	.p2align	2
GCC_except_table93:
Lexception17:
	.byte	255
	.byte	255
	.byte	1
	.uleb128 Lcst_end17-Lcst_begin17
Lcst_begin17:
	.uleb128 Ltmp84-Lfunc_begin17
	.uleb128 Ltmp85-Ltmp84
	.uleb128 Ltmp86-Lfunc_begin17
	.byte	0
	.uleb128 Ltmp85-Lfunc_begin17
	.uleb128 Lfunc_end17-Ltmp85
	.byte	0
	.byte	0
Lcst_end17:
	.p2align	2

	.section	__TEXT,__text,regular,pure_instructions
	.p2align	4, 0x90
__ZN4core3ptr13drop_in_place17hf9261b76aebacaaaE:
	.cfi_startproc
	pushq	%rbp
	.cfi_def_cfa_offset 16
	.cfi_offset %rbp, -16
	movq	%rsp, %rbp
	.cfi_def_cfa_register %rbp
	subq	$16, %rsp
	xorl	%eax, %eax
	movl	%eax, %ecx
	movl	(%rdi), %eax
	subl	$4, %eax
	cmpl	$0, %eax
	movl	$1, %edx
	cmovbeq	%rcx, %rdx
	cmpq	$0, %rdx
	movq	%rdi, -16(%rbp)
	jne	LBB94_2
LBB94_1:
	addq	$16, %rsp
	popq	%rbp
	retq
LBB94_2:
	movq	-16(%rbp), %rdi
	callq	__ZN4core3ptr13drop_in_place17h512a324dc6e9f2d7E
	jmp	LBB94_1
	.cfi_endproc

	.p2align	4, 0x90
__ZN4core3ptr13drop_in_place17hfb6eebec22f70437E:
Lfunc_begin18:
	.cfi_startproc
	.cfi_personality 155, _rust_eh_personality
	.cfi_lsda 16, Lexception18
	pushq	%rbp
	.cfi_def_cfa_offset 16
	.cfi_offset %rbp, -16
	movq	%rsp, %rbp
	.cfi_def_cfa_register %rbp
	subq	$32, %rsp
Ltmp87:
	movq	%rdi, -32(%rbp)
	callq	__ZN66_$LT$alloc..vec..Vec$LT$T$GT$$u20$as$u20$core..ops..drop..Drop$GT$4drop17h872868448a330f7cE
Ltmp88:
	jmp	LBB95_4
LBB95_1:
	movq	-16(%rbp), %rdi
	callq	__Unwind_Resume
	ud2
LBB95_2:
	addq	$32, %rsp
	popq	%rbp
	retq
LBB95_3:
	movq	-32(%rbp), %rax
	movq	%rax, %rdi
	callq	__ZN4core3ptr13drop_in_place17hbfbe558257607d97E
	jmp	LBB95_1
LBB95_4:
	movq	-32(%rbp), %rax
	movq	%rax, %rdi
	callq	__ZN4core3ptr13drop_in_place17hbfbe558257607d97E
	jmp	LBB95_2
LBB95_5:
Ltmp89:
	movq	%rax, -16(%rbp)
	movl	%edx, -8(%rbp)
	jmp	LBB95_3
Lfunc_end18:
	.cfi_endproc
	.section	__TEXT,__gcc_except_tab
	.p2align	2
GCC_except_table95:
Lexception18:
	.byte	255
	.byte	255
	.byte	1
	.uleb128 Lcst_end18-Lcst_begin18
Lcst_begin18:
	.uleb128 Ltmp87-Lfunc_begin18
	.uleb128 Ltmp88-Ltmp87
	.uleb128 Ltmp89-Lfunc_begin18
	.byte	0
	.uleb128 Ltmp88-Lfunc_begin18
	.uleb128 Lfunc_end18-Ltmp88
	.byte	0
	.byte	0
Lcst_end18:
	.p2align	2

	.section	__TEXT,__text,regular,pure_instructions
	.p2align	4, 0x90
__ZN4core3ptr13drop_in_place17hfcce02e6a5bdc7f2E:
Lfunc_begin19:
	.cfi_startproc
	.cfi_personality 155, _rust_eh_personality
	.cfi_lsda 16, Lexception19
	pushq	%rbp
	.cfi_def_cfa_offset 16
	.cfi_offset %rbp, -16
	movq	%rsp, %rbp
	.cfi_def_cfa_register %rbp
	subq	$32, %rsp
Ltmp90:
	movq	%rdi, -32(%rbp)
	callq	__ZN66_$LT$alloc..vec..Vec$LT$T$GT$$u20$as$u20$core..ops..drop..Drop$GT$4drop17h4b2c6d5c24834f88E
Ltmp91:
	jmp	LBB96_4
LBB96_1:
	movq	-16(%rbp), %rdi
	callq	__Unwind_Resume
	ud2
LBB96_2:
	addq	$32, %rsp
	popq	%rbp
	retq
LBB96_3:
	movq	-32(%rbp), %rax
	movq	%rax, %rdi
	callq	__ZN4core3ptr13drop_in_place17hd20a627f435ffc70E
	jmp	LBB96_1
LBB96_4:
	movq	-32(%rbp), %rax
	movq	%rax, %rdi
	callq	__ZN4core3ptr13drop_in_place17hd20a627f435ffc70E
	jmp	LBB96_2
LBB96_5:
Ltmp92:
	movq	%rax, -16(%rbp)
	movl	%edx, -8(%rbp)
	jmp	LBB96_3
Lfunc_end19:
	.cfi_endproc
	.section	__TEXT,__gcc_except_tab
	.p2align	2
GCC_except_table96:
Lexception19:
	.byte	255
	.byte	255
	.byte	1
	.uleb128 Lcst_end19-Lcst_begin19
Lcst_begin19:
	.uleb128 Ltmp90-Lfunc_begin19
	.uleb128 Ltmp91-Ltmp90
	.uleb128 Ltmp92-Lfunc_begin19
	.byte	0
	.uleb128 Ltmp91-Lfunc_begin19
	.uleb128 Lfunc_end19-Ltmp91
	.byte	0
	.byte	0
Lcst_end19:
	.p2align	2

	.section	__TEXT,__text,regular,pure_instructions
	.p2align	4, 0x90
__ZN4core3ptr19swap_nonoverlapping17h0644061e6928338cE:
	.cfi_startproc
	pushq	%rbp
	.cfi_def_cfa_offset 16
	.cfi_offset %rbp, -16
	movq	%rsp, %rbp
	.cfi_def_cfa_register %rbp
	subq	$48, %rsp
	movq	$8, -8(%rbp)
	movq	-8(%rbp), %rax
	movq	%rdx, -16(%rbp)
	movq	%rdi, -24(%rbp)
	movq	%rsi, -32(%rbp)
	movq	%rax, -40(%rbp)
	movq	-40(%rbp), %rax
	movq	-16(%rbp), %rcx
	imulq	%rcx, %rax
	movq	-24(%rbp), %rdi
	movq	-32(%rbp), %rsi
	movq	%rax, %rdx
	callq	__ZN4core3ptr25swap_nonoverlapping_bytes17h2ff0b9f91ff84ff2E
	addq	$48, %rsp
	popq	%rbp
	retq
	.cfi_endproc

	.p2align	4, 0x90
__ZN4core3ptr19swap_nonoverlapping17hfa1e612783dd9c01E:
	.cfi_startproc
	pushq	%rbp
	.cfi_def_cfa_offset 16
	.cfi_offset %rbp, -16
	movq	%rsp, %rbp
	.cfi_def_cfa_register %rbp
	subq	$48, %rsp
	movq	$16, -8(%rbp)
	movq	-8(%rbp), %rax
	movq	%rdx, -16(%rbp)
	movq	%rdi, -24(%rbp)
	movq	%rsi, -32(%rbp)
	movq	%rax, -40(%rbp)
	movq	-40(%rbp), %rax
	movq	-16(%rbp), %rcx
	imulq	%rcx, %rax
	movq	-24(%rbp), %rdi
	movq	-32(%rbp), %rsi
	movq	%rax, %rdx
	callq	__ZN4core3ptr25swap_nonoverlapping_bytes17h2ff0b9f91ff84ff2E
	addq	$48, %rsp
	popq	%rbp
	retq
	.cfi_endproc

	.p2align	4, 0x90
__ZN4core3ptr20slice_from_raw_parts17h7d995bd6d2dcd032E:
	.cfi_startproc
	pushq	%rbp
	.cfi_def_cfa_offset 16
	.cfi_offset %rbp, -16
	movq	%rsp, %rbp
	.cfi_def_cfa_register %rbp
	subq	$32, %rsp
	movq	%rdi, -16(%rbp)
	movq	%rsi, -8(%rbp)
	movq	-16(%rbp), %rax
	movq	-8(%rbp), %rcx
	movq	%rax, -32(%rbp)
	movq	%rcx, -24(%rbp)
	movq	-32(%rbp), %rax
	movq	-24(%rbp), %rdx
	addq	$32, %rsp
	popq	%rbp
	retq
	.cfi_endproc

	.p2align	4, 0x90
__ZN4core3ptr20slice_from_raw_parts17h8804598fc9ca57c5E:
	.cfi_startproc
	pushq	%rbp
	.cfi_def_cfa_offset 16
	.cfi_offset %rbp, -16
	movq	%rsp, %rbp
	.cfi_def_cfa_register %rbp
	subq	$32, %rsp
	movq	%rdi, -16(%rbp)
	movq	%rsi, -8(%rbp)
	movq	-16(%rbp), %rax
	movq	-8(%rbp), %rcx
	movq	%rax, -32(%rbp)
	movq	%rcx, -24(%rbp)
	movq	-32(%rbp), %rax
	movq	-24(%rbp), %rdx
	addq	$32, %rsp
	popq	%rbp
	retq
	.cfi_endproc

	.p2align	4, 0x90
__ZN4core3ptr20slice_from_raw_parts17hcbbc5a87d26a3dcaE:
	.cfi_startproc
	pushq	%rbp
	.cfi_def_cfa_offset 16
	.cfi_offset %rbp, -16
	movq	%rsp, %rbp
	.cfi_def_cfa_register %rbp
	subq	$32, %rsp
	movq	%rdi, -16(%rbp)
	movq	%rsi, -8(%rbp)
	movq	-16(%rbp), %rax
	movq	-8(%rbp), %rcx
	movq	%rax, -32(%rbp)
	movq	%rcx, -24(%rbp)
	movq	-32(%rbp), %rax
	movq	-24(%rbp), %rdx
	addq	$32, %rsp
	popq	%rbp
	retq
	.cfi_endproc

	.p2align	4, 0x90
__ZN4core3ptr23swap_nonoverlapping_one17h0986a9a5693b15b5E:
Lfunc_begin20:
	.cfi_startproc
	.cfi_personality 155, _rust_eh_personality
	.cfi_lsda 16, Lexception20
	pushq	%rbp
	.cfi_def_cfa_offset 16
	.cfi_offset %rbp, -16
	movq	%rsp, %rbp
	.cfi_def_cfa_register %rbp
	subq	$80, %rsp
	movb	$0, -25(%rbp)
	movq	$16, -8(%rbp)
	movq	-8(%rbp), %rax
	movq	%rdi, -40(%rbp)
	movq	%rsi, -48(%rbp)
	movq	%rax, -56(%rbp)
	jmp	LBB102_2
LBB102_1:
	movq	-24(%rbp), %rdi
	callq	__Unwind_Resume
	ud2
LBB102_2:
	movq	-56(%rbp), %rax
	cmpq	$32, %rax
	jb	LBB102_4
	movq	-40(%rbp), %rdi
	movq	-48(%rbp), %rsi
	movl	$1, %edx
	callq	__ZN4core3ptr19swap_nonoverlapping17hfa1e612783dd9c01E
	jmp	LBB102_8
LBB102_4:
	movb	$1, -25(%rbp)
	movq	-40(%rbp), %rdi
	callq	__ZN4core3ptr4read17h30e1daf5415eac59E
	movq	%rax, -64(%rbp)
	movq	%rdx, -72(%rbp)
Ltmp93:
	movl	$1, %edx
	movq	-48(%rbp), %rdi
	movq	-40(%rbp), %rsi
	callq	__ZN4core10intrinsics19copy_nonoverlapping17h62f6b6c8b7a46d77E
Ltmp94:
	jmp	LBB102_6
LBB102_6:
	movb	$0, -25(%rbp)
Ltmp95:
	movq	-48(%rbp), %rdi
	movq	-64(%rbp), %rsi
	movq	-72(%rbp), %rdx
	callq	__ZN4core3ptr5write17h8981aa20960d7214E
Ltmp96:
	jmp	LBB102_7
LBB102_7:
	movb	$0, -25(%rbp)
	jmp	LBB102_9
LBB102_8:
	jmp	LBB102_9
LBB102_9:
	addq	$80, %rsp
	popq	%rbp
	retq
LBB102_10:
	movb	$0, -25(%rbp)
	jmp	LBB102_1
LBB102_11:
	testb	$1, -25(%rbp)
	jne	LBB102_10
	jmp	LBB102_1
LBB102_12:
Ltmp97:
	movq	%rax, -24(%rbp)
	movl	%edx, -16(%rbp)
	jmp	LBB102_11
Lfunc_end20:
	.cfi_endproc
	.section	__TEXT,__gcc_except_tab
	.p2align	2
GCC_except_table102:
Lexception20:
	.byte	255
	.byte	255
	.byte	1
	.uleb128 Lcst_end20-Lcst_begin20
Lcst_begin20:
	.uleb128 Lfunc_begin20-Lfunc_begin20
	.uleb128 Ltmp93-Lfunc_begin20
	.byte	0
	.byte	0
	.uleb128 Ltmp93-Lfunc_begin20
	.uleb128 Ltmp96-Ltmp93
	.uleb128 Ltmp97-Lfunc_begin20
	.byte	0
Lcst_end20:
	.p2align	2

	.section	__TEXT,__text,regular,pure_instructions
	.p2align	4, 0x90
__ZN4core3ptr23swap_nonoverlapping_one17h819654271c7a6852E:
Lfunc_begin21:
	.cfi_startproc
	.cfi_personality 155, _rust_eh_personality
	.cfi_lsda 16, Lexception21
	pushq	%rbp
	.cfi_def_cfa_offset 16
	.cfi_offset %rbp, -16
	movq	%rsp, %rbp
	.cfi_def_cfa_register %rbp
	subq	$64, %rsp
	movb	$0, -25(%rbp)
	movq	$8, -8(%rbp)
	movq	-8(%rbp), %rax
	movq	%rdi, -40(%rbp)
	movq	%rsi, -48(%rbp)
	movq	%rax, -56(%rbp)
	jmp	LBB103_2
LBB103_1:
	movq	-24(%rbp), %rdi
	callq	__Unwind_Resume
	ud2
LBB103_2:
	movq	-56(%rbp), %rax
	cmpq	$32, %rax
	jb	LBB103_4
	movq	-40(%rbp), %rdi
	movq	-48(%rbp), %rsi
	movl	$1, %edx
	callq	__ZN4core3ptr19swap_nonoverlapping17h0644061e6928338cE
	jmp	LBB103_8
LBB103_4:
	movb	$1, -25(%rbp)
	movq	-40(%rbp), %rdi
	callq	__ZN4core3ptr4read17h9e7a5b2b6ae0c930E
	movq	%rax, -64(%rbp)
Ltmp98:
	movl	$1, %edx
	movq	-48(%rbp), %rdi
	movq	-40(%rbp), %rsi
	callq	__ZN4core10intrinsics19copy_nonoverlapping17h4a851177437403edE
Ltmp99:
	jmp	LBB103_6
LBB103_6:
	movb	$0, -25(%rbp)
Ltmp100:
	movq	-48(%rbp), %rdi
	movq	-64(%rbp), %rsi
	callq	__ZN4core3ptr5write17h497ab0be2e3c842bE
Ltmp101:
	jmp	LBB103_7
LBB103_7:
	movb	$0, -25(%rbp)
	jmp	LBB103_9
LBB103_8:
	jmp	LBB103_9
LBB103_9:
	addq	$64, %rsp
	popq	%rbp
	retq
LBB103_10:
	movb	$0, -25(%rbp)
	jmp	LBB103_1
LBB103_11:
	testb	$1, -25(%rbp)
	jne	LBB103_10
	jmp	LBB103_1
LBB103_12:
Ltmp102:
	movq	%rax, -24(%rbp)
	movl	%edx, -16(%rbp)
	jmp	LBB103_11
Lfunc_end21:
	.cfi_endproc
	.section	__TEXT,__gcc_except_tab
	.p2align	2
GCC_except_table103:
Lexception21:
	.byte	255
	.byte	255
	.byte	1
	.uleb128 Lcst_end21-Lcst_begin21
Lcst_begin21:
	.uleb128 Lfunc_begin21-Lfunc_begin21
	.uleb128 Ltmp98-Lfunc_begin21
	.byte	0
	.byte	0
	.uleb128 Ltmp98-Lfunc_begin21
	.uleb128 Ltmp101-Ltmp98
	.uleb128 Ltmp102-Lfunc_begin21
	.byte	0
Lcst_end21:
	.p2align	2

	.section	__TEXT,__text,regular,pure_instructions
	.p2align	4, 0x90
__ZN4core3ptr24slice_from_raw_parts_mut17h6b12b0b378a52bfbE:
	.cfi_startproc
	pushq	%rbp
	.cfi_def_cfa_offset 16
	.cfi_offset %rbp, -16
	movq	%rsp, %rbp
	.cfi_def_cfa_register %rbp
	subq	$32, %rsp
	movq	%rdi, -16(%rbp)
	movq	%rsi, -8(%rbp)
	movq	-16(%rbp), %rax
	movq	-8(%rbp), %rcx
	movq	%rax, -32(%rbp)
	movq	%rcx, -24(%rbp)
	movq	-32(%rbp), %rax
	movq	-24(%rbp), %rdx
	addq	$32, %rsp
	popq	%rbp
	retq
	.cfi_endproc

	.p2align	4, 0x90
__ZN4core3ptr24slice_from_raw_parts_mut17ha4165f6dc3fd896cE:
	.cfi_startproc
	pushq	%rbp
	.cfi_def_cfa_offset 16
	.cfi_offset %rbp, -16
	movq	%rsp, %rbp
	.cfi_def_cfa_register %rbp
	subq	$32, %rsp
	movq	%rdi, -16(%rbp)
	movq	%rsi, -8(%rbp)
	movq	-16(%rbp), %rax
	movq	-8(%rbp), %rcx
	movq	%rax, -32(%rbp)
	movq	%rcx, -24(%rbp)
	movq	-32(%rbp), %rax
	movq	-24(%rbp), %rdx
	addq	$32, %rsp
	popq	%rbp
	retq
	.cfi_endproc

	.p2align	4, 0x90
__ZN4core3ptr24slice_from_raw_parts_mut17hbc8bb1f0cd1e72bcE:
	.cfi_startproc
	pushq	%rbp
	.cfi_def_cfa_offset 16
	.cfi_offset %rbp, -16
	movq	%rsp, %rbp
	.cfi_def_cfa_register %rbp
	subq	$32, %rsp
	movq	%rdi, -16(%rbp)
	movq	%rsi, -8(%rbp)
	movq	-16(%rbp), %rax
	movq	-8(%rbp), %rcx
	movq	%rax, -32(%rbp)
	movq	%rcx, -24(%rbp)
	movq	-32(%rbp), %rax
	movq	-24(%rbp), %rdx
	addq	$32, %rsp
	popq	%rbp
	retq
	.cfi_endproc

	.p2align	4, 0x90
__ZN4core3ptr24slice_from_raw_parts_mut17he7c7cb44a82ce2c1E:
	.cfi_startproc
	pushq	%rbp
	.cfi_def_cfa_offset 16
	.cfi_offset %rbp, -16
	movq	%rsp, %rbp
	.cfi_def_cfa_register %rbp
	subq	$32, %rsp
	movq	%rdi, -16(%rbp)
	movq	%rsi, -8(%rbp)
	movq	-16(%rbp), %rax
	movq	-8(%rbp), %rcx
	movq	%rax, -32(%rbp)
	movq	%rcx, -24(%rbp)
	movq	-32(%rbp), %rax
	movq	-24(%rbp), %rdx
	addq	$32, %rsp
	popq	%rbp
	retq
	.cfi_endproc

	.p2align	4, 0x90
__ZN4core3ptr25swap_nonoverlapping_bytes17h2ff0b9f91ff84ff2E:
	.cfi_startproc
	pushq	%rbp
	.cfi_def_cfa_offset 16
	.cfi_offset %rbp, -16
	movq	%rsp, %rbp
	.cfi_def_cfa_register %rbp
	andq	$-32, %rsp
	subq	$224, %rsp
	movq	$32, 200(%rsp)
	movq	200(%rsp), %rax
	movq	%rdi, 104(%rsp)
	movq	%rsi, 96(%rsp)
	movq	%rdx, 88(%rsp)
	movq	%rax, 80(%rsp)
	movq	$0, 120(%rsp)
LBB108_2:
	movq	80(%rsp), %rax
	addq	120(%rsp), %rax
	movq	88(%rsp), %rcx
	cmpq	%rcx, %rax
	jbe	LBB108_4
	movq	88(%rsp), %rax
	cmpq	%rax, 120(%rsp)
	jb	LBB108_13
	jmp	LBB108_12
LBB108_4:
	jmp	LBB108_6
LBB108_6:
	leaq	128(%rsp), %rax
	movq	120(%rsp), %rsi
	movq	104(%rsp), %rdi
	movq	%rax, 72(%rsp)
	callq	__ZN4core3ptr7mut_ptr31_$LT$impl$u20$$BP$mut$u20$T$GT$3add17h053d5fef0fae4d73E
	movq	%rax, 64(%rsp)
	movq	120(%rsp), %rsi
	movq	96(%rsp), %rdi
	callq	__ZN4core3ptr7mut_ptr31_$LT$impl$u20$$BP$mut$u20$T$GT$3add17h053d5fef0fae4d73E
	movq	%rax, 56(%rsp)
	movq	64(%rsp), %rdi
	movq	72(%rsp), %rsi
	movq	80(%rsp), %rdx
	callq	__ZN4core10intrinsics19copy_nonoverlapping17hf65895a9cf1a8af0E
	movq	56(%rsp), %rdi
	movq	64(%rsp), %rsi
	movq	80(%rsp), %rdx
	callq	__ZN4core10intrinsics19copy_nonoverlapping17hf65895a9cf1a8af0E
	movq	72(%rsp), %rdi
	movq	56(%rsp), %rsi
	movq	80(%rsp), %rdx
	callq	__ZN4core10intrinsics19copy_nonoverlapping17hf65895a9cf1a8af0E
	movq	80(%rsp), %rax
	addq	120(%rsp), %rax
	movq	%rax, 120(%rsp)
	jmp	LBB108_2
LBB108_12:
	jmp	LBB108_21
LBB108_13:
	movq	88(%rsp), %rax
	subq	120(%rsp), %rax
	leaq	168(%rsp), %rcx
	movq	%rax, 48(%rsp)
	movq	%rcx, 40(%rsp)
	movq	40(%rsp), %rax
	movq	120(%rsp), %rsi
	movq	104(%rsp), %rdi
	movq	%rax, 32(%rsp)
	callq	__ZN4core3ptr7mut_ptr31_$LT$impl$u20$$BP$mut$u20$T$GT$3add17h053d5fef0fae4d73E
	movq	%rax, 24(%rsp)
	movq	120(%rsp), %rsi
	movq	96(%rsp), %rdi
	callq	__ZN4core3ptr7mut_ptr31_$LT$impl$u20$$BP$mut$u20$T$GT$3add17h053d5fef0fae4d73E
	movq	%rax, 16(%rsp)
	movq	24(%rsp), %rdi
	movq	32(%rsp), %rsi
	movq	48(%rsp), %rdx
	callq	__ZN4core10intrinsics19copy_nonoverlapping17hf65895a9cf1a8af0E
	movq	16(%rsp), %rdi
	movq	24(%rsp), %rsi
	movq	48(%rsp), %rdx
	callq	__ZN4core10intrinsics19copy_nonoverlapping17hf65895a9cf1a8af0E
	movq	32(%rsp), %rdi
	movq	16(%rsp), %rsi
	movq	48(%rsp), %rdx
	callq	__ZN4core10intrinsics19copy_nonoverlapping17hf65895a9cf1a8af0E
	jmp	LBB108_21
LBB108_21:
	movq	%rbp, %rsp
	popq	%rbp
	retq
	.cfi_endproc

	.p2align	4, 0x90
__ZN4core3ptr4read17h0d185a0b054153c7E:
	.cfi_startproc
	pushq	%rbp
	.cfi_def_cfa_offset 16
	.cfi_offset %rbp, -16
	movq	%rsp, %rbp
	.cfi_def_cfa_register %rbp
	subq	$112, %rsp
	movq	%rdi, %rax
	movq	%rsi, -80(%rbp)
	movq	%rdi, -88(%rbp)
	movq	%rax, -96(%rbp)
	leaq	-72(%rbp), %rax
	movq	%rax, -104(%rbp)
	movq	-80(%rbp), %rdi
	movq	-104(%rbp), %rsi
	movl	$1, %edx
	callq	__ZN4core10intrinsics19copy_nonoverlapping17h32cd9bff0990e643E
	movq	-72(%rbp), %rax
	movq	%rax, -48(%rbp)
	movq	-64(%rbp), %rax
	movq	%rax, -40(%rbp)
	movq	-56(%rbp), %rax
	movq	%rax, -32(%rbp)
	movq	-48(%rbp), %rax
	movq	%rax, -24(%rbp)
	movq	-40(%rbp), %rax
	movq	%rax, -16(%rbp)
	movq	-32(%rbp), %rax
	movq	%rax, -8(%rbp)
	movq	-24(%rbp), %rax
	movq	-88(%rbp), %rcx
	movq	%rax, (%rcx)
	movq	-16(%rbp), %rax
	movq	%rax, 8(%rcx)
	movq	-8(%rbp), %rax
	movq	%rax, 16(%rcx)
	movq	-96(%rbp), %rax
	addq	$112, %rsp
	popq	%rbp
	retq
	.cfi_endproc

	.p2align	4, 0x90
__ZN4core3ptr4read17h27ab1cd305cba105E:
	.cfi_startproc
	pushq	%rbp
	.cfi_def_cfa_offset 16
	.cfi_offset %rbp, -16
	movq	%rsp, %rbp
	.cfi_def_cfa_register %rbp
	subq	$112, %rsp
	movq	%rdi, %rax
	movq	%rsi, -80(%rbp)
	movq	%rdi, -88(%rbp)
	movq	%rax, -96(%rbp)
	leaq	-72(%rbp), %rax
	movq	%rax, -104(%rbp)
	movq	-80(%rbp), %rdi
	movq	-104(%rbp), %rsi
	movl	$1, %edx
	callq	__ZN4core10intrinsics19copy_nonoverlapping17he2e25e94cc6ee45bE
	movq	-72(%rbp), %rax
	movq	%rax, -48(%rbp)
	movq	-64(%rbp), %rax
	movq	%rax, -40(%rbp)
	movq	-56(%rbp), %rax
	movq	%rax, -32(%rbp)
	movq	-48(%rbp), %rax
	movq	%rax, -24(%rbp)
	movq	-40(%rbp), %rax
	movq	%rax, -16(%rbp)
	movq	-32(%rbp), %rax
	movq	%rax, -8(%rbp)
	movq	-24(%rbp), %rax
	movq	-88(%rbp), %rcx
	movq	%rax, (%rcx)
	movq	-16(%rbp), %rax
	movq	%rax, 8(%rcx)
	movq	-8(%rbp), %rax
	movq	%rax, 16(%rcx)
	movq	-96(%rbp), %rax
	addq	$112, %rsp
	popq	%rbp
	retq
	.cfi_endproc

	.p2align	4, 0x90
__ZN4core3ptr4read17h30e1daf5415eac59E:
	.cfi_startproc
	pushq	%rbp
	.cfi_def_cfa_offset 16
	.cfi_offset %rbp, -16
	movq	%rsp, %rbp
	.cfi_def_cfa_register %rbp
	subq	$64, %rsp
	movq	-16(%rbp), %rax
	movq	-8(%rbp), %rcx
	movq	%rcx, -24(%rbp)
	movq	%rax, -32(%rbp)
	movq	%rdi, -40(%rbp)
	leaq	-32(%rbp), %rax
	movq	%rax, -48(%rbp)
	movq	-40(%rbp), %rdi
	movq	-48(%rbp), %rsi
	movl	$1, %edx
	callq	__ZN4core10intrinsics19copy_nonoverlapping17h62f6b6c8b7a46d77E
	movq	-32(%rbp), %rax
	movq	-24(%rbp), %rdx
	movq	%rax, -56(%rbp)
	movq	%rdx, -64(%rbp)
	movq	-56(%rbp), %rax
	movq	-64(%rbp), %rdx
	addq	$64, %rsp
	popq	%rbp
	retq
	.cfi_endproc

	.p2align	4, 0x90
__ZN4core3ptr4read17h3bfdf6689f40a3d0E:
	.cfi_startproc
	pushq	%rbp
	.cfi_def_cfa_offset 16
	.cfi_offset %rbp, -16
	movq	%rsp, %rbp
	.cfi_def_cfa_register %rbp
	subq	$112, %rsp
	movq	%rdi, %rax
	movq	%rsi, -80(%rbp)
	movq	%rdi, -88(%rbp)
	movq	%rax, -96(%rbp)
	leaq	-72(%rbp), %rax
	movq	%rax, -104(%rbp)
	movq	-80(%rbp), %rdi
	movq	-104(%rbp), %rsi
	movl	$1, %edx
	callq	__ZN4core10intrinsics19copy_nonoverlapping17ha97d74ba7261657cE
	movq	-72(%rbp), %rax
	movq	%rax, -48(%rbp)
	movq	-64(%rbp), %rax
	movq	%rax, -40(%rbp)
	movq	-56(%rbp), %rax
	movq	%rax, -32(%rbp)
	movq	-48(%rbp), %rax
	movq	%rax, -24(%rbp)
	movq	-40(%rbp), %rax
	movq	%rax, -16(%rbp)
	movq	-32(%rbp), %rax
	movq	%rax, -8(%rbp)
	movq	-24(%rbp), %rax
	movq	-88(%rbp), %rcx
	movq	%rax, (%rcx)
	movq	-16(%rbp), %rax
	movq	%rax, 8(%rcx)
	movq	-8(%rbp), %rax
	movq	%rax, 16(%rcx)
	movq	-96(%rbp), %rax
	addq	$112, %rsp
	popq	%rbp
	retq
	.cfi_endproc

	.p2align	4, 0x90
__ZN4core3ptr4read17h3f4e6d42e5ac5766E:
	.cfi_startproc
	pushq	%rbp
	.cfi_def_cfa_offset 16
	.cfi_offset %rbp, -16
	movq	%rsp, %rbp
	.cfi_def_cfa_register %rbp
	subq	$112, %rsp
	movq	%rdi, %rax
	movq	%rsi, -80(%rbp)
	movq	%rdi, -88(%rbp)
	movq	%rax, -96(%rbp)
	leaq	-72(%rbp), %rax
	movq	%rax, -104(%rbp)
	movq	-80(%rbp), %rdi
	movq	-104(%rbp), %rsi
	movl	$1, %edx
	callq	__ZN4core10intrinsics19copy_nonoverlapping17hc6c52a1120e218f9E
	movq	-72(%rbp), %rax
	movq	%rax, -48(%rbp)
	movq	-64(%rbp), %rax
	movq	%rax, -40(%rbp)
	movq	-56(%rbp), %rax
	movq	%rax, -32(%rbp)
	movq	-48(%rbp), %rax
	movq	%rax, -24(%rbp)
	movq	-40(%rbp), %rax
	movq	%rax, -16(%rbp)
	movq	-32(%rbp), %rax
	movq	%rax, -8(%rbp)
	movq	-24(%rbp), %rax
	movq	-88(%rbp), %rcx
	movq	%rax, (%rcx)
	movq	-16(%rbp), %rax
	movq	%rax, 8(%rcx)
	movq	-8(%rbp), %rax
	movq	%rax, 16(%rcx)
	movq	-96(%rbp), %rax
	addq	$112, %rsp
	popq	%rbp
	retq
	.cfi_endproc

	.p2align	4, 0x90
__ZN4core3ptr4read17h9e7a5b2b6ae0c930E:
	.cfi_startproc
	pushq	%rbp
	.cfi_def_cfa_offset 16
	.cfi_offset %rbp, -16
	movq	%rsp, %rbp
	.cfi_def_cfa_register %rbp
	subq	$32, %rsp
	movq	-8(%rbp), %rax
	movq	%rax, -16(%rbp)
	movq	%rdi, -24(%rbp)
	jmp	LBB114_2
LBB114_2:
	movq	-24(%rbp), %rdi
	leaq	-16(%rbp), %rsi
	movl	$1, %edx
	callq	__ZN4core10intrinsics19copy_nonoverlapping17h4a851177437403edE
	movq	-16(%rbp), %rax
	movq	%rax, -32(%rbp)
	movq	-32(%rbp), %rax
	addq	$32, %rsp
	popq	%rbp
	retq
	.cfi_endproc

	.p2align	4, 0x90
__ZN4core3ptr4read17hb49c216d717a1241E:
	.cfi_startproc
	pushq	%rbp
	.cfi_def_cfa_offset 16
	.cfi_offset %rbp, -16
	movq	%rsp, %rbp
	.cfi_def_cfa_register %rbp
	subq	$128, %rsp
	movq	%rdi, %rax
	movq	%rsi, -104(%rbp)
	movq	%rdi, -112(%rbp)
	movq	%rax, -120(%rbp)
	leaq	-96(%rbp), %rax
	movq	%rax, -128(%rbp)
	movq	-104(%rbp), %rdi
	movq	-128(%rbp), %rsi
	movl	$1, %edx
	callq	__ZN4core10intrinsics19copy_nonoverlapping17h2c915086628df8d2E
	movq	-96(%rbp), %rax
	movq	%rax, -64(%rbp)
	movq	-88(%rbp), %rax
	movq	%rax, -56(%rbp)
	movq	-80(%rbp), %rax
	movq	%rax, -48(%rbp)
	movq	-72(%rbp), %rax
	movq	%rax, -40(%rbp)
	movq	-64(%rbp), %rax
	movq	%rax, -32(%rbp)
	movq	-56(%rbp), %rax
	movq	%rax, -24(%rbp)
	movq	-48(%rbp), %rax
	movq	%rax, -16(%rbp)
	movq	-40(%rbp), %rax
	movq	%rax, -8(%rbp)
	movq	-32(%rbp), %rax
	movq	-112(%rbp), %rcx
	movq	%rax, (%rcx)
	movq	-24(%rbp), %rax
	movq	%rax, 8(%rcx)
	movq	-16(%rbp), %rax
	movq	%rax, 16(%rcx)
	movq	-8(%rbp), %rax
	movq	%rax, 24(%rcx)
	movq	-120(%rbp), %rax
	addq	$128, %rsp
	popq	%rbp
	retq
	.cfi_endproc

	.p2align	4, 0x90
__ZN4core3ptr4read17hfbf1af39f41a7c4dE:
	.cfi_startproc
	pushq	%rbp
	.cfi_def_cfa_offset 16
	.cfi_offset %rbp, -16
	movq	%rsp, %rbp
	.cfi_def_cfa_register %rbp
	subq	$128, %rsp
	movq	%rdi, %rax
	movq	%rsi, -104(%rbp)
	movq	%rdi, -112(%rbp)
	movq	%rax, -120(%rbp)
	leaq	-96(%rbp), %rax
	movq	%rax, -128(%rbp)
	movq	-104(%rbp), %rdi
	movq	-128(%rbp), %rsi
	movl	$1, %edx
	callq	__ZN4core10intrinsics19copy_nonoverlapping17hf4619686c9b08620E
	movq	-96(%rbp), %rax
	movq	%rax, -64(%rbp)
	movq	-88(%rbp), %rax
	movq	%rax, -56(%rbp)
	movq	-80(%rbp), %rax
	movq	%rax, -48(%rbp)
	movq	-72(%rbp), %rax
	movq	%rax, -40(%rbp)
	movq	-64(%rbp), %rax
	movq	%rax, -32(%rbp)
	movq	-56(%rbp), %rax
	movq	%rax, -24(%rbp)
	movq	-48(%rbp), %rax
	movq	%rax, -16(%rbp)
	movq	-40(%rbp), %rax
	movq	%rax, -8(%rbp)
	movq	-32(%rbp), %rax
	movq	-112(%rbp), %rcx
	movq	%rax, (%rcx)
	movq	-24(%rbp), %rax
	movq	%rax, 8(%rcx)
	movq	-16(%rbp), %rax
	movq	%rax, 16(%rcx)
	movq	-8(%rbp), %rax
	movq	%rax, 24(%rcx)
	movq	-120(%rbp), %rax
	addq	$128, %rsp
	popq	%rbp
	retq
	.cfi_endproc

	.p2align	4, 0x90
__ZN4core3ptr4read17hff0abce677149942E:
	.cfi_startproc
	pushq	%rbp
	.cfi_def_cfa_offset 16
	.cfi_offset %rbp, -16
	movq	%rsp, %rbp
	.cfi_def_cfa_register %rbp
	subq	$112, %rsp
	movq	%rdi, %rax
	movq	%rsi, -80(%rbp)
	movq	%rdi, -88(%rbp)
	movq	%rax, -96(%rbp)
	leaq	-72(%rbp), %rax
	movq	%rax, -104(%rbp)
	movq	-80(%rbp), %rdi
	movq	-104(%rbp), %rsi
	movl	$1, %edx
	callq	__ZN4core10intrinsics19copy_nonoverlapping17hc90263bd0a0b2f20E
	movq	-72(%rbp), %rax
	movq	%rax, -48(%rbp)
	movq	-64(%rbp), %rax
	movq	%rax, -40(%rbp)
	movq	-56(%rbp), %rax
	movq	%rax, -32(%rbp)
	movq	-48(%rbp), %rax
	movq	%rax, -24(%rbp)
	movq	-40(%rbp), %rax
	movq	%rax, -16(%rbp)
	movq	-32(%rbp), %rax
	movq	%rax, -8(%rbp)
	movq	-24(%rbp), %rax
	movq	-88(%rbp), %rcx
	movq	%rax, (%rcx)
	movq	-16(%rbp), %rax
	movq	%rax, 8(%rcx)
	movq	-8(%rbp), %rax
	movq	%rax, 16(%rcx)
	movq	-96(%rbp), %rax
	addq	$112, %rsp
	popq	%rbp
	retq
	.cfi_endproc

	.p2align	4, 0x90
__ZN4core3ptr5write17h497ab0be2e3c842bE:
	.cfi_startproc
	pushq	%rbp
	.cfi_def_cfa_offset 16
	.cfi_offset %rbp, -16
	movq	%rsp, %rbp
	.cfi_def_cfa_register %rbp
	pushq	%rax
	movq	%rsi, (%rdi)
	addq	$8, %rsp
	popq	%rbp
	retq
	.cfi_endproc

	.p2align	4, 0x90
__ZN4core3ptr5write17h5e6391090a1473b5E:
	.cfi_startproc
	pushq	%rbp
	.cfi_def_cfa_offset 16
	.cfi_offset %rbp, -16
	movq	%rsp, %rbp
	.cfi_def_cfa_register %rbp
	pushq	%rax
	movq	(%rsi), %rax
	movq	%rax, (%rdi)
	movq	8(%rsi), %rax
	movq	%rax, 8(%rdi)
	movq	16(%rsi), %rax
	movq	%rax, 16(%rdi)
	movq	24(%rsi), %rax
	movq	%rax, 24(%rdi)
	addq	$8, %rsp
	popq	%rbp
	retq
	.cfi_endproc

	.p2align	4, 0x90
__ZN4core3ptr5write17h8981aa20960d7214E:
	.cfi_startproc
	pushq	%rbp
	.cfi_def_cfa_offset 16
	.cfi_offset %rbp, -16
	movq	%rsp, %rbp
	.cfi_def_cfa_register %rbp
	pushq	%rax
	movq	%rsi, (%rdi)
	movq	%rdx, 8(%rdi)
	addq	$8, %rsp
	popq	%rbp
	retq
	.cfi_endproc

	.p2align	4, 0x90
__ZN4core3ptr6unique15Unique$LT$T$GT$13new_unchecked17hd90452b130228adbE:
	.cfi_startproc
	pushq	%rbp
	.cfi_def_cfa_offset 16
	.cfi_offset %rbp, -16
	movq	%rsp, %rbp
	.cfi_def_cfa_register %rbp
	subq	$16, %rsp
	movq	%rdi, -16(%rbp)
	movq	-16(%rbp), %rax
	addq	$16, %rsp
	popq	%rbp
	retq
	.cfi_endproc

	.p2align	4, 0x90
__ZN4core3ptr6unique15Unique$LT$T$GT$4cast17h0ddce512aebf0276E:
	.cfi_startproc
	pushq	%rbp
	.cfi_def_cfa_offset 16
	.cfi_offset %rbp, -16
	movq	%rsp, %rbp
	.cfi_def_cfa_register %rbp
	subq	$16, %rsp
	callq	__ZN4core3ptr6unique15Unique$LT$T$GT$6as_ptr17hc94ce3d23fa18e34E
	movq	%rax, -8(%rbp)
	movq	-8(%rbp), %rdi
	callq	__ZN4core3ptr6unique15Unique$LT$T$GT$13new_unchecked17hd90452b130228adbE
	movq	%rax, -16(%rbp)
	movq	-16(%rbp), %rax
	addq	$16, %rsp
	popq	%rbp
	retq
	.cfi_endproc

	.p2align	4, 0x90
__ZN4core3ptr6unique15Unique$LT$T$GT$4cast17h0e5a73f0bbd551ecE:
	.cfi_startproc
	pushq	%rbp
	.cfi_def_cfa_offset 16
	.cfi_offset %rbp, -16
	movq	%rsp, %rbp
	.cfi_def_cfa_register %rbp
	subq	$16, %rsp
	callq	__ZN4core3ptr6unique15Unique$LT$T$GT$6as_ptr17h63beb614e0a2b529E
	movq	%rax, -8(%rbp)
	movq	-8(%rbp), %rax
	movq	%rax, %rdi
	callq	__ZN4core3ptr6unique15Unique$LT$T$GT$13new_unchecked17hd90452b130228adbE
	movq	%rax, -16(%rbp)
	movq	-16(%rbp), %rax
	addq	$16, %rsp
	popq	%rbp
	retq
	.cfi_endproc

	.p2align	4, 0x90
__ZN4core3ptr6unique15Unique$LT$T$GT$4cast17h1782fe550679a6e2E:
	.cfi_startproc
	pushq	%rbp
	.cfi_def_cfa_offset 16
	.cfi_offset %rbp, -16
	movq	%rsp, %rbp
	.cfi_def_cfa_register %rbp
	subq	$16, %rsp
	callq	__ZN4core3ptr6unique15Unique$LT$T$GT$6as_ptr17h49dec9b2d413a2aeE
	movq	%rax, -8(%rbp)
	movq	-8(%rbp), %rax
	movq	%rax, %rdi
	callq	__ZN4core3ptr6unique15Unique$LT$T$GT$13new_unchecked17hd90452b130228adbE
	movq	%rax, -16(%rbp)
	movq	-16(%rbp), %rax
	addq	$16, %rsp
	popq	%rbp
	retq
	.cfi_endproc

	.p2align	4, 0x90
__ZN4core3ptr6unique15Unique$LT$T$GT$4cast17h3ebf2d56aa16af2dE:
	.cfi_startproc
	pushq	%rbp
	.cfi_def_cfa_offset 16
	.cfi_offset %rbp, -16
	movq	%rsp, %rbp
	.cfi_def_cfa_register %rbp
	subq	$16, %rsp
	callq	__ZN4core3ptr6unique15Unique$LT$T$GT$6as_ptr17h0003855554ac2cd7E
	movq	%rax, -8(%rbp)
	movq	-8(%rbp), %rax
	movq	%rax, %rdi
	callq	__ZN4core3ptr6unique15Unique$LT$T$GT$13new_unchecked17hd90452b130228adbE
	movq	%rax, -16(%rbp)
	movq	-16(%rbp), %rax
	addq	$16, %rsp
	popq	%rbp
	retq
	.cfi_endproc

	.p2align	4, 0x90
__ZN4core3ptr6unique15Unique$LT$T$GT$4cast17h8390a7c104d79b64E:
	.cfi_startproc
	pushq	%rbp
	.cfi_def_cfa_offset 16
	.cfi_offset %rbp, -16
	movq	%rsp, %rbp
	.cfi_def_cfa_register %rbp
	subq	$16, %rsp
	callq	__ZN4core3ptr6unique15Unique$LT$T$GT$6as_ptr17he4d3ee8b11501481E
	movq	%rax, -8(%rbp)
	movq	-8(%rbp), %rax
	movq	%rax, %rdi
	callq	__ZN4core3ptr6unique15Unique$LT$T$GT$13new_unchecked17hd90452b130228adbE
	movq	%rax, -16(%rbp)
	movq	-16(%rbp), %rax
	addq	$16, %rsp
	popq	%rbp
	retq
	.cfi_endproc

	.p2align	4, 0x90
__ZN4core3ptr6unique15Unique$LT$T$GT$4cast17h8ab01f579b21027dE:
	.cfi_startproc
	pushq	%rbp
	.cfi_def_cfa_offset 16
	.cfi_offset %rbp, -16
	movq	%rsp, %rbp
	.cfi_def_cfa_register %rbp
	subq	$16, %rsp
	callq	__ZN4core3ptr6unique15Unique$LT$T$GT$6as_ptr17hac8ec51d749b5bcaE
	movq	%rax, -8(%rbp)
	movq	-8(%rbp), %rax
	movq	%rax, %rdi
	callq	__ZN4core3ptr6unique15Unique$LT$T$GT$13new_unchecked17hd90452b130228adbE
	movq	%rax, -16(%rbp)
	movq	-16(%rbp), %rax
	addq	$16, %rsp
	popq	%rbp
	retq
	.cfi_endproc

	.p2align	4, 0x90
__ZN4core3ptr6unique15Unique$LT$T$GT$4cast17h928ec6fe18033ce3E:
	.cfi_startproc
	pushq	%rbp
	.cfi_def_cfa_offset 16
	.cfi_offset %rbp, -16
	movq	%rsp, %rbp
	.cfi_def_cfa_register %rbp
	subq	$16, %rsp
	callq	__ZN4core3ptr6unique15Unique$LT$T$GT$6as_ptr17h24ed8f247937bba2E
	movq	%rax, -8(%rbp)
	movq	-8(%rbp), %rax
	movq	%rax, %rdi
	callq	__ZN4core3ptr6unique15Unique$LT$T$GT$13new_unchecked17hd90452b130228adbE
	movq	%rax, -16(%rbp)
	movq	-16(%rbp), %rax
	addq	$16, %rsp
	popq	%rbp
	retq
	.cfi_endproc

	.p2align	4, 0x90
__ZN4core3ptr6unique15Unique$LT$T$GT$4cast17ha778f810a2ca8339E:
	.cfi_startproc
	pushq	%rbp
	.cfi_def_cfa_offset 16
	.cfi_offset %rbp, -16
	movq	%rsp, %rbp
	.cfi_def_cfa_register %rbp
	subq	$16, %rsp
	callq	__ZN4core3ptr6unique15Unique$LT$T$GT$6as_ptr17h506b9dc2f3d7345aE
	movq	%rax, -8(%rbp)
	movq	-8(%rbp), %rax
	movq	%rax, %rdi
	callq	__ZN4core3ptr6unique15Unique$LT$T$GT$13new_unchecked17hd90452b130228adbE
	movq	%rax, -16(%rbp)
	movq	-16(%rbp), %rax
	addq	$16, %rsp
	popq	%rbp
	retq
	.cfi_endproc

	.p2align	4, 0x90
__ZN4core3ptr6unique15Unique$LT$T$GT$6as_ptr17h0003855554ac2cd7E:
	.cfi_startproc
	pushq	%rbp
	.cfi_def_cfa_offset 16
	.cfi_offset %rbp, -16
	movq	%rsp, %rbp
	.cfi_def_cfa_register %rbp
	movq	%rdi, %rax
	movq	%rsi, %rdx
	popq	%rbp
	retq
	.cfi_endproc

	.p2align	4, 0x90
__ZN4core3ptr6unique15Unique$LT$T$GT$6as_ptr17h24ed8f247937bba2E:
	.cfi_startproc
	pushq	%rbp
	.cfi_def_cfa_offset 16
	.cfi_offset %rbp, -16
	movq	%rsp, %rbp
	.cfi_def_cfa_register %rbp
	movq	%rdi, %rax
	movq	%rsi, %rdx
	popq	%rbp
	retq
	.cfi_endproc

	.p2align	4, 0x90
__ZN4core3ptr6unique15Unique$LT$T$GT$6as_ptr17h3581024014666349E:
	.cfi_startproc
	pushq	%rbp
	.cfi_def_cfa_offset 16
	.cfi_offset %rbp, -16
	movq	%rsp, %rbp
	.cfi_def_cfa_register %rbp
	movq	%rdi, %rax
	popq	%rbp
	retq
	.cfi_endproc

	.p2align	4, 0x90
__ZN4core3ptr6unique15Unique$LT$T$GT$6as_ptr17h49dec9b2d413a2aeE:
	.cfi_startproc
	pushq	%rbp
	.cfi_def_cfa_offset 16
	.cfi_offset %rbp, -16
	movq	%rsp, %rbp
	.cfi_def_cfa_register %rbp
	movq	%rdi, %rax
	popq	%rbp
	retq
	.cfi_endproc

	.p2align	4, 0x90
__ZN4core3ptr6unique15Unique$LT$T$GT$6as_ptr17h506b9dc2f3d7345aE:
	.cfi_startproc
	pushq	%rbp
	.cfi_def_cfa_offset 16
	.cfi_offset %rbp, -16
	movq	%rsp, %rbp
	.cfi_def_cfa_register %rbp
	movq	%rdi, %rax
	popq	%rbp
	retq
	.cfi_endproc

	.p2align	4, 0x90
__ZN4core3ptr6unique15Unique$LT$T$GT$6as_ptr17h63beb614e0a2b529E:
	.cfi_startproc
	pushq	%rbp
	.cfi_def_cfa_offset 16
	.cfi_offset %rbp, -16
	movq	%rsp, %rbp
	.cfi_def_cfa_register %rbp
	movq	%rdi, %rax
	popq	%rbp
	retq
	.cfi_endproc

	.p2align	4, 0x90
__ZN4core3ptr6unique15Unique$LT$T$GT$6as_ptr17hac8ec51d749b5bcaE:
	.cfi_startproc
	pushq	%rbp
	.cfi_def_cfa_offset 16
	.cfi_offset %rbp, -16
	movq	%rsp, %rbp
	.cfi_def_cfa_register %rbp
	movq	%rdi, %rax
	popq	%rbp
	retq
	.cfi_endproc

	.p2align	4, 0x90
__ZN4core3ptr6unique15Unique$LT$T$GT$6as_ptr17hc94ce3d23fa18e34E:
	.cfi_startproc
	pushq	%rbp
	.cfi_def_cfa_offset 16
	.cfi_offset %rbp, -16
	movq	%rsp, %rbp
	.cfi_def_cfa_register %rbp
	movq	%rdi, %rax
	popq	%rbp
	retq
	.cfi_endproc

	.p2align	4, 0x90
__ZN4core3ptr6unique15Unique$LT$T$GT$6as_ptr17he4d3ee8b11501481E:
	.cfi_startproc
	pushq	%rbp
	.cfi_def_cfa_offset 16
	.cfi_offset %rbp, -16
	movq	%rsp, %rbp
	.cfi_def_cfa_register %rbp
	movq	%rdi, %rax
	movq	%rsi, %rdx
	popq	%rbp
	retq
	.cfi_endproc

	.p2align	4, 0x90
__ZN4core3ptr6unique15Unique$LT$T$GT$6as_ref17h1298442944a36406E:
	.cfi_startproc
	pushq	%rbp
	.cfi_def_cfa_offset 16
	.cfi_offset %rbp, -16
	movq	%rsp, %rbp
	.cfi_def_cfa_register %rbp
	subq	$16, %rsp
	movq	(%rdi), %rdi
	callq	__ZN4core3ptr6unique15Unique$LT$T$GT$6as_ptr17h49dec9b2d413a2aeE
	movq	%rax, -8(%rbp)
	movq	-8(%rbp), %rax
	addq	$16, %rsp
	popq	%rbp
	retq
	.cfi_endproc

	.p2align	4, 0x90
__ZN4core3ptr6unique15Unique$LT$T$GT$6as_ref17h88a35b1ed211aedaE:
	.cfi_startproc
	pushq	%rbp
	.cfi_def_cfa_offset 16
	.cfi_offset %rbp, -16
	movq	%rsp, %rbp
	.cfi_def_cfa_register %rbp
	subq	$16, %rsp
	movq	(%rdi), %rax
	movq	8(%rdi), %rsi
	movq	%rax, %rdi
	callq	__ZN4core3ptr6unique15Unique$LT$T$GT$6as_ptr17he4d3ee8b11501481E
	movq	%rax, -8(%rbp)
	movq	%rdx, -16(%rbp)
	movq	-8(%rbp), %rax
	movq	-16(%rbp), %rdx
	addq	$16, %rsp
	popq	%rbp
	retq
	.cfi_endproc

	.p2align	4, 0x90
__ZN4core3ptr6unique15Unique$LT$T$GT$6as_ref17h9bf8710aad44eb99E:
	.cfi_startproc
	pushq	%rbp
	.cfi_def_cfa_offset 16
	.cfi_offset %rbp, -16
	movq	%rsp, %rbp
	.cfi_def_cfa_register %rbp
	subq	$16, %rsp
	movq	(%rdi), %rax
	movq	8(%rdi), %rsi
	movq	%rax, %rdi
	callq	__ZN4core3ptr6unique15Unique$LT$T$GT$6as_ptr17h0003855554ac2cd7E
	movq	%rax, -8(%rbp)
	movq	%rdx, -16(%rbp)
	movq	-8(%rbp), %rax
	movq	-16(%rbp), %rdx
	addq	$16, %rsp
	popq	%rbp
	retq
	.cfi_endproc

	.p2align	4, 0x90
__ZN4core3ptr6unique15Unique$LT$T$GT$6as_ref17hb247623674d678e8E:
	.cfi_startproc
	pushq	%rbp
	.cfi_def_cfa_offset 16
	.cfi_offset %rbp, -16
	movq	%rsp, %rbp
	.cfi_def_cfa_register %rbp
	subq	$16, %rsp
	movq	(%rdi), %rax
	movq	8(%rdi), %rsi
	movq	%rax, %rdi
	callq	__ZN4core3ptr6unique15Unique$LT$T$GT$6as_ptr17h24ed8f247937bba2E
	movq	%rax, -8(%rbp)
	movq	%rdx, -16(%rbp)
	movq	-8(%rbp), %rax
	movq	-16(%rbp), %rdx
	addq	$16, %rsp
	popq	%rbp
	retq
	.cfi_endproc

	.p2align	4, 0x90
__ZN4core3ptr7mut_ptr31_$LT$impl$u20$$BP$mut$u20$T$GT$3add17h053d5fef0fae4d73E:
	.cfi_startproc
	pushq	%rbp
	.cfi_def_cfa_offset 16
	.cfi_offset %rbp, -16
	movq	%rsp, %rbp
	.cfi_def_cfa_register %rbp
	subq	$16, %rsp
	callq	__ZN4core3ptr7mut_ptr31_$LT$impl$u20$$BP$mut$u20$T$GT$6offset17ha81970912583fd92E
	movq	%rax, -8(%rbp)
	movq	-8(%rbp), %rax
	addq	$16, %rsp
	popq	%rbp
	retq
	.cfi_endproc

	.p2align	4, 0x90
__ZN4core3ptr7mut_ptr31_$LT$impl$u20$$BP$mut$u20$T$GT$6offset17ha81970912583fd92E:
	.cfi_startproc
	pushq	%rbp
	.cfi_def_cfa_offset 16
	.cfi_offset %rbp, -16
	movq	%rsp, %rbp
	.cfi_def_cfa_register %rbp
	subq	$16, %rsp
	addq	%rsi, %rdi
	movq	%rdi, -8(%rbp)
	movq	-8(%rbp), %rax
	movq	%rax, -16(%rbp)
	movq	-16(%rbp), %rax
	addq	$16, %rsp
	popq	%rbp
	retq
	.cfi_endproc

	.p2align	4, 0x90
__ZN4core3ptr7mut_ptr31_$LT$impl$u20$$BP$mut$u20$T$GT$7is_null17h3e4c05339cf08af4E:
	.cfi_startproc
	pushq	%rbp
	.cfi_def_cfa_offset 16
	.cfi_offset %rbp, -16
	movq	%rsp, %rbp
	.cfi_def_cfa_register %rbp
	pushq	%rax
	movq	%rdi, -8(%rbp)
	movq	-8(%rbp), %rax
	cmpq	$0, %rax
	sete	%cl
	andb	$1, %cl
	movzbl	%cl, %edx
	movl	%edx, %eax
	addq	$8, %rsp
	popq	%rbp
	retq
	.cfi_endproc

	.p2align	4, 0x90
__ZN4core3ptr7mut_ptr31_$LT$impl$u20$$BP$mut$u20$T$GT$7is_null17h54c5d89211ba41feE:
	.cfi_startproc
	pushq	%rbp
	.cfi_def_cfa_offset 16
	.cfi_offset %rbp, -16
	movq	%rsp, %rbp
	.cfi_def_cfa_register %rbp
	pushq	%rax
	movq	%rdi, -8(%rbp)
	jmp	LBB146_1
LBB146_1:
	movq	-8(%rbp), %rax
	cmpq	$0, %rax
	sete	%cl
	andb	$1, %cl
	movzbl	%cl, %edx
	movl	%edx, %eax
	addq	$8, %rsp
	popq	%rbp
	retq
	.cfi_endproc

	.p2align	4, 0x90
__ZN4core3ptr7mut_ptr31_$LT$impl$u20$$BP$mut$u20$T$GT$7is_null17h8e743251533e8845E:
	.cfi_startproc
	pushq	%rbp
	.cfi_def_cfa_offset 16
	.cfi_offset %rbp, -16
	movq	%rsp, %rbp
	.cfi_def_cfa_register %rbp
	pushq	%rax
	movq	%rdi, -8(%rbp)
	movq	-8(%rbp), %rax
	cmpq	$0, %rax
	sete	%cl
	andb	$1, %cl
	movzbl	%cl, %edx
	movl	%edx, %eax
	addq	$8, %rsp
	popq	%rbp
	retq
	.cfi_endproc

	.p2align	4, 0x90
__ZN4core3ptr7mut_ptr31_$LT$impl$u20$$BP$mut$u20$T$GT$7is_null17hcbc843c1c43a9a73E:
	.cfi_startproc
	pushq	%rbp
	.cfi_def_cfa_offset 16
	.cfi_offset %rbp, -16
	movq	%rsp, %rbp
	.cfi_def_cfa_register %rbp
	pushq	%rax
	movq	%rdi, -8(%rbp)
	movq	-8(%rbp), %rax
	cmpq	$0, %rax
	sete	%cl
	andb	$1, %cl
	movzbl	%cl, %edx
	movl	%edx, %eax
	addq	$8, %rsp
	popq	%rbp
	retq
	.cfi_endproc

	.p2align	4, 0x90
__ZN4core3ptr7mut_ptr31_$LT$impl$u20$$BP$mut$u20$T$GT$7is_null17hfb11abf436d137faE:
	.cfi_startproc
	pushq	%rbp
	.cfi_def_cfa_offset 16
	.cfi_offset %rbp, -16
	movq	%rsp, %rbp
	.cfi_def_cfa_register %rbp
	pushq	%rax
	movq	%rdi, -8(%rbp)
	movq	-8(%rbp), %rax
	cmpq	$0, %rax
	sete	%cl
	andb	$1, %cl
	movzbl	%cl, %edx
	movl	%edx, %eax
	addq	$8, %rsp
	popq	%rbp
	retq
	.cfi_endproc

	.p2align	4, 0x90
__ZN4core3ptr7mut_ptr41_$LT$impl$u20$$BP$mut$u20$$u5b$T$u5d$$GT$10as_mut_ptr17h5312309942e5b8e4E:
	.cfi_startproc
	pushq	%rbp
	.cfi_def_cfa_offset 16
	.cfi_offset %rbp, -16
	movq	%rsp, %rbp
	.cfi_def_cfa_register %rbp
	movq	%rdi, %rax
	popq	%rbp
	retq
	.cfi_endproc

	.p2align	4, 0x90
__ZN4core3ptr8non_null16NonNull$LT$T$GT$13new_unchecked17hc5a33e8af947d4e8E:
	.cfi_startproc
	pushq	%rbp
	.cfi_def_cfa_offset 16
	.cfi_offset %rbp, -16
	movq	%rsp, %rbp
	.cfi_def_cfa_register %rbp
	pushq	%rax
	movq	%rdi, -8(%rbp)
	movq	-8(%rbp), %rax
	addq	$8, %rsp
	popq	%rbp
	retq
	.cfi_endproc

	.p2align	4, 0x90
__ZN4core3ptr8non_null16NonNull$LT$T$GT$13new_unchecked17he268e45c17429bbfE:
	.cfi_startproc
	pushq	%rbp
	.cfi_def_cfa_offset 16
	.cfi_offset %rbp, -16
	movq	%rsp, %rbp
	.cfi_def_cfa_register %rbp
	pushq	%rax
	movq	%rdi, -8(%rbp)
	movq	-8(%rbp), %rax
	addq	$8, %rsp
	popq	%rbp
	retq
	.cfi_endproc

	.p2align	4, 0x90
__ZN4core3ptr8non_null16NonNull$LT$T$GT$3new17h11027d5f6f4b8ef0E:
	.cfi_startproc
	pushq	%rbp
	.cfi_def_cfa_offset 16
	.cfi_offset %rbp, -16
	movq	%rsp, %rbp
	.cfi_def_cfa_register %rbp
	subq	$32, %rsp
	movq	%rdi, -16(%rbp)
	callq	__ZN4core3ptr7mut_ptr31_$LT$impl$u20$$BP$mut$u20$T$GT$7is_null17hcbc843c1c43a9a73E
	movb	%al, -17(%rbp)
	movb	-17(%rbp), %al
	xorb	$-1, %al
	testb	$1, %al
	jne	LBB153_3
	movq	$0, -8(%rbp)
	jmp	LBB153_5
LBB153_3:
	movq	-16(%rbp), %rdi
	callq	__ZN4core3ptr8non_null16NonNull$LT$T$GT$13new_unchecked17he268e45c17429bbfE
	movq	%rax, -32(%rbp)
	movq	-32(%rbp), %rax
	movq	%rax, -8(%rbp)
LBB153_5:
	movq	-8(%rbp), %rax
	addq	$32, %rsp
	popq	%rbp
	retq
	.cfi_endproc

	.p2align	4, 0x90
__ZN4core3ptr8non_null16NonNull$LT$T$GT$4cast17h5b63d060f04d0c1dE:
	.cfi_startproc
	pushq	%rbp
	.cfi_def_cfa_offset 16
	.cfi_offset %rbp, -16
	movq	%rsp, %rbp
	.cfi_def_cfa_register %rbp
	subq	$16, %rsp
	callq	__ZN4core3ptr8non_null16NonNull$LT$T$GT$6as_ptr17h11b95b2a5abe8608E
	movq	%rax, -8(%rbp)
	movq	-8(%rbp), %rax
	movq	%rax, %rdi
	callq	__ZN4core3ptr8non_null16NonNull$LT$T$GT$13new_unchecked17hc5a33e8af947d4e8E
	movq	%rax, -16(%rbp)
	movq	-16(%rbp), %rax
	addq	$16, %rsp
	popq	%rbp
	retq
	.cfi_endproc

	.p2align	4, 0x90
__ZN4core3ptr8non_null16NonNull$LT$T$GT$6as_ptr17h11b95b2a5abe8608E:
	.cfi_startproc
	pushq	%rbp
	.cfi_def_cfa_offset 16
	.cfi_offset %rbp, -16
	movq	%rsp, %rbp
	.cfi_def_cfa_register %rbp
	movq	%rdi, %rax
	popq	%rbp
	retq
	.cfi_endproc

	.p2align	4, 0x90
__ZN4core3ptr8non_null16NonNull$LT$T$GT$6as_ptr17hf9131a75e4ae5381E:
	.cfi_startproc
	pushq	%rbp
	.cfi_def_cfa_offset 16
	.cfi_offset %rbp, -16
	movq	%rsp, %rbp
	.cfi_def_cfa_register %rbp
	movq	%rdi, %rax
	popq	%rbp
	retq
	.cfi_endproc

	.p2align	4, 0x90
__ZN4core3ptr8non_null16NonNull$LT$T$GT$6as_ref17hf2e53b0e1c001b1aE:
	.cfi_startproc
	pushq	%rbp
	.cfi_def_cfa_offset 16
	.cfi_offset %rbp, -16
	movq	%rsp, %rbp
	.cfi_def_cfa_register %rbp
	subq	$16, %rsp
	movq	(%rdi), %rdi
	callq	__ZN4core3ptr8non_null16NonNull$LT$T$GT$6as_ptr17h11b95b2a5abe8608E
	movq	%rax, -8(%rbp)
	movq	-8(%rbp), %rax
	addq	$16, %rsp
	popq	%rbp
	retq
	.cfi_endproc

	.p2align	4, 0x90
__ZN4core3ptr9const_ptr33_$LT$impl$u20$$BP$const$u20$T$GT$12wrapping_add17hb71d3854647aa27eE:
	.cfi_startproc
	pushq	%rbp
	.cfi_def_cfa_offset 16
	.cfi_offset %rbp, -16
	movq	%rsp, %rbp
	.cfi_def_cfa_register %rbp
	subq	$16, %rsp
	callq	__ZN4core3ptr9const_ptr33_$LT$impl$u20$$BP$const$u20$T$GT$15wrapping_offset17h298b7e8a1bf07523E
	movq	%rax, -8(%rbp)
	movq	-8(%rbp), %rax
	addq	$16, %rsp
	popq	%rbp
	retq
	.cfi_endproc

	.p2align	4, 0x90
__ZN4core3ptr9const_ptr33_$LT$impl$u20$$BP$const$u20$T$GT$13guaranteed_eq17h93847769605bc0ddE:
	.cfi_startproc
	pushq	%rbp
	.cfi_def_cfa_offset 16
	.cfi_offset %rbp, -16
	movq	%rsp, %rbp
	.cfi_def_cfa_register %rbp
	subq	$2, %rsp
	cmpq	%rsi, %rdi
	sete	%al
	andb	$1, %al
	movb	%al, -1(%rbp)
	movb	-1(%rbp), %al
	movb	%al, -2(%rbp)
	movb	-2(%rbp), %al
	andb	$1, %al
	movzbl	%al, %eax
	addq	$2, %rsp
	popq	%rbp
	retq
	.cfi_endproc

	.p2align	4, 0x90
__ZN4core3ptr9const_ptr33_$LT$impl$u20$$BP$const$u20$T$GT$15wrapping_offset17h298b7e8a1bf07523E:
	.cfi_startproc
	pushq	%rbp
	.cfi_def_cfa_offset 16
	.cfi_offset %rbp, -16
	movq	%rsp, %rbp
	.cfi_def_cfa_register %rbp
	subq	$16, %rsp
	addq	%rsi, %rdi
	movq	%rdi, -8(%rbp)
	movq	-8(%rbp), %rax
	movq	%rax, -16(%rbp)
	movq	-16(%rbp), %rax
	addq	$16, %rsp
	popq	%rbp
	retq
	.cfi_endproc

	.p2align	4, 0x90
__ZN4core3ptr9const_ptr33_$LT$impl$u20$$BP$const$u20$T$GT$3add17h500990c305fe99feE:
	.cfi_startproc
	pushq	%rbp
	.cfi_def_cfa_offset 16
	.cfi_offset %rbp, -16
	movq	%rsp, %rbp
	.cfi_def_cfa_register %rbp
	subq	$16, %rsp
	callq	__ZN4core3ptr9const_ptr33_$LT$impl$u20$$BP$const$u20$T$GT$6offset17hde2d351d97d22b39E
	movq	%rax, -8(%rbp)
	movq	-8(%rbp), %rax
	addq	$16, %rsp
	popq	%rbp
	retq
	.cfi_endproc

	.p2align	4, 0x90
__ZN4core3ptr9const_ptr33_$LT$impl$u20$$BP$const$u20$T$GT$3add17h6f9ec26943ed9e83E:
	.cfi_startproc
	pushq	%rbp
	.cfi_def_cfa_offset 16
	.cfi_offset %rbp, -16
	movq	%rsp, %rbp
	.cfi_def_cfa_register %rbp
	subq	$16, %rsp
	callq	__ZN4core3ptr9const_ptr33_$LT$impl$u20$$BP$const$u20$T$GT$6offset17h7386a14bc171eb81E
	movq	%rax, -8(%rbp)
	movq	-8(%rbp), %rax
	addq	$16, %rsp
	popq	%rbp
	retq
	.cfi_endproc

	.p2align	4, 0x90
__ZN4core3ptr9const_ptr33_$LT$impl$u20$$BP$const$u20$T$GT$3add17h74e8d09b9b4309e8E:
	.cfi_startproc
	pushq	%rbp
	.cfi_def_cfa_offset 16
	.cfi_offset %rbp, -16
	movq	%rsp, %rbp
	.cfi_def_cfa_register %rbp
	subq	$16, %rsp
	callq	__ZN4core3ptr9const_ptr33_$LT$impl$u20$$BP$const$u20$T$GT$6offset17h09397e0a2f899a87E
	movq	%rax, -8(%rbp)
	movq	-8(%rbp), %rax
	addq	$16, %rsp
	popq	%rbp
	retq
	.cfi_endproc

	.p2align	4, 0x90
__ZN4core3ptr9const_ptr33_$LT$impl$u20$$BP$const$u20$T$GT$3add17h9a9d533123f685d5E:
	.cfi_startproc
	pushq	%rbp
	.cfi_def_cfa_offset 16
	.cfi_offset %rbp, -16
	movq	%rsp, %rbp
	.cfi_def_cfa_register %rbp
	subq	$16, %rsp
	callq	__ZN4core3ptr9const_ptr33_$LT$impl$u20$$BP$const$u20$T$GT$6offset17h909e55ec564124b6E
	movq	%rax, -8(%rbp)
	movq	-8(%rbp), %rax
	addq	$16, %rsp
	popq	%rbp
	retq
	.cfi_endproc

	.p2align	4, 0x90
__ZN4core3ptr9const_ptr33_$LT$impl$u20$$BP$const$u20$T$GT$6offset17h09397e0a2f899a87E:
	.cfi_startproc
	pushq	%rbp
	.cfi_def_cfa_offset 16
	.cfi_offset %rbp, -16
	movq	%rsp, %rbp
	.cfi_def_cfa_register %rbp
	subq	$16, %rsp
	imulq	$24, %rsi, %rax
	addq	%rax, %rdi
	movq	%rdi, -8(%rbp)
	movq	-8(%rbp), %rax
	movq	%rax, -16(%rbp)
	movq	-16(%rbp), %rax
	addq	$16, %rsp
	popq	%rbp
	retq
	.cfi_endproc

	.p2align	4, 0x90
__ZN4core3ptr9const_ptr33_$LT$impl$u20$$BP$const$u20$T$GT$6offset17h7386a14bc171eb81E:
	.cfi_startproc
	pushq	%rbp
	.cfi_def_cfa_offset 16
	.cfi_offset %rbp, -16
	movq	%rsp, %rbp
	.cfi_def_cfa_register %rbp
	subq	$16, %rsp
	addq	%rsi, %rdi
	movq	%rdi, -8(%rbp)
	movq	-8(%rbp), %rax
	movq	%rax, -16(%rbp)
	movq	-16(%rbp), %rax
	addq	$16, %rsp
	popq	%rbp
	retq
	.cfi_endproc

	.p2align	4, 0x90
__ZN4core3ptr9const_ptr33_$LT$impl$u20$$BP$const$u20$T$GT$6offset17h909e55ec564124b6E:
	.cfi_startproc
	pushq	%rbp
	.cfi_def_cfa_offset 16
	.cfi_offset %rbp, -16
	movq	%rsp, %rbp
	.cfi_def_cfa_register %rbp
	subq	$16, %rsp
	imulq	$24, %rsi, %rax
	addq	%rax, %rdi
	movq	%rdi, -8(%rbp)
	movq	-8(%rbp), %rax
	movq	%rax, -16(%rbp)
	movq	-16(%rbp), %rax
	addq	$16, %rsp
	popq	%rbp
	retq
	.cfi_endproc

	.p2align	4, 0x90
__ZN4core3ptr9const_ptr33_$LT$impl$u20$$BP$const$u20$T$GT$6offset17hde2d351d97d22b39E:
	.cfi_startproc
	pushq	%rbp
	.cfi_def_cfa_offset 16
	.cfi_offset %rbp, -16
	movq	%rsp, %rbp
	.cfi_def_cfa_register %rbp
	subq	$16, %rsp
	shlq	$3, %rsi
	addq	%rsi, %rdi
	movq	%rdi, -8(%rbp)
	movq	-8(%rbp), %rax
	movq	%rax, -16(%rbp)
	movq	-16(%rbp), %rax
	addq	$16, %rsp
	popq	%rbp
	retq
	.cfi_endproc

	.p2align	4, 0x90
__ZN4core3ptr9const_ptr33_$LT$impl$u20$$BP$const$u20$T$GT$7is_null17hf29ac81ad2a1ae62E:
	.cfi_startproc
	pushq	%rbp
	.cfi_def_cfa_offset 16
	.cfi_offset %rbp, -16
	movq	%rsp, %rbp
	.cfi_def_cfa_register %rbp
	pushq	%rax
	movq	%rdi, -8(%rbp)
	jmp	LBB169_1
LBB169_1:
	movq	-8(%rbp), %rax
	cmpq	$0, %rax
	sete	%cl
	andb	$1, %cl
	movzbl	%cl, %edx
	movl	%edx, %eax
	addq	$8, %rsp
	popq	%rbp
	retq
	.cfi_endproc

	.p2align	4, 0x90
__ZN4core3ptr9const_ptr43_$LT$impl$u20$$BP$const$u20$$u5b$T$u5d$$GT$3len17h0dc8a4827b4ff632E:
	.cfi_startproc
	pushq	%rbp
	.cfi_def_cfa_offset 16
	.cfi_offset %rbp, -16
	movq	%rsp, %rbp
	.cfi_def_cfa_register %rbp
	subq	$16, %rsp
	movq	%rdi, -16(%rbp)
	movq	%rsi, -8(%rbp)
	movq	-8(%rbp), %rax
	addq	$16, %rsp
	popq	%rbp
	retq
	.cfi_endproc

	.p2align	4, 0x90
__ZN4core3ptr9const_ptr43_$LT$impl$u20$$BP$const$u20$$u5b$T$u5d$$GT$6as_ptr17h4556b5ebab9a0085E:
	.cfi_startproc
	pushq	%rbp
	.cfi_def_cfa_offset 16
	.cfi_offset %rbp, -16
	movq	%rsp, %rbp
	.cfi_def_cfa_register %rbp
	movq	%rdi, %rax
	popq	%rbp
	retq
	.cfi_endproc

	.p2align	4, 0x90
__ZN4core3ptr9const_ptr43_$LT$impl$u20$$BP$const$u20$$u5b$T$u5d$$GT$6as_ptr17ha959abc8e41d2723E:
	.cfi_startproc
	pushq	%rbp
	.cfi_def_cfa_offset 16
	.cfi_offset %rbp, -16
	movq	%rsp, %rbp
	.cfi_def_cfa_register %rbp
	movq	%rdi, %rax
	popq	%rbp
	retq
	.cfi_endproc

	.p2align	4, 0x90
__ZN4core3ptr9const_ptr43_$LT$impl$u20$$BP$const$u20$$u5b$T$u5d$$GT$6as_ptr17hacc338585b07c4d7E:
	.cfi_startproc
	pushq	%rbp
	.cfi_def_cfa_offset 16
	.cfi_offset %rbp, -16
	movq	%rsp, %rbp
	.cfi_def_cfa_register %rbp
	movq	%rdi, %rax
	popq	%rbp
	retq
	.cfi_endproc

	.p2align	4, 0x90
__ZN4core3ptr9const_ptr43_$LT$impl$u20$$BP$const$u20$$u5b$T$u5d$$GT$6as_ptr17hcb777dfb8419192bE:
	.cfi_startproc
	pushq	%rbp
	.cfi_def_cfa_offset 16
	.cfi_offset %rbp, -16
	movq	%rsp, %rbp
	.cfi_def_cfa_register %rbp
	movq	%rdi, %rax
	popq	%rbp
	retq
	.cfi_endproc

	.p2align	4, 0x90
__ZN4core3str11unwrap_or_017h42252a6a3aa44848E:
	.cfi_startproc
	pushq	%rbp
	.cfi_def_cfa_offset 16
	.cfi_offset %rbp, -16
	movq	%rsp, %rbp
	.cfi_def_cfa_register %rbp
	subq	$16, %rsp
	movq	%rdi, -16(%rbp)
	movq	-16(%rbp), %rax
	testq	%rax, %rax
	setne	%cl
	movzbl	%cl, %edx
	movl	%edx, %eax
	je	LBB175_1
	jmp	LBB175_5
LBB175_5:
	jmp	LBB175_3
LBB175_1:
	movb	$0, -1(%rbp)
	jmp	LBB175_4
	ud2
LBB175_3:
	movq	-16(%rbp), %rax
	movb	(%rax), %cl
	movb	%cl, -1(%rbp)
LBB175_4:
	movb	-1(%rbp), %al
	addq	$16, %rsp
	popq	%rbp
	retq
	.cfi_endproc

	.p2align	4, 0x90
__ZN4core3str15next_code_point17hf65655036788762aE:
	.cfi_startproc
	pushq	%rbp
	.cfi_def_cfa_offset 16
	.cfi_offset %rbp, -16
	movq	%rsp, %rbp
	.cfi_def_cfa_register %rbp
	subq	$112, %rsp
	movq	%rdi, -32(%rbp)
	callq	__ZN85_$LT$core..slice..Iter$LT$T$GT$$u20$as$u20$core..iter..traits..iterator..Iterator$GT$4next17ha8888d462b32430eE
	movq	%rax, -40(%rbp)
	movq	-40(%rbp), %rdi
	callq	__ZN69_$LT$core..option..Option$LT$T$GT$$u20$as$u20$core..ops..try..Try$GT$11into_result17h906cdd0741e6a1a2E
	movq	%rax, -16(%rbp)
	movq	-16(%rbp), %rax
	testq	%rax, %rax
	sete	%cl
	movzbl	%cl, %edx
	movl	%edx, %eax
	jne	LBB176_3
	jmp	LBB176_28
LBB176_28:
	jmp	LBB176_5
LBB176_3:
	movq	-16(%rbp), %rax
	movb	(%rax), %cl
	cmpb	$-128, %cl
	movb	%cl, -41(%rbp)
	jb	LBB176_11
	jmp	LBB176_10
	ud2
LBB176_5:
	callq	__ZN50_$LT$T$u20$as$u20$core..convert..From$LT$T$GT$$GT$4from17hfffb6d251a5e3854E
	jmp	LBB176_7
LBB176_6:
	movl	-24(%rbp), %eax
	movl	-20(%rbp), %edx
	addq	$112, %rsp
	popq	%rbp
	retq
LBB176_7:
	callq	__ZN69_$LT$core..option..Option$LT$T$GT$$u20$as$u20$core..ops..try..Try$GT$10from_error17hffe52f7d4c161533E
	movl	%edx, -20(%rbp)
	movl	%eax, -24(%rbp)
	jmp	LBB176_9
LBB176_9:
	jmp	LBB176_6
LBB176_10:
	movb	-41(%rbp), %al
	movzbl	%al, %edi
	movl	$2, %esi
	callq	__ZN4core3str15utf8_first_byte17h1c27188650ef72f3E
	movl	%eax, -48(%rbp)
	jmp	LBB176_12
LBB176_11:
	movb	-41(%rbp), %al
	movzbl	%al, %ecx
	movl	%ecx, -20(%rbp)
	movl	$1, -24(%rbp)
	jmp	LBB176_9
LBB176_12:
	movq	-32(%rbp), %rdi
	callq	__ZN85_$LT$core..slice..Iter$LT$T$GT$$u20$as$u20$core..iter..traits..iterator..Iterator$GT$4next17ha8888d462b32430eE
	movq	%rax, -56(%rbp)
	movq	-56(%rbp), %rdi
	callq	__ZN4core3str11unwrap_or_017h42252a6a3aa44848E
	movb	%al, -57(%rbp)
	movl	-48(%rbp), %edi
	movb	-57(%rbp), %al
	movzbl	%al, %esi
	callq	__ZN4core3str18utf8_acc_cont_byte17he71d2145b91fee61E
	movl	%eax, -4(%rbp)
	movb	-41(%rbp), %al
	cmpb	$-32, %al
	jae	LBB176_17
	jmp	LBB176_27
LBB176_17:
	movq	-32(%rbp), %rdi
	callq	__ZN85_$LT$core..slice..Iter$LT$T$GT$$u20$as$u20$core..iter..traits..iterator..Iterator$GT$4next17ha8888d462b32430eE
	movq	%rax, -72(%rbp)
	movq	-72(%rbp), %rdi
	callq	__ZN4core3str11unwrap_or_017h42252a6a3aa44848E
	movb	%al, -73(%rbp)
	movb	-57(%rbp), %al
	andb	$63, %al
	movzbl	%al, %edi
	movb	-73(%rbp), %al
	movzbl	%al, %esi
	callq	__ZN4core3str18utf8_acc_cont_byte17he71d2145b91fee61E
	movl	%eax, -80(%rbp)
	movl	-48(%rbp), %eax
	shll	$12, %eax
	movl	-80(%rbp), %ecx
	orl	%ecx, %eax
	movl	%eax, -4(%rbp)
	movb	-41(%rbp), %dl
	cmpb	$-16, %dl
	jae	LBB176_22
	jmp	LBB176_26
LBB176_22:
	movq	-32(%rbp), %rdi
	callq	__ZN85_$LT$core..slice..Iter$LT$T$GT$$u20$as$u20$core..iter..traits..iterator..Iterator$GT$4next17ha8888d462b32430eE
	movq	%rax, -88(%rbp)
	movq	-88(%rbp), %rdi
	callq	__ZN4core3str11unwrap_or_017h42252a6a3aa44848E
	movb	%al, -89(%rbp)
	movl	-48(%rbp), %eax
	andl	$7, %eax
	shll	$18, %eax
	movl	-80(%rbp), %edi
	movb	-89(%rbp), %cl
	movzbl	%cl, %esi
	movl	%eax, -96(%rbp)
	callq	__ZN4core3str18utf8_acc_cont_byte17he71d2145b91fee61E
	movl	%eax, -100(%rbp)
	movl	-96(%rbp), %eax
	movl	-100(%rbp), %ecx
	orl	%ecx, %eax
	movl	%eax, -4(%rbp)
LBB176_26:
	jmp	LBB176_27
LBB176_27:
	movl	-4(%rbp), %eax
	movl	%eax, -20(%rbp)
	movl	$1, -24(%rbp)
	jmp	LBB176_6
	.cfi_endproc

	.p2align	4, 0x90
__ZN4core3str15utf8_first_byte17h1c27188650ef72f3E:
	.cfi_startproc
	pushq	%rbp
	.cfi_def_cfa_offset 16
	.cfi_offset %rbp, -16
	movq	%rsp, %rbp
	.cfi_def_cfa_register %rbp
	andb	$7, %sil
	movb	%sil, %cl
	movb	$127, %al
	shrb	%cl, %al
	andb	%al, %dil
	movzbl	%dil, %eax
	popq	%rbp
	retq
	.cfi_endproc

	.p2align	4, 0x90
__ZN4core3str18utf8_acc_cont_byte17he71d2145b91fee61E:
	.cfi_startproc
	pushq	%rbp
	.cfi_def_cfa_offset 16
	.cfi_offset %rbp, -16
	movq	%rsp, %rbp
	.cfi_def_cfa_register %rbp
	shll	$6, %edi
	andb	$63, %sil
	movzbl	%sil, %eax
	orl	%eax, %edi
	movl	%edi, %eax
	popq	%rbp
	retq
	.cfi_endproc

	.p2align	4, 0x90
__ZN4core3str21_$LT$impl$u20$str$GT$13get_unchecked17h96e31210795da696E:
	.cfi_startproc
	pushq	%rbp
	.cfi_def_cfa_offset 16
	.cfi_offset %rbp, -16
	movq	%rsp, %rbp
	.cfi_def_cfa_register %rbp
	subq	$32, %rsp
	movq	%rdi, -8(%rbp)
	movq	%rdx, %rdi
	movq	%rsi, -16(%rbp)
	movq	%rcx, %rsi
	movq	-8(%rbp), %rdx
	movq	-16(%rbp), %rcx
	callq	__ZN4core3str6traits101_$LT$impl$u20$core..slice..SliceIndex$LT$str$GT$$u20$for$u20$core..ops..range..Range$LT$usize$GT$$GT$13get_unchecked17h743cf49a3dbf20d2E
	movq	%rax, -24(%rbp)
	movq	%rdx, -32(%rbp)
	movq	-24(%rbp), %rax
	movq	-32(%rbp), %rdx
	addq	$32, %rsp
	popq	%rbp
	retq
	.cfi_endproc

	.p2align	4, 0x90
__ZN4core3str21_$LT$impl$u20$str$GT$16is_char_boundary17h5297440753a8072cE:
	.cfi_startproc
	pushq	%rbp
	.cfi_def_cfa_offset 16
	.cfi_offset %rbp, -16
	movq	%rsp, %rbp
	.cfi_def_cfa_register %rbp
	subq	$80, %rsp
	cmpq	$0, %rdx
	movq	%rdi, -40(%rbp)
	movq	%rsi, -48(%rbp)
	movq	%rdx, -56(%rbp)
	jne	LBB180_3
LBB180_1:
	movb	$1, -25(%rbp)
	jmp	LBB180_4
LBB180_2:
	movb	$0, -25(%rbp)
	jmp	LBB180_4
LBB180_3:
	movq	-40(%rbp), %rdi
	movq	-48(%rbp), %rsi
	callq	__ZN4core3str21_$LT$impl$u20$str$GT$3len17hd69b9c1a69be4096E
	movq	%rax, -64(%rbp)
	jmp	LBB180_5
LBB180_4:
	testb	$1, -25(%rbp)
	jne	LBB180_7
	jmp	LBB180_6
LBB180_5:
	movq	-56(%rbp), %rax
	movq	-64(%rbp), %rcx
	cmpq	%rcx, %rax
	je	LBB180_1
	jmp	LBB180_2
LBB180_6:
	movq	-40(%rbp), %rax
	movq	%rax, -16(%rbp)
	movq	-48(%rbp), %rcx
	movq	%rcx, -8(%rbp)
	movq	-16(%rbp), %rdi
	movq	-8(%rbp), %rsi
	movq	%rdi, -72(%rbp)
	movq	%rsi, -80(%rbp)
	jmp	LBB180_9
LBB180_7:
	movb	$1, -26(%rbp)
LBB180_8:
	movb	-26(%rbp), %al
	andb	$1, %al
	movzbl	%al, %eax
	addq	$80, %rsp
	popq	%rbp
	retq
LBB180_9:
	movq	-72(%rbp), %rdi
	movq	-80(%rbp), %rsi
	movq	-56(%rbp), %rdx
	callq	__ZN4core5slice29_$LT$impl$u20$$u5b$T$u5d$$GT$3get17h3d90984b8deaaa16E
	movq	%rax, -24(%rbp)
	movq	-24(%rbp), %rax
	testq	%rax, %rax
	setne	%cl
	movzbl	%cl, %edx
	movl	%edx, %eax
	je	LBB180_13
	jmp	LBB180_15
LBB180_15:
	movq	-24(%rbp), %rax
	cmpb	$-64, (%rax)
	setge	%cl
	andb	$1, %cl
	movb	%cl, -26(%rbp)
	jmp	LBB180_14
	ud2
LBB180_13:
	movb	$0, -26(%rbp)
LBB180_14:
	jmp	LBB180_8
	.cfi_endproc

	.p2align	4, 0x90
__ZN4core3str21_$LT$impl$u20$str$GT$3len17hd69b9c1a69be4096E:
	.cfi_startproc
	pushq	%rbp
	.cfi_def_cfa_offset 16
	.cfi_offset %rbp, -16
	movq	%rsp, %rbp
	.cfi_def_cfa_register %rbp
	subq	$48, %rsp
	movq	%rdi, -16(%rbp)
	movq	%rsi, -8(%rbp)
	movq	-16(%rbp), %rdi
	movq	-8(%rbp), %rsi
	movq	%rdi, -24(%rbp)
	movq	%rsi, -32(%rbp)
	movq	-24(%rbp), %rdi
	movq	-32(%rbp), %rsi
	callq	__ZN4core5slice29_$LT$impl$u20$$u5b$T$u5d$$GT$3len17h144e3f806818b42aE
	movq	%rax, -40(%rbp)
	movq	-40(%rbp), %rax
	addq	$48, %rsp
	popq	%rbp
	retq
	.cfi_endproc

	.p2align	4, 0x90
__ZN4core3str21_$LT$impl$u20$str$GT$5chars17h5408781f0e8223cbE:
	.cfi_startproc
	pushq	%rbp
	.cfi_def_cfa_offset 16
	.cfi_offset %rbp, -16
	movq	%rsp, %rbp
	.cfi_def_cfa_register %rbp
	subq	$64, %rsp
	movq	%rdi, -16(%rbp)
	movq	%rsi, -8(%rbp)
	movq	-16(%rbp), %rdi
	movq	-8(%rbp), %rsi
	movq	%rdi, -40(%rbp)
	movq	%rsi, -48(%rbp)
	movq	-40(%rbp), %rdi
	movq	-48(%rbp), %rsi
	callq	__ZN4core5slice29_$LT$impl$u20$$u5b$T$u5d$$GT$4iter17h5384373500874736E
	movq	%rax, -56(%rbp)
	movq	%rdx, -64(%rbp)
	movq	-56(%rbp), %rax
	movq	%rax, -32(%rbp)
	movq	-64(%rbp), %rcx
	movq	%rcx, -24(%rbp)
	movq	-32(%rbp), %rax
	movq	-24(%rbp), %rdx
	addq	$64, %rsp
	popq	%rbp
	retq
	.cfi_endproc

	.p2align	4, 0x90
__ZN4core3str21_$LT$impl$u20$str$GT$5parse17h9dd61d21b94c60aeE:
	.cfi_startproc
	pushq	%rbp
	.cfi_def_cfa_offset 16
	.cfi_offset %rbp, -16
	movq	%rsp, %rbp
	.cfi_def_cfa_register %rbp
	subq	$16, %rsp
	callq	__ZN4core3num52_$LT$impl$u20$core..str..FromStr$u20$for$u20$u32$GT$8from_str17h7755800c3765c881E
	movq	%rax, -8(%rbp)
	movq	-8(%rbp), %rax
	movq	%rax, -16(%rbp)
	movq	-16(%rbp), %rax
	addq	$16, %rsp
	popq	%rbp
	retq
	.cfi_endproc

	.p2align	4, 0x90
__ZN4core3str21_$LT$impl$u20$str$GT$5split17hee049b0e808b0c06E:
Lfunc_begin22:
	.cfi_startproc
	.cfi_personality 155, _rust_eh_personality
	.cfi_lsda 16, Lexception22
	pushq	%rbp
	.cfi_def_cfa_offset 16
	.cfi_offset %rbp, -16
	movq	%rsp, %rbp
	.cfi_def_cfa_register %rbp
	subq	$208, %rsp
	movq	%rdi, %rax
	movb	$0, -17(%rbp)
	movb	$1, -17(%rbp)
Ltmp103:
	movq	%rdi, -152(%rbp)
	movq	%rsi, %rdi
	movq	%rsi, -160(%rbp)
	movq	%rdx, %rsi
	movl	%ecx, -164(%rbp)
	movq	%rdx, -176(%rbp)
	movq	%rax, -184(%rbp)
	callq	__ZN4core3str21_$LT$impl$u20$str$GT$3len17hd69b9c1a69be4096E
Ltmp104:
	movq	%rax, -192(%rbp)
	jmp	LBB184_2
LBB184_1:
	movq	-16(%rbp), %rdi
	callq	__Unwind_Resume
	ud2
LBB184_2:
	movb	$0, -17(%rbp)
Ltmp105:
	leaq	-72(%rbp), %rdi
	movl	-164(%rbp), %esi
	movq	-160(%rbp), %rdx
	movq	-176(%rbp), %rcx
	callq	__ZN52_$LT$char$u20$as$u20$core..str..pattern..Pattern$GT$13into_searcher17h16d142eb52c6c88dE
Ltmp106:
	jmp	LBB184_3
LBB184_3:
	movq	$0, -144(%rbp)
	movq	-192(%rbp), %rax
	movq	%rax, -136(%rbp)
	leaq	-144(%rbp), %rcx
	movq	%rcx, %rdx
	addq	$16, %rdx
	leaq	-72(%rbp), %rsi
	movq	%rdx, %rdi
	movl	$48, %edx
	movq	%rcx, -200(%rbp)
	callq	_memcpy
	movb	$1, -80(%rbp)
	movb	$0, -79(%rbp)
	movq	-152(%rbp), %rax
	movq	-200(%rbp), %rcx
	movq	%rax, %rdi
	movq	%rcx, %rsi
	movl	$72, %edx
	callq	_memcpy
	movq	-184(%rbp), %rax
	addq	$208, %rsp
	popq	%rbp
	retq
LBB184_4:
	movb	$0, -17(%rbp)
	jmp	LBB184_1
LBB184_5:
	testb	$1, -17(%rbp)
	jne	LBB184_4
	jmp	LBB184_1
LBB184_6:
Ltmp107:
	movq	%rax, -16(%rbp)
	movl	%edx, -8(%rbp)
	jmp	LBB184_5
Lfunc_end22:
	.cfi_endproc
	.section	__TEXT,__gcc_except_tab
	.p2align	2
GCC_except_table184:
Lexception22:
	.byte	255
	.byte	255
	.byte	1
	.uleb128 Lcst_end22-Lcst_begin22
Lcst_begin22:
	.uleb128 Ltmp103-Lfunc_begin22
	.uleb128 Ltmp104-Ltmp103
	.uleb128 Ltmp107-Lfunc_begin22
	.byte	0
	.uleb128 Ltmp104-Lfunc_begin22
	.uleb128 Ltmp105-Ltmp104
	.byte	0
	.byte	0
	.uleb128 Ltmp105-Lfunc_begin22
	.uleb128 Ltmp106-Ltmp105
	.uleb128 Ltmp107-Lfunc_begin22
	.byte	0
	.uleb128 Ltmp106-Lfunc_begin22
	.uleb128 Lfunc_end22-Ltmp106
	.byte	0
	.byte	0
Lcst_end22:
	.p2align	2

	.section	__TEXT,__text,regular,pure_instructions
	.p2align	4, 0x90
__ZN4core3str21_$LT$impl$u20$str$GT$8contains17hf5d6ef02ac628008E:
	.cfi_startproc
	pushq	%rbp
	.cfi_def_cfa_offset 16
	.cfi_offset %rbp, -16
	movq	%rsp, %rbp
	.cfi_def_cfa_register %rbp
	subq	$32, %rsp
	movq	%rdi, -8(%rbp)
	movq	%rdx, %rdi
	movq	%rsi, -16(%rbp)
	movq	%rcx, %rsi
	movq	-8(%rbp), %rdx
	movq	-16(%rbp), %rcx
	callq	__ZN4core3str7pattern7Pattern15is_contained_in17h80db81f2a1880e32E
	movb	%al, -17(%rbp)
	movb	-17(%rbp), %al
	andb	$1, %al
	movzbl	%al, %eax
	addq	$32, %rsp
	popq	%rbp
	retq
	.cfi_endproc

	.p2align	4, 0x90
__ZN4core3str22SplitInternal$LT$P$GT$4next17h0f24924b5ffee6b7E:
	.cfi_startproc
	pushq	%rbp
	.cfi_def_cfa_offset 16
	.cfi_offset %rbp, -16
	movq	%rsp, %rbp
	.cfi_def_cfa_register %rbp
	subq	$112, %rsp
	testb	$1, 65(%rdi)
	movq	%rdi, -64(%rbp)
	jne	LBB186_2
	movq	-64(%rbp), %rax
	addq	$16, %rax
	movq	%rax, %rdi
	callq	__ZN81_$LT$core..str..pattern..CharSearcher$u20$as$u20$core..str..pattern..Searcher$GT$8haystack17h313138d4d3560ceaE
	movq	%rax, -72(%rbp)
	movq	%rdx, -80(%rbp)
	jmp	LBB186_4
LBB186_2:
	movq	$0, -56(%rbp)
LBB186_3:
	movq	-56(%rbp), %rax
	movq	-48(%rbp), %rdx
	addq	$112, %rsp
	popq	%rbp
	retq
LBB186_4:
	movq	-64(%rbp), %rax
	addq	$16, %rax
	leaq	-40(%rbp), %rdi
	movq	%rax, %rsi
	callq	__ZN81_$LT$core..str..pattern..CharSearcher$u20$as$u20$core..str..pattern..Searcher$GT$10next_match17h6767581bc298174bE
	movq	-40(%rbp), %rax
	testq	%rax, %rax
	je	LBB186_6
	jmp	LBB186_12
LBB186_12:
	jmp	LBB186_8
LBB186_6:
	movq	-64(%rbp), %rdi
	callq	__ZN4core3str22SplitInternal$LT$P$GT$7get_end17h8ec817074f62a248E
	movq	%rdx, -48(%rbp)
	movq	%rax, -56(%rbp)
	jmp	LBB186_10
	ud2
LBB186_8:
	movq	-32(%rbp), %rax
	movq	-24(%rbp), %rcx
	movq	-64(%rbp), %rdx
	movq	(%rdx), %rsi
	movq	%rsi, -16(%rbp)
	movq	%rax, -8(%rbp)
	movq	-16(%rbp), %rdx
	movq	-8(%rbp), %rax
	movq	-72(%rbp), %rdi
	movq	-80(%rbp), %rsi
	movq	%rcx, -88(%rbp)
	movq	%rax, %rcx
	callq	__ZN4core3str21_$LT$impl$u20$str$GT$13get_unchecked17h96e31210795da696E
	movq	%rax, -96(%rbp)
	movq	%rdx, -104(%rbp)
	movq	-64(%rbp), %rax
	movq	-88(%rbp), %rcx
	movq	%rcx, (%rax)
	movq	-96(%rbp), %rdx
	movq	%rdx, -56(%rbp)
	movq	-104(%rbp), %rsi
	movq	%rsi, -48(%rbp)
	jmp	LBB186_11
LBB186_10:
	jmp	LBB186_11
LBB186_11:
	jmp	LBB186_3
	.cfi_endproc

	.p2align	4, 0x90
__ZN4core3str22SplitInternal$LT$P$GT$7get_end17h8ec817074f62a248E:
	.cfi_startproc
	pushq	%rbp
	.cfi_def_cfa_offset 16
	.cfi_offset %rbp, -16
	movq	%rsp, %rbp
	.cfi_def_cfa_register %rbp
	subq	$80, %rsp
	movb	65(%rdi), %al
	xorb	$-1, %al
	testb	$1, %al
	movq	%rdi, -48(%rbp)
	jne	LBB187_3
	jmp	LBB187_2
LBB187_1:
	movb	$1, -18(%rbp)
	jmp	LBB187_4
LBB187_2:
	movb	$0, -18(%rbp)
	jmp	LBB187_4
LBB187_3:
	movq	-48(%rbp), %rax
	testb	$1, 64(%rax)
	jne	LBB187_5
	jmp	LBB187_7
LBB187_4:
	testb	$1, -18(%rbp)
	jne	LBB187_10
	jmp	LBB187_9
LBB187_5:
	movb	$1, -17(%rbp)
	jmp	LBB187_8
LBB187_6:
	movb	$0, -17(%rbp)
	jmp	LBB187_8
LBB187_7:
	movq	-48(%rbp), %rax
	movq	8(%rax), %rcx
	subq	(%rax), %rcx
	cmpq	$0, %rcx
	ja	LBB187_5
	jmp	LBB187_6
LBB187_8:
	testb	$1, -17(%rbp)
	jne	LBB187_1
	jmp	LBB187_2
LBB187_9:
	movq	$0, -40(%rbp)
	jmp	LBB187_13
LBB187_10:
	movq	-48(%rbp), %rax
	movb	$1, 65(%rax)
	addq	$16, %rax
	movq	%rax, %rdi
	callq	__ZN81_$LT$core..str..pattern..CharSearcher$u20$as$u20$core..str..pattern..Searcher$GT$8haystack17h313138d4d3560ceaE
	movq	%rax, -56(%rbp)
	movq	%rdx, -64(%rbp)
	movq	-48(%rbp), %rax
	movq	(%rax), %rcx
	movq	8(%rax), %rdx
	movq	%rcx, -16(%rbp)
	movq	%rdx, -8(%rbp)
	movq	-16(%rbp), %rdx
	movq	-8(%rbp), %rcx
	movq	-56(%rbp), %rdi
	movq	-64(%rbp), %rsi
	callq	__ZN4core3str21_$LT$impl$u20$str$GT$13get_unchecked17h96e31210795da696E
	movq	%rax, -72(%rbp)
	movq	%rdx, -80(%rbp)
	movq	-72(%rbp), %rax
	movq	%rax, -40(%rbp)
	movq	-80(%rbp), %rcx
	movq	%rcx, -32(%rbp)
LBB187_13:
	movq	-40(%rbp), %rax
	movq	-32(%rbp), %rdx
	addq	$80, %rsp
	popq	%rbp
	retq
	.cfi_endproc

	.p2align	4, 0x90
__ZN4core3str23from_utf8_unchecked_mut17h1cc7974e11ce3e4bE:
	.cfi_startproc
	pushq	%rbp
	.cfi_def_cfa_offset 16
	.cfi_offset %rbp, -16
	movq	%rsp, %rbp
	.cfi_def_cfa_register %rbp
	movq	%rdi, %rax
	movq	%rsi, %rdx
	popq	%rbp
	retq
	.cfi_endproc

	.p2align	4, 0x90
__ZN4core3str6traits101_$LT$impl$u20$core..slice..SliceIndex$LT$str$GT$$u20$for$u20$core..ops..range..Range$LT$usize$GT$$GT$13get_unchecked17h743cf49a3dbf20d2E:
	.cfi_startproc
	pushq	%rbp
	.cfi_def_cfa_offset 16
	.cfi_offset %rbp, -16
	movq	%rsp, %rbp
	.cfi_def_cfa_register %rbp
	subq	$48, %rsp
	movq	%rdi, -8(%rbp)
	movq	%rdx, %rdi
	movq	%rsi, -16(%rbp)
	movq	%rcx, %rsi
	callq	__ZN4core3ptr9const_ptr43_$LT$impl$u20$$BP$const$u20$$u5b$T$u5d$$GT$6as_ptr17ha959abc8e41d2723E
	movq	%rax, -24(%rbp)
	movq	-24(%rbp), %rdi
	movq	-8(%rbp), %rsi
	callq	__ZN4core3ptr9const_ptr33_$LT$impl$u20$$BP$const$u20$T$GT$3add17h6f9ec26943ed9e83E
	movq	%rax, -32(%rbp)
	movq	-16(%rbp), %rax
	movq	-8(%rbp), %rcx
	subq	%rcx, %rax
	movq	-32(%rbp), %rdi
	movq	%rax, %rsi
	callq	__ZN4core3ptr20slice_from_raw_parts17h7d995bd6d2dcd032E
	movq	%rax, -40(%rbp)
	movq	%rdx, -48(%rbp)
	movq	-40(%rbp), %rax
	movq	-48(%rbp), %rdx
	addq	$48, %rsp
	popq	%rbp
	retq
	.cfi_endproc

	.p2align	4, 0x90
__ZN4core3str6traits105_$LT$impl$u20$core..slice..SliceIndex$LT$str$GT$$u20$for$u20$core..ops..range..RangeFrom$LT$usize$GT$$GT$13get_unchecked17hef68eed216a26bb0E:
	.cfi_startproc
	pushq	%rbp
	.cfi_def_cfa_offset 16
	.cfi_offset %rbp, -16
	movq	%rsp, %rbp
	.cfi_def_cfa_register %rbp
	subq	$64, %rsp
	movq	%rdi, -8(%rbp)
	movq	%rsi, %rdi
	movq	%rsi, -16(%rbp)
	movq	%rdx, %rsi
	movq	%rdx, -24(%rbp)
	callq	__ZN4core3ptr9const_ptr43_$LT$impl$u20$$BP$const$u20$$u5b$T$u5d$$GT$6as_ptr17ha959abc8e41d2723E
	movq	%rax, -32(%rbp)
	movq	-32(%rbp), %rdi
	movq	-8(%rbp), %rsi
	callq	__ZN4core3ptr9const_ptr33_$LT$impl$u20$$BP$const$u20$T$GT$3add17h6f9ec26943ed9e83E
	movq	%rax, -40(%rbp)
	movq	-16(%rbp), %rdi
	movq	-24(%rbp), %rsi
	callq	__ZN4core3ptr9const_ptr43_$LT$impl$u20$$BP$const$u20$$u5b$T$u5d$$GT$3len17h0dc8a4827b4ff632E
	movq	%rax, -48(%rbp)
	movq	-48(%rbp), %rax
	movq	-8(%rbp), %rcx
	subq	%rcx, %rax
	movq	-40(%rbp), %rdi
	movq	%rax, %rsi
	callq	__ZN4core3ptr20slice_from_raw_parts17h7d995bd6d2dcd032E
	movq	%rax, -56(%rbp)
	movq	%rdx, -64(%rbp)
	movq	-56(%rbp), %rax
	movq	-64(%rbp), %rdx
	addq	$64, %rsp
	popq	%rbp
	retq
	.cfi_endproc

	.p2align	4, 0x90
__ZN4core3str6traits105_$LT$impl$u20$core..slice..SliceIndex$LT$str$GT$$u20$for$u20$core..ops..range..RangeFrom$LT$usize$GT$$GT$3get17h6520a4785693ba8bE:
	.cfi_startproc
	pushq	%rbp
	.cfi_def_cfa_offset 16
	.cfi_offset %rbp, -16
	movq	%rsp, %rbp
	.cfi_def_cfa_register %rbp
	subq	$64, %rsp
	movq	%rdi, -24(%rbp)
	movq	%rsi, %rdi
	movq	%rsi, -32(%rbp)
	movq	%rdx, %rsi
	movq	-24(%rbp), %rax
	movq	%rdx, -40(%rbp)
	movq	%rax, %rdx
	callq	__ZN4core3str21_$LT$impl$u20$str$GT$16is_char_boundary17h5297440753a8072cE
	movb	%al, -41(%rbp)
	movb	-41(%rbp), %al
	testb	$1, %al
	jne	LBB191_3
	jmp	LBB191_2
LBB191_2:
	movq	$0, -16(%rbp)
	jmp	LBB191_5
LBB191_3:
	movq	-24(%rbp), %rdi
	movq	-32(%rbp), %rsi
	movq	-40(%rbp), %rdx
	callq	__ZN4core3str6traits105_$LT$impl$u20$core..slice..SliceIndex$LT$str$GT$$u20$for$u20$core..ops..range..RangeFrom$LT$usize$GT$$GT$13get_unchecked17hef68eed216a26bb0E
	movq	%rax, -56(%rbp)
	movq	%rdx, -64(%rbp)
	movq	-56(%rbp), %rax
	movq	%rax, -16(%rbp)
	movq	-64(%rbp), %rcx
	movq	%rcx, -8(%rbp)
LBB191_5:
	movq	-16(%rbp), %rax
	movq	-8(%rbp), %rdx
	addq	$64, %rsp
	popq	%rbp
	retq
	.cfi_endproc

	.p2align	4, 0x90
__ZN4core3str6traits105_$LT$impl$u20$core..slice..SliceIndex$LT$str$GT$$u20$for$u20$core..ops..range..RangeFrom$LT$usize$GT$$GT$5index17h2daf764bc1c21ec1E:
	.cfi_startproc
	pushq	%rbp
	.cfi_def_cfa_offset 16
	.cfi_offset %rbp, -16
	movq	%rsp, %rbp
	.cfi_def_cfa_register %rbp
	subq	$128, %rsp
	movq	%rsi, -72(%rbp)
	movq	%rdx, -64(%rbp)
	movq	-72(%rbp), %rax
	movq	-64(%rbp), %rsi
	movq	%rdi, -80(%rbp)
	movq	%rax, %rdi
	movq	%rcx, -88(%rbp)
	callq	__ZN4core3str21_$LT$impl$u20$str$GT$3len17hd69b9c1a69be4096E
	movq	%rax, -96(%rbp)
	movq	-80(%rbp), %rax
	movq	%rax, -40(%rbp)
	movq	-96(%rbp), %rcx
	movq	%rcx, -32(%rbp)
	movq	-40(%rbp), %rdx
	movq	%rdx, -56(%rbp)
	movq	-32(%rbp), %rdx
	movq	%rdx, -48(%rbp)
	movq	-72(%rbp), %rsi
	movq	-64(%rbp), %rdx
	movq	%rax, %rdi
	callq	__ZN4core3str6traits105_$LT$impl$u20$core..slice..SliceIndex$LT$str$GT$$u20$for$u20$core..ops..range..RangeFrom$LT$usize$GT$$GT$3get17h6520a4785693ba8bE
	movq	%rax, -104(%rbp)
	movq	%rdx, -112(%rbp)
	leaq	-72(%rbp), %rax
	movq	%rax, -24(%rbp)
	leaq	-56(%rbp), %rax
	movq	%rax, -16(%rbp)
	leaq	-48(%rbp), %rax
	movq	%rax, -8(%rbp)
	movq	-104(%rbp), %rdi
	movq	-112(%rbp), %rsi
	leaq	-24(%rbp), %rdx
	callq	__ZN4core6option15Option$LT$T$GT$14unwrap_or_else17h811c7444cde1822dE
	movq	%rax, -120(%rbp)
	movq	%rdx, -128(%rbp)
	movq	-120(%rbp), %rax
	movq	-128(%rbp), %rdx
	addq	$128, %rsp
	popq	%rbp
	retq
	.cfi_endproc

	.p2align	4, 0x90
__ZN4core3str6traits105_$LT$impl$u20$core..slice..SliceIndex$LT$str$GT$$u20$for$u20$core..ops..range..RangeFrom$LT$usize$GT$$GT$5index28_$u7b$$u7b$closure$u7d$$u7d$17h3d17ceff96dc4d66E:
	.cfi_startproc
	pushq	%rbp
	.cfi_def_cfa_offset 16
	.cfi_offset %rbp, -16
	movq	%rsp, %rbp
	.cfi_def_cfa_register %rbp
	movq	(%rdi), %rax
	movq	8(%rdi), %rcx
	movq	(%rax), %rdx
	movq	8(%rax), %rsi
	movq	(%rcx), %rax
	movq	16(%rdi), %rcx
	movq	(%rcx), %rcx
	leaq	l___unnamed_3(%rip), %r8
	movq	%rdx, %rdi
	movq	%rax, %rdx
	callq	__ZN4core3str16slice_error_fail17ha125059561e5ce66E
	.cfi_endproc

	.p2align	4, 0x90
__ZN4core3str6traits54_$LT$impl$u20$core..cmp..PartialEq$u20$for$u20$str$GT$2eq17hc1d7eb389df22313E:
	.cfi_startproc
	pushq	%rbp
	.cfi_def_cfa_offset 16
	.cfi_offset %rbp, -16
	movq	%rsp, %rbp
	.cfi_def_cfa_register %rbp
	subq	$96, %rsp
	movq	%rdi, -32(%rbp)
	movq	%rsi, -24(%rbp)
	movq	-32(%rbp), %rax
	movq	-24(%rbp), %rsi
	movq	%rsi, -56(%rbp)
	movq	%rax, -64(%rbp)
	movq	%rdx, -72(%rbp)
	movq	%rcx, -80(%rbp)
	movq	-72(%rbp), %rax
	movq	%rax, -16(%rbp)
	movq	-80(%rbp), %rcx
	movq	%rcx, -8(%rbp)
	movq	-16(%rbp), %rdx
	movq	-8(%rbp), %rsi
	movq	%rsi, -40(%rbp)
	movq	%rdx, -48(%rbp)
	leaq	-64(%rbp), %rdi
	leaq	-48(%rbp), %rsi
	callq	__ZN4core3cmp5impls69_$LT$impl$u20$core..cmp..PartialEq$LT$$RF$B$GT$$u20$for$u20$$RF$A$GT$2eq17hd52cb1555bfd4eceE
	movb	%al, -81(%rbp)
	movb	-81(%rbp), %al
	andb	$1, %al
	movzbl	%al, %eax
	addq	$96, %rsp
	popq	%rbp
	retq
	.cfi_endproc

	.p2align	4, 0x90
__ZN4core3str6traits54_$LT$impl$u20$core..cmp..PartialEq$u20$for$u20$str$GT$2ne17hf3fcea8062ed83dfE:
	.cfi_startproc
	pushq	%rbp
	.cfi_def_cfa_offset 16
	.cfi_offset %rbp, -16
	movq	%rsp, %rbp
	.cfi_def_cfa_register %rbp
	subq	$16, %rsp
	callq	__ZN4core3str6traits54_$LT$impl$u20$core..cmp..PartialEq$u20$for$u20$str$GT$2eq17hc1d7eb389df22313E
	movb	%al, -1(%rbp)
	movb	-1(%rbp), %al
	xorb	$-1, %al
	andb	$1, %al
	movzbl	%al, %eax
	addq	$16, %rsp
	popq	%rbp
	retq
	.cfi_endproc

	.p2align	4, 0x90
__ZN4core3str6traits66_$LT$impl$u20$core..ops..index..Index$LT$I$GT$$u20$for$u20$str$GT$5index17h5ef5c3b9c7c2c079E:
	.cfi_startproc
	pushq	%rbp
	.cfi_def_cfa_offset 16
	.cfi_offset %rbp, -16
	movq	%rsp, %rbp
	.cfi_def_cfa_register %rbp
	subq	$32, %rsp
	movq	%rdi, -8(%rbp)
	movq	%rdx, %rdi
	movq	-8(%rbp), %rax
	movq	%rsi, -16(%rbp)
	movq	%rax, %rsi
	movq	-16(%rbp), %rdx
	callq	__ZN4core3str6traits105_$LT$impl$u20$core..slice..SliceIndex$LT$str$GT$$u20$for$u20$core..ops..range..RangeFrom$LT$usize$GT$$GT$5index17h2daf764bc1c21ec1E
	movq	%rax, -24(%rbp)
	movq	%rdx, -32(%rbp)
	movq	-24(%rbp), %rax
	movq	-32(%rbp), %rdx
	addq	$32, %rsp
	popq	%rbp
	retq
	.cfi_endproc

	.p2align	4, 0x90
__ZN4core3str7pattern14TwoWaySearcher16byteset_contains17hfda625c31b0f09a2E:
	.cfi_startproc
	pushq	%rbp
	.cfi_def_cfa_offset 16
	.cfi_offset %rbp, -16
	movq	%rsp, %rbp
	.cfi_def_cfa_register %rbp
	movq	24(%rdi), %rax
	andb	$63, %sil
	movzbl	%sil, %ecx
	movl	%ecx, %edx
	andq	$63, %rdx
	movq	%rdx, %rcx
	shrq	%cl, %rax
	andq	$1, %rax
	cmpq	$0, %rax
	setne	%cl
	andb	$1, %cl
	movzbl	%cl, %eax
	popq	%rbp
	retq
	.cfi_endproc

	.p2align	4, 0x90
__ZN4core3str7pattern14TwoWaySearcher4next17h119a046521031812E:
	.cfi_startproc
	pushq	%rbp
	.cfi_def_cfa_offset 16
	.cfi_offset %rbp, -16
	movq	%rsp, %rbp
	.cfi_def_cfa_register %rbp
	subq	$384, %rsp
	movq	%rdi, %rax
	movb	16(%rbp), %r10b
	movq	32(%rsi), %r11
	movq	%rdi, -136(%rbp)
	movq	%r8, %rdi
	movq	%rsi, -144(%rbp)
	movq	%r9, %rsi
	movq	%r9, -152(%rbp)
	movq	%r8, -160(%rbp)
	movq	%rcx, -168(%rbp)
	movq	%rdx, -176(%rbp)
	movq	%rax, -184(%rbp)
	movb	%r10b, -185(%rbp)
	movq	%r11, -200(%rbp)
	callq	__ZN4core5slice29_$LT$impl$u20$$u5b$T$u5d$$GT$3len17h144e3f806818b42aE
	movq	%rax, -208(%rbp)
	movq	-208(%rbp), %rax
	subq	$1, %rax
	movq	%rax, -216(%rbp)
LBB198_2:
	movq	-216(%rbp), %rax
	movq	-144(%rbp), %rcx
	addq	32(%rcx), %rax
	movq	-176(%rbp), %rdi
	movq	-168(%rbp), %rsi
	movq	%rax, %rdx
	callq	__ZN4core5slice29_$LT$impl$u20$$u5b$T$u5d$$GT$3get17h3d90984b8deaaa16E
	movq	%rax, -128(%rbp)
	movq	-128(%rbp), %rax
	testq	%rax, %rax
	setne	%cl
	movzbl	%cl, %edx
	movl	%edx, %eax
	je	LBB198_4
	jmp	LBB198_73
LBB198_73:
	jmp	LBB198_6
LBB198_4:
	movq	-176(%rbp), %rdi
	movq	-168(%rbp), %rsi
	callq	__ZN4core5slice29_$LT$impl$u20$$u5b$T$u5d$$GT$3len17h144e3f806818b42aE
	movq	%rax, -224(%rbp)
	jmp	LBB198_7
	ud2
LBB198_6:
	movq	-128(%rbp), %rax
	movb	(%rax), %cl
	movb	%cl, -225(%rbp)
	callq	__ZN89_$LT$core..str..pattern..RejectAndMatch$u20$as$u20$core..str..pattern..TwoWayStrategy$GT$16use_early_reject17h88cef54987cf9317E
	movb	%al, -226(%rbp)
	jmp	LBB198_14
LBB198_7:
	movq	-144(%rbp), %rax
	movq	-224(%rbp), %rcx
	movq	%rcx, 32(%rax)
	movq	32(%rax), %rdx
	movq	-136(%rbp), %rdi
	movq	-200(%rbp), %rsi
	callq	__ZN89_$LT$core..str..pattern..RejectAndMatch$u20$as$u20$core..str..pattern..TwoWayStrategy$GT$9rejecting17hf2701fd22dd7a20bE
	jmp	LBB198_9
LBB198_9:
	movq	-184(%rbp), %rax
	addq	$384, %rsp
	popq	%rbp
	retq
LBB198_10:
	movb	$1, -113(%rbp)
	jmp	LBB198_13
LBB198_11:
	movb	$0, -113(%rbp)
	jmp	LBB198_13
LBB198_12:
	movq	-200(%rbp), %rax
	movq	-144(%rbp), %rcx
	cmpq	32(%rcx), %rax
	jne	LBB198_10
	jmp	LBB198_11
LBB198_13:
	testb	$1, -113(%rbp)
	jne	LBB198_16
	jmp	LBB198_15
LBB198_14:
	movb	-226(%rbp), %al
	testb	$1, %al
	jne	LBB198_12
	jmp	LBB198_11
LBB198_15:
	movq	-144(%rbp), %rdi
	movb	-225(%rbp), %al
	movzbl	%al, %esi
	callq	__ZN4core3str7pattern14TwoWaySearcher16byteset_contains17hfda625c31b0f09a2E
	movb	%al, -227(%rbp)
	jmp	LBB198_18
LBB198_16:
	movq	-144(%rbp), %rax
	movq	32(%rax), %rdx
	movq	-136(%rbp), %rdi
	movq	-200(%rbp), %rsi
	callq	__ZN89_$LT$core..str..pattern..RejectAndMatch$u20$as$u20$core..str..pattern..TwoWayStrategy$GT$9rejecting17hf2701fd22dd7a20bE
	jmp	LBB198_9
LBB198_18:
	movb	-227(%rbp), %al
	xorb	$-1, %al
	testb	$1, %al
	jne	LBB198_20
	movb	-185(%rbp), %al
	testb	$1, %al
	jne	LBB198_27
	jmp	LBB198_26
LBB198_20:
	movq	-160(%rbp), %rdi
	movq	-152(%rbp), %rsi
	callq	__ZN4core5slice29_$LT$impl$u20$$u5b$T$u5d$$GT$3len17h144e3f806818b42aE
	movq	%rax, -240(%rbp)
	movq	-240(%rbp), %rax
	movq	-144(%rbp), %rcx
	addq	32(%rcx), %rax
	movq	%rax, 32(%rcx)
	movb	-185(%rbp), %dl
	xorb	$-1, %dl
	testb	$1, %dl
	jne	LBB198_23
	jmp	LBB198_24
LBB198_23:
	movq	-144(%rbp), %rax
	movq	$0, 48(%rax)
LBB198_24:
	jmp	LBB198_25
LBB198_25:
	jmp	LBB198_2
LBB198_26:
	movq	-144(%rbp), %rax
	movq	(%rax), %rdi
	movq	48(%rax), %rsi
	callq	__ZN4core3cmp3max17hd5de39af7cb052ceE
	movq	%rax, -112(%rbp)
	jmp	LBB198_28
LBB198_27:
	movq	-144(%rbp), %rax
	movq	(%rax), %rcx
	movq	%rcx, -112(%rbp)
	jmp	LBB198_29
LBB198_28:
	jmp	LBB198_29
LBB198_29:
	movq	-112(%rbp), %rax
	movq	-160(%rbp), %rdi
	movq	-152(%rbp), %rsi
	movq	%rax, -248(%rbp)
	callq	__ZN4core5slice29_$LT$impl$u20$$u5b$T$u5d$$GT$3len17h144e3f806818b42aE
	movq	%rax, -256(%rbp)
	movq	-248(%rbp), %rax
	movq	%rax, -104(%rbp)
	movq	-256(%rbp), %rcx
	movq	%rcx, -96(%rbp)
	movq	-104(%rbp), %rdi
	movq	-96(%rbp), %rsi
	callq	__ZN63_$LT$I$u20$as$u20$core..iter..traits..collect..IntoIterator$GT$9into_iter17h14a12ff1ce9fa320E
	movq	%rax, -264(%rbp)
	movq	%rdx, -272(%rbp)
	movq	-264(%rbp), %rax
	movq	%rax, -88(%rbp)
	movq	-272(%rbp), %rcx
	movq	%rcx, -80(%rbp)
LBB198_32:
	leaq	-88(%rbp), %rdi
	callq	__ZN4core4iter5range101_$LT$impl$u20$core..iter..traits..iterator..Iterator$u20$for$u20$core..ops..range..Range$LT$A$GT$$GT$4next17h9a6423d785cb6949E
	movq	%rdx, -64(%rbp)
	movq	%rax, -72(%rbp)
	movq	-72(%rbp), %rax
	testq	%rax, %rax
	je	LBB198_34
	jmp	LBB198_74
LBB198_74:
	jmp	LBB198_36
LBB198_34:
	movb	-185(%rbp), %al
	testb	$1, %al
	jne	LBB198_46
	jmp	LBB198_45
	ud2
LBB198_36:
	movq	-64(%rbp), %rax
	movq	-152(%rbp), %rcx
	cmpq	%rcx, %rax
	setb	%dl
	testb	$1, %dl
	movq	%rax, -280(%rbp)
	jne	LBB198_37
	jmp	LBB198_69
LBB198_37:
	movq	-160(%rbp), %rax
	movq	-280(%rbp), %rcx
	movb	(%rax,%rcx), %dl
	movq	-144(%rbp), %rsi
	addq	32(%rsi), %rcx
	movq	-168(%rbp), %rdi
	cmpq	%rdi, %rcx
	setb	%r8b
	testb	$1, %r8b
	movb	%dl, -281(%rbp)
	movq	%rcx, -296(%rbp)
	jne	LBB198_38
	jmp	LBB198_70
LBB198_38:
	movb	-281(%rbp), %al
	movq	-176(%rbp), %rcx
	movq	-296(%rbp), %rdx
	cmpb	(%rcx,%rdx), %al
	jne	LBB198_40
	jmp	LBB198_32
LBB198_40:
	movq	-280(%rbp), %rax
	movq	-144(%rbp), %rcx
	subq	(%rcx), %rax
	addq	$1, %rax
	addq	32(%rcx), %rax
	movq	%rax, 32(%rcx)
	movb	-185(%rbp), %dl
	xorb	$-1, %dl
	testb	$1, %dl
	jne	LBB198_42
	jmp	LBB198_43
LBB198_42:
	movq	-144(%rbp), %rax
	movq	$0, 48(%rax)
LBB198_43:
	jmp	LBB198_44
LBB198_44:
	jmp	LBB198_25
LBB198_45:
	movq	-144(%rbp), %rax
	movq	48(%rax), %rcx
	movq	%rcx, -56(%rbp)
	jmp	LBB198_47
LBB198_46:
	movq	$0, -56(%rbp)
LBB198_47:
	movq	-56(%rbp), %rax
	movq	-144(%rbp), %rcx
	movq	(%rcx), %rdx
	movq	%rax, -48(%rbp)
	movq	%rdx, -40(%rbp)
	movq	-48(%rbp), %rdi
	movq	-40(%rbp), %rsi
	callq	__ZN4core4iter6traits8iterator8Iterator3rev17h3d1f3280a9e38a0fE
	movq	%rax, -304(%rbp)
	movq	%rdx, -312(%rbp)
	movq	-304(%rbp), %rdi
	movq	-312(%rbp), %rsi
	callq	__ZN63_$LT$I$u20$as$u20$core..iter..traits..collect..IntoIterator$GT$9into_iter17hb5f052ec3a1bfb95E
	movq	%rax, -320(%rbp)
	movq	%rdx, -328(%rbp)
	movq	-320(%rbp), %rax
	movq	%rax, -32(%rbp)
	movq	-328(%rbp), %rcx
	movq	%rcx, -24(%rbp)
LBB198_50:
	leaq	-32(%rbp), %rdi
	callq	__ZN93_$LT$core..iter..adapters..Rev$LT$I$GT$$u20$as$u20$core..iter..traits..iterator..Iterator$GT$4next17h760064b753c44eb5E
	movq	%rdx, -8(%rbp)
	movq	%rax, -16(%rbp)
	movq	-16(%rbp), %rax
	testq	%rax, %rax
	je	LBB198_52
	jmp	LBB198_75
LBB198_75:
	jmp	LBB198_54
LBB198_52:
	movq	-144(%rbp), %rax
	movq	32(%rax), %rcx
	movq	-160(%rbp), %rdi
	movq	-152(%rbp), %rsi
	movq	%rcx, -336(%rbp)
	callq	__ZN4core5slice29_$LT$impl$u20$$u5b$T$u5d$$GT$3len17h144e3f806818b42aE
	movq	%rax, -344(%rbp)
	jmp	LBB198_63
	ud2
LBB198_54:
	movq	-8(%rbp), %rax
	movq	-152(%rbp), %rcx
	cmpq	%rcx, %rax
	setb	%dl
	testb	$1, %dl
	movq	%rax, -352(%rbp)
	jne	LBB198_55
	jmp	LBB198_71
LBB198_55:
	movq	-160(%rbp), %rax
	movq	-352(%rbp), %rcx
	movb	(%rax,%rcx), %dl
	movq	-144(%rbp), %rsi
	addq	32(%rsi), %rcx
	movq	-168(%rbp), %rdi
	cmpq	%rdi, %rcx
	setb	%r8b
	testb	$1, %r8b
	movb	%dl, -353(%rbp)
	movq	%rcx, -368(%rbp)
	jne	LBB198_56
	jmp	LBB198_72
LBB198_56:
	movb	-353(%rbp), %al
	movq	-176(%rbp), %rcx
	movq	-368(%rbp), %rdx
	cmpb	(%rcx,%rdx), %al
	jne	LBB198_58
	jmp	LBB198_50
LBB198_58:
	movq	-144(%rbp), %rax
	movq	16(%rax), %rcx
	addq	32(%rax), %rcx
	movq	%rcx, 32(%rax)
	movb	-185(%rbp), %dl
	xorb	$-1, %dl
	testb	$1, %dl
	jne	LBB198_60
	jmp	LBB198_62
LBB198_60:
	movq	-160(%rbp), %rdi
	movq	-152(%rbp), %rsi
	callq	__ZN4core5slice29_$LT$impl$u20$$u5b$T$u5d$$GT$3len17h144e3f806818b42aE
	movq	%rax, -376(%rbp)
	movq	-376(%rbp), %rax
	movq	-144(%rbp), %rcx
	subq	16(%rcx), %rax
	movq	%rax, 48(%rcx)
LBB198_62:
	jmp	LBB198_44
LBB198_63:
	movq	-344(%rbp), %rax
	movq	-144(%rbp), %rcx
	addq	32(%rcx), %rax
	movq	%rax, 32(%rcx)
	movb	-185(%rbp), %dl
	xorb	$-1, %dl
	testb	$1, %dl
	jne	LBB198_65
	jmp	LBB198_66
LBB198_65:
	movq	-144(%rbp), %rax
	movq	$0, 48(%rax)
LBB198_66:
	movq	-160(%rbp), %rdi
	movq	-152(%rbp), %rsi
	callq	__ZN4core5slice29_$LT$impl$u20$$u5b$T$u5d$$GT$3len17h144e3f806818b42aE
	movq	%rax, -384(%rbp)
	movq	-336(%rbp), %rax
	movq	-384(%rbp), %rcx
	addq	%rcx, %rax
	movq	-136(%rbp), %rdi
	movq	-336(%rbp), %rsi
	movq	%rax, %rdx
	callq	__ZN89_$LT$core..str..pattern..RejectAndMatch$u20$as$u20$core..str..pattern..TwoWayStrategy$GT$8matching17h77c61c183d0de265E
	jmp	LBB198_9
LBB198_69:
	leaq	l___unnamed_4(%rip), %rdx
	movq	-280(%rbp), %rdi
	movq	-152(%rbp), %rsi
	callq	__ZN4core9panicking18panic_bounds_check17he87128426d100e93E
LBB198_70:
	leaq	l___unnamed_5(%rip), %rdx
	movq	-296(%rbp), %rdi
	movq	-168(%rbp), %rsi
	callq	__ZN4core9panicking18panic_bounds_check17he87128426d100e93E
LBB198_71:
	leaq	l___unnamed_6(%rip), %rdx
	movq	-352(%rbp), %rdi
	movq	-152(%rbp), %rsi
	callq	__ZN4core9panicking18panic_bounds_check17he87128426d100e93E
LBB198_72:
	leaq	l___unnamed_7(%rip), %rdx
	movq	-368(%rbp), %rdi
	movq	-168(%rbp), %rsi
	callq	__ZN4core9panicking18panic_bounds_check17he87128426d100e93E
	.cfi_endproc

	.p2align	4, 0x90
__ZN4core3str7pattern14TwoWaySearcher4next17h7aec923b1b716125E:
	.cfi_startproc
	pushq	%rbp
	.cfi_def_cfa_offset 16
	.cfi_offset %rbp, -16
	movq	%rsp, %rbp
	.cfi_def_cfa_register %rbp
	subq	$384, %rsp
	movq	%rdi, %rax
	movb	16(%rbp), %r10b
	movq	32(%rsi), %r11
	movq	%rdi, -136(%rbp)
	movq	%r8, %rdi
	movq	%rsi, -144(%rbp)
	movq	%r9, %rsi
	movq	%r9, -152(%rbp)
	movq	%r8, -160(%rbp)
	movq	%rcx, -168(%rbp)
	movq	%rdx, -176(%rbp)
	movq	%rax, -184(%rbp)
	movb	%r10b, -185(%rbp)
	movq	%r11, -200(%rbp)
	callq	__ZN4core5slice29_$LT$impl$u20$$u5b$T$u5d$$GT$3len17h144e3f806818b42aE
	movq	%rax, -208(%rbp)
	movq	-208(%rbp), %rax
	subq	$1, %rax
	movq	%rax, -216(%rbp)
LBB199_2:
	movq	-216(%rbp), %rax
	movq	-144(%rbp), %rcx
	addq	32(%rcx), %rax
	movq	-176(%rbp), %rdi
	movq	-168(%rbp), %rsi
	movq	%rax, %rdx
	callq	__ZN4core5slice29_$LT$impl$u20$$u5b$T$u5d$$GT$3get17h3d90984b8deaaa16E
	movq	%rax, -128(%rbp)
	movq	-128(%rbp), %rax
	testq	%rax, %rax
	setne	%cl
	movzbl	%cl, %edx
	movl	%edx, %eax
	je	LBB199_4
	jmp	LBB199_73
LBB199_73:
	jmp	LBB199_6
LBB199_4:
	movq	-176(%rbp), %rdi
	movq	-168(%rbp), %rsi
	callq	__ZN4core5slice29_$LT$impl$u20$$u5b$T$u5d$$GT$3len17h144e3f806818b42aE
	movq	%rax, -224(%rbp)
	jmp	LBB199_7
	ud2
LBB199_6:
	movq	-128(%rbp), %rax
	movb	(%rax), %cl
	movb	%cl, -225(%rbp)
	callq	__ZN84_$LT$core..str..pattern..MatchOnly$u20$as$u20$core..str..pattern..TwoWayStrategy$GT$16use_early_reject17hc007727986952dcbE
	movb	%al, -226(%rbp)
	jmp	LBB199_14
LBB199_7:
	movq	-144(%rbp), %rax
	movq	-224(%rbp), %rcx
	movq	%rcx, 32(%rax)
	movq	32(%rax), %rdx
	movq	-136(%rbp), %rdi
	movq	-200(%rbp), %rsi
	callq	__ZN84_$LT$core..str..pattern..MatchOnly$u20$as$u20$core..str..pattern..TwoWayStrategy$GT$9rejecting17hcb6b56bb43ad3d39E
	jmp	LBB199_9
LBB199_9:
	movq	-184(%rbp), %rax
	addq	$384, %rsp
	popq	%rbp
	retq
LBB199_10:
	movb	$1, -113(%rbp)
	jmp	LBB199_13
LBB199_11:
	movb	$0, -113(%rbp)
	jmp	LBB199_13
LBB199_12:
	movq	-200(%rbp), %rax
	movq	-144(%rbp), %rcx
	cmpq	32(%rcx), %rax
	jne	LBB199_10
	jmp	LBB199_11
LBB199_13:
	testb	$1, -113(%rbp)
	jne	LBB199_16
	jmp	LBB199_15
LBB199_14:
	movb	-226(%rbp), %al
	testb	$1, %al
	jne	LBB199_12
	jmp	LBB199_11
LBB199_15:
	movq	-144(%rbp), %rdi
	movb	-225(%rbp), %al
	movzbl	%al, %esi
	callq	__ZN4core3str7pattern14TwoWaySearcher16byteset_contains17hfda625c31b0f09a2E
	movb	%al, -227(%rbp)
	jmp	LBB199_18
LBB199_16:
	movq	-144(%rbp), %rax
	movq	32(%rax), %rdx
	movq	-136(%rbp), %rdi
	movq	-200(%rbp), %rsi
	callq	__ZN84_$LT$core..str..pattern..MatchOnly$u20$as$u20$core..str..pattern..TwoWayStrategy$GT$9rejecting17hcb6b56bb43ad3d39E
	jmp	LBB199_9
LBB199_18:
	movb	-227(%rbp), %al
	xorb	$-1, %al
	testb	$1, %al
	jne	LBB199_20
	movb	-185(%rbp), %al
	testb	$1, %al
	jne	LBB199_27
	jmp	LBB199_26
LBB199_20:
	movq	-160(%rbp), %rdi
	movq	-152(%rbp), %rsi
	callq	__ZN4core5slice29_$LT$impl$u20$$u5b$T$u5d$$GT$3len17h144e3f806818b42aE
	movq	%rax, -240(%rbp)
	movq	-240(%rbp), %rax
	movq	-144(%rbp), %rcx
	addq	32(%rcx), %rax
	movq	%rax, 32(%rcx)
	movb	-185(%rbp), %dl
	xorb	$-1, %dl
	testb	$1, %dl
	jne	LBB199_23
	jmp	LBB199_24
LBB199_23:
	movq	-144(%rbp), %rax
	movq	$0, 48(%rax)
LBB199_24:
	jmp	LBB199_25
LBB199_25:
	jmp	LBB199_2
LBB199_26:
	movq	-144(%rbp), %rax
	movq	(%rax), %rdi
	movq	48(%rax), %rsi
	callq	__ZN4core3cmp3max17hd5de39af7cb052ceE
	movq	%rax, -112(%rbp)
	jmp	LBB199_28
LBB199_27:
	movq	-144(%rbp), %rax
	movq	(%rax), %rcx
	movq	%rcx, -112(%rbp)
	jmp	LBB199_29
LBB199_28:
	jmp	LBB199_29
LBB199_29:
	movq	-112(%rbp), %rax
	movq	-160(%rbp), %rdi
	movq	-152(%rbp), %rsi
	movq	%rax, -248(%rbp)
	callq	__ZN4core5slice29_$LT$impl$u20$$u5b$T$u5d$$GT$3len17h144e3f806818b42aE
	movq	%rax, -256(%rbp)
	movq	-248(%rbp), %rax
	movq	%rax, -104(%rbp)
	movq	-256(%rbp), %rcx
	movq	%rcx, -96(%rbp)
	movq	-104(%rbp), %rdi
	movq	-96(%rbp), %rsi
	callq	__ZN63_$LT$I$u20$as$u20$core..iter..traits..collect..IntoIterator$GT$9into_iter17h14a12ff1ce9fa320E
	movq	%rax, -264(%rbp)
	movq	%rdx, -272(%rbp)
	movq	-264(%rbp), %rax
	movq	%rax, -88(%rbp)
	movq	-272(%rbp), %rcx
	movq	%rcx, -80(%rbp)
LBB199_32:
	leaq	-88(%rbp), %rdi
	callq	__ZN4core4iter5range101_$LT$impl$u20$core..iter..traits..iterator..Iterator$u20$for$u20$core..ops..range..Range$LT$A$GT$$GT$4next17h9a6423d785cb6949E
	movq	%rdx, -64(%rbp)
	movq	%rax, -72(%rbp)
	movq	-72(%rbp), %rax
	testq	%rax, %rax
	je	LBB199_34
	jmp	LBB199_74
LBB199_74:
	jmp	LBB199_36
LBB199_34:
	movb	-185(%rbp), %al
	testb	$1, %al
	jne	LBB199_46
	jmp	LBB199_45
	ud2
LBB199_36:
	movq	-64(%rbp), %rax
	movq	-152(%rbp), %rcx
	cmpq	%rcx, %rax
	setb	%dl
	testb	$1, %dl
	movq	%rax, -280(%rbp)
	jne	LBB199_37
	jmp	LBB199_69
LBB199_37:
	movq	-160(%rbp), %rax
	movq	-280(%rbp), %rcx
	movb	(%rax,%rcx), %dl
	movq	-144(%rbp), %rsi
	addq	32(%rsi), %rcx
	movq	-168(%rbp), %rdi
	cmpq	%rdi, %rcx
	setb	%r8b
	testb	$1, %r8b
	movb	%dl, -281(%rbp)
	movq	%rcx, -296(%rbp)
	jne	LBB199_38
	jmp	LBB199_70
LBB199_38:
	movb	-281(%rbp), %al
	movq	-176(%rbp), %rcx
	movq	-296(%rbp), %rdx
	cmpb	(%rcx,%rdx), %al
	jne	LBB199_40
	jmp	LBB199_32
LBB199_40:
	movq	-280(%rbp), %rax
	movq	-144(%rbp), %rcx
	subq	(%rcx), %rax
	addq	$1, %rax
	addq	32(%rcx), %rax
	movq	%rax, 32(%rcx)
	movb	-185(%rbp), %dl
	xorb	$-1, %dl
	testb	$1, %dl
	jne	LBB199_42
	jmp	LBB199_43
LBB199_42:
	movq	-144(%rbp), %rax
	movq	$0, 48(%rax)
LBB199_43:
	jmp	LBB199_44
LBB199_44:
	jmp	LBB199_25
LBB199_45:
	movq	-144(%rbp), %rax
	movq	48(%rax), %rcx
	movq	%rcx, -56(%rbp)
	jmp	LBB199_47
LBB199_46:
	movq	$0, -56(%rbp)
LBB199_47:
	movq	-56(%rbp), %rax
	movq	-144(%rbp), %rcx
	movq	(%rcx), %rdx
	movq	%rax, -48(%rbp)
	movq	%rdx, -40(%rbp)
	movq	-48(%rbp), %rdi
	movq	-40(%rbp), %rsi
	callq	__ZN4core4iter6traits8iterator8Iterator3rev17h3d1f3280a9e38a0fE
	movq	%rax, -304(%rbp)
	movq	%rdx, -312(%rbp)
	movq	-304(%rbp), %rdi
	movq	-312(%rbp), %rsi
	callq	__ZN63_$LT$I$u20$as$u20$core..iter..traits..collect..IntoIterator$GT$9into_iter17hb5f052ec3a1bfb95E
	movq	%rax, -320(%rbp)
	movq	%rdx, -328(%rbp)
	movq	-320(%rbp), %rax
	movq	%rax, -32(%rbp)
	movq	-328(%rbp), %rcx
	movq	%rcx, -24(%rbp)
LBB199_50:
	leaq	-32(%rbp), %rdi
	callq	__ZN93_$LT$core..iter..adapters..Rev$LT$I$GT$$u20$as$u20$core..iter..traits..iterator..Iterator$GT$4next17h760064b753c44eb5E
	movq	%rdx, -8(%rbp)
	movq	%rax, -16(%rbp)
	movq	-16(%rbp), %rax
	testq	%rax, %rax
	je	LBB199_52
	jmp	LBB199_75
LBB199_75:
	jmp	LBB199_54
LBB199_52:
	movq	-144(%rbp), %rax
	movq	32(%rax), %rcx
	movq	-160(%rbp), %rdi
	movq	-152(%rbp), %rsi
	movq	%rcx, -336(%rbp)
	callq	__ZN4core5slice29_$LT$impl$u20$$u5b$T$u5d$$GT$3len17h144e3f806818b42aE
	movq	%rax, -344(%rbp)
	jmp	LBB199_63
	ud2
LBB199_54:
	movq	-8(%rbp), %rax
	movq	-152(%rbp), %rcx
	cmpq	%rcx, %rax
	setb	%dl
	testb	$1, %dl
	movq	%rax, -352(%rbp)
	jne	LBB199_55
	jmp	LBB199_71
LBB199_55:
	movq	-160(%rbp), %rax
	movq	-352(%rbp), %rcx
	movb	(%rax,%rcx), %dl
	movq	-144(%rbp), %rsi
	addq	32(%rsi), %rcx
	movq	-168(%rbp), %rdi
	cmpq	%rdi, %rcx
	setb	%r8b
	testb	$1, %r8b
	movb	%dl, -353(%rbp)
	movq	%rcx, -368(%rbp)
	jne	LBB199_56
	jmp	LBB199_72
LBB199_56:
	movb	-353(%rbp), %al
	movq	-176(%rbp), %rcx
	movq	-368(%rbp), %rdx
	cmpb	(%rcx,%rdx), %al
	jne	LBB199_58
	jmp	LBB199_50
LBB199_58:
	movq	-144(%rbp), %rax
	movq	16(%rax), %rcx
	addq	32(%rax), %rcx
	movq	%rcx, 32(%rax)
	movb	-185(%rbp), %dl
	xorb	$-1, %dl
	testb	$1, %dl
	jne	LBB199_60
	jmp	LBB199_62
LBB199_60:
	movq	-160(%rbp), %rdi
	movq	-152(%rbp), %rsi
	callq	__ZN4core5slice29_$LT$impl$u20$$u5b$T$u5d$$GT$3len17h144e3f806818b42aE
	movq	%rax, -376(%rbp)
	movq	-376(%rbp), %rax
	movq	-144(%rbp), %rcx
	subq	16(%rcx), %rax
	movq	%rax, 48(%rcx)
LBB199_62:
	jmp	LBB199_44
LBB199_63:
	movq	-344(%rbp), %rax
	movq	-144(%rbp), %rcx
	addq	32(%rcx), %rax
	movq	%rax, 32(%rcx)
	movb	-185(%rbp), %dl
	xorb	$-1, %dl
	testb	$1, %dl
	jne	LBB199_65
	jmp	LBB199_66
LBB199_65:
	movq	-144(%rbp), %rax
	movq	$0, 48(%rax)
LBB199_66:
	movq	-160(%rbp), %rdi
	movq	-152(%rbp), %rsi
	callq	__ZN4core5slice29_$LT$impl$u20$$u5b$T$u5d$$GT$3len17h144e3f806818b42aE
	movq	%rax, -384(%rbp)
	movq	-336(%rbp), %rax
	movq	-384(%rbp), %rcx
	addq	%rcx, %rax
	movq	-136(%rbp), %rdi
	movq	-336(%rbp), %rsi
	movq	%rax, %rdx
	callq	__ZN84_$LT$core..str..pattern..MatchOnly$u20$as$u20$core..str..pattern..TwoWayStrategy$GT$8matching17h06320a241f274ec1E
	jmp	LBB199_9
LBB199_69:
	leaq	l___unnamed_4(%rip), %rdx
	movq	-280(%rbp), %rdi
	movq	-152(%rbp), %rsi
	callq	__ZN4core9panicking18panic_bounds_check17he87128426d100e93E
LBB199_70:
	leaq	l___unnamed_5(%rip), %rdx
	movq	-296(%rbp), %rdi
	movq	-168(%rbp), %rsi
	callq	__ZN4core9panicking18panic_bounds_check17he87128426d100e93E
LBB199_71:
	leaq	l___unnamed_6(%rip), %rdx
	movq	-352(%rbp), %rdi
	movq	-152(%rbp), %rsi
	callq	__ZN4core9panicking18panic_bounds_check17he87128426d100e93E
LBB199_72:
	leaq	l___unnamed_7(%rip), %rdx
	movq	-368(%rbp), %rdi
	movq	-168(%rbp), %rsi
	callq	__ZN4core9panicking18panic_bounds_check17he87128426d100e93E
	.cfi_endproc

	.p2align	4, 0x90
__ZN4core3str7pattern7Pattern15is_contained_in17h80db81f2a1880e32E:
Lfunc_begin23:
	.cfi_startproc
	.cfi_personality 155, _rust_eh_personality
	.cfi_lsda 16, Lexception23
	pushq	%rbp
	.cfi_def_cfa_offset 16
	.cfi_offset %rbp, -16
	movq	%rsp, %rbp
	.cfi_def_cfa_register %rbp
	subq	$192, %rsp
	leaq	-120(%rbp), %rax
	movq	%rdi, -152(%rbp)
	movq	%rax, %rdi
	movq	-152(%rbp), %rax
	movq	%rsi, -160(%rbp)
	movq	%rax, %rsi
	movq	-160(%rbp), %r8
	movq	%rdx, -168(%rbp)
	movq	%r8, %rdx
	movq	-168(%rbp), %r9
	movq	%rcx, -176(%rbp)
	movq	%r9, %rcx
	movq	-176(%rbp), %r8
	callq	__ZN55_$LT$$RF$str$u20$as$u20$core..str..pattern..Pattern$GT$13into_searcher17h044f882f1132d21fE
	jmp	LBB200_2
LBB200_1:
	movq	-16(%rbp), %rdi
	callq	__Unwind_Resume
	ud2
LBB200_2:
Ltmp108:
	leaq	-144(%rbp), %rdi
	leaq	-120(%rbp), %rsi
	callq	__ZN80_$LT$core..str..pattern..StrSearcher$u20$as$u20$core..str..pattern..Searcher$GT$10next_match17h9ffbed23d4bba35aE
Ltmp109:
	jmp	LBB200_4
LBB200_3:
	jmp	LBB200_1
LBB200_4:
Ltmp110:
	leaq	-144(%rbp), %rdi
	callq	__ZN4core6option15Option$LT$T$GT$7is_some17hf3249c56c8288b82E
Ltmp111:
	movb	%al, -177(%rbp)
	jmp	LBB200_5
LBB200_5:
	jmp	LBB200_6
LBB200_6:
	movb	-177(%rbp), %al
	andb	$1, %al
	movzbl	%al, %eax
	addq	$192, %rsp
	popq	%rbp
	retq
LBB200_7:
Ltmp112:
	movq	%rax, -16(%rbp)
	movl	%edx, -8(%rbp)
	jmp	LBB200_3
Lfunc_end23:
	.cfi_endproc
	.section	__TEXT,__gcc_except_tab
	.p2align	2
GCC_except_table200:
Lexception23:
	.byte	255
	.byte	255
	.byte	1
	.uleb128 Lcst_end23-Lcst_begin23
Lcst_begin23:
	.uleb128 Lfunc_begin23-Lfunc_begin23
	.uleb128 Ltmp108-Lfunc_begin23
	.byte	0
	.byte	0
	.uleb128 Ltmp108-Lfunc_begin23
	.uleb128 Ltmp111-Ltmp108
	.uleb128 Ltmp112-Lfunc_begin23
	.byte	0
Lcst_end23:
	.p2align	2

	.section	__TEXT,__text,regular,pure_instructions
	.p2align	4, 0x90
__ZN4core4char7convert18from_u32_unchecked17h92410f327a50a7e4E:
	.cfi_startproc
	pushq	%rbp
	.cfi_def_cfa_offset 16
	.cfi_offset %rbp, -16
	movq	%rsp, %rbp
	.cfi_def_cfa_register %rbp
	pushq	%rax
	movl	%edi, -4(%rbp)
	movl	-4(%rbp), %eax
	movl	%eax, -8(%rbp)
	movl	-8(%rbp), %eax
	addq	$8, %rsp
	popq	%rbp
	retq
	.cfi_endproc

	.p2align	4, 0x90
__ZN4core4char7methods15encode_utf8_raw17hff98806487974fb2E:
	.cfi_startproc
	pushq	%rbp
	.cfi_def_cfa_offset 16
	.cfi_offset %rbp, -16
	movq	%rsp, %rbp
	.cfi_def_cfa_register %rbp
	subq	$320, %rsp
	movl	%edi, -172(%rbp)
	movl	-172(%rbp), %edi
	movq	%rsi, -184(%rbp)
	movq	%rdx, -192(%rbp)
	callq	__ZN4core4char7methods8len_utf817h55979f6eaf8ac3dcE
	movq	%rax, -168(%rbp)
	leaq	l___unnamed_8(%rip), %rax
	movq	-168(%rbp), %rcx
	movq	-184(%rbp), %rdi
	movq	-192(%rbp), %rsi
	movq	%rax, %rdx
	movq	%rcx, -200(%rbp)
	callq	__ZN4core5slice77_$LT$impl$u20$core..ops..index..IndexMut$LT$I$GT$$u20$for$u20$$u5b$T$u5d$$GT$9index_mut17h82a65b28f7d6ad0cE
	movq	%rax, -208(%rbp)
	movq	%rdx, -216(%rbp)
	movq	-200(%rbp), %rax
	movq	%rax, -160(%rbp)
	movq	-208(%rbp), %rcx
	movq	%rcx, -152(%rbp)
	movq	-216(%rbp), %rdx
	movq	%rdx, -144(%rbp)
	movq	-160(%rbp), %rsi
	decq	%rsi
	movq	%rsi, %rdi
	subq	$3, %rdi
	movq	%rsi, -224(%rbp)
	ja	LBB202_4
	leaq	LJTI202_0(%rip), %rax
	movq	-224(%rbp), %rcx
	movslq	(%rax,%rcx,4), %rdx
	addq	%rax, %rdx
	jmpq	*%rdx
LBB202_3:
	cmpq	$1, -144(%rbp)
	jae	LBB202_8
LBB202_4:
	movq	l___unnamed_9(%rip), %rax
	movq	-184(%rbp), %rdi
	movq	-192(%rbp), %rsi
	movq	%rax, -232(%rbp)
	callq	__ZN4core5slice29_$LT$impl$u20$$u5b$T$u5d$$GT$3len17h144e3f806818b42aE
	movq	%rax, -16(%rbp)
	jmp	LBB202_12
LBB202_5:
	cmpq	$2, -144(%rbp)
	jae	LBB202_9
	jmp	LBB202_4
LBB202_6:
	cmpq	$3, -144(%rbp)
	jae	LBB202_10
	jmp	LBB202_4
LBB202_7:
	cmpq	$4, -144(%rbp)
	jae	LBB202_11
	jmp	LBB202_4
LBB202_8:
	movq	-152(%rbp), %rax
	movl	-172(%rbp), %ecx
	movb	%cl, (%rax)
	jmp	LBB202_17
LBB202_9:
	movq	-152(%rbp), %rax
	movq	-152(%rbp), %rcx
	movl	-172(%rbp), %edx
	shrl	$6, %edx
	andl	$31, %edx
	orb	$-64, %dl
	movb	%dl, (%rax)
	movl	-172(%rbp), %esi
	andl	$63, %esi
	orb	$-128, %sil
	movb	%sil, 1(%rcx)
	jmp	LBB202_17
LBB202_10:
	movq	-152(%rbp), %rax
	movq	-152(%rbp), %rcx
	movq	-152(%rbp), %rdx
	movl	-172(%rbp), %esi
	shrl	$12, %esi
	andl	$15, %esi
	orb	$-32, %sil
	movb	%sil, (%rax)
	movl	-172(%rbp), %edi
	shrl	$6, %edi
	andl	$63, %edi
	orb	$-128, %dil
	movb	%dil, 1(%rcx)
	movl	-172(%rbp), %r8d
	andl	$63, %r8d
	orb	$-128, %r8b
	movb	%r8b, 2(%rdx)
	jmp	LBB202_17
LBB202_11:
	movq	-152(%rbp), %rax
	movq	-152(%rbp), %rcx
	movq	-152(%rbp), %rdx
	movq	-152(%rbp), %rsi
	movl	-172(%rbp), %edi
	shrl	$18, %edi
	andl	$7, %edi
	orb	$-16, %dil
	movb	%dil, (%rax)
	movl	-172(%rbp), %r8d
	shrl	$12, %r8d
	andl	$63, %r8d
	orb	$-128, %r8b
	movb	%r8b, 1(%rcx)
	movl	-172(%rbp), %r9d
	shrl	$6, %r9d
	andl	$63, %r9d
	orb	$-128, %r9b
	movb	%r9b, 2(%rdx)
	movl	-172(%rbp), %r10d
	andl	$63, %r10d
	orb	$-128, %r10b
	movb	%r10b, 3(%rsi)
	jmp	LBB202_17
LBB202_12:
	movq	__ZN4core3fmt3num3imp54_$LT$impl$u20$core..fmt..Display$u20$for$u20$usize$GT$3fmt17h12ea2856299c9b06E@GOTPCREL(%rip), %rsi
	leaq	-168(%rbp), %rax
	movq	%rax, -40(%rbp)
	leaq	-172(%rbp), %rax
	movq	%rax, -32(%rbp)
	leaq	-16(%rbp), %rax
	movq	%rax, -24(%rbp)
	movq	-40(%rbp), %rdi
	movq	-32(%rbp), %rax
	movq	-24(%rbp), %rcx
	movq	%rax, -240(%rbp)
	movq	%rcx, -248(%rbp)
	callq	__ZN4core3fmt10ArgumentV13new17hdd4b72865d6ae2fbE
	movq	%rax, -256(%rbp)
	movq	%rdx, -264(%rbp)
	movq	__ZN4core3fmt3num53_$LT$impl$u20$core..fmt..UpperHex$u20$for$u20$u32$GT$3fmt17h7bd10b5f3c9584f1E@GOTPCREL(%rip), %rsi
	movq	-240(%rbp), %rdi
	callq	__ZN4core3fmt10ArgumentV13new17h4c9b3c749668d172E
	movq	%rax, -272(%rbp)
	movq	%rdx, -280(%rbp)
	movq	__ZN4core3fmt3num3imp54_$LT$impl$u20$core..fmt..Display$u20$for$u20$usize$GT$3fmt17h12ea2856299c9b06E@GOTPCREL(%rip), %rsi
	movq	-248(%rbp), %rdi
	callq	__ZN4core3fmt10ArgumentV13new17hdd4b72865d6ae2fbE
	movq	%rax, -288(%rbp)
	movq	%rdx, -296(%rbp)
	movq	-256(%rbp), %rax
	movq	%rax, -88(%rbp)
	movq	-264(%rbp), %rcx
	movq	%rcx, -80(%rbp)
	movq	-272(%rbp), %rdx
	movq	%rdx, -72(%rbp)
	movq	-280(%rbp), %rsi
	movq	%rsi, -64(%rbp)
	movq	-288(%rbp), %rdi
	movq	%rdi, -56(%rbp)
	movq	-296(%rbp), %r8
	movq	%r8, -48(%rbp)
	leaq	-88(%rbp), %r9
	leaq	-136(%rbp), %rdi
	movq	-232(%rbp), %rsi
	movl	$3, %r10d
	movq	%r10, %rdx
	movq	%r9, %rcx
	movq	%r10, %r8
	callq	__ZN4core3fmt9Arguments6new_v117h629f04ff1cc8bf0fE
	leaq	l___unnamed_10(%rip), %rsi
	leaq	-136(%rbp), %rdi
	callq	__ZN4core9panicking9panic_fmt17hfce5b7173905fc53E
LBB202_17:
	leaq	l___unnamed_11(%rip), %rax
	movq	-168(%rbp), %rcx
	movq	%rcx, -8(%rbp)
	movq	-8(%rbp), %rdx
	movq	-184(%rbp), %rdi
	movq	-192(%rbp), %rsi
	movq	%rax, %rcx
	callq	__ZN4core5slice77_$LT$impl$u20$core..ops..index..IndexMut$LT$I$GT$$u20$for$u20$$u5b$T$u5d$$GT$9index_mut17h4b647d2c07ce1e12E
	movq	%rax, -304(%rbp)
	movq	%rdx, -312(%rbp)
	movq	-304(%rbp), %rax
	movq	-312(%rbp), %rdx
	addq	$320, %rsp
	popq	%rbp
	retq
	.cfi_endproc
	.p2align	2, 0x90
	.data_region jt32
.set L202_0_set_3, LBB202_3-LJTI202_0
.set L202_0_set_5, LBB202_5-LJTI202_0
.set L202_0_set_6, LBB202_6-LJTI202_0
.set L202_0_set_7, LBB202_7-LJTI202_0
LJTI202_0:
	.long	L202_0_set_3
	.long	L202_0_set_5
	.long	L202_0_set_6
	.long	L202_0_set_7
	.end_data_region

	.p2align	4, 0x90
__ZN4core4char7methods22_$LT$impl$u20$char$GT$11encode_utf817h0b8db2fe038d683cE:
	.cfi_startproc
	pushq	%rbp
	.cfi_def_cfa_offset 16
	.cfi_offset %rbp, -16
	movq	%rsp, %rbp
	.cfi_def_cfa_register %rbp
	subq	$32, %rsp
	callq	__ZN4core4char7methods15encode_utf8_raw17hff98806487974fb2E
	movq	%rax, -8(%rbp)
	movq	%rdx, -16(%rbp)
	movq	-8(%rbp), %rdi
	movq	-16(%rbp), %rsi
	callq	__ZN4core3str23from_utf8_unchecked_mut17h1cc7974e11ce3e4bE
	movq	%rax, -24(%rbp)
	movq	%rdx, -32(%rbp)
	movq	-24(%rbp), %rax
	movq	-32(%rbp), %rdx
	addq	$32, %rsp
	popq	%rbp
	retq
	.cfi_endproc

	.p2align	4, 0x90
__ZN4core4char7methods22_$LT$impl$u20$char$GT$8len_utf817h83c97769a3885028E:
	.cfi_startproc
	pushq	%rbp
	.cfi_def_cfa_offset 16
	.cfi_offset %rbp, -16
	movq	%rsp, %rbp
	.cfi_def_cfa_register %rbp
	subq	$16, %rsp
	callq	__ZN4core4char7methods8len_utf817h55979f6eaf8ac3dcE
	movq	%rax, -8(%rbp)
	movq	-8(%rbp), %rax
	addq	$16, %rsp
	popq	%rbp
	retq
	.cfi_endproc

	.p2align	4, 0x90
__ZN4core4char7methods8len_utf817h55979f6eaf8ac3dcE:
	.cfi_startproc
	pushq	%rbp
	.cfi_def_cfa_offset 16
	.cfi_offset %rbp, -16
	movq	%rsp, %rbp
	.cfi_def_cfa_register %rbp
	subq	$16, %rsp
	cmpl	$128, %edi
	movl	%edi, -12(%rbp)
	jb	LBB205_2
	movl	-12(%rbp), %eax
	cmpl	$2048, %eax
	jb	LBB205_4
	jmp	LBB205_3
LBB205_2:
	movq	$1, -8(%rbp)
	jmp	LBB205_9
LBB205_3:
	movl	-12(%rbp), %eax
	cmpl	$65536, %eax
	jb	LBB205_6
	jmp	LBB205_5
LBB205_4:
	movq	$2, -8(%rbp)
	jmp	LBB205_8
LBB205_5:
	movq	$4, -8(%rbp)
	jmp	LBB205_7
LBB205_6:
	movq	$3, -8(%rbp)
LBB205_7:
	jmp	LBB205_8
LBB205_8:
	jmp	LBB205_9
LBB205_9:
	movq	-8(%rbp), %rax
	addq	$16, %rsp
	popq	%rbp
	retq
	.cfi_endproc

	.p2align	4, 0x90
__ZN4core4iter5range101_$LT$impl$u20$core..iter..traits..iterator..Iterator$u20$for$u20$core..ops..range..Range$LT$A$GT$$GT$4next17h9a6423d785cb6949E:
	.cfi_startproc
	pushq	%rbp
	.cfi_def_cfa_offset 16
	.cfi_offset %rbp, -16
	movq	%rsp, %rbp
	.cfi_def_cfa_register %rbp
	subq	$64, %rsp
	movq	%rdi, %rax
	movq	%rdi, %rcx
	addq	$8, %rcx
	movq	%rdi, -24(%rbp)
	movq	%rax, %rdi
	movq	%rcx, %rsi
	callq	__ZN4core3cmp5impls57_$LT$impl$u20$core..cmp..PartialOrd$u20$for$u20$usize$GT$2lt17hb87a0dae1c3f87f0E
	movb	%al, -25(%rbp)
	movb	-25(%rbp), %al
	testb	$1, %al
	jne	LBB206_3
	jmp	LBB206_2
LBB206_2:
	movq	$0, -16(%rbp)
	jmp	LBB206_7
LBB206_3:
	movq	-24(%rbp), %rax
	movq	%rax, %rdi
	callq	__ZN4core5clone5impls54_$LT$impl$u20$core..clone..Clone$u20$for$u20$usize$GT$5clone17hf83114ef8c91b176E
	movq	%rax, -40(%rbp)
	movq	-40(%rbp), %rdi
	movl	$1, %esi
	callq	__ZN49_$LT$usize$u20$as$u20$core..iter..range..Step$GT$17forward_unchecked17h78cecb2a05dc8832E
	movq	%rax, -48(%rbp)
	movq	-24(%rbp), %rax
	movq	%rax, %rdi
	movq	-48(%rbp), %rsi
	callq	__ZN4core3mem7replace17h7c0c4362bb196c45E
	movq	%rax, -56(%rbp)
	movq	-56(%rbp), %rax
	movq	%rax, -8(%rbp)
	movq	$1, -16(%rbp)
LBB206_7:
	movq	-16(%rbp), %rax
	movq	-8(%rbp), %rdx
	addq	$64, %rsp
	popq	%rbp
	retq
	.cfi_endproc

	.p2align	4, 0x90
__ZN4core4iter5range116_$LT$impl$u20$core..iter..traits..double_ended..DoubleEndedIterator$u20$for$u20$core..ops..range..Range$LT$A$GT$$GT$9next_back17ha1c69333838eedebE:
	.cfi_startproc
	pushq	%rbp
	.cfi_def_cfa_offset 16
	.cfi_offset %rbp, -16
	movq	%rsp, %rbp
	.cfi_def_cfa_register %rbp
	subq	$80, %rsp
	movq	%rdi, %rax
	movq	%rdi, %rcx
	addq	$8, %rcx
	movq	%rdi, -48(%rbp)
	movq	%rax, %rdi
	movq	%rcx, %rsi
	callq	__ZN4core3cmp5impls57_$LT$impl$u20$core..cmp..PartialOrd$u20$for$u20$usize$GT$2lt17hb87a0dae1c3f87f0E
	movb	%al, -49(%rbp)
	movb	-49(%rbp), %al
	testb	$1, %al
	jne	LBB207_3
	jmp	LBB207_2
LBB207_2:
	movq	$0, -40(%rbp)
	jmp	LBB207_7
LBB207_3:
	movq	-48(%rbp), %rax
	addq	$8, %rax
	movq	%rax, %rdi
	callq	__ZN4core5clone5impls54_$LT$impl$u20$core..clone..Clone$u20$for$u20$usize$GT$5clone17hf83114ef8c91b176E
	movq	%rax, -64(%rbp)
	movq	-64(%rbp), %rdi
	movl	$1, %esi
	callq	__ZN49_$LT$usize$u20$as$u20$core..iter..range..Step$GT$18backward_unchecked17hdaa0092324e4818cE
	movq	%rax, -72(%rbp)
	jmp	LBB207_8
LBB207_6:
	movq	-24(%rbp), %rax
	movq	%rax, -32(%rbp)
	movq	$1, -40(%rbp)
LBB207_7:
	movq	-40(%rbp), %rax
	movq	-32(%rbp), %rdx
	addq	$80, %rsp
	popq	%rbp
	retq
LBB207_8:
	movq	-48(%rbp), %rax
	movq	-72(%rbp), %rcx
	movq	%rcx, 8(%rax)
	addq	$8, %rax
	movq	%rax, %rdi
	callq	__ZN4core5clone5impls54_$LT$impl$u20$core..clone..Clone$u20$for$u20$usize$GT$5clone17hf83114ef8c91b176E
	movq	%rax, -24(%rbp)
	jmp	LBB207_6
	.cfi_endproc

	.p2align	4, 0x90
__ZN4core4iter6traits8iterator8Iterator3rev17h3d1f3280a9e38a0fE:
	.cfi_startproc
	pushq	%rbp
	.cfi_def_cfa_offset 16
	.cfi_offset %rbp, -16
	movq	%rsp, %rbp
	.cfi_def_cfa_register %rbp
	subq	$16, %rsp
	callq	__ZN4core4iter8adapters12Rev$LT$T$GT$3new17h2c6aceb0e3df5f83E
	movq	%rax, -8(%rbp)
	movq	%rdx, -16(%rbp)
	movq	-8(%rbp), %rax
	movq	-16(%rbp), %rdx
	addq	$16, %rsp
	popq	%rbp
	retq
	.cfi_endproc

	.p2align	4, 0x90
__ZN4core4iter8adapters12Rev$LT$T$GT$3new17h2c6aceb0e3df5f83E:
	.cfi_startproc
	pushq	%rbp
	.cfi_def_cfa_offset 16
	.cfi_offset %rbp, -16
	movq	%rsp, %rbp
	.cfi_def_cfa_register %rbp
	subq	$16, %rsp
	movq	%rdi, -16(%rbp)
	movq	%rsi, -8(%rbp)
	movq	-16(%rbp), %rax
	movq	-8(%rbp), %rdx
	addq	$16, %rsp
	popq	%rbp
	retq
	.cfi_endproc

	.p2align	4, 0x90
__ZN4core5alloc6layout10size_align17h41c088b3583be8c3E:
	.cfi_startproc
	pushq	%rbp
	.cfi_def_cfa_offset 16
	.cfi_offset %rbp, -16
	movq	%rsp, %rbp
	.cfi_def_cfa_register %rbp
	subq	$48, %rsp
	movq	$640, -16(%rbp)
	movq	-16(%rbp), %rax
	movq	%rax, -40(%rbp)
	movq	$8, -8(%rbp)
	movq	-8(%rbp), %rax
	movq	%rax, -48(%rbp)
	movq	-40(%rbp), %rax
	movq	%rax, -32(%rbp)
	movq	-48(%rbp), %rcx
	movq	%rcx, -24(%rbp)
	movq	-32(%rbp), %rax
	movq	-24(%rbp), %rdx
	addq	$48, %rsp
	popq	%rbp
	retq
	.cfi_endproc

	.p2align	4, 0x90
__ZN4core5alloc6layout10size_align17h7519b2c6eedb3a39E:
	.cfi_startproc
	pushq	%rbp
	.cfi_def_cfa_offset 16
	.cfi_offset %rbp, -16
	movq	%rsp, %rbp
	.cfi_def_cfa_register %rbp
	subq	$48, %rsp
	movq	$544, -16(%rbp)
	movq	-16(%rbp), %rax
	movq	%rax, -40(%rbp)
	movq	$8, -8(%rbp)
	movq	-8(%rbp), %rax
	movq	%rax, -48(%rbp)
	movq	-40(%rbp), %rax
	movq	%rax, -32(%rbp)
	movq	-48(%rbp), %rcx
	movq	%rcx, -24(%rbp)
	movq	-32(%rbp), %rax
	movq	-24(%rbp), %rdx
	addq	$48, %rsp
	popq	%rbp
	retq
	.cfi_endproc

	.p2align	4, 0x90
__ZN4core5alloc6layout6Layout25from_size_align_unchecked17hd2a1db0a7b8c6cebE:
	.cfi_startproc
	pushq	%rbp
	.cfi_def_cfa_offset 16
	.cfi_offset %rbp, -16
	movq	%rsp, %rbp
	.cfi_def_cfa_register %rbp
	subq	$32, %rsp
	movq	%rdi, -24(%rbp)
	movq	%rsi, %rdi
	callq	__ZN4core3num12NonZeroUsize13new_unchecked17h87c0a79a2910b586E
	movq	%rax, -32(%rbp)
	movq	-24(%rbp), %rax
	movq	%rax, -16(%rbp)
	movq	-32(%rbp), %rcx
	movq	%rcx, -8(%rbp)
	movq	-16(%rbp), %rax
	movq	-8(%rbp), %rdx
	addq	$32, %rsp
	popq	%rbp
	retq
	.cfi_endproc

	.p2align	4, 0x90
__ZN4core5alloc6layout6Layout3new17h66a4b8100d070d94E:
	.cfi_startproc
	pushq	%rbp
	.cfi_def_cfa_offset 16
	.cfi_offset %rbp, -16
	movq	%rsp, %rbp
	.cfi_def_cfa_register %rbp
	subq	$32, %rsp
	callq	__ZN4core5alloc6layout10size_align17h7519b2c6eedb3a39E
	movq	%rax, -8(%rbp)
	movq	%rdx, -16(%rbp)
	movq	-8(%rbp), %rdi
	movq	-16(%rbp), %rsi
	callq	__ZN4core5alloc6layout6Layout25from_size_align_unchecked17hd2a1db0a7b8c6cebE
	movq	%rax, -24(%rbp)
	movq	%rdx, -32(%rbp)
	movq	-24(%rbp), %rax
	movq	-32(%rbp), %rdx
	addq	$32, %rsp
	popq	%rbp
	retq
	.cfi_endproc

	.p2align	4, 0x90
__ZN4core5alloc6layout6Layout3new17hda50014e5bb1f082E:
	.cfi_startproc
	pushq	%rbp
	.cfi_def_cfa_offset 16
	.cfi_offset %rbp, -16
	movq	%rsp, %rbp
	.cfi_def_cfa_register %rbp
	subq	$32, %rsp
	callq	__ZN4core5alloc6layout10size_align17h41c088b3583be8c3E
	movq	%rax, -8(%rbp)
	movq	%rdx, -16(%rbp)
	movq	-8(%rbp), %rdi
	movq	-16(%rbp), %rsi
	callq	__ZN4core5alloc6layout6Layout25from_size_align_unchecked17hd2a1db0a7b8c6cebE
	movq	%rax, -24(%rbp)
	movq	%rdx, -32(%rbp)
	movq	-24(%rbp), %rax
	movq	-32(%rbp), %rdx
	addq	$32, %rsp
	popq	%rbp
	retq
	.cfi_endproc

	.p2align	4, 0x90
__ZN4core5alloc6layout6Layout4size17hd2ee6d0b9bff0473E:
	.cfi_startproc
	pushq	%rbp
	.cfi_def_cfa_offset 16
	.cfi_offset %rbp, -16
	movq	%rsp, %rbp
	.cfi_def_cfa_register %rbp
	movq	(%rdi), %rax
	popq	%rbp
	retq
	.cfi_endproc

	.p2align	4, 0x90
__ZN4core5alloc6layout6Layout5align17hc3196dd0e12379a4E:
	.cfi_startproc
	pushq	%rbp
	.cfi_def_cfa_offset 16
	.cfi_offset %rbp, -16
	movq	%rsp, %rbp
	.cfi_def_cfa_register %rbp
	subq	$16, %rsp
	movq	8(%rdi), %rdi
	callq	__ZN4core3num12NonZeroUsize3get17h7479ae7c86e0baecE
	movq	%rax, -8(%rbp)
	movq	-8(%rbp), %rax
	addq	$16, %rsp
	popq	%rbp
	retq
	.cfi_endproc

	.p2align	4, 0x90
__ZN4core5clone5impls54_$LT$impl$u20$core..clone..Clone$u20$for$u20$usize$GT$5clone17hf83114ef8c91b176E:
	.cfi_startproc
	pushq	%rbp
	.cfi_def_cfa_offset 16
	.cfi_offset %rbp, -16
	movq	%rsp, %rbp
	.cfi_def_cfa_register %rbp
	movq	(%rdi), %rax
	popq	%rbp
	retq
	.cfi_endproc

	.p2align	4, 0x90
__ZN4core5slice14from_raw_parts17h763de2c751290aa3E:
	.cfi_startproc
	pushq	%rbp
	.cfi_def_cfa_offset 16
	.cfi_offset %rbp, -16
	movq	%rsp, %rbp
	.cfi_def_cfa_register %rbp
	subq	$16, %rsp
	callq	__ZN4core3ptr20slice_from_raw_parts17hcbbc5a87d26a3dcaE
	movq	%rax, -8(%rbp)
	movq	%rdx, -16(%rbp)
	movq	-8(%rbp), %rax
	movq	-16(%rbp), %rdx
	addq	$16, %rsp
	popq	%rbp
	retq
	.cfi_endproc

	.p2align	4, 0x90
__ZN4core5slice14from_raw_parts17hb60b65734e5864a3E:
	.cfi_startproc
	pushq	%rbp
	.cfi_def_cfa_offset 16
	.cfi_offset %rbp, -16
	movq	%rsp, %rbp
	.cfi_def_cfa_register %rbp
	subq	$16, %rsp
	callq	__ZN4core3ptr20slice_from_raw_parts17h8804598fc9ca57c5E
	movq	%rax, -8(%rbp)
	movq	%rdx, -16(%rbp)
	movq	-8(%rbp), %rax
	movq	-16(%rbp), %rdx
	addq	$16, %rsp
	popq	%rbp
	retq
	.cfi_endproc

	.p2align	4, 0x90
__ZN4core5slice14from_raw_parts17he552ed1b2a8a988fE:
	.cfi_startproc
	pushq	%rbp
	.cfi_def_cfa_offset 16
	.cfi_offset %rbp, -16
	movq	%rsp, %rbp
	.cfi_def_cfa_register %rbp
	subq	$16, %rsp
	callq	__ZN4core3ptr20slice_from_raw_parts17h7d995bd6d2dcd032E
	movq	%rax, -8(%rbp)
	movq	%rdx, -16(%rbp)
	movq	-8(%rbp), %rax
	movq	-16(%rbp), %rdx
	addq	$16, %rsp
	popq	%rbp
	retq
	.cfi_endproc

	.p2align	4, 0x90
__ZN4core5slice29_$LT$impl$u20$$u5b$T$u5d$$GT$13get_unchecked17h2ab304347fe7b3bdE:
	.cfi_startproc
	pushq	%rbp
	.cfi_def_cfa_offset 16
	.cfi_offset %rbp, -16
	movq	%rsp, %rbp
	.cfi_def_cfa_register %rbp
	subq	$32, %rsp
	movq	%rdi, -8(%rbp)
	movq	%rdx, %rdi
	movq	-8(%rbp), %rax
	movq	%rsi, -16(%rbp)
	movq	%rax, %rsi
	movq	-16(%rbp), %rdx
	callq	__ZN68_$LT$usize$u20$as$u20$core..slice..SliceIndex$LT$$u5b$T$u5d$$GT$$GT$13get_unchecked17hec3d6ec5cd280616E
	movq	%rax, -24(%rbp)
	movq	-24(%rbp), %rax
	addq	$32, %rsp
	popq	%rbp
	retq
	.cfi_endproc

	.p2align	4, 0x90
__ZN4core5slice29_$LT$impl$u20$$u5b$T$u5d$$GT$13get_unchecked17h2d484242b93b24dbE:
	.cfi_startproc
	pushq	%rbp
	.cfi_def_cfa_offset 16
	.cfi_offset %rbp, -16
	movq	%rsp, %rbp
	.cfi_def_cfa_register %rbp
	subq	$32, %rsp
	movq	%rdi, -8(%rbp)
	movq	%rdx, %rdi
	movq	-8(%rbp), %rax
	movq	%rsi, -16(%rbp)
	movq	%rax, %rsi
	movq	-16(%rbp), %rdx
	callq	__ZN68_$LT$usize$u20$as$u20$core..slice..SliceIndex$LT$$u5b$T$u5d$$GT$$GT$13get_unchecked17hed42cca51d87883bE
	movq	%rax, -24(%rbp)
	movq	-24(%rbp), %rax
	addq	$32, %rsp
	popq	%rbp
	retq
	.cfi_endproc

	.p2align	4, 0x90
__ZN4core5slice29_$LT$impl$u20$$u5b$T$u5d$$GT$13get_unchecked17ha37bebfb2a89888eE:
	.cfi_startproc
	pushq	%rbp
	.cfi_def_cfa_offset 16
	.cfi_offset %rbp, -16
	movq	%rsp, %rbp
	.cfi_def_cfa_register %rbp
	subq	$32, %rsp
	movq	%rdi, -8(%rbp)
	movq	%rdx, %rdi
	movq	-8(%rbp), %rax
	movq	%rsi, -16(%rbp)
	movq	%rax, %rsi
	movq	-16(%rbp), %rdx
	callq	__ZN68_$LT$usize$u20$as$u20$core..slice..SliceIndex$LT$$u5b$T$u5d$$GT$$GT$13get_unchecked17h62f97a402e209e05E
	movq	%rax, -24(%rbp)
	movq	-24(%rbp), %rax
	addq	$32, %rsp
	popq	%rbp
	retq
	.cfi_endproc

	.p2align	4, 0x90
__ZN4core5slice29_$LT$impl$u20$$u5b$T$u5d$$GT$13get_unchecked17hbaa8c7138147bd30E:
	.cfi_startproc
	pushq	%rbp
	.cfi_def_cfa_offset 16
	.cfi_offset %rbp, -16
	movq	%rsp, %rbp
	.cfi_def_cfa_register %rbp
	subq	$32, %rsp
	movq	%rdi, -8(%rbp)
	movq	%rdx, %rdi
	movq	-8(%rbp), %rax
	movq	%rsi, -16(%rbp)
	movq	%rax, %rsi
	movq	-16(%rbp), %rdx
	callq	__ZN68_$LT$usize$u20$as$u20$core..slice..SliceIndex$LT$$u5b$T$u5d$$GT$$GT$13get_unchecked17hcc9c478a4027c191E
	movq	%rax, -24(%rbp)
	movq	-24(%rbp), %rax
	addq	$32, %rsp
	popq	%rbp
	retq
	.cfi_endproc

	.p2align	4, 0x90
__ZN4core5slice29_$LT$impl$u20$$u5b$T$u5d$$GT$17get_unchecked_mut17h7f852d088aef0c5dE:
	.cfi_startproc
	pushq	%rbp
	.cfi_def_cfa_offset 16
	.cfi_offset %rbp, -16
	movq	%rsp, %rbp
	.cfi_def_cfa_register %rbp
	subq	$32, %rsp
	movq	%rdi, -8(%rbp)
	movq	%rdx, %rdi
	movq	-8(%rbp), %rax
	movq	%rsi, -16(%rbp)
	movq	%rax, %rsi
	movq	-16(%rbp), %rdx
	callq	__ZN68_$LT$usize$u20$as$u20$core..slice..SliceIndex$LT$$u5b$T$u5d$$GT$$GT$17get_unchecked_mut17h64cc466269e376d6E
	movq	%rax, -24(%rbp)
	movq	-24(%rbp), %rax
	addq	$32, %rsp
	popq	%rbp
	retq
	.cfi_endproc

	.p2align	4, 0x90
__ZN4core5slice29_$LT$impl$u20$$u5b$T$u5d$$GT$3get17h3d90984b8deaaa16E:
	.cfi_startproc
	pushq	%rbp
	.cfi_def_cfa_offset 16
	.cfi_offset %rbp, -16
	movq	%rsp, %rbp
	.cfi_def_cfa_register %rbp
	subq	$32, %rsp
	movq	%rdi, -8(%rbp)
	movq	%rdx, %rdi
	movq	-8(%rbp), %rax
	movq	%rsi, -16(%rbp)
	movq	%rax, %rsi
	movq	-16(%rbp), %rdx
	callq	__ZN68_$LT$usize$u20$as$u20$core..slice..SliceIndex$LT$$u5b$T$u5d$$GT$$GT$3get17h1db660b5cee2616aE
	movq	%rax, -24(%rbp)
	movq	-24(%rbp), %rax
	addq	$32, %rsp
	popq	%rbp
	retq
	.cfi_endproc

	.p2align	4, 0x90
__ZN4core5slice29_$LT$impl$u20$$u5b$T$u5d$$GT$3get17h8bb978f513398d3cE:
	.cfi_startproc
	pushq	%rbp
	.cfi_def_cfa_offset 16
	.cfi_offset %rbp, -16
	movq	%rsp, %rbp
	.cfi_def_cfa_register %rbp
	subq	$32, %rsp
	movq	%rdi, -8(%rbp)
	movq	%rdx, %rdi
	movq	%rsi, -16(%rbp)
	movq	%rcx, %rsi
	movq	-8(%rbp), %rdx
	movq	-16(%rbp), %rcx
	callq	__ZN99_$LT$core..ops..range..Range$LT$usize$GT$$u20$as$u20$core..slice..SliceIndex$LT$$u5b$T$u5d$$GT$$GT$3get17h74e7f8a97db460e7E
	movq	%rax, -24(%rbp)
	movq	%rdx, -32(%rbp)
	movq	-24(%rbp), %rax
	movq	-32(%rbp), %rdx
	addq	$32, %rsp
	popq	%rbp
	retq
	.cfi_endproc

	.p2align	4, 0x90
__ZN4core5slice29_$LT$impl$u20$$u5b$T$u5d$$GT$3len17h144e3f806818b42aE:
	.cfi_startproc
	pushq	%rbp
	.cfi_def_cfa_offset 16
	.cfi_offset %rbp, -16
	movq	%rsp, %rbp
	.cfi_def_cfa_register %rbp
	subq	$16, %rsp
	movq	%rdi, -16(%rbp)
	movq	%rsi, -8(%rbp)
	movq	-8(%rbp), %rax
	addq	$16, %rsp
	popq	%rbp
	retq
	.cfi_endproc

	.p2align	4, 0x90
__ZN4core5slice29_$LT$impl$u20$$u5b$T$u5d$$GT$4iter17h5384373500874736E:
	.cfi_startproc
	pushq	%rbp
	.cfi_def_cfa_offset 16
	.cfi_offset %rbp, -16
	movq	%rsp, %rbp
	.cfi_def_cfa_register %rbp
	subq	$112, %rsp
	movq	%rdi, -48(%rbp)
	movq	%rsi, -56(%rbp)
	callq	__ZN4core5slice29_$LT$impl$u20$$u5b$T$u5d$$GT$6as_ptr17h5f2454dc810f4ea9E
	movq	%rax, -64(%rbp)
	movq	-64(%rbp), %rdi
	callq	__ZN4core3ptr9const_ptr33_$LT$impl$u20$$BP$const$u20$T$GT$7is_null17hf29ac81ad2a1ae62E
	movq	$1, -8(%rbp)
	movq	-8(%rbp), %rax
	movq	%rax, -72(%rbp)
	movq	-72(%rbp), %rax
	cmpq	$0, %rax
	je	LBB229_6
	movq	-48(%rbp), %rdi
	movq	-56(%rbp), %rsi
	callq	__ZN4core5slice29_$LT$impl$u20$$u5b$T$u5d$$GT$3len17h144e3f806818b42aE
	movq	%rax, -80(%rbp)
	jmp	LBB229_9
LBB229_6:
	movq	-48(%rbp), %rdi
	movq	-56(%rbp), %rsi
	callq	__ZN4core5slice29_$LT$impl$u20$$u5b$T$u5d$$GT$3len17h144e3f806818b42aE
	movq	%rax, -88(%rbp)
	movq	-64(%rbp), %rdi
	movq	-88(%rbp), %rsi
	callq	__ZN4core3ptr9const_ptr33_$LT$impl$u20$$BP$const$u20$T$GT$12wrapping_add17hb71d3854647aa27eE
	movq	%rax, -96(%rbp)
	movq	-96(%rbp), %rax
	movq	%rax, -24(%rbp)
	jmp	LBB229_11
LBB229_9:
	movq	-64(%rbp), %rdi
	movq	-80(%rbp), %rsi
	callq	__ZN4core3ptr9const_ptr33_$LT$impl$u20$$BP$const$u20$T$GT$3add17h6f9ec26943ed9e83E
	movq	%rax, -24(%rbp)
	jmp	LBB229_11
LBB229_11:
	movq	-64(%rbp), %rdi
	callq	__ZN4core3ptr8non_null16NonNull$LT$T$GT$13new_unchecked17hc5a33e8af947d4e8E
	movq	%rax, -104(%rbp)
	movq	-24(%rbp), %rax
	movq	-104(%rbp), %rcx
	movq	%rcx, -40(%rbp)
	movq	%rax, -32(%rbp)
	movq	-40(%rbp), %rax
	movq	-32(%rbp), %rdx
	addq	$112, %rsp
	popq	%rbp
	retq
	.cfi_endproc

	.p2align	4, 0x90
__ZN4core5slice29_$LT$impl$u20$$u5b$T$u5d$$GT$6as_ptr17h5f2454dc810f4ea9E:
	.cfi_startproc
	pushq	%rbp
	.cfi_def_cfa_offset 16
	.cfi_offset %rbp, -16
	movq	%rsp, %rbp
	.cfi_def_cfa_register %rbp
	movq	%rdi, %rax
	popq	%rbp
	retq
	.cfi_endproc

	.p2align	4, 0x90
__ZN4core5slice74_$LT$impl$u20$core..ops..index..Index$LT$I$GT$$u20$for$u20$$u5b$T$u5d$$GT$5index17h7f960b1d0d18ddf8E:
	.cfi_startproc
	pushq	%rbp
	.cfi_def_cfa_offset 16
	.cfi_offset %rbp, -16
	movq	%rsp, %rbp
	.cfi_def_cfa_register %rbp
	subq	$32, %rsp
	movq	%rdi, -8(%rbp)
	movq	%rdx, %rdi
	movq	%rsi, -16(%rbp)
	movq	%rcx, %rsi
	movq	-8(%rbp), %rdx
	movq	-16(%rbp), %rcx
	callq	__ZN99_$LT$core..ops..range..Range$LT$usize$GT$$u20$as$u20$core..slice..SliceIndex$LT$$u5b$T$u5d$$GT$$GT$5index17h84179fd788e7fd26E
	movq	%rax, -24(%rbp)
	movq	%rdx, -32(%rbp)
	movq	-24(%rbp), %rax
	movq	-32(%rbp), %rdx
	addq	$32, %rsp
	popq	%rbp
	retq
	.cfi_endproc

	.p2align	4, 0x90
__ZN4core5slice77_$LT$impl$u20$core..ops..index..IndexMut$LT$I$GT$$u20$for$u20$$u5b$T$u5d$$GT$9index_mut17h4b647d2c07ce1e12E:
	.cfi_startproc
	pushq	%rbp
	.cfi_def_cfa_offset 16
	.cfi_offset %rbp, -16
	movq	%rsp, %rbp
	.cfi_def_cfa_register %rbp
	subq	$32, %rsp
	movq	%rdi, -8(%rbp)
	movq	%rdx, %rdi
	movq	-8(%rbp), %rax
	movq	%rsi, -16(%rbp)
	movq	%rax, %rsi
	movq	-16(%rbp), %rdx
	callq	__ZN101_$LT$core..ops..range..RangeTo$LT$usize$GT$$u20$as$u20$core..slice..SliceIndex$LT$$u5b$T$u5d$$GT$$GT$9index_mut17h1e6193cfec63a5aeE
	movq	%rax, -24(%rbp)
	movq	%rdx, -32(%rbp)
	movq	-24(%rbp), %rax
	movq	-32(%rbp), %rdx
	addq	$32, %rsp
	popq	%rbp
	retq
	.cfi_endproc

	.p2align	4, 0x90
__ZN4core5slice77_$LT$impl$u20$core..ops..index..IndexMut$LT$I$GT$$u20$for$u20$$u5b$T$u5d$$GT$9index_mut17h82a65b28f7d6ad0cE:
	.cfi_startproc
	pushq	%rbp
	.cfi_def_cfa_offset 16
	.cfi_offset %rbp, -16
	movq	%rsp, %rbp
	.cfi_def_cfa_register %rbp
	subq	$16, %rsp
	callq	__ZN90_$LT$core..ops..range..RangeFull$u20$as$u20$core..slice..SliceIndex$LT$$u5b$T$u5d$$GT$$GT$9index_mut17h78b26b42ac363003E
	movq	%rax, -8(%rbp)
	movq	%rdx, -16(%rbp)
	movq	-8(%rbp), %rax
	movq	-16(%rbp), %rdx
	addq	$16, %rsp
	popq	%rbp
	retq
	.cfi_endproc

	.p2align	4, 0x90
__ZN4core5slice81_$LT$impl$u20$core..cmp..PartialEq$LT$$u5b$B$u5d$$GT$$u20$for$u20$$u5b$A$u5d$$GT$2eq17hacdeaae4a9eaa811E:
	.cfi_startproc
	pushq	%rbp
	.cfi_def_cfa_offset 16
	.cfi_offset %rbp, -16
	movq	%rsp, %rbp
	.cfi_def_cfa_register %rbp
	subq	$16, %rsp
	callq	__ZN68_$LT$$u5b$A$u5d$$u20$as$u20$core..slice..SlicePartialEq$LT$A$GT$$GT$5equal17h9424c7de729a7a25E
	movb	%al, -1(%rbp)
	movb	-1(%rbp), %al
	andb	$1, %al
	movzbl	%al, %eax
	addq	$16, %rsp
	popq	%rbp
	retq
	.cfi_endproc

	.p2align	4, 0x90
__ZN4core6option15Option$LT$T$GT$14unwrap_or_else17h5329d68a0dacc536E:
Lfunc_begin24:
	.cfi_startproc
	.cfi_personality 155, _rust_eh_personality
	.cfi_lsda 16, Lexception24
	pushq	%rbp
	.cfi_def_cfa_offset 16
	.cfi_offset %rbp, -16
	movq	%rsp, %rbp
	.cfi_def_cfa_register %rbp
	subq	$80, %rsp
	movq	%rdi, %rax
	movb	$0, -17(%rbp)
	movb	$1, -17(%rbp)
	movq	8(%rsi), %rcx
	testq	%rcx, %rcx
	setne	%dl
	movzbl	%dl, %r8d
	movl	%r8d, %ecx
	movq	%rsi, -64(%rbp)
	movq	%rdi, -72(%rbp)
	movq	%rax, -80(%rbp)
	je	LBB235_1
	jmp	LBB235_10
LBB235_10:
	jmp	LBB235_3
LBB235_1:
	movb	$0, -17(%rbp)
Ltmp113:
	movq	-72(%rbp), %rdi
	callq	__ZN5alloc11collections5btree16unwrap_unchecked28_$u7b$$u7b$closure$u7d$$u7d$17h217e0e39a1c12f6aE
Ltmp114:
	jmp	LBB235_4
	ud2
LBB235_3:
	movq	-64(%rbp), %rax
	movq	(%rax), %rcx
	movq	%rcx, -56(%rbp)
	movq	8(%rax), %rcx
	movq	%rcx, -48(%rbp)
	movq	16(%rax), %rcx
	movq	%rcx, -40(%rbp)
	movq	24(%rax), %rcx
	movq	%rcx, -32(%rbp)
	movq	-56(%rbp), %rcx
	movq	-72(%rbp), %rdx
	movq	%rcx, (%rdx)
	movq	-48(%rbp), %rcx
	movq	%rcx, 8(%rdx)
	movq	-40(%rbp), %rcx
	movq	%rcx, 16(%rdx)
	movq	-32(%rbp), %rcx
	movq	%rcx, 24(%rdx)
	jmp	LBB235_8
LBB235_4:
	jmp	LBB235_8
LBB235_5:
	movq	-80(%rbp), %rax
	addq	$80, %rsp
	popq	%rbp
	retq
LBB235_6:
	movq	-16(%rbp), %rdi
	callq	__Unwind_Resume
	ud2
LBB235_7:
	movb	$0, -17(%rbp)
	jmp	LBB235_5
LBB235_8:
	testb	$1, -17(%rbp)
	jne	LBB235_7
	jmp	LBB235_5
LBB235_9:
Ltmp115:
	movq	%rax, -16(%rbp)
	movl	%edx, -8(%rbp)
	jmp	LBB235_6
Lfunc_end24:
	.cfi_endproc
	.section	__TEXT,__gcc_except_tab
	.p2align	2
GCC_except_table235:
Lexception24:
	.byte	255
	.byte	255
	.byte	1
	.uleb128 Lcst_end24-Lcst_begin24
Lcst_begin24:
	.uleb128 Ltmp113-Lfunc_begin24
	.uleb128 Ltmp114-Ltmp113
	.uleb128 Ltmp115-Lfunc_begin24
	.byte	0
	.uleb128 Ltmp114-Lfunc_begin24
	.uleb128 Lfunc_end24-Ltmp114
	.byte	0
	.byte	0
Lcst_end24:
	.p2align	2

	.section	__TEXT,__text,regular,pure_instructions
	.p2align	4, 0x90
__ZN4core6option15Option$LT$T$GT$14unwrap_or_else17h7821de4fc15fe781E:
Lfunc_begin25:
	.cfi_startproc
	.cfi_personality 155, _rust_eh_personality
	.cfi_lsda 16, Lexception25
	pushq	%rbp
	.cfi_def_cfa_offset 16
	.cfi_offset %rbp, -16
	movq	%rsp, %rbp
	.cfi_def_cfa_register %rbp
	subq	$80, %rsp
	movq	%rdi, %rax
	movb	$0, -17(%rbp)
	movb	$1, -17(%rbp)
	movq	8(%rsi), %rcx
	testq	%rcx, %rcx
	setne	%dl
	movzbl	%dl, %r8d
	movl	%r8d, %ecx
	movq	%rsi, -64(%rbp)
	movq	%rdi, -72(%rbp)
	movq	%rax, -80(%rbp)
	je	LBB236_1
	jmp	LBB236_10
LBB236_10:
	jmp	LBB236_3
LBB236_1:
	movb	$0, -17(%rbp)
Ltmp116:
	movq	-72(%rbp), %rdi
	callq	__ZN5alloc11collections5btree16unwrap_unchecked28_$u7b$$u7b$closure$u7d$$u7d$17h381ea7ec93ca3ceaE
Ltmp117:
	jmp	LBB236_4
	ud2
LBB236_3:
	movq	-64(%rbp), %rax
	movq	(%rax), %rcx
	movq	%rcx, -56(%rbp)
	movq	8(%rax), %rcx
	movq	%rcx, -48(%rbp)
	movq	16(%rax), %rcx
	movq	%rcx, -40(%rbp)
	movq	24(%rax), %rcx
	movq	%rcx, -32(%rbp)
	movq	-56(%rbp), %rcx
	movq	-72(%rbp), %rdx
	movq	%rcx, (%rdx)
	movq	-48(%rbp), %rcx
	movq	%rcx, 8(%rdx)
	movq	-40(%rbp), %rcx
	movq	%rcx, 16(%rdx)
	movq	-32(%rbp), %rcx
	movq	%rcx, 24(%rdx)
	jmp	LBB236_8
LBB236_4:
	jmp	LBB236_8
LBB236_5:
	movq	-80(%rbp), %rax
	addq	$80, %rsp
	popq	%rbp
	retq
LBB236_6:
	movq	-16(%rbp), %rdi
	callq	__Unwind_Resume
	ud2
LBB236_7:
	movb	$0, -17(%rbp)
	jmp	LBB236_5
LBB236_8:
	testb	$1, -17(%rbp)
	jne	LBB236_7
	jmp	LBB236_5
LBB236_9:
Ltmp118:
	movq	%rax, -16(%rbp)
	movl	%edx, -8(%rbp)
	jmp	LBB236_6
Lfunc_end25:
	.cfi_endproc
	.section	__TEXT,__gcc_except_tab
	.p2align	2
GCC_except_table236:
Lexception25:
	.byte	255
	.byte	255
	.byte	1
	.uleb128 Lcst_end25-Lcst_begin25
Lcst_begin25:
	.uleb128 Ltmp116-Lfunc_begin25
	.uleb128 Ltmp117-Ltmp116
	.uleb128 Ltmp118-Lfunc_begin25
	.byte	0
	.uleb128 Ltmp117-Lfunc_begin25
	.uleb128 Lfunc_end25-Ltmp117
	.byte	0
	.byte	0
Lcst_end25:
	.p2align	2

	.section	__TEXT,__text,regular,pure_instructions
	.p2align	4, 0x90
__ZN4core6option15Option$LT$T$GT$14unwrap_or_else17h811c7444cde1822dE:
Lfunc_begin26:
	.cfi_startproc
	.cfi_personality 155, _rust_eh_personality
	.cfi_lsda 16, Lexception26
	pushq	%rbp
	.cfi_def_cfa_offset 16
	.cfi_offset %rbp, -16
	movq	%rsp, %rbp
	.cfi_def_cfa_register %rbp
	subq	$112, %rsp
	movq	%rdi, -80(%rbp)
	movq	%rsi, -72(%rbp)
	movb	$0, -17(%rbp)
	movb	$1, -17(%rbp)
	movq	-80(%rbp), %rax
	testq	%rax, %rax
	setne	%cl
	movzbl	%cl, %r8d
	movl	%r8d, %eax
	movq	%rdx, -88(%rbp)
	je	LBB237_1
	jmp	LBB237_10
LBB237_10:
	jmp	LBB237_3
LBB237_1:
	movb	$0, -17(%rbp)
	movq	-88(%rbp), %rax
	movq	16(%rax), %rcx
	movq	%rcx, -32(%rbp)
	movq	(%rax), %rcx
	movq	8(%rax), %rdx
	movq	%rdx, -40(%rbp)
	movq	%rcx, -48(%rbp)
Ltmp119:
	leaq	-48(%rbp), %rdi
	callq	__ZN4core3str6traits105_$LT$impl$u20$core..slice..SliceIndex$LT$str$GT$$u20$for$u20$core..ops..range..RangeFrom$LT$usize$GT$$GT$5index28_$u7b$$u7b$closure$u7d$$u7d$17h3d17ceff96dc4d66E
Ltmp120:
	movq	%rdx, -96(%rbp)
	movq	%rax, -104(%rbp)
	jmp	LBB237_4
	ud2
LBB237_3:
	movq	-80(%rbp), %rax
	movq	-72(%rbp), %rcx
	movq	%rax, -64(%rbp)
	movq	%rcx, -56(%rbp)
	jmp	LBB237_8
LBB237_4:
	movq	-104(%rbp), %rax
	movq	%rax, -64(%rbp)
	movq	-96(%rbp), %rcx
	movq	%rcx, -56(%rbp)
	jmp	LBB237_8
LBB237_5:
	movq	-64(%rbp), %rax
	movq	-56(%rbp), %rdx
	addq	$112, %rsp
	popq	%rbp
	retq
LBB237_6:
	movq	-16(%rbp), %rdi
	callq	__Unwind_Resume
	ud2
LBB237_7:
	movb	$0, -17(%rbp)
	jmp	LBB237_5
LBB237_8:
	testb	$1, -17(%rbp)
	jne	LBB237_7
	jmp	LBB237_5
LBB237_9:
Ltmp121:
	movq	%rax, -16(%rbp)
	movl	%edx, -8(%rbp)
	jmp	LBB237_6
Lfunc_end26:
	.cfi_endproc
	.section	__TEXT,__gcc_except_tab
	.p2align	2
GCC_except_table237:
Lexception26:
	.byte	255
	.byte	255
	.byte	1
	.uleb128 Lcst_end26-Lcst_begin26
Lcst_begin26:
	.uleb128 Ltmp119-Lfunc_begin26
	.uleb128 Ltmp120-Ltmp119
	.uleb128 Ltmp121-Lfunc_begin26
	.byte	0
	.uleb128 Ltmp120-Lfunc_begin26
	.uleb128 Lfunc_end26-Ltmp120
	.byte	0
	.byte	0
Lcst_end26:
	.p2align	2

	.section	__TEXT,__text,regular,pure_instructions
	.p2align	4, 0x90
__ZN4core6option15Option$LT$T$GT$3map17h788271aee70e3337E:
Lfunc_begin27:
	.cfi_startproc
	.cfi_personality 155, _rust_eh_personality
	.cfi_lsda 16, Lexception27
	pushq	%rbp
	.cfi_def_cfa_offset 16
	.cfi_offset %rbp, -16
	movq	%rsp, %rbp
	.cfi_def_cfa_register %rbp
	subq	$48, %rsp
	movl	%edi, -40(%rbp)
	movl	%esi, -36(%rbp)
	movb	$0, -17(%rbp)
	movb	$1, -17(%rbp)
	movl	-40(%rbp), %eax
	movl	%eax, %ecx
	testq	%rcx, %rcx
	je	LBB238_1
	jmp	LBB238_10
LBB238_10:
	jmp	LBB238_3
LBB238_1:
	movl	$1114112, -28(%rbp)
	jmp	LBB238_8
	ud2
LBB238_3:
	movl	-36(%rbp), %eax
	movb	$0, -17(%rbp)
	movl	%eax, -24(%rbp)
	movl	-24(%rbp), %edi
Ltmp122:
	callq	__ZN75_$LT$core..str..Chars$u20$as$u20$core..iter..traits..iterator..Iterator$GT$4next28_$u7b$$u7b$closure$u7d$$u7d$17h7c497b91f4ccd1e7E
Ltmp123:
	movl	%eax, -44(%rbp)
	jmp	LBB238_4
LBB238_4:
	movl	-44(%rbp), %eax
	movl	%eax, -28(%rbp)
	jmp	LBB238_8
LBB238_5:
	movl	-28(%rbp), %eax
	addq	$48, %rsp
	popq	%rbp
	retq
LBB238_6:
	movq	-16(%rbp), %rdi
	callq	__Unwind_Resume
	ud2
LBB238_7:
	movb	$0, -17(%rbp)
	jmp	LBB238_5
LBB238_8:
	testb	$1, -17(%rbp)
	jne	LBB238_7
	jmp	LBB238_5
LBB238_9:
Ltmp124:
	movq	%rax, -16(%rbp)
	movl	%edx, -8(%rbp)
	jmp	LBB238_6
Lfunc_end27:
	.cfi_endproc
	.section	__TEXT,__gcc_except_tab
	.p2align	2
GCC_except_table238:
Lexception27:
	.byte	255
	.byte	255
	.byte	1
	.uleb128 Lcst_end27-Lcst_begin27
Lcst_begin27:
	.uleb128 Ltmp122-Lfunc_begin27
	.uleb128 Ltmp123-Ltmp122
	.uleb128 Ltmp124-Lfunc_begin27
	.byte	0
	.uleb128 Ltmp123-Lfunc_begin27
	.uleb128 Lfunc_end27-Ltmp123
	.byte	0
	.byte	0
Lcst_end27:
	.p2align	2

	.section	__TEXT,__text,regular,pure_instructions
	.p2align	4, 0x90
__ZN4core6option15Option$LT$T$GT$4take17h23a55f3de6b9e914E:
	.cfi_startproc
	pushq	%rbp
	.cfi_def_cfa_offset 16
	.cfi_offset %rbp, -16
	movq	%rsp, %rbp
	.cfi_def_cfa_register %rbp
	subq	$16, %rsp
	callq	__ZN4core3mem4take17h71905baf1d2fb5a8E
	movq	%rax, -8(%rbp)
	movq	%rdx, -16(%rbp)
	movq	-8(%rbp), %rax
	movq	-16(%rbp), %rdx
	addq	$16, %rsp
	popq	%rbp
	retq
	.cfi_endproc

	.p2align	4, 0x90
__ZN4core6option15Option$LT$T$GT$5ok_or17h114dce9214121cc9E:
	.cfi_startproc
	pushq	%rbp
	.cfi_def_cfa_offset 16
	.cfi_offset %rbp, -16
	movq	%rsp, %rbp
	.cfi_def_cfa_register %rbp
	subq	$40, %rsp
	movq	%rdi, -40(%rbp)
	movb	$0, -17(%rbp)
	movb	$1, -17(%rbp)
	movq	-40(%rbp), %rax
	testq	%rax, %rax
	setne	%cl
	movzbl	%cl, %edx
	movl	%edx, %eax
	je	LBB240_1
	jmp	LBB240_7
LBB240_7:
	jmp	LBB240_3
LBB240_1:
	movb	$0, -17(%rbp)
	movq	$0, -32(%rbp)
	jmp	LBB240_4
	ud2
LBB240_3:
	movq	-40(%rbp), %rax
	movq	%rax, -32(%rbp)
LBB240_4:
	testb	$1, -17(%rbp)
	jne	LBB240_6
LBB240_5:
	movq	-32(%rbp), %rax
	addq	$40, %rsp
	popq	%rbp
	retq
LBB240_6:
	movb	$0, -17(%rbp)
	jmp	LBB240_5
	.cfi_endproc

	.p2align	4, 0x90
__ZN4core6option15Option$LT$T$GT$5ok_or17h49a3bc8d53de95d4E:
	.cfi_startproc
	pushq	%rbp
	.cfi_def_cfa_offset 16
	.cfi_offset %rbp, -16
	movq	%rsp, %rbp
	.cfi_def_cfa_register %rbp
	subq	$56, %rsp
	movq	%rdi, -56(%rbp)
	movq	%rsi, -48(%rbp)
	movb	$0, -17(%rbp)
	movb	$1, -17(%rbp)
	movq	-56(%rbp), %rax
	testq	%rax, %rax
	setne	%cl
	movzbl	%cl, %edx
	movl	%edx, %eax
	je	LBB241_1
	jmp	LBB241_7
LBB241_7:
	jmp	LBB241_3
LBB241_1:
	movb	$0, -17(%rbp)
	movq	$0, -40(%rbp)
	jmp	LBB241_4
	ud2
LBB241_3:
	movq	-56(%rbp), %rax
	movq	-48(%rbp), %rcx
	movq	%rax, -40(%rbp)
	movq	%rcx, -32(%rbp)
LBB241_4:
	testb	$1, -17(%rbp)
	jne	LBB241_6
LBB241_5:
	movq	-40(%rbp), %rax
	movq	-32(%rbp), %rdx
	addq	$56, %rsp
	popq	%rbp
	retq
LBB241_6:
	movb	$0, -17(%rbp)
	jmp	LBB241_5
	.cfi_endproc

	.p2align	4, 0x90
__ZN4core6option15Option$LT$T$GT$5ok_or17h8d5c8b7c9b09669fE:
	.cfi_startproc
	pushq	%rbp
	.cfi_def_cfa_offset 16
	.cfi_offset %rbp, -16
	movq	%rsp, %rbp
	.cfi_def_cfa_register %rbp
	subq	$40, %rsp
	movl	%edi, -40(%rbp)
	movl	%esi, -36(%rbp)
	movb	$0, -17(%rbp)
	movb	$1, -17(%rbp)
	movl	-40(%rbp), %eax
	movl	%eax, %ecx
	testq	%rcx, %rcx
	je	LBB242_1
	jmp	LBB242_7
LBB242_7:
	jmp	LBB242_3
LBB242_1:
	movb	$0, -17(%rbp)
	movl	$1, -32(%rbp)
	jmp	LBB242_4
	ud2
LBB242_3:
	movl	-36(%rbp), %eax
	movl	%eax, -28(%rbp)
	movl	$0, -32(%rbp)
LBB242_4:
	testb	$1, -17(%rbp)
	jne	LBB242_6
LBB242_5:
	movl	-32(%rbp), %eax
	movl	-28(%rbp), %edx
	addq	$40, %rsp
	popq	%rbp
	retq
LBB242_6:
	movb	$0, -17(%rbp)
	jmp	LBB242_5
	.cfi_endproc

	.p2align	4, 0x90
__ZN4core6option15Option$LT$T$GT$5ok_or17h9b34277991d83f89E:
	.cfi_startproc
	pushq	%rbp
	.cfi_def_cfa_offset 16
	.cfi_offset %rbp, -16
	movq	%rsp, %rbp
	.cfi_def_cfa_register %rbp
	subq	$96, %rsp
	movq	%rdi, %rax
	movb	$0, -17(%rbp)
	movb	$1, -17(%rbp)
	movq	(%rsi), %rcx
	testq	%rcx, %rcx
	setne	%dl
	movzbl	%dl, %r8d
	movl	%r8d, %ecx
	movq	%rsi, -80(%rbp)
	movq	%rdi, -88(%rbp)
	movq	%rax, -96(%rbp)
	je	LBB243_1
	jmp	LBB243_7
LBB243_7:
	jmp	LBB243_3
LBB243_1:
	movb	$0, -17(%rbp)
	movq	-88(%rbp), %rax
	movq	$0, (%rax)
	jmp	LBB243_4
	ud2
LBB243_3:
	movq	-80(%rbp), %rax
	movq	(%rax), %rcx
	movq	%rcx, -72(%rbp)
	movq	8(%rax), %rcx
	movq	%rcx, -64(%rbp)
	movq	16(%rax), %rcx
	movq	%rcx, -56(%rbp)
	movq	-72(%rbp), %rcx
	movq	%rcx, -48(%rbp)
	movq	-64(%rbp), %rcx
	movq	%rcx, -40(%rbp)
	movq	-56(%rbp), %rcx
	movq	%rcx, -32(%rbp)
	movq	-48(%rbp), %rcx
	movq	-88(%rbp), %rdx
	movq	%rcx, (%rdx)
	movq	-40(%rbp), %rcx
	movq	%rcx, 8(%rdx)
	movq	-32(%rbp), %rcx
	movq	%rcx, 16(%rdx)
LBB243_4:
	testb	$1, -17(%rbp)
	jne	LBB243_6
LBB243_5:
	movq	-96(%rbp), %rax
	addq	$96, %rsp
	popq	%rbp
	retq
LBB243_6:
	movb	$0, -17(%rbp)
	jmp	LBB243_5
	.cfi_endproc

	.p2align	4, 0x90
__ZN4core6option15Option$LT$T$GT$5ok_or17haed08546af045850E:
	.cfi_startproc
	pushq	%rbp
	.cfi_def_cfa_offset 16
	.cfi_offset %rbp, -16
	movq	%rsp, %rbp
	.cfi_def_cfa_register %rbp
	subq	$56, %rsp
	movq	%rdi, -56(%rbp)
	movq	%rsi, -48(%rbp)
	movb	$0, -17(%rbp)
	movb	$1, -17(%rbp)
	movq	-56(%rbp), %rax
	testq	%rax, %rax
	setne	%cl
	movzbl	%cl, %edx
	movl	%edx, %eax
	je	LBB244_1
	jmp	LBB244_7
LBB244_7:
	jmp	LBB244_3
LBB244_1:
	movb	$0, -17(%rbp)
	movq	$0, -40(%rbp)
	jmp	LBB244_4
	ud2
LBB244_3:
	movq	-56(%rbp), %rax
	movq	-48(%rbp), %rcx
	movq	%rax, -40(%rbp)
	movq	%rcx, -32(%rbp)
LBB244_4:
	testb	$1, -17(%rbp)
	jne	LBB244_6
LBB244_5:
	movq	-40(%rbp), %rax
	movq	-32(%rbp), %rdx
	addq	$56, %rsp
	popq	%rbp
	retq
LBB244_6:
	movb	$0, -17(%rbp)
	jmp	LBB244_5
	.cfi_endproc

	.p2align	4, 0x90
__ZN4core6option15Option$LT$T$GT$5ok_or17hb84fc99d1dd65c71E:
	.cfi_startproc
	pushq	%rbp
	.cfi_def_cfa_offset 16
	.cfi_offset %rbp, -16
	movq	%rsp, %rbp
	.cfi_def_cfa_register %rbp
	subq	$192, %rsp
	movq	%rdi, %rax
	movb	$0, -17(%rbp)
	movb	$1, -17(%rbp)
	movq	(%rsi), %rcx
	testq	%rcx, %rcx
	setne	%dl
	movzbl	%dl, %r8d
	movl	%r8d, %ecx
	movq	%rsi, -144(%rbp)
	movq	%rdi, -152(%rbp)
	movq	%rax, -160(%rbp)
	je	LBB245_1
	jmp	LBB245_7
LBB245_7:
	jmp	LBB245_3
LBB245_1:
	movb	$0, -17(%rbp)
	movq	-152(%rbp), %rax
	movq	$0, (%rax)
	jmp	LBB245_4
	ud2
LBB245_3:
	movq	-144(%rbp), %rax
	leaq	-136(%rbp), %rcx
	movq	%rcx, %rdx
	movq	%rdx, %rdi
	movq	%rax, %rsi
	movl	$56, %eax
	movq	%rax, %rdx
	movq	%rcx, -168(%rbp)
	movq	%rax, -176(%rbp)
	callq	_memcpy
	leaq	-80(%rbp), %rax
	movq	%rax, %rcx
	movq	-168(%rbp), %rdx
	movq	%rcx, %rdi
	movq	%rdx, %rsi
	movq	-176(%rbp), %rdx
	movq	%rax, -184(%rbp)
	callq	_memcpy
	movq	-152(%rbp), %rax
	movq	-184(%rbp), %rcx
	movq	%rax, %rdi
	movq	%rcx, %rsi
	movq	-176(%rbp), %rdx
	callq	_memcpy
LBB245_4:
	testb	$1, -17(%rbp)
	jne	LBB245_6
LBB245_5:
	movq	-160(%rbp), %rax
	addq	$192, %rsp
	popq	%rbp
	retq
LBB245_6:
	movb	$0, -17(%rbp)
	jmp	LBB245_5
	.cfi_endproc

	.p2align	4, 0x90
__ZN4core6option15Option$LT$T$GT$6as_mut17hf5b46b504d7e89c5E:
	.cfi_startproc
	pushq	%rbp
	.cfi_def_cfa_offset 16
	.cfi_offset %rbp, -16
	movq	%rsp, %rbp
	.cfi_def_cfa_register %rbp
	subq	$16, %rsp
	movq	8(%rdi), %rax
	testq	%rax, %rax
	setne	%cl
	movzbl	%cl, %edx
	movl	%edx, %eax
	movq	%rdi, -16(%rbp)
	je	LBB246_1
	jmp	LBB246_5
LBB246_5:
	jmp	LBB246_3
LBB246_1:
	movq	$0, -8(%rbp)
	jmp	LBB246_4
	ud2
LBB246_3:
	movq	-16(%rbp), %rax
	movq	%rax, -8(%rbp)
LBB246_4:
	movq	-8(%rbp), %rax
	addq	$16, %rsp
	popq	%rbp
	retq
	.cfi_endproc

	.p2align	4, 0x90
__ZN4core6option15Option$LT$T$GT$6unwrap17h8c4642a572aecef8E:
Lfunc_begin28:
	.cfi_startproc
	.cfi_personality 155, _rust_eh_personality
	.cfi_lsda 16, Lexception28
	pushq	%rbp
	.cfi_def_cfa_offset 16
	.cfi_offset %rbp, -16
	movq	%rsp, %rbp
	.cfi_def_cfa_register %rbp
	subq	$32, %rsp
	movq	%rdi, -24(%rbp)
	movq	-24(%rbp), %rax
	testq	%rax, %rax
	setne	%cl
	movzbl	%cl, %edx
	movl	%edx, %eax
	movq	%rsi, -32(%rbp)
	je	LBB247_1
	jmp	LBB247_7
LBB247_7:
	jmp	LBB247_3
LBB247_1:
Ltmp125:
	leaq	l___unnamed_12(%rip), %rdi
	movl	$43, %esi
	movq	-32(%rbp), %rdx
	callq	__ZN4core9panicking5panic17h383a6b80ea7021aaE
Ltmp126:
	jmp	LBB247_5
	ud2
LBB247_3:
	movq	-24(%rbp), %rax
	addq	$32, %rsp
	popq	%rbp
	retq
LBB247_4:
	movq	-16(%rbp), %rdi
	callq	__Unwind_Resume
	ud2
LBB247_5:
	ud2
LBB247_6:
Ltmp127:
	movq	%rax, -16(%rbp)
	movl	%edx, -8(%rbp)
	jmp	LBB247_4
Lfunc_end28:
	.cfi_endproc
	.section	__TEXT,__gcc_except_tab
	.p2align	2
GCC_except_table247:
Lexception28:
	.byte	255
	.byte	255
	.byte	1
	.uleb128 Lcst_end28-Lcst_begin28
Lcst_begin28:
	.uleb128 Ltmp125-Lfunc_begin28
	.uleb128 Ltmp126-Ltmp125
	.uleb128 Ltmp127-Lfunc_begin28
	.byte	0
	.uleb128 Ltmp126-Lfunc_begin28
	.uleb128 Lfunc_end28-Ltmp126
	.byte	0
	.byte	0
Lcst_end28:
	.p2align	2

	.section	__TEXT,__text,regular,pure_instructions
	.p2align	4, 0x90
__ZN4core6option15Option$LT$T$GT$7is_some17hf3249c56c8288b82E:
	.cfi_startproc
	pushq	%rbp
	.cfi_def_cfa_offset 16
	.cfi_offset %rbp, -16
	movq	%rsp, %rbp
	.cfi_def_cfa_register %rbp
	subq	$1, %rsp
	cmpq	$1, (%rdi)
	je	LBB248_2
	movb	$0, -1(%rbp)
	jmp	LBB248_3
LBB248_2:
	movb	$1, -1(%rbp)
LBB248_3:
	movb	-1(%rbp), %al
	andb	$1, %al
	movzbl	%al, %eax
	addq	$1, %rsp
	popq	%rbp
	retq
	.cfi_endproc

	.p2align	4, 0x90
__ZN4core6result19Result$LT$T$C$E$GT$2ok17h1b218b4f8eda20c5E:
	.cfi_startproc
	pushq	%rbp
	.cfi_def_cfa_offset 16
	.cfi_offset %rbp, -16
	movq	%rsp, %rbp
	.cfi_def_cfa_register %rbp
	subq	$24, %rsp
	movq	%rdi, -16(%rbp)
	movq	-16(%rbp), %rax
	movq	%rax, -24(%rbp)
	movzbl	-24(%rbp), %ecx
	movl	%ecx, %eax
	testb	$1, %al
	je	LBB249_3
	jmp	LBB249_7
LBB249_7:
	movl	$0, -8(%rbp)
	jmp	LBB249_6
	ud2
LBB249_3:
	movl	-20(%rbp), %eax
	movl	%eax, -4(%rbp)
	movl	$1, -8(%rbp)
	jmp	LBB249_6
LBB249_4:
	movl	-8(%rbp), %eax
	movl	-4(%rbp), %edx
	addq	$24, %rsp
	popq	%rbp
	retq
LBB249_5:
	jmp	LBB249_4
LBB249_6:
	movb	-24(%rbp), %al
	andb	$1, %al
	movzbl	%al, %ecx
	movl	%ecx, %edx
	cmpq	$0, %rdx
	je	LBB249_4
	jmp	LBB249_5
	.cfi_endproc

	.p2align	4, 0x90
__ZN4core6result19Result$LT$T$C$E$GT$2ok17h1c509ff33a394d7bE:
	.cfi_startproc
	pushq	%rbp
	.cfi_def_cfa_offset 16
	.cfi_offset %rbp, -16
	movq	%rsp, %rbp
	.cfi_def_cfa_register %rbp
	subq	$88, %rsp
	movq	%rdi, %rax
	movq	(%rsi), %rcx
	testq	%rcx, %rcx
	movq	%rsi, -72(%rbp)
	movq	%rdi, -80(%rbp)
	movq	%rax, -88(%rbp)
	je	LBB250_3
	jmp	LBB250_7
LBB250_7:
	movq	-80(%rbp), %rax
	movq	$0, 8(%rax)
	jmp	LBB250_6
	ud2
LBB250_3:
	movq	-72(%rbp), %rax
	movq	8(%rax), %rcx
	movq	%rcx, -64(%rbp)
	movq	16(%rax), %rcx
	movq	%rcx, -56(%rbp)
	movq	24(%rax), %rcx
	movq	%rcx, -48(%rbp)
	movq	32(%rax), %rcx
	movq	%rcx, -40(%rbp)
	movq	-64(%rbp), %rcx
	movq	%rcx, -32(%rbp)
	movq	-56(%rbp), %rcx
	movq	%rcx, -24(%rbp)
	movq	-48(%rbp), %rcx
	movq	%rcx, -16(%rbp)
	movq	-40(%rbp), %rcx
	movq	%rcx, -8(%rbp)
	movq	-32(%rbp), %rcx
	movq	-80(%rbp), %rdx
	movq	%rcx, (%rdx)
	movq	-24(%rbp), %rcx
	movq	%rcx, 8(%rdx)
	movq	-16(%rbp), %rcx
	movq	%rcx, 16(%rdx)
	movq	-8(%rbp), %rcx
	movq	%rcx, 24(%rdx)
	jmp	LBB250_6
LBB250_4:
	movq	-88(%rbp), %rax
	addq	$88, %rsp
	popq	%rbp
	retq
LBB250_5:
	jmp	LBB250_4
LBB250_6:
	movq	-72(%rbp), %rax
	cmpq	$0, (%rax)
	je	LBB250_4
	jmp	LBB250_5
	.cfi_endproc

	.p2align	4, 0x90
__ZN4core6result19Result$LT$T$C$E$GT$2ok17hc2638c7b92eab48fE:
	.cfi_startproc
	pushq	%rbp
	.cfi_def_cfa_offset 16
	.cfi_offset %rbp, -16
	movq	%rsp, %rbp
	.cfi_def_cfa_register %rbp
	subq	$24, %rsp
	movq	(%rdi), %rax
	testq	%rax, %rax
	movq	%rdi, -24(%rbp)
	je	LBB251_3
	jmp	LBB251_7
LBB251_7:
	movq	$0, -16(%rbp)
	jmp	LBB251_6
	ud2
LBB251_3:
	movq	-24(%rbp), %rax
	movq	8(%rax), %rcx
	movq	16(%rax), %rdx
	movq	%rcx, -16(%rbp)
	movq	%rdx, -8(%rbp)
	jmp	LBB251_6
LBB251_4:
	movq	-16(%rbp), %rax
	movq	-8(%rbp), %rdx
	addq	$24, %rsp
	popq	%rbp
	retq
LBB251_5:
	jmp	LBB251_4
LBB251_6:
	movq	-24(%rbp), %rax
	cmpq	$0, (%rax)
	je	LBB251_4
	jmp	LBB251_5
	.cfi_endproc

	.p2align	4, 0x90
__ZN4core6result19Result$LT$T$C$E$GT$2ok17hc625e84e894bbef9E:
	.cfi_startproc
	pushq	%rbp
	.cfi_def_cfa_offset 16
	.cfi_offset %rbp, -16
	movq	%rsp, %rbp
	.cfi_def_cfa_register %rbp
	subq	$160, %rsp
	movq	%rdi, %rax
	movq	(%rsi), %rcx
	testq	%rcx, %rcx
	movq	%rsi, -120(%rbp)
	movq	%rdi, -128(%rbp)
	movq	%rax, -136(%rbp)
	je	LBB252_3
	jmp	LBB252_7
LBB252_7:
	movq	-128(%rbp), %rax
	movq	$0, (%rax)
	jmp	LBB252_6
	ud2
LBB252_3:
	movq	-120(%rbp), %rax
	addq	$8, %rax
	leaq	-112(%rbp), %rcx
	movq	%rcx, %rdx
	movq	%rdx, %rdi
	movq	%rax, %rsi
	movl	$56, %eax
	movq	%rax, %rdx
	movq	%rcx, -144(%rbp)
	movq	%rax, -152(%rbp)
	callq	_memcpy
	leaq	-56(%rbp), %rax
	movq	%rax, %rcx
	movq	-144(%rbp), %rdx
	movq	%rcx, %rdi
	movq	%rdx, %rsi
	movq	-152(%rbp), %rdx
	movq	%rax, -160(%rbp)
	callq	_memcpy
	movq	-128(%rbp), %rax
	movq	-160(%rbp), %rcx
	movq	%rax, %rdi
	movq	%rcx, %rsi
	movq	-152(%rbp), %rdx
	callq	_memcpy
	jmp	LBB252_6
LBB252_4:
	movq	-136(%rbp), %rax
	addq	$160, %rsp
	popq	%rbp
	retq
LBB252_5:
	movq	-120(%rbp), %rdi
	callq	__ZN4core3ptr13drop_in_place17h07b635197adcf61dE
	jmp	LBB252_4
LBB252_6:
	movq	-120(%rbp), %rax
	cmpq	$0, (%rax)
	je	LBB252_4
	jmp	LBB252_5
	.cfi_endproc

	.p2align	4, 0x90
__ZN4core7convert3num66_$LT$impl$u20$core..convert..From$LT$u16$GT$$u20$for$u20$usize$GT$4from17h18e839f6e24c737eE:
	.cfi_startproc
	pushq	%rbp
	.cfi_def_cfa_offset 16
	.cfi_offset %rbp, -16
	movq	%rsp, %rbp
	.cfi_def_cfa_register %rbp
	movzwl	%di, %eax
	popq	%rbp
	retq
	.cfi_endproc

	.p2align	4, 0x90
__ZN50_$LT$T$u20$as$u20$core..convert..From$LT$T$GT$$GT$4from17hfffb6d251a5e3854E:
	.cfi_startproc
	pushq	%rbp
	.cfi_def_cfa_offset 16
	.cfi_offset %rbp, -16
	movq	%rsp, %rbp
	.cfi_def_cfa_register %rbp
	popq	%rbp
	retq
	.cfi_endproc

	.p2align	4, 0x90
__ZN50_$LT$T$u20$as$u20$core..convert..Into$LT$U$GT$$GT$4into17h0a7359c11930d833E:
	.cfi_startproc
	pushq	%rbp
	.cfi_def_cfa_offset 16
	.cfi_offset %rbp, -16
	movq	%rsp, %rbp
	.cfi_def_cfa_register %rbp
	subq	$16, %rsp
	callq	__ZN119_$LT$core..ptr..non_null..NonNull$LT$T$GT$$u20$as$u20$core..convert..From$LT$core..ptr..unique..Unique$LT$T$GT$$GT$$GT$4from17hc1736343f30e7f23E
	movq	%rax, -8(%rbp)
	movq	-8(%rbp), %rax
	addq	$16, %rsp
	popq	%rbp
	retq
	.cfi_endproc

	.p2align	4, 0x90
__ZN52_$LT$char$u20$as$u20$core..str..pattern..Pattern$GT$13into_searcher17h16d142eb52c6c88dE:
	.cfi_startproc
	pushq	%rbp
	.cfi_def_cfa_offset 16
	.cfi_offset %rbp, -16
	movq	%rsp, %rbp
	.cfi_def_cfa_register %rbp
	subq	$96, %rsp
	movq	%rdi, %rax
	leaq	-8(%rbp), %r8
	xorl	%r9d, %r9d
	movq	%rdi, -16(%rbp)
	movq	%r8, %rdi
	movl	%esi, -20(%rbp)
	movl	%r9d, %esi
	movl	$4, %r10d
	movq	%rdx, -32(%rbp)
	movq	%r10, %rdx
	movq	%rcx, -40(%rbp)
	movq	%rax, -48(%rbp)
	movq	%r8, -56(%rbp)
	movq	%r10, -64(%rbp)
	callq	_memset
	movq	-56(%rbp), %rax
	movl	-20(%rbp), %edi
	movq	%rax, %rsi
	movq	-64(%rbp), %rdx
	callq	__ZN4core4char7methods22_$LT$impl$u20$char$GT$11encode_utf817h0b8db2fe038d683cE
	movq	%rax, -72(%rbp)
	movq	%rdx, -80(%rbp)
	movq	-72(%rbp), %rdi
	movq	-80(%rbp), %rsi
	callq	__ZN4core3str21_$LT$impl$u20$str$GT$3len17hd69b9c1a69be4096E
	movq	%rax, -88(%rbp)
	movq	-32(%rbp), %rdi
	movq	-40(%rbp), %rsi
	callq	__ZN4core3str21_$LT$impl$u20$str$GT$3len17hd69b9c1a69be4096E
	movq	%rax, -96(%rbp)
	movl	-8(%rbp), %eax
	movl	%eax, -4(%rbp)
	movq	-16(%rbp), %rcx
	movq	-32(%rbp), %rdx
	movq	%rdx, (%rcx)
	movq	-40(%rbp), %rsi
	movq	%rsi, 8(%rcx)
	movq	$0, 16(%rcx)
	movq	-96(%rbp), %rdi
	movq	%rdi, 24(%rcx)
	movl	-20(%rbp), %eax
	movl	%eax, 40(%rcx)
	movq	-88(%rbp), %r8
	movq	%r8, 32(%rcx)
	movl	-4(%rbp), %r9d
	movl	%r9d, 44(%rcx)
	movq	-48(%rbp), %r10
	movq	%r10, %rax
	addq	$96, %rsp
	popq	%rbp
	retq
	.cfi_endproc

	.p2align	4, 0x90
__ZN54_$LT$$LP$$RP$$u20$as$u20$std..process..Termination$GT$6report17h0eabcf51bda8c505E:
	.cfi_startproc
	pushq	%rbp
	.cfi_def_cfa_offset 16
	.cfi_offset %rbp, -16
	movq	%rsp, %rbp
	.cfi_def_cfa_register %rbp
	subq	$16, %rsp
	xorl	%edi, %edi
	callq	__ZN68_$LT$std..process..ExitCode$u20$as$u20$std..process..Termination$GT$6report17hf23c94ef8fb550abE
	movl	%eax, -4(%rbp)
	movl	-4(%rbp), %eax
	addq	$16, %rsp
	popq	%rbp
	retq
	.cfi_endproc

	.p2align	4, 0x90
__ZN55_$LT$$RF$T$u20$as$u20$core..convert..AsRef$LT$U$GT$$GT$6as_ref17hba39a6f20b39b47dE:
	.cfi_startproc
	pushq	%rbp
	.cfi_def_cfa_offset 16
	.cfi_offset %rbp, -16
	movq	%rsp, %rbp
	.cfi_def_cfa_register %rbp
	subq	$16, %rsp
	movq	(%rdi), %rax
	movq	8(%rdi), %rsi
	movq	%rax, %rdi
	callq	__ZN3std3ffi6os_str85_$LT$impl$u20$core..convert..AsRef$LT$std..ffi..os_str..OsStr$GT$$u20$for$u20$str$GT$6as_ref17hbc1c578c142fa206E
	movq	%rax, -8(%rbp)
	movq	%rdx, -16(%rbp)
	movq	-8(%rbp), %rax
	movq	-16(%rbp), %rdx
	addq	$16, %rsp
	popq	%rbp
	retq
	.cfi_endproc

	.p2align	4, 0x90
__ZN55_$LT$$RF$str$u20$as$u20$core..str..pattern..Pattern$GT$13into_searcher17h044f882f1132d21fE:
	.cfi_startproc
	pushq	%rbp
	.cfi_def_cfa_offset 16
	.cfi_offset %rbp, -16
	movq	%rsp, %rbp
	.cfi_def_cfa_register %rbp
	subq	$32, %rsp
	movq	%rdi, %rax
	movq	%rsi, -8(%rbp)
	movq	%rcx, %rsi
	movq	%rdx, -16(%rbp)
	movq	%r8, %rdx
	movq	-8(%rbp), %rcx
	movq	-16(%rbp), %r8
	movq	%rax, -24(%rbp)
	callq	__ZN4core3str7pattern11StrSearcher3new17hb3e2f8082f620422E
	movq	-24(%rbp), %rax
	addq	$32, %rsp
	popq	%rbp
	retq
	.cfi_endproc

	.p2align	4, 0x90
__ZN5alloc11collections5btree16unwrap_unchecked28_$u7b$$u7b$closure$u7d$$u7d$17h217e0e39a1c12f6aE:
	.cfi_startproc
	pushq	%rbp
	.cfi_def_cfa_offset 16
	.cfi_offset %rbp, -16
	movq	%rsp, %rbp
	.cfi_def_cfa_register %rbp
	ud2
	.cfi_endproc

	.p2align	4, 0x90
__ZN5alloc11collections5btree16unwrap_unchecked28_$u7b$$u7b$closure$u7d$$u7d$17h381ea7ec93ca3ceaE:
	.cfi_startproc
	pushq	%rbp
	.cfi_def_cfa_offset 16
	.cfi_offset %rbp, -16
	movq	%rsp, %rbp
	.cfi_def_cfa_register %rbp
	ud2
	.cfi_endproc

	.p2align	4, 0x90
__ZN5alloc11collections5btree3map17full_range_search17ha6820dad0c07f009E:
	.cfi_startproc
	pushq	%rbp
	.cfi_def_cfa_offset 16
	.cfi_offset %rbp, -16
	movq	%rsp, %rbp
	.cfi_def_cfa_register %rbp
	subq	$832, %rsp
	movq	%rdi, %rax
	leaq	-760(%rbp), %rcx
	movq	%rdi, -768(%rbp)
	movq	%rcx, %rdi
	movq	%rsi, -776(%rbp)
	movq	%rax, -784(%rbp)
	callq	__ZN4core3ptr4read17h27ab1cd305cba105E
	movq	-776(%rbp), %rax
	movq	(%rax), %rcx
	movq	%rcx, -736(%rbp)
	movq	8(%rax), %rcx
	movq	%rcx, -728(%rbp)
	movq	16(%rax), %rcx
	movq	%rcx, -720(%rbp)
LBB262_2:
	movq	-760(%rbp), %rax
	movq	%rax, -680(%rbp)
	movq	-752(%rbp), %rax
	movq	%rax, -672(%rbp)
	movq	-744(%rbp), %rax
	movq	%rax, -664(%rbp)
	leaq	-712(%rbp), %rdi
	leaq	-680(%rbp), %rsi
	callq	__ZN5alloc11collections5btree4node40NodeRef$LT$BorrowType$C$K$C$V$C$Type$GT$10first_edge17h2bf6956f0b73c8b4E
	movq	-736(%rbp), %rax
	movq	%rax, -624(%rbp)
	movq	-728(%rbp), %rax
	movq	%rax, -616(%rbp)
	movq	-720(%rbp), %rax
	movq	%rax, -608(%rbp)
	leaq	-656(%rbp), %rdi
	leaq	-624(%rbp), %rsi
	callq	__ZN5alloc11collections5btree4node40NodeRef$LT$BorrowType$C$K$C$V$C$Type$GT$9last_edge17h2c16e74be3221486E
	movq	-712(%rbp), %rax
	movq	%rax, -480(%rbp)
	movq	-704(%rbp), %rax
	movq	%rax, -472(%rbp)
	movq	-696(%rbp), %rax
	movq	%rax, -464(%rbp)
	movq	-688(%rbp), %rax
	movq	%rax, -456(%rbp)
	leaq	-520(%rbp), %rdi
	leaq	-480(%rbp), %rsi
	callq	__ZN5alloc11collections5btree4node151Handle$LT$alloc..collections..btree..node..NodeRef$LT$BorrowType$C$K$C$V$C$alloc..collections..btree..node..marker..LeafOrInternal$GT$$C$HandleType$GT$5force17hfc9d9b0fa2e03addE
	movq	-656(%rbp), %rax
	movq	%rax, -408(%rbp)
	movq	-648(%rbp), %rax
	movq	%rax, -400(%rbp)
	movq	-640(%rbp), %rax
	movq	%rax, -392(%rbp)
	movq	-632(%rbp), %rax
	movq	%rax, -384(%rbp)
	leaq	-448(%rbp), %rdi
	leaq	-408(%rbp), %rsi
	callq	__ZN5alloc11collections5btree4node151Handle$LT$alloc..collections..btree..node..NodeRef$LT$BorrowType$C$K$C$V$C$alloc..collections..btree..node..marker..LeafOrInternal$GT$$C$HandleType$GT$5force17hfc9d9b0fa2e03addE
	movq	-488(%rbp), %rax
	movq	%rax, -568(%rbp)
	movq	-496(%rbp), %rax
	movq	%rax, -576(%rbp)
	movq	-504(%rbp), %rax
	movq	%rax, -584(%rbp)
	movq	-520(%rbp), %rax
	movq	-512(%rbp), %rcx
	movq	%rcx, -592(%rbp)
	movq	%rax, -600(%rbp)
	movq	-416(%rbp), %rax
	movq	%rax, -528(%rbp)
	movq	-424(%rbp), %rax
	movq	%rax, -536(%rbp)
	movq	-432(%rbp), %rax
	movq	%rax, -544(%rbp)
	movq	-448(%rbp), %rax
	movq	-440(%rbp), %rcx
	movq	%rcx, -552(%rbp)
	movq	%rax, -560(%rbp)
	movq	-600(%rbp), %rax
	testq	%rax, %rax
	movq	%rax, -792(%rbp)
	je	LBB262_7
	jmp	LBB262_16
LBB262_16:
	movq	-792(%rbp), %rax
	subq	$1, %rax
	je	LBB262_9
	jmp	LBB262_8
LBB262_7:
	cmpq	$0, -560(%rbp)
	je	LBB262_10
LBB262_8:
	movq	l___unnamed_13(%rip), %rax
	movq	l___unnamed_14(%rip), %rcx
	movq	%rcx, -8(%rbp)
	movq	-8(%rbp), %rdi
	leaq	__ZN44_$LT$$RF$T$u20$as$u20$core..fmt..Display$GT$3fmt17h195fa4af66487ab1E(%rip), %rsi
	movq	%rax, -800(%rbp)
	callq	__ZN4core3fmt10ArgumentV13new17h3d477c87908d2858E
	movq	%rax, -808(%rbp)
	movq	%rdx, -816(%rbp)
	jmp	LBB262_14
LBB262_9:
	cmpq	$1, -560(%rbp)
	je	LBB262_11
	jmp	LBB262_8
LBB262_10:
	movq	-592(%rbp), %rax
	movq	%rax, -376(%rbp)
	movq	-584(%rbp), %rax
	movq	%rax, -368(%rbp)
	movq	-576(%rbp), %rax
	movq	%rax, -360(%rbp)
	movq	-568(%rbp), %rax
	movq	%rax, -352(%rbp)
	movq	-552(%rbp), %rax
	movq	%rax, -344(%rbp)
	movq	-544(%rbp), %rax
	movq	%rax, -336(%rbp)
	movq	-536(%rbp), %rax
	movq	%rax, -328(%rbp)
	movq	-528(%rbp), %rax
	movq	%rax, -320(%rbp)
	movq	-376(%rbp), %rax
	movq	%rax, -312(%rbp)
	movq	-368(%rbp), %rax
	movq	%rax, -304(%rbp)
	movq	-360(%rbp), %rax
	movq	%rax, -296(%rbp)
	movq	-352(%rbp), %rax
	movq	%rax, -288(%rbp)
	movq	-344(%rbp), %rax
	movq	%rax, -280(%rbp)
	movq	-336(%rbp), %rax
	movq	%rax, -272(%rbp)
	movq	-328(%rbp), %rax
	movq	%rax, -264(%rbp)
	movq	-320(%rbp), %rax
	movq	%rax, -256(%rbp)
	movq	-312(%rbp), %rax
	movq	-768(%rbp), %rcx
	movq	%rax, (%rcx)
	movq	-304(%rbp), %rax
	movq	%rax, 8(%rcx)
	movq	-296(%rbp), %rax
	movq	%rax, 16(%rcx)
	movq	-288(%rbp), %rax
	movq	%rax, 24(%rcx)
	movq	-280(%rbp), %rax
	movq	%rax, 32(%rcx)
	movq	-272(%rbp), %rax
	movq	%rax, 40(%rcx)
	movq	-264(%rbp), %rax
	movq	%rax, 48(%rcx)
	movq	-256(%rbp), %rax
	movq	%rax, 56(%rcx)
	movq	-784(%rbp), %rax
	addq	$832, %rsp
	popq	%rbp
	retq
LBB262_11:
	movq	-592(%rbp), %rax
	movq	%rax, -248(%rbp)
	movq	-584(%rbp), %rax
	movq	%rax, -240(%rbp)
	movq	-576(%rbp), %rax
	movq	%rax, -232(%rbp)
	movq	-568(%rbp), %rax
	movq	%rax, -224(%rbp)
	movq	-552(%rbp), %rax
	movq	%rax, -216(%rbp)
	movq	-544(%rbp), %rax
	movq	%rax, -208(%rbp)
	movq	-536(%rbp), %rax
	movq	%rax, -200(%rbp)
	movq	-528(%rbp), %rax
	movq	%rax, -192(%rbp)
	movq	-248(%rbp), %rax
	movq	%rax, -160(%rbp)
	movq	-240(%rbp), %rax
	movq	%rax, -152(%rbp)
	movq	-232(%rbp), %rax
	movq	%rax, -144(%rbp)
	movq	-224(%rbp), %rax
	movq	%rax, -136(%rbp)
	leaq	-184(%rbp), %rdi
	leaq	-160(%rbp), %rsi
	callq	__ZN5alloc11collections5btree4node180Handle$LT$alloc..collections..btree..node..NodeRef$LT$BorrowType$C$K$C$V$C$alloc..collections..btree..node..marker..Internal$GT$$C$alloc..collections..btree..node..marker..Edge$GT$7descend17h326e6f03f6faa0a6E
	movq	-184(%rbp), %rax
	movq	%rax, -760(%rbp)
	movq	-176(%rbp), %rax
	movq	%rax, -752(%rbp)
	movq	-168(%rbp), %rax
	movq	%rax, -744(%rbp)
	movq	-216(%rbp), %rax
	movq	%rax, -104(%rbp)
	movq	-208(%rbp), %rax
	movq	%rax, -96(%rbp)
	movq	-200(%rbp), %rax
	movq	%rax, -88(%rbp)
	movq	-192(%rbp), %rax
	movq	%rax, -80(%rbp)
	leaq	-128(%rbp), %rdi
	leaq	-104(%rbp), %rsi
	callq	__ZN5alloc11collections5btree4node180Handle$LT$alloc..collections..btree..node..NodeRef$LT$BorrowType$C$K$C$V$C$alloc..collections..btree..node..marker..Internal$GT$$C$alloc..collections..btree..node..marker..Edge$GT$7descend17h326e6f03f6faa0a6E
	movq	-128(%rbp), %rax
	movq	%rax, -736(%rbp)
	movq	-120(%rbp), %rax
	movq	%rax, -728(%rbp)
	movq	-112(%rbp), %rax
	movq	%rax, -720(%rbp)
	jmp	LBB262_2
LBB262_14:
	movq	-808(%rbp), %rax
	movq	%rax, -24(%rbp)
	movq	-816(%rbp), %rcx
	movq	%rcx, -16(%rbp)
	leaq	-24(%rbp), %rdx
	leaq	-72(%rbp), %rdi
	movq	-800(%rbp), %rsi
	movl	$1, %r8d
	movq	%rdx, -824(%rbp)
	movq	%r8, %rdx
	movq	-824(%rbp), %rcx
	callq	__ZN4core3fmt9Arguments6new_v117h629f04ff1cc8bf0fE
	leaq	l___unnamed_10(%rip), %rsi
	leaq	-72(%rbp), %rdi
	callq	__ZN4core9panicking9panic_fmt17hfce5b7173905fc53E
	.cfi_endproc

	.p2align	4, 0x90
__ZN5alloc11collections5btree4node104Handle$LT$alloc..collections..btree..node..NodeRef$LT$BorrowType$C$K$C$V$C$NodeType$GT$$C$HandleType$GT$8reborrow17h9adca440ed69a0b3E:
	.cfi_startproc
	pushq	%rbp
	.cfi_def_cfa_offset 16
	.cfi_offset %rbp, -16
	movq	%rsp, %rbp
	.cfi_def_cfa_register %rbp
	subq	$64, %rsp
	movq	%rdi, %rax
	movq	%rsi, %rcx
	leaq	-32(%rbp), %rdx
	movq	%rdi, -40(%rbp)
	movq	%rdx, %rdi
	movq	%rsi, -48(%rbp)
	movq	%rcx, %rsi
	movq	%rax, -56(%rbp)
	callq	__ZN5alloc11collections5btree4node40NodeRef$LT$BorrowType$C$K$C$V$C$Type$GT$8reborrow17hb66fbabdab7fc36eE
	movq	-48(%rbp), %rax
	movq	24(%rax), %rcx
	movq	-32(%rbp), %rdx
	movq	-40(%rbp), %rsi
	movq	%rdx, (%rsi)
	movq	-24(%rbp), %rdx
	movq	%rdx, 8(%rsi)
	movq	-16(%rbp), %rdx
	movq	%rdx, 16(%rsi)
	movq	%rcx, 24(%rsi)
	movq	-56(%rbp), %rax
	addq	$64, %rsp
	popq	%rbp
	retq
	.cfi_endproc

	.p2align	4, 0x90
__ZN5alloc11collections5btree4node127NodeRef$LT$alloc..collections..btree..node..marker..Owned$C$K$C$V$C$alloc..collections..btree..node..marker..LeafOrInternal$GT$21deallocate_and_ascend17hebd5a88326869713E:
	.cfi_startproc
	pushq	%rbp
	.cfi_def_cfa_offset 16
	.cfi_offset %rbp, -16
	movq	%rsp, %rbp
	.cfi_def_cfa_register %rbp
	subq	$128, %rsp
	movq	%rdi, %rax
	movq	(%rsi), %rcx
	movq	8(%rsi), %rdx
	movq	(%rsi), %r8
	movq	%r8, -48(%rbp)
	movq	8(%rsi), %r8
	movq	%r8, -40(%rbp)
	movq	16(%rsi), %rsi
	movq	%rsi, -32(%rbp)
	leaq	-88(%rbp), %rsi
	movq	%rdi, -96(%rbp)
	movq	%rsi, %rdi
	leaq	-48(%rbp), %rsi
	movq	%rax, -104(%rbp)
	movq	%rcx, -112(%rbp)
	movq	%rdx, -120(%rbp)
	callq	__ZN5alloc11collections5btree4node40NodeRef$LT$BorrowType$C$K$C$V$C$Type$GT$6ascend17h06098e317ca8045fE
	movq	-96(%rbp), %rdi
	leaq	-88(%rbp), %rsi
	callq	__ZN4core6result19Result$LT$T$C$E$GT$2ok17h1c509ff33a394d7bE
	movq	-120(%rbp), %rdi
	callq	__ZN4core3ptr8non_null16NonNull$LT$T$GT$4cast17h5b63d060f04d0c1dE
	movq	%rax, -128(%rbp)
	movq	-112(%rbp), %rax
	cmpq	$0, %rax
	ja	LBB264_5
	callq	__ZN4core5alloc6layout6Layout3new17h66a4b8100d070d94E
	movq	%rdx, -8(%rbp)
	movq	%rax, -16(%rbp)
	jmp	LBB264_6
LBB264_5:
	callq	__ZN4core5alloc6layout6Layout3new17hda50014e5bb1f082E
	movq	%rdx, -8(%rbp)
	movq	%rax, -16(%rbp)
LBB264_6:
	movq	-16(%rbp), %rdx
	movq	-8(%rbp), %rcx
	leaq	-24(%rbp), %rdi
	movq	-128(%rbp), %rsi
	callq	__ZN62_$LT$alloc..alloc..Global$u20$as$u20$core..alloc..AllocRef$GT$7dealloc17ha2e1ea9680662dceE
	movq	-104(%rbp), %rax
	addq	$128, %rsp
	popq	%rbp
	retq
	.cfi_endproc

	.p2align	4, 0x90
__ZN5alloc11collections5btree4node137Handle$LT$alloc..collections..btree..node..NodeRef$LT$BorrowType$C$K$C$V$C$NodeType$GT$$C$alloc..collections..btree..node..marker..KV$GT$10right_edge17h2f53738f12a0068aE:
	.cfi_startproc
	pushq	%rbp
	.cfi_def_cfa_offset 16
	.cfi_offset %rbp, -16
	movq	%rsp, %rbp
	.cfi_def_cfa_register %rbp
	subq	$32, %rsp
	movq	%rdi, %rax
	movq	(%rsi), %rcx
	movq	%rcx, -24(%rbp)
	movq	8(%rsi), %rcx
	movq	%rcx, -16(%rbp)
	movq	16(%rsi), %rcx
	movq	%rcx, -8(%rbp)
	movq	24(%rsi), %rcx
	addq	$1, %rcx
	leaq	-24(%rbp), %rsi
	movq	%rcx, %rdx
	movq	%rax, -32(%rbp)
	callq	__ZN5alloc11collections5btree4node139Handle$LT$alloc..collections..btree..node..NodeRef$LT$BorrowType$C$K$C$V$C$NodeType$GT$$C$alloc..collections..btree..node..marker..Edge$GT$8new_edge17h5febbca70949364fE
	movq	-32(%rbp), %rax
	addq	$32, %rsp
	popq	%rbp
	retq
	.cfi_endproc

	.p2align	4, 0x90
__ZN5alloc11collections5btree4node137Handle$LT$alloc..collections..btree..node..NodeRef$LT$BorrowType$C$K$C$V$C$NodeType$GT$$C$alloc..collections..btree..node..marker..KV$GT$10right_edge17hdb0ec8059b764c1aE:
	.cfi_startproc
	pushq	%rbp
	.cfi_def_cfa_offset 16
	.cfi_offset %rbp, -16
	movq	%rsp, %rbp
	.cfi_def_cfa_register %rbp
	subq	$32, %rsp
	movq	%rdi, %rax
	movq	(%rsi), %rcx
	movq	%rcx, -24(%rbp)
	movq	8(%rsi), %rcx
	movq	%rcx, -16(%rbp)
	movq	16(%rsi), %rcx
	movq	%rcx, -8(%rbp)
	movq	24(%rsi), %rcx
	addq	$1, %rcx
	leaq	-24(%rbp), %rsi
	movq	%rcx, %rdx
	movq	%rax, -32(%rbp)
	callq	__ZN5alloc11collections5btree4node139Handle$LT$alloc..collections..btree..node..NodeRef$LT$BorrowType$C$K$C$V$C$NodeType$GT$$C$alloc..collections..btree..node..marker..Edge$GT$8new_edge17h388fafa46c2905c5E
	movq	-32(%rbp), %rax
	addq	$32, %rsp
	popq	%rbp
	retq
	.cfi_endproc

	.p2align	4, 0x90
__ZN5alloc11collections5btree4node137Handle$LT$alloc..collections..btree..node..NodeRef$LT$BorrowType$C$K$C$V$C$NodeType$GT$$C$alloc..collections..btree..node..marker..KV$GT$6new_kv17hcd00175b20783571E:
	.cfi_startproc
	pushq	%rbp
	.cfi_def_cfa_offset 16
	.cfi_offset %rbp, -16
	movq	%rsp, %rbp
	.cfi_def_cfa_register %rbp
	subq	$24, %rsp
	movq	%rdi, %rax
	movq	(%rsi), %rcx
	movq	%rcx, -24(%rbp)
	movq	8(%rsi), %rcx
	movq	%rcx, -16(%rbp)
	movq	16(%rsi), %rcx
	movq	%rcx, -8(%rbp)
	movq	-24(%rbp), %rcx
	movq	%rcx, (%rdi)
	movq	-16(%rbp), %rcx
	movq	%rcx, 8(%rdi)
	movq	-8(%rbp), %rcx
	movq	%rcx, 16(%rdi)
	movq	%rdx, 24(%rdi)
	addq	$24, %rsp
	popq	%rbp
	retq
	.cfi_endproc

	.p2align	4, 0x90
__ZN5alloc11collections5btree4node139Handle$LT$alloc..collections..btree..node..NodeRef$LT$BorrowType$C$K$C$V$C$NodeType$GT$$C$alloc..collections..btree..node..marker..Edge$GT$8new_edge17h388fafa46c2905c5E:
	.cfi_startproc
	pushq	%rbp
	.cfi_def_cfa_offset 16
	.cfi_offset %rbp, -16
	movq	%rsp, %rbp
	.cfi_def_cfa_register %rbp
	subq	$24, %rsp
	movq	%rdi, %rax
	movq	(%rsi), %rcx
	movq	%rcx, -24(%rbp)
	movq	8(%rsi), %rcx
	movq	%rcx, -16(%rbp)
	movq	16(%rsi), %rcx
	movq	%rcx, -8(%rbp)
	movq	-24(%rbp), %rcx
	movq	%rcx, (%rdi)
	movq	-16(%rbp), %rcx
	movq	%rcx, 8(%rdi)
	movq	-8(%rbp), %rcx
	movq	%rcx, 16(%rdi)
	movq	%rdx, 24(%rdi)
	addq	$24, %rsp
	popq	%rbp
	retq
	.cfi_endproc

	.p2align	4, 0x90
__ZN5alloc11collections5btree4node139Handle$LT$alloc..collections..btree..node..NodeRef$LT$BorrowType$C$K$C$V$C$NodeType$GT$$C$alloc..collections..btree..node..marker..Edge$GT$8new_edge17h5febbca70949364fE:
	.cfi_startproc
	pushq	%rbp
	.cfi_def_cfa_offset 16
	.cfi_offset %rbp, -16
	movq	%rsp, %rbp
	.cfi_def_cfa_register %rbp
	subq	$24, %rsp
	movq	%rdi, %rax
	movq	(%rsi), %rcx
	movq	%rcx, -24(%rbp)
	movq	8(%rsi), %rcx
	movq	%rcx, -16(%rbp)
	movq	16(%rsi), %rcx
	movq	%rcx, -8(%rbp)
	movq	-24(%rbp), %rcx
	movq	%rcx, (%rdi)
	movq	-16(%rbp), %rcx
	movq	%rcx, 8(%rdi)
	movq	-8(%rbp), %rcx
	movq	%rcx, 16(%rdi)
	movq	%rdx, 24(%rdi)
	addq	$24, %rsp
	popq	%rbp
	retq
	.cfi_endproc

	.p2align	4, 0x90
__ZN5alloc11collections5btree4node139Handle$LT$alloc..collections..btree..node..NodeRef$LT$BorrowType$C$K$C$V$C$NodeType$GT$$C$alloc..collections..btree..node..marker..Edge$GT$8new_edge17h87cedd4d9db0d29fE:
	.cfi_startproc
	pushq	%rbp
	.cfi_def_cfa_offset 16
	.cfi_offset %rbp, -16
	movq	%rsp, %rbp
	.cfi_def_cfa_register %rbp
	subq	$24, %rsp
	movq	%rdi, %rax
	movq	(%rsi), %rcx
	movq	%rcx, -24(%rbp)
	movq	8(%rsi), %rcx
	movq	%rcx, -16(%rbp)
	movq	16(%rsi), %rcx
	movq	%rcx, -8(%rbp)
	movq	-24(%rbp), %rcx
	movq	%rcx, (%rdi)
	movq	-16(%rbp), %rcx
	movq	%rcx, 8(%rdi)
	movq	-8(%rbp), %rcx
	movq	%rcx, 16(%rdi)
	movq	%rdx, 24(%rdi)
	addq	$24, %rsp
	popq	%rbp
	retq
	.cfi_endproc

	.p2align	4, 0x90
__ZN5alloc11collections5btree4node139Handle$LT$alloc..collections..btree..node..NodeRef$LT$BorrowType$C$K$C$V$C$NodeType$GT$$C$alloc..collections..btree..node..marker..Edge$GT$8right_kv17h6f411081c6ecb5feE:
	.cfi_startproc
	pushq	%rbp
	.cfi_def_cfa_offset 16
	.cfi_offset %rbp, -16
	movq	%rsp, %rbp
	.cfi_def_cfa_register %rbp
	subq	$128, %rsp
	movq	%rdi, %rax
	movq	24(%rsi), %rcx
	movq	%rsi, %rdx
	movq	%rdi, -96(%rbp)
	movq	%rdx, %rdi
	movq	%rsi, -104(%rbp)
	movq	%rax, -112(%rbp)
	movq	%rcx, -120(%rbp)
	callq	__ZN5alloc11collections5btree4node40NodeRef$LT$BorrowType$C$K$C$V$C$Type$GT$3len17h7db8467dee126c8dE
	movq	%rax, -128(%rbp)
	movq	-120(%rbp), %rax
	movq	-128(%rbp), %rcx
	cmpq	%rcx, %rax
	jb	LBB271_3
	movq	-104(%rbp), %rax
	movq	(%rax), %rcx
	movq	%rcx, -32(%rbp)
	movq	8(%rax), %rcx
	movq	%rcx, -24(%rbp)
	movq	16(%rax), %rcx
	movq	%rcx, -16(%rbp)
	movq	24(%rax), %rcx
	movq	%rcx, -8(%rbp)
	movq	-32(%rbp), %rcx
	movq	-96(%rbp), %rdx
	movq	%rcx, 8(%rdx)
	movq	-24(%rbp), %rcx
	movq	%rcx, 16(%rdx)
	movq	-16(%rbp), %rcx
	movq	%rcx, 24(%rdx)
	movq	-8(%rbp), %rcx
	movq	%rcx, 32(%rdx)
	movq	$1, (%rdx)
	jmp	LBB271_5
LBB271_3:
	movq	-104(%rbp), %rax
	movq	(%rax), %rcx
	movq	%rcx, -56(%rbp)
	movq	8(%rax), %rcx
	movq	%rcx, -48(%rbp)
	movq	16(%rax), %rcx
	movq	%rcx, -40(%rbp)
	movq	24(%rax), %rdx
	leaq	-88(%rbp), %rdi
	leaq	-56(%rbp), %rsi
	callq	__ZN5alloc11collections5btree4node137Handle$LT$alloc..collections..btree..node..NodeRef$LT$BorrowType$C$K$C$V$C$NodeType$GT$$C$alloc..collections..btree..node..marker..KV$GT$6new_kv17hcd00175b20783571E
	movq	-88(%rbp), %rax
	movq	-96(%rbp), %rcx
	movq	%rax, 8(%rcx)
	movq	-80(%rbp), %rax
	movq	%rax, 16(%rcx)
	movq	-72(%rbp), %rax
	movq	%rax, 24(%rcx)
	movq	-64(%rbp), %rax
	movq	%rax, 32(%rcx)
	movq	$0, (%rcx)
LBB271_5:
	movq	-112(%rbp), %rax
	addq	$128, %rsp
	popq	%rbp
	retq
	.cfi_endproc

	.p2align	4, 0x90
__ZN5alloc11collections5btree4node151Handle$LT$alloc..collections..btree..node..NodeRef$LT$BorrowType$C$K$C$V$C$alloc..collections..btree..node..marker..LeafOrInternal$GT$$C$HandleType$GT$5force17had3711dfeaf4fe4eE:
	.cfi_startproc
	pushq	%rbp
	.cfi_def_cfa_offset 16
	.cfi_offset %rbp, -16
	movq	%rsp, %rbp
	.cfi_def_cfa_register %rbp
	subq	$256, %rsp
	movq	%rdi, %rax
	movq	(%rsi), %rcx
	movq	%rcx, -200(%rbp)
	movq	8(%rsi), %rcx
	movq	%rcx, -192(%rbp)
	movq	16(%rsi), %rcx
	movq	%rcx, -184(%rbp)
	leaq	-232(%rbp), %rcx
	movq	%rdi, -240(%rbp)
	movq	%rcx, %rdi
	leaq	-200(%rbp), %rcx
	movq	%rsi, -248(%rbp)
	movq	%rcx, %rsi
	movq	%rax, -256(%rbp)
	callq	__ZN5alloc11collections5btree4node91NodeRef$LT$BorrowType$C$K$C$V$C$alloc..collections..btree..node..marker..LeafOrInternal$GT$5force17he3b8653d2e812cd8E
	movq	-232(%rbp), %rax
	testq	%rax, %rax
	je	LBB272_4
	jmp	LBB272_6
LBB272_6:
	movq	-224(%rbp), %rax
	movq	%rax, -88(%rbp)
	movq	-216(%rbp), %rax
	movq	%rax, -80(%rbp)
	movq	-208(%rbp), %rax
	movq	%rax, -72(%rbp)
	movq	-88(%rbp), %rax
	movq	%rax, -32(%rbp)
	movq	-80(%rbp), %rax
	movq	%rax, -24(%rbp)
	movq	-72(%rbp), %rax
	movq	%rax, -16(%rbp)
	movq	-248(%rbp), %rax
	movq	24(%rax), %rcx
	movq	-32(%rbp), %rdx
	movq	%rdx, -64(%rbp)
	movq	-24(%rbp), %rdx
	movq	%rdx, -56(%rbp)
	movq	-16(%rbp), %rdx
	movq	%rdx, -48(%rbp)
	movq	%rcx, -40(%rbp)
	movq	-64(%rbp), %rcx
	movq	-240(%rbp), %rdx
	movq	%rcx, 8(%rdx)
	movq	-56(%rbp), %rcx
	movq	%rcx, 16(%rdx)
	movq	-48(%rbp), %rcx
	movq	%rcx, 24(%rdx)
	movq	-40(%rbp), %rcx
	movq	%rcx, 32(%rdx)
	movq	$1, (%rdx)
	jmp	LBB272_5
	ud2
LBB272_4:
	movq	-224(%rbp), %rax
	movq	%rax, -176(%rbp)
	movq	-216(%rbp), %rax
	movq	%rax, -168(%rbp)
	movq	-208(%rbp), %rax
	movq	%rax, -160(%rbp)
	movq	-176(%rbp), %rax
	movq	%rax, -120(%rbp)
	movq	-168(%rbp), %rax
	movq	%rax, -112(%rbp)
	movq	-160(%rbp), %rax
	movq	%rax, -104(%rbp)
	movq	-248(%rbp), %rax
	movq	24(%rax), %rcx
	movq	-120(%rbp), %rdx
	movq	%rdx, -152(%rbp)
	movq	-112(%rbp), %rdx
	movq	%rdx, -144(%rbp)
	movq	-104(%rbp), %rdx
	movq	%rdx, -136(%rbp)
	movq	%rcx, -128(%rbp)
	movq	-152(%rbp), %rcx
	movq	-240(%rbp), %rdx
	movq	%rcx, 8(%rdx)
	movq	-144(%rbp), %rcx
	movq	%rcx, 16(%rdx)
	movq	-136(%rbp), %rcx
	movq	%rcx, 24(%rdx)
	movq	-128(%rbp), %rcx
	movq	%rcx, 32(%rdx)
	movq	$0, (%rdx)
LBB272_5:
	movq	-256(%rbp), %rax
	addq	$256, %rsp
	popq	%rbp
	retq
	.cfi_endproc

	.p2align	4, 0x90
__ZN5alloc11collections5btree4node151Handle$LT$alloc..collections..btree..node..NodeRef$LT$BorrowType$C$K$C$V$C$alloc..collections..btree..node..marker..LeafOrInternal$GT$$C$HandleType$GT$5force17hfc9d9b0fa2e03addE:
	.cfi_startproc
	pushq	%rbp
	.cfi_def_cfa_offset 16
	.cfi_offset %rbp, -16
	movq	%rsp, %rbp
	.cfi_def_cfa_register %rbp
	subq	$256, %rsp
	movq	%rdi, %rax
	movq	(%rsi), %rcx
	movq	%rcx, -200(%rbp)
	movq	8(%rsi), %rcx
	movq	%rcx, -192(%rbp)
	movq	16(%rsi), %rcx
	movq	%rcx, -184(%rbp)
	leaq	-232(%rbp), %rcx
	movq	%rdi, -240(%rbp)
	movq	%rcx, %rdi
	leaq	-200(%rbp), %rcx
	movq	%rsi, -248(%rbp)
	movq	%rcx, %rsi
	movq	%rax, -256(%rbp)
	callq	__ZN5alloc11collections5btree4node91NodeRef$LT$BorrowType$C$K$C$V$C$alloc..collections..btree..node..marker..LeafOrInternal$GT$5force17he3b8653d2e812cd8E
	movq	-232(%rbp), %rax
	testq	%rax, %rax
	je	LBB273_4
	jmp	LBB273_6
LBB273_6:
	movq	-224(%rbp), %rax
	movq	%rax, -88(%rbp)
	movq	-216(%rbp), %rax
	movq	%rax, -80(%rbp)
	movq	-208(%rbp), %rax
	movq	%rax, -72(%rbp)
	movq	-88(%rbp), %rax
	movq	%rax, -32(%rbp)
	movq	-80(%rbp), %rax
	movq	%rax, -24(%rbp)
	movq	-72(%rbp), %rax
	movq	%rax, -16(%rbp)
	movq	-248(%rbp), %rax
	movq	24(%rax), %rcx
	movq	-32(%rbp), %rdx
	movq	%rdx, -64(%rbp)
	movq	-24(%rbp), %rdx
	movq	%rdx, -56(%rbp)
	movq	-16(%rbp), %rdx
	movq	%rdx, -48(%rbp)
	movq	%rcx, -40(%rbp)
	movq	-64(%rbp), %rcx
	movq	-240(%rbp), %rdx
	movq	%rcx, 8(%rdx)
	movq	-56(%rbp), %rcx
	movq	%rcx, 16(%rdx)
	movq	-48(%rbp), %rcx
	movq	%rcx, 24(%rdx)
	movq	-40(%rbp), %rcx
	movq	%rcx, 32(%rdx)
	movq	$1, (%rdx)
	jmp	LBB273_5
	ud2
LBB273_4:
	movq	-224(%rbp), %rax
	movq	%rax, -176(%rbp)
	movq	-216(%rbp), %rax
	movq	%rax, -168(%rbp)
	movq	-208(%rbp), %rax
	movq	%rax, -160(%rbp)
	movq	-176(%rbp), %rax
	movq	%rax, -120(%rbp)
	movq	-168(%rbp), %rax
	movq	%rax, -112(%rbp)
	movq	-160(%rbp), %rax
	movq	%rax, -104(%rbp)
	movq	-248(%rbp), %rax
	movq	24(%rax), %rcx
	movq	-120(%rbp), %rdx
	movq	%rdx, -152(%rbp)
	movq	-112(%rbp), %rdx
	movq	%rdx, -144(%rbp)
	movq	-104(%rbp), %rdx
	movq	%rdx, -136(%rbp)
	movq	%rcx, -128(%rbp)
	movq	-152(%rbp), %rcx
	movq	-240(%rbp), %rdx
	movq	%rcx, 8(%rdx)
	movq	-144(%rbp), %rcx
	movq	%rcx, 16(%rdx)
	movq	-136(%rbp), %rcx
	movq	%rcx, 24(%rdx)
	movq	-128(%rbp), %rcx
	movq	%rcx, 32(%rdx)
	movq	$0, (%rdx)
LBB273_5:
	movq	-256(%rbp), %rax
	addq	$256, %rsp
	popq	%rbp
	retq
	.cfi_endproc

	.p2align	4, 0x90
__ZN5alloc11collections5btree4node173Handle$LT$alloc..collections..btree..node..NodeRef$LT$alloc..collections..btree..node..marker..Immut$C$K$C$V$C$NodeType$GT$$C$alloc..collections..btree..node..marker..KV$GT$7into_kv17h6f6cb73a9610c0a1E:
	.cfi_startproc
	pushq	%rbp
	.cfi_def_cfa_offset 16
	.cfi_offset %rbp, -16
	movq	%rsp, %rbp
	.cfi_def_cfa_register %rbp
	subq	$112, %rsp
	movq	(%rdi), %rax
	movq	%rax, -24(%rbp)
	movq	8(%rdi), %rax
	movq	%rax, -16(%rbp)
	movq	16(%rdi), %rax
	movq	%rax, -8(%rbp)
	leaq	-56(%rbp), %rax
	movq	%rdi, -80(%rbp)
	movq	%rax, %rdi
	leaq	-24(%rbp), %rsi
	callq	__ZN5alloc11collections5btree4node76NodeRef$LT$alloc..collections..btree..node..marker..Immut$C$K$C$V$C$Type$GT$11into_slices17hd0bba78bca4a55d2E
	movq	-56(%rbp), %rdi
	movq	-48(%rbp), %rsi
	movq	-40(%rbp), %rax
	movq	-32(%rbp), %rcx
	movq	-80(%rbp), %rdx
	movq	24(%rdx), %rdx
	movq	%rax, -88(%rbp)
	movq	%rcx, -96(%rbp)
	callq	__ZN4core5slice29_$LT$impl$u20$$u5b$T$u5d$$GT$13get_unchecked17h2ab304347fe7b3bdE
	movq	%rax, -104(%rbp)
	movq	-80(%rbp), %rax
	movq	24(%rax), %rdx
	movq	-88(%rbp), %rdi
	movq	-96(%rbp), %rsi
	callq	__ZN4core5slice29_$LT$impl$u20$$u5b$T$u5d$$GT$13get_unchecked17ha37bebfb2a89888eE
	movq	%rax, -112(%rbp)
	movq	-104(%rbp), %rax
	movq	%rax, -72(%rbp)
	movq	-112(%rbp), %rcx
	movq	%rcx, -64(%rbp)
	movq	-72(%rbp), %rax
	movq	-64(%rbp), %rdx
	addq	$112, %rsp
	popq	%rbp
	retq
	.cfi_endproc

	.p2align	4, 0x90
__ZN5alloc11collections5btree4node176Handle$LT$alloc..collections..btree..node..NodeRef$LT$BorrowType$C$K$C$V$C$alloc..collections..btree..node..marker..Leaf$GT$$C$alloc..collections..btree..node..marker..Edge$GT$16forget_node_type17h76f9022d00219e3cE:
	.cfi_startproc
	pushq	%rbp
	.cfi_def_cfa_offset 16
	.cfi_offset %rbp, -16
	movq	%rsp, %rbp
	.cfi_def_cfa_register %rbp
	subq	$80, %rsp
	movq	%rdi, %rax
	movq	(%rsi), %rcx
	movq	%rcx, -24(%rbp)
	movq	8(%rsi), %rcx
	movq	%rcx, -16(%rbp)
	movq	16(%rsi), %rcx
	movq	%rcx, -8(%rbp)
	leaq	-48(%rbp), %rcx
	movq	%rdi, -56(%rbp)
	movq	%rcx, %rdi
	leaq	-24(%rbp), %rcx
	movq	%rsi, -64(%rbp)
	movq	%rcx, %rsi
	movq	%rax, -72(%rbp)
	callq	__ZN5alloc11collections5btree4node40NodeRef$LT$BorrowType$C$K$C$V$C$Type$GT$11forget_type17h529c11ac5f5aac71E
	movq	-64(%rbp), %rax
	movq	24(%rax), %rdx
	movq	-56(%rbp), %rdi
	leaq	-48(%rbp), %rsi
	callq	__ZN5alloc11collections5btree4node139Handle$LT$alloc..collections..btree..node..NodeRef$LT$BorrowType$C$K$C$V$C$NodeType$GT$$C$alloc..collections..btree..node..marker..Edge$GT$8new_edge17h87cedd4d9db0d29fE
	movq	-72(%rbp), %rax
	addq	$80, %rsp
	popq	%rbp
	retq
	.cfi_endproc

	.p2align	4, 0x90
__ZN5alloc11collections5btree4node17Root$LT$K$C$V$GT$8into_ref17hf2bcd2a85deb53bfE:
	.cfi_startproc
	pushq	%rbp
	.cfi_def_cfa_offset 16
	.cfi_offset %rbp, -16
	movq	%rsp, %rbp
	.cfi_def_cfa_register %rbp
	subq	$48, %rsp
	movq	%rdi, %rax
	movq	%rsi, -16(%rbp)
	movq	%rdx, -8(%rbp)
	movq	-8(%rbp), %rcx
	leaq	-16(%rbp), %rdx
	movq	%rdi, -24(%rbp)
	movq	%rdx, %rdi
	movq	%rax, -32(%rbp)
	movq	%rcx, -40(%rbp)
	callq	__ZN5alloc11collections5btree4node22BoxedNode$LT$K$C$V$GT$6as_ptr17he3e356b49f71c828E
	movq	%rax, -48(%rbp)
	jmp	LBB276_2
LBB276_2:
	movq	-24(%rbp), %rax
	movq	-40(%rbp), %rcx
	movq	%rcx, (%rax)
	movq	-48(%rbp), %rdx
	movq	%rdx, 8(%rax)
	movq	$0, 16(%rax)
	movq	-32(%rbp), %rax
	addq	$48, %rsp
	popq	%rbp
	retq
	.cfi_endproc

	.p2align	4, 0x90
__ZN5alloc11collections5btree4node180Handle$LT$alloc..collections..btree..node..NodeRef$LT$BorrowType$C$K$C$V$C$alloc..collections..btree..node..marker..Internal$GT$$C$alloc..collections..btree..node..marker..Edge$GT$16forget_node_type17h81562c209d5392a0E:
	.cfi_startproc
	pushq	%rbp
	.cfi_def_cfa_offset 16
	.cfi_offset %rbp, -16
	movq	%rsp, %rbp
	.cfi_def_cfa_register %rbp
	subq	$80, %rsp
	movq	%rdi, %rax
	movq	(%rsi), %rcx
	movq	%rcx, -24(%rbp)
	movq	8(%rsi), %rcx
	movq	%rcx, -16(%rbp)
	movq	16(%rsi), %rcx
	movq	%rcx, -8(%rbp)
	leaq	-48(%rbp), %rcx
	movq	%rdi, -56(%rbp)
	movq	%rcx, %rdi
	leaq	-24(%rbp), %rcx
	movq	%rsi, -64(%rbp)
	movq	%rcx, %rsi
	movq	%rax, -72(%rbp)
	callq	__ZN5alloc11collections5btree4node40NodeRef$LT$BorrowType$C$K$C$V$C$Type$GT$11forget_type17hc25813faddb1671cE
	movq	-64(%rbp), %rax
	movq	24(%rax), %rdx
	movq	-56(%rbp), %rdi
	leaq	-48(%rbp), %rsi
	callq	__ZN5alloc11collections5btree4node139Handle$LT$alloc..collections..btree..node..NodeRef$LT$BorrowType$C$K$C$V$C$NodeType$GT$$C$alloc..collections..btree..node..marker..Edge$GT$8new_edge17h87cedd4d9db0d29fE
	movq	-72(%rbp), %rax
	addq	$80, %rsp
	popq	%rbp
	retq
	.cfi_endproc

	.p2align	4, 0x90
__ZN5alloc11collections5btree4node180Handle$LT$alloc..collections..btree..node..NodeRef$LT$BorrowType$C$K$C$V$C$alloc..collections..btree..node..marker..Internal$GT$$C$alloc..collections..btree..node..marker..Edge$GT$7descend17h326e6f03f6faa0a6E:
	.cfi_startproc
	pushq	%rbp
	.cfi_def_cfa_offset 16
	.cfi_offset %rbp, -16
	movq	%rsp, %rbp
	.cfi_def_cfa_register %rbp
	subq	$80, %rsp
	movq	%rdi, %rax
	movq	(%rsi), %rcx
	subq	$1, %rcx
	movq	%rsi, %rdx
	movq	%rdi, -16(%rbp)
	movq	%rdx, %rdi
	movq	%rsi, -24(%rbp)
	movq	%rax, -32(%rbp)
	movq	%rcx, -40(%rbp)
	callq	__ZN5alloc11collections5btree4node85NodeRef$LT$BorrowType$C$K$C$V$C$alloc..collections..btree..node..marker..Internal$GT$11as_internal17h437a07277826e6a4E
	movq	%rax, -48(%rbp)
	movq	-48(%rbp), %rax
	addq	$544, %rax
	movq	-24(%rbp), %rcx
	movq	24(%rcx), %rdx
	movq	%rax, %rdi
	movl	$12, %esi
	callq	__ZN4core5slice29_$LT$impl$u20$$u5b$T$u5d$$GT$13get_unchecked17hbaa8c7138147bd30E
	movq	%rax, -56(%rbp)
	movq	-56(%rbp), %rax
	movq	%rax, -64(%rbp)
	movq	-64(%rbp), %rdi
	callq	__ZN5alloc11collections5btree4node22BoxedNode$LT$K$C$V$GT$6as_ptr17he3e356b49f71c828E
	movq	%rax, -72(%rbp)
	movq	-24(%rbp), %rax
	movq	16(%rax), %rcx
	movq	-16(%rbp), %rdx
	movq	-40(%rbp), %rsi
	movq	%rsi, (%rdx)
	movq	-72(%rbp), %rdi
	movq	%rdi, 8(%rdx)
	movq	%rcx, 16(%rdx)
	movq	-32(%rbp), %rax
	addq	$80, %rsp
	popq	%rbp
	retq
	.cfi_endproc

	.p2align	4, 0x90
__ZN5alloc11collections5btree4node22BoxedNode$LT$K$C$V$GT$6as_ptr17he3e356b49f71c828E:
	.cfi_startproc
	pushq	%rbp
	.cfi_def_cfa_offset 16
	.cfi_offset %rbp, -16
	movq	%rsp, %rbp
	.cfi_def_cfa_register %rbp
	subq	$16, %rsp
	movq	(%rdi), %rdi
	callq	__ZN119_$LT$core..ptr..non_null..NonNull$LT$T$GT$$u20$as$u20$core..convert..From$LT$core..ptr..unique..Unique$LT$T$GT$$GT$$GT$4from17h7c3fb811b610cde4E
	movq	%rax, -8(%rbp)
	movq	-8(%rbp), %rax
	addq	$16, %rsp
	popq	%rbp
	retq
	.cfi_endproc

	.p2align	4, 0x90
__ZN5alloc11collections5btree4node25Handle$LT$Node$C$Type$GT$9into_node17h26013685f5f02695E:
	.cfi_startproc
	pushq	%rbp
	.cfi_def_cfa_offset 16
	.cfi_offset %rbp, -16
	movq	%rsp, %rbp
	.cfi_def_cfa_register %rbp
	movq	%rdi, %rax
	movq	(%rsi), %rcx
	movq	%rcx, (%rdi)
	movq	8(%rsi), %rcx
	movq	%rcx, 8(%rdi)
	movq	16(%rsi), %rcx
	movq	%rcx, 16(%rdi)
	popq	%rbp
	retq
	.cfi_endproc

	.p2align	4, 0x90
__ZN5alloc11collections5btree4node25Handle$LT$Node$C$Type$GT$9into_node17h4484c8aa58e8c624E:
	.cfi_startproc
	pushq	%rbp
	.cfi_def_cfa_offset 16
	.cfi_offset %rbp, -16
	movq	%rsp, %rbp
	.cfi_def_cfa_register %rbp
	movq	%rdi, %rax
	movq	(%rsi), %rcx
	movq	%rcx, (%rdi)
	movq	8(%rsi), %rcx
	movq	%rcx, 8(%rdi)
	movq	16(%rsi), %rcx
	movq	%rcx, 16(%rdi)
	popq	%rbp
	retq
	.cfi_endproc

	.p2align	4, 0x90
__ZN5alloc11collections5btree4node25Handle$LT$Node$C$Type$GT$9into_node17he50e8ae86deaabe5E:
	.cfi_startproc
	pushq	%rbp
	.cfi_def_cfa_offset 16
	.cfi_offset %rbp, -16
	movq	%rsp, %rbp
	.cfi_def_cfa_register %rbp
	movq	%rdi, %rax
	movq	(%rsi), %rcx
	movq	%rcx, (%rdi)
	movq	8(%rsi), %rcx
	movq	%rcx, 8(%rdi)
	movq	16(%rsi), %rcx
	movq	%rcx, 16(%rdi)
	popq	%rbp
	retq
	.cfi_endproc

	.p2align	4, 0x90
__ZN5alloc11collections5btree4node40NodeRef$LT$BorrowType$C$K$C$V$C$Type$GT$10first_edge17h2bf6956f0b73c8b4E:
	.cfi_startproc
	pushq	%rbp
	.cfi_def_cfa_offset 16
	.cfi_offset %rbp, -16
	movq	%rsp, %rbp
	.cfi_def_cfa_register %rbp
	subq	$32, %rsp
	movq	%rdi, %rax
	xorl	%ecx, %ecx
	movl	%ecx, %edx
	movq	(%rsi), %r8
	movq	%r8, -24(%rbp)
	movq	8(%rsi), %r8
	movq	%r8, -16(%rbp)
	movq	16(%rsi), %rsi
	movq	%rsi, -8(%rbp)
	leaq	-24(%rbp), %rsi
	movq	%rax, -32(%rbp)
	callq	__ZN5alloc11collections5btree4node139Handle$LT$alloc..collections..btree..node..NodeRef$LT$BorrowType$C$K$C$V$C$NodeType$GT$$C$alloc..collections..btree..node..marker..Edge$GT$8new_edge17h87cedd4d9db0d29fE
	movq	-32(%rbp), %rax
	addq	$32, %rsp
	popq	%rbp
	retq
	.cfi_endproc

	.p2align	4, 0x90
__ZN5alloc11collections5btree4node40NodeRef$LT$BorrowType$C$K$C$V$C$Type$GT$10first_edge17h847a1f8102014eacE:
	.cfi_startproc
	pushq	%rbp
	.cfi_def_cfa_offset 16
	.cfi_offset %rbp, -16
	movq	%rsp, %rbp
	.cfi_def_cfa_register %rbp
	subq	$32, %rsp
	movq	%rdi, %rax
	xorl	%ecx, %ecx
	movl	%ecx, %edx
	movq	(%rsi), %r8
	movq	%r8, -24(%rbp)
	movq	8(%rsi), %r8
	movq	%r8, -16(%rbp)
	movq	16(%rsi), %rsi
	movq	%rsi, -8(%rbp)
	leaq	-24(%rbp), %rsi
	movq	%rax, -32(%rbp)
	callq	__ZN5alloc11collections5btree4node139Handle$LT$alloc..collections..btree..node..NodeRef$LT$BorrowType$C$K$C$V$C$NodeType$GT$$C$alloc..collections..btree..node..marker..Edge$GT$8new_edge17h388fafa46c2905c5E
	movq	-32(%rbp), %rax
	addq	$32, %rsp
	popq	%rbp
	retq
	.cfi_endproc

	.p2align	4, 0x90
__ZN5alloc11collections5btree4node40NodeRef$LT$BorrowType$C$K$C$V$C$Type$GT$10first_edge17h8e1086cf563193f3E:
	.cfi_startproc
	pushq	%rbp
	.cfi_def_cfa_offset 16
	.cfi_offset %rbp, -16
	movq	%rsp, %rbp
	.cfi_def_cfa_register %rbp
	subq	$32, %rsp
	movq	%rdi, %rax
	xorl	%ecx, %ecx
	movl	%ecx, %edx
	movq	(%rsi), %r8
	movq	%r8, -24(%rbp)
	movq	8(%rsi), %r8
	movq	%r8, -16(%rbp)
	movq	16(%rsi), %rsi
	movq	%rsi, -8(%rbp)
	leaq	-24(%rbp), %rsi
	movq	%rax, -32(%rbp)
	callq	__ZN5alloc11collections5btree4node139Handle$LT$alloc..collections..btree..node..NodeRef$LT$BorrowType$C$K$C$V$C$NodeType$GT$$C$alloc..collections..btree..node..marker..Edge$GT$8new_edge17h5febbca70949364fE
	movq	-32(%rbp), %rax
	addq	$32, %rsp
	popq	%rbp
	retq
	.cfi_endproc

	.p2align	4, 0x90
__ZN5alloc11collections5btree4node40NodeRef$LT$BorrowType$C$K$C$V$C$Type$GT$11forget_type17h529c11ac5f5aac71E:
	.cfi_startproc
	pushq	%rbp
	.cfi_def_cfa_offset 16
	.cfi_offset %rbp, -16
	movq	%rsp, %rbp
	.cfi_def_cfa_register %rbp
	pushq	%rax
	movq	%rdi, %rax
	movq	(%rsi), %rcx
	movq	8(%rsi), %rdx
	movq	16(%rsi), %rsi
	movq	%rcx, (%rdi)
	movq	%rdx, 8(%rdi)
	movq	%rsi, 16(%rdi)
	addq	$8, %rsp
	popq	%rbp
	retq
	.cfi_endproc

	.p2align	4, 0x90
__ZN5alloc11collections5btree4node40NodeRef$LT$BorrowType$C$K$C$V$C$Type$GT$11forget_type17hc25813faddb1671cE:
	.cfi_startproc
	pushq	%rbp
	.cfi_def_cfa_offset 16
	.cfi_offset %rbp, -16
	movq	%rsp, %rbp
	.cfi_def_cfa_register %rbp
	pushq	%rax
	movq	%rdi, %rax
	movq	(%rsi), %rcx
	movq	8(%rsi), %rdx
	movq	16(%rsi), %rsi
	movq	%rcx, (%rdi)
	movq	%rdx, 8(%rdi)
	movq	%rsi, 16(%rdi)
	addq	$8, %rsp
	popq	%rbp
	retq
	.cfi_endproc

	.p2align	4, 0x90
__ZN5alloc11collections5btree4node40NodeRef$LT$BorrowType$C$K$C$V$C$Type$GT$3len17h24018c386df4052cE:
	.cfi_startproc
	pushq	%rbp
	.cfi_def_cfa_offset 16
	.cfi_offset %rbp, -16
	movq	%rsp, %rbp
	.cfi_def_cfa_register %rbp
	subq	$16, %rsp
	callq	__ZN5alloc11collections5btree4node40NodeRef$LT$BorrowType$C$K$C$V$C$Type$GT$7as_leaf17hdb7120031149e7daE
	movq	%rax, -8(%rbp)
	movq	-8(%rbp), %rax
	movzwl	10(%rax), %ecx
	movl	%ecx, %eax
	addq	$16, %rsp
	popq	%rbp
	retq
	.cfi_endproc

	.p2align	4, 0x90
__ZN5alloc11collections5btree4node40NodeRef$LT$BorrowType$C$K$C$V$C$Type$GT$3len17h7db8467dee126c8dE:
	.cfi_startproc
	pushq	%rbp
	.cfi_def_cfa_offset 16
	.cfi_offset %rbp, -16
	movq	%rsp, %rbp
	.cfi_def_cfa_register %rbp
	subq	$16, %rsp
	callq	__ZN5alloc11collections5btree4node40NodeRef$LT$BorrowType$C$K$C$V$C$Type$GT$7as_leaf17h49f10ee8eafbdfd4E
	movq	%rax, -8(%rbp)
	movq	-8(%rbp), %rax
	movzwl	10(%rax), %ecx
	movl	%ecx, %eax
	addq	$16, %rsp
	popq	%rbp
	retq
	.cfi_endproc

	.p2align	4, 0x90
__ZN5alloc11collections5btree4node40NodeRef$LT$BorrowType$C$K$C$V$C$Type$GT$6ascend17h06098e317ca8045fE:
	.cfi_startproc
	pushq	%rbp
	.cfi_def_cfa_offset 16
	.cfi_offset %rbp, -16
	movq	%rsp, %rbp
	.cfi_def_cfa_register %rbp
	subq	$160, %rsp
	movq	%rdi, %rax
	movq	%rdi, -104(%rbp)
	movq	%rsi, %rdi
	movq	%rsi, -112(%rbp)
	movq	%rax, -120(%rbp)
	callq	__ZN5alloc11collections5btree4node40NodeRef$LT$BorrowType$C$K$C$V$C$Type$GT$7as_leaf17h49f10ee8eafbdfd4E
	movq	%rax, -128(%rbp)
	movq	-128(%rbp), %rax
	movq	(%rax), %rcx
	movq	%rcx, %rdi
	callq	__ZN4core3ptr8non_null16NonNull$LT$T$GT$3new17h11027d5f6f4b8ef0E
	movq	%rax, -96(%rbp)
	xorl	%eax, %eax
	movl	%eax, %ecx
	cmpq	$0, -96(%rbp)
	movl	$1, %edx
	cmovbeq	%rcx, %rdx
	cmpq	$1, %rdx
	je	LBB290_4
	movq	-112(%rbp), %rax
	movq	(%rax), %rcx
	movq	%rcx, -24(%rbp)
	movq	8(%rax), %rcx
	movq	%rcx, -16(%rbp)
	movq	16(%rax), %rcx
	movq	%rcx, -8(%rbp)
	movq	-24(%rbp), %rcx
	movq	-104(%rbp), %rdx
	movq	%rcx, 8(%rdx)
	movq	-16(%rbp), %rcx
	movq	%rcx, 16(%rdx)
	movq	-8(%rbp), %rcx
	movq	%rcx, 24(%rdx)
	movq	$1, (%rdx)
	jmp	LBB290_8
LBB290_4:
	movq	-96(%rbp), %rax
	movq	-112(%rbp), %rcx
	movq	(%rcx), %rdx
	addq	$1, %rdx
	movq	16(%rcx), %rsi
	movq	%rdx, -56(%rbp)
	movq	%rax, -48(%rbp)
	movq	%rsi, -40(%rbp)
	movq	%rcx, %rdi
	callq	__ZN5alloc11collections5btree4node40NodeRef$LT$BorrowType$C$K$C$V$C$Type$GT$7as_leaf17h49f10ee8eafbdfd4E
	movq	%rax, -136(%rbp)
	movq	-136(%rbp), %rax
	addq	$8, %rax
	movq	%rax, -144(%rbp)
	movq	-144(%rbp), %rax
	movzwl	(%rax), %edi
	callq	__ZN4core7convert3num66_$LT$impl$u20$core..convert..From$LT$u16$GT$$u20$for$u20$usize$GT$4from17h18e839f6e24c737eE
	movq	%rax, -152(%rbp)
	movq	-56(%rbp), %rax
	movq	%rax, -88(%rbp)
	movq	-48(%rbp), %rax
	movq	%rax, -80(%rbp)
	movq	-40(%rbp), %rax
	movq	%rax, -72(%rbp)
	movq	-152(%rbp), %rax
	movq	%rax, -64(%rbp)
	movq	-88(%rbp), %rcx
	movq	-104(%rbp), %rdx
	movq	%rcx, 8(%rdx)
	movq	-80(%rbp), %rcx
	movq	%rcx, 16(%rdx)
	movq	-72(%rbp), %rcx
	movq	%rcx, 24(%rdx)
	movq	-64(%rbp), %rcx
	movq	%rcx, 32(%rdx)
	movq	$0, (%rdx)
LBB290_8:
	movq	-120(%rbp), %rax
	addq	$160, %rsp
	popq	%rbp
	retq
	.cfi_endproc

	.p2align	4, 0x90
__ZN5alloc11collections5btree4node40NodeRef$LT$BorrowType$C$K$C$V$C$Type$GT$7as_leaf17h49f10ee8eafbdfd4E:
	.cfi_startproc
	pushq	%rbp
	.cfi_def_cfa_offset 16
	.cfi_offset %rbp, -16
	movq	%rsp, %rbp
	.cfi_def_cfa_register %rbp
	subq	$16, %rsp
	addq	$8, %rdi
	callq	__ZN4core3ptr8non_null16NonNull$LT$T$GT$6as_ref17hf2e53b0e1c001b1aE
	movq	%rax, -8(%rbp)
	movq	-8(%rbp), %rax
	addq	$16, %rsp
	popq	%rbp
	retq
	.cfi_endproc

	.p2align	4, 0x90
__ZN5alloc11collections5btree4node40NodeRef$LT$BorrowType$C$K$C$V$C$Type$GT$7as_leaf17hdb7120031149e7daE:
	.cfi_startproc
	pushq	%rbp
	.cfi_def_cfa_offset 16
	.cfi_offset %rbp, -16
	movq	%rsp, %rbp
	.cfi_def_cfa_register %rbp
	subq	$16, %rsp
	addq	$8, %rdi
	callq	__ZN4core3ptr8non_null16NonNull$LT$T$GT$6as_ref17hf2e53b0e1c001b1aE
	movq	%rax, -8(%rbp)
	movq	-8(%rbp), %rax
	addq	$16, %rsp
	popq	%rbp
	retq
	.cfi_endproc

	.p2align	4, 0x90
__ZN5alloc11collections5btree4node40NodeRef$LT$BorrowType$C$K$C$V$C$Type$GT$8reborrow17hb66fbabdab7fc36eE:
	.cfi_startproc
	pushq	%rbp
	.cfi_def_cfa_offset 16
	.cfi_offset %rbp, -16
	movq	%rsp, %rbp
	.cfi_def_cfa_register %rbp
	pushq	%rax
	movq	%rdi, %rax
	movq	(%rsi), %rcx
	movq	8(%rsi), %rdx
	movq	16(%rsi), %rsi
	movq	%rcx, (%rdi)
	movq	%rdx, 8(%rdi)
	movq	%rsi, 16(%rdi)
	addq	$8, %rsp
	popq	%rbp
	retq
	.cfi_endproc

	.p2align	4, 0x90
__ZN5alloc11collections5btree4node40NodeRef$LT$BorrowType$C$K$C$V$C$Type$GT$9last_edge17h2c16e74be3221486E:
	.cfi_startproc
	pushq	%rbp
	.cfi_def_cfa_offset 16
	.cfi_offset %rbp, -16
	movq	%rsp, %rbp
	.cfi_def_cfa_register %rbp
	subq	$64, %rsp
	movq	%rdi, %rax
	movq	%rdi, -32(%rbp)
	movq	%rsi, %rdi
	movq	%rsi, -40(%rbp)
	movq	%rax, -48(%rbp)
	callq	__ZN5alloc11collections5btree4node40NodeRef$LT$BorrowType$C$K$C$V$C$Type$GT$3len17h7db8467dee126c8dE
	movq	%rax, -56(%rbp)
	movq	-40(%rbp), %rax
	movq	(%rax), %rcx
	movq	%rcx, -24(%rbp)
	movq	8(%rax), %rcx
	movq	%rcx, -16(%rbp)
	movq	16(%rax), %rcx
	movq	%rcx, -8(%rbp)
	movq	-32(%rbp), %rdi
	leaq	-24(%rbp), %rsi
	movq	-56(%rbp), %rdx
	callq	__ZN5alloc11collections5btree4node139Handle$LT$alloc..collections..btree..node..NodeRef$LT$BorrowType$C$K$C$V$C$NodeType$GT$$C$alloc..collections..btree..node..marker..Edge$GT$8new_edge17h87cedd4d9db0d29fE
	movq	-48(%rbp), %rax
	addq	$64, %rsp
	popq	%rbp
	retq
	.cfi_endproc

	.p2align	4, 0x90
__ZN5alloc11collections5btree4node76NodeRef$LT$alloc..collections..btree..node..marker..Immut$C$K$C$V$C$Type$GT$11into_slices17hd0bba78bca4a55d2E:
	.cfi_startproc
	pushq	%rbp
	.cfi_def_cfa_offset 16
	.cfi_offset %rbp, -16
	movq	%rsp, %rbp
	.cfi_def_cfa_register %rbp
	subq	$128, %rsp
	movq	%rdi, %rax
	leaq	-72(%rbp), %rcx
	movq	%rdi, -80(%rbp)
	movq	%rcx, %rdi
	movq	%rsi, -88(%rbp)
	movq	%rax, -96(%rbp)
	callq	__ZN4core3ptr4read17h3bfdf6689f40a3d0E
	movq	-72(%rbp), %rax
	movq	%rax, -48(%rbp)
	movq	-64(%rbp), %rax
	movq	%rax, -40(%rbp)
	movq	-56(%rbp), %rax
	movq	%rax, -32(%rbp)
	leaq	-48(%rbp), %rdi
	callq	__ZN5alloc11collections5btree4node76NodeRef$LT$alloc..collections..btree..node..marker..Immut$C$K$C$V$C$Type$GT$14into_key_slice17he6aa4fe83ba0b65aE
	movq	%rax, -104(%rbp)
	movq	%rdx, -112(%rbp)
	movq	-88(%rbp), %rax
	movq	(%rax), %rcx
	movq	%rcx, -24(%rbp)
	movq	8(%rax), %rcx
	movq	%rcx, -16(%rbp)
	movq	16(%rax), %rcx
	movq	%rcx, -8(%rbp)
	leaq	-24(%rbp), %rdi
	callq	__ZN5alloc11collections5btree4node76NodeRef$LT$alloc..collections..btree..node..marker..Immut$C$K$C$V$C$Type$GT$14into_val_slice17hbfb73c63405e9c03E
	movq	%rax, -120(%rbp)
	movq	%rdx, -128(%rbp)
	movq	-80(%rbp), %rax
	movq	-104(%rbp), %rcx
	movq	%rcx, (%rax)
	movq	-112(%rbp), %rdx
	movq	%rdx, 8(%rax)
	movq	-120(%rbp), %rsi
	movq	%rsi, 16(%rax)
	movq	-128(%rbp), %rdi
	movq	%rdi, 24(%rax)
	movq	-96(%rbp), %rax
	addq	$128, %rsp
	popq	%rbp
	retq
	.cfi_endproc

	.p2align	4, 0x90
__ZN5alloc11collections5btree4node76NodeRef$LT$alloc..collections..btree..node..marker..Immut$C$K$C$V$C$Type$GT$14into_key_slice17he6aa4fe83ba0b65aE:
	.cfi_startproc
	pushq	%rbp
	.cfi_def_cfa_offset 16
	.cfi_offset %rbp, -16
	movq	%rsp, %rbp
	.cfi_def_cfa_register %rbp
	subq	$48, %rsp
	movq	%rdi, -8(%rbp)
	callq	__ZN5alloc11collections5btree4node40NodeRef$LT$BorrowType$C$K$C$V$C$Type$GT$7as_leaf17hdb7120031149e7daE
	movq	%rax, -16(%rbp)
	movq	-16(%rbp), %rax
	addq	$16, %rax
	movq	%rax, -24(%rbp)
	movq	-8(%rbp), %rdi
	callq	__ZN5alloc11collections5btree4node40NodeRef$LT$BorrowType$C$K$C$V$C$Type$GT$3len17h24018c386df4052cE
	movq	%rax, -32(%rbp)
	movq	-24(%rbp), %rdi
	movq	-32(%rbp), %rsi
	callq	__ZN4core5slice14from_raw_parts17h763de2c751290aa3E
	movq	%rax, -40(%rbp)
	movq	%rdx, -48(%rbp)
	movq	-40(%rbp), %rax
	movq	-48(%rbp), %rdx
	addq	$48, %rsp
	popq	%rbp
	retq
	.cfi_endproc

	.p2align	4, 0x90
__ZN5alloc11collections5btree4node76NodeRef$LT$alloc..collections..btree..node..marker..Immut$C$K$C$V$C$Type$GT$14into_val_slice17hbfb73c63405e9c03E:
	.cfi_startproc
	pushq	%rbp
	.cfi_def_cfa_offset 16
	.cfi_offset %rbp, -16
	movq	%rsp, %rbp
	.cfi_def_cfa_register %rbp
	subq	$48, %rsp
	movq	%rdi, -8(%rbp)
	callq	__ZN5alloc11collections5btree4node40NodeRef$LT$BorrowType$C$K$C$V$C$Type$GT$7as_leaf17hdb7120031149e7daE
	movq	%rax, -16(%rbp)
	movq	-16(%rbp), %rax
	addq	$280, %rax
	movq	%rax, -24(%rbp)
	movq	-8(%rbp), %rdi
	callq	__ZN5alloc11collections5btree4node40NodeRef$LT$BorrowType$C$K$C$V$C$Type$GT$3len17h24018c386df4052cE
	movq	%rax, -32(%rbp)
	movq	-24(%rbp), %rdi
	movq	-32(%rbp), %rsi
	callq	__ZN4core5slice14from_raw_parts17hb60b65734e5864a3E
	movq	%rax, -40(%rbp)
	movq	%rdx, -48(%rbp)
	movq	-40(%rbp), %rax
	movq	-48(%rbp), %rdx
	addq	$48, %rsp
	popq	%rbp
	retq
	.cfi_endproc

	.p2align	4, 0x90
__ZN5alloc11collections5btree4node85NodeRef$LT$BorrowType$C$K$C$V$C$alloc..collections..btree..node..marker..Internal$GT$11as_internal17h437a07277826e6a4E:
	.cfi_startproc
	pushq	%rbp
	.cfi_def_cfa_offset 16
	.cfi_offset %rbp, -16
	movq	%rsp, %rbp
	.cfi_def_cfa_register %rbp
	subq	$16, %rsp
	movq	8(%rdi), %rdi
	callq	__ZN4core3ptr8non_null16NonNull$LT$T$GT$6as_ptr17h11b95b2a5abe8608E
	movq	%rax, -8(%rbp)
	movq	-8(%rbp), %rax
	addq	$16, %rsp
	popq	%rbp
	retq
	.cfi_endproc

	.p2align	4, 0x90
__ZN5alloc11collections5btree4node91NodeRef$LT$BorrowType$C$K$C$V$C$alloc..collections..btree..node..marker..LeafOrInternal$GT$5force17he3b8653d2e812cd8E:
	.cfi_startproc
	pushq	%rbp
	.cfi_def_cfa_offset 16
	.cfi_offset %rbp, -16
	movq	%rsp, %rbp
	.cfi_def_cfa_register %rbp
	subq	$88, %rsp
	movq	%rdi, %rax
	cmpq	$0, (%rsi)
	movq	%rsi, -72(%rbp)
	movq	%rdi, -80(%rbp)
	movq	%rax, -88(%rbp)
	je	LBB299_2
	movq	-72(%rbp), %rax
	movq	(%rax), %rcx
	movq	8(%rax), %rdx
	movq	16(%rax), %rsi
	movq	%rcx, -32(%rbp)
	movq	%rdx, -24(%rbp)
	movq	%rsi, -16(%rbp)
	movq	-32(%rbp), %rcx
	movq	-80(%rbp), %rdx
	movq	%rcx, 8(%rdx)
	movq	-24(%rbp), %rcx
	movq	%rcx, 16(%rdx)
	movq	-16(%rbp), %rcx
	movq	%rcx, 24(%rdx)
	movq	$1, (%rdx)
	jmp	LBB299_3
LBB299_2:
	movq	-72(%rbp), %rax
	movq	(%rax), %rcx
	movq	8(%rax), %rdx
	movq	16(%rax), %rsi
	movq	%rcx, -64(%rbp)
	movq	%rdx, -56(%rbp)
	movq	%rsi, -48(%rbp)
	movq	-64(%rbp), %rcx
	movq	-80(%rbp), %rdx
	movq	%rcx, 8(%rdx)
	movq	-56(%rbp), %rcx
	movq	%rcx, 16(%rdx)
	movq	-48(%rbp), %rcx
	movq	%rcx, 24(%rdx)
	movq	$0, (%rdx)
LBB299_3:
	movq	-88(%rbp), %rax
	addq	$88, %rsp
	popq	%rbp
	retq
	.cfi_endproc

	.p2align	4, 0x90
__ZN5alloc11collections5btree8navigate142_$LT$impl$u20$alloc..collections..btree..node..NodeRef$LT$BorrowType$C$K$C$V$C$alloc..collections..btree..node..marker..LeafOrInternal$GT$$GT$15first_leaf_edge17h97441dd6caef927cE:
	.cfi_startproc
	pushq	%rbp
	.cfi_def_cfa_offset 16
	.cfi_offset %rbp, -16
	movq	%rsp, %rbp
	.cfi_def_cfa_register %rbp
	subq	$256, %rsp
	movq	%rdi, %rax
	movq	(%rsi), %rcx
	movq	%rcx, -232(%rbp)
	movq	8(%rsi), %rcx
	movq	%rcx, -224(%rbp)
	movq	16(%rsi), %rcx
	movq	%rcx, -216(%rbp)
	movq	%rdi, -240(%rbp)
	movq	%rax, -248(%rbp)
LBB300_1:
	movq	-232(%rbp), %rax
	movq	%rax, -176(%rbp)
	movq	-224(%rbp), %rax
	movq	%rax, -168(%rbp)
	movq	-216(%rbp), %rax
	movq	%rax, -160(%rbp)
	leaq	-208(%rbp), %rdi
	leaq	-176(%rbp), %rsi
	callq	__ZN5alloc11collections5btree4node91NodeRef$LT$BorrowType$C$K$C$V$C$alloc..collections..btree..node..marker..LeafOrInternal$GT$5force17he3b8653d2e812cd8E
	movq	-208(%rbp), %rax
	testq	%rax, %rax
	je	LBB300_5
	jmp	LBB300_9
LBB300_9:
	movq	-200(%rbp), %rax
	movq	%rax, -104(%rbp)
	movq	-192(%rbp), %rax
	movq	%rax, -96(%rbp)
	movq	-184(%rbp), %rax
	movq	%rax, -88(%rbp)
	movq	-104(%rbp), %rax
	movq	%rax, -24(%rbp)
	movq	-96(%rbp), %rax
	movq	%rax, -16(%rbp)
	movq	-88(%rbp), %rax
	movq	%rax, -8(%rbp)
	leaq	-56(%rbp), %rdi
	leaq	-24(%rbp), %rsi
	callq	__ZN5alloc11collections5btree4node40NodeRef$LT$BorrowType$C$K$C$V$C$Type$GT$10first_edge17h847a1f8102014eacE
	jmp	LBB300_7
	ud2
LBB300_5:
	movq	-200(%rbp), %rax
	movq	%rax, -152(%rbp)
	movq	-192(%rbp), %rax
	movq	%rax, -144(%rbp)
	movq	-184(%rbp), %rax
	movq	%rax, -136(%rbp)
	movq	-152(%rbp), %rax
	movq	%rax, -128(%rbp)
	movq	-144(%rbp), %rax
	movq	%rax, -120(%rbp)
	movq	-136(%rbp), %rax
	movq	%rax, -112(%rbp)
	movq	-240(%rbp), %rdi
	leaq	-128(%rbp), %rsi
	callq	__ZN5alloc11collections5btree4node40NodeRef$LT$BorrowType$C$K$C$V$C$Type$GT$10first_edge17h8e1086cf563193f3E
	movq	-248(%rbp), %rax
	addq	$256, %rsp
	popq	%rbp
	retq
LBB300_7:
	leaq	-80(%rbp), %rdi
	leaq	-56(%rbp), %rsi
	callq	__ZN5alloc11collections5btree4node180Handle$LT$alloc..collections..btree..node..NodeRef$LT$BorrowType$C$K$C$V$C$alloc..collections..btree..node..marker..Internal$GT$$C$alloc..collections..btree..node..marker..Edge$GT$7descend17h326e6f03f6faa0a6E
	movq	-80(%rbp), %rax
	movq	%rax, -232(%rbp)
	movq	-72(%rbp), %rax
	movq	%rax, -224(%rbp)
	movq	-64(%rbp), %rax
	movq	%rax, -216(%rbp)
	jmp	LBB300_1
	.cfi_endproc

	.p2align	4, 0x90
__ZN5alloc11collections5btree8navigate235_$LT$impl$u20$alloc..collections..btree..node..Handle$LT$alloc..collections..btree..node..NodeRef$LT$BorrowType$C$K$C$V$C$alloc..collections..btree..node..marker..LeafOrInternal$GT$$C$alloc..collections..btree..node..marker..KV$GT$$GT$14next_leaf_edge17h3e2b6208e4305ac3E:
	.cfi_startproc
	pushq	%rbp
	.cfi_def_cfa_offset 16
	.cfi_offset %rbp, -16
	movq	%rsp, %rbp
	.cfi_def_cfa_register %rbp
	subq	$304, %rsp
	movq	%rdi, %rax
	movq	(%rsi), %rcx
	movq	%rcx, -248(%rbp)
	movq	8(%rsi), %rcx
	movq	%rcx, -240(%rbp)
	movq	16(%rsi), %rcx
	movq	%rcx, -232(%rbp)
	movq	24(%rsi), %rcx
	movq	%rcx, -224(%rbp)
	leaq	-288(%rbp), %rcx
	movq	%rdi, -296(%rbp)
	movq	%rcx, %rdi
	leaq	-248(%rbp), %rsi
	movq	%rax, -304(%rbp)
	callq	__ZN5alloc11collections5btree4node151Handle$LT$alloc..collections..btree..node..NodeRef$LT$BorrowType$C$K$C$V$C$alloc..collections..btree..node..marker..LeafOrInternal$GT$$C$HandleType$GT$5force17had3711dfeaf4fe4eE
	movq	-288(%rbp), %rax
	testq	%rax, %rax
	je	LBB301_4
	jmp	LBB301_10
LBB301_10:
	movq	-280(%rbp), %rax
	movq	%rax, -152(%rbp)
	movq	-272(%rbp), %rax
	movq	%rax, -144(%rbp)
	movq	-264(%rbp), %rax
	movq	%rax, -136(%rbp)
	movq	-256(%rbp), %rax
	movq	%rax, -128(%rbp)
	movq	-152(%rbp), %rax
	movq	%rax, -88(%rbp)
	movq	-144(%rbp), %rax
	movq	%rax, -80(%rbp)
	movq	-136(%rbp), %rax
	movq	%rax, -72(%rbp)
	movq	-128(%rbp), %rax
	movq	%rax, -64(%rbp)
	leaq	-120(%rbp), %rdi
	leaq	-88(%rbp), %rsi
	callq	__ZN5alloc11collections5btree4node137Handle$LT$alloc..collections..btree..node..NodeRef$LT$BorrowType$C$K$C$V$C$NodeType$GT$$C$alloc..collections..btree..node..marker..KV$GT$10right_edge17hdb0ec8059b764c1aE
	jmp	LBB301_6
	ud2
LBB301_4:
	movq	-280(%rbp), %rax
	movq	%rax, -216(%rbp)
	movq	-272(%rbp), %rax
	movq	%rax, -208(%rbp)
	movq	-264(%rbp), %rax
	movq	%rax, -200(%rbp)
	movq	-256(%rbp), %rax
	movq	%rax, -192(%rbp)
	movq	-216(%rbp), %rax
	movq	%rax, -184(%rbp)
	movq	-208(%rbp), %rax
	movq	%rax, -176(%rbp)
	movq	-200(%rbp), %rax
	movq	%rax, -168(%rbp)
	movq	-192(%rbp), %rax
	movq	%rax, -160(%rbp)
	movq	-296(%rbp), %rdi
	leaq	-184(%rbp), %rsi
	callq	__ZN5alloc11collections5btree4node137Handle$LT$alloc..collections..btree..node..NodeRef$LT$BorrowType$C$K$C$V$C$NodeType$GT$$C$alloc..collections..btree..node..marker..KV$GT$10right_edge17h2f53738f12a0068aE
	jmp	LBB301_9
LBB301_6:
	movq	-120(%rbp), %rax
	movq	%rax, -32(%rbp)
	movq	-112(%rbp), %rax
	movq	%rax, -24(%rbp)
	movq	-104(%rbp), %rax
	movq	%rax, -16(%rbp)
	movq	-96(%rbp), %rax
	movq	%rax, -8(%rbp)
	leaq	-56(%rbp), %rdi
	leaq	-32(%rbp), %rsi
	callq	__ZN5alloc11collections5btree4node180Handle$LT$alloc..collections..btree..node..NodeRef$LT$BorrowType$C$K$C$V$C$alloc..collections..btree..node..marker..Internal$GT$$C$alloc..collections..btree..node..marker..Edge$GT$7descend17h326e6f03f6faa0a6E
	movq	-296(%rbp), %rdi
	leaq	-56(%rbp), %rsi
	callq	__ZN5alloc11collections5btree8navigate142_$LT$impl$u20$alloc..collections..btree..node..NodeRef$LT$BorrowType$C$K$C$V$C$alloc..collections..btree..node..marker..LeafOrInternal$GT$$GT$15first_leaf_edge17h97441dd6caef927cE
	jmp	LBB301_9
LBB301_9:
	movq	-304(%rbp), %rax
	addq	$304, %rsp
	popq	%rbp
	retq
	.cfi_endproc

	.p2align	4, 0x90
__ZN5alloc11collections5btree8navigate25next_kv_unchecked_dealloc17hc8880dd5630093d3E:
	.cfi_startproc
	pushq	%rbp
	.cfi_def_cfa_offset 16
	.cfi_offset %rbp, -16
	movq	%rsp, %rbp
	.cfi_def_cfa_register %rbp
	subq	$400, %rsp
	movq	%rdi, %rax
	movq	(%rsi), %rcx
	movq	%rcx, -352(%rbp)
	movq	8(%rsi), %rcx
	movq	%rcx, -344(%rbp)
	movq	16(%rsi), %rcx
	movq	%rcx, -336(%rbp)
	movq	24(%rsi), %rcx
	movq	%rcx, -328(%rbp)
	leaq	-384(%rbp), %rcx
	movq	%rdi, -392(%rbp)
	movq	%rcx, %rdi
	leaq	-352(%rbp), %rsi
	movq	%rax, -400(%rbp)
