	.section	__TEXT,__text,regular,pure_instructions
	.macosx_version_min 10, 7
	.p2align	4, 0x90
__ZN2cc5Build4file17h7066884a3fd42d12E:
Lfunc_begin0:
	.cfi_startproc
	.cfi_personality 155, _rust_eh_personality
	.cfi_lsda 16, Lexception0
	pushq	%rbp
	.cfi_def_cfa_offset 16
	.cfi_offset %rbp, -16
	movq	%rsp, %rbp
	.cfi_def_cfa_register %rbp
	subq	$96, %rsp
	movq	%rsi, -56(%rbp)
	movq	%rdx, -48(%rbp)
	movq	%rdi, %rax
	addq	$152, %rax
Ltmp0:
	leaq	-56(%rbp), %rcx
	movq	%rdi, -64(%rbp)
	movq	%rcx, %rdi
	movq	%rax, -72(%rbp)
	callq	__ZN55_$LT$$RF$T$u20$as$u20$core..convert..AsRef$LT$U$GT$$GT$6as_ref17h124db5b4f6fc2facE
Ltmp1:
	movq	%rdx, -80(%rbp)
	movq	%rax, -88(%rbp)
	jmp	LBB0_2
LBB0_1:
	movq	-16(%rbp), %rdi
	callq	__Unwind_Resume
	ud2
LBB0_2:
Ltmp2:
	leaq	-40(%rbp), %rdi
	movq	-88(%rbp), %rsi
	movq	-80(%rbp), %rdx
	callq	__ZN3std4path4Path11to_path_buf17h8add68ba99f659f3E
Ltmp3:
	jmp	LBB0_4
LBB0_3:
	jmp	LBB0_1
LBB0_4:
Ltmp4:
	leaq	-40(%rbp), %rsi
	movq	-72(%rbp), %rdi
	callq	__ZN5alloc3vec12Vec$LT$T$GT$4push17h075dba567f65f34aE
Ltmp5:
	jmp	LBB0_5
LBB0_5:
	jmp	LBB0_6
LBB0_6:
	movq	-64(%rbp), %rax
	addq	$96, %rsp
	popq	%rbp
	retq
LBB0_7:
Ltmp6:
	movq	%rax, -16(%rbp)
	movl	%edx, -8(%rbp)
	jmp	LBB0_3
Lfunc_end0:
	.cfi_endproc
	.section	__TEXT,__gcc_except_tab
	.p2align	2
GCC_except_table0:
Lexception0:
	.byte	255
	.byte	255
	.byte	1
	.uleb128 Lcst_end0-Lcst_begin0
Lcst_begin0:
	.uleb128 Ltmp0-Lfunc_begin0
	.uleb128 Ltmp1-Ltmp0
	.uleb128 Ltmp6-Lfunc_begin0
	.byte	0
	.uleb128 Ltmp1-Lfunc_begin0
	.uleb128 Ltmp2-Ltmp1
	.byte	0
	.byte	0
	.uleb128 Ltmp2-Lfunc_begin0
	.uleb128 Ltmp5-Ltmp2
	.uleb128 Ltmp6-Lfunc_begin0
	.byte	0
Lcst_end0:
	.p2align	2

	.section	__TEXT,__text,regular,pure_instructions
	.p2align	4, 0x90
__ZN2cc5Build7include17h16f18ccfbe5e315dE:
Lfunc_begin1:
	.cfi_startproc
	.cfi_personality 155, _rust_eh_personality
	.cfi_lsda 16, Lexception1
	pushq	%rbp
	.cfi_def_cfa_offset 16
	.cfi_offset %rbp, -16
	movq	%rsp, %rbp
	.cfi_def_cfa_register %rbp
	subq	$96, %rsp
	movq	%rsi, -56(%rbp)
	movq	%rdx, -48(%rbp)
	movq	%rdi, %rax
Ltmp7:
	leaq	-56(%rbp), %rcx
	movq	%rdi, -64(%rbp)
	movq	%rcx, %rdi
	movq	%rax, -72(%rbp)
	callq	__ZN55_$LT$$RF$T$u20$as$u20$core..convert..AsRef$LT$U$GT$$GT$6as_ref17h77c0003224f60af6E
Ltmp8:
	movq	%rdx, -80(%rbp)
	movq	%rax, -88(%rbp)
	jmp	LBB1_2
LBB1_1:
	movq	-16(%rbp), %rdi
	callq	__Unwind_Resume
	ud2
LBB1_2:
Ltmp9:
	leaq	-40(%rbp), %rdi
	movq	-88(%rbp), %rsi
	movq	-80(%rbp), %rdx
	callq	__ZN3std4path4Path11to_path_buf17h8add68ba99f659f3E
Ltmp10:
	jmp	LBB1_4
LBB1_3:
	jmp	LBB1_1
LBB1_4:
Ltmp11:
	leaq	-40(%rbp), %rsi
	movq	-72(%rbp), %rdi
	callq	__ZN5alloc3vec12Vec$LT$T$GT$4push17h075dba567f65f34aE
Ltmp12:
	jmp	LBB1_5
LBB1_5:
	jmp	LBB1_6
LBB1_6:
	movq	-64(%rbp), %rax
	addq	$96, %rsp
	popq	%rbp
	retq
LBB1_7:
Ltmp13:
	movq	%rax, -16(%rbp)
	movl	%edx, -8(%rbp)
	jmp	LBB1_3
Lfunc_end1:
	.cfi_endproc
	.section	__TEXT,__gcc_except_tab
	.p2align	2
GCC_except_table1:
Lexception1:
	.byte	255
	.byte	255
	.byte	1
	.uleb128 Lcst_end1-Lcst_begin1
Lcst_begin1:
	.uleb128 Ltmp7-Lfunc_begin1
	.uleb128 Ltmp8-Ltmp7
	.uleb128 Ltmp13-Lfunc_begin1
	.byte	0
	.uleb128 Ltmp8-Lfunc_begin1
	.uleb128 Ltmp9-Ltmp8
	.byte	0
	.byte	0
	.uleb128 Ltmp9-Lfunc_begin1
	.uleb128 Ltmp12-Ltmp9
	.uleb128 Ltmp13-Lfunc_begin1
	.byte	0
Lcst_end1:
	.p2align	2

	.section	__TEXT,__text,regular,pure_instructions
	.private_extern	__ZN3std2rt10lang_start17h0571307d7e50f767E
	.globl	__ZN3std2rt10lang_start17h0571307d7e50f767E
	.p2align	4, 0x90
__ZN3std2rt10lang_start17h0571307d7e50f767E:
	.cfi_startproc
	pushq	%rbp
	.cfi_def_cfa_offset 16
	.cfi_offset %rbp, -16
	movq	%rsp, %rbp
	.cfi_def_cfa_register %rbp
	subq	$32, %rsp
	leaq	l___unnamed_1(%rip), %rax
	movq	%rdi, -8(%rbp)
	leaq	-8(%rbp), %rcx
	movq	%rcx, %rdi
	movq	%rsi, -16(%rbp)
	movq	%rax, %rsi
	movq	-16(%rbp), %rax
	movq	%rdx, -24(%rbp)
	movq	%rax, %rdx
	movq	-24(%rbp), %rcx
	callq	__ZN3std2rt19lang_start_internal17hbbd10965adc92ae7E
	movq	%rax, -32(%rbp)
	movq	-32(%rbp), %rax
	addq	$32, %rsp
	popq	%rbp
	retq
	.cfi_endproc

	.p2align	4, 0x90
__ZN3std2rt10lang_start28_$u7b$$u7b$closure$u7d$$u7d$17h389b5c0de88472f3E:
	.cfi_startproc
	pushq	%rbp
	.cfi_def_cfa_offset 16
	.cfi_offset %rbp, -16
	movq	%rsp, %rbp
	.cfi_def_cfa_register %rbp
	subq	$16, %rsp
	callq	*(%rdi)
	callq	__ZN54_$LT$$LP$$RP$$u20$as$u20$std..process..Termination$GT$6report17h76633b12d7da8f77E
	movl	%eax, -4(%rbp)
	movl	-4(%rbp), %eax
	addq	$16, %rsp
	popq	%rbp
	retq
	.cfi_endproc

	.p2align	4, 0x90
__ZN3std3sys4unix7process14process_common8ExitCode6as_i3217h08ab41c3c996824dE:
	.cfi_startproc
	pushq	%rbp
	.cfi_def_cfa_offset 16
	.cfi_offset %rbp, -16
	movq	%rsp, %rbp
	.cfi_def_cfa_register %rbp
	movzbl	(%rdi), %eax
	popq	%rbp
	retq
	.cfi_endproc

	.p2align	4, 0x90
__ZN4core3ops8function6FnOnce40call_once$u7b$$u7b$vtable.shim$u7d$$u7d$17h9fc4d90832fff646E:
	.cfi_startproc
	pushq	%rbp
	.cfi_def_cfa_offset 16
	.cfi_offset %rbp, -16
	movq	%rsp, %rbp
	.cfi_def_cfa_register %rbp
	subq	$16, %rsp
	movq	(%rdi), %rdi
	callq	__ZN4core3ops8function6FnOnce9call_once17hbd830e1c1f4f4a4eE
	movl	%eax, -12(%rbp)
	movl	-12(%rbp), %eax
	addq	$16, %rsp
	popq	%rbp
	retq
	.cfi_endproc

	.p2align	4, 0x90
__ZN4core3ops8function6FnOnce9call_once17hbd830e1c1f4f4a4eE:
Lfunc_begin2:
	.cfi_startproc
	.cfi_personality 155, _rust_eh_personality
	.cfi_lsda 16, Lexception2
	pushq	%rbp
	.cfi_def_cfa_offset 16
	.cfi_offset %rbp, -16
	movq	%rsp, %rbp
	.cfi_def_cfa_register %rbp
	subq	$48, %rsp
	movq	%rdi, -32(%rbp)
Ltmp14:
	leaq	-32(%rbp), %rdi
	callq	__ZN3std2rt10lang_start28_$u7b$$u7b$closure$u7d$$u7d$17h389b5c0de88472f3E
Ltmp15:
	movl	%eax, -36(%rbp)
	jmp	LBB6_1
LBB6_1:
	jmp	LBB6_2
LBB6_2:
	movl	-36(%rbp), %eax
	addq	$48, %rsp
	popq	%rbp
	retq
LBB6_3:
	jmp	LBB6_4
LBB6_4:
	movq	-16(%rbp), %rdi
	callq	__Unwind_Resume
	ud2
LBB6_5:
Ltmp16:
	movq	%rax, -16(%rbp)
	movl	%edx, -8(%rbp)
	jmp	LBB6_3
Lfunc_end2:
	.cfi_endproc
	.section	__TEXT,__gcc_except_tab
	.p2align	2
GCC_except_table6:
Lexception2:
	.byte	255
	.byte	255
	.byte	1
	.uleb128 Lcst_end2-Lcst_begin2
Lcst_begin2:
	.uleb128 Ltmp14-Lfunc_begin2
	.uleb128 Ltmp15-Ltmp14
	.uleb128 Ltmp16-Lfunc_begin2
	.byte	0
	.uleb128 Ltmp15-Lfunc_begin2
	.uleb128 Lfunc_end2-Ltmp15
	.byte	0
	.byte	0
Lcst_end2:
	.p2align	2

	.section	__TEXT,__text,regular,pure_instructions
	.p2align	4, 0x90
__ZN4core3ptr13drop_in_place17h511e5dce9f2899c3E:
	.cfi_startproc
	pushq	%rbp
	.cfi_def_cfa_offset 16
	.cfi_offset %rbp, -16
	movq	%rsp, %rbp
	.cfi_def_cfa_register %rbp
	pushq	%rax
	addq	$8, %rsp
	popq	%rbp
	retq
	.cfi_endproc

	.p2align	4, 0x90
__ZN54_$LT$$LP$$RP$$u20$as$u20$std..process..Termination$GT$6report17h76633b12d7da8f77E:
	.cfi_startproc
	pushq	%rbp
	.cfi_def_cfa_offset 16
	.cfi_offset %rbp, -16
	movq	%rsp, %rbp
	.cfi_def_cfa_register %rbp
	subq	$16, %rsp
	xorl	%edi, %edi
	callq	__ZN68_$LT$std..process..ExitCode$u20$as$u20$std..process..Termination$GT$6report17h49482f87216c6c85E
	movl	%eax, -4(%rbp)
	movl	-4(%rbp), %eax
	addq	$16, %rsp
	popq	%rbp
	retq
	.cfi_endproc

	.p2align	4, 0x90
__ZN5alloc3vec12Vec$LT$T$GT$4push17h075dba567f65f34aE:
Lfunc_begin3:
	.cfi_startproc
	.cfi_personality 155, _rust_eh_personality
	.cfi_lsda 16, Lexception3
	pushq	%rbp
	.cfi_def_cfa_offset 16
	.cfi_offset %rbp, -16
	movq	%rsp, %rbp
	.cfi_def_cfa_register %rbp
	subq	$128, %rsp
	movb	$0, -33(%rbp)
	movb	$1, -33(%rbp)
	movq	16(%rdi), %rax
	movq	%rdi, %rcx
	movq	$24, -8(%rbp)
	cmpq	$0, -8(%rbp)
	movq	%rdi, -72(%rbp)
	movq	%rsi, -80(%rbp)
	movq	%rax, -88(%rbp)
	movq	%rcx, -96(%rbp)
	je	LBB9_2
	movq	-96(%rbp), %rax
	movq	8(%rax), %rcx
	movq	%rcx, -16(%rbp)
	jmp	LBB9_3
LBB9_2:
	movq	$-1, -16(%rbp)
LBB9_3:
	movq	-16(%rbp), %rax
	movq	%rax, -104(%rbp)
	jmp	LBB9_5
LBB9_4:
	movq	-32(%rbp), %rdi
	callq	__Unwind_Resume
	ud2
LBB9_5:
	movq	-88(%rbp), %rax
	movq	-104(%rbp), %rcx
	cmpq	%rcx, %rax
	je	LBB9_7
	jmp	LBB9_9
LBB9_7:
Ltmp17:
	movl	$1, %esi
	movq	-72(%rbp), %rdi
	callq	__ZN5alloc3vec12Vec$LT$T$GT$7reserve17h8dcc8f07e5c19455E
Ltmp18:
	jmp	LBB9_8
LBB9_8:
	jmp	LBB9_9
LBB9_9:
Ltmp19:
	movq	-72(%rbp), %rdi
	callq	__ZN5alloc3vec12Vec$LT$T$GT$10as_mut_ptr17hb379ed9549beb863E
Ltmp20:
	movq	%rax, -112(%rbp)
	jmp	LBB9_10
LBB9_10:
	movq	-72(%rbp), %rax
	movq	16(%rax), %rsi
Ltmp21:
	movq	-112(%rbp), %rdi
	callq	__ZN4core3ptr7mut_ptr31_$LT$impl$u20$$BP$mut$u20$T$GT$3add17h36ae5171fb788a93E
Ltmp22:
	movq	%rax, -120(%rbp)
	jmp	LBB9_11
LBB9_11:
	movb	$0, -33(%rbp)
	movq	-80(%rbp), %rax
	movq	16(%rax), %rcx
	movq	%rcx, -48(%rbp)
	movq	(%rax), %rcx
	movq	8(%rax), %rdx
	movq	%rdx, -56(%rbp)
	movq	%rcx, -64(%rbp)
Ltmp23:
	leaq	-64(%rbp), %rsi
	movq	-120(%rbp), %rdi
	callq	__ZN4core3ptr5write17h474ac78db63e0e2aE
Ltmp24:
	jmp	LBB9_12
LBB9_12:
	movq	-72(%rbp), %rax
	movq	16(%rax), %rcx
	addq	$1, %rcx
	movq	%rcx, 16(%rax)
	addq	$128, %rsp
	popq	%rbp
	retq
LBB9_13:
	movb	$0, -33(%rbp)
	movq	-80(%rbp), %rdi
	callq	__ZN4core3ptr13drop_in_place17h1c5816c451dc6731E
	jmp	LBB9_4
LBB9_14:
	testb	$1, -33(%rbp)
	jne	LBB9_13
	jmp	LBB9_4
LBB9_15:
Ltmp25:
	movq	%rax, -32(%rbp)
	movl	%edx, -24(%rbp)
	jmp	LBB9_14
Lfunc_end3:
	.cfi_endproc
	.section	__TEXT,__gcc_except_tab
	.p2align	2
GCC_except_table9:
Lexception3:
	.byte	255
	.byte	255
	.byte	1
	.uleb128 Lcst_end3-Lcst_begin3
Lcst_begin3:
	.uleb128 Lfunc_begin3-Lfunc_begin3
	.uleb128 Ltmp17-Lfunc_begin3
	.byte	0
	.byte	0
	.uleb128 Ltmp17-Lfunc_begin3
	.uleb128 Ltmp24-Ltmp17
	.uleb128 Ltmp25-Lfunc_begin3
	.byte	0
	.uleb128 Ltmp24-Lfunc_begin3
	.uleb128 Lfunc_end3-Ltmp24
	.byte	0
	.byte	0
Lcst_end3:
	.p2align	2

	.section	__TEXT,__text,regular,pure_instructions
	.p2align	4, 0x90
__ZN68_$LT$std..process..ExitCode$u20$as$u20$std..process..Termination$GT$6report17h49482f87216c6c85E:
	.cfi_startproc
	pushq	%rbp
	.cfi_def_cfa_offset 16
	.cfi_offset %rbp, -16
	movq	%rsp, %rbp
	.cfi_def_cfa_register %rbp
	subq	$16, %rsp
	movb	%dil, -1(%rbp)
	leaq	-1(%rbp), %rdi
	callq	__ZN3std3sys4unix7process14process_common8ExitCode6as_i3217h08ab41c3c996824dE
	movl	%eax, -8(%rbp)
	movl	-8(%rbp), %eax
	addq	$16, %rsp
	popq	%rbp
	retq
	.cfi_endproc

	.p2align	4, 0x90
__ZN18build_script_build4main17hb2b045e2b1fa7db2E:
Lfunc_begin4:
	.cfi_startproc
	.cfi_personality 155, _rust_eh_personality
	.cfi_lsda 16, Lexception4
	pushq	%rbp
	.cfi_def_cfa_offset 16
	.cfi_offset %rbp, -16
	movq	%rsp, %rbp
	.cfi_def_cfa_register %rbp
	subq	$480, %rsp
	leaq	l___unnamed_2(%rip), %rax
	movq	%rax, %rdi
	movl	$61, %esi
	callq	__ZN3std4path4Path3new17h1ec1e9f6e121bb18E
	movq	%rax, -448(%rbp)
	movq	%rdx, -456(%rbp)
	jmp	LBB11_2
LBB11_1:
	movq	-16(%rbp), %rdi
	callq	__Unwind_Resume
	ud2
LBB11_2:
	leaq	-440(%rbp), %rdi
	callq	__ZN2cc5Build3new17h21e2144fdafa28e3E
Ltmp26:
	leaq	l___unnamed_3(%rip), %rsi
	leaq	-440(%rbp), %rdi
	movl	$10, %edx
	callq	__ZN2cc5Build4file17h7066884a3fd42d12E
Ltmp27:
	movq	%rax, -464(%rbp)
	jmp	LBB11_4
LBB11_4:
Ltmp28:
	movq	-464(%rbp), %rdi
	movq	-448(%rbp), %rsi
	movq	-456(%rbp), %rdx
	callq	__ZN2cc5Build7include17h16f18ccfbe5e315dE
Ltmp29:
	movq	%rax, -472(%rbp)
	jmp	LBB11_6
LBB11_5:
	leaq	-440(%rbp), %rdi
	callq	__ZN4core3ptr13drop_in_place17h4e930f1401946d98E
	jmp	LBB11_1
LBB11_6:
Ltmp30:
	leaq	L___unnamed_4(%rip), %rsi
	movl	$8, %edx
	movq	-472(%rbp), %rdi
	callq	__ZN2cc5Build7compile17h6aeadc3fe65caf50E
Ltmp31:
	jmp	LBB11_7
LBB11_7:
	leaq	-440(%rbp), %rdi
	callq	__ZN4core3ptr13drop_in_place17h4e930f1401946d98E
	addq	$480, %rsp
	popq	%rbp
	retq
LBB11_9:
Ltmp32:
	movq	%rax, -16(%rbp)
	movl	%edx, -8(%rbp)
	jmp	LBB11_5
Lfunc_end4:
	.cfi_endproc
	.section	__TEXT,__gcc_except_tab
	.p2align	2
GCC_except_table11:
Lexception4:
	.byte	255
	.byte	255
	.byte	1
	.uleb128 Lcst_end4-Lcst_begin4
Lcst_begin4:
	.uleb128 Lfunc_begin4-Lfunc_begin4
	.uleb128 Ltmp26-Lfunc_begin4
	.byte	0
	.byte	0
	.uleb128 Ltmp26-Lfunc_begin4
	.uleb128 Ltmp29-Ltmp26
	.uleb128 Ltmp32-Lfunc_begin4
	.byte	0
	.uleb128 Ltmp29-Lfunc_begin4
	.uleb128 Ltmp30-Ltmp29
	.byte	0
	.byte	0
	.uleb128 Ltmp30-Lfunc_begin4
	.uleb128 Ltmp31-Ltmp30
	.uleb128 Ltmp32-Lfunc_begin4
	.byte	0
	.uleb128 Ltmp31-Lfunc_begin4
	.uleb128 Lfunc_end4-Ltmp31
	.byte	0
	.byte	0
Lcst_end4:
	.p2align	2

	.section	__TEXT,__text,regular,pure_instructions
	.globl	_main
	.p2align	4, 0x90
_main:
	.cfi_startproc
	pushq	%rbp
	.cfi_def_cfa_offset 16
	.cfi_offset %rbp, -16
	movq	%rsp, %rbp
	.cfi_def_cfa_register %rbp
	subq	$16, %rsp
	movslq	%edi, %rax
	leaq	__ZN18build_script_build4main17hb2b045e2b1fa7db2E(%rip), %rdi
	movq	%rsi, -8(%rbp)
	movq	%rax, %rsi
	movq	-8(%rbp), %rdx
	callq	__ZN3std2rt10lang_start17h0571307d7e50f767E
	addq	$16, %rsp
	popq	%rbp
	retq
	.cfi_endproc

	.section	__DATA,__const
	.p2align	3
l___unnamed_1:
	.quad	__ZN4core3ptr13drop_in_place17h511e5dce9f2899c3E
	.quad	8
	.quad	8
	.quad	__ZN3std2rt10lang_start28_$u7b$$u7b$closure$u7d$$u7d$17h389b5c0de88472f3E
	.quad	__ZN3std2rt10lang_start28_$u7b$$u7b$closure$u7d$$u7d$17h389b5c0de88472f3E
	.quad	__ZN4core3ops8function6FnOnce40call_once$u7b$$u7b$vtable.shim$u7d$$u7d$17h9fc4d90832fff646E

	.section	__TEXT,__const
l___unnamed_2:
	.ascii	"/opt/intel/compilers_and_libraries_2020.1.216/mac/mkl/include"

l___unnamed_3:
	.ascii	"src/main.c"

	.section	__TEXT,__literal8,8byte_literals
L___unnamed_4:
	.ascii	"MKL-Rust"

.subsections_via_symbols
