	.section	__TEXT,__text,regular,pure_instructions
	.macosx_version_min 10, 7
	.p2align	4, 0x90
__ZN100_$LT$alloc..string..String$u20$as$u20$core..ops..index..Index$LT$core..ops..range..RangeFull$GT$$GT$5index17h923890ed8435a04eE:
	.cfi_startproc
	pushq	%rbp
	.cfi_def_cfa_offset 16
	.cfi_offset %rbp, -16
	movq	%rsp, %rbp
	.cfi_def_cfa_register %rbp
	subq	$48, %rsp
	movq	%rsi, -8(%rbp)
	callq	__ZN68_$LT$alloc..vec..Vec$LT$T$GT$$u20$as$u20$core..ops..deref..Deref$GT$5deref17h4b4f949b913163caE
	movq	%rax, -16(%rbp)
	movq	%rdx, -24(%rbp)
	movq	-16(%rbp), %rdi
	movq	-24(%rbp), %rsi
	callq	__ZN4core3str19from_utf8_unchecked17h5badb7d3502590c2E
	movq	%rax, -32(%rbp)
	movq	%rdx, -40(%rbp)
	movq	-32(%rbp), %rax
	movq	-40(%rbp), %rdx
	addq	$48, %rsp
	popq	%rbp
	retq
	.cfi_endproc

	.p2align	4, 0x90
__ZN101_$LT$core..ops..range..RangeTo$LT$usize$GT$$u20$as$u20$core..slice..SliceIndex$LT$$u5b$T$u5d$$GT$$GT$5index17h983c53e5a370367aE:
	.cfi_startproc
	pushq	%rbp
	.cfi_def_cfa_offset 16
	.cfi_offset %rbp, -16
	movq	%rsp, %rbp
	.cfi_def_cfa_register %rbp
	subq	$64, %rsp
	movq	$0, -16(%rbp)
	movq	%rdi, -8(%rbp)
	movq	-16(%rbp), %rdi
	movq	-8(%rbp), %rax
	movq	%rsi, -24(%rbp)
	movq	%rax, %rsi
	movq	-24(%rbp), %rax
	movq	%rdx, -32(%rbp)
	movq	%rax, %rdx
	movq	-32(%rbp), %r8
	movq	%rcx, -40(%rbp)
	movq	%r8, %rcx
	movq	-40(%rbp), %r8
	callq	__ZN99_$LT$core..ops..range..Range$LT$usize$GT$$u20$as$u20$core..slice..SliceIndex$LT$$u5b$T$u5d$$GT$$GT$5index17h681f4dcf56ea21feE
	movq	%rax, -48(%rbp)
	movq	%rdx, -56(%rbp)
	movq	-48(%rbp), %rax
	movq	-56(%rbp), %rdx
	addq	$64, %rsp
	popq	%rbp
	retq
	.cfi_endproc

	.p2align	4, 0x90
__ZN101_$LT$core..ops..range..RangeTo$LT$usize$GT$$u20$as$u20$core..slice..SliceIndex$LT$$u5b$T$u5d$$GT$$GT$9index_mut17h238ff251fea55543E:
	.cfi_startproc
	pushq	%rbp
	.cfi_def_cfa_offset 16
	.cfi_offset %rbp, -16
	movq	%rsp, %rbp
	.cfi_def_cfa_register %rbp
	subq	$64, %rsp
	movq	$0, -16(%rbp)
	movq	%rdi, -8(%rbp)
	movq	-16(%rbp), %rdi
	movq	-8(%rbp), %rax
	movq	%rsi, -24(%rbp)
	movq	%rax, %rsi
	movq	-24(%rbp), %rax
	movq	%rdx, -32(%rbp)
	movq	%rax, %rdx
	movq	-32(%rbp), %r8
	movq	%rcx, -40(%rbp)
	movq	%r8, %rcx
	movq	-40(%rbp), %r8
	callq	__ZN99_$LT$core..ops..range..Range$LT$usize$GT$$u20$as$u20$core..slice..SliceIndex$LT$$u5b$T$u5d$$GT$$GT$9index_mut17h7936efb0525ebed9E
	movq	%rax, -48(%rbp)
	movq	%rdx, -56(%rbp)
	movq	-48(%rbp), %rax
	movq	-56(%rbp), %rdx
	addq	$64, %rsp
	popq	%rbp
	retq
	.cfi_endproc

	.p2align	4, 0x90
__ZN105_$LT$std..ffi..os_str..OsString$u20$as$u20$core..ops..index..Index$LT$core..ops..range..RangeFull$GT$$GT$5index17he211c98416422761E:
	.cfi_startproc
	pushq	%rbp
	.cfi_def_cfa_offset 16
	.cfi_offset %rbp, -16
	movq	%rsp, %rbp
	.cfi_def_cfa_register %rbp
	subq	$48, %rsp
	movq	%rsi, -8(%rbp)
	callq	__ZN3std10sys_common12os_str_bytes3Buf8as_slice17ha72a5722da7315fbE
	movq	%rax, -16(%rbp)
	movq	%rdx, -24(%rbp)
	movq	-16(%rbp), %rdi
	movq	-24(%rbp), %rsi
	callq	__ZN3std3ffi6os_str5OsStr10from_inner17h5d6996142f484fb4E
	movq	%rax, -32(%rbp)
	movq	%rdx, -40(%rbp)
	movq	-32(%rbp), %rax
	movq	-40(%rbp), %rdx
	addq	$48, %rsp
	popq	%rbp
	retq
	.cfi_endproc

	.p2align	4, 0x90
__ZN112_$LT$alloc..collections..btree..map..IntoIter$LT$K$C$V$GT$$u20$as$u20$core..iter..traits..iterator..Iterator$GT$4next17h52e2edc965cf303cE:
	.cfi_startproc
	pushq	%rbp
	.cfi_def_cfa_offset 16
	.cfi_offset %rbp, -16
	movq	%rsp, %rbp
	.cfi_def_cfa_register %rbp
	subq	$96, %rsp
	movq	%rdi, %rax
	cmpq	$0, 64(%rsi)
	movq	%rsi, -56(%rbp)
	movq	%rdi, -64(%rbp)
	movq	%rax, -72(%rbp)
	je	LBB4_2
	movq	-56(%rbp), %rax
	movq	64(%rax), %rcx
	subq	$1, %rcx
	movq	%rcx, 64(%rax)
	movq	%rax, %rdi
	callq	__ZN4core6option15Option$LT$T$GT$6as_mut17hf76829fd09c3ac21E
	movq	%rax, -80(%rbp)
	jmp	LBB4_3
LBB4_2:
	movq	-64(%rbp), %rax
	movq	$0, (%rax)
	jmp	LBB4_6
LBB4_3:
	leaq	l___unnamed_1(%rip), %rax
	movq	-80(%rbp), %rdi
	movq	%rax, %rsi
	callq	__ZN4core6option15Option$LT$T$GT$6unwrap17h87491ba47c80ac93E
	movq	%rax, -88(%rbp)
	leaq	-48(%rbp), %rdi
	movq	-88(%rbp), %rsi
	callq	__ZN5alloc11collections5btree8navigate263_$LT$impl$u20$alloc..collections..btree..node..Handle$LT$alloc..collections..btree..node..NodeRef$LT$alloc..collections..btree..node..marker..Owned$C$K$C$V$C$alloc..collections..btree..node..marker..Leaf$GT$$C$alloc..collections..btree..node..marker..Edge$GT$$GT$14next_unchecked17h382493e1444fe98dE
	movq	-64(%rbp), %rax
	leaq	-48(%rbp), %rcx
	movq	%rax, %rdi
	movq	%rcx, %rsi
	movl	$48, %edx
	callq	_memcpy
LBB4_6:
	movq	-72(%rbp), %rax
	addq	$96, %rsp
	popq	%rbp
	retq
	.cfi_endproc

	.p2align	4, 0x90
__ZN115_$LT$alloc..collections..btree..map..BTreeMap$LT$K$C$V$GT$$u20$as$u20$core..iter..traits..collect..IntoIterator$GT$9into_iter17h92faaf5969bd95a9E:
	.cfi_startproc
	pushq	%rbp
	.cfi_def_cfa_offset 16
	.cfi_offset %rbp, -16
	movq	%rsp, %rbp
	.cfi_def_cfa_register %rbp
	subq	$464, %rsp
	movq	%rdi, %rax
	movq	(%rsi), %rcx
	movq	%rcx, -408(%rbp)
	movq	8(%rsi), %rcx
	movq	%rcx, -400(%rbp)
	movq	16(%rsi), %rcx
	movq	%rcx, -392(%rbp)
	movq	-408(%rbp), %rcx
	movq	%rcx, -24(%rbp)
	movq	-400(%rbp), %rcx
	movq	%rcx, -16(%rbp)
	movq	-392(%rbp), %rcx
	movq	%rcx, -8(%rbp)
	movq	-24(%rbp), %rcx
	movq	%rcx, -432(%rbp)
	movq	-16(%rbp), %rcx
	movq	%rcx, -424(%rbp)
	movq	-8(%rbp), %rcx
	movq	%rcx, -416(%rbp)
	movq	%rdi, -440(%rbp)
	movq	%rax, -448(%rbp)
	leaq	-432(%rbp), %rax
	movq	%rax, -456(%rbp)
	movq	-456(%rbp), %rdi
	callq	__ZN4core6option15Option$LT$T$GT$4take17h305d69ddbea9cacfE
	movq	%rdx, -376(%rbp)
	movq	%rax, -384(%rbp)
	xorl	%eax, %eax
	movl	%eax, %ecx
	cmpq	$0, -384(%rbp)
	movl	$1, %edx
	cmovbeq	%rcx, %rdx
	cmpq	$1, %rdx
	je	LBB5_5
	movq	$0, -80(%rbp)
	movq	$0, -48(%rbp)
	movq	-88(%rbp), %rax
	movq	-440(%rbp), %rcx
	movq	%rax, (%rcx)
	movq	-80(%rbp), %rax
	movq	%rax, 8(%rcx)
	movq	-72(%rbp), %rax
	movq	%rax, 16(%rcx)
	movq	-64(%rbp), %rax
	movq	%rax, 24(%rcx)
	movq	-56(%rbp), %rax
	movq	%rax, 32(%rcx)
	movq	-48(%rbp), %rax
	movq	%rax, 40(%rcx)
	movq	-40(%rbp), %rax
	movq	%rax, 48(%rcx)
	movq	-32(%rbp), %rax
	movq	%rax, 56(%rcx)
	movq	$0, 64(%rcx)
	jmp	LBB5_9
LBB5_5:
	movq	-384(%rbp), %rsi
	movq	-376(%rbp), %rdx
	leaq	-240(%rbp), %rdi
	callq	__ZN5alloc11collections5btree4node17Root$LT$K$C$V$GT$8into_ref17h015cab45b9e8f9cdE
	leaq	-304(%rbp), %rdi
	leaq	-240(%rbp), %rsi
	callq	__ZN5alloc11collections5btree3map17full_range_search17h802c3abc7e8a9ad4E
	movq	-304(%rbp), %rax
	movq	%rax, -368(%rbp)
	movq	-296(%rbp), %rax
	movq	%rax, -360(%rbp)
	movq	-288(%rbp), %rax
	movq	%rax, -352(%rbp)
	movq	-280(%rbp), %rax
	movq	%rax, -344(%rbp)
	movq	-272(%rbp), %rax
	movq	%rax, -336(%rbp)
	movq	-264(%rbp), %rax
	movq	%rax, -328(%rbp)
	movq	-256(%rbp), %rax
	movq	%rax, -320(%rbp)
	movq	-248(%rbp), %rax
	movq	%rax, -312(%rbp)
	movq	-368(%rbp), %rax
	movq	%rax, -184(%rbp)
	movq	-360(%rbp), %rax
	movq	%rax, -176(%rbp)
	movq	-352(%rbp), %rax
	movq	%rax, -168(%rbp)
	movq	-344(%rbp), %rax
	movq	%rax, -160(%rbp)
	movq	-184(%rbp), %rax
	movq	%rax, -216(%rbp)
	movq	-176(%rbp), %rax
	movq	%rax, -208(%rbp)
	movq	-168(%rbp), %rax
	movq	%rax, -200(%rbp)
	movq	-160(%rbp), %rax
	movq	%rax, -192(%rbp)
	movq	-336(%rbp), %rax
	movq	%rax, -120(%rbp)
	movq	-328(%rbp), %rax
	movq	%rax, -112(%rbp)
	movq	-320(%rbp), %rax
	movq	%rax, -104(%rbp)
	movq	-312(%rbp), %rax
	movq	%rax, -96(%rbp)
	movq	-120(%rbp), %rax
	movq	%rax, -152(%rbp)
	movq	-112(%rbp), %rax
	movq	%rax, -144(%rbp)
	movq	-104(%rbp), %rax
	movq	%rax, -136(%rbp)
	movq	-96(%rbp), %rax
	movq	%rax, -128(%rbp)
	leaq	-432(%rbp), %rax
	movq	%rax, -464(%rbp)
	movq	-464(%rbp), %rax
	movq	16(%rax), %rcx
	movq	-216(%rbp), %rdx
	movq	-440(%rbp), %rsi
	movq	%rdx, (%rsi)
	movq	-208(%rbp), %rdx
	movq	%rdx, 8(%rsi)
	movq	-200(%rbp), %rdx
	movq	%rdx, 16(%rsi)
	movq	-192(%rbp), %rdx
	movq	%rdx, 24(%rsi)
	movq	-152(%rbp), %rdx
	movq	%rdx, 32(%rsi)
	movq	-144(%rbp), %rdx
	movq	%rdx, 40(%rsi)
	movq	-136(%rbp), %rdx
	movq	%rdx, 48(%rsi)
	movq	-128(%rbp), %rdx
	movq	%rdx, 56(%rsi)
	movq	%rcx, 64(%rsi)
LBB5_9:
	movq	-448(%rbp), %rax
	addq	$464, %rsp
	popq	%rbp
	retq
	.cfi_endproc

	.p2align	4, 0x90
__ZN119_$LT$core..ptr..non_null..NonNull$LT$T$GT$$u20$as$u20$core..convert..From$LT$core..ptr..unique..Unique$LT$T$GT$$GT$$GT$4from17h539be354ec24094bE:
	.cfi_startproc
	pushq	%rbp
	.cfi_def_cfa_offset 16
	.cfi_offset %rbp, -16
	movq	%rsp, %rbp
	.cfi_def_cfa_register %rbp
	subq	$16, %rsp
	callq	__ZN4core3ptr6unique15Unique$LT$T$GT$6as_ptr17he6e0d97b2f10cf31E
	movq	%rax, -8(%rbp)
	movq	-8(%rbp), %rdi
	callq	__ZN4core3ptr8non_null16NonNull$LT$T$GT$13new_unchecked17h7608f3e751e16143E
	movq	%rax, -16(%rbp)
	movq	-16(%rbp), %rax
	addq	$16, %rsp
	popq	%rbp
	retq
	.cfi_endproc

	.p2align	4, 0x90
__ZN119_$LT$core..ptr..non_null..NonNull$LT$T$GT$$u20$as$u20$core..convert..From$LT$core..ptr..unique..Unique$LT$T$GT$$GT$$GT$4from17hb0b6be8a8dbca6d7E:
	.cfi_startproc
	pushq	%rbp
	.cfi_def_cfa_offset 16
	.cfi_offset %rbp, -16
	movq	%rsp, %rbp
	.cfi_def_cfa_register %rbp
	subq	$16, %rsp
	callq	__ZN4core3ptr6unique15Unique$LT$T$GT$6as_ptr17h661c98e04a175f8fE
	movq	%rax, -8(%rbp)
	movq	-8(%rbp), %rdi
	callq	__ZN4core3ptr8non_null16NonNull$LT$T$GT$13new_unchecked17h57b70d57d64ebb5eE
	movq	%rax, -16(%rbp)
	movq	-16(%rbp), %rax
	addq	$16, %rsp
	popq	%rbp
	retq
	.cfi_endproc

	.p2align	4, 0x90
__ZN166_$LT$$LT$alloc..collections..btree..map..IntoIter$LT$K$C$V$GT$$u20$as$u20$core..ops..drop..Drop$GT$..drop..DropGuard$LT$K$C$V$GT$$u20$as$u20$core..ops..drop..Drop$GT$4drop17h82287e38585f84aeE:
	.cfi_startproc
	pushq	%rbp
	.cfi_def_cfa_offset 16
	.cfi_offset %rbp, -16
	movq	%rsp, %rbp
	.cfi_def_cfa_register %rbp
	subq	$368, %rsp
	movq	%rdi, -368(%rbp)
LBB8_1:
	movq	-368(%rbp), %rax
	movq	(%rax), %rsi
	leaq	-360(%rbp), %rdi
	callq	__ZN112_$LT$alloc..collections..btree..map..IntoIter$LT$K$C$V$GT$$u20$as$u20$core..iter..traits..iterator..Iterator$GT$4next17h52e2edc965cf303cE
	xorl	%eax, %eax
	movl	%eax, %ecx
	cmpq	$0, -360(%rbp)
	movl	$1, %edx
	cmovbeq	%rcx, %rdx
	cmpq	$1, %rdx
	je	LBB8_4
	leaq	-360(%rbp), %rdi
	callq	__ZN4core3ptr13drop_in_place17h7f94e954c254134fE
	jmp	LBB8_5
LBB8_4:
	leaq	-360(%rbp), %rdi
	callq	__ZN4core3ptr13drop_in_place17h7f94e954c254134fE
	jmp	LBB8_6
LBB8_5:
	movq	-368(%rbp), %rax
	movq	(%rax), %rcx
	leaq	-232(%rbp), %rdi
	movq	%rcx, %rsi
	callq	__ZN4core3ptr4read17hc878f386bfb2bc65E
	jmp	LBB8_7
LBB8_6:
	jmp	LBB8_1
LBB8_7:
	movq	-232(%rbp), %rax
	movq	%rax, -32(%rbp)
	movq	-224(%rbp), %rax
	movq	%rax, -24(%rbp)
	movq	-216(%rbp), %rax
	movq	%rax, -16(%rbp)
	movq	-208(%rbp), %rax
	movq	%rax, -8(%rbp)
	leaq	-264(%rbp), %rdi
	leaq	-32(%rbp), %rsi
	callq	__ZN4core6option15Option$LT$T$GT$14unwrap_or_else17h06767a5745ea42b4E
	leaq	-288(%rbp), %rdi
	leaq	-264(%rbp), %rsi
	callq	__ZN5alloc11collections5btree4node25Handle$LT$Node$C$Type$GT$9into_node17h7ca9c5c9a2577623E
	leaq	-312(%rbp), %rdi
	leaq	-288(%rbp), %rsi
	callq	__ZN5alloc11collections5btree4node40NodeRef$LT$BorrowType$C$K$C$V$C$Type$GT$11forget_type17ha05a5805da5ea53cE
	jmp	LBB8_11
LBB8_11:
	movq	-312(%rbp), %rax
	movq	%rax, -168(%rbp)
	movq	-304(%rbp), %rax
	movq	%rax, -160(%rbp)
	movq	-296(%rbp), %rax
	movq	%rax, -152(%rbp)
	leaq	-200(%rbp), %rdi
	leaq	-168(%rbp), %rsi
	callq	__ZN5alloc11collections5btree4node127NodeRef$LT$alloc..collections..btree..node..marker..Owned$C$K$C$V$C$alloc..collections..btree..node..marker..LeafOrInternal$GT$21deallocate_and_ascend17h3c5db4bfc3695b45E
	xorl	%eax, %eax
	movl	%eax, %ecx
	cmpq	$0, -192(%rbp)
	movl	$1, %edx
	cmovbeq	%rcx, %rdx
	cmpq	$1, %rdx
	je	LBB8_14
	addq	$368, %rsp
	popq	%rbp
	retq
LBB8_14:
	movq	-200(%rbp), %rax
	movq	%rax, -144(%rbp)
	movq	-192(%rbp), %rax
	movq	%rax, -136(%rbp)
	movq	-184(%rbp), %rax
	movq	%rax, -128(%rbp)
	movq	-176(%rbp), %rax
	movq	%rax, -120(%rbp)
	movq	-144(%rbp), %rax
	movq	%rax, -64(%rbp)
	movq	-136(%rbp), %rax
	movq	%rax, -56(%rbp)
	movq	-128(%rbp), %rax
	movq	%rax, -48(%rbp)
	movq	-120(%rbp), %rax
	movq	%rax, -40(%rbp)
	leaq	-88(%rbp), %rdi
	leaq	-64(%rbp), %rsi
	callq	__ZN5alloc11collections5btree4node25Handle$LT$Node$C$Type$GT$9into_node17h4b0cf8b5c5add906E
	leaq	-112(%rbp), %rdi
	leaq	-88(%rbp), %rsi
	callq	__ZN5alloc11collections5btree4node40NodeRef$LT$BorrowType$C$K$C$V$C$Type$GT$11forget_type17he69544967afd5638E
	movq	-112(%rbp), %rax
	movq	%rax, -312(%rbp)
	movq	-104(%rbp), %rax
	movq	%rax, -304(%rbp)
	movq	-96(%rbp), %rax
	movq	%rax, -296(%rbp)
	jmp	LBB8_11
	.cfi_endproc

	.p2align	4, 0x90
__ZN3std10sys_common12os_str_bytes3Buf8as_slice17ha72a5722da7315fbE:
	.cfi_startproc
	pushq	%rbp
	.cfi_def_cfa_offset 16
	.cfi_offset %rbp, -16
	movq	%rsp, %rbp
	.cfi_def_cfa_register %rbp
	subq	$48, %rsp
	callq	__ZN68_$LT$alloc..vec..Vec$LT$T$GT$$u20$as$u20$core..ops..deref..Deref$GT$5deref17h4b4f949b913163caE
	movq	%rax, -24(%rbp)
	movq	%rdx, -32(%rbp)
	movq	-24(%rbp), %rax
	movq	%rax, -16(%rbp)
	movq	-32(%rbp), %rcx
	movq	%rcx, -8(%rbp)
	movq	-16(%rbp), %rax
	movq	-8(%rbp), %rdx
	movq	%rax, -40(%rbp)
	movq	%rdx, -48(%rbp)
	movq	-40(%rbp), %rax
	movq	-48(%rbp), %rdx
	addq	$48, %rsp
	popq	%rbp
	retq
	.cfi_endproc

	.p2align	4, 0x90
__ZN3std10sys_common12os_str_bytes5Slice13from_u8_slice17hda7a04561ff45a35E:
	.cfi_startproc
	pushq	%rbp
	.cfi_def_cfa_offset 16
	.cfi_offset %rbp, -16
	movq	%rsp, %rbp
	.cfi_def_cfa_register %rbp
	subq	$32, %rsp
	movq	%rdi, -16(%rbp)
	movq	%rsi, -8(%rbp)
	movq	-16(%rbp), %rax
	movq	-8(%rbp), %rdx
	movq	%rax, -24(%rbp)
	movq	%rdx, -32(%rbp)
	movq	-24(%rbp), %rax
	movq	-32(%rbp), %rdx
	addq	$32, %rsp
	popq	%rbp
	retq
	.cfi_endproc

	.p2align	4, 0x90
__ZN3std10sys_common12os_str_bytes5Slice8from_str17h7874c0f2369a42f1E:
	.cfi_startproc
	pushq	%rbp
	.cfi_def_cfa_offset 16
	.cfi_offset %rbp, -16
	movq	%rsp, %rbp
	.cfi_def_cfa_register %rbp
	subq	$48, %rsp
	movq	%rdi, -16(%rbp)
	movq	%rsi, -8(%rbp)
	movq	-16(%rbp), %rdi
	movq	-8(%rbp), %rsi
	movq	%rdi, -24(%rbp)
	movq	%rsi, -32(%rbp)
	movq	-24(%rbp), %rdi
	movq	-32(%rbp), %rsi
	callq	__ZN3std10sys_common12os_str_bytes5Slice13from_u8_slice17hda7a04561ff45a35E
	movq	%rax, -40(%rbp)
	movq	%rdx, -48(%rbp)
	movq	-40(%rbp), %rax
	movq	-48(%rbp), %rdx
	addq	$48, %rsp
	popq	%rbp
	retq
	.cfi_endproc

	.private_extern	__ZN3std2rt10lang_start17h0164307d8216bd2bE
	.globl	__ZN3std2rt10lang_start17h0164307d8216bd2bE
	.p2align	4, 0x90
__ZN3std2rt10lang_start17h0164307d8216bd2bE:
	.cfi_startproc
	pushq	%rbp
	.cfi_def_cfa_offset 16
	.cfi_offset %rbp, -16
	movq	%rsp, %rbp
	.cfi_def_cfa_register %rbp
	subq	$32, %rsp
	leaq	l___unnamed_2(%rip), %rax
	movq	%rdi, -8(%rbp)
	leaq	-8(%rbp), %rcx
	movq	%rcx, %rdi
	movq	%rsi, -16(%rbp)
	movq	%rax, %rsi
	movq	-16(%rbp), %rax
	movq	%rdx, -24(%rbp)
	movq	%rax, %rdx
	movq	-24(%rbp), %rcx
	callq	__ZN3std2rt19lang_start_internal17hbbd10965adc92ae7E
	movq	%rax, -32(%rbp)
	movq	-32(%rbp), %rax
	addq	$32, %rsp
	popq	%rbp
	retq
	.cfi_endproc

	.p2align	4, 0x90
__ZN3std2rt10lang_start28_$u7b$$u7b$closure$u7d$$u7d$17hbd27e0af6d7c1493E:
	.cfi_startproc
	pushq	%rbp
	.cfi_def_cfa_offset 16
	.cfi_offset %rbp, -16
	movq	%rsp, %rbp
	.cfi_def_cfa_register %rbp
	subq	$16, %rsp
	callq	*(%rdi)
	callq	__ZN54_$LT$$LP$$RP$$u20$as$u20$std..process..Termination$GT$6report17hbf0dd258fc4970cbE
	movl	%eax, -4(%rbp)
	movl	-4(%rbp), %eax
	addq	$16, %rsp
	popq	%rbp
	retq
	.cfi_endproc

	.p2align	4, 0x90
__ZN3std3env3var17h998cdbdaf7975646E:
Lfunc_begin0:
	.cfi_startproc
	.cfi_personality 155, _rust_eh_personality
	.cfi_lsda 16, Lexception0
	pushq	%rbp
	.cfi_def_cfa_offset 16
	.cfi_offset %rbp, -16
	movq	%rsp, %rbp
	.cfi_def_cfa_register %rbp
	subq	$64, %rsp
	movq	%rdi, %rax
	movq	%rsi, -32(%rbp)
	movq	%rdx, -24(%rbp)
Ltmp0:
	leaq	-32(%rbp), %rcx
	movq	%rdi, -40(%rbp)
	movq	%rcx, %rdi
	movq	%rax, -48(%rbp)
	callq	__ZN55_$LT$$RF$T$u20$as$u20$core..convert..AsRef$LT$U$GT$$GT$6as_ref17h6b5a9fb7da9eadc8E
Ltmp1:
	movq	%rdx, -56(%rbp)
	movq	%rax, -64(%rbp)
	jmp	LBB14_2
LBB14_1:
	movq	-16(%rbp), %rdi
	callq	__Unwind_Resume
	ud2
LBB14_2:
Ltmp2:
	movq	-40(%rbp), %rdi
	movq	-64(%rbp), %rsi
	movq	-56(%rbp), %rdx
	callq	__ZN3std3env4_var17h5f49b4c5e0582abcE
Ltmp3:
	jmp	LBB14_4
LBB14_3:
	jmp	LBB14_1
LBB14_4:
	jmp	LBB14_5
LBB14_5:
	movq	-48(%rbp), %rax
	addq	$64, %rsp
	popq	%rbp
	retq
LBB14_6:
Ltmp4:
	movq	%rax, -16(%rbp)
	movl	%edx, -8(%rbp)
	jmp	LBB14_3
Lfunc_end0:
	.cfi_endproc
	.section	__TEXT,__gcc_except_tab
	.p2align	2
GCC_except_table14:
Lexception0:
	.byte	255
	.byte	255
	.byte	1
	.uleb128 Lcst_end0-Lcst_begin0
Lcst_begin0:
	.uleb128 Ltmp0-Lfunc_begin0
	.uleb128 Ltmp1-Ltmp0
	.uleb128 Ltmp4-Lfunc_begin0
	.byte	0
	.uleb128 Ltmp1-Lfunc_begin0
	.uleb128 Ltmp2-Ltmp1
	.byte	0
	.byte	0
	.uleb128 Ltmp2-Lfunc_begin0
	.uleb128 Ltmp3-Ltmp2
	.uleb128 Ltmp4-Lfunc_begin0
	.byte	0
Lcst_end0:
	.p2align	2

	.section	__TEXT,__text,regular,pure_instructions
	.p2align	4, 0x90
__ZN3std3env6var_os17h377b5682e60a1ff7E:
Lfunc_begin1:
	.cfi_startproc
	.cfi_personality 155, _rust_eh_personality
	.cfi_lsda 16, Lexception1
	pushq	%rbp
	.cfi_def_cfa_offset 16
	.cfi_offset %rbp, -16
	movq	%rsp, %rbp
	.cfi_def_cfa_register %rbp
	subq	$64, %rsp
	movq	%rdi, %rax
	movq	%rsi, -32(%rbp)
	movq	%rdx, -24(%rbp)
Ltmp5:
	leaq	-32(%rbp), %rcx
	movq	%rdi, -40(%rbp)
	movq	%rcx, %rdi
	movq	%rax, -48(%rbp)
	callq	__ZN55_$LT$$RF$T$u20$as$u20$core..convert..AsRef$LT$U$GT$$GT$6as_ref17h6b5a9fb7da9eadc8E
Ltmp6:
	movq	%rdx, -56(%rbp)
	movq	%rax, -64(%rbp)
	jmp	LBB15_2
LBB15_1:
	movq	-16(%rbp), %rdi
	callq	__Unwind_Resume
	ud2
LBB15_2:
Ltmp7:
	movq	-40(%rbp), %rdi
	movq	-64(%rbp), %rsi
	movq	-56(%rbp), %rdx
	callq	__ZN3std3env7_var_os17hc628b18a701aa4a3E
Ltmp8:
	jmp	LBB15_4
LBB15_3:
	jmp	LBB15_1
LBB15_4:
	jmp	LBB15_5
LBB15_5:
	movq	-48(%rbp), %rax
	addq	$64, %rsp
	popq	%rbp
	retq
LBB15_6:
Ltmp9:
	movq	%rax, -16(%rbp)
	movl	%edx, -8(%rbp)
	jmp	LBB15_3
Lfunc_end1:
	.cfi_endproc
	.section	__TEXT,__gcc_except_tab
	.p2align	2
GCC_except_table15:
Lexception1:
	.byte	255
	.byte	255
	.byte	1
	.uleb128 Lcst_end1-Lcst_begin1
Lcst_begin1:
	.uleb128 Ltmp5-Lfunc_begin1
	.uleb128 Ltmp6-Ltmp5
	.uleb128 Ltmp9-Lfunc_begin1
	.byte	0
	.uleb128 Ltmp6-Lfunc_begin1
	.uleb128 Ltmp7-Ltmp6
	.byte	0
	.byte	0
	.uleb128 Ltmp7-Lfunc_begin1
	.uleb128 Ltmp8-Ltmp7
	.uleb128 Ltmp9-Lfunc_begin1
	.byte	0
Lcst_end1:
	.p2align	2

	.section	__TEXT,__text,regular,pure_instructions
	.p2align	4, 0x90
__ZN3std3ffi6os_str5OsStr10from_inner17h5d6996142f484fb4E:
	.cfi_startproc
	pushq	%rbp
	.cfi_def_cfa_offset 16
	.cfi_offset %rbp, -16
	movq	%rsp, %rbp
	.cfi_def_cfa_register %rbp
	movq	%rdi, %rax
	movq	%rsi, %rdx
	popq	%rbp
	retq
	.cfi_endproc

	.p2align	4, 0x90
__ZN3std3ffi6os_str85_$LT$impl$u20$core..convert..AsRef$LT$std..ffi..os_str..OsStr$GT$$u20$for$u20$str$GT$6as_ref17h20c2ef49be74fb52E:
	.cfi_startproc
	pushq	%rbp
	.cfi_def_cfa_offset 16
	.cfi_offset %rbp, -16
	movq	%rsp, %rbp
	.cfi_def_cfa_register %rbp
	subq	$32, %rsp
	callq	__ZN3std10sys_common12os_str_bytes5Slice8from_str17h7874c0f2369a42f1E
	movq	%rax, -8(%rbp)
	movq	%rdx, -16(%rbp)
	movq	-8(%rbp), %rdi
	movq	-16(%rbp), %rsi
	callq	__ZN3std3ffi6os_str5OsStr10from_inner17h5d6996142f484fb4E
	movq	%rax, -24(%rbp)
	movq	%rdx, -32(%rbp)
	movq	-24(%rbp), %rax
	movq	-32(%rbp), %rdx
	addq	$32, %rsp
	popq	%rbp
	retq
	.cfi_endproc

	.p2align	4, 0x90
__ZN3std3sys4unix7process14process_common8ExitCode6as_i3217h496394b921cdd023E:
	.cfi_startproc
	pushq	%rbp
	.cfi_def_cfa_offset 16
	.cfi_offset %rbp, -16
	movq	%rsp, %rbp
	.cfi_def_cfa_register %rbp
	movzbl	(%rdi), %eax
	popq	%rbp
	retq
	.cfi_endproc

	.p2align	4, 0x90
__ZN3std7process7Command3arg17h6f8cb555fcf98d49E:
Lfunc_begin2:
	.cfi_startproc
	.cfi_personality 155, _rust_eh_personality
	.cfi_lsda 16, Lexception2
	pushq	%rbp
	.cfi_def_cfa_offset 16
	.cfi_offset %rbp, -16
	movq	%rsp, %rbp
	.cfi_def_cfa_register %rbp
	subq	$64, %rsp
	movq	%rsi, -32(%rbp)
	movq	%rdx, -24(%rbp)
	movq	%rdi, %rax
Ltmp10:
	leaq	-32(%rbp), %rcx
	movq	%rdi, -40(%rbp)
	movq	%rcx, %rdi
	movq	%rax, -48(%rbp)
	callq	__ZN55_$LT$$RF$T$u20$as$u20$core..convert..AsRef$LT$U$GT$$GT$6as_ref17h6b5a9fb7da9eadc8E
Ltmp11:
	movq	%rdx, -56(%rbp)
	movq	%rax, -64(%rbp)
	jmp	LBB19_2
LBB19_1:
	movq	-16(%rbp), %rdi
	callq	__Unwind_Resume
	ud2
LBB19_2:
Ltmp12:
	movq	-48(%rbp), %rdi
	movq	-64(%rbp), %rsi
	movq	-56(%rbp), %rdx
	callq	__ZN3std3sys4unix7process14process_common7Command3arg17he3b985033bebdb87E
Ltmp13:
	jmp	LBB19_4
LBB19_3:
	jmp	LBB19_1
LBB19_4:
	jmp	LBB19_5
LBB19_5:
	movq	-40(%rbp), %rax
	addq	$64, %rsp
	popq	%rbp
	retq
LBB19_6:
Ltmp14:
	movq	%rax, -16(%rbp)
	movl	%edx, -8(%rbp)
	jmp	LBB19_3
Lfunc_end2:
	.cfi_endproc
	.section	__TEXT,__gcc_except_tab
	.p2align	2
GCC_except_table19:
Lexception2:
	.byte	255
	.byte	255
	.byte	1
	.uleb128 Lcst_end2-Lcst_begin2
Lcst_begin2:
	.uleb128 Ltmp10-Lfunc_begin2
	.uleb128 Ltmp11-Ltmp10
	.uleb128 Ltmp14-Lfunc_begin2
	.byte	0
	.uleb128 Ltmp11-Lfunc_begin2
	.uleb128 Ltmp12-Ltmp11
	.byte	0
	.byte	0
	.uleb128 Ltmp12-Lfunc_begin2
	.uleb128 Ltmp13-Ltmp12
	.uleb128 Ltmp14-Lfunc_begin2
	.byte	0
Lcst_end2:
	.p2align	2

	.section	__TEXT,__text,regular,pure_instructions
	.p2align	4, 0x90
__ZN3std7process7Command3new17h396af97ecad9c59cE:
Lfunc_begin3:
	.cfi_startproc
	.cfi_personality 155, _rust_eh_personality
	.cfi_lsda 16, Lexception3
	pushq	%rbp
	.cfi_def_cfa_offset 16
	.cfi_offset %rbp, -16
	movq	%rsp, %rbp
	.cfi_def_cfa_register %rbp
	subq	$240, %rsp
	movq	%rdi, %rax
Ltmp15:
	movq	%rdi, -208(%rbp)
	movq	%rsi, %rdi
	movq	%rsi, -216(%rbp)
	movq	%rax, -224(%rbp)
	callq	__ZN98_$LT$std..ffi..os_str..OsString$u20$as$u20$core..convert..AsRef$LT$std..ffi..os_str..OsStr$GT$$GT$6as_ref17h43aded4219a47b41E
Ltmp16:
	movq	%rdx, -232(%rbp)
	movq	%rax, -240(%rbp)
	jmp	LBB20_2
LBB20_1:
	movq	-16(%rbp), %rdi
	callq	__Unwind_Resume
	ud2
LBB20_2:
Ltmp17:
	leaq	-200(%rbp), %rdi
	movq	-240(%rbp), %rsi
	movq	-232(%rbp), %rdx
	callq	__ZN3std3sys4unix7process14process_common7Command3new17h6b51c4bb5fada643E
Ltmp18:
	jmp	LBB20_4
LBB20_3:
	movq	-216(%rbp), %rdi
	callq	__ZN4core3ptr13drop_in_place17h8a90ae2280028653E
	jmp	LBB20_1
LBB20_4:
	movq	-208(%rbp), %rax
	leaq	-200(%rbp), %rcx
	movq	%rax, %rdi
	movq	%rcx, %rsi
	movl	$184, %edx
	callq	_memcpy
	movq	-216(%rbp), %rdi
	callq	__ZN4core3ptr13drop_in_place17h8a90ae2280028653E
	movq	-224(%rbp), %rax
	addq	$240, %rsp
	popq	%rbp
	retq
LBB20_6:
Ltmp19:
	movq	%rax, -16(%rbp)
	movl	%edx, -8(%rbp)
	jmp	LBB20_3
Lfunc_end3:
	.cfi_endproc
	.section	__TEXT,__gcc_except_tab
	.p2align	2
GCC_except_table20:
Lexception3:
	.byte	255
	.byte	255
	.byte	1
	.uleb128 Lcst_end3-Lcst_begin3
Lcst_begin3:
	.uleb128 Ltmp15-Lfunc_begin3
	.uleb128 Ltmp16-Ltmp15
	.uleb128 Ltmp19-Lfunc_begin3
	.byte	0
	.uleb128 Ltmp16-Lfunc_begin3
	.uleb128 Ltmp17-Ltmp16
	.byte	0
	.byte	0
	.uleb128 Ltmp17-Lfunc_begin3
	.uleb128 Ltmp18-Ltmp17
	.uleb128 Ltmp19-Lfunc_begin3
	.byte	0
	.uleb128 Ltmp18-Lfunc_begin3
	.uleb128 Lfunc_end3-Ltmp18
	.byte	0
	.byte	0
Lcst_end3:
	.p2align	2

	.section	__TEXT,__text,regular,pure_instructions
	.p2align	4, 0x90
__ZN44_$LT$$RF$T$u20$as$u20$core..fmt..Display$GT$3fmt17he20803be023f37ccE:
	.cfi_startproc
	pushq	%rbp
	.cfi_def_cfa_offset 16
	.cfi_offset %rbp, -16
	movq	%rsp, %rbp
	.cfi_def_cfa_register %rbp
	subq	$16, %rsp
	movq	(%rdi), %rax
	movq	8(%rdi), %rcx
	movq	%rax, %rdi
	movq	%rsi, -8(%rbp)
	movq	%rcx, %rsi
	movq	-8(%rbp), %rdx
	callq	__ZN42_$LT$str$u20$as$u20$core..fmt..Display$GT$3fmt17h6768afae62e94f93E
	movb	%al, -9(%rbp)
	movb	-9(%rbp), %al
	andb	$1, %al
	movzbl	%al, %eax
	addq	$16, %rsp
	popq	%rbp
	retq
	.cfi_endproc

	.p2align	4, 0x90
__ZN49_$LT$usize$u20$as$u20$core..iter..range..Step$GT$17forward_unchecked17h8c7ce7ae9dcd2b11E:
	.cfi_startproc
	pushq	%rbp
	.cfi_def_cfa_offset 16
	.cfi_offset %rbp, -16
	movq	%rsp, %rbp
	.cfi_def_cfa_register %rbp
	subq	$16, %rsp
	callq	__ZN4core3num23_$LT$impl$u20$usize$GT$13unchecked_add17h12565a5d9b3024bdE
	movq	%rax, -8(%rbp)
	movq	-8(%rbp), %rax
	addq	$16, %rsp
	popq	%rbp
	retq
	.cfi_endproc

	.p2align	4, 0x90
__ZN49_$LT$usize$u20$as$u20$core..iter..range..Step$GT$18backward_unchecked17hd919556854e0787bE:
	.cfi_startproc
	pushq	%rbp
	.cfi_def_cfa_offset 16
	.cfi_offset %rbp, -16
	movq	%rsp, %rbp
	.cfi_def_cfa_register %rbp
	subq	$16, %rsp
	callq	__ZN4core3num23_$LT$impl$u20$usize$GT$13unchecked_sub17he7ae936a7c709300E
	movq	%rax, -8(%rbp)
	movq	-8(%rbp), %rax
	addq	$16, %rsp
	popq	%rbp
	retq
	.cfi_endproc

	.p2align	4, 0x90
__ZN4core10intrinsics19copy_nonoverlapping17h036bc5a1b58cbf24E:
	.cfi_startproc
	pushq	%rbp
	.cfi_def_cfa_offset 16
	.cfi_offset %rbp, -16
	movq	%rsp, %rbp
	.cfi_def_cfa_register %rbp
	subq	$16, %rsp
	imulq	$24, %rdx, %rdx
	movq	%rdi, -8(%rbp)
	movq	%rsi, %rdi
	movq	-8(%rbp), %rsi
	callq	_memcpy
	addq	$16, %rsp
	popq	%rbp
	retq
	.cfi_endproc

	.p2align	4, 0x90
__ZN4core10intrinsics19copy_nonoverlapping17h1414406b11b748b4E:
	.cfi_startproc
	pushq	%rbp
	.cfi_def_cfa_offset 16
	.cfi_offset %rbp, -16
	movq	%rsp, %rbp
	.cfi_def_cfa_register %rbp
	subq	$16, %rsp
	imulq	$24, %rdx, %rdx
	movq	%rdi, -8(%rbp)
	movq	%rsi, %rdi
	movq	-8(%rbp), %rsi
	callq	_memcpy
	addq	$16, %rsp
	popq	%rbp
	retq
	.cfi_endproc

	.p2align	4, 0x90
__ZN4core10intrinsics19copy_nonoverlapping17h2be84374d8c93c64E:
	.cfi_startproc
	pushq	%rbp
	.cfi_def_cfa_offset 16
	.cfi_offset %rbp, -16
	movq	%rsp, %rbp
	.cfi_def_cfa_register %rbp
	subq	$16, %rsp
	shlq	$5, %rdx
	movq	%rdi, -8(%rbp)
	movq	%rsi, %rdi
	movq	-8(%rbp), %rsi
	callq	_memcpy
	addq	$16, %rsp
	popq	%rbp
	retq
	.cfi_endproc

	.p2align	4, 0x90
__ZN4core10intrinsics19copy_nonoverlapping17h58fce3730994c2efE:
	.cfi_startproc
	pushq	%rbp
	.cfi_def_cfa_offset 16
	.cfi_offset %rbp, -16
	movq	%rsp, %rbp
	.cfi_def_cfa_register %rbp
	subq	$16, %rsp
	imulq	$24, %rdx, %rdx
	movq	%rdi, -8(%rbp)
	movq	%rsi, %rdi
	movq	-8(%rbp), %rsi
	callq	_memcpy
	addq	$16, %rsp
	popq	%rbp
	retq
	.cfi_endproc

	.p2align	4, 0x90
__ZN4core10intrinsics19copy_nonoverlapping17h6ecdd5ef54143bd1E:
	.cfi_startproc
	pushq	%rbp
	.cfi_def_cfa_offset 16
	.cfi_offset %rbp, -16
	movq	%rsp, %rbp
	.cfi_def_cfa_register %rbp
	subq	$16, %rsp
	shlq	$0, %rdx
	movq	%rdi, -8(%rbp)
	movq	%rsi, %rdi
	movq	-8(%rbp), %rsi
	callq	_memcpy
	addq	$16, %rsp
	popq	%rbp
	retq
	.cfi_endproc

	.p2align	4, 0x90
__ZN4core10intrinsics19copy_nonoverlapping17h991c8b2c957fd0e8E:
	.cfi_startproc
	pushq	%rbp
	.cfi_def_cfa_offset 16
	.cfi_offset %rbp, -16
	movq	%rsp, %rbp
	.cfi_def_cfa_register %rbp
	subq	$16, %rsp
	shlq	$4, %rdx
	movq	%rdi, -8(%rbp)
	movq	%rsi, %rdi
	movq	-8(%rbp), %rsi
	callq	_memcpy
	addq	$16, %rsp
	popq	%rbp
	retq
	.cfi_endproc

	.p2align	4, 0x90
__ZN4core10intrinsics19copy_nonoverlapping17hb25bb63ba3222a47E:
	.cfi_startproc
	pushq	%rbp
	.cfi_def_cfa_offset 16
	.cfi_offset %rbp, -16
	movq	%rsp, %rbp
	.cfi_def_cfa_register %rbp
	subq	$16, %rsp
	shlq	$5, %rdx
	movq	%rdi, -8(%rbp)
	movq	%rsi, %rdi
	movq	-8(%rbp), %rsi
	callq	_memcpy
	addq	$16, %rsp
	popq	%rbp
	retq
	.cfi_endproc

	.p2align	4, 0x90
__ZN4core10intrinsics19copy_nonoverlapping17hba28d0246522d691E:
	.cfi_startproc
	pushq	%rbp
	.cfi_def_cfa_offset 16
	.cfi_offset %rbp, -16
	movq	%rsp, %rbp
	.cfi_def_cfa_register %rbp
	subq	$16, %rsp
	imulq	$24, %rdx, %rdx
	movq	%rdi, -8(%rbp)
	movq	%rsi, %rdi
	movq	-8(%rbp), %rsi
	callq	_memcpy
	addq	$16, %rsp
	popq	%rbp
	retq
	.cfi_endproc

	.p2align	4, 0x90
__ZN4core10intrinsics19copy_nonoverlapping17hd180ace0e8c1c2f3E:
	.cfi_startproc
	pushq	%rbp
	.cfi_def_cfa_offset 16
	.cfi_offset %rbp, -16
	movq	%rsp, %rbp
	.cfi_def_cfa_register %rbp
	subq	$16, %rsp
	imulq	$24, %rdx, %rdx
	movq	%rdi, -8(%rbp)
	movq	%rsi, %rdi
	movq	-8(%rbp), %rsi
	callq	_memcpy
	addq	$16, %rsp
	popq	%rbp
	retq
	.cfi_endproc

	.p2align	4, 0x90
__ZN4core10intrinsics19copy_nonoverlapping17hf41b8921afd4a287E:
	.cfi_startproc
	pushq	%rbp
	.cfi_def_cfa_offset 16
	.cfi_offset %rbp, -16
	movq	%rsp, %rbp
	.cfi_def_cfa_register %rbp
	subq	$16, %rsp
	shlq	$3, %rdx
	movq	%rdi, -8(%rbp)
	movq	%rsi, %rdi
	movq	-8(%rbp), %rsi
	callq	_memcpy
	addq	$16, %rsp
	popq	%rbp
	retq
	.cfi_endproc

	.p2align	4, 0x90
__ZN4core3cmp3Ord3max17h47d25ee285dc838aE:
	.cfi_startproc
	pushq	%rbp
	.cfi_def_cfa_offset 16
	.cfi_offset %rbp, -16
	movq	%rsp, %rbp
	.cfi_def_cfa_register %rbp
	subq	$16, %rsp
	callq	__ZN4core3cmp6max_by17h8a8d82930ad8478dE
	movq	%rax, -8(%rbp)
	movq	-8(%rbp), %rax
	addq	$16, %rsp
	popq	%rbp
	retq
	.cfi_endproc

	.p2align	4, 0x90
__ZN4core3cmp3max17h94ef2459eeb62237E:
	.cfi_startproc
	pushq	%rbp
	.cfi_def_cfa_offset 16
	.cfi_offset %rbp, -16
	movq	%rsp, %rbp
	.cfi_def_cfa_register %rbp
	subq	$16, %rsp
	callq	__ZN4core3cmp3Ord3max17h47d25ee285dc838aE
	movq	%rax, -8(%rbp)
	movq	-8(%rbp), %rax
	addq	$16, %rsp
	popq	%rbp
	retq
	.cfi_endproc

	.p2align	4, 0x90
__ZN4core3cmp5impls50_$LT$impl$u20$core..cmp..Ord$u20$for$u20$usize$GT$3cmp17h8d3055a16b564d82E:
	.cfi_startproc
	pushq	%rbp
	.cfi_def_cfa_offset 16
	.cfi_offset %rbp, -16
	movq	%rsp, %rbp
	.cfi_def_cfa_register %rbp
	subq	$24, %rsp
	movq	(%rdi), %rax
	cmpq	(%rsi), %rax
	movq	%rdi, -16(%rbp)
	movq	%rsi, -24(%rbp)
	jb	LBB36_2
	movq	-16(%rbp), %rax
	movq	(%rax), %rcx
	movq	-24(%rbp), %rdx
	cmpq	(%rdx), %rcx
	je	LBB36_4
	jmp	LBB36_3
LBB36_2:
	movb	$-1, -1(%rbp)
	jmp	LBB36_6
LBB36_3:
	movb	$1, -1(%rbp)
	jmp	LBB36_5
LBB36_4:
	movb	$0, -1(%rbp)
LBB36_5:
	jmp	LBB36_6
LBB36_6:
	movb	-1(%rbp), %al
	addq	$24, %rsp
	popq	%rbp
	retq
	.cfi_endproc

	.p2align	4, 0x90
__ZN4core3cmp5impls57_$LT$impl$u20$core..cmp..PartialOrd$u20$for$u20$usize$GT$2lt17hbdfbb9fd9e946953E:
	.cfi_startproc
	pushq	%rbp
	.cfi_def_cfa_offset 16
	.cfi_offset %rbp, -16
	movq	%rsp, %rbp
	.cfi_def_cfa_register %rbp
	movq	(%rdi), %rax
	cmpq	(%rsi), %rax
	setb	%cl
	andb	$1, %cl
	movzbl	%cl, %eax
	popq	%rbp
	retq
	.cfi_endproc

	.p2align	4, 0x90
__ZN4core3cmp5impls59_$LT$impl$u20$core..cmp..PartialEq$u20$for$u20$$LP$$RP$$GT$2eq17h4b88929414b7c43bE:
	.cfi_startproc
	pushq	%rbp
	.cfi_def_cfa_offset 16
	.cfi_offset %rbp, -16
	movq	%rsp, %rbp
	.cfi_def_cfa_register %rbp
	movb	$1, %al
	andb	$1, %al
	movzbl	%al, %eax
	popq	%rbp
	retq
	.cfi_endproc

	.p2align	4, 0x90
__ZN4core3cmp5impls69_$LT$impl$u20$core..cmp..PartialEq$LT$$RF$B$GT$$u20$for$u20$$RF$A$GT$2eq17h937f607654c6499cE:
	.cfi_startproc
	pushq	%rbp
	.cfi_def_cfa_offset 16
	.cfi_offset %rbp, -16
	movq	%rsp, %rbp
	.cfi_def_cfa_register %rbp
	subq	$16, %rsp
	movq	(%rdi), %rax
	movq	8(%rdi), %rcx
	movq	(%rsi), %rdx
	movq	8(%rsi), %rsi
	movq	%rax, %rdi
	movq	%rsi, -8(%rbp)
	movq	%rcx, %rsi
	movq	-8(%rbp), %rcx
	callq	__ZN4core3str6traits54_$LT$impl$u20$core..cmp..PartialEq$u20$for$u20$str$GT$2eq17h629d4d32a153534aE
	movb	%al, -9(%rbp)
	movb	-9(%rbp), %al
	andb	$1, %al
	movzbl	%al, %eax
	addq	$16, %rsp
	popq	%rbp
	retq
	.cfi_endproc

	.p2align	4, 0x90
__ZN4core3cmp5impls69_$LT$impl$u20$core..cmp..PartialEq$LT$$RF$B$GT$$u20$for$u20$$RF$A$GT$2eq17hd48ccfc1b7fdfd0cE:
	.cfi_startproc
	pushq	%rbp
	.cfi_def_cfa_offset 16
	.cfi_offset %rbp, -16
	movq	%rsp, %rbp
	.cfi_def_cfa_register %rbp
	subq	$16, %rsp
	movq	(%rdi), %rax
	movq	8(%rdi), %rcx
	movq	(%rsi), %rdx
	movq	8(%rsi), %rsi
	movq	%rax, %rdi
	movq	%rsi, -8(%rbp)
	movq	%rcx, %rsi
	movq	-8(%rbp), %rcx
	callq	__ZN4core5slice81_$LT$impl$u20$core..cmp..PartialEq$LT$$u5b$B$u5d$$GT$$u20$for$u20$$u5b$A$u5d$$GT$2eq17he8fa2e4da32a88baE
	movb	%al, -9(%rbp)
	movb	-9(%rbp), %al
	andb	$1, %al
	movzbl	%al, %eax
	addq	$16, %rsp
	popq	%rbp
	retq
	.cfi_endproc

	.p2align	4, 0x90
__ZN4core3cmp5impls69_$LT$impl$u20$core..cmp..PartialEq$LT$$RF$B$GT$$u20$for$u20$$RF$A$GT$2ne17h38ac92b3861505a2E:
	.cfi_startproc
	pushq	%rbp
	.cfi_def_cfa_offset 16
	.cfi_offset %rbp, -16
	movq	%rsp, %rbp
	.cfi_def_cfa_register %rbp
	subq	$16, %rsp
	movq	(%rdi), %rax
	movq	8(%rdi), %rcx
	movq	(%rsi), %rdx
	movq	8(%rsi), %rsi
	movq	%rax, %rdi
	movq	%rsi, -8(%rbp)
	movq	%rcx, %rsi
	movq	-8(%rbp), %rcx
	callq	__ZN4core3str6traits54_$LT$impl$u20$core..cmp..PartialEq$u20$for$u20$str$GT$2ne17h9ce9d85688d8a9bcE
	movb	%al, -9(%rbp)
	movb	-9(%rbp), %al
	andb	$1, %al
	movzbl	%al, %eax
	addq	$16, %rsp
	popq	%rbp
	retq
	.cfi_endproc

	.p2align	4, 0x90
__ZN4core3cmp6max_by17h8a8d82930ad8478dE:
Lfunc_begin4:
	.cfi_startproc
	.cfi_personality 155, _rust_eh_personality
	.cfi_lsda 16, Lexception4
	pushq	%rbp
	.cfi_def_cfa_offset 16
	.cfi_offset %rbp, -16
	movq	%rsp, %rbp
	.cfi_def_cfa_register %rbp
	subq	$80, %rsp
	movq	%rdi, -72(%rbp)
	movq	%rsi, -64(%rbp)
	movb	$0, -18(%rbp)
	movb	$0, -17(%rbp)
	movb	$1, -18(%rbp)
	movb	$1, -17(%rbp)
	leaq	-72(%rbp), %rax
	movq	%rax, -40(%rbp)
	leaq	-64(%rbp), %rax
	movq	%rax, -32(%rbp)
	movq	-40(%rbp), %rdi
	movq	-32(%rbp), %rsi
Ltmp20:
	callq	__ZN4core3ops8function6FnOnce9call_once17h753bfae32c1d50cfE
Ltmp21:
	movb	%al, -73(%rbp)
	jmp	LBB42_2
LBB42_1:
	movq	-16(%rbp), %rdi
	callq	__Unwind_Resume
	ud2
LBB42_2:
	movb	-73(%rbp), %al
	movb	%al, -41(%rbp)
	movsbq	-41(%rbp), %rcx
	incq	%rcx
	subq	$2, %rcx
	jb	LBB42_7
	jmp	LBB42_15
LBB42_15:
	jmp	LBB42_5
LBB42_3:
	testb	$1, -18(%rbp)
	jne	LBB42_11
	jmp	LBB42_1
LBB42_4:
	movb	$0, -17(%rbp)
	jmp	LBB42_3
LBB42_5:
	movb	$0, -18(%rbp)
	movq	-72(%rbp), %rax
	movq	%rax, -56(%rbp)
	jmp	LBB42_8
	ud2
LBB42_7:
	movb	$0, -17(%rbp)
	movq	-64(%rbp), %rax
	movq	%rax, -56(%rbp)
LBB42_8:
	testb	$1, -17(%rbp)
	jne	LBB42_12
LBB42_9:
	testb	$1, -18(%rbp)
	jne	LBB42_13
LBB42_10:
	movq	-56(%rbp), %rax
	addq	$80, %rsp
	popq	%rbp
	retq
LBB42_11:
	movb	$0, -18(%rbp)
	jmp	LBB42_1
LBB42_12:
	movb	$0, -17(%rbp)
	jmp	LBB42_9
LBB42_13:
	movb	$0, -18(%rbp)
	jmp	LBB42_10
LBB42_14:
Ltmp22:
	movq	%rax, -16(%rbp)
	movl	%edx, -8(%rbp)
	jmp	LBB42_4
Lfunc_end4:
	.cfi_endproc
	.section	__TEXT,__gcc_except_tab
	.p2align	2
GCC_except_table42:
Lexception4:
	.byte	255
	.byte	255
	.byte	1
	.uleb128 Lcst_end4-Lcst_begin4
Lcst_begin4:
	.uleb128 Ltmp20-Lfunc_begin4
	.uleb128 Ltmp21-Ltmp20
	.uleb128 Ltmp22-Lfunc_begin4
	.byte	0
	.uleb128 Ltmp21-Lfunc_begin4
	.uleb128 Lfunc_end4-Ltmp21
	.byte	0
	.byte	0
Lcst_end4:
	.p2align	2

	.section	__TEXT,__text,regular,pure_instructions
	.p2align	4, 0x90
__ZN4core3fmt10ArgumentV13new17h239f01f4915e3650E:
	.cfi_startproc
	pushq	%rbp
	.cfi_def_cfa_offset 16
	.cfi_offset %rbp, -16
	movq	%rsp, %rbp
	.cfi_def_cfa_register %rbp
	subq	$56, %rsp
	movq	%rsi, -16(%rbp)
	movq	-16(%rbp), %rax
	movq	%rdi, -40(%rbp)
	movq	%rax, -48(%rbp)
	movq	-40(%rbp), %rax
	movq	%rax, -8(%rbp)
	movq	-8(%rbp), %rcx
	movq	%rcx, -56(%rbp)
	movq	-56(%rbp), %rax
	movq	%rax, -32(%rbp)
	movq	-48(%rbp), %rcx
	movq	%rcx, -24(%rbp)
	movq	-32(%rbp), %rax
	movq	-24(%rbp), %rdx
	addq	$56, %rsp
	popq	%rbp
	retq
	.cfi_endproc

	.p2align	4, 0x90
__ZN4core3fmt10ArgumentV13new17h75f7b60811972632E:
	.cfi_startproc
	pushq	%rbp
	.cfi_def_cfa_offset 16
	.cfi_offset %rbp, -16
	movq	%rsp, %rbp
	.cfi_def_cfa_register %rbp
	subq	$56, %rsp
	movq	%rsi, -16(%rbp)
	movq	-16(%rbp), %rax
	movq	%rdi, -40(%rbp)
	movq	%rax, -48(%rbp)
	movq	-40(%rbp), %rax
	movq	%rax, -8(%rbp)
	movq	-8(%rbp), %rcx
	movq	%rcx, -56(%rbp)
	movq	-56(%rbp), %rax
	movq	%rax, -32(%rbp)
	movq	-48(%rbp), %rcx
	movq	%rcx, -24(%rbp)
	movq	-32(%rbp), %rax
	movq	-24(%rbp), %rdx
	addq	$56, %rsp
	popq	%rbp
	retq
	.cfi_endproc

	.p2align	4, 0x90
__ZN4core3fmt10ArgumentV13new17hcf2d029ce25ad63aE:
	.cfi_startproc
	pushq	%rbp
	.cfi_def_cfa_offset 16
	.cfi_offset %rbp, -16
	movq	%rsp, %rbp
	.cfi_def_cfa_register %rbp
	subq	$56, %rsp
	movq	%rsi, -16(%rbp)
	movq	-16(%rbp), %rax
	movq	%rdi, -40(%rbp)
	movq	%rax, -48(%rbp)
	movq	-40(%rbp), %rax
	movq	%rax, -8(%rbp)
	movq	-8(%rbp), %rcx
	movq	%rcx, -56(%rbp)
	movq	-56(%rbp), %rax
	movq	%rax, -32(%rbp)
	movq	-48(%rbp), %rcx
	movq	%rcx, -24(%rbp)
	movq	-32(%rbp), %rax
	movq	-24(%rbp), %rdx
	addq	$56, %rsp
	popq	%rbp
	retq
	.cfi_endproc

	.p2align	4, 0x90
__ZN4core3fmt9Arguments6new_v117h90dae4f40aee42bcE:
	.cfi_startproc
	pushq	%rbp
	.cfi_def_cfa_offset 16
	.cfi_offset %rbp, -16
	movq	%rsp, %rbp
	.cfi_def_cfa_register %rbp
	subq	$16, %rsp
	movq	%rdi, %rax
	movq	$0, -16(%rbp)
	movq	%rsi, (%rdi)
	movq	%rdx, 8(%rdi)
	movq	-16(%rbp), %rdx
	movq	-8(%rbp), %rsi
	movq	%rdx, 16(%rdi)
	movq	%rsi, 24(%rdi)
	movq	%rcx, 32(%rdi)
	movq	%r8, 40(%rdi)
	addq	$16, %rsp
	popq	%rbp
	retq
	.cfi_endproc

	.p2align	4, 0x90
__ZN4core3mem11size_of_val17h40fcdf73a270e344E:
	.cfi_startproc
	pushq	%rbp
	.cfi_def_cfa_offset 16
	.cfi_offset %rbp, -16
	movq	%rsp, %rbp
	.cfi_def_cfa_register %rbp
	subq	$16, %rsp
	shlq	$0, %rsi
	movq	%rsi, -8(%rbp)
	movq	-8(%rbp), %rax
	movq	%rax, -16(%rbp)
	movq	-16(%rbp), %rax
	addq	$16, %rsp
	popq	%rbp
	retq
	.cfi_endproc

	.p2align	4, 0x90
__ZN4core3mem4drop17h2b19ea3102744243E:
	.cfi_startproc
	pushq	%rbp
	.cfi_def_cfa_offset 16
	.cfi_offset %rbp, -16
	movq	%rsp, %rbp
	.cfi_def_cfa_register %rbp
	callq	__ZN4core3ptr13drop_in_place17h72b8995b402a0fe0E
	popq	%rbp
	retq
	.cfi_endproc

	.p2align	4, 0x90
__ZN4core3mem4drop17h40ed4b33e9d5fd24E:
	.cfi_startproc
	pushq	%rbp
	.cfi_def_cfa_offset 16
	.cfi_offset %rbp, -16
	movq	%rsp, %rbp
	.cfi_def_cfa_register %rbp
	callq	__ZN4core3ptr13drop_in_place17h873402ea5c698450E
	popq	%rbp
	retq
	.cfi_endproc

	.p2align	4, 0x90
__ZN4core3mem4swap17h6b1a245b36c0a898E:
	.cfi_startproc
	pushq	%rbp
	.cfi_def_cfa_offset 16
	.cfi_offset %rbp, -16
	movq	%rsp, %rbp
	.cfi_def_cfa_register %rbp
	callq	__ZN4core3ptr23swap_nonoverlapping_one17hf76ae85fce6d117eE
	popq	%rbp
	retq
	.cfi_endproc

	.p2align	4, 0x90
__ZN4core3mem4swap17hf2b457046d76d465E:
	.cfi_startproc
	pushq	%rbp
	.cfi_def_cfa_offset 16
	.cfi_offset %rbp, -16
	movq	%rsp, %rbp
	.cfi_def_cfa_register %rbp
	callq	__ZN4core3ptr23swap_nonoverlapping_one17h2a3e8f18b484414eE
	popq	%rbp
	retq
	.cfi_endproc

	.p2align	4, 0x90
__ZN4core3mem4take17hb1c1c798995b580dE:
	.cfi_startproc
	pushq	%rbp
	.cfi_def_cfa_offset 16
	.cfi_offset %rbp, -16
	movq	%rsp, %rbp
	.cfi_def_cfa_register %rbp
	subq	$48, %rsp
	movq	%rdi, -8(%rbp)
	callq	__ZN72_$LT$core..option..Option$LT$T$GT$$u20$as$u20$core..default..Default$GT$7default17hef4d4c89e8ac0317E
	movq	%rax, -16(%rbp)
	movq	%rdx, -24(%rbp)
	movq	-8(%rbp), %rdi
	movq	-16(%rbp), %rsi
	movq	-24(%rbp), %rdx
	callq	__ZN4core3mem7replace17h03ce9cc167c80579E
	movq	%rax, -32(%rbp)
	movq	%rdx, -40(%rbp)
	movq	-32(%rbp), %rax
	movq	-40(%rbp), %rdx
	addq	$48, %rsp
	popq	%rbp
	retq
	.cfi_endproc

	.p2align	4, 0x90
__ZN4core3mem6forget17h6a104e448e53639aE:
	.cfi_startproc
	pushq	%rbp
	.cfi_def_cfa_offset 16
	.cfi_offset %rbp, -16
	movq	%rsp, %rbp
	.cfi_def_cfa_register %rbp
	pushq	%rax
	movq	%rdi, -8(%rbp)
	addq	$8, %rsp
	popq	%rbp
	retq
	.cfi_endproc

	.p2align	4, 0x90
__ZN4core3mem7replace17h03ce9cc167c80579E:
Lfunc_begin5:
	.cfi_startproc
	.cfi_personality 155, _rust_eh_personality
	.cfi_lsda 16, Lexception5
	pushq	%rbp
	.cfi_def_cfa_offset 16
	.cfi_offset %rbp, -16
	movq	%rsp, %rbp
	.cfi_def_cfa_register %rbp
	subq	$32, %rsp
	movq	%rsi, -32(%rbp)
	movq	%rdx, -24(%rbp)
Ltmp23:
	leaq	-32(%rbp), %rsi
	callq	__ZN4core3mem4swap17hf2b457046d76d465E
Ltmp24:
	jmp	LBB54_2
LBB54_1:
	movq	-16(%rbp), %rdi
	callq	__Unwind_Resume
	ud2
LBB54_2:
	movq	-32(%rbp), %rax
	movq	-24(%rbp), %rdx
	addq	$32, %rsp
	popq	%rbp
	retq
LBB54_3:
	jmp	LBB54_1
LBB54_4:
Ltmp25:
	movq	%rax, -16(%rbp)
	movl	%edx, -8(%rbp)
	jmp	LBB54_3
Lfunc_end5:
	.cfi_endproc
	.section	__TEXT,__gcc_except_tab
	.p2align	2
GCC_except_table54:
Lexception5:
	.byte	255
	.byte	255
	.byte	1
	.uleb128 Lcst_end5-Lcst_begin5
Lcst_begin5:
	.uleb128 Ltmp23-Lfunc_begin5
	.uleb128 Ltmp24-Ltmp23
	.uleb128 Ltmp25-Lfunc_begin5
	.byte	0
	.uleb128 Ltmp24-Lfunc_begin5
	.uleb128 Lfunc_end5-Ltmp24
	.byte	0
	.byte	0
Lcst_end5:
	.p2align	2

	.section	__TEXT,__text,regular,pure_instructions
	.p2align	4, 0x90
__ZN4core3mem7replace17h3cc79de63bea0e8aE:
Lfunc_begin6:
	.cfi_startproc
	.cfi_personality 155, _rust_eh_personality
	.cfi_lsda 16, Lexception6
	pushq	%rbp
	.cfi_def_cfa_offset 16
	.cfi_offset %rbp, -16
	movq	%rsp, %rbp
	.cfi_def_cfa_register %rbp
	subq	$32, %rsp
	movq	%rsi, -24(%rbp)
Ltmp26:
	leaq	-24(%rbp), %rsi
	callq	__ZN4core3mem4swap17h6b1a245b36c0a898E
Ltmp27:
	jmp	LBB55_2
LBB55_1:
	movq	-16(%rbp), %rdi
	callq	__Unwind_Resume
	ud2
LBB55_2:
	movq	-24(%rbp), %rax
	addq	$32, %rsp
	popq	%rbp
	retq
LBB55_3:
	jmp	LBB55_1
LBB55_4:
Ltmp28:
	movq	%rax, -16(%rbp)
	movl	%edx, -8(%rbp)
	jmp	LBB55_3
Lfunc_end6:
	.cfi_endproc
	.section	__TEXT,__gcc_except_tab
	.p2align	2
GCC_except_table55:
Lexception6:
	.byte	255
	.byte	255
	.byte	1
	.uleb128 Lcst_end6-Lcst_begin6
Lcst_begin6:
	.uleb128 Ltmp26-Lfunc_begin6
	.uleb128 Ltmp27-Ltmp26
	.uleb128 Ltmp28-Lfunc_begin6
	.byte	0
	.uleb128 Ltmp27-Lfunc_begin6
	.uleb128 Lfunc_end6-Ltmp27
	.byte	0
	.byte	0
Lcst_end6:
	.p2align	2

	.section	__TEXT,__text,regular,pure_instructions
	.p2align	4, 0x90
__ZN4core3num12NonZeroUsize13new_unchecked17h16a38d4e827a8ecbE:
	.cfi_startproc
	pushq	%rbp
	.cfi_def_cfa_offset 16
	.cfi_offset %rbp, -16
	movq	%rsp, %rbp
	.cfi_def_cfa_register %rbp
	pushq	%rax
	movq	%rdi, -8(%rbp)
	movq	-8(%rbp), %rax
	addq	$8, %rsp
	popq	%rbp
	retq
	.cfi_endproc

	.p2align	4, 0x90
__ZN4core3num12NonZeroUsize3get17h69e5f24964a6cfd8E:
	.cfi_startproc
	pushq	%rbp
	.cfi_def_cfa_offset 16
	.cfi_offset %rbp, -16
	movq	%rsp, %rbp
	.cfi_def_cfa_register %rbp
	movq	%rdi, %rax
	popq	%rbp
	retq
	.cfi_endproc

	.p2align	4, 0x90
__ZN4core3num23_$LT$impl$u20$usize$GT$13unchecked_add17h12565a5d9b3024bdE:
	.cfi_startproc
	pushq	%rbp
	.cfi_def_cfa_offset 16
	.cfi_offset %rbp, -16
	movq	%rsp, %rbp
	.cfi_def_cfa_register %rbp
	subq	$16, %rsp
	addq	%rsi, %rdi
	movq	%rdi, -8(%rbp)
	movq	-8(%rbp), %rax
	movq	%rax, -16(%rbp)
	movq	-16(%rbp), %rax
	addq	$16, %rsp
	popq	%rbp
	retq
	.cfi_endproc

	.p2align	4, 0x90
__ZN4core3num23_$LT$impl$u20$usize$GT$13unchecked_sub17he7ae936a7c709300E:
	.cfi_startproc
	pushq	%rbp
	.cfi_def_cfa_offset 16
	.cfi_offset %rbp, -16
	movq	%rsp, %rbp
	.cfi_def_cfa_register %rbp
	subq	$16, %rsp
	subq	%rsi, %rdi
	movq	%rdi, -8(%rbp)
	movq	-8(%rbp), %rax
	movq	%rax, -16(%rbp)
	movq	-16(%rbp), %rax
	addq	$16, %rsp
	popq	%rbp
	retq
	.cfi_endproc

	.p2align	4, 0x90
__ZN4core3ops8function6FnOnce40call_once$u7b$$u7b$vtable.shim$u7d$$u7d$17h11db85acce08909aE:
	.cfi_startproc
	pushq	%rbp
	.cfi_def_cfa_offset 16
	.cfi_offset %rbp, -16
	movq	%rsp, %rbp
	.cfi_def_cfa_register %rbp
	subq	$16, %rsp
	movq	(%rdi), %rdi
	callq	__ZN4core3ops8function6FnOnce9call_once17h4308daaf5a622140E
	movl	%eax, -12(%rbp)
	movl	-12(%rbp), %eax
	addq	$16, %rsp
	popq	%rbp
	retq
	.cfi_endproc

	.p2align	4, 0x90
__ZN4core3ops8function6FnOnce9call_once17h4308daaf5a622140E:
Lfunc_begin7:
	.cfi_startproc
	.cfi_personality 155, _rust_eh_personality
	.cfi_lsda 16, Lexception7
	pushq	%rbp
	.cfi_def_cfa_offset 16
	.cfi_offset %rbp, -16
	movq	%rsp, %rbp
	.cfi_def_cfa_register %rbp
	subq	$48, %rsp
	movq	%rdi, -32(%rbp)
Ltmp29:
	leaq	-32(%rbp), %rdi
	callq	__ZN3std2rt10lang_start28_$u7b$$u7b$closure$u7d$$u7d$17hbd27e0af6d7c1493E
Ltmp30:
	movl	%eax, -36(%rbp)
	jmp	LBB61_1
LBB61_1:
	jmp	LBB61_2
LBB61_2:
	movl	-36(%rbp), %eax
	addq	$48, %rsp
	popq	%rbp
	retq
LBB61_3:
	jmp	LBB61_4
LBB61_4:
	movq	-16(%rbp), %rdi
	callq	__Unwind_Resume
	ud2
LBB61_5:
Ltmp31:
	movq	%rax, -16(%rbp)
	movl	%edx, -8(%rbp)
	jmp	LBB61_3
Lfunc_end7:
	.cfi_endproc
	.section	__TEXT,__gcc_except_tab
	.p2align	2
GCC_except_table61:
Lexception7:
	.byte	255
	.byte	255
	.byte	1
	.uleb128 Lcst_end7-Lcst_begin7
Lcst_begin7:
	.uleb128 Ltmp29-Lfunc_begin7
	.uleb128 Ltmp30-Ltmp29
	.uleb128 Ltmp31-Lfunc_begin7
	.byte	0
	.uleb128 Ltmp30-Lfunc_begin7
	.uleb128 Lfunc_end7-Ltmp30
	.byte	0
	.byte	0
Lcst_end7:
	.p2align	2

	.section	__TEXT,__text,regular,pure_instructions
	.p2align	4, 0x90
__ZN4core3ops8function6FnOnce9call_once17h753bfae32c1d50cfE:
	.cfi_startproc
	pushq	%rbp
	.cfi_def_cfa_offset 16
	.cfi_offset %rbp, -16
	movq	%rsp, %rbp
	.cfi_def_cfa_register %rbp
	subq	$32, %rsp
	movq	%rdi, -16(%rbp)
	movq	%rsi, -8(%rbp)
	movq	-16(%rbp), %rdi
	movq	-8(%rbp), %rsi
	callq	__ZN4core3cmp5impls50_$LT$impl$u20$core..cmp..Ord$u20$for$u20$usize$GT$3cmp17h8d3055a16b564d82E
	movb	%al, -17(%rbp)
	movb	-17(%rbp), %al
	addq	$32, %rsp
	popq	%rbp
	retq
	.cfi_endproc

	.p2align	4, 0x90
__ZN4core3ptr13drop_in_place17h04a87444866118e8E:
	.cfi_startproc
	pushq	%rbp
	.cfi_def_cfa_offset 16
	.cfi_offset %rbp, -16
	movq	%rsp, %rbp
	.cfi_def_cfa_register %rbp
	subq	$16, %rsp
	cmpq	$0, (%rdi)
	movq	%rdi, -16(%rbp)
	je	LBB63_2
	jmp	LBB63_3
LBB63_1:
	addq	$16, %rsp
	popq	%rbp
	retq
LBB63_2:
	movq	-16(%rbp), %rax
	addq	$8, %rax
	movq	%rax, %rdi
	callq	__ZN4core3ptr13drop_in_place17h178b5f350b0e8febE
	jmp	LBB63_1
LBB63_3:
	movq	-16(%rbp), %rax
	addq	$8, %rax
	movq	%rax, %rdi
	callq	__ZN4core3ptr13drop_in_place17h5884c06f2c48e497E
	jmp	LBB63_1
	.cfi_endproc

	.p2align	4, 0x90
__ZN4core3ptr13drop_in_place17h105cf116a9852c79E:
	.cfi_startproc
	pushq	%rbp
	.cfi_def_cfa_offset 16
	.cfi_offset %rbp, -16
	movq	%rsp, %rbp
	.cfi_def_cfa_register %rbp
	subq	$32, %rsp
	movq	%rdi, -32(%rbp)
	jmp	LBB64_2
LBB64_1:
	addq	$32, %rsp
	popq	%rbp
	retq
LBB64_2:
	movq	-32(%rbp), %rax
	movq	(%rax), %rdi
	movq	8(%rax), %rsi
	callq	__ZN5alloc5alloc8box_free17h6c97b0e1e0abca10E
	jmp	LBB64_1
	.cfi_endproc

	.p2align	4, 0x90
__ZN4core3ptr13drop_in_place17h1396d03afe560e4fE:
	.cfi_startproc
	pushq	%rbp
	.cfi_def_cfa_offset 16
	.cfi_offset %rbp, -16
	movq	%rsp, %rbp
	.cfi_def_cfa_register %rbp
	subq	$16, %rsp
	xorl	%eax, %eax
	movl	%eax, %ecx
	cmpq	$0, (%rdi)
	movl	$1, %edx
	cmovbeq	%rcx, %rdx
	cmpq	$0, %rdx
	movq	%rdi, -16(%rbp)
	jne	LBB65_2
LBB65_1:
	addq	$16, %rsp
	popq	%rbp
	retq
LBB65_2:
	movq	-16(%rbp), %rax
	movq	%rax, %rdi
	callq	__ZN4core3ptr13drop_in_place17h8a90ae2280028653E
	jmp	LBB65_1
	.cfi_endproc

	.p2align	4, 0x90
__ZN4core3ptr13drop_in_place17h142d2c41a7ae2572E:
	.cfi_startproc
	pushq	%rbp
	.cfi_def_cfa_offset 16
	.cfi_offset %rbp, -16
	movq	%rsp, %rbp
	.cfi_def_cfa_register %rbp
	subq	$16, %rsp
	xorl	%eax, %eax
	movl	%eax, %ecx
	cmpq	$0, (%rdi)
	movl	$1, %edx
	cmovbeq	%rcx, %rdx
	cmpq	$0, %rdx
	movq	%rdi, -16(%rbp)
	jne	LBB66_2
LBB66_1:
	addq	$16, %rsp
	popq	%rbp
	retq
LBB66_2:
	movq	-16(%rbp), %rax
	movq	%rax, %rdi
	callq	__ZN4core3ptr13drop_in_place17h8a90ae2280028653E
	jmp	LBB66_1
	.cfi_endproc

	.p2align	4, 0x90
__ZN4core3ptr13drop_in_place17h178b5f350b0e8febE:
Lfunc_begin8:
	.cfi_startproc
	.cfi_personality 155, _rust_eh_personality
	.cfi_lsda 16, Lexception8
	pushq	%rbp
	.cfi_def_cfa_offset 16
	.cfi_offset %rbp, -16
	movq	%rsp, %rbp
	.cfi_def_cfa_register %rbp
	subq	$32, %rsp
Ltmp32:
	movq	%rdi, -32(%rbp)
	callq	__ZN4core3ptr13drop_in_place17h92748d1e2ea1671bE
Ltmp33:
	jmp	LBB67_4
LBB67_1:
	movq	-16(%rbp), %rdi
	callq	__Unwind_Resume
	ud2
LBB67_2:
	addq	$32, %rsp
	popq	%rbp
	retq
LBB67_3:
	movq	-32(%rbp), %rax
	addq	$24, %rax
	movq	%rax, %rdi
	callq	__ZN4core3ptr13drop_in_place17h92748d1e2ea1671bE
	jmp	LBB67_1
LBB67_4:
	movq	-32(%rbp), %rax
	addq	$24, %rax
	movq	%rax, %rdi
	callq	__ZN4core3ptr13drop_in_place17h92748d1e2ea1671bE
	jmp	LBB67_2
LBB67_5:
Ltmp34:
	movq	%rax, -16(%rbp)
	movl	%edx, -8(%rbp)
	jmp	LBB67_3
Lfunc_end8:
	.cfi_endproc
	.section	__TEXT,__gcc_except_tab
	.p2align	2
GCC_except_table67:
Lexception8:
	.byte	255
	.byte	255
	.byte	1
	.uleb128 Lcst_end8-Lcst_begin8
Lcst_begin8:
	.uleb128 Ltmp32-Lfunc_begin8
	.uleb128 Ltmp33-Ltmp32
	.uleb128 Ltmp34-Lfunc_begin8
	.byte	0
	.uleb128 Ltmp33-Lfunc_begin8
	.uleb128 Lfunc_end8-Ltmp33
	.byte	0
	.byte	0
Lcst_end8:
	.p2align	2

	.section	__TEXT,__text,regular,pure_instructions
	.p2align	4, 0x90
__ZN4core3ptr13drop_in_place17h1b67c8821adb1f4aE:
	.cfi_startproc
	pushq	%rbp
	.cfi_def_cfa_offset 16
	.cfi_offset %rbp, -16
	movq	%rsp, %rbp
	.cfi_def_cfa_register %rbp
	subq	$16, %rsp
	callq	__ZN4core3ptr13drop_in_place17hdb9e2fce3eea6046E
	addq	$16, %rsp
	popq	%rbp
	retq
	.cfi_endproc

	.p2align	4, 0x90
__ZN4core3ptr13drop_in_place17h1d39e4861fc477dfE:
Lfunc_begin9:
	.cfi_startproc
	.cfi_personality 155, _rust_eh_personality
	.cfi_lsda 16, Lexception9
	pushq	%rbp
	.cfi_def_cfa_offset 16
	.cfi_offset %rbp, -16
	movq	%rsp, %rbp
	.cfi_def_cfa_register %rbp
	subq	$32, %rsp
Ltmp35:
	movq	%rdi, -32(%rbp)
	callq	__ZN4core3ptr13drop_in_place17h4daf66fa534eff53E
Ltmp36:
	jmp	LBB69_18
LBB69_1:
	movq	-16(%rbp), %rdi
	callq	__Unwind_Resume
	ud2
LBB69_2:
	addq	$32, %rsp
	popq	%rbp
	retq
LBB69_3:
	movq	-32(%rbp), %rax
	addq	$168, %rax
	movq	%rax, %rdi
	callq	__ZN4core3ptr13drop_in_place17h861082b4060959cdE
	jmp	LBB69_1
LBB69_4:
	movq	-32(%rbp), %rax
	addq	$160, %rax
	movq	%rax, %rdi
	callq	__ZN4core3ptr13drop_in_place17h861082b4060959cdE
	jmp	LBB69_3
LBB69_5:
	movq	-32(%rbp), %rax
	addq	$152, %rax
	movq	%rax, %rdi
	callq	__ZN4core3ptr13drop_in_place17h861082b4060959cdE
	jmp	LBB69_4
LBB69_6:
	movq	-32(%rbp), %rax
	addq	$112, %rax
	movq	%rax, %rdi
	callq	__ZN4core3ptr13drop_in_place17heb5719ae406bb5c7E
	jmp	LBB69_5
LBB69_7:
	movq	-32(%rbp), %rax
	addq	$96, %rax
	movq	%rax, %rdi
	callq	__ZN4core3ptr13drop_in_place17hf1009031532e510fE
	jmp	LBB69_6
LBB69_8:
	movq	-32(%rbp), %rax
	addq	$64, %rax
	movq	%rax, %rdi
	callq	__ZN4core3ptr13drop_in_place17h9cdb826df865a610E
	jmp	LBB69_7
LBB69_9:
	movq	-32(%rbp), %rax
	addq	$40, %rax
	movq	%rax, %rdi
	callq	__ZN4core3ptr13drop_in_place17h29695af87961660aE
	jmp	LBB69_8
LBB69_10:
	movq	-32(%rbp), %rax
	addq	$16, %rax
	movq	%rax, %rdi
	callq	__ZN4core3ptr13drop_in_place17h53a545ff229e6eeeE
	jmp	LBB69_9
LBB69_11:
	movq	-32(%rbp), %rax
	addq	$168, %rax
	movq	%rax, %rdi
	callq	__ZN4core3ptr13drop_in_place17h861082b4060959cdE
	jmp	LBB69_2
LBB69_12:
	movq	-32(%rbp), %rax
	addq	$160, %rax
Ltmp56:
	movq	%rax, %rdi
	callq	__ZN4core3ptr13drop_in_place17h861082b4060959cdE
Ltmp57:
	jmp	LBB69_11
LBB69_13:
	movq	-32(%rbp), %rax
	addq	$152, %rax
Ltmp53:
	movq	%rax, %rdi
	callq	__ZN4core3ptr13drop_in_place17h861082b4060959cdE
Ltmp54:
	jmp	LBB69_12
LBB69_14:
	movq	-32(%rbp), %rax
	addq	$112, %rax
Ltmp50:
	movq	%rax, %rdi
	callq	__ZN4core3ptr13drop_in_place17heb5719ae406bb5c7E
Ltmp51:
	jmp	LBB69_13
LBB69_15:
	movq	-32(%rbp), %rax
	addq	$96, %rax
Ltmp47:
	movq	%rax, %rdi
	callq	__ZN4core3ptr13drop_in_place17hf1009031532e510fE
Ltmp48:
	jmp	LBB69_14
LBB69_16:
	movq	-32(%rbp), %rax
	addq	$64, %rax
Ltmp44:
	movq	%rax, %rdi
	callq	__ZN4core3ptr13drop_in_place17h9cdb826df865a610E
Ltmp45:
	jmp	LBB69_15
LBB69_17:
	movq	-32(%rbp), %rax
	addq	$40, %rax
Ltmp41:
	movq	%rax, %rdi
	callq	__ZN4core3ptr13drop_in_place17h29695af87961660aE
Ltmp42:
	jmp	LBB69_16
LBB69_18:
	movq	-32(%rbp), %rax
	addq	$16, %rax
Ltmp38:
	movq	%rax, %rdi
	callq	__ZN4core3ptr13drop_in_place17h53a545ff229e6eeeE
Ltmp39:
	jmp	LBB69_17
LBB69_19:
Ltmp37:
	movq	%rax, -16(%rbp)
	movl	%edx, -8(%rbp)
	jmp	LBB69_10
LBB69_20:
Ltmp40:
	movq	%rax, -16(%rbp)
	movl	%edx, -8(%rbp)
	jmp	LBB69_9
LBB69_21:
Ltmp43:
	movq	%rax, -16(%rbp)
	movl	%edx, -8(%rbp)
	jmp	LBB69_8
LBB69_22:
Ltmp46:
	movq	%rax, -16(%rbp)
	movl	%edx, -8(%rbp)
	jmp	LBB69_7
LBB69_23:
Ltmp49:
	movq	%rax, -16(%rbp)
	movl	%edx, -8(%rbp)
	jmp	LBB69_6
LBB69_24:
Ltmp52:
	movq	%rax, -16(%rbp)
	movl	%edx, -8(%rbp)
	jmp	LBB69_5
LBB69_25:
Ltmp55:
	movq	%rax, -16(%rbp)
	movl	%edx, -8(%rbp)
	jmp	LBB69_4
LBB69_26:
Ltmp58:
	movq	%rax, -16(%rbp)
	movl	%edx, -8(%rbp)
	jmp	LBB69_3
Lfunc_end9:
	.cfi_endproc
	.section	__TEXT,__gcc_except_tab
	.p2align	2
GCC_except_table69:
Lexception9:
	.byte	255
	.byte	255
	.byte	1
	.uleb128 Lcst_end9-Lcst_begin9
Lcst_begin9:
	.uleb128 Ltmp35-Lfunc_begin9
	.uleb128 Ltmp36-Ltmp35
	.uleb128 Ltmp37-Lfunc_begin9
	.byte	0
	.uleb128 Ltmp36-Lfunc_begin9
	.uleb128 Ltmp56-Ltmp36
	.byte	0
	.byte	0
	.uleb128 Ltmp56-Lfunc_begin9
	.uleb128 Ltmp57-Ltmp56
	.uleb128 Ltmp58-Lfunc_begin9
	.byte	0
	.uleb128 Ltmp53-Lfunc_begin9
	.uleb128 Ltmp54-Ltmp53
	.uleb128 Ltmp55-Lfunc_begin9
	.byte	0
	.uleb128 Ltmp50-Lfunc_begin9
	.uleb128 Ltmp51-Ltmp50
	.uleb128 Ltmp52-Lfunc_begin9
	.byte	0
	.uleb128 Ltmp47-Lfunc_begin9
	.uleb128 Ltmp48-Ltmp47
	.uleb128 Ltmp49-Lfunc_begin9
	.byte	0
	.uleb128 Ltmp44-Lfunc_begin9
	.uleb128 Ltmp45-Ltmp44
	.uleb128 Ltmp46-Lfunc_begin9
	.byte	0
	.uleb128 Ltmp41-Lfunc_begin9
	.uleb128 Ltmp42-Ltmp41
	.uleb128 Ltmp43-Lfunc_begin9
	.byte	0
	.uleb128 Ltmp38-Lfunc_begin9
	.uleb128 Ltmp39-Ltmp38
	.uleb128 Ltmp40-Lfunc_begin9
	.byte	0
Lcst_end9:
	.p2align	2

	.section	__TEXT,__text,regular,pure_instructions
	.p2align	4, 0x90
__ZN4core3ptr13drop_in_place17h28456e16ba6c1958E:
	.cfi_startproc
	pushq	%rbp
	.cfi_def_cfa_offset 16
	.cfi_offset %rbp, -16
	movq	%rsp, %rbp
	.cfi_def_cfa_register %rbp
	subq	$16, %rsp
	movl	(%rdi), %eax
	subl	$2, %eax
	movq	%rdi, -16(%rbp)
	ja	LBB70_2
	jmp	LBB70_1
LBB70_1:
	addq	$16, %rsp
	popq	%rbp
	retq
LBB70_2:
	movq	-16(%rbp), %rax
	addq	$4, %rax
	movq	%rax, %rdi
	callq	__ZN4core3ptr13drop_in_place17hcbffee820042908bE
	jmp	LBB70_1
	.cfi_endproc

	.p2align	4, 0x90
__ZN4core3ptr13drop_in_place17h29695af87961660aE:
	.cfi_startproc
	pushq	%rbp
	.cfi_def_cfa_offset 16
	.cfi_offset %rbp, -16
	movq	%rsp, %rbp
	.cfi_def_cfa_register %rbp
	subq	$16, %rsp
	callq	__ZN4core3ptr13drop_in_place17hddc410981ddf86bcE
	addq	$16, %rsp
	popq	%rbp
	retq
	.cfi_endproc

	.p2align	4, 0x90
__ZN4core3ptr13drop_in_place17h37700a5d1295ea94E:
	.cfi_startproc
	pushq	%rbp
	.cfi_def_cfa_offset 16
	.cfi_offset %rbp, -16
	movq	%rsp, %rbp
	.cfi_def_cfa_register %rbp
	subq	$16, %rsp
	callq	*(%rsi)
	addq	$16, %rsp
	popq	%rbp
	retq
	.cfi_endproc

	.p2align	4, 0x90
__ZN4core3ptr13drop_in_place17h4339cb202497291cE:
	.cfi_startproc
	pushq	%rbp
	.cfi_def_cfa_offset 16
	.cfi_offset %rbp, -16
	movq	%rsp, %rbp
	.cfi_def_cfa_register %rbp
	subq	$16, %rsp
	cmpq	$0, (%rdi)
	movq	%rdi, -16(%rbp)
	jne	LBB73_2
LBB73_1:
	addq	$16, %rsp
	popq	%rbp
	retq
LBB73_2:
	movq	-16(%rbp), %rax
	addq	$8, %rax
	movq	%rax, %rdi
	callq	__ZN4core3ptr13drop_in_place17h762e7e59ededae4fE
	jmp	LBB73_1
	.cfi_endproc

	.p2align	4, 0x90
__ZN4core3ptr13drop_in_place17h466c6fc34f14cbeaE:
	.cfi_startproc
	pushq	%rbp
	.cfi_def_cfa_offset 16
	.cfi_offset %rbp, -16
	movq	%rsp, %rbp
	.cfi_def_cfa_register %rbp
	subq	$16, %rsp
	callq	__ZN95_$LT$alloc..collections..btree..map..BTreeMap$LT$K$C$V$GT$$u20$as$u20$core..ops..drop..Drop$GT$4drop17h0a12f73628f700d3E
	addq	$16, %rsp
	popq	%rbp
	retq
	.cfi_endproc

	.p2align	4, 0x90
__ZN4core3ptr13drop_in_place17h4d917f2c5637657eE:
Lfunc_begin10:
	.cfi_startproc
	.cfi_personality 155, _rust_eh_personality
	.cfi_lsda 16, Lexception10
	pushq	%rbp
	.cfi_def_cfa_offset 16
	.cfi_offset %rbp, -16
	movq	%rsp, %rbp
	.cfi_def_cfa_register %rbp
	subq	$64, %rsp
	xorl	%eax, %eax
	testb	$1, %al
	movq	%rdi, -56(%rbp)
	movq	%rsi, -64(%rbp)
	jne	LBB75_7
	jmp	LBB75_12
LBB75_1:
	addq	$64, %rsp
	popq	%rbp
	retq
LBB75_2:
	movq	-16(%rbp), %rdi
	callq	__Unwind_Resume
	ud2
LBB75_3:
	movq	-40(%rbp), %rax
	shlq	$4, %rax
	movq	-56(%rbp), %rcx
	addq	%rax, %rcx
	movq	-40(%rbp), %rax
	addq	$1, %rax
	movq	%rax, -40(%rbp)
	movq	%rcx, %rdi
	callq	__ZN4core3ptr13drop_in_place17he8c29a91fb691f88E
LBB75_4:
	movq	-64(%rbp), %rax
	cmpq	%rax, -40(%rbp)
	je	LBB75_2
	jmp	LBB75_3
LBB75_5:
	movq	-40(%rbp), %rax
	movq	%rax, %rcx
	shlq	$4, %rcx
	movq	-56(%rbp), %rdx
	addq	%rcx, %rdx
	incq	%rax
	movq	%rax, -40(%rbp)
Ltmp62:
	movq	%rdx, %rdi
	callq	__ZN4core3ptr13drop_in_place17he8c29a91fb691f88E
Ltmp63:
	jmp	LBB75_6
LBB75_6:
	movq	-64(%rbp), %rax
	cmpq	%rax, -40(%rbp)
	je	LBB75_1
	jmp	LBB75_5
LBB75_7:
	movq	$0, -40(%rbp)
	jmp	LBB75_6
LBB75_8:
	movq	-32(%rbp), %rdi
	movq	-32(%rbp), %rax
	addq	$16, %rax
	movq	%rax, -32(%rbp)
	callq	__ZN4core3ptr13drop_in_place17he8c29a91fb691f88E
LBB75_9:
	movq	-32(%rbp), %rax
	cmpq	-24(%rbp), %rax
	je	LBB75_2
	jmp	LBB75_8
LBB75_10:
	movq	-32(%rbp), %rax
	movq	%rax, %rcx
	addq	$16, %rcx
	movq	%rcx, -32(%rbp)
Ltmp59:
	movq	%rax, %rdi
	callq	__ZN4core3ptr13drop_in_place17he8c29a91fb691f88E
Ltmp60:
	jmp	LBB75_11
LBB75_11:
	movq	-32(%rbp), %rax
	cmpq	-24(%rbp), %rax
	je	LBB75_1
	jmp	LBB75_10
LBB75_12:
	movq	-56(%rbp), %rax
	movq	%rax, -32(%rbp)
	movq	-64(%rbp), %rax
	shlq	$4, %rax
	addq	-32(%rbp), %rax
	movq	%rax, -24(%rbp)
	jmp	LBB75_11
LBB75_13:
Ltmp61:
	movq	%rax, -16(%rbp)
	movl	%edx, -8(%rbp)
	jmp	LBB75_9
LBB75_14:
Ltmp64:
	movq	%rax, -16(%rbp)
	movl	%edx, -8(%rbp)
	jmp	LBB75_4
Lfunc_end10:
	.cfi_endproc
	.section	__TEXT,__gcc_except_tab
	.p2align	2
GCC_except_table75:
Lexception10:
	.byte	255
	.byte	255
	.byte	1
	.uleb128 Lcst_end10-Lcst_begin10
Lcst_begin10:
	.uleb128 Lfunc_begin10-Lfunc_begin10
	.uleb128 Ltmp62-Lfunc_begin10
	.byte	0
	.byte	0
	.uleb128 Ltmp62-Lfunc_begin10
	.uleb128 Ltmp63-Ltmp62
	.uleb128 Ltmp64-Lfunc_begin10
	.byte	0
	.uleb128 Ltmp63-Lfunc_begin10
	.uleb128 Ltmp59-Ltmp63
	.byte	0
	.byte	0
	.uleb128 Ltmp59-Lfunc_begin10
	.uleb128 Ltmp60-Ltmp59
	.uleb128 Ltmp61-Lfunc_begin10
	.byte	0
Lcst_end10:
	.p2align	2

	.section	__TEXT,__text,regular,pure_instructions
	.p2align	4, 0x90
__ZN4core3ptr13drop_in_place17h4daf66fa534eff53E:
Lfunc_begin11:
	.cfi_startproc
	.cfi_personality 155, _rust_eh_personality
	.cfi_lsda 16, Lexception11
	pushq	%rbp
	.cfi_def_cfa_offset 16
	.cfi_offset %rbp, -16
	movq	%rsp, %rbp
	.cfi_def_cfa_register %rbp
	subq	$32, %rsp
Ltmp65:
	movq	%rdi, -32(%rbp)
	callq	__ZN66_$LT$std..ffi..c_str..CString$u20$as$u20$core..ops..drop..Drop$GT$4drop17hfc69a36c6f8da9aaE
Ltmp66:
	jmp	LBB76_4
LBB76_1:
	movq	-16(%rbp), %rdi
	callq	__Unwind_Resume
	ud2
LBB76_2:
	addq	$32, %rsp
	popq	%rbp
	retq
LBB76_3:
	movq	-32(%rbp), %rax
	movq	%rax, %rdi
	callq	__ZN4core3ptr13drop_in_place17h105cf116a9852c79E
	jmp	LBB76_1
LBB76_4:
	movq	-32(%rbp), %rax
	movq	%rax, %rdi
	callq	__ZN4core3ptr13drop_in_place17h105cf116a9852c79E
	jmp	LBB76_2
LBB76_5:
Ltmp67:
	movq	%rax, -16(%rbp)
	movl	%edx, -8(%rbp)
	jmp	LBB76_3
Lfunc_end11:
	.cfi_endproc
	.section	__TEXT,__gcc_except_tab
	.p2align	2
GCC_except_table76:
Lexception11:
	.byte	255
	.byte	255
	.byte	1
	.uleb128 Lcst_end11-Lcst_begin11
Lcst_begin11:
	.uleb128 Ltmp65-Lfunc_begin11
	.uleb128 Ltmp66-Ltmp65
	.uleb128 Ltmp67-Lfunc_begin11
	.byte	0
	.uleb128 Ltmp66-Lfunc_begin11
	.uleb128 Lfunc_end11-Ltmp66
	.byte	0
	.byte	0
Lcst_end11:
	.p2align	2

	.section	__TEXT,__text,regular,pure_instructions
	.p2align	4, 0x90
__ZN4core3ptr13drop_in_place17h53a545ff229e6eeeE:
Lfunc_begin12:
	.cfi_startproc
	.cfi_personality 155, _rust_eh_personality
	.cfi_lsda 16, Lexception12
	pushq	%rbp
	.cfi_def_cfa_offset 16
	.cfi_offset %rbp, -16
	movq	%rsp, %rbp
	.cfi_def_cfa_register %rbp
	subq	$32, %rsp
Ltmp68:
	movq	%rdi, -32(%rbp)
	callq	__ZN66_$LT$alloc..vec..Vec$LT$T$GT$$u20$as$u20$core..ops..drop..Drop$GT$4drop17h65c9486e44c24751E
Ltmp69:
	jmp	LBB77_4
LBB77_1:
	movq	-16(%rbp), %rdi
	callq	__Unwind_Resume
	ud2
LBB77_2:
	addq	$32, %rsp
	popq	%rbp
	retq
LBB77_3:
	movq	-32(%rbp), %rax
	movq	%rax, %rdi
	callq	__ZN4core3ptr13drop_in_place17hf157842934212cafE
	jmp	LBB77_1
LBB77_4:
	movq	-32(%rbp), %rax
	movq	%rax, %rdi
	callq	__ZN4core3ptr13drop_in_place17hf157842934212cafE
	jmp	LBB77_2
LBB77_5:
Ltmp70:
	movq	%rax, -16(%rbp)
	movl	%edx, -8(%rbp)
	jmp	LBB77_3
Lfunc_end12:
	.cfi_endproc
	.section	__TEXT,__gcc_except_tab
	.p2align	2
GCC_except_table77:
Lexception12:
	.byte	255
	.byte	255
	.byte	1
	.uleb128 Lcst_end12-Lcst_begin12
Lcst_begin12:
	.uleb128 Ltmp68-Lfunc_begin12
	.uleb128 Ltmp69-Ltmp68
	.uleb128 Ltmp70-Lfunc_begin12
	.byte	0
	.uleb128 Ltmp69-Lfunc_begin12
	.uleb128 Lfunc_end12-Ltmp69
	.byte	0
	.byte	0
Lcst_end12:
	.p2align	2

	.section	__TEXT,__text,regular,pure_instructions
	.p2align	4, 0x90
__ZN4core3ptr13drop_in_place17h5884c06f2c48e497E:
	.cfi_startproc
	pushq	%rbp
	.cfi_def_cfa_offset 16
	.cfi_offset %rbp, -16
	movq	%rsp, %rbp
	.cfi_def_cfa_register %rbp
	subq	$16, %rsp
	callq	__ZN4core3ptr13drop_in_place17hbe2f36b719ef20f4E
	addq	$16, %rsp
	popq	%rbp
	retq
	.cfi_endproc

	.p2align	4, 0x90
__ZN4core3ptr13drop_in_place17h5a866965d1ae3343E:
	.cfi_startproc
	pushq	%rbp
	.cfi_def_cfa_offset 16
	.cfi_offset %rbp, -16
	movq	%rsp, %rbp
	.cfi_def_cfa_register %rbp
	subq	$16, %rsp
	callq	__ZN77_$LT$alloc..raw_vec..RawVec$LT$T$C$A$GT$$u20$as$u20$core..ops..drop..Drop$GT$4drop17h20bd69d45f003ca9E
	addq	$16, %rsp
	popq	%rbp
	retq
	.cfi_endproc

	.p2align	4, 0x90
__ZN4core3ptr13drop_in_place17h6915a8ad060d0e3bE:
	.cfi_startproc
	pushq	%rbp
	.cfi_def_cfa_offset 16
	.cfi_offset %rbp, -16
	movq	%rsp, %rbp
	.cfi_def_cfa_register %rbp
	subq	$16, %rsp
	callq	__ZN77_$LT$alloc..raw_vec..RawVec$LT$T$C$A$GT$$u20$as$u20$core..ops..drop..Drop$GT$4drop17h7a7fe34c27d2d501E
	addq	$16, %rsp
	popq	%rbp
	retq
	.cfi_endproc

	.p2align	4, 0x90
__ZN4core3ptr13drop_in_place17h72b8995b402a0fe0E:
	.cfi_startproc
	pushq	%rbp
	.cfi_def_cfa_offset 16
	.cfi_offset %rbp, -16
	movq	%rsp, %rbp
	.cfi_def_cfa_register %rbp
	subq	$16, %rsp
	callq	__ZN95_$LT$alloc..collections..btree..map..IntoIter$LT$K$C$V$GT$$u20$as$u20$core..ops..drop..Drop$GT$4drop17hc20392f5d6492892E
	addq	$16, %rsp
	popq	%rbp
	retq
	.cfi_endproc

	.p2align	4, 0x90
__ZN4core3ptr13drop_in_place17h762e7e59ededae4fE:
	.cfi_startproc
	pushq	%rbp
	.cfi_def_cfa_offset 16
	.cfi_offset %rbp, -16
	movq	%rsp, %rbp
	.cfi_def_cfa_register %rbp
	subq	$16, %rsp
	callq	__ZN4core3ptr13drop_in_place17h92748d1e2ea1671bE
	addq	$16, %rsp
	popq	%rbp
	retq
	.cfi_endproc

	.p2align	4, 0x90
__ZN4core3ptr13drop_in_place17h7f94e954c254134fE:
	.cfi_startproc
	pushq	%rbp
	.cfi_def_cfa_offset 16
	.cfi_offset %rbp, -16
	movq	%rsp, %rbp
	.cfi_def_cfa_register %rbp
	subq	$16, %rsp
	xorl	%eax, %eax
	movl	%eax, %ecx
	cmpq	$0, (%rdi)
	movl	$1, %edx
	cmovbeq	%rcx, %rdx
	cmpq	$0, %rdx
	movq	%rdi, -16(%rbp)
	jne	LBB83_2
LBB83_1:
	addq	$16, %rsp
	popq	%rbp
	retq
LBB83_2:
	movq	-16(%rbp), %rax
	movq	%rax, %rdi
	callq	__ZN4core3ptr13drop_in_place17h873402ea5c698450E
	jmp	LBB83_1
	.cfi_endproc

	.p2align	4, 0x90
__ZN4core3ptr13drop_in_place17h861082b4060959cdE:
	.cfi_startproc
	pushq	%rbp
	.cfi_def_cfa_offset 16
	.cfi_offset %rbp, -16
	movq	%rsp, %rbp
	.cfi_def_cfa_register %rbp
	subq	$16, %rsp
	xorl	%eax, %eax
	movl	%eax, %ecx
	movl	(%rdi), %eax
	subl	$4, %eax
	cmpl	$0, %eax
	movl	$1, %edx
	cmovbeq	%rcx, %rdx
	cmpq	$0, %rdx
	movq	%rdi, -16(%rbp)
	jne	LBB84_2
LBB84_1:
	addq	$16, %rsp
	popq	%rbp
	retq
LBB84_2:
	movq	-16(%rbp), %rdi
	callq	__ZN4core3ptr13drop_in_place17h28456e16ba6c1958E
	jmp	LBB84_1
	.cfi_endproc

	.p2align	4, 0x90
__ZN4core3ptr13drop_in_place17h873402ea5c698450E:
Lfunc_begin13:
	.cfi_startproc
	.cfi_personality 155, _rust_eh_personality
	.cfi_lsda 16, Lexception13
	pushq	%rbp
	.cfi_def_cfa_offset 16
	.cfi_offset %rbp, -16
	movq	%rsp, %rbp
	.cfi_def_cfa_register %rbp
	subq	$32, %rsp
Ltmp71:
	movq	%rdi, -32(%rbp)
	callq	__ZN4core3ptr13drop_in_place17h8a90ae2280028653E
Ltmp72:
	jmp	LBB85_4
LBB85_1:
	movq	-16(%rbp), %rdi
	callq	__Unwind_Resume
	ud2
LBB85_2:
	addq	$32, %rsp
	popq	%rbp
	retq
LBB85_3:
	movq	-32(%rbp), %rax
	addq	$24, %rax
	movq	%rax, %rdi
	callq	__ZN4core3ptr13drop_in_place17h142d2c41a7ae2572E
	jmp	LBB85_1
LBB85_4:
	movq	-32(%rbp), %rax
	addq	$24, %rax
	movq	%rax, %rdi
	callq	__ZN4core3ptr13drop_in_place17h142d2c41a7ae2572E
	jmp	LBB85_2
LBB85_5:
Ltmp73:
	movq	%rax, -16(%rbp)
	movl	%edx, -8(%rbp)
	jmp	LBB85_3
Lfunc_end13:
	.cfi_endproc
	.section	__TEXT,__gcc_except_tab
	.p2align	2
GCC_except_table85:
Lexception13:
	.byte	255
	.byte	255
	.byte	1
	.uleb128 Lcst_end13-Lcst_begin13
Lcst_begin13:
	.uleb128 Ltmp71-Lfunc_begin13
	.uleb128 Ltmp72-Ltmp71
	.uleb128 Ltmp73-Lfunc_begin13
	.byte	0
	.uleb128 Ltmp72-Lfunc_begin13
	.uleb128 Lfunc_end13-Ltmp72
	.byte	0
	.byte	0
Lcst_end13:
	.p2align	2

	.section	__TEXT,__text,regular,pure_instructions
	.p2align	4, 0x90
__ZN4core3ptr13drop_in_place17h8a90ae2280028653E:
	.cfi_startproc
	pushq	%rbp
	.cfi_def_cfa_offset 16
	.cfi_offset %rbp, -16
	movq	%rsp, %rbp
	.cfi_def_cfa_register %rbp
	subq	$16, %rsp
	callq	__ZN4core3ptr13drop_in_place17hc93ad6b8b4b048beE
	addq	$16, %rsp
	popq	%rbp
	retq
	.cfi_endproc

	.p2align	4, 0x90
__ZN4core3ptr13drop_in_place17h92748d1e2ea1671bE:
Lfunc_begin14:
	.cfi_startproc
	.cfi_personality 155, _rust_eh_personality
	.cfi_lsda 16, Lexception14
	pushq	%rbp
	.cfi_def_cfa_offset 16
	.cfi_offset %rbp, -16
	movq	%rsp, %rbp
	.cfi_def_cfa_register %rbp
	subq	$32, %rsp
Ltmp74:
	movq	%rdi, -32(%rbp)
	callq	__ZN66_$LT$alloc..vec..Vec$LT$T$GT$$u20$as$u20$core..ops..drop..Drop$GT$4drop17h019f902b800659eaE
Ltmp75:
	jmp	LBB87_4
LBB87_1:
	movq	-16(%rbp), %rdi
	callq	__Unwind_Resume
	ud2
LBB87_2:
	addq	$32, %rsp
	popq	%rbp
	retq
LBB87_3:
	movq	-32(%rbp), %rax
	movq	%rax, %rdi
	callq	__ZN4core3ptr13drop_in_place17hbe8b676332ccf25aE
	jmp	LBB87_1
LBB87_4:
	movq	-32(%rbp), %rax
	movq	%rax, %rdi
	callq	__ZN4core3ptr13drop_in_place17hbe8b676332ccf25aE
	jmp	LBB87_2
LBB87_5:
Ltmp76:
	movq	%rax, -16(%rbp)
	movl	%edx, -8(%rbp)
	jmp	LBB87_3
Lfunc_end14:
	.cfi_endproc
	.section	__TEXT,__gcc_except_tab
	.p2align	2
GCC_except_table87:
Lexception14:
	.byte	255
	.byte	255
	.byte	1
	.uleb128 Lcst_end14-Lcst_begin14
Lcst_begin14:
	.uleb128 Ltmp74-Lfunc_begin14
	.uleb128 Ltmp75-Ltmp74
	.uleb128 Ltmp76-Lfunc_begin14
	.byte	0
	.uleb128 Ltmp75-Lfunc_begin14
	.uleb128 Lfunc_end14-Ltmp75
	.byte	0
	.byte	0
Lcst_end14:
	.p2align	2

	.section	__TEXT,__text,regular,pure_instructions
	.p2align	4, 0x90
__ZN4core3ptr13drop_in_place17h9cdb826df865a610E:
	.cfi_startproc
	pushq	%rbp
	.cfi_def_cfa_offset 16
	.cfi_offset %rbp, -16
	movq	%rsp, %rbp
	.cfi_def_cfa_register %rbp
	subq	$16, %rsp
	callq	__ZN4core3ptr13drop_in_place17h466c6fc34f14cbeaE
	addq	$16, %rsp
	popq	%rbp
	retq
	.cfi_endproc

	.p2align	4, 0x90
__ZN4core3ptr13drop_in_place17ha225d73ed2e5a4caE:
	.cfi_startproc
	pushq	%rbp
	.cfi_def_cfa_offset 16
	.cfi_offset %rbp, -16
	movq	%rsp, %rbp
	.cfi_def_cfa_register %rbp
	pushq	%rax
	addq	$8, %rsp
	popq	%rbp
	retq
	.cfi_endproc

	.p2align	4, 0x90
__ZN4core3ptr13drop_in_place17hbe2f36b719ef20f4E:
	.cfi_startproc
	pushq	%rbp
	.cfi_def_cfa_offset 16
	.cfi_offset %rbp, -16
	movq	%rsp, %rbp
	.cfi_def_cfa_register %rbp
	subq	$16, %rsp
	movb	(%rdi), %al
	subb	$1, %al
	movq	%rdi, -16(%rbp)
	ja	LBB90_2
	jmp	LBB90_1
LBB90_1:
	addq	$16, %rsp
	popq	%rbp
	retq
LBB90_2:
	movq	-16(%rbp), %rax
	addq	$8, %rax
	movq	%rax, %rdi
	callq	__ZN4core3ptr13drop_in_place17hfaccc41e10340a9aE
	jmp	LBB90_1
	.cfi_endproc

	.p2align	4, 0x90
__ZN4core3ptr13drop_in_place17hbe8b676332ccf25aE:
	.cfi_startproc
	pushq	%rbp
	.cfi_def_cfa_offset 16
	.cfi_offset %rbp, -16
	movq	%rsp, %rbp
	.cfi_def_cfa_register %rbp
	subq	$16, %rsp
	callq	__ZN77_$LT$alloc..raw_vec..RawVec$LT$T$C$A$GT$$u20$as$u20$core..ops..drop..Drop$GT$4drop17hd394de3e8b735db0E
	addq	$16, %rsp
	popq	%rbp
	retq
	.cfi_endproc

	.p2align	4, 0x90
__ZN4core3ptr13drop_in_place17hc1dddbebbd7e74deE:
	.cfi_startproc
	pushq	%rbp
	.cfi_def_cfa_offset 16
	.cfi_offset %rbp, -16
	movq	%rsp, %rbp
	.cfi_def_cfa_register %rbp
	subq	$16, %rsp
	callq	__ZN166_$LT$$LT$alloc..collections..btree..map..IntoIter$LT$K$C$V$GT$$u20$as$u20$core..ops..drop..Drop$GT$..drop..DropGuard$LT$K$C$V$GT$$u20$as$u20$core..ops..drop..Drop$GT$4drop17h82287e38585f84aeE
	addq	$16, %rsp
	popq	%rbp
	retq
	.cfi_endproc

	.p2align	4, 0x90
__ZN4core3ptr13drop_in_place17hc93ad6b8b4b048beE:
	.cfi_startproc
	pushq	%rbp
	.cfi_def_cfa_offset 16
	.cfi_offset %rbp, -16
	movq	%rsp, %rbp
	.cfi_def_cfa_register %rbp
	subq	$16, %rsp
	callq	__ZN4core3ptr13drop_in_place17h92748d1e2ea1671bE
	addq	$16, %rsp
	popq	%rbp
	retq
	.cfi_endproc

	.p2align	4, 0x90
__ZN4core3ptr13drop_in_place17hcbffee820042908bE:
	.cfi_startproc
	pushq	%rbp
	.cfi_def_cfa_offset 16
	.cfi_offset %rbp, -16
	movq	%rsp, %rbp
	.cfi_def_cfa_register %rbp
	subq	$16, %rsp
	callq	__ZN70_$LT$std..sys..unix..fd..FileDesc$u20$as$u20$core..ops..drop..Drop$GT$4drop17h633394f1cf9da1c8E
	addq	$16, %rsp
	popq	%rbp
	retq
	.cfi_endproc

	.p2align	4, 0x90
__ZN4core3ptr13drop_in_place17hd90cb93883f6445eE:
Lfunc_begin15:
	.cfi_startproc
	.cfi_personality 155, _rust_eh_personality
	.cfi_lsda 16, Lexception15
	pushq	%rbp
	.cfi_def_cfa_offset 16
	.cfi_offset %rbp, -16
	movq	%rsp, %rbp
	.cfi_def_cfa_register %rbp
	subq	$64, %rsp
	xorl	%eax, %eax
	testb	$1, %al
	movq	%rdi, -56(%rbp)
	movq	%rsi, -64(%rbp)
	jne	LBB95_7
	jmp	LBB95_12
LBB95_1:
	addq	$64, %rsp
	popq	%rbp
	retq
LBB95_2:
	movq	-16(%rbp), %rdi
	callq	__Unwind_Resume
	ud2
LBB95_3:
	movq	-40(%rbp), %rax
	shlq	$4, %rax
	movq	-56(%rbp), %rcx
	addq	%rax, %rcx
	movq	-40(%rbp), %rax
	addq	$1, %rax
	movq	%rax, -40(%rbp)
	movq	%rcx, %rdi
	callq	__ZN4core3ptr13drop_in_place17h4daf66fa534eff53E
LBB95_4:
	movq	-64(%rbp), %rax
	cmpq	%rax, -40(%rbp)
	je	LBB95_2
	jmp	LBB95_3
LBB95_5:
	movq	-40(%rbp), %rax
	movq	%rax, %rcx
	shlq	$4, %rcx
	movq	-56(%rbp), %rdx
	addq	%rcx, %rdx
	incq	%rax
	movq	%rax, -40(%rbp)
Ltmp80:
	movq	%rdx, %rdi
	callq	__ZN4core3ptr13drop_in_place17h4daf66fa534eff53E
Ltmp81:
	jmp	LBB95_6
LBB95_6:
	movq	-64(%rbp), %rax
	cmpq	%rax, -40(%rbp)
	je	LBB95_1
	jmp	LBB95_5
LBB95_7:
	movq	$0, -40(%rbp)
	jmp	LBB95_6
LBB95_8:
	movq	-32(%rbp), %rdi
	movq	-32(%rbp), %rax
	addq	$16, %rax
	movq	%rax, -32(%rbp)
	callq	__ZN4core3ptr13drop_in_place17h4daf66fa534eff53E
LBB95_9:
	movq	-32(%rbp), %rax
	cmpq	-24(%rbp), %rax
	je	LBB95_2
	jmp	LBB95_8
LBB95_10:
	movq	-32(%rbp), %rax
	movq	%rax, %rcx
	addq	$16, %rcx
	movq	%rcx, -32(%rbp)
Ltmp77:
	movq	%rax, %rdi
	callq	__ZN4core3ptr13drop_in_place17h4daf66fa534eff53E
Ltmp78:
	jmp	LBB95_11
LBB95_11:
	movq	-32(%rbp), %rax
	cmpq	-24(%rbp), %rax
	je	LBB95_1
	jmp	LBB95_10
LBB95_12:
	movq	-56(%rbp), %rax
	movq	%rax, -32(%rbp)
	movq	-64(%rbp), %rax
	shlq	$4, %rax
	addq	-32(%rbp), %rax
	movq	%rax, -24(%rbp)
	jmp	LBB95_11
LBB95_13:
Ltmp79:
	movq	%rax, -16(%rbp)
	movl	%edx, -8(%rbp)
	jmp	LBB95_9
LBB95_14:
Ltmp82:
	movq	%rax, -16(%rbp)
	movl	%edx, -8(%rbp)
	jmp	LBB95_4
Lfunc_end15:
	.cfi_endproc
	.section	__TEXT,__gcc_except_tab
	.p2align	2
GCC_except_table95:
Lexception15:
	.byte	255
	.byte	255
	.byte	1
	.uleb128 Lcst_end15-Lcst_begin15
Lcst_begin15:
	.uleb128 Lfunc_begin15-Lfunc_begin15
	.uleb128 Ltmp80-Lfunc_begin15
	.byte	0
	.byte	0
	.uleb128 Ltmp80-Lfunc_begin15
	.uleb128 Ltmp81-Ltmp80
	.uleb128 Ltmp82-Lfunc_begin15
	.byte	0
	.uleb128 Ltmp81-Lfunc_begin15
	.uleb128 Ltmp77-Ltmp81
	.byte	0
	.byte	0
	.uleb128 Ltmp77-Lfunc_begin15
	.uleb128 Ltmp78-Ltmp77
	.uleb128 Ltmp79-Lfunc_begin15
	.byte	0
Lcst_end15:
	.p2align	2

	.section	__TEXT,__text,regular,pure_instructions
	.p2align	4, 0x90
__ZN4core3ptr13drop_in_place17hdb9e2fce3eea6046E:
Lfunc_begin16:
	.cfi_startproc
	.cfi_personality 155, _rust_eh_personality
	.cfi_lsda 16, Lexception16
	pushq	%rbp
	.cfi_def_cfa_offset 16
	.cfi_offset %rbp, -16
	movq	%rsp, %rbp
	.cfi_def_cfa_register %rbp
	subq	$32, %rsp
	movq	(%rdi), %rax
	movq	8(%rdi), %rcx
	movq	(%rcx), %rcx
Ltmp83:
	movq	%rdi, -32(%rbp)
	movq	%rax, %rdi
	callq	*%rcx
Ltmp84:
	jmp	LBB96_3
LBB96_1:
	addq	$32, %rsp
	popq	%rbp
	retq
LBB96_2:
	movq	-16(%rbp), %rdi
	callq	__Unwind_Resume
	ud2
LBB96_3:
	movq	-32(%rbp), %rax
	movq	(%rax), %rdi
	movq	8(%rax), %rsi
	callq	__ZN5alloc5alloc8box_free17h1970dd61ffdce0e5E
	jmp	LBB96_1
LBB96_4:
	movq	-32(%rbp), %rax
	movq	(%rax), %rdi
	movq	8(%rax), %rsi
	callq	__ZN5alloc5alloc8box_free17h1970dd61ffdce0e5E
	jmp	LBB96_2
LBB96_5:
Ltmp85:
	movq	%rax, -16(%rbp)
	movl	%edx, -8(%rbp)
	jmp	LBB96_4
Lfunc_end16:
	.cfi_endproc
	.section	__TEXT,__gcc_except_tab
	.p2align	2
GCC_except_table96:
Lexception16:
	.byte	255
	.byte	255
	.byte	1
	.uleb128 Lcst_end16-Lcst_begin16
Lcst_begin16:
	.uleb128 Ltmp83-Lfunc_begin16
	.uleb128 Ltmp84-Ltmp83
	.uleb128 Ltmp85-Lfunc_begin16
	.byte	0
	.uleb128 Ltmp84-Lfunc_begin16
	.uleb128 Lfunc_end16-Ltmp84
	.byte	0
	.byte	0
Lcst_end16:
	.p2align	2

	.section	__TEXT,__text,regular,pure_instructions
	.p2align	4, 0x90
__ZN4core3ptr13drop_in_place17hddc410981ddf86bcE:
Lfunc_begin17:
	.cfi_startproc
	.cfi_personality 155, _rust_eh_personality
	.cfi_lsda 16, Lexception17
	pushq	%rbp
	.cfi_def_cfa_offset 16
	.cfi_offset %rbp, -16
	movq	%rsp, %rbp
	.cfi_def_cfa_register %rbp
	subq	$32, %rsp
Ltmp86:
	movq	%rdi, -32(%rbp)
	callq	__ZN66_$LT$alloc..vec..Vec$LT$T$GT$$u20$as$u20$core..ops..drop..Drop$GT$4drop17hc1b15e7b16ff1dbbE
Ltmp87:
	jmp	LBB97_4
LBB97_1:
	movq	-16(%rbp), %rdi
	callq	__Unwind_Resume
	ud2
LBB97_2:
	addq	$32, %rsp
	popq	%rbp
	retq
LBB97_3:
	movq	-32(%rbp), %rax
	movq	%rax, %rdi
	callq	__ZN4core3ptr13drop_in_place17h6915a8ad060d0e3bE
	jmp	LBB97_1
LBB97_4:
	movq	-32(%rbp), %rax
	movq	%rax, %rdi
	callq	__ZN4core3ptr13drop_in_place17h6915a8ad060d0e3bE
	jmp	LBB97_2
LBB97_5:
Ltmp88:
	movq	%rax, -16(%rbp)
	movl	%edx, -8(%rbp)
	jmp	LBB97_3
Lfunc_end17:
	.cfi_endproc
	.section	__TEXT,__gcc_except_tab
	.p2align	2
GCC_except_table97:
Lexception17:
	.byte	255
	.byte	255
	.byte	1
	.uleb128 Lcst_end17-Lcst_begin17
Lcst_begin17:
	.uleb128 Ltmp86-Lfunc_begin17
	.uleb128 Ltmp87-Ltmp86
	.uleb128 Ltmp88-Lfunc_begin17
	.byte	0
	.uleb128 Ltmp87-Lfunc_begin17
	.uleb128 Lfunc_end17-Ltmp87
	.byte	0
	.byte	0
Lcst_end17:
	.p2align	2

	.section	__TEXT,__text,regular,pure_instructions
	.p2align	4, 0x90
__ZN4core3ptr13drop_in_place17he8c29a91fb691f88E:
Lfunc_begin18:
	.cfi_startproc
	.cfi_personality 155, _rust_eh_personality
	.cfi_lsda 16, Lexception18
	pushq	%rbp
	.cfi_def_cfa_offset 16
	.cfi_offset %rbp, -16
	movq	%rsp, %rbp
	.cfi_def_cfa_register %rbp
	subq	$32, %rsp
	movq	(%rdi), %rax
	movq	8(%rdi), %rcx
	movq	(%rcx), %rcx
Ltmp89:
	movq	%rdi, -32(%rbp)
	movq	%rax, %rdi
	callq	*%rcx
Ltmp90:
	jmp	LBB98_3
LBB98_1:
	addq	$32, %rsp
	popq	%rbp
	retq
LBB98_2:
	movq	-16(%rbp), %rdi
	callq	__Unwind_Resume
	ud2
LBB98_3:
	movq	-32(%rbp), %rax
	movq	(%rax), %rdi
	movq	8(%rax), %rsi
	callq	__ZN5alloc5alloc8box_free17ha8427bf6263ce7dfE
	jmp	LBB98_1
LBB98_4:
	movq	-32(%rbp), %rax
	movq	(%rax), %rdi
	movq	8(%rax), %rsi
	callq	__ZN5alloc5alloc8box_free17ha8427bf6263ce7dfE
	jmp	LBB98_2
LBB98_5:
Ltmp91:
	movq	%rax, -16(%rbp)
	movl	%edx, -8(%rbp)
	jmp	LBB98_4
Lfunc_end18:
	.cfi_endproc
	.section	__TEXT,__gcc_except_tab
	.p2align	2
GCC_except_table98:
Lexception18:
	.byte	255
	.byte	255
	.byte	1
	.uleb128 Lcst_end18-Lcst_begin18
Lcst_begin18:
	.uleb128 Ltmp89-Lfunc_begin18
	.uleb128 Ltmp90-Ltmp89
	.uleb128 Ltmp91-Lfunc_begin18
	.byte	0
	.uleb128 Ltmp90-Lfunc_begin18
	.uleb128 Lfunc_end18-Ltmp90
	.byte	0
	.byte	0
Lcst_end18:
	.p2align	2

	.section	__TEXT,__text,regular,pure_instructions
	.p2align	4, 0x90
__ZN4core3ptr13drop_in_place17heb5719ae406bb5c7E:
Lfunc_begin19:
	.cfi_startproc
	.cfi_personality 155, _rust_eh_personality
	.cfi_lsda 16, Lexception19
	pushq	%rbp
	.cfi_def_cfa_offset 16
	.cfi_offset %rbp, -16
	movq	%rsp, %rbp
	.cfi_def_cfa_register %rbp
	subq	$32, %rsp
Ltmp92:
	movq	%rdi, -32(%rbp)
	callq	__ZN66_$LT$alloc..vec..Vec$LT$T$GT$$u20$as$u20$core..ops..drop..Drop$GT$4drop17h44613fd8a0a03d4aE
Ltmp93:
	jmp	LBB99_4
LBB99_1:
	movq	-16(%rbp), %rdi
	callq	__Unwind_Resume
	ud2
LBB99_2:
	addq	$32, %rsp
	popq	%rbp
	retq
LBB99_3:
	movq	-32(%rbp), %rax
	movq	%rax, %rdi
	callq	__ZN4core3ptr13drop_in_place17h5a866965d1ae3343E
	jmp	LBB99_1
LBB99_4:
	movq	-32(%rbp), %rax
	movq	%rax, %rdi
	callq	__ZN4core3ptr13drop_in_place17h5a866965d1ae3343E
	jmp	LBB99_2
LBB99_5:
Ltmp94:
	movq	%rax, -16(%rbp)
	movl	%edx, -8(%rbp)
	jmp	LBB99_3
Lfunc_end19:
	.cfi_endproc
	.section	__TEXT,__gcc_except_tab
	.p2align	2
GCC_except_table99:
Lexception19:
	.byte	255
	.byte	255
	.byte	1
	.uleb128 Lcst_end19-Lcst_begin19
Lcst_begin19:
	.uleb128 Ltmp92-Lfunc_begin19
	.uleb128 Ltmp93-Ltmp92
	.uleb128 Ltmp94-Lfunc_begin19
	.byte	0
	.uleb128 Ltmp93-Lfunc_begin19
	.uleb128 Lfunc_end19-Ltmp93
	.byte	0
	.byte	0
Lcst_end19:
	.p2align	2

	.section	__TEXT,__text,regular,pure_instructions
	.p2align	4, 0x90
__ZN4core3ptr13drop_in_place17hf050c882989b9963E:
	.cfi_startproc
	pushq	%rbp
	.cfi_def_cfa_offset 16
	.cfi_offset %rbp, -16
	movq	%rsp, %rbp
	.cfi_def_cfa_register %rbp
	subq	$16, %rsp
	callq	*(%rsi)
	addq	$16, %rsp
	popq	%rbp
	retq
	.cfi_endproc

	.p2align	4, 0x90
__ZN4core3ptr13drop_in_place17hf1009031532e510fE:
	.cfi_startproc
	pushq	%rbp
	.cfi_def_cfa_offset 16
	.cfi_offset %rbp, -16
	movq	%rsp, %rbp
	.cfi_def_cfa_register %rbp
	subq	$16, %rsp
	xorl	%eax, %eax
	movl	%eax, %ecx
	cmpq	$0, (%rdi)
	movl	$1, %edx
	cmovbeq	%rcx, %rdx
	cmpq	$0, %rdx
	movq	%rdi, -16(%rbp)
	jne	LBB101_2
LBB101_1:
	addq	$16, %rsp
	popq	%rbp
	retq
LBB101_2:
	movq	-16(%rbp), %rdi
	callq	__ZN4core3ptr13drop_in_place17h4daf66fa534eff53E
	jmp	LBB101_1
	.cfi_endproc

	.p2align	4, 0x90
__ZN4core3ptr13drop_in_place17hf157842934212cafE:
	.cfi_startproc
	pushq	%rbp
	.cfi_def_cfa_offset 16
	.cfi_offset %rbp, -16
	movq	%rsp, %rbp
	.cfi_def_cfa_register %rbp
	subq	$16, %rsp
	callq	__ZN77_$LT$alloc..raw_vec..RawVec$LT$T$C$A$GT$$u20$as$u20$core..ops..drop..Drop$GT$4drop17head280f38af48370E
	addq	$16, %rsp
	popq	%rbp
	retq
	.cfi_endproc

	.p2align	4, 0x90
__ZN4core3ptr13drop_in_place17hfaccc41e10340a9aE:
Lfunc_begin20:
	.cfi_startproc
	.cfi_personality 155, _rust_eh_personality
	.cfi_lsda 16, Lexception20
	pushq	%rbp
	.cfi_def_cfa_offset 16
	.cfi_offset %rbp, -16
	movq	%rsp, %rbp
	.cfi_def_cfa_register %rbp
	subq	$32, %rsp
	movq	(%rdi), %rax
Ltmp95:
	movq	%rdi, -32(%rbp)
	movq	%rax, %rdi
	callq	__ZN4core3ptr13drop_in_place17h1b67c8821adb1f4aE
Ltmp96:
	jmp	LBB103_3
LBB103_1:
	addq	$32, %rsp
	popq	%rbp
	retq
LBB103_2:
	movq	-16(%rbp), %rdi
	callq	__Unwind_Resume
	ud2
LBB103_3:
	movq	-32(%rbp), %rax
	movq	(%rax), %rdi
	callq	__ZN5alloc5alloc8box_free17h14c0c4d2812dd3faE
	jmp	LBB103_1
LBB103_4:
	movq	-32(%rbp), %rax
	movq	(%rax), %rdi
	callq	__ZN5alloc5alloc8box_free17h14c0c4d2812dd3faE
	jmp	LBB103_2
LBB103_5:
Ltmp97:
	movq	%rax, -16(%rbp)
	movl	%edx, -8(%rbp)
	jmp	LBB103_4
Lfunc_end20:
	.cfi_endproc
	.section	__TEXT,__gcc_except_tab
	.p2align	2
GCC_except_table103:
Lexception20:
	.byte	255
	.byte	255
	.byte	1
	.uleb128 Lcst_end20-Lcst_begin20
Lcst_begin20:
	.uleb128 Ltmp95-Lfunc_begin20
	.uleb128 Ltmp96-Ltmp95
	.uleb128 Ltmp97-Lfunc_begin20
	.byte	0
	.uleb128 Ltmp96-Lfunc_begin20
	.uleb128 Lfunc_end20-Ltmp96
	.byte	0
	.byte	0
Lcst_end20:
	.p2align	2

	.section	__TEXT,__text,regular,pure_instructions
	.p2align	4, 0x90
__ZN4core3ptr13drop_in_place17hfd5986d29c5fb5c2E:
	.cfi_startproc
	pushq	%rbp
	.cfi_def_cfa_offset 16
	.cfi_offset %rbp, -16
	movq	%rsp, %rbp
	.cfi_def_cfa_register %rbp
	subq	$16, %rsp
	callq	__ZN4core3ptr13drop_in_place17h1d39e4861fc477dfE
	addq	$16, %rsp
	popq	%rbp
	retq
	.cfi_endproc

	.p2align	4, 0x90
__ZN4core3ptr19swap_nonoverlapping17hd0d6fc2e91b00c72E:
	.cfi_startproc
	pushq	%rbp
	.cfi_def_cfa_offset 16
	.cfi_offset %rbp, -16
	movq	%rsp, %rbp
	.cfi_def_cfa_register %rbp
	subq	$48, %rsp
	movq	$8, -8(%rbp)
	movq	-8(%rbp), %rax
	movq	%rdx, -16(%rbp)
	movq	%rdi, -24(%rbp)
	movq	%rsi, -32(%rbp)
	movq	%rax, -40(%rbp)
	movq	-40(%rbp), %rax
	movq	-16(%rbp), %rcx
	imulq	%rcx, %rax
	movq	-24(%rbp), %rdi
	movq	-32(%rbp), %rsi
	movq	%rax, %rdx
	callq	__ZN4core3ptr25swap_nonoverlapping_bytes17h5ce8e1f926f5a4a4E
	addq	$48, %rsp
	popq	%rbp
	retq
	.cfi_endproc

	.p2align	4, 0x90
__ZN4core3ptr19swap_nonoverlapping17hf43d424358eaa2d4E:
	.cfi_startproc
	pushq	%rbp
	.cfi_def_cfa_offset 16
	.cfi_offset %rbp, -16
	movq	%rsp, %rbp
	.cfi_def_cfa_register %rbp
	subq	$48, %rsp
	movq	$16, -8(%rbp)
	movq	-8(%rbp), %rax
	movq	%rdx, -16(%rbp)
	movq	%rdi, -24(%rbp)
	movq	%rsi, -32(%rbp)
	movq	%rax, -40(%rbp)
	movq	-40(%rbp), %rax
	movq	-16(%rbp), %rcx
	imulq	%rcx, %rax
	movq	-24(%rbp), %rdi
	movq	-32(%rbp), %rsi
	movq	%rax, %rdx
	callq	__ZN4core3ptr25swap_nonoverlapping_bytes17h5ce8e1f926f5a4a4E
	addq	$48, %rsp
	popq	%rbp
	retq
	.cfi_endproc

	.p2align	4, 0x90
__ZN4core3ptr20slice_from_raw_parts17h52172b59f3fd6a3cE:
	.cfi_startproc
	pushq	%rbp
	.cfi_def_cfa_offset 16
	.cfi_offset %rbp, -16
	movq	%rsp, %rbp
	.cfi_def_cfa_register %rbp
	subq	$32, %rsp
	movq	%rdi, -16(%rbp)
	movq	%rsi, -8(%rbp)
	movq	-16(%rbp), %rax
	movq	-8(%rbp), %rcx
	movq	%rax, -32(%rbp)
	movq	%rcx, -24(%rbp)
	movq	-32(%rbp), %rax
	movq	-24(%rbp), %rdx
	addq	$32, %rsp
	popq	%rbp
	retq
	.cfi_endproc

	.p2align	4, 0x90
__ZN4core3ptr20slice_from_raw_parts17haf6e92d840770159E:
	.cfi_startproc
	pushq	%rbp
	.cfi_def_cfa_offset 16
	.cfi_offset %rbp, -16
	movq	%rsp, %rbp
	.cfi_def_cfa_register %rbp
	subq	$32, %rsp
	movq	%rdi, -16(%rbp)
	movq	%rsi, -8(%rbp)
	movq	-16(%rbp), %rax
	movq	-8(%rbp), %rcx
	movq	%rax, -32(%rbp)
	movq	%rcx, -24(%rbp)
	movq	-32(%rbp), %rax
	movq	-24(%rbp), %rdx
	addq	$32, %rsp
	popq	%rbp
	retq
	.cfi_endproc

	.p2align	4, 0x90
__ZN4core3ptr20slice_from_raw_parts17hb5f21e2137ab9a98E:
	.cfi_startproc
	pushq	%rbp
	.cfi_def_cfa_offset 16
	.cfi_offset %rbp, -16
	movq	%rsp, %rbp
	.cfi_def_cfa_register %rbp
	subq	$32, %rsp
	movq	%rdi, -16(%rbp)
	movq	%rsi, -8(%rbp)
	movq	-16(%rbp), %rax
	movq	-8(%rbp), %rcx
	movq	%rax, -32(%rbp)
	movq	%rcx, -24(%rbp)
	movq	-32(%rbp), %rax
	movq	-24(%rbp), %rdx
	addq	$32, %rsp
	popq	%rbp
	retq
	.cfi_endproc

	.p2align	4, 0x90
__ZN4core3ptr23swap_nonoverlapping_one17h2a3e8f18b484414eE:
Lfunc_begin21:
	.cfi_startproc
	.cfi_personality 155, _rust_eh_personality
	.cfi_lsda 16, Lexception21
	pushq	%rbp
	.cfi_def_cfa_offset 16
	.cfi_offset %rbp, -16
	movq	%rsp, %rbp
	.cfi_def_cfa_register %rbp
	subq	$80, %rsp
	movb	$0, -25(%rbp)
	movq	$16, -8(%rbp)
	movq	-8(%rbp), %rax
	movq	%rdi, -40(%rbp)
	movq	%rsi, -48(%rbp)
	movq	%rax, -56(%rbp)
	jmp	LBB110_2
LBB110_1:
	movq	-24(%rbp), %rdi
	callq	__Unwind_Resume
	ud2
LBB110_2:
	movq	-56(%rbp), %rax
	cmpq	$32, %rax
	jb	LBB110_4
	movq	-40(%rbp), %rdi
	movq	-48(%rbp), %rsi
	movl	$1, %edx
	callq	__ZN4core3ptr19swap_nonoverlapping17hf43d424358eaa2d4E
	jmp	LBB110_8
LBB110_4:
	movb	$1, -25(%rbp)
	movq	-40(%rbp), %rdi
	callq	__ZN4core3ptr4read17h2f74ab8fc457efeeE
	movq	%rax, -64(%rbp)
	movq	%rdx, -72(%rbp)
Ltmp98:
	movl	$1, %edx
	movq	-48(%rbp), %rdi
	movq	-40(%rbp), %rsi
	callq	__ZN4core10intrinsics19copy_nonoverlapping17h991c8b2c957fd0e8E
Ltmp99:
	jmp	LBB110_6
LBB110_6:
	movb	$0, -25(%rbp)
Ltmp100:
	movq	-48(%rbp), %rdi
	movq	-64(%rbp), %rsi
	movq	-72(%rbp), %rdx
	callq	__ZN4core3ptr5write17hae8588cd52b1c86dE
Ltmp101:
	jmp	LBB110_7
LBB110_7:
	movb	$0, -25(%rbp)
	jmp	LBB110_9
LBB110_8:
	jmp	LBB110_9
LBB110_9:
	addq	$80, %rsp
	popq	%rbp
	retq
LBB110_10:
	movb	$0, -25(%rbp)
	jmp	LBB110_1
LBB110_11:
	testb	$1, -25(%rbp)
	jne	LBB110_10
	jmp	LBB110_1
LBB110_12:
Ltmp102:
	movq	%rax, -24(%rbp)
	movl	%edx, -16(%rbp)
	jmp	LBB110_11
Lfunc_end21:
	.cfi_endproc
	.section	__TEXT,__gcc_except_tab
	.p2align	2
GCC_except_table110:
Lexception21:
	.byte	255
	.byte	255
	.byte	1
	.uleb128 Lcst_end21-Lcst_begin21
Lcst_begin21:
	.uleb128 Lfunc_begin21-Lfunc_begin21
	.uleb128 Ltmp98-Lfunc_begin21
	.byte	0
	.byte	0
	.uleb128 Ltmp98-Lfunc_begin21
	.uleb128 Ltmp101-Ltmp98
	.uleb128 Ltmp102-Lfunc_begin21
	.byte	0
Lcst_end21:
	.p2align	2

	.section	__TEXT,__text,regular,pure_instructions
	.p2align	4, 0x90
__ZN4core3ptr23swap_nonoverlapping_one17hf76ae85fce6d117eE:
Lfunc_begin22:
	.cfi_startproc
	.cfi_personality 155, _rust_eh_personality
	.cfi_lsda 16, Lexception22
	pushq	%rbp
	.cfi_def_cfa_offset 16
	.cfi_offset %rbp, -16
	movq	%rsp, %rbp
	.cfi_def_cfa_register %rbp
	subq	$64, %rsp
	movb	$0, -25(%rbp)
	movq	$8, -8(%rbp)
	movq	-8(%rbp), %rax
	movq	%rdi, -40(%rbp)
	movq	%rsi, -48(%rbp)
	movq	%rax, -56(%rbp)
	jmp	LBB111_2
LBB111_1:
	movq	-24(%rbp), %rdi
	callq	__Unwind_Resume
	ud2
LBB111_2:
	movq	-56(%rbp), %rax
	cmpq	$32, %rax
	jb	LBB111_4
	movq	-40(%rbp), %rdi
	movq	-48(%rbp), %rsi
	movl	$1, %edx
	callq	__ZN4core3ptr19swap_nonoverlapping17hd0d6fc2e91b00c72E
	jmp	LBB111_8
LBB111_4:
	movb	$1, -25(%rbp)
	movq	-40(%rbp), %rdi
	callq	__ZN4core3ptr4read17h20bd5ea96ad75177E
	movq	%rax, -64(%rbp)
Ltmp103:
	movl	$1, %edx
	movq	-48(%rbp), %rdi
	movq	-40(%rbp), %rsi
	callq	__ZN4core10intrinsics19copy_nonoverlapping17hf41b8921afd4a287E
Ltmp104:
	jmp	LBB111_6
LBB111_6:
	movb	$0, -25(%rbp)
Ltmp105:
	movq	-48(%rbp), %rdi
	movq	-64(%rbp), %rsi
	callq	__ZN4core3ptr5write17h9a108702b9acf43bE
Ltmp106:
	jmp	LBB111_7
LBB111_7:
	movb	$0, -25(%rbp)
	jmp	LBB111_9
LBB111_8:
	jmp	LBB111_9
LBB111_9:
	addq	$64, %rsp
	popq	%rbp
	retq
LBB111_10:
	movb	$0, -25(%rbp)
	jmp	LBB111_1
LBB111_11:
	testb	$1, -25(%rbp)
	jne	LBB111_10
	jmp	LBB111_1
LBB111_12:
Ltmp107:
	movq	%rax, -24(%rbp)
	movl	%edx, -16(%rbp)
	jmp	LBB111_11
Lfunc_end22:
	.cfi_endproc
	.section	__TEXT,__gcc_except_tab
	.p2align	2
GCC_except_table111:
Lexception22:
	.byte	255
	.byte	255
	.byte	1
	.uleb128 Lcst_end22-Lcst_begin22
Lcst_begin22:
	.uleb128 Lfunc_begin22-Lfunc_begin22
	.uleb128 Ltmp103-Lfunc_begin22
	.byte	0
	.byte	0
	.uleb128 Ltmp103-Lfunc_begin22
	.uleb128 Ltmp106-Ltmp103
	.uleb128 Ltmp107-Lfunc_begin22
	.byte	0
Lcst_end22:
	.p2align	2

	.section	__TEXT,__text,regular,pure_instructions
	.p2align	4, 0x90
__ZN4core3ptr24slice_from_raw_parts_mut17h160cc61c16f0781fE:
	.cfi_startproc
	pushq	%rbp
	.cfi_def_cfa_offset 16
	.cfi_offset %rbp, -16
	movq	%rsp, %rbp
	.cfi_def_cfa_register %rbp
	subq	$32, %rsp
	movq	%rdi, -16(%rbp)
	movq	%rsi, -8(%rbp)
	movq	-16(%rbp), %rax
	movq	-8(%rbp), %rcx
	movq	%rax, -32(%rbp)
	movq	%rcx, -24(%rbp)
	movq	-32(%rbp), %rax
	movq	-24(%rbp), %rdx
	addq	$32, %rsp
	popq	%rbp
	retq
	.cfi_endproc

	.p2align	4, 0x90
__ZN4core3ptr24slice_from_raw_parts_mut17h1ac3be3ea714ab18E:
	.cfi_startproc
	pushq	%rbp
	.cfi_def_cfa_offset 16
	.cfi_offset %rbp, -16
	movq	%rsp, %rbp
	.cfi_def_cfa_register %rbp
	subq	$32, %rsp
	movq	%rdi, -16(%rbp)
	movq	%rsi, -8(%rbp)
	movq	-16(%rbp), %rax
	movq	-8(%rbp), %rcx
	movq	%rax, -32(%rbp)
	movq	%rcx, -24(%rbp)
	movq	-32(%rbp), %rax
	movq	-24(%rbp), %rdx
	addq	$32, %rsp
	popq	%rbp
	retq
	.cfi_endproc

	.p2align	4, 0x90
__ZN4core3ptr24slice_from_raw_parts_mut17h1b20be0c30988663E:
	.cfi_startproc
	pushq	%rbp
	.cfi_def_cfa_offset 16
	.cfi_offset %rbp, -16
	movq	%rsp, %rbp
	.cfi_def_cfa_register %rbp
	subq	$32, %rsp
	movq	%rdi, -16(%rbp)
	movq	%rsi, -8(%rbp)
	movq	-16(%rbp), %rax
	movq	-8(%rbp), %rcx
	movq	%rax, -32(%rbp)
	movq	%rcx, -24(%rbp)
	movq	-32(%rbp), %rax
	movq	-24(%rbp), %rdx
	addq	$32, %rsp
	popq	%rbp
	retq
	.cfi_endproc

	.p2align	4, 0x90
__ZN4core3ptr24slice_from_raw_parts_mut17hd5958ecf2331eb44E:
	.cfi_startproc
	pushq	%rbp
	.cfi_def_cfa_offset 16
	.cfi_offset %rbp, -16
	movq	%rsp, %rbp
	.cfi_def_cfa_register %rbp
	subq	$32, %rsp
	movq	%rdi, -16(%rbp)
	movq	%rsi, -8(%rbp)
	movq	-16(%rbp), %rax
	movq	-8(%rbp), %rcx
	movq	%rax, -32(%rbp)
	movq	%rcx, -24(%rbp)
	movq	-32(%rbp), %rax
	movq	-24(%rbp), %rdx
	addq	$32, %rsp
	popq	%rbp
	retq
	.cfi_endproc

	.p2align	4, 0x90
__ZN4core3ptr25swap_nonoverlapping_bytes17h5ce8e1f926f5a4a4E:
	.cfi_startproc
	pushq	%rbp
	.cfi_def_cfa_offset 16
	.cfi_offset %rbp, -16
	movq	%rsp, %rbp
	.cfi_def_cfa_register %rbp
	andq	$-32, %rsp
	subq	$224, %rsp
	movq	$32, 200(%rsp)
	movq	200(%rsp), %rax
	movq	%rdi, 104(%rsp)
	movq	%rsi, 96(%rsp)
	movq	%rdx, 88(%rsp)
	movq	%rax, 80(%rsp)
	movq	$0, 120(%rsp)
LBB116_2:
	movq	80(%rsp), %rax
	addq	120(%rsp), %rax
	movq	88(%rsp), %rcx
	cmpq	%rcx, %rax
	jbe	LBB116_4
	movq	88(%rsp), %rax
	cmpq	%rax, 120(%rsp)
	jb	LBB116_13
	jmp	LBB116_12
LBB116_4:
	jmp	LBB116_6
LBB116_6:
	leaq	128(%rsp), %rax
	movq	120(%rsp), %rsi
	movq	104(%rsp), %rdi
	movq	%rax, 72(%rsp)
	callq	__ZN4core3ptr7mut_ptr31_$LT$impl$u20$$BP$mut$u20$T$GT$3add17ha9439f8d788cc58eE
	movq	%rax, 64(%rsp)
	movq	120(%rsp), %rsi
	movq	96(%rsp), %rdi
	callq	__ZN4core3ptr7mut_ptr31_$LT$impl$u20$$BP$mut$u20$T$GT$3add17ha9439f8d788cc58eE
	movq	%rax, 56(%rsp)
	movq	64(%rsp), %rdi
	movq	72(%rsp), %rsi
	movq	80(%rsp), %rdx
	callq	__ZN4core10intrinsics19copy_nonoverlapping17h6ecdd5ef54143bd1E
	movq	56(%rsp), %rdi
	movq	64(%rsp), %rsi
	movq	80(%rsp), %rdx
	callq	__ZN4core10intrinsics19copy_nonoverlapping17h6ecdd5ef54143bd1E
	movq	72(%rsp), %rdi
	movq	56(%rsp), %rsi
	movq	80(%rsp), %rdx
	callq	__ZN4core10intrinsics19copy_nonoverlapping17h6ecdd5ef54143bd1E
	movq	80(%rsp), %rax
	addq	120(%rsp), %rax
	movq	%rax, 120(%rsp)
	jmp	LBB116_2
LBB116_12:
	jmp	LBB116_21
LBB116_13:
	movq	88(%rsp), %rax
	subq	120(%rsp), %rax
	leaq	168(%rsp), %rcx
	movq	%rax, 48(%rsp)
	movq	%rcx, 40(%rsp)
	movq	40(%rsp), %rax
	movq	120(%rsp), %rsi
	movq	104(%rsp), %rdi
	movq	%rax, 32(%rsp)
	callq	__ZN4core3ptr7mut_ptr31_$LT$impl$u20$$BP$mut$u20$T$GT$3add17ha9439f8d788cc58eE
	movq	%rax, 24(%rsp)
	movq	120(%rsp), %rsi
	movq	96(%rsp), %rdi
	callq	__ZN4core3ptr7mut_ptr31_$LT$impl$u20$$BP$mut$u20$T$GT$3add17ha9439f8d788cc58eE
	movq	%rax, 16(%rsp)
	movq	24(%rsp), %rdi
	movq	32(%rsp), %rsi
	movq	48(%rsp), %rdx
	callq	__ZN4core10intrinsics19copy_nonoverlapping17h6ecdd5ef54143bd1E
	movq	16(%rsp), %rdi
	movq	24(%rsp), %rsi
	movq	48(%rsp), %rdx
	callq	__ZN4core10intrinsics19copy_nonoverlapping17h6ecdd5ef54143bd1E
	movq	32(%rsp), %rdi
	movq	16(%rsp), %rsi
	movq	48(%rsp), %rdx
	callq	__ZN4core10intrinsics19copy_nonoverlapping17h6ecdd5ef54143bd1E
	jmp	LBB116_21
LBB116_21:
	movq	%rbp, %rsp
	popq	%rbp
	retq
	.cfi_endproc

	.p2align	4, 0x90
__ZN4core3ptr4read17h04c0c7bd1117c05aE:
	.cfi_startproc
	pushq	%rbp
	.cfi_def_cfa_offset 16
	.cfi_offset %rbp, -16
	movq	%rsp, %rbp
	.cfi_def_cfa_register %rbp
	subq	$112, %rsp
	movq	%rdi, %rax
	movq	%rsi, -80(%rbp)
	movq	%rdi, -88(%rbp)
	movq	%rax, -96(%rbp)
	leaq	-72(%rbp), %rax
	movq	%rax, -104(%rbp)
	movq	-80(%rbp), %rdi
	movq	-104(%rbp), %rsi
	movl	$1, %edx
	callq	__ZN4core10intrinsics19copy_nonoverlapping17hd180ace0e8c1c2f3E
	movq	-72(%rbp), %rax
	movq	%rax, -48(%rbp)
	movq	-64(%rbp), %rax
	movq	%rax, -40(%rbp)
	movq	-56(%rbp), %rax
	movq	%rax, -32(%rbp)
	movq	-48(%rbp), %rax
	movq	%rax, -24(%rbp)
	movq	-40(%rbp), %rax
	movq	%rax, -16(%rbp)
	movq	-32(%rbp), %rax
	movq	%rax, -8(%rbp)
	movq	-24(%rbp), %rax
	movq	-88(%rbp), %rcx
	movq	%rax, (%rcx)
	movq	-16(%rbp), %rax
	movq	%rax, 8(%rcx)
	movq	-8(%rbp), %rax
	movq	%rax, 16(%rcx)
	movq	-96(%rbp), %rax
	addq	$112, %rsp
	popq	%rbp
	retq
	.cfi_endproc

	.p2align	4, 0x90
__ZN4core3ptr4read17h20bd5ea96ad75177E:
	.cfi_startproc
	pushq	%rbp
	.cfi_def_cfa_offset 16
	.cfi_offset %rbp, -16
	movq	%rsp, %rbp
	.cfi_def_cfa_register %rbp
	subq	$32, %rsp
	movq	-8(%rbp), %rax
	movq	%rax, -16(%rbp)
	movq	%rdi, -24(%rbp)
	jmp	LBB118_2
LBB118_2:
	movq	-24(%rbp), %rdi
	leaq	-16(%rbp), %rsi
	movl	$1, %edx
	callq	__ZN4core10intrinsics19copy_nonoverlapping17hf41b8921afd4a287E
	movq	-16(%rbp), %rax
	movq	%rax, -32(%rbp)
	movq	-32(%rbp), %rax
	addq	$32, %rsp
	popq	%rbp
	retq
	.cfi_endproc

	.p2align	4, 0x90
__ZN4core3ptr4read17h2f74ab8fc457efeeE:
	.cfi_startproc
	pushq	%rbp
	.cfi_def_cfa_offset 16
	.cfi_offset %rbp, -16
	movq	%rsp, %rbp
	.cfi_def_cfa_register %rbp
	subq	$64, %rsp
	movq	-16(%rbp), %rax
	movq	-8(%rbp), %rcx
	movq	%rcx, -24(%rbp)
	movq	%rax, -32(%rbp)
	movq	%rdi, -40(%rbp)
	leaq	-32(%rbp), %rax
	movq	%rax, -48(%rbp)
	movq	-40(%rbp), %rdi
	movq	-48(%rbp), %rsi
	movl	$1, %edx
	callq	__ZN4core10intrinsics19copy_nonoverlapping17h991c8b2c957fd0e8E
	movq	-32(%rbp), %rax
	movq	-24(%rbp), %rdx
	movq	%rax, -56(%rbp)
	movq	%rdx, -64(%rbp)
	movq	-56(%rbp), %rax
	movq	-64(%rbp), %rdx
	addq	$64, %rsp
	popq	%rbp
	retq
	.cfi_endproc

	.p2align	4, 0x90
__ZN4core3ptr4read17h3d67069d5f458d85E:
	.cfi_startproc
	pushq	%rbp
	.cfi_def_cfa_offset 16
	.cfi_offset %rbp, -16
	movq	%rsp, %rbp
	.cfi_def_cfa_register %rbp
	subq	$112, %rsp
	movq	%rdi, %rax
	movq	%rsi, -80(%rbp)
	movq	%rdi, -88(%rbp)
	movq	%rax, -96(%rbp)
	leaq	-72(%rbp), %rax
	movq	%rax, -104(%rbp)
	movq	-80(%rbp), %rdi
	movq	-104(%rbp), %rsi
	movl	$1, %edx
	callq	__ZN4core10intrinsics19copy_nonoverlapping17h58fce3730994c2efE
	movq	-72(%rbp), %rax
	movq	%rax, -48(%rbp)
	movq	-64(%rbp), %rax
	movq	%rax, -40(%rbp)
	movq	-56(%rbp), %rax
	movq	%rax, -32(%rbp)
	movq	-48(%rbp), %rax
	movq	%rax, -24(%rbp)
	movq	-40(%rbp), %rax
	movq	%rax, -16(%rbp)
	movq	-32(%rbp), %rax
	movq	%rax, -8(%rbp)
	movq	-24(%rbp), %rax
	movq	-88(%rbp), %rcx
	movq	%rax, (%rcx)
	movq	-16(%rbp), %rax
	movq	%rax, 8(%rcx)
	movq	-8(%rbp), %rax
	movq	%rax, 16(%rcx)
	movq	-96(%rbp), %rax
	addq	$112, %rsp
	popq	%rbp
	retq
	.cfi_endproc

	.p2align	4, 0x90
__ZN4core3ptr4read17hb35a0416d839df89E:
	.cfi_startproc
	pushq	%rbp
	.cfi_def_cfa_offset 16
	.cfi_offset %rbp, -16
	movq	%rsp, %rbp
	.cfi_def_cfa_register %rbp
	subq	$128, %rsp
	movq	%rdi, %rax
	movq	%rsi, -104(%rbp)
	movq	%rdi, -112(%rbp)
	movq	%rax, -120(%rbp)
	leaq	-96(%rbp), %rax
	movq	%rax, -128(%rbp)
	movq	-104(%rbp), %rdi
	movq	-128(%rbp), %rsi
	movl	$1, %edx
	callq	__ZN4core10intrinsics19copy_nonoverlapping17h2be84374d8c93c64E
	movq	-96(%rbp), %rax
	movq	%rax, -64(%rbp)
	movq	-88(%rbp), %rax
	movq	%rax, -56(%rbp)
	movq	-80(%rbp), %rax
	movq	%rax, -48(%rbp)
	movq	-72(%rbp), %rax
	movq	%rax, -40(%rbp)
	movq	-64(%rbp), %rax
	movq	%rax, -32(%rbp)
	movq	-56(%rbp), %rax
	movq	%rax, -24(%rbp)
	movq	-48(%rbp), %rax
	movq	%rax, -16(%rbp)
	movq	-40(%rbp), %rax
	movq	%rax, -8(%rbp)
	movq	-32(%rbp), %rax
	movq	-112(%rbp), %rcx
	movq	%rax, (%rcx)
	movq	-24(%rbp), %rax
	movq	%rax, 8(%rcx)
	movq	-16(%rbp), %rax
	movq	%rax, 16(%rcx)
	movq	-8(%rbp), %rax
	movq	%rax, 24(%rcx)
	movq	-120(%rbp), %rax
	addq	$128, %rsp
	popq	%rbp
	retq
	.cfi_endproc

	.p2align	4, 0x90
__ZN4core3ptr4read17hc878f386bfb2bc65E:
	.cfi_startproc
	pushq	%rbp
	.cfi_def_cfa_offset 16
	.cfi_offset %rbp, -16
	movq	%rsp, %rbp
	.cfi_def_cfa_register %rbp
	subq	$128, %rsp
	movq	%rdi, %rax
	movq	%rsi, -104(%rbp)
	movq	%rdi, -112(%rbp)
	movq	%rax, -120(%rbp)
	leaq	-96(%rbp), %rax
	movq	%rax, -128(%rbp)
	movq	-104(%rbp), %rdi
	movq	-128(%rbp), %rsi
	movl	$1, %edx
	callq	__ZN4core10intrinsics19copy_nonoverlapping17hb25bb63ba3222a47E
	movq	-96(%rbp), %rax
	movq	%rax, -64(%rbp)
	movq	-88(%rbp), %rax
	movq	%rax, -56(%rbp)
	movq	-80(%rbp), %rax
	movq	%rax, -48(%rbp)
	movq	-72(%rbp), %rax
	movq	%rax, -40(%rbp)
	movq	-64(%rbp), %rax
	movq	%rax, -32(%rbp)
	movq	-56(%rbp), %rax
	movq	%rax, -24(%rbp)
	movq	-48(%rbp), %rax
	movq	%rax, -16(%rbp)
	movq	-40(%rbp), %rax
	movq	%rax, -8(%rbp)
	movq	-32(%rbp), %rax
	movq	-112(%rbp), %rcx
	movq	%rax, (%rcx)
	movq	-24(%rbp), %rax
	movq	%rax, 8(%rcx)
	movq	-16(%rbp), %rax
	movq	%rax, 16(%rcx)
	movq	-8(%rbp), %rax
	movq	%rax, 24(%rcx)
	movq	-120(%rbp), %rax
	addq	$128, %rsp
	popq	%rbp
	retq
	.cfi_endproc

	.p2align	4, 0x90
__ZN4core3ptr4read17he3c36fd87f2774aeE:
	.cfi_startproc
	pushq	%rbp
	.cfi_def_cfa_offset 16
	.cfi_offset %rbp, -16
	movq	%rsp, %rbp
	.cfi_def_cfa_register %rbp
	subq	$112, %rsp
	movq	%rdi, %rax
	movq	%rsi, -80(%rbp)
	movq	%rdi, -88(%rbp)
	movq	%rax, -96(%rbp)
	leaq	-72(%rbp), %rax
	movq	%rax, -104(%rbp)
	movq	-80(%rbp), %rdi
	movq	-104(%rbp), %rsi
	movl	$1, %edx
	callq	__ZN4core10intrinsics19copy_nonoverlapping17h036bc5a1b58cbf24E
	movq	-72(%rbp), %rax
	movq	%rax, -48(%rbp)
	movq	-64(%rbp), %rax
	movq	%rax, -40(%rbp)
	movq	-56(%rbp), %rax
	movq	%rax, -32(%rbp)
	movq	-48(%rbp), %rax
	movq	%rax, -24(%rbp)
	movq	-40(%rbp), %rax
	movq	%rax, -16(%rbp)
	movq	-32(%rbp), %rax
	movq	%rax, -8(%rbp)
	movq	-24(%rbp), %rax
	movq	-88(%rbp), %rcx
	movq	%rax, (%rcx)
	movq	-16(%rbp), %rax
	movq	%rax, 8(%rcx)
	movq	-8(%rbp), %rax
	movq	%rax, 16(%rcx)
	movq	-96(%rbp), %rax
	addq	$112, %rsp
	popq	%rbp
	retq
	.cfi_endproc

	.p2align	4, 0x90
__ZN4core3ptr4read17hf608a39240899b96E:
	.cfi_startproc
	pushq	%rbp
	.cfi_def_cfa_offset 16
	.cfi_offset %rbp, -16
	movq	%rsp, %rbp
	.cfi_def_cfa_register %rbp
	subq	$112, %rsp
	movq	%rdi, %rax
	movq	%rsi, -80(%rbp)
	movq	%rdi, -88(%rbp)
	movq	%rax, -96(%rbp)
	leaq	-72(%rbp), %rax
	movq	%rax, -104(%rbp)
	movq	-80(%rbp), %rdi
	movq	-104(%rbp), %rsi
	movl	$1, %edx
	callq	__ZN4core10intrinsics19copy_nonoverlapping17hba28d0246522d691E
	movq	-72(%rbp), %rax
	movq	%rax, -48(%rbp)
	movq	-64(%rbp), %rax
	movq	%rax, -40(%rbp)
	movq	-56(%rbp), %rax
	movq	%rax, -32(%rbp)
	movq	-48(%rbp), %rax
	movq	%rax, -24(%rbp)
	movq	-40(%rbp), %rax
	movq	%rax, -16(%rbp)
	movq	-32(%rbp), %rax
	movq	%rax, -8(%rbp)
	movq	-24(%rbp), %rax
	movq	-88(%rbp), %rcx
	movq	%rax, (%rcx)
	movq	-16(%rbp), %rax
	movq	%rax, 8(%rcx)
	movq	-8(%rbp), %rax
	movq	%rax, 16(%rcx)
	movq	-96(%rbp), %rax
	addq	$112, %rsp
	popq	%rbp
	retq
	.cfi_endproc

	.p2align	4, 0x90
__ZN4core3ptr4read17hfc6579c88f91597bE:
	.cfi_startproc
	pushq	%rbp
	.cfi_def_cfa_offset 16
	.cfi_offset %rbp, -16
	movq	%rsp, %rbp
	.cfi_def_cfa_register %rbp
	subq	$112, %rsp
	movq	%rdi, %rax
	movq	%rsi, -80(%rbp)
	movq	%rdi, -88(%rbp)
	movq	%rax, -96(%rbp)
	leaq	-72(%rbp), %rax
	movq	%rax, -104(%rbp)
	movq	-80(%rbp), %rdi
	movq	-104(%rbp), %rsi
	movl	$1, %edx
	callq	__ZN4core10intrinsics19copy_nonoverlapping17h1414406b11b748b4E
	movq	-72(%rbp), %rax
	movq	%rax, -48(%rbp)
	movq	-64(%rbp), %rax
	movq	%rax, -40(%rbp)
	movq	-56(%rbp), %rax
	movq	%rax, -32(%rbp)
	movq	-48(%rbp), %rax
	movq	%rax, -24(%rbp)
	movq	-40(%rbp), %rax
	movq	%rax, -16(%rbp)
	movq	-32(%rbp), %rax
	movq	%rax, -8(%rbp)
	movq	-24(%rbp), %rax
	movq	-88(%rbp), %rcx
	movq	%rax, (%rcx)
	movq	-16(%rbp), %rax
	movq	%rax, 8(%rcx)
	movq	-8(%rbp), %rax
	movq	%rax, 16(%rcx)
	movq	-96(%rbp), %rax
	addq	$112, %rsp
	popq	%rbp
	retq
	.cfi_endproc

	.p2align	4, 0x90
__ZN4core3ptr5write17h9a108702b9acf43bE:
	.cfi_startproc
	pushq	%rbp
	.cfi_def_cfa_offset 16
	.cfi_offset %rbp, -16
	movq	%rsp, %rbp
	.cfi_def_cfa_register %rbp
	pushq	%rax
	movq	%rsi, (%rdi)
	addq	$8, %rsp
	popq	%rbp
	retq
	.cfi_endproc

	.p2align	4, 0x90
__ZN4core3ptr5write17hae8588cd52b1c86dE:
	.cfi_startproc
	pushq	%rbp
	.cfi_def_cfa_offset 16
	.cfi_offset %rbp, -16
	movq	%rsp, %rbp
	.cfi_def_cfa_register %rbp
	pushq	%rax
	movq	%rsi, (%rdi)
	movq	%rdx, 8(%rdi)
	addq	$8, %rsp
	popq	%rbp
	retq
	.cfi_endproc

	.p2align	4, 0x90
__ZN4core3ptr5write17hfa4ce341804b90e2E:
	.cfi_startproc
	pushq	%rbp
	.cfi_def_cfa_offset 16
	.cfi_offset %rbp, -16
	movq	%rsp, %rbp
	.cfi_def_cfa_register %rbp
	pushq	%rax
	movq	(%rsi), %rax
	movq	%rax, (%rdi)
	movq	8(%rsi), %rax
	movq	%rax, 8(%rdi)
	movq	16(%rsi), %rax
	movq	%rax, 16(%rdi)
	movq	24(%rsi), %rax
	movq	%rax, 24(%rdi)
	addq	$8, %rsp
	popq	%rbp
	retq
	.cfi_endproc

	.p2align	4, 0x90
__ZN4core3ptr6unique15Unique$LT$T$GT$13new_unchecked17h9701b0b1af95797aE:
	.cfi_startproc
	pushq	%rbp
	.cfi_def_cfa_offset 16
	.cfi_offset %rbp, -16
	movq	%rsp, %rbp
	.cfi_def_cfa_register %rbp
	subq	$16, %rsp
	movq	%rdi, -16(%rbp)
	movq	-16(%rbp), %rax
	addq	$16, %rsp
	popq	%rbp
	retq
	.cfi_endproc

	.p2align	4, 0x90
__ZN4core3ptr6unique15Unique$LT$T$GT$4cast17h2941b9bc675a54f4E:
	.cfi_startproc
	pushq	%rbp
	.cfi_def_cfa_offset 16
	.cfi_offset %rbp, -16
	movq	%rsp, %rbp
	.cfi_def_cfa_register %rbp
	subq	$16, %rsp
	callq	__ZN4core3ptr6unique15Unique$LT$T$GT$6as_ptr17h0f8c2b5d639d93deE
	movq	%rax, -8(%rbp)
	movq	-8(%rbp), %rax
	movq	%rax, %rdi
	callq	__ZN4core3ptr6unique15Unique$LT$T$GT$13new_unchecked17h9701b0b1af95797aE
	movq	%rax, -16(%rbp)
	movq	-16(%rbp), %rax
	addq	$16, %rsp
	popq	%rbp
	retq
	.cfi_endproc

	.p2align	4, 0x90
__ZN4core3ptr6unique15Unique$LT$T$GT$4cast17h551a0a08a9aaf36fE:
	.cfi_startproc
	pushq	%rbp
	.cfi_def_cfa_offset 16
	.cfi_offset %rbp, -16
	movq	%rsp, %rbp
	.cfi_def_cfa_register %rbp
	subq	$16, %rsp
	callq	__ZN4core3ptr6unique15Unique$LT$T$GT$6as_ptr17h208474846d221bc7E
	movq	%rax, -8(%rbp)
	movq	-8(%rbp), %rax
	movq	%rax, %rdi
	callq	__ZN4core3ptr6unique15Unique$LT$T$GT$13new_unchecked17h9701b0b1af95797aE
	movq	%rax, -16(%rbp)
	movq	-16(%rbp), %rax
	addq	$16, %rsp
	popq	%rbp
	retq
	.cfi_endproc

	.p2align	4, 0x90
__ZN4core3ptr6unique15Unique$LT$T$GT$4cast17h5eb8359b36210340E:
	.cfi_startproc
	pushq	%rbp
	.cfi_def_cfa_offset 16
	.cfi_offset %rbp, -16
	movq	%rsp, %rbp
	.cfi_def_cfa_register %rbp
	subq	$16, %rsp
	callq	__ZN4core3ptr6unique15Unique$LT$T$GT$6as_ptr17h8096ac53be1e0951E
	movq	%rax, -8(%rbp)
	movq	-8(%rbp), %rax
	movq	%rax, %rdi
	callq	__ZN4core3ptr6unique15Unique$LT$T$GT$13new_unchecked17h9701b0b1af95797aE
	movq	%rax, -16(%rbp)
	movq	-16(%rbp), %rax
	addq	$16, %rsp
	popq	%rbp
	retq
	.cfi_endproc

	.p2align	4, 0x90
__ZN4core3ptr6unique15Unique$LT$T$GT$4cast17h9116a227f57a6c10E:
	.cfi_startproc
	pushq	%rbp
	.cfi_def_cfa_offset 16
	.cfi_offset %rbp, -16
	movq	%rsp, %rbp
	.cfi_def_cfa_register %rbp
	subq	$16, %rsp
	callq	__ZN4core3ptr6unique15Unique$LT$T$GT$6as_ptr17h9337920dcee90d35E
	movq	%rax, -8(%rbp)
	movq	-8(%rbp), %rax
	movq	%rax, %rdi
	callq	__ZN4core3ptr6unique15Unique$LT$T$GT$13new_unchecked17h9701b0b1af95797aE
	movq	%rax, -16(%rbp)
	movq	-16(%rbp), %rax
	addq	$16, %rsp
	popq	%rbp
	retq
	.cfi_endproc

	.p2align	4, 0x90
__ZN4core3ptr6unique15Unique$LT$T$GT$4cast17h9c1b28a6fafa86cfE:
	.cfi_startproc
	pushq	%rbp
	.cfi_def_cfa_offset 16
	.cfi_offset %rbp, -16
	movq	%rsp, %rbp
	.cfi_def_cfa_register %rbp
	subq	$16, %rsp
	callq	__ZN4core3ptr6unique15Unique$LT$T$GT$6as_ptr17he66e5db0db58858aE
	movq	%rax, -8(%rbp)
	movq	-8(%rbp), %rax
	movq	%rax, %rdi
	callq	__ZN4core3ptr6unique15Unique$LT$T$GT$13new_unchecked17h9701b0b1af95797aE
	movq	%rax, -16(%rbp)
	movq	-16(%rbp), %rax
	addq	$16, %rsp
	popq	%rbp
	retq
	.cfi_endproc

	.p2align	4, 0x90
__ZN4core3ptr6unique15Unique$LT$T$GT$4cast17he2e2bbdea87ec0b6E:
	.cfi_startproc
	pushq	%rbp
	.cfi_def_cfa_offset 16
	.cfi_offset %rbp, -16
	movq	%rsp, %rbp
	.cfi_def_cfa_register %rbp
	subq	$16, %rsp
	callq	__ZN4core3ptr6unique15Unique$LT$T$GT$6as_ptr17h661c98e04a175f8fE
	movq	%rax, -8(%rbp)
	movq	-8(%rbp), %rdi
	callq	__ZN4core3ptr6unique15Unique$LT$T$GT$13new_unchecked17h9701b0b1af95797aE
	movq	%rax, -16(%rbp)
	movq	-16(%rbp), %rax
	addq	$16, %rsp
	popq	%rbp
	retq
	.cfi_endproc

	.p2align	4, 0x90
__ZN4core3ptr6unique15Unique$LT$T$GT$4cast17he63016b6f964ddb6E:
	.cfi_startproc
	pushq	%rbp
	.cfi_def_cfa_offset 16
	.cfi_offset %rbp, -16
	movq	%rsp, %rbp
	.cfi_def_cfa_register %rbp
	subq	$16, %rsp
	callq	__ZN4core3ptr6unique15Unique$LT$T$GT$6as_ptr17h1b45e7fcb807923fE
	movq	%rax, -8(%rbp)
	movq	-8(%rbp), %rax
	movq	%rax, %rdi
	callq	__ZN4core3ptr6unique15Unique$LT$T$GT$13new_unchecked17h9701b0b1af95797aE
	movq	%rax, -16(%rbp)
	movq	-16(%rbp), %rax
	addq	$16, %rsp
	popq	%rbp
	retq
	.cfi_endproc

	.p2align	4, 0x90
__ZN4core3ptr6unique15Unique$LT$T$GT$4cast17hff37ba77ba4d1840E:
	.cfi_startproc
	pushq	%rbp
	.cfi_def_cfa_offset 16
	.cfi_offset %rbp, -16
	movq	%rsp, %rbp
	.cfi_def_cfa_register %rbp
	subq	$16, %rsp
	callq	__ZN4core3ptr6unique15Unique$LT$T$GT$6as_ptr17ha10f36d0b91680bdE
	movq	%rax, -8(%rbp)
	movq	-8(%rbp), %rax
	movq	%rax, %rdi
	callq	__ZN4core3ptr6unique15Unique$LT$T$GT$13new_unchecked17h9701b0b1af95797aE
	movq	%rax, -16(%rbp)
	movq	-16(%rbp), %rax
	addq	$16, %rsp
	popq	%rbp
	retq
	.cfi_endproc

	.p2align	4, 0x90
__ZN4core3ptr6unique15Unique$LT$T$GT$6as_ptr17h0f8c2b5d639d93deE:
	.cfi_startproc
	pushq	%rbp
	.cfi_def_cfa_offset 16
	.cfi_offset %rbp, -16
	movq	%rsp, %rbp
	.cfi_def_cfa_register %rbp
	movq	%rdi, %rax
	popq	%rbp
	retq
	.cfi_endproc

	.p2align	4, 0x90
__ZN4core3ptr6unique15Unique$LT$T$GT$6as_ptr17h1b45e7fcb807923fE:
	.cfi_startproc
	pushq	%rbp
	.cfi_def_cfa_offset 16
	.cfi_offset %rbp, -16
	movq	%rsp, %rbp
	.cfi_def_cfa_register %rbp
	movq	%rdi, %rax
	popq	%rbp
	retq
	.cfi_endproc

	.p2align	4, 0x90
__ZN4core3ptr6unique15Unique$LT$T$GT$6as_ptr17h208474846d221bc7E:
	.cfi_startproc
	pushq	%rbp
	.cfi_def_cfa_offset 16
	.cfi_offset %rbp, -16
	movq	%rsp, %rbp
	.cfi_def_cfa_register %rbp
	movq	%rdi, %rax
	popq	%rbp
	retq
	.cfi_endproc

	.p2align	4, 0x90
__ZN4core3ptr6unique15Unique$LT$T$GT$6as_ptr17h661c98e04a175f8fE:
	.cfi_startproc
	pushq	%rbp
	.cfi_def_cfa_offset 16
	.cfi_offset %rbp, -16
	movq	%rsp, %rbp
	.cfi_def_cfa_register %rbp
	movq	%rdi, %rax
	popq	%rbp
	retq
	.cfi_endproc

	.p2align	4, 0x90
__ZN4core3ptr6unique15Unique$LT$T$GT$6as_ptr17h8096ac53be1e0951E:
	.cfi_startproc
	pushq	%rbp
	.cfi_def_cfa_offset 16
	.cfi_offset %rbp, -16
	movq	%rsp, %rbp
	.cfi_def_cfa_register %rbp
	movq	%rdi, %rax
	popq	%rbp
	retq
	.cfi_endproc

	.p2align	4, 0x90
__ZN4core3ptr6unique15Unique$LT$T$GT$6as_ptr17h9337920dcee90d35E:
	.cfi_startproc
	pushq	%rbp
	.cfi_def_cfa_offset 16
	.cfi_offset %rbp, -16
	movq	%rsp, %rbp
	.cfi_def_cfa_register %rbp
	movq	%rdi, %rax
	movq	%rsi, %rdx
	popq	%rbp
	retq
	.cfi_endproc

	.p2align	4, 0x90
__ZN4core3ptr6unique15Unique$LT$T$GT$6as_ptr17ha10f36d0b91680bdE:
	.cfi_startproc
	pushq	%rbp
	.cfi_def_cfa_offset 16
	.cfi_offset %rbp, -16
	movq	%rsp, %rbp
	.cfi_def_cfa_register %rbp
	movq	%rdi, %rax
	movq	%rsi, %rdx
	popq	%rbp
	retq
	.cfi_endproc

	.p2align	4, 0x90
__ZN4core3ptr6unique15Unique$LT$T$GT$6as_ptr17he66e5db0db58858aE:
	.cfi_startproc
	pushq	%rbp
	.cfi_def_cfa_offset 16
	.cfi_offset %rbp, -16
	movq	%rsp, %rbp
	.cfi_def_cfa_register %rbp
	movq	%rdi, %rax
	movq	%rsi, %rdx
	popq	%rbp
	retq
	.cfi_endproc

	.p2align	4, 0x90
__ZN4core3ptr6unique15Unique$LT$T$GT$6as_ptr17he6e0d97b2f10cf31E:
	.cfi_startproc
	pushq	%rbp
	.cfi_def_cfa_offset 16
	.cfi_offset %rbp, -16
	movq	%rsp, %rbp
	.cfi_def_cfa_register %rbp
	movq	%rdi, %rax
	popq	%rbp
	retq
	.cfi_endproc

	.p2align	4, 0x90
__ZN4core3ptr6unique15Unique$LT$T$GT$6as_ref17h5215b335e24b58b3E:
	.cfi_startproc
	pushq	%rbp
	.cfi_def_cfa_offset 16
	.cfi_offset %rbp, -16
	movq	%rsp, %rbp
	.cfi_def_cfa_register %rbp
	subq	$16, %rsp
	movq	(%rdi), %rdi
	callq	__ZN4core3ptr6unique15Unique$LT$T$GT$6as_ptr17h0f8c2b5d639d93deE
	movq	%rax, -8(%rbp)
	movq	-8(%rbp), %rax
	addq	$16, %rsp
	popq	%rbp
	retq
	.cfi_endproc

	.p2align	4, 0x90
__ZN4core3ptr6unique15Unique$LT$T$GT$6as_ref17h671e8f51b1a40f61E:
	.cfi_startproc
	pushq	%rbp
	.cfi_def_cfa_offset 16
	.cfi_offset %rbp, -16
	movq	%rsp, %rbp
	.cfi_def_cfa_register %rbp
	subq	$16, %rsp
	movq	(%rdi), %rax
	movq	8(%rdi), %rsi
	movq	%rax, %rdi
	callq	__ZN4core3ptr6unique15Unique$LT$T$GT$6as_ptr17he66e5db0db58858aE
	movq	%rax, -8(%rbp)
	movq	%rdx, -16(%rbp)
	movq	-8(%rbp), %rax
	movq	-16(%rbp), %rdx
	addq	$16, %rsp
	popq	%rbp
	retq
	.cfi_endproc

	.p2align	4, 0x90
__ZN4core3ptr6unique15Unique$LT$T$GT$6as_ref17hcd6fbc65625c1494E:
	.cfi_startproc
	pushq	%rbp
	.cfi_def_cfa_offset 16
	.cfi_offset %rbp, -16
	movq	%rsp, %rbp
	.cfi_def_cfa_register %rbp
	subq	$16, %rsp
	movq	(%rdi), %rax
	movq	8(%rdi), %rsi
	movq	%rax, %rdi
	callq	__ZN4core3ptr6unique15Unique$LT$T$GT$6as_ptr17ha10f36d0b91680bdE
	movq	%rax, -8(%rbp)
	movq	%rdx, -16(%rbp)
	movq	-8(%rbp), %rax
	movq	-16(%rbp), %rdx
	addq	$16, %rsp
	popq	%rbp
	retq
	.cfi_endproc

	.p2align	4, 0x90
__ZN4core3ptr6unique15Unique$LT$T$GT$6as_ref17hfb3f381f7fd33080E:
	.cfi_startproc
	pushq	%rbp
	.cfi_def_cfa_offset 16
	.cfi_offset %rbp, -16
	movq	%rsp, %rbp
	.cfi_def_cfa_register %rbp
	subq	$16, %rsp
	movq	(%rdi), %rax
	movq	8(%rdi), %rsi
	movq	%rax, %rdi
	callq	__ZN4core3ptr6unique15Unique$LT$T$GT$6as_ptr17h9337920dcee90d35E
	movq	%rax, -8(%rbp)
	movq	%rdx, -16(%rbp)
	movq	-8(%rbp), %rax
	movq	-16(%rbp), %rdx
	addq	$16, %rsp
	popq	%rbp
	retq
	.cfi_endproc

	.p2align	4, 0x90
__ZN4core3ptr7mut_ptr31_$LT$impl$u20$$BP$mut$u20$T$GT$3add17ha9439f8d788cc58eE:
	.cfi_startproc
	pushq	%rbp
	.cfi_def_cfa_offset 16
	.cfi_offset %rbp, -16
	movq	%rsp, %rbp
	.cfi_def_cfa_register %rbp
	subq	$16, %rsp
	callq	__ZN4core3ptr7mut_ptr31_$LT$impl$u20$$BP$mut$u20$T$GT$6offset17h8a362faf7c8d516cE
	movq	%rax, -8(%rbp)
	movq	-8(%rbp), %rax
	addq	$16, %rsp
	popq	%rbp
	retq
	.cfi_endproc

	.p2align	4, 0x90
__ZN4core3ptr7mut_ptr31_$LT$impl$u20$$BP$mut$u20$T$GT$6offset17h8a362faf7c8d516cE:
	.cfi_startproc
	pushq	%rbp
	.cfi_def_cfa_offset 16
	.cfi_offset %rbp, -16
	movq	%rsp, %rbp
	.cfi_def_cfa_register %rbp
	subq	$16, %rsp
	addq	%rsi, %rdi
	movq	%rdi, -8(%rbp)
	movq	-8(%rbp), %rax
	movq	%rax, -16(%rbp)
	movq	-16(%rbp), %rax
	addq	$16, %rsp
	popq	%rbp
	retq
	.cfi_endproc

	.p2align	4, 0x90
__ZN4core3ptr7mut_ptr31_$LT$impl$u20$$BP$mut$u20$T$GT$7is_null17h0f76627f6301bc45E:
	.cfi_startproc
	pushq	%rbp
	.cfi_def_cfa_offset 16
	.cfi_offset %rbp, -16
	movq	%rsp, %rbp
	.cfi_def_cfa_register %rbp
	pushq	%rax
	movq	%rdi, -8(%rbp)
	movq	-8(%rbp), %rax
	cmpq	$0, %rax
	sete	%cl
	andb	$1, %cl
	movzbl	%cl, %edx
	movl	%edx, %eax
	addq	$8, %rsp
	popq	%rbp
	retq
	.cfi_endproc

	.p2align	4, 0x90
__ZN4core3ptr7mut_ptr31_$LT$impl$u20$$BP$mut$u20$T$GT$7is_null17h18ccc0153c60abbdE:
	.cfi_startproc
	pushq	%rbp
	.cfi_def_cfa_offset 16
	.cfi_offset %rbp, -16
	movq	%rsp, %rbp
	.cfi_def_cfa_register %rbp
	pushq	%rax
	movq	%rdi, -8(%rbp)
	jmp	LBB154_1
LBB154_1:
	movq	-8(%rbp), %rax
	cmpq	$0, %rax
	sete	%cl
	andb	$1, %cl
	movzbl	%cl, %edx
	movl	%edx, %eax
	addq	$8, %rsp
	popq	%rbp
	retq
	.cfi_endproc

	.p2align	4, 0x90
__ZN4core3ptr7mut_ptr31_$LT$impl$u20$$BP$mut$u20$T$GT$7is_null17h3a8b451517ebd067E:
	.cfi_startproc
	pushq	%rbp
	.cfi_def_cfa_offset 16
	.cfi_offset %rbp, -16
	movq	%rsp, %rbp
	.cfi_def_cfa_register %rbp
	pushq	%rax
	movq	%rdi, -8(%rbp)
	movq	-8(%rbp), %rax
	cmpq	$0, %rax
	sete	%cl
	andb	$1, %cl
	movzbl	%cl, %edx
	movl	%edx, %eax
	addq	$8, %rsp
	popq	%rbp
	retq
	.cfi_endproc

	.p2align	4, 0x90
__ZN4core3ptr7mut_ptr31_$LT$impl$u20$$BP$mut$u20$T$GT$7is_null17hd92dc08a943ff813E:
	.cfi_startproc
	pushq	%rbp
	.cfi_def_cfa_offset 16
	.cfi_offset %rbp, -16
	movq	%rsp, %rbp
	.cfi_def_cfa_register %rbp
	pushq	%rax
	movq	%rdi, -8(%rbp)
	movq	-8(%rbp), %rax
	cmpq	$0, %rax
	sete	%cl
	andb	$1, %cl
	movzbl	%cl, %edx
	movl	%edx, %eax
	addq	$8, %rsp
	popq	%rbp
	retq
	.cfi_endproc

	.p2align	4, 0x90
__ZN4core3ptr7mut_ptr31_$LT$impl$u20$$BP$mut$u20$T$GT$7is_null17hf50e5ab3c586775aE:
	.cfi_startproc
	pushq	%rbp
	.cfi_def_cfa_offset 16
	.cfi_offset %rbp, -16
	movq	%rsp, %rbp
	.cfi_def_cfa_register %rbp
	pushq	%rax
	movq	%rdi, -8(%rbp)
	movq	-8(%rbp), %rax
	cmpq	$0, %rax
	sete	%cl
	andb	$1, %cl
	movzbl	%cl, %edx
	movl	%edx, %eax
	addq	$8, %rsp
	popq	%rbp
	retq
	.cfi_endproc

	.p2align	4, 0x90
__ZN4core3ptr7mut_ptr41_$LT$impl$u20$$BP$mut$u20$$u5b$T$u5d$$GT$10as_mut_ptr17ha0dca888528c8fb2E:
	.cfi_startproc
	pushq	%rbp
	.cfi_def_cfa_offset 16
	.cfi_offset %rbp, -16
	movq	%rsp, %rbp
	.cfi_def_cfa_register %rbp
	movq	%rdi, %rax
	popq	%rbp
	retq
	.cfi_endproc

	.p2align	4, 0x90
__ZN4core3ptr8non_null16NonNull$LT$T$GT$13new_unchecked17h57b70d57d64ebb5eE:
	.cfi_startproc
	pushq	%rbp
	.cfi_def_cfa_offset 16
	.cfi_offset %rbp, -16
	movq	%rsp, %rbp
	.cfi_def_cfa_register %rbp
	pushq	%rax
	movq	%rdi, -8(%rbp)
	movq	-8(%rbp), %rax
	addq	$8, %rsp
	popq	%rbp
	retq
	.cfi_endproc

	.p2align	4, 0x90
__ZN4core3ptr8non_null16NonNull$LT$T$GT$13new_unchecked17h7608f3e751e16143E:
	.cfi_startproc
	pushq	%rbp
	.cfi_def_cfa_offset 16
	.cfi_offset %rbp, -16
	movq	%rsp, %rbp
	.cfi_def_cfa_register %rbp
	pushq	%rax
	movq	%rdi, -8(%rbp)
	movq	-8(%rbp), %rax
	addq	$8, %rsp
	popq	%rbp
	retq
	.cfi_endproc

	.p2align	4, 0x90
__ZN4core3ptr8non_null16NonNull$LT$T$GT$3new17h7dd682689e679384E:
	.cfi_startproc
	pushq	%rbp
	.cfi_def_cfa_offset 16
	.cfi_offset %rbp, -16
	movq	%rsp, %rbp
	.cfi_def_cfa_register %rbp
	subq	$32, %rsp
	movq	%rdi, -16(%rbp)
	callq	__ZN4core3ptr7mut_ptr31_$LT$impl$u20$$BP$mut$u20$T$GT$7is_null17hd92dc08a943ff813E
	movb	%al, -17(%rbp)
	movb	-17(%rbp), %al
	xorb	$-1, %al
	testb	$1, %al
	jne	LBB161_3
	movq	$0, -8(%rbp)
	jmp	LBB161_5
LBB161_3:
	movq	-16(%rbp), %rdi
	callq	__ZN4core3ptr8non_null16NonNull$LT$T$GT$13new_unchecked17h7608f3e751e16143E
	movq	%rax, -32(%rbp)
	movq	-32(%rbp), %rax
	movq	%rax, -8(%rbp)
LBB161_5:
	movq	-8(%rbp), %rax
	addq	$32, %rsp
	popq	%rbp
	retq
	.cfi_endproc

	.p2align	4, 0x90
__ZN4core3ptr8non_null16NonNull$LT$T$GT$4cast17hb173206ef4b024b3E:
	.cfi_startproc
	pushq	%rbp
	.cfi_def_cfa_offset 16
	.cfi_offset %rbp, -16
	movq	%rsp, %rbp
	.cfi_def_cfa_register %rbp
	subq	$16, %rsp
	callq	__ZN4core3ptr8non_null16NonNull$LT$T$GT$6as_ptr17ha039447f4b24019eE
	movq	%rax, -8(%rbp)
	movq	-8(%rbp), %rax
	movq	%rax, %rdi
	callq	__ZN4core3ptr8non_null16NonNull$LT$T$GT$13new_unchecked17h57b70d57d64ebb5eE
	movq	%rax, -16(%rbp)
	movq	-16(%rbp), %rax
	addq	$16, %rsp
	popq	%rbp
	retq
	.cfi_endproc

	.p2align	4, 0x90
__ZN4core3ptr8non_null16NonNull$LT$T$GT$6as_ptr17ha039447f4b24019eE:
	.cfi_startproc
	pushq	%rbp
	.cfi_def_cfa_offset 16
	.cfi_offset %rbp, -16
	movq	%rsp, %rbp
	.cfi_def_cfa_register %rbp
	movq	%rdi, %rax
	popq	%rbp
	retq
	.cfi_endproc

	.p2align	4, 0x90
__ZN4core3ptr8non_null16NonNull$LT$T$GT$6as_ptr17hfb5b8c661b28a103E:
	.cfi_startproc
	pushq	%rbp
	.cfi_def_cfa_offset 16
	.cfi_offset %rbp, -16
	movq	%rsp, %rbp
	.cfi_def_cfa_register %rbp
	movq	%rdi, %rax
	popq	%rbp
	retq
	.cfi_endproc

	.p2align	4, 0x90
__ZN4core3ptr8non_null16NonNull$LT$T$GT$6as_ref17h37aabfb127b49464E:
	.cfi_startproc
	pushq	%rbp
	.cfi_def_cfa_offset 16
	.cfi_offset %rbp, -16
	movq	%rsp, %rbp
	.cfi_def_cfa_register %rbp
	subq	$16, %rsp
	movq	(%rdi), %rdi
	callq	__ZN4core3ptr8non_null16NonNull$LT$T$GT$6as_ptr17ha039447f4b24019eE
	movq	%rax, -8(%rbp)
	movq	-8(%rbp), %rax
	addq	$16, %rsp
	popq	%rbp
	retq
	.cfi_endproc

	.p2align	4, 0x90
__ZN4core3ptr9const_ptr33_$LT$impl$u20$$BP$const$u20$T$GT$12wrapping_add17h740d65b28c1c4dcdE:
	.cfi_startproc
	pushq	%rbp
	.cfi_def_cfa_offset 16
	.cfi_offset %rbp, -16
	movq	%rsp, %rbp
	.cfi_def_cfa_register %rbp
	subq	$16, %rsp
	callq	__ZN4core3ptr9const_ptr33_$LT$impl$u20$$BP$const$u20$T$GT$15wrapping_offset17h100880de281aff67E
	movq	%rax, -8(%rbp)
	movq	-8(%rbp), %rax
	addq	$16, %rsp
	popq	%rbp
	retq
	.cfi_endproc

	.p2align	4, 0x90
__ZN4core3ptr9const_ptr33_$LT$impl$u20$$BP$const$u20$T$GT$13guaranteed_eq17hf3f53ca742354696E:
	.cfi_startproc
	pushq	%rbp
	.cfi_def_cfa_offset 16
	.cfi_offset %rbp, -16
	movq	%rsp, %rbp
	.cfi_def_cfa_register %rbp
	subq	$2, %rsp
	cmpq	%rsi, %rdi
	sete	%al
	andb	$1, %al
	movb	%al, -1(%rbp)
	movb	-1(%rbp), %al
	movb	%al, -2(%rbp)
	movb	-2(%rbp), %al
	andb	$1, %al
	movzbl	%al, %eax
	addq	$2, %rsp
	popq	%rbp
	retq
	.cfi_endproc

	.p2align	4, 0x90
__ZN4core3ptr9const_ptr33_$LT$impl$u20$$BP$const$u20$T$GT$15wrapping_offset17h100880de281aff67E:
	.cfi_startproc
	pushq	%rbp
	.cfi_def_cfa_offset 16
	.cfi_offset %rbp, -16
	movq	%rsp, %rbp
	.cfi_def_cfa_register %rbp
	subq	$16, %rsp
	addq	%rsi, %rdi
	movq	%rdi, -8(%rbp)
	movq	-8(%rbp), %rax
	movq	%rax, -16(%rbp)
	movq	-16(%rbp), %rax
	addq	$16, %rsp
	popq	%rbp
	retq
	.cfi_endproc

	.p2align	4, 0x90
__ZN4core3ptr9const_ptr33_$LT$impl$u20$$BP$const$u20$T$GT$3add17h0bde8cab90c0f77eE:
	.cfi_startproc
	pushq	%rbp
	.cfi_def_cfa_offset 16
	.cfi_offset %rbp, -16
	movq	%rsp, %rbp
	.cfi_def_cfa_register %rbp
	subq	$16, %rsp
	callq	__ZN4core3ptr9const_ptr33_$LT$impl$u20$$BP$const$u20$T$GT$6offset17h128a9691b3c90a0dE
	movq	%rax, -8(%rbp)
	movq	-8(%rbp), %rax
	addq	$16, %rsp
	popq	%rbp
	retq
	.cfi_endproc

	.p2align	4, 0x90
__ZN4core3ptr9const_ptr33_$LT$impl$u20$$BP$const$u20$T$GT$3add17h69c29e3018b9898eE:
	.cfi_startproc
	pushq	%rbp
	.cfi_def_cfa_offset 16
	.cfi_offset %rbp, -16
	movq	%rsp, %rbp
	.cfi_def_cfa_register %rbp
	subq	$16, %rsp
	callq	__ZN4core3ptr9const_ptr33_$LT$impl$u20$$BP$const$u20$T$GT$6offset17h80567e493b28192cE
	movq	%rax, -8(%rbp)
	movq	-8(%rbp), %rax
	addq	$16, %rsp
	popq	%rbp
	retq
	.cfi_endproc

	.p2align	4, 0x90
__ZN4core3ptr9const_ptr33_$LT$impl$u20$$BP$const$u20$T$GT$3add17h6ea8436da371bd70E:
	.cfi_startproc
	pushq	%rbp
	.cfi_def_cfa_offset 16
	.cfi_offset %rbp, -16
	movq	%rsp, %rbp
	.cfi_def_cfa_register %rbp
	subq	$16, %rsp
	callq	__ZN4core3ptr9const_ptr33_$LT$impl$u20$$BP$const$u20$T$GT$6offset17h6220055cbec69690E
	movq	%rax, -8(%rbp)
	movq	-8(%rbp), %rax
	addq	$16, %rsp
	popq	%rbp
	retq
	.cfi_endproc

	.p2align	4, 0x90
__ZN4core3ptr9const_ptr33_$LT$impl$u20$$BP$const$u20$T$GT$3add17h9e1002b2c260cb97E:
	.cfi_startproc
	pushq	%rbp
	.cfi_def_cfa_offset 16
	.cfi_offset %rbp, -16
	movq	%rsp, %rbp
	.cfi_def_cfa_register %rbp
	subq	$16, %rsp
	callq	__ZN4core3ptr9const_ptr33_$LT$impl$u20$$BP$const$u20$T$GT$6offset17h248f77ad8c70e16fE
	movq	%rax, -8(%rbp)
	movq	-8(%rbp), %rax
	addq	$16, %rsp
	popq	%rbp
	retq
	.cfi_endproc

	.p2align	4, 0x90
__ZN4core3ptr9const_ptr33_$LT$impl$u20$$BP$const$u20$T$GT$6offset17h128a9691b3c90a0dE:
	.cfi_startproc
	pushq	%rbp
	.cfi_def_cfa_offset 16
	.cfi_offset %rbp, -16
	movq	%rsp, %rbp
	.cfi_def_cfa_register %rbp
	subq	$16, %rsp
	addq	%rsi, %rdi
	movq	%rdi, -8(%rbp)
	movq	-8(%rbp), %rax
	movq	%rax, -16(%rbp)
	movq	-16(%rbp), %rax
	addq	$16, %rsp
	popq	%rbp
	retq
	.cfi_endproc

	.p2align	4, 0x90
__ZN4core3ptr9const_ptr33_$LT$impl$u20$$BP$const$u20$T$GT$6offset17h248f77ad8c70e16fE:
	.cfi_startproc
	pushq	%rbp
	.cfi_def_cfa_offset 16
	.cfi_offset %rbp, -16
	movq	%rsp, %rbp
	.cfi_def_cfa_register %rbp
	subq	$16, %rsp
	imulq	$24, %rsi, %rax
	addq	%rax, %rdi
	movq	%rdi, -8(%rbp)
	movq	-8(%rbp), %rax
	movq	%rax, -16(%rbp)
	movq	-16(%rbp), %rax
	addq	$16, %rsp
	popq	%rbp
	retq
	.cfi_endproc

	.p2align	4, 0x90
__ZN4core3ptr9const_ptr33_$LT$impl$u20$$BP$const$u20$T$GT$6offset17h6220055cbec69690E:
	.cfi_startproc
	pushq	%rbp
	.cfi_def_cfa_offset 16
	.cfi_offset %rbp, -16
	movq	%rsp, %rbp
	.cfi_def_cfa_register %rbp
	subq	$16, %rsp
	shlq	$3, %rsi
	addq	%rsi, %rdi
	movq	%rdi, -8(%rbp)
	movq	-8(%rbp), %rax
	movq	%rax, -16(%rbp)
	movq	-16(%rbp), %rax
	addq	$16, %rsp
	popq	%rbp
	retq
	.cfi_endproc

	.p2align	4, 0x90
__ZN4core3ptr9const_ptr33_$LT$impl$u20$$BP$const$u20$T$GT$6offset17h80567e493b28192cE:
	.cfi_startproc
	pushq	%rbp
	.cfi_def_cfa_offset 16
	.cfi_offset %rbp, -16
	movq	%rsp, %rbp
	.cfi_def_cfa_register %rbp
	subq	$16, %rsp
	imulq	$24, %rsi, %rax
	addq	%rax, %rdi
	movq	%rdi, -8(%rbp)
	movq	-8(%rbp), %rax
	movq	%rax, -16(%rbp)
	movq	-16(%rbp), %rax
	addq	$16, %rsp
	popq	%rbp
	retq
	.cfi_endproc

	.p2align	4, 0x90
__ZN4core3ptr9const_ptr33_$LT$impl$u20$$BP$const$u20$T$GT$7is_null17h7744ab77ba200ba3E:
	.cfi_startproc
	pushq	%rbp
	.cfi_def_cfa_offset 16
	.cfi_offset %rbp, -16
	movq	%rsp, %rbp
	.cfi_def_cfa_register %rbp
	pushq	%rax
	movq	%rdi, -8(%rbp)
	jmp	LBB177_1
LBB177_1:
	movq	-8(%rbp), %rax
	cmpq	$0, %rax
	sete	%cl
	andb	$1, %cl
	movzbl	%cl, %edx
	movl	%edx, %eax
	addq	$8, %rsp
	popq	%rbp
	retq
	.cfi_endproc

	.p2align	4, 0x90
__ZN4core3ptr9const_ptr43_$LT$impl$u20$$BP$const$u20$$u5b$T$u5d$$GT$3len17ha5b86411e9caf51cE:
	.cfi_startproc
	pushq	%rbp
	.cfi_def_cfa_offset 16
	.cfi_offset %rbp, -16
	movq	%rsp, %rbp
	.cfi_def_cfa_register %rbp
	subq	$16, %rsp
	movq	%rdi, -16(%rbp)
	movq	%rsi, -8(%rbp)
	movq	-8(%rbp), %rax
	addq	$16, %rsp
	popq	%rbp
	retq
	.cfi_endproc

	.p2align	4, 0x90
__ZN4core3ptr9const_ptr43_$LT$impl$u20$$BP$const$u20$$u5b$T$u5d$$GT$6as_ptr17h69b2ae911bebb23bE:
	.cfi_startproc
	pushq	%rbp
	.cfi_def_cfa_offset 16
	.cfi_offset %rbp, -16
	movq	%rsp, %rbp
	.cfi_def_cfa_register %rbp
	movq	%rdi, %rax
	popq	%rbp
	retq
	.cfi_endproc

	.p2align	4, 0x90
__ZN4core3ptr9const_ptr43_$LT$impl$u20$$BP$const$u20$$u5b$T$u5d$$GT$6as_ptr17ha38ca27c55c4f07aE:
	.cfi_startproc
	pushq	%rbp
	.cfi_def_cfa_offset 16
	.cfi_offset %rbp, -16
	movq	%rsp, %rbp
	.cfi_def_cfa_register %rbp
	movq	%rdi, %rax
	popq	%rbp
	retq
	.cfi_endproc

	.p2align	4, 0x90
__ZN4core3ptr9const_ptr43_$LT$impl$u20$$BP$const$u20$$u5b$T$u5d$$GT$6as_ptr17hc34458e7f621c73dE:
	.cfi_startproc
	pushq	%rbp
	.cfi_def_cfa_offset 16
	.cfi_offset %rbp, -16
	movq	%rsp, %rbp
	.cfi_def_cfa_register %rbp
	movq	%rdi, %rax
	popq	%rbp
	retq
	.cfi_endproc

	.p2align	4, 0x90
__ZN4core3ptr9const_ptr43_$LT$impl$u20$$BP$const$u20$$u5b$T$u5d$$GT$6as_ptr17hf6478a859fbd0e3fE:
	.cfi_startproc
	pushq	%rbp
	.cfi_def_cfa_offset 16
	.cfi_offset %rbp, -16
	movq	%rsp, %rbp
	.cfi_def_cfa_register %rbp
	movq	%rdi, %rax
	popq	%rbp
	retq
	.cfi_endproc

	.p2align	4, 0x90
__ZN4core3str11unwrap_or_017h097886ab61fe8f63E:
	.cfi_startproc
	pushq	%rbp
	.cfi_def_cfa_offset 16
	.cfi_offset %rbp, -16
	movq	%rsp, %rbp
	.cfi_def_cfa_register %rbp
	subq	$16, %rsp
	movq	%rdi, -16(%rbp)
	movq	-16(%rbp), %rax
	testq	%rax, %rax
	setne	%cl
	movzbl	%cl, %edx
	movl	%edx, %eax
	je	LBB183_1
	jmp	LBB183_5
LBB183_5:
	jmp	LBB183_3
LBB183_1:
	movb	$0, -1(%rbp)
	jmp	LBB183_4
	ud2
LBB183_3:
	movq	-16(%rbp), %rax
	movb	(%rax), %cl
	movb	%cl, -1(%rbp)
LBB183_4:
	movb	-1(%rbp), %al
	addq	$16, %rsp
	popq	%rbp
	retq
	.cfi_endproc

	.p2align	4, 0x90
__ZN4core3str15next_code_point17hf101bf819403f6e8E:
	.cfi_startproc
	pushq	%rbp
	.cfi_def_cfa_offset 16
	.cfi_offset %rbp, -16
	movq	%rsp, %rbp
	.cfi_def_cfa_register %rbp
	subq	$112, %rsp
	movq	%rdi, -32(%rbp)
	callq	__ZN85_$LT$core..slice..Iter$LT$T$GT$$u20$as$u20$core..iter..traits..iterator..Iterator$GT$4next17hdedacfc865f01557E
	movq	%rax, -40(%rbp)
	movq	-40(%rbp), %rdi
	callq	__ZN69_$LT$core..option..Option$LT$T$GT$$u20$as$u20$core..ops..try..Try$GT$11into_result17h5c265163f5f5bdadE
	movq	%rax, -16(%rbp)
	movq	-16(%rbp), %rax
	testq	%rax, %rax
	sete	%cl
	movzbl	%cl, %edx
	movl	%edx, %eax
	jne	LBB184_3
	jmp	LBB184_28
LBB184_28:
	jmp	LBB184_5
LBB184_3:
	movq	-16(%rbp), %rax
	movb	(%rax), %cl
	cmpb	$-128, %cl
	movb	%cl, -41(%rbp)
	jb	LBB184_11
	jmp	LBB184_10
	ud2
LBB184_5:
	callq	__ZN50_$LT$T$u20$as$u20$core..convert..From$LT$T$GT$$GT$4from17hfece0c976f8c604bE
	jmp	LBB184_7
LBB184_6:
	movl	-24(%rbp), %eax
	movl	-20(%rbp), %edx
	addq	$112, %rsp
	popq	%rbp
	retq
LBB184_7:
	callq	__ZN69_$LT$core..option..Option$LT$T$GT$$u20$as$u20$core..ops..try..Try$GT$10from_error17h124c5ba515041c7cE
	movl	%edx, -20(%rbp)
	movl	%eax, -24(%rbp)
	jmp	LBB184_9
LBB184_9:
	jmp	LBB184_6
LBB184_10:
	movb	-41(%rbp), %al
	movzbl	%al, %edi
	movl	$2, %esi
	callq	__ZN4core3str15utf8_first_byte17hf6520621d2f89e72E
	movl	%eax, -48(%rbp)
	jmp	LBB184_12
LBB184_11:
	movb	-41(%rbp), %al
	movzbl	%al, %ecx
	movl	%ecx, -20(%rbp)
	movl	$1, -24(%rbp)
	jmp	LBB184_9
LBB184_12:
	movq	-32(%rbp), %rdi
	callq	__ZN85_$LT$core..slice..Iter$LT$T$GT$$u20$as$u20$core..iter..traits..iterator..Iterator$GT$4next17hdedacfc865f01557E
	movq	%rax, -56(%rbp)
	movq	-56(%rbp), %rdi
	callq	__ZN4core3str11unwrap_or_017h097886ab61fe8f63E
	movb	%al, -57(%rbp)
	movl	-48(%rbp), %edi
	movb	-57(%rbp), %al
	movzbl	%al, %esi
	callq	__ZN4core3str18utf8_acc_cont_byte17hfa95a58232fe2bcdE
	movl	%eax, -4(%rbp)
	movb	-41(%rbp), %al
	cmpb	$-32, %al
	jae	LBB184_17
	jmp	LBB184_27
LBB184_17:
	movq	-32(%rbp), %rdi
	callq	__ZN85_$LT$core..slice..Iter$LT$T$GT$$u20$as$u20$core..iter..traits..iterator..Iterator$GT$4next17hdedacfc865f01557E
	movq	%rax, -72(%rbp)
	movq	-72(%rbp), %rdi
	callq	__ZN4core3str11unwrap_or_017h097886ab61fe8f63E
	movb	%al, -73(%rbp)
	movb	-57(%rbp), %al
	andb	$63, %al
	movzbl	%al, %edi
	movb	-73(%rbp), %al
	movzbl	%al, %esi
	callq	__ZN4core3str18utf8_acc_cont_byte17hfa95a58232fe2bcdE
	movl	%eax, -80(%rbp)
	movl	-48(%rbp), %eax
	shll	$12, %eax
	movl	-80(%rbp), %ecx
	orl	%ecx, %eax
	movl	%eax, -4(%rbp)
	movb	-41(%rbp), %dl
	cmpb	$-16, %dl
	jae	LBB184_22
	jmp	LBB184_26
LBB184_22:
	movq	-32(%rbp), %rdi
	callq	__ZN85_$LT$core..slice..Iter$LT$T$GT$$u20$as$u20$core..iter..traits..iterator..Iterator$GT$4next17hdedacfc865f01557E
	movq	%rax, -88(%rbp)
	movq	-88(%rbp), %rdi
	callq	__ZN4core3str11unwrap_or_017h097886ab61fe8f63E
	movb	%al, -89(%rbp)
	movl	-48(%rbp), %eax
	andl	$7, %eax
	shll	$18, %eax
	movl	-80(%rbp), %edi
	movb	-89(%rbp), %cl
	movzbl	%cl, %esi
	movl	%eax, -96(%rbp)
	callq	__ZN4core3str18utf8_acc_cont_byte17hfa95a58232fe2bcdE
	movl	%eax, -100(%rbp)
	movl	-96(%rbp), %eax
	movl	-100(%rbp), %ecx
	orl	%ecx, %eax
	movl	%eax, -4(%rbp)
LBB184_26:
	jmp	LBB184_27
LBB184_27:
	movl	-4(%rbp), %eax
	movl	%eax, -20(%rbp)
	movl	$1, -24(%rbp)
	jmp	LBB184_6
	.cfi_endproc

	.p2align	4, 0x90
__ZN4core3str15utf8_first_byte17hf6520621d2f89e72E:
	.cfi_startproc
	pushq	%rbp
	.cfi_def_cfa_offset 16
	.cfi_offset %rbp, -16
	movq	%rsp, %rbp
	.cfi_def_cfa_register %rbp
	andb	$7, %sil
	movb	%sil, %cl
	movb	$127, %al
	shrb	%cl, %al
	andb	%al, %dil
	movzbl	%dil, %eax
	popq	%rbp
	retq
	.cfi_endproc

	.p2align	4, 0x90
__ZN4core3str18utf8_acc_cont_byte17hfa95a58232fe2bcdE:
	.cfi_startproc
	pushq	%rbp
	.cfi_def_cfa_offset 16
	.cfi_offset %rbp, -16
	movq	%rsp, %rbp
	.cfi_def_cfa_register %rbp
	shll	$6, %edi
	andb	$63, %sil
	movzbl	%sil, %eax
	orl	%eax, %edi
	movl	%edi, %eax
	popq	%rbp
	retq
	.cfi_endproc

	.p2align	4, 0x90
__ZN4core3str19from_utf8_unchecked17h5badb7d3502590c2E:
	.cfi_startproc
	pushq	%rbp
	.cfi_def_cfa_offset 16
	.cfi_offset %rbp, -16
	movq	%rsp, %rbp
	.cfi_def_cfa_register %rbp
	movq	%rdi, %rax
	movq	%rsi, %rdx
	popq	%rbp
	retq
	.cfi_endproc

	.p2align	4, 0x90
__ZN4core3str21_$LT$impl$u20$str$GT$11starts_with17heeb50a2ee19bc8c0E:
	.cfi_startproc
	pushq	%rbp
	.cfi_def_cfa_offset 16
	.cfi_offset %rbp, -16
	movq	%rsp, %rbp
	.cfi_def_cfa_register %rbp
	subq	$32, %rsp
	movq	%rdi, -8(%rbp)
	movq	%rdx, %rdi
	movq	%rsi, -16(%rbp)
	movq	%rcx, %rsi
	movq	-8(%rbp), %rdx
	movq	-16(%rbp), %rcx
	callq	__ZN55_$LT$$RF$str$u20$as$u20$core..str..pattern..Pattern$GT$12is_prefix_of17hbeb4a4d9ca138adfE
	movb	%al, -17(%rbp)
	movb	-17(%rbp), %al
	andb	$1, %al
	movzbl	%al, %eax
	addq	$32, %rsp
	popq	%rbp
	retq
	.cfi_endproc

	.p2align	4, 0x90
__ZN4core3str21_$LT$impl$u20$str$GT$13get_unchecked17h636d1aff4c4a60e8E:
	.cfi_startproc
	pushq	%rbp
	.cfi_def_cfa_offset 16
	.cfi_offset %rbp, -16
	movq	%rsp, %rbp
	.cfi_def_cfa_register %rbp
	subq	$32, %rsp
	movq	%rdi, -8(%rbp)
	movq	%rdx, %rdi
	movq	%rsi, -16(%rbp)
	movq	%rcx, %rsi
	movq	-8(%rbp), %rdx
	movq	-16(%rbp), %rcx
	callq	__ZN4core3str6traits101_$LT$impl$u20$core..slice..SliceIndex$LT$str$GT$$u20$for$u20$core..ops..range..Range$LT$usize$GT$$GT$13get_unchecked17h85946237f05aeba5E
	movq	%rax, -24(%rbp)
	movq	%rdx, -32(%rbp)
	movq	-24(%rbp), %rax
	movq	-32(%rbp), %rdx
	addq	$32, %rsp
	popq	%rbp
	retq
	.cfi_endproc

	.p2align	4, 0x90
__ZN4core3str21_$LT$impl$u20$str$GT$16is_char_boundary17h203989b0c2a6aeaaE:
	.cfi_startproc
	pushq	%rbp
	.cfi_def_cfa_offset 16
	.cfi_offset %rbp, -16
	movq	%rsp, %rbp
	.cfi_def_cfa_register %rbp
	subq	$80, %rsp
	cmpq	$0, %rdx
	movq	%rdi, -40(%rbp)
	movq	%rsi, -48(%rbp)
	movq	%rdx, -56(%rbp)
	jne	LBB190_3
LBB190_1:
	movb	$1, -25(%rbp)
	jmp	LBB190_4
LBB190_2:
	movb	$0, -25(%rbp)
	jmp	LBB190_4
LBB190_3:
	movq	-40(%rbp), %rdi
	movq	-48(%rbp), %rsi
	callq	__ZN4core3str21_$LT$impl$u20$str$GT$3len17h3e295a148c845646E
	movq	%rax, -64(%rbp)
	jmp	LBB190_5
LBB190_4:
	testb	$1, -25(%rbp)
	jne	LBB190_7
	jmp	LBB190_6
LBB190_5:
	movq	-56(%rbp), %rax
	movq	-64(%rbp), %rcx
	cmpq	%rcx, %rax
	je	LBB190_1
	jmp	LBB190_2
LBB190_6:
	movq	-40(%rbp), %rax
	movq	%rax, -16(%rbp)
	movq	-48(%rbp), %rcx
	movq	%rcx, -8(%rbp)
	movq	-16(%rbp), %rdi
	movq	-8(%rbp), %rsi
	movq	%rdi, -72(%rbp)
	movq	%rsi, -80(%rbp)
	jmp	LBB190_9
LBB190_7:
	movb	$1, -26(%rbp)
LBB190_8:
	movb	-26(%rbp), %al
	andb	$1, %al
	movzbl	%al, %eax
	addq	$80, %rsp
	popq	%rbp
	retq
LBB190_9:
	movq	-72(%rbp), %rdi
	movq	-80(%rbp), %rsi
	movq	-56(%rbp), %rdx
	callq	__ZN4core5slice29_$LT$impl$u20$$u5b$T$u5d$$GT$3get17h5e8be96415784dc3E
	movq	%rax, -24(%rbp)
	movq	-24(%rbp), %rax
	testq	%rax, %rax
	setne	%cl
	movzbl	%cl, %edx
	movl	%edx, %eax
	je	LBB190_13
	jmp	LBB190_15
LBB190_15:
	movq	-24(%rbp), %rax
	cmpb	$-64, (%rax)
	setge	%cl
	andb	$1, %cl
	movb	%cl, -26(%rbp)
	jmp	LBB190_14
	ud2
LBB190_13:
	movb	$0, -26(%rbp)
LBB190_14:
	jmp	LBB190_8
	.cfi_endproc

	.p2align	4, 0x90
__ZN4core3str21_$LT$impl$u20$str$GT$3len17h3e295a148c845646E:
	.cfi_startproc
	pushq	%rbp
	.cfi_def_cfa_offset 16
	.cfi_offset %rbp, -16
	movq	%rsp, %rbp
	.cfi_def_cfa_register %rbp
	subq	$48, %rsp
	movq	%rdi, -16(%rbp)
	movq	%rsi, -8(%rbp)
	movq	-16(%rbp), %rdi
	movq	-8(%rbp), %rsi
	movq	%rdi, -24(%rbp)
	movq	%rsi, -32(%rbp)
	movq	-24(%rbp), %rdi
	movq	-32(%rbp), %rsi
	callq	__ZN4core5slice29_$LT$impl$u20$$u5b$T$u5d$$GT$3len17heb0ac352e87c149aE
	movq	%rax, -40(%rbp)
	movq	-40(%rbp), %rax
	addq	$48, %rsp
	popq	%rbp
	retq
	.cfi_endproc

	.p2align	4, 0x90
__ZN4core3str21_$LT$impl$u20$str$GT$5chars17hd0833419cbb9b3afE:
	.cfi_startproc
	pushq	%rbp
	.cfi_def_cfa_offset 16
	.cfi_offset %rbp, -16
	movq	%rsp, %rbp
	.cfi_def_cfa_register %rbp
	subq	$64, %rsp
	movq	%rdi, -16(%rbp)
	movq	%rsi, -8(%rbp)
	movq	-16(%rbp), %rdi
	movq	-8(%rbp), %rsi
	movq	%rdi, -40(%rbp)
	movq	%rsi, -48(%rbp)
	movq	-40(%rbp), %rdi
	movq	-48(%rbp), %rsi
	callq	__ZN4core5slice29_$LT$impl$u20$$u5b$T$u5d$$GT$4iter17haa5b98ce8f95c4bcE
	movq	%rax, -56(%rbp)
	movq	%rdx, -64(%rbp)
	movq	-56(%rbp), %rax
	movq	%rax, -32(%rbp)
	movq	-64(%rbp), %rcx
	movq	%rcx, -24(%rbp)
	movq	-32(%rbp), %rax
	movq	-24(%rbp), %rdx
	addq	$64, %rsp
	popq	%rbp
	retq
	.cfi_endproc

	.p2align	4, 0x90
__ZN4core3str21_$LT$impl$u20$str$GT$5parse17h3aec2da622a2628eE:
	.cfi_startproc
	pushq	%rbp
	.cfi_def_cfa_offset 16
	.cfi_offset %rbp, -16
	movq	%rsp, %rbp
	.cfi_def_cfa_register %rbp
	subq	$16, %rsp
	callq	__ZN4core3num52_$LT$impl$u20$core..str..FromStr$u20$for$u20$u32$GT$8from_str17h7755800c3765c881E
	movq	%rax, -8(%rbp)
	movq	-8(%rbp), %rax
	movq	%rax, -16(%rbp)
	movq	-16(%rbp), %rax
	addq	$16, %rsp
	popq	%rbp
	retq
	.cfi_endproc

	.p2align	4, 0x90
__ZN4core3str21_$LT$impl$u20$str$GT$5split17ha6ff40d1e976748dE:
Lfunc_begin23:
	.cfi_startproc
	.cfi_personality 155, _rust_eh_personality
	.cfi_lsda 16, Lexception23
	pushq	%rbp
	.cfi_def_cfa_offset 16
	.cfi_offset %rbp, -16
	movq	%rsp, %rbp
	.cfi_def_cfa_register %rbp
	subq	$208, %rsp
	movq	%rdi, %rax
	movb	$0, -17(%rbp)
	movb	$1, -17(%rbp)
Ltmp108:
	movq	%rdi, -152(%rbp)
	movq	%rsi, %rdi
	movq	%rsi, -160(%rbp)
	movq	%rdx, %rsi
	movl	%ecx, -164(%rbp)
	movq	%rdx, -176(%rbp)
	movq	%rax, -184(%rbp)
	callq	__ZN4core3str21_$LT$impl$u20$str$GT$3len17h3e295a148c845646E
Ltmp109:
	movq	%rax, -192(%rbp)
	jmp	LBB194_2
LBB194_1:
	movq	-16(%rbp), %rdi
	callq	__Unwind_Resume
	ud2
LBB194_2:
	movb	$0, -17(%rbp)
Ltmp110:
	leaq	-72(%rbp), %rdi
	movl	-164(%rbp), %esi
	movq	-160(%rbp), %rdx
	movq	-176(%rbp), %rcx
	callq	__ZN52_$LT$char$u20$as$u20$core..str..pattern..Pattern$GT$13into_searcher17h754b5a835cf144e5E
Ltmp111:
	jmp	LBB194_3
LBB194_3:
	movq	$0, -144(%rbp)
	movq	-192(%rbp), %rax
	movq	%rax, -136(%rbp)
	leaq	-144(%rbp), %rcx
	movq	%rcx, %rdx
	addq	$16, %rdx
	leaq	-72(%rbp), %rsi
	movq	%rdx, %rdi
	movl	$48, %edx
	movq	%rcx, -200(%rbp)
	callq	_memcpy
	movb	$1, -80(%rbp)
	movb	$0, -79(%rbp)
	movq	-152(%rbp), %rax
	movq	-200(%rbp), %rcx
	movq	%rax, %rdi
	movq	%rcx, %rsi
	movl	$72, %edx
	callq	_memcpy
	movq	-184(%rbp), %rax
	addq	$208, %rsp
	popq	%rbp
	retq
LBB194_4:
	movb	$0, -17(%rbp)
	jmp	LBB194_1
LBB194_5:
	testb	$1, -17(%rbp)
	jne	LBB194_4
	jmp	LBB194_1
LBB194_6:
Ltmp112:
	movq	%rax, -16(%rbp)
	movl	%edx, -8(%rbp)
	jmp	LBB194_5
Lfunc_end23:
	.cfi_endproc
	.section	__TEXT,__gcc_except_tab
	.p2align	2
GCC_except_table194:
Lexception23:
	.byte	255
	.byte	255
	.byte	1
	.uleb128 Lcst_end23-Lcst_begin23
Lcst_begin23:
	.uleb128 Ltmp108-Lfunc_begin23
	.uleb128 Ltmp109-Ltmp108
	.uleb128 Ltmp112-Lfunc_begin23
	.byte	0
	.uleb128 Ltmp109-Lfunc_begin23
	.uleb128 Ltmp110-Ltmp109
	.byte	0
	.byte	0
	.uleb128 Ltmp110-Lfunc_begin23
	.uleb128 Ltmp111-Ltmp110
	.uleb128 Ltmp112-Lfunc_begin23
	.byte	0
	.uleb128 Ltmp111-Lfunc_begin23
	.uleb128 Lfunc_end23-Ltmp111
	.byte	0
	.byte	0
Lcst_end23:
	.p2align	2

	.section	__TEXT,__text,regular,pure_instructions
	.p2align	4, 0x90
__ZN4core3str21_$LT$impl$u20$str$GT$8contains17h2f30bdc002c81309E:
	.cfi_startproc
	pushq	%rbp
	.cfi_def_cfa_offset 16
	.cfi_offset %rbp, -16
	movq	%rsp, %rbp
	.cfi_def_cfa_register %rbp
	subq	$32, %rsp
	movq	%rdi, -8(%rbp)
	movq	%rdx, %rdi
	movq	%rsi, -16(%rbp)
	movq	%rcx, %rsi
	movq	-8(%rbp), %rdx
	movq	-16(%rbp), %rcx
	callq	__ZN4core3str7pattern7Pattern15is_contained_in17h2a12dba54d719955E
	movb	%al, -17(%rbp)
	movb	-17(%rbp), %al
	andb	$1, %al
	movzbl	%al, %eax
	addq	$32, %rsp
	popq	%rbp
	retq
	.cfi_endproc

	.p2align	4, 0x90
__ZN4core3str22SplitInternal$LT$P$GT$4next17h0372923bb0c363bdE:
	.cfi_startproc
	pushq	%rbp
	.cfi_def_cfa_offset 16
	.cfi_offset %rbp, -16
	movq	%rsp, %rbp
	.cfi_def_cfa_register %rbp
	subq	$112, %rsp
	testb	$1, 65(%rdi)
	movq	%rdi, -64(%rbp)
	jne	LBB196_2
	movq	-64(%rbp), %rax
	addq	$16, %rax
	movq	%rax, %rdi
	callq	__ZN81_$LT$core..str..pattern..CharSearcher$u20$as$u20$core..str..pattern..Searcher$GT$8haystack17h8fa75a50459fadfeE
	movq	%rax, -72(%rbp)
	movq	%rdx, -80(%rbp)
	jmp	LBB196_4
LBB196_2:
	movq	$0, -56(%rbp)
LBB196_3:
	movq	-56(%rbp), %rax
	movq	-48(%rbp), %rdx
	addq	$112, %rsp
	popq	%rbp
	retq
LBB196_4:
	movq	-64(%rbp), %rax
	addq	$16, %rax
	leaq	-40(%rbp), %rdi
	movq	%rax, %rsi
	callq	__ZN81_$LT$core..str..pattern..CharSearcher$u20$as$u20$core..str..pattern..Searcher$GT$10next_match17hd69e40a7d6ac71e5E
	movq	-40(%rbp), %rax
	testq	%rax, %rax
	je	LBB196_6
	jmp	LBB196_12
LBB196_12:
	jmp	LBB196_8
LBB196_6:
	movq	-64(%rbp), %rdi
	callq	__ZN4core3str22SplitInternal$LT$P$GT$7get_end17h4b72ebe988be9a1dE
	movq	%rdx, -48(%rbp)
	movq	%rax, -56(%rbp)
	jmp	LBB196_10
	ud2
LBB196_8:
	movq	-32(%rbp), %rax
	movq	-24(%rbp), %rcx
	movq	-64(%rbp), %rdx
	movq	(%rdx), %rsi
	movq	%rsi, -16(%rbp)
	movq	%rax, -8(%rbp)
	movq	-16(%rbp), %rdx
	movq	-8(%rbp), %rax
	movq	-72(%rbp), %rdi
	movq	-80(%rbp), %rsi
	movq	%rcx, -88(%rbp)
	movq	%rax, %rcx
	callq	__ZN4core3str21_$LT$impl$u20$str$GT$13get_unchecked17h636d1aff4c4a60e8E
	movq	%rax, -96(%rbp)
	movq	%rdx, -104(%rbp)
	movq	-64(%rbp), %rax
	movq	-88(%rbp), %rcx
	movq	%rcx, (%rax)
	movq	-96(%rbp), %rdx
	movq	%rdx, -56(%rbp)
	movq	-104(%rbp), %rsi
	movq	%rsi, -48(%rbp)
	jmp	LBB196_11
LBB196_10:
	jmp	LBB196_11
LBB196_11:
	jmp	LBB196_3
	.cfi_endproc

	.p2align	4, 0x90
__ZN4core3str22SplitInternal$LT$P$GT$7get_end17h4b72ebe988be9a1dE:
	.cfi_startproc
	pushq	%rbp
	.cfi_def_cfa_offset 16
	.cfi_offset %rbp, -16
	movq	%rsp, %rbp
	.cfi_def_cfa_register %rbp
	subq	$80, %rsp
	movb	65(%rdi), %al
	xorb	$-1, %al
	testb	$1, %al
	movq	%rdi, -48(%rbp)
	jne	LBB197_3
	jmp	LBB197_2
LBB197_1:
	movb	$1, -18(%rbp)
	jmp	LBB197_4
LBB197_2:
	movb	$0, -18(%rbp)
	jmp	LBB197_4
LBB197_3:
	movq	-48(%rbp), %rax
	testb	$1, 64(%rax)
	jne	LBB197_5
	jmp	LBB197_7
LBB197_4:
	testb	$1, -18(%rbp)
	jne	LBB197_10
	jmp	LBB197_9
LBB197_5:
	movb	$1, -17(%rbp)
	jmp	LBB197_8
LBB197_6:
	movb	$0, -17(%rbp)
	jmp	LBB197_8
LBB197_7:
	movq	-48(%rbp), %rax
	movq	8(%rax), %rcx
	subq	(%rax), %rcx
	cmpq	$0, %rcx
	ja	LBB197_5
	jmp	LBB197_6
LBB197_8:
	testb	$1, -17(%rbp)
	jne	LBB197_1
	jmp	LBB197_2
LBB197_9:
	movq	$0, -40(%rbp)
	jmp	LBB197_13
LBB197_10:
	movq	-48(%rbp), %rax
	movb	$1, 65(%rax)
	addq	$16, %rax
	movq	%rax, %rdi
	callq	__ZN81_$LT$core..str..pattern..CharSearcher$u20$as$u20$core..str..pattern..Searcher$GT$8haystack17h8fa75a50459fadfeE
	movq	%rax, -56(%rbp)
	movq	%rdx, -64(%rbp)
	movq	-48(%rbp), %rax
	movq	(%rax), %rcx
	movq	8(%rax), %rdx
	movq	%rcx, -16(%rbp)
	movq	%rdx, -8(%rbp)
	movq	-16(%rbp), %rdx
	movq	-8(%rbp), %rcx
	movq	-56(%rbp), %rdi
	movq	-64(%rbp), %rsi
	callq	__ZN4core3str21_$LT$impl$u20$str$GT$13get_unchecked17h636d1aff4c4a60e8E
	movq	%rax, -72(%rbp)
	movq	%rdx, -80(%rbp)
	movq	-72(%rbp), %rax
	movq	%rax, -40(%rbp)
	movq	-80(%rbp), %rcx
	movq	%rcx, -32(%rbp)
LBB197_13:
	movq	-40(%rbp), %rax
	movq	-32(%rbp), %rdx
	addq	$80, %rsp
	popq	%rbp
	retq
	.cfi_endproc

	.p2align	4, 0x90
__ZN4core3str23from_utf8_unchecked_mut17hc4a5fae9a1981d3dE:
	.cfi_startproc
	pushq	%rbp
	.cfi_def_cfa_offset 16
	.cfi_offset %rbp, -16
	movq	%rsp, %rbp
	.cfi_def_cfa_register %rbp
	movq	%rdi, %rax
	movq	%rsi, %rdx
	popq	%rbp
	retq
	.cfi_endproc

	.p2align	4, 0x90
__ZN4core3str6traits101_$LT$impl$u20$core..slice..SliceIndex$LT$str$GT$$u20$for$u20$core..ops..range..Range$LT$usize$GT$$GT$13get_unchecked17h85946237f05aeba5E:
	.cfi_startproc
	pushq	%rbp
	.cfi_def_cfa_offset 16
	.cfi_offset %rbp, -16
	movq	%rsp, %rbp
	.cfi_def_cfa_register %rbp
	subq	$48, %rsp
	movq	%rdi, -8(%rbp)
	movq	%rdx, %rdi
	movq	%rsi, -16(%rbp)
	movq	%rcx, %rsi
	callq	__ZN4core3ptr9const_ptr43_$LT$impl$u20$$BP$const$u20$$u5b$T$u5d$$GT$6as_ptr17ha38ca27c55c4f07aE
	movq	%rax, -24(%rbp)
	movq	-24(%rbp), %rdi
	movq	-8(%rbp), %rsi
	callq	__ZN4core3ptr9const_ptr33_$LT$impl$u20$$BP$const$u20$T$GT$3add17h0bde8cab90c0f77eE
	movq	%rax, -32(%rbp)
	movq	-16(%rbp), %rax
	movq	-8(%rbp), %rcx
	subq	%rcx, %rax
	movq	-32(%rbp), %rdi
	movq	%rax, %rsi
	callq	__ZN4core3ptr20slice_from_raw_parts17h52172b59f3fd6a3cE
	movq	%rax, -40(%rbp)
	movq	%rdx, -48(%rbp)
	movq	-40(%rbp), %rax
	movq	-48(%rbp), %rdx
	addq	$48, %rsp
	popq	%rbp
	retq
	.cfi_endproc

	.p2align	4, 0x90
__ZN4core3str6traits105_$LT$impl$u20$core..slice..SliceIndex$LT$str$GT$$u20$for$u20$core..ops..range..RangeFrom$LT$usize$GT$$GT$13get_unchecked17hdac1612bdccbfab5E:
	.cfi_startproc
	pushq	%rbp
	.cfi_def_cfa_offset 16
	.cfi_offset %rbp, -16
	movq	%rsp, %rbp
	.cfi_def_cfa_register %rbp
	subq	$64, %rsp
	movq	%rdi, -8(%rbp)
	movq	%rsi, %rdi
	movq	%rsi, -16(%rbp)
	movq	%rdx, %rsi
	movq	%rdx, -24(%rbp)
	callq	__ZN4core3ptr9const_ptr43_$LT$impl$u20$$BP$const$u20$$u5b$T$u5d$$GT$6as_ptr17ha38ca27c55c4f07aE
	movq	%rax, -32(%rbp)
	movq	-32(%rbp), %rdi
	movq	-8(%rbp), %rsi
	callq	__ZN4core3ptr9const_ptr33_$LT$impl$u20$$BP$const$u20$T$GT$3add17h0bde8cab90c0f77eE
	movq	%rax, -40(%rbp)
	movq	-16(%rbp), %rdi
	movq	-24(%rbp), %rsi
	callq	__ZN4core3ptr9const_ptr43_$LT$impl$u20$$BP$const$u20$$u5b$T$u5d$$GT$3len17ha5b86411e9caf51cE
	movq	%rax, -48(%rbp)
	movq	-48(%rbp), %rax
	movq	-8(%rbp), %rcx
	subq	%rcx, %rax
	movq	-40(%rbp), %rdi
	movq	%rax, %rsi
	callq	__ZN4core3ptr20slice_from_raw_parts17h52172b59f3fd6a3cE
	movq	%rax, -56(%rbp)
	movq	%rdx, -64(%rbp)
	movq	-56(%rbp), %rax
	movq	-64(%rbp), %rdx
	addq	$64, %rsp
	popq	%rbp
	retq
	.cfi_endproc

	.p2align	4, 0x90
__ZN4core3str6traits105_$LT$impl$u20$core..slice..SliceIndex$LT$str$GT$$u20$for$u20$core..ops..range..RangeFrom$LT$usize$GT$$GT$3get17h79b4901046185b6fE:
	.cfi_startproc
	pushq	%rbp
	.cfi_def_cfa_offset 16
	.cfi_offset %rbp, -16
	movq	%rsp, %rbp
	.cfi_def_cfa_register %rbp
	subq	$64, %rsp
	movq	%rdi, -24(%rbp)
	movq	%rsi, %rdi
	movq	%rsi, -32(%rbp)
	movq	%rdx, %rsi
	movq	-24(%rbp), %rax
	movq	%rdx, -40(%rbp)
	movq	%rax, %rdx
	callq	__ZN4core3str21_$LT$impl$u20$str$GT$16is_char_boundary17h203989b0c2a6aeaaE
	movb	%al, -41(%rbp)
	movb	-41(%rbp), %al
	testb	$1, %al
	jne	LBB201_3
	jmp	LBB201_2
LBB201_2:
	movq	$0, -16(%rbp)
	jmp	LBB201_5
LBB201_3:
	movq	-24(%rbp), %rdi
	movq	-32(%rbp), %rsi
	movq	-40(%rbp), %rdx
	callq	__ZN4core3str6traits105_$LT$impl$u20$core..slice..SliceIndex$LT$str$GT$$u20$for$u20$core..ops..range..RangeFrom$LT$usize$GT$$GT$13get_unchecked17hdac1612bdccbfab5E
	movq	%rax, -56(%rbp)
	movq	%rdx, -64(%rbp)
	movq	-56(%rbp), %rax
	movq	%rax, -16(%rbp)
	movq	-64(%rbp), %rcx
	movq	%rcx, -8(%rbp)
LBB201_5:
	movq	-16(%rbp), %rax
	movq	-8(%rbp), %rdx
	addq	$64, %rsp
	popq	%rbp
	retq
	.cfi_endproc

	.p2align	4, 0x90
__ZN4core3str6traits105_$LT$impl$u20$core..slice..SliceIndex$LT$str$GT$$u20$for$u20$core..ops..range..RangeFrom$LT$usize$GT$$GT$5index17he1629ca4a4bcb1bfE:
	.cfi_startproc
	pushq	%rbp
	.cfi_def_cfa_offset 16
	.cfi_offset %rbp, -16
	movq	%rsp, %rbp
	.cfi_def_cfa_register %rbp
	subq	$128, %rsp
	movq	%rsi, -72(%rbp)
	movq	%rdx, -64(%rbp)
	movq	-72(%rbp), %rax
	movq	-64(%rbp), %rsi
	movq	%rdi, -80(%rbp)
	movq	%rax, %rdi
	movq	%rcx, -88(%rbp)
	callq	__ZN4core3str21_$LT$impl$u20$str$GT$3len17h3e295a148c845646E
	movq	%rax, -96(%rbp)
	movq	-80(%rbp), %rax
	movq	%rax, -40(%rbp)
	movq	-96(%rbp), %rcx
	movq	%rcx, -32(%rbp)
	movq	-40(%rbp), %rdx
	movq	%rdx, -56(%rbp)
	movq	-32(%rbp), %rdx
	movq	%rdx, -48(%rbp)
	movq	-72(%rbp), %rsi
	movq	-64(%rbp), %rdx
	movq	%rax, %rdi
	callq	__ZN4core3str6traits105_$LT$impl$u20$core..slice..SliceIndex$LT$str$GT$$u20$for$u20$core..ops..range..RangeFrom$LT$usize$GT$$GT$3get17h79b4901046185b6fE
	movq	%rax, -104(%rbp)
	movq	%rdx, -112(%rbp)
	leaq	-72(%rbp), %rax
	movq	%rax, -24(%rbp)
	leaq	-56(%rbp), %rax
	movq	%rax, -16(%rbp)
	leaq	-48(%rbp), %rax
	movq	%rax, -8(%rbp)
	movq	-104(%rbp), %rdi
	movq	-112(%rbp), %rsi
	leaq	-24(%rbp), %rdx
	callq	__ZN4core6option15Option$LT$T$GT$14unwrap_or_else17hea752b3ab9f66db3E
	movq	%rax, -120(%rbp)
	movq	%rdx, -128(%rbp)
	movq	-120(%rbp), %rax
	movq	-128(%rbp), %rdx
	addq	$128, %rsp
	popq	%rbp
	retq
	.cfi_endproc

	.p2align	4, 0x90
__ZN4core3str6traits105_$LT$impl$u20$core..slice..SliceIndex$LT$str$GT$$u20$for$u20$core..ops..range..RangeFrom$LT$usize$GT$$GT$5index28_$u7b$$u7b$closure$u7d$$u7d$17hea46657ca8700a96E:
	.cfi_startproc
	pushq	%rbp
	.cfi_def_cfa_offset 16
	.cfi_offset %rbp, -16
	movq	%rsp, %rbp
	.cfi_def_cfa_register %rbp
	movq	(%rdi), %rax
	movq	8(%rdi), %rcx
	movq	(%rax), %rdx
	movq	8(%rax), %rsi
	movq	(%rcx), %rax
	movq	16(%rdi), %rcx
	movq	(%rcx), %rcx
	leaq	l___unnamed_3(%rip), %r8
	movq	%rdx, %rdi
	movq	%rax, %rdx
	callq	__ZN4core3str16slice_error_fail17ha125059561e5ce66E
	.cfi_endproc

	.p2align	4, 0x90
__ZN4core3str6traits54_$LT$impl$u20$core..cmp..PartialEq$u20$for$u20$str$GT$2eq17h629d4d32a153534aE:
	.cfi_startproc
	pushq	%rbp
	.cfi_def_cfa_offset 16
	.cfi_offset %rbp, -16
	movq	%rsp, %rbp
	.cfi_def_cfa_register %rbp
	subq	$96, %rsp
	movq	%rdi, -32(%rbp)
	movq	%rsi, -24(%rbp)
	movq	-32(%rbp), %rax
	movq	-24(%rbp), %rsi
	movq	%rsi, -56(%rbp)
	movq	%rax, -64(%rbp)
	movq	%rdx, -72(%rbp)
	movq	%rcx, -80(%rbp)
	movq	-72(%rbp), %rax
	movq	%rax, -16(%rbp)
	movq	-80(%rbp), %rcx
	movq	%rcx, -8(%rbp)
	movq	-16(%rbp), %rdx
	movq	-8(%rbp), %rsi
	movq	%rsi, -40(%rbp)
	movq	%rdx, -48(%rbp)
	leaq	-64(%rbp), %rdi
	leaq	-48(%rbp), %rsi
	callq	__ZN4core3cmp5impls69_$LT$impl$u20$core..cmp..PartialEq$LT$$RF$B$GT$$u20$for$u20$$RF$A$GT$2eq17hd48ccfc1b7fdfd0cE
	movb	%al, -81(%rbp)
	movb	-81(%rbp), %al
	andb	$1, %al
	movzbl	%al, %eax
	addq	$96, %rsp
	popq	%rbp
	retq
	.cfi_endproc

	.p2align	4, 0x90
__ZN4core3str6traits54_$LT$impl$u20$core..cmp..PartialEq$u20$for$u20$str$GT$2ne17h9ce9d85688d8a9bcE:
	.cfi_startproc
	pushq	%rbp
	.cfi_def_cfa_offset 16
	.cfi_offset %rbp, -16
	movq	%rsp, %rbp
	.cfi_def_cfa_register %rbp
	subq	$16, %rsp
	callq	__ZN4core3str6traits54_$LT$impl$u20$core..cmp..PartialEq$u20$for$u20$str$GT$2eq17h629d4d32a153534aE
	movb	%al, -1(%rbp)
	movb	-1(%rbp), %al
	xorb	$-1, %al
	andb	$1, %al
	movzbl	%al, %eax
	addq	$16, %rsp
	popq	%rbp
	retq
	.cfi_endproc

	.p2align	4, 0x90
__ZN4core3str6traits66_$LT$impl$u20$core..ops..index..Index$LT$I$GT$$u20$for$u20$str$GT$5index17hb8ef1cb867e2bc92E:
	.cfi_startproc
	pushq	%rbp
	.cfi_def_cfa_offset 16
	.cfi_offset %rbp, -16
	movq	%rsp, %rbp
	.cfi_def_cfa_register %rbp
	subq	$32, %rsp
	movq	%rdi, -8(%rbp)
	movq	%rdx, %rdi
	movq	-8(%rbp), %rax
	movq	%rsi, -16(%rbp)
	movq	%rax, %rsi
	movq	-16(%rbp), %rdx
	callq	__ZN4core3str6traits105_$LT$impl$u20$core..slice..SliceIndex$LT$str$GT$$u20$for$u20$core..ops..range..RangeFrom$LT$usize$GT$$GT$5index17he1629ca4a4bcb1bfE
	movq	%rax, -24(%rbp)
	movq	%rdx, -32(%rbp)
	movq	-24(%rbp), %rax
	movq	-32(%rbp), %rdx
	addq	$32, %rsp
	popq	%rbp
	retq
	.cfi_endproc

	.p2align	4, 0x90
__ZN4core3str7pattern14TwoWaySearcher16byteset_contains17h2bb1a4fab9806e41E:
	.cfi_startproc
	pushq	%rbp
	.cfi_def_cfa_offset 16
	.cfi_offset %rbp, -16
	movq	%rsp, %rbp
	.cfi_def_cfa_register %rbp
	movq	24(%rdi), %rax
	andb	$63, %sil
	movzbl	%sil, %ecx
	movl	%ecx, %edx
	andq	$63, %rdx
	movq	%rdx, %rcx
	shrq	%cl, %rax
	andq	$1, %rax
	cmpq	$0, %rax
	setne	%cl
	andb	$1, %cl
	movzbl	%cl, %eax
	popq	%rbp
	retq
	.cfi_endproc

	.p2align	4, 0x90
__ZN4core3str7pattern14TwoWaySearcher4next17h5f9666c575c49c49E:
	.cfi_startproc
	pushq	%rbp
	.cfi_def_cfa_offset 16
	.cfi_offset %rbp, -16
	movq	%rsp, %rbp
	.cfi_def_cfa_register %rbp
	subq	$384, %rsp
	movq	%rdi, %rax
	movb	16(%rbp), %r10b
	movq	32(%rsi), %r11
	movq	%rdi, -136(%rbp)
	movq	%r8, %rdi
	movq	%rsi, -144(%rbp)
	movq	%r9, %rsi
	movq	%r9, -152(%rbp)
	movq	%r8, -160(%rbp)
	movq	%rcx, -168(%rbp)
	movq	%rdx, -176(%rbp)
	movq	%rax, -184(%rbp)
	movb	%r10b, -185(%rbp)
	movq	%r11, -200(%rbp)
	callq	__ZN4core5slice29_$LT$impl$u20$$u5b$T$u5d$$GT$3len17heb0ac352e87c149aE
	movq	%rax, -208(%rbp)
	movq	-208(%rbp), %rax
	subq	$1, %rax
	movq	%rax, -216(%rbp)
LBB208_2:
	movq	-216(%rbp), %rax
	movq	-144(%rbp), %rcx
	addq	32(%rcx), %rax
	movq	-176(%rbp), %rdi
	movq	-168(%rbp), %rsi
	movq	%rax, %rdx
	callq	__ZN4core5slice29_$LT$impl$u20$$u5b$T$u5d$$GT$3get17h5e8be96415784dc3E
	movq	%rax, -128(%rbp)
	movq	-128(%rbp), %rax
	testq	%rax, %rax
	setne	%cl
	movzbl	%cl, %edx
	movl	%edx, %eax
	je	LBB208_4
	jmp	LBB208_73
LBB208_73:
	jmp	LBB208_6
LBB208_4:
	movq	-176(%rbp), %rdi
	movq	-168(%rbp), %rsi
	callq	__ZN4core5slice29_$LT$impl$u20$$u5b$T$u5d$$GT$3len17heb0ac352e87c149aE
	movq	%rax, -224(%rbp)
	jmp	LBB208_7
	ud2
LBB208_6:
	movq	-128(%rbp), %rax
	movb	(%rax), %cl
	movb	%cl, -225(%rbp)
	callq	__ZN84_$LT$core..str..pattern..MatchOnly$u20$as$u20$core..str..pattern..TwoWayStrategy$GT$16use_early_reject17h32ad7ed5355f8303E
	movb	%al, -226(%rbp)
	jmp	LBB208_14
LBB208_7:
	movq	-144(%rbp), %rax
	movq	-224(%rbp), %rcx
	movq	%rcx, 32(%rax)
	movq	32(%rax), %rdx
	movq	-136(%rbp), %rdi
	movq	-200(%rbp), %rsi
	callq	__ZN84_$LT$core..str..pattern..MatchOnly$u20$as$u20$core..str..pattern..TwoWayStrategy$GT$9rejecting17h2702bed97a8053cbE
	jmp	LBB208_9
LBB208_9:
	movq	-184(%rbp), %rax
	addq	$384, %rsp
	popq	%rbp
	retq
LBB208_10:
	movb	$1, -113(%rbp)
	jmp	LBB208_13
LBB208_11:
	movb	$0, -113(%rbp)
	jmp	LBB208_13
LBB208_12:
	movq	-200(%rbp), %rax
	movq	-144(%rbp), %rcx
	cmpq	32(%rcx), %rax
	jne	LBB208_10
	jmp	LBB208_11
LBB208_13:
	testb	$1, -113(%rbp)
	jne	LBB208_16
	jmp	LBB208_15
LBB208_14:
	movb	-226(%rbp), %al
	testb	$1, %al
	jne	LBB208_12
	jmp	LBB208_11
LBB208_15:
	movq	-144(%rbp), %rdi
	movb	-225(%rbp), %al
	movzbl	%al, %esi
	callq	__ZN4core3str7pattern14TwoWaySearcher16byteset_contains17h2bb1a4fab9806e41E
	movb	%al, -227(%rbp)
	jmp	LBB208_18
LBB208_16:
	movq	-144(%rbp), %rax
	movq	32(%rax), %rdx
	movq	-136(%rbp), %rdi
	movq	-200(%rbp), %rsi
	callq	__ZN84_$LT$core..str..pattern..MatchOnly$u20$as$u20$core..str..pattern..TwoWayStrategy$GT$9rejecting17h2702bed97a8053cbE
	jmp	LBB208_9
LBB208_18:
	movb	-227(%rbp), %al
	xorb	$-1, %al
	testb	$1, %al
	jne	LBB208_20
	movb	-185(%rbp), %al
	testb	$1, %al
	jne	LBB208_27
	jmp	LBB208_26
LBB208_20:
	movq	-160(%rbp), %rdi
	movq	-152(%rbp), %rsi
	callq	__ZN4core5slice29_$LT$impl$u20$$u5b$T$u5d$$GT$3len17heb0ac352e87c149aE
	movq	%rax, -240(%rbp)
	movq	-240(%rbp), %rax
	movq	-144(%rbp), %rcx
	addq	32(%rcx), %rax
	movq	%rax, 32(%rcx)
	movb	-185(%rbp), %dl
	xorb	$-1, %dl
	testb	$1, %dl
	jne	LBB208_23
	jmp	LBB208_24
LBB208_23:
	movq	-144(%rbp), %rax
	movq	$0, 48(%rax)
LBB208_24:
	jmp	LBB208_25
LBB208_25:
	jmp	LBB208_2
LBB208_26:
	movq	-144(%rbp), %rax
	movq	(%rax), %rdi
	movq	48(%rax), %rsi
	callq	__ZN4core3cmp3max17h94ef2459eeb62237E
	movq	%rax, -112(%rbp)
	jmp	LBB208_28
LBB208_27:
	movq	-144(%rbp), %rax
	movq	(%rax), %rcx
	movq	%rcx, -112(%rbp)
	jmp	LBB208_29
LBB208_28:
	jmp	LBB208_29
LBB208_29:
	movq	-112(%rbp), %rax
	movq	-160(%rbp), %rdi
	movq	-152(%rbp), %rsi
	movq	%rax, -248(%rbp)
	callq	__ZN4core5slice29_$LT$impl$u20$$u5b$T$u5d$$GT$3len17heb0ac352e87c149aE
	movq	%rax, -256(%rbp)
	movq	-248(%rbp), %rax
	movq	%rax, -104(%rbp)
	movq	-256(%rbp), %rcx
	movq	%rcx, -96(%rbp)
	movq	-104(%rbp), %rdi
	movq	-96(%rbp), %rsi
	callq	__ZN63_$LT$I$u20$as$u20$core..iter..traits..collect..IntoIterator$GT$9into_iter17h8e2aedc726e5c353E
	movq	%rax, -264(%rbp)
	movq	%rdx, -272(%rbp)
	movq	-264(%rbp), %rax
	movq	%rax, -88(%rbp)
	movq	-272(%rbp), %rcx
	movq	%rcx, -80(%rbp)
LBB208_32:
	leaq	-88(%rbp), %rdi
	callq	__ZN4core4iter5range101_$LT$impl$u20$core..iter..traits..iterator..Iterator$u20$for$u20$core..ops..range..Range$LT$A$GT$$GT$4next17h66d6805ec423bc9eE
	movq	%rdx, -64(%rbp)
	movq	%rax, -72(%rbp)
	movq	-72(%rbp), %rax
	testq	%rax, %rax
	je	LBB208_34
	jmp	LBB208_74
LBB208_74:
	jmp	LBB208_36
LBB208_34:
	movb	-185(%rbp), %al
	testb	$1, %al
	jne	LBB208_46
	jmp	LBB208_45
	ud2
LBB208_36:
	movq	-64(%rbp), %rax
	movq	-152(%rbp), %rcx
	cmpq	%rcx, %rax
	setb	%dl
	testb	$1, %dl
	movq	%rax, -280(%rbp)
	jne	LBB208_37
	jmp	LBB208_69
LBB208_37:
	movq	-160(%rbp), %rax
	movq	-280(%rbp), %rcx
	movb	(%rax,%rcx), %dl
	movq	-144(%rbp), %rsi
	addq	32(%rsi), %rcx
	movq	-168(%rbp), %rdi
	cmpq	%rdi, %rcx
	setb	%r8b
	testb	$1, %r8b
	movb	%dl, -281(%rbp)
	movq	%rcx, -296(%rbp)
	jne	LBB208_38
	jmp	LBB208_70
LBB208_38:
	movb	-281(%rbp), %al
	movq	-176(%rbp), %rcx
	movq	-296(%rbp), %rdx
	cmpb	(%rcx,%rdx), %al
	jne	LBB208_40
	jmp	LBB208_32
LBB208_40:
	movq	-280(%rbp), %rax
	movq	-144(%rbp), %rcx
	subq	(%rcx), %rax
	addq	$1, %rax
	addq	32(%rcx), %rax
	movq	%rax, 32(%rcx)
	movb	-185(%rbp), %dl
	xorb	$-1, %dl
	testb	$1, %dl
	jne	LBB208_42
	jmp	LBB208_43
LBB208_42:
	movq	-144(%rbp), %rax
	movq	$0, 48(%rax)
LBB208_43:
	jmp	LBB208_44
LBB208_44:
	jmp	LBB208_25
LBB208_45:
	movq	-144(%rbp), %rax
	movq	48(%rax), %rcx
	movq	%rcx, -56(%rbp)
	jmp	LBB208_47
LBB208_46:
	movq	$0, -56(%rbp)
LBB208_47:
	movq	-56(%rbp), %rax
	movq	-144(%rbp), %rcx
	movq	(%rcx), %rdx
	movq	%rax, -48(%rbp)
	movq	%rdx, -40(%rbp)
	movq	-48(%rbp), %rdi
	movq	-40(%rbp), %rsi
	callq	__ZN4core4iter6traits8iterator8Iterator3rev17haea2ed05e666207fE
	movq	%rax, -304(%rbp)
	movq	%rdx, -312(%rbp)
	movq	-304(%rbp), %rdi
	movq	-312(%rbp), %rsi
	callq	__ZN63_$LT$I$u20$as$u20$core..iter..traits..collect..IntoIterator$GT$9into_iter17hc711703747d51b62E
	movq	%rax, -320(%rbp)
	movq	%rdx, -328(%rbp)
	movq	-320(%rbp), %rax
	movq	%rax, -32(%rbp)
	movq	-328(%rbp), %rcx
	movq	%rcx, -24(%rbp)
LBB208_50:
	leaq	-32(%rbp), %rdi
	callq	__ZN93_$LT$core..iter..adapters..Rev$LT$I$GT$$u20$as$u20$core..iter..traits..iterator..Iterator$GT$4next17h07a2b8d311e0ecc8E
	movq	%rdx, -8(%rbp)
	movq	%rax, -16(%rbp)
	movq	-16(%rbp), %rax
	testq	%rax, %rax
	je	LBB208_52
	jmp	LBB208_75
LBB208_75:
	jmp	LBB208_54
LBB208_52:
	movq	-144(%rbp), %rax
	movq	32(%rax), %rcx
	movq	-160(%rbp), %rdi
	movq	-152(%rbp), %rsi
	movq	%rcx, -336(%rbp)
	callq	__ZN4core5slice29_$LT$impl$u20$$u5b$T$u5d$$GT$3len17heb0ac352e87c149aE
	movq	%rax, -344(%rbp)
	jmp	LBB208_63
	ud2
LBB208_54:
	movq	-8(%rbp), %rax
	movq	-152(%rbp), %rcx
	cmpq	%rcx, %rax
	setb	%dl
	testb	$1, %dl
	movq	%rax, -352(%rbp)
	jne	LBB208_55
	jmp	LBB208_71
LBB208_55:
	movq	-160(%rbp), %rax
	movq	-352(%rbp), %rcx
	movb	(%rax,%rcx), %dl
	movq	-144(%rbp), %rsi
	addq	32(%rsi), %rcx
	movq	-168(%rbp), %rdi
	cmpq	%rdi, %rcx
	setb	%r8b
	testb	$1, %r8b
	movb	%dl, -353(%rbp)
	movq	%rcx, -368(%rbp)
	jne	LBB208_56
	jmp	LBB208_72
LBB208_56:
	movb	-353(%rbp), %al
	movq	-176(%rbp), %rcx
	movq	-368(%rbp), %rdx
	cmpb	(%rcx,%rdx), %al
	jne	LBB208_58
	jmp	LBB208_50
LBB208_58:
	movq	-144(%rbp), %rax
	movq	16(%rax), %rcx
	addq	32(%rax), %rcx
	movq	%rcx, 32(%rax)
	movb	-185(%rbp), %dl
	xorb	$-1, %dl
	testb	$1, %dl
	jne	LBB208_60
	jmp	LBB208_62
LBB208_60:
	movq	-160(%rbp), %rdi
	movq	-152(%rbp), %rsi
	callq	__ZN4core5slice29_$LT$impl$u20$$u5b$T$u5d$$GT$3len17heb0ac352e87c149aE
	movq	%rax, -376(%rbp)
	movq	-376(%rbp), %rax
	movq	-144(%rbp), %rcx
	subq	16(%rcx), %rax
	movq	%rax, 48(%rcx)
LBB208_62:
	jmp	LBB208_44
LBB208_63:
	movq	-344(%rbp), %rax
	movq	-144(%rbp), %rcx
	addq	32(%rcx), %rax
	movq	%rax, 32(%rcx)
	movb	-185(%rbp), %dl
	xorb	$-1, %dl
	testb	$1, %dl
	jne	LBB208_65
	jmp	LBB208_66
LBB208_65:
	movq	-144(%rbp), %rax
	movq	$0, 48(%rax)
LBB208_66:
	movq	-160(%rbp), %rdi
	movq	-152(%rbp), %rsi
	callq	__ZN4core5slice29_$LT$impl$u20$$u5b$T$u5d$$GT$3len17heb0ac352e87c149aE
	movq	%rax, -384(%rbp)
	movq	-336(%rbp), %rax
	movq	-384(%rbp), %rcx
	addq	%rcx, %rax
	movq	-136(%rbp), %rdi
	movq	-336(%rbp), %rsi
	movq	%rax, %rdx
	callq	__ZN84_$LT$core..str..pattern..MatchOnly$u20$as$u20$core..str..pattern..TwoWayStrategy$GT$8matching17he21934aa7d717a5fE
	jmp	LBB208_9
LBB208_69:
	leaq	l___unnamed_4(%rip), %rdx
	movq	-280(%rbp), %rdi
	movq	-152(%rbp), %rsi
	callq	__ZN4core9panicking18panic_bounds_check17he87128426d100e93E
LBB208_70:
	leaq	l___unnamed_5(%rip), %rdx
	movq	-296(%rbp), %rdi
	movq	-168(%rbp), %rsi
	callq	__ZN4core9panicking18panic_bounds_check17he87128426d100e93E
LBB208_71:
	leaq	l___unnamed_6(%rip), %rdx
	movq	-352(%rbp), %rdi
	movq	-152(%rbp), %rsi
	callq	__ZN4core9panicking18panic_bounds_check17he87128426d100e93E
LBB208_72:
	leaq	l___unnamed_7(%rip), %rdx
	movq	-368(%rbp), %rdi
	movq	-168(%rbp), %rsi
	callq	__ZN4core9panicking18panic_bounds_check17he87128426d100e93E
	.cfi_endproc

	.p2align	4, 0x90
__ZN4core3str7pattern14TwoWaySearcher4next17hfc64f066e0cf7458E:
	.cfi_startproc
	pushq	%rbp
	.cfi_def_cfa_offset 16
	.cfi_offset %rbp, -16
	movq	%rsp, %rbp
	.cfi_def_cfa_register %rbp
	subq	$384, %rsp
	movq	%rdi, %rax
	movb	16(%rbp), %r10b
	movq	32(%rsi), %r11
	movq	%rdi, -136(%rbp)
	movq	%r8, %rdi
	movq	%rsi, -144(%rbp)
	movq	%r9, %rsi
	movq	%r9, -152(%rbp)
	movq	%r8, -160(%rbp)
	movq	%rcx, -168(%rbp)
	movq	%rdx, -176(%rbp)
	movq	%rax, -184(%rbp)
	movb	%r10b, -185(%rbp)
	movq	%r11, -200(%rbp)
	callq	__ZN4core5slice29_$LT$impl$u20$$u5b$T$u5d$$GT$3len17heb0ac352e87c149aE
	movq	%rax, -208(%rbp)
	movq	-208(%rbp), %rax
	subq	$1, %rax
	movq	%rax, -216(%rbp)
LBB209_2:
	movq	-216(%rbp), %rax
	movq	-144(%rbp), %rcx
	addq	32(%rcx), %rax
	movq	-176(%rbp), %rdi
	movq	-168(%rbp), %rsi
	movq	%rax, %rdx
	callq	__ZN4core5slice29_$LT$impl$u20$$u5b$T$u5d$$GT$3get17h5e8be96415784dc3E
	movq	%rax, -128(%rbp)
	movq	-128(%rbp), %rax
	testq	%rax, %rax
	setne	%cl
	movzbl	%cl, %edx
	movl	%edx, %eax
	je	LBB209_4
	jmp	LBB209_73
LBB209_73:
	jmp	LBB209_6
LBB209_4:
	movq	-176(%rbp), %rdi
	movq	-168(%rbp), %rsi
	callq	__ZN4core5slice29_$LT$impl$u20$$u5b$T$u5d$$GT$3len17heb0ac352e87c149aE
	movq	%rax, -224(%rbp)
	jmp	LBB209_7
	ud2
LBB209_6:
	movq	-128(%rbp), %rax
	movb	(%rax), %cl
	movb	%cl, -225(%rbp)
	callq	__ZN89_$LT$core..str..pattern..RejectAndMatch$u20$as$u20$core..str..pattern..TwoWayStrategy$GT$16use_early_reject17h0b82901d2f69441fE
	movb	%al, -226(%rbp)
	jmp	LBB209_14
LBB209_7:
	movq	-144(%rbp), %rax
	movq	-224(%rbp), %rcx
	movq	%rcx, 32(%rax)
	movq	32(%rax), %rdx
	movq	-136(%rbp), %rdi
	movq	-200(%rbp), %rsi
	callq	__ZN89_$LT$core..str..pattern..RejectAndMatch$u20$as$u20$core..str..pattern..TwoWayStrategy$GT$9rejecting17hf16cfff7a9ce1746E
	jmp	LBB209_9
LBB209_9:
	movq	-184(%rbp), %rax
	addq	$384, %rsp
	popq	%rbp
	retq
LBB209_10:
	movb	$1, -113(%rbp)
	jmp	LBB209_13
LBB209_11:
	movb	$0, -113(%rbp)
	jmp	LBB209_13
LBB209_12:
	movq	-200(%rbp), %rax
	movq	-144(%rbp), %rcx
	cmpq	32(%rcx), %rax
	jne	LBB209_10
	jmp	LBB209_11
LBB209_13:
	testb	$1, -113(%rbp)
	jne	LBB209_16
	jmp	LBB209_15
LBB209_14:
	movb	-226(%rbp), %al
	testb	$1, %al
	jne	LBB209_12
	jmp	LBB209_11
LBB209_15:
	movq	-144(%rbp), %rdi
	movb	-225(%rbp), %al
	movzbl	%al, %esi
	callq	__ZN4core3str7pattern14TwoWaySearcher16byteset_contains17h2bb1a4fab9806e41E
	movb	%al, -227(%rbp)
	jmp	LBB209_18
LBB209_16:
	movq	-144(%rbp), %rax
	movq	32(%rax), %rdx
	movq	-136(%rbp), %rdi
	movq	-200(%rbp), %rsi
	callq	__ZN89_$LT$core..str..pattern..RejectAndMatch$u20$as$u20$core..str..pattern..TwoWayStrategy$GT$9rejecting17hf16cfff7a9ce1746E
	jmp	LBB209_9
LBB209_18:
	movb	-227(%rbp), %al
	xorb	$-1, %al
	testb	$1, %al
	jne	LBB209_20
	movb	-185(%rbp), %al
	testb	$1, %al
	jne	LBB209_27
	jmp	LBB209_26
LBB209_20:
	movq	-160(%rbp), %rdi
	movq	-152(%rbp), %rsi
	callq	__ZN4core5slice29_$LT$impl$u20$$u5b$T$u5d$$GT$3len17heb0ac352e87c149aE
	movq	%rax, -240(%rbp)
	movq	-240(%rbp), %rax
	movq	-144(%rbp), %rcx
	addq	32(%rcx), %rax
	movq	%rax, 32(%rcx)
	movb	-185(%rbp), %dl
	xorb	$-1, %dl
	testb	$1, %dl
	jne	LBB209_23
	jmp	LBB209_24
LBB209_23:
	movq	-144(%rbp), %rax
	movq	$0, 48(%rax)
LBB209_24:
	jmp	LBB209_25
LBB209_25:
	jmp	LBB209_2
LBB209_26:
	movq	-144(%rbp), %rax
	movq	(%rax), %rdi
	movq	48(%rax), %rsi
	callq	__ZN4core3cmp3max17h94ef2459eeb62237E
	movq	%rax, -112(%rbp)
	jmp	LBB209_28
LBB209_27:
	movq	-144(%rbp), %rax
	movq	(%rax), %rcx
	movq	%rcx, -112(%rbp)
	jmp	LBB209_29
LBB209_28:
	jmp	LBB209_29
LBB209_29:
	movq	-112(%rbp), %rax
	movq	-160(%rbp), %rdi
	movq	-152(%rbp), %rsi
	movq	%rax, -248(%rbp)
	callq	__ZN4core5slice29_$LT$impl$u20$$u5b$T$u5d$$GT$3len17heb0ac352e87c149aE
	movq	%rax, -256(%rbp)
	movq	-248(%rbp), %rax
	movq	%rax, -104(%rbp)
	movq	-256(%rbp), %rcx
	movq	%rcx, -96(%rbp)
	movq	-104(%rbp), %rdi
	movq	-96(%rbp), %rsi
	callq	__ZN63_$LT$I$u20$as$u20$core..iter..traits..collect..IntoIterator$GT$9into_iter17h8e2aedc726e5c353E
	movq	%rax, -264(%rbp)
	movq	%rdx, -272(%rbp)
	movq	-264(%rbp), %rax
	movq	%rax, -88(%rbp)
	movq	-272(%rbp), %rcx
	movq	%rcx, -80(%rbp)
LBB209_32:
	leaq	-88(%rbp), %rdi
	callq	__ZN4core4iter5range101_$LT$impl$u20$core..iter..traits..iterator..Iterator$u20$for$u20$core..ops..range..Range$LT$A$GT$$GT$4next17h66d6805ec423bc9eE
	movq	%rdx, -64(%rbp)
	movq	%rax, -72(%rbp)
	movq	-72(%rbp), %rax
	testq	%rax, %rax
	je	LBB209_34
	jmp	LBB209_74
LBB209_74:
	jmp	LBB209_36
LBB209_34:
	movb	-185(%rbp), %al
	testb	$1, %al
	jne	LBB209_46
	jmp	LBB209_45
	ud2
LBB209_36:
	movq	-64(%rbp), %rax
	movq	-152(%rbp), %rcx
	cmpq	%rcx, %rax
	setb	%dl
	testb	$1, %dl
	movq	%rax, -280(%rbp)
	jne	LBB209_37
	jmp	LBB209_69
LBB209_37:
	movq	-160(%rbp), %rax
	movq	-280(%rbp), %rcx
	movb	(%rax,%rcx), %dl
	movq	-144(%rbp), %rsi
	addq	32(%rsi), %rcx
	movq	-168(%rbp), %rdi
	cmpq	%rdi, %rcx
	setb	%r8b
	testb	$1, %r8b
	movb	%dl, -281(%rbp)
	movq	%rcx, -296(%rbp)
	jne	LBB209_38
	jmp	LBB209_70
LBB209_38:
	movb	-281(%rbp), %al
	movq	-176(%rbp), %rcx
	movq	-296(%rbp), %rdx
	cmpb	(%rcx,%rdx), %al
	jne	LBB209_40
	jmp	LBB209_32
LBB209_40:
	movq	-280(%rbp), %rax
	movq	-144(%rbp), %rcx
	subq	(%rcx), %rax
	addq	$1, %rax
	addq	32(%rcx), %rax
	movq	%rax, 32(%rcx)
	movb	-185(%rbp), %dl
	xorb	$-1, %dl
	testb	$1, %dl
	jne	LBB209_42
	jmp	LBB209_43
LBB209_42:
	movq	-144(%rbp), %rax
	movq	$0, 48(%rax)
LBB209_43:
	jmp	LBB209_44
LBB209_44:
	jmp	LBB209_25
LBB209_45:
	movq	-144(%rbp), %rax
	movq	48(%rax), %rcx
	movq	%rcx, -56(%rbp)
	jmp	LBB209_47
LBB209_46:
	movq	$0, -56(%rbp)
LBB209_47:
	movq	-56(%rbp), %rax
	movq	-144(%rbp), %rcx
	movq	(%rcx), %rdx
	movq	%rax, -48(%rbp)
	movq	%rdx, -40(%rbp)
	movq	-48(%rbp), %rdi
	movq	-40(%rbp), %rsi
	callq	__ZN4core4iter6traits8iterator8Iterator3rev17haea2ed05e666207fE
	movq	%rax, -304(%rbp)
	movq	%rdx, -312(%rbp)
	movq	-304(%rbp), %rdi
	movq	-312(%rbp), %rsi
	callq	__ZN63_$LT$I$u20$as$u20$core..iter..traits..collect..IntoIterator$GT$9into_iter17hc711703747d51b62E
	movq	%rax, -320(%rbp)
	movq	%rdx, -328(%rbp)
	movq	-320(%rbp), %rax
	movq	%rax, -32(%rbp)
	movq	-328(%rbp), %rcx
	movq	%rcx, -24(%rbp)
LBB209_50:
	leaq	-32(%rbp), %rdi
	callq	__ZN93_$LT$core..iter..adapters..Rev$LT$I$GT$$u20$as$u20$core..iter..traits..iterator..Iterator$GT$4next17h07a2b8d311e0ecc8E
	movq	%rdx, -8(%rbp)
	movq	%rax, -16(%rbp)
	movq	-16(%rbp), %rax
	testq	%rax, %rax
	je	LBB209_52
	jmp	LBB209_75
LBB209_75:
	jmp	LBB209_54
LBB209_52:
	movq	-144(%rbp), %rax
	movq	32(%rax), %rcx
	movq	-160(%rbp), %rdi
	movq	-152(%rbp), %rsi
	movq	%rcx, -336(%rbp)
	callq	__ZN4core5slice29_$LT$impl$u20$$u5b$T$u5d$$GT$3len17heb0ac352e87c149aE
	movq	%rax, -344(%rbp)
	jmp	LBB209_63
	ud2
LBB209_54:
	movq	-8(%rbp), %rax
	movq	-152(%rbp), %rcx
	cmpq	%rcx, %rax
	setb	%dl
	testb	$1, %dl
	movq	%rax, -352(%rbp)
	jne	LBB209_55
	jmp	LBB209_71
LBB209_55:
	movq	-160(%rbp), %rax
	movq	-352(%rbp), %rcx
	movb	(%rax,%rcx), %dl
	movq	-144(%rbp), %rsi
	addq	32(%rsi), %rcx
	movq	-168(%rbp), %rdi
	cmpq	%rdi, %rcx
	setb	%r8b
	testb	$1, %r8b
	movb	%dl, -353(%rbp)
	movq	%rcx, -368(%rbp)
	jne	LBB209_56
	jmp	LBB209_72
LBB209_56:
	movb	-353(%rbp), %al
	movq	-176(%rbp), %rcx
	movq	-368(%rbp), %rdx
	cmpb	(%rcx,%rdx), %al
	jne	LBB209_58
	jmp	LBB209_50
LBB209_58:
	movq	-144(%rbp), %rax
	movq	16(%rax), %rcx
	addq	32(%rax), %rcx
	movq	%rcx, 32(%rax)
	movb	-185(%rbp), %dl
	xorb	$-1, %dl
	testb	$1, %dl
	jne	LBB209_60
	jmp	LBB209_62
LBB209_60:
	movq	-160(%rbp), %rdi
	movq	-152(%rbp), %rsi
	callq	__ZN4core5slice29_$LT$impl$u20$$u5b$T$u5d$$GT$3len17heb0ac352e87c149aE
	movq	%rax, -376(%rbp)
	movq	-376(%rbp), %rax
	movq	-144(%rbp), %rcx
	subq	16(%rcx), %rax
	movq	%rax, 48(%rcx)
LBB209_62:
	jmp	LBB209_44
LBB209_63:
	movq	-344(%rbp), %rax
	movq	-144(%rbp), %rcx
	addq	32(%rcx), %rax
	movq	%rax, 32(%rcx)
	movb	-185(%rbp), %dl
	xorb	$-1, %dl
	testb	$1, %dl
	jne	LBB209_65
	jmp	LBB209_66
LBB209_65:
	movq	-144(%rbp), %rax
	movq	$0, 48(%rax)
LBB209_66:
	movq	-160(%rbp), %rdi
	movq	-152(%rbp), %rsi
	callq	__ZN4core5slice29_$LT$impl$u20$$u5b$T$u5d$$GT$3len17heb0ac352e87c149aE
	movq	%rax, -384(%rbp)
	movq	-336(%rbp), %rax
	movq	-384(%rbp), %rcx
	addq	%rcx, %rax
	movq	-136(%rbp), %rdi
	movq	-336(%rbp), %rsi
	movq	%rax, %rdx
	callq	__ZN89_$LT$core..str..pattern..RejectAndMatch$u20$as$u20$core..str..pattern..TwoWayStrategy$GT$8matching17h0034136be9bec62dE
	jmp	LBB209_9
LBB209_69:
	leaq	l___unnamed_4(%rip), %rdx
	movq	-280(%rbp), %rdi
	movq	-152(%rbp), %rsi
	callq	__ZN4core9panicking18panic_bounds_check17he87128426d100e93E
LBB209_70:
	leaq	l___unnamed_5(%rip), %rdx
	movq	-296(%rbp), %rdi
	movq	-168(%rbp), %rsi
	callq	__ZN4core9panicking18panic_bounds_check17he87128426d100e93E
LBB209_71:
	leaq	l___unnamed_6(%rip), %rdx
	movq	-352(%rbp), %rdi
	movq	-152(%rbp), %rsi
	callq	__ZN4core9panicking18panic_bounds_check17he87128426d100e93E
LBB209_72:
	leaq	l___unnamed_7(%rip), %rdx
	movq	-368(%rbp), %rdi
	movq	-168(%rbp), %rsi
	callq	__ZN4core9panicking18panic_bounds_check17he87128426d100e93E
	.cfi_endproc

	.p2align	4, 0x90
__ZN4core3str7pattern7Pattern15is_contained_in17h2a12dba54d719955E:
Lfunc_begin24:
	.cfi_startproc
	.cfi_personality 155, _rust_eh_personality
	.cfi_lsda 16, Lexception24
	pushq	%rbp
	.cfi_def_cfa_offset 16
	.cfi_offset %rbp, -16
	movq	%rsp, %rbp
	.cfi_def_cfa_register %rbp
	subq	$192, %rsp
	leaq	-120(%rbp), %rax
	movq	%rdi, -152(%rbp)
	movq	%rax, %rdi
	movq	-152(%rbp), %rax
	movq	%rsi, -160(%rbp)
	movq	%rax, %rsi
	movq	-160(%rbp), %r8
	movq	%rdx, -168(%rbp)
	movq	%r8, %rdx
	movq	-168(%rbp), %r9
	movq	%rcx, -176(%rbp)
	movq	%r9, %rcx
	movq	-176(%rbp), %r8
	callq	__ZN55_$LT$$RF$str$u20$as$u20$core..str..pattern..Pattern$GT$13into_searcher17h72fc9638c4153b11E
	jmp	LBB210_2
LBB210_1:
	movq	-16(%rbp), %rdi
	callq	__Unwind_Resume
	ud2
LBB210_2:
Ltmp113:
	leaq	-144(%rbp), %rdi
	leaq	-120(%rbp), %rsi
	callq	__ZN80_$LT$core..str..pattern..StrSearcher$u20$as$u20$core..str..pattern..Searcher$GT$10next_match17h512b0683db4442a1E
Ltmp114:
	jmp	LBB210_4
LBB210_3:
	jmp	LBB210_1
LBB210_4:
Ltmp115:
	leaq	-144(%rbp), %rdi
	callq	__ZN4core6option15Option$LT$T$GT$7is_some17ha010422bb786845cE
Ltmp116:
	movb	%al, -177(%rbp)
	jmp	LBB210_5
LBB210_5:
	jmp	LBB210_6
LBB210_6:
	movb	-177(%rbp), %al
	andb	$1, %al
	movzbl	%al, %eax
	addq	$192, %rsp
	popq	%rbp
	retq
LBB210_7:
Ltmp117:
	movq	%rax, -16(%rbp)
	movl	%edx, -8(%rbp)
	jmp	LBB210_3
Lfunc_end24:
	.cfi_endproc
	.section	__TEXT,__gcc_except_tab
	.p2align	2
GCC_except_table210:
Lexception24:
	.byte	255
	.byte	255
	.byte	1
	.uleb128 Lcst_end24-Lcst_begin24
Lcst_begin24:
	.uleb128 Lfunc_begin24-Lfunc_begin24
	.uleb128 Ltmp113-Lfunc_begin24
	.byte	0
	.byte	0
	.uleb128 Ltmp113-Lfunc_begin24
	.uleb128 Ltmp116-Ltmp113
	.uleb128 Ltmp117-Lfunc_begin24
	.byte	0
Lcst_end24:
	.p2align	2

	.section	__TEXT,__text,regular,pure_instructions
	.p2align	4, 0x90
__ZN4core4char7convert18from_u32_unchecked17h94e3e0131a3f15a9E:
	.cfi_startproc
	pushq	%rbp
	.cfi_def_cfa_offset 16
	.cfi_offset %rbp, -16
	movq	%rsp, %rbp
	.cfi_def_cfa_register %rbp
	pushq	%rax
	movl	%edi, -4(%rbp)
	movl	-4(%rbp), %eax
	movl	%eax, -8(%rbp)
	movl	-8(%rbp), %eax
	addq	$8, %rsp
	popq	%rbp
	retq
	.cfi_endproc

	.p2align	4, 0x90
__ZN4core4char7methods15encode_utf8_raw17h15489be64dbfade3E:
	.cfi_startproc
	pushq	%rbp
	.cfi_def_cfa_offset 16
	.cfi_offset %rbp, -16
	movq	%rsp, %rbp
	.cfi_def_cfa_register %rbp
	subq	$320, %rsp
	movl	%edi, -172(%rbp)
	movl	-172(%rbp), %edi
	movq	%rsi, -184(%rbp)
	movq	%rdx, -192(%rbp)
	callq	__ZN4core4char7methods8len_utf817hc391b8377cbb7b69E
	movq	%rax, -168(%rbp)
	leaq	l___unnamed_8(%rip), %rax
	movq	-168(%rbp), %rcx
	movq	-184(%rbp), %rdi
	movq	-192(%rbp), %rsi
	movq	%rax, %rdx
	movq	%rcx, -200(%rbp)
	callq	__ZN4core5slice77_$LT$impl$u20$core..ops..index..IndexMut$LT$I$GT$$u20$for$u20$$u5b$T$u5d$$GT$9index_mut17h4394636f39b25319E
	movq	%rax, -208(%rbp)
	movq	%rdx, -216(%rbp)
	movq	-200(%rbp), %rax
	movq	%rax, -160(%rbp)
	movq	-208(%rbp), %rcx
	movq	%rcx, -152(%rbp)
	movq	-216(%rbp), %rdx
	movq	%rdx, -144(%rbp)
	movq	-160(%rbp), %rsi
	decq	%rsi
	movq	%rsi, %rdi
	subq	$3, %rdi
	movq	%rsi, -224(%rbp)
	ja	LBB212_4
	leaq	LJTI212_0(%rip), %rax
	movq	-224(%rbp), %rcx
	movslq	(%rax,%rcx,4), %rdx
	addq	%rax, %rdx
	jmpq	*%rdx
LBB212_3:
	cmpq	$1, -144(%rbp)
	jae	LBB212_8
LBB212_4:
	movq	l___unnamed_9(%rip), %rax
	movq	-184(%rbp), %rdi
	movq	-192(%rbp), %rsi
	movq	%rax, -232(%rbp)
	callq	__ZN4core5slice29_$LT$impl$u20$$u5b$T$u5d$$GT$3len17heb0ac352e87c149aE
	movq	%rax, -16(%rbp)
	jmp	LBB212_12
LBB212_5:
	cmpq	$2, -144(%rbp)
	jae	LBB212_9
	jmp	LBB212_4
LBB212_6:
	cmpq	$3, -144(%rbp)
	jae	LBB212_10
	jmp	LBB212_4
LBB212_7:
	cmpq	$4, -144(%rbp)
	jae	LBB212_11
	jmp	LBB212_4
LBB212_8:
	movq	-152(%rbp), %rax
	movl	-172(%rbp), %ecx
	movb	%cl, (%rax)
	jmp	LBB212_17
LBB212_9:
	movq	-152(%rbp), %rax
	movq	-152(%rbp), %rcx
	movl	-172(%rbp), %edx
	shrl	$6, %edx
	andl	$31, %edx
	orb	$-64, %dl
	movb	%dl, (%rax)
	movl	-172(%rbp), %esi
	andl	$63, %esi
	orb	$-128, %sil
	movb	%sil, 1(%rcx)
	jmp	LBB212_17
LBB212_10:
	movq	-152(%rbp), %rax
	movq	-152(%rbp), %rcx
	movq	-152(%rbp), %rdx
	movl	-172(%rbp), %esi
	shrl	$12, %esi
	andl	$15, %esi
	orb	$-32, %sil
	movb	%sil, (%rax)
	movl	-172(%rbp), %edi
	shrl	$6, %edi
	andl	$63, %edi
	orb	$-128, %dil
	movb	%dil, 1(%rcx)
	movl	-172(%rbp), %r8d
	andl	$63, %r8d
	orb	$-128, %r8b
	movb	%r8b, 2(%rdx)
	jmp	LBB212_17
LBB212_11:
	movq	-152(%rbp), %rax
	movq	-152(%rbp), %rcx
	movq	-152(%rbp), %rdx
	movq	-152(%rbp), %rsi
	movl	-172(%rbp), %edi
	shrl	$18, %edi
	andl	$7, %edi
	orb	$-16, %dil
	movb	%dil, (%rax)
	movl	-172(%rbp), %r8d
	shrl	$12, %r8d
	andl	$63, %r8d
	orb	$-128, %r8b
	movb	%r8b, 1(%rcx)
	movl	-172(%rbp), %r9d
	shrl	$6, %r9d
	andl	$63, %r9d
	orb	$-128, %r9b
	movb	%r9b, 2(%rdx)
	movl	-172(%rbp), %r10d
	andl	$63, %r10d
	orb	$-128, %r10b
	movb	%r10b, 3(%rsi)
	jmp	LBB212_17
LBB212_12:
	movq	__ZN4core3fmt3num3imp54_$LT$impl$u20$core..fmt..Display$u20$for$u20$usize$GT$3fmt17h12ea2856299c9b06E@GOTPCREL(%rip), %rsi
	leaq	-168(%rbp), %rax
	movq	%rax, -40(%rbp)
	leaq	-172(%rbp), %rax
	movq	%rax, -32(%rbp)
	leaq	-16(%rbp), %rax
	movq	%rax, -24(%rbp)
	movq	-40(%rbp), %rdi
	movq	-32(%rbp), %rax
	movq	-24(%rbp), %rcx
	movq	%rax, -240(%rbp)
	movq	%rcx, -248(%rbp)
	callq	__ZN4core3fmt10ArgumentV13new17h75f7b60811972632E
	movq	%rax, -256(%rbp)
	movq	%rdx, -264(%rbp)
	movq	__ZN4core3fmt3num53_$LT$impl$u20$core..fmt..UpperHex$u20$for$u20$u32$GT$3fmt17h7bd10b5f3c9584f1E@GOTPCREL(%rip), %rsi
	movq	-240(%rbp), %rdi
	callq	__ZN4core3fmt10ArgumentV13new17hcf2d029ce25ad63aE
	movq	%rax, -272(%rbp)
	movq	%rdx, -280(%rbp)
	movq	__ZN4core3fmt3num3imp54_$LT$impl$u20$core..fmt..Display$u20$for$u20$usize$GT$3fmt17h12ea2856299c9b06E@GOTPCREL(%rip), %rsi
	movq	-248(%rbp), %rdi
	callq	__ZN4core3fmt10ArgumentV13new17h75f7b60811972632E
	movq	%rax, -288(%rbp)
	movq	%rdx, -296(%rbp)
	movq	-256(%rbp), %rax
	movq	%rax, -88(%rbp)
	movq	-264(%rbp), %rcx
	movq	%rcx, -80(%rbp)
	movq	-272(%rbp), %rdx
	movq	%rdx, -72(%rbp)
	movq	-280(%rbp), %rsi
	movq	%rsi, -64(%rbp)
	movq	-288(%rbp), %rdi
	movq	%rdi, -56(%rbp)
	movq	-296(%rbp), %r8
	movq	%r8, -48(%rbp)
	leaq	-88(%rbp), %r9
	leaq	-136(%rbp), %rdi
	movq	-232(%rbp), %rsi
	movl	$3, %r10d
	movq	%r10, %rdx
	movq	%r9, %rcx
	movq	%r10, %r8
	callq	__ZN4core3fmt9Arguments6new_v117h90dae4f40aee42bcE
	leaq	l___unnamed_10(%rip), %rsi
	leaq	-136(%rbp), %rdi
	callq	__ZN4core9panicking9panic_fmt17hfce5b7173905fc53E
LBB212_17:
	leaq	l___unnamed_11(%rip), %rax
	movq	-168(%rbp), %rcx
	movq	%rcx, -8(%rbp)
	movq	-8(%rbp), %rdx
	movq	-184(%rbp), %rdi
	movq	-192(%rbp), %rsi
	movq	%rax, %rcx
	callq	__ZN4core5slice77_$LT$impl$u20$core..ops..index..IndexMut$LT$I$GT$$u20$for$u20$$u5b$T$u5d$$GT$9index_mut17h11c256aad6e02b25E
	movq	%rax, -304(%rbp)
	movq	%rdx, -312(%rbp)
	movq	-304(%rbp), %rax
	movq	-312(%rbp), %rdx
	addq	$320, %rsp
	popq	%rbp
	retq
	.cfi_endproc
	.p2align	2, 0x90
	.data_region jt32
.set L212_0_set_3, LBB212_3-LJTI212_0
.set L212_0_set_5, LBB212_5-LJTI212_0
.set L212_0_set_6, LBB212_6-LJTI212_0
.set L212_0_set_7, LBB212_7-LJTI212_0
LJTI212_0:
	.long	L212_0_set_3
	.long	L212_0_set_5
	.long	L212_0_set_6
	.long	L212_0_set_7
	.end_data_region

	.p2align	4, 0x90
__ZN4core4char7methods22_$LT$impl$u20$char$GT$11encode_utf817hff42bbd99f96a602E:
	.cfi_startproc
	pushq	%rbp
	.cfi_def_cfa_offset 16
	.cfi_offset %rbp, -16
	movq	%rsp, %rbp
	.cfi_def_cfa_register %rbp
	subq	$32, %rsp
	callq	__ZN4core4char7methods15encode_utf8_raw17h15489be64dbfade3E
	movq	%rax, -8(%rbp)
	movq	%rdx, -16(%rbp)
	movq	-8(%rbp), %rdi
	movq	-16(%rbp), %rsi
	callq	__ZN4core3str23from_utf8_unchecked_mut17hc4a5fae9a1981d3dE
	movq	%rax, -24(%rbp)
	movq	%rdx, -32(%rbp)
	movq	-24(%rbp), %rax
	movq	-32(%rbp), %rdx
	addq	$32, %rsp
	popq	%rbp
	retq
	.cfi_endproc

	.p2align	4, 0x90
__ZN4core4char7methods22_$LT$impl$u20$char$GT$8len_utf817h3551c684735e4ebdE:
	.cfi_startproc
	pushq	%rbp
	.cfi_def_cfa_offset 16
	.cfi_offset %rbp, -16
	movq	%rsp, %rbp
	.cfi_def_cfa_register %rbp
	subq	$16, %rsp
	callq	__ZN4core4char7methods8len_utf817hc391b8377cbb7b69E
	movq	%rax, -8(%rbp)
	movq	-8(%rbp), %rax
	addq	$16, %rsp
	popq	%rbp
	retq
	.cfi_endproc

	.p2align	4, 0x90
__ZN4core4char7methods8len_utf817hc391b8377cbb7b69E:
	.cfi_startproc
	pushq	%rbp
	.cfi_def_cfa_offset 16
	.cfi_offset %rbp, -16
	movq	%rsp, %rbp
	.cfi_def_cfa_register %rbp
	subq	$16, %rsp
	cmpl	$128, %edi
	movl	%edi, -12(%rbp)
	jb	LBB215_2
	movl	-12(%rbp), %eax
	cmpl	$2048, %eax
	jb	LBB215_4
	jmp	LBB215_3
LBB215_2:
	movq	$1, -8(%rbp)
	jmp	LBB215_9
LBB215_3:
	movl	-12(%rbp), %eax
	cmpl	$65536, %eax
	jb	LBB215_6
	jmp	LBB215_5
LBB215_4:
	movq	$2, -8(%rbp)
	jmp	LBB215_8
LBB215_5:
	movq	$4, -8(%rbp)
	jmp	LBB215_7
LBB215_6:
	movq	$3, -8(%rbp)
LBB215_7:
	jmp	LBB215_8
LBB215_8:
	jmp	LBB215_9
LBB215_9:
	movq	-8(%rbp), %rax
	addq	$16, %rsp
	popq	%rbp
	retq
	.cfi_endproc

	.p2align	4, 0x90
__ZN4core4iter5range101_$LT$impl$u20$core..iter..traits..iterator..Iterator$u20$for$u20$core..ops..range..Range$LT$A$GT$$GT$4next17h66d6805ec423bc9eE:
	.cfi_startproc
	pushq	%rbp
	.cfi_def_cfa_offset 16
	.cfi_offset %rbp, -16
	movq	%rsp, %rbp
	.cfi_def_cfa_register %rbp
	subq	$64, %rsp
	movq	%rdi, %rax
	movq	%rdi, %rcx
	addq	$8, %rcx
	movq	%rdi, -24(%rbp)
	movq	%rax, %rdi
	movq	%rcx, %rsi
	callq	__ZN4core3cmp5impls57_$LT$impl$u20$core..cmp..PartialOrd$u20$for$u20$usize$GT$2lt17hbdfbb9fd9e946953E
	movb	%al, -25(%rbp)
	movb	-25(%rbp), %al
	testb	$1, %al
	jne	LBB216_3
	jmp	LBB216_2
LBB216_2:
	movq	$0, -16(%rbp)
	jmp	LBB216_7
LBB216_3:
	movq	-24(%rbp), %rax
	movq	%rax, %rdi
	callq	__ZN4core5clone5impls54_$LT$impl$u20$core..clone..Clone$u20$for$u20$usize$GT$5clone17h0b9242b707d87a03E
	movq	%rax, -40(%rbp)
	movq	-40(%rbp), %rdi
	movl	$1, %esi
	callq	__ZN49_$LT$usize$u20$as$u20$core..iter..range..Step$GT$17forward_unchecked17h8c7ce7ae9dcd2b11E
	movq	%rax, -48(%rbp)
	movq	-24(%rbp), %rax
	movq	%rax, %rdi
	movq	-48(%rbp), %rsi
	callq	__ZN4core3mem7replace17h3cc79de63bea0e8aE
	movq	%rax, -56(%rbp)
	movq	-56(%rbp), %rax
	movq	%rax, -8(%rbp)
	movq	$1, -16(%rbp)
LBB216_7:
	movq	-16(%rbp), %rax
	movq	-8(%rbp), %rdx
	addq	$64, %rsp
	popq	%rbp
	retq
	.cfi_endproc

	.p2align	4, 0x90
__ZN4core4iter5range116_$LT$impl$u20$core..iter..traits..double_ended..DoubleEndedIterator$u20$for$u20$core..ops..range..Range$LT$A$GT$$GT$9next_back17he2d029c7ec658225E:
	.cfi_startproc
	pushq	%rbp
	.cfi_def_cfa_offset 16
	.cfi_offset %rbp, -16
	movq	%rsp, %rbp
	.cfi_def_cfa_register %rbp
	subq	$80, %rsp
	movq	%rdi, %rax
	movq	%rdi, %rcx
	addq	$8, %rcx
	movq	%rdi, -48(%rbp)
	movq	%rax, %rdi
	movq	%rcx, %rsi
	callq	__ZN4core3cmp5impls57_$LT$impl$u20$core..cmp..PartialOrd$u20$for$u20$usize$GT$2lt17hbdfbb9fd9e946953E
	movb	%al, -49(%rbp)
	movb	-49(%rbp), %al
	testb	$1, %al
	jne	LBB217_3
	jmp	LBB217_2
LBB217_2:
	movq	$0, -40(%rbp)
	jmp	LBB217_7
LBB217_3:
	movq	-48(%rbp), %rax
	addq	$8, %rax
	movq	%rax, %rdi
	callq	__ZN4core5clone5impls54_$LT$impl$u20$core..clone..Clone$u20$for$u20$usize$GT$5clone17h0b9242b707d87a03E
	movq	%rax, -64(%rbp)
	movq	-64(%rbp), %rdi
	movl	$1, %esi
	callq	__ZN49_$LT$usize$u20$as$u20$core..iter..range..Step$GT$18backward_unchecked17hd919556854e0787bE
	movq	%rax, -72(%rbp)
	jmp	LBB217_8
LBB217_6:
	movq	-24(%rbp), %rax
	movq	%rax, -32(%rbp)
	movq	$1, -40(%rbp)
LBB217_7:
	movq	-40(%rbp), %rax
	movq	-32(%rbp), %rdx
	addq	$80, %rsp
	popq	%rbp
	retq
LBB217_8:
	movq	-48(%rbp), %rax
	movq	-72(%rbp), %rcx
	movq	%rcx, 8(%rax)
	addq	$8, %rax
	movq	%rax, %rdi
	callq	__ZN4core5clone5impls54_$LT$impl$u20$core..clone..Clone$u20$for$u20$usize$GT$5clone17h0b9242b707d87a03E
	movq	%rax, -24(%rbp)
	jmp	LBB217_6
	.cfi_endproc

	.p2align	4, 0x90
__ZN4core4iter6traits8iterator8Iterator3any17h37e052fe024e6b77E:
	.cfi_startproc
	pushq	%rbp
	.cfi_def_cfa_offset 16
	.cfi_offset %rbp, -16
	movq	%rsp, %rbp
	.cfi_def_cfa_register %rbp
	subq	$32, %rsp
	movq	%rdi, -16(%rbp)
	movq	%rsi, %rdi
	callq	__ZN4core4iter6traits8iterator8Iterator3any5check17h080e00a357e71116E
	movq	%rax, -24(%rbp)
	movq	-16(%rbp), %rdi
	movq	-24(%rbp), %rsi
	callq	__ZN4core4iter6traits8iterator8Iterator8try_fold17h63ff9df32f0562bcE
	andb	$1, %al
	movb	%al, -1(%rbp)
	movq	l___unnamed_12(%rip), %rsi
	leaq	-1(%rbp), %rdi
	callq	__ZN75_$LT$core..iter..LoopState$LT$C$C$B$GT$$u20$as$u20$core..cmp..PartialEq$GT$2eq17hbd14f48c38362105E
	movb	%al, -25(%rbp)
	movb	-25(%rbp), %al
	andb	$1, %al
	movzbl	%al, %eax
	addq	$32, %rsp
	popq	%rbp
	retq
	.cfi_endproc

	.p2align	4, 0x90
__ZN4core4iter6traits8iterator8Iterator3any5check17h080e00a357e71116E:
	.cfi_startproc
	pushq	%rbp
	.cfi_def_cfa_offset 16
	.cfi_offset %rbp, -16
	movq	%rsp, %rbp
	.cfi_def_cfa_register %rbp
	pushq	%rax
	movq	%rdi, -8(%rbp)
	movq	-8(%rbp), %rax
	addq	$8, %rsp
	popq	%rbp
	retq
	.cfi_endproc

	.p2align	4, 0x90
__ZN4core4iter6traits8iterator8Iterator3any5check28_$u7b$$u7b$closure$u7d$$u7d$17hb04c7fe7c63e735eE:
	.cfi_startproc
	pushq	%rbp
	.cfi_def_cfa_offset 16
	.cfi_offset %rbp, -16
	movq	%rsp, %rbp
	.cfi_def_cfa_register %rbp
	subq	$32, %rsp
	movq	%rsi, -16(%rbp)
	movq	%rdx, -8(%rbp)
	movq	-16(%rbp), %rax
	movq	-8(%rbp), %rdx
	movq	%rax, %rsi
	callq	__ZN18build_script_build15feature_allowed28_$u7b$$u7b$closure$u7d$$u7d$17hd6bc24ff31a64d9dE
	movb	%al, -18(%rbp)
	movb	-18(%rbp), %al
	testb	$1, %al
	jne	LBB220_3
	jmp	LBB220_2
LBB220_2:
	movb	$0, -17(%rbp)
	jmp	LBB220_4
LBB220_3:
	movb	$1, -17(%rbp)
LBB220_4:
	movb	-17(%rbp), %al
	andb	$1, %al
	movzbl	%al, %eax
	addq	$32, %rsp
	popq	%rbp
	retq
	.cfi_endproc

	.p2align	4, 0x90
__ZN4core4iter6traits8iterator8Iterator3rev17haea2ed05e666207fE:
	.cfi_startproc
	pushq	%rbp
	.cfi_def_cfa_offset 16
	.cfi_offset %rbp, -16
	movq	%rsp, %rbp
	.cfi_def_cfa_register %rbp
	subq	$16, %rsp
	callq	__ZN4core4iter8adapters12Rev$LT$T$GT$3new17h4e25e112475d130bE
	movq	%rax, -8(%rbp)
	movq	%rdx, -16(%rbp)
	movq	-8(%rbp), %rax
	movq	-16(%rbp), %rdx
	addq	$16, %rsp
	popq	%rbp
	retq
	.cfi_endproc

	.p2align	4, 0x90
__ZN4core4iter6traits8iterator8Iterator8try_fold17h63ff9df32f0562bcE:
Lfunc_begin25:
	.cfi_startproc
	.cfi_personality 155, _rust_eh_personality
	.cfi_lsda 16, Lexception25
	pushq	%rbp
	.cfi_def_cfa_offset 16
	.cfi_offset %rbp, -16
	movq	%rsp, %rbp
	.cfi_def_cfa_register %rbp
	subq	$128, %rsp
	movq	%rsi, -88(%rbp)
	movb	$0, -17(%rbp)
	movb	$1, -17(%rbp)
	movq	%rdi, -96(%rbp)
LBB222_1:
Ltmp118:
	movq	-96(%rbp), %rdi
	callq	__ZN84_$LT$core..str..Split$LT$P$GT$$u20$as$u20$core..iter..traits..iterator..Iterator$GT$4next17h75f1f993386faed4E
Ltmp119:
	movq	%rdx, -104(%rbp)
	movq	%rax, -112(%rbp)
	jmp	LBB222_4
LBB222_2:
	movq	-16(%rbp), %rdi
	callq	__Unwind_Resume
	ud2
LBB222_3:
	jmp	LBB222_2
LBB222_4:
	xorl	%eax, %eax
	movl	%eax, %ecx
	movq	-112(%rbp), %rdx
	movq	%rdx, -64(%rbp)
	movq	-104(%rbp), %rsi
	movq	%rsi, -56(%rbp)
	cmpq	$0, -64(%rbp)
	movl	$1, %edi
	cmovbeq	%rcx, %rdi
	cmpq	$1, %rdi
	je	LBB222_6
	jmp	LBB222_16
LBB222_6:
	movq	-64(%rbp), %rax
	movq	-56(%rbp), %rcx
	movb	$0, -17(%rbp)
	movq	%rax, -40(%rbp)
	movq	%rcx, -32(%rbp)
	movq	-40(%rbp), %rsi
	movq	-32(%rbp), %rdx
Ltmp123:
	leaq	-88(%rbp), %rdi
	callq	__ZN4core4iter6traits8iterator8Iterator3any5check28_$u7b$$u7b$closure$u7d$$u7d$17hb04c7fe7c63e735eE
Ltmp124:
	movb	%al, -113(%rbp)
	jmp	LBB222_7
LBB222_7:
Ltmp125:
	movb	-113(%rbp), %al
	movzbl	%al, %ecx
	andl	$1, %ecx
	movl	%ecx, %edi
	callq	__ZN74_$LT$core..iter..LoopState$LT$C$C$B$GT$$u20$as$u20$core..ops..try..Try$GT$11into_result17h721c3ad974ec7b6bE
Ltmp126:
	movb	%al, -114(%rbp)
	jmp	LBB222_8
LBB222_8:
	movb	-114(%rbp), %al
	andb	$1, %al
	movb	%al, -41(%rbp)
	movzbl	-41(%rbp), %ecx
	movl	%ecx, %edx
	testb	$1, %dl
	je	LBB222_10
	jmp	LBB222_24
LBB222_24:
	jmp	LBB222_12
LBB222_9:
	jmp	LBB222_20
LBB222_10:
	movb	$1, -17(%rbp)
	jmp	LBB222_1
	ud2
LBB222_12:
Ltmp128:
	callq	__ZN50_$LT$T$u20$as$u20$core..convert..From$LT$T$GT$$GT$4from17he81a693b20849fadE
Ltmp129:
	jmp	LBB222_14
LBB222_13:
	movb	-73(%rbp), %al
	andb	$1, %al
	movzbl	%al, %eax
	addq	$128, %rsp
	popq	%rbp
	retq
LBB222_14:
Ltmp130:
	callq	__ZN74_$LT$core..iter..LoopState$LT$C$C$B$GT$$u20$as$u20$core..ops..try..Try$GT$10from_error17h922923493714ceb6E
Ltmp131:
	movb	%al, -115(%rbp)
	jmp	LBB222_15
LBB222_15:
	movb	-115(%rbp), %al
	andb	$1, %al
	movb	%al, -73(%rbp)
	movb	$0, -17(%rbp)
	jmp	LBB222_13
LBB222_16:
	movb	$0, -17(%rbp)
Ltmp120:
	callq	__ZN74_$LT$core..iter..LoopState$LT$C$C$B$GT$$u20$as$u20$core..ops..try..Try$GT$7from_ok17hff2ebd361cad8c8fE
Ltmp121:
	movb	%al, -116(%rbp)
	jmp	LBB222_17
LBB222_17:
	movb	-116(%rbp), %al
	andb	$1, %al
	movb	%al, -73(%rbp)
	movb	$0, -17(%rbp)
	jmp	LBB222_13
LBB222_18:
	movb	$0, -17(%rbp)
	jmp	LBB222_3
LBB222_19:
	testb	$1, -17(%rbp)
	jne	LBB222_18
	jmp	LBB222_3
LBB222_20:
	jmp	LBB222_19
LBB222_21:
Ltmp122:
	movq	%rax, -16(%rbp)
	movl	%edx, -8(%rbp)
	jmp	LBB222_19
LBB222_22:
Ltmp127:
	movq	%rax, -16(%rbp)
	movl	%edx, -8(%rbp)
	jmp	LBB222_20
LBB222_23:
Ltmp132:
	movq	%rax, -16(%rbp)
	movl	%edx, -8(%rbp)
	jmp	LBB222_9
Lfunc_end25:
	.cfi_endproc
	.section	__TEXT,__gcc_except_tab
	.p2align	2
GCC_except_table222:
Lexception25:
	.byte	255
	.byte	255
	.byte	1
	.uleb128 Lcst_end25-Lcst_begin25
Lcst_begin25:
	.uleb128 Ltmp118-Lfunc_begin25
	.uleb128 Ltmp119-Ltmp118
	.uleb128 Ltmp122-Lfunc_begin25
	.byte	0
	.uleb128 Ltmp119-Lfunc_begin25
	.uleb128 Ltmp123-Ltmp119
	.byte	0
	.byte	0
	.uleb128 Ltmp123-Lfunc_begin25
	.uleb128 Ltmp126-Ltmp123
	.uleb128 Ltmp127-Lfunc_begin25
	.byte	0
	.uleb128 Ltmp128-Lfunc_begin25
	.uleb128 Ltmp131-Ltmp128
	.uleb128 Ltmp132-Lfunc_begin25
	.byte	0
	.uleb128 Ltmp120-Lfunc_begin25
	.uleb128 Ltmp121-Ltmp120
	.uleb128 Ltmp122-Lfunc_begin25
	.byte	0
Lcst_end25:
	.p2align	2

	.section	__TEXT,__text,regular,pure_instructions
	.p2align	4, 0x90
__ZN4core4iter8adapters12Rev$LT$T$GT$3new17h4e25e112475d130bE:
	.cfi_startproc
	pushq	%rbp
	.cfi_def_cfa_offset 16
	.cfi_offset %rbp, -16
	movq	%rsp, %rbp
	.cfi_def_cfa_register %rbp
	subq	$16, %rsp
	movq	%rdi, -16(%rbp)
	movq	%rsi, -8(%rbp)
	movq	-16(%rbp), %rax
	movq	-8(%rbp), %rdx
	addq	$16, %rsp
	popq	%rbp
	retq
	.cfi_endproc

	.p2align	4, 0x90
__ZN4core5alloc6layout10size_align17h97e6c02770d14befE:
	.cfi_startproc
	pushq	%rbp
	.cfi_def_cfa_offset 16
	.cfi_offset %rbp, -16
	movq	%rsp, %rbp
	.cfi_def_cfa_register %rbp
	subq	$48, %rsp
	movq	$544, -16(%rbp)
	movq	-16(%rbp), %rax
	movq	%rax, -40(%rbp)
	movq	$8, -8(%rbp)
	movq	-8(%rbp), %rax
	movq	%rax, -48(%rbp)
	movq	-40(%rbp), %rax
	movq	%rax, -32(%rbp)
	movq	-48(%rbp), %rcx
	movq	%rcx, -24(%rbp)
	movq	-32(%rbp), %rax
	movq	-24(%rbp), %rdx
	addq	$48, %rsp
	popq	%rbp
	retq
	.cfi_endproc

	.p2align	4, 0x90
__ZN4core5alloc6layout10size_align17hfdbd0cb16b82f947E:
	.cfi_startproc
	pushq	%rbp
	.cfi_def_cfa_offset 16
	.cfi_offset %rbp, -16
	movq	%rsp, %rbp
	.cfi_def_cfa_register %rbp
	subq	$48, %rsp
	movq	$640, -16(%rbp)
	movq	-16(%rbp), %rax
	movq	%rax, -40(%rbp)
	movq	$8, -8(%rbp)
	movq	-8(%rbp), %rax
	movq	%rax, -48(%rbp)
	movq	-40(%rbp), %rax
	movq	%rax, -32(%rbp)
	movq	-48(%rbp), %rcx
	movq	%rcx, -24(%rbp)
	movq	-32(%rbp), %rax
	movq	-24(%rbp), %rdx
	addq	$48, %rsp
	popq	%rbp
	retq
	.cfi_endproc

	.p2align	4, 0x90
__ZN4core5alloc6layout6Layout25from_size_align_unchecked17h2bdd8159e59a1021E:
	.cfi_startproc
	pushq	%rbp
	.cfi_def_cfa_offset 16
	.cfi_offset %rbp, -16
	movq	%rsp, %rbp
	.cfi_def_cfa_register %rbp
	subq	$32, %rsp
	movq	%rdi, -24(%rbp)
	movq	%rsi, %rdi
	callq	__ZN4core3num12NonZeroUsize13new_unchecked17h16a38d4e827a8ecbE
	movq	%rax, -32(%rbp)
	movq	-24(%rbp), %rax
	movq	%rax, -16(%rbp)
	movq	-32(%rbp), %rcx
	movq	%rcx, -8(%rbp)
	movq	-16(%rbp), %rax
	movq	-8(%rbp), %rdx
	addq	$32, %rsp
	popq	%rbp
	retq
	.cfi_endproc

	.p2align	4, 0x90
__ZN4core5alloc6layout6Layout3new17h6ae205e18918a1dcE:
	.cfi_startproc
	pushq	%rbp
	.cfi_def_cfa_offset 16
	.cfi_offset %rbp, -16
	movq	%rsp, %rbp
	.cfi_def_cfa_register %rbp
	subq	$32, %rsp
	callq	__ZN4core5alloc6layout10size_align17hfdbd0cb16b82f947E
	movq	%rax, -8(%rbp)
	movq	%rdx, -16(%rbp)
	movq	-8(%rbp), %rdi
	movq	-16(%rbp), %rsi
	callq	__ZN4core5alloc6layout6Layout25from_size_align_unchecked17h2bdd8159e59a1021E
	movq	%rax, -24(%rbp)
	movq	%rdx, -32(%rbp)
	movq	-24(%rbp), %rax
	movq	-32(%rbp), %rdx
	addq	$32, %rsp
	popq	%rbp
	retq
	.cfi_endproc

	.p2align	4, 0x90
__ZN4core5alloc6layout6Layout3new17hbfa96376215bb62cE:
	.cfi_startproc
	pushq	%rbp
	.cfi_def_cfa_offset 16
	.cfi_offset %rbp, -16
	movq	%rsp, %rbp
	.cfi_def_cfa_register %rbp
	subq	$32, %rsp
	callq	__ZN4core5alloc6layout10size_align17h97e6c02770d14befE
	movq	%rax, -8(%rbp)
	movq	%rdx, -16(%rbp)
	movq	-8(%rbp), %rdi
	movq	-16(%rbp), %rsi
	callq	__ZN4core5alloc6layout6Layout25from_size_align_unchecked17h2bdd8159e59a1021E
	movq	%rax, -24(%rbp)
	movq	%rdx, -32(%rbp)
	movq	-24(%rbp), %rax
	movq	-32(%rbp), %rdx
	addq	$32, %rsp
	popq	%rbp
	retq
	.cfi_endproc

	.p2align	4, 0x90
__ZN4core5alloc6layout6Layout4size17hba8621e272304275E:
	.cfi_startproc
	pushq	%rbp
	.cfi_def_cfa_offset 16
	.cfi_offset %rbp, -16
	movq	%rsp, %rbp
	.cfi_def_cfa_register %rbp
	movq	(%rdi), %rax
	popq	%rbp
	retq
	.cfi_endproc

	.p2align	4, 0x90
__ZN4core5alloc6layout6Layout5align17hfc22a778489884e4E:
	.cfi_startproc
	pushq	%rbp
	.cfi_def_cfa_offset 16
	.cfi_offset %rbp, -16
	movq	%rsp, %rbp
	.cfi_def_cfa_register %rbp
	subq	$16, %rsp
	movq	8(%rdi), %rdi
	callq	__ZN4core3num12NonZeroUsize3get17h69e5f24964a6cfd8E
	movq	%rax, -8(%rbp)
	movq	-8(%rbp), %rax
	addq	$16, %rsp
	popq	%rbp
	retq
	.cfi_endproc

	.p2align	4, 0x90
__ZN4core5clone5impls54_$LT$impl$u20$core..clone..Clone$u20$for$u20$usize$GT$5clone17h0b9242b707d87a03E:
	.cfi_startproc
	pushq	%rbp
	.cfi_def_cfa_offset 16
	.cfi_offset %rbp, -16
	movq	%rsp, %rbp
	.cfi_def_cfa_register %rbp
	movq	(%rdi), %rax
	popq	%rbp
	retq
	.cfi_endproc

	.p2align	4, 0x90
__ZN4core5slice14from_raw_parts17h17d64a2d4f32f016E:
	.cfi_startproc
	pushq	%rbp
	.cfi_def_cfa_offset 16
	.cfi_offset %rbp, -16
	movq	%rsp, %rbp
	.cfi_def_cfa_register %rbp
	subq	$16, %rsp
	callq	__ZN4core3ptr20slice_from_raw_parts17hb5f21e2137ab9a98E
	movq	%rax, -8(%rbp)
	movq	%rdx, -16(%rbp)
	movq	-8(%rbp), %rax
	movq	-16(%rbp), %rdx
	addq	$16, %rsp
	popq	%rbp
	retq
	.cfi_endproc

	.p2align	4, 0x90
__ZN4core5slice14from_raw_parts17h968cf5b54bf440b5E:
	.cfi_startproc
	pushq	%rbp
	.cfi_def_cfa_offset 16
	.cfi_offset %rbp, -16
	movq	%rsp, %rbp
	.cfi_def_cfa_register %rbp
	subq	$16, %rsp
	callq	__ZN4core3ptr20slice_from_raw_parts17haf6e92d840770159E
	movq	%rax, -8(%rbp)
	movq	%rdx, -16(%rbp)
	movq	-8(%rbp), %rax
	movq	-16(%rbp), %rdx
	addq	$16, %rsp
	popq	%rbp
	retq
	.cfi_endproc

	.p2align	4, 0x90
__ZN4core5slice14from_raw_parts17hcb161bd3a213a61eE:
	.cfi_startproc
	pushq	%rbp
	.cfi_def_cfa_offset 16
	.cfi_offset %rbp, -16
	movq	%rsp, %rbp
	.cfi_def_cfa_register %rbp
	subq	$16, %rsp
	callq	__ZN4core3ptr20slice_from_raw_parts17h52172b59f3fd6a3cE
	movq	%rax, -8(%rbp)
	movq	%rdx, -16(%rbp)
	movq	-8(%rbp), %rax
	movq	-16(%rbp), %rdx
	addq	$16, %rsp
	popq	%rbp
	retq
	.cfi_endproc

	.p2align	4, 0x90
__ZN4core5slice29_$LT$impl$u20$$u5b$T$u5d$$GT$11starts_with17hf03167f33227f5d3E:
	.cfi_startproc
	pushq	%rbp
	.cfi_def_cfa_offset 16
	.cfi_offset %rbp, -16
	movq	%rsp, %rbp
	.cfi_def_cfa_register %rbp
	subq	$112, %rsp
	movq	%rdx, -48(%rbp)
	movq	%rcx, -40(%rbp)
	movq	-48(%rbp), %rax
	movq	-40(%rbp), %rcx
	movq	%rdi, -56(%rbp)
	movq	%rax, %rdi
	movq	%rsi, -64(%rbp)
	movq	%rcx, %rsi
	callq	__ZN4core5slice29_$LT$impl$u20$$u5b$T$u5d$$GT$3len17heb0ac352e87c149aE
	movq	%rax, -72(%rbp)
	movq	-56(%rbp), %rdi
	movq	-64(%rbp), %rsi
	callq	__ZN4core5slice29_$LT$impl$u20$$u5b$T$u5d$$GT$3len17heb0ac352e87c149aE
	movq	%rax, -80(%rbp)
	jmp	LBB235_6
LBB235_2:
	movb	$1, -25(%rbp)
	jmp	LBB235_5
LBB235_3:
	movb	$0, -25(%rbp)
	jmp	LBB235_5
LBB235_4:
	leaq	l___unnamed_13(%rip), %rax
	movq	-72(%rbp), %rcx
	movq	%rcx, -8(%rbp)
	movq	-8(%rbp), %rdx
	movq	-56(%rbp), %rdi
	movq	-64(%rbp), %rsi
	movq	%rax, %rcx
	callq	__ZN4core5slice74_$LT$impl$u20$core..ops..index..Index$LT$I$GT$$u20$for$u20$$u5b$T$u5d$$GT$5index17hf775ba60e7f94c34E
	movq	%rax, -88(%rbp)
	movq	%rdx, -96(%rbp)
	jmp	LBB235_7
LBB235_5:
	movb	-25(%rbp), %al
	andb	$1, %al
	movzbl	%al, %eax
	addq	$112, %rsp
	popq	%rbp
	retq
LBB235_6:
	movq	-80(%rbp), %rax
	movq	-72(%rbp), %rcx
	cmpq	%rcx, %rax
	jae	LBB235_4
	jmp	LBB235_3
LBB235_7:
	movq	-88(%rbp), %rax
	movq	%rax, -24(%rbp)
	movq	-96(%rbp), %rcx
	movq	%rcx, -16(%rbp)
	leaq	-48(%rbp), %rdi
	leaq	-24(%rbp), %rsi
	callq	__ZN4core3cmp5impls69_$LT$impl$u20$core..cmp..PartialEq$LT$$RF$B$GT$$u20$for$u20$$RF$A$GT$2eq17hd48ccfc1b7fdfd0cE
	movb	%al, -97(%rbp)
	movb	-97(%rbp), %al
	testb	$1, %al
	jne	LBB235_2
	jmp	LBB235_3
	.cfi_endproc

	.p2align	4, 0x90
__ZN4core5slice29_$LT$impl$u20$$u5b$T$u5d$$GT$13get_unchecked17h46333d5bfa16d0c1E:
	.cfi_startproc
	pushq	%rbp
	.cfi_def_cfa_offset 16
	.cfi_offset %rbp, -16
	movq	%rsp, %rbp
	.cfi_def_cfa_register %rbp
	subq	$32, %rsp
	movq	%rdi, -8(%rbp)
	movq	%rdx, %rdi
	movq	-8(%rbp), %rax
	movq	%rsi, -16(%rbp)
	movq	%rax, %rsi
	movq	-16(%rbp), %rdx
	callq	__ZN68_$LT$usize$u20$as$u20$core..slice..SliceIndex$LT$$u5b$T$u5d$$GT$$GT$13get_unchecked17h42b4dfaced104d97E
	movq	%rax, -24(%rbp)
	movq	-24(%rbp), %rax
	addq	$32, %rsp
	popq	%rbp
	retq
	.cfi_endproc

	.p2align	4, 0x90
__ZN4core5slice29_$LT$impl$u20$$u5b$T$u5d$$GT$13get_unchecked17h56fcb620e03c4395E:
	.cfi_startproc
	pushq	%rbp
	.cfi_def_cfa_offset 16
	.cfi_offset %rbp, -16
	movq	%rsp, %rbp
	.cfi_def_cfa_register %rbp
	subq	$32, %rsp
	movq	%rdi, -8(%rbp)
	movq	%rdx, %rdi
	movq	-8(%rbp), %rax
	movq	%rsi, -16(%rbp)
	movq	%rax, %rsi
	movq	-16(%rbp), %rdx
	callq	__ZN68_$LT$usize$u20$as$u20$core..slice..SliceIndex$LT$$u5b$T$u5d$$GT$$GT$13get_unchecked17h4fe6597983cb6600E
	movq	%rax, -24(%rbp)
	movq	-24(%rbp), %rax
	addq	$32, %rsp
	popq	%rbp
	retq
	.cfi_endproc

	.p2align	4, 0x90
__ZN4core5slice29_$LT$impl$u20$$u5b$T$u5d$$GT$13get_unchecked17h5b0bf8ca6a22fa6eE:
	.cfi_startproc
	pushq	%rbp
	.cfi_def_cfa_offset 16
	.cfi_offset %rbp, -16
	movq	%rsp, %rbp
	.cfi_def_cfa_register %rbp
	subq	$32, %rsp
	movq	%rdi, -8(%rbp)
	movq	%rdx, %rdi
	movq	-8(%rbp), %rax
	movq	%rsi, -16(%rbp)
	movq	%rax, %rsi
	movq	-16(%rbp), %rdx
	callq	__ZN68_$LT$usize$u20$as$u20$core..slice..SliceIndex$LT$$u5b$T$u5d$$GT$$GT$13get_unchecked17hea454b935389a7d0E
	movq	%rax, -24(%rbp)
	movq	-24(%rbp), %rax
	addq	$32, %rsp
	popq	%rbp
	retq
	.cfi_endproc

	.p2align	4, 0x90
__ZN4core5slice29_$LT$impl$u20$$u5b$T$u5d$$GT$13get_unchecked17heee4a2e93db26eb4E:
	.cfi_startproc
	pushq	%rbp
	.cfi_def_cfa_offset 16
	.cfi_offset %rbp, -16
	movq	%rsp, %rbp
	.cfi_def_cfa_register %rbp
	subq	$32, %rsp
	movq	%rdi, -8(%rbp)
	movq	%rdx, %rdi
	movq	-8(%rbp), %rax
	movq	%rsi, -16(%rbp)
	movq	%rax, %rsi
	movq	-16(%rbp), %rdx
	callq	__ZN68_$LT$usize$u20$as$u20$core..slice..SliceIndex$LT$$u5b$T$u5d$$GT$$GT$13get_unchecked17hdb7aacd475d630bbE
	movq	%rax, -24(%rbp)
	movq	-24(%rbp), %rax
	addq	$32, %rsp
	popq	%rbp
	retq
	.cfi_endproc

	.p2align	4, 0x90
__ZN4core5slice29_$LT$impl$u20$$u5b$T$u5d$$GT$17get_unchecked_mut17h1a01e7ab2ff258efE:
	.cfi_startproc
	pushq	%rbp
	.cfi_def_cfa_offset 16
	.cfi_offset %rbp, -16
	movq	%rsp, %rbp
	.cfi_def_cfa_register %rbp
	subq	$32, %rsp
	movq	%rdi, -8(%rbp)
	movq	%rdx, %rdi
	movq	-8(%rbp), %rax
	movq	%rsi, -16(%rbp)
	movq	%rax, %rsi
	movq	-16(%rbp), %rdx
	callq	__ZN68_$LT$usize$u20$as$u20$core..slice..SliceIndex$LT$$u5b$T$u5d$$GT$$GT$17get_unchecked_mut17h1d1311f1a38c4e6bE
	movq	%rax, -24(%rbp)
	movq	-24(%rbp), %rax
	addq	$32, %rsp
	popq	%rbp
	retq
	.cfi_endproc

	.p2align	4, 0x90
__ZN4core5slice29_$LT$impl$u20$$u5b$T$u5d$$GT$3get17h5e8be96415784dc3E:
	.cfi_startproc
	pushq	%rbp
	.cfi_def_cfa_offset 16
	.cfi_offset %rbp, -16
	movq	%rsp, %rbp
	.cfi_def_cfa_register %rbp
	subq	$32, %rsp
	movq	%rdi, -8(%rbp)
	movq	%rdx, %rdi
	movq	-8(%rbp), %rax
	movq	%rsi, -16(%rbp)
	movq	%rax, %rsi
	movq	-16(%rbp), %rdx
	callq	__ZN68_$LT$usize$u20$as$u20$core..slice..SliceIndex$LT$$u5b$T$u5d$$GT$$GT$3get17ha4e8e74dd4e152e5E
	movq	%rax, -24(%rbp)
	movq	-24(%rbp), %rax
	addq	$32, %rsp
	popq	%rbp
	retq
	.cfi_endproc

	.p2align	4, 0x90
__ZN4core5slice29_$LT$impl$u20$$u5b$T$u5d$$GT$3get17hbfa413eb55d0d732E:
	.cfi_startproc
	pushq	%rbp
	.cfi_def_cfa_offset 16
	.cfi_offset %rbp, -16
	movq	%rsp, %rbp
	.cfi_def_cfa_register %rbp
	subq	$32, %rsp
	movq	%rdi, -8(%rbp)
	movq	%rdx, %rdi
	movq	%rsi, -16(%rbp)
	movq	%rcx, %rsi
	movq	-8(%rbp), %rdx
	movq	-16(%rbp), %rcx
	callq	__ZN99_$LT$core..ops..range..Range$LT$usize$GT$$u20$as$u20$core..slice..SliceIndex$LT$$u5b$T$u5d$$GT$$GT$3get17hb600452578a21c04E
	movq	%rax, -24(%rbp)
	movq	%rdx, -32(%rbp)
	movq	-24(%rbp), %rax
	movq	-32(%rbp), %rdx
	addq	$32, %rsp
	popq	%rbp
	retq
	.cfi_endproc

	.p2align	4, 0x90
__ZN4core5slice29_$LT$impl$u20$$u5b$T$u5d$$GT$3len17heb0ac352e87c149aE:
	.cfi_startproc
	pushq	%rbp
	.cfi_def_cfa_offset 16
	.cfi_offset %rbp, -16
	movq	%rsp, %rbp
	.cfi_def_cfa_register %rbp
	subq	$16, %rsp
	movq	%rdi, -16(%rbp)
	movq	%rsi, -8(%rbp)
	movq	-8(%rbp), %rax
	addq	$16, %rsp
	popq	%rbp
	retq
	.cfi_endproc

	.p2align	4, 0x90
__ZN4core5slice29_$LT$impl$u20$$u5b$T$u5d$$GT$4iter17haa5b98ce8f95c4bcE:
	.cfi_startproc
	pushq	%rbp
	.cfi_def_cfa_offset 16
	.cfi_offset %rbp, -16
	movq	%rsp, %rbp
	.cfi_def_cfa_register %rbp
	subq	$112, %rsp
	movq	%rdi, -48(%rbp)
	movq	%rsi, -56(%rbp)
	callq	__ZN4core5slice29_$LT$impl$u20$$u5b$T$u5d$$GT$6as_ptr17hbce2f84e55bf00b3E
	movq	%rax, -64(%rbp)
	movq	-64(%rbp), %rdi
	callq	__ZN4core3ptr9const_ptr33_$LT$impl$u20$$BP$const$u20$T$GT$7is_null17h7744ab77ba200ba3E
	movq	$1, -8(%rbp)
	movq	-8(%rbp), %rax
	movq	%rax, -72(%rbp)
	movq	-72(%rbp), %rax
	cmpq	$0, %rax
	je	LBB244_6
	movq	-48(%rbp), %rdi
	movq	-56(%rbp), %rsi
	callq	__ZN4core5slice29_$LT$impl$u20$$u5b$T$u5d$$GT$3len17heb0ac352e87c149aE
	movq	%rax, -80(%rbp)
	jmp	LBB244_9
LBB244_6:
	movq	-48(%rbp), %rdi
	movq	-56(%rbp), %rsi
	callq	__ZN4core5slice29_$LT$impl$u20$$u5b$T$u5d$$GT$3len17heb0ac352e87c149aE
	movq	%rax, -88(%rbp)
	movq	-64(%rbp), %rdi
	movq	-88(%rbp), %rsi
	callq	__ZN4core3ptr9const_ptr33_$LT$impl$u20$$BP$const$u20$T$GT$12wrapping_add17h740d65b28c1c4dcdE
	movq	%rax, -96(%rbp)
	movq	-96(%rbp), %rax
	movq	%rax, -24(%rbp)
	jmp	LBB244_11
LBB244_9:
	movq	-64(%rbp), %rdi
	movq	-80(%rbp), %rsi
	callq	__ZN4core3ptr9const_ptr33_$LT$impl$u20$$BP$const$u20$T$GT$3add17h0bde8cab90c0f77eE
	movq	%rax, -24(%rbp)
	jmp	LBB244_11
LBB244_11:
	movq	-64(%rbp), %rdi
	callq	__ZN4core3ptr8non_null16NonNull$LT$T$GT$13new_unchecked17h57b70d57d64ebb5eE
	movq	%rax, -104(%rbp)
	movq	-24(%rbp), %rax
	movq	-104(%rbp), %rcx
	movq	%rcx, -40(%rbp)
	movq	%rax, -32(%rbp)
	movq	-40(%rbp), %rax
	movq	-32(%rbp), %rdx
	addq	$112, %rsp
	popq	%rbp
	retq
	.cfi_endproc

	.p2align	4, 0x90
__ZN4core5slice29_$LT$impl$u20$$u5b$T$u5d$$GT$6as_ptr17hbce2f84e55bf00b3E:
	.cfi_startproc
	pushq	%rbp
	.cfi_def_cfa_offset 16
	.cfi_offset %rbp, -16
	movq	%rsp, %rbp
	.cfi_def_cfa_register %rbp
	movq	%rdi, %rax
	popq	%rbp
	retq
	.cfi_endproc

	.p2align	4, 0x90
__ZN4core5slice74_$LT$impl$u20$core..ops..index..Index$LT$I$GT$$u20$for$u20$$u5b$T$u5d$$GT$5index17heaf23f18559a8343E:
	.cfi_startproc
	pushq	%rbp
	.cfi_def_cfa_offset 16
	.cfi_offset %rbp, -16
	movq	%rsp, %rbp
	.cfi_def_cfa_register %rbp
	subq	$32, %rsp
	movq	%rdi, -8(%rbp)
	movq	%rdx, %rdi
	movq	%rsi, -16(%rbp)
	movq	%rcx, %rsi
	movq	-8(%rbp), %rdx
	movq	-16(%rbp), %rcx
	callq	__ZN99_$LT$core..ops..range..Range$LT$usize$GT$$u20$as$u20$core..slice..SliceIndex$LT$$u5b$T$u5d$$GT$$GT$5index17h681f4dcf56ea21feE
	movq	%rax, -24(%rbp)
	movq	%rdx, -32(%rbp)
	movq	-24(%rbp), %rax
	movq	-32(%rbp), %rdx
	addq	$32, %rsp
	popq	%rbp
	retq
	.cfi_endproc

	.p2align	4, 0x90
__ZN4core5slice74_$LT$impl$u20$core..ops..index..Index$LT$I$GT$$u20$for$u20$$u5b$T$u5d$$GT$5index17hf775ba60e7f94c34E:
	.cfi_startproc
	pushq	%rbp
	.cfi_def_cfa_offset 16
	.cfi_offset %rbp, -16
	movq	%rsp, %rbp
	.cfi_def_cfa_register %rbp
	subq	$32, %rsp
	movq	%rdi, -8(%rbp)
	movq	%rdx, %rdi
	movq	-8(%rbp), %rax
	movq	%rsi, -16(%rbp)
	movq	%rax, %rsi
	movq	-16(%rbp), %rdx
	callq	__ZN101_$LT$core..ops..range..RangeTo$LT$usize$GT$$u20$as$u20$core..slice..SliceIndex$LT$$u5b$T$u5d$$GT$$GT$5index17h983c53e5a370367aE
	movq	%rax, -24(%rbp)
	movq	%rdx, -32(%rbp)
	movq	-24(%rbp), %rax
	movq	-32(%rbp), %rdx
	addq	$32, %rsp
	popq	%rbp
	retq
	.cfi_endproc

	.p2align	4, 0x90
__ZN4core5slice77_$LT$impl$u20$core..ops..index..IndexMut$LT$I$GT$$u20$for$u20$$u5b$T$u5d$$GT$9index_mut17h11c256aad6e02b25E:
	.cfi_startproc
	pushq	%rbp
	.cfi_def_cfa_offset 16
	.cfi_offset %rbp, -16
	movq	%rsp, %rbp
	.cfi_def_cfa_register %rbp
	subq	$32, %rsp
	movq	%rdi, -8(%rbp)
	movq	%rdx, %rdi
	movq	-8(%rbp), %rax
	movq	%rsi, -16(%rbp)
	movq	%rax, %rsi
	movq	-16(%rbp), %rdx
	callq	__ZN101_$LT$core..ops..range..RangeTo$LT$usize$GT$$u20$as$u20$core..slice..SliceIndex$LT$$u5b$T$u5d$$GT$$GT$9index_mut17h238ff251fea55543E
	movq	%rax, -24(%rbp)
	movq	%rdx, -32(%rbp)
	movq	-24(%rbp), %rax
	movq	-32(%rbp), %rdx
	addq	$32, %rsp
	popq	%rbp
	retq
	.cfi_endproc

	.p2align	4, 0x90
__ZN4core5slice77_$LT$impl$u20$core..ops..index..IndexMut$LT$I$GT$$u20$for$u20$$u5b$T$u5d$$GT$9index_mut17h4394636f39b25319E:
	.cfi_startproc
	pushq	%rbp
	.cfi_def_cfa_offset 16
	.cfi_offset %rbp, -16
	movq	%rsp, %rbp
	.cfi_def_cfa_register %rbp
	subq	$16, %rsp
	callq	__ZN90_$LT$core..ops..range..RangeFull$u20$as$u20$core..slice..SliceIndex$LT$$u5b$T$u5d$$GT$$GT$9index_mut17h4b7a91424ac4bd3fE
	movq	%rax, -8(%rbp)
	movq	%rdx, -16(%rbp)
	movq	-8(%rbp), %rax
	movq	-16(%rbp), %rdx
	addq	$16, %rsp
	popq	%rbp
	retq
	.cfi_endproc

	.p2align	4, 0x90
__ZN4core5slice81_$LT$impl$u20$core..cmp..PartialEq$LT$$u5b$B$u5d$$GT$$u20$for$u20$$u5b$A$u5d$$GT$2eq17he8fa2e4da32a88baE:
	.cfi_startproc
	pushq	%rbp
	.cfi_def_cfa_offset 16
	.cfi_offset %rbp, -16
	movq	%rsp, %rbp
	.cfi_def_cfa_register %rbp
	subq	$16, %rsp
	callq	__ZN68_$LT$$u5b$A$u5d$$u20$as$u20$core..slice..SlicePartialEq$LT$A$GT$$GT$5equal17he2cc4b26d2b387f4E
	movb	%al, -1(%rbp)
	movb	-1(%rbp), %al
	andb	$1, %al
	movzbl	%al, %eax
	addq	$16, %rsp
	popq	%rbp
	retq
	.cfi_endproc

	.p2align	4, 0x90
__ZN4core6option15Option$LT$T$GT$14unwrap_or_else17h06767a5745ea42b4E:
Lfunc_begin26:
	.cfi_startproc
	.cfi_personality 155, _rust_eh_personality
	.cfi_lsda 16, Lexception26
	pushq	%rbp
	.cfi_def_cfa_offset 16
	.cfi_offset %rbp, -16
	movq	%rsp, %rbp
	.cfi_def_cfa_register %rbp
	subq	$80, %rsp
	movq	%rdi, %rax
	movb	$0, -17(%rbp)
	movb	$1, -17(%rbp)
	movq	8(%rsi), %rcx
	testq	%rcx, %rcx
	setne	%dl
	movzbl	%dl, %r8d
	movl	%r8d, %ecx
	movq	%rsi, -64(%rbp)
	movq	%rdi, -72(%rbp)
	movq	%rax, -80(%rbp)
	je	LBB251_1
	jmp	LBB251_10
LBB251_10:
	jmp	LBB251_3
LBB251_1:
	movb	$0, -17(%rbp)
Ltmp133:
	movq	-72(%rbp), %rdi
	callq	__ZN5alloc11collections5btree16unwrap_unchecked28_$u7b$$u7b$closure$u7d$$u7d$17hff84fe0c8cc162a8E
Ltmp134:
	jmp	LBB251_4
	ud2
LBB251_3:
	movq	-64(%rbp), %rax
	movq	(%rax), %rcx
	movq	%rcx, -56(%rbp)
	movq	8(%rax), %rcx
	movq	%rcx, -48(%rbp)
	movq	16(%rax), %rcx
	movq	%rcx, -40(%rbp)
	movq	24(%rax), %rcx
	movq	%rcx, -32(%rbp)
	movq	-56(%rbp), %rcx
	movq	-72(%rbp), %rdx
	movq	%rcx, (%rdx)
	movq	-48(%rbp), %rcx
	movq	%rcx, 8(%rdx)
	movq	-40(%rbp), %rcx
	movq	%rcx, 16(%rdx)
	movq	-32(%rbp), %rcx
	movq	%rcx, 24(%rdx)
	jmp	LBB251_8
LBB251_4:
	jmp	LBB251_8
LBB251_5:
	movq	-80(%rbp), %rax
	addq	$80, %rsp
	popq	%rbp
	retq
LBB251_6:
	movq	-16(%rbp), %rdi
	callq	__Unwind_Resume
	ud2
LBB251_7:
	movb	$0, -17(%rbp)
	jmp	LBB251_5
LBB251_8:
	testb	$1, -17(%rbp)
	jne	LBB251_7
	jmp	LBB251_5
LBB251_9:
Ltmp135:
	movq	%rax, -16(%rbp)
	movl	%edx, -8(%rbp)
	jmp	LBB251_6
Lfunc_end26:
	.cfi_endproc
	.section	__TEXT,__gcc_except_tab
	.p2align	2
GCC_except_table251:
Lexception26:
	.byte	255
	.byte	255
	.byte	1
	.uleb128 Lcst_end26-Lcst_begin26
Lcst_begin26:
	.uleb128 Ltmp133-Lfunc_begin26
	.uleb128 Ltmp134-Ltmp133
	.uleb128 Ltmp135-Lfunc_begin26
	.byte	0
	.uleb128 Ltmp134-Lfunc_begin26
	.uleb128 Lfunc_end26-Ltmp134
	.byte	0
	.byte	0
Lcst_end26:
	.p2align	2

	.section	__TEXT,__text,regular,pure_instructions
	.p2align	4, 0x90
__ZN4core6option15Option$LT$T$GT$14unwrap_or_else17h57c25818f994cec4E:
Lfunc_begin27:
	.cfi_startproc
	.cfi_personality 155, _rust_eh_personality
	.cfi_lsda 16, Lexception27
	pushq	%rbp
	.cfi_def_cfa_offset 16
	.cfi_offset %rbp, -16
	movq	%rsp, %rbp
	.cfi_def_cfa_register %rbp
	subq	$80, %rsp
	movq	%rdi, %rax
	movb	$0, -17(%rbp)
	movb	$1, -17(%rbp)
	movq	8(%rsi), %rcx
	testq	%rcx, %rcx
	setne	%dl
	movzbl	%dl, %r8d
	movl	%r8d, %ecx
	movq	%rsi, -64(%rbp)
	movq	%rdi, -72(%rbp)
	movq	%rax, -80(%rbp)
	je	LBB252_1
	jmp	LBB252_10
LBB252_10:
	jmp	LBB252_3
LBB252_1:
	movb	$0, -17(%rbp)
Ltmp136:
	movq	-72(%rbp), %rdi
	callq	__ZN5alloc11collections5btree16unwrap_unchecked28_$u7b$$u7b$closure$u7d$$u7d$17h91461222dce6e558E
Ltmp137:
	jmp	LBB252_4
	ud2
LBB252_3:
	movq	-64(%rbp), %rax
	movq	(%rax), %rcx
	movq	%rcx, -56(%rbp)
	movq	8(%rax), %rcx
	movq	%rcx, -48(%rbp)
	movq	16(%rax), %rcx
	movq	%rcx, -40(%rbp)
	movq	24(%rax), %rcx
	movq	%rcx, -32(%rbp)
	movq	-56(%rbp), %rcx
	movq	-72(%rbp), %rdx
	movq	%rcx, (%rdx)
	movq	-48(%rbp), %rcx
	movq	%rcx, 8(%rdx)
	movq	-40(%rbp), %rcx
	movq	%rcx, 16(%rdx)
	movq	-32(%rbp), %rcx
	movq	%rcx, 24(%rdx)
	jmp	LBB252_8
LBB252_4:
	jmp	LBB252_8
LBB252_5:
	movq	-80(%rbp), %rax
	addq	$80, %rsp
	popq	%rbp
	retq
LBB252_6:
	movq	-16(%rbp), %rdi
	callq	__Unwind_Resume
	ud2
LBB252_7:
	movb	$0, -17(%rbp)
	jmp	LBB252_5
LBB252_8:
	testb	$1, -17(%rbp)
	jne	LBB252_7
	jmp	LBB252_5
LBB252_9:
Ltmp138:
	movq	%rax, -16(%rbp)
	movl	%edx, -8(%rbp)
	jmp	LBB252_6
Lfunc_end27:
	.cfi_endproc
	.section	__TEXT,__gcc_except_tab
	.p2align	2
GCC_except_table252:
Lexception27:
	.byte	255
	.byte	255
	.byte	1
	.uleb128 Lcst_end27-Lcst_begin27
Lcst_begin27:
	.uleb128 Ltmp136-Lfunc_begin27
	.uleb128 Ltmp137-Ltmp136
	.uleb128 Ltmp138-Lfunc_begin27
	.byte	0
	.uleb128 Ltmp137-Lfunc_begin27
	.uleb128 Lfunc_end27-Ltmp137
	.byte	0
	.byte	0
Lcst_end27:
	.p2align	2

	.section	__TEXT,__text,regular,pure_instructions
	.p2align	4, 0x90
__ZN4core6option15Option$LT$T$GT$14unwrap_or_else17hea752b3ab9f66db3E:
Lfunc_begin28:
	.cfi_startproc
	.cfi_personality 155, _rust_eh_personality
	.cfi_lsda 16, Lexception28
	pushq	%rbp
	.cfi_def_cfa_offset 16
	.cfi_offset %rbp, -16
	movq	%rsp, %rbp
	.cfi_def_cfa_register %rbp
	subq	$112, %rsp
	movq	%rdi, -80(%rbp)
	movq	%rsi, -72(%rbp)
	movb	$0, -17(%rbp)
	movb	$1, -17(%rbp)
	movq	-80(%rbp), %rax
	testq	%rax, %rax
	setne	%cl
	movzbl	%cl, %r8d
	movl	%r8d, %eax
	movq	%rdx, -88(%rbp)
	je	LBB253_1
	jmp	LBB253_10
LBB253_10:
	jmp	LBB253_3
LBB253_1:
	movb	$0, -17(%rbp)
	movq	-88(%rbp), %rax
	movq	16(%rax), %rcx
	movq	%rcx, -32(%rbp)
	movq	(%rax), %rcx
	movq	8(%rax), %rdx
	movq	%rdx, -40(%rbp)
	movq	%rcx, -48(%rbp)
Ltmp139:
	leaq	-48(%rbp), %rdi
	callq	__ZN4core3str6traits105_$LT$impl$u20$core..slice..SliceIndex$LT$str$GT$$u20$for$u20$core..ops..range..RangeFrom$LT$usize$GT$$GT$5index28_$u7b$$u7b$closure$u7d$$u7d$17hea46657ca8700a96E
Ltmp140:
	movq	%rdx, -96(%rbp)
	movq	%rax, -104(%rbp)
	jmp	LBB253_4
	ud2
LBB253_3:
	movq	-80(%rbp), %rax
	movq	-72(%rbp), %rcx
	movq	%rax, -64(%rbp)
	movq	%rcx, -56(%rbp)
	jmp	LBB253_8
LBB253_4:
	movq	-104(%rbp), %rax
	movq	%rax, -64(%rbp)
	movq	-96(%rbp), %rcx
	movq	%rcx, -56(%rbp)
	jmp	LBB253_8
LBB253_5:
	movq	-64(%rbp), %rax
	movq	-56(%rbp), %rdx
	addq	$112, %rsp
	popq	%rbp
	retq
LBB253_6:
	movq	-16(%rbp), %rdi
	callq	__Unwind_Resume
	ud2
LBB253_7:
	movb	$0, -17(%rbp)
	jmp	LBB253_5
LBB253_8:
	testb	$1, -17(%rbp)
	jne	LBB253_7
	jmp	LBB253_5
LBB253_9:
Ltmp141:
	movq	%rax, -16(%rbp)
	movl	%edx, -8(%rbp)
	jmp	LBB253_6
Lfunc_end28:
	.cfi_endproc
	.section	__TEXT,__gcc_except_tab
	.p2align	2
GCC_except_table253:
Lexception28:
	.byte	255
	.byte	255
	.byte	1
	.uleb128 Lcst_end28-Lcst_begin28
Lcst_begin28:
	.uleb128 Ltmp139-Lfunc_begin28
	.uleb128 Ltmp140-Ltmp139
	.uleb128 Ltmp141-Lfunc_begin28
	.byte	0
	.uleb128 Ltmp140-Lfunc_begin28
	.uleb128 Lfunc_end28-Ltmp140
	.byte	0
	.byte	0
Lcst_end28:
	.p2align	2

	.section	__TEXT,__text,regular,pure_instructions
	.p2align	4, 0x90
__ZN4core6option15Option$LT$T$GT$3map17hc5031227e6a8dd21E:
Lfunc_begin29:
	.cfi_startproc
	.cfi_personality 155, _rust_eh_personality
	.cfi_lsda 16, Lexception29
	pushq	%rbp
	.cfi_def_cfa_offset 16
	.cfi_offset %rbp, -16
	movq	%rsp, %rbp
	.cfi_def_cfa_register %rbp
	subq	$48, %rsp
	movl	%edi, -40(%rbp)
	movl	%esi, -36(%rbp)
	movb	$0, -17(%rbp)
	movb	$1, -17(%rbp)
	movl	-40(%rbp), %eax
	movl	%eax, %ecx
	testq	%rcx, %rcx
	je	LBB254_1
	jmp	LBB254_10
LBB254_10:
	jmp	LBB254_3
LBB254_1:
	movl	$1114112, -28(%rbp)
	jmp	LBB254_8
	ud2
LBB254_3:
	movl	-36(%rbp), %eax
	movb	$0, -17(%rbp)
	movl	%eax, -24(%rbp)
	movl	-24(%rbp), %edi
Ltmp142:
	callq	__ZN75_$LT$core..str..Chars$u20$as$u20$core..iter..traits..iterator..Iterator$GT$4next28_$u7b$$u7b$closure$u7d$$u7d$17h03af4eba486bfa4aE
Ltmp143:
	movl	%eax, -44(%rbp)
	jmp	LBB254_4
LBB254_4:
	movl	-44(%rbp), %eax
	movl	%eax, -28(%rbp)
	jmp	LBB254_8
LBB254_5:
	movl	-28(%rbp), %eax
	addq	$48, %rsp
	popq	%rbp
	retq
LBB254_6:
	movq	-16(%rbp), %rdi
	callq	__Unwind_Resume
	ud2
LBB254_7:
	movb	$0, -17(%rbp)
	jmp	LBB254_5
LBB254_8:
	testb	$1, -17(%rbp)
	jne	LBB254_7
	jmp	LBB254_5
LBB254_9:
Ltmp144:
	movq	%rax, -16(%rbp)
	movl	%edx, -8(%rbp)
	jmp	LBB254_6
Lfunc_end29:
	.cfi_endproc
	.section	__TEXT,__gcc_except_tab
	.p2align	2
GCC_except_table254:
Lexception29:
	.byte	255
	.byte	255
	.byte	1
	.uleb128 Lcst_end29-Lcst_begin29
Lcst_begin29:
	.uleb128 Ltmp142-Lfunc_begin29
	.uleb128 Ltmp143-Ltmp142
	.uleb128 Ltmp144-Lfunc_begin29
	.byte	0
	.uleb128 Ltmp143-Lfunc_begin29
	.uleb128 Lfunc_end29-Ltmp143
	.byte	0
	.byte	0
Lcst_end29:
	.p2align	2

	.section	__TEXT,__text,regular,pure_instructions
	.p2align	4, 0x90
__ZN4core6option15Option$LT$T$GT$4take17h305d69ddbea9cacfE:
	.cfi_startproc
	pushq	%rbp
	.cfi_def_cfa_offset 16
	.cfi_offset %rbp, -16
	movq	%rsp, %rbp
	.cfi_def_cfa_register %rbp
	subq	$16, %rsp
	callq	__ZN4core3mem4take17hb1c1c798995b580dE
	movq	%rax, -8(%rbp)
	movq	%rdx, -16(%rbp)
	movq	-8(%rbp), %rax
	movq	-16(%rbp), %rdx
	addq	$16, %rsp
	popq	%rbp
	retq
	.cfi_endproc

	.p2align	4, 0x90
__ZN4core6option15Option$LT$T$GT$5ok_or17h13bac4305a00224bE:
	.cfi_startproc
	pushq	%rbp
	.cfi_def_cfa_offset 16
	.cfi_offset %rbp, -16
	movq	%rsp, %rbp
	.cfi_def_cfa_register %rbp
	subq	$96, %rsp
	movq	%rdi, %rax
	movb	$0, -17(%rbp)
	movb	$1, -17(%rbp)
	movq	(%rsi), %rcx
	testq	%rcx, %rcx
	setne	%dl
	movzbl	%dl, %r8d
	movl	%r8d, %ecx
	movq	%rsi, -80(%rbp)
	movq	%rdi, -88(%rbp)
	movq	%rax, -96(%rbp)
	je	LBB256_1
	jmp	LBB256_7
LBB256_7:
	jmp	LBB256_3
LBB256_1:
	movb	$0, -17(%rbp)
	movq	-88(%rbp), %rax
	movq	$0, (%rax)
	jmp	LBB256_4
	ud2
LBB256_3:
	movq	-80(%rbp), %rax
	movq	(%rax), %rcx
	movq	%rcx, -72(%rbp)
	movq	8(%rax), %rcx
	movq	%rcx, -64(%rbp)
	movq	16(%rax), %rcx
	movq	%rcx, -56(%rbp)
	movq	-72(%rbp), %rcx
	movq	%rcx, -48(%rbp)
	movq	-64(%rbp), %rcx
	movq	%rcx, -40(%rbp)
	movq	-56(%rbp), %rcx
	movq	%rcx, -32(%rbp)
	movq	-48(%rbp), %rcx
	movq	-88(%rbp), %rdx
	movq	%rcx, (%rdx)
	movq	-40(%rbp), %rcx
	movq	%rcx, 8(%rdx)
	movq	-32(%rbp), %rcx
	movq	%rcx, 16(%rdx)
LBB256_4:
	testb	$1, -17(%rbp)
	jne	LBB256_6
LBB256_5:
	movq	-96(%rbp), %rax
	addq	$96, %rsp
	popq	%rbp
	retq
LBB256_6:
	movb	$0, -17(%rbp)
	jmp	LBB256_5
	.cfi_endproc

	.p2align	4, 0x90
__ZN4core6option15Option$LT$T$GT$5ok_or17h44d7bcce6223c819E:
	.cfi_startproc
	pushq	%rbp
	.cfi_def_cfa_offset 16
	.cfi_offset %rbp, -16
	movq	%rsp, %rbp
	.cfi_def_cfa_register %rbp
	subq	$40, %rsp
	movl	%edi, -40(%rbp)
	movl	%esi, -36(%rbp)
	movb	$0, -17(%rbp)
	movb	$1, -17(%rbp)
	movl	-40(%rbp), %eax
	movl	%eax, %ecx
	testq	%rcx, %rcx
	je	LBB257_1
	jmp	LBB257_7
LBB257_7:
	jmp	LBB257_3
LBB257_1:
	movb	$0, -17(%rbp)
	movl	$1, -32(%rbp)
	jmp	LBB257_4
	ud2
LBB257_3:
	movl	-36(%rbp), %eax
	movl	%eax, -28(%rbp)
	movl	$0, -32(%rbp)
LBB257_4:
	testb	$1, -17(%rbp)
	jne	LBB257_6
LBB257_5:
	movl	-32(%rbp), %eax
	movl	-28(%rbp), %edx
	addq	$40, %rsp
	popq	%rbp
	retq
LBB257_6:
	movb	$0, -17(%rbp)
	jmp	LBB257_5
	.cfi_endproc

	.p2align	4, 0x90
__ZN4core6option15Option$LT$T$GT$5ok_or17h4f43429b1bf8f085E:
	.cfi_startproc
	pushq	%rbp
	.cfi_def_cfa_offset 16
	.cfi_offset %rbp, -16
	movq	%rsp, %rbp
	.cfi_def_cfa_register %rbp
	subq	$40, %rsp
	movq	%rdi, -40(%rbp)
	movb	$0, -17(%rbp)
	movb	$1, -17(%rbp)
	movq	-40(%rbp), %rax
	testq	%rax, %rax
	setne	%cl
	movzbl	%cl, %edx
	movl	%edx, %eax
	je	LBB258_1
	jmp	LBB258_7
LBB258_7:
	jmp	LBB258_3
LBB258_1:
	movb	$0, -17(%rbp)
	movq	$0, -32(%rbp)
	jmp	LBB258_4
	ud2
LBB258_3:
	movq	-40(%rbp), %rax
	movq	%rax, -32(%rbp)
LBB258_4:
	testb	$1, -17(%rbp)
	jne	LBB258_6
LBB258_5:
	movq	-32(%rbp), %rax
	addq	$40, %rsp
	popq	%rbp
	retq
LBB258_6:
	movb	$0, -17(%rbp)
	jmp	LBB258_5
	.cfi_endproc

	.p2align	4, 0x90
__ZN4core6option15Option$LT$T$GT$5ok_or17hae26f99acddfd07bE:
	.cfi_startproc
	pushq	%rbp
	.cfi_def_cfa_offset 16
	.cfi_offset %rbp, -16
	movq	%rsp, %rbp
	.cfi_def_cfa_register %rbp
	subq	$56, %rsp
	movq	%rdi, -56(%rbp)
	movq	%rsi, -48(%rbp)
	movb	$0, -17(%rbp)
	movb	$1, -17(%rbp)
	movq	-56(%rbp), %rax
	testq	%rax, %rax
	setne	%cl
	movzbl	%cl, %edx
	movl	%edx, %eax
	je	LBB259_1
	jmp	LBB259_7
LBB259_7:
	jmp	LBB259_3
LBB259_1:
	movb	$0, -17(%rbp)
	movq	$0, -40(%rbp)
	jmp	LBB259_4
	ud2
LBB259_3:
	movq	-56(%rbp), %rax
	movq	-48(%rbp), %rcx
	movq	%rax, -40(%rbp)
	movq	%rcx, -32(%rbp)
LBB259_4:
	testb	$1, -17(%rbp)
	jne	LBB259_6
LBB259_5:
	movq	-40(%rbp), %rax
	movq	-32(%rbp), %rdx
	addq	$56, %rsp
	popq	%rbp
	retq
LBB259_6:
	movb	$0, -17(%rbp)
	jmp	LBB259_5
	.cfi_endproc

	.p2align	4, 0x90
__ZN4core6option15Option$LT$T$GT$5ok_or17hb0703f6e7da60074E:
	.cfi_startproc
	pushq	%rbp
	.cfi_def_cfa_offset 16
	.cfi_offset %rbp, -16
	movq	%rsp, %rbp
	.cfi_def_cfa_register %rbp
	subq	$192, %rsp
	movq	%rdi, %rax
	movb	$0, -17(%rbp)
	movb	$1, -17(%rbp)
	movq	(%rsi), %rcx
	testq	%rcx, %rcx
	setne	%dl
	movzbl	%dl, %r8d
	movl	%r8d, %ecx
	movq	%rsi, -144(%rbp)
	movq	%rdi, -152(%rbp)
	movq	%rax, -160(%rbp)
	je	LBB260_1
	jmp	LBB260_7
LBB260_7:
	jmp	LBB260_3
LBB260_1:
	movb	$0, -17(%rbp)
	movq	-152(%rbp), %rax
	movq	$0, (%rax)
	jmp	LBB260_4
	ud2
LBB260_3:
	movq	-144(%rbp), %rax
	leaq	-136(%rbp), %rcx
	movq	%rcx, %rdx
	movq	%rdx, %rdi
	movq	%rax, %rsi
	movl	$56, %eax
	movq	%rax, %rdx
	movq	%rcx, -168(%rbp)
	movq	%rax, -176(%rbp)
	callq	_memcpy
	leaq	-80(%rbp), %rax
	movq	%rax, %rcx
	movq	-168(%rbp), %rdx
	movq	%rcx, %rdi
	movq	%rdx, %rsi
	movq	-176(%rbp), %rdx
	movq	%rax, -184(%rbp)
	callq	_memcpy
	movq	-152(%rbp), %rax
	movq	-184(%rbp), %rcx
	movq	%rax, %rdi
	movq	%rcx, %rsi
	movq	-176(%rbp), %rdx
	callq	_memcpy
LBB260_4:
	testb	$1, -17(%rbp)
	jne	LBB260_6
LBB260_5:
	movq	-160(%rbp), %rax
	addq	$192, %rsp
	popq	%rbp
	retq
LBB260_6:
	movb	$0, -17(%rbp)
	jmp	LBB260_5
	.cfi_endproc

	.p2align	4, 0x90
__ZN4core6option15Option$LT$T$GT$5ok_or17hf3809064a955a61eE:
	.cfi_startproc
	pushq	%rbp
	.cfi_def_cfa_offset 16
	.cfi_offset %rbp, -16
	movq	%rsp, %rbp
	.cfi_def_cfa_register %rbp
	subq	$56, %rsp
	movq	%rdi, -56(%rbp)
	movq	%rsi, -48(%rbp)
	movb	$0, -17(%rbp)
	movb	$1, -17(%rbp)
	movq	-56(%rbp), %rax
	testq	%rax, %rax
	setne	%cl
	movzbl	%cl, %edx
	movl	%edx, %eax
	je	LBB261_1
	jmp	LBB261_7
LBB261_7:
	jmp	LBB261_3
LBB261_1:
	movb	$0, -17(%rbp)
	movq	$0, -40(%rbp)
	jmp	LBB261_4
	ud2
LBB261_3:
	movq	-56(%rbp), %rax
	movq	-48(%rbp), %rcx
	movq	%rax, -40(%rbp)
	movq	%rcx, -32(%rbp)
LBB261_4:
	testb	$1, -17(%rbp)
	jne	LBB261_6
LBB261_5:
	movq	-40(%rbp), %rax
	movq	-32(%rbp), %rdx
	addq	$56, %rsp
	popq	%rbp
	retq
LBB261_6:
	movb	$0, -17(%rbp)
	jmp	LBB261_5
	.cfi_endproc

	.p2align	4, 0x90
__ZN4core6option15Option$LT$T$GT$6as_mut17hf76829fd09c3ac21E:
	.cfi_startproc
	pushq	%rbp
	.cfi_def_cfa_offset 16
	.cfi_offset %rbp, -16
	movq	%rsp, %rbp
	.cfi_def_cfa_register %rbp
	subq	$16, %rsp
	movq	8(%rdi), %rax
	testq	%rax, %rax
	setne	%cl
	movzbl	%cl, %edx
	movl	%edx, %eax
	movq	%rdi, -16(%rbp)
	je	LBB262_1
	jmp	LBB262_5
LBB262_5:
	jmp	LBB262_3
LBB262_1:
	movq	$0, -8(%rbp)
	jmp	LBB262_4
	ud2
LBB262_3:
	movq	-16(%rbp), %rax
	movq	%rax, -8(%rbp)
LBB262_4:
	movq	-8(%rbp), %rax
	addq	$16, %rsp
	popq	%rbp
	retq
	.cfi_endproc

	.p2align	4, 0x90
__ZN4core6option15Option$LT$T$GT$6unwrap17h87491ba47c80ac93E:
Lfunc_begin30:
	.cfi_startproc
	.cfi_personality 155, _rust_eh_personality
	.cfi_lsda 16, Lexception30
	pushq	%rbp
	.cfi_def_cfa_offset 16
	.cfi_offset %rbp, -16
	movq	%rsp, %rbp
	.cfi_def_cfa_register %rbp
	subq	$32, %rsp
	movq	%rdi, -24(%rbp)
	movq	-24(%rbp), %rax
	testq	%rax, %rax
	setne	%cl
	movzbl	%cl, %edx
	movl	%edx, %eax
	movq	%rsi, -32(%rbp)
	je	LBB263_1
	jmp	LBB263_7
LBB263_7:
	jmp	LBB263_3
LBB263_1:
Ltmp145:
	leaq	l___unnamed_14(%rip), %rdi
	movl	$43, %esi
	movq	-32(%rbp), %rdx
	callq	__ZN4core9panicking5panic17h383a6b80ea7021aaE
Ltmp146:
	jmp	LBB263_5
	ud2
LBB263_3:
	movq	-24(%rbp), %rax
	addq	$32, %rsp
	popq	%rbp
	retq
LBB263_4:
	movq	-16(%rbp), %rdi
	callq	__Unwind_Resume
	ud2
LBB263_5:
	ud2
LBB263_6:
Ltmp147:
	movq	%rax, -16(%rbp)
	movl	%edx, -8(%rbp)
	jmp	LBB263_4
Lfunc_end30:
	.cfi_endproc
	.section	__TEXT,__gcc_except_tab
	.p2align	2
GCC_except_table263:
Lexception30:
	.byte	255
	.byte	255
	.byte	1
	.uleb128 Lcst_end30-Lcst_begin30
Lcst_begin30:
	.uleb128 Ltmp145-Lfunc_begin30
	.uleb128 Ltmp146-Ltmp145
	.uleb128 Ltmp147-Lfunc_begin30
	.byte	0
	.uleb128 Ltmp146-Lfunc_begin30
	.uleb128 Lfunc_end30-Ltmp146
	.byte	0
	.byte	0
Lcst_end30:
	.p2align	2

	.section	__TEXT,__text,regular,pure_instructions
	.p2align	4, 0x90
__ZN4core6option15Option$LT$T$GT$7is_some17ha010422bb786845cE:
	.cfi_startproc
	pushq	%rbp
	.cfi_def_cfa_offset 16
	.cfi_offset %rbp, -16
	movq	%rsp, %rbp
	.cfi_def_cfa_register %rbp
	subq	$1, %rsp
	cmpq	$1, (%rdi)
	je	LBB264_2
	movb	$0, -1(%rbp)
	jmp	LBB264_3
LBB264_2:
	movb	$1, -1(%rbp)
LBB264_3:
	movb	-1(%rbp), %al
	andb	$1, %al
	movzbl	%al, %eax
	addq	$1, %rsp
	popq	%rbp
	retq
	.cfi_endproc

	.p2align	4, 0x90
__ZN4core6result19Result$LT$T$C$E$GT$2ok17h25761361e93f6c46E:
	.cfi_startproc
	pushq	%rbp
	.cfi_def_cfa_offset 16
	.cfi_offset %rbp, -16
	movq	%rsp, %rbp
	.cfi_def_cfa_register %rbp
	subq	$160, %rsp
	movq	%rdi, %rax
	movq	(%rsi), %rcx
	testq	%rcx, %rcx
	movq	%rsi, -120(%rbp)
	movq	%rdi, -128(%rbp)
	movq	%rax, -136(%rbp)
	je	LBB265_3
	jmp	LBB265_7
LBB265_7:
	movq	-128(%rbp), %rax
	movq	$0, (%rax)
	jmp	LBB265_6
	ud2
LBB265_3:
	movq	-120(%rbp), %rax
	addq	$8, %rax
	leaq	-112(%rbp), %rcx
	movq	%rcx, %rdx
	movq	%rdx, %rdi
	movq	%rax, %rsi
	movl	$56, %eax
	movq	%rax, %rdx
	movq	%rcx, -144(%rbp)
	movq	%rax, -152(%rbp)
	callq	_memcpy
	leaq	-56(%rbp), %rax
	movq	%rax, %rcx
	movq	-144(%rbp), %rdx
	movq	%rcx, %rdi
	movq	%rdx, %rsi
	movq	-152(%rbp), %rdx
	movq	%rax, -160(%rbp)
	callq	_memcpy
	movq	-128(%rbp), %rax
	movq	-160(%rbp), %rcx
	movq	%rax, %rdi
	movq	%rcx, %rsi
	movq	-152(%rbp), %rdx
	callq	_memcpy
	jmp	LBB265_6
LBB265_4:
	movq	-136(%rbp), %rax
	addq	$160, %rsp
	popq	%rbp
	retq
LBB265_5:
	movq	-120(%rbp), %rdi
	callq	__ZN4core3ptr13drop_in_place17h04a87444866118e8E
	jmp	LBB265_4
LBB265_6:
	movq	-120(%rbp), %rax
	cmpq	$0, (%rax)
	je	LBB265_4
	jmp	LBB265_5
	.cfi_endproc

	.p2align	4, 0x90
__ZN4core6result19Result$LT$T$C$E$GT$2ok17h6be2ee56d4baf1c7E:
	.cfi_startproc
	pushq	%rbp
	.cfi_def_cfa_offset 16
	.cfi_offset %rbp, -16
	movq	%rsp, %rbp
	.cfi_def_cfa_register %rbp
	subq	$88, %rsp
	movq	%rdi, %rax
	movq	(%rsi), %rcx
	testq	%rcx, %rcx
	movq	%rsi, -72(%rbp)
	movq	%rdi, -80(%rbp)
	movq	%rax, -88(%rbp)
	je	LBB266_3
	jmp	LBB266_7
LBB266_7:
	movq	-80(%rbp), %rax
	movq	$0, 8(%rax)
	jmp	LBB266_6
	ud2
LBB266_3:
	movq	-72(%rbp), %rax
	movq	8(%rax), %rcx
	movq	%rcx, -64(%rbp)
	movq	16(%rax), %rcx
	movq	%rcx, -56(%rbp)
	movq	24(%rax), %rcx
	movq	%rcx, -48(%rbp)
	movq	32(%rax), %rcx
	movq	%rcx, -40(%rbp)
	movq	-64(%rbp), %rcx
	movq	%rcx, -32(%rbp)
	movq	-56(%rbp), %rcx
	movq	%rcx, -24(%rbp)
	movq	-48(%rbp), %rcx
	movq	%rcx, -16(%rbp)
	movq	-40(%rbp), %rcx
	movq	%rcx, -8(%rbp)
	movq	-32(%rbp), %rcx
	movq	-80(%rbp), %rdx
	movq	%rcx, (%rdx)
	movq	-24(%rbp), %rcx
	movq	%rcx, 8(%rdx)
	movq	-16(%rbp), %rcx
	movq	%rcx, 16(%rdx)
	movq	-8(%rbp), %rcx
	movq	%rcx, 24(%rdx)
	jmp	LBB266_6
LBB266_4:
	movq	-88(%rbp), %rax
	addq	$88, %rsp
	popq	%rbp
	retq
LBB266_5:
	jmp	LBB266_4
LBB266_6:
	movq	-72(%rbp), %rax
	cmpq	$0, (%rax)
	je	LBB266_4
	jmp	LBB266_5
	.cfi_endproc

	.p2align	4, 0x90
__ZN4core6result19Result$LT$T$C$E$GT$2ok17h7e053a096aaecdb0E:
	.cfi_startproc
	pushq	%rbp
	.cfi_def_cfa_offset 16
	.cfi_offset %rbp, -16
	movq	%rsp, %rbp
	.cfi_def_cfa_register %rbp
	subq	$24, %rsp
	movq	(%rdi), %rax
	testq	%rax, %rax
	movq	%rdi, -24(%rbp)
	je	LBB267_3
	jmp	LBB267_7
LBB267_7:
	movq	$0, -16(%rbp)
	jmp	LBB267_6
	ud2
LBB267_3:
	movq	-24(%rbp), %rax
	movq	8(%rax), %rcx
	movq	16(%rax), %rdx
	movq	%rcx, -16(%rbp)
	movq	%rdx, -8(%rbp)
	jmp	LBB267_6
LBB267_4:
	movq	-16(%rbp), %rax
	movq	-8(%rbp), %rdx
	addq	$24, %rsp
	popq	%rbp
	retq
LBB267_5:
	jmp	LBB267_4
LBB267_6:
	movq	-24(%rbp), %rax
	cmpq	$0, (%rax)
	je	LBB267_4
	jmp	LBB267_5
	.cfi_endproc

	.p2align	4, 0x90
__ZN4core6result19Result$LT$T$C$E$GT$2ok17h8495661a51663192E:
	.cfi_startproc
	pushq	%rbp
	.cfi_def_cfa_offset 16
	.cfi_offset %rbp, -16
	movq	%rsp, %rbp
	.cfi_def_cfa_register %rbp
	subq	$24, %rsp
	movq	%rdi, -16(%rbp)
	movq	-16(%rbp), %rax
	movq	%rax, -24(%rbp)
	movzbl	-24(%rbp), %ecx
	movl	%ecx, %eax
	testb	$1, %al
	je	LBB268_3
	jmp	LBB268_7
LBB268_7:
	movl	$0, -8(%rbp)
	jmp	LBB268_6
	ud2
LBB268_3:
	movl	-20(%rbp), %eax
	movl	%eax, -4(%rbp)
	movl	$1, -8(%rbp)
	jmp	LBB268_6
LBB268_4:
	movl	-8(%rbp), %eax
	movl	-4(%rbp), %edx
	addq	$24, %rsp
	popq	%rbp
	retq
LBB268_5:
	jmp	LBB268_4
LBB268_6:
	movb	-24(%rbp), %al
	andb	$1, %al
	movzbl	%al, %ecx
	movl	%ecx, %edx
	cmpq	$0, %rdx
	je	LBB268_4
	jmp	LBB268_5
	.cfi_endproc

	.p2align	4, 0x90
__ZN4core6result19Result$LT$T$C$E$GT$6unwrap17h3b7aa6f84a2fe16bE:
Lfunc_begin31:
	.cfi_startproc
	.cfi_personality 155, _rust_eh_personality
	.cfi_lsda 16, Lexception31
	pushq	%rbp
	.cfi_def_cfa_offset 16
	.cfi_offset %rbp, -16
	movq	%rsp, %rbp
	.cfi_def_cfa_register %rbp
	subq	$80, %rsp
	movq	%rdi, %rax
	movq	(%rsi), %rcx
	testq	%rcx, %rcx
	movq	%rdx, -48(%rbp)
	movq	%rsi, -56(%rbp)
	movq	%rdi, -64(%rbp)
	movq	%rax, -72(%rbp)
	je	LBB269_3
	jmp	LBB269_8
LBB269_8:
	movq	-56(%rbp), %rax
	movq	24(%rax), %rcx
	movq	%rcx, -24(%rbp)
	movq	8(%rax), %rcx
	movq	16(%rax), %rdx
	movq	%rdx, -32(%rbp)
	movq	%rcx, -40(%rbp)
Ltmp148:
	leaq	l___unnamed_15(%rip), %rdi
	leaq	l___unnamed_16(%rip), %rcx
	movl	$43, %esi
	leaq	-40(%rbp), %rdx
	movq	-48(%rbp), %r8
	callq	__ZN4core6result13unwrap_failed17hc193898ef513e81fE
Ltmp149:
	jmp	LBB269_6
	ud2
LBB269_3:
	movq	-56(%rbp), %rax
	movq	8(%rax), %rcx
	movq	-64(%rbp), %rdx
	movq	%rcx, (%rdx)
	movq	16(%rax), %rcx
	movq	%rcx, 8(%rdx)
	movq	24(%rax), %rcx
	movq	%rcx, 16(%rdx)
	movq	-72(%rbp), %rax
	addq	$80, %rsp
	popq	%rbp
	retq
LBB269_4:
	movq	-16(%rbp), %rdi
	callq	__Unwind_Resume
	ud2
LBB269_5:
	leaq	-40(%rbp), %rdi
	callq	__ZN4core3ptr13drop_in_place17h1396d03afe560e4fE
	jmp	LBB269_4
LBB269_6:
	ud2
LBB269_7:
Ltmp150:
	movq	%rax, -16(%rbp)
	movl	%edx, -8(%rbp)
	jmp	LBB269_5
Lfunc_end31:
	.cfi_endproc
	.section	__TEXT,__gcc_except_tab
	.p2align	2
GCC_except_table269:
Lexception31:
	.byte	255
	.byte	255
	.byte	1
	.uleb128 Lcst_end31-Lcst_begin31
Lcst_begin31:
	.uleb128 Ltmp148-Lfunc_begin31
	.uleb128 Ltmp149-Ltmp148
	.uleb128 Ltmp150-Lfunc_begin31
	.byte	0
	.uleb128 Ltmp149-Lfunc_begin31
	.uleb128 Lfunc_end31-Ltmp149
	.byte	0
	.byte	0
Lcst_end31:
	.p2align	2

	.section	__TEXT,__text,regular,pure_instructions
	.p2align	4, 0x90
__ZN4core7convert3num66_$LT$impl$u20$core..convert..From$LT$u16$GT$$u20$for$u20$usize$GT$4from17hdad78f0fce0ab516E:
	.cfi_startproc
	pushq	%rbp
	.cfi_def_cfa_offset 16
	.cfi_offset %rbp, -16
	movq	%rsp, %rbp
	.cfi_def_cfa_register %rbp
	movzwl	%di, %eax
	popq	%rbp
	retq
	.cfi_endproc

	.p2align	4, 0x90
__ZN50_$LT$T$u20$as$u20$core..convert..From$LT$T$GT$$GT$4from17he81a693b20849fadE:
	.cfi_startproc
	pushq	%rbp
	.cfi_def_cfa_offset 16
	.cfi_offset %rbp, -16
	movq	%rsp, %rbp
	.cfi_def_cfa_register %rbp
	popq	%rbp
	retq
	.cfi_endproc

	.p2align	4, 0x90
__ZN50_$LT$T$u20$as$u20$core..convert..From$LT$T$GT$$GT$4from17hfece0c976f8c604bE:
	.cfi_startproc
	pushq	%rbp
	.cfi_def_cfa_offset 16
	.cfi_offset %rbp, -16
	movq	%rsp, %rbp
	.cfi_def_cfa_register %rbp
	popq	%rbp
	retq
	.cfi_endproc

	.p2align	4, 0x90
__ZN50_$LT$T$u20$as$u20$core..convert..Into$LT$U$GT$$GT$4into17h04df7ea521611695E:
	.cfi_startproc
	pushq	%rbp
	.cfi_def_cfa_offset 16
	.cfi_offset %rbp, -16
	movq	%rsp, %rbp
	.cfi_def_cfa_register %rbp
	subq	$16, %rsp
	callq	__ZN119_$LT$core..ptr..non_null..NonNull$LT$T$GT$$u20$as$u20$core..convert..From$LT$core..ptr..unique..Unique$LT$T$GT$$GT$$GT$4from17hb0b6be8a8dbca6d7E
	movq	%rax, -8(%rbp)
	movq	-8(%rbp), %rax
	addq	$16, %rsp
	popq	%rbp
	retq
	.cfi_endproc

	.p2align	4, 0x90
__ZN52_$LT$char$u20$as$u20$core..str..pattern..Pattern$GT$13into_searcher17h754b5a835cf144e5E:
	.cfi_startproc
	pushq	%rbp
	.cfi_def_cfa_offset 16
	.cfi_offset %rbp, -16
	movq	%rsp, %rbp
	.cfi_def_cfa_register %rbp
	subq	$96, %rsp
	movq	%rdi, %rax
	leaq	-8(%rbp), %r8
	xorl	%r9d, %r9d
	movq	%rdi, -16(%rbp)
	movq	%r8, %rdi
	movl	%esi, -20(%rbp)
	movl	%r9d, %esi
	movl	$4, %r10d
	movq	%rdx, -32(%rbp)
	movq	%r10, %rdx
	movq	%rcx, -40(%rbp)
	movq	%rax, -48(%rbp)
	movq	%r8, -56(%rbp)
	movq	%r10, -64(%rbp)
	callq	_memset
	movq	-56(%rbp), %rax
	movl	-20(%rbp), %edi
	movq	%rax, %rsi
	movq	-64(%rbp), %rdx
	callq	__ZN4core4char7methods22_$LT$impl$u20$char$GT$11encode_utf817hff42bbd99f96a602E
	movq	%rax, -72(%rbp)
	movq	%rdx, -80(%rbp)
	movq	-72(%rbp), %rdi
	movq	-80(%rbp), %rsi
	callq	__ZN4core3str21_$LT$impl$u20$str$GT$3len17h3e295a148c845646E
	movq	%rax, -88(%rbp)
	movq	-32(%rbp), %rdi
	movq	-40(%rbp), %rsi
	callq	__ZN4core3str21_$LT$impl$u20$str$GT$3len17h3e295a148c845646E
	movq	%rax, -96(%rbp)
	movl	-8(%rbp), %eax
	movl	%eax, -4(%rbp)
	movq	-16(%rbp), %rcx
	movq	-32(%rbp), %rdx
	movq	%rdx, (%rcx)
	movq	-40(%rbp), %rsi
	movq	%rsi, 8(%rcx)
	movq	$0, 16(%rcx)
	movq	-96(%rbp), %rdi
	movq	%rdi, 24(%rcx)
	movl	-20(%rbp), %eax
	movl	%eax, 40(%rcx)
	movq	-88(%rbp), %r8
	movq	%r8, 32(%rcx)
	movl	-4(%rbp), %r9d
	movl	%r9d, 44(%rcx)
	movq	-48(%rbp), %r10
	movq	%r10, %rax
	addq	$96, %rsp
	popq	%rbp
	retq
	.cfi_endproc

	.p2align	4, 0x90
__ZN54_$LT$$LP$$RP$$u20$as$u20$std..process..Termination$GT$6report17hbf0dd258fc4970cbE:
	.cfi_startproc
	pushq	%rbp
	.cfi_def_cfa_offset 16
	.cfi_offset %rbp, -16
	movq	%rsp, %rbp
	.cfi_def_cfa_register %rbp
	subq	$16, %rsp
	xorl	%edi, %edi
	callq	__ZN68_$LT$std..process..ExitCode$u20$as$u20$std..process..Termination$GT$6report17hce1a79efb110484bE
	movl	%eax, -4(%rbp)
	movl	-4(%rbp), %eax
	addq	$16, %rsp
	popq	%rbp
	retq
	.cfi_endproc

	.p2align	4, 0x90
__ZN55_$LT$$RF$T$u20$as$u20$core..convert..AsRef$LT$U$GT$$GT$6as_ref17h6b5a9fb7da9eadc8E:
	.cfi_startproc
	pushq	%rbp
	.cfi_def_cfa_offset 16
	.cfi_offset %rbp, -16
	movq	%rsp, %rbp
	.cfi_def_cfa_register %rbp
	subq	$16, %rsp
	movq	(%rdi), %rax
	movq	8(%rdi), %rsi
	movq	%rax, %rdi
	callq	__ZN3std3ffi6os_str85_$LT$impl$u20$core..convert..AsRef$LT$std..ffi..os_str..OsStr$GT$$u20$for$u20$str$GT$6as_ref17h20c2ef49be74fb52E
	movq	%rax, -8(%rbp)
	movq	%rdx, -16(%rbp)
	movq	-8(%rbp), %rax
	movq	-16(%rbp), %rdx
	addq	$16, %rsp
	popq	%rbp
	retq
	.cfi_endproc

	.p2align	4, 0x90
__ZN55_$LT$$RF$str$u20$as$u20$core..str..pattern..Pattern$GT$12is_prefix_of17hbeb4a4d9ca138adfE:
	.cfi_startproc
	pushq	%rbp
	.cfi_def_cfa_offset 16
	.cfi_offset %rbp, -16
	movq	%rsp, %rbp
	.cfi_def_cfa_register %rbp
	subq	$96, %rsp
	movq	%rdx, -32(%rbp)
	movq	%rcx, -24(%rbp)
	movq	-32(%rbp), %rax
	movq	-24(%rbp), %rcx
	movq	%rdi, -40(%rbp)
	movq	%rsi, -48(%rbp)
	movq	%rax, -56(%rbp)
	movq	%rcx, -64(%rbp)
	movq	-40(%rbp), %rax
	movq	%rax, -16(%rbp)
	movq	-48(%rbp), %rcx
	movq	%rcx, -8(%rbp)
	movq	-16(%rbp), %rdx
	movq	-8(%rbp), %rcx
	movq	%rdx, -72(%rbp)
	movq	%rcx, -80(%rbp)
	movq	-56(%rbp), %rdi
	movq	-64(%rbp), %rsi
	movq	-72(%rbp), %rdx
	movq	-80(%rbp), %rcx
	callq	__ZN4core5slice29_$LT$impl$u20$$u5b$T$u5d$$GT$11starts_with17hf03167f33227f5d3E
	movb	%al, -81(%rbp)
	movb	-81(%rbp), %al
	andb	$1, %al
	movzbl	%al, %eax
	addq	$96, %rsp
	popq	%rbp
	retq
	.cfi_endproc

	.p2align	4, 0x90
__ZN55_$LT$$RF$str$u20$as$u20$core..str..pattern..Pattern$GT$13into_searcher17h72fc9638c4153b11E:
	.cfi_startproc
	pushq	%rbp
	.cfi_def_cfa_offset 16
	.cfi_offset %rbp, -16
	movq	%rsp, %rbp
	.cfi_def_cfa_register %rbp
	subq	$32, %rsp
	movq	%rdi, %rax
	movq	%rsi, -8(%rbp)
	movq	%rcx, %rsi
	movq	%rdx, -16(%rbp)
	movq	%r8, %rdx
	movq	-8(%rbp), %rcx
	movq	-16(%rbp), %r8
	movq	%rax, -24(%rbp)
	callq	__ZN4core3str7pattern11StrSearcher3new17hb3e2f8082f620422E
	movq	-24(%rbp), %rax
	addq	$32, %rsp
	popq	%rbp
	retq
	.cfi_endproc

	.p2align	4, 0x90
__ZN5alloc11collections5btree16unwrap_unchecked28_$u7b$$u7b$closure$u7d$$u7d$17h91461222dce6e558E:
	.cfi_startproc
	pushq	%rbp
	.cfi_def_cfa_offset 16
	.cfi_offset %rbp, -16
	movq	%rsp, %rbp
	.cfi_def_cfa_register %rbp
	ud2
	.cfi_endproc

	.p2align	4, 0x90
__ZN5alloc11collections5btree16unwrap_unchecked28_$u7b$$u7b$closure$u7d$$u7d$17hff84fe0c8cc162a8E:
	.cfi_startproc
	pushq	%rbp
	.cfi_def_cfa_offset 16
	.cfi_offset %rbp, -16
	movq	%rsp, %rbp
	.cfi_def_cfa_register %rbp
	ud2
	.cfi_endproc

	.p2align	4, 0x90
__ZN5alloc11collections5btree3map17full_range_search17h802c3abc7e8a9ad4E:
	.cfi_startproc
	pushq	%rbp
	.cfi_def_cfa_offset 16
	.cfi_offset %rbp, -16
	movq	%rsp, %rbp
	.cfi_def_cfa_register %rbp
	subq	$832, %rsp
	movq	%rdi, %rax
	leaq	-760(%rbp), %rcx
	movq	%rdi, -768(%rbp)
	movq	%rcx, %rdi
	movq	%rsi, -776(%rbp)
	movq	%rax, -784(%rbp)
	callq	__ZN4core3ptr4read17h3d67069d5f458d85E
	movq	-776(%rbp), %rax
	movq	(%rax), %rcx
	movq	%rcx, -736(%rbp)
	movq	8(%rax), %rcx
	movq	%rcx, -728(%rbp)
	movq	16(%rax), %rcx
	movq	%rcx, -720(%rbp)
LBB281_2:
	movq	-760(%rbp), %rax
	movq	%rax, -680(%rbp)
	movq	-752(%rbp), %rax
	movq	%rax, -672(%rbp)
	movq	-744(%rbp), %rax
	movq	%rax, -664(%rbp)
	leaq	-712(%rbp), %rdi
	leaq	-680(%rbp), %rsi
	callq	__ZN5alloc11collections5btree4node40NodeRef$LT$BorrowType$C$K$C$V$C$Type$GT$10first_edge17ha8b0726c25f70149E
	movq	-736(%rbp), %rax
	movq	%rax, -624(%rbp)
	movq	-728(%rbp), %rax
	movq	%rax, -616(%rbp)
	movq	-720(%rbp), %rax
	movq	%rax, -608(%rbp)
	leaq	-656(%rbp), %rdi
	leaq	-624(%rbp), %rsi
	callq	__ZN5alloc11collections5btree4node40NodeRef$LT$BorrowType$C$K$C$V$C$Type$GT$9last_edge17h9402918e90d2eb70E
	movq	-712(%rbp), %rax
	movq	%rax, -480(%rbp)
	movq	-704(%rbp), %rax
	movq	%rax, -472(%rbp)
	movq	-696(%rbp), %rax
	movq	%rax, -464(%rbp)
	movq	-688(%rbp), %rax
	movq	%rax, -456(%rbp)
	leaq	-520(%rbp), %rdi
	leaq	-480(%rbp), %rsi
	callq	__ZN5alloc11collections5btree4node151Handle$LT$alloc..collections..btree..node..NodeRef$LT$BorrowType$C$K$C$V$C$alloc..collections..btree..node..marker..LeafOrInternal$GT$$C$HandleType$GT$5force17h44809a4ceb46e2a8E
	movq	-656(%rbp), %rax
	movq	%rax, -408(%rbp)
	movq	-648(%rbp), %rax
	movq	%rax, -400(%rbp)
	movq	-640(%rbp), %rax
	movq	%rax, -392(%rbp)
	movq	-632(%rbp), %rax
	movq	%rax, -384(%rbp)
	leaq	-448(%rbp), %rdi
	leaq	-408(%rbp), %rsi
	callq	__ZN5alloc11collections5btree4node151Handle$LT$alloc..collections..btree..node..NodeRef$LT$BorrowType$C$K$C$V$C$alloc..collections..btree..node..marker..LeafOrInternal$GT$$C$HandleType$GT$5force17h44809a4ceb46e2a8E
	movq	-488(%rbp), %rax
	movq	%rax, -568(%rbp)
	movq	-496(%rbp), %rax
	movq	%rax, -576(%rbp)
	movq	-504(%rbp), %rax
	movq	%rax, -584(%rbp)
	movq	-520(%rbp), %rax
	movq	-512(%rbp), %rcx
	movq	%rcx, -592(%rbp)
	movq	%rax, -600(%rbp)
	movq	-416(%rbp), %rax
	movq	%rax, -528(%rbp)
	movq	-424(%rbp), %rax
	movq	%rax, -536(%rbp)
	movq	-432(%rbp), %rax
	movq	%rax, -544(%rbp)
	movq	-448(%rbp), %rax
	movq	-440(%rbp), %rcx
	movq	%rcx, -552(%rbp)
	movq	%rax, -560(%rbp)
	movq	-600(%rbp), %rax
	testq	%rax, %rax
	movq	%rax, -792(%rbp)
	je	LBB281_7
	jmp	LBB281_16
LBB281_16:
	movq	-792(%rbp), %rax
	subq	$1, %rax
	je	LBB281_9
	jmp	LBB281_8
LBB281_7:
	cmpq	$0, -560(%rbp)
	je	LBB281_10
LBB281_8:
	movq	l___unnamed_17(%rip), %rax
	movq	l___unnamed_18(%rip), %rcx
	movq	%rcx, -8(%rbp)
	movq	-8(%rbp), %rdi
	leaq	__ZN44_$LT$$RF$T$u20$as$u20$core..fmt..Display$GT$3fmt17he20803be023f37ccE(%rip), %rsi
	movq	%rax, -800(%rbp)
	callq	__ZN4core3fmt10ArgumentV13new17h239f01f4915e3650E
	movq	%rax, -808(%rbp)
	movq	%rdx, -816(%rbp)
	jmp	LBB281_14
LBB281_9:
	cmpq	$1, -560(%rbp)
	je	LBB281_11
	jmp	LBB281_8
LBB281_10:
	movq	-592(%rbp), %rax
	movq	%rax, -376(%rbp)
	movq	-584(%rbp), %rax
	movq	%rax, -368(%rbp)
	movq	-576(%rbp), %rax
	movq	%rax, -360(%rbp)
	movq	-568(%rbp), %rax
	movq	%rax, -352(%rbp)
	movq	-552(%rbp), %rax
	movq	%rax, -344(%rbp)
	movq	-544(%rbp), %rax
	movq	%rax, -336(%rbp)
	movq	-536(%rbp), %rax
	movq	%rax, -328(%rbp)
	movq	-528(%rbp), %rax
	movq	%rax, -320(%rbp)
	movq	-376(%rbp), %rax
	movq	%rax, -312(%rbp)
	movq	-368(%rbp), %rax
	movq	%rax, -304(%rbp)
	movq	-360(%rbp), %rax
	movq	%rax, -296(%rbp)
	movq	-352(%rbp), %rax
	movq	%rax, -288(%rbp)
	movq	-344(%rbp), %rax
	movq	%rax, -280(%rbp)
	movq	-336(%rbp), %rax
	movq	%rax, -272(%rbp)
	movq	-328(%rbp), %rax
	movq	%rax, -264(%rbp)
	movq	-320(%rbp), %rax
	movq	%rax, -256(%rbp)
	movq	-312(%rbp), %rax
	movq	-768(%rbp), %rcx
	movq	%rax, (%rcx)
	movq	-304(%rbp), %rax
	movq	%rax, 8(%rcx)
	movq	-296(%rbp), %rax
	movq	%rax, 16(%rcx)
	movq	-288(%rbp), %rax
	movq	%rax, 24(%rcx)
	movq	-280(%rbp), %rax
	movq	%rax, 32(%rcx)
	movq	-272(%rbp), %rax
	movq	%rax, 40(%rcx)
	movq	-264(%rbp), %rax
	movq	%rax, 48(%rcx)
	movq	-256(%rbp), %rax
	movq	%rax, 56(%rcx)
	movq	-784(%rbp), %rax
	addq	$832, %rsp
	popq	%rbp
	retq
LBB281_11:
	movq	-592(%rbp), %rax
	movq	%rax, -248(%rbp)
	movq	-584(%rbp), %rax
	movq	%rax, -240(%rbp)
	movq	-576(%rbp), %rax
	movq	%rax, -232(%rbp)
	movq	-568(%rbp), %rax
	movq	%rax, -224(%rbp)
	movq	-552(%rbp), %rax
	movq	%rax, -216(%rbp)
	movq	-544(%rbp), %rax
	movq	%rax, -208(%rbp)
	movq	-536(%rbp), %rax
	movq	%rax, -200(%rbp)
	movq	-528(%rbp), %rax
	movq	%rax, -192(%rbp)
	movq	-248(%rbp), %rax
	movq	%rax, -160(%rbp)
	movq	-240(%rbp), %rax
	movq	%rax, -152(%rbp)
	movq	-232(%rbp), %rax
	movq	%rax, -144(%rbp)
	movq	-224(%rbp), %rax
	movq	%rax, -136(%rbp)
	leaq	-184(%rbp), %rdi
	leaq	-160(%rbp), %rsi
	callq	__ZN5alloc11collections5btree4node180Handle$LT$alloc..collections..btree..node..NodeRef$LT$BorrowType$C$K$C$V$C$alloc..collections..btree..node..marker..Internal$GT$$C$alloc..collections..btree..node..marker..Edge$GT$7descend17hcc9874732ee5e803E
	movq	-184(%rbp), %rax
	movq	%rax, -760(%rbp)
	movq	-176(%rbp), %rax
	movq	%rax, -752(%rbp)
	movq	-168(%rbp), %rax
	movq	%rax, -744(%rbp)
	movq	-216(%rbp), %rax
	movq	%rax, -104(%rbp)
	movq	-208(%rbp), %rax
	movq	%rax, -96(%rbp)
	movq	-200(%rbp), %rax
	movq	%rax, -88(%rbp)
	movq	-192(%rbp), %rax
	movq	%rax, -80(%rbp)
	leaq	-128(%rbp), %rdi
	leaq	-104(%rbp), %rsi
	callq	__ZN5alloc11collections5btree4node180Handle$LT$alloc..collections..btree..node..NodeRef$LT$BorrowType$C$K$C$V$C$alloc..collections..btree..node..marker..Internal$GT$$C$alloc..collections..btree..node..marker..Edge$GT$7descend17hcc9874732ee5e803E
	movq	-128(%rbp), %rax
	movq	%rax, -736(%rbp)
	movq	-120(%rbp), %rax
	movq	%rax, -728(%rbp)
	movq	-112(%rbp), %rax
	movq	%rax, -720(%rbp)
	jmp	LBB281_2
LBB281_14:
	movq	-808(%rbp), %rax
	movq	%rax, -24(%rbp)
	movq	-816(%rbp), %rcx
	movq	%rcx, -16(%rbp)
	leaq	-24(%rbp), %rdx
	leaq	-72(%rbp), %rdi
	movq	-800(%rbp), %rsi
	movl	$1, %r8d
	movq	%rdx, -824(%rbp)
	movq	%r8, %rdx
	movq	-824(%rbp), %rcx
	callq	__ZN4core3fmt9Arguments6new_v117h90dae4f40aee42bcE
	leaq	l___unnamed_10(%rip), %rsi
	leaq	-72(%rbp), %rdi
	callq	__ZN4core9panicking9panic_fmt17hfce5b7173905fc53E
	.cfi_endproc

	.p2align	4, 0x90
__ZN5alloc11collections5btree4node104Handle$LT$alloc..collections..btree..node..NodeRef$LT$BorrowType$C$K$C$V$C$NodeType$GT$$C$HandleType$GT$8reborrow17h9329c3db23672394E:
	.cfi_startproc
	pushq	%rbp
	.cfi_def_cfa_offset 16
	.cfi_offset %rbp, -16
	movq	%rsp, %rbp
	.cfi_def_cfa_register %rbp
	subq	$64, %rsp
	movq	%rdi, %rax
	movq	%rsi, %rcx
	leaq	-32(%rbp), %rdx
	movq	%rdi, -40(%rbp)
	movq	%rdx, %rdi
	movq	%rsi, -48(%rbp)
	movq	%rcx, %rsi
	movq	%rax, -56(%rbp)
	callq	__ZN5alloc11collections5btree4node40NodeRef$LT$BorrowType$C$K$C$V$C$Type$GT$8reborrow17h8ff41ef7d9592834E
	movq	-48(%rbp), %rax
	movq	24(%rax), %rcx
	movq	-32(%rbp), %rdx
	movq	-40(%rbp), %rsi
	movq	%rdx, (%rsi)
	movq	-24(%rbp), %rdx
	movq	%rdx, 8(%rsi)
	movq	-16(%rbp), %rdx
	movq	%rdx, 16(%rsi)
	movq	%rcx, 24(%rsi)
	movq	-56(%rbp), %rax
	addq	$64, %rsp
	popq	%rbp
	retq
	.cfi_endproc

	.p2align	4, 0x90
__ZN5alloc11collections5btree4node127NodeRef$LT$alloc..collections..btree..node..marker..Owned$C$K$C$V$C$alloc..collections..btree..node..marker..LeafOrInternal$GT$21deallocate_and_ascend17h3c5db4bfc3695b45E:
	.cfi_startproc
	pushq	%rbp
	.cfi_def_cfa_offset 16
	.cfi_offset %rbp, -16
	movq	%rsp, %rbp
	.cfi_def_cfa_register %rbp
	subq	$128, %rsp
	movq	%rdi, %rax
	movq	(%rsi), %rcx
	movq	8(%rsi), %rdx
	movq	(%rsi), %r8
	movq	%r8, -48(%rbp)
	movq	8(%rsi), %r8
	movq	%r8, -40(%rbp)
	movq	16(%rsi), %rsi
	movq	%rsi, -32(%rbp)
	leaq	-88(%rbp), %rsi
	movq	%rdi, -96(%rbp)
	movq	%rsi, %rdi
	leaq	-48(%rbp), %rsi
	movq	%rax, -104(%rbp)
	movq	%rcx, -112(%rbp)
	movq	%rdx, -120(%rbp)
	callq	__ZN5alloc11collections5btree4node40NodeRef$LT$BorrowType$C$K$C$V$C$Type$GT$6ascend17h0861f3edf4136530E
	movq	-96(%rbp), %rdi
	leaq	-88(%rbp), %rsi
	callq	__ZN4core6result19Result$LT$T$C$E$GT$2ok17h6be2ee56d4baf1c7E
	movq	-120(%rbp), %rdi
	callq	__ZN4core3ptr8non_null16NonNull$LT$T$GT$4cast17hb173206ef4b024b3E
	movq	%rax, -128(%rbp)
	movq	-112(%rbp), %rax
	cmpq	$0, %rax
	ja	LBB283_5
	callq	__ZN4core5alloc6layout6Layout3new17hbfa96376215bb62cE
	movq	%rdx, -8(%rbp)
	movq	%rax, -16(%rbp)
	jmp	LBB283_6
LBB283_5:
	callq	__ZN4core5alloc6layout6Layout3new17h6ae205e18918a1dcE
	movq	%rdx, -8(%rbp)
	movq	%rax, -16(%rbp)
LBB283_6:
	movq	-16(%rbp), %rdx
	movq	-8(%rbp), %rcx
	leaq	-24(%rbp), %rdi
	movq	-128(%rbp), %rsi
	callq	__ZN62_$LT$alloc..alloc..Global$u20$as$u20$core..alloc..AllocRef$GT$7dealloc17h74fe587f9c824af5E
	movq	-104(%rbp), %rax
	addq	$128, %rsp
	popq	%rbp
	retq
	.cfi_endproc

	.p2align	4, 0x90
__ZN5alloc11collections5btree4node137Handle$LT$alloc..collections..btree..node..NodeRef$LT$BorrowType$C$K$C$V$C$NodeType$GT$$C$alloc..collections..btree..node..marker..KV$GT$10right_edge17h937230fe5fadb850E:
	.cfi_startproc
	pushq	%rbp
	.cfi_def_cfa_offset 16
	.cfi_offset %rbp, -16
	movq	%rsp, %rbp
	.cfi_def_cfa_register %rbp
	subq	$32, %rsp
	movq	%rdi, %rax
	movq	(%rsi), %rcx
	movq	%rcx, -24(%rbp)
	movq	8(%rsi), %rcx
	movq	%rcx, -16(%rbp)
	movq	16(%rsi), %rcx
	movq	%rcx, -8(%rbp)
	movq	24(%rsi), %rcx
	addq	$1, %rcx
	leaq	-24(%rbp), %rsi
	movq	%rcx, %rdx
	movq	%rax, -32(%rbp)
	callq	__ZN5alloc11collections5btree4node139Handle$LT$alloc..collections..btree..node..NodeRef$LT$BorrowType$C$K$C$V$C$NodeType$GT$$C$alloc..collections..btree..node..marker..Edge$GT$8new_edge17h03044c0c3afbdc14E
	movq	-32(%rbp), %rax
	addq	$32, %rsp
	popq	%rbp
	retq
	.cfi_endproc

	.p2align	4, 0x90
__ZN5alloc11collections5btree4node137Handle$LT$alloc..collections..btree..node..NodeRef$LT$BorrowType$C$K$C$V$C$NodeType$GT$$C$alloc..collections..btree..node..marker..KV$GT$10right_edge17hc88c4360ea79f496E:
	.cfi_startproc
	pushq	%rbp
	.cfi_def_cfa_offset 16
	.cfi_offset %rbp, -16
	movq	%rsp, %rbp
	.cfi_def_cfa_register %rbp
	subq	$32, %rsp
	movq	%rdi, %rax
	movq	(%rsi), %rcx
	movq	%rcx, -24(%rbp)
	movq	8(%rsi), %rcx
	movq	%rcx, -16(%rbp)
	movq	16(%rsi), %rcx
	movq	%rcx, -8(%rbp)
	movq	24(%rsi), %rcx
	addq	$1, %rcx
	leaq	-24(%rbp), %rsi
	movq	%rcx, %rdx
	movq	%rax, -32(%rbp)
	callq	__ZN5alloc11collections5btree4node139Handle$LT$alloc..collections..btree..node..NodeRef$LT$BorrowType$C$K$C$V$C$NodeType$GT$$C$alloc..collections..btree..node..marker..Edge$GT$8new_edge17hd08a6024ec3c8c96E
	movq	-32(%rbp), %rax
	addq	$32, %rsp
	popq	%rbp
	retq
	.cfi_endproc

	.p2align	4, 0x90
__ZN5alloc11collections5btree4node137Handle$LT$alloc..collections..btree..node..NodeRef$LT$BorrowType$C$K$C$V$C$NodeType$GT$$C$alloc..collections..btree..node..marker..KV$GT$6new_kv17h27d3645cc23df58fE:
	.cfi_startproc
	pushq	%rbp
	.cfi_def_cfa_offset 16
	.cfi_offset %rbp, -16
	movq	%rsp, %rbp
	.cfi_def_cfa_register %rbp
	subq	$24, %rsp
	movq	%rdi, %rax
	movq	(%rsi), %rcx
	movq	%rcx, -24(%rbp)
	movq	8(%rsi), %rcx
	movq	%rcx, -16(%rbp)
	movq	16(%rsi), %rcx
	movq	%rcx, -8(%rbp)
	movq	-24(%rbp), %rcx
	movq	%rcx, (%rdi)
	movq	-16(%rbp), %rcx
	movq	%rcx, 8(%rdi)
	movq	-8(%rbp), %rcx
	movq	%rcx, 16(%rdi)
	movq	%rdx, 24(%rdi)
	addq	$24, %rsp
	popq	%rbp
	retq
	.cfi_endproc

	.p2align	4, 0x90
__ZN5alloc11collections5btree4node139Handle$LT$alloc..collections..btree..node..NodeRef$LT$BorrowType$C$K$C$V$C$NodeType$GT$$C$alloc..collections..btree..node..marker..Edge$GT$8new_edge17h03044c0c3afbdc14E:
	.cfi_startproc
	pushq	%rbp
	.cfi_def_cfa_offset 16
	.cfi_offset %rbp, -16
	movq	%rsp, %rbp
	.cfi_def_cfa_register %rbp
	subq	$24, %rsp
	movq	%rdi, %rax
	movq	(%rsi), %rcx
	movq	%rcx, -24(%rbp)
	movq	8(%rsi), %rcx
	movq	%rcx, -16(%rbp)
	movq	16(%rsi), %rcx
	movq	%rcx, -8(%rbp)
	movq	-24(%rbp), %rcx
	movq	%rcx, (%rdi)
	movq	-16(%rbp), %rcx
	movq	%rcx, 8(%rdi)
	movq	-8(%rbp), %rcx
	movq	%rcx, 16(%rdi)
	movq	%rdx, 24(%rdi)
	addq	$24, %rsp
	popq	%rbp
	retq
	.cfi_endproc

	.p2align	4, 0x90
__ZN5alloc11collections5btree4node139Handle$LT$alloc..collections..btree..node..NodeRef$LT$BorrowType$C$K$C$V$C$NodeType$GT$$C$alloc..collections..btree..node..marker..Edge$GT$8new_edge17h66ffe9492339f36dE:
	.cfi_startproc
	pushq	%rbp
	.cfi_def_cfa_offset 16
	.cfi_offset %rbp, -16
	movq	%rsp, %rbp
	.cfi_def_cfa_register %rbp
	subq	$24, %rsp
	movq	%rdi, %rax
	movq	(%rsi), %rcx
	movq	%rcx, -24(%rbp)
	movq	8(%rsi), %rcx
	movq	%rcx, -16(%rbp)
	movq	16(%rsi), %rcx
	movq	%rcx, -8(%rbp)
	movq	-24(%rbp), %rcx
	movq	%rcx, (%rdi)
	movq	-16(%rbp), %rcx
	movq	%rcx, 8(%rdi)
	movq	-8(%rbp), %rcx
	movq	%rcx, 16(%rdi)
	movq	%rdx, 24(%rdi)
	addq	$24, %rsp
	popq	%rbp
	retq
	.cfi_endproc

	.p2align	4, 0x90
__ZN5alloc11collections5btree4node139Handle$LT$alloc..collections..btree..node..NodeRef$LT$BorrowType$C$K$C$V$C$NodeType$GT$$C$alloc..collections..btree..node..marker..Edge$GT$8new_edge17hd08a6024ec3c8c96E:
	.cfi_startproc
	pushq	%rbp
	.cfi_def_cfa_offset 16
	.cfi_offset %rbp, -16
	movq	%rsp, %rbp
	.cfi_def_cfa_register %rbp
	subq	$24, %rsp
	movq	%rdi, %rax
	movq	(%rsi), %rcx
	movq	%rcx, -24(%rbp)
	movq	8(%rsi), %rcx
	movq	%rcx, -16(%rbp)
	movq	16(%rsi), %rcx
	movq	%rcx, -8(%rbp)
	movq	-24(%rbp), %rcx
	movq	%rcx, (%rdi)
	movq	-16(%rbp), %rcx
	movq	%rcx, 8(%rdi)
	movq	-8(%rbp), %rcx
	movq	%rcx, 16(%rdi)
	movq	%rdx, 24(%rdi)
	addq	$24, %rsp
	popq	%rbp
	retq
	.cfi_endproc

	.p2align	4, 0x90
__ZN5alloc11collections5btree4node139Handle$LT$alloc..collections..btree..node..NodeRef$LT$BorrowType$C$K$C$V$C$NodeType$GT$$C$alloc..collections..btree..node..marker..Edge$GT$8right_kv17h4c2d6e6da1a5eb39E:
	.cfi_startproc
	pushq	%rbp
	.cfi_def_cfa_offset 16
	.cfi_offset %rbp, -16
	movq	%rsp, %rbp
	.cfi_def_cfa_register %rbp
	subq	$128, %rsp
	movq	%rdi, %rax
	movq	24(%rsi), %rcx
	movq	%rsi, %rdx
	movq	%rdi, -96(%rbp)
	movq	%rdx, %rdi
	movq	%rsi, -104(%rbp)
	movq	%rax, -112(%rbp)
	movq	%rcx, -120(%rbp)
	callq	__ZN5alloc11collections5btree4node40NodeRef$LT$BorrowType$C$K$C$V$C$Type$GT$3len17h9744237b142aed1bE
	movq	%rax, -128(%rbp)
	movq	-120(%rbp), %rax
	movq	-128(%rbp), %rcx
	cmpq	%rcx, %rax
	jb	LBB290_3
	movq	-104(%rbp), %rax
	movq	(%rax), %rcx
	movq	%rcx, -32(%rbp)
	movq	8(%rax), %rcx
	movq	%rcx, -24(%rbp)
	movq	16(%rax), %rcx
	movq	%rcx, -16(%rbp)
	movq	24(%rax), %rcx
	movq	%rcx, -8(%rbp)
	movq	-32(%rbp), %rcx
	movq	-96(%rbp), %rdx
	movq	%rcx, 8(%rdx)
	movq	-24(%rbp), %rcx
	movq	%rcx, 16(%rdx)
	movq	-16(%rbp), %rcx
	movq	%rcx, 24(%rdx)
	movq	-8(%rbp), %rcx
	movq	%rcx, 32(%rdx)
	movq	$1, (%rdx)
	jmp	LBB290_5
LBB290_3:
	movq	-104(%rbp), %rax
	movq	(%rax), %rcx
	movq	%rcx, -56(%rbp)
	movq	8(%rax), %rcx
	movq	%rcx, -48(%rbp)
	movq	16(%rax), %rcx
	movq	%rcx, -40(%rbp)
	movq	24(%rax), %rdx
	leaq	-88(%rbp), %rdi
	leaq	-56(%rbp), %rsi
	callq	__ZN5alloc11collections5btree4node137Handle$LT$alloc..collections..btree..node..NodeRef$LT$BorrowType$C$K$C$V$C$NodeType$GT$$C$alloc..collections..btree..node..marker..KV$GT$6new_kv17h27d3645cc23df58fE
	movq	-88(%rbp), %rax
	movq	-96(%rbp), %rcx
	movq	%rax, 8(%rcx)
	movq	-80(%rbp), %rax
	movq	%rax, 16(%rcx)
	movq	-72(%rbp), %rax
	movq	%rax, 24(%rcx)
	movq	-64(%rbp), %rax
	movq	%rax, 32(%rcx)
	movq	$0, (%rcx)
LBB290_5:
	movq	-112(%rbp), %rax
	addq	$128, %rsp
	popq	%rbp
	retq
	.cfi_endproc

	.p2align	4, 0x90
__ZN5alloc11collections5btree4node151Handle$LT$alloc..collections..btree..node..NodeRef$LT$BorrowType$C$K$C$V$C$alloc..collections..btree..node..marker..LeafOrInternal$GT$$C$HandleType$GT$5force17h44809a4ceb46e2a8E:
	.cfi_startproc
	pushq	%rbp
	.cfi_def_cfa_offset 16
	.cfi_offset %rbp, -16
	movq	%rsp, %rbp
	.cfi_def_cfa_register %rbp
	subq	$256, %rsp
	movq	%rdi, %rax
	movq	(%rsi), %rcx
	movq	%rcx, -200(%rbp)
	movq	8(%rsi), %rcx
	movq	%rcx, -192(%rbp)
	movq	16(%rsi), %rcx
	movq	%rcx, -184(%rbp)
	leaq	-232(%rbp), %rcx
	movq	%rdi, -240(%rbp)
	movq	%rcx, %rdi
	leaq	-200(%rbp), %rcx
	movq	%rsi, -248(%rbp)
	movq	%rcx, %rsi
	movq	%rax, -256(%rbp)
	callq	__ZN5alloc11collections5btree4node91NodeRef$LT$BorrowType$C$K$C$V$C$alloc..collections..btree..node..marker..LeafOrInternal$GT$5force17h4993175422ff0c9dE
	movq	-232(%rbp), %rax
	testq	%rax, %rax
	je	LBB291_4
	jmp	LBB291_6
LBB291_6:
	movq	-224(%rbp), %rax
	movq	%rax, -88(%rbp)
	movq	-216(%rbp), %rax
	movq	%rax, -80(%rbp)
	movq	-208(%rbp), %rax
	movq	%rax, -72(%rbp)
	movq	-88(%rbp), %rax
	movq	%rax, -32(%rbp)
	movq	-80(%rbp), %rax
	movq	%rax, -24(%rbp)
	movq	-72(%rbp), %rax
	movq	%rax, -16(%rbp)
	movq	-248(%rbp), %rax
	movq	24(%rax), %rcx
	movq	-32(%rbp), %rdx
	movq	%rdx, -64(%rbp)
	movq	-24(%rbp), %rdx
	movq	%rdx, -56(%rbp)
	movq	-16(%rbp), %rdx
	movq	%rdx, -48(%rbp)
	movq	%rcx, -40(%rbp)
	movq	-64(%rbp), %rcx
	movq	-240(%rbp), %rdx
	movq	%rcx, 8(%rdx)
	movq	-56(%rbp), %rcx
	movq	%rcx, 16(%rdx)
	movq	-48(%rbp), %rcx
	movq	%rcx, 24(%rdx)
	movq	-40(%rbp), %rcx
	movq	%rcx, 32(%rdx)
	movq	$1, (%rdx)
	jmp	LBB291_5
	ud2
LBB291_4:
	movq	-224(%rbp), %rax
	movq	%rax, -176(%rbp)
	movq	-216(%rbp), %rax
	movq	%rax, -168(%rbp)
	movq	-208(%rbp), %rax
	movq	%rax, -160(%rbp)
	movq	-176(%rbp), %rax
	movq	%rax, -120(%rbp)
	movq	-168(%rbp), %rax
	movq	%rax, -112(%rbp)
	movq	-160(%rbp), %rax
	movq	%rax, -104(%rbp)
	movq	-248(%rbp), %rax
	movq	24(%rax), %rcx
	movq	-120(%rbp), %rdx
	movq	%rdx, -152(%rbp)
	movq	-112(%rbp), %rdx
	movq	%rdx, -144(%rbp)
	movq	-104(%rbp), %rdx
	movq	%rdx, -136(%rbp)
	movq	%rcx, -128(%rbp)
	movq	-152(%rbp), %rcx
	movq	-240(%rbp), %rdx
	movq	%rcx, 8(%rdx)
	movq	-144(%rbp), %rcx
	movq	%rcx, 16(%rdx)
	movq	-136(%rbp), %rcx
	movq	%rcx, 24(%rdx)
	movq	-128(%rbp), %rcx
	movq	%rcx, 32(%rdx)
	movq	$0, (%rdx)
LBB291_5:
	movq	-256(%rbp), %rax
	addq	$256, %rsp
	popq	%rbp
	retq
	.cfi_endproc

	.p2align	4, 0x90
__ZN5alloc11collections5btree4node151Handle$LT$alloc..collections..btree..node..NodeRef$LT$BorrowType$C$K$C$V$C$alloc..collections..btree..node..marker..LeafOrInternal$GT$$C$HandleType$GT$5force17h50b1a8bd2a8640baE:
	.cfi_startproc
	pushq	%rbp
	.cfi_def_cfa_offset 16
	.cfi_offset %rbp, -16
	movq	%rsp, %rbp
	.cfi_def_cfa_register %rbp
	subq	$256, %rsp
	movq	%rdi, %rax
	movq	(%rsi), %rcx
	movq	%rcx, -200(%rbp)
	movq	8(%rsi), %rcx
	movq	%rcx, -192(%rbp)
	movq	16(%rsi), %rcx
	movq	%rcx, -184(%rbp)
	leaq	-232(%rbp), %rcx
	movq	%rdi, -240(%rbp)
	movq	%rcx, %rdi
	leaq	-200(%rbp), %rcx
	movq	%rsi, -248(%rbp)
	movq	%rcx, %rsi
	movq	%rax, -256(%rbp)
	callq	__ZN5alloc11collections5btree4node91NodeRef$LT$BorrowType$C$K$C$V$C$alloc..collections..btree..node..marker..LeafOrInternal$GT$5force17h4993175422ff0c9dE
	movq	-232(%rbp), %rax
	testq	%rax, %rax
	je	LBB292_4
	jmp	LBB292_6
LBB292_6:
	movq	-224(%rbp), %rax
	movq	%rax, -88(%rbp)
	movq	-216(%rbp), %rax
	movq	%rax, -80(%rbp)
	movq	-208(%rbp), %rax
	movq	%rax, -72(%rbp)
	movq	-88(%rbp), %rax
	movq	%rax, -32(%rbp)
	movq	-80(%rbp), %rax
	movq	%rax, -24(%rbp)
	movq	-72(%rbp), %rax
	movq	%rax, -16(%rbp)
	movq	-248(%rbp), %rax
	movq	24(%rax), %rcx
	movq	-32(%rbp), %rdx
	movq	%rdx, -64(%rbp)
	movq	-24(%rbp), %rdx
	movq	%rdx, -56(%rbp)
	movq	-16(%rbp), %rdx
	movq	%rdx, -48(%rbp)
	movq	%rcx, -40(%rbp)
	movq	-64(%rbp), %rcx
	movq	-240(%rbp), %rdx
	movq	%rcx, 8(%rdx)
	movq	-56(%rbp), %rcx
	movq	%rcx, 16(%rdx)
	movq	-48(%rbp), %rcx
	movq	%rcx, 24(%rdx)
	movq	-40(%rbp), %rcx
	movq	%rcx, 32(%rdx)
	movq	$1, (%rdx)
	jmp	LBB292_5
	ud2
LBB292_4:
	movq	-224(%rbp), %rax
	movq	%rax, -176(%rbp)
	movq	-216(%rbp), %rax
	movq	%rax, -168(%rbp)
	movq	-208(%rbp), %rax
	movq	%rax, -160(%rbp)
	movq	-176(%rbp), %rax
	movq	%rax, -120(%rbp)
	movq	-168(%rbp), %rax
	movq	%rax, -112(%rbp)
	movq	-160(%rbp), %rax
	movq	%rax, -104(%rbp)
	movq	-248(%rbp), %rax
	movq	24(%rax), %rcx
	movq	-120(%rbp), %rdx
	movq	%rdx, -152(%rbp)
	movq	-112(%rbp), %rdx
	movq	%rdx, -144(%rbp)
	movq	-104(%rbp), %rdx
	movq	%rdx, -136(%rbp)
	movq	%rcx, -128(%rbp)
	movq	-152(%rbp), %rcx
	movq	-240(%rbp), %rdx
	movq	%rcx, 8(%rdx)
	movq	-144(%rbp), %rcx
	movq	%rcx, 16(%rdx)
	movq	-136(%rbp), %rcx
	movq	%rcx, 24(%rdx)
	movq	-128(%rbp), %rcx
	movq	%rcx, 32(%rdx)
	movq	$0, (%rdx)
LBB292_5:
	movq	-256(%rbp), %rax
	addq	$256, %rsp
	popq	%rbp
	retq
	.cfi_endproc

	.p2align	4, 0x90
__ZN5alloc11collections5btree4node173Handle$LT$alloc..collections..btree..node..NodeRef$LT$alloc..collections..btree..node..marker..Immut$C$K$C$V$C$NodeType$GT$$C$alloc..collections..btree..node..marker..KV$GT$7into_kv17h9a4b86139f04cbe0E:
	.cfi_startproc
	pushq	%rbp
	.cfi_def_cfa_offset 16
	.cfi_offset %rbp, -16
	movq	%rsp, %rbp
	.cfi_def_cfa_register %rbp
	subq	$112, %rsp
	movq	(%rdi), %rax
	movq	%rax, -24(%rbp)
	movq	8(%rdi), %rax
	movq	%rax, -16(%rbp)
	movq	16(%rdi), %rax
	movq	%rax, -8(%rbp)
	leaq	-56(%rbp), %rax
	movq	%rdi, -80(%rbp)
	movq	%rax, %rdi
	leaq	-24(%rbp), %rsi
	callq	__ZN5alloc11collections5btree4node76NodeRef$LT$alloc..collections..btree..node..marker..Immut$C$K$C$V$C$Type$GT$11into_slices17hbdc6d119d1c1f597E
	movq	-56(%rbp), %rdi
	movq	-48(%rbp), %rsi
	movq	-40(%rbp), %rax
	movq	-32(%rbp), %rcx
	movq	-80(%rbp), %rdx
	movq	24(%rdx), %rdx
	movq	%rax, -88(%rbp)
	movq	%rcx, -96(%rbp)
	callq	__ZN4core5slice29_$LT$impl$u20$$u5b$T$u5d$$GT$13get_unchecked17heee4a2e93db26eb4E
	movq	%rax, -104(%rbp)
	movq	-80(%rbp), %rax
	movq	24(%rax), %rdx
	movq	-88(%rbp), %rdi
	movq	-96(%rbp), %rsi
	callq	__ZN4core5slice29_$LT$impl$u20$$u5b$T$u5d$$GT$13get_unchecked17h56fcb620e03c4395E
	movq	%rax, -112(%rbp)
	movq	-104(%rbp), %rax
	movq	%rax, -72(%rbp)
	movq	-112(%rbp), %rcx
	movq	%rcx, -64(%rbp)
	movq	-72(%rbp), %rax
	movq	-64(%rbp), %rdx
	addq	$112, %rsp
	popq	%rbp
	retq
	.cfi_endproc

	.p2align	4, 0x90
__ZN5alloc11collections5btree4node176Handle$LT$alloc..collections..btree..node..NodeRef$LT$BorrowType$C$K$C$V$C$alloc..collections..btree..node..marker..Leaf$GT$$C$alloc..collections..btree..node..marker..Edge$GT$16forget_node_type17ha96dc8e7ac8347fcE:
	.cfi_startproc
	pushq	%rbp
	.cfi_def_cfa_offset 16
	.cfi_offset %rbp, -16
	movq	%rsp, %rbp
	.cfi_def_cfa_register %rbp
	subq	$80, %rsp
	movq	%rdi, %rax
	movq	(%rsi), %rcx
	movq	%rcx, -24(%rbp)
	movq	8(%rsi), %rcx
	movq	%rcx, -16(%rbp)
	movq	16(%rsi), %rcx
	movq	%rcx, -8(%rbp)
	leaq	-48(%rbp), %rcx
	movq	%rdi, -56(%rbp)
	movq	%rcx, %rdi
	leaq	-24(%rbp), %rcx
	movq	%rsi, -64(%rbp)
	movq	%rcx, %rsi
	movq	%rax, -72(%rbp)
	callq	__ZN5alloc11collections5btree4node40NodeRef$LT$BorrowType$C$K$C$V$C$Type$GT$11forget_type17ha05a5805da5ea53cE
	movq	-64(%rbp), %rax
	movq	24(%rax), %rdx
	movq	-56(%rbp), %rdi
	leaq	-48(%rbp), %rsi
	callq	__ZN5alloc11collections5btree4node139Handle$LT$alloc..collections..btree..node..NodeRef$LT$BorrowType$C$K$C$V$C$NodeType$GT$$C$alloc..collections..btree..node..marker..Edge$GT$8new_edge17h66ffe9492339f36dE
	movq	-72(%rbp), %rax
	addq	$80, %rsp
	popq	%rbp
	retq
	.cfi_endproc

	.p2align	4, 0x90
__ZN5alloc11collections5btree4node17Root$LT$K$C$V$GT$8into_ref17h015cab45b9e8f9cdE:
	.cfi_startproc
	pushq	%rbp
	.cfi_def_cfa_offset 16
	.cfi_offset %rbp, -16
	movq	%rsp, %rbp
	.cfi_def_cfa_register %rbp
	subq	$48, %rsp
	movq	%rdi, %rax
	movq	%rsi, -16(%rbp)
	movq	%rdx, -8(%rbp)
	movq	-8(%rbp), %rcx
	leaq	-16(%rbp), %rdx
	movq	%rdi, -24(%rbp)
	movq	%rdx, %rdi
	movq	%rax, -32(%rbp)
	movq	%rcx, -40(%rbp)
	callq	__ZN5alloc11collections5btree4node22BoxedNode$LT$K$C$V$GT$6as_ptr17hb64b6875dff29b0bE
	movq	%rax, -48(%rbp)
	jmp	LBB295_2
LBB295_2:
	movq	-24(%rbp), %rax
	movq	-40(%rbp), %rcx
	movq	%rcx, (%rax)
	movq	-48(%rbp), %rdx
	movq	%rdx, 8(%rax)
	movq	$0, 16(%rax)
	movq	-32(%rbp), %rax
	addq	$48, %rsp
	popq	%rbp
	retq
	.cfi_endproc

	.p2align	4, 0x90
__ZN5alloc11collections5btree4node180Handle$LT$alloc..collections..btree..node..NodeRef$LT$BorrowType$C$K$C$V$C$alloc..collections..btree..node..marker..Internal$GT$$C$alloc..collections..btree..node..marker..Edge$GT$16forget_node_type17hedf3ce935a4674adE:
	.cfi_startproc
	pushq	%rbp
	.cfi_def_cfa_offset 16
	.cfi_offset %rbp, -16
	movq	%rsp, %rbp
	.cfi_def_cfa_register %rbp
	subq	$80, %rsp
	movq	%rdi, %rax
	movq	(%rsi), %rcx
	movq	%rcx, -24(%rbp)
	movq	8(%rsi), %rcx
	movq	%rcx, -16(%rbp)
	movq	16(%rsi), %rcx
	movq	%rcx, -8(%rbp)
	leaq	-48(%rbp), %rcx
	movq	%rdi, -56(%rbp)
	movq	%rcx, %rdi
	leaq	-24(%rbp), %rcx
	movq	%rsi, -64(%rbp)
	movq	%rcx, %rsi
	movq	%rax, -72(%rbp)
	callq	__ZN5alloc11collections5btree4node40NodeRef$LT$BorrowType$C$K$C$V$C$Type$GT$11forget_type17he69544967afd5638E
	movq	-64(%rbp), %rax
	movq	24(%rax), %rdx
	movq	-56(%rbp), %rdi
	leaq	-48(%rbp), %rsi
	callq	__ZN5alloc11collections5btree4node139Handle$LT$alloc..collections..btree..node..NodeRef$LT$BorrowType$C$K$C$V$C$NodeType$GT$$C$alloc..collections..btree..node..marker..Edge$GT$8new_edge17h66ffe9492339f36dE
	movq	-72(%rbp), %rax
	addq	$80, %rsp
	popq	%rbp
	retq
	.cfi_endproc

	.p2align	4, 0x90
__ZN5alloc11collections5btree4node180Handle$LT$alloc..collections..btree..node..NodeRef$LT$BorrowType$C$K$C$V$C$alloc..collections..btree..node..marker..Internal$GT$$C$alloc..collections..btree..node..marker..Edge$GT$7descend17hcc9874732ee5e803E:
	.cfi_startproc
	pushq	%rbp
	.cfi_def_cfa_offset 16
	.cfi_offset %rbp, -16
	movq	%rsp, %rbp
	.cfi_def_cfa_register %rbp
	subq	$80, %rsp
	movq	%rdi, %rax
	movq	(%rsi), %rcx
	subq	$1, %rcx
	movq	%rsi, %rdx
	movq	%rdi, -16(%rbp)
	movq	%rdx, %rdi
	movq	%rsi, -24(%rbp)
	movq	%rax, -32(%rbp)
	movq	%rcx, -40(%rbp)
	callq	__ZN5alloc11collections5btree4node85NodeRef$LT$BorrowType$C$K$C$V$C$alloc..collections..btree..node..marker..Internal$GT$11as_internal17h9308b18257d56cc4E
	movq	%rax, -48(%rbp)
	movq	-48(%rbp), %rax
	addq	$544, %rax
	movq	-24(%rbp), %rcx
	movq	24(%rcx), %rdx
	movq	%rax, %rdi
	movl	$12, %esi
	callq	__ZN4core5slice29_$LT$impl$u20$$u5b$T$u5d$$GT$13get_unchecked17h5b0bf8ca6a22fa6eE
	movq	%rax, -56(%rbp)
	movq	-56(%rbp), %rax
	movq	%rax, -64(%rbp)
	movq	-64(%rbp), %rdi
	callq	__ZN5alloc11collections5btree4node22BoxedNode$LT$K$C$V$GT$6as_ptr17hb64b6875dff29b0bE
	movq	%rax, -72(%rbp)
	movq	-24(%rbp), %rax
	movq	16(%rax), %rcx
	movq	-16(%rbp), %rdx
	movq	-40(%rbp), %rsi
	movq	%rsi, (%rdx)
	movq	-72(%rbp), %rdi
	movq	%rdi, 8(%rdx)
	movq	%rcx, 16(%rdx)
	movq	-32(%rbp), %rax
	addq	$80, %rsp
	popq	%rbp
	retq
	.cfi_endproc

	.p2align	4, 0x90
__ZN5alloc11collections5btree4node22BoxedNode$LT$K$C$V$GT$6as_ptr17hb64b6875dff29b0bE:
	.cfi_startproc
	pushq	%rbp
	.cfi_def_cfa_offset 16
	.cfi_offset %rbp, -16
	movq	%rsp, %rbp
	.cfi_def_cfa_register %rbp
	subq	$16, %rsp
	movq	(%rdi), %rdi
	callq	__ZN119_$LT$core..ptr..non_null..NonNull$LT$T$GT$$u20$as$u20$core..convert..From$LT$core..ptr..unique..Unique$LT$T$GT$$GT$$GT$4from17h539be354ec24094bE
	movq	%rax, -8(%rbp)
	movq	-8(%rbp), %rax
	addq	$16, %rsp
	popq	%rbp
	retq
	.cfi_endproc

	.p2align	4, 0x90
__ZN5alloc11collections5btree4node25Handle$LT$Node$C$Type$GT$9into_node17h4b0cf8b5c5add906E:
	.cfi_startproc
	pushq	%rbp
	.cfi_def_cfa_offset 16
	.cfi_offset %rbp, -16
	movq	%rsp, %rbp
	.cfi_def_cfa_register %rbp
	movq	%rdi, %rax
	movq	(%rsi), %rcx
	movq	%rcx, (%rdi)
	movq	8(%rsi), %rcx
	movq	%rcx, 8(%rdi)
	movq	16(%rsi), %rcx
	movq	%rcx, 16(%rdi)
	popq	%rbp
	retq
	.cfi_endproc

	.p2align	4, 0x90
__ZN5alloc11collections5btree4node25Handle$LT$Node$C$Type$GT$9into_node17h71db89a328793913E:
	.cfi_startproc
	pushq	%rbp
	.cfi_def_cfa_offset 16
	.cfi_offset %rbp, -16
	movq	%rsp, %rbp
	.cfi_def_cfa_register %rbp
	movq	%rdi, %rax
	movq	(%rsi), %rcx
	movq	%rcx, (%rdi)
	movq	8(%rsi), %rcx
	movq	%rcx, 8(%rdi)
	movq	16(%rsi), %rcx
	movq	%rcx, 16(%rdi)
	popq	%rbp
	retq
	.cfi_endproc

	.p2align	4, 0x90
__ZN5alloc11collections5btree4node25Handle$LT$Node$C$Type$GT$9into_node17h7ca9c5c9a2577623E:
	.cfi_startproc
	pushq	%rbp
	.cfi_def_cfa_offset 16
	.cfi_offset %rbp, -16
	movq	%rsp, %rbp
	.cfi_def_cfa_register %rbp
	movq	%rdi, %rax
	movq	(%rsi), %rcx
	movq	%rcx, (%rdi)
	movq	8(%rsi), %rcx
	movq	%rcx, 8(%rdi)
	movq	16(%rsi), %rcx
	movq	%rcx, 16(%rdi)
	popq	%rbp
	retq
	.cfi_endproc

	.p2align	4, 0x90
__ZN5alloc11collections5btree4node40NodeRef$LT$BorrowType$C$K$C$V$C$Type$GT$10first_edge17h937601f023baadc2E:
	.cfi_startproc
	pushq	%rbp
	.cfi_def_cfa_offset 16
	.cfi_offset %rbp, -16
	movq	%rsp, %rbp
	.cfi_def_cfa_register %rbp
	subq	$32, %rsp
	movq	%rdi, %rax
	xorl	%ecx, %ecx
	movl	%ecx, %edx
	movq	(%rsi), %r8
	movq	%r8, -24(%rbp)
	movq	8(%rsi), %r8
	movq	%r8, -16(%rbp)
	movq	16(%rsi), %rsi
	movq	%rsi, -8(%rbp)
	leaq	-24(%rbp), %rsi
	movq	%rax, -32(%rbp)
	callq	__ZN5alloc11collections5btree4node139Handle$LT$alloc..collections..btree..node..NodeRef$LT$BorrowType$C$K$C$V$C$NodeType$GT$$C$alloc..collections..btree..node..marker..Edge$GT$8new_edge17h03044c0c3afbdc14E
	movq	-32(%rbp), %rax
	addq	$32, %rsp
	popq	%rbp
	retq
	.cfi_endproc

	.p2align	4, 0x90
__ZN5alloc11collections5btree4node40NodeRef$LT$BorrowType$C$K$C$V$C$Type$GT$10first_edge17ha8b0726c25f70149E:
	.cfi_startproc
	pushq	%rbp
	.cfi_def_cfa_offset 16
	.cfi_offset %rbp, -16
	movq	%rsp, %rbp
	.cfi_def_cfa_register %rbp
	subq	$32, %rsp
	movq	%rdi, %rax
	xorl	%ecx, %ecx
	movl	%ecx, %edx
	movq	(%rsi), %r8
	movq	%r8, -24(%rbp)
	movq	8(%rsi), %r8
	movq	%r8, -16(%rbp)
	movq	16(%rsi), %rsi
	movq	%rsi, -8(%rbp)
	leaq	-24(%rbp), %rsi
	movq	%rax, -32(%rbp)
	callq	__ZN5alloc11collections5btree4node139Handle$LT$alloc..collections..btree..node..NodeRef$LT$BorrowType$C$K$C$V$C$NodeType$GT$$C$alloc..collections..btree..node..marker..Edge$GT$8new_edge17h66ffe9492339f36dE
	movq	-32(%rbp), %rax
	addq	$32, %rsp
	popq	%rbp
	retq
	.cfi_endproc

	.p2align	4, 0x90
__ZN5alloc11collections5btree4node40NodeRef$LT$BorrowType$C$K$C$V$C$Type$GT$10first_edge17hd9e7198f8a5fe604E:
	.cfi_startproc
	pushq	%rbp
	.cfi_def_cfa_offset 16
	.cfi_offset %rbp, -16
	movq	%rsp, %rbp
	.cfi_def_cfa_register %rbp
	subq	$32, %rsp
	movq	%rdi, %rax
	xorl	%ecx, %ecx
	movl	%ecx, %edx
	movq	(%rsi), %r8
	movq	%r8, -24(%rbp)
	movq	8(%rsi), %r8
	movq	%r8, -16(%rbp)
	movq	16(%rsi), %rsi
	movq	%rsi, -8(%rbp)
	leaq	-24(%rbp), %rsi
	movq	%rax, -32(%rbp)
	callq	__ZN5alloc11collections5btree4node139Handle$LT$alloc..collections..btree..node..NodeRef$LT$BorrowType$C$K$C$V$C$NodeType$GT$$C$alloc..collections..btree..node..marker..Edge$GT$8new_edge17hd08a6024ec3c8c96E
	movq	-32(%rbp), %rax
	addq	$32, %rsp
	popq	%rbp
	retq
	.cfi_endproc

	.p2align	4, 0x90
__ZN5alloc11collections5btree4node40NodeRef$LT$BorrowType$C$K$C$V$C$Type$GT$11forget_type17ha05a5805da5ea53cE:
	.cfi_startproc
	pushq	%rbp
	.cfi_def_cfa_offset 16
	.cfi_offset %rbp, -16
	movq	%rsp, %rbp
	.cfi_def_cfa_register %rbp
	pushq	%rax
	movq	%rdi, %rax
	movq	(%rsi), %rcx
	movq	8(%rsi), %rdx
	movq	16(%rsi), %rsi
	movq	%rcx, (%rdi)
	movq	%rdx, 8(%rdi)
	movq	%rsi, 16(%rdi)
	addq	$8, %rsp
	popq	%rbp
	retq
	.cfi_endproc

	.p2align	4, 0x90
__ZN5alloc11collections5btree4node40NodeRef$LT$BorrowType$C$K$C$V$C$Type$GT$11forget_type17he69544967afd5638E:
	.cfi_startproc
	pushq	%rbp
	.cfi_def_cfa_offset 16
	.cfi_offset %rbp, -16
	movq	%rsp, %rbp
	.cfi_def_cfa_register %rbp
	pushq	%rax
	movq	%rdi, %rax
