	.section	__TEXT,__text,regular,pure_instructions
	.macosx_version_min 10, 7
	.private_extern	__ZN3std2rt10lang_start17h2ed373357453ac05E
	.globl	__ZN3std2rt10lang_start17h2ed373357453ac05E
	.p2align	4, 0x90
__ZN3std2rt10lang_start17h2ed373357453ac05E:
Lfunc_begin0:
	.file	1 "/rustc/a74d1862d4d87a56244958416fd05976c58ca1a8/src/libstd/rt.rs"
	.loc	1 62 0
	.cfi_startproc
	pushq	%rbp
	.cfi_def_cfa_offset 16
	.cfi_offset %rbp, -16
	movq	%rsp, %rbp
	.cfi_def_cfa_register %rbp
	subq	$16, %rsp
	movq	%rdx, %rcx
Ltmp0:
	movq	%rsi, %rdx
Ltmp1:
	.loc	1 67 26 prologue_end
	movq	%rdi, -8(%rbp)
	.loc	1 67 5 is_stmt 0
	leaq	l___unnamed_1(%rip), %rsi
	leaq	-8(%rbp), %rdi
Ltmp2:
	callq	__ZN3std2rt19lang_start_internal17hebefdaa8fd585aefE
Ltmp3:
	.loc	1 68 2 is_stmt 1
	addq	$16, %rsp
	popq	%rbp
	retq
Ltmp4:
Lfunc_end0:
	.cfi_endproc

	.p2align	4, 0x90
__ZN3std2rt10lang_start28_$u7b$$u7b$closure$u7d$$u7d$17hd1df7bc039162596E:
Lfunc_begin1:
	.loc	1 67 0
	.cfi_startproc
	pushq	%rbp
	.cfi_def_cfa_offset 16
	.cfi_offset %rbp, -16
	movq	%rsp, %rbp
	.cfi_def_cfa_register %rbp
Ltmp5:
	.loc	1 67 34 prologue_end
	callq	*(%rdi)
Ltmp6:
	.loc	1 67 49 is_stmt 0
	xorl	%eax, %eax
	popq	%rbp
	retq
Ltmp7:
Lfunc_end1:
	.cfi_endproc

	.p2align	4, 0x90
__ZN4core3ops8function6FnOnce40call_once$u7b$$u7b$vtable.shim$u7d$$u7d$17h79581cf2625ee7b2E:
Lfunc_begin2:
	.file	2 "/rustc/a74d1862d4d87a56244958416fd05976c58ca1a8/src/libcore/ops/function.rs"
	.loc	2 232 0 is_stmt 1
	.cfi_startproc
	pushq	%rbp
	.cfi_def_cfa_offset 16
	.cfi_offset %rbp, -16
	movq	%rsp, %rbp
	.cfi_def_cfa_register %rbp
Ltmp8:
	.loc	1 67 34 prologue_end
	callq	*(%rdi)
Ltmp9:
	.loc	2 232 5
	xorl	%eax, %eax
	popq	%rbp
	retq
Ltmp10:
Lfunc_end2:
	.cfi_endproc

	.p2align	4, 0x90
__ZN4core3ptr13drop_in_place17h10a66bd4ffeaf678E:
Lfunc_begin3:
	.file	3 "/rustc/a74d1862d4d87a56244958416fd05976c58ca1a8/src/libcore/ptr/mod.rs"
	.loc	3 178 0
	.cfi_startproc
	pushq	%rbp
	.cfi_def_cfa_offset 16
	.cfi_offset %rbp, -16
	movq	%rsp, %rbp
	.cfi_def_cfa_register %rbp
	pushq	%r15
	pushq	%r14
	pushq	%r12
	pushq	%rbx
	.cfi_offset %rbx, -48
	.cfi_offset %r12, -40
	.cfi_offset %r14, -32
	.cfi_offset %r15, -24
	movq	%rdi, %r14
Ltmp11:
	.file	4 "/rustc/a74d1862d4d87a56244958416fd05976c58ca1a8/src/liballoc/vec.rs"
	.loc	4 850 19 prologue_end
	movq	(%rdi), %rbx
Ltmp12:
	.loc	4 2384 81
	movq	16(%rdi), %rax
Ltmp13:
	.loc	3 178 1
	testq	%rax, %rax
	je	LBB3_7
Ltmp14:
	leaq	(%rax,%rax,2), %rax
Ltmp15:
	leaq	(%rbx,%rax,8), %r15
Ltmp16:
	.loc	3 178 1 is_stmt 0
	movq	(%rbx), %rdi
Ltmp17:
	.file	5 "/rustc/a74d1862d4d87a56244958416fd05976c58ca1a8/src/liballoc/raw_vec.rs"
	.loc	5 532 16 is_stmt 1
	testq	%rdi, %rdi
Ltmp18:
	.loc	5 200 9
	jne	LBB3_3
Ltmp19:
	.p2align	4, 0x90
LBB3_5:
	.loc	3 178 1
	addq	$24, %rbx
Ltmp20:
	cmpq	%r15, %rbx
	je	LBB3_6
Ltmp21:
LBB3_2:
	.loc	3 178 1 is_stmt 0
	movq	(%rbx), %rdi
Ltmp22:
	.loc	5 532 16 is_stmt 1
	testq	%rdi, %rdi
Ltmp23:
	.loc	5 200 9
	je	LBB3_5
Ltmp24:
LBB3_3:
	.loc	3 0 0 is_stmt 0
	movq	8(%rbx), %rsi
Ltmp25:
	.loc	5 200 9
	testq	%rsi, %rsi
	je	LBB3_5
Ltmp26:
	.file	6 "/rustc/a74d1862d4d87a56244958416fd05976c58ca1a8/src/liballoc/alloc.rs"
	.loc	6 102 5 is_stmt 1
	movl	$1, %edx
	callq	___rust_dealloc
Ltmp27:
	.loc	3 178 1
	addq	$24, %rbx
Ltmp28:
	cmpq	%r15, %rbx
	jne	LBB3_2
Ltmp29:
LBB3_6:
	.loc	3 178 1 is_stmt 0
	movq	(%r14), %rbx
Ltmp30:
LBB3_7:
	movq	8(%r14), %rax
Ltmp31:
	.loc	5 200 40 is_stmt 1
	testq	%rax, %rax
	.loc	5 200 9 is_stmt 0
	je	LBB3_11
Ltmp32:
	.loc	5 532 16 is_stmt 1
	testq	%rbx, %rbx
Ltmp33:
	je	LBB3_11
Ltmp34:
	.loc	5 0 0 is_stmt 0
	shlq	$3, %rax
	leaq	(%rax,%rax,2), %rsi
Ltmp35:
	.loc	5 532 16
	testq	%rsi, %rsi
	je	LBB3_11
Ltmp36:
	.loc	6 102 5 is_stmt 1
	movl	$8, %edx
	movq	%rbx, %rdi
	callq	___rust_dealloc
Ltmp37:
LBB3_11:
	.loc	4 850 19
	movq	24(%r14), %rbx
Ltmp38:
	.loc	4 2384 81
	movq	40(%r14), %rax
Ltmp39:
	.loc	3 178 1
	testq	%rax, %rax
	je	LBB3_21
Ltmp40:
	.loc	3 0 0 is_stmt 0
	leaq	(%rax,%rax,2), %r15
	shlq	$4, %r15
	addq	%rbx, %r15
Ltmp41:
	.loc	5 200 9 is_stmt 1
	addq	$32, %rbx
Ltmp42:
	.loc	3 178 1
	leaq	-32(%rbx), %r12
	movq	-32(%rbx), %rdi
Ltmp43:
	.loc	5 532 16
	testq	%rdi, %rdi
	jne	LBB3_14
	jmp	LBB3_16
Ltmp44:
	.p2align	4, 0x90
LBB3_19:
	.loc	3 178 1
	addq	$48, %rbx
	addq	$48, %r12
	cmpq	%r15, %r12
	je	LBB3_20
Ltmp45:
	.loc	3 178 1 is_stmt 0
	leaq	-32(%rbx), %r12
	movq	-32(%rbx), %rdi
Ltmp46:
	.loc	5 532 16 is_stmt 1
	testq	%rdi, %rdi
Ltmp47:
	.loc	5 200 9
	je	LBB3_16
Ltmp48:
LBB3_14:
	.loc	3 0 0 is_stmt 0
	movq	-24(%rbx), %rsi
Ltmp49:
	.loc	5 200 9
	testq	%rsi, %rsi
	je	LBB3_16
Ltmp50:
	.loc	6 102 5 is_stmt 1
	movl	$1, %edx
	callq	___rust_dealloc
Ltmp51:
LBB3_16:
	.loc	3 178 1
	movq	24(%r12), %rdi
Ltmp52:
	testq	%rdi, %rdi
	je	LBB3_19
Ltmp53:
	.loc	3 178 1 is_stmt 0
	movq	(%rbx), %rsi
Ltmp54:
	.loc	5 200 40 is_stmt 1
	testq	%rsi, %rsi
	.loc	5 200 9 is_stmt 0
	je	LBB3_19
Ltmp55:
	.loc	6 102 5 is_stmt 1
	movl	$1, %edx
	callq	___rust_dealloc
Ltmp56:
	.loc	6 0 5 is_stmt 0
	jmp	LBB3_19
Ltmp57:
LBB3_20:
	.loc	3 178 1 is_stmt 1
	movq	24(%r14), %rbx
Ltmp58:
LBB3_21:
	movq	32(%r14), %rax
Ltmp59:
	.loc	5 200 40
	testq	%rax, %rax
	.loc	5 200 9 is_stmt 0
	je	LBB3_25
Ltmp60:
	.loc	5 532 16 is_stmt 1
	testq	%rbx, %rbx
Ltmp61:
	je	LBB3_25
Ltmp62:
	.loc	5 0 0 is_stmt 0
	shlq	$4, %rax
	leaq	(%rax,%rax,2), %rsi
Ltmp63:
	.loc	5 532 16
	testq	%rsi, %rsi
	je	LBB3_25
Ltmp64:
	.loc	6 102 5 is_stmt 1
	movl	$8, %edx
	movq	%rbx, %rdi
	callq	___rust_dealloc
Ltmp65:
LBB3_25:
	.loc	4 850 19
	movq	48(%r14), %rbx
Ltmp66:
	.loc	4 2384 81
	movq	64(%r14), %rax
Ltmp67:
	.loc	3 178 1
	testq	%rax, %rax
	je	LBB3_32
Ltmp68:
	leaq	(%rax,%rax,2), %rax
Ltmp69:
	leaq	(%rbx,%rax,8), %r15
Ltmp70:
	.loc	3 178 1 is_stmt 0
	movq	(%rbx), %rdi
Ltmp71:
	.loc	5 532 16 is_stmt 1
	testq	%rdi, %rdi
Ltmp72:
	.loc	5 200 9
	jne	LBB3_28
Ltmp73:
	.p2align	4, 0x90
LBB3_30:
	.loc	3 178 1
	addq	$24, %rbx
Ltmp74:
	cmpq	%r15, %rbx
	je	LBB3_31
Ltmp75:
LBB3_27:
	.loc	3 178 1 is_stmt 0
	movq	(%rbx), %rdi
Ltmp76:
	.loc	5 532 16 is_stmt 1
	testq	%rdi, %rdi
Ltmp77:
	.loc	5 200 9
	je	LBB3_30
Ltmp78:
LBB3_28:
	.loc	3 0 0 is_stmt 0
	movq	8(%rbx), %rsi
Ltmp79:
	.loc	5 200 9
	testq	%rsi, %rsi
	je	LBB3_30
Ltmp80:
	.loc	6 102 5 is_stmt 1
	movl	$1, %edx
	callq	___rust_dealloc
Ltmp81:
	.loc	3 178 1
	addq	$24, %rbx
Ltmp82:
	cmpq	%r15, %rbx
	jne	LBB3_27
Ltmp83:
LBB3_31:
	.loc	3 178 1 is_stmt 0
	movq	48(%r14), %rbx
Ltmp84:
LBB3_32:
	movq	56(%r14), %rax
Ltmp85:
	.loc	5 200 40 is_stmt 1
	testq	%rax, %rax
	.loc	5 200 9 is_stmt 0
	je	LBB3_36
Ltmp86:
	.loc	5 532 16 is_stmt 1
	testq	%rbx, %rbx
Ltmp87:
	je	LBB3_36
Ltmp88:
	.loc	5 0 0 is_stmt 0
	shlq	$3, %rax
	leaq	(%rax,%rax,2), %rsi
Ltmp89:
	.loc	5 532 16
	testq	%rsi, %rsi
	je	LBB3_36
Ltmp90:
	.loc	6 102 5 is_stmt 1
	movl	$8, %edx
	movq	%rbx, %rdi
	callq	___rust_dealloc
Ltmp91:
LBB3_36:
	.loc	4 850 19
	movq	72(%r14), %rbx
Ltmp92:
	.loc	4 2384 81
	movq	88(%r14), %rax
Ltmp93:
	.loc	3 178 1
	testq	%rax, %rax
	je	LBB3_43
Ltmp94:
	leaq	(%rax,%rax,2), %rax
Ltmp95:
	leaq	(%rbx,%rax,8), %r15
Ltmp96:
	.loc	3 178 1 is_stmt 0
	movq	(%rbx), %rdi
Ltmp97:
	.loc	5 532 16 is_stmt 1
	testq	%rdi, %rdi
Ltmp98:
	.loc	5 200 9
	jne	LBB3_39
Ltmp99:
	.p2align	4, 0x90
LBB3_41:
	.loc	3 178 1
	addq	$24, %rbx
Ltmp100:
	cmpq	%r15, %rbx
	je	LBB3_42
Ltmp101:
LBB3_38:
	.loc	3 178 1 is_stmt 0
	movq	(%rbx), %rdi
Ltmp102:
	.loc	5 532 16 is_stmt 1
	testq	%rdi, %rdi
Ltmp103:
	.loc	5 200 9
	je	LBB3_41
Ltmp104:
LBB3_39:
	.loc	3 0 0 is_stmt 0
	movq	8(%rbx), %rsi
Ltmp105:
	.loc	5 200 9
	testq	%rsi, %rsi
	je	LBB3_41
Ltmp106:
	.loc	6 102 5 is_stmt 1
	movl	$1, %edx
	callq	___rust_dealloc
Ltmp107:
	.loc	3 178 1
	addq	$24, %rbx
Ltmp108:
	cmpq	%r15, %rbx
	jne	LBB3_38
Ltmp109:
LBB3_42:
	.loc	3 178 1 is_stmt 0
	movq	72(%r14), %rbx
Ltmp110:
LBB3_43:
	movq	80(%r14), %rax
Ltmp111:
	.loc	5 200 40 is_stmt 1
	testq	%rax, %rax
	.loc	5 200 9 is_stmt 0
	je	LBB3_47
Ltmp112:
	.loc	5 532 16 is_stmt 1
	testq	%rbx, %rbx
Ltmp113:
	je	LBB3_47
Ltmp114:
	.loc	5 0 0 is_stmt 0
	shlq	$3, %rax
	leaq	(%rax,%rax,2), %rsi
Ltmp115:
	.loc	5 532 16
	testq	%rsi, %rsi
	je	LBB3_47
Ltmp116:
	.loc	6 102 5 is_stmt 1
	movl	$8, %edx
	movq	%rbx, %rdi
	callq	___rust_dealloc
Ltmp117:
LBB3_47:
	.loc	4 850 19
	movq	96(%r14), %rbx
Ltmp118:
	.loc	4 2384 81
	movq	112(%r14), %rax
Ltmp119:
	.loc	3 178 1
	testq	%rax, %rax
	je	LBB3_54
Ltmp120:
	leaq	(%rax,%rax,2), %rax
Ltmp121:
	leaq	(%rbx,%rax,8), %r15
Ltmp122:
	.loc	3 178 1 is_stmt 0
	movq	(%rbx), %rdi
Ltmp123:
	.loc	5 532 16 is_stmt 1
	testq	%rdi, %rdi
Ltmp124:
	.loc	5 200 9
	jne	LBB3_50
Ltmp125:
	.p2align	4, 0x90
LBB3_52:
	.loc	3 178 1
	addq	$24, %rbx
Ltmp126:
	cmpq	%r15, %rbx
	je	LBB3_53
Ltmp127:
LBB3_49:
	.loc	3 178 1 is_stmt 0
	movq	(%rbx), %rdi
Ltmp128:
	.loc	5 532 16 is_stmt 1
	testq	%rdi, %rdi
Ltmp129:
	.loc	5 200 9
	je	LBB3_52
Ltmp130:
LBB3_50:
	.loc	3 0 0 is_stmt 0
	movq	8(%rbx), %rsi
Ltmp131:
	.loc	5 200 9
	testq	%rsi, %rsi
	je	LBB3_52
Ltmp132:
	.loc	6 102 5 is_stmt 1
	movl	$1, %edx
	callq	___rust_dealloc
Ltmp133:
	.loc	3 178 1
	addq	$24, %rbx
Ltmp134:
	cmpq	%r15, %rbx
	jne	LBB3_49
Ltmp135:
LBB3_53:
	.loc	3 178 1 is_stmt 0
	movq	96(%r14), %rbx
Ltmp136:
LBB3_54:
	movq	104(%r14), %rax
Ltmp137:
	.loc	5 200 40 is_stmt 1
	testq	%rax, %rax
	.loc	5 200 9 is_stmt 0
	je	LBB3_58
Ltmp138:
	.loc	5 532 16 is_stmt 1
	testq	%rbx, %rbx
Ltmp139:
	je	LBB3_58
Ltmp140:
	.loc	5 0 0 is_stmt 0
	shlq	$3, %rax
	leaq	(%rax,%rax,2), %rsi
Ltmp141:
	.loc	5 532 16
	testq	%rsi, %rsi
	je	LBB3_58
Ltmp142:
	.loc	6 102 5 is_stmt 1
	movl	$8, %edx
	movq	%rbx, %rdi
	callq	___rust_dealloc
Ltmp143:
LBB3_58:
	.file	7 "/rustc/a74d1862d4d87a56244958416fd05976c58ca1a8/src/liballoc/sync.rs"
	.loc	7 1346 12
	movq	120(%r14), %rax
Ltmp144:
	.file	8 "/rustc/a74d1862d4d87a56244958416fd05976c58ca1a8/src/libcore/sync/atomic.rs"
	.loc	8 2314 20
	lock		decq	(%rax)
Ltmp145:
	.loc	7 1346 9
	jne	LBB3_60
Ltmp146:
	.loc	3 0 0 is_stmt 0
	leaq	120(%r14), %rdi
Ltmp147:
	.loc	8 2563 24 is_stmt 1
	##MEMBARRIER
Ltmp148:
	.loc	7 1381 13
	callq	__ZN5alloc4sync12Arc$LT$T$GT$9drop_slow17h267c9fe3e3208c81E
Ltmp149:
LBB3_60:
	.loc	4 850 19
	movq	128(%r14), %rbx
Ltmp150:
	.loc	4 2384 81
	movq	144(%r14), %rax
Ltmp151:
	.loc	3 178 1
	testq	%rax, %rax
	je	LBB3_67
Ltmp152:
	leaq	(%rax,%rax,2), %rax
Ltmp153:
	leaq	(%rbx,%rax,8), %r15
Ltmp154:
	.loc	3 178 1 is_stmt 0
	movq	(%rbx), %rdi
Ltmp155:
	.loc	5 532 16 is_stmt 1
	testq	%rdi, %rdi
Ltmp156:
	.loc	5 200 9
	jne	LBB3_63
Ltmp157:
	.p2align	4, 0x90
LBB3_65:
	.loc	3 178 1
	addq	$24, %rbx
Ltmp158:
	cmpq	%r15, %rbx
	je	LBB3_66
Ltmp159:
LBB3_62:
	.loc	3 178 1 is_stmt 0
	movq	(%rbx), %rdi
Ltmp160:
	.loc	5 532 16 is_stmt 1
	testq	%rdi, %rdi
Ltmp161:
	.loc	5 200 9
	je	LBB3_65
Ltmp162:
LBB3_63:
	.loc	3 0 0 is_stmt 0
	movq	8(%rbx), %rsi
Ltmp163:
	.loc	5 200 9
	testq	%rsi, %rsi
	je	LBB3_65
Ltmp164:
	.loc	6 102 5 is_stmt 1
	movl	$1, %edx
	callq	___rust_dealloc
Ltmp165:
	.loc	3 178 1
	addq	$24, %rbx
Ltmp166:
	cmpq	%r15, %rbx
	jne	LBB3_62
Ltmp167:
LBB3_66:
	.loc	3 178 1 is_stmt 0
	movq	128(%r14), %rbx
Ltmp168:
LBB3_67:
	movq	136(%r14), %rax
Ltmp169:
	.loc	5 200 40 is_stmt 1
	testq	%rax, %rax
	.loc	5 200 9 is_stmt 0
	je	LBB3_71
Ltmp170:
	.loc	5 532 16 is_stmt 1
	testq	%rbx, %rbx
Ltmp171:
	je	LBB3_71
Ltmp172:
	.loc	5 0 0 is_stmt 0
	shlq	$3, %rax
	leaq	(%rax,%rax,2), %rsi
Ltmp173:
	.loc	5 532 16
	testq	%rsi, %rsi
	je	LBB3_71
Ltmp174:
	.loc	6 102 5 is_stmt 1
	movl	$8, %edx
	movq	%rbx, %rdi
	callq	___rust_dealloc
Ltmp175:
LBB3_71:
	.loc	4 850 19
	movq	152(%r14), %rbx
Ltmp176:
	.loc	4 2384 81
	movq	168(%r14), %rax
Ltmp177:
	.loc	3 178 1
	testq	%rax, %rax
	je	LBB3_78
Ltmp178:
	leaq	(%rax,%rax,2), %rax
Ltmp179:
	leaq	(%rbx,%rax,8), %r15
Ltmp180:
	.loc	3 178 1 is_stmt 0
	movq	(%rbx), %rdi
Ltmp181:
	.loc	5 532 16 is_stmt 1
	testq	%rdi, %rdi
Ltmp182:
	.loc	5 200 9
	jne	LBB3_74
Ltmp183:
	.p2align	4, 0x90
LBB3_76:
	.loc	3 178 1
	addq	$24, %rbx
Ltmp184:
	cmpq	%r15, %rbx
	je	LBB3_77
Ltmp185:
LBB3_73:
	.loc	3 178 1 is_stmt 0
	movq	(%rbx), %rdi
Ltmp186:
	.loc	5 532 16 is_stmt 1
	testq	%rdi, %rdi
Ltmp187:
	.loc	5 200 9
	je	LBB3_76
Ltmp188:
LBB3_74:
	.loc	3 0 0 is_stmt 0
	movq	8(%rbx), %rsi
Ltmp189:
	.loc	5 200 9
	testq	%rsi, %rsi
	je	LBB3_76
Ltmp190:
	.loc	6 102 5 is_stmt 1
	movl	$1, %edx
	callq	___rust_dealloc
Ltmp191:
	.loc	3 178 1
	addq	$24, %rbx
Ltmp192:
	cmpq	%r15, %rbx
	jne	LBB3_73
Ltmp193:
LBB3_77:
	.loc	3 178 1 is_stmt 0
	movq	152(%r14), %rbx
Ltmp194:
LBB3_78:
	movq	160(%r14), %rax
Ltmp195:
	.loc	5 200 40 is_stmt 1
	testq	%rax, %rax
	.loc	5 200 9 is_stmt 0
	je	LBB3_82
Ltmp196:
	.loc	5 532 16 is_stmt 1
	testq	%rbx, %rbx
Ltmp197:
	je	LBB3_82
Ltmp198:
	.loc	5 0 0 is_stmt 0
	shlq	$3, %rax
	leaq	(%rax,%rax,2), %rsi
Ltmp199:
	.loc	5 532 16
	testq	%rsi, %rsi
	je	LBB3_82
Ltmp200:
	.loc	6 102 5 is_stmt 1
	movl	$8, %edx
	movq	%rbx, %rdi
	callq	___rust_dealloc
Ltmp201:
LBB3_82:
	.loc	3 178 1
	cmpq	$0, 176(%r14)
	je	LBB3_86
Ltmp202:
	.loc	3 178 1 is_stmt 0
	movq	184(%r14), %rdi
Ltmp203:
	testq	%rdi, %rdi
	je	LBB3_86
Ltmp204:
	.loc	3 178 1
	movq	192(%r14), %rsi
Ltmp205:
	.loc	5 200 40 is_stmt 1
	testq	%rsi, %rsi
	.loc	5 200 9 is_stmt 0
	je	LBB3_86
Ltmp206:
	.loc	6 102 5 is_stmt 1
	movl	$1, %edx
	callq	___rust_dealloc
Ltmp207:
LBB3_86:
	.loc	3 178 1
	movq	208(%r14), %rdi
Ltmp208:
	testq	%rdi, %rdi
	je	LBB3_89
Ltmp209:
	.loc	3 178 1 is_stmt 0
	movq	216(%r14), %rsi
Ltmp210:
	.loc	5 200 40 is_stmt 1
	testq	%rsi, %rsi
	.loc	5 200 9 is_stmt 0
	je	LBB3_89
Ltmp211:
	.loc	6 102 5 is_stmt 1
	movl	$1, %edx
	callq	___rust_dealloc
Ltmp212:
LBB3_89:
	.loc	3 178 1
	movq	232(%r14), %rdi
Ltmp213:
	testq	%rdi, %rdi
	je	LBB3_92
Ltmp214:
	.loc	3 178 1 is_stmt 0
	movq	240(%r14), %rsi
Ltmp215:
	.loc	5 200 40 is_stmt 1
	testq	%rsi, %rsi
	.loc	5 200 9 is_stmt 0
	je	LBB3_92
Ltmp216:
	.loc	6 102 5 is_stmt 1
	movl	$1, %edx
	callq	___rust_dealloc
Ltmp217:
LBB3_92:
	.loc	3 178 1
	movq	256(%r14), %rdi
Ltmp218:
	testq	%rdi, %rdi
	je	LBB3_95
Ltmp219:
	.loc	3 178 1 is_stmt 0
	movq	264(%r14), %rsi
Ltmp220:
	.loc	5 200 40 is_stmt 1
	testq	%rsi, %rsi
	.loc	5 200 9 is_stmt 0
	je	LBB3_95
Ltmp221:
	.loc	6 102 5 is_stmt 1
	movl	$1, %edx
	callq	___rust_dealloc
Ltmp222:
LBB3_95:
	.loc	3 178 1
	movq	280(%r14), %rdi
Ltmp223:
	testq	%rdi, %rdi
	je	LBB3_98
Ltmp224:
	.loc	3 178 1 is_stmt 0
	movq	288(%r14), %rsi
Ltmp225:
	.loc	5 200 40 is_stmt 1
	testq	%rsi, %rsi
	.loc	5 200 9 is_stmt 0
	je	LBB3_98
Ltmp226:
	.loc	6 102 5 is_stmt 1
	movl	$1, %edx
	callq	___rust_dealloc
Ltmp227:
LBB3_98:
	.loc	3 178 1
	movq	304(%r14), %rdi
Ltmp228:
	testq	%rdi, %rdi
	je	LBB3_101
Ltmp229:
	.loc	3 178 1 is_stmt 0
	movq	312(%r14), %rsi
Ltmp230:
	.loc	5 200 40 is_stmt 1
	testq	%rsi, %rsi
	.loc	5 200 9 is_stmt 0
	je	LBB3_101
Ltmp231:
	.loc	6 102 5 is_stmt 1
	movl	$1, %edx
	callq	___rust_dealloc
Ltmp232:
LBB3_101:
	.loc	4 850 19
	movq	328(%r14), %rbx
Ltmp233:
	.loc	4 2384 81
	movq	344(%r14), %rax
Ltmp234:
	.loc	3 178 1
	testq	%rax, %rax
	je	LBB3_111
Ltmp235:
	leaq	(%rax,%rax,2), %r15
	shlq	$4, %r15
	addq	%rbx, %r15
Ltmp236:
	.loc	3 178 1 is_stmt 0
	movq	(%rbx), %rdi
Ltmp237:
	.loc	5 532 16 is_stmt 1
	testq	%rdi, %rdi
	jne	LBB3_104
	jmp	LBB3_106
Ltmp238:
	.p2align	4, 0x90
LBB3_109:
	.loc	3 178 1
	addq	$48, %rbx
Ltmp239:
	cmpq	%r15, %rbx
	je	LBB3_110
Ltmp240:
	.loc	3 178 1 is_stmt 0
	movq	(%rbx), %rdi
Ltmp241:
	.loc	5 532 16 is_stmt 1
	testq	%rdi, %rdi
Ltmp242:
	.loc	5 200 9
	je	LBB3_106
Ltmp243:
LBB3_104:
	.loc	3 0 0 is_stmt 0
	movq	8(%rbx), %rsi
Ltmp244:
	.loc	5 200 9
	testq	%rsi, %rsi
	je	LBB3_106
Ltmp245:
	.loc	6 102 5 is_stmt 1
	movl	$1, %edx
	callq	___rust_dealloc
Ltmp246:
LBB3_106:
	.loc	3 178 1
	movq	24(%rbx), %rdi
Ltmp247:
	.loc	5 532 16
	testq	%rdi, %rdi
Ltmp248:
	.loc	5 200 9
	je	LBB3_109
Ltmp249:
	.loc	3 0 0 is_stmt 0
	movq	32(%rbx), %rsi
Ltmp250:
	.loc	5 200 9
	testq	%rsi, %rsi
	je	LBB3_109
Ltmp251:
	.loc	6 102 5 is_stmt 1
	movl	$1, %edx
	callq	___rust_dealloc
Ltmp252:
	.loc	6 0 5 is_stmt 0
	jmp	LBB3_109
Ltmp253:
LBB3_110:
	.loc	3 178 1 is_stmt 1
	movq	328(%r14), %rbx
Ltmp254:
LBB3_111:
	movq	336(%r14), %rax
Ltmp255:
	.loc	5 200 40
	testq	%rax, %rax
	.loc	5 200 9 is_stmt 0
	je	LBB3_115
Ltmp256:
	.loc	5 532 16 is_stmt 1
	testq	%rbx, %rbx
Ltmp257:
	je	LBB3_115
Ltmp258:
	.loc	5 0 0 is_stmt 0
	shlq	$4, %rax
	leaq	(%rax,%rax,2), %rsi
Ltmp259:
	.loc	5 532 16
	testq	%rsi, %rsi
	je	LBB3_115
Ltmp260:
	.loc	6 102 5 is_stmt 1
	movl	$8, %edx
	movq	%rbx, %rdi
	callq	___rust_dealloc
Ltmp261:
LBB3_115:
	.loc	3 178 1
	movq	352(%r14), %rdi
Ltmp262:
	testq	%rdi, %rdi
	je	LBB3_118
Ltmp263:
	.loc	3 178 1 is_stmt 0
	movq	360(%r14), %rsi
Ltmp264:
	.loc	5 200 40 is_stmt 1
	testq	%rsi, %rsi
	.loc	5 200 9 is_stmt 0
	je	LBB3_118
Ltmp265:
	.loc	6 102 5 is_stmt 1
	movl	$1, %edx
	callq	___rust_dealloc
Ltmp266:
LBB3_118:
	.loc	3 178 1
	movq	376(%r14), %rdi
Ltmp267:
	testq	%rdi, %rdi
	je	LBB3_119
Ltmp268:
	.loc	3 178 1 is_stmt 0
	movq	384(%r14), %rsi
Ltmp269:
	.loc	5 200 40 is_stmt 1
	testq	%rsi, %rsi
	.loc	5 200 9 is_stmt 0
	je	LBB3_119
Ltmp270:
	.loc	6 102 5 is_stmt 1
	movl	$1, %edx
	callq	___rust_dealloc
Ltmp271:
LBB3_119:
	.loc	7 1346 12
	movq	400(%r14), %rax
Ltmp272:
	.loc	8 2314 20
	lock		decq	(%rax)
Ltmp273:
	.loc	7 1346 9
	jne	LBB3_120
Ltmp274:
	.loc	3 0 0 is_stmt 0
	addq	$400, %r14
Ltmp275:
	.loc	8 2563 24 is_stmt 1
	##MEMBARRIER
Ltmp276:
	.loc	7 1381 13
	movq	%r14, %rdi
	popq	%rbx
	popq	%r12
	popq	%r14
Ltmp277:
	popq	%r15
	popq	%rbp
	jmp	__ZN5alloc4sync12Arc$LT$T$GT$9drop_slow17h0cf4f327bf4cc6eeE
Ltmp278:
LBB3_120:
	.loc	3 178 1
	popq	%rbx
	popq	%r12
	popq	%r14
Ltmp279:
	popq	%r15
	popq	%rbp
	retq
Ltmp280:
Lfunc_end3:
	.cfi_endproc

	.p2align	4, 0x90
__ZN4core3ptr13drop_in_place17h79d77b10d222f19cE:
Lfunc_begin4:
	.loc	3 178 0
	.cfi_startproc
	pushq	%rbp
	.cfi_def_cfa_offset 16
	.cfi_offset %rbp, -16
	movq	%rsp, %rbp
	.cfi_def_cfa_register %rbp
	movq	%rdi, %rax
Ltmp281:
	.loc	3 178 1 prologue_end
	movq	(%rdi), %rdi
Ltmp282:
	.loc	5 532 16
	testq	%rdi, %rdi
Ltmp283:
	.loc	5 200 9
	je	LBB4_2
Ltmp284:
	.loc	3 0 0 is_stmt 0
	movq	8(%rax), %rsi
Ltmp285:
	.loc	5 200 9
	testq	%rsi, %rsi
	je	LBB4_2
Ltmp286:
	.loc	6 102 5 is_stmt 1
	movl	$1, %edx
	popq	%rbp
	jmp	___rust_dealloc
Ltmp287:
LBB4_2:
	.loc	3 178 1
	popq	%rbp
	retq
Ltmp288:
Lfunc_end4:
	.cfi_endproc

	.p2align	4, 0x90
__ZN4core3ptr13drop_in_place17hb815dc6a667d608fE:
Lfunc_begin5:
	.loc	3 178 0
	.cfi_startproc
	pushq	%rbp
	.cfi_def_cfa_offset 16
	.cfi_offset %rbp, -16
	movq	%rsp, %rbp
	.cfi_def_cfa_register %rbp
Ltmp289:
	.loc	3 178 1 prologue_end
	popq	%rbp
	retq
Ltmp290:
Lfunc_end5:
	.cfi_endproc

	.p2align	4, 0x90
__ZN5alloc3vec12Vec$LT$T$GT$4push17ha347ef3d3bffca27E:
Lfunc_begin6:
	.loc	4 1197 0
	.cfi_startproc
	.cfi_personality 155, _rust_eh_personality
	.cfi_lsda 16, Lexception0
	pushq	%rbp
	.cfi_def_cfa_offset 16
	.cfi_offset %rbp, -16
	movq	%rsp, %rbp
	.cfi_def_cfa_register %rbp
	pushq	%r15
	pushq	%r14
	pushq	%rbx
	pushq	%rax
	.cfi_offset %rbx, -40
	.cfi_offset %r14, -32
	.cfi_offset %r15, -24
	movq	%rsi, %r14
Ltmp294:
	movq	%rdi, %rbx
Ltmp295:
	.loc	4 1200 12 prologue_end
	movq	16(%rdi), %rcx
Ltmp296:
	cmpq	8(%rdi), %rcx
	.loc	4 1200 9 is_stmt 0
	jne	LBB6_18
Ltmp297:
	.file	9 "/rustc/a74d1862d4d87a56244958416fd05976c58ca1a8/src/libcore/num/mod.rs"
	.loc	9 3632 30 is_stmt 1
	movq	%rcx, %rax
	incq	%rax
Ltmp298:
	.file	10 "/rustc/a74d1862d4d87a56244958416fd05976c58ca1a8/src/libcore/option.rs"
	.loc	10 540 13
	je	LBB6_19
Ltmp299:
	.loc	5 414 26
	leaq	(%rcx,%rcx), %rdx
Ltmp300:
	.file	11 "/rustc/a74d1862d4d87a56244958416fd05976c58ca1a8/src/libcore/cmp.rs"
	.loc	11 1017 9
	cmpq	%rax, %rdx
	.loc	11 0 0 is_stmt 0
	cmovaq	%rdx, %rax
Ltmp301:
	movl	$24, %edx
Ltmp302:
	.file	12 "/rustc/a74d1862d4d87a56244958416fd05976c58ca1a8/src/libcore/alloc/layout.rs"
	.loc	12 250 85 is_stmt 1
	xorl	%esi, %esi
Ltmp303:
	.loc	9 3688 26
	mulq	%rdx
Ltmp304:
	movq	%rax, %r15
Ltmp305:
	.loc	9 0 26 is_stmt 0
	seto	%dl
Ltmp306:
	.loc	12 250 85 is_stmt 1
	setno	%dil
Ltmp307:
	.loc	5 200 9
	movq	%rcx, %rax
	.loc	5 200 40 is_stmt 0
	testq	%rcx, %rcx
	.loc	5 200 9
	je	LBB6_4
Ltmp308:
	.loc	5 0 9
	movq	(%rbx), %rax
Ltmp309:
LBB6_4:
	.file	13 "/rustc/a74d1862d4d87a56244958416fd05976c58ca1a8/src/libcore/result.rs"
	.loc	13 611 13 is_stmt 1
	testb	%dl, %dl
	jne	LBB6_19
Ltmp310:
	.loc	5 489 25
	testq	%rax, %rax
	je	LBB6_11
Ltmp311:
	.loc	5 0 0 is_stmt 0
	leaq	(,%rcx,8), %rdx
Ltmp312:
	leaq	(%rdx,%rdx,2), %rsi
Ltmp313:
	.loc	6 205 12 is_stmt 1
	cmpq	%r15, %rsi
	.loc	6 205 9 is_stmt 0
	je	LBB6_15
Ltmp314:
	.loc	6 211 42 is_stmt 1
	testq	%rsi, %rsi
	je	LBB6_8
Ltmp315:
	.loc	6 124 5
	movl	$8, %edx
	movq	%rax, %rdi
	movq	%r15, %rcx
Ltmp316:
	callq	___rust_realloc
Ltmp317:
	.loc	13 611 13
	testq	%rax, %rax
	jne	LBB6_16
	jmp	LBB6_21
Ltmp318:
LBB6_11:
	.loc	5 0 0 is_stmt 0
	movb	%dil, %sil
	shlq	$3, %rsi
Ltmp319:
	.loc	6 170 16 is_stmt 1
	testq	%r15, %r15
	.loc	6 170 13 is_stmt 0
	jne	LBB6_14
Ltmp320:
	.loc	5 0 0
	movq	%rsi, %rax
Ltmp321:
	.loc	13 611 13 is_stmt 1
	testq	%rax, %rax
	jne	LBB6_16
	jmp	LBB6_21
Ltmp322:
LBB6_8:
	.loc	6 170 16
	testq	%r15, %r15
	.loc	6 170 13 is_stmt 0
	je	LBB6_9
Ltmp323:
	.loc	6 80 5 is_stmt 1
	movl	$8, %esi
Ltmp324:
LBB6_14:
	.loc	5 0 0 is_stmt 0
	movq	%r15, %rdi
	callq	___rust_alloc
Ltmp325:
LBB6_15:
	.loc	13 611 13 is_stmt 1
	testq	%rax, %rax
	je	LBB6_21
Ltmp326:
LBB6_16:
	.loc	4 1204 45
	movq	16(%rbx), %rcx
Ltmp327:
LBB6_17:
	.loc	5 387 9
	movq	%rax, (%rbx)
	movabsq	$-6148914691236517205, %rdx
Ltmp328:
	.loc	5 383 9
	movq	%r15, %rax
Ltmp329:
	mulq	%rdx
	shrq	$4, %rdx
Ltmp330:
	.loc	5 388 9
	movq	%rdx, 8(%rbx)
Ltmp331:
LBB6_18:
	.loc	4 850 19
	movq	(%rbx), %rax
Ltmp332:
	.file	14 "/rustc/a74d1862d4d87a56244958416fd05976c58ca1a8/src/libcore/ptr/mut_ptr.rs"
	.loc	14 152 9
	leaq	(%rcx,%rcx,2), %rcx
Ltmp333:
	.loc	3 836 42
	movq	16(%r14), %rdx
	movq	%rdx, 16(%rax,%rcx,8)
	movq	(%r14), %rdx
	movq	8(%r14), %rsi
	movq	%rsi, 8(%rax,%rcx,8)
	movq	%rdx, (%rax,%rcx,8)
Ltmp334:
	.loc	4 1206 13
	incq	16(%rbx)
Ltmp335:
	.loc	4 1208 6
	addq	$8, %rsp
	popq	%rbx
Ltmp336:
	popq	%r14
Ltmp337:
	popq	%r15
	popq	%rbp
	retq
Ltmp338:
LBB6_9:
	.loc	4 0 6 is_stmt 0
	movl	$8, %eax
Ltmp339:
	jmp	LBB6_17
Ltmp340:
LBB6_19:
Ltmp291:
	.loc	5 268 38 is_stmt 1
	callq	__ZN5alloc7raw_vec17capacity_overflow17h023f34f5bc34c61fE
Ltmp341:
Ltmp292:
	ud2
Ltmp342:
LBB6_21:
	.loc	5 269 47
	movl	$8, %esi
	movq	%r15, %rdi
	callq	__ZN5alloc5alloc18handle_alloc_error17hbc0ab0ed90816c07E
Ltmp343:
LBB6_22:
Ltmp293:
	.loc	5 0 47 is_stmt 0
	movq	%rax, %rbx
Ltmp344:
	.loc	4 1208 5 is_stmt 1
	movq	%r14, %rdi
	callq	__ZN4core3ptr13drop_in_place17h79d77b10d222f19cE
	movq	%rbx, %rdi
	callq	__Unwind_Resume
	ud2
Ltmp345:
Lfunc_end6:
	.cfi_endproc
	.file	15 "/rustc/a74d1862d4d87a56244958416fd05976c58ca1a8/src/libcore/macros/mod.rs"
	.section	__TEXT,__gcc_except_tab
	.p2align	2
GCC_except_table6:
Lexception0:
	.byte	255
	.byte	255
	.byte	1
	.uleb128 Lcst_end0-Lcst_begin0
Lcst_begin0:
	.uleb128 Ltmp291-Lfunc_begin6
	.uleb128 Ltmp292-Ltmp291
	.uleb128 Ltmp293-Lfunc_begin6
	.byte	0
	.uleb128 Ltmp292-Lfunc_begin6
	.uleb128 Lfunc_end6-Ltmp292
	.byte	0
	.byte	0
Lcst_end0:
	.p2align	2

	.section	__TEXT,__text,regular,pure_instructions
	.p2align	4, 0x90
__ZN5alloc4sync12Arc$LT$T$GT$9drop_slow17h0cf4f327bf4cc6eeE:
Lfunc_begin7:
	.loc	7 866 0
	.cfi_startproc
	pushq	%rbp
	.cfi_def_cfa_offset 16
	.cfi_offset %rbp, -16
	movq	%rsp, %rbp
	.cfi_def_cfa_register %rbp
	pushq	%r15
	pushq	%r14
	pushq	%r13
	pushq	%r12
	pushq	%rbx
	subq	$24, %rsp
	.cfi_offset %rbx, -56
	.cfi_offset %r12, -48
	.cfi_offset %r13, -40
	.cfi_offset %r14, -32
	.cfi_offset %r15, -24
	movq	%rdi, %rbx
Ltmp346:
	.loc	7 869 33 prologue_end
	movq	(%rdi), %r14
Ltmp347:
	.file	16 "/rustc/a74d1862d4d87a56244958416fd05976c58ca1a8/src/libstd/sync/mutex.rs"
	.loc	16 373 18
	movq	16(%r14), %rdi
Ltmp348:
	.file	17 "/rustc/a74d1862d4d87a56244958416fd05976c58ca1a8/src/libstd/sys/unix/mutex.rs"
	.loc	17 78 17
	callq	_pthread_mutex_destroy
Ltmp349:
	.loc	3 178 1
	movq	16(%r14), %rdi
Ltmp350:
	.loc	6 102 5
	movl	$64, %esi
	movl	$8, %edx
	callq	___rust_dealloc
Ltmp351:
	.file	18 "/Users/runner/.cargo/registry/src/github.com-1ecc6299db9ec823/hashbrown-0.6.2/src/raw/mod.rs"
	.loc	18 932 9
	movq	48(%r14), %rax
	testq	%rax, %rax
Ltmp352:
	.loc	18 1037 9
	je	LBB7_18
Ltmp353:
	.loc	18 0 9 is_stmt 0
	movq	%rbx, -48(%rbp)
Ltmp354:
	.loc	18 943 37 is_stmt 1
	movq	56(%r14), %rbx
Ltmp355:
	.loc	18 0 37 is_stmt 0
	movq	%r14, -56(%rbp)
Ltmp356:
	.loc	18 941 44 is_stmt 1
	movq	64(%r14), %r12
Ltmp357:
	.file	19 "/rustc/a74d1862d4d87a56244958416fd05976c58ca1a8/src/libcore/ptr/const_ptr.rs"
	.loc	19 158 9
	leaq	1(%rax,%rbx), %r13
Ltmp358:
	.file	20 "/rustc/a74d1862d4d87a56244958416fd05976c58ca1a8/src/libcore/../stdarch/crates/core_arch/src/x86/sse2.rs"
	.loc	20 1204 5
	movdqa	(%rbx), %xmm0
Ltmp359:
	.loc	20 1401 5
	pmovmskb	%xmm0, %r14d
Ltmp360:
	.file	21 "/Users/runner/.cargo/registry/src/github.com-1ecc6299db9ec823/hashbrown-0.6.2/src/raw/bitmask.rs"
	.loc	21 25 17
	notl	%r14d
Ltmp361:
	.loc	19 158 9
	addq	$16, %rbx
Ltmp362:
	.p2align	4, 0x90
LBB7_2:
	.loc	21 43 12
	testw	%r14w, %r14w
	.loc	21 43 9 is_stmt 0
	jne	LBB7_6
Ltmp363:
	.p2align	4, 0x90
LBB7_3:
	.loc	18 1195 20 is_stmt 1
	cmpq	%r13, %rbx
	.loc	18 1195 17 is_stmt 0
	jae	LBB7_12
Ltmp364:
	.loc	20 1204 5 is_stmt 1
	movdqa	(%rbx), %xmm0
Ltmp365:
	.loc	20 1401 5
	pmovmskb	%xmm0, %r14d
Ltmp366:
	.loc	18 303 9
	addq	$768, %r12
Ltmp367:
	.loc	19 158 9
	addq	$16, %rbx
Ltmp368:
	.loc	21 43 12
	cmpw	$-1, %r14w
	.loc	21 43 9 is_stmt 0
	je	LBB7_3
Ltmp369:
	.loc	21 25 17 is_stmt 1
	notl	%r14d
Ltmp370:
LBB7_6:
	.loc	21 55 9
	movl	%r14d, %eax
	bsfw	%r14w, %cx
	movzwl	%cx, %ecx
Ltmp371:
	.loc	21 32 26
	leal	-1(%rax), %r14d
Ltmp372:
	.loc	21 32 17 is_stmt 0
	andl	%eax, %r14d
Ltmp373:
	.loc	18 303 9 is_stmt 1
	leaq	(%rcx,%rcx,2), %r15
	shlq	$4, %r15
Ltmp374:
	.loc	3 178 1
	movq	(%r12,%r15), %rdi
Ltmp375:
	.loc	5 532 16
	testq	%rdi, %rdi
Ltmp376:
	.loc	5 200 9
	je	LBB7_9
Ltmp377:
	.loc	3 0 0 is_stmt 0
	movq	8(%r12,%r15), %rsi
Ltmp378:
	.loc	5 200 9
	testq	%rsi, %rsi
	je	LBB7_9
Ltmp379:
	.loc	6 102 5 is_stmt 1
	movl	$1, %edx
	callq	___rust_dealloc
Ltmp380:
LBB7_9:
	.loc	3 178 1
	movq	24(%r12,%r15), %rdi
Ltmp381:
	testq	%rdi, %rdi
	je	LBB7_2
Ltmp382:
	.loc	3 178 1 is_stmt 0
	movq	32(%r12,%r15), %rsi
Ltmp383:
	.loc	5 200 40 is_stmt 1
	testq	%rsi, %rsi
	.loc	5 200 9 is_stmt 0
	je	LBB7_2
Ltmp384:
	.loc	6 102 5 is_stmt 1
	movl	$1, %edx
	callq	___rust_dealloc
Ltmp385:
	.loc	21 43 12
	testw	%r14w, %r14w
	jne	LBB7_6
	jmp	LBB7_3
Ltmp386:
LBB7_12:
	.loc	21 0 12 is_stmt 0
	movq	-56(%rbp), %r8
Ltmp387:
	.loc	18 919 9 is_stmt 1
	movq	48(%r8), %rcx
	leaq	1(%rcx), %rax
Ltmp388:
	.loc	18 0 9 is_stmt 0
	movl	$48, %edx
Ltmp389:
	.loc	12 250 85 is_stmt 1
	xorl	%esi, %esi
Ltmp390:
	.loc	9 3688 26
	mulq	%rdx
Ltmp391:
	.loc	12 250 85
	setno	%dl
Ltmp392:
	.loc	18 223 48
	jno	LBB7_14
Ltmp393:
	.loc	18 0 48 is_stmt 0
	xorl	%edx, %edx
	movq	-48(%rbp), %rbx
	jmp	LBB7_17
Ltmp394:
LBB7_14:
	movb	%dl, %sil
	shlq	$3, %rsi
Ltmp395:
	.loc	9 3343 17 is_stmt 1
	leaq	16(%rcx,%rsi), %rdx
Ltmp396:
	.loc	18 233 59
	addq	$17, %rcx
Ltmp397:
	.loc	12 212 72
	negq	%rsi
Ltmp398:
	.loc	12 212 30 is_stmt 0
	andq	%rdx, %rsi
Ltmp399:
	.loc	9 3343 17 is_stmt 1
	subq	%rcx, %rsi
Ltmp400:
	.loc	9 3632 30
	addq	%rcx, %rsi
Ltmp401:
	.loc	9 0 30 is_stmt 0
	movq	-48(%rbp), %rbx
Ltmp402:
	.loc	12 308 83 is_stmt 1
	jae	LBB7_16
Ltmp403:
	.loc	12 0 83 is_stmt 0
	xorl	%edx, %edx
	jmp	LBB7_17
Ltmp404:
LBB7_16:
	.loc	9 3632 30 is_stmt 1
	leaq	(%rsi,%rax), %rcx
	xorl	%edi, %edi
	cmpq	$-15, %rcx
	setb	%dil
Ltmp405:
	.loc	12 309 88
	shlq	$4, %rdi
	xorl	%edx, %edx
Ltmp406:
	.loc	9 3632 30
	addq	%rax, %rsi
Ltmp407:
	.loc	12 309 88
	cmovaeq	%rdi, %rdx
Ltmp408:
LBB7_17:
	.loc	18 427 17
	movq	56(%r8), %rdi
Ltmp409:
	.loc	6 102 5
	callq	___rust_dealloc
Ltmp410:
LBB7_18:
	.loc	7 871 12
	movq	(%rbx), %rax
Ltmp411:
	.loc	8 2314 20
	lock		decq	8(%rax)
Ltmp412:
	.loc	7 871 9
	jne	LBB7_19
Ltmp413:
	.loc	8 2563 24
	##MEMBARRIER
Ltmp414:
	.loc	7 873 28
	movq	(%rbx), %rdi
Ltmp415:
	.loc	6 102 5
	movl	$88, %esi
	movl	$8, %edx
	addq	$24, %rsp
	popq	%rbx
	popq	%r12
	popq	%r13
	popq	%r14
	popq	%r15
	popq	%rbp
	jmp	___rust_dealloc
Ltmp416:
LBB7_19:
	.loc	7 875 6
	addq	$24, %rsp
	popq	%rbx
	popq	%r12
	popq	%r13
	popq	%r14
	popq	%r15
	popq	%rbp
	retq
Ltmp417:
Lfunc_end7:
	.cfi_endproc
	.file	22 "/rustc/a74d1862d4d87a56244958416fd05976c58ca1a8/src/libstd/sys_common/mutex.rs"
	.file	23 "/Users/runner/.cargo/registry/src/github.com-1ecc6299db9ec823/hashbrown-0.6.2/src/raw/sse2.rs"

	.p2align	4, 0x90
__ZN5alloc4sync12Arc$LT$T$GT$9drop_slow17h267c9fe3e3208c81E:
Lfunc_begin8:
	.loc	7 866 0
	.cfi_startproc
	pushq	%rbp
	.cfi_def_cfa_offset 16
	.cfi_offset %rbp, -16
	movq	%rsp, %rbp
	.cfi_def_cfa_register %rbp
	pushq	%r15
	pushq	%r14
	pushq	%r13
	pushq	%r12
	pushq	%rbx
	pushq	%rax
	.cfi_offset %rbx, -56
	.cfi_offset %r12, -48
	.cfi_offset %r13, -40
	.cfi_offset %r14, -32
	.cfi_offset %r15, -24
	movq	%rdi, %rbx
Ltmp418:
	.loc	7 869 33 prologue_end
	movq	(%rdi), %r15
Ltmp419:
	.loc	16 373 18
	movq	16(%r15), %rdi
Ltmp420:
	.loc	17 78 17
	callq	_pthread_mutex_destroy
Ltmp421:
	.loc	3 178 1
	movq	16(%r15), %rdi
Ltmp422:
	.loc	6 102 5
	movl	$64, %esi
	movl	$8, %edx
	callq	___rust_dealloc
Ltmp423:
	.loc	18 932 9
	movq	48(%r15), %rax
	testq	%rax, %rax
Ltmp424:
	.loc	18 1037 9
	je	LBB8_15
Ltmp425:
	.loc	18 0 9 is_stmt 0
	movq	%rbx, -48(%rbp)
Ltmp426:
	.loc	18 943 37 is_stmt 1
	movq	56(%r15), %rbx
Ltmp427:
	.loc	18 941 44
	movq	64(%r15), %r12
Ltmp428:
	.loc	19 158 9
	leaq	1(%rax,%rbx), %r13
Ltmp429:
	.loc	20 1204 5
	movdqa	(%rbx), %xmm0
Ltmp430:
	.loc	20 1401 5
	pmovmskb	%xmm0, %r14d
Ltmp431:
	.loc	21 25 17
	notl	%r14d
Ltmp432:
	.loc	19 158 9
	addq	$16, %rbx
Ltmp433:
	.p2align	4, 0x90
LBB8_2:
	.loc	21 43 12
	testw	%r14w, %r14w
	.loc	21 43 9 is_stmt 0
	jne	LBB8_6
Ltmp434:
	.p2align	4, 0x90
LBB8_3:
	.loc	18 1195 20 is_stmt 1
	cmpq	%r13, %rbx
	.loc	18 1195 17 is_stmt 0
	jae	LBB8_9
Ltmp435:
	.loc	20 1204 5 is_stmt 1
	movdqa	(%rbx), %xmm0
Ltmp436:
	.loc	20 1401 5
	pmovmskb	%xmm0, %r14d
Ltmp437:
	.loc	18 303 9
	addq	$512, %r12
Ltmp438:
	.loc	19 158 9
	addq	$16, %rbx
Ltmp439:
	.loc	21 43 12
	cmpw	$-1, %r14w
	.loc	21 43 9 is_stmt 0
	je	LBB8_3
Ltmp440:
	.loc	21 25 17 is_stmt 1
	notl	%r14d
Ltmp441:
LBB8_6:
	.loc	21 55 9
	bsfw	%r14w, %ax
	movzwl	%ax, %eax
Ltmp442:
	.loc	21 32 26
	leal	-1(%r14), %ecx
	.loc	21 32 17 is_stmt 0
	andl	%r14d, %ecx
	movl	%ecx, %r14d
Ltmp443:
	.loc	18 303 9 is_stmt 1
	shlq	$5, %rax
Ltmp444:
	.loc	3 178 1
	movq	(%r12,%rax), %rdi
Ltmp445:
	.loc	5 532 16
	testq	%rdi, %rdi
Ltmp446:
	.loc	5 200 9
	je	LBB8_2
Ltmp447:
	.loc	3 0 0 is_stmt 0
	movq	8(%r12,%rax), %rsi
Ltmp448:
	.loc	5 200 9
	testq	%rsi, %rsi
	je	LBB8_2
Ltmp449:
	.loc	6 102 5 is_stmt 1
	movl	$1, %edx
	callq	___rust_dealloc
Ltmp450:
	.loc	21 43 12
	testw	%r14w, %r14w
	jne	LBB8_6
	jmp	LBB8_3
Ltmp451:
LBB8_9:
	.loc	18 919 9
	movq	48(%r15), %rcx
	leaq	1(%rcx), %rax
Ltmp452:
	.loc	18 0 9 is_stmt 0
	movl	$32, %edx
Ltmp453:
	.loc	12 250 85 is_stmt 1
	xorl	%esi, %esi
Ltmp454:
	.loc	9 3688 26
	mulq	%rdx
Ltmp455:
	.loc	12 250 85
	setno	%dl
Ltmp456:
	.loc	18 223 48
	jno	LBB8_11
Ltmp457:
	.loc	18 0 48 is_stmt 0
	xorl	%edx, %edx
	movq	-48(%rbp), %rbx
	jmp	LBB8_14
Ltmp458:
LBB8_11:
	movb	%dl, %sil
	shlq	$3, %rsi
Ltmp459:
	.loc	9 3343 17 is_stmt 1
	leaq	16(%rcx,%rsi), %rdx
Ltmp460:
	.loc	18 233 59
	addq	$17, %rcx
Ltmp461:
	.loc	12 212 72
	negq	%rsi
Ltmp462:
	.loc	12 212 30 is_stmt 0
	andq	%rdx, %rsi
Ltmp463:
	.loc	9 3343 17 is_stmt 1
	subq	%rcx, %rsi
Ltmp464:
	.loc	9 3632 30
	addq	%rcx, %rsi
Ltmp465:
	.loc	9 0 30 is_stmt 0
	movq	-48(%rbp), %rbx
Ltmp466:
	.loc	12 308 83 is_stmt 1
	jae	LBB8_13
Ltmp467:
	.loc	12 0 83 is_stmt 0
	xorl	%edx, %edx
	jmp	LBB8_14
Ltmp468:
LBB8_13:
	.loc	9 3632 30 is_stmt 1
	leaq	(%rsi,%rax), %rcx
	xorl	%edi, %edi
	cmpq	$-15, %rcx
	setb	%dil
Ltmp469:
	.loc	12 309 88
	shlq	$4, %rdi
	xorl	%edx, %edx
Ltmp470:
	.loc	9 3632 30
	addq	%rax, %rsi
Ltmp471:
	.loc	12 309 88
	cmovaeq	%rdi, %rdx
Ltmp472:
LBB8_14:
	.loc	18 427 17
	movq	56(%r15), %rdi
Ltmp473:
	.loc	6 102 5
	callq	___rust_dealloc
Ltmp474:
LBB8_15:
	.loc	7 871 12
	movq	(%rbx), %rax
Ltmp475:
	.loc	8 2314 20
	lock		decq	8(%rax)
Ltmp476:
	.loc	7 871 9
	jne	LBB8_16
Ltmp477:
	.loc	8 2563 24
	##MEMBARRIER
Ltmp478:
	.loc	7 873 28
	movq	(%rbx), %rdi
Ltmp479:
	.loc	6 102 5
	movl	$88, %esi
	movl	$8, %edx
	addq	$8, %rsp
	popq	%rbx
	popq	%r12
	popq	%r13
	popq	%r14
	popq	%r15
	popq	%rbp
	jmp	___rust_dealloc
Ltmp480:
LBB8_16:
	.loc	7 875 6
	addq	$8, %rsp
	popq	%rbx
	popq	%r12
	popq	%r13
	popq	%r14
	popq	%r15
	popq	%rbp
	retq
Ltmp481:
Lfunc_end8:
	.cfi_endproc

	.p2align	4, 0x90
__ZN18build_script_build4main17h92da7b3c9a7139c8E:
Lfunc_begin9:
	.file	24 "/Users/yingyuhang/Desktop/\345\255\246\344\271\240/Rust-numerical-library/Numerical-Lib/build.rs"
	.loc	24 5 0
	.cfi_startproc
	.cfi_personality 155, _rust_eh_personality
	.cfi_lsda 16, Lexception1
	pushq	%rbp
	.cfi_def_cfa_offset 16
	.cfi_offset %rbp, -16
	movq	%rsp, %rbp
	.cfi_def_cfa_register %rbp
	pushq	%rbx
	subq	$456, %rsp
	.cfi_offset %rbx, -24
Ltmp495:
	leaq	-456(%rbp), %rdi
Ltmp496:
	.loc	24 8 5 prologue_end
	callq	__ZN2cc5Build3new17h4a537163d9560435E
Ltmp497:
Ltmp482:
	.file	25 "/Users/yingyuhang/.cargo/registry/src/github.com-1ecc6299db9ec823/cc-1.0.58/src/lib.rs"
	.loc	25 544 25
	leaq	l___unnamed_2(%rip), %rsi
	leaq	-32(%rbp), %rdi
	movl	$10, %edx
	callq	__ZN3std4path4Path11to_path_buf17h16395a813cb8e035E
Ltmp483:
Ltmp498:
	.loc	25 544 9 is_stmt 0
	leaq	-304(%rbp), %rdi
Ltmp484:
	leaq	-32(%rbp), %rsi
	callq	__ZN5alloc3vec12Vec$LT$T$GT$4push17ha347ef3d3bffca27E
Ltmp485:
Ltmp499:
Ltmp486:
	.file	26 "/rustc/a74d1862d4d87a56244958416fd05976c58ca1a8/src/libcore/convert/mod.rs"
	.loc	26 510 9 is_stmt 1
	leaq	l___unnamed_3(%rip), %rdi
Ltmp500:
	movl	$61, %esi
	callq	__ZN79_$LT$std..path..Path$u20$as$u20$core..convert..AsRef$LT$std..path..Path$GT$$GT$6as_ref17hac3cfd740319a069E
Ltmp501:
Ltmp487:
Ltmp488:
	.loc	26 0 9 is_stmt 0
	leaq	-32(%rbp), %rdi
	.loc	25 334 39 is_stmt 1
	movq	%rax, %rsi
	callq	__ZN3std4path4Path11to_path_buf17h16395a813cb8e035E
Ltmp489:
Ltmp502:
Ltmp490:
	.loc	25 0 39 is_stmt 0
	leaq	-456(%rbp), %rdi
	leaq	-32(%rbp), %rsi
	.loc	25 334 9
	callq	__ZN5alloc3vec12Vec$LT$T$GT$4push17ha347ef3d3bffca27E
Ltmp491:
Ltmp503:
Ltmp492:
	.loc	24 8 5 is_stmt 1
	leaq	L___unnamed_4(%rip), %rsi
	leaq	-456(%rbp), %rdi
	movl	$8, %edx
	callq	__ZN2cc5Build7compile17hddd53e6f1cc5f323E
Ltmp493:
Ltmp504:
	.loc	24 0 5 is_stmt 0
	leaq	-456(%rbp), %rdi
	.loc	24 11 29 is_stmt 1
	callq	__ZN4core3ptr13drop_in_place17h10a66bd4ffeaf678E
Ltmp505:
	.loc	24 12 2
	addq	$456, %rsp
	popq	%rbx
	popq	%rbp
	retq
Ltmp506:
LBB9_7:
Ltmp494:
	.loc	24 0 2 is_stmt 0
	movq	%rax, %rbx
	leaq	-456(%rbp), %rdi
Ltmp507:
	.loc	24 11 29 is_stmt 1
	callq	__ZN4core3ptr13drop_in_place17h10a66bd4ffeaf678E
	movq	%rbx, %rdi
	callq	__Unwind_Resume
	ud2
Ltmp508:
Lfunc_end9:
	.cfi_endproc
	.section	__TEXT,__gcc_except_tab
	.p2align	2
GCC_except_table9:
Lexception1:
	.byte	255
	.byte	255
	.byte	1
	.uleb128 Lcst_end1-Lcst_begin1
Lcst_begin1:
	.uleb128 Lfunc_begin9-Lfunc_begin9
	.uleb128 Ltmp482-Lfunc_begin9
	.byte	0
	.byte	0
	.uleb128 Ltmp482-Lfunc_begin9
	.uleb128 Ltmp493-Ltmp482
	.uleb128 Ltmp494-Lfunc_begin9
	.byte	0
	.uleb128 Ltmp493-Lfunc_begin9
	.uleb128 Lfunc_end9-Ltmp493
	.byte	0
	.byte	0
Lcst_end1:
	.p2align	2

	.section	__TEXT,__text,regular,pure_instructions
	.globl	_main
	.p2align	4, 0x90
_main:
Lfunc_begin10:
	.cfi_startproc
	pushq	%rbp
	.cfi_def_cfa_offset 16
	.cfi_offset %rbp, -16
	movq	%rsp, %rbp
	.cfi_def_cfa_register %rbp
	subq	$16, %rsp
	movq	%rsi, %rcx
	movslq	%edi, %rdx
	leaq	__ZN18build_script_build4main17h92da7b3c9a7139c8E(%rip), %rax
	movq	%rax, -8(%rbp)
	leaq	l___unnamed_1(%rip), %rsi
	leaq	-8(%rbp), %rdi
	callq	__ZN3std2rt19lang_start_internal17hebefdaa8fd585aefE
	addq	$16, %rsp
	popq	%rbp
	retq
Lfunc_end10:
	.cfi_endproc

	.section	__DATA,__const
	.p2align	3
l___unnamed_1:
	.quad	__ZN4core3ptr13drop_in_place17hb815dc6a667d608fE
	.quad	8
	.quad	8
	.quad	__ZN3std2rt10lang_start28_$u7b$$u7b$closure$u7d$$u7d$17hd1df7bc039162596E
	.quad	__ZN3std2rt10lang_start28_$u7b$$u7b$closure$u7d$$u7d$17hd1df7bc039162596E
	.quad	__ZN4core3ops8function6FnOnce40call_once$u7b$$u7b$vtable.shim$u7d$$u7d$17h79581cf2625ee7b2E

	.section	__TEXT,__const
l___unnamed_3:
	.ascii	"/opt/intel/compilers_and_libraries_2020.1.216/mac/mkl/include"

l___unnamed_2:
	.ascii	"src/main.c"

	.section	__TEXT,__literal8,8byte_literals
L___unnamed_4:
	.ascii	"MKL-Rust"

	.section	__DATA,__const
Lsec_end0:
	.section	__TEXT,__text,regular,pure_instructions
Lsec_end1: