	.section	__TEXT,__text,regular,pure_instructions
	.macosx_version_min 10, 7
	.intel_syntax noprefix
	.p2align	4, 0x90
__ZN112_$LT$alloc..collections..btree..map..IntoIter$LT$K$C$V$GT$$u20$as$u20$core..iter..traits..iterator..Iterator$GT$4next17h8781dc9e861cbfbeE:
	.cfi_startproc
	push	rbp
	.cfi_def_cfa_offset 16
	.cfi_offset rbp, -16
	mov	rbp, rsp
	.cfi_def_cfa_register rbp
	push	r15
	push	r14
	push	r13
	push	r12
	push	rbx
	sub	rsp, 120
	.cfi_offset rbx, -56
	.cfi_offset r12, -48
	.cfi_offset r13, -40
	.cfi_offset r14, -32
	.cfi_offset r15, -24
	mov	r9, rdi
	mov	rax, qword ptr [rsi + 64]
	test	rax, rax
	je	LBB0_21
	mov	r12, rsi
	dec	rax
	mov	qword ptr [rsi + 64], rax
	mov	rax, qword ptr [rsi + 8]
	test	rax, rax
	cmove	r12, rax
	je	LBB0_23
	mov	rax, qword ptr [r12]
	mov	rdi, qword ptr [r12 + 8]
	mov	r10, qword ptr [r12 + 16]
	mov	r13, qword ptr [r12 + 24]
	movzx	ecx, word ptr [rdi + 10]
	cmp	r13, rcx
	jae	LBB0_4
	mov	rbx, rax
	jmp	LBB0_10
LBB0_21:
	mov	qword ptr [r9], 0
	jmp	LBB0_22
LBB0_4:
	mov	qword ptr [rbp - 48], r10
	mov	qword ptr [rbp - 56], r9
	mov	r15d, 544
	mov	r14, qword ptr [rdi]
	test	r14, r14
	je	LBB0_6
	.p2align	4, 0x90
LBB0_7:
	lea	rbx, [rax + 1]
	movzx	r13d, word ptr [rdi + 8]
LBB0_8:
	test	rax, rax
	mov	esi, 640
	cmove	rsi, r15
	mov	edx, 8
	call	___rust_dealloc
	movzx	ecx, word ptr [r14 + 10]
	mov	rax, rbx
	mov	rdi, r14
	cmp	r13, rcx
	jb	LBB0_9
	mov	r14, qword ptr [rdi]
	test	r14, r14
	jne	LBB0_7
LBB0_6:
	mov	rbx, rax
	xor	r14d, r14d
	jmp	LBB0_8
LBB0_9:
	mov	rdi, r14
	mov	r9, qword ptr [rbp - 56]
	mov	r10, qword ptr [rbp - 48]
LBB0_10:
	lea	rax, [r13 + 2*r13]
	mov	rcx, qword ptr [rdi + 8*rax + 32]
	mov	qword ptr [rbp - 64], rcx
	mov	rcx, qword ptr [rdi + 8*rax + 16]
	mov	rdx, qword ptr [rdi + 8*rax + 24]
	mov	qword ptr [rbp - 72], rdx
	mov	qword ptr [rbp - 80], rcx
	mov	rcx, qword ptr [rdi + 8*rax + 296]
	mov	qword ptr [rbp - 88], rcx
	mov	rcx, qword ptr [rdi + 8*rax + 280]
	mov	rax, qword ptr [rdi + 8*rax + 288]
	mov	qword ptr [rbp - 96], rax
	mov	qword ptr [rbp - 104], rcx
	test	rbx, rbx
	je	LBB0_11
	mov	rax, rbx
	mov	rdi, qword ptr [rdi + 8*r13 + 552]
	dec	rax
	je	LBB0_13
	add	rbx, -2
	mov	rcx, rax
	and	rcx, 7
	je	LBB0_18
	xor	edx, edx
	.p2align	4, 0x90
LBB0_16:
	mov	rdi, qword ptr [rdi + 544]
	inc	rdx
	cmp	rcx, rdx
	jne	LBB0_16
	sub	rax, rdx
LBB0_18:
	xor	r13d, r13d
	cmp	rbx, 7
	jb	LBB0_20
	.p2align	4, 0x90
LBB0_19:
	mov	rcx, qword ptr [rdi + 544]
	mov	rcx, qword ptr [rcx + 544]
	mov	rcx, qword ptr [rcx + 544]
	mov	rcx, qword ptr [rcx + 544]
	mov	rcx, qword ptr [rcx + 544]
	mov	rcx, qword ptr [rcx + 544]
	mov	rcx, qword ptr [rcx + 544]
	mov	rdi, qword ptr [rcx + 544]
	add	rax, -8
	jne	LBB0_19
	jmp	LBB0_20
LBB0_11:
	inc	r13
	jmp	LBB0_20
LBB0_13:
	xor	r13d, r13d
LBB0_20:
	mov	r8, qword ptr [rbp - 64]
	mov	qword ptr [rbp - 136], r8
	mov	rcx, qword ptr [rbp - 80]
	mov	rdx, qword ptr [rbp - 72]
	mov	qword ptr [rbp - 144], rdx
	mov	qword ptr [rbp - 152], rcx
	mov	rsi, qword ptr [rbp - 104]
	mov	rbx, qword ptr [rbp - 96]
	mov	qword ptr [rbp - 128], rsi
	mov	qword ptr [rbp - 120], rbx
	mov	rax, qword ptr [rbp - 88]
	mov	qword ptr [rbp - 112], rax
	mov	qword ptr [r9 + 40], rax
	mov	qword ptr [r9 + 32], rbx
	mov	qword ptr [r9 + 24], rsi
	mov	qword ptr [r9 + 16], r8
	mov	qword ptr [r9 + 8], rdx
	mov	qword ptr [r9], rcx
	mov	qword ptr [r12], 0
	mov	qword ptr [r12 + 8], rdi
	mov	qword ptr [r12 + 16], r10
	mov	qword ptr [r12 + 24], r13
LBB0_22:
	add	rsp, 120
	pop	rbx
	pop	r12
	pop	r13
	pop	r14
	pop	r15
	pop	rbp
	ret
LBB0_23:
	lea	rdi, [rip + l___unnamed_1]
	lea	rdx, [rip + l___unnamed_2]
	mov	esi, 43
	call	__ZN4core9panicking5panic17h736ee47a631475c0E
	.cfi_endproc

	.private_extern	__ZN3std2rt10lang_start17h8dbc0eab9c811059E
	.globl	__ZN3std2rt10lang_start17h8dbc0eab9c811059E
	.p2align	4, 0x90
__ZN3std2rt10lang_start17h8dbc0eab9c811059E:
	.cfi_startproc
	push	rbp
	.cfi_def_cfa_offset 16
	.cfi_offset rbp, -16
	mov	rbp, rsp
	.cfi_def_cfa_register rbp
	sub	rsp, 16
	mov	rcx, rdx
	mov	rdx, rsi
	mov	qword ptr [rbp - 8], rdi
	lea	rsi, [rip + l___unnamed_3]
	lea	rdi, [rbp - 8]
	call	__ZN3std2rt19lang_start_internal17hebefdaa8fd585aefE
	add	rsp, 16
	pop	rbp
	ret
	.cfi_endproc

	.p2align	4, 0x90
__ZN3std2rt10lang_start28_$u7b$$u7b$closure$u7d$$u7d$17h2c95ee410cc999efE:
	.cfi_startproc
	push	rbp
	.cfi_def_cfa_offset 16
	.cfi_offset rbp, -16
	mov	rbp, rsp
	.cfi_def_cfa_register rbp
	call	qword ptr [rdi]
	xor	eax, eax
	pop	rbp
	ret
	.cfi_endproc

	.p2align	4, 0x90
__ZN44_$LT$$RF$T$u20$as$u20$core..fmt..Display$GT$3fmt17h441b8815482573c9E:
	.cfi_startproc
	push	rbp
	.cfi_def_cfa_offset 16
	.cfi_offset rbp, -16
	mov	rbp, rsp
	.cfi_def_cfa_register rbp
	mov	rdx, rsi
	mov	rax, qword ptr [rdi]
	mov	rsi, qword ptr [rdi + 8]
	mov	rdi, rax
	pop	rbp
	jmp	__ZN42_$LT$str$u20$as$u20$core..fmt..Display$GT$3fmt17hd4dee1c1c4ccf892E
	.cfi_endproc

	.p2align	4, 0x90
__ZN4core3ops8function6FnOnce40call_once$u7b$$u7b$vtable.shim$u7d$$u7d$17h5a4045c5f258e528E:
	.cfi_startproc
	push	rbp
	.cfi_def_cfa_offset 16
	.cfi_offset rbp, -16
	mov	rbp, rsp
	.cfi_def_cfa_register rbp
	call	qword ptr [rdi]
	xor	eax, eax
	pop	rbp
	ret
	.cfi_endproc

	.p2align	4, 0x90
__ZN4core3ptr13drop_in_place17h05db44d765b2856eE:
	.cfi_startproc
	push	rbp
	.cfi_def_cfa_offset 16
	.cfi_offset rbp, -16
	mov	rbp, rsp
	.cfi_def_cfa_register rbp
	test	rsi, rsi
	je	LBB5_3
	test	rdi, rdi
	je	LBB5_3
	shl	rsi, 4
	je	LBB5_3
	mov	edx, 8
	pop	rbp
	jmp	___rust_dealloc
LBB5_3:
	pop	rbp
	ret
	.cfi_endproc

	.p2align	4, 0x90
__ZN4core3ptr13drop_in_place17h0b6593a34ffd409cE:
	.cfi_startproc
	push	rbp
	.cfi_def_cfa_offset 16
	.cfi_offset rbp, -16
	mov	rbp, rsp
	.cfi_def_cfa_register rbp
	pop	rbp
	ret
	.cfi_endproc

	.p2align	4, 0x90
__ZN4core3ptr13drop_in_place17h436ce7990bacd8adE:
	.cfi_startproc
	push	rbp
	.cfi_def_cfa_offset 16
	.cfi_offset rbp, -16
	mov	rbp, rsp
	.cfi_def_cfa_register rbp
	mov	rax, qword ptr [rdi]
	test	rax, rax
	je	LBB7_2
	mov	byte ptr [rax], 0
	mov	rsi, qword ptr [rdi + 8]
	test	rsi, rsi
	je	LBB7_2
	mov	rdi, qword ptr [rdi]
	mov	edx, 1
	pop	rbp
	jmp	___rust_dealloc
LBB7_2:
	pop	rbp
	ret
	.cfi_endproc

	.p2align	4, 0x90
__ZN4core3ptr13drop_in_place17h593da21f32255860E:
	.cfi_startproc
	push	rbp
	.cfi_def_cfa_offset 16
	.cfi_offset rbp, -16
	mov	rbp, rsp
	.cfi_def_cfa_register rbp
	mov	rax, rdi
	mov	rdi, qword ptr [rdi]
	test	rdi, rdi
	je	LBB8_2
	mov	rsi, qword ptr [rax + 8]
	test	rsi, rsi
	je	LBB8_2
	mov	edx, 1
	pop	rbp
	jmp	___rust_dealloc
LBB8_2:
	pop	rbp
	ret
	.cfi_endproc

	.p2align	4, 0x90
__ZN4core3ptr13drop_in_place17h9f2f1152f1327d0aE:
Lfunc_begin0:
	.cfi_startproc
	.cfi_personality 155, _rust_eh_personality
	.cfi_lsda 16, Lexception0
	push	rbp
	.cfi_def_cfa_offset 16
	.cfi_offset rbp, -16
	mov	rbp, rsp
	.cfi_def_cfa_register rbp
	push	r15
	push	r14
	push	r13
	push	r12
	push	rbx
	push	rax
	.cfi_offset rbx, -56
	.cfi_offset r12, -48
	.cfi_offset r13, -40
	.cfi_offset r14, -32
	.cfi_offset r15, -24
	mov	r14, rdi
	mov	rbx, qword ptr [rdi]
	mov	r12, qword ptr [rdi + 16]
	test	r12, r12
	je	LBB9_7
	shl	r12, 4
	lea	r15, [rbx + r12]
	add	r12, -16
	add	rbx, 16
	jmp	LBB9_2
	.p2align	4, 0x90
LBB9_5:
	add	r12, -16
	add	rbx, 16
	add	r13, 16
	cmp	r13, r15
	je	LBB9_6
LBB9_2:
	mov	rdi, qword ptr [rbx - 16]
	mov	rax, qword ptr [rbx - 8]
Ltmp0:
	call	qword ptr [rax]
Ltmp1:
	lea	r13, [rbx - 16]
	mov	rax, qword ptr [r13 + 8]
	mov	rsi, qword ptr [rax + 8]
	test	rsi, rsi
	je	LBB9_5
	mov	rdi, qword ptr [rbx - 16]
	mov	rdx, qword ptr [rax + 16]
	call	___rust_dealloc
	jmp	LBB9_5
LBB9_6:
	mov	rbx, qword ptr [r14]
LBB9_7:
	mov	rsi, qword ptr [r14 + 8]
	test	rsi, rsi
	je	LBB9_14
	test	rbx, rbx
	je	LBB9_14
	shl	rsi, 4
	je	LBB9_14
	mov	edx, 8
	mov	rdi, rbx
	add	rsp, 8
	pop	rbx
	pop	r12
	pop	r13
	pop	r14
	pop	r15
	pop	rbp
	jmp	___rust_dealloc
LBB9_14:
	add	rsp, 8
	pop	rbx
	pop	r12
	pop	r13
	pop	r14
	pop	r15
	pop	rbp
	ret
LBB9_11:
Ltmp2:
	mov	r15, rax
	mov	rdi, qword ptr [rbx - 16]
	mov	rsi, qword ptr [rbx - 8]
	call	__ZN5alloc5alloc8box_free17h45932781509d35b6E
	test	r12, r12
	je	LBB9_16
	.p2align	4, 0x90
LBB9_12:
Ltmp3:
	mov	rdi, rbx
	call	__ZN4core3ptr13drop_in_place17hc05e36a87e7990d8E
Ltmp4:
	add	rbx, 16
	add	r12, -16
	jne	LBB9_12
	jmp	LBB9_16
LBB9_15:
Ltmp5:
	mov	r15, rax
LBB9_16:
	mov	rdi, qword ptr [r14]
	mov	rsi, qword ptr [r14 + 8]
	call	__ZN4core3ptr13drop_in_place17h05db44d765b2856eE
	mov	rdi, r15
	call	__Unwind_Resume
	ud2
Lfunc_end0:
	.cfi_endproc
	.section	__TEXT,__gcc_except_tab
	.p2align	2
GCC_except_table9:
Lexception0:
	.byte	255
	.byte	255
	.byte	1
	.uleb128 Lcst_end0-Lcst_begin0
Lcst_begin0:
	.uleb128 Ltmp0-Lfunc_begin0
	.uleb128 Ltmp1-Ltmp0
	.uleb128 Ltmp2-Lfunc_begin0
	.byte	0
	.uleb128 Ltmp3-Lfunc_begin0
	.uleb128 Ltmp4-Ltmp3
	.uleb128 Ltmp5-Lfunc_begin0
	.byte	0
	.uleb128 Ltmp4-Lfunc_begin0
	.uleb128 Lfunc_end0-Ltmp4
	.byte	0
	.byte	0
Lcst_end0:
	.p2align	2

	.section	__TEXT,__text,regular,pure_instructions
	.p2align	4, 0x90
__ZN4core3ptr13drop_in_place17ha260a91406b4c557E:
	.cfi_startproc
	push	rbp
	.cfi_def_cfa_offset 16
	.cfi_offset rbp, -16
	mov	rbp, rsp
	.cfi_def_cfa_register rbp
	mov	rax, rdi
	mov	rdi, qword ptr [rdi]
	test	rdi, rdi
	je	LBB10_2
	mov	rsi, qword ptr [rax + 8]
	test	rsi, rsi
	je	LBB10_2
	mov	edx, 1
	pop	rbp
	jmp	___rust_dealloc
LBB10_2:
	pop	rbp
	ret
	.cfi_endproc

	.p2align	4, 0x90
__ZN4core3ptr13drop_in_place17hc05e36a87e7990d8E:
Lfunc_begin1:
	.cfi_startproc
	.cfi_personality 155, _rust_eh_personality
	.cfi_lsda 16, Lexception1
	push	rbp
	.cfi_def_cfa_offset 16
	.cfi_offset rbp, -16
	mov	rbp, rsp
	.cfi_def_cfa_register rbp
	push	r14
	push	rbx
	.cfi_offset rbx, -32
	.cfi_offset r14, -24
	mov	rbx, rdi
	mov	rdi, qword ptr [rdi]
	mov	rax, qword ptr [rbx + 8]
Ltmp6:
	call	qword ptr [rax]
Ltmp7:
	mov	rax, qword ptr [rbx + 8]
	mov	rsi, qword ptr [rax + 8]
	test	rsi, rsi
	je	LBB11_2
	mov	rdi, qword ptr [rbx]
	mov	rdx, qword ptr [rax + 16]
	pop	rbx
	pop	r14
	pop	rbp
	jmp	___rust_dealloc
LBB11_2:
	pop	rbx
	pop	r14
	pop	rbp
	ret
LBB11_3:
Ltmp8:
	mov	r14, rax
	mov	rdi, qword ptr [rbx]
	mov	rsi, qword ptr [rbx + 8]
	call	__ZN5alloc5alloc8box_free17h45932781509d35b6E
	mov	rdi, r14
	call	__Unwind_Resume
	ud2
Lfunc_end1:
	.cfi_endproc
	.section	__TEXT,__gcc_except_tab
	.p2align	2
GCC_except_table11:
Lexception1:
	.byte	255
	.byte	255
	.byte	1
	.uleb128 Lcst_end1-Lcst_begin1
Lcst_begin1:
	.uleb128 Ltmp6-Lfunc_begin1
	.uleb128 Ltmp7-Ltmp6
	.uleb128 Ltmp8-Lfunc_begin1
	.byte	0
	.uleb128 Ltmp7-Lfunc_begin1
	.uleb128 Lfunc_end1-Ltmp7
	.byte	0
	.byte	0
Lcst_end1:
	.p2align	2

	.section	__TEXT,__text,regular,pure_instructions
	.p2align	4, 0x90
__ZN4core3ptr13drop_in_place17hf2bab631d57ec95aE:
	.cfi_startproc
	push	rbp
	.cfi_def_cfa_offset 16
	.cfi_offset rbp, -16
	mov	rbp, rsp
	.cfi_def_cfa_register rbp
	cmp	dword ptr [rdi], 3
	jne	LBB12_1
	add	rdi, 4
	pop	rbp
	jmp	__ZN70_$LT$std..sys..unix..fd..FileDesc$u20$as$u20$core..ops..drop..Drop$GT$4drop17hf5fce2bf4d9f8deaE
LBB12_1:
	pop	rbp
	ret
	.cfi_endproc

	.p2align	4, 0x90
__ZN4core3ptr13drop_in_place17hf76d30ad3fb0a898E:
Lfunc_begin2:
	.cfi_startproc
	.cfi_personality 155, _rust_eh_personality
	.cfi_lsda 16, Lexception2
	push	rbp
	.cfi_def_cfa_offset 16
	.cfi_offset rbp, -16
	mov	rbp, rsp
	.cfi_def_cfa_register rbp
	push	r15
	push	r14
	push	r13
	push	r12
	push	rbx
	sub	rsp, 120
	.cfi_offset rbx, -56
	.cfi_offset r12, -48
	.cfi_offset r13, -40
	.cfi_offset r14, -32
	.cfi_offset r15, -24
	mov	r14, rdi
	mov	rax, qword ptr [rdi]
	mov	byte ptr [rax], 0
	mov	rsi, qword ptr [rdi + 8]
	test	rsi, rsi
	je	LBB13_2
	mov	rdi, qword ptr [r14]
	mov	edx, 1
	call	___rust_dealloc
LBB13_2:
	mov	rbx, qword ptr [r14 + 16]
	mov	r15, qword ptr [r14 + 32]
	test	r15, r15
	je	LBB13_8
	shl	r15, 4
	add	r15, rbx
	jmp	LBB13_4
	.p2align	4, 0x90
LBB13_6:
	add	rbx, 16
	cmp	rbx, r15
	je	LBB13_7
LBB13_4:
	mov	rax, qword ptr [rbx]
	mov	byte ptr [rax], 0
	mov	rsi, qword ptr [rbx + 8]
	test	rsi, rsi
	je	LBB13_6
	mov	rdi, qword ptr [rbx]
	mov	edx, 1
	call	___rust_dealloc
	jmp	LBB13_6
LBB13_7:
	mov	rbx, qword ptr [r14 + 16]
LBB13_8:
	mov	rsi, qword ptr [r14 + 24]
	test	rsi, rsi
	je	LBB13_12
	test	rbx, rbx
	je	LBB13_12
	shl	rsi, 4
	je	LBB13_12
	mov	edx, 8
	mov	rdi, rbx
	call	___rust_dealloc
LBB13_12:
	mov	rsi, qword ptr [r14 + 48]
	test	rsi, rsi
	je	LBB13_16
	mov	rdi, qword ptr [r14 + 40]
	test	rdi, rdi
	je	LBB13_16
	shl	rsi, 3
	test	rsi, rsi
	je	LBB13_16
	mov	edx, 8
	call	___rust_dealloc
LBB13_16:
	mov	rcx, qword ptr [r14 + 64]
	test	rcx, rcx
	je	LBB13_17
	mov	rdi, qword ptr [r14 + 72]
	mov	rax, qword ptr [r14 + 80]
	movzx	edx, word ptr [rcx + 10]
	test	rdi, rdi
	je	LBB13_32
	mov	bl, 1
	mov	rsi, rcx
	.p2align	4, 0x90
LBB13_36:
	test	bl, 1
	je	LBB13_33
	cmp	rdi, 1
	setne	bl
	mov	rcx, qword ptr [rcx + 544]
	mov	rsi, qword ptr [rsi + 8*rdx + 544]
	movzx	edx, word ptr [rsi + 10]
	dec	rdi
	jne	LBB13_36
	jmp	LBB13_38
LBB13_17:
	mov	qword ptr [rbp - 104], 0
	mov	qword ptr [rbp - 72], 0
	xor	eax, eax
	jmp	LBB13_39
LBB13_32:
	mov	rsi, rcx
LBB13_38:
	mov	qword ptr [rbp - 112], 0
	mov	qword ptr [rbp - 104], rcx
	mov	qword ptr [rbp - 96], 0
	mov	qword ptr [rbp - 88], 0
	mov	qword ptr [rbp - 80], 0
	mov	qword ptr [rbp - 72], rsi
	mov	qword ptr [rbp - 64], 0
	mov	qword ptr [rbp - 56], rdx
LBB13_39:
	mov	qword ptr [rbp - 48], rax
Ltmp11:
	lea	rdi, [rbp - 160]
	lea	rsi, [rbp - 112]
	call	__ZN112_$LT$alloc..collections..btree..map..IntoIter$LT$K$C$V$GT$$u20$as$u20$core..iter..traits..iterator..Iterator$GT$4next17h8781dc9e861cbfbeE
Ltmp12:
	mov	rdi, qword ptr [rbp - 160]
	test	rdi, rdi
	je	LBB13_50
	lea	r15, [rbp - 160]
	lea	r12, [rbp - 112]
	.p2align	4, 0x90
LBB13_42:
	mov	rbx, qword ptr [rbp - 136]
	mov	r13, qword ptr [rbp - 128]
	test	rdi, rdi
	je	LBB13_45
	mov	rsi, qword ptr [rbp - 152]
	test	rsi, rsi
	je	LBB13_45
	mov	edx, 1
	call	___rust_dealloc
LBB13_45:
	test	rbx, rbx
	je	LBB13_48
	test	r13, r13
	je	LBB13_48
	mov	edx, 1
	mov	rdi, rbx
	mov	rsi, r13
	call	___rust_dealloc
LBB13_48:
Ltmp14:
	mov	rdi, r15
	mov	rsi, r12
	call	__ZN112_$LT$alloc..collections..btree..map..IntoIter$LT$K$C$V$GT$$u20$as$u20$core..iter..traits..iterator..Iterator$GT$4next17h8781dc9e861cbfbeE
Ltmp15:
	mov	rdi, qword ptr [rbp - 160]
	test	rdi, rdi
	jne	LBB13_42
LBB13_50:
	mov	rdi, qword ptr [rbp - 104]
	test	rdi, rdi
	je	LBB13_27
	mov	rax, qword ptr [rbp - 112]
	mov	r15d, 544
	.p2align	4, 0x90
LBB13_52:
	mov	r12, qword ptr [rdi]
	xor	ebx, ebx
	test	r12, r12
	setne	bl
	add	rbx, rax
	test	rax, rax
	mov	esi, 640
	cmove	rsi, r15
	mov	edx, 8
	call	___rust_dealloc
	mov	rax, rbx
	mov	rdi, r12
	test	r12, r12
	jne	LBB13_52
LBB13_27:
	mov	rax, qword ptr [r14 + 96]
	test	rax, rax
	je	LBB13_30
	mov	byte ptr [rax], 0
	mov	rsi, qword ptr [r14 + 104]
	test	rsi, rsi
	je	LBB13_30
	mov	rdi, qword ptr [r14 + 96]
	mov	edx, 1
	call	___rust_dealloc
LBB13_30:
	lea	rdi, [r14 + 112]
Ltmp17:
	call	__ZN4core3ptr13drop_in_place17h9f2f1152f1327d0aE
Ltmp18:
	cmp	dword ptr [r14 + 152], 3
	jne	LBB13_23
	lea	rdi, [r14 + 156]
Ltmp20:
	call	__ZN70_$LT$std..sys..unix..fd..FileDesc$u20$as$u20$core..ops..drop..Drop$GT$4drop17hf5fce2bf4d9f8deaE
Ltmp21:
LBB13_23:
	cmp	dword ptr [r14 + 160], 3
	jne	LBB13_21
	lea	rdi, [r14 + 164]
Ltmp23:
	call	__ZN70_$LT$std..sys..unix..fd..FileDesc$u20$as$u20$core..ops..drop..Drop$GT$4drop17hf5fce2bf4d9f8deaE
Ltmp24:
LBB13_21:
	cmp	dword ptr [r14 + 168], 3
	jne	LBB13_59
	add	r14, 172
	mov	rdi, r14
	add	rsp, 120
	pop	rbx
	pop	r12
	pop	r13
	pop	r14
	pop	r15
	pop	rbp
	jmp	__ZN70_$LT$std..sys..unix..fd..FileDesc$u20$as$u20$core..ops..drop..Drop$GT$4drop17hf5fce2bf4d9f8deaE
LBB13_59:
	add	rsp, 120
	pop	rbx
	pop	r12
	pop	r13
	pop	r14
	pop	r15
	pop	rbp
	ret
LBB13_33:
	lea	rax, [rip + __ZN44_$LT$$RF$T$u20$as$u20$core..fmt..Display$GT$3fmt17h441b8815482573c9E]
	movq	xmm0, rax
	lea	rax, [rip + l___unnamed_4]
	movq	xmm1, rax
	punpcklqdq	xmm1, xmm0
	movdqa	xmmword ptr [rbp - 160], xmm1
	lea	rax, [rip + l___unnamed_5]
	mov	qword ptr [rbp - 112], rax
	mov	qword ptr [rbp - 104], 1
	mov	qword ptr [rbp - 96], 0
	lea	rax, [rbp - 160]
	mov	qword ptr [rbp - 80], rax
	mov	qword ptr [rbp - 72], 1
Ltmp9:
	lea	rsi, [rip + l___unnamed_6]
	lea	rdi, [rbp - 112]
	call	__ZN4core9panicking9panic_fmt17hab6ef1464e9720aaE
Ltmp10:
	ud2
LBB13_58:
Ltmp25:
	mov	rbx, rax
	jmp	LBB13_20
LBB13_18:
Ltmp22:
	mov	rbx, rax
	jmp	LBB13_19
LBB13_54:
Ltmp13:
	jmp	LBB13_55
LBB13_57:
Ltmp19:
	mov	rbx, rax
	jmp	LBB13_56
LBB13_53:
Ltmp16:
LBB13_55:
	mov	rbx, rax
	lea	rdi, [r14 + 96]
	call	__ZN4core3ptr13drop_in_place17h436ce7990bacd8adE
	lea	rdi, [r14 + 112]
	call	__ZN4core3ptr13drop_in_place17h9f2f1152f1327d0aE
LBB13_56:
	lea	rdi, [r14 + 152]
	call	__ZN4core3ptr13drop_in_place17hf2bab631d57ec95aE
LBB13_19:
	lea	rdi, [r14 + 160]
	call	__ZN4core3ptr13drop_in_place17hf2bab631d57ec95aE
LBB13_20:
	add	r14, 168
	mov	rdi, r14
	call	__ZN4core3ptr13drop_in_place17hf2bab631d57ec95aE
	mov	rdi, rbx
	call	__Unwind_Resume
	ud2
Lfunc_end2:
	.cfi_endproc
	.section	__TEXT,__gcc_except_tab
	.p2align	2
GCC_except_table13:
Lexception2:
	.byte	255
	.byte	255
	.byte	1
	.uleb128 Lcst_end2-Lcst_begin2
Lcst_begin2:
	.uleb128 Ltmp11-Lfunc_begin2
	.uleb128 Ltmp12-Ltmp11
	.uleb128 Ltmp13-Lfunc_begin2
	.byte	0
	.uleb128 Ltmp14-Lfunc_begin2
	.uleb128 Ltmp15-Ltmp14
	.uleb128 Ltmp16-Lfunc_begin2
	.byte	0
	.uleb128 Ltmp17-Lfunc_begin2
	.uleb128 Ltmp18-Ltmp17
	.uleb128 Ltmp19-Lfunc_begin2
	.byte	0
	.uleb128 Ltmp20-Lfunc_begin2
	.uleb128 Ltmp21-Ltmp20
	.uleb128 Ltmp22-Lfunc_begin2
	.byte	0
	.uleb128 Ltmp23-Lfunc_begin2
	.uleb128 Ltmp24-Ltmp23
	.uleb128 Ltmp25-Lfunc_begin2
	.byte	0
	.uleb128 Ltmp24-Lfunc_begin2
	.uleb128 Ltmp9-Ltmp24
	.byte	0
	.byte	0
	.uleb128 Ltmp9-Lfunc_begin2
	.uleb128 Ltmp10-Ltmp9
	.uleb128 Ltmp13-Lfunc_begin2
	.byte	0
	.uleb128 Ltmp10-Lfunc_begin2
	.uleb128 Lfunc_end2-Ltmp10
	.byte	0
	.byte	0
Lcst_end2:
	.p2align	2

	.section	__TEXT,__text,regular,pure_instructions
	.p2align	4, 0x90
__ZN4core3ptr13drop_in_place17hfacd2284cc7a609bE:
	.cfi_startproc
	push	rbp
	.cfi_def_cfa_offset 16
	.cfi_offset rbp, -16
	mov	rbp, rsp
	.cfi_def_cfa_register rbp
	push	rbx
	push	rax
	.cfi_offset rbx, -24
	mov	rbx, rdi
	mov	rdi, qword ptr [rdi]
	test	rdi, rdi
	je	LBB14_3
	mov	rsi, qword ptr [rbx + 8]
	test	rsi, rsi
	je	LBB14_3
	mov	edx, 1
	call	___rust_dealloc
LBB14_3:
	mov	rdi, qword ptr [rbx + 24]
	test	rdi, rdi
	je	LBB14_5
	mov	rsi, qword ptr [rbx + 32]
	test	rsi, rsi
	je	LBB14_5
	mov	edx, 1
	add	rsp, 8
	pop	rbx
	pop	rbp
	jmp	___rust_dealloc
LBB14_5:
	add	rsp, 8
	pop	rbx
	pop	rbp
	ret
	.cfi_endproc

	.p2align	4, 0x90
__ZN5alloc5alloc8box_free17h1df191cdae5005c2E:
	.cfi_startproc
	push	rbp
	.cfi_def_cfa_offset 16
	.cfi_offset rbp, -16
	mov	rbp, rsp
	.cfi_def_cfa_register rbp
	mov	esi, 24
	mov	edx, 8
	pop	rbp
	jmp	___rust_dealloc
	.cfi_endproc

	.p2align	4, 0x90
__ZN5alloc5alloc8box_free17h45932781509d35b6E:
	.cfi_startproc
	push	rbp
	.cfi_def_cfa_offset 16
	.cfi_offset rbp, -16
	mov	rbp, rsp
	.cfi_def_cfa_register rbp
	mov	rax, rsi
	mov	rsi, qword ptr [rsi + 8]
	test	rsi, rsi
	je	LBB16_1
	mov	rdx, qword ptr [rax + 16]
	pop	rbp
	jmp	___rust_dealloc
LBB16_1:
	pop	rbp
	ret
	.cfi_endproc

	.p2align	4, 0x90
__ZN84_$LT$core..str..Split$LT$P$GT$$u20$as$u20$core..iter..traits..iterator..Iterator$GT$4next17h1dc76ffd52493bc0E:
	.cfi_startproc
	push	rbp
	.cfi_def_cfa_offset 16
	.cfi_offset rbp, -16
	mov	rbp, rsp
	.cfi_def_cfa_register rbp
	push	r15
	push	r14
	push	r13
	push	r12
	push	rbx
	sub	rsp, 24
	.cfi_offset rbx, -56
	.cfi_offset r12, -48
	.cfi_offset r13, -40
	.cfi_offset r14, -32
	.cfi_offset r15, -24
	cmp	byte ptr [rdi + 65], 0
	jne	LBB17_1
	mov	r13, rdi
	mov	rsi, qword ptr [rdi + 32]
	mov	rax, qword ptr [rdi + 40]
	mov	rdx, rax
	sub	rdx, rsi
	jb	LBB17_16
	cmp	qword ptr [r13 + 24], rax
	jb	LBB17_16
	mov	rcx, qword ptr [r13 + 16]
	mov	rax, qword ptr [r13 + 48]
	mov	qword ptr [rbp - 56], rcx
	add	rsi, rcx
	movzx	edi, byte ptr [rax + r13 + 59]
	call	__ZN4core5slice6memchr6memchr17h319ffdabcbdf42caE
	cmp	rax, 1
	jne	LBB17_15
	lea	rax, [r13 + 60]
	mov	qword ptr [rbp - 48], rax
	.p2align	4, 0x90
LBB17_6:
	mov	rax, qword ptr [r13 + 32]
	mov	r15, qword ptr [r13 + 48]
	lea	rbx, [rdx + rax + 1]
	mov	qword ptr [r13 + 32], rbx
	mov	r12, rbx
	sub	r12, r15
	jae	LBB17_8
	mov	r14, qword ptr [r13 + 24]
	mov	rax, qword ptr [r13 + 40]
	mov	rdx, rax
	sub	rdx, rbx
	jae	LBB17_13
	jmp	LBB17_16
	.p2align	4, 0x90
LBB17_8:
	mov	r14, qword ptr [r13 + 24]
	cmp	r14, rbx
	jb	LBB17_12
	cmp	r15, 5
	jae	LBB17_23
	mov	rdi, qword ptr [r13 + 16]
	add	rdi, r12
	cmp	rdi, qword ptr [rbp - 48]
	je	LBB17_21
	mov	rsi, qword ptr [rbp - 48]
	mov	rdx, r15
	call	_bcmp
	test	eax, eax
	je	LBB17_21
LBB17_12:
	mov	rax, qword ptr [r13 + 40]
	mov	rdx, rax
	sub	rdx, rbx
	jb	LBB17_16
LBB17_13:
	cmp	r14, rax
	jb	LBB17_16
	add	rbx, qword ptr [r13 + 16]
	movzx	edi, byte ptr [r15 + r13 + 59]
	mov	rsi, rbx
	call	__ZN4core5slice6memchr6memchr17h319ffdabcbdf42caE
	cmp	rax, 1
	je	LBB17_6
LBB17_15:
	mov	rax, qword ptr [r13 + 40]
	mov	qword ptr [r13 + 32], rax
LBB17_16:
	cmp	byte ptr [r13 + 65], 0
	je	LBB17_17
LBB17_1:
	xor	eax, eax
LBB17_22:
	mov	rdx, r12
	add	rsp, 24
	pop	rbx
	pop	r12
	pop	r13
	pop	r14
	pop	r15
	pop	rbp
	ret
LBB17_17:
	cmp	byte ptr [r13 + 64], 0
	je	LBB17_19
	mov	rax, qword ptr [r13]
	mov	r12, qword ptr [r13 + 8]
	jmp	LBB17_20
LBB17_19:
	mov	rax, qword ptr [r13]
	mov	r12, qword ptr [r13 + 8]
	cmp	r12, rax
	je	LBB17_1
LBB17_20:
	mov	byte ptr [r13 + 65], 1
	sub	r12, rax
	add	rax, qword ptr [r13 + 16]
	jmp	LBB17_22
LBB17_21:
	mov	rcx, qword ptr [r13]
	mov	rax, qword ptr [rbp - 56]
	add	rax, rcx
	sub	r12, rcx
	mov	qword ptr [r13], rbx
	jmp	LBB17_22
LBB17_23:
	lea	rdx, [rip + l___unnamed_7]
	mov	esi, 4
	mov	rdi, r15
	call	__ZN4core5slice20slice_index_len_fail17h550a313151a85135E
	.cfi_endproc

	.section	__TEXT,__literal16,16byte_literals
	.p2align	4
LCPI18_0:
	.byte	107
	.byte	110
	.byte	111
	.byte	119
	.byte	110
	.byte	45
	.byte	101
	.byte	109
	.byte	115
	.byte	99
	.byte	114
	.byte	105
	.byte	112
	.byte	116
	.byte	101
	.byte	110
LCPI18_1:
	.byte	119
	.byte	97
	.byte	115
	.byte	109
	.byte	51
	.byte	50
	.byte	45
	.byte	117
	.byte	110
	.byte	107
	.byte	110
	.byte	111
	.byte	119
	.byte	110
	.byte	45
	.byte	101
LCPI18_2:
	.byte	115
	.byte	99
	.byte	114
	.byte	105
	.byte	112
	.byte	116
	.byte	101
	.byte	110
	.byte	0
	.byte	0
	.byte	0
	.byte	0
	.byte	0
	.byte	0
	.byte	0
	.byte	0
LCPI18_3:
	.byte	97
	.byte	115
	.byte	109
	.byte	106
	.byte	115
	.byte	45
	.byte	117
	.byte	110
	.byte	107
	.byte	110
	.byte	111
	.byte	119
	.byte	110
	.byte	45
	.byte	101
	.byte	109
	.section	__TEXT,__text,regular,pure_instructions
	.p2align	4, 0x90
__ZN18build_script_build4main17hba37e20ae511852cE:
Lfunc_begin3:
	.cfi_startproc
	.cfi_personality 155, _rust_eh_personality
	.cfi_lsda 16, Lexception3
	push	rbp
	.cfi_def_cfa_offset 16
	.cfi_offset rbp, -16
	mov	rbp, rsp
	.cfi_def_cfa_register rbp
	push	r15
	push	r14
	push	r13
	push	r12
	push	rbx
	sub	rsp, 536
	.cfi_offset rbx, -56
	.cfi_offset r12, -48
	.cfi_offset r13, -40
	.cfi_offset r14, -32
	.cfi_offset r15, -24
	lea	rsi, [rip + l___unnamed_8]
	lea	rdi, [rbp - 224]
	mov	edx, 5
	call	__ZN3std3env7_var_os17hc8b7303001145450E
	cmp	qword ptr [rbp - 224], 0
	je	LBB18_43
	mov	rdx, qword ptr [rbp - 208]
	mov	qword ptr [rbp - 312], rdx
	mov	rbx, qword ptr [rbp - 224]
	mov	rax, qword ptr [rbp - 216]
	mov	qword ptr [rbp - 320], rax
	mov	qword ptr [rbp - 328], rbx
	mov	qword ptr [rbp - 288], rdx
	mov	qword ptr [rbp - 296], rax
	mov	qword ptr [rbp - 304], rbx
Ltmp26:
	lea	rdi, [rbp - 224]
	mov	rsi, rbx
	call	__ZN3std3sys4unix7process14process_common7Command3new17hcd746a384cbb0b47E
Ltmp27:
	lea	rdi, [rbp - 512]
	lea	rsi, [rbp - 224]
	mov	edx, 184
	call	_memcpy
	mov	rsi, qword ptr [rbp - 296]
	test	rsi, rsi
	je	LBB18_4
	mov	edx, 1
	mov	rdi, rbx
	call	___rust_dealloc
LBB18_4:
Ltmp29:
	lea	rsi, [rip + l___unnamed_9]
	lea	rdi, [rbp - 512]
	mov	edx, 9
	call	__ZN3std3sys4unix7process14process_common7Command3arg17hc476c471a9efd12bE
Ltmp30:
Ltmp31:
	lea	rdi, [rbp - 576]
	lea	rsi, [rbp - 512]
	call	__ZN3std7process7Command6output17h3119df81721f3b73E
Ltmp32:
	cmp	qword ptr [rbp - 576], 1
	jne	LBB18_13
	cmp	byte ptr [rbp - 568], 2
	jb	LBB18_12
	mov	rbx, qword ptr [rbp - 560]
	mov	rdi, qword ptr [rbx]
	mov	rax, qword ptr [rbx + 8]
Ltmp77:
	call	qword ptr [rax]
Ltmp78:
	mov	rax, qword ptr [rbx + 8]
	mov	rsi, qword ptr [rax + 8]
	test	rsi, rsi
	je	LBB18_11
	mov	rdi, qword ptr [rbx]
	mov	rdx, qword ptr [rax + 16]
	call	___rust_dealloc
LBB18_11:
	mov	esi, 24
	mov	edx, 8
	mov	rdi, rbx
	call	___rust_dealloc
LBB18_12:
Ltmp80:
	lea	rdi, [rbp - 512]
	call	__ZN4core3ptr13drop_in_place17hf76d30ad3fb0a898E
Ltmp81:
	jmp	LBB18_43
LBB18_13:
	lea	rax, [rbp - 568]
	mov	rcx, qword ptr [rax + 48]
	mov	qword ptr [rbp - 232], rcx
	mov	rcx, qword ptr [rax + 40]
	mov	qword ptr [rbp - 240], rcx
	mov	rcx, qword ptr [rax + 32]
	mov	qword ptr [rbp - 248], rcx
	mov	rcx, qword ptr [rax + 24]
	mov	qword ptr [rbp - 256], rcx
	mov	rcx, qword ptr [rax + 16]
	mov	qword ptr [rbp - 264], rcx
	mov	rcx, qword ptr [rax]
	mov	rax, qword ptr [rax + 8]
	mov	qword ptr [rbp - 272], rax
	mov	qword ptr [rbp - 280], rcx
Ltmp34:
	lea	rdi, [rbp - 512]
	call	__ZN4core3ptr13drop_in_place17hf76d30ad3fb0a898E
Ltmp35:
	mov	rbx, qword ptr [rbp - 280]
	mov	rdx, qword ptr [rbp - 264]
Ltmp36:
	lea	rdi, [rbp - 224]
	mov	rsi, rbx
	call	__ZN4core3str9from_utf817he06957962f38305fE
Ltmp37:
	cmp	qword ptr [rbp - 224], 1
	je	LBB18_37
	movdqu	xmm0, xmmword ptr [rbp - 216]
	mov	qword ptr [rbp - 224], 0
	pshufd	xmm1, xmm0, 78
	movq	qword ptr [rbp - 216], xmm1
	movdqu	xmmword ptr [rbp - 208], xmm0
	mov	qword ptr [rbp - 192], 0
	movq	qword ptr [rbp - 184], xmm1
	mov	qword ptr [rbp - 176], 1
	movabs	rax, 197568495662
	mov	qword ptr [rbp - 168], rax
	mov	word ptr [rbp - 160], 1
Ltmp38:
	lea	rdi, [rbp - 224]
	call	__ZN84_$LT$core..str..Split$LT$P$GT$$u20$as$u20$core..iter..traits..iterator..Iterator$GT$4next17h1dc76ffd52493bc0E
Ltmp39:
	xor	esi, esi
	test	rax, rax
	setne	sil
	lea	rcx, [rip + l___unnamed_10]
	xor	edi, edi
	test	rcx, rcx
	setne	dil
	cmp	rsi, rdi
	jne	LBB18_37
	test	rax, rax
	je	LBB18_23
	test	rcx, rcx
	je	LBB18_23
	cmp	rdx, 7
	jne	LBB18_37
	cmp	rax, rcx
	je	LBB18_23
	mov	ecx, 1953723762
	xor	ecx, dword ptr [rax]
	mov	edx, 824206196
	xor	edx, dword ptr [rax + 3]
	or	edx, ecx
	jne	LBB18_37
LBB18_23:
Ltmp40:
	lea	rdi, [rbp - 224]
	call	__ZN84_$LT$core..str..Split$LT$P$GT$$u20$as$u20$core..iter..traits..iterator..Iterator$GT$4next17h1dc76ffd52493bc0E
Ltmp41:
	test	rax, rax
	je	LBB18_37
Ltmp42:
	mov	rdi, rax
	mov	rsi, rdx
	call	__ZN4core3num52_$LT$impl$u20$core..str..FromStr$u20$for$u20$u32$GT$8from_str17hb8ee2851a4cfefb0E
Ltmp43:
	mov	r15, rax
	mov	rsi, qword ptr [rbp - 272]
	test	rsi, rsi
	je	LBB18_28
	mov	edx, 1
	mov	rdi, rbx
	call	___rust_dealloc
LBB18_28:
	mov	rdi, qword ptr [rbp - 256]
	test	rdi, rdi
	je	LBB18_31
	mov	rsi, qword ptr [rbp - 248]
	test	rsi, rsi
	je	LBB18_31
	mov	edx, 1
	call	___rust_dealloc
LBB18_31:
	test	r15b, 1
	jne	LBB18_43
	lea	rsi, [rip + l___unnamed_11]
	lea	rdi, [rbp - 224]
	mov	edx, 6
	call	__ZN3std3env4_var17heb54e5eb7997d7b3E
	cmp	qword ptr [rbp - 224], 1
	je	LBB18_94
	shr	r15, 32
	mov	rbx, qword ptr [rbp - 200]
	mov	qword ptr [rbp - 496], rbx
	mov	r14, qword ptr [rbp - 216]
	mov	rax, qword ptr [rbp - 208]
	mov	qword ptr [rbp - 504], rax
	mov	qword ptr [rbp - 512], r14
	cmp	rbx, 25
	je	LBB18_44
	cmp	rbx, 24
	jne	LBB18_47
	lea	rax, [rip + l___unnamed_12]
	cmp	r14, rax
	je	LBB18_48
	movdqu	xmm0, xmmword ptr [r14]
	movq	xmm1, qword ptr [r14 + 16]
	pcmpeqb	xmm1, xmmword ptr [rip + LCPI18_2]
	pcmpeqb	xmm0, xmmword ptr [rip + LCPI18_3]
	pand	xmm0, xmm1
	pmovmskb	eax, xmm0
	cmp	eax, 65535
	sete	r12b
	cmp	r15d, 25
	ja	LBB18_49
	jmp	LBB18_70
LBB18_37:
	mov	rsi, qword ptr [rbp - 272]
	test	rsi, rsi
	je	LBB18_39
	mov	edx, 1
	mov	rdi, rbx
	call	___rust_dealloc
LBB18_39:
	mov	rdi, qword ptr [rbp - 256]
	test	rdi, rdi
	je	LBB18_43
	mov	rsi, qword ptr [rbp - 248]
	test	rsi, rsi
	je	LBB18_43
	mov	edx, 1
LBB18_42:
	call	___rust_dealloc
LBB18_43:
	add	rsp, 536
	pop	rbx
	pop	r12
	pop	r13
	pop	r14
	pop	r15
	pop	rbp
	ret
LBB18_44:
	lea	rax, [rip + l___unnamed_13]
	cmp	r14, rax
	je	LBB18_48
	movdqu	xmm0, xmmword ptr [r14]
	movdqu	xmm1, xmmword ptr [r14 + 9]
	pcmpeqb	xmm1, xmmword ptr [rip + LCPI18_0]
	pcmpeqb	xmm0, xmmword ptr [rip + LCPI18_1]
	pand	xmm0, xmm1
	pmovmskb	eax, xmm0
	cmp	eax, 65535
	je	LBB18_48
LBB18_47:
	xor	r12d, r12d
	cmp	r15d, 25
	jbe	LBB18_70
LBB18_49:
	lea	rax, [rip + l___unnamed_14]
	mov	qword ptr [rbp - 224], rax
	mov	qword ptr [rbp - 216], 1
	mov	qword ptr [rbp - 208], 0
	lea	rax, [rip + l___unnamed_15]
	mov	qword ptr [rbp - 192], rax
	mov	qword ptr [rbp - 184], 0
Ltmp47:
	lea	rdi, [rbp - 224]
	call	__ZN3std2io5stdio6_print17hdea2154009b9e479E
Ltmp48:
LBB18_50:
	lea	rax, [rip + l___unnamed_16]
	mov	qword ptr [rbp - 224], rax
	mov	qword ptr [rbp - 216], 1
	mov	qword ptr [rbp - 208], 0
	lea	r13, [rip + l___unnamed_15]
	mov	qword ptr [rbp - 192], r13
	mov	qword ptr [rbp - 184], 0
Ltmp49:
	lea	rdi, [rbp - 224]
	call	__ZN3std2io5stdio6_print17hdea2154009b9e479E
Ltmp50:
	cmp	r15d, 20
	jb	LBB18_58
	lea	rax, [rip + l___unnamed_17]
	mov	qword ptr [rbp - 224], rax
	mov	qword ptr [rbp - 216], 1
	mov	qword ptr [rbp - 208], 0
	mov	qword ptr [rbp - 192], r13
	mov	qword ptr [rbp - 184], 0
Ltmp51:
	lea	rdi, [rbp - 224]
	call	__ZN3std2io5stdio6_print17hdea2154009b9e479E
Ltmp52:
	lea	rax, [rip + l___unnamed_18]
	mov	qword ptr [rbp - 224], rax
	mov	qword ptr [rbp - 216], 1
	mov	qword ptr [rbp - 208], 0
	mov	qword ptr [rbp - 192], r13
	mov	qword ptr [rbp - 184], 0
Ltmp53:
	lea	rdi, [rbp - 224]
	call	__ZN3std2io5stdio6_print17hdea2154009b9e479E
Ltmp54:
	cmp	r15d, 21
	jb	LBB18_58
	lea	rax, [rip + l___unnamed_19]
	mov	qword ptr [rbp - 224], rax
	mov	qword ptr [rbp - 216], 1
	mov	qword ptr [rbp - 208], 0
	mov	qword ptr [rbp - 192], r13
	mov	qword ptr [rbp - 184], 0
Ltmp55:
	lea	rdi, [rbp - 224]
	call	__ZN3std2io5stdio6_print17hdea2154009b9e479E
Ltmp56:
	cmp	r15d, 25
	jb	LBB18_58
	lea	rax, [rip + l___unnamed_20]
	mov	qword ptr [rbp - 224], rax
	mov	qword ptr [rbp - 216], 1
	mov	qword ptr [rbp - 208], 0
	mov	qword ptr [rbp - 192], r13
	mov	qword ptr [rbp - 184], 0
Ltmp57:
	lea	rdi, [rbp - 224]
	call	__ZN3std2io5stdio6_print17hdea2154009b9e479E
Ltmp58:
LBB18_58:
	cmp	r15d, 26
	setb	al
	or	al, r12b
	jne	LBB18_60
	lea	rax, [rip + l___unnamed_21]
	mov	qword ptr [rbp - 224], rax
	mov	qword ptr [rbp - 216], 1
	mov	qword ptr [rbp - 208], 0
	mov	qword ptr [rbp - 192], r13
	mov	qword ptr [rbp - 184], 0
Ltmp59:
	lea	rdi, [rbp - 224]
	call	__ZN3std2io5stdio6_print17hdea2154009b9e479E
Ltmp60:
LBB18_60:
	cmp	r15d, 27
	jb	LBB18_92
	lea	rax, [rip + l___unnamed_22]
	mov	qword ptr [rbp - 224], rax
	mov	qword ptr [rbp - 216], 1
	mov	qword ptr [rbp - 208], 0
	mov	qword ptr [rbp - 192], r13
	mov	qword ptr [rbp - 184], 0
Ltmp61:
	lea	rdi, [rbp - 224]
	call	__ZN3std2io5stdio6_print17hdea2154009b9e479E
Ltmp62:
	cmp	r15d, 28
	jb	LBB18_92
	lea	rax, [rip + l___unnamed_23]
	mov	qword ptr [rbp - 224], rax
	mov	qword ptr [rbp - 216], 1
	mov	qword ptr [rbp - 208], 0
	mov	qword ptr [rbp - 192], r13
	mov	qword ptr [rbp - 184], 0
Ltmp63:
	lea	rdi, [rbp - 224]
	call	__ZN3std2io5stdio6_print17hdea2154009b9e479E
Ltmp64:
	cmp	r15d, 34
	jb	LBB18_92
	lea	rax, [rip + l___unnamed_24]
	mov	qword ptr [rbp - 224], rax
	mov	qword ptr [rbp - 216], 1
	mov	qword ptr [rbp - 208], 0
	mov	qword ptr [rbp - 192], r13
	mov	qword ptr [rbp - 184], 0
Ltmp65:
	lea	rdi, [rbp - 224]
	call	__ZN3std2io5stdio6_print17hdea2154009b9e479E
Ltmp66:
	lea	rax, [rip + l___unnamed_25]
	mov	qword ptr [rbp - 224], rax
	mov	qword ptr [rbp - 216], 1
	mov	qword ptr [rbp - 208], 0
	mov	qword ptr [rbp - 192], r13
	mov	qword ptr [rbp - 184], 0
Ltmp67:
	lea	rdi, [rbp - 224]
	call	__ZN3std2io5stdio6_print17hdea2154009b9e479E
Ltmp68:
	cmp	rbx, 6
	jae	LBB18_73
	cmp	rbx, 4
	jb	LBB18_78
	lea	rax, [rip + L___unnamed_26]
	cmp	r14, rax
	jne	LBB18_76
	jmp	LBB18_90
LBB18_48:
	mov	r12b, 1
	cmp	r15d, 25
	ja	LBB18_49
LBB18_70:
	cmp	r15d, 16
	jbe	LBB18_92
	lea	rax, [rip + l___unnamed_27]
	mov	qword ptr [rbp - 224], rax
	mov	qword ptr [rbp - 216], 1
	mov	qword ptr [rbp - 208], 0
	lea	rax, [rip + l___unnamed_15]
	mov	qword ptr [rbp - 192], rax
	mov	qword ptr [rbp - 184], 0
Ltmp45:
	lea	rdi, [rbp - 224]
	call	__ZN3std2io5stdio6_print17hdea2154009b9e479E
Ltmp46:
	cmp	r15d, 19
	jae	LBB18_50
	jmp	LBB18_92
LBB18_73:
	lea	rax, [rip + l___unnamed_28]
	cmp	r14, rax
	je	LBB18_90
	mov	ecx, 1597388920
	xor	ecx, dword ptr [r14]
	movzx	edx, word ptr [r14 + 4]
	xor	edx, 13366
	xor	eax, eax
	or	edx, ecx
	setne	cl
	lea	rdx, [rip + L___unnamed_26]
	cmp	r14, rdx
	je	LBB18_90
	mov	al, cl
	test	eax, eax
	je	LBB18_90
LBB18_76:
	cmp	dword ptr [r14], 909653609
	je	LBB18_90
	cmp	rbx, 7
	jae	LBB18_79
LBB18_78:
	test	r12b, r12b
	jne	LBB18_91
	jmp	LBB18_92
LBB18_79:
	lea	rax, [rip + l___unnamed_29]
	cmp	r14, rax
	je	LBB18_90
	mov	eax, 1668440417
	xor	eax, dword ptr [r14]
	mov	ecx, 875980899
	xor	ecx, dword ptr [r14 + 3]
	or	ecx, eax
	je	LBB18_90
	cmp	rbx, 9
	jae	LBB18_83
	lea	rax, [rip + l___unnamed_30]
	cmp	r14, rax
	jne	LBB18_86
	jmp	LBB18_90
LBB18_83:
	lea	rax, [rip + l___unnamed_31]
	cmp	r14, rax
	je	LBB18_90
	movabs	rcx, 3919099737373372272
	xor	rcx, qword ptr [r14]
	movzx	edx, byte ptr [r14 + 8]
	xor	rdx, 52
	xor	eax, eax
	or	rdx, rcx
	setne	cl
	lea	rdx, [rip + l___unnamed_30]
	cmp	r14, rdx
	je	LBB18_90
	mov	al, cl
	test	eax, eax
	je	LBB18_90
LBB18_86:
	mov	eax, 1918988403
	xor	eax, dword ptr [r14]
	mov	ecx, 875979634
	xor	ecx, dword ptr [r14 + 3]
	or	ecx, eax
	je	LBB18_90
	cmp	rbx, 8
	jb	LBB18_78
	lea	rax, [rip + L___unnamed_32]
	cmp	r14, rax
	je	LBB18_90
	movabs	rax, 7810706537213618541
	cmp	qword ptr [r14], rax
	jne	LBB18_78
LBB18_90:
	lea	rax, [rip + l___unnamed_33]
	mov	qword ptr [rbp - 224], rax
	mov	qword ptr [rbp - 216], 1
	mov	qword ptr [rbp - 208], 0
	mov	qword ptr [rbp - 192], r13
	mov	qword ptr [rbp - 184], 0
Ltmp69:
	lea	rdi, [rbp - 224]
	call	__ZN3std2io5stdio6_print17hdea2154009b9e479E
Ltmp70:
LBB18_91:
	lea	rax, [rip + l___unnamed_34]
	mov	qword ptr [rbp - 224], rax
	mov	qword ptr [rbp - 216], 1
	mov	qword ptr [rbp - 208], 0
	mov	qword ptr [rbp - 192], r13
	mov	qword ptr [rbp - 184], 0
Ltmp71:
	lea	rdi, [rbp - 224]
	call	__ZN3std2io5stdio6_print17hdea2154009b9e479E
Ltmp72:
LBB18_92:
	mov	rsi, qword ptr [rbp - 504]
	test	rsi, rsi
	je	LBB18_43
	mov	edx, 1
	mov	rdi, r14
	jmp	LBB18_42
LBB18_94:
	mov	rax, qword ptr [rbp - 200]
	mov	qword ptr [rbp - 496], rax
	mov	rax, qword ptr [rbp - 216]
	mov	rcx, qword ptr [rbp - 208]
	mov	qword ptr [rbp - 504], rcx
	mov	qword ptr [rbp - 512], rax
Ltmp74:
	lea	rdi, [rip + l___unnamed_35]
	lea	rcx, [rip + l___unnamed_36]
	lea	r8, [rip + l___unnamed_37]
	lea	rdx, [rbp - 512]
	mov	esi, 43
	call	__ZN4core6result13unwrap_failed17hb5a510096a5fc85fE
Ltmp75:
	ud2
LBB18_96:
Ltmp76:
	mov	r14, rax
	lea	rdi, [rbp - 512]
	call	__ZN4core3ptr13drop_in_place17ha260a91406b4c557E
	mov	rdi, r14
	call	__Unwind_Resume
	ud2
LBB18_97:
Ltmp73:
	mov	r14, rax
	lea	rdi, [rbp - 512]
	call	__ZN4core3ptr13drop_in_place17h593da21f32255860E
	mov	rdi, r14
	call	__Unwind_Resume
	ud2
LBB18_98:
Ltmp79:
	mov	r14, rax
	mov	rdi, qword ptr [rbx]
	mov	rsi, qword ptr [rbx + 8]
	call	__ZN5alloc5alloc8box_free17h45932781509d35b6E
	mov	rdi, rbx
	call	__ZN5alloc5alloc8box_free17h1df191cdae5005c2E
	jmp	LBB18_104
LBB18_99:
Ltmp82:
	mov	r14, rax
	mov	rdi, r14
	call	__Unwind_Resume
	ud2
LBB18_100:
Ltmp28:
	mov	r14, rax
	lea	rdi, [rbp - 304]
	call	__ZN4core3ptr13drop_in_place17h593da21f32255860E
	mov	rdi, r14
	call	__Unwind_Resume
	ud2
LBB18_102:
Ltmp44:
	mov	r14, rax
	lea	rdi, [rbp - 280]
	call	__ZN4core3ptr13drop_in_place17hfacd2284cc7a609bE
	mov	rdi, r14
	call	__Unwind_Resume
	ud2
LBB18_103:
Ltmp33:
	mov	r14, rax
LBB18_104:
	lea	rdi, [rbp - 512]
	call	__ZN4core3ptr13drop_in_place17hf76d30ad3fb0a898E
	mov	rdi, r14
	call	__Unwind_Resume
	ud2
Lfunc_end3:
	.cfi_endproc
	.section	__TEXT,__gcc_except_tab
	.p2align	2
GCC_except_table18:
Lexception3:
	.byte	255
	.byte	255
	.byte	1
	.uleb128 Lcst_end3-Lcst_begin3
Lcst_begin3:
	.uleb128 Lfunc_begin3-Lfunc_begin3
	.uleb128 Ltmp26-Lfunc_begin3
	.byte	0
	.byte	0
	.uleb128 Ltmp26-Lfunc_begin3
	.uleb128 Ltmp27-Ltmp26
	.uleb128 Ltmp28-Lfunc_begin3
	.byte	0
	.uleb128 Ltmp27-Lfunc_begin3
	.uleb128 Ltmp29-Ltmp27
	.byte	0
	.byte	0
	.uleb128 Ltmp29-Lfunc_begin3
	.uleb128 Ltmp32-Ltmp29
	.uleb128 Ltmp33-Lfunc_begin3
	.byte	0
	.uleb128 Ltmp77-Lfunc_begin3
	.uleb128 Ltmp78-Ltmp77
	.uleb128 Ltmp79-Lfunc_begin3
	.byte	0
	.uleb128 Ltmp80-Lfunc_begin3
	.uleb128 Ltmp81-Ltmp80
	.uleb128 Ltmp82-Lfunc_begin3
	.byte	0
	.uleb128 Ltmp34-Lfunc_begin3
	.uleb128 Ltmp43-Ltmp34
	.uleb128 Ltmp44-Lfunc_begin3
	.byte	0
	.uleb128 Ltmp43-Lfunc_begin3
	.uleb128 Ltmp47-Ltmp43
	.byte	0
	.byte	0
	.uleb128 Ltmp47-Lfunc_begin3
	.uleb128 Ltmp72-Ltmp47
	.uleb128 Ltmp73-Lfunc_begin3
	.byte	0
	.uleb128 Ltmp74-Lfunc_begin3
	.uleb128 Ltmp75-Ltmp74
	.uleb128 Ltmp76-Lfunc_begin3
	.byte	0
	.uleb128 Ltmp75-Lfunc_begin3
	.uleb128 Lfunc_end3-Ltmp75
	.byte	0
	.byte	0
Lcst_end3:
	.p2align	2

	.section	__TEXT,__text,regular,pure_instructions
	.globl	_main
	.p2align	4, 0x90
_main:
	.cfi_startproc
	push	rbp
	.cfi_def_cfa_offset 16
	.cfi_offset rbp, -16
	mov	rbp, rsp
	.cfi_def_cfa_register rbp
	sub	rsp, 16
	mov	rcx, rsi
	movsxd	rdx, edi
	lea	rax, [rip + __ZN18build_script_build4main17hba37e20ae511852cE]
	mov	qword ptr [rbp - 8], rax
	lea	rsi, [rip + l___unnamed_3]
	lea	rdi, [rbp - 8]
	call	__ZN3std2rt19lang_start_internal17hebefdaa8fd585aefE
	add	rsp, 16
	pop	rbp
	ret
	.cfi_endproc

	.section	__TEXT,__const
l___unnamed_38:
	.ascii	"/rustc/a74d1862d4d87a56244958416fd05976c58ca1a8/src/liballoc/collections/btree/map.rs"

	.section	__DATA,__const
	.p2align	3
l___unnamed_2:
	.quad	l___unnamed_38
	.asciz	"U\000\000\000\000\000\000\000C\006\000\000\033\000\000"

	.p2align	3
l___unnamed_3:
	.quad	__ZN4core3ptr13drop_in_place17h0b6593a34ffd409cE
	.quad	8
	.quad	8
	.quad	__ZN3std2rt10lang_start28_$u7b$$u7b$closure$u7d$$u7d$17h2c95ee410cc999efE
	.quad	__ZN3std2rt10lang_start28_$u7b$$u7b$closure$u7d$$u7d$17h2c95ee410cc999efE
	.quad	__ZN4core3ops8function6FnOnce40call_once$u7b$$u7b$vtable.shim$u7d$$u7d$17h5a4045c5f258e528E

	.section	__TEXT,__const
l___unnamed_39:
	.ascii	"/rustc/a74d1862d4d87a56244958416fd05976c58ca1a8/src/libcore/macros/mod.rs"

	.section	__DATA,__const
	.p2align	3
l___unnamed_6:
	.quad	l___unnamed_39
	.asciz	"I\000\000\000\000\000\000\000\020\000\000\000\t\000\000"

	.section	__TEXT,__const
l___unnamed_1:
	.ascii	"called `Option::unwrap()` on a `None` value"

l___unnamed_35:
	.ascii	"called `Result::unwrap()` on an `Err` value"

	.section	__DATA,__const
	.p2align	3
l___unnamed_36:
	.quad	__ZN4core3ptr13drop_in_place17ha260a91406b4c557E
	.quad	24
	.quad	8
	.quad	__ZN55_$LT$std..env..VarError$u20$as$u20$core..fmt..Debug$GT$3fmt17h4b70de487f3ab127E

	.section	__TEXT,__const
l___unnamed_40:
	.ascii	"internal error: entered unreachable code: "

	.section	__DATA,__const
	.p2align	3
l___unnamed_5:
	.quad	l___unnamed_40
	.asciz	"*\000\000\000\000\000\000"

	.section	__TEXT,__const
l___unnamed_41:
	.ascii	"BTreeMap has different depths"

	.section	__DATA,__const
	.p2align	3
l___unnamed_4:
	.quad	l___unnamed_41
	.asciz	"\035\000\000\000\000\000\000"

	.section	__TEXT,__const
l___unnamed_42:
	.ascii	"/rustc/a74d1862d4d87a56244958416fd05976c58ca1a8/src/libcore/str/pattern.rs"

	.section	__DATA,__const
	.p2align	3
l___unnamed_7:
	.quad	l___unnamed_42
	.asciz	"J\000\000\000\000\000\000\000\213\001\000\000&\000\000"

	.section	__TEXT,__const
l___unnamed_11:
	.ascii	"TARGET"

l___unnamed_43:
	.ascii	"/Users/yingyuhang/.cargo/registry/src/github.com-1ecc6299db9ec823/serde-1.0.114/build.rs"

	.section	__DATA,__const
	.p2align	3
l___unnamed_37:
	.quad	l___unnamed_43
	.asciz	"X\000\000\000\000\000\000\000\016\000\000\000\022\000\000"

	.section	__TEXT,__const
l___unnamed_12:
	.ascii	"asmjs-unknown-emscripten"

l___unnamed_13:
	.ascii	"wasm32-unknown-emscripten"

l___unnamed_44:
	.ascii	"cargo:rustc-cfg=ops_bound\n"

	.section	__DATA,__const
	.p2align	3
l___unnamed_14:
	.quad	l___unnamed_44
	.asciz	"\032\000\000\000\000\000\000"

	.section	__TEXT,__const
	.p2align	3
l___unnamed_15:
	.byte	0

l___unnamed_45:
	.ascii	"cargo:rustc-cfg=collections_bound\n"

	.section	__DATA,__const
	.p2align	3
l___unnamed_27:
	.quad	l___unnamed_45
	.asciz	"\"\000\000\000\000\000\000"

	.section	__TEXT,__const
l___unnamed_46:
	.ascii	"cargo:rustc-cfg=core_reverse\n"

	.section	__DATA,__const
	.p2align	3
l___unnamed_16:
	.quad	l___unnamed_46
	.asciz	"\035\000\000\000\000\000\000"

	.section	__TEXT,__const
l___unnamed_47:
	.ascii	"cargo:rustc-cfg=de_boxed_c_str\n"

	.section	__DATA,__const
	.p2align	3
l___unnamed_17:
	.quad	l___unnamed_47
	.asciz	"\037\000\000\000\000\000\000"

	.section	__TEXT,__const
l___unnamed_48:
	.ascii	"cargo:rustc-cfg=de_boxed_path\n"

	.section	__DATA,__const
	.p2align	3
l___unnamed_18:
	.quad	l___unnamed_48
	.asciz	"\036\000\000\000\000\000\000"

	.section	__TEXT,__const
l___unnamed_49:
	.ascii	"cargo:rustc-cfg=de_rc_dst\n"

	.section	__DATA,__const
	.p2align	3
l___unnamed_19:
	.quad	l___unnamed_49
	.asciz	"\032\000\000\000\000\000\000"

	.section	__TEXT,__const
l___unnamed_50:
	.ascii	"cargo:rustc-cfg=core_duration\n"

	.section	__DATA,__const
	.p2align	3
l___unnamed_20:
	.quad	l___unnamed_50
	.asciz	"\036\000\000\000\000\000\000"

	.section	__TEXT,__const
l___unnamed_51:
	.ascii	"cargo:rustc-cfg=integer128\n"

	.section	__DATA,__const
	.p2align	3
l___unnamed_21:
	.quad	l___unnamed_51
	.asciz	"\033\000\000\000\000\000\000"

	.section	__TEXT,__const
l___unnamed_52:
	.ascii	"cargo:rustc-cfg=range_inclusive\n"

	.section	__DATA,__const
	.p2align	3
l___unnamed_22:
	.quad	l___unnamed_52
	.asciz	" \000\000\000\000\000\000"

	.section	__TEXT,__const
l___unnamed_53:
	.ascii	"cargo:rustc-cfg=num_nonzero\n"

	.section	__DATA,__const
	.p2align	3
l___unnamed_23:
	.quad	l___unnamed_53
	.asciz	"\034\000\000\000\000\000\000"

	.section	__TEXT,__const
l___unnamed_54:
	.ascii	"cargo:rustc-cfg=core_try_from\n"

	.section	__DATA,__const
	.p2align	3
l___unnamed_24:
	.quad	l___unnamed_54
	.asciz	"\036\000\000\000\000\000\000"

	.section	__TEXT,__const
l___unnamed_55:
	.ascii	"cargo:rustc-cfg=num_nonzero_signed\n"

	.section	__DATA,__const
	.p2align	3
l___unnamed_25:
	.quad	l___unnamed_55
	.asciz	"#\000\000\000\000\000\000"

	.section	__TEXT,__const
l___unnamed_28:
	.ascii	"x86_64"

	.section	__TEXT,__literal4,4byte_literals
L___unnamed_26:
	.ascii	"i686"

	.section	__TEXT,__const
l___unnamed_29:
	.ascii	"aarch64"

l___unnamed_31:
	.ascii	"powerpc64"

l___unnamed_30:
	.ascii	"sparc64"

	.section	__TEXT,__literal8,8byte_literals
L___unnamed_32:
	.ascii	"mips64el"

	.section	__TEXT,__const
l___unnamed_56:
	.ascii	"cargo:rustc-cfg=std_atomic64\n"

	.section	__DATA,__const
	.p2align	3
l___unnamed_33:
	.quad	l___unnamed_56
	.asciz	"\035\000\000\000\000\000\000"

	.section	__TEXT,__const
l___unnamed_57:
	.ascii	"cargo:rustc-cfg=std_atomic\n"

	.section	__DATA,__const
	.p2align	3
l___unnamed_34:
	.quad	l___unnamed_57
	.asciz	"\033\000\000\000\000\000\000"

	.section	__TEXT,__const
l___unnamed_8:
	.ascii	"RUSTC"

l___unnamed_9:
	.ascii	"--version"

l___unnamed_10:
	.ascii	"rustc 1"


.subsections_via_symbols
