	.section	__TEXT,__text,regular,pure_instructions
	.macosx_version_min 10, 7
	.p2align	4, 0x90
__ZN101_$LT$core..ops..range..RangeTo$LT$usize$GT$$u20$as$u20$core..slice..SliceIndex$LT$$u5b$T$u5d$$GT$$GT$9index_mut17hed7d26a6245671bbE:
Lfunc_begin0:
	.file	1 "/rustc/6c8927b0cf80ceee19386026cf9d7fd4fd9d486f/src/libcore/slice/mod.rs"
	.loc	1 3218 0
	.cfi_startproc
	pushq	%rbp
	.cfi_def_cfa_offset 16
	.cfi_offset %rbp, -16
	movq	%rsp, %rbp
	.cfi_def_cfa_register %rbp
	subq	$80, %rsp
	movq	%rdi, -24(%rbp)
	movq	%rsi, -16(%rbp)
	movq	%rdx, -8(%rbp)
Ltmp0:
	.loc	1 3219 9 prologue_end
	movq	$0, -40(%rbp)
	movq	%rdi, -32(%rbp)
	movq	-40(%rbp), %rdi
	movq	-32(%rbp), %rax
	movq	%rsi, -48(%rbp)
	movq	%rax, %rsi
	movq	-48(%rbp), %rax
	movq	%rdx, -56(%rbp)
	movq	%rax, %rdx
	movq	-56(%rbp), %r8
	movq	%rcx, -64(%rbp)
	movq	%r8, %rcx
	movq	-64(%rbp), %r8
	callq	__ZN99_$LT$core..ops..range..Range$LT$usize$GT$$u20$as$u20$core..slice..SliceIndex$LT$$u5b$T$u5d$$GT$$GT$9index_mut17h476206cb1c9d7831E
	movq	%rax, -72(%rbp)
	movq	%rdx, -80(%rbp)
	.loc	1 0 9 is_stmt 0
	movq	-72(%rbp), %rax
	movq	-80(%rbp), %rdx
	.loc	1 3220 6 is_stmt 1
	addq	$80, %rsp
	popq	%rbp
	retq
Ltmp1:
Lfunc_end0:
	.cfi_endproc

	.p2align	4, 0x90
__ZN105_$LT$std..ffi..os_str..OsString$u20$as$u20$core..ops..index..Index$LT$core..ops..range..RangeFull$GT$$GT$5index17h292c4bc17cbf02b4E:
Lfunc_begin1:
	.file	2 "/rustc/6c8927b0cf80ceee19386026cf9d7fd4fd9d486f/src/libstd/ffi/os_str.rs"
	.loc	2 378 0
	.cfi_startproc
	pushq	%rbp
	.cfi_def_cfa_offset 16
	.cfi_offset %rbp, -16
	movq	%rsp, %rbp
	.cfi_def_cfa_register %rbp
	subq	$64, %rsp
	movq	%rdi, -16(%rbp)
	movq	%rsi, -24(%rbp)
Ltmp2:
	.loc	2 379 27 prologue_end
	callq	__ZN3std10sys_common12os_str_bytes3Buf8as_slice17ha87ef72dc1469ac2E
	movq	%rax, -32(%rbp)
	movq	%rdx, -40(%rbp)
	.loc	2 0 27 is_stmt 0
	movq	-32(%rbp), %rdi
	movq	-40(%rbp), %rsi
	.loc	2 379 9
	callq	__ZN3std3ffi6os_str5OsStr10from_inner17hbdb8f8abc77e8598E
	movq	%rax, -48(%rbp)
	movq	%rdx, -56(%rbp)
	.loc	2 0 9
	movq	-48(%rbp), %rax
	movq	-56(%rbp), %rdx
	.loc	2 380 6 is_stmt 1
	addq	$64, %rsp
	popq	%rbp
	retq
Ltmp3:
Lfunc_end1:
	.cfi_endproc

	.p2align	4, 0x90
__ZN112_$LT$alloc..collections..btree..map..IntoIter$LT$K$C$V$GT$$u20$as$u20$core..iter..traits..iterator..Iterator$GT$4next17h5a1bc18f08aef5c3E:
Lfunc_begin2:
	.file	3 "/rustc/6c8927b0cf80ceee19386026cf9d7fd4fd9d486f/src/liballoc/collections/btree/map.rs"
	.loc	3 1486 0
	.cfi_startproc
	pushq	%rbp
	.cfi_def_cfa_offset 16
	.cfi_offset %rbp, -16
	movq	%rsp, %rbp
	.cfi_def_cfa_register %rbp
	subq	$96, %rsp
	movq	%rdi, %rax
	movq	%rsi, -8(%rbp)
Ltmp4:
	.loc	3 1487 12 prologue_end
	cmpq	$0, 64(%rsi)
	movq	%rsi, -64(%rbp)
	movq	%rdi, -72(%rbp)
	movq	%rax, -80(%rbp)
	.loc	3 1487 9 is_stmt 0
	je	LBB2_2
	.loc	3 0 9
	movq	-64(%rbp), %rax
	.loc	3 1490 13 is_stmt 1
	movq	64(%rax), %rcx
	subq	$1, %rcx
	movq	%rcx, 64(%rax)
	.loc	3 1491 27
	movq	%rax, %rdi
	callq	__ZN4core6option15Option$LT$T$GT$6as_mut17h5ad029ecce66066cE
	movq	%rax, -88(%rbp)
	jmp	LBB2_3
LBB2_2:
	.loc	3 0 27 is_stmt 0
	movq	-72(%rbp), %rax
	.loc	3 1488 13 is_stmt 1
	movq	$0, (%rax)
	.loc	3 1487 9
	jmp	LBB2_6
LBB2_3:
	.loc	3 0 9 is_stmt 0
	leaq	l___unnamed_2(%rip), %rax
	movq	-88(%rbp), %rdi
	.loc	3 1491 27 is_stmt 1
	movq	%rax, %rsi
	callq	__ZN4core6option15Option$LT$T$GT$6unwrap17h45b1f2adcb9226ccE
	movq	%rax, -96(%rbp)
	leaq	-56(%rbp), %rdi
	movq	-96(%rbp), %rsi
	callq	__ZN5alloc11collections5btree8navigate263_$LT$impl$u20$alloc..collections..btree..node..Handle$LT$alloc..collections..btree..node..NodeRef$LT$alloc..collections..btree..node..marker..Owned$C$K$C$V$C$alloc..collections..btree..node..marker..Leaf$GT$$C$alloc..collections..btree..node..marker..Edge$GT$$GT$14next_unchecked17h4288381863b6c171E
	.loc	3 0 27 is_stmt 0
	movq	-72(%rbp), %rax
	.loc	3 1491 13
	leaq	-56(%rbp), %rcx
	movq	%rax, %rdi
	movq	%rcx, %rsi
	movl	$48, %edx
	callq	_memcpy
LBB2_6:
	.loc	3 0 13
	movq	-80(%rbp), %rax
	.loc	3 1493 6 is_stmt 1
	addq	$96, %rsp
	popq	%rbp
	retq
Ltmp5:
Lfunc_end2:
	.cfi_endproc

	.p2align	4, 0x90
__ZN115_$LT$alloc..collections..btree..map..BTreeMap$LT$K$C$V$GT$$u20$as$u20$core..iter..traits..collect..IntoIterator$GT$9into_iter17h5a31caae3fdbfd89E:
Lfunc_begin3:
	.loc	3 1430 0
	.cfi_startproc
	pushq	%rbp
	.cfi_def_cfa_offset 16
	.cfi_offset %rbp, -16
	movq	%rsp, %rbp
	.cfi_def_cfa_register %rbp
	subq	$496, %rsp
	movq	%rdi, %rax
Ltmp6:
	.loc	3 1431 40 prologue_end
	movq	(%rsi), %rcx
	movq	%rcx, -440(%rbp)
	movq	8(%rsi), %rcx
	movq	%rcx, -432(%rbp)
	movq	16(%rsi), %rcx
	movq	%rcx, -424(%rbp)
Ltmp7:
	.file	4 "/rustc/6c8927b0cf80ceee19386026cf9d7fd4fd9d486f/src/libcore/mem/manually_drop.rs"
	.loc	4 83 24
	movq	-440(%rbp), %rcx
	movq	%rcx, -40(%rbp)
	movq	-432(%rbp), %rcx
	movq	%rcx, -32(%rbp)
	movq	-424(%rbp), %rcx
	movq	%rcx, -24(%rbp)
	.loc	4 83 9 is_stmt 0
	movq	-40(%rbp), %rcx
	movq	%rcx, -464(%rbp)
	movq	-32(%rbp), %rcx
	movq	%rcx, -456(%rbp)
	movq	-24(%rbp), %rcx
	movq	%rcx, -448(%rbp)
	movq	%rdi, -472(%rbp)
	movq	%rax, -480(%rbp)
Ltmp8:
	.loc	4 0 9
	leaq	-464(%rbp), %rax
	movq	%rax, -8(%rbp)
	movq	%rax, -488(%rbp)
Ltmp9:
	movq	-488(%rbp), %rdi
Ltmp10:
	.loc	3 1432 29 is_stmt 1
	callq	__ZN4core6option15Option$LT$T$GT$4take17h85a07c2ed792113bE
Ltmp11:
	movq	%rdx, -408(%rbp)
	movq	%rax, -416(%rbp)
	.loc	3 0 29 is_stmt 0
	xorl	%eax, %eax
	movl	%eax, %ecx
	.loc	3 1432 16
	cmpq	$0, -416(%rbp)
	movl	$1, %edx
	cmovbeq	%rcx, %rdx
	cmpq	$1, %rdx
	je	LBB3_5
	.loc	3 1437 31 is_stmt 1
	movq	$0, -112(%rbp)
	.loc	3 1437 43 is_stmt 0
	movq	$0, -80(%rbp)
	.loc	3 1437 13
	movq	-120(%rbp), %rax
	movq	-472(%rbp), %rcx
	movq	%rax, (%rcx)
	movq	-112(%rbp), %rax
	movq	%rax, 8(%rcx)
	movq	-104(%rbp), %rax
	movq	%rax, 16(%rcx)
	movq	-96(%rbp), %rax
	movq	%rax, 24(%rcx)
	movq	-88(%rbp), %rax
	movq	%rax, 32(%rcx)
	movq	-80(%rbp), %rax
	movq	%rax, 40(%rcx)
	movq	-72(%rbp), %rax
	movq	%rax, 48(%rcx)
	movq	-64(%rbp), %rax
	movq	%rax, 56(%rcx)
	movq	$0, 64(%rcx)
	.loc	3 1432 9 is_stmt 1
	jmp	LBB3_9
LBB3_5:
	.loc	3 1432 21 is_stmt 0
	movq	-416(%rbp), %rax
	movq	-408(%rbp), %rcx
	movq	%rax, -56(%rbp)
	movq	%rcx, -48(%rbp)
Ltmp12:
	.loc	3 1433 44 is_stmt 1
	leaq	-272(%rbp), %rdi
	movq	%rax, %rsi
	movq	%rcx, %rdx
	callq	__ZN5alloc11collections5btree4node17Root$LT$K$C$V$GT$8into_ref17hf359ec817f828a97E
	.loc	3 1433 26 is_stmt 0
	leaq	-336(%rbp), %rdi
	leaq	-272(%rbp), %rsi
	callq	__ZN5alloc11collections5btree3map17full_range_search17h35d84e1fd974369fE
	.loc	3 1433 18
	movq	-336(%rbp), %rax
	movq	%rax, -400(%rbp)
	movq	-328(%rbp), %rax
	movq	%rax, -392(%rbp)
	movq	-320(%rbp), %rax
	movq	%rax, -384(%rbp)
	movq	-312(%rbp), %rax
	movq	%rax, -376(%rbp)
	.loc	3 1433 21
	movq	-304(%rbp), %rax
	movq	%rax, -368(%rbp)
	movq	-296(%rbp), %rax
	movq	%rax, -360(%rbp)
	movq	-288(%rbp), %rax
	movq	%rax, -352(%rbp)
	movq	-280(%rbp), %rax
	movq	%rax, -344(%rbp)
Ltmp13:
	.loc	3 1435 36 is_stmt 1
	movq	-400(%rbp), %rax
	movq	%rax, -216(%rbp)
	movq	-392(%rbp), %rax
	movq	%rax, -208(%rbp)
	movq	-384(%rbp), %rax
	movq	%rax, -200(%rbp)
	movq	-376(%rbp), %rax
	movq	%rax, -192(%rbp)
	.loc	3 1435 31 is_stmt 0
	movq	-216(%rbp), %rax
	movq	%rax, -248(%rbp)
	movq	-208(%rbp), %rax
	movq	%rax, -240(%rbp)
	movq	-200(%rbp), %rax
	movq	%rax, -232(%rbp)
	movq	-192(%rbp), %rax
	movq	%rax, -224(%rbp)
	.loc	3 1435 51
	movq	-368(%rbp), %rax
	movq	%rax, -152(%rbp)
	movq	-360(%rbp), %rax
	movq	%rax, -144(%rbp)
	movq	-352(%rbp), %rax
	movq	%rax, -136(%rbp)
	movq	-344(%rbp), %rax
	movq	%rax, -128(%rbp)
	.loc	3 1435 46
	movq	-152(%rbp), %rax
	movq	%rax, -184(%rbp)
	movq	-144(%rbp), %rax
	movq	%rax, -176(%rbp)
	movq	-136(%rbp), %rax
	movq	%rax, -168(%rbp)
	movq	-128(%rbp), %rax
	movq	%rax, -160(%rbp)
	leaq	-464(%rbp), %rax
	movq	%rax, -16(%rbp)
	movq	%rax, -496(%rbp)
	.loc	3 0 46
	movq	-496(%rbp), %rax
	.loc	3 1435 63
	movq	16(%rax), %rcx
	.loc	3 1435 13
	movq	-248(%rbp), %rdx
	movq	-472(%rbp), %rsi
	movq	%rdx, (%rsi)
	movq	-240(%rbp), %rdx
	movq	%rdx, 8(%rsi)
	movq	-232(%rbp), %rdx
	movq	%rdx, 16(%rsi)
	movq	-224(%rbp), %rdx
	movq	%rdx, 24(%rsi)
	movq	-184(%rbp), %rdx
	movq	%rdx, 32(%rsi)
	movq	-176(%rbp), %rdx
	movq	%rdx, 40(%rsi)
	movq	-168(%rbp), %rdx
	movq	%rdx, 48(%rsi)
	movq	-160(%rbp), %rdx
	movq	%rdx, 56(%rsi)
	movq	%rcx, 64(%rsi)
Ltmp14:
LBB3_9:
	.loc	3 0 13
	movq	-480(%rbp), %rax
	.loc	3 1439 6 is_stmt 1
	addq	$496, %rsp
	popq	%rbp
	retq
Ltmp15:
Lfunc_end3:
	.cfi_endproc

	.p2align	4, 0x90
__ZN119_$LT$core..ptr..non_null..NonNull$LT$T$GT$$u20$as$u20$core..convert..From$LT$core..ptr..unique..Unique$LT$T$GT$$GT$$GT$4from17h0928eacdda3b9c27E:
Lfunc_begin4:
	.file	5 "/rustc/6c8927b0cf80ceee19386026cf9d7fd4fd9d486f/src/libcore/ptr/non_null.rs"
	.loc	5 329 0
	.cfi_startproc
	pushq	%rbp
	.cfi_def_cfa_offset 16
	.cfi_offset %rbp, -16
	movq	%rsp, %rbp
	.cfi_def_cfa_register %rbp
	subq	$32, %rsp
	movq	%rdi, -8(%rbp)
Ltmp16:
	.loc	5 332 41 prologue_end
	callq	__ZN4core3ptr6unique15Unique$LT$T$GT$6as_ptr17hd52b6df0a9b6452aE
	movq	%rax, -16(%rbp)
	.loc	5 0 41 is_stmt 0
	movq	-16(%rbp), %rdi
	.loc	5 332 18
	callq	__ZN4core3ptr8non_null16NonNull$LT$T$GT$13new_unchecked17he8d2af0860a6e051E
	movq	%rax, -24(%rbp)
	.loc	5 0 18
	movq	-24(%rbp), %rax
	.loc	5 333 6 is_stmt 1
	addq	$32, %rsp
	popq	%rbp
	retq
Ltmp17:
Lfunc_end4:
	.cfi_endproc

	.p2align	4, 0x90
__ZN119_$LT$core..ptr..non_null..NonNull$LT$T$GT$$u20$as$u20$core..convert..From$LT$core..ptr..unique..Unique$LT$T$GT$$GT$$GT$4from17haa54a3e2f8962cccE:
Lfunc_begin5:
	.loc	5 329 0
	.cfi_startproc
	pushq	%rbp
	.cfi_def_cfa_offset 16
	.cfi_offset %rbp, -16
	movq	%rsp, %rbp
	.cfi_def_cfa_register %rbp
	subq	$32, %rsp
	movq	%rdi, -8(%rbp)
Ltmp18:
	.loc	5 332 41 prologue_end
	callq	__ZN4core3ptr6unique15Unique$LT$T$GT$6as_ptr17h620817ae0a991daeE
	movq	%rax, -16(%rbp)
	.loc	5 0 41 is_stmt 0
	movq	-16(%rbp), %rdi
	.loc	5 332 18
	callq	__ZN4core3ptr8non_null16NonNull$LT$T$GT$13new_unchecked17h301bf81fecaf6e3eE
	movq	%rax, -24(%rbp)
	.loc	5 0 18
	movq	-24(%rbp), %rax
	.loc	5 333 6 is_stmt 1
	addq	$32, %rsp
	popq	%rbp
	retq
Ltmp19:
Lfunc_end5:
	.cfi_endproc

	.p2align	4, 0x90
__ZN166_$LT$$LT$alloc..collections..btree..map..IntoIter$LT$K$C$V$GT$$u20$as$u20$core..ops..drop..Drop$GT$..drop..DropGuard$LT$K$C$V$GT$$u20$as$u20$core..ops..drop..Drop$GT$4drop17h8f3ce11bb0d36707E:
Lfunc_begin6:
	.loc	3 1448 0
	.cfi_startproc
	pushq	%rbp
	.cfi_def_cfa_offset 16
	.cfi_offset %rbp, -16
	movq	%rsp, %rbp
	.cfi_def_cfa_register %rbp
	subq	$384, %rsp
	movq	%rdi, -40(%rbp)
	movq	%rdi, -376(%rbp)
LBB6_1:
	movq	-376(%rbp), %rax
Ltmp20:
	.loc	3 1451 37 prologue_end
	movq	(%rax), %rsi
	leaq	-368(%rbp), %rdi
	callq	__ZN112_$LT$alloc..collections..btree..map..IntoIter$LT$K$C$V$GT$$u20$as$u20$core..iter..traits..iterator..Iterator$GT$4next17h5a1bc18f08aef5c3E
	.loc	3 0 37 is_stmt 0
	xorl	%eax, %eax
	movl	%eax, %ecx
	.loc	3 1451 27
	cmpq	$0, -368(%rbp)
	movl	$1, %edx
	cmovbeq	%rcx, %rdx
	cmpq	$1, %rdx
	je	LBB6_4
	.loc	3 1451 52
	leaq	-368(%rbp), %rdi
	callq	__ZN4core3ptr13drop_in_place17h835a4cce93fe6db8E
	jmp	LBB6_5
LBB6_4:
	leaq	-368(%rbp), %rdi
	callq	__ZN4core3ptr13drop_in_place17h835a4cce93fe6db8E
	jmp	LBB6_6
LBB6_5:
	.loc	3 0 52
	movq	-376(%rbp), %rax
	.loc	3 1455 52 is_stmt 1
	movq	(%rax), %rcx
	.loc	3 1455 42 is_stmt 0
	leaq	-240(%rbp), %rdi
	movq	%rcx, %rsi
	callq	__ZN4core3ptr4read17hc8c0830615d92e8dE
	jmp	LBB6_7
LBB6_6:
	.loc	3 1451 17 is_stmt 1
	jmp	LBB6_1
LBB6_7:
Ltmp21:
	.file	6 "/rustc/6c8927b0cf80ceee19386026cf9d7fd4fd9d486f/src/liballoc/collections/btree/mod.rs"
	.loc	6 18 5
	movq	-240(%rbp), %rax
	movq	%rax, -32(%rbp)
	movq	-232(%rbp), %rax
	movq	%rax, -24(%rbp)
	movq	-224(%rbp), %rax
	movq	%rax, -16(%rbp)
	movq	-216(%rbp), %rax
	movq	%rax, -8(%rbp)
	leaq	-272(%rbp), %rdi
	leaq	-32(%rbp), %rsi
	callq	__ZN4core6option15Option$LT$T$GT$14unwrap_or_else17h8f5f6a80aca54ddcE
Ltmp22:
	.loc	3 1455 25
	leaq	-296(%rbp), %rdi
	leaq	-272(%rbp), %rsi
	callq	__ZN5alloc11collections5btree4node25Handle$LT$Node$C$Type$GT$9into_node17h8dbd7008c2e025b9E
	leaq	-320(%rbp), %rdi
	leaq	-296(%rbp), %rsi
	callq	__ZN5alloc11collections5btree4node40NodeRef$LT$BorrowType$C$K$C$V$C$Type$GT$11forget_type17h05c3236f7c6e7a18E
Ltmp23:
	.loc	3 1456 21
	jmp	LBB6_11
LBB6_11:
	.loc	3 1456 46 is_stmt 0
	movq	-320(%rbp), %rax
	movq	%rax, -176(%rbp)
	movq	-312(%rbp), %rax
	movq	%rax, -168(%rbp)
	movq	-304(%rbp), %rax
	movq	%rax, -160(%rbp)
	leaq	-208(%rbp), %rdi
	leaq	-176(%rbp), %rsi
	callq	__ZN5alloc11collections5btree4node127NodeRef$LT$alloc..collections..btree..node..marker..Owned$C$K$C$V$C$alloc..collections..btree..node..marker..LeafOrInternal$GT$21deallocate_and_ascend17h3fb43517fbaa39a3E
	.loc	3 0 46
	xorl	%eax, %eax
	movl	%eax, %ecx
	.loc	3 1456 31
	cmpq	$0, -200(%rbp)
	movl	$1, %edx
	cmovbeq	%rcx, %rdx
	cmpq	$1, %rdx
	je	LBB6_14
Ltmp24:
	.loc	3 1460 14 is_stmt 1
	addq	$384, %rsp
	popq	%rbp
	retq
LBB6_14:
Ltmp25:
	.loc	3 1456 36
	movq	-208(%rbp), %rax
	movq	%rax, -152(%rbp)
	movq	-200(%rbp), %rax
	movq	%rax, -144(%rbp)
	movq	-192(%rbp), %rax
	movq	%rax, -136(%rbp)
	movq	-184(%rbp), %rax
	movq	%rax, -128(%rbp)
Ltmp26:
	.loc	3 1457 32
	movq	-152(%rbp), %rax
	movq	%rax, -72(%rbp)
	movq	-144(%rbp), %rax
	movq	%rax, -64(%rbp)
	movq	-136(%rbp), %rax
	movq	%rax, -56(%rbp)
	movq	-128(%rbp), %rax
	movq	%rax, -48(%rbp)
	leaq	-96(%rbp), %rdi
	leaq	-72(%rbp), %rsi
	callq	__ZN5alloc11collections5btree4node25Handle$LT$Node$C$Type$GT$9into_node17hbaf3b17228134f43E
	leaq	-120(%rbp), %rdi
	leaq	-96(%rbp), %rsi
	callq	__ZN5alloc11collections5btree4node40NodeRef$LT$BorrowType$C$K$C$V$C$Type$GT$11forget_type17hd62284612d7f8fbdE
	.loc	3 1457 25 is_stmt 0
	movq	-120(%rbp), %rax
	movq	%rax, -320(%rbp)
	movq	-112(%rbp), %rax
	movq	%rax, -312(%rbp)
	movq	-104(%rbp), %rax
	movq	%rax, -304(%rbp)
Ltmp27:
	.loc	3 1456 21 is_stmt 1
	jmp	LBB6_11
Ltmp28:
Lfunc_end6:
	.cfi_endproc

	.p2align	4, 0x90
__ZN3std10sys_common12os_str_bytes3Buf8as_slice17ha87ef72dc1469ac2E:
Lfunc_begin7:
	.file	7 "/rustc/6c8927b0cf80ceee19386026cf9d7fd4fd9d486f/src/libstd/sys_common/os_str_bytes.rs"
	.loc	7 108 0
	.cfi_startproc
	pushq	%rbp
	.cfi_def_cfa_offset 16
	.cfi_offset %rbp, -16
	movq	%rsp, %rbp
	.cfi_def_cfa_register %rbp
	subq	$64, %rsp
	movq	%rdi, -24(%rbp)
Ltmp29:
	.loc	7 112 34 prologue_end
	callq	__ZN68_$LT$alloc..vec..Vec$LT$T$GT$$u20$as$u20$core..ops..deref..Deref$GT$5deref17h0e8ca625cb31e9e2E
	movq	%rax, -32(%rbp)
	movq	%rdx, -40(%rbp)
	.loc	7 0 34 is_stmt 0
	movq	-32(%rbp), %rax
	.loc	7 112 18
	movq	%rax, -16(%rbp)
	movq	-40(%rbp), %rcx
	movq	%rcx, -8(%rbp)
	movq	-16(%rbp), %rax
	movq	-8(%rbp), %rdx
	movq	%rax, -48(%rbp)
	movq	%rdx, -56(%rbp)
	.loc	7 0 18
	movq	-48(%rbp), %rax
	movq	-56(%rbp), %rdx
	.loc	7 113 6 is_stmt 1
	addq	$64, %rsp
	popq	%rbp
	retq
Ltmp30:
Lfunc_end7:
	.cfi_endproc

	.p2align	4, 0x90
__ZN3std10sys_common12os_str_bytes5Slice13from_u8_slice17hd1b7fb00821045eeE:
Lfunc_begin8:
	.loc	7 155 0
	.cfi_startproc
	pushq	%rbp
	.cfi_def_cfa_offset 16
	.cfi_offset %rbp, -16
	movq	%rsp, %rbp
	.cfi_def_cfa_register %rbp
	subq	$48, %rsp
	movq	%rdi, -32(%rbp)
	movq	%rsi, -24(%rbp)
Ltmp31:
	.loc	7 156 18 prologue_end
	movq	%rdi, -16(%rbp)
	movq	%rsi, -8(%rbp)
	movq	-16(%rbp), %rax
	movq	-8(%rbp), %rdx
	movq	%rax, -40(%rbp)
	movq	%rdx, -48(%rbp)
	.loc	7 0 18 is_stmt 0
	movq	-40(%rbp), %rax
	movq	-48(%rbp), %rdx
	.loc	7 157 6 is_stmt 1
	addq	$48, %rsp
	popq	%rbp
	retq
Ltmp32:
Lfunc_end8:
	.cfi_endproc

	.p2align	4, 0x90
__ZN3std10sys_common12os_str_bytes5Slice8from_str17h0ee5ba269c1fc378E:
Lfunc_begin9:
	.loc	7 160 0
	.cfi_startproc
	pushq	%rbp
	.cfi_def_cfa_offset 16
	.cfi_offset %rbp, -16
	movq	%rsp, %rbp
	.cfi_def_cfa_register %rbp
	subq	$80, %rsp
	movq	%rdi, -48(%rbp)
	movq	%rsi, -40(%rbp)
	movq	%rdi, -16(%rbp)
	movq	%rsi, -8(%rbp)
Ltmp33:
	.file	8 "/rustc/6c8927b0cf80ceee19386026cf9d7fd4fd9d486f/src/libcore/str/mod.rs"
	.loc	8 2359 18 prologue_end
	movq	%rdi, -32(%rbp)
	movq	%rsi, -24(%rbp)
	movq	-32(%rbp), %rdi
	movq	-24(%rbp), %rsi
	movq	%rdi, -56(%rbp)
	movq	%rsi, -64(%rbp)
Ltmp34:
	.loc	8 0 18 is_stmt 0
	movq	-56(%rbp), %rdi
	movq	-64(%rbp), %rsi
	.loc	7 161 9 is_stmt 1
	callq	__ZN3std10sys_common12os_str_bytes5Slice13from_u8_slice17hd1b7fb00821045eeE
	movq	%rax, -72(%rbp)
	movq	%rdx, -80(%rbp)
	.loc	7 0 9 is_stmt 0
	movq	-72(%rbp), %rax
	movq	-80(%rbp), %rdx
	.loc	7 162 6 is_stmt 1
	addq	$80, %rsp
	popq	%rbp
	retq
Ltmp35:
Lfunc_end9:
	.cfi_endproc

	.private_extern	__ZN3std2rt10lang_start17h4d77834564b28f99E
	.globl	__ZN3std2rt10lang_start17h4d77834564b28f99E
	.p2align	4, 0x90
__ZN3std2rt10lang_start17h4d77834564b28f99E:
Lfunc_begin10:
	.file	9 "/rustc/6c8927b0cf80ceee19386026cf9d7fd4fd9d486f/src/libstd/rt.rs"
	.loc	9 62 0
	.cfi_startproc
	pushq	%rbp
	.cfi_def_cfa_offset 16
	.cfi_offset %rbp, -16
	movq	%rsp, %rbp
	.cfi_def_cfa_register %rbp
	subq	$64, %rsp
	leaq	l___unnamed_1(%rip), %rax
	movq	%rdi, -24(%rbp)
	movq	%rsi, -16(%rbp)
	movq	%rdx, -8(%rbp)
Ltmp36:
	.loc	9 67 26 prologue_end
	movq	%rdi, -32(%rbp)
	.loc	9 67 25 is_stmt 0
	leaq	-32(%rbp), %rcx
	.loc	9 67 5
	movq	%rcx, %rdi
	movq	%rsi, -40(%rbp)
	movq	%rax, %rsi
	movq	-40(%rbp), %rax
	movq	%rdx, -48(%rbp)
	movq	%rax, %rdx
	movq	-48(%rbp), %rcx
	callq	__ZN3std2rt19lang_start_internal17hbbd10965adc92ae7E
	movq	%rax, -56(%rbp)
	.loc	9 0 5
	movq	-56(%rbp), %rax
	.loc	9 68 2 is_stmt 1
	addq	$64, %rsp
	popq	%rbp
	retq
Ltmp37:
Lfunc_end10:
	.cfi_endproc

	.p2align	4, 0x90
__ZN3std2rt10lang_start28_$u7b$$u7b$closure$u7d$$u7d$17h4b8deec273115a64E:
Lfunc_begin11:
	.loc	9 67 0
	.cfi_startproc
	pushq	%rbp
	.cfi_def_cfa_offset 16
	.cfi_offset %rbp, -16
	movq	%rsp, %rbp
	.cfi_def_cfa_register %rbp
	subq	$16, %rsp
	movq	%rdi, -8(%rbp)
Ltmp38:
	.loc	9 67 34 prologue_end
	callq	*(%rdi)
	callq	__ZN54_$LT$$LP$$RP$$u20$as$u20$std..process..Termination$GT$6report17hde12a565c7d41402E
	movl	%eax, -12(%rbp)
	.loc	9 0 34 is_stmt 0
	movl	-12(%rbp), %eax
	.loc	9 67 49
	addq	$16, %rsp
	popq	%rbp
	retq
Ltmp39:
Lfunc_end11:
	.cfi_endproc

	.p2align	4, 0x90
__ZN3std3env6var_os17h811e6a398a3ec38eE:
Lfunc_begin12:
	.file	10 "/rustc/6c8927b0cf80ceee19386026cf9d7fd4fd9d486f/src/libstd/env.rs"
	.loc	10 245 0 is_stmt 1
	.cfi_startproc
	.cfi_personality 155, _rust_eh_personality
	.cfi_lsda 16, Lexception0
	pushq	%rbp
	.cfi_def_cfa_offset 16
	.cfi_offset %rbp, -16
	movq	%rsp, %rbp
	.cfi_def_cfa_register %rbp
	subq	$64, %rsp
	movq	%rdi, %rax
	movq	%rsi, -32(%rbp)
	movq	%rdx, -24(%rbp)
Ltmp40:
	leaq	-32(%rbp), %rcx
	movq	%rdi, -40(%rbp)
Ltmp45:
	.loc	10 246 13 prologue_end
	movq	%rcx, %rdi
	movq	%rax, -48(%rbp)
	callq	__ZN55_$LT$$RF$T$u20$as$u20$core..convert..AsRef$LT$U$GT$$GT$6as_ref17h071949e14381dde7E
Ltmp41:
	movq	%rdx, -56(%rbp)
	movq	%rax, -64(%rbp)
	jmp	LBB12_2
LBB12_1:
	.loc	10 245 1
	movq	-16(%rbp), %rdi
	callq	__Unwind_Resume
	ud2
LBB12_2:
Ltmp42:
	.loc	10 0 1 is_stmt 0
	movq	-40(%rbp), %rdi
	movq	-64(%rbp), %rsi
	movq	-56(%rbp), %rdx
	.loc	10 246 5 is_stmt 1
	callq	__ZN3std3env7_var_os17hc628b18a701aa4a3E
Ltmp43:
	jmp	LBB12_4
LBB12_3:
	.loc	10 247 1
	jmp	LBB12_1
LBB12_4:
	jmp	LBB12_5
LBB12_5:
	.loc	10 0 1 is_stmt 0
	movq	-48(%rbp), %rax
	.loc	10 247 2
	addq	$64, %rsp
	popq	%rbp
	retq
Ltmp46:
LBB12_6:
Ltmp44:
	.loc	10 0 2
	movq	%rax, -16(%rbp)
	movl	%edx, -8(%rbp)
	jmp	LBB12_3
Lfunc_end12:
	.cfi_endproc
	.section	__TEXT,__gcc_except_tab
	.p2align	2
GCC_except_table12:
Lexception0:
	.byte	255
	.byte	255
	.byte	1
	.uleb128 Lcst_end0-Lcst_begin0
Lcst_begin0:
	.uleb128 Ltmp40-Lfunc_begin12
	.uleb128 Ltmp41-Ltmp40
	.uleb128 Ltmp44-Lfunc_begin12
	.byte	0
	.uleb128 Ltmp41-Lfunc_begin12
	.uleb128 Ltmp42-Ltmp41
	.byte	0
	.byte	0
	.uleb128 Ltmp42-Lfunc_begin12
	.uleb128 Ltmp43-Ltmp42
	.uleb128 Ltmp44-Lfunc_begin12
	.byte	0
Lcst_end0:
	.p2align	2

	.section	__TEXT,__text,regular,pure_instructions
	.p2align	4, 0x90
__ZN3std3ffi6os_str5OsStr10from_inner17hbdb8f8abc77e8598E:
Lfunc_begin13:
	.loc	2 528 0 is_stmt 1
	.cfi_startproc
	pushq	%rbp
	.cfi_def_cfa_offset 16
	.cfi_offset %rbp, -16
	movq	%rsp, %rbp
	.cfi_def_cfa_register %rbp
	subq	$16, %rsp
	movq	%rdi, -16(%rbp)
	movq	%rsi, -8(%rbp)
Ltmp47:
	.loc	2 532 6 prologue_end
	movq	%rdi, %rax
	movq	%rsi, %rdx
	addq	$16, %rsp
	popq	%rbp
	retq
Ltmp48:
Lfunc_end13:
	.cfi_endproc

	.p2align	4, 0x90
__ZN3std3ffi6os_str85_$LT$impl$u20$core..convert..AsRef$LT$std..ffi..os_str..OsStr$GT$$u20$for$u20$str$GT$6as_ref17h388468adb12ca355E:
Lfunc_begin14:
	.loc	2 1157 0
	.cfi_startproc
	pushq	%rbp
	.cfi_def_cfa_offset 16
	.cfi_offset %rbp, -16
	movq	%rsp, %rbp
	.cfi_def_cfa_register %rbp
	subq	$48, %rsp
	movq	%rdi, -16(%rbp)
	movq	%rsi, -8(%rbp)
Ltmp49:
	.loc	2 1158 27 prologue_end
	callq	__ZN3std10sys_common12os_str_bytes5Slice8from_str17h0ee5ba269c1fc378E
	movq	%rax, -24(%rbp)
	movq	%rdx, -32(%rbp)
	.loc	2 0 27 is_stmt 0
	movq	-24(%rbp), %rdi
	movq	-32(%rbp), %rsi
	.loc	2 1158 9
	callq	__ZN3std3ffi6os_str5OsStr10from_inner17hbdb8f8abc77e8598E
	movq	%rax, -40(%rbp)
	movq	%rdx, -48(%rbp)
	.loc	2 0 9
	movq	-40(%rbp), %rax
	movq	-48(%rbp), %rdx
	.loc	2 1159 6 is_stmt 1
	addq	$48, %rsp
	popq	%rbp
	retq
Ltmp50:
Lfunc_end14:
	.cfi_endproc

	.p2align	4, 0x90
__ZN3std3sys4unix7process14process_common8ExitCode6as_i3217h592b36f4dd5354dcE:
Lfunc_begin15:
	.file	11 "/rustc/6c8927b0cf80ceee19386026cf9d7fd4fd9d486f/src/libstd/sys/unix/process/process_common.rs"
	.loc	11 398 0
	.cfi_startproc
	pushq	%rbp
	.cfi_def_cfa_offset 16
	.cfi_offset %rbp, -16
	movq	%rsp, %rbp
	.cfi_def_cfa_register %rbp
	pushq	%rax
	movq	%rdi, -8(%rbp)
Ltmp51:
	.loc	11 399 9 prologue_end
	movzbl	(%rdi), %eax
	.loc	11 400 6
	addq	$8, %rsp
	popq	%rbp
	retq
Ltmp52:
Lfunc_end15:
	.cfi_endproc

	.p2align	4, 0x90
__ZN3std7process7Command3arg17hfdfb45bdf98e0f6aE:
Lfunc_begin16:
	.file	12 "/rustc/6c8927b0cf80ceee19386026cf9d7fd4fd9d486f/src/libstd/process.rs"
	.loc	12 541 0
	.cfi_startproc
	.cfi_personality 155, _rust_eh_personality
	.cfi_lsda 16, Lexception1
	pushq	%rbp
	.cfi_def_cfa_offset 16
	.cfi_offset %rbp, -16
	movq	%rsp, %rbp
	.cfi_def_cfa_register %rbp
	subq	$80, %rsp
	movq	%rsi, -40(%rbp)
	movq	%rdx, -32(%rbp)
	movq	%rdi, -24(%rbp)
Ltmp58:
	.loc	12 542 9 prologue_end
	movq	%rdi, %rax
Ltmp53:
	leaq	-40(%rbp), %rcx
	movq	%rdi, -48(%rbp)
	.loc	12 542 24 is_stmt 0
	movq	%rcx, %rdi
	movq	%rax, -56(%rbp)
	callq	__ZN55_$LT$$RF$T$u20$as$u20$core..convert..AsRef$LT$U$GT$$GT$6as_ref17h071949e14381dde7E
Ltmp54:
	movq	%rdx, -64(%rbp)
	movq	%rax, -72(%rbp)
	jmp	LBB16_2
LBB16_1:
	.loc	12 541 5 is_stmt 1
	movq	-16(%rbp), %rdi
	callq	__Unwind_Resume
	ud2
LBB16_2:
Ltmp55:
	.loc	12 0 5 is_stmt 0
	movq	-56(%rbp), %rdi
	movq	-72(%rbp), %rsi
	movq	-64(%rbp), %rdx
	.loc	12 542 9 is_stmt 1
	callq	__ZN3std3sys4unix7process14process_common7Command3arg17he3b985033bebdb87E
Ltmp56:
	jmp	LBB16_4
LBB16_3:
	.loc	12 544 5
	jmp	LBB16_1
LBB16_4:
	jmp	LBB16_5
LBB16_5:
	.loc	12 0 5 is_stmt 0
	movq	-48(%rbp), %rax
	.loc	12 544 6
	addq	$80, %rsp
	popq	%rbp
	retq
Ltmp59:
LBB16_6:
Ltmp57:
	.loc	12 0 6
	movq	%rax, -16(%rbp)
	movl	%edx, -8(%rbp)
	jmp	LBB16_3
Lfunc_end16:
	.cfi_endproc
	.section	__TEXT,__gcc_except_tab
	.p2align	2
GCC_except_table16:
Lexception1:
	.byte	255
	.byte	255
	.byte	1
	.uleb128 Lcst_end1-Lcst_begin1
Lcst_begin1:
	.uleb128 Ltmp53-Lfunc_begin16
	.uleb128 Ltmp54-Ltmp53
	.uleb128 Ltmp57-Lfunc_begin16
	.byte	0
	.uleb128 Ltmp54-Lfunc_begin16
	.uleb128 Ltmp55-Ltmp54
	.byte	0
	.byte	0
	.uleb128 Ltmp55-Lfunc_begin16
	.uleb128 Ltmp56-Ltmp55
	.uleb128 Ltmp57-Lfunc_begin16
	.byte	0
Lcst_end1:
	.p2align	2

	.section	__TEXT,__text,regular,pure_instructions
	.p2align	4, 0x90
__ZN3std7process7Command3new17h61c5d7152ffc3bbdE:
Lfunc_begin17:
	.loc	12 500 0 is_stmt 1
	.cfi_startproc
	.cfi_personality 155, _rust_eh_personality
	.cfi_lsda 16, Lexception2
	pushq	%rbp
	.cfi_def_cfa_offset 16
	.cfi_offset %rbp, -16
	movq	%rsp, %rbp
	.cfi_def_cfa_register %rbp
	subq	$240, %rsp
	movq	%rdi, %rax
Ltmp60:
	movq	%rdi, -208(%rbp)
Ltmp65:
	.loc	12 501 44 prologue_end
	movq	%rsi, %rdi
	movq	%rsi, -216(%rbp)
Ltmp66:
	.loc	12 0 44 is_stmt 0
	movq	%rax, -224(%rbp)
	.loc	12 501 44
	callq	__ZN98_$LT$std..ffi..os_str..OsString$u20$as$u20$core..convert..AsRef$LT$std..ffi..os_str..OsStr$GT$$GT$6as_ref17h3af7b3859ee83ac6E
Ltmp61:
	movq	%rdx, -232(%rbp)
	movq	%rax, -240(%rbp)
	jmp	LBB17_2
Ltmp67:
LBB17_1:
	.loc	12 500 5 is_stmt 1
	movq	-16(%rbp), %rdi
	callq	__Unwind_Resume
	ud2
Ltmp68:
LBB17_2:
Ltmp62:
	.loc	12 0 5 is_stmt 0
	leaq	-200(%rbp), %rdi
	movq	-240(%rbp), %rsi
	movq	-232(%rbp), %rdx
	.loc	12 501 26 is_stmt 1
	callq	__ZN3std3sys4unix7process14process_common7Command3new17h6b51c4bb5fada643E
Ltmp63:
	jmp	LBB17_4
Ltmp69:
LBB17_3:
	.loc	12 0 26 is_stmt 0
	movq	-216(%rbp), %rdi
	.loc	12 502 5 is_stmt 1
	callq	__ZN4core3ptr13drop_in_place17h2a1e4345cf68a61cE
	jmp	LBB17_1
Ltmp70:
LBB17_4:
	.loc	12 0 5 is_stmt 0
	movq	-208(%rbp), %rax
	.loc	12 501 9 is_stmt 1
	leaq	-200(%rbp), %rcx
	movq	%rax, %rdi
	movq	%rcx, %rsi
	movl	$184, %edx
	callq	_memcpy
	movq	-216(%rbp), %rdi
	.loc	12 502 5
	callq	__ZN4core3ptr13drop_in_place17h2a1e4345cf68a61cE
Ltmp71:
	.loc	12 0 5 is_stmt 0
	movq	-224(%rbp), %rax
	.loc	12 502 6
	addq	$240, %rsp
	popq	%rbp
	retq
Ltmp72:
LBB17_6:
Ltmp64:
	.loc	12 0 6
	movq	%rax, -16(%rbp)
	movl	%edx, -8(%rbp)
	jmp	LBB17_3
Lfunc_end17:
	.cfi_endproc
	.section	__TEXT,__gcc_except_tab
	.p2align	2
GCC_except_table17:
Lexception2:
	.byte	255
	.byte	255
	.byte	1
	.uleb128 Lcst_end2-Lcst_begin2
Lcst_begin2:
	.uleb128 Ltmp60-Lfunc_begin17
	.uleb128 Ltmp61-Ltmp60
	.uleb128 Ltmp64-Lfunc_begin17
	.byte	0
	.uleb128 Ltmp61-Lfunc_begin17
	.uleb128 Ltmp62-Ltmp61
	.byte	0
	.byte	0
	.uleb128 Ltmp62-Lfunc_begin17
	.uleb128 Ltmp63-Ltmp62
	.uleb128 Ltmp64-Lfunc_begin17
	.byte	0
	.uleb128 Ltmp63-Lfunc_begin17
	.uleb128 Lfunc_end17-Ltmp63
	.byte	0
	.byte	0
Lcst_end2:
	.p2align	2

	.section	__TEXT,__text,regular,pure_instructions
	.p2align	4, 0x90
__ZN44_$LT$$RF$T$u20$as$u20$core..fmt..Display$GT$3fmt17h75440361e09bfecaE:
Lfunc_begin18:
	.file	13 "/rustc/6c8927b0cf80ceee19386026cf9d7fd4fd9d486f/src/libcore/fmt/mod.rs"
	.loc	13 2022 0 is_stmt 1
	.cfi_startproc
	pushq	%rbp
	.cfi_def_cfa_offset 16
	.cfi_offset %rbp, -16
	movq	%rsp, %rbp
	.cfi_def_cfa_register %rbp
	subq	$32, %rsp
	movq	%rdi, -16(%rbp)
	movq	%rsi, -8(%rbp)
Ltmp73:
	.loc	13 2022 71 prologue_end
	movq	(%rdi), %rax
	movq	8(%rdi), %rcx
	.loc	13 2022 62 is_stmt 0
	movq	%rax, %rdi
	movq	%rsi, -24(%rbp)
	movq	%rcx, %rsi
	movq	-24(%rbp), %rdx
	callq	__ZN42_$LT$str$u20$as$u20$core..fmt..Display$GT$3fmt17h6768afae62e94f93E
	movb	%al, -25(%rbp)
	.loc	13 0 62
	movb	-25(%rbp), %al
	.loc	13 2022 84
	andb	$1, %al
	movzbl	%al, %eax
	addq	$32, %rsp
	popq	%rbp
	retq
Ltmp74:
Lfunc_end18:
	.cfi_endproc

	.p2align	4, 0x90
__ZN49_$LT$usize$u20$as$u20$core..iter..range..Step$GT$17forward_unchecked17hfb0ecbf2a14d19c1E:
Lfunc_begin19:
	.file	14 "/rustc/6c8927b0cf80ceee19386026cf9d7fd4fd9d486f/src/libcore/iter/range.rs"
	.loc	14 191 0 is_stmt 1
	.cfi_startproc
	pushq	%rbp
	.cfi_def_cfa_offset 16
	.cfi_offset %rbp, -16
	movq	%rsp, %rbp
	.cfi_def_cfa_register %rbp
	subq	$32, %rsp
	movq	%rdi, -16(%rbp)
	movq	%rsi, -8(%rbp)
Ltmp75:
	.loc	14 193 22 prologue_end
	callq	__ZN4core3num23_$LT$impl$u20$usize$GT$13unchecked_add17h0f41f07e0f89e824E
	movq	%rax, -24(%rbp)
	.loc	14 0 22 is_stmt 0
	movq	-24(%rbp), %rax
	.loc	14 194 10 is_stmt 1
	addq	$32, %rsp
	popq	%rbp
	retq
Ltmp76:
Lfunc_end19:
	.cfi_endproc

	.p2align	4, 0x90
__ZN49_$LT$usize$u20$as$u20$core..iter..range..Step$GT$18backward_unchecked17h8875d8f9ed686066E:
Lfunc_begin20:
	.loc	14 197 0
	.cfi_startproc
	pushq	%rbp
	.cfi_def_cfa_offset 16
	.cfi_offset %rbp, -16
	movq	%rsp, %rbp
	.cfi_def_cfa_register %rbp
	subq	$32, %rsp
	movq	%rdi, -16(%rbp)
	movq	%rsi, -8(%rbp)
Ltmp77:
	.loc	14 199 22 prologue_end
	callq	__ZN4core3num23_$LT$impl$u20$usize$GT$13unchecked_sub17ha5c67c6aedc39bebE
	movq	%rax, -24(%rbp)
	.loc	14 0 22 is_stmt 0
	movq	-24(%rbp), %rax
	.loc	14 200 10 is_stmt 1
	addq	$32, %rsp
	popq	%rbp
	retq
Ltmp78:
Lfunc_end20:
	.cfi_endproc

	.p2align	4, 0x90
__ZN4core10intrinsics19copy_nonoverlapping17h07fbac5025aad8fbE:
Lfunc_begin21:
	.file	15 "/rustc/6c8927b0cf80ceee19386026cf9d7fd4fd9d486f/src/libcore/intrinsics.rs"
	.loc	15 2114 0
	.cfi_startproc
	pushq	%rbp
	.cfi_def_cfa_offset 16
	.cfi_offset %rbp, -16
	movq	%rsp, %rbp
	.cfi_def_cfa_register %rbp
	subq	$32, %rsp
	movq	%rdi, -24(%rbp)
	movq	%rsi, -16(%rbp)
	movq	%rdx, -8(%rbp)
Ltmp79:
	.loc	15 2130 14 prologue_end
	imulq	$24, %rdx, %rdx
	movq	%rdi, -32(%rbp)
	movq	%rsi, %rdi
	movq	-32(%rbp), %rsi
	callq	_memcpy
	.loc	15 2131 2
	addq	$32, %rsp
	popq	%rbp
	retq
Ltmp80:
Lfunc_end21:
	.cfi_endproc

	.p2align	4, 0x90
__ZN4core10intrinsics19copy_nonoverlapping17h17a6a8f4144e54b3E:
Lfunc_begin22:
	.loc	15 2114 0
	.cfi_startproc
	pushq	%rbp
	.cfi_def_cfa_offset 16
	.cfi_offset %rbp, -16
	movq	%rsp, %rbp
	.cfi_def_cfa_register %rbp
	subq	$32, %rsp
	movq	%rdi, -24(%rbp)
	movq	%rsi, -16(%rbp)
	movq	%rdx, -8(%rbp)
Ltmp81:
	.loc	15 2130 14 prologue_end
	imulq	$24, %rdx, %rdx
	movq	%rdi, -32(%rbp)
	movq	%rsi, %rdi
	movq	-32(%rbp), %rsi
	callq	_memcpy
	.loc	15 2131 2
	addq	$32, %rsp
	popq	%rbp
	retq
Ltmp82:
Lfunc_end22:
	.cfi_endproc

	.p2align	4, 0x90
__ZN4core10intrinsics19copy_nonoverlapping17h4f996fe4357fcb45E:
Lfunc_begin23:
	.loc	15 2114 0
	.cfi_startproc
	pushq	%rbp
	.cfi_def_cfa_offset 16
	.cfi_offset %rbp, -16
	movq	%rsp, %rbp
	.cfi_def_cfa_register %rbp
	subq	$32, %rsp
	movq	%rdi, -24(%rbp)
	movq	%rsi, -16(%rbp)
	movq	%rdx, -8(%rbp)
Ltmp83:
	.loc	15 2130 14 prologue_end
	imulq	$24, %rdx, %rdx
	movq	%rdi, -32(%rbp)
	movq	%rsi, %rdi
	movq	-32(%rbp), %rsi
	callq	_memcpy
	.loc	15 2131 2
	addq	$32, %rsp
	popq	%rbp
	retq
Ltmp84:
Lfunc_end23:
	.cfi_endproc

	.p2align	4, 0x90
__ZN4core10intrinsics19copy_nonoverlapping17h5673cb4aa9b64cf5E:
Lfunc_begin24:
	.loc	15 2114 0
	.cfi_startproc
	pushq	%rbp
	.cfi_def_cfa_offset 16
	.cfi_offset %rbp, -16
	movq	%rsp, %rbp
	.cfi_def_cfa_register %rbp
	subq	$32, %rsp
	movq	%rdi, -24(%rbp)
	movq	%rsi, -16(%rbp)
	movq	%rdx, -8(%rbp)
Ltmp85:
	.loc	15 2130 14 prologue_end
	shlq	$5, %rdx
	movq	%rdi, -32(%rbp)
	movq	%rsi, %rdi
	movq	-32(%rbp), %rsi
	callq	_memcpy
	.loc	15 2131 2
	addq	$32, %rsp
	popq	%rbp
	retq
Ltmp86:
Lfunc_end24:
	.cfi_endproc

	.p2align	4, 0x90
__ZN4core10intrinsics19copy_nonoverlapping17h7dfd5e833e603bf3E:
Lfunc_begin25:
	.loc	15 2114 0
	.cfi_startproc
	pushq	%rbp
	.cfi_def_cfa_offset 16
	.cfi_offset %rbp, -16
	movq	%rsp, %rbp
	.cfi_def_cfa_register %rbp
	subq	$32, %rsp
	movq	%rdi, -24(%rbp)
	movq	%rsi, -16(%rbp)
	movq	%rdx, -8(%rbp)
Ltmp87:
	.loc	15 2130 14 prologue_end
	shlq	$0, %rdx
	movq	%rdi, -32(%rbp)
	movq	%rsi, %rdi
	movq	-32(%rbp), %rsi
	callq	_memcpy
	.loc	15 2131 2
	addq	$32, %rsp
	popq	%rbp
	retq
Ltmp88:
Lfunc_end25:
	.cfi_endproc

	.p2align	4, 0x90
__ZN4core10intrinsics19copy_nonoverlapping17h8a091a442567d0abE:
Lfunc_begin26:
	.loc	15 2114 0
	.cfi_startproc
	pushq	%rbp
	.cfi_def_cfa_offset 16
	.cfi_offset %rbp, -16
	movq	%rsp, %rbp
	.cfi_def_cfa_register %rbp
	subq	$32, %rsp
	movq	%rdi, -24(%rbp)
	movq	%rsi, -16(%rbp)
	movq	%rdx, -8(%rbp)
Ltmp89:
	.loc	15 2130 14 prologue_end
	shlq	$5, %rdx
	movq	%rdi, -32(%rbp)
	movq	%rsi, %rdi
	movq	-32(%rbp), %rsi
	callq	_memcpy
	.loc	15 2131 2
	addq	$32, %rsp
	popq	%rbp
	retq
Ltmp90:
Lfunc_end26:
	.cfi_endproc

	.p2align	4, 0x90
__ZN4core10intrinsics19copy_nonoverlapping17had7fbc0c3734a032E:
Lfunc_begin27:
	.loc	15 2114 0
	.cfi_startproc
	pushq	%rbp
	.cfi_def_cfa_offset 16
	.cfi_offset %rbp, -16
	movq	%rsp, %rbp
	.cfi_def_cfa_register %rbp
	subq	$32, %rsp
	movq	%rdi, -24(%rbp)
	movq	%rsi, -16(%rbp)
	movq	%rdx, -8(%rbp)
Ltmp91:
	.loc	15 2130 14 prologue_end
	imulq	$24, %rdx, %rdx
	movq	%rdi, -32(%rbp)
	movq	%rsi, %rdi
	movq	-32(%rbp), %rsi
	callq	_memcpy
	.loc	15 2131 2
	addq	$32, %rsp
	popq	%rbp
	retq
Ltmp92:
Lfunc_end27:
	.cfi_endproc

	.p2align	4, 0x90
__ZN4core10intrinsics19copy_nonoverlapping17hd702403fbffa5f93E:
Lfunc_begin28:
	.loc	15 2114 0
	.cfi_startproc
	pushq	%rbp
	.cfi_def_cfa_offset 16
	.cfi_offset %rbp, -16
	movq	%rsp, %rbp
	.cfi_def_cfa_register %rbp
	subq	$32, %rsp
	movq	%rdi, -24(%rbp)
	movq	%rsi, -16(%rbp)
	movq	%rdx, -8(%rbp)
Ltmp93:
	.loc	15 2130 14 prologue_end
	shlq	$4, %rdx
	movq	%rdi, -32(%rbp)
	movq	%rsi, %rdi
	movq	-32(%rbp), %rsi
	callq	_memcpy
	.loc	15 2131 2
	addq	$32, %rsp
	popq	%rbp
	retq
Ltmp94:
Lfunc_end28:
	.cfi_endproc

	.p2align	4, 0x90
__ZN4core10intrinsics19copy_nonoverlapping17heab3ebd96218bd5aE:
Lfunc_begin29:
	.loc	15 2114 0
	.cfi_startproc
	pushq	%rbp
	.cfi_def_cfa_offset 16
	.cfi_offset %rbp, -16
	movq	%rsp, %rbp
	.cfi_def_cfa_register %rbp
	subq	$32, %rsp
	movq	%rdi, -24(%rbp)
	movq	%rsi, -16(%rbp)
	movq	%rdx, -8(%rbp)
Ltmp95:
	.loc	15 2130 14 prologue_end
	shlq	$3, %rdx
	movq	%rdi, -32(%rbp)
	movq	%rsi, %rdi
	movq	-32(%rbp), %rsi
	callq	_memcpy
	.loc	15 2131 2
	addq	$32, %rsp
	popq	%rbp
	retq
Ltmp96:
Lfunc_end29:
	.cfi_endproc

	.p2align	4, 0x90
__ZN4core10intrinsics19copy_nonoverlapping17hee495d927af0c01bE:
Lfunc_begin30:
	.loc	15 2114 0
	.cfi_startproc
	pushq	%rbp
	.cfi_def_cfa_offset 16
	.cfi_offset %rbp, -16
	movq	%rsp, %rbp
	.cfi_def_cfa_register %rbp
	subq	$32, %rsp
	movq	%rdi, -24(%rbp)
	movq	%rsi, -16(%rbp)
	movq	%rdx, -8(%rbp)
Ltmp97:
	.loc	15 2130 14 prologue_end
	imulq	$24, %rdx, %rdx
	movq	%rdi, -32(%rbp)
	movq	%rsi, %rdi
	movq	-32(%rbp), %rsi
	callq	_memcpy
	.loc	15 2131 2
	addq	$32, %rsp
	popq	%rbp
	retq
Ltmp98:
Lfunc_end30:
	.cfi_endproc

	.p2align	4, 0x90
__ZN4core3cmp3Ord3max17h11cb2f6baacb4398E:
Lfunc_begin31:
	.file	16 "/rustc/6c8927b0cf80ceee19386026cf9d7fd4fd9d486f/src/libcore/cmp.rs"
	.loc	16 599 0
	.cfi_startproc
	pushq	%rbp
	.cfi_def_cfa_offset 16
	.cfi_offset %rbp, -16
	movq	%rsp, %rbp
	.cfi_def_cfa_register %rbp
	subq	$32, %rsp
	movq	%rdi, -16(%rbp)
	movq	%rsi, -8(%rbp)
Ltmp99:
	.loc	16 603 9 prologue_end
	callq	__ZN4core3cmp6max_by17hbe9b52292f0d51ccE
	movq	%rax, -24(%rbp)
	.loc	16 0 9 is_stmt 0
	movq	-24(%rbp), %rax
	.loc	16 604 6 is_stmt 1
	addq	$32, %rsp
	popq	%rbp
	retq
Ltmp100:
Lfunc_end31:
	.cfi_endproc

	.p2align	4, 0x90
__ZN4core3cmp3max17he2bfd540395da66dE:
Lfunc_begin32:
	.loc	16 993 0
	.cfi_startproc
	pushq	%rbp
	.cfi_def_cfa_offset 16
	.cfi_offset %rbp, -16
	movq	%rsp, %rbp
	.cfi_def_cfa_register %rbp
	subq	$32, %rsp
	movq	%rdi, -16(%rbp)
	movq	%rsi, -8(%rbp)
Ltmp101:
	.loc	16 994 5 prologue_end
	callq	__ZN4core3cmp3Ord3max17h11cb2f6baacb4398E
	movq	%rax, -24(%rbp)
	.loc	16 0 5 is_stmt 0
	movq	-24(%rbp), %rax
	.loc	16 995 2 is_stmt 1
	addq	$32, %rsp
	popq	%rbp
	retq
Ltmp102:
Lfunc_end32:
	.cfi_endproc

	.p2align	4, 0x90
__ZN4core3cmp5impls50_$LT$impl$u20$core..cmp..Ord$u20$for$u20$usize$GT$3cmp17h73788bf939a09dd0E:
Lfunc_begin33:
	.loc	16 1148 0
	.cfi_startproc
	pushq	%rbp
	.cfi_def_cfa_offset 16
	.cfi_offset %rbp, -16
	movq	%rsp, %rbp
	.cfi_def_cfa_register %rbp
	subq	$40, %rsp
	movq	%rdi, -16(%rbp)
	movq	%rsi, -8(%rbp)
Ltmp103:
	.loc	16 1151 24 prologue_end
	movq	(%rdi), %rax
	cmpq	(%rsi), %rax
	movq	%rdi, -32(%rbp)
	movq	%rsi, -40(%rbp)
	.loc	16 1151 21 is_stmt 0
	jb	LBB33_2
	.loc	16 0 21
	movq	-32(%rbp), %rax
	.loc	16 1152 29 is_stmt 1
	movq	(%rax), %rcx
	movq	-40(%rbp), %rdx
	cmpq	(%rdx), %rcx
	.loc	16 1152 26 is_stmt 0
	je	LBB33_4
	jmp	LBB33_3
LBB33_2:
	.loc	16 1151 41 is_stmt 1
	movb	$-1, -17(%rbp)
	.loc	16 1151 21 is_stmt 0
	jmp	LBB33_6
LBB33_3:
	.loc	16 1153 28 is_stmt 1
	movb	$1, -17(%rbp)
	.loc	16 1152 26
	jmp	LBB33_5
LBB33_4:
	.loc	16 1152 47 is_stmt 0
	movb	$0, -17(%rbp)
LBB33_5:
	.loc	16 1151 21 is_stmt 1
	jmp	LBB33_6
LBB33_6:
	.loc	16 1154 18
	movb	-17(%rbp), %al
	addq	$40, %rsp
	popq	%rbp
	retq
Ltmp104:
Lfunc_end33:
	.cfi_endproc

	.p2align	4, 0x90
__ZN4core3cmp5impls57_$LT$impl$u20$core..cmp..PartialOrd$u20$for$u20$usize$GT$2lt17h741b18d97b38633bE:
Lfunc_begin34:
	.loc	16 1136 0
	.cfi_startproc
	pushq	%rbp
	.cfi_def_cfa_offset 16
	.cfi_offset %rbp, -16
	movq	%rsp, %rbp
	.cfi_def_cfa_register %rbp
	subq	$16, %rsp
	movq	%rdi, -16(%rbp)
	movq	%rsi, -8(%rbp)
Ltmp105:
	.loc	16 1136 52 prologue_end
	movq	(%rdi), %rax
	cmpq	(%rsi), %rax
	setb	%cl
	.loc	16 1136 72 is_stmt 0
	andb	$1, %cl
	movzbl	%cl, %eax
	addq	$16, %rsp
	popq	%rbp
	retq
Ltmp106:
Lfunc_end34:
	.cfi_endproc

	.p2align	4, 0x90
__ZN4core3cmp5impls69_$LT$impl$u20$core..cmp..PartialEq$LT$$RF$B$GT$$u20$for$u20$$RF$A$GT$2eq17hbbe5587340217b7fE:
Lfunc_begin35:
	.loc	16 1218 0 is_stmt 1
	.cfi_startproc
	pushq	%rbp
	.cfi_def_cfa_offset 16
	.cfi_offset %rbp, -16
	movq	%rsp, %rbp
	.cfi_def_cfa_register %rbp
	subq	$32, %rsp
	movq	%rdi, -16(%rbp)
	movq	%rsi, -8(%rbp)
Ltmp107:
	.loc	16 1219 27 prologue_end
	movq	(%rdi), %rax
	movq	8(%rdi), %rcx
	.loc	16 1219 34 is_stmt 0
	movq	(%rsi), %rdx
	movq	8(%rsi), %rsi
	.loc	16 1219 13
	movq	%rax, %rdi
	movq	%rsi, -24(%rbp)
	movq	%rcx, %rsi
	movq	-24(%rbp), %rcx
	callq	__ZN4core5slice81_$LT$impl$u20$core..cmp..PartialEq$LT$$u5b$B$u5d$$GT$$u20$for$u20$$u5b$A$u5d$$GT$2eq17hb0d97f905a10ee66E
	movb	%al, -25(%rbp)
	.loc	16 0 13
	movb	-25(%rbp), %al
	.loc	16 1220 10 is_stmt 1
	andb	$1, %al
	movzbl	%al, %eax
	addq	$32, %rsp
	popq	%rbp
	retq
Ltmp108:
Lfunc_end35:
	.cfi_endproc

	.p2align	4, 0x90
__ZN4core3cmp5impls69_$LT$impl$u20$core..cmp..PartialEq$LT$$RF$B$GT$$u20$for$u20$$RF$A$GT$2ne17he6502059b33023e2E:
Lfunc_begin36:
	.loc	16 1222 0
	.cfi_startproc
	pushq	%rbp
	.cfi_def_cfa_offset 16
	.cfi_offset %rbp, -16
	movq	%rsp, %rbp
	.cfi_def_cfa_register %rbp
	subq	$32, %rsp
	movq	%rdi, -16(%rbp)
	movq	%rsi, -8(%rbp)
Ltmp109:
	.loc	16 1223 27 prologue_end
	movq	(%rdi), %rax
	movq	8(%rdi), %rcx
	.loc	16 1223 34 is_stmt 0
	movq	(%rsi), %rdx
	movq	8(%rsi), %rsi
	.loc	16 1223 13
	movq	%rax, %rdi
	movq	%rsi, -24(%rbp)
	movq	%rcx, %rsi
	movq	-24(%rbp), %rcx
	callq	__ZN4core3str6traits54_$LT$impl$u20$core..cmp..PartialEq$u20$for$u20$str$GT$2ne17h1c55a5ec955f3bc9E
	movb	%al, -25(%rbp)
	.loc	16 0 13
	movb	-25(%rbp), %al
	.loc	16 1224 10 is_stmt 1
	andb	$1, %al
	movzbl	%al, %eax
	addq	$32, %rsp
	popq	%rbp
	retq
Ltmp110:
Lfunc_end36:
	.cfi_endproc

	.p2align	4, 0x90
__ZN4core3cmp6max_by17hbe9b52292f0d51ccE:
Lfunc_begin37:
	.loc	16 1014 0
	.cfi_startproc
	.cfi_personality 155, _rust_eh_personality
	.cfi_lsda 16, Lexception3
	pushq	%rbp
	.cfi_def_cfa_offset 16
	.cfi_offset %rbp, -16
	movq	%rsp, %rbp
	.cfi_def_cfa_register %rbp
	subq	$96, %rsp
	movq	%rdi, -80(%rbp)
	movq	%rsi, -72(%rbp)
Ltmp114:
	.loc	16 1015 11 prologue_end
	movb	$0, -26(%rbp)
	movb	$0, -25(%rbp)
	movb	$1, -26(%rbp)
	movb	$1, -25(%rbp)
	leaq	-80(%rbp), %rax
	movq	%rax, -48(%rbp)
	leaq	-72(%rbp), %rax
	movq	%rax, -40(%rbp)
	movq	-48(%rbp), %rdi
	movq	-40(%rbp), %rsi
Ltmp111:
	callq	__ZN4core3ops8function6FnOnce9call_once17h6bb191777edbc5e0E
Ltmp112:
	movb	%al, -81(%rbp)
	jmp	LBB37_2
LBB37_1:
	.loc	16 1014 1
	movq	-16(%rbp), %rdi
	callq	__Unwind_Resume
	ud2
LBB37_2:
	.loc	16 0 1 is_stmt 0
	movb	-81(%rbp), %al
	.loc	16 1015 11 is_stmt 1
	movb	%al, -49(%rbp)
	.loc	16 1016 9
	movsbq	-49(%rbp), %rcx
	incq	%rcx
	subq	$2, %rcx
	jb	LBB37_7
	jmp	LBB37_15
LBB37_15:
	jmp	LBB37_5
LBB37_3:
	.loc	16 1019 1
	testb	$1, -26(%rbp)
	jne	LBB37_11
	jmp	LBB37_1
LBB37_4:
	movb	$0, -25(%rbp)
	jmp	LBB37_3
LBB37_5:
	.loc	16 1017 30
	movb	$0, -26(%rbp)
	movq	-80(%rbp), %rax
	movq	%rax, -64(%rbp)
	.loc	16 1015 5
	jmp	LBB37_8
	.loc	16 1015 11 is_stmt 0
	ud2
LBB37_7:
	.loc	16 1016 45 is_stmt 1
	movb	$0, -25(%rbp)
	movq	-72(%rbp), %rax
	movq	%rax, -64(%rbp)
LBB37_8:
	.loc	16 1019 1
	testb	$1, -25(%rbp)
	jne	LBB37_12
LBB37_9:
	testb	$1, -26(%rbp)
	jne	LBB37_13
LBB37_10:
	.loc	16 1019 2 is_stmt 0
	movq	-64(%rbp), %rax
	addq	$96, %rsp
	popq	%rbp
	retq
LBB37_11:
	.loc	16 1019 1
	movb	$0, -26(%rbp)
	jmp	LBB37_1
LBB37_12:
	movb	$0, -25(%rbp)
	jmp	LBB37_9
LBB37_13:
	movb	$0, -26(%rbp)
	jmp	LBB37_10
Ltmp115:
LBB37_14:
Ltmp113:
	.loc	16 0 1
	movq	%rax, -16(%rbp)
	movl	%edx, -8(%rbp)
	jmp	LBB37_4
Lfunc_end37:
	.cfi_endproc
	.section	__TEXT,__gcc_except_tab
	.p2align	2
GCC_except_table37:
Lexception3:
	.byte	255
	.byte	255
	.byte	1
	.uleb128 Lcst_end3-Lcst_begin3
Lcst_begin3:
	.uleb128 Ltmp111-Lfunc_begin37
	.uleb128 Ltmp112-Ltmp111
	.uleb128 Ltmp113-Lfunc_begin37
	.byte	0
	.uleb128 Ltmp112-Lfunc_begin37
	.uleb128 Lfunc_end37-Ltmp112
	.byte	0
	.byte	0
Lcst_end3:
	.p2align	2

	.section	__TEXT,__text,regular,pure_instructions
	.p2align	4, 0x90
__ZN4core3fmt10ArgumentV13new17h01744d6d1c31d216E:
Lfunc_begin38:
	.loc	13 281 0 is_stmt 1
	.cfi_startproc
	pushq	%rbp
	.cfi_def_cfa_offset 16
	.cfi_offset %rbp, -16
	movq	%rsp, %rbp
	.cfi_def_cfa_register %rbp
	subq	$72, %rsp
	movq	%rdi, -32(%rbp)
	movq	%rsi, -24(%rbp)
Ltmp116:
	.loc	13 290 42 prologue_end
	movq	%rsi, -16(%rbp)
	movq	-16(%rbp), %rax
	movq	%rdi, -56(%rbp)
	movq	%rax, -64(%rbp)
	.loc	13 0 42 is_stmt 0
	movq	-56(%rbp), %rax
	.loc	13 290 68
	movq	%rax, -8(%rbp)
	movq	-8(%rbp), %rcx
	movq	%rcx, -72(%rbp)
	.loc	13 0 68
	movq	-72(%rbp), %rax
	.loc	13 290 18
	movq	%rax, -48(%rbp)
	movq	-64(%rbp), %rcx
	movq	%rcx, -40(%rbp)
	.loc	13 291 6 is_stmt 1
	movq	-48(%rbp), %rax
	movq	-40(%rbp), %rdx
	addq	$72, %rsp
	popq	%rbp
	retq
Ltmp117:
Lfunc_end38:
	.cfi_endproc

	.p2align	4, 0x90
__ZN4core3fmt10ArgumentV13new17h1bca65dc50e25b2eE:
Lfunc_begin39:
	.loc	13 281 0
	.cfi_startproc
	pushq	%rbp
	.cfi_def_cfa_offset 16
	.cfi_offset %rbp, -16
	movq	%rsp, %rbp
	.cfi_def_cfa_register %rbp
	subq	$72, %rsp
	movq	%rdi, -32(%rbp)
	movq	%rsi, -24(%rbp)
Ltmp118:
	.loc	13 290 42 prologue_end
	movq	%rsi, -16(%rbp)
	movq	-16(%rbp), %rax
	movq	%rdi, -56(%rbp)
	movq	%rax, -64(%rbp)
	.loc	13 0 42 is_stmt 0
	movq	-56(%rbp), %rax
	.loc	13 290 68
	movq	%rax, -8(%rbp)
	movq	-8(%rbp), %rcx
	movq	%rcx, -72(%rbp)
	.loc	13 0 68
	movq	-72(%rbp), %rax
	.loc	13 290 18
	movq	%rax, -48(%rbp)
	movq	-64(%rbp), %rcx
	movq	%rcx, -40(%rbp)
	.loc	13 291 6 is_stmt 1
	movq	-48(%rbp), %rax
	movq	-40(%rbp), %rdx
	addq	$72, %rsp
	popq	%rbp
	retq
Ltmp119:
Lfunc_end39:
	.cfi_endproc

	.p2align	4, 0x90
__ZN4core3fmt10ArgumentV13new17he07cffd1f0e6a591E:
Lfunc_begin40:
	.loc	13 281 0
	.cfi_startproc
	pushq	%rbp
	.cfi_def_cfa_offset 16
	.cfi_offset %rbp, -16
	movq	%rsp, %rbp
	.cfi_def_cfa_register %rbp
	subq	$72, %rsp
	movq	%rdi, -32(%rbp)
	movq	%rsi, -24(%rbp)
Ltmp120:
	.loc	13 290 42 prologue_end
	movq	%rsi, -16(%rbp)
	movq	-16(%rbp), %rax
	movq	%rdi, -56(%rbp)
	movq	%rax, -64(%rbp)
	.loc	13 0 42 is_stmt 0
	movq	-56(%rbp), %rax
	.loc	13 290 68
	movq	%rax, -8(%rbp)
	movq	-8(%rbp), %rcx
	movq	%rcx, -72(%rbp)
	.loc	13 0 68
	movq	-72(%rbp), %rax
	.loc	13 290 18
	movq	%rax, -48(%rbp)
	movq	-64(%rbp), %rcx
	movq	%rcx, -40(%rbp)
	.loc	13 291 6 is_stmt 1
	movq	-48(%rbp), %rax
	movq	-40(%rbp), %rdx
	addq	$72, %rsp
	popq	%rbp
	retq
Ltmp121:
Lfunc_end40:
	.cfi_endproc

	.p2align	4, 0x90
__ZN4core3fmt9Arguments6new_v117h742fe6c0b443dd69E:
Lfunc_begin41:
	.loc	13 327 0
	.cfi_startproc
	pushq	%rbp
	.cfi_def_cfa_offset 16
	.cfi_offset %rbp, -16
	movq	%rsp, %rbp
	.cfi_def_cfa_register %rbp
	subq	$48, %rsp
	movq	%rdi, %rax
	movq	%rsi, -32(%rbp)
	movq	%rdx, -24(%rbp)
	movq	%rcx, -16(%rbp)
	movq	%r8, -8(%rbp)
Ltmp122:
	.loc	13 328 34 prologue_end
	movq	$0, -48(%rbp)
	.loc	13 328 9 is_stmt 0
	movq	%rsi, (%rdi)
	movq	%rdx, 8(%rdi)
	movq	-48(%rbp), %rdx
	movq	-40(%rbp), %rsi
	movq	%rdx, 16(%rdi)
	movq	%rsi, 24(%rdi)
	movq	%rcx, 32(%rdi)
	movq	%r8, 40(%rdi)
	.loc	13 329 6 is_stmt 1
	addq	$48, %rsp
	popq	%rbp
	retq
Ltmp123:
Lfunc_end41:
	.cfi_endproc

	.p2align	4, 0x90
__ZN4core3mem11size_of_val17h5cdaeb03470dca7bE:
Lfunc_begin42:
	.file	17 "/rustc/6c8927b0cf80ceee19386026cf9d7fd4fd9d486f/src/libcore/mem/mod.rs"
	.loc	17 335 0
	.cfi_startproc
	pushq	%rbp
	.cfi_def_cfa_offset 16
	.cfi_offset %rbp, -16
	movq	%rsp, %rbp
	.cfi_def_cfa_register %rbp
	subq	$32, %rsp
	movq	%rdi, -24(%rbp)
	movq	%rsi, -16(%rbp)
Ltmp124:
	.loc	17 336 5 prologue_end
	shlq	$0, %rsi
	movq	%rsi, -8(%rbp)
	movq	-8(%rbp), %rax
	movq	%rax, -32(%rbp)
	.loc	17 0 5 is_stmt 0
	movq	-32(%rbp), %rax
	.loc	17 337 2 is_stmt 1
	addq	$32, %rsp
	popq	%rbp
	retq
Ltmp125:
Lfunc_end42:
	.cfi_endproc

	.p2align	4, 0x90
__ZN4core3mem4drop17h035fe219b9de5eb0E:
Lfunc_begin43:
	.loc	17 883 0
	.cfi_startproc
	pushq	%rbp
	.cfi_def_cfa_offset 16
	.cfi_offset %rbp, -16
	movq	%rsp, %rbp
	.cfi_def_cfa_register %rbp
Ltmp126:
	.loc	17 883 24 prologue_end
	callq	__ZN4core3ptr13drop_in_place17h6e883aa71a9b4be1E
Ltmp127:
	.loc	17 883 25 is_stmt 0
	popq	%rbp
	retq
Ltmp128:
Lfunc_end43:
	.cfi_endproc

	.p2align	4, 0x90
__ZN4core3mem4drop17hd1dd60ae623cd5c1E:
Lfunc_begin44:
	.loc	17 883 0 is_stmt 1
	.cfi_startproc
	pushq	%rbp
	.cfi_def_cfa_offset 16
	.cfi_offset %rbp, -16
	movq	%rsp, %rbp
	.cfi_def_cfa_register %rbp
Ltmp129:
	.loc	17 883 24 prologue_end
	callq	__ZN4core3ptr13drop_in_place17h03a08134d620d44cE
Ltmp130:
	.loc	17 883 25 is_stmt 0
	popq	%rbp
	retq
Ltmp131:
Lfunc_end44:
	.cfi_endproc

	.p2align	4, 0x90
__ZN4core3mem4swap17h2205983006a6c95eE:
Lfunc_begin45:
	.loc	17 686 0 is_stmt 1
	.cfi_startproc
	pushq	%rbp
	.cfi_def_cfa_offset 16
	.cfi_offset %rbp, -16
	movq	%rsp, %rbp
	.cfi_def_cfa_register %rbp
	subq	$16, %rsp
	movq	%rdi, -16(%rbp)
	movq	%rsi, -8(%rbp)
Ltmp132:
	.loc	17 690 9 prologue_end
	callq	__ZN4core3ptr23swap_nonoverlapping_one17h43a7862febc56609E
	.loc	17 692 2
	addq	$16, %rsp
	popq	%rbp
	retq
Ltmp133:
Lfunc_end45:
	.cfi_endproc

	.p2align	4, 0x90
__ZN4core3mem4swap17h308762e17d2e5f14E:
Lfunc_begin46:
	.loc	17 686 0
	.cfi_startproc
	pushq	%rbp
	.cfi_def_cfa_offset 16
	.cfi_offset %rbp, -16
	movq	%rsp, %rbp
	.cfi_def_cfa_register %rbp
	subq	$16, %rsp
	movq	%rdi, -16(%rbp)
	movq	%rsi, -8(%rbp)
Ltmp134:
	.loc	17 690 9 prologue_end
	callq	__ZN4core3ptr23swap_nonoverlapping_one17hdb59f07413fe327eE
	.loc	17 692 2
	addq	$16, %rsp
	popq	%rbp
	retq
Ltmp135:
Lfunc_end46:
	.cfi_endproc

	.p2align	4, 0x90
__ZN4core3mem4take17h216c872e2aeb6b2bE:
Lfunc_begin47:
	.loc	17 750 0
	.cfi_startproc
	pushq	%rbp
	.cfi_def_cfa_offset 16
	.cfi_offset %rbp, -16
	movq	%rsp, %rbp
	.cfi_def_cfa_register %rbp
	subq	$48, %rsp
	movq	%rdi, -8(%rbp)
	movq	%rdi, -16(%rbp)
Ltmp136:
	.loc	17 751 19 prologue_end
	callq	__ZN72_$LT$core..option..Option$LT$T$GT$$u20$as$u20$core..default..Default$GT$7default17h881dedb709cfc19cE
	movq	%rax, -24(%rbp)
	movq	%rdx, -32(%rbp)
	.loc	17 0 19 is_stmt 0
	movq	-16(%rbp), %rdi
	movq	-24(%rbp), %rsi
	movq	-32(%rbp), %rdx
	.loc	17 751 5
	callq	__ZN4core3mem7replace17h3b43cda7a81fdc54E
	movq	%rax, -40(%rbp)
	movq	%rdx, -48(%rbp)
	.loc	17 0 5
	movq	-40(%rbp), %rax
	movq	-48(%rbp), %rdx
	.loc	17 752 2 is_stmt 1
	addq	$48, %rsp
	popq	%rbp
	retq
Ltmp137:
Lfunc_end47:
	.cfi_endproc

	.p2align	4, 0x90
__ZN4core3mem6forget17h9f1df08b954e9b08E:
Lfunc_begin48:
	.loc	17 147 0
	.cfi_startproc
	pushq	%rbp
	.cfi_def_cfa_offset 16
	.cfi_offset %rbp, -16
	movq	%rsp, %rbp
	.cfi_def_cfa_register %rbp
	subq	$24, %rsp
	movq	%rdi, -24(%rbp)
	movq	%rdi, -8(%rbp)
Ltmp138:
	.loc	4 83 9 prologue_end
	movq	%rdi, -16(%rbp)
Ltmp139:
	.loc	17 149 2
	addq	$24, %rsp
	popq	%rbp
	retq
Ltmp140:
Lfunc_end48:
	.cfi_endproc

	.p2align	4, 0x90
__ZN4core3mem7replace17h3b43cda7a81fdc54E:
Lfunc_begin49:
	.loc	17 814 0
	.cfi_startproc
	.cfi_personality 155, _rust_eh_personality
	.cfi_lsda 16, Lexception4
	pushq	%rbp
	.cfi_def_cfa_offset 16
	.cfi_offset %rbp, -16
	movq	%rsp, %rbp
	.cfi_def_cfa_register %rbp
	subq	$48, %rsp
	movq	%rsi, -40(%rbp)
	movq	%rdx, -32(%rbp)
	movq	%rdi, -24(%rbp)
Ltmp141:
	leaq	-40(%rbp), %rsi
Ltmp144:
	.loc	17 815 5 prologue_end
	callq	__ZN4core3mem4swap17h2205983006a6c95eE
Ltmp142:
	jmp	LBB49_2
LBB49_1:
	.loc	17 814 1
	movq	-16(%rbp), %rdi
	callq	__Unwind_Resume
	ud2
LBB49_2:
	.loc	17 816 5
	movq	-40(%rbp), %rax
	movq	-32(%rbp), %rdx
	.loc	17 817 2
	addq	$48, %rsp
	popq	%rbp
	retq
LBB49_3:
	.loc	17 817 1 is_stmt 0
	jmp	LBB49_1
Ltmp145:
LBB49_4:
Ltmp143:
	.loc	17 0 1
	movq	%rax, -16(%rbp)
	movl	%edx, -8(%rbp)
	jmp	LBB49_3
Lfunc_end49:
	.cfi_endproc
	.section	__TEXT,__gcc_except_tab
	.p2align	2
GCC_except_table49:
Lexception4:
	.byte	255
	.byte	255
	.byte	1
	.uleb128 Lcst_end4-Lcst_begin4
Lcst_begin4:
	.uleb128 Ltmp141-Lfunc_begin49
	.uleb128 Ltmp142-Ltmp141
	.uleb128 Ltmp143-Lfunc_begin49
	.byte	0
	.uleb128 Ltmp142-Lfunc_begin49
	.uleb128 Lfunc_end49-Ltmp142
	.byte	0
	.byte	0
Lcst_end4:
	.p2align	2

	.section	__TEXT,__text,regular,pure_instructions
	.p2align	4, 0x90
__ZN4core3mem7replace17hfbed44e9f0faf073E:
Lfunc_begin50:
	.loc	17 814 0 is_stmt 1
	.cfi_startproc
	.cfi_personality 155, _rust_eh_personality
	.cfi_lsda 16, Lexception5
	pushq	%rbp
	.cfi_def_cfa_offset 16
	.cfi_offset %rbp, -16
	movq	%rsp, %rbp
	.cfi_def_cfa_register %rbp
	subq	$32, %rsp
	movq	%rsi, -32(%rbp)
	movq	%rdi, -24(%rbp)
Ltmp146:
	leaq	-32(%rbp), %rsi
Ltmp149:
	.loc	17 815 5 prologue_end
	callq	__ZN4core3mem4swap17h308762e17d2e5f14E
Ltmp147:
	jmp	LBB50_2
LBB50_1:
	.loc	17 814 1
	movq	-16(%rbp), %rdi
	callq	__Unwind_Resume
	ud2
LBB50_2:
	.loc	17 816 5
	movq	-32(%rbp), %rax
	.loc	17 817 2
	addq	$32, %rsp
	popq	%rbp
	retq
LBB50_3:
	.loc	17 817 1 is_stmt 0
	jmp	LBB50_1
Ltmp150:
LBB50_4:
Ltmp148:
	.loc	17 0 1
	movq	%rax, -16(%rbp)
	movl	%edx, -8(%rbp)
	jmp	LBB50_3
Lfunc_end50:
	.cfi_endproc
	.section	__TEXT,__gcc_except_tab
	.p2align	2
GCC_except_table50:
Lexception5:
	.byte	255
	.byte	255
	.byte	1
	.uleb128 Lcst_end5-Lcst_begin5
Lcst_begin5:
	.uleb128 Ltmp146-Lfunc_begin50
	.uleb128 Ltmp147-Ltmp146
	.uleb128 Ltmp148-Lfunc_begin50
	.byte	0
	.uleb128 Ltmp147-Lfunc_begin50
	.uleb128 Lfunc_end50-Ltmp147
	.byte	0
	.byte	0
Lcst_end5:
	.p2align	2

	.section	__TEXT,__text,regular,pure_instructions
	.p2align	4, 0x90
__ZN4core3num12NonZeroUsize13new_unchecked17h7cdf533f263d2e2fE:
Lfunc_begin51:
	.file	18 "/rustc/6c8927b0cf80ceee19386026cf9d7fd4fd9d486f/src/libcore/num/mod.rs"
	.loc	18 83 0 is_stmt 1
	.cfi_startproc
	pushq	%rbp
	.cfi_def_cfa_offset 16
	.cfi_offset %rbp, -16
	movq	%rsp, %rbp
	.cfi_def_cfa_register %rbp
	subq	$16, %rsp
	movq	%rdi, -8(%rbp)
Ltmp151:
	.loc	18 85 30 prologue_end
	movq	%rdi, -16(%rbp)
	.loc	18 86 18
	movq	-16(%rbp), %rax
	addq	$16, %rsp
	popq	%rbp
	retq
Ltmp152:
Lfunc_end51:
	.cfi_endproc

	.p2align	4, 0x90
__ZN4core3num12NonZeroUsize3get17h3bb8ef49afb57fbfE:
Lfunc_begin52:
	.loc	18 105 0
	.cfi_startproc
	pushq	%rbp
	.cfi_def_cfa_offset 16
	.cfi_offset %rbp, -16
	movq	%rsp, %rbp
	.cfi_def_cfa_register %rbp
	pushq	%rax
	movq	%rdi, -8(%rbp)
Ltmp153:
	.loc	18 107 18 prologue_end
	movq	%rdi, %rax
	addq	$8, %rsp
	popq	%rbp
	retq
Ltmp154:
Lfunc_end52:
	.cfi_endproc

	.p2align	4, 0x90
__ZN4core3num23_$LT$impl$u20$usize$GT$13unchecked_add17h0f41f07e0f89e824E:
Lfunc_begin53:
	.loc	18 3010 0
	.cfi_startproc
	pushq	%rbp
	.cfi_def_cfa_offset 16
	.cfi_offset %rbp, -16
	movq	%rsp, %rbp
	.cfi_def_cfa_register %rbp
	subq	$32, %rsp
	movq	%rdi, -24(%rbp)
	movq	%rsi, -16(%rbp)
Ltmp155:
	.loc	18 3013 26 prologue_end
	addq	%rsi, %rdi
	movq	%rdi, -8(%rbp)
	movq	-8(%rbp), %rax
	movq	%rax, -32(%rbp)
	.loc	18 0 26 is_stmt 0
	movq	-32(%rbp), %rax
	.loc	18 3014 14 is_stmt 1
	addq	$32, %rsp
	popq	%rbp
	retq
Ltmp156:
Lfunc_end53:
	.cfi_endproc

	.p2align	4, 0x90
__ZN4core3num23_$LT$impl$u20$usize$GT$13unchecked_sub17ha5c67c6aedc39bebE:
Lfunc_begin54:
	.loc	18 3052 0
	.cfi_startproc
	pushq	%rbp
	.cfi_def_cfa_offset 16
	.cfi_offset %rbp, -16
	movq	%rsp, %rbp
	.cfi_def_cfa_register %rbp
	subq	$32, %rsp
	movq	%rdi, -24(%rbp)
	movq	%rsi, -16(%rbp)
Ltmp157:
	.loc	18 3055 26 prologue_end
	subq	%rsi, %rdi
	movq	%rdi, -8(%rbp)
	movq	-8(%rbp), %rax
	movq	%rax, -32(%rbp)
	.loc	18 0 26 is_stmt 0
	movq	-32(%rbp), %rax
	.loc	18 3056 14 is_stmt 1
	addq	$32, %rsp
	popq	%rbp
	retq
Ltmp158:
Lfunc_end54:
	.cfi_endproc

	.p2align	4, 0x90
__ZN4core3ops8function6FnOnce40call_once$u7b$$u7b$vtable.shim$u7d$$u7d$17h880de9f88d893abbE:
Lfunc_begin55:
	.file	19 "/rustc/6c8927b0cf80ceee19386026cf9d7fd4fd9d486f/src/libcore/ops/function.rs"
	.loc	19 233 0
	.cfi_startproc
	pushq	%rbp
	.cfi_def_cfa_offset 16
	.cfi_offset %rbp, -16
	movq	%rsp, %rbp
	.cfi_def_cfa_register %rbp
	subq	$32, %rsp
	movq	%rdi, -8(%rbp)
Ltmp159:
	.loc	19 233 5 prologue_end
	movq	(%rdi), %rdi
	callq	__ZN4core3ops8function6FnOnce9call_once17hf1c4952c9ab23e63E
	movl	%eax, -20(%rbp)
	.loc	19 0 5 is_stmt 0
	movl	-20(%rbp), %eax
	.loc	19 233 5
	addq	$32, %rsp
	popq	%rbp
	retq
Ltmp160:
Lfunc_end55:
	.cfi_endproc

	.p2align	4, 0x90
__ZN4core3ops8function6FnOnce9call_once17h6bb191777edbc5e0E:
Lfunc_begin56:
	.loc	19 233 0 is_stmt 1
	.cfi_startproc
	pushq	%rbp
	.cfi_def_cfa_offset 16
	.cfi_offset %rbp, -16
	movq	%rsp, %rbp
	.cfi_def_cfa_register %rbp
	subq	$32, %rsp
	movq	%rdi, -24(%rbp)
	movq	%rsi, -16(%rbp)
Ltmp161:
	.loc	19 233 5 prologue_end
	movq	-24(%rbp), %rdi
	movq	-16(%rbp), %rsi
	callq	__ZN4core3cmp5impls50_$LT$impl$u20$core..cmp..Ord$u20$for$u20$usize$GT$3cmp17h73788bf939a09dd0E
	movb	%al, -25(%rbp)
	.loc	19 0 5 is_stmt 0
	movb	-25(%rbp), %al
	.loc	19 233 5
	addq	$32, %rsp
	popq	%rbp
	retq
Ltmp162:
Lfunc_end56:
	.cfi_endproc

	.p2align	4, 0x90
__ZN4core3ops8function6FnOnce9call_once17hf1c4952c9ab23e63E:
Lfunc_begin57:
	.loc	19 233 0 is_stmt 1
	.cfi_startproc
	.cfi_personality 155, _rust_eh_personality
	.cfi_lsda 16, Lexception6
	pushq	%rbp
	.cfi_def_cfa_offset 16
	.cfi_offset %rbp, -16
	movq	%rsp, %rbp
	.cfi_def_cfa_register %rbp
	subq	$48, %rsp
	movq	%rdi, -32(%rbp)
Ltmp163:
	leaq	-32(%rbp), %rdi
Ltmp166:
	.loc	19 233 5 prologue_end
	callq	__ZN3std2rt10lang_start28_$u7b$$u7b$closure$u7d$$u7d$17h4b8deec273115a64E
Ltmp164:
	movl	%eax, -36(%rbp)
	jmp	LBB57_1
LBB57_1:
	jmp	LBB57_2
LBB57_2:
	.loc	19 0 5 is_stmt 0
	movl	-36(%rbp), %eax
	.loc	19 233 5
	addq	$48, %rsp
	popq	%rbp
	retq
LBB57_3:
	jmp	LBB57_4
LBB57_4:
	movq	-16(%rbp), %rdi
	callq	__Unwind_Resume
	ud2
Ltmp167:
LBB57_5:
Ltmp165:
	.loc	19 0 5
	movq	%rax, -16(%rbp)
	movl	%edx, -8(%rbp)
	jmp	LBB57_3
Lfunc_end57:
	.cfi_endproc
	.section	__TEXT,__gcc_except_tab
	.p2align	2
GCC_except_table57:
Lexception6:
	.byte	255
	.byte	255
	.byte	1
	.uleb128 Lcst_end6-Lcst_begin6
Lcst_begin6:
	.uleb128 Ltmp163-Lfunc_begin57
	.uleb128 Ltmp164-Ltmp163
	.uleb128 Ltmp165-Lfunc_begin57
	.byte	0
	.uleb128 Ltmp164-Lfunc_begin57
	.uleb128 Lfunc_end57-Ltmp164
	.byte	0
	.byte	0
Lcst_end6:
	.p2align	2

	.section	__TEXT,__text,regular,pure_instructions
	.p2align	4, 0x90
__ZN4core3ptr13drop_in_place17h03a08134d620d44cE:
Lfunc_begin58:
	.file	20 "/rustc/6c8927b0cf80ceee19386026cf9d7fd4fd9d486f/src/libcore/ptr/mod.rs"
	.loc	20 184 0 is_stmt 1
	.cfi_startproc
	.cfi_personality 155, _rust_eh_personality
	.cfi_lsda 16, Lexception7
	pushq	%rbp
	.cfi_def_cfa_offset 16
	.cfi_offset %rbp, -16
	movq	%rsp, %rbp
	.cfi_def_cfa_register %rbp
	subq	$48, %rsp
	movq	%rdi, -24(%rbp)
Ltmp168:
	movq	%rdi, -40(%rbp)
Ltmp171:
	.loc	20 184 1 prologue_end
	callq	__ZN4core3ptr13drop_in_place17h2a1e4345cf68a61cE
Ltmp169:
	jmp	LBB58_4
LBB58_1:
	movq	-16(%rbp), %rdi
	callq	__Unwind_Resume
	ud2
LBB58_2:
	addq	$48, %rsp
	popq	%rbp
	retq
LBB58_3:
	.loc	20 0 1 is_stmt 0
	movq	-40(%rbp), %rax
	.loc	20 184 1
	addq	$24, %rax
	movq	%rax, %rdi
	callq	__ZN4core3ptr13drop_in_place17h6cc29274fcb58a3dE
	jmp	LBB58_1
LBB58_4:
	.loc	20 0 1
	movq	-40(%rbp), %rax
	.loc	20 184 1
	addq	$24, %rax
	movq	%rax, %rdi
	callq	__ZN4core3ptr13drop_in_place17h6cc29274fcb58a3dE
	jmp	LBB58_2
Ltmp172:
LBB58_5:
Ltmp170:
	.loc	20 0 1
	movq	%rax, -16(%rbp)
	movl	%edx, -8(%rbp)
	jmp	LBB58_3
Lfunc_end58:
	.cfi_endproc
	.section	__TEXT,__gcc_except_tab
	.p2align	2
GCC_except_table58:
Lexception7:
	.byte	255
	.byte	255
	.byte	1
	.uleb128 Lcst_end7-Lcst_begin7
Lcst_begin7:
	.uleb128 Ltmp168-Lfunc_begin58
	.uleb128 Ltmp169-Ltmp168
	.uleb128 Ltmp170-Lfunc_begin58
	.byte	0
	.uleb128 Ltmp169-Lfunc_begin58
	.uleb128 Lfunc_end58-Ltmp169
	.byte	0
	.byte	0
Lcst_end7:
	.p2align	2

	.section	__TEXT,__text,regular,pure_instructions
	.p2align	4, 0x90
__ZN4core3ptr13drop_in_place17h0eea2f4d139f6c16E:
Lfunc_begin59:
	.loc	20 184 0 is_stmt 1
	.cfi_startproc
	.cfi_personality 155, _rust_eh_personality
	.cfi_lsda 16, Lexception8
	pushq	%rbp
	.cfi_def_cfa_offset 16
	.cfi_offset %rbp, -16
	movq	%rsp, %rbp
	.cfi_def_cfa_register %rbp
	subq	$48, %rsp
	movq	%rdi, -24(%rbp)
Ltmp173:
	movq	%rdi, -40(%rbp)
Ltmp176:
	.loc	20 184 1 prologue_end
	callq	__ZN66_$LT$alloc..vec..Vec$LT$T$GT$$u20$as$u20$core..ops..drop..Drop$GT$4drop17h4dca52c704911f46E
Ltmp174:
	jmp	LBB59_4
LBB59_1:
	movq	-16(%rbp), %rdi
	callq	__Unwind_Resume
	ud2
LBB59_2:
	addq	$48, %rsp
	popq	%rbp
	retq
LBB59_3:
	.loc	20 0 1 is_stmt 0
	movq	-40(%rbp), %rax
	.loc	20 184 1
	movq	%rax, %rdi
	callq	__ZN4core3ptr13drop_in_place17hc582156b29e97347E
	jmp	LBB59_1
LBB59_4:
	.loc	20 0 1
	movq	-40(%rbp), %rax
	.loc	20 184 1
	movq	%rax, %rdi
	callq	__ZN4core3ptr13drop_in_place17hc582156b29e97347E
	jmp	LBB59_2
Ltmp177:
LBB59_5:
Ltmp175:
	.loc	20 0 1
	movq	%rax, -16(%rbp)
	movl	%edx, -8(%rbp)
	jmp	LBB59_3
Lfunc_end59:
	.cfi_endproc
	.section	__TEXT,__gcc_except_tab
	.p2align	2
GCC_except_table59:
Lexception8:
	.byte	255
	.byte	255
	.byte	1
	.uleb128 Lcst_end8-Lcst_begin8
Lcst_begin8:
	.uleb128 Ltmp173-Lfunc_begin59
	.uleb128 Ltmp174-Ltmp173
	.uleb128 Ltmp175-Lfunc_begin59
	.byte	0
	.uleb128 Ltmp174-Lfunc_begin59
	.uleb128 Lfunc_end59-Ltmp174
	.byte	0
	.byte	0
Lcst_end8:
	.p2align	2

	.section	__TEXT,__text,regular,pure_instructions
	.p2align	4, 0x90
__ZN4core3ptr13drop_in_place17h1b25e4b1f3842101E:
Lfunc_begin60:
	.loc	20 184 0 is_stmt 1
	.cfi_startproc
	.cfi_personality 155, _rust_eh_personality
	.cfi_lsda 16, Lexception9
	pushq	%rbp
	.cfi_def_cfa_offset 16
	.cfi_offset %rbp, -16
	movq	%rsp, %rbp
	.cfi_def_cfa_register %rbp
	subq	$48, %rsp
	movq	%rdi, -24(%rbp)
Ltmp178:
	movq	%rdi, -40(%rbp)
Ltmp202:
	.loc	20 184 1 prologue_end
	callq	__ZN4core3ptr13drop_in_place17h25622ee8df7216bcE
Ltmp179:
	jmp	LBB60_18
LBB60_1:
	movq	-16(%rbp), %rdi
	callq	__Unwind_Resume
	ud2
LBB60_2:
	addq	$48, %rsp
	popq	%rbp
	retq
LBB60_3:
	.loc	20 0 1 is_stmt 0
	movq	-40(%rbp), %rax
	.loc	20 184 1
	addq	$168, %rax
	movq	%rax, %rdi
	callq	__ZN4core3ptr13drop_in_place17h6d938743336094a7E
	jmp	LBB60_1
LBB60_4:
	.loc	20 0 1
	movq	-40(%rbp), %rax
	.loc	20 184 1
	addq	$160, %rax
	movq	%rax, %rdi
	callq	__ZN4core3ptr13drop_in_place17h6d938743336094a7E
	jmp	LBB60_3
LBB60_5:
	.loc	20 0 1
	movq	-40(%rbp), %rax
	.loc	20 184 1
	addq	$152, %rax
	movq	%rax, %rdi
	callq	__ZN4core3ptr13drop_in_place17h6d938743336094a7E
	jmp	LBB60_4
LBB60_6:
	.loc	20 0 1
	movq	-40(%rbp), %rax
	.loc	20 184 1
	addq	$112, %rax
	movq	%rax, %rdi
	callq	__ZN4core3ptr13drop_in_place17h38e914bbdcb12c80E
	jmp	LBB60_5
LBB60_7:
	.loc	20 0 1
	movq	-40(%rbp), %rax
	.loc	20 184 1
	addq	$96, %rax
	movq	%rax, %rdi
	callq	__ZN4core3ptr13drop_in_place17hd4aee7b8bc7f4f9bE
	jmp	LBB60_6
LBB60_8:
	.loc	20 0 1
	movq	-40(%rbp), %rax
	.loc	20 184 1
	addq	$64, %rax
	movq	%rax, %rdi
	callq	__ZN4core3ptr13drop_in_place17hb8c7f8f1cc0c0c6dE
	jmp	LBB60_7
LBB60_9:
	.loc	20 0 1
	movq	-40(%rbp), %rax
	.loc	20 184 1
	addq	$40, %rax
	movq	%rax, %rdi
	callq	__ZN4core3ptr13drop_in_place17h825594b6fe6128a8E
	jmp	LBB60_8
LBB60_10:
	.loc	20 0 1
	movq	-40(%rbp), %rax
	.loc	20 184 1
	addq	$16, %rax
	movq	%rax, %rdi
	callq	__ZN4core3ptr13drop_in_place17h0eea2f4d139f6c16E
	jmp	LBB60_9
LBB60_11:
	.loc	20 0 1
	movq	-40(%rbp), %rax
	.loc	20 184 1
	addq	$168, %rax
	movq	%rax, %rdi
	callq	__ZN4core3ptr13drop_in_place17h6d938743336094a7E
	jmp	LBB60_2
LBB60_12:
	.loc	20 0 1
	movq	-40(%rbp), %rax
	.loc	20 184 1
	addq	$160, %rax
Ltmp199:
	movq	%rax, %rdi
	callq	__ZN4core3ptr13drop_in_place17h6d938743336094a7E
Ltmp200:
	jmp	LBB60_11
LBB60_13:
	.loc	20 0 1
	movq	-40(%rbp), %rax
	.loc	20 184 1
	addq	$152, %rax
Ltmp196:
	movq	%rax, %rdi
	callq	__ZN4core3ptr13drop_in_place17h6d938743336094a7E
Ltmp197:
	jmp	LBB60_12
LBB60_14:
	.loc	20 0 1
	movq	-40(%rbp), %rax
	.loc	20 184 1
	addq	$112, %rax
Ltmp193:
	movq	%rax, %rdi
	callq	__ZN4core3ptr13drop_in_place17h38e914bbdcb12c80E
Ltmp194:
	jmp	LBB60_13
LBB60_15:
	.loc	20 0 1
	movq	-40(%rbp), %rax
	.loc	20 184 1
	addq	$96, %rax
Ltmp190:
	movq	%rax, %rdi
	callq	__ZN4core3ptr13drop_in_place17hd4aee7b8bc7f4f9bE
Ltmp191:
	jmp	LBB60_14
LBB60_16:
	.loc	20 0 1
	movq	-40(%rbp), %rax
	.loc	20 184 1
	addq	$64, %rax
Ltmp187:
	movq	%rax, %rdi
	callq	__ZN4core3ptr13drop_in_place17hb8c7f8f1cc0c0c6dE
Ltmp188:
	jmp	LBB60_15
LBB60_17:
	.loc	20 0 1
	movq	-40(%rbp), %rax
	.loc	20 184 1
	addq	$40, %rax
Ltmp184:
	movq	%rax, %rdi
	callq	__ZN4core3ptr13drop_in_place17h825594b6fe6128a8E
Ltmp185:
	jmp	LBB60_16
LBB60_18:
	.loc	20 0 1
	movq	-40(%rbp), %rax
	.loc	20 184 1
	addq	$16, %rax
Ltmp181:
	movq	%rax, %rdi
	callq	__ZN4core3ptr13drop_in_place17h0eea2f4d139f6c16E
Ltmp182:
	jmp	LBB60_17
Ltmp203:
LBB60_19:
Ltmp180:
	.loc	20 0 1
	movq	%rax, -16(%rbp)
	movl	%edx, -8(%rbp)
	jmp	LBB60_10
LBB60_20:
Ltmp183:
	movq	%rax, -16(%rbp)
	movl	%edx, -8(%rbp)
	jmp	LBB60_9
LBB60_21:
Ltmp186:
	movq	%rax, -16(%rbp)
	movl	%edx, -8(%rbp)
	jmp	LBB60_8
LBB60_22:
Ltmp189:
	movq	%rax, -16(%rbp)
	movl	%edx, -8(%rbp)
	jmp	LBB60_7
LBB60_23:
Ltmp192:
	movq	%rax, -16(%rbp)
	movl	%edx, -8(%rbp)
	jmp	LBB60_6
LBB60_24:
Ltmp195:
	movq	%rax, -16(%rbp)
	movl	%edx, -8(%rbp)
	jmp	LBB60_5
LBB60_25:
Ltmp198:
	movq	%rax, -16(%rbp)
	movl	%edx, -8(%rbp)
	jmp	LBB60_4
LBB60_26:
Ltmp201:
	movq	%rax, -16(%rbp)
	movl	%edx, -8(%rbp)
	jmp	LBB60_3
Lfunc_end60:
	.cfi_endproc
	.section	__TEXT,__gcc_except_tab
	.p2align	2
GCC_except_table60:
Lexception9:
	.byte	255
	.byte	255
	.byte	1
	.uleb128 Lcst_end9-Lcst_begin9
Lcst_begin9:
	.uleb128 Ltmp178-Lfunc_begin60
	.uleb128 Ltmp179-Ltmp178
	.uleb128 Ltmp180-Lfunc_begin60
	.byte	0
	.uleb128 Ltmp179-Lfunc_begin60
	.uleb128 Ltmp199-Ltmp179
	.byte	0
	.byte	0
	.uleb128 Ltmp199-Lfunc_begin60
	.uleb128 Ltmp200-Ltmp199
	.uleb128 Ltmp201-Lfunc_begin60
	.byte	0
	.uleb128 Ltmp196-Lfunc_begin60
	.uleb128 Ltmp197-Ltmp196
	.uleb128 Ltmp198-Lfunc_begin60
	.byte	0
	.uleb128 Ltmp193-Lfunc_begin60
	.uleb128 Ltmp194-Ltmp193
	.uleb128 Ltmp195-Lfunc_begin60
	.byte	0
	.uleb128 Ltmp190-Lfunc_begin60
	.uleb128 Ltmp191-Ltmp190
	.uleb128 Ltmp192-Lfunc_begin60
	.byte	0
	.uleb128 Ltmp187-Lfunc_begin60
	.uleb128 Ltmp188-Ltmp187
	.uleb128 Ltmp189-Lfunc_begin60
	.byte	0
	.uleb128 Ltmp184-Lfunc_begin60
	.uleb128 Ltmp185-Ltmp184
	.uleb128 Ltmp186-Lfunc_begin60
	.byte	0
	.uleb128 Ltmp181-Lfunc_begin60
	.uleb128 Ltmp182-Ltmp181
	.uleb128 Ltmp183-Lfunc_begin60
	.byte	0
Lcst_end9:
	.p2align	2

	.section	__TEXT,__text,regular,pure_instructions
	.p2align	4, 0x90
__ZN4core3ptr13drop_in_place17h245c365b68e6bdf3E:
Lfunc_begin61:
	.loc	20 184 0 is_stmt 1
	.cfi_startproc
	pushq	%rbp
	.cfi_def_cfa_offset 16
	.cfi_offset %rbp, -16
	movq	%rsp, %rbp
	.cfi_def_cfa_register %rbp
	subq	$32, %rsp
	movq	%rdi, -8(%rbp)
Ltmp204:
	.loc	20 184 1 prologue_end
	movb	(%rdi), %al
	subb	$1, %al
	movq	%rdi, -24(%rbp)
	ja	LBB61_2
	jmp	LBB61_1
LBB61_1:
	addq	$32, %rsp
	popq	%rbp
	retq
LBB61_2:
	.loc	20 0 1 is_stmt 0
	movq	-24(%rbp), %rax
	.loc	20 184 1
	addq	$8, %rax
	movq	%rax, %rdi
	callq	__ZN4core3ptr13drop_in_place17ha5711db08a4285e1E
	jmp	LBB61_1
Ltmp205:
Lfunc_end61:
	.cfi_endproc

	.p2align	4, 0x90
__ZN4core3ptr13drop_in_place17h25622ee8df7216bcE:
Lfunc_begin62:
	.loc	20 184 0 is_stmt 1
	.cfi_startproc
	.cfi_personality 155, _rust_eh_personality
	.cfi_lsda 16, Lexception10
	pushq	%rbp
	.cfi_def_cfa_offset 16
	.cfi_offset %rbp, -16
	movq	%rsp, %rbp
	.cfi_def_cfa_register %rbp
	subq	$48, %rsp
	movq	%rdi, -24(%rbp)
Ltmp206:
	movq	%rdi, -40(%rbp)
Ltmp209:
	.loc	20 184 1 prologue_end
	callq	__ZN66_$LT$std..ffi..c_str..CString$u20$as$u20$core..ops..drop..Drop$GT$4drop17hed59e5fcc0814f9bE
Ltmp207:
	jmp	LBB62_4
LBB62_1:
	movq	-16(%rbp), %rdi
	callq	__Unwind_Resume
	ud2
LBB62_2:
	addq	$48, %rsp
	popq	%rbp
	retq
LBB62_3:
	.loc	20 0 1 is_stmt 0
	movq	-40(%rbp), %rax
	.loc	20 184 1
	movq	%rax, %rdi
	callq	__ZN4core3ptr13drop_in_place17h7b8fd70c67a98cccE
	jmp	LBB62_1
LBB62_4:
	.loc	20 0 1
	movq	-40(%rbp), %rax
	.loc	20 184 1
	movq	%rax, %rdi
	callq	__ZN4core3ptr13drop_in_place17h7b8fd70c67a98cccE
	jmp	LBB62_2
Ltmp210:
LBB62_5:
Ltmp208:
	.loc	20 0 1
	movq	%rax, -16(%rbp)
	movl	%edx, -8(%rbp)
	jmp	LBB62_3
Lfunc_end62:
	.cfi_endproc
	.section	__TEXT,__gcc_except_tab
	.p2align	2
GCC_except_table62:
Lexception10:
	.byte	255
	.byte	255
	.byte	1
	.uleb128 Lcst_end10-Lcst_begin10
Lcst_begin10:
	.uleb128 Ltmp206-Lfunc_begin62
	.uleb128 Ltmp207-Ltmp206
	.uleb128 Ltmp208-Lfunc_begin62
	.byte	0
	.uleb128 Ltmp207-Lfunc_begin62
	.uleb128 Lfunc_end62-Ltmp207
	.byte	0
	.byte	0
Lcst_end10:
	.p2align	2

	.section	__TEXT,__text,regular,pure_instructions
	.p2align	4, 0x90
__ZN4core3ptr13drop_in_place17h2a1e4345cf68a61cE:
Lfunc_begin63:
	.loc	20 184 0 is_stmt 1
	.cfi_startproc
	pushq	%rbp
	.cfi_def_cfa_offset 16
	.cfi_offset %rbp, -16
	movq	%rsp, %rbp
	.cfi_def_cfa_register %rbp
	subq	$16, %rsp
	movq	%rdi, -8(%rbp)
Ltmp211:
	.loc	20 184 1 prologue_end
	callq	__ZN4core3ptr13drop_in_place17hebe0769284b0344bE
	addq	$16, %rsp
	popq	%rbp
	retq
Ltmp212:
Lfunc_end63:
	.cfi_endproc

	.p2align	4, 0x90
__ZN4core3ptr13drop_in_place17h38e914bbdcb12c80E:
Lfunc_begin64:
	.loc	20 184 0
	.cfi_startproc
	.cfi_personality 155, _rust_eh_personality
	.cfi_lsda 16, Lexception11
	pushq	%rbp
	.cfi_def_cfa_offset 16
	.cfi_offset %rbp, -16
	movq	%rsp, %rbp
	.cfi_def_cfa_register %rbp
	subq	$48, %rsp
	movq	%rdi, -24(%rbp)
Ltmp213:
	movq	%rdi, -40(%rbp)
Ltmp216:
	.loc	20 184 1 prologue_end
	callq	__ZN66_$LT$alloc..vec..Vec$LT$T$GT$$u20$as$u20$core..ops..drop..Drop$GT$4drop17h1f216e7e14754ab3E
Ltmp214:
	jmp	LBB64_4
LBB64_1:
	movq	-16(%rbp), %rdi
	callq	__Unwind_Resume
	ud2
LBB64_2:
	addq	$48, %rsp
	popq	%rbp
	retq
LBB64_3:
	.loc	20 0 1 is_stmt 0
	movq	-40(%rbp), %rax
	.loc	20 184 1
	movq	%rax, %rdi
	callq	__ZN4core3ptr13drop_in_place17hbbcbaee8911d40dfE
	jmp	LBB64_1
LBB64_4:
	.loc	20 0 1
	movq	-40(%rbp), %rax
	.loc	20 184 1
	movq	%rax, %rdi
	callq	__ZN4core3ptr13drop_in_place17hbbcbaee8911d40dfE
	jmp	LBB64_2
Ltmp217:
LBB64_5:
Ltmp215:
	.loc	20 0 1
	movq	%rax, -16(%rbp)
	movl	%edx, -8(%rbp)
	jmp	LBB64_3
Lfunc_end64:
	.cfi_endproc
	.section	__TEXT,__gcc_except_tab
	.p2align	2
GCC_except_table64:
Lexception11:
	.byte	255
	.byte	255
	.byte	1
	.uleb128 Lcst_end11-Lcst_begin11
Lcst_begin11:
	.uleb128 Ltmp213-Lfunc_begin64
	.uleb128 Ltmp214-Ltmp213
	.uleb128 Ltmp215-Lfunc_begin64
	.byte	0
	.uleb128 Ltmp214-Lfunc_begin64
	.uleb128 Lfunc_end64-Ltmp214
	.byte	0
	.byte	0
Lcst_end11:
	.p2align	2

	.section	__TEXT,__text,regular,pure_instructions
	.p2align	4, 0x90
__ZN4core3ptr13drop_in_place17h44eb9af185cfb862E:
Lfunc_begin65:
	.loc	20 184 0 is_stmt 1
	.cfi_startproc
	.cfi_personality 155, _rust_eh_personality
	.cfi_lsda 16, Lexception12
	pushq	%rbp
	.cfi_def_cfa_offset 16
	.cfi_offset %rbp, -16
	movq	%rsp, %rbp
	.cfi_def_cfa_register %rbp
	subq	$48, %rsp
	movq	%rdi, -24(%rbp)
Ltmp218:
	movq	%rdi, -40(%rbp)
Ltmp221:
	.loc	20 184 1 prologue_end
	callq	__ZN66_$LT$alloc..vec..Vec$LT$T$GT$$u20$as$u20$core..ops..drop..Drop$GT$4drop17hf96c198749d8a039E
Ltmp219:
	jmp	LBB65_4
LBB65_1:
	movq	-16(%rbp), %rdi
	callq	__Unwind_Resume
	ud2
LBB65_2:
	addq	$48, %rsp
	popq	%rbp
	retq
LBB65_3:
	.loc	20 0 1 is_stmt 0
	movq	-40(%rbp), %rax
	.loc	20 184 1
	movq	%rax, %rdi
	callq	__ZN4core3ptr13drop_in_place17h910ffe71042d00b8E
	jmp	LBB65_1
LBB65_4:
	.loc	20 0 1
	movq	-40(%rbp), %rax
	.loc	20 184 1
	movq	%rax, %rdi
	callq	__ZN4core3ptr13drop_in_place17h910ffe71042d00b8E
	jmp	LBB65_2
Ltmp222:
LBB65_5:
Ltmp220:
	.loc	20 0 1
	movq	%rax, -16(%rbp)
	movl	%edx, -8(%rbp)
	jmp	LBB65_3
Lfunc_end65:
	.cfi_endproc
	.section	__TEXT,__gcc_except_tab
	.p2align	2
GCC_except_table65:
Lexception12:
	.byte	255
	.byte	255
	.byte	1
	.uleb128 Lcst_end12-Lcst_begin12
Lcst_begin12:
	.uleb128 Ltmp218-Lfunc_begin65
	.uleb128 Ltmp219-Ltmp218
	.uleb128 Ltmp220-Lfunc_begin65
	.byte	0
	.uleb128 Ltmp219-Lfunc_begin65
	.uleb128 Lfunc_end65-Ltmp219
	.byte	0
	.byte	0
Lcst_end12:
	.p2align	2

	.section	__TEXT,__text,regular,pure_instructions
	.p2align	4, 0x90
__ZN4core3ptr13drop_in_place17h4c2aabc9eb92b103E:
Lfunc_begin66:
	.loc	20 184 0 is_stmt 1
	.cfi_startproc
	.cfi_personality 155, _rust_eh_personality
	.cfi_lsda 16, Lexception13
	pushq	%rbp
	.cfi_def_cfa_offset 16
	.cfi_offset %rbp, -16
	movq	%rsp, %rbp
	.cfi_def_cfa_register %rbp
	subq	$48, %rsp
	movq	%rdi, -24(%rbp)
Ltmp223:
	movq	%rdi, -40(%rbp)
Ltmp226:
	.loc	20 184 1 prologue_end
	callq	__ZN4core3ptr13drop_in_place17hdb571758bb610511E
Ltmp224:
	jmp	LBB66_4
LBB66_1:
	movq	-16(%rbp), %rdi
	callq	__Unwind_Resume
	ud2
LBB66_2:
	addq	$48, %rsp
	popq	%rbp
	retq
LBB66_3:
	.loc	20 0 1 is_stmt 0
	movq	-40(%rbp), %rax
	.loc	20 184 1
	addq	$24, %rax
	movq	%rax, %rdi
	callq	__ZN4core3ptr13drop_in_place17hdb571758bb610511E
	jmp	LBB66_1
LBB66_4:
	.loc	20 0 1
	movq	-40(%rbp), %rax
	.loc	20 184 1
	addq	$24, %rax
	movq	%rax, %rdi
	callq	__ZN4core3ptr13drop_in_place17hdb571758bb610511E
	jmp	LBB66_2
Ltmp227:
LBB66_5:
Ltmp225:
	.loc	20 0 1
	movq	%rax, -16(%rbp)
	movl	%edx, -8(%rbp)
	jmp	LBB66_3
Lfunc_end66:
	.cfi_endproc
	.section	__TEXT,__gcc_except_tab
	.p2align	2
GCC_except_table66:
Lexception13:
	.byte	255
	.byte	255
	.byte	1
	.uleb128 Lcst_end13-Lcst_begin13
Lcst_begin13:
	.uleb128 Ltmp223-Lfunc_begin66
	.uleb128 Ltmp224-Ltmp223
	.uleb128 Ltmp225-Lfunc_begin66
	.byte	0
	.uleb128 Ltmp224-Lfunc_begin66
	.uleb128 Lfunc_end66-Ltmp224
	.byte	0
	.byte	0
Lcst_end13:
	.p2align	2

	.section	__TEXT,__text,regular,pure_instructions
	.p2align	4, 0x90
__ZN4core3ptr13drop_in_place17h5d804c3574643176E:
Lfunc_begin67:
	.loc	20 184 0 is_stmt 1
	.cfi_startproc
	.cfi_personality 155, _rust_eh_personality
	.cfi_lsda 16, Lexception14
	pushq	%rbp
	.cfi_def_cfa_offset 16
	.cfi_offset %rbp, -16
	movq	%rsp, %rbp
	.cfi_def_cfa_register %rbp
	subq	$80, %rsp
	xorl	%eax, %eax
	movq	%rdi, -32(%rbp)
	movq	%rsi, -24(%rbp)
Ltmp234:
	.loc	20 184 1 prologue_end
	testb	$1, %al
	movq	%rdi, -72(%rbp)
	movq	%rsi, -80(%rbp)
	jne	LBB67_7
	jmp	LBB67_12
LBB67_1:
	addq	$80, %rsp
	popq	%rbp
	retq
LBB67_2:
	movq	-16(%rbp), %rdi
	callq	__Unwind_Resume
	ud2
LBB67_3:
	movq	-56(%rbp), %rax
	shlq	$4, %rax
	movq	-72(%rbp), %rcx
	addq	%rax, %rcx
	movq	-56(%rbp), %rax
	addq	$1, %rax
	movq	%rax, -56(%rbp)
	movq	%rcx, %rdi
	callq	__ZN4core3ptr13drop_in_place17h25622ee8df7216bcE
LBB67_4:
	.loc	20 0 1 is_stmt 0
	movq	-80(%rbp), %rax
	.loc	20 184 1
	cmpq	%rax, -56(%rbp)
	je	LBB67_2
	jmp	LBB67_3
LBB67_5:
	movq	-56(%rbp), %rax
	movq	%rax, %rcx
	shlq	$4, %rcx
	movq	-72(%rbp), %rdx
	addq	%rcx, %rdx
	incq	%rax
	movq	%rax, -56(%rbp)
Ltmp231:
	movq	%rdx, %rdi
	callq	__ZN4core3ptr13drop_in_place17h25622ee8df7216bcE
Ltmp232:
	jmp	LBB67_6
LBB67_6:
	.loc	20 0 1
	movq	-80(%rbp), %rax
	.loc	20 184 1
	cmpq	%rax, -56(%rbp)
	je	LBB67_1
	jmp	LBB67_5
LBB67_7:
	movq	$0, -56(%rbp)
	jmp	LBB67_6
LBB67_8:
	movq	-48(%rbp), %rdi
	movq	-48(%rbp), %rax
	addq	$16, %rax
	movq	%rax, -48(%rbp)
	callq	__ZN4core3ptr13drop_in_place17h25622ee8df7216bcE
LBB67_9:
	movq	-48(%rbp), %rax
	cmpq	-40(%rbp), %rax
	je	LBB67_2
	jmp	LBB67_8
LBB67_10:
	movq	-48(%rbp), %rax
	movq	%rax, %rcx
	addq	$16, %rcx
	movq	%rcx, -48(%rbp)
Ltmp228:
	movq	%rax, %rdi
	callq	__ZN4core3ptr13drop_in_place17h25622ee8df7216bcE
Ltmp229:
	jmp	LBB67_11
LBB67_11:
	movq	-48(%rbp), %rax
	cmpq	-40(%rbp), %rax
	je	LBB67_1
	jmp	LBB67_10
LBB67_12:
	.loc	20 0 1
	movq	-72(%rbp), %rax
	.loc	20 184 1
	movq	%rax, -48(%rbp)
	movq	-80(%rbp), %rax
	shlq	$4, %rax
	addq	-48(%rbp), %rax
	movq	%rax, -40(%rbp)
	jmp	LBB67_11
Ltmp235:
LBB67_13:
Ltmp230:
	.loc	20 0 1
	movq	%rax, -16(%rbp)
	movl	%edx, -8(%rbp)
	jmp	LBB67_9
LBB67_14:
Ltmp233:
	movq	%rax, -16(%rbp)
	movl	%edx, -8(%rbp)
	jmp	LBB67_4
Lfunc_end67:
	.cfi_endproc
	.section	__TEXT,__gcc_except_tab
	.p2align	2
GCC_except_table67:
Lexception14:
	.byte	255
	.byte	255
	.byte	1
	.uleb128 Lcst_end14-Lcst_begin14
Lcst_begin14:
	.uleb128 Lfunc_begin67-Lfunc_begin67
	.uleb128 Ltmp231-Lfunc_begin67
	.byte	0
	.byte	0
	.uleb128 Ltmp231-Lfunc_begin67
	.uleb128 Ltmp232-Ltmp231
	.uleb128 Ltmp233-Lfunc_begin67
	.byte	0
	.uleb128 Ltmp232-Lfunc_begin67
	.uleb128 Ltmp228-Ltmp232
	.byte	0
	.byte	0
	.uleb128 Ltmp228-Lfunc_begin67
	.uleb128 Ltmp229-Ltmp228
	.uleb128 Ltmp230-Lfunc_begin67
	.byte	0
Lcst_end14:
	.p2align	2

	.section	__TEXT,__text,regular,pure_instructions
	.p2align	4, 0x90
__ZN4core3ptr13drop_in_place17h5ecfcfc535aab39bE:
Lfunc_begin68:
	.loc	20 184 0 is_stmt 1
	.cfi_startproc
	.cfi_personality 155, _rust_eh_personality
	.cfi_lsda 16, Lexception15
	pushq	%rbp
	.cfi_def_cfa_offset 16
	.cfi_offset %rbp, -16
	movq	%rsp, %rbp
	.cfi_def_cfa_register %rbp
	subq	$80, %rsp
	xorl	%eax, %eax
	movq	%rdi, -32(%rbp)
	movq	%rsi, -24(%rbp)
Ltmp242:
	.loc	20 184 1 prologue_end
	testb	$1, %al
	movq	%rdi, -72(%rbp)
	movq	%rsi, -80(%rbp)
	jne	LBB68_7
	jmp	LBB68_12
LBB68_1:
	addq	$80, %rsp
	popq	%rbp
	retq
LBB68_2:
	movq	-16(%rbp), %rdi
	callq	__Unwind_Resume
	ud2
LBB68_3:
	movq	-56(%rbp), %rax
	shlq	$4, %rax
	movq	-72(%rbp), %rcx
	addq	%rax, %rcx
	movq	-56(%rbp), %rax
	addq	$1, %rax
	movq	%rax, -56(%rbp)
	movq	%rcx, %rdi
	callq	__ZN4core3ptr13drop_in_place17hf57ea2997bbf1a73E
LBB68_4:
	.loc	20 0 1 is_stmt 0
	movq	-80(%rbp), %rax
	.loc	20 184 1
	cmpq	%rax, -56(%rbp)
	je	LBB68_2
	jmp	LBB68_3
LBB68_5:
	movq	-56(%rbp), %rax
	movq	%rax, %rcx
	shlq	$4, %rcx
	movq	-72(%rbp), %rdx
	addq	%rcx, %rdx
	incq	%rax
	movq	%rax, -56(%rbp)
Ltmp239:
	movq	%rdx, %rdi
	callq	__ZN4core3ptr13drop_in_place17hf57ea2997bbf1a73E
Ltmp240:
	jmp	LBB68_6
LBB68_6:
	.loc	20 0 1
	movq	-80(%rbp), %rax
	.loc	20 184 1
	cmpq	%rax, -56(%rbp)
	je	LBB68_1
	jmp	LBB68_5
LBB68_7:
	movq	$0, -56(%rbp)
	jmp	LBB68_6
LBB68_8:
	movq	-48(%rbp), %rdi
	movq	-48(%rbp), %rax
	addq	$16, %rax
	movq	%rax, -48(%rbp)
	callq	__ZN4core3ptr13drop_in_place17hf57ea2997bbf1a73E
LBB68_9:
	movq	-48(%rbp), %rax
	cmpq	-40(%rbp), %rax
	je	LBB68_2
	jmp	LBB68_8
LBB68_10:
	movq	-48(%rbp), %rax
	movq	%rax, %rcx
	addq	$16, %rcx
	movq	%rcx, -48(%rbp)
Ltmp236:
	movq	%rax, %rdi
	callq	__ZN4core3ptr13drop_in_place17hf57ea2997bbf1a73E
Ltmp237:
	jmp	LBB68_11
LBB68_11:
	movq	-48(%rbp), %rax
	cmpq	-40(%rbp), %rax
	je	LBB68_1
	jmp	LBB68_10
LBB68_12:
	.loc	20 0 1
	movq	-72(%rbp), %rax
	.loc	20 184 1
	movq	%rax, -48(%rbp)
	movq	-80(%rbp), %rax
	shlq	$4, %rax
	addq	-48(%rbp), %rax
	movq	%rax, -40(%rbp)
	jmp	LBB68_11
Ltmp243:
LBB68_13:
Ltmp238:
	.loc	20 0 1
	movq	%rax, -16(%rbp)
	movl	%edx, -8(%rbp)
	jmp	LBB68_9
LBB68_14:
Ltmp241:
	movq	%rax, -16(%rbp)
	movl	%edx, -8(%rbp)
	jmp	LBB68_4
Lfunc_end68:
	.cfi_endproc
	.section	__TEXT,__gcc_except_tab
	.p2align	2
GCC_except_table68:
Lexception15:
	.byte	255
	.byte	255
	.byte	1
	.uleb128 Lcst_end15-Lcst_begin15
Lcst_begin15:
	.uleb128 Lfunc_begin68-Lfunc_begin68
	.uleb128 Ltmp239-Lfunc_begin68
	.byte	0
	.byte	0
	.uleb128 Ltmp239-Lfunc_begin68
	.uleb128 Ltmp240-Ltmp239
	.uleb128 Ltmp241-Lfunc_begin68
	.byte	0
	.uleb128 Ltmp240-Lfunc_begin68
	.uleb128 Ltmp236-Ltmp240
	.byte	0
	.byte	0
	.uleb128 Ltmp236-Lfunc_begin68
	.uleb128 Ltmp237-Ltmp236
	.uleb128 Ltmp238-Lfunc_begin68
	.byte	0
Lcst_end15:
	.p2align	2

	.section	__TEXT,__text,regular,pure_instructions
	.p2align	4, 0x90
__ZN4core3ptr13drop_in_place17h663a21ba696d9824E:
Lfunc_begin69:
	.loc	20 184 0 is_stmt 1
	.cfi_startproc
	.cfi_personality 155, _rust_eh_personality
	.cfi_lsda 16, Lexception16
	pushq	%rbp
	.cfi_def_cfa_offset 16
	.cfi_offset %rbp, -16
	movq	%rsp, %rbp
	.cfi_def_cfa_register %rbp
	subq	$48, %rsp
	movq	%rdi, -24(%rbp)
Ltmp247:
	.loc	20 184 1 prologue_end
	movq	(%rdi), %rax
	movq	8(%rdi), %rcx
	movq	(%rcx), %rcx
Ltmp244:
	movq	%rdi, -40(%rbp)
	movq	%rax, %rdi
	callq	*%rcx
Ltmp245:
	jmp	LBB69_3
LBB69_1:
	addq	$48, %rsp
	popq	%rbp
	retq
LBB69_2:
	movq	-16(%rbp), %rdi
	callq	__Unwind_Resume
	ud2
LBB69_3:
	.loc	20 0 1 is_stmt 0
	movq	-40(%rbp), %rax
	.loc	20 184 1
	movq	(%rax), %rdi
	movq	8(%rax), %rsi
	callq	__ZN5alloc5alloc8box_free17h5e30d184e6c7a519E
	jmp	LBB69_1
LBB69_4:
	.loc	20 0 1
	movq	-40(%rbp), %rax
	.loc	20 184 1
	movq	(%rax), %rdi
	movq	8(%rax), %rsi
	callq	__ZN5alloc5alloc8box_free17h5e30d184e6c7a519E
	jmp	LBB69_2
Ltmp248:
LBB69_5:
Ltmp246:
	.loc	20 0 1
	movq	%rax, -16(%rbp)
	movl	%edx, -8(%rbp)
	jmp	LBB69_4
Lfunc_end69:
	.cfi_endproc
	.section	__TEXT,__gcc_except_tab
	.p2align	2
GCC_except_table69:
Lexception16:
	.byte	255
	.byte	255
	.byte	1
	.uleb128 Lcst_end16-Lcst_begin16
Lcst_begin16:
	.uleb128 Ltmp244-Lfunc_begin69
	.uleb128 Ltmp245-Ltmp244
	.uleb128 Ltmp246-Lfunc_begin69
	.byte	0
	.uleb128 Ltmp245-Lfunc_begin69
	.uleb128 Lfunc_end69-Ltmp245
	.byte	0
	.byte	0
Lcst_end16:
	.p2align	2

	.section	__TEXT,__text,regular,pure_instructions
	.p2align	4, 0x90
__ZN4core3ptr13drop_in_place17h689f3b53473cb9abE:
Lfunc_begin70:
	.loc	20 184 0 is_stmt 1
	.cfi_startproc
	pushq	%rbp
	.cfi_def_cfa_offset 16
	.cfi_offset %rbp, -16
	movq	%rsp, %rbp
	.cfi_def_cfa_register %rbp
	subq	$32, %rsp
	movq	%rdi, -16(%rbp)
	movq	%rsi, -8(%rbp)
Ltmp249:
	.loc	20 184 1 prologue_end
	callq	*(%rsi)
	addq	$32, %rsp
	popq	%rbp
	retq
Ltmp250:
Lfunc_end70:
	.cfi_endproc

	.p2align	4, 0x90
__ZN4core3ptr13drop_in_place17h6cc29274fcb58a3dE:
Lfunc_begin71:
	.loc	20 184 0
	.cfi_startproc
	pushq	%rbp
	.cfi_def_cfa_offset 16
	.cfi_offset %rbp, -16
	movq	%rsp, %rbp
	.cfi_def_cfa_register %rbp
	subq	$32, %rsp
	xorl	%eax, %eax
	movl	%eax, %ecx
	movq	%rdi, -8(%rbp)
Ltmp251:
	.loc	20 184 1 prologue_end
	cmpq	$0, (%rdi)
	movl	$1, %edx
	cmovbeq	%rcx, %rdx
	cmpq	$0, %rdx
	movq	%rdi, -24(%rbp)
	jne	LBB71_2
LBB71_1:
	addq	$32, %rsp
	popq	%rbp
	retq
LBB71_2:
	.loc	20 0 1 is_stmt 0
	movq	-24(%rbp), %rax
	.loc	20 184 1
	movq	%rax, %rdi
	callq	__ZN4core3ptr13drop_in_place17h2a1e4345cf68a61cE
	jmp	LBB71_1
Ltmp252:
Lfunc_end71:
	.cfi_endproc

	.p2align	4, 0x90
__ZN4core3ptr13drop_in_place17h6d938743336094a7E:
Lfunc_begin72:
	.loc	20 184 0 is_stmt 1
	.cfi_startproc
	pushq	%rbp
	.cfi_def_cfa_offset 16
	.cfi_offset %rbp, -16
	movq	%rsp, %rbp
	.cfi_def_cfa_register %rbp
	subq	$32, %rsp
	xorl	%eax, %eax
	movl	%eax, %ecx
	movq	%rdi, -8(%rbp)
Ltmp253:
	.loc	20 184 1 prologue_end
	movl	(%rdi), %eax
	subl	$4, %eax
	cmpl	$0, %eax
	movl	$1, %edx
	cmovbeq	%rcx, %rdx
	cmpq	$0, %rdx
	movq	%rdi, -24(%rbp)
	jne	LBB72_2
LBB72_1:
	addq	$32, %rsp
	popq	%rbp
	retq
LBB72_2:
	.loc	20 0 1 is_stmt 0
	movq	-24(%rbp), %rdi
	.loc	20 184 1
	callq	__ZN4core3ptr13drop_in_place17hc48941590cf892cfE
	jmp	LBB72_1
Ltmp254:
Lfunc_end72:
	.cfi_endproc

	.p2align	4, 0x90
__ZN4core3ptr13drop_in_place17h6e883aa71a9b4be1E:
Lfunc_begin73:
	.loc	20 184 0 is_stmt 1
	.cfi_startproc
	pushq	%rbp
	.cfi_def_cfa_offset 16
	.cfi_offset %rbp, -16
	movq	%rsp, %rbp
	.cfi_def_cfa_register %rbp
	subq	$16, %rsp
	movq	%rdi, -8(%rbp)
Ltmp255:
	.loc	20 184 1 prologue_end
	callq	__ZN95_$LT$alloc..collections..btree..map..IntoIter$LT$K$C$V$GT$$u20$as$u20$core..ops..drop..Drop$GT$4drop17h3cd403b51a180eb7E
	addq	$16, %rsp
	popq	%rbp
	retq
Ltmp256:
Lfunc_end73:
	.cfi_endproc

	.p2align	4, 0x90
__ZN4core3ptr13drop_in_place17h6e9b966b71839e4eE:
Lfunc_begin74:
	.loc	20 184 0
	.cfi_startproc
	pushq	%rbp
	.cfi_def_cfa_offset 16
	.cfi_offset %rbp, -16
	movq	%rsp, %rbp
	.cfi_def_cfa_register %rbp
	subq	$16, %rsp
	movq	%rdi, -8(%rbp)
Ltmp257:
	.loc	20 184 1 prologue_end
	callq	__ZN4core3ptr13drop_in_place17h245c365b68e6bdf3E
	addq	$16, %rsp
	popq	%rbp
	retq
Ltmp258:
Lfunc_end74:
	.cfi_endproc

	.p2align	4, 0x90
__ZN4core3ptr13drop_in_place17h7b8fd70c67a98cccE:
Lfunc_begin75:
	.loc	20 184 0
	.cfi_startproc
	pushq	%rbp
	.cfi_def_cfa_offset 16
	.cfi_offset %rbp, -16
	movq	%rsp, %rbp
	.cfi_def_cfa_register %rbp
	subq	$48, %rsp
	movq	%rdi, -24(%rbp)
	movq	%rdi, -40(%rbp)
Ltmp259:
	.loc	20 184 1 prologue_end
	jmp	LBB75_2
LBB75_1:
	addq	$48, %rsp
	popq	%rbp
	retq
LBB75_2:
	.loc	20 0 1 is_stmt 0
	movq	-40(%rbp), %rax
	.loc	20 184 1
	movq	(%rax), %rdi
	movq	8(%rax), %rsi
	callq	__ZN5alloc5alloc8box_free17h89167a9ee59c62d6E
	jmp	LBB75_1
Ltmp260:
Lfunc_end75:
	.cfi_endproc

	.p2align	4, 0x90
__ZN4core3ptr13drop_in_place17h825594b6fe6128a8E:
Lfunc_begin76:
	.loc	20 184 0 is_stmt 1
	.cfi_startproc
	pushq	%rbp
	.cfi_def_cfa_offset 16
	.cfi_offset %rbp, -16
	movq	%rsp, %rbp
	.cfi_def_cfa_register %rbp
	subq	$16, %rsp
	movq	%rdi, -8(%rbp)
Ltmp261:
	.loc	20 184 1 prologue_end
	callq	__ZN4core3ptr13drop_in_place17h44eb9af185cfb862E
	addq	$16, %rsp
	popq	%rbp
	retq
Ltmp262:
Lfunc_end76:
	.cfi_endproc

	.p2align	4, 0x90
__ZN4core3ptr13drop_in_place17h835a4cce93fe6db8E:
Lfunc_begin77:
	.loc	20 184 0
	.cfi_startproc
	pushq	%rbp
	.cfi_def_cfa_offset 16
	.cfi_offset %rbp, -16
	movq	%rsp, %rbp
	.cfi_def_cfa_register %rbp
	subq	$32, %rsp
	xorl	%eax, %eax
	movl	%eax, %ecx
	movq	%rdi, -8(%rbp)
Ltmp263:
	.loc	20 184 1 prologue_end
	cmpq	$0, (%rdi)
	movl	$1, %edx
	cmovbeq	%rcx, %rdx
	cmpq	$0, %rdx
	movq	%rdi, -24(%rbp)
	jne	LBB77_2
LBB77_1:
	addq	$32, %rsp
	popq	%rbp
	retq
LBB77_2:
	.loc	20 0 1 is_stmt 0
	movq	-24(%rbp), %rax
	.loc	20 184 1
	movq	%rax, %rdi
	callq	__ZN4core3ptr13drop_in_place17h03a08134d620d44cE
	jmp	LBB77_1
Ltmp264:
Lfunc_end77:
	.cfi_endproc

	.p2align	4, 0x90
__ZN4core3ptr13drop_in_place17h8dc759311fa3c5a7E:
Lfunc_begin78:
	.loc	20 184 0 is_stmt 1
	.cfi_startproc
	pushq	%rbp
	.cfi_def_cfa_offset 16
	.cfi_offset %rbp, -16
	movq	%rsp, %rbp
	.cfi_def_cfa_register %rbp
	subq	$16, %rsp
	movq	%rdi, -8(%rbp)
Ltmp265:
	.loc	20 184 1 prologue_end
	callq	__ZN4core3ptr13drop_in_place17h663a21ba696d9824E
	addq	$16, %rsp
	popq	%rbp
	retq
Ltmp266:
Lfunc_end78:
	.cfi_endproc

	.p2align	4, 0x90
__ZN4core3ptr13drop_in_place17h910ffe71042d00b8E:
Lfunc_begin79:
	.loc	20 184 0
	.cfi_startproc
	pushq	%rbp
	.cfi_def_cfa_offset 16
	.cfi_offset %rbp, -16
	movq	%rsp, %rbp
	.cfi_def_cfa_register %rbp
	subq	$16, %rsp
	movq	%rdi, -8(%rbp)
Ltmp267:
	.loc	20 184 1 prologue_end
	callq	__ZN77_$LT$alloc..raw_vec..RawVec$LT$T$C$A$GT$$u20$as$u20$core..ops..drop..Drop$GT$4drop17hb932864ac13059acE
	addq	$16, %rsp
	popq	%rbp
	retq
Ltmp268:
Lfunc_end79:
	.cfi_endproc

	.p2align	4, 0x90
__ZN4core3ptr13drop_in_place17ha42952b52b4faa6eE:
Lfunc_begin80:
	.loc	20 184 0
	.cfi_startproc
	pushq	%rbp
	.cfi_def_cfa_offset 16
	.cfi_offset %rbp, -16
	movq	%rsp, %rbp
	.cfi_def_cfa_register %rbp
	subq	$16, %rsp
	movq	%rdi, -8(%rbp)
Ltmp269:
	.loc	20 184 1 prologue_end
	callq	__ZN166_$LT$$LT$alloc..collections..btree..map..IntoIter$LT$K$C$V$GT$$u20$as$u20$core..ops..drop..Drop$GT$..drop..DropGuard$LT$K$C$V$GT$$u20$as$u20$core..ops..drop..Drop$GT$4drop17h8f3ce11bb0d36707E
	addq	$16, %rsp
	popq	%rbp
	retq
Ltmp270:
Lfunc_end80:
	.cfi_endproc

	.p2align	4, 0x90
__ZN4core3ptr13drop_in_place17ha5711db08a4285e1E:
Lfunc_begin81:
	.loc	20 184 0
	.cfi_startproc
	.cfi_personality 155, _rust_eh_personality
	.cfi_lsda 16, Lexception17
	pushq	%rbp
	.cfi_def_cfa_offset 16
	.cfi_offset %rbp, -16
	movq	%rsp, %rbp
	.cfi_def_cfa_register %rbp
	subq	$48, %rsp
	movq	%rdi, -24(%rbp)
Ltmp274:
	.loc	20 184 1 prologue_end
	movq	(%rdi), %rax
Ltmp271:
	movq	%rdi, -40(%rbp)
	movq	%rax, %rdi
	callq	__ZN4core3ptr13drop_in_place17h8dc759311fa3c5a7E
Ltmp272:
	jmp	LBB81_3
LBB81_1:
	addq	$48, %rsp
	popq	%rbp
	retq
LBB81_2:
	movq	-16(%rbp), %rdi
	callq	__Unwind_Resume
	ud2
LBB81_3:
	.loc	20 0 1 is_stmt 0
	movq	-40(%rbp), %rax
	.loc	20 184 1
	movq	(%rax), %rdi
	callq	__ZN5alloc5alloc8box_free17hc8adee6c5492cc0cE
	jmp	LBB81_1
LBB81_4:
	.loc	20 0 1
	movq	-40(%rbp), %rax
	.loc	20 184 1
	movq	(%rax), %rdi
	callq	__ZN5alloc5alloc8box_free17hc8adee6c5492cc0cE
	jmp	LBB81_2
Ltmp275:
LBB81_5:
Ltmp273:
	.loc	20 0 1
	movq	%rax, -16(%rbp)
	movl	%edx, -8(%rbp)
	jmp	LBB81_4
Lfunc_end81:
	.cfi_endproc
	.section	__TEXT,__gcc_except_tab
	.p2align	2
GCC_except_table81:
Lexception17:
	.byte	255
	.byte	255
	.byte	1
	.uleb128 Lcst_end17-Lcst_begin17
Lcst_begin17:
	.uleb128 Ltmp271-Lfunc_begin81
	.uleb128 Ltmp272-Ltmp271
	.uleb128 Ltmp273-Lfunc_begin81
	.byte	0
	.uleb128 Ltmp272-Lfunc_begin81
	.uleb128 Lfunc_end81-Ltmp272
	.byte	0
	.byte	0
Lcst_end17:
	.p2align	2

	.section	__TEXT,__text,regular,pure_instructions
	.p2align	4, 0x90
__ZN4core3ptr13drop_in_place17hb8c7f8f1cc0c0c6dE:
Lfunc_begin82:
	.loc	20 184 0 is_stmt 1
	.cfi_startproc
	pushq	%rbp
	.cfi_def_cfa_offset 16
	.cfi_offset %rbp, -16
	movq	%rsp, %rbp
	.cfi_def_cfa_register %rbp
	subq	$16, %rsp
	movq	%rdi, -8(%rbp)
Ltmp276:
	.loc	20 184 1 prologue_end
	callq	__ZN4core3ptr13drop_in_place17hcd6295e5a96f346aE
	addq	$16, %rsp
	popq	%rbp
	retq
Ltmp277:
Lfunc_end82:
	.cfi_endproc

	.p2align	4, 0x90
__ZN4core3ptr13drop_in_place17hbbcbaee8911d40dfE:
Lfunc_begin83:
	.loc	20 184 0
	.cfi_startproc
	pushq	%rbp
	.cfi_def_cfa_offset 16
	.cfi_offset %rbp, -16
	movq	%rsp, %rbp
	.cfi_def_cfa_register %rbp
	subq	$16, %rsp
	movq	%rdi, -8(%rbp)
Ltmp278:
	.loc	20 184 1 prologue_end
	callq	__ZN77_$LT$alloc..raw_vec..RawVec$LT$T$C$A$GT$$u20$as$u20$core..ops..drop..Drop$GT$4drop17h987b95af8bd05a9aE
	addq	$16, %rsp
	popq	%rbp
	retq
Ltmp279:
Lfunc_end83:
	.cfi_endproc

	.p2align	4, 0x90
__ZN4core3ptr13drop_in_place17hc2e63ec32991ea5aE:
Lfunc_begin84:
	.loc	20 184 0
	.cfi_startproc
	pushq	%rbp
	.cfi_def_cfa_offset 16
	.cfi_offset %rbp, -16
	movq	%rsp, %rbp
	.cfi_def_cfa_register %rbp
	subq	$32, %rsp
	movq	%rdi, -8(%rbp)
Ltmp280:
	.loc	20 184 1 prologue_end
	cmpq	$0, (%rdi)
	movq	%rdi, -24(%rbp)
	je	LBB84_2
	jmp	LBB84_3
LBB84_1:
	addq	$32, %rsp
	popq	%rbp
	retq
LBB84_2:
	.loc	20 0 1 is_stmt 0
	movq	-24(%rbp), %rax
	.loc	20 184 1
	addq	$8, %rax
	movq	%rax, %rdi
	callq	__ZN4core3ptr13drop_in_place17h4c2aabc9eb92b103E
	jmp	LBB84_1
LBB84_3:
	.loc	20 0 1
	movq	-24(%rbp), %rax
	.loc	20 184 1
	addq	$8, %rax
	movq	%rax, %rdi
	callq	__ZN4core3ptr13drop_in_place17h6e9b966b71839e4eE
	jmp	LBB84_1
Ltmp281:
Lfunc_end84:
	.cfi_endproc

	.p2align	4, 0x90
__ZN4core3ptr13drop_in_place17hc48941590cf892cfE:
Lfunc_begin85:
	.loc	20 184 0 is_stmt 1
	.cfi_startproc
	pushq	%rbp
	.cfi_def_cfa_offset 16
	.cfi_offset %rbp, -16
	movq	%rsp, %rbp
	.cfi_def_cfa_register %rbp
	subq	$32, %rsp
	movq	%rdi, -8(%rbp)
Ltmp282:
	.loc	20 184 1 prologue_end
	movl	(%rdi), %eax
	subl	$2, %eax
	movq	%rdi, -24(%rbp)
	ja	LBB85_2
	jmp	LBB85_1
LBB85_1:
	addq	$32, %rsp
	popq	%rbp
	retq
LBB85_2:
	.loc	20 0 1 is_stmt 0
	movq	-24(%rbp), %rax
	.loc	20 184 1
	addq	$4, %rax
	movq	%rax, %rdi
	callq	__ZN4core3ptr13drop_in_place17he9157248cd409bbaE
	jmp	LBB85_1
Ltmp283:
Lfunc_end85:
	.cfi_endproc

	.p2align	4, 0x90
__ZN4core3ptr13drop_in_place17hc5261c79b2688c14E:
Lfunc_begin86:
	.loc	20 184 0 is_stmt 1
	.cfi_startproc
	pushq	%rbp
	.cfi_def_cfa_offset 16
	.cfi_offset %rbp, -16
	movq	%rsp, %rbp
	.cfi_def_cfa_register %rbp
	subq	$16, %rsp
	movq	%rdi, -8(%rbp)
Ltmp284:
	.loc	20 184 1 prologue_end
	addq	$16, %rsp
	popq	%rbp
	retq
Ltmp285:
Lfunc_end86:
	.cfi_endproc

	.p2align	4, 0x90
__ZN4core3ptr13drop_in_place17hc582156b29e97347E:
Lfunc_begin87:
	.loc	20 184 0
	.cfi_startproc
	pushq	%rbp
	.cfi_def_cfa_offset 16
	.cfi_offset %rbp, -16
	movq	%rsp, %rbp
	.cfi_def_cfa_register %rbp
	subq	$16, %rsp
	movq	%rdi, -8(%rbp)
Ltmp286:
	.loc	20 184 1 prologue_end
	callq	__ZN77_$LT$alloc..raw_vec..RawVec$LT$T$C$A$GT$$u20$as$u20$core..ops..drop..Drop$GT$4drop17hf4890069097c6074E
	addq	$16, %rsp
	popq	%rbp
	retq
Ltmp287:
Lfunc_end87:
	.cfi_endproc

	.p2align	4, 0x90
__ZN4core3ptr13drop_in_place17hcb211bbddcb6f1ebE:
Lfunc_begin88:
	.loc	20 184 0
	.cfi_startproc
	pushq	%rbp
	.cfi_def_cfa_offset 16
	.cfi_offset %rbp, -16
	movq	%rsp, %rbp
	.cfi_def_cfa_register %rbp
	subq	$32, %rsp
	movq	%rdi, -16(%rbp)
	movq	%rsi, -8(%rbp)
Ltmp288:
	.loc	20 184 1 prologue_end
	callq	*(%rsi)
	addq	$32, %rsp
	popq	%rbp
	retq
Ltmp289:
Lfunc_end88:
	.cfi_endproc

	.p2align	4, 0x90
__ZN4core3ptr13drop_in_place17hcd6295e5a96f346aE:
Lfunc_begin89:
	.loc	20 184 0
	.cfi_startproc
	pushq	%rbp
	.cfi_def_cfa_offset 16
	.cfi_offset %rbp, -16
	movq	%rsp, %rbp
	.cfi_def_cfa_register %rbp
	subq	$16, %rsp
	movq	%rdi, -8(%rbp)
Ltmp290:
	.loc	20 184 1 prologue_end
	callq	__ZN95_$LT$alloc..collections..btree..map..BTreeMap$LT$K$C$V$GT$$u20$as$u20$core..ops..drop..Drop$GT$4drop17h666428ea5100ecd1E
	addq	$16, %rsp
	popq	%rbp
	retq
Ltmp291:
Lfunc_end89:
	.cfi_endproc

	.p2align	4, 0x90
__ZN4core3ptr13drop_in_place17hd4aee7b8bc7f4f9bE:
Lfunc_begin90:
	.loc	20 184 0
	.cfi_startproc
	pushq	%rbp
	.cfi_def_cfa_offset 16
	.cfi_offset %rbp, -16
	movq	%rsp, %rbp
	.cfi_def_cfa_register %rbp
	subq	$32, %rsp
	xorl	%eax, %eax
	movl	%eax, %ecx
	movq	%rdi, -8(%rbp)
Ltmp292:
	.loc	20 184 1 prologue_end
	cmpq	$0, (%rdi)
	movl	$1, %edx
	cmovbeq	%rcx, %rdx
	cmpq	$0, %rdx
	movq	%rdi, -24(%rbp)
	jne	LBB90_2
LBB90_1:
	addq	$32, %rsp
	popq	%rbp
	retq
LBB90_2:
	.loc	20 0 1 is_stmt 0
	movq	-24(%rbp), %rdi
	.loc	20 184 1
	callq	__ZN4core3ptr13drop_in_place17h25622ee8df7216bcE
	jmp	LBB90_1
Ltmp293:
Lfunc_end90:
	.cfi_endproc

	.p2align	4, 0x90
__ZN4core3ptr13drop_in_place17hd67044a8659ace01E:
Lfunc_begin91:
	.loc	20 184 0 is_stmt 1
	.cfi_startproc
	pushq	%rbp
	.cfi_def_cfa_offset 16
	.cfi_offset %rbp, -16
	movq	%rsp, %rbp
	.cfi_def_cfa_register %rbp
	subq	$16, %rsp
	movq	%rdi, -8(%rbp)
Ltmp294:
	.loc	20 184 1 prologue_end
	callq	__ZN4core3ptr13drop_in_place17h1b25e4b1f3842101E
	addq	$16, %rsp
	popq	%rbp
	retq
Ltmp295:
Lfunc_end91:
	.cfi_endproc

	.p2align	4, 0x90
__ZN4core3ptr13drop_in_place17hd9d0882ede1c919cE:
Lfunc_begin92:
	.loc	20 184 0
	.cfi_startproc
	pushq	%rbp
	.cfi_def_cfa_offset 16
	.cfi_offset %rbp, -16
	movq	%rsp, %rbp
	.cfi_def_cfa_register %rbp
	subq	$16, %rsp
	movq	%rdi, -8(%rbp)
Ltmp296:
	.loc	20 184 1 prologue_end
	callq	__ZN77_$LT$alloc..raw_vec..RawVec$LT$T$C$A$GT$$u20$as$u20$core..ops..drop..Drop$GT$4drop17hc886da6752f03874E
	addq	$16, %rsp
	popq	%rbp
	retq
Ltmp297:
Lfunc_end92:
	.cfi_endproc

	.p2align	4, 0x90
__ZN4core3ptr13drop_in_place17hdb571758bb610511E:
Lfunc_begin93:
	.loc	20 184 0
	.cfi_startproc
	.cfi_personality 155, _rust_eh_personality
	.cfi_lsda 16, Lexception18
	pushq	%rbp
	.cfi_def_cfa_offset 16
	.cfi_offset %rbp, -16
	movq	%rsp, %rbp
	.cfi_def_cfa_register %rbp
	subq	$48, %rsp
	movq	%rdi, -24(%rbp)
Ltmp298:
	movq	%rdi, -40(%rbp)
Ltmp301:
	.loc	20 184 1 prologue_end
	callq	__ZN66_$LT$alloc..vec..Vec$LT$T$GT$$u20$as$u20$core..ops..drop..Drop$GT$4drop17h9566f4591ce6a900E
Ltmp299:
	jmp	LBB93_4
LBB93_1:
	movq	-16(%rbp), %rdi
	callq	__Unwind_Resume
	ud2
LBB93_2:
	addq	$48, %rsp
	popq	%rbp
	retq
LBB93_3:
	.loc	20 0 1 is_stmt 0
	movq	-40(%rbp), %rax
	.loc	20 184 1
	movq	%rax, %rdi
	callq	__ZN4core3ptr13drop_in_place17hd9d0882ede1c919cE
	jmp	LBB93_1
LBB93_4:
	.loc	20 0 1
	movq	-40(%rbp), %rax
	.loc	20 184 1
	movq	%rax, %rdi
	callq	__ZN4core3ptr13drop_in_place17hd9d0882ede1c919cE
	jmp	LBB93_2
Ltmp302:
LBB93_5:
Ltmp300:
	.loc	20 0 1
	movq	%rax, -16(%rbp)
	movl	%edx, -8(%rbp)
	jmp	LBB93_3
Lfunc_end93:
	.cfi_endproc
	.section	__TEXT,__gcc_except_tab
	.p2align	2
GCC_except_table93:
Lexception18:
	.byte	255
	.byte	255
	.byte	1
	.uleb128 Lcst_end18-Lcst_begin18
Lcst_begin18:
	.uleb128 Ltmp298-Lfunc_begin93
	.uleb128 Ltmp299-Ltmp298
	.uleb128 Ltmp300-Lfunc_begin93
	.byte	0
	.uleb128 Ltmp299-Lfunc_begin93
	.uleb128 Lfunc_end93-Ltmp299
	.byte	0
	.byte	0
Lcst_end18:
	.p2align	2

	.section	__TEXT,__text,regular,pure_instructions
	.p2align	4, 0x90
__ZN4core3ptr13drop_in_place17he9157248cd409bbaE:
Lfunc_begin94:
	.loc	20 184 0 is_stmt 1
	.cfi_startproc
	pushq	%rbp
	.cfi_def_cfa_offset 16
	.cfi_offset %rbp, -16
	movq	%rsp, %rbp
	.cfi_def_cfa_register %rbp
	subq	$16, %rsp
	movq	%rdi, -8(%rbp)
Ltmp303:
	.loc	20 184 1 prologue_end
	callq	__ZN70_$LT$std..sys..unix..fd..FileDesc$u20$as$u20$core..ops..drop..Drop$GT$4drop17h633394f1cf9da1c8E
	addq	$16, %rsp
	popq	%rbp
	retq
Ltmp304:
Lfunc_end94:
	.cfi_endproc

	.p2align	4, 0x90
__ZN4core3ptr13drop_in_place17hebe0769284b0344bE:
Lfunc_begin95:
	.loc	20 184 0
	.cfi_startproc
	pushq	%rbp
	.cfi_def_cfa_offset 16
	.cfi_offset %rbp, -16
	movq	%rsp, %rbp
	.cfi_def_cfa_register %rbp
	subq	$16, %rsp
	movq	%rdi, -8(%rbp)
Ltmp305:
	.loc	20 184 1 prologue_end
	callq	__ZN4core3ptr13drop_in_place17hdb571758bb610511E
	addq	$16, %rsp
	popq	%rbp
	retq
Ltmp306:
Lfunc_end95:
	.cfi_endproc

	.p2align	4, 0x90
__ZN4core3ptr13drop_in_place17hf57ea2997bbf1a73E:
Lfunc_begin96:
	.loc	20 184 0
	.cfi_startproc
	.cfi_personality 155, _rust_eh_personality
	.cfi_lsda 16, Lexception19
	pushq	%rbp
	.cfi_def_cfa_offset 16
	.cfi_offset %rbp, -16
	movq	%rsp, %rbp
	.cfi_def_cfa_register %rbp
	subq	$48, %rsp
	movq	%rdi, -24(%rbp)
Ltmp310:
	.loc	20 184 1 prologue_end
	movq	(%rdi), %rax
	movq	8(%rdi), %rcx
	movq	(%rcx), %rcx
Ltmp307:
	movq	%rdi, -40(%rbp)
	movq	%rax, %rdi
	callq	*%rcx
Ltmp308:
	jmp	LBB96_3
LBB96_1:
	addq	$48, %rsp
	popq	%rbp
	retq
LBB96_2:
	movq	-16(%rbp), %rdi
	callq	__Unwind_Resume
	ud2
LBB96_3:
	.loc	20 0 1 is_stmt 0
	movq	-40(%rbp), %rax
	.loc	20 184 1
	movq	(%rax), %rdi
	movq	8(%rax), %rsi
	callq	__ZN5alloc5alloc8box_free17hfa4d3841a5604545E
	jmp	LBB96_1
LBB96_4:
	.loc	20 0 1
	movq	-40(%rbp), %rax
	.loc	20 184 1
	movq	(%rax), %rdi
	movq	8(%rax), %rsi
	callq	__ZN5alloc5alloc8box_free17hfa4d3841a5604545E
	jmp	LBB96_2
Ltmp311:
LBB96_5:
Ltmp309:
	.loc	20 0 1
	movq	%rax, -16(%rbp)
	movl	%edx, -8(%rbp)
	jmp	LBB96_4
Lfunc_end96:
	.cfi_endproc
	.section	__TEXT,__gcc_except_tab
	.p2align	2
GCC_except_table96:
Lexception19:
	.byte	255
	.byte	255
	.byte	1
	.uleb128 Lcst_end19-Lcst_begin19
Lcst_begin19:
	.uleb128 Ltmp307-Lfunc_begin96
	.uleb128 Ltmp308-Ltmp307
	.uleb128 Ltmp309-Lfunc_begin96
	.byte	0
	.uleb128 Ltmp308-Lfunc_begin96
	.uleb128 Lfunc_end96-Ltmp308
	.byte	0
	.byte	0
Lcst_end19:
	.p2align	2

	.section	__TEXT,__text,regular,pure_instructions
	.p2align	4, 0x90
__ZN4core3ptr19swap_nonoverlapping17h32e2ae112a4d361eE:
Lfunc_begin97:
	.loc	20 430 0 is_stmt 1
	.cfi_startproc
	pushq	%rbp
	.cfi_def_cfa_offset 16
	.cfi_offset %rbp, -16
	movq	%rsp, %rbp
	.cfi_def_cfa_register %rbp
	subq	$96, %rsp
	movq	%rdi, -56(%rbp)
	movq	%rsi, -48(%rbp)
	movq	%rdx, -40(%rbp)
Ltmp312:
	.loc	20 440 13 prologue_end
	movq	%rdi, -32(%rbp)
Ltmp313:
	.loc	20 441 13
	movq	%rsi, -24(%rbp)
Ltmp314:
	.loc	17 310 5
	movq	$8, -8(%rbp)
	movq	-8(%rbp), %rax
	movq	%rdx, -64(%rbp)
	movq	%rdi, -72(%rbp)
	movq	%rsi, -80(%rbp)
	movq	%rax, -88(%rbp)
Ltmp315:
	.loc	17 0 5 is_stmt 0
	movq	-88(%rbp), %rax
	movq	-64(%rbp), %rcx
	.loc	20 442 15 is_stmt 1
	imulq	%rcx, %rax
	movq	%rax, -16(%rbp)
	movq	-72(%rbp), %rdi
	movq	-80(%rbp), %rsi
Ltmp316:
	.loc	20 445 14
	movq	%rax, %rdx
	callq	__ZN4core3ptr25swap_nonoverlapping_bytes17h598c4790568df0faE
Ltmp317:
	.loc	20 446 2
	addq	$96, %rsp
	popq	%rbp
	retq
Ltmp318:
Lfunc_end97:
	.cfi_endproc

	.p2align	4, 0x90
__ZN4core3ptr19swap_nonoverlapping17h525dbc86e5dd8a93E:
Lfunc_begin98:
	.loc	20 430 0
	.cfi_startproc
	pushq	%rbp
	.cfi_def_cfa_offset 16
	.cfi_offset %rbp, -16
	movq	%rsp, %rbp
	.cfi_def_cfa_register %rbp
	subq	$96, %rsp
	movq	%rdi, -56(%rbp)
	movq	%rsi, -48(%rbp)
	movq	%rdx, -40(%rbp)
Ltmp319:
	.loc	20 440 13 prologue_end
	movq	%rdi, -32(%rbp)
Ltmp320:
	.loc	20 441 13
	movq	%rsi, -24(%rbp)
Ltmp321:
	.loc	17 310 5
	movq	$16, -8(%rbp)
	movq	-8(%rbp), %rax
	movq	%rdx, -64(%rbp)
	movq	%rdi, -72(%rbp)
	movq	%rsi, -80(%rbp)
	movq	%rax, -88(%rbp)
Ltmp322:
	.loc	17 0 5 is_stmt 0
	movq	-88(%rbp), %rax
	movq	-64(%rbp), %rcx
	.loc	20 442 15 is_stmt 1
	imulq	%rcx, %rax
	movq	%rax, -16(%rbp)
	movq	-72(%rbp), %rdi
	movq	-80(%rbp), %rsi
Ltmp323:
	.loc	20 445 14
	movq	%rax, %rdx
	callq	__ZN4core3ptr25swap_nonoverlapping_bytes17h598c4790568df0faE
Ltmp324:
	.loc	20 446 2
	addq	$96, %rsp
	popq	%rbp
	retq
Ltmp325:
Lfunc_end98:
	.cfi_endproc

	.p2align	4, 0x90
__ZN4core3ptr20slice_from_raw_parts17h274cf9160b51ed30E:
Lfunc_begin99:
	.loc	20 264 0
	.cfi_startproc
	pushq	%rbp
	.cfi_def_cfa_offset 16
	.cfi_offset %rbp, -16
	movq	%rsp, %rbp
	.cfi_def_cfa_register %rbp
	subq	$48, %rsp
	movq	%rdi, -16(%rbp)
	movq	%rsi, -8(%rbp)
Ltmp326:
	.loc	20 268 26 prologue_end
	movq	%rdi, -32(%rbp)
	movq	%rsi, -24(%rbp)
	.loc	20 268 14 is_stmt 0
	movq	-32(%rbp), %rax
	movq	-24(%rbp), %rcx
	movq	%rax, -48(%rbp)
	movq	%rcx, -40(%rbp)
	movq	-48(%rbp), %rax
	movq	-40(%rbp), %rdx
	.loc	20 269 2 is_stmt 1
	addq	$48, %rsp
	popq	%rbp
	retq
Ltmp327:
Lfunc_end99:
	.cfi_endproc

	.p2align	4, 0x90
__ZN4core3ptr20slice_from_raw_parts17h68951a687886473fE:
Lfunc_begin100:
	.loc	20 264 0
	.cfi_startproc
	pushq	%rbp
	.cfi_def_cfa_offset 16
	.cfi_offset %rbp, -16
	movq	%rsp, %rbp
	.cfi_def_cfa_register %rbp
	subq	$48, %rsp
	movq	%rdi, -16(%rbp)
	movq	%rsi, -8(%rbp)
Ltmp328:
	.loc	20 268 26 prologue_end
	movq	%rdi, -32(%rbp)
	movq	%rsi, -24(%rbp)
	.loc	20 268 14 is_stmt 0
	movq	-32(%rbp), %rax
	movq	-24(%rbp), %rcx
	movq	%rax, -48(%rbp)
	movq	%rcx, -40(%rbp)
	movq	-48(%rbp), %rax
	movq	-40(%rbp), %rdx
	.loc	20 269 2 is_stmt 1
	addq	$48, %rsp
	popq	%rbp
	retq
Ltmp329:
Lfunc_end100:
	.cfi_endproc

	.p2align	4, 0x90
__ZN4core3ptr20slice_from_raw_parts17h8457e5063c181227E:
Lfunc_begin101:
	.loc	20 264 0
	.cfi_startproc
	pushq	%rbp
	.cfi_def_cfa_offset 16
	.cfi_offset %rbp, -16
	movq	%rsp, %rbp
	.cfi_def_cfa_register %rbp
	subq	$48, %rsp
	movq	%rdi, -16(%rbp)
	movq	%rsi, -8(%rbp)
Ltmp330:
	.loc	20 268 26 prologue_end
	movq	%rdi, -32(%rbp)
	movq	%rsi, -24(%rbp)
	.loc	20 268 14 is_stmt 0
	movq	-32(%rbp), %rax
	movq	-24(%rbp), %rcx
	movq	%rax, -48(%rbp)
	movq	%rcx, -40(%rbp)
	movq	-48(%rbp), %rax
	movq	-40(%rbp), %rdx
	.loc	20 269 2 is_stmt 1
	addq	$48, %rsp
	popq	%rbp
	retq
Ltmp331:
Lfunc_end101:
	.cfi_endproc

	.p2align	4, 0x90
__ZN4core3ptr23swap_nonoverlapping_one17h43a7862febc56609E:
Lfunc_begin102:
	.loc	20 449 0
	.cfi_startproc
	.cfi_personality 155, _rust_eh_personality
	.cfi_lsda 16, Lexception20
	pushq	%rbp
	.cfi_def_cfa_offset 16
	.cfi_offset %rbp, -16
	movq	%rsp, %rbp
	.cfi_def_cfa_register %rbp
	subq	$112, %rsp
	movq	%rdi, -56(%rbp)
	movq	%rsi, -48(%rbp)
Ltmp337:
	.loc	20 452 8 prologue_end
	movb	$0, -57(%rbp)
Ltmp338:
	.loc	17 310 5
	movq	$16, -8(%rbp)
	movq	-8(%rbp), %rax
	movq	%rdi, -72(%rbp)
	movq	%rsi, -80(%rbp)
	movq	%rax, -88(%rbp)
Ltmp339:
	.loc	20 452 8
	jmp	LBB102_2
LBB102_1:
	.loc	20 449 1
	movq	-24(%rbp), %rdi
	callq	__Unwind_Resume
	ud2
LBB102_2:
	.loc	20 0 1 is_stmt 0
	movq	-88(%rbp), %rax
	.loc	20 452 8 is_stmt 1
	cmpq	$32, %rax
	.loc	20 452 5 is_stmt 0
	jb	LBB102_4
	.loc	20 0 5
	movq	-72(%rbp), %rdi
	movq	-80(%rbp), %rsi
	.loc	20 462 18 is_stmt 1
	movl	$1, %edx
	callq	__ZN4core3ptr19swap_nonoverlapping17h525dbc86e5dd8a93E
	jmp	LBB102_8
LBB102_4:
	.loc	20 456 21
	movb	$1, -57(%rbp)
	movq	-72(%rbp), %rdi
	callq	__ZN4core3ptr4read17h0c2a6512eb5f8103E
	movq	%rax, -40(%rbp)
	movq	%rdx, -32(%rbp)
	movq	%rax, -96(%rbp)
	movq	%rdx, -104(%rbp)
Ltmp332:
	.loc	20 0 21 is_stmt 0
	movl	$1, %edx
	movq	-80(%rbp), %rdi
	movq	-72(%rbp), %rsi
Ltmp340:
	.loc	20 457 13 is_stmt 1
	callq	__ZN4core10intrinsics19copy_nonoverlapping17hd702403fbffa5f93E
Ltmp333:
	jmp	LBB102_6
LBB102_6:
	.loc	20 458 22
	movb	$0, -57(%rbp)
Ltmp334:
	movq	-80(%rbp), %rdi
	movq	-96(%rbp), %rsi
	movq	-104(%rbp), %rdx
	.loc	20 458 13 is_stmt 0
	callq	__ZN4core3ptr5write17he2cf52d899f158a0E
Ltmp335:
	jmp	LBB102_7
Ltmp341:
LBB102_7:
	.loc	20 459 9 is_stmt 1
	movb	$0, -57(%rbp)
	.loc	20 452 5
	jmp	LBB102_9
LBB102_8:
	jmp	LBB102_9
LBB102_9:
	.loc	20 464 2
	addq	$112, %rsp
	popq	%rbp
	retq
LBB102_10:
	.loc	20 459 9
	movb	$0, -57(%rbp)
	jmp	LBB102_1
LBB102_11:
	testb	$1, -57(%rbp)
	jne	LBB102_10
	jmp	LBB102_1
Ltmp342:
LBB102_12:
Ltmp336:
	.loc	20 0 9 is_stmt 0
	movq	%rax, -24(%rbp)
	movl	%edx, -16(%rbp)
	jmp	LBB102_11
Lfunc_end102:
	.cfi_endproc
	.section	__TEXT,__gcc_except_tab
	.p2align	2
GCC_except_table102:
Lexception20:
	.byte	255
	.byte	255
	.byte	1
	.uleb128 Lcst_end20-Lcst_begin20
Lcst_begin20:
	.uleb128 Lfunc_begin102-Lfunc_begin102
	.uleb128 Ltmp332-Lfunc_begin102
	.byte	0
	.byte	0
	.uleb128 Ltmp332-Lfunc_begin102
	.uleb128 Ltmp335-Ltmp332
	.uleb128 Ltmp336-Lfunc_begin102
	.byte	0
Lcst_end20:
	.p2align	2

	.section	__TEXT,__text,regular,pure_instructions
	.p2align	4, 0x90
__ZN4core3ptr23swap_nonoverlapping_one17hdb59f07413fe327eE:
Lfunc_begin103:
	.loc	20 449 0 is_stmt 1
	.cfi_startproc
	.cfi_personality 155, _rust_eh_personality
	.cfi_lsda 16, Lexception21
	pushq	%rbp
	.cfi_def_cfa_offset 16
	.cfi_offset %rbp, -16
	movq	%rsp, %rbp
	.cfi_def_cfa_register %rbp
	subq	$96, %rsp
	movq	%rdi, -48(%rbp)
	movq	%rsi, -40(%rbp)
Ltmp348:
	.loc	20 452 8 prologue_end
	movb	$0, -49(%rbp)
Ltmp349:
	.loc	17 310 5
	movq	$8, -8(%rbp)
	movq	-8(%rbp), %rax
	movq	%rdi, -64(%rbp)
	movq	%rsi, -72(%rbp)
	movq	%rax, -80(%rbp)
Ltmp350:
	.loc	20 452 8
	jmp	LBB103_2
LBB103_1:
	.loc	20 449 1
	movq	-24(%rbp), %rdi
	callq	__Unwind_Resume
	ud2
LBB103_2:
	.loc	20 0 1 is_stmt 0
	movq	-80(%rbp), %rax
	.loc	20 452 8 is_stmt 1
	cmpq	$32, %rax
	.loc	20 452 5 is_stmt 0
	jb	LBB103_4
	.loc	20 0 5
	movq	-64(%rbp), %rdi
	movq	-72(%rbp), %rsi
	.loc	20 462 18 is_stmt 1
	movl	$1, %edx
	callq	__ZN4core3ptr19swap_nonoverlapping17h32e2ae112a4d361eE
	jmp	LBB103_8
LBB103_4:
	.loc	20 456 21
	movb	$1, -49(%rbp)
	movq	-64(%rbp), %rdi
	callq	__ZN4core3ptr4read17hd742d46718438178E
	movq	%rax, -32(%rbp)
	movq	%rax, -88(%rbp)
Ltmp343:
	.loc	20 0 21 is_stmt 0
	movl	$1, %edx
	movq	-72(%rbp), %rdi
	movq	-64(%rbp), %rsi
Ltmp351:
	.loc	20 457 13 is_stmt 1
	callq	__ZN4core10intrinsics19copy_nonoverlapping17heab3ebd96218bd5aE
Ltmp344:
	jmp	LBB103_6
LBB103_6:
	.loc	20 458 22
	movb	$0, -49(%rbp)
Ltmp345:
	movq	-72(%rbp), %rdi
	movq	-88(%rbp), %rsi
	.loc	20 458 13 is_stmt 0
	callq	__ZN4core3ptr5write17h89f2c8ec45ad48c6E
Ltmp346:
	jmp	LBB103_7
Ltmp352:
LBB103_7:
	.loc	20 459 9 is_stmt 1
	movb	$0, -49(%rbp)
	.loc	20 452 5
	jmp	LBB103_9
LBB103_8:
	jmp	LBB103_9
LBB103_9:
	.loc	20 464 2
	addq	$96, %rsp
	popq	%rbp
	retq
LBB103_10:
	.loc	20 459 9
	movb	$0, -49(%rbp)
	jmp	LBB103_1
LBB103_11:
	testb	$1, -49(%rbp)
	jne	LBB103_10
	jmp	LBB103_1
Ltmp353:
LBB103_12:
Ltmp347:
	.loc	20 0 9 is_stmt 0
	movq	%rax, -24(%rbp)
	movl	%edx, -16(%rbp)
	jmp	LBB103_11
Lfunc_end103:
	.cfi_endproc
	.section	__TEXT,__gcc_except_tab
	.p2align	2
GCC_except_table103:
Lexception21:
	.byte	255
	.byte	255
	.byte	1
	.uleb128 Lcst_end21-Lcst_begin21
Lcst_begin21:
	.uleb128 Lfunc_begin103-Lfunc_begin103
	.uleb128 Ltmp343-Lfunc_begin103
	.byte	0
	.byte	0
	.uleb128 Ltmp343-Lfunc_begin103
	.uleb128 Ltmp346-Ltmp343
	.uleb128 Ltmp347-Lfunc_begin103
	.byte	0
Lcst_end21:
	.p2align	2

	.section	__TEXT,__text,regular,pure_instructions
	.p2align	4, 0x90
__ZN4core3ptr24slice_from_raw_parts_mut17h02a4bbb7c78c230bE:
Lfunc_begin104:
	.loc	20 300 0 is_stmt 1
	.cfi_startproc
	pushq	%rbp
	.cfi_def_cfa_offset 16
	.cfi_offset %rbp, -16
	movq	%rsp, %rbp
	.cfi_def_cfa_register %rbp
	subq	$48, %rsp
	movq	%rdi, -16(%rbp)
	movq	%rsi, -8(%rbp)
Ltmp354:
	.loc	20 303 26 prologue_end
	movq	%rdi, -32(%rbp)
	movq	%rsi, -24(%rbp)
	.loc	20 303 14 is_stmt 0
	movq	-32(%rbp), %rax
	movq	-24(%rbp), %rcx
	movq	%rax, -48(%rbp)
	movq	%rcx, -40(%rbp)
	movq	-48(%rbp), %rax
	movq	-40(%rbp), %rdx
	.loc	20 304 2 is_stmt 1
	addq	$48, %rsp
	popq	%rbp
	retq
Ltmp355:
Lfunc_end104:
	.cfi_endproc

	.p2align	4, 0x90
__ZN4core3ptr24slice_from_raw_parts_mut17h5462de6280dabbcaE:
Lfunc_begin105:
	.loc	20 300 0
	.cfi_startproc
	pushq	%rbp
	.cfi_def_cfa_offset 16
	.cfi_offset %rbp, -16
	movq	%rsp, %rbp
	.cfi_def_cfa_register %rbp
	subq	$48, %rsp
	movq	%rdi, -16(%rbp)
	movq	%rsi, -8(%rbp)
Ltmp356:
	.loc	20 303 26 prologue_end
	movq	%rdi, -32(%rbp)
	movq	%rsi, -24(%rbp)
	.loc	20 303 14 is_stmt 0
	movq	-32(%rbp), %rax
	movq	-24(%rbp), %rcx
	movq	%rax, -48(%rbp)
	movq	%rcx, -40(%rbp)
	movq	-48(%rbp), %rax
	movq	-40(%rbp), %rdx
	.loc	20 304 2 is_stmt 1
	addq	$48, %rsp
	popq	%rbp
	retq
Ltmp357:
Lfunc_end105:
	.cfi_endproc

	.p2align	4, 0x90
__ZN4core3ptr24slice_from_raw_parts_mut17h9704393051b2dbadE:
Lfunc_begin106:
	.loc	20 300 0
	.cfi_startproc
	pushq	%rbp
	.cfi_def_cfa_offset 16
	.cfi_offset %rbp, -16
	movq	%rsp, %rbp
	.cfi_def_cfa_register %rbp
	subq	$48, %rsp
	movq	%rdi, -16(%rbp)
	movq	%rsi, -8(%rbp)
Ltmp358:
	.loc	20 303 26 prologue_end
	movq	%rdi, -32(%rbp)
	movq	%rsi, -24(%rbp)
	.loc	20 303 14 is_stmt 0
	movq	-32(%rbp), %rax
	movq	-24(%rbp), %rcx
	movq	%rax, -48(%rbp)
	movq	%rcx, -40(%rbp)
	movq	-48(%rbp), %rax
	movq	-40(%rbp), %rdx
	.loc	20 304 2 is_stmt 1
	addq	$48, %rsp
	popq	%rbp
	retq
Ltmp359:
Lfunc_end106:
	.cfi_endproc

	.p2align	4, 0x90
__ZN4core3ptr24slice_from_raw_parts_mut17hc2fecedb7ea02d77E:
Lfunc_begin107:
	.loc	20 300 0
	.cfi_startproc
	pushq	%rbp
	.cfi_def_cfa_offset 16
	.cfi_offset %rbp, -16
	movq	%rsp, %rbp
	.cfi_def_cfa_register %rbp
	subq	$48, %rsp
	movq	%rdi, -16(%rbp)
	movq	%rsi, -8(%rbp)
Ltmp360:
	.loc	20 303 26 prologue_end
	movq	%rdi, -32(%rbp)
	movq	%rsi, -24(%rbp)
	.loc	20 303 14 is_stmt 0
	movq	-32(%rbp), %rax
	movq	-24(%rbp), %rcx
	movq	%rax, -48(%rbp)
	movq	%rcx, -40(%rbp)
	movq	-48(%rbp), %rax
	movq	-40(%rbp), %rdx
	.loc	20 304 2 is_stmt 1
	addq	$48, %rsp
	popq	%rbp
	retq
Ltmp361:
Lfunc_end107:
	.cfi_endproc

	.p2align	4, 0x90
__ZN4core3ptr25swap_nonoverlapping_bytes17h598c4790568df0faE:
Lfunc_begin108:
	.loc	20 467 0
	.cfi_startproc
	pushq	%rbp
	.cfi_def_cfa_offset 16
	.cfi_offset %rbp, -16
	movq	%rsp, %rbp
	.cfi_def_cfa_register %rbp
	andq	$-32, %rsp
	subq	$352, %rsp
	movq	%rdi, 208(%rsp)
	movq	%rsi, 216(%rsp)
	movq	%rdx, 224(%rsp)
Ltmp362:
	.loc	17 310 5 prologue_end
	movq	$32, 296(%rsp)
	movq	296(%rsp), %rax
Ltmp363:
	.loc	20 478 22
	movq	%rax, 232(%rsp)
	movq	%rdi, 104(%rsp)
	movq	%rsi, 96(%rsp)
	movq	%rdx, 88(%rsp)
	movq	%rax, 80(%rsp)
Ltmp364:
	.loc	20 483 17
	movq	$0, 120(%rsp)
LBB108_2:
	.loc	20 0 17 is_stmt 0
	movq	80(%rsp), %rax
Ltmp365:
	.loc	20 484 11 is_stmt 1
	addq	120(%rsp), %rax
	movq	88(%rsp), %rcx
	cmpq	%rcx, %rax
	.loc	20 484 5 is_stmt 0
	jbe	LBB108_4
	.loc	20 0 5
	movq	88(%rsp), %rax
	.loc	20 509 8 is_stmt 1
	cmpq	%rax, 120(%rsp)
	.loc	20 509 5 is_stmt 0
	jb	LBB108_13
	jmp	LBB108_12
LBB108_4:
	.loc	20 0 5
	leaq	128(%rsp), %rax
	movq	%rax, 304(%rsp)
	movq	%rax, 312(%rsp)
Ltmp366:
	.loc	20 488 17 is_stmt 1
	leaq	128(%rsp), %rax
	movq	%rax, 240(%rsp)
Ltmp367:
	.loc	20 497 27
	movq	120(%rsp), %rsi
	movq	104(%rsp), %rdi
	movq	%rax, 72(%rsp)
	.loc	20 497 21 is_stmt 0
	callq	__ZN4core3ptr7mut_ptr31_$LT$impl$u20$$BP$mut$u20$T$GT$3add17h33f846631b086219E
	movq	%rax, 248(%rsp)
	movq	%rax, 64(%rsp)
Ltmp368:
	.loc	20 498 27 is_stmt 1
	movq	120(%rsp), %rsi
	movq	96(%rsp), %rdi
	.loc	20 498 21 is_stmt 0
	callq	__ZN4core3ptr7mut_ptr31_$LT$impl$u20$$BP$mut$u20$T$GT$3add17h33f846631b086219E
	movq	%rax, 256(%rsp)
	movq	%rax, 56(%rsp)
	.loc	20 0 21
	movq	64(%rsp), %rdi
	movq	72(%rsp), %rsi
	movq	80(%rsp), %rdx
Ltmp369:
	.loc	20 502 13 is_stmt 1
	callq	__ZN4core10intrinsics19copy_nonoverlapping17h7dfd5e833e603bf3E
	.loc	20 0 13 is_stmt 0
	movq	56(%rsp), %rdi
	movq	64(%rsp), %rsi
	movq	80(%rsp), %rdx
	.loc	20 503 13 is_stmt 1
	callq	__ZN4core10intrinsics19copy_nonoverlapping17h7dfd5e833e603bf3E
	.loc	20 0 13 is_stmt 0
	movq	72(%rsp), %rdi
	movq	56(%rsp), %rsi
	movq	80(%rsp), %rdx
	.loc	20 504 13 is_stmt 1
	callq	__ZN4core10intrinsics19copy_nonoverlapping17h7dfd5e833e603bf3E
Ltmp370:
	.loc	20 0 13 is_stmt 0
	movq	80(%rsp), %rax
	.loc	20 506 9 is_stmt 1
	addq	120(%rsp), %rax
	movq	%rax, 120(%rsp)
Ltmp371:
	.loc	20 484 5
	jmp	LBB108_2
LBB108_12:
	.loc	20 509 5
	jmp	LBB108_21
LBB108_13:
	.loc	20 0 5 is_stmt 0
	movq	88(%rsp), %rax
Ltmp372:
	.loc	20 512 19 is_stmt 1
	subq	120(%rsp), %rax
	movq	%rax, 264(%rsp)
	leaq	176(%rsp), %rcx
	movq	%rcx, 320(%rsp)
	movq	%rcx, 328(%rsp)
	movq	%rax, 48(%rsp)
	movq	%rcx, 40(%rsp)
	.loc	20 0 19 is_stmt 0
	movq	40(%rsp), %rax
Ltmp373:
	.loc	20 514 17 is_stmt 1
	movq	%rax, 272(%rsp)
Ltmp374:
	.loc	20 518 27
	movq	120(%rsp), %rsi
	movq	104(%rsp), %rdi
	movq	%rax, 32(%rsp)
	.loc	20 518 21 is_stmt 0
	callq	__ZN4core3ptr7mut_ptr31_$LT$impl$u20$$BP$mut$u20$T$GT$3add17h33f846631b086219E
	movq	%rax, 280(%rsp)
	movq	%rax, 24(%rsp)
Ltmp375:
	.loc	20 519 27 is_stmt 1
	movq	120(%rsp), %rsi
	movq	96(%rsp), %rdi
	.loc	20 519 21 is_stmt 0
	callq	__ZN4core3ptr7mut_ptr31_$LT$impl$u20$$BP$mut$u20$T$GT$3add17h33f846631b086219E
	movq	%rax, 288(%rsp)
	movq	%rax, 16(%rsp)
	.loc	20 0 21
	movq	24(%rsp), %rdi
	movq	32(%rsp), %rsi
	movq	48(%rsp), %rdx
Ltmp376:
	.loc	20 521 13 is_stmt 1
	callq	__ZN4core10intrinsics19copy_nonoverlapping17h7dfd5e833e603bf3E
	.loc	20 0 13 is_stmt 0
	movq	16(%rsp), %rdi
	movq	24(%rsp), %rsi
	movq	48(%rsp), %rdx
	.loc	20 522 13 is_stmt 1
	callq	__ZN4core10intrinsics19copy_nonoverlapping17h7dfd5e833e603bf3E
	.loc	20 0 13 is_stmt 0
	movq	32(%rsp), %rdi
	movq	16(%rsp), %rsi
	movq	48(%rsp), %rdx
	.loc	20 523 13 is_stmt 1
	callq	__ZN4core10intrinsics19copy_nonoverlapping17h7dfd5e833e603bf3E
Ltmp377:
	.loc	20 509 5
	jmp	LBB108_21
Ltmp378:
LBB108_21:
	.loc	20 526 2
	movq	%rbp, %rsp
	popq	%rbp
	retq
Ltmp379:
Lfunc_end108:
	.cfi_endproc

	.p2align	4, 0x90
__ZN4core3ptr4read17h0c2a6512eb5f8103E:
Lfunc_begin109:
	.loc	20 692 0
	.cfi_startproc
	pushq	%rbp
	.cfi_def_cfa_offset 16
	.cfi_offset %rbp, -16
	movq	%rsp, %rbp
	.cfi_def_cfa_register %rbp
	subq	$128, %rsp
	movq	%rdi, -72(%rbp)
Ltmp380:
	.file	21 "/rustc/6c8927b0cf80ceee19386026cf9d7fd4fd9d486f/src/libcore/mem/maybe_uninit.rs"
	.loc	21 272 6 prologue_end
	movq	-64(%rbp), %rax
	movq	-56(%rbp), %rcx
Ltmp381:
	.loc	20 694 19
	movq	%rcx, -80(%rbp)
	movq	%rax, -88(%rbp)
	movq	%rdi, -96(%rbp)
	.loc	20 0 19 is_stmt 0
	leaq	-88(%rbp), %rax
	movq	%rax, -16(%rbp)
	movq	%rax, -8(%rbp)
	movq	%rax, -104(%rbp)
	movq	-96(%rbp), %rdi
	movq	-104(%rbp), %rsi
Ltmp382:
	.loc	20 702 9 is_stmt 1
	movl	$1, %edx
	callq	__ZN4core10intrinsics19copy_nonoverlapping17hd702403fbffa5f93E
	.loc	20 703 9
	movq	-88(%rbp), %rax
	movq	-80(%rbp), %rcx
	movq	%rax, -48(%rbp)
	movq	%rcx, -40(%rbp)
	movq	%rax, -32(%rbp)
	movq	%rcx, -24(%rbp)
	movq	%rax, -112(%rbp)
	movq	%rcx, -120(%rbp)
Ltmp383:
	.loc	20 0 9 is_stmt 0
	movq	-112(%rbp), %rax
	movq	-120(%rbp), %rdx
	.loc	20 705 2 is_stmt 1
	addq	$128, %rsp
	popq	%rbp
	retq
Ltmp384:
Lfunc_end109:
	.cfi_endproc

	.p2align	4, 0x90
__ZN4core3ptr4read17h1387738deba5e31aE:
Lfunc_begin110:
	.loc	20 692 0
	.cfi_startproc
	pushq	%rbp
	.cfi_def_cfa_offset 16
	.cfi_offset %rbp, -16
	movq	%rsp, %rbp
	.cfi_def_cfa_register %rbp
	subq	$128, %rsp
	movq	%rdi, %rax
	movq	%rsi, -48(%rbp)
	movq	%rsi, -104(%rbp)
	movq	%rdi, -112(%rbp)
	movq	%rax, -120(%rbp)
	leaq	-96(%rbp), %rax
	movq	%rax, -16(%rbp)
	movq	%rax, -8(%rbp)
	movq	%rax, -128(%rbp)
	movq	-104(%rbp), %rdi
	movq	-128(%rbp), %rsi
Ltmp385:
	.loc	20 702 9 prologue_end
	movl	$1, %edx
	callq	__ZN4core10intrinsics19copy_nonoverlapping17h4f996fe4357fcb45E
	.loc	20 703 9
	movq	-96(%rbp), %rax
	movq	%rax, -72(%rbp)
	movq	-88(%rbp), %rax
	movq	%rax, -64(%rbp)
	movq	-80(%rbp), %rax
	movq	%rax, -56(%rbp)
Ltmp386:
	.loc	21 501 38
	movq	-72(%rbp), %rax
	movq	%rax, -40(%rbp)
	movq	-64(%rbp), %rax
	movq	%rax, -32(%rbp)
	movq	-56(%rbp), %rax
	movq	%rax, -24(%rbp)
Ltmp387:
	.loc	4 101 9
	movq	-40(%rbp), %rax
	movq	-112(%rbp), %rcx
	movq	%rax, (%rcx)
	movq	-32(%rbp), %rax
	movq	%rax, 8(%rcx)
	movq	-24(%rbp), %rax
	movq	%rax, 16(%rcx)
Ltmp388:
	.loc	4 0 9 is_stmt 0
	movq	-120(%rbp), %rax
	.loc	20 705 2 is_stmt 1
	addq	$128, %rsp
	popq	%rbp
	retq
Ltmp389:
Lfunc_end110:
	.cfi_endproc

	.p2align	4, 0x90
__ZN4core3ptr4read17h18b63515d1b0c111E:
Lfunc_begin111:
	.loc	20 692 0
	.cfi_startproc
	pushq	%rbp
	.cfi_def_cfa_offset 16
	.cfi_offset %rbp, -16
	movq	%rsp, %rbp
	.cfi_def_cfa_register %rbp
	subq	$128, %rsp
	movq	%rdi, %rax
	movq	%rsi, -48(%rbp)
	movq	%rsi, -104(%rbp)
	movq	%rdi, -112(%rbp)
	movq	%rax, -120(%rbp)
	leaq	-96(%rbp), %rax
	movq	%rax, -16(%rbp)
	movq	%rax, -8(%rbp)
	movq	%rax, -128(%rbp)
	movq	-104(%rbp), %rdi
	movq	-128(%rbp), %rsi
Ltmp390:
	.loc	20 702 9 prologue_end
	movl	$1, %edx
	callq	__ZN4core10intrinsics19copy_nonoverlapping17hee495d927af0c01bE
	.loc	20 703 9
	movq	-96(%rbp), %rax
	movq	%rax, -72(%rbp)
	movq	-88(%rbp), %rax
	movq	%rax, -64(%rbp)
	movq	-80(%rbp), %rax
	movq	%rax, -56(%rbp)
Ltmp391:
	.loc	21 501 38
	movq	-72(%rbp), %rax
	movq	%rax, -40(%rbp)
	movq	-64(%rbp), %rax
	movq	%rax, -32(%rbp)
	movq	-56(%rbp), %rax
	movq	%rax, -24(%rbp)
Ltmp392:
	.loc	4 101 9
	movq	-40(%rbp), %rax
	movq	-112(%rbp), %rcx
	movq	%rax, (%rcx)
	movq	-32(%rbp), %rax
	movq	%rax, 8(%rcx)
	movq	-24(%rbp), %rax
	movq	%rax, 16(%rcx)
Ltmp393:
	.loc	4 0 9 is_stmt 0
	movq	-120(%rbp), %rax
	.loc	20 705 2 is_stmt 1
	addq	$128, %rsp
	popq	%rbp
	retq
Ltmp394:
Lfunc_end111:
	.cfi_endproc

	.p2align	4, 0x90
__ZN4core3ptr4read17h5ae1151e816592b5E:
Lfunc_begin112:
	.loc	20 692 0
	.cfi_startproc
	pushq	%rbp
	.cfi_def_cfa_offset 16
	.cfi_offset %rbp, -16
	movq	%rsp, %rbp
	.cfi_def_cfa_register %rbp
	subq	$128, %rsp
	movq	%rdi, %rax
	movq	%rsi, -48(%rbp)
	movq	%rsi, -104(%rbp)
	movq	%rdi, -112(%rbp)
	movq	%rax, -120(%rbp)
	leaq	-96(%rbp), %rax
	movq	%rax, -16(%rbp)
	movq	%rax, -8(%rbp)
	movq	%rax, -128(%rbp)
	movq	-104(%rbp), %rdi
	movq	-128(%rbp), %rsi
Ltmp395:
	.loc	20 702 9 prologue_end
	movl	$1, %edx
	callq	__ZN4core10intrinsics19copy_nonoverlapping17h17a6a8f4144e54b3E
	.loc	20 703 9
	movq	-96(%rbp), %rax
	movq	%rax, -72(%rbp)
	movq	-88(%rbp), %rax
	movq	%rax, -64(%rbp)
	movq	-80(%rbp), %rax
	movq	%rax, -56(%rbp)
Ltmp396:
	.loc	21 501 38
	movq	-72(%rbp), %rax
	movq	%rax, -40(%rbp)
	movq	-64(%rbp), %rax
	movq	%rax, -32(%rbp)
	movq	-56(%rbp), %rax
	movq	%rax, -24(%rbp)
Ltmp397:
	.loc	4 101 9
	movq	-40(%rbp), %rax
	movq	-112(%rbp), %rcx
	movq	%rax, (%rcx)
	movq	-32(%rbp), %rax
	movq	%rax, 8(%rcx)
	movq	-24(%rbp), %rax
	movq	%rax, 16(%rcx)
Ltmp398:
	.loc	4 0 9 is_stmt 0
	movq	-120(%rbp), %rax
	.loc	20 705 2 is_stmt 1
	addq	$128, %rsp
	popq	%rbp
	retq
Ltmp399:
Lfunc_end112:
	.cfi_endproc

	.p2align	4, 0x90
__ZN4core3ptr4read17h83ad51972ad84fc4E:
Lfunc_begin113:
	.loc	20 692 0
	.cfi_startproc
	pushq	%rbp
	.cfi_def_cfa_offset 16
	.cfi_offset %rbp, -16
	movq	%rsp, %rbp
	.cfi_def_cfa_register %rbp
	subq	$128, %rsp
	movq	%rdi, %rax
	movq	%rsi, -48(%rbp)
	movq	%rsi, -104(%rbp)
	movq	%rdi, -112(%rbp)
	movq	%rax, -120(%rbp)
	leaq	-96(%rbp), %rax
	movq	%rax, -16(%rbp)
	movq	%rax, -8(%rbp)
	movq	%rax, -128(%rbp)
	movq	-104(%rbp), %rdi
	movq	-128(%rbp), %rsi
Ltmp400:
	.loc	20 702 9 prologue_end
	movl	$1, %edx
	callq	__ZN4core10intrinsics19copy_nonoverlapping17h07fbac5025aad8fbE
	.loc	20 703 9
	movq	-96(%rbp), %rax
	movq	%rax, -72(%rbp)
	movq	-88(%rbp), %rax
	movq	%rax, -64(%rbp)
	movq	-80(%rbp), %rax
	movq	%rax, -56(%rbp)
Ltmp401:
	.loc	21 501 38
	movq	-72(%rbp), %rax
	movq	%rax, -40(%rbp)
	movq	-64(%rbp), %rax
	movq	%rax, -32(%rbp)
	movq	-56(%rbp), %rax
	movq	%rax, -24(%rbp)
Ltmp402:
	.loc	4 101 9
	movq	-40(%rbp), %rax
	movq	-112(%rbp), %rcx
	movq	%rax, (%rcx)
	movq	-32(%rbp), %rax
	movq	%rax, 8(%rcx)
	movq	-24(%rbp), %rax
	movq	%rax, 16(%rcx)
Ltmp403:
	.loc	4 0 9 is_stmt 0
	movq	-120(%rbp), %rax
	.loc	20 705 2 is_stmt 1
	addq	$128, %rsp
	popq	%rbp
	retq
Ltmp404:
Lfunc_end113:
	.cfi_endproc

	.p2align	4, 0x90
__ZN4core3ptr4read17h8b00335891fca65eE:
Lfunc_begin114:
	.loc	20 692 0
	.cfi_startproc
	pushq	%rbp
	.cfi_def_cfa_offset 16
	.cfi_offset %rbp, -16
	movq	%rsp, %rbp
	.cfi_def_cfa_register %rbp
	subq	$128, %rsp
	movq	%rdi, %rax
	movq	%rsi, -48(%rbp)
	movq	%rsi, -104(%rbp)
	movq	%rdi, -112(%rbp)
	movq	%rax, -120(%rbp)
	leaq	-96(%rbp), %rax
	movq	%rax, -16(%rbp)
	movq	%rax, -8(%rbp)
	movq	%rax, -128(%rbp)
	movq	-104(%rbp), %rdi
	movq	-128(%rbp), %rsi
Ltmp405:
	.loc	20 702 9 prologue_end
	movl	$1, %edx
	callq	__ZN4core10intrinsics19copy_nonoverlapping17had7fbc0c3734a032E
	.loc	20 703 9
	movq	-96(%rbp), %rax
	movq	%rax, -72(%rbp)
	movq	-88(%rbp), %rax
	movq	%rax, -64(%rbp)
	movq	-80(%rbp), %rax
	movq	%rax, -56(%rbp)
Ltmp406:
	.loc	21 501 38
	movq	-72(%rbp), %rax
	movq	%rax, -40(%rbp)
	movq	-64(%rbp), %rax
	movq	%rax, -32(%rbp)
	movq	-56(%rbp), %rax
	movq	%rax, -24(%rbp)
Ltmp407:
	.loc	4 101 9
	movq	-40(%rbp), %rax
	movq	-112(%rbp), %rcx
	movq	%rax, (%rcx)
	movq	-32(%rbp), %rax
	movq	%rax, 8(%rcx)
	movq	-24(%rbp), %rax
	movq	%rax, 16(%rcx)
Ltmp408:
	.loc	4 0 9 is_stmt 0
	movq	-120(%rbp), %rax
	.loc	20 705 2 is_stmt 1
	addq	$128, %rsp
	popq	%rbp
	retq
Ltmp409:
Lfunc_end114:
	.cfi_endproc

	.p2align	4, 0x90
__ZN4core3ptr4read17hb34943f7f22b680dE:
Lfunc_begin115:
	.loc	20 692 0
	.cfi_startproc
	pushq	%rbp
	.cfi_def_cfa_offset 16
	.cfi_offset %rbp, -16
	movq	%rsp, %rbp
	.cfi_def_cfa_register %rbp
	subq	$160, %rsp
	movq	%rdi, %rax
	movq	%rsi, -56(%rbp)
	movq	%rsi, -128(%rbp)
	movq	%rdi, -136(%rbp)
	movq	%rax, -144(%rbp)
	leaq	-120(%rbp), %rax
	movq	%rax, -16(%rbp)
	movq	%rax, -8(%rbp)
	movq	%rax, -152(%rbp)
	movq	-128(%rbp), %rdi
	movq	-152(%rbp), %rsi
Ltmp410:
	.loc	20 702 9 prologue_end
	movl	$1, %edx
	callq	__ZN4core10intrinsics19copy_nonoverlapping17h8a091a442567d0abE
	.loc	20 703 9
	movq	-120(%rbp), %rax
	movq	%rax, -88(%rbp)
	movq	-112(%rbp), %rax
	movq	%rax, -80(%rbp)
	movq	-104(%rbp), %rax
	movq	%rax, -72(%rbp)
	movq	-96(%rbp), %rax
	movq	%rax, -64(%rbp)
Ltmp411:
	.loc	21 501 38
	movq	-88(%rbp), %rax
	movq	%rax, -48(%rbp)
	movq	-80(%rbp), %rax
	movq	%rax, -40(%rbp)
	movq	-72(%rbp), %rax
	movq	%rax, -32(%rbp)
	movq	-64(%rbp), %rax
	movq	%rax, -24(%rbp)
Ltmp412:
	.loc	4 101 9
	movq	-48(%rbp), %rax
	movq	-136(%rbp), %rcx
	movq	%rax, (%rcx)
	movq	-40(%rbp), %rax
	movq	%rax, 8(%rcx)
	movq	-32(%rbp), %rax
	movq	%rax, 16(%rcx)
	movq	-24(%rbp), %rax
	movq	%rax, 24(%rcx)
Ltmp413:
	.loc	4 0 9 is_stmt 0
	movq	-144(%rbp), %rax
	.loc	20 705 2 is_stmt 1
	addq	$160, %rsp
	popq	%rbp
	retq
Ltmp414:
Lfunc_end115:
	.cfi_endproc

	.p2align	4, 0x90
__ZN4core3ptr4read17hc8c0830615d92e8dE:
Lfunc_begin116:
	.loc	20 692 0
	.cfi_startproc
	pushq	%rbp
	.cfi_def_cfa_offset 16
	.cfi_offset %rbp, -16
	movq	%rsp, %rbp
	.cfi_def_cfa_register %rbp
	subq	$160, %rsp
	movq	%rdi, %rax
	movq	%rsi, -56(%rbp)
	movq	%rsi, -128(%rbp)
	movq	%rdi, -136(%rbp)
	movq	%rax, -144(%rbp)
	leaq	-120(%rbp), %rax
	movq	%rax, -16(%rbp)
	movq	%rax, -8(%rbp)
	movq	%rax, -152(%rbp)
	movq	-128(%rbp), %rdi
	movq	-152(%rbp), %rsi
Ltmp415:
	.loc	20 702 9 prologue_end
	movl	$1, %edx
	callq	__ZN4core10intrinsics19copy_nonoverlapping17h5673cb4aa9b64cf5E
	.loc	20 703 9
	movq	-120(%rbp), %rax
	movq	%rax, -88(%rbp)
	movq	-112(%rbp), %rax
	movq	%rax, -80(%rbp)
	movq	-104(%rbp), %rax
	movq	%rax, -72(%rbp)
	movq	-96(%rbp), %rax
	movq	%rax, -64(%rbp)
Ltmp416:
	.loc	21 501 38
	movq	-88(%rbp), %rax
	movq	%rax, -48(%rbp)
	movq	-80(%rbp), %rax
	movq	%rax, -40(%rbp)
	movq	-72(%rbp), %rax
	movq	%rax, -32(%rbp)
	movq	-64(%rbp), %rax
	movq	%rax, -24(%rbp)
Ltmp417:
	.loc	4 101 9
	movq	-48(%rbp), %rax
	movq	-136(%rbp), %rcx
	movq	%rax, (%rcx)
	movq	-40(%rbp), %rax
	movq	%rax, 8(%rcx)
	movq	-32(%rbp), %rax
	movq	%rax, 16(%rcx)
	movq	-24(%rbp), %rax
	movq	%rax, 24(%rcx)
Ltmp418:
	.loc	4 0 9 is_stmt 0
	movq	-144(%rbp), %rax
	.loc	20 705 2 is_stmt 1
	addq	$160, %rsp
	popq	%rbp
	retq
Ltmp419:
Lfunc_end116:
	.cfi_endproc

	.p2align	4, 0x90
__ZN4core3ptr4read17hd742d46718438178E:
Lfunc_begin117:
	.loc	20 692 0
	.cfi_startproc
	pushq	%rbp
	.cfi_def_cfa_offset 16
	.cfi_offset %rbp, -16
	movq	%rsp, %rbp
	.cfi_def_cfa_register %rbp
	subq	$80, %rsp
	movq	%rdi, -48(%rbp)
Ltmp420:
	.loc	21 272 6 prologue_end
	movq	-40(%rbp), %rax
Ltmp421:
	.loc	20 694 19
	movq	%rax, -56(%rbp)
	movq	%rdi, -64(%rbp)
	.loc	20 0 19 is_stmt 0
	leaq	-56(%rbp), %rax
	movq	%rax, -16(%rbp)
	movq	%rax, -8(%rbp)
	movq	-64(%rbp), %rdi
Ltmp422:
	.loc	20 702 9 is_stmt 1
	leaq	-56(%rbp), %rsi
	movl	$1, %edx
	callq	__ZN4core10intrinsics19copy_nonoverlapping17heab3ebd96218bd5aE
	.loc	20 703 9
	movq	-56(%rbp), %rax
	movq	%rax, -32(%rbp)
	movq	%rax, -24(%rbp)
	movq	%rax, -72(%rbp)
Ltmp423:
	.loc	20 0 9 is_stmt 0
	movq	-72(%rbp), %rax
	.loc	20 705 2 is_stmt 1
	addq	$80, %rsp
	popq	%rbp
	retq
Ltmp424:
Lfunc_end117:
	.cfi_endproc

	.p2align	4, 0x90
__ZN4core3ptr5write17h2f421b3266bb30d5E:
Lfunc_begin118:
	.loc	20 895 0
	.cfi_startproc
	pushq	%rbp
	.cfi_def_cfa_offset 16
	.cfi_offset %rbp, -16
	movq	%rsp, %rbp
	.cfi_def_cfa_register %rbp
	subq	$16, %rsp
	movq	%rdi, -8(%rbp)
Ltmp425:
	.loc	20 901 51 prologue_end
	movq	(%rsi), %rax
	movq	%rax, (%rdi)
	movq	8(%rsi), %rax
	movq	%rax, 8(%rdi)
	movq	16(%rsi), %rax
	movq	%rax, 16(%rdi)
	movq	24(%rsi), %rax
	movq	%rax, 24(%rdi)
	.loc	20 902 2
	addq	$16, %rsp
	popq	%rbp
	retq
Ltmp426:
Lfunc_end118:
	.cfi_endproc

	.p2align	4, 0x90
__ZN4core3ptr5write17h89f2c8ec45ad48c6E:
Lfunc_begin119:
	.loc	20 895 0
	.cfi_startproc
	pushq	%rbp
	.cfi_def_cfa_offset 16
	.cfi_offset %rbp, -16
	movq	%rsp, %rbp
	.cfi_def_cfa_register %rbp
	subq	$24, %rsp
	movq	%rdi, -16(%rbp)
	movq	%rsi, -8(%rbp)
Ltmp427:
	.loc	20 901 51 prologue_end
	movq	%rsi, (%rdi)
	.loc	20 902 2
	addq	$24, %rsp
	popq	%rbp
	retq
Ltmp428:
Lfunc_end119:
	.cfi_endproc

	.p2align	4, 0x90
__ZN4core3ptr5write17he2cf52d899f158a0E:
Lfunc_begin120:
	.loc	20 895 0
	.cfi_startproc
	pushq	%rbp
	.cfi_def_cfa_offset 16
	.cfi_offset %rbp, -16
	movq	%rsp, %rbp
	.cfi_def_cfa_register %rbp
	subq	$32, %rsp
	movq	%rdi, -24(%rbp)
	movq	%rsi, -16(%rbp)
	movq	%rdx, -8(%rbp)
Ltmp429:
	.loc	20 901 51 prologue_end
	movq	%rsi, (%rdi)
	movq	%rdx, 8(%rdi)
	.loc	20 902 2
	addq	$32, %rsp
	popq	%rbp
	retq
Ltmp430:
Lfunc_end120:
	.cfi_endproc

	.p2align	4, 0x90
__ZN4core3ptr6unique15Unique$LT$T$GT$13new_unchecked17he12f2238090f3958E:
Lfunc_begin121:
	.file	22 "/rustc/6c8927b0cf80ceee19386026cf9d7fd4fd9d486f/src/libcore/ptr/unique.rs"
	.loc	22 89 0
	.cfi_startproc
	pushq	%rbp
	.cfi_def_cfa_offset 16
	.cfi_offset %rbp, -16
	movq	%rsp, %rbp
	.cfi_def_cfa_register %rbp
	subq	$24, %rsp
	movq	%rdi, -8(%rbp)
Ltmp431:
	.loc	22 91 18 prologue_end
	movq	%rdi, -24(%rbp)
	.loc	22 92 6
	movq	-24(%rbp), %rax
	addq	$24, %rsp
	popq	%rbp
	retq
Ltmp432:
Lfunc_end121:
	.cfi_endproc

	.p2align	4, 0x90
__ZN4core3ptr6unique15Unique$LT$T$GT$4cast17h026874bc164835a3E:
Lfunc_begin122:
	.loc	22 137 0
	.cfi_startproc
	pushq	%rbp
	.cfi_def_cfa_offset 16
	.cfi_offset %rbp, -16
	movq	%rsp, %rbp
	.cfi_def_cfa_register %rbp
	subq	$32, %rsp
	movq	%rdi, -8(%rbp)
Ltmp433:
	.loc	22 141 40 prologue_end
	callq	__ZN4core3ptr6unique15Unique$LT$T$GT$6as_ptr17h517f5e4c2cbff95aE
	movq	%rax, -16(%rbp)
	.loc	22 0 40 is_stmt 0
	movq	-16(%rbp), %rax
	.loc	22 141 18
	movq	%rax, %rdi
	callq	__ZN4core3ptr6unique15Unique$LT$T$GT$13new_unchecked17he12f2238090f3958E
	movq	%rax, -24(%rbp)
	.loc	22 0 18
	movq	-24(%rbp), %rax
	.loc	22 142 6 is_stmt 1
	addq	$32, %rsp
	popq	%rbp
	retq
Ltmp434:
Lfunc_end122:
	.cfi_endproc

	.p2align	4, 0x90
__ZN4core3ptr6unique15Unique$LT$T$GT$4cast17h1998bf12cc61d94aE:
Lfunc_begin123:
	.loc	22 137 0
	.cfi_startproc
	pushq	%rbp
	.cfi_def_cfa_offset 16
	.cfi_offset %rbp, -16
	movq	%rsp, %rbp
	.cfi_def_cfa_register %rbp
	subq	$32, %rsp
	movq	%rdi, -8(%rbp)
Ltmp435:
	.loc	22 141 40 prologue_end
	callq	__ZN4core3ptr6unique15Unique$LT$T$GT$6as_ptr17h7487bbee54ede9e0E
	movq	%rax, -16(%rbp)
	.loc	22 0 40 is_stmt 0
	movq	-16(%rbp), %rax
	.loc	22 141 18
	movq	%rax, %rdi
	callq	__ZN4core3ptr6unique15Unique$LT$T$GT$13new_unchecked17he12f2238090f3958E
	movq	%rax, -24(%rbp)
	.loc	22 0 18
	movq	-24(%rbp), %rax
	.loc	22 142 6 is_stmt 1
	addq	$32, %rsp
	popq	%rbp
	retq
Ltmp436:
Lfunc_end123:
	.cfi_endproc

	.p2align	4, 0x90
__ZN4core3ptr6unique15Unique$LT$T$GT$4cast17h253b2d9e97971c3bE:
Lfunc_begin124:
	.loc	22 137 0
	.cfi_startproc
	pushq	%rbp
	.cfi_def_cfa_offset 16
	.cfi_offset %rbp, -16
	movq	%rsp, %rbp
	.cfi_def_cfa_register %rbp
	subq	$32, %rsp
	movq	%rdi, -8(%rbp)
Ltmp437:
	.loc	22 141 40 prologue_end
	callq	__ZN4core3ptr6unique15Unique$LT$T$GT$6as_ptr17hd52b6df0a9b6452aE
	movq	%rax, -16(%rbp)
	.loc	22 0 40 is_stmt 0
	movq	-16(%rbp), %rdi
	.loc	22 141 18
	callq	__ZN4core3ptr6unique15Unique$LT$T$GT$13new_unchecked17he12f2238090f3958E
	movq	%rax, -24(%rbp)
	.loc	22 0 18
	movq	-24(%rbp), %rax
	.loc	22 142 6 is_stmt 1
	addq	$32, %rsp
	popq	%rbp
	retq
Ltmp438:
Lfunc_end124:
	.cfi_endproc

	.p2align	4, 0x90
__ZN4core3ptr6unique15Unique$LT$T$GT$4cast17h42ed6d523863dd3bE:
Lfunc_begin125:
	.loc	22 137 0
	.cfi_startproc
	pushq	%rbp
	.cfi_def_cfa_offset 16
	.cfi_offset %rbp, -16
	movq	%rsp, %rbp
	.cfi_def_cfa_register %rbp
	subq	$32, %rsp
	movq	%rdi, -8(%rbp)
Ltmp439:
	.loc	22 141 40 prologue_end
	callq	__ZN4core3ptr6unique15Unique$LT$T$GT$6as_ptr17ha0121eb15ec985faE
	movq	%rax, -16(%rbp)
	.loc	22 0 40 is_stmt 0
	movq	-16(%rbp), %rax
	.loc	22 141 18
	movq	%rax, %rdi
	callq	__ZN4core3ptr6unique15Unique$LT$T$GT$13new_unchecked17he12f2238090f3958E
	movq	%rax, -24(%rbp)
	.loc	22 0 18
	movq	-24(%rbp), %rax
	.loc	22 142 6 is_stmt 1
	addq	$32, %rsp
	popq	%rbp
	retq
Ltmp440:
Lfunc_end125:
	.cfi_endproc

	.p2align	4, 0x90
__ZN4core3ptr6unique15Unique$LT$T$GT$4cast17h80496875d94d8068E:
Lfunc_begin126:
	.loc	22 137 0
	.cfi_startproc
	pushq	%rbp
	.cfi_def_cfa_offset 16
	.cfi_offset %rbp, -16
	movq	%rsp, %rbp
	.cfi_def_cfa_register %rbp
	subq	$32, %rsp
	movq	%rdi, -8(%rbp)
Ltmp441:
	.loc	22 141 40 prologue_end
	callq	__ZN4core3ptr6unique15Unique$LT$T$GT$6as_ptr17h83cb5f0e3ea295e6E
	movq	%rax, -16(%rbp)
	.loc	22 0 40 is_stmt 0
	movq	-16(%rbp), %rax
	.loc	22 141 18
	movq	%rax, %rdi
	callq	__ZN4core3ptr6unique15Unique$LT$T$GT$13new_unchecked17he12f2238090f3958E
	movq	%rax, -24(%rbp)
	.loc	22 0 18
	movq	-24(%rbp), %rax
	.loc	22 142 6 is_stmt 1
	addq	$32, %rsp
	popq	%rbp
	retq
Ltmp442:
Lfunc_end126:
	.cfi_endproc

	.p2align	4, 0x90
__ZN4core3ptr6unique15Unique$LT$T$GT$4cast17h87f9113cc035ce9fE:
Lfunc_begin127:
	.loc	22 137 0
	.cfi_startproc
	pushq	%rbp
	.cfi_def_cfa_offset 16
	.cfi_offset %rbp, -16
	movq	%rsp, %rbp
	.cfi_def_cfa_register %rbp
	subq	$32, %rsp
	movq	%rdi, -16(%rbp)
	movq	%rsi, -8(%rbp)
Ltmp443:
	.loc	22 141 40 prologue_end
	callq	__ZN4core3ptr6unique15Unique$LT$T$GT$6as_ptr17ha44b17fb286c4a1bE
	movq	%rax, -24(%rbp)
	.loc	22 0 40 is_stmt 0
	movq	-24(%rbp), %rax
	.loc	22 141 18
	movq	%rax, %rdi
	callq	__ZN4core3ptr6unique15Unique$LT$T$GT$13new_unchecked17he12f2238090f3958E
	movq	%rax, -32(%rbp)
	.loc	22 0 18
	movq	-32(%rbp), %rax
	.loc	22 142 6 is_stmt 1
	addq	$32, %rsp
	popq	%rbp
	retq
Ltmp444:
Lfunc_end127:
	.cfi_endproc

	.p2align	4, 0x90
__ZN4core3ptr6unique15Unique$LT$T$GT$4cast17he6567ab75c7b0353E:
Lfunc_begin128:
	.loc	22 137 0
	.cfi_startproc
	pushq	%rbp
	.cfi_def_cfa_offset 16
	.cfi_offset %rbp, -16
	movq	%rsp, %rbp
	.cfi_def_cfa_register %rbp
	subq	$32, %rsp
	movq	%rdi, -16(%rbp)
	movq	%rsi, -8(%rbp)
Ltmp445:
	.loc	22 141 40 prologue_end
	callq	__ZN4core3ptr6unique15Unique$LT$T$GT$6as_ptr17h128212531ea8fdceE
	movq	%rax, -24(%rbp)
	.loc	22 0 40 is_stmt 0
	movq	-24(%rbp), %rax
	.loc	22 141 18
	movq	%rax, %rdi
	callq	__ZN4core3ptr6unique15Unique$LT$T$GT$13new_unchecked17he12f2238090f3958E
	movq	%rax, -32(%rbp)
	.loc	22 0 18
	movq	-32(%rbp), %rax
	.loc	22 142 6 is_stmt 1
	addq	$32, %rsp
	popq	%rbp
	retq
Ltmp446:
Lfunc_end128:
	.cfi_endproc

	.p2align	4, 0x90
__ZN4core3ptr6unique15Unique$LT$T$GT$4cast17hf2ad424ededbcf3eE:
Lfunc_begin129:
	.loc	22 137 0
	.cfi_startproc
	pushq	%rbp
	.cfi_def_cfa_offset 16
	.cfi_offset %rbp, -16
	movq	%rsp, %rbp
	.cfi_def_cfa_register %rbp
	subq	$32, %rsp
	movq	%rdi, -16(%rbp)
	movq	%rsi, -8(%rbp)
Ltmp447:
	.loc	22 141 40 prologue_end
	callq	__ZN4core3ptr6unique15Unique$LT$T$GT$6as_ptr17he19ffed5fc34067fE
	movq	%rax, -24(%rbp)
	.loc	22 0 40 is_stmt 0
	movq	-24(%rbp), %rax
	.loc	22 141 18
	movq	%rax, %rdi
	callq	__ZN4core3ptr6unique15Unique$LT$T$GT$13new_unchecked17he12f2238090f3958E
	movq	%rax, -32(%rbp)
	.loc	22 0 18
	movq	-32(%rbp), %rax
	.loc	22 142 6 is_stmt 1
	addq	$32, %rsp
	popq	%rbp
	retq
Ltmp448:
Lfunc_end129:
	.cfi_endproc

	.p2align	4, 0x90
__ZN4core3ptr6unique15Unique$LT$T$GT$6as_ptr17h128212531ea8fdceE:
Lfunc_begin130:
	.loc	22 107 0
	.cfi_startproc
	pushq	%rbp
	.cfi_def_cfa_offset 16
	.cfi_offset %rbp, -16
	movq	%rsp, %rbp
	.cfi_def_cfa_register %rbp
	subq	$16, %rsp
	movq	%rdi, -16(%rbp)
	movq	%rsi, -8(%rbp)
Ltmp449:
	.loc	22 109 6 prologue_end
	movq	%rdi, %rax
	movq	%rsi, %rdx
	addq	$16, %rsp
	popq	%rbp
	retq
Ltmp450:
Lfunc_end130:
	.cfi_endproc

	.p2align	4, 0x90
__ZN4core3ptr6unique15Unique$LT$T$GT$6as_ptr17h517f5e4c2cbff95aE:
Lfunc_begin131:
	.loc	22 107 0
	.cfi_startproc
	pushq	%rbp
	.cfi_def_cfa_offset 16
	.cfi_offset %rbp, -16
	movq	%rsp, %rbp
	.cfi_def_cfa_register %rbp
	pushq	%rax
	movq	%rdi, -8(%rbp)
Ltmp451:
	.loc	22 109 6 prologue_end
	movq	%rdi, %rax
	addq	$8, %rsp
	popq	%rbp
	retq
Ltmp452:
Lfunc_end131:
	.cfi_endproc

	.p2align	4, 0x90
__ZN4core3ptr6unique15Unique$LT$T$GT$6as_ptr17h620817ae0a991daeE:
Lfunc_begin132:
	.loc	22 107 0
	.cfi_startproc
	pushq	%rbp
	.cfi_def_cfa_offset 16
	.cfi_offset %rbp, -16
	movq	%rsp, %rbp
	.cfi_def_cfa_register %rbp
	pushq	%rax
	movq	%rdi, -8(%rbp)
Ltmp453:
	.loc	22 109 6 prologue_end
	movq	%rdi, %rax
	addq	$8, %rsp
	popq	%rbp
	retq
Ltmp454:
Lfunc_end132:
	.cfi_endproc

	.p2align	4, 0x90
__ZN4core3ptr6unique15Unique$LT$T$GT$6as_ptr17h7487bbee54ede9e0E:
Lfunc_begin133:
	.loc	22 107 0
	.cfi_startproc
	pushq	%rbp
	.cfi_def_cfa_offset 16
	.cfi_offset %rbp, -16
	movq	%rsp, %rbp
	.cfi_def_cfa_register %rbp
	pushq	%rax
	movq	%rdi, -8(%rbp)
Ltmp455:
	.loc	22 109 6 prologue_end
	movq	%rdi, %rax
	addq	$8, %rsp
	popq	%rbp
	retq
Ltmp456:
Lfunc_end133:
	.cfi_endproc

	.p2align	4, 0x90
__ZN4core3ptr6unique15Unique$LT$T$GT$6as_ptr17h83cb5f0e3ea295e6E:
Lfunc_begin134:
	.loc	22 107 0
	.cfi_startproc
	pushq	%rbp
	.cfi_def_cfa_offset 16
	.cfi_offset %rbp, -16
	movq	%rsp, %rbp
	.cfi_def_cfa_register %rbp
	pushq	%rax
	movq	%rdi, -8(%rbp)
Ltmp457:
	.loc	22 109 6 prologue_end
	movq	%rdi, %rax
	addq	$8, %rsp
	popq	%rbp
	retq
Ltmp458:
Lfunc_end134:
	.cfi_endproc

	.p2align	4, 0x90
__ZN4core3ptr6unique15Unique$LT$T$GT$6as_ptr17ha0121eb15ec985faE:
Lfunc_begin135:
	.loc	22 107 0
	.cfi_startproc
	pushq	%rbp
	.cfi_def_cfa_offset 16
	.cfi_offset %rbp, -16
	movq	%rsp, %rbp
	.cfi_def_cfa_register %rbp
	pushq	%rax
	movq	%rdi, -8(%rbp)
Ltmp459:
	.loc	22 109 6 prologue_end
	movq	%rdi, %rax
	addq	$8, %rsp
	popq	%rbp
	retq
Ltmp460:
Lfunc_end135:
	.cfi_endproc

	.p2align	4, 0x90
__ZN4core3ptr6unique15Unique$LT$T$GT$6as_ptr17ha44b17fb286c4a1bE:
Lfunc_begin136:
	.loc	22 107 0
	.cfi_startproc
	pushq	%rbp
	.cfi_def_cfa_offset 16
	.cfi_offset %rbp, -16
	movq	%rsp, %rbp
	.cfi_def_cfa_register %rbp
	subq	$16, %rsp
	movq	%rdi, -16(%rbp)
	movq	%rsi, -8(%rbp)
Ltmp461:
	.loc	22 109 6 prologue_end
	movq	%rdi, %rax
	movq	%rsi, %rdx
	addq	$16, %rsp
	popq	%rbp
	retq
Ltmp462:
Lfunc_end136:
	.cfi_endproc

	.p2align	4, 0x90
__ZN4core3ptr6unique15Unique$LT$T$GT$6as_ptr17hd52b6df0a9b6452aE:
Lfunc_begin137:
	.loc	22 107 0
	.cfi_startproc
	pushq	%rbp
	.cfi_def_cfa_offset 16
	.cfi_offset %rbp, -16
	movq	%rsp, %rbp
	.cfi_def_cfa_register %rbp
	pushq	%rax
	movq	%rdi, -8(%rbp)
Ltmp463:
	.loc	22 109 6 prologue_end
	movq	%rdi, %rax
	addq	$8, %rsp
	popq	%rbp
	retq
Ltmp464:
Lfunc_end137:
	.cfi_endproc

	.p2align	4, 0x90
__ZN4core3ptr6unique15Unique$LT$T$GT$6as_ptr17he19ffed5fc34067fE:
Lfunc_begin138:
	.loc	22 107 0
	.cfi_startproc
	pushq	%rbp
	.cfi_def_cfa_offset 16
	.cfi_offset %rbp, -16
	movq	%rsp, %rbp
	.cfi_def_cfa_register %rbp
	subq	$16, %rsp
	movq	%rdi, -16(%rbp)
	movq	%rsi, -8(%rbp)
Ltmp465:
	.loc	22 109 6 prologue_end
	movq	%rdi, %rax
	movq	%rsi, %rdx
	addq	$16, %rsp
	popq	%rbp
	retq
Ltmp466:
Lfunc_end138:
	.cfi_endproc

	.p2align	4, 0x90
__ZN4core3ptr6unique15Unique$LT$T$GT$6as_ref17h20fac8b0044fe759E:
Lfunc_begin139:
	.loc	22 117 0
	.cfi_startproc
	pushq	%rbp
	.cfi_def_cfa_offset 16
	.cfi_offset %rbp, -16
	movq	%rsp, %rbp
	.cfi_def_cfa_register %rbp
	subq	$16, %rsp
	movq	%rdi, -8(%rbp)
Ltmp467:
	.loc	22 120 20 prologue_end
	movq	(%rdi), %rdi
	callq	__ZN4core3ptr6unique15Unique$LT$T$GT$6as_ptr17ha0121eb15ec985faE
	movq	%rax, -16(%rbp)
	.loc	22 0 20 is_stmt 0
	movq	-16(%rbp), %rax
	.loc	22 121 6 is_stmt 1
	addq	$16, %rsp
	popq	%rbp
	retq
Ltmp468:
Lfunc_end139:
	.cfi_endproc

	.p2align	4, 0x90
__ZN4core3ptr6unique15Unique$LT$T$GT$6as_ref17h539c97b82b948a9eE:
Lfunc_begin140:
	.loc	22 117 0
	.cfi_startproc
	pushq	%rbp
	.cfi_def_cfa_offset 16
	.cfi_offset %rbp, -16
	movq	%rsp, %rbp
	.cfi_def_cfa_register %rbp
	subq	$32, %rsp
	movq	%rdi, -8(%rbp)
Ltmp469:
	.loc	22 120 20 prologue_end
	movq	(%rdi), %rax
	movq	8(%rdi), %rsi
	movq	%rax, %rdi
	callq	__ZN4core3ptr6unique15Unique$LT$T$GT$6as_ptr17h128212531ea8fdceE
	movq	%rax, -16(%rbp)
	movq	%rdx, -24(%rbp)
	.loc	22 0 20 is_stmt 0
	movq	-16(%rbp), %rax
	movq	-24(%rbp), %rdx
	.loc	22 121 6 is_stmt 1
	addq	$32, %rsp
	popq	%rbp
	retq
Ltmp470:
Lfunc_end140:
	.cfi_endproc

	.p2align	4, 0x90
__ZN4core3ptr6unique15Unique$LT$T$GT$6as_ref17h788f7eb945ef89d9E:
Lfunc_begin141:
	.loc	22 117 0
	.cfi_startproc
	pushq	%rbp
	.cfi_def_cfa_offset 16
	.cfi_offset %rbp, -16
	movq	%rsp, %rbp
	.cfi_def_cfa_register %rbp
	subq	$32, %rsp
	movq	%rdi, -8(%rbp)
Ltmp471:
	.loc	22 120 20 prologue_end
	movq	(%rdi), %rax
	movq	8(%rdi), %rsi
	movq	%rax, %rdi
	callq	__ZN4core3ptr6unique15Unique$LT$T$GT$6as_ptr17ha44b17fb286c4a1bE
	movq	%rax, -16(%rbp)
	movq	%rdx, -24(%rbp)
	.loc	22 0 20 is_stmt 0
	movq	-16(%rbp), %rax
	movq	-24(%rbp), %rdx
	.loc	22 121 6 is_stmt 1
	addq	$32, %rsp
	popq	%rbp
	retq
Ltmp472:
Lfunc_end141:
	.cfi_endproc

	.p2align	4, 0x90
__ZN4core3ptr6unique15Unique$LT$T$GT$6as_ref17hacfc94b35d85e463E:
Lfunc_begin142:
	.loc	22 117 0
	.cfi_startproc
	pushq	%rbp
	.cfi_def_cfa_offset 16
	.cfi_offset %rbp, -16
	movq	%rsp, %rbp
	.cfi_def_cfa_register %rbp
	subq	$32, %rsp
	movq	%rdi, -8(%rbp)
Ltmp473:
	.loc	22 120 20 prologue_end
	movq	(%rdi), %rax
	movq	8(%rdi), %rsi
	movq	%rax, %rdi
	callq	__ZN4core3ptr6unique15Unique$LT$T$GT$6as_ptr17he19ffed5fc34067fE
	movq	%rax, -16(%rbp)
	movq	%rdx, -24(%rbp)
	.loc	22 0 20 is_stmt 0
	movq	-16(%rbp), %rax
	movq	-24(%rbp), %rdx
	.loc	22 121 6 is_stmt 1
	addq	$32, %rsp
	popq	%rbp
	retq
Ltmp474:
Lfunc_end142:
	.cfi_endproc

	.p2align	4, 0x90
__ZN4core3ptr7mut_ptr31_$LT$impl$u20$$BP$mut$u20$T$GT$3add17h33f846631b086219E:
Lfunc_begin143:
	.file	23 "/rustc/6c8927b0cf80ceee19386026cf9d7fd4fd9d486f/src/libcore/ptr/mut_ptr.rs"
	.loc	23 529 0
	.cfi_startproc
	pushq	%rbp
	.cfi_def_cfa_offset 16
	.cfi_offset %rbp, -16
	movq	%rsp, %rbp
	.cfi_def_cfa_register %rbp
	subq	$32, %rsp
	movq	%rdi, -16(%rbp)
	movq	%rsi, -8(%rbp)
Ltmp475:
	.loc	23 534 18 prologue_end
	callq	__ZN4core3ptr7mut_ptr31_$LT$impl$u20$$BP$mut$u20$T$GT$6offset17h7415916b783c67ecE
	movq	%rax, -24(%rbp)
	.loc	23 0 18 is_stmt 0
	movq	-24(%rbp), %rax
	.loc	23 535 6 is_stmt 1
	addq	$32, %rsp
	popq	%rbp
	retq
Ltmp476:
Lfunc_end143:
	.cfi_endproc

	.p2align	4, 0x90
__ZN4core3ptr7mut_ptr31_$LT$impl$u20$$BP$mut$u20$T$GT$6offset17h7415916b783c67ecE:
Lfunc_begin144:
	.loc	23 158 0
	.cfi_startproc
	pushq	%rbp
	.cfi_def_cfa_offset 16
	.cfi_offset %rbp, -16
	movq	%rsp, %rbp
	.cfi_def_cfa_register %rbp
	subq	$32, %rsp
	movq	%rdi, -24(%rbp)
	movq	%rsi, -16(%rbp)
Ltmp477:
	.loc	23 165 18 prologue_end
	addq	%rsi, %rdi
	movq	%rdi, -8(%rbp)
	movq	-8(%rbp), %rax
	movq	%rax, -32(%rbp)
	.loc	23 0 18 is_stmt 0
	movq	-32(%rbp), %rax
	.loc	23 166 6 is_stmt 1
	addq	$32, %rsp
	popq	%rbp
	retq
Ltmp478:
Lfunc_end144:
	.cfi_endproc

	.p2align	4, 0x90
__ZN4core3ptr7mut_ptr31_$LT$impl$u20$$BP$mut$u20$T$GT$7is_null17h1cc4e5b4f3df5f4cE:
Lfunc_begin145:
	.loc	23 26 0
	.cfi_startproc
	pushq	%rbp
	.cfi_def_cfa_offset 16
	.cfi_offset %rbp, -16
	movq	%rsp, %rbp
	.cfi_def_cfa_register %rbp
	subq	$16, %rsp
	movq	%rdi, -8(%rbp)
	movq	%rdi, -16(%rbp)
	movq	-16(%rbp), %rax
Ltmp479:
	.loc	23 29 9 prologue_end
	cmpq	$0, %rax
	sete	%cl
	.loc	23 30 6
	andb	$1, %cl
	movzbl	%cl, %edx
	movl	%edx, %eax
	addq	$16, %rsp
	popq	%rbp
	retq
Ltmp480:
Lfunc_end145:
	.cfi_endproc

	.p2align	4, 0x90
__ZN4core3ptr7mut_ptr31_$LT$impl$u20$$BP$mut$u20$T$GT$7is_null17h5ab1080e112b5a1fE:
Lfunc_begin146:
	.loc	23 26 0
	.cfi_startproc
	pushq	%rbp
	.cfi_def_cfa_offset 16
	.cfi_offset %rbp, -16
	movq	%rsp, %rbp
	.cfi_def_cfa_register %rbp
	subq	$16, %rsp
	movq	%rdi, -8(%rbp)
	movq	%rdi, -16(%rbp)
	movq	-16(%rbp), %rax
Ltmp481:
	.loc	23 29 9 prologue_end
	cmpq	$0, %rax
	sete	%cl
	.loc	23 30 6
	andb	$1, %cl
	movzbl	%cl, %edx
	movl	%edx, %eax
	addq	$16, %rsp
	popq	%rbp
	retq
Ltmp482:
Lfunc_end146:
	.cfi_endproc

	.p2align	4, 0x90
__ZN4core3ptr7mut_ptr31_$LT$impl$u20$$BP$mut$u20$T$GT$7is_null17h68bff2df6f025cddE:
Lfunc_begin147:
	.loc	23 26 0
	.cfi_startproc
	pushq	%rbp
	.cfi_def_cfa_offset 16
	.cfi_offset %rbp, -16
	movq	%rsp, %rbp
	.cfi_def_cfa_register %rbp
	subq	$16, %rsp
	movq	%rdi, -8(%rbp)
	movq	%rdi, -16(%rbp)
	movq	-16(%rbp), %rax
Ltmp483:
	.loc	23 29 9 prologue_end
	cmpq	$0, %rax
	sete	%cl
	.loc	23 30 6
	andb	$1, %cl
	movzbl	%cl, %edx
	movl	%edx, %eax
	addq	$16, %rsp
	popq	%rbp
	retq
Ltmp484:
Lfunc_end147:
	.cfi_endproc

	.p2align	4, 0x90
__ZN4core3ptr7mut_ptr31_$LT$impl$u20$$BP$mut$u20$T$GT$7is_null17hac02fc99a96de730E:
Lfunc_begin148:
	.loc	23 26 0
	.cfi_startproc
	pushq	%rbp
	.cfi_def_cfa_offset 16
	.cfi_offset %rbp, -16
	movq	%rsp, %rbp
	.cfi_def_cfa_register %rbp
	subq	$16, %rsp
	movq	%rdi, -8(%rbp)
	movq	%rdi, -16(%rbp)
	movq	-16(%rbp), %rax
Ltmp485:
	.loc	23 29 9 prologue_end
	cmpq	$0, %rax
	sete	%cl
	.loc	23 30 6
	andb	$1, %cl
	movzbl	%cl, %edx
	movl	%edx, %eax
	addq	$16, %rsp
	popq	%rbp
	retq
Ltmp486:
Lfunc_end148:
	.cfi_endproc

	.p2align	4, 0x90
__ZN4core3ptr7mut_ptr31_$LT$impl$u20$$BP$mut$u20$T$GT$7is_null17hb8d292df495fa65eE:
Lfunc_begin149:
	.loc	23 26 0
	.cfi_startproc
	pushq	%rbp
	.cfi_def_cfa_offset 16
	.cfi_offset %rbp, -16
	movq	%rsp, %rbp
	.cfi_def_cfa_register %rbp
	subq	$16, %rsp
	movq	%rdi, -8(%rbp)
	movq	%rdi, -16(%rbp)
	movq	-16(%rbp), %rax
Ltmp487:
	.loc	23 29 9 prologue_end
	cmpq	$0, %rax
	sete	%cl
	.loc	23 30 6
	andb	$1, %cl
	movzbl	%cl, %edx
	movl	%edx, %eax
	addq	$16, %rsp
	popq	%rbp
	retq
Ltmp488:
Lfunc_end149:
	.cfi_endproc

	.p2align	4, 0x90
__ZN4core3ptr7mut_ptr41_$LT$impl$u20$$BP$mut$u20$$u5b$T$u5d$$GT$10as_mut_ptr17h9bb303e9805b6d2fE:
Lfunc_begin150:
	.loc	23 1051 0
	.cfi_startproc
	pushq	%rbp
	.cfi_def_cfa_offset 16
	.cfi_offset %rbp, -16
	movq	%rsp, %rbp
	.cfi_def_cfa_register %rbp
	subq	$16, %rsp
	movq	%rdi, -16(%rbp)
	movq	%rsi, -8(%rbp)
Ltmp489:
	.loc	23 1053 6 prologue_end
	movq	%rdi, %rax
	addq	$16, %rsp
	popq	%rbp
	retq
Ltmp490:
Lfunc_end150:
	.cfi_endproc

	.p2align	4, 0x90
__ZN4core3ptr8non_null16NonNull$LT$T$GT$13new_unchecked17h301bf81fecaf6e3eE:
Lfunc_begin151:
	.loc	5 90 0
	.cfi_startproc
	pushq	%rbp
	.cfi_def_cfa_offset 16
	.cfi_offset %rbp, -16
	movq	%rsp, %rbp
	.cfi_def_cfa_register %rbp
	subq	$16, %rsp
	movq	%rdi, -8(%rbp)
Ltmp491:
	.loc	5 92 18 prologue_end
	movq	%rdi, -16(%rbp)
	.loc	5 93 6
	movq	-16(%rbp), %rax
	addq	$16, %rsp
	popq	%rbp
	retq
Ltmp492:
Lfunc_end151:
	.cfi_endproc

	.p2align	4, 0x90
__ZN4core3ptr8non_null16NonNull$LT$T$GT$13new_unchecked17he8d2af0860a6e051E:
Lfunc_begin152:
	.loc	5 90 0
	.cfi_startproc
	pushq	%rbp
	.cfi_def_cfa_offset 16
	.cfi_offset %rbp, -16
	movq	%rsp, %rbp
	.cfi_def_cfa_register %rbp
	subq	$16, %rsp
	movq	%rdi, -8(%rbp)
Ltmp493:
	.loc	5 92 18 prologue_end
	movq	%rdi, -16(%rbp)
	.loc	5 93 6
	movq	-16(%rbp), %rax
	addq	$16, %rsp
	popq	%rbp
	retq
Ltmp494:
Lfunc_end152:
	.cfi_endproc

	.p2align	4, 0x90
__ZN4core3ptr8non_null16NonNull$LT$T$GT$3new17he067d867427205acE:
Lfunc_begin153:
	.loc	5 98 0
	.cfi_startproc
	pushq	%rbp
	.cfi_def_cfa_offset 16
	.cfi_offset %rbp, -16
	movq	%rsp, %rbp
	.cfi_def_cfa_register %rbp
	subq	$48, %rsp
	movq	%rdi, -8(%rbp)
	movq	%rdi, -24(%rbp)
Ltmp495:
	.loc	5 99 13 prologue_end
	callq	__ZN4core3ptr7mut_ptr31_$LT$impl$u20$$BP$mut$u20$T$GT$7is_null17h1cc4e5b4f3df5f4cE
	movb	%al, -25(%rbp)
	.loc	5 0 13 is_stmt 0
	movb	-25(%rbp), %al
	.loc	5 99 12
	xorb	$-1, %al
	.loc	5 99 9
	testb	$1, %al
	jne	LBB153_3
	.loc	5 103 13 is_stmt 1
	movq	$0, -16(%rbp)
	.loc	5 99 9
	jmp	LBB153_5
LBB153_3:
	.loc	5 0 9 is_stmt 0
	movq	-24(%rbp), %rdi
	.loc	5 101 27 is_stmt 1
	callq	__ZN4core3ptr8non_null16NonNull$LT$T$GT$13new_unchecked17h301bf81fecaf6e3eE
	movq	%rax, -40(%rbp)
	.loc	5 0 27 is_stmt 0
	movq	-40(%rbp), %rax
	.loc	5 101 13
	movq	%rax, -16(%rbp)
LBB153_5:
	.loc	5 105 6 is_stmt 1
	movq	-16(%rbp), %rax
	addq	$48, %rsp
	popq	%rbp
	retq
Ltmp496:
Lfunc_end153:
	.cfi_endproc

	.p2align	4, 0x90
__ZN4core3ptr8non_null16NonNull$LT$T$GT$4cast17hf96656fd2353b522E:
Lfunc_begin154:
	.loc	5 145 0
	.cfi_startproc
	pushq	%rbp
	.cfi_def_cfa_offset 16
	.cfi_offset %rbp, -16
	movq	%rsp, %rbp
	.cfi_def_cfa_register %rbp
	subq	$32, %rsp
	movq	%rdi, -8(%rbp)
Ltmp497:
	.loc	5 147 41 prologue_end
	callq	__ZN4core3ptr8non_null16NonNull$LT$T$GT$6as_ptr17hb68179d07a70bb2fE
	movq	%rax, -16(%rbp)
	.loc	5 0 41 is_stmt 0
	movq	-16(%rbp), %rax
	.loc	5 147 18
	movq	%rax, %rdi
	callq	__ZN4core3ptr8non_null16NonNull$LT$T$GT$13new_unchecked17he8d2af0860a6e051E
	movq	%rax, -24(%rbp)
	.loc	5 0 18
	movq	-24(%rbp), %rax
	.loc	5 148 6 is_stmt 1
	addq	$32, %rsp
	popq	%rbp
	retq
Ltmp498:
Lfunc_end154:
	.cfi_endproc

	.p2align	4, 0x90
__ZN4core3ptr8non_null16NonNull$LT$T$GT$6as_ptr17h6a6923d63484dd85E:
Lfunc_begin155:
	.loc	5 111 0
	.cfi_startproc
	pushq	%rbp
	.cfi_def_cfa_offset 16
	.cfi_offset %rbp, -16
	movq	%rsp, %rbp
	.cfi_def_cfa_register %rbp
	pushq	%rax
	movq	%rdi, -8(%rbp)
Ltmp499:
	.loc	5 113 6 prologue_end
	movq	%rdi, %rax
	addq	$8, %rsp
	popq	%rbp
	retq
Ltmp500:
Lfunc_end155:
	.cfi_endproc

	.p2align	4, 0x90
__ZN4core3ptr8non_null16NonNull$LT$T$GT$6as_ptr17hb68179d07a70bb2fE:
Lfunc_begin156:
	.loc	5 111 0
	.cfi_startproc
	pushq	%rbp
	.cfi_def_cfa_offset 16
	.cfi_offset %rbp, -16
	movq	%rsp, %rbp
	.cfi_def_cfa_register %rbp
	pushq	%rax
	movq	%rdi, -8(%rbp)
Ltmp501:
	.loc	5 113 6 prologue_end
	movq	%rdi, %rax
	addq	$8, %rsp
	popq	%rbp
	retq
Ltmp502:
Lfunc_end156:
	.cfi_endproc

	.p2align	4, 0x90
__ZN4core3ptr8non_null16NonNull$LT$T$GT$6as_ref17h70426ec32e395d64E:
Lfunc_begin157:
	.loc	5 122 0
	.cfi_startproc
	pushq	%rbp
	.cfi_def_cfa_offset 16
	.cfi_offset %rbp, -16
	movq	%rsp, %rbp
	.cfi_def_cfa_register %rbp
	subq	$16, %rsp
	movq	%rdi, -8(%rbp)
Ltmp503:
	.loc	5 125 20 prologue_end
	movq	(%rdi), %rdi
	callq	__ZN4core3ptr8non_null16NonNull$LT$T$GT$6as_ptr17hb68179d07a70bb2fE
	movq	%rax, -16(%rbp)
	.loc	5 0 20 is_stmt 0
	movq	-16(%rbp), %rax
	.loc	5 126 6 is_stmt 1
	addq	$16, %rsp
	popq	%rbp
	retq
Ltmp504:
Lfunc_end157:
	.cfi_endproc

	.p2align	4, 0x90
__ZN4core3ptr9const_ptr33_$LT$impl$u20$$BP$const$u20$T$GT$12wrapping_add17ha39925b7032194f0E:
Lfunc_begin158:
	.file	24 "/rustc/6c8927b0cf80ceee19386026cf9d7fd4fd9d486f/src/libcore/ptr/const_ptr.rs"
	.loc	24 595 0
	.cfi_startproc
	pushq	%rbp
	.cfi_def_cfa_offset 16
	.cfi_offset %rbp, -16
	movq	%rsp, %rbp
	.cfi_def_cfa_register %rbp
	subq	$32, %rsp
	movq	%rdi, -16(%rbp)
	movq	%rsi, -8(%rbp)
Ltmp505:
	.loc	24 599 9 prologue_end
	callq	__ZN4core3ptr9const_ptr33_$LT$impl$u20$$BP$const$u20$T$GT$15wrapping_offset17haadf440a75eca4faE
	movq	%rax, -24(%rbp)
	.loc	24 0 9 is_stmt 0
	movq	-24(%rbp), %rax
	.loc	24 600 6 is_stmt 1
	addq	$32, %rsp
	popq	%rbp
	retq
Ltmp506:
Lfunc_end158:
	.cfi_endproc

	.p2align	4, 0x90
__ZN4core3ptr9const_ptr33_$LT$impl$u20$$BP$const$u20$T$GT$13guaranteed_eq17h7fd4c18c65c59399E:
Lfunc_begin159:
	.loc	24 327 0
	.cfi_startproc
	pushq	%rbp
	.cfi_def_cfa_offset 16
	.cfi_offset %rbp, -16
	movq	%rsp, %rbp
	.cfi_def_cfa_register %rbp
	subq	$32, %rsp
	movq	%rdi, -24(%rbp)
	movq	%rsi, -16(%rbp)
Ltmp507:
	.loc	24 331 9 prologue_end
	cmpq	%rsi, %rdi
	sete	%al
	andb	$1, %al
	movb	%al, -1(%rbp)
	movb	-1(%rbp), %al
	movb	%al, -25(%rbp)
	.loc	24 0 9 is_stmt 0
	movb	-25(%rbp), %al
	.loc	24 332 6 is_stmt 1
	andb	$1, %al
	movzbl	%al, %eax
	addq	$32, %rsp
	popq	%rbp
	retq
Ltmp508:
Lfunc_end159:
	.cfi_endproc

	.p2align	4, 0x90
__ZN4core3ptr9const_ptr33_$LT$impl$u20$$BP$const$u20$T$GT$15wrapping_offset17haadf440a75eca4faE:
Lfunc_begin160:
	.loc	24 220 0
	.cfi_startproc
	pushq	%rbp
	.cfi_def_cfa_offset 16
	.cfi_offset %rbp, -16
	movq	%rsp, %rbp
	.cfi_def_cfa_register %rbp
	subq	$32, %rsp
	movq	%rdi, -24(%rbp)
	movq	%rsi, -16(%rbp)
Ltmp509:
	.loc	24 225 18 prologue_end
	addq	%rsi, %rdi
	movq	%rdi, -8(%rbp)
	movq	-8(%rbp), %rax
	movq	%rax, -32(%rbp)
	.loc	24 0 18 is_stmt 0
	movq	-32(%rbp), %rax
	.loc	24 226 6 is_stmt 1
	addq	$32, %rsp
	popq	%rbp
	retq
Ltmp510:
Lfunc_end160:
	.cfi_endproc

	.p2align	4, 0x90
__ZN4core3ptr9const_ptr33_$LT$impl$u20$$BP$const$u20$T$GT$3add17h6bee2955fde5f2e5E:
Lfunc_begin161:
	.loc	24 473 0
	.cfi_startproc
	pushq	%rbp
	.cfi_def_cfa_offset 16
	.cfi_offset %rbp, -16
	movq	%rsp, %rbp
	.cfi_def_cfa_register %rbp
	subq	$32, %rsp
	movq	%rdi, -16(%rbp)
	movq	%rsi, -8(%rbp)
Ltmp511:
	.loc	24 478 18 prologue_end
	callq	__ZN4core3ptr9const_ptr33_$LT$impl$u20$$BP$const$u20$T$GT$6offset17hf1e173903e8c704fE
	movq	%rax, -24(%rbp)
	.loc	24 0 18 is_stmt 0
	movq	-24(%rbp), %rax
	.loc	24 479 6 is_stmt 1
	addq	$32, %rsp
	popq	%rbp
	retq
Ltmp512:
Lfunc_end161:
	.cfi_endproc

	.p2align	4, 0x90
__ZN4core3ptr9const_ptr33_$LT$impl$u20$$BP$const$u20$T$GT$3add17h72bab55a65538cd0E:
Lfunc_begin162:
	.loc	24 473 0
	.cfi_startproc
	pushq	%rbp
	.cfi_def_cfa_offset 16
	.cfi_offset %rbp, -16
	movq	%rsp, %rbp
	.cfi_def_cfa_register %rbp
	subq	$32, %rsp
	movq	%rdi, -16(%rbp)
	movq	%rsi, -8(%rbp)
Ltmp513:
	.loc	24 478 18 prologue_end
	callq	__ZN4core3ptr9const_ptr33_$LT$impl$u20$$BP$const$u20$T$GT$6offset17hd19e8610a2588baaE
	movq	%rax, -24(%rbp)
	.loc	24 0 18 is_stmt 0
	movq	-24(%rbp), %rax
	.loc	24 479 6 is_stmt 1
	addq	$32, %rsp
	popq	%rbp
	retq
Ltmp514:
Lfunc_end162:
	.cfi_endproc

	.p2align	4, 0x90
__ZN4core3ptr9const_ptr33_$LT$impl$u20$$BP$const$u20$T$GT$3add17h9bfd161079b0ba12E:
Lfunc_begin163:
	.loc	24 473 0
	.cfi_startproc
	pushq	%rbp
	.cfi_def_cfa_offset 16
	.cfi_offset %rbp, -16
	movq	%rsp, %rbp
	.cfi_def_cfa_register %rbp
	subq	$32, %rsp
	movq	%rdi, -16(%rbp)
	movq	%rsi, -8(%rbp)
Ltmp515:
	.loc	24 478 18 prologue_end
	callq	__ZN4core3ptr9const_ptr33_$LT$impl$u20$$BP$const$u20$T$GT$6offset17hddcf169ba0ffce9aE
	movq	%rax, -24(%rbp)
	.loc	24 0 18 is_stmt 0
	movq	-24(%rbp), %rax
	.loc	24 479 6 is_stmt 1
	addq	$32, %rsp
	popq	%rbp
	retq
Ltmp516:
Lfunc_end163:
	.cfi_endproc

	.p2align	4, 0x90
__ZN4core3ptr9const_ptr33_$LT$impl$u20$$BP$const$u20$T$GT$3add17he631845d07886e26E:
Lfunc_begin164:
	.loc	24 473 0
	.cfi_startproc
	pushq	%rbp
	.cfi_def_cfa_offset 16
	.cfi_offset %rbp, -16
	movq	%rsp, %rbp
	.cfi_def_cfa_register %rbp
	subq	$32, %rsp
	movq	%rdi, -16(%rbp)
	movq	%rsi, -8(%rbp)
Ltmp517:
	.loc	24 478 18 prologue_end
	callq	__ZN4core3ptr9const_ptr33_$LT$impl$u20$$BP$const$u20$T$GT$6offset17hfb9768dbf810b0ddE
	movq	%rax, -24(%rbp)
	.loc	24 0 18 is_stmt 0
	movq	-24(%rbp), %rax
	.loc	24 479 6 is_stmt 1
	addq	$32, %rsp
	popq	%rbp
	retq
Ltmp518:
Lfunc_end164:
	.cfi_endproc

	.p2align	4, 0x90
__ZN4core3ptr9const_ptr33_$LT$impl$u20$$BP$const$u20$T$GT$6offset17hd19e8610a2588baaE:
Lfunc_begin165:
	.loc	24 159 0
	.cfi_startproc
	pushq	%rbp
	.cfi_def_cfa_offset 16
	.cfi_offset %rbp, -16
	movq	%rsp, %rbp
	.cfi_def_cfa_register %rbp
	subq	$32, %rsp
	movq	%rdi, -24(%rbp)
	movq	%rsi, -16(%rbp)
Ltmp519:
	.loc	24 164 18 prologue_end
	shlq	$3, %rsi
	addq	%rsi, %rdi
	movq	%rdi, -8(%rbp)
	movq	-8(%rbp), %rax
	movq	%rax, -32(%rbp)
	.loc	24 0 18 is_stmt 0
	movq	-32(%rbp), %rax
	.loc	24 165 6 is_stmt 1
	addq	$32, %rsp
	popq	%rbp
	retq
Ltmp520:
Lfunc_end165:
	.cfi_endproc

	.p2align	4, 0x90
__ZN4core3ptr9const_ptr33_$LT$impl$u20$$BP$const$u20$T$GT$6offset17hddcf169ba0ffce9aE:
Lfunc_begin166:
	.loc	24 159 0
	.cfi_startproc
	pushq	%rbp
	.cfi_def_cfa_offset 16
	.cfi_offset %rbp, -16
	movq	%rsp, %rbp
	.cfi_def_cfa_register %rbp
	subq	$32, %rsp
	movq	%rdi, -24(%rbp)
	movq	%rsi, -16(%rbp)
Ltmp521:
	.loc	24 164 18 prologue_end
	addq	%rsi, %rdi
	movq	%rdi, -8(%rbp)
	movq	-8(%rbp), %rax
	movq	%rax, -32(%rbp)
	.loc	24 0 18 is_stmt 0
	movq	-32(%rbp), %rax
	.loc	24 165 6 is_stmt 1
	addq	$32, %rsp
	popq	%rbp
	retq
Ltmp522:
Lfunc_end166:
	.cfi_endproc

	.p2align	4, 0x90
__ZN4core3ptr9const_ptr33_$LT$impl$u20$$BP$const$u20$T$GT$6offset17hf1e173903e8c704fE:
Lfunc_begin167:
	.loc	24 159 0
	.cfi_startproc
	pushq	%rbp
	.cfi_def_cfa_offset 16
	.cfi_offset %rbp, -16
	movq	%rsp, %rbp
	.cfi_def_cfa_register %rbp
	subq	$32, %rsp
	movq	%rdi, -24(%rbp)
	movq	%rsi, -16(%rbp)
Ltmp523:
	.loc	24 164 18 prologue_end
	imulq	$24, %rsi, %rax
	addq	%rax, %rdi
	movq	%rdi, -8(%rbp)
	movq	-8(%rbp), %rax
	movq	%rax, -32(%rbp)
	.loc	24 0 18 is_stmt 0
	movq	-32(%rbp), %rax
	.loc	24 165 6 is_stmt 1
	addq	$32, %rsp
	popq	%rbp
	retq
Ltmp524:
Lfunc_end167:
	.cfi_endproc

	.p2align	4, 0x90
__ZN4core3ptr9const_ptr33_$LT$impl$u20$$BP$const$u20$T$GT$6offset17hfb9768dbf810b0ddE:
Lfunc_begin168:
	.loc	24 159 0
	.cfi_startproc
	pushq	%rbp
	.cfi_def_cfa_offset 16
	.cfi_offset %rbp, -16
	movq	%rsp, %rbp
	.cfi_def_cfa_register %rbp
	subq	$32, %rsp
	movq	%rdi, -24(%rbp)
	movq	%rsi, -16(%rbp)
Ltmp525:
	.loc	24 164 18 prologue_end
	imulq	$24, %rsi, %rax
	addq	%rax, %rdi
	movq	%rdi, -8(%rbp)
	movq	-8(%rbp), %rax
	movq	%rax, -32(%rbp)
	.loc	24 0 18 is_stmt 0
	movq	-32(%rbp), %rax
	.loc	24 165 6 is_stmt 1
	addq	$32, %rsp
	popq	%rbp
	retq
Ltmp526:
Lfunc_end168:
	.cfi_endproc

	.p2align	4, 0x90
__ZN4core3ptr9const_ptr33_$LT$impl$u20$$BP$const$u20$T$GT$7is_null17h0563ad4a197ee532E:
Lfunc_begin169:
	.loc	24 27 0
	.cfi_startproc
	pushq	%rbp
	.cfi_def_cfa_offset 16
	.cfi_offset %rbp, -16
	movq	%rsp, %rbp
	.cfi_def_cfa_register %rbp
	subq	$16, %rsp
	movq	%rdi, -8(%rbp)
	movq	%rdi, -16(%rbp)
	movq	-16(%rbp), %rax
Ltmp527:
	.loc	24 30 9 prologue_end
	cmpq	$0, %rax
	sete	%cl
	.loc	24 31 6
	andb	$1, %cl
	movzbl	%cl, %edx
	movl	%edx, %eax
	addq	$16, %rsp
	popq	%rbp
	retq
Ltmp528:
Lfunc_end169:
	.cfi_endproc

	.p2align	4, 0x90
__ZN4core3ptr9const_ptr43_$LT$impl$u20$$BP$const$u20$$u5b$T$u5d$$GT$3len17hc342187a5e38330aE:
Lfunc_begin170:
	.loc	24 823 0
	.cfi_startproc
	pushq	%rbp
	.cfi_def_cfa_offset 16
	.cfi_offset %rbp, -16
	movq	%rsp, %rbp
	.cfi_def_cfa_register %rbp
	subq	$32, %rsp
	movq	%rdi, -16(%rbp)
	movq	%rsi, -8(%rbp)
Ltmp529:
	.loc	24 826 18 prologue_end
	movq	%rdi, -32(%rbp)
	movq	%rsi, -24(%rbp)
	movq	-24(%rbp), %rax
	.loc	24 827 6
	addq	$32, %rsp
	popq	%rbp
	retq
Ltmp530:
Lfunc_end170:
	.cfi_endproc

	.p2align	4, 0x90
__ZN4core3ptr9const_ptr43_$LT$impl$u20$$BP$const$u20$$u5b$T$u5d$$GT$6as_ptr17h2aa4d9ea1071b001E:
Lfunc_begin171:
	.loc	24 845 0
	.cfi_startproc
	pushq	%rbp
	.cfi_def_cfa_offset 16
	.cfi_offset %rbp, -16
	movq	%rsp, %rbp
	.cfi_def_cfa_register %rbp
	subq	$16, %rsp
	movq	%rdi, -16(%rbp)
	movq	%rsi, -8(%rbp)
Ltmp531:
	.loc	24 847 6 prologue_end
	movq	%rdi, %rax
	addq	$16, %rsp
	popq	%rbp
	retq
Ltmp532:
Lfunc_end171:
	.cfi_endproc

	.p2align	4, 0x90
__ZN4core3ptr9const_ptr43_$LT$impl$u20$$BP$const$u20$$u5b$T$u5d$$GT$6as_ptr17h3ac5138a457005eeE:
Lfunc_begin172:
	.loc	24 845 0
	.cfi_startproc
	pushq	%rbp
	.cfi_def_cfa_offset 16
	.cfi_offset %rbp, -16
	movq	%rsp, %rbp
	.cfi_def_cfa_register %rbp
	subq	$16, %rsp
	movq	%rdi, -16(%rbp)
	movq	%rsi, -8(%rbp)
Ltmp533:
	.loc	24 847 6 prologue_end
	movq	%rdi, %rax
	addq	$16, %rsp
	popq	%rbp
	retq
Ltmp534:
Lfunc_end172:
	.cfi_endproc

	.p2align	4, 0x90
__ZN4core3ptr9const_ptr43_$LT$impl$u20$$BP$const$u20$$u5b$T$u5d$$GT$6as_ptr17he3e74e7e1ad547afE:
Lfunc_begin173:
	.loc	24 845 0
	.cfi_startproc
	pushq	%rbp
	.cfi_def_cfa_offset 16
	.cfi_offset %rbp, -16
	movq	%rsp, %rbp
	.cfi_def_cfa_register %rbp
	subq	$16, %rsp
	movq	%rdi, -16(%rbp)
	movq	%rsi, -8(%rbp)
Ltmp535:
	.loc	24 847 6 prologue_end
	movq	%rdi, %rax
	addq	$16, %rsp
	popq	%rbp
	retq
Ltmp536:
Lfunc_end173:
	.cfi_endproc

	.p2align	4, 0x90
__ZN4core3ptr9const_ptr43_$LT$impl$u20$$BP$const$u20$$u5b$T$u5d$$GT$6as_ptr17hf1cfeae0d18ec8e9E:
Lfunc_begin174:
	.loc	24 845 0
	.cfi_startproc
	pushq	%rbp
	.cfi_def_cfa_offset 16
	.cfi_offset %rbp, -16
	movq	%rsp, %rbp
	.cfi_def_cfa_register %rbp
	subq	$16, %rsp
	movq	%rdi, -16(%rbp)
	movq	%rsi, -8(%rbp)
Ltmp537:
	.loc	24 847 6 prologue_end
	movq	%rdi, %rax
	addq	$16, %rsp
	popq	%rbp
	retq
Ltmp538:
Lfunc_end174:
	.cfi_endproc

	.p2align	4, 0x90
__ZN4core3str11unwrap_or_017h9973aae1693f988eE:
Lfunc_begin175:
	.loc	8 506 0
	.cfi_startproc
	pushq	%rbp
	.cfi_def_cfa_offset 16
	.cfi_offset %rbp, -16
	movq	%rsp, %rbp
	.cfi_def_cfa_register %rbp
	subq	$16, %rsp
	movq	%rdi, -16(%rbp)
Ltmp539:
	.loc	8 508 9 prologue_end
	movq	-16(%rbp), %rax
	testq	%rax, %rax
	setne	%cl
	movzbl	%cl, %edx
	movl	%edx, %eax
	je	LBB175_1
	jmp	LBB175_5
LBB175_5:
	jmp	LBB175_3
LBB175_1:
	.loc	8 509 17
	movb	$0, -2(%rbp)
	.loc	8 507 5
	jmp	LBB175_4
	.loc	8 507 11 is_stmt 0
	ud2
LBB175_3:
	.loc	8 508 15 is_stmt 1
	movq	-16(%rbp), %rax
	movb	(%rax), %cl
	movb	%cl, -1(%rbp)
Ltmp540:
	.loc	8 508 24 is_stmt 0
	movb	%cl, -2(%rbp)
Ltmp541:
LBB175_4:
	.loc	8 511 2 is_stmt 1
	movb	-2(%rbp), %al
	addq	$16, %rsp
	popq	%rbp
	retq
Ltmp542:
Lfunc_end175:
	.cfi_endproc

	.p2align	4, 0x90
__ZN4core3str15next_code_point17h85a21e027e4324beE:
Lfunc_begin176:
	.loc	8 517 0
	.cfi_startproc
	pushq	%rbp
	.cfi_def_cfa_offset 16
	.cfi_offset %rbp, -16
	movq	%rsp, %rbp
	.cfi_def_cfa_register %rbp
	subq	$160, %rsp
	movq	%rdi, -48(%rbp)
	movq	%rdi, -80(%rbp)
Ltmp543:
	.loc	8 519 14 prologue_end
	callq	__ZN85_$LT$core..slice..Iter$LT$T$GT$$u20$as$u20$core..iter..traits..iterator..Iterator$GT$4next17h2cb79fe2e8e49695E
	movq	%rax, -88(%rbp)
	.loc	8 0 14 is_stmt 0
	movq	-88(%rbp), %rdi
	.loc	8 519 14
	callq	__ZN69_$LT$core..option..Option$LT$T$GT$$u20$as$u20$core..ops..try..Try$GT$11into_result17hf24d797a4868781bE
	movq	%rax, -64(%rbp)
	.loc	8 519 26
	movq	-64(%rbp), %rax
	testq	%rax, %rax
	sete	%cl
	movzbl	%cl, %edx
	movl	%edx, %eax
	jne	LBB176_3
	jmp	LBB176_28
LBB176_28:
	jmp	LBB176_5
LBB176_3:
	.loc	8 519 14
	movq	-64(%rbp), %rax
	movq	%rax, -32(%rbp)
	.loc	8 519 13
	movb	(%rax), %cl
	movb	%cl, -17(%rbp)
Ltmp544:
	.loc	8 520 8 is_stmt 1
	cmpb	$-128, %cl
	movb	%cl, -89(%rbp)
	.loc	8 520 5 is_stmt 0
	jb	LBB176_11
	jmp	LBB176_10
Ltmp545:
	.loc	8 519 14 is_stmt 1
	ud2
LBB176_5:
Ltmp546:
	.loc	8 519 26 is_stmt 0
	callq	__ZN50_$LT$T$u20$as$u20$core..convert..From$LT$T$GT$$GT$4from17h8a4f38b842ff0f6dE
	jmp	LBB176_7
Ltmp547:
LBB176_6:
	.loc	8 545 2 is_stmt 1
	movl	-72(%rbp), %eax
	movl	-68(%rbp), %edx
	addq	$160, %rsp
	popq	%rbp
	retq
LBB176_7:
Ltmp548:
	.loc	8 519 26
	callq	__ZN69_$LT$core..option..Option$LT$T$GT$$u20$as$u20$core..ops..try..Try$GT$10from_error17h9e1ea600238eea6aE
	movl	%edx, -68(%rbp)
	movl	%eax, -72(%rbp)
Ltmp549:
	.loc	8 519 26 is_stmt 0
	jmp	LBB176_9
LBB176_9:
	jmp	LBB176_6
LBB176_10:
	.loc	8 0 26
	movb	-89(%rbp), %al
Ltmp550:
	.loc	8 527 16 is_stmt 1
	movzbl	%al, %edi
	movl	$2, %esi
	callq	__ZN4core3str15utf8_first_byte17hbfd87c542acbc6e9E
	movl	%eax, -16(%rbp)
	movl	%eax, -96(%rbp)
	jmp	LBB176_12
LBB176_11:
	.loc	8 0 16 is_stmt 0
	movb	-89(%rbp), %al
	.loc	8 521 21 is_stmt 1
	movzbl	%al, %ecx
	.loc	8 521 16 is_stmt 0
	movl	%ecx, -68(%rbp)
	movl	$1, -72(%rbp)
Ltmp551:
	.loc	8 521 9
	jmp	LBB176_9
LBB176_12:
	.loc	8 0 9
	movq	-80(%rbp), %rdi
Ltmp552:
	.loc	8 528 25 is_stmt 1
	callq	__ZN85_$LT$core..slice..Iter$LT$T$GT$$u20$as$u20$core..iter..traits..iterator..Iterator$GT$4next17h2cb79fe2e8e49695E
	movq	%rax, -104(%rbp)
	.loc	8 0 25 is_stmt 0
	movq	-104(%rbp), %rdi
	.loc	8 528 13
	callq	__ZN4core3str11unwrap_or_017h9973aae1693f988eE
	movb	%al, -10(%rbp)
	movb	%al, -105(%rbp)
	.loc	8 0 13
	movl	-96(%rbp), %edi
	movb	-105(%rbp), %al
Ltmp553:
	.loc	8 529 18 is_stmt 1
	movzbl	%al, %esi
	callq	__ZN4core3str18utf8_acc_cont_byte17hd998c999c6c76e11E
	movl	%eax, -52(%rbp)
	.loc	8 0 18 is_stmt 0
	movb	-89(%rbp), %al
Ltmp554:
	.loc	8 530 8 is_stmt 1
	cmpb	$-32, %al
	.loc	8 530 5 is_stmt 0
	jae	LBB176_17
	jmp	LBB176_27
LBB176_17:
	.loc	8 0 5
	movq	-80(%rbp), %rdi
	.loc	8 533 29 is_stmt 1
	callq	__ZN85_$LT$core..slice..Iter$LT$T$GT$$u20$as$u20$core..iter..traits..iterator..Iterator$GT$4next17h2cb79fe2e8e49695E
	movq	%rax, -120(%rbp)
	.loc	8 0 29 is_stmt 0
	movq	-120(%rbp), %rdi
	.loc	8 533 17
	callq	__ZN4core3str11unwrap_or_017h9973aae1693f988eE
	movb	%al, -9(%rbp)
	movb	%al, -121(%rbp)
	.loc	8 0 17
	movb	-105(%rbp), %al
Ltmp555:
	.loc	8 534 38 is_stmt 1
	andb	$63, %al
	movzbl	%al, %edi
	movb	-121(%rbp), %al
	.loc	8 534 19 is_stmt 0
	movzbl	%al, %esi
	callq	__ZN4core3str18utf8_acc_cont_byte17hd998c999c6c76e11E
	movl	%eax, -8(%rbp)
	movl	%eax, -128(%rbp)
	.loc	8 0 19
	movl	-96(%rbp), %eax
Ltmp556:
	.loc	8 535 14 is_stmt 1
	shll	$12, %eax
	movl	-128(%rbp), %ecx
	.loc	8 535 9 is_stmt 0
	orl	%ecx, %eax
	movl	%eax, -52(%rbp)
	movb	-89(%rbp), %dl
	.loc	8 536 12 is_stmt 1
	cmpb	$-16, %dl
	.loc	8 536 9 is_stmt 0
	jae	LBB176_22
	jmp	LBB176_26
LBB176_22:
	.loc	8 0 9
	movq	-80(%rbp), %rdi
	.loc	8 539 33 is_stmt 1
	callq	__ZN85_$LT$core..slice..Iter$LT$T$GT$$u20$as$u20$core..iter..traits..iterator..Iterator$GT$4next17h2cb79fe2e8e49695E
	movq	%rax, -136(%rbp)
	.loc	8 0 33 is_stmt 0
	movq	-136(%rbp), %rdi
	.loc	8 539 21
	callq	__ZN4core3str11unwrap_or_017h9973aae1693f988eE
	movb	%al, -1(%rbp)
	movb	%al, -137(%rbp)
	.loc	8 0 21
	movl	-96(%rbp), %eax
Ltmp557:
	.loc	8 540 18 is_stmt 1
	andl	$7, %eax
	shll	$18, %eax
	movl	-128(%rbp), %edi
	movb	-137(%rbp), %cl
	.loc	8 540 37 is_stmt 0
	movzbl	%cl, %esi
	movl	%eax, -144(%rbp)
	callq	__ZN4core3str18utf8_acc_cont_byte17hd998c999c6c76e11E
	movl	%eax, -148(%rbp)
	.loc	8 0 37
	movl	-144(%rbp), %eax
	movl	-148(%rbp), %ecx
	.loc	8 540 13
	orl	%ecx, %eax
	movl	%eax, -52(%rbp)
Ltmp558:
LBB176_26:
	.loc	8 530 5 is_stmt 1
	jmp	LBB176_27
LBB176_27:
	.loc	8 544 10
	movl	-52(%rbp), %eax
	.loc	8 544 5 is_stmt 0
	movl	%eax, -68(%rbp)
	movl	$1, -72(%rbp)
Ltmp559:
	.loc	8 545 2 is_stmt 1
	jmp	LBB176_6
Ltmp560:
Lfunc_end176:
	.cfi_endproc

	.p2align	4, 0x90
__ZN4core3str15utf8_first_byte17hbfd87c542acbc6e9E:
Lfunc_begin177:
	.loc	8 488 0
	.cfi_startproc
	pushq	%rbp
	.cfi_def_cfa_offset 16
	.cfi_offset %rbp, -16
	movq	%rsp, %rbp
	.cfi_def_cfa_register %rbp
	pushq	%rax
	movb	%dil, -5(%rbp)
	movl	%esi, -4(%rbp)
Ltmp561:
	.loc	8 489 13 prologue_end
	andb	$7, %sil
	movb	%sil, %cl
	movb	$127, %al
	shrb	%cl, %al
	.loc	8 489 5 is_stmt 0
	andb	%al, %dil
	movzbl	%dil, %eax
	.loc	8 490 2 is_stmt 1
	addq	$8, %rsp
	popq	%rbp
	retq
Ltmp562:
Lfunc_end177:
	.cfi_endproc

	.p2align	4, 0x90
__ZN4core3str18utf8_acc_cont_byte17hd998c999c6c76e11E:
Lfunc_begin178:
	.loc	8 494 0
	.cfi_startproc
	pushq	%rbp
	.cfi_def_cfa_offset 16
	.cfi_offset %rbp, -16
	movq	%rsp, %rbp
	.cfi_def_cfa_register %rbp
	pushq	%rax
	movl	%edi, -8(%rbp)
	movb	%sil, -1(%rbp)
Ltmp563:
	.loc	8 495 5 prologue_end
	shll	$6, %edi
	.loc	8 495 17 is_stmt 0
	andb	$63, %sil
	movzbl	%sil, %eax
	.loc	8 495 5
	orl	%eax, %edi
	.loc	8 496 2 is_stmt 1
	movl	%edi, %eax
	addq	$8, %rsp
	popq	%rbp
	retq
Ltmp564:
Lfunc_end178:
	.cfi_endproc

	.p2align	4, 0x90
__ZN4core3str21_$LT$impl$u20$str$GT$13get_unchecked17hbf6ea6752b7432efE:
Lfunc_begin179:
	.loc	8 2533 0
	.cfi_startproc
	pushq	%rbp
	.cfi_def_cfa_offset 16
	.cfi_offset %rbp, -16
	movq	%rsp, %rbp
	.cfi_def_cfa_register %rbp
	subq	$64, %rsp
	movq	%rdi, -32(%rbp)
	movq	%rsi, -24(%rbp)
	movq	%rdx, -16(%rbp)
	movq	%rcx, -8(%rbp)
	movq	%rdi, -40(%rbp)
Ltmp565:
	.loc	8 2537 20 prologue_end
	movq	%rdx, %rdi
	movq	%rsi, -48(%rbp)
	movq	%rcx, %rsi
	movq	-40(%rbp), %rdx
	movq	-48(%rbp), %rcx
	callq	__ZN4core3str6traits101_$LT$impl$u20$core..slice..SliceIndex$LT$str$GT$$u20$for$u20$core..ops..range..Range$LT$usize$GT$$GT$13get_unchecked17hcf894e711c8557d3E
	movq	%rax, -56(%rbp)
	movq	%rdx, -64(%rbp)
	.loc	8 0 20 is_stmt 0
	movq	-56(%rbp), %rax
	movq	-64(%rbp), %rdx
	.loc	8 2538 6 is_stmt 1
	addq	$64, %rsp
	popq	%rbp
	retq
Ltmp566:
Lfunc_end179:
	.cfi_endproc

	.p2align	4, 0x90
__ZN4core3str21_$LT$impl$u20$str$GT$16is_char_boundary17h60fcbaeecb32abfbE:
Lfunc_begin180:
	.loc	8 2322 0
	.cfi_startproc
	pushq	%rbp
	.cfi_def_cfa_offset 16
	.cfi_offset %rbp, -16
	movq	%rsp, %rbp
	.cfi_def_cfa_register %rbp
	subq	$128, %rsp
	movq	%rdi, -64(%rbp)
	movq	%rsi, -56(%rbp)
	movq	%rdx, -48(%rbp)
Ltmp567:
	.loc	8 2326 12 prologue_end
	cmpq	$0, %rdx
	movq	%rdi, -88(%rbp)
	movq	%rsi, -96(%rbp)
	movq	%rdx, -104(%rbp)
	jne	LBB180_3
LBB180_1:
	movb	$1, -73(%rbp)
	jmp	LBB180_4
LBB180_2:
	movb	$0, -73(%rbp)
	jmp	LBB180_4
LBB180_3:
	.loc	8 0 12 is_stmt 0
	movq	-88(%rbp), %rdi
	movq	-96(%rbp), %rsi
	.loc	8 2326 35
	callq	__ZN4core3str21_$LT$impl$u20$str$GT$3len17heca4685248fe72eeE
	movq	%rax, -112(%rbp)
	jmp	LBB180_5
LBB180_4:
	.loc	8 2326 9
	testb	$1, -73(%rbp)
	jne	LBB180_7
	jmp	LBB180_6
LBB180_5:
	.loc	8 0 9
	movq	-104(%rbp), %rax
	movq	-112(%rbp), %rcx
	.loc	8 2326 26
	cmpq	%rcx, %rax
	.loc	8 2326 12
	je	LBB180_1
	jmp	LBB180_2
LBB180_6:
	.loc	8 0 12
	movq	-88(%rbp), %rax
	movq	%rax, -16(%rbp)
	movq	-96(%rbp), %rcx
	movq	%rcx, -8(%rbp)
Ltmp568:
	.loc	8 2359 18 is_stmt 1
	movq	%rax, -32(%rbp)
	movq	%rcx, -24(%rbp)
	movq	-32(%rbp), %rdi
	movq	-24(%rbp), %rsi
	movq	%rdi, -120(%rbp)
	movq	%rsi, -128(%rbp)
Ltmp569:
	.loc	8 2329 15
	jmp	LBB180_9
LBB180_7:
	.loc	8 2327 20
	movb	$1, -74(%rbp)
LBB180_8:
	.loc	8 2334 6
	movb	-74(%rbp), %al
	andb	$1, %al
	movzbl	%al, %eax
	addq	$128, %rsp
	popq	%rbp
	retq
LBB180_9:
	.loc	8 0 6 is_stmt 0
	movq	-120(%rbp), %rdi
	movq	-128(%rbp), %rsi
	movq	-104(%rbp), %rdx
	.loc	8 2329 15 is_stmt 1
	callq	__ZN4core5slice29_$LT$impl$u20$$u5b$T$u5d$$GT$3get17hea1e839efea3f410E
	movq	%rax, -72(%rbp)
	.loc	8 2330 13
	movq	-72(%rbp), %rax
	testq	%rax, %rax
	setne	%cl
	movzbl	%cl, %edx
	movl	%edx, %eax
	je	LBB180_13
	jmp	LBB180_15
LBB180_15:
	.loc	8 2332 19
	movq	-72(%rbp), %rax
	movb	(%rax), %cl
	movb	%cl, -33(%rbp)
Ltmp570:
	.loc	8 2332 25 is_stmt 0
	cmpb	$-64, %cl
	setge	%cl
	andb	$1, %cl
	movb	%cl, -74(%rbp)
Ltmp571:
	.loc	8 2329 9 is_stmt 1
	jmp	LBB180_14
	.loc	8 2329 15 is_stmt 0
	ud2
LBB180_13:
	.loc	8 2330 21 is_stmt 1
	movb	$0, -74(%rbp)
LBB180_14:
	.loc	8 2334 6
	jmp	LBB180_8
Ltmp572:
Lfunc_end180:
	.cfi_endproc

	.p2align	4, 0x90
__ZN4core3str21_$LT$impl$u20$str$GT$3len17heca4685248fe72eeE:
Lfunc_begin181:
	.loc	8 2273 0
	.cfi_startproc
	pushq	%rbp
	.cfi_def_cfa_offset 16
	.cfi_offset %rbp, -16
	movq	%rsp, %rbp
	.cfi_def_cfa_register %rbp
	subq	$80, %rsp
	movq	%rdi, -48(%rbp)
	movq	%rsi, -40(%rbp)
	movq	%rdi, -16(%rbp)
	movq	%rsi, -8(%rbp)
Ltmp573:
	.loc	8 2359 18 prologue_end
	movq	%rdi, -32(%rbp)
	movq	%rsi, -24(%rbp)
	movq	-32(%rbp), %rdi
	movq	-24(%rbp), %rsi
	movq	%rdi, -56(%rbp)
	movq	%rsi, -64(%rbp)
Ltmp574:
	.loc	8 0 18 is_stmt 0
	movq	-56(%rbp), %rdi
	movq	-64(%rbp), %rsi
	.loc	8 2274 9 is_stmt 1
	callq	__ZN4core5slice29_$LT$impl$u20$$u5b$T$u5d$$GT$3len17he68d0d86fa79f574E
	movq	%rax, -72(%rbp)
	.loc	8 0 9 is_stmt 0
	movq	-72(%rbp), %rax
	.loc	8 2275 6 is_stmt 1
	addq	$80, %rsp
	popq	%rbp
	retq
Ltmp575:
Lfunc_end181:
	.cfi_endproc

	.p2align	4, 0x90
__ZN4core3str21_$LT$impl$u20$str$GT$5chars17hac63239df7da3886E:
Lfunc_begin182:
	.loc	8 2799 0
	.cfi_startproc
	pushq	%rbp
	.cfi_def_cfa_offset 16
	.cfi_offset %rbp, -16
	movq	%rsp, %rbp
	.cfi_def_cfa_register %rbp
	subq	$96, %rsp
	movq	%rdi, -48(%rbp)
	movq	%rsi, -40(%rbp)
	movq	%rdi, -16(%rbp)
	movq	%rsi, -8(%rbp)
Ltmp576:
	.loc	8 2359 18 prologue_end
	movq	%rdi, -32(%rbp)
	movq	%rsi, -24(%rbp)
	movq	-32(%rbp), %rdi
	movq	-24(%rbp), %rsi
	movq	%rdi, -72(%rbp)
	movq	%rsi, -80(%rbp)
Ltmp577:
	.loc	8 0 18 is_stmt 0
	movq	-72(%rbp), %rdi
	movq	-80(%rbp), %rsi
	.loc	8 2800 23 is_stmt 1
	callq	__ZN4core5slice29_$LT$impl$u20$$u5b$T$u5d$$GT$4iter17h8ac7d7a9471ebd9cE
	movq	%rax, -88(%rbp)
	movq	%rdx, -96(%rbp)
	.loc	8 0 23 is_stmt 0
	movq	-88(%rbp), %rax
	.loc	8 2800 9
	movq	%rax, -64(%rbp)
	movq	-96(%rbp), %rcx
	movq	%rcx, -56(%rbp)
	.loc	8 2801 6 is_stmt 1
	movq	-64(%rbp), %rax
	movq	-56(%rbp), %rdx
	addq	$96, %rsp
	popq	%rbp
	retq
Ltmp578:
Lfunc_end182:
	.cfi_endproc

	.p2align	4, 0x90
__ZN4core3str21_$LT$impl$u20$str$GT$5parse17hf31816636cde9293E:
Lfunc_begin183:
	.loc	8 4268 0
	.cfi_startproc
	pushq	%rbp
	.cfi_def_cfa_offset 16
	.cfi_offset %rbp, -16
	movq	%rsp, %rbp
	.cfi_def_cfa_register %rbp
	subq	$32, %rsp
	movq	%rdi, -24(%rbp)
	movq	%rsi, -16(%rbp)
Ltmp579:
	.loc	8 4269 9 prologue_end
	callq	__ZN4core3num52_$LT$impl$u20$core..str..FromStr$u20$for$u20$u32$GT$8from_str17h7755800c3765c881E
	movq	%rax, -8(%rbp)
	movq	-8(%rbp), %rax
	movq	%rax, -32(%rbp)
	.loc	8 4270 6
	movq	-32(%rbp), %rax
	addq	$32, %rsp
	popq	%rbp
	retq
Ltmp580:
Lfunc_end183:
	.cfi_endproc

	.p2align	4, 0x90
__ZN4core3str21_$LT$impl$u20$str$GT$5split17h49a0786ca9fb9857E:
Lfunc_begin184:
	.loc	8 3320 0
	.cfi_startproc
	.cfi_personality 155, _rust_eh_personality
	.cfi_lsda 16, Lexception22
	pushq	%rbp
	.cfi_def_cfa_offset 16
	.cfi_offset %rbp, -16
	movq	%rsp, %rbp
	.cfi_def_cfa_register %rbp
	subq	$224, %rsp
	movq	%rdi, %rax
	movq	%rsi, -40(%rbp)
	movq	%rdx, -32(%rbp)
	movl	%ecx, -20(%rbp)
Ltmp586:
	.loc	8 3321 15 prologue_end
	movb	$0, -41(%rbp)
	movb	$1, -41(%rbp)
Ltmp581:
	movq	%rdi, -176(%rbp)
	.loc	8 3323 18
	movq	%rsi, %rdi
	movq	%rsi, -184(%rbp)
	movq	%rdx, %rsi
	movl	%ecx, -188(%rbp)
	movq	%rdx, -200(%rbp)
	movq	%rax, -208(%rbp)
	callq	__ZN4core3str21_$LT$impl$u20$str$GT$3len17heca4685248fe72eeE
Ltmp582:
	movq	%rax, -216(%rbp)
	jmp	LBB184_2
LBB184_1:
	.loc	8 3320 5
	movq	-16(%rbp), %rdi
	callq	__Unwind_Resume
	ud2
LBB184_2:
	.loc	8 3324 22
	movb	$0, -41(%rbp)
Ltmp583:
	leaq	-96(%rbp), %rdi
	movl	-188(%rbp), %esi
	movq	-184(%rbp), %rdx
	movq	-200(%rbp), %rcx
	callq	__ZN52_$LT$char$u20$as$u20$core..str..pattern..Pattern$GT$13into_searcher17hfebb8481023b94d4E
Ltmp584:
	jmp	LBB184_3
LBB184_3:
	.loc	8 3321 15
	movq	$0, -168(%rbp)
	movq	-216(%rbp), %rax
	movq	%rax, -160(%rbp)
	leaq	-168(%rbp), %rcx
	movq	%rcx, %rdx
	addq	$16, %rdx
	leaq	-96(%rbp), %rsi
	movq	%rdx, %rdi
	movl	$48, %edx
	movq	%rcx, -224(%rbp)
	callq	_memcpy
	movb	$1, -104(%rbp)
	movb	$0, -103(%rbp)
	movq	-176(%rbp), %rax
	movq	-224(%rbp), %rcx
	.loc	8 3321 9 is_stmt 0
	movq	%rax, %rdi
	movq	%rcx, %rsi
	movl	$72, %edx
	callq	_memcpy
	movq	-208(%rbp), %rax
	.loc	8 3328 6 is_stmt 1
	addq	$224, %rsp
	popq	%rbp
	retq
LBB184_4:
	.loc	8 3328 5 is_stmt 0
	movb	$0, -41(%rbp)
	jmp	LBB184_1
LBB184_5:
	testb	$1, -41(%rbp)
	jne	LBB184_4
	jmp	LBB184_1
Ltmp587:
LBB184_6:
Ltmp585:
	.loc	8 0 5
	movq	%rax, -16(%rbp)
	movl	%edx, -8(%rbp)
	jmp	LBB184_5
Lfunc_end184:
	.cfi_endproc
	.section	__TEXT,__gcc_except_tab
	.p2align	2
GCC_except_table184:
Lexception22:
	.byte	255
	.byte	255
	.byte	1
	.uleb128 Lcst_end22-Lcst_begin22
Lcst_begin22:
	.uleb128 Ltmp581-Lfunc_begin184
	.uleb128 Ltmp582-Ltmp581
	.uleb128 Ltmp585-Lfunc_begin184
	.byte	0
	.uleb128 Ltmp582-Lfunc_begin184
	.uleb128 Ltmp583-Ltmp582
	.byte	0
	.byte	0
	.uleb128 Ltmp583-Lfunc_begin184
	.uleb128 Ltmp584-Ltmp583
	.uleb128 Ltmp585-Lfunc_begin184
	.byte	0
	.uleb128 Ltmp584-Lfunc_begin184
	.uleb128 Lfunc_end184-Ltmp584
	.byte	0
	.byte	0
Lcst_end22:
	.p2align	2

	.section	__TEXT,__text,regular,pure_instructions
	.p2align	4, 0x90
__ZN4core3str21_$LT$impl$u20$str$GT$8contains17h2c2aa15816c1d420E:
Lfunc_begin185:
	.loc	8 3061 0 is_stmt 1
	.cfi_startproc
	pushq	%rbp
	.cfi_def_cfa_offset 16
	.cfi_offset %rbp, -16
	movq	%rsp, %rbp
	.cfi_def_cfa_register %rbp
	subq	$64, %rsp
	movq	%rdi, -32(%rbp)
	movq	%rsi, -24(%rbp)
	movq	%rdx, -16(%rbp)
	movq	%rcx, -8(%rbp)
	movq	%rdi, -40(%rbp)
Ltmp588:
	.loc	8 3062 9 prologue_end
	movq	%rdx, %rdi
	movq	%rsi, -48(%rbp)
	movq	%rcx, %rsi
	movq	-40(%rbp), %rdx
	movq	-48(%rbp), %rcx
	callq	__ZN4core3str7pattern7Pattern15is_contained_in17hc2ba59cfe22c549fE
	movb	%al, -49(%rbp)
	.loc	8 0 9 is_stmt 0
	movb	-49(%rbp), %al
	.loc	8 3063 6 is_stmt 1
	andb	$1, %al
	movzbl	%al, %eax
	addq	$64, %rsp
	popq	%rbp
	retq
Ltmp589:
Lfunc_end185:
	.cfi_endproc

	.p2align	4, 0x90
__ZN4core3str22SplitInternal$LT$P$GT$4next17h78adec65edf1600dE:
Lfunc_begin186:
	.loc	8 1118 0
	.cfi_startproc
	pushq	%rbp
	.cfi_def_cfa_offset 16
	.cfi_offset %rbp, -16
	movq	%rsp, %rbp
	.cfi_def_cfa_register %rbp
	subq	$160, %rsp
	movq	%rdi, -56(%rbp)
Ltmp590:
	.loc	8 1119 9 prologue_end
	testb	$1, 65(%rdi)
	movq	%rdi, -120(%rbp)
	jne	LBB186_2
	.loc	8 0 9 is_stmt 0
	movq	-120(%rbp), %rax
	.loc	8 1123 24 is_stmt 1
	addq	$16, %rax
	movq	%rax, %rdi
	callq	__ZN81_$LT$core..str..pattern..CharSearcher$u20$as$u20$core..str..pattern..Searcher$GT$8haystack17h21dab70dcce3b8d6E
	movq	%rax, -48(%rbp)
	movq	%rdx, -40(%rbp)
	movq	%rax, -128(%rbp)
	movq	%rdx, -136(%rbp)
	jmp	LBB186_4
LBB186_2:
	.loc	8 1120 20
	movq	$0, -112(%rbp)
LBB186_3:
	.loc	8 1133 6
	movq	-112(%rbp), %rax
	movq	-104(%rbp), %rdx
	addq	$160, %rsp
	popq	%rbp
	retq
LBB186_4:
	.loc	8 0 6 is_stmt 0
	movq	-120(%rbp), %rax
Ltmp591:
	.loc	8 1124 15 is_stmt 1
	addq	$16, %rax
	leaq	-96(%rbp), %rdi
	movq	%rax, %rsi
	callq	__ZN81_$LT$core..str..pattern..CharSearcher$u20$as$u20$core..str..pattern..Searcher$GT$10next_match17hfeeaa06fb44f47c6E
	.loc	8 1126 13
	movq	-96(%rbp), %rax
	testq	%rax, %rax
	je	LBB186_6
	jmp	LBB186_12
LBB186_12:
	jmp	LBB186_8
LBB186_6:
	.loc	8 0 13 is_stmt 0
	movq	-120(%rbp), %rdi
	.loc	8 1131 21 is_stmt 1
	callq	__ZN4core3str22SplitInternal$LT$P$GT$7get_end17hbf9c9665b2c1cce8E
	movq	%rdx, -104(%rbp)
	movq	%rax, -112(%rbp)
	jmp	LBB186_10
	.loc	8 1124 15
	ud2
LBB186_8:
	.loc	8 1126 19
	movq	-88(%rbp), %rax
	movq	%rax, -32(%rbp)
	.loc	8 1126 22 is_stmt 0
	movq	-80(%rbp), %rcx
	movq	%rcx, -24(%rbp)
	movq	-120(%rbp), %rdx
Ltmp592:
	.loc	8 1127 50 is_stmt 1
	movq	(%rdx), %rsi
	movq	%rsi, -72(%rbp)
	movq	%rax, -64(%rbp)
	.loc	8 1127 27 is_stmt 0
	movq	-72(%rbp), %rdx
	movq	-64(%rbp), %rax
	movq	-128(%rbp), %rdi
	movq	-136(%rbp), %rsi
	movq	%rcx, -144(%rbp)
	movq	%rax, %rcx
	callq	__ZN4core3str21_$LT$impl$u20$str$GT$13get_unchecked17hbf6ea6752b7432efE
	movq	%rax, -16(%rbp)
	movq	%rdx, -8(%rbp)
	movq	%rax, -152(%rbp)
	movq	%rdx, -160(%rbp)
	.loc	8 0 27
	movq	-120(%rbp), %rax
	movq	-144(%rbp), %rcx
Ltmp593:
	.loc	8 1128 17 is_stmt 1
	movq	%rcx, (%rax)
	movq	-152(%rbp), %rdx
	.loc	8 1129 17
	movq	%rdx, -112(%rbp)
	movq	-160(%rbp), %rsi
	movq	%rsi, -104(%rbp)
Ltmp594:
	.loc	8 1124 9
	jmp	LBB186_11
LBB186_10:
	jmp	LBB186_11
Ltmp595:
LBB186_11:
	.loc	8 1133 6
	jmp	LBB186_3
Ltmp596:
Lfunc_end186:
	.cfi_endproc

	.p2align	4, 0x90
__ZN4core3str22SplitInternal$LT$P$GT$7get_end17hbf9c9665b2c1cce8E:
Lfunc_begin187:
	.loc	8 1104 0
	.cfi_startproc
	pushq	%rbp
	.cfi_def_cfa_offset 16
	.cfi_offset %rbp, -16
	movq	%rsp, %rbp
	.cfi_def_cfa_register %rbp
	subq	$112, %rsp
	movq	%rdi, -24(%rbp)
Ltmp597:
	.loc	8 1105 13 prologue_end
	movb	65(%rdi), %al
	.loc	8 1105 12 is_stmt 0
	xorb	$-1, %al
	testb	$1, %al
	movq	%rdi, -72(%rbp)
	jne	LBB187_3
	jmp	LBB187_2
LBB187_1:
	movb	$1, -42(%rbp)
	jmp	LBB187_4
LBB187_2:
	movb	$0, -42(%rbp)
	jmp	LBB187_4
LBB187_3:
	.loc	8 0 12
	movq	-72(%rbp), %rax
	.loc	8 1105 30
	testb	$1, 64(%rax)
	jne	LBB187_5
	jmp	LBB187_7
LBB187_4:
	.loc	8 1105 9
	testb	$1, -42(%rbp)
	jne	LBB187_10
	jmp	LBB187_9
LBB187_5:
	.loc	8 1105 30
	movb	$1, -41(%rbp)
	jmp	LBB187_8
LBB187_6:
	movb	$0, -41(%rbp)
	jmp	LBB187_8
LBB187_7:
	.loc	8 0 30
	movq	-72(%rbp), %rax
	.loc	8 1105 60
	movq	8(%rax), %rcx
	subq	(%rax), %rcx
	cmpq	$0, %rcx
	.loc	8 1105 30
	ja	LBB187_5
	jmp	LBB187_6
LBB187_8:
	.loc	8 1105 12
	testb	$1, -41(%rbp)
	jne	LBB187_1
	jmp	LBB187_2
LBB187_9:
	.loc	8 1113 13 is_stmt 1
	movq	$0, -64(%rbp)
	.loc	8 1105 9
	jmp	LBB187_13
LBB187_10:
	.loc	8 0 9 is_stmt 0
	movq	-72(%rbp), %rax
	.loc	8 1106 13 is_stmt 1
	movb	$1, 65(%rax)
	.loc	8 1109 30
	addq	$16, %rax
	movq	%rax, %rdi
	callq	__ZN81_$LT$core..str..pattern..CharSearcher$u20$as$u20$core..str..pattern..Searcher$GT$8haystack17h21dab70dcce3b8d6E
	movq	%rax, -80(%rbp)
	movq	%rdx, -88(%rbp)
	.loc	8 0 30 is_stmt 0
	movq	-72(%rbp), %rax
	.loc	8 1109 68
	movq	(%rax), %rcx
	.loc	8 1109 80
	movq	8(%rax), %rdx
	.loc	8 1109 68
	movq	%rcx, -40(%rbp)
	movq	%rdx, -32(%rbp)
	.loc	8 1109 30
	movq	-40(%rbp), %rdx
	movq	-32(%rbp), %rcx
	movq	-80(%rbp), %rdi
	movq	-88(%rbp), %rsi
	callq	__ZN4core3str21_$LT$impl$u20$str$GT$13get_unchecked17hbf6ea6752b7432efE
	movq	%rax, -16(%rbp)
	movq	%rdx, -8(%rbp)
	movq	%rax, -96(%rbp)
	movq	%rdx, -104(%rbp)
	.loc	8 0 30
	movq	-96(%rbp), %rax
Ltmp598:
	.loc	8 1110 17 is_stmt 1
	movq	%rax, -64(%rbp)
	movq	-104(%rbp), %rcx
	movq	%rcx, -56(%rbp)
Ltmp599:
LBB187_13:
	.loc	8 1115 6
	movq	-64(%rbp), %rax
	movq	-56(%rbp), %rdx
	addq	$112, %rsp
	popq	%rbp
	retq
Ltmp600:
Lfunc_end187:
	.cfi_endproc

	.p2align	4, 0x90
__ZN4core3str23from_utf8_unchecked_mut17hf0e5a322356d3960E:
Lfunc_begin188:
	.loc	8 444 0
	.cfi_startproc
	pushq	%rbp
	.cfi_def_cfa_offset 16
	.cfi_offset %rbp, -16
	movq	%rsp, %rbp
	.cfi_def_cfa_register %rbp
	subq	$16, %rsp
	movq	%rdi, -16(%rbp)
	movq	%rsi, -8(%rbp)
Ltmp601:
	.loc	8 450 2 prologue_end
	movq	%rdi, %rax
	movq	%rsi, %rdx
	addq	$16, %rsp
	popq	%rbp
	retq
Ltmp602:
Lfunc_end188:
	.cfi_endproc

	.p2align	4, 0x90
__ZN4core3str6traits101_$LT$impl$u20$core..slice..SliceIndex$LT$str$GT$$u20$for$u20$core..ops..range..Range$LT$usize$GT$$GT$13get_unchecked17hcf894e711c8557d3E:
Lfunc_begin189:
	.loc	8 1907 0
	.cfi_startproc
	pushq	%rbp
	.cfi_def_cfa_offset 16
	.cfi_offset %rbp, -16
	movq	%rsp, %rbp
	.cfi_def_cfa_register %rbp
	subq	$112, %rsp
	movq	%rdi, -64(%rbp)
	movq	%rsi, -56(%rbp)
	movq	%rdx, -48(%rbp)
	movq	%rcx, -40(%rbp)
Ltmp603:
	.loc	8 1908 25 prologue_end
	movq	%rdx, -32(%rbp)
	movq	%rcx, -24(%rbp)
	movq	%rdi, -72(%rbp)
Ltmp604:
	.loc	8 1911 32
	movq	%rdx, %rdi
	movq	%rsi, -80(%rbp)
	movq	%rcx, %rsi
	callq	__ZN4core3ptr9const_ptr43_$LT$impl$u20$$BP$const$u20$$u5b$T$u5d$$GT$6as_ptr17h2aa4d9ea1071b001E
	movq	%rax, -88(%rbp)
	.loc	8 0 32 is_stmt 0
	movq	-88(%rbp), %rdi
	movq	-72(%rbp), %rsi
	.loc	8 1911 32
	callq	__ZN4core3ptr9const_ptr33_$LT$impl$u20$$BP$const$u20$T$GT$3add17h9bfd161079b0ba12E
	movq	%rax, -16(%rbp)
	movq	%rax, -96(%rbp)
	.loc	8 0 32
	movq	-80(%rbp), %rax
	movq	-72(%rbp), %rcx
Ltmp605:
	.loc	8 1912 23 is_stmt 1
	subq	%rcx, %rax
	movq	%rax, -8(%rbp)
	movq	-96(%rbp), %rdi
Ltmp606:
	.loc	8 1913 13
	movq	%rax, %rsi
	callq	__ZN4core3ptr20slice_from_raw_parts17h68951a687886473fE
	movq	%rax, -104(%rbp)
	movq	%rdx, -112(%rbp)
Ltmp607:
	.loc	8 0 13 is_stmt 0
	movq	-104(%rbp), %rax
	movq	-112(%rbp), %rdx
	.loc	8 1914 10 is_stmt 1
	addq	$112, %rsp
	popq	%rbp
	retq
Ltmp608:
Lfunc_end189:
	.cfi_endproc

	.p2align	4, 0x90
__ZN4core3str6traits105_$LT$impl$u20$core..slice..SliceIndex$LT$str$GT$$u20$for$u20$core..ops..range..RangeFrom$LT$usize$GT$$GT$13get_unchecked17h7450d704ef7bce97E:
Lfunc_begin190:
	.loc	8 2052 0
	.cfi_startproc
	pushq	%rbp
	.cfi_def_cfa_offset 16
	.cfi_offset %rbp, -16
	movq	%rsp, %rbp
	.cfi_def_cfa_register %rbp
	subq	$128, %rsp
	movq	%rdi, -56(%rbp)
	movq	%rsi, -48(%rbp)
	movq	%rdx, -40(%rbp)
Ltmp609:
	.loc	8 2053 25 prologue_end
	movq	%rsi, -32(%rbp)
	movq	%rdx, -24(%rbp)
	movq	%rdi, -64(%rbp)
Ltmp610:
	.loc	8 2056 32
	movq	%rsi, %rdi
	movq	%rsi, -72(%rbp)
	movq	%rdx, %rsi
	movq	%rdx, -80(%rbp)
	callq	__ZN4core3ptr9const_ptr43_$LT$impl$u20$$BP$const$u20$$u5b$T$u5d$$GT$6as_ptr17h2aa4d9ea1071b001E
	movq	%rax, -88(%rbp)
	.loc	8 0 32 is_stmt 0
	movq	-88(%rbp), %rdi
	movq	-64(%rbp), %rsi
	.loc	8 2056 32
	callq	__ZN4core3ptr9const_ptr33_$LT$impl$u20$$BP$const$u20$T$GT$3add17h9bfd161079b0ba12E
	movq	%rax, -16(%rbp)
	movq	%rax, -96(%rbp)
	.loc	8 0 32
	movq	-72(%rbp), %rdi
	movq	-80(%rbp), %rsi
Ltmp611:
	.loc	8 2057 23 is_stmt 1
	callq	__ZN4core3ptr9const_ptr43_$LT$impl$u20$$BP$const$u20$$u5b$T$u5d$$GT$3len17hc342187a5e38330aE
	movq	%rax, -104(%rbp)
	.loc	8 0 23 is_stmt 0
	movq	-104(%rbp), %rax
	movq	-64(%rbp), %rcx
	.loc	8 2057 23
	subq	%rcx, %rax
	movq	%rax, -8(%rbp)
	movq	-96(%rbp), %rdi
Ltmp612:
	.loc	8 2058 13 is_stmt 1
	movq	%rax, %rsi
	callq	__ZN4core3ptr20slice_from_raw_parts17h68951a687886473fE
	movq	%rax, -112(%rbp)
	movq	%rdx, -120(%rbp)
Ltmp613:
	.loc	8 0 13 is_stmt 0
	movq	-112(%rbp), %rax
	movq	-120(%rbp), %rdx
	.loc	8 2059 10 is_stmt 1
	addq	$128, %rsp
	popq	%rbp
	retq
Ltmp614:
Lfunc_end190:
	.cfi_endproc

	.p2align	4, 0x90
__ZN4core3str6traits105_$LT$impl$u20$core..slice..SliceIndex$LT$str$GT$$u20$for$u20$core..ops..range..RangeFrom$LT$usize$GT$$GT$3get17ha018c455c2f8e30aE:
Lfunc_begin191:
	.loc	8 2032 0
	.cfi_startproc
	pushq	%rbp
	.cfi_def_cfa_offset 16
	.cfi_offset %rbp, -16
	movq	%rsp, %rbp
	.cfi_def_cfa_register %rbp
	subq	$96, %rsp
	movq	%rdi, -24(%rbp)
	movq	%rsi, -16(%rbp)
	movq	%rdx, -8(%rbp)
	movq	%rdi, -48(%rbp)
Ltmp615:
	.loc	8 2033 16 prologue_end
	movq	%rsi, %rdi
	movq	%rsi, -56(%rbp)
	movq	%rdx, %rsi
	movq	-48(%rbp), %rax
	movq	%rdx, -64(%rbp)
	movq	%rax, %rdx
	callq	__ZN4core3str21_$LT$impl$u20$str$GT$16is_char_boundary17h60fcbaeecb32abfbE
	movb	%al, -65(%rbp)
	.loc	8 0 16 is_stmt 0
	movb	-65(%rbp), %al
	.loc	8 2033 13
	testb	$1, %al
	jne	LBB191_3
	jmp	LBB191_2
LBB191_2:
	.loc	8 2038 17 is_stmt 1
	movq	$0, -40(%rbp)
	.loc	8 2033 13
	jmp	LBB191_5
LBB191_3:
	.loc	8 0 13 is_stmt 0
	movq	-48(%rbp), %rdi
	movq	-56(%rbp), %rsi
	movq	-64(%rbp), %rdx
	.loc	8 2036 33 is_stmt 1
	callq	__ZN4core3str6traits105_$LT$impl$u20$core..slice..SliceIndex$LT$str$GT$$u20$for$u20$core..ops..range..RangeFrom$LT$usize$GT$$GT$13get_unchecked17h7450d704ef7bce97E
	movq	%rax, -80(%rbp)
	movq	%rdx, -88(%rbp)
	.loc	8 0 33 is_stmt 0
	movq	-80(%rbp), %rax
	.loc	8 2036 17
	movq	%rax, -40(%rbp)
	movq	-88(%rbp), %rcx
	movq	%rcx, -32(%rbp)
LBB191_5:
	.loc	8 2040 10 is_stmt 1
	movq	-40(%rbp), %rax
	movq	-32(%rbp), %rdx
	addq	$96, %rsp
	popq	%rbp
	retq
Ltmp616:
Lfunc_end191:
	.cfi_endproc

	.p2align	4, 0x90
__ZN4core3str6traits105_$LT$impl$u20$core..slice..SliceIndex$LT$str$GT$$u20$for$u20$core..ops..range..RangeFrom$LT$usize$GT$$GT$5index17hbfc266021c8bd952E:
Lfunc_begin192:
	.loc	8 2069 0
	.cfi_startproc
	pushq	%rbp
	.cfi_def_cfa_offset 16
	.cfi_offset %rbp, -16
	movq	%rsp, %rbp
	.cfi_def_cfa_register %rbp
	subq	$144, %rsp
	movq	%rsi, -80(%rbp)
	movq	%rdx, -72(%rbp)
	movq	%rdi, -8(%rbp)
Ltmp617:
	.loc	8 2070 45 prologue_end
	movq	-80(%rbp), %rax
	movq	-72(%rbp), %rsi
	movq	%rdi, -88(%rbp)
	movq	%rax, %rdi
	movq	%rcx, -96(%rbp)
	callq	__ZN4core3str21_$LT$impl$u20$str$GT$3len17heca4685248fe72eeE
	movq	%rax, -104(%rbp)
	.loc	8 0 45 is_stmt 0
	movq	-88(%rbp), %rax
	.loc	8 2070 32
	movq	%rax, -48(%rbp)
	movq	-104(%rbp), %rcx
	movq	%rcx, -40(%rbp)
	.loc	8 2070 18
	movq	-48(%rbp), %rdx
	movq	%rdx, -64(%rbp)
	.loc	8 2070 25
	movq	-40(%rbp), %rdx
	movq	%rdx, -56(%rbp)
Ltmp618:
	.loc	8 2071 22 is_stmt 1
	movq	-80(%rbp), %rsi
	movq	-72(%rbp), %rdx
	.loc	8 2071 13 is_stmt 0
	movq	%rax, %rdi
	callq	__ZN4core3str6traits105_$LT$impl$u20$core..slice..SliceIndex$LT$str$GT$$u20$for$u20$core..ops..range..RangeFrom$LT$usize$GT$$GT$3get17ha018c455c2f8e30aE
	movq	%rax, -112(%rbp)
	movq	%rdx, -120(%rbp)
	.loc	8 2071 44
	leaq	-80(%rbp), %rax
	movq	%rax, -32(%rbp)
	leaq	-64(%rbp), %rax
	movq	%rax, -24(%rbp)
	leaq	-56(%rbp), %rax
	movq	%rax, -16(%rbp)
	movq	-112(%rbp), %rdi
	movq	-120(%rbp), %rsi
	.loc	8 2071 13
	leaq	-32(%rbp), %rdx
	callq	__ZN4core6option15Option$LT$T$GT$14unwrap_or_else17hd06e48ee5b35e5d6E
	movq	%rax, -128(%rbp)
	movq	%rdx, -136(%rbp)
Ltmp619:
	.loc	8 0 13
	movq	-128(%rbp), %rax
	movq	-136(%rbp), %rdx
	.loc	8 2072 10 is_stmt 1
	addq	$144, %rsp
	popq	%rbp
	retq
Ltmp620:
Lfunc_end192:
	.cfi_endproc

	.p2align	4, 0x90
__ZN4core3str6traits105_$LT$impl$u20$core..slice..SliceIndex$LT$str$GT$$u20$for$u20$core..ops..range..RangeFrom$LT$usize$GT$$GT$5index28_$u7b$$u7b$closure$u7d$$u7d$17h1202bddaa767f579E:
Lfunc_begin193:
	.loc	8 2071 0
	.cfi_startproc
	pushq	%rbp
	.cfi_def_cfa_offset 16
	.cfi_offset %rbp, -16
	movq	%rsp, %rbp
	.cfi_def_cfa_register %rbp
Ltmp621:
	.loc	8 2071 71 prologue_end
	movq	(%rdi), %rax
	.loc	8 2071 78 is_stmt 0
	movq	8(%rdi), %rcx
	.loc	8 2071 71
	movq	(%rax), %rdx
	movq	8(%rax), %rsi
	.loc	8 2071 78
	movq	(%rcx), %rax
	.loc	8 2071 85
	movq	16(%rdi), %rcx
	movq	(%rcx), %rcx
	.loc	8 2071 47
	leaq	l___unnamed_3(%rip), %r8
	movq	%rdx, %rdi
Ltmp622:
	movq	%rax, %rdx
	callq	__ZN4core3str16slice_error_fail17ha125059561e5ce66E
Ltmp623:
Lfunc_end193:
	.cfi_endproc

	.p2align	4, 0x90
__ZN4core3str6traits54_$LT$impl$u20$core..cmp..PartialEq$u20$for$u20$str$GT$2eq17hf1e11c3cae4322fdE:
Lfunc_begin194:
	.loc	8 1742 0 is_stmt 1
	.cfi_startproc
	pushq	%rbp
	.cfi_def_cfa_offset 16
	.cfi_offset %rbp, -16
	movq	%rsp, %rbp
	.cfi_def_cfa_register %rbp
	subq	$160, %rsp
	movq	%rdi, -96(%rbp)
	movq	%rsi, -88(%rbp)
	movq	%rdx, -80(%rbp)
	movq	%rcx, -72(%rbp)
	movq	%rdi, -48(%rbp)
	movq	%rsi, -40(%rbp)
Ltmp624:
	.loc	8 2359 18 prologue_end
	movq	%rdi, -64(%rbp)
	movq	%rsi, -56(%rbp)
	movq	-64(%rbp), %rax
	movq	-56(%rbp), %rsi
Ltmp625:
	.loc	8 1743 13
	movq	%rsi, -120(%rbp)
	movq	%rax, -128(%rbp)
	movq	%rdx, -136(%rbp)
	movq	%rcx, -144(%rbp)
	.loc	8 0 13 is_stmt 0
	movq	-136(%rbp), %rax
	movq	%rax, -16(%rbp)
	movq	-144(%rbp), %rcx
	movq	%rcx, -8(%rbp)
Ltmp626:
	.loc	8 2359 18 is_stmt 1
	movq	%rax, -32(%rbp)
	movq	%rcx, -24(%rbp)
	movq	-32(%rbp), %rdx
	movq	-24(%rbp), %rsi
Ltmp627:
	.loc	8 1743 32
	movq	%rsi, -104(%rbp)
	movq	%rdx, -112(%rbp)
	.loc	8 1743 13 is_stmt 0
	leaq	-128(%rbp), %rdi
	leaq	-112(%rbp), %rsi
	callq	__ZN4core3cmp5impls69_$LT$impl$u20$core..cmp..PartialEq$LT$$RF$B$GT$$u20$for$u20$$RF$A$GT$2eq17hbbe5587340217b7fE
	movb	%al, -145(%rbp)
	.loc	8 0 13
	movb	-145(%rbp), %al
	.loc	8 1744 10 is_stmt 1
	andb	$1, %al
	movzbl	%al, %eax
	addq	$160, %rsp
	popq	%rbp
	retq
Ltmp628:
Lfunc_end194:
	.cfi_endproc

	.p2align	4, 0x90
__ZN4core3str6traits54_$LT$impl$u20$core..cmp..PartialEq$u20$for$u20$str$GT$2ne17h1c55a5ec955f3bc9E:
Lfunc_begin195:
	.loc	8 1746 0
	.cfi_startproc
	pushq	%rbp
	.cfi_def_cfa_offset 16
	.cfi_offset %rbp, -16
	movq	%rsp, %rbp
	.cfi_def_cfa_register %rbp
	subq	$48, %rsp
	movq	%rdi, -32(%rbp)
	movq	%rsi, -24(%rbp)
	movq	%rdx, -16(%rbp)
	movq	%rcx, -8(%rbp)
Ltmp629:
	.loc	8 1747 14 prologue_end
	callq	__ZN4core3str6traits54_$LT$impl$u20$core..cmp..PartialEq$u20$for$u20$str$GT$2eq17hf1e11c3cae4322fdE
	movb	%al, -33(%rbp)
	.loc	8 0 14 is_stmt 0
	movb	-33(%rbp), %al
	.loc	8 1747 13
	xorb	$-1, %al
	.loc	8 1748 10 is_stmt 1
	andb	$1, %al
	movzbl	%al, %eax
	addq	$48, %rsp
	popq	%rbp
	retq
Ltmp630:
Lfunc_end195:
	.cfi_endproc

	.p2align	4, 0x90
__ZN4core3str6traits66_$LT$impl$u20$core..ops..index..Index$LT$I$GT$$u20$for$u20$str$GT$5index17h52030cd575f0c375E:
Lfunc_begin196:
	.loc	8 1777 0
	.cfi_startproc
	pushq	%rbp
	.cfi_def_cfa_offset 16
	.cfi_offset %rbp, -16
	movq	%rsp, %rbp
	.cfi_def_cfa_register %rbp
	subq	$64, %rsp
	movq	%rdi, -24(%rbp)
	movq	%rsi, -16(%rbp)
	movq	%rdx, -8(%rbp)
	movq	%rdi, -32(%rbp)
Ltmp631:
	.loc	8 1778 13 prologue_end
	movq	%rdx, %rdi
	movq	-32(%rbp), %rax
	movq	%rsi, -40(%rbp)
	movq	%rax, %rsi
	movq	-40(%rbp), %rdx
	callq	__ZN4core3str6traits105_$LT$impl$u20$core..slice..SliceIndex$LT$str$GT$$u20$for$u20$core..ops..range..RangeFrom$LT$usize$GT$$GT$5index17hbfc266021c8bd952E
	movq	%rax, -48(%rbp)
	movq	%rdx, -56(%rbp)
	.loc	8 0 13 is_stmt 0
	movq	-48(%rbp), %rax
	movq	-56(%rbp), %rdx
	.loc	8 1779 10 is_stmt 1
	addq	$64, %rsp
	popq	%rbp
	retq
Ltmp632:
Lfunc_end196:
	.cfi_endproc

	.p2align	4, 0x90
__ZN4core3str7pattern14TwoWaySearcher16byteset_contains17hd9eaa768f0039bc9E:
Lfunc_begin197:
	.file	25 "/rustc/6c8927b0cf80ceee19386026cf9d7fd4fd9d486f/src/libcore/str/pattern.rs"
	.loc	25 1286 0
	.cfi_startproc
	pushq	%rbp
	.cfi_def_cfa_offset 16
	.cfi_offset %rbp, -16
	movq	%rsp, %rbp
	.cfi_def_cfa_register %rbp
	subq	$16, %rsp
	movq	%rdi, -16(%rbp)
	movb	%sil, -1(%rbp)
Ltmp633:
	.loc	25 1287 10 prologue_end
	movq	24(%rdi), %rax
	.loc	25 1287 27 is_stmt 0
	andb	$63, %sil
	.loc	25 1287 26
	movzbl	%sil, %ecx
	movl	%ecx, %edx
	.loc	25 1287 9
	andq	$63, %rdx
	movq	%rdx, %rcx
	shrq	%cl, %rax
	andq	$1, %rax
	cmpq	$0, %rax
	setne	%cl
	.loc	25 1288 6 is_stmt 1
	andb	$1, %cl
	movzbl	%cl, %eax
	addq	$16, %rsp
	popq	%rbp
	retq
Ltmp634:
Lfunc_end197:
	.cfi_endproc

	.p2align	4, 0x90
__ZN4core3str7pattern14TwoWaySearcher4next17h5861f49e5353bf64E:
Lfunc_begin198:
	.loc	25 1296 0
	.cfi_startproc
	pushq	%rbp
	.cfi_def_cfa_offset 16
	.cfi_offset %rbp, -16
	movq	%rsp, %rbp
	.cfi_def_cfa_register %rbp
	pushq	%rbx
	subq	$520, %rsp
	.cfi_offset %rbx, -24
	movq	%rdi, %rax
	movb	16(%rbp), %r10b
	movq	%rsi, -136(%rbp)
	movq	%rdx, -128(%rbp)
	movq	%rcx, -120(%rbp)
	movq	%r8, -112(%rbp)
	movq	%r9, -104(%rbp)
	movb	%r10b, %r11b
	andb	$1, %r11b
	movb	%r11b, -89(%rbp)
Ltmp635:
	.loc	25 1301 23 prologue_end
	movq	32(%rsi), %rbx
	movq	%rbx, -88(%rbp)
	movq	%rdi, -272(%rbp)
Ltmp636:
	.loc	25 1302 27
	movq	%r8, %rdi
	movq	%rsi, -280(%rbp)
	movq	%r9, %rsi
	movq	%r9, -288(%rbp)
	movq	%r8, -296(%rbp)
	movq	%rcx, -304(%rbp)
	movq	%rdx, -312(%rbp)
	movq	%rax, -320(%rbp)
	movb	%r10b, -321(%rbp)
	movq	%rbx, -336(%rbp)
	callq	__ZN4core5slice29_$LT$impl$u20$$u5b$T$u5d$$GT$3len17he68d0d86fa79f574E
	movq	%rax, -344(%rbp)
	.loc	25 0 27 is_stmt 0
	movq	-344(%rbp), %rax
	.loc	25 1302 27
	subq	$1, %rax
	movq	%rax, -80(%rbp)
	movq	%rax, -352(%rbp)
LBB198_2:
	.loc	25 0 27
	movq	-352(%rbp), %rax
	movq	-280(%rbp), %rcx
Ltmp637:
	.loc	25 1307 48 is_stmt 1
	addq	32(%rcx), %rax
	movq	-312(%rbp), %rdi
	movq	-304(%rbp), %rsi
	.loc	25 1307 35 is_stmt 0
	movq	%rax, %rdx
	callq	__ZN4core5slice29_$LT$impl$u20$$u5b$T$u5d$$GT$3get17hea1e839efea3f410E
	movq	%rax, -264(%rbp)
	.loc	25 1308 17 is_stmt 1
	movq	-264(%rbp), %rax
	testq	%rax, %rax
	setne	%cl
	movzbl	%cl, %edx
	movl	%edx, %eax
	je	LBB198_4
	jmp	LBB198_73
LBB198_73:
	jmp	LBB198_6
LBB198_4:
	.loc	25 0 17 is_stmt 0
	movq	-312(%rbp), %rdi
	movq	-304(%rbp), %rsi
	.loc	25 1310 37 is_stmt 1
	callq	__ZN4core5slice29_$LT$impl$u20$$u5b$T$u5d$$GT$3len17he68d0d86fa79f574E
	movq	%rax, -360(%rbp)
	jmp	LBB198_7
	.loc	25 1307 35
	ud2
LBB198_6:
	.loc	25 1308 23
	movq	-264(%rbp), %rax
	movb	(%rax), %cl
	movb	%cl, -66(%rbp)
Ltmp638:
	.loc	25 1308 29 is_stmt 0
	movb	%cl, -65(%rbp)
	movb	%cl, -361(%rbp)
Ltmp639:
	.loc	25 1315 16 is_stmt 1
	callq	__ZN84_$LT$core..str..pattern..MatchOnly$u20$as$u20$core..str..pattern..TwoWayStrategy$GT$16use_early_reject17h3088036cc960562bE
	movb	%al, -362(%rbp)
	jmp	LBB198_14
Ltmp640:
LBB198_7:
	.loc	25 0 16 is_stmt 0
	movq	-280(%rbp), %rax
	movq	-360(%rbp), %rcx
	.loc	25 1310 21 is_stmt 1
	movq	%rcx, 32(%rax)
	.loc	25 1311 50
	movq	32(%rax), %rdx
	movq	-272(%rbp), %rdi
	movq	-336(%rbp), %rsi
	.loc	25 1311 28 is_stmt 0
	callq	__ZN84_$LT$core..str..pattern..MatchOnly$u20$as$u20$core..str..pattern..TwoWayStrategy$GT$9rejecting17hde8f040f44c0e0ffE
	.loc	25 1311 21
	jmp	LBB198_9
Ltmp641:
LBB198_9:
	.loc	25 0 21
	movq	-320(%rbp), %rax
	.loc	25 1364 6 is_stmt 1
	addq	$520, %rsp
	popq	%rbx
	popq	%rbp
	retq
LBB198_10:
Ltmp642:
	.loc	25 1315 16
	movb	$1, -249(%rbp)
	jmp	LBB198_13
LBB198_11:
	movb	$0, -249(%rbp)
	jmp	LBB198_13
LBB198_12:
	.loc	25 0 16 is_stmt 0
	movq	-336(%rbp), %rax
	movq	-280(%rbp), %rcx
	.loc	25 1315 41
	cmpq	32(%rcx), %rax
	.loc	25 1315 16
	jne	LBB198_10
	jmp	LBB198_11
LBB198_13:
	.loc	25 1315 13
	testb	$1, -249(%rbp)
	jne	LBB198_16
	jmp	LBB198_15
LBB198_14:
	.loc	25 0 13
	movb	-362(%rbp), %al
	.loc	25 1315 16
	testb	$1, %al
	jne	LBB198_12
	jmp	LBB198_11
LBB198_15:
	.loc	25 0 16
	movq	-280(%rbp), %rdi
	movb	-361(%rbp), %al
	.loc	25 1320 17 is_stmt 1
	movzbl	%al, %esi
	callq	__ZN4core3str7pattern14TwoWaySearcher16byteset_contains17hd9eaa768f0039bc9E
	movb	%al, -363(%rbp)
	jmp	LBB198_18
LBB198_16:
	.loc	25 0 17 is_stmt 0
	movq	-280(%rbp), %rax
	.loc	25 1316 46 is_stmt 1
	movq	32(%rax), %rdx
	movq	-272(%rbp), %rdi
	movq	-336(%rbp), %rsi
	.loc	25 1316 24 is_stmt 0
	callq	__ZN84_$LT$core..str..pattern..MatchOnly$u20$as$u20$core..str..pattern..TwoWayStrategy$GT$9rejecting17hde8f040f44c0e0ffE
Ltmp643:
	.loc	25 1316 17
	jmp	LBB198_9
LBB198_18:
	.loc	25 0 17
	movb	-363(%rbp), %al
Ltmp644:
	.loc	25 1320 16 is_stmt 1
	xorb	$-1, %al
	.loc	25 1320 13 is_stmt 0
	testb	$1, %al
	jne	LBB198_20
	.loc	25 0 13
	movb	-321(%rbp), %al
	.loc	25 1330 17 is_stmt 1
	testb	$1, %al
	jne	LBB198_27
	jmp	LBB198_26
LBB198_20:
	.loc	25 0 17 is_stmt 0
	movq	-296(%rbp), %rdi
	movq	-288(%rbp), %rsi
	.loc	25 1321 34 is_stmt 1
	callq	__ZN4core5slice29_$LT$impl$u20$$u5b$T$u5d$$GT$3len17he68d0d86fa79f574E
	movq	%rax, -376(%rbp)
	.loc	25 0 34 is_stmt 0
	movq	-376(%rbp), %rax
	movq	-280(%rbp), %rcx
	.loc	25 1321 17
	addq	32(%rcx), %rax
	movq	%rax, 32(%rcx)
	movb	-321(%rbp), %dl
	.loc	25 1322 20 is_stmt 1
	xorb	$-1, %dl
	.loc	25 1322 17 is_stmt 0
	testb	$1, %dl
	jne	LBB198_23
	jmp	LBB198_24
LBB198_23:
	.loc	25 0 17
	movq	-280(%rbp), %rax
	.loc	25 1323 21 is_stmt 1
	movq	$0, 48(%rax)
Ltmp645:
LBB198_24:
	.loc	25 1325 17
	jmp	LBB198_25
LBB198_25:
	jmp	LBB198_2
LBB198_26:
	.loc	25 0 17 is_stmt 0
	movq	-280(%rbp), %rax
Ltmp646:
	.loc	25 1330 66 is_stmt 1
	movq	(%rax), %rdi
	.loc	25 1330 81 is_stmt 0
	movq	48(%rax), %rsi
	.loc	25 1330 57
	callq	__ZN4core3cmp3max17he2bfd540395da66dE
	movq	%rax, -248(%rbp)
	jmp	LBB198_28
LBB198_27:
	.loc	25 0 57
	movq	-280(%rbp), %rax
	.loc	25 1330 34
	movq	(%rax), %rcx
	movq	%rcx, -248(%rbp)
	.loc	25 1330 17
	jmp	LBB198_29
LBB198_28:
	jmp	LBB198_29
LBB198_29:
Ltmp647:
	.loc	25 1331 22 is_stmt 1
	movq	-248(%rbp), %rax
	movq	-296(%rbp), %rdi
	movq	-288(%rbp), %rsi
	movq	%rax, -384(%rbp)
	.loc	25 1331 29 is_stmt 0
	callq	__ZN4core5slice29_$LT$impl$u20$$u5b$T$u5d$$GT$3len17he68d0d86fa79f574E
	movq	%rax, -392(%rbp)
	.loc	25 0 29
	movq	-384(%rbp), %rax
	.loc	25 1331 22
	movq	%rax, -240(%rbp)
	movq	-392(%rbp), %rcx
	movq	%rcx, -232(%rbp)
	movq	-240(%rbp), %rdi
	movq	-232(%rbp), %rsi
	callq	__ZN63_$LT$I$u20$as$u20$core..iter..traits..collect..IntoIterator$GT$9into_iter17h726dd46b80cb4f31E
	movq	%rax, -400(%rbp)
	movq	%rdx, -408(%rbp)
	.loc	25 0 22
	movq	-400(%rbp), %rax
	.loc	25 1331 22
	movq	%rax, -224(%rbp)
	movq	-408(%rbp), %rcx
	movq	%rcx, -216(%rbp)
LBB198_32:
	.loc	25 0 22
	leaq	-224(%rbp), %rdi
Ltmp648:
	.loc	25 1331 22
	callq	__ZN4core4iter5range101_$LT$impl$u20$core..iter..traits..iterator..Iterator$u20$for$u20$core..ops..range..Range$LT$A$GT$$GT$4next17h77ff4d6442248e36E
	movq	%rdx, -200(%rbp)
	movq	%rax, -208(%rbp)
	.loc	25 1331 17
	movq	-208(%rbp), %rax
	testq	%rax, %rax
	je	LBB198_34
	jmp	LBB198_74
LBB198_74:
	jmp	LBB198_36
Ltmp649:
LBB198_34:
	.loc	25 0 17
	movb	-321(%rbp), %al
	.loc	25 1342 25 is_stmt 1
	testb	$1, %al
	jne	LBB198_46
	jmp	LBB198_45
Ltmp650:
	.loc	25 1331 22
	ud2
LBB198_36:
	.loc	25 1331 17 is_stmt 0
	movq	-200(%rbp), %rax
	movq	%rax, -64(%rbp)
Ltmp651:
	.loc	25 1331 17
	movq	%rax, -56(%rbp)
Ltmp652:
	.loc	25 1331 22
	movq	%rax, -48(%rbp)
	movq	-288(%rbp), %rcx
Ltmp653:
	.loc	25 1332 20 is_stmt 1
	cmpq	%rcx, %rax
	setb	%dl
	testb	$1, %dl
	movq	%rax, -416(%rbp)
	jne	LBB198_37
	jmp	LBB198_69
LBB198_37:
	.loc	25 0 20 is_stmt 0
	movq	-296(%rbp), %rax
	movq	-416(%rbp), %rcx
	.loc	25 1332 20
	movb	(%rax,%rcx), %dl
	movq	-280(%rbp), %rsi
	.loc	25 1332 42
	addq	32(%rsi), %rcx
	movq	-304(%rbp), %rdi
	.loc	25 1332 33
	cmpq	%rdi, %rcx
	setb	%r8b
	testb	$1, %r8b
	movb	%dl, -417(%rbp)
	movq	%rcx, -432(%rbp)
	jne	LBB198_38
	jmp	LBB198_70
LBB198_38:
	.loc	25 0 33
	movb	-417(%rbp), %al
	movq	-312(%rbp), %rcx
	movq	-432(%rbp), %rdx
	.loc	25 1332 20
	cmpb	(%rcx,%rdx), %al
	.loc	25 1332 17
	jne	LBB198_40
Ltmp654:
	.loc	25 1331 13 is_stmt 1
	jmp	LBB198_32
LBB198_40:
	.loc	25 0 13 is_stmt 0
	movq	-416(%rbp), %rax
	movq	-280(%rbp), %rcx
Ltmp655:
	.loc	25 1333 38 is_stmt 1
	subq	(%rcx), %rax
	addq	$1, %rax
	.loc	25 1333 21 is_stmt 0
	addq	32(%rcx), %rax
	movq	%rax, 32(%rcx)
	movb	-321(%rbp), %dl
	.loc	25 1334 24 is_stmt 1
	xorb	$-1, %dl
	.loc	25 1334 21 is_stmt 0
	testb	$1, %dl
	jne	LBB198_42
	jmp	LBB198_43
LBB198_42:
	.loc	25 0 21
	movq	-280(%rbp), %rax
	.loc	25 1335 25 is_stmt 1
	movq	$0, 48(%rax)
Ltmp656:
LBB198_43:
	.loc	25 1337 21
	jmp	LBB198_44
Ltmp657:
LBB198_44:
	.loc	25 1337 21 is_stmt 0
	jmp	LBB198_25
LBB198_45:
	.loc	25 0 21
	movq	-280(%rbp), %rax
Ltmp658:
	.loc	25 1342 53 is_stmt 1
	movq	48(%rax), %rcx
	movq	%rcx, -192(%rbp)
	.loc	25 1342 25 is_stmt 0
	jmp	LBB198_47
LBB198_46:
	.loc	25 1342 42
	movq	$0, -192(%rbp)
LBB198_47:
Ltmp659:
	.loc	25 1343 23 is_stmt 1
	movq	-192(%rbp), %rax
	movq	-280(%rbp), %rcx
	.loc	25 1343 30 is_stmt 0
	movq	(%rcx), %rdx
	.loc	25 1343 22
	movq	%rax, -184(%rbp)
	movq	%rdx, -176(%rbp)
	movq	-184(%rbp), %rdi
	movq	-176(%rbp), %rsi
	callq	__ZN4core4iter6traits8iterator8Iterator3rev17hdcf481ea50604223E
	movq	%rax, -440(%rbp)
	movq	%rdx, -448(%rbp)
	.loc	25 0 22
	movq	-440(%rbp), %rdi
	movq	-448(%rbp), %rsi
	.loc	25 1343 22
	callq	__ZN63_$LT$I$u20$as$u20$core..iter..traits..collect..IntoIterator$GT$9into_iter17h3fd498e88855d922E
	movq	%rax, -456(%rbp)
	movq	%rdx, -464(%rbp)
	.loc	25 0 22
	movq	-456(%rbp), %rax
	.loc	25 1343 22
	movq	%rax, -168(%rbp)
	movq	-464(%rbp), %rcx
	movq	%rcx, -160(%rbp)
LBB198_50:
	.loc	25 0 22
	leaq	-168(%rbp), %rdi
Ltmp660:
	.loc	25 1343 22
	callq	__ZN93_$LT$core..iter..adapters..Rev$LT$I$GT$$u20$as$u20$core..iter..traits..iterator..Iterator$GT$4next17h00418e31fe0076b1E
	movq	%rdx, -144(%rbp)
	movq	%rax, -152(%rbp)
	.loc	25 1343 17
	movq	-152(%rbp), %rax
	testq	%rax, %rax
	je	LBB198_52
	jmp	LBB198_75
LBB198_75:
	jmp	LBB198_54
Ltmp661:
LBB198_52:
	.loc	25 0 17
	movq	-280(%rbp), %rax
	.loc	25 1354 29 is_stmt 1
	movq	32(%rax), %rcx
	movq	%rcx, -16(%rbp)
	movq	-296(%rbp), %rdi
	movq	-288(%rbp), %rsi
	movq	%rcx, -472(%rbp)
Ltmp662:
	.loc	25 1357 30
	callq	__ZN4core5slice29_$LT$impl$u20$$u5b$T$u5d$$GT$3len17he68d0d86fa79f574E
	movq	%rax, -480(%rbp)
	jmp	LBB198_63
Ltmp663:
	.loc	25 1343 22
	ud2
LBB198_54:
	.loc	25 1343 17 is_stmt 0
	movq	-144(%rbp), %rax
	movq	%rax, -40(%rbp)
Ltmp664:
	.loc	25 1343 17
	movq	%rax, -32(%rbp)
Ltmp665:
	.loc	25 1343 22
	movq	%rax, -24(%rbp)
	movq	-288(%rbp), %rcx
Ltmp666:
	.loc	25 1344 20 is_stmt 1
	cmpq	%rcx, %rax
	setb	%dl
	testb	$1, %dl
	movq	%rax, -488(%rbp)
	jne	LBB198_55
	jmp	LBB198_71
LBB198_55:
	.loc	25 0 20 is_stmt 0
	movq	-296(%rbp), %rax
	movq	-488(%rbp), %rcx
	.loc	25 1344 20
	movb	(%rax,%rcx), %dl
	movq	-280(%rbp), %rsi
	.loc	25 1344 42
	addq	32(%rsi), %rcx
	movq	-304(%rbp), %rdi
	.loc	25 1344 33
	cmpq	%rdi, %rcx
	setb	%r8b
	testb	$1, %r8b
	movb	%dl, -489(%rbp)
	movq	%rcx, -504(%rbp)
	jne	LBB198_56
	jmp	LBB198_72
LBB198_56:
	.loc	25 0 33
	movb	-489(%rbp), %al
	movq	-312(%rbp), %rcx
	movq	-504(%rbp), %rdx
	.loc	25 1344 20
	cmpb	(%rcx,%rdx), %al
	.loc	25 1344 17
	jne	LBB198_58
Ltmp667:
	.loc	25 1343 13 is_stmt 1
	jmp	LBB198_50
LBB198_58:
	.loc	25 0 13 is_stmt 0
	movq	-280(%rbp), %rax
Ltmp668:
	.loc	25 1345 38 is_stmt 1
	movq	16(%rax), %rcx
	.loc	25 1345 21 is_stmt 0
	addq	32(%rax), %rcx
	movq	%rcx, 32(%rax)
	movb	-321(%rbp), %dl
	.loc	25 1346 24 is_stmt 1
	xorb	$-1, %dl
	.loc	25 1346 21 is_stmt 0
	testb	$1, %dl
	jne	LBB198_60
	jmp	LBB198_62
LBB198_60:
	.loc	25 0 21
	movq	-296(%rbp), %rdi
	movq	-288(%rbp), %rsi
	.loc	25 1347 39 is_stmt 1
	callq	__ZN4core5slice29_$LT$impl$u20$$u5b$T$u5d$$GT$3len17he68d0d86fa79f574E
	movq	%rax, -512(%rbp)
	.loc	25 0 39 is_stmt 0
	movq	-512(%rbp), %rax
	movq	-280(%rbp), %rcx
	.loc	25 1347 25
	subq	16(%rcx), %rax
	movq	%rax, 48(%rcx)
Ltmp669:
LBB198_62:
	.loc	25 1349 21 is_stmt 1
	jmp	LBB198_44
LBB198_63:
	.loc	25 0 21 is_stmt 0
	movq	-480(%rbp), %rax
	movq	-280(%rbp), %rcx
Ltmp670:
	.loc	25 1357 13 is_stmt 1
	addq	32(%rcx), %rax
	movq	%rax, 32(%rcx)
	movb	-321(%rbp), %dl
	.loc	25 1358 16
	xorb	$-1, %dl
	.loc	25 1358 13 is_stmt 0
	testb	$1, %dl
	jne	LBB198_65
	jmp	LBB198_66
LBB198_65:
	.loc	25 0 13
	movq	-280(%rbp), %rax
	.loc	25 1359 17 is_stmt 1
	movq	$0, 48(%rax)
LBB198_66:
	.loc	25 0 17 is_stmt 0
	movq	-296(%rbp), %rdi
	movq	-288(%rbp), %rsi
	.loc	25 1362 55 is_stmt 1
	callq	__ZN4core5slice29_$LT$impl$u20$$u5b$T$u5d$$GT$3len17he68d0d86fa79f574E
	movq	%rax, -520(%rbp)
	.loc	25 0 55 is_stmt 0
	movq	-472(%rbp), %rax
	movq	-520(%rbp), %rcx
	.loc	25 1362 43
	addq	%rcx, %rax
	movq	-272(%rbp), %rdi
	movq	-472(%rbp), %rsi
	.loc	25 1362 20
	movq	%rax, %rdx
	callq	__ZN84_$LT$core..str..pattern..MatchOnly$u20$as$u20$core..str..pattern..TwoWayStrategy$GT$8matching17h214ee66fc33cb209E
Ltmp671:
	.loc	25 1362 13
	jmp	LBB198_9
LBB198_69:
Ltmp672:
	.loc	25 1332 20 is_stmt 1
	leaq	l___unnamed_4(%rip), %rdx
	movq	-416(%rbp), %rdi
	movq	-288(%rbp), %rsi
	callq	__ZN4core9panicking18panic_bounds_check17he87128426d100e93E
LBB198_70:
	.loc	25 1332 33 is_stmt 0
	leaq	l___unnamed_5(%rip), %rdx
	movq	-432(%rbp), %rdi
	movq	-304(%rbp), %rsi
	callq	__ZN4core9panicking18panic_bounds_check17he87128426d100e93E
Ltmp673:
LBB198_71:
	.loc	25 1344 20 is_stmt 1
	leaq	l___unnamed_6(%rip), %rdx
	movq	-488(%rbp), %rdi
	movq	-288(%rbp), %rsi
	callq	__ZN4core9panicking18panic_bounds_check17he87128426d100e93E
LBB198_72:
	.loc	25 1344 33 is_stmt 0
	leaq	l___unnamed_7(%rip), %rdx
	movq	-504(%rbp), %rdi
	movq	-304(%rbp), %rsi
	callq	__ZN4core9panicking18panic_bounds_check17he87128426d100e93E
Ltmp674:
Lfunc_end198:
	.cfi_endproc

	.p2align	4, 0x90
__ZN4core3str7pattern14TwoWaySearcher4next17h9c43c11c6db6742fE:
Lfunc_begin199:
	.loc	25 1296 0 is_stmt 1
	.cfi_startproc
	pushq	%rbp
	.cfi_def_cfa_offset 16
	.cfi_offset %rbp, -16
	movq	%rsp, %rbp
	.cfi_def_cfa_register %rbp
	pushq	%rbx
	subq	$520, %rsp
	.cfi_offset %rbx, -24
	movq	%rdi, %rax
	movb	16(%rbp), %r10b
	movq	%rsi, -136(%rbp)
	movq	%rdx, -128(%rbp)
	movq	%rcx, -120(%rbp)
	movq	%r8, -112(%rbp)
	movq	%r9, -104(%rbp)
	movb	%r10b, %r11b
	andb	$1, %r11b
	movb	%r11b, -89(%rbp)
Ltmp675:
	.loc	25 1301 23 prologue_end
	movq	32(%rsi), %rbx
	movq	%rbx, -88(%rbp)
	movq	%rdi, -272(%rbp)
Ltmp676:
	.loc	25 1302 27
	movq	%r8, %rdi
	movq	%rsi, -280(%rbp)
	movq	%r9, %rsi
	movq	%r9, -288(%rbp)
	movq	%r8, -296(%rbp)
	movq	%rcx, -304(%rbp)
	movq	%rdx, -312(%rbp)
	movq	%rax, -320(%rbp)
	movb	%r10b, -321(%rbp)
	movq	%rbx, -336(%rbp)
	callq	__ZN4core5slice29_$LT$impl$u20$$u5b$T$u5d$$GT$3len17he68d0d86fa79f574E
	movq	%rax, -344(%rbp)
	.loc	25 0 27 is_stmt 0
	movq	-344(%rbp), %rax
	.loc	25 1302 27
	subq	$1, %rax
	movq	%rax, -80(%rbp)
	movq	%rax, -352(%rbp)
LBB199_2:
	.loc	25 0 27
	movq	-352(%rbp), %rax
	movq	-280(%rbp), %rcx
Ltmp677:
	.loc	25 1307 48 is_stmt 1
	addq	32(%rcx), %rax
	movq	-312(%rbp), %rdi
	movq	-304(%rbp), %rsi
	.loc	25 1307 35 is_stmt 0
	movq	%rax, %rdx
	callq	__ZN4core5slice29_$LT$impl$u20$$u5b$T$u5d$$GT$3get17hea1e839efea3f410E
	movq	%rax, -264(%rbp)
	.loc	25 1308 17 is_stmt 1
	movq	-264(%rbp), %rax
	testq	%rax, %rax
	setne	%cl
	movzbl	%cl, %edx
	movl	%edx, %eax
	je	LBB199_4
	jmp	LBB199_73
LBB199_73:
	jmp	LBB199_6
LBB199_4:
	.loc	25 0 17 is_stmt 0
	movq	-312(%rbp), %rdi
	movq	-304(%rbp), %rsi
	.loc	25 1310 37 is_stmt 1
	callq	__ZN4core5slice29_$LT$impl$u20$$u5b$T$u5d$$GT$3len17he68d0d86fa79f574E
	movq	%rax, -360(%rbp)
	jmp	LBB199_7
	.loc	25 1307 35
	ud2
LBB199_6:
	.loc	25 1308 23
	movq	-264(%rbp), %rax
	movb	(%rax), %cl
	movb	%cl, -66(%rbp)
Ltmp678:
	.loc	25 1308 29 is_stmt 0
	movb	%cl, -65(%rbp)
	movb	%cl, -361(%rbp)
Ltmp679:
	.loc	25 1315 16 is_stmt 1
	callq	__ZN89_$LT$core..str..pattern..RejectAndMatch$u20$as$u20$core..str..pattern..TwoWayStrategy$GT$16use_early_reject17h672be637971133a2E
	movb	%al, -362(%rbp)
	jmp	LBB199_14
Ltmp680:
LBB199_7:
	.loc	25 0 16 is_stmt 0
	movq	-280(%rbp), %rax
	movq	-360(%rbp), %rcx
	.loc	25 1310 21 is_stmt 1
	movq	%rcx, 32(%rax)
	.loc	25 1311 50
	movq	32(%rax), %rdx
	movq	-272(%rbp), %rdi
	movq	-336(%rbp), %rsi
	.loc	25 1311 28 is_stmt 0
	callq	__ZN89_$LT$core..str..pattern..RejectAndMatch$u20$as$u20$core..str..pattern..TwoWayStrategy$GT$9rejecting17h7816a41af65935d5E
	.loc	25 1311 21
	jmp	LBB199_9
Ltmp681:
LBB199_9:
	.loc	25 0 21
	movq	-320(%rbp), %rax
	.loc	25 1364 6 is_stmt 1
	addq	$520, %rsp
	popq	%rbx
	popq	%rbp
	retq
LBB199_10:
Ltmp682:
	.loc	25 1315 16
	movb	$1, -249(%rbp)
	jmp	LBB199_13
LBB199_11:
	movb	$0, -249(%rbp)
	jmp	LBB199_13
LBB199_12:
	.loc	25 0 16 is_stmt 0
	movq	-336(%rbp), %rax
	movq	-280(%rbp), %rcx
	.loc	25 1315 41
	cmpq	32(%rcx), %rax
	.loc	25 1315 16
	jne	LBB199_10
	jmp	LBB199_11
LBB199_13:
	.loc	25 1315 13
	testb	$1, -249(%rbp)
	jne	LBB199_16
	jmp	LBB199_15
LBB199_14:
	.loc	25 0 13
	movb	-362(%rbp), %al
	.loc	25 1315 16
	testb	$1, %al
	jne	LBB199_12
	jmp	LBB199_11
LBB199_15:
	.loc	25 0 16
	movq	-280(%rbp), %rdi
	movb	-361(%rbp), %al
	.loc	25 1320 17 is_stmt 1
	movzbl	%al, %esi
	callq	__ZN4core3str7pattern14TwoWaySearcher16byteset_contains17hd9eaa768f0039bc9E
	movb	%al, -363(%rbp)
	jmp	LBB199_18
LBB199_16:
	.loc	25 0 17 is_stmt 0
	movq	-280(%rbp), %rax
	.loc	25 1316 46 is_stmt 1
	movq	32(%rax), %rdx
	movq	-272(%rbp), %rdi
	movq	-336(%rbp), %rsi
	.loc	25 1316 24 is_stmt 0
	callq	__ZN89_$LT$core..str..pattern..RejectAndMatch$u20$as$u20$core..str..pattern..TwoWayStrategy$GT$9rejecting17h7816a41af65935d5E
Ltmp683:
	.loc	25 1316 17
	jmp	LBB199_9
LBB199_18:
	.loc	25 0 17
	movb	-363(%rbp), %al
Ltmp684:
	.loc	25 1320 16 is_stmt 1
	xorb	$-1, %al
	.loc	25 1320 13 is_stmt 0
	testb	$1, %al
	jne	LBB199_20
	.loc	25 0 13
	movb	-321(%rbp), %al
	.loc	25 1330 17 is_stmt 1
	testb	$1, %al
	jne	LBB199_27
	jmp	LBB199_26
LBB199_20:
	.loc	25 0 17 is_stmt 0
	movq	-296(%rbp), %rdi
	movq	-288(%rbp), %rsi
	.loc	25 1321 34 is_stmt 1
	callq	__ZN4core5slice29_$LT$impl$u20$$u5b$T$u5d$$GT$3len17he68d0d86fa79f574E
	movq	%rax, -376(%rbp)
	.loc	25 0 34 is_stmt 0
	movq	-376(%rbp), %rax
	movq	-280(%rbp), %rcx
	.loc	25 1321 17
	addq	32(%rcx), %rax
	movq	%rax, 32(%rcx)
	movb	-321(%rbp), %dl
	.loc	25 1322 20 is_stmt 1
	xorb	$-1, %dl
	.loc	25 1322 17 is_stmt 0
	testb	$1, %dl
	jne	LBB199_23
	jmp	LBB199_24
LBB199_23:
	.loc	25 0 17
	movq	-280(%rbp), %rax
	.loc	25 1323 21 is_stmt 1
	movq	$0, 48(%rax)
Ltmp685:
LBB199_24:
	.loc	25 1325 17
	jmp	LBB199_25
LBB199_25:
	jmp	LBB199_2
LBB199_26:
	.loc	25 0 17 is_stmt 0
	movq	-280(%rbp), %rax
Ltmp686:
	.loc	25 1330 66 is_stmt 1
	movq	(%rax), %rdi
	.loc	25 1330 81 is_stmt 0
	movq	48(%rax), %rsi
	.loc	25 1330 57
	callq	__ZN4core3cmp3max17he2bfd540395da66dE
	movq	%rax, -248(%rbp)
	jmp	LBB199_28
LBB199_27:
	.loc	25 0 57
	movq	-280(%rbp), %rax
	.loc	25 1330 34
	movq	(%rax), %rcx
	movq	%rcx, -248(%rbp)
	.loc	25 1330 17
	jmp	LBB199_29
LBB199_28:
	jmp	LBB199_29
LBB199_29:
Ltmp687:
	.loc	25 1331 22 is_stmt 1
	movq	-248(%rbp), %rax
	movq	-296(%rbp), %rdi
	movq	-288(%rbp), %rsi
	movq	%rax, -384(%rbp)
	.loc	25 1331 29 is_stmt 0
	callq	__ZN4core5slice29_$LT$impl$u20$$u5b$T$u5d$$GT$3len17he68d0d86fa79f574E
	movq	%rax, -392(%rbp)
	.loc	25 0 29
	movq	-384(%rbp), %rax
	.loc	25 1331 22
	movq	%rax, -240(%rbp)
	movq	-392(%rbp), %rcx
	movq	%rcx, -232(%rbp)
	movq	-240(%rbp), %rdi
	movq	-232(%rbp), %rsi
	callq	__ZN63_$LT$I$u20$as$u20$core..iter..traits..collect..IntoIterator$GT$9into_iter17h726dd46b80cb4f31E
	movq	%rax, -400(%rbp)
	movq	%rdx, -408(%rbp)
	.loc	25 0 22
	movq	-400(%rbp), %rax
	.loc	25 1331 22
	movq	%rax, -224(%rbp)
	movq	-408(%rbp), %rcx
	movq	%rcx, -216(%rbp)
LBB199_32:
	.loc	25 0 22
	leaq	-224(%rbp), %rdi
Ltmp688:
	.loc	25 1331 22
	callq	__ZN4core4iter5range101_$LT$impl$u20$core..iter..traits..iterator..Iterator$u20$for$u20$core..ops..range..Range$LT$A$GT$$GT$4next17h77ff4d6442248e36E
	movq	%rdx, -200(%rbp)
	movq	%rax, -208(%rbp)
	.loc	25 1331 17
	movq	-208(%rbp), %rax
	testq	%rax, %rax
	je	LBB199_34
	jmp	LBB199_74
LBB199_74:
	jmp	LBB199_36
Ltmp689:
LBB199_34:
	.loc	25 0 17
	movb	-321(%rbp), %al
	.loc	25 1342 25 is_stmt 1
	testb	$1, %al
	jne	LBB199_46
	jmp	LBB199_45
Ltmp690:
	.loc	25 1331 22
	ud2
LBB199_36:
	.loc	25 1331 17 is_stmt 0
	movq	-200(%rbp), %rax
	movq	%rax, -64(%rbp)
Ltmp691:
	.loc	25 1331 17
	movq	%rax, -56(%rbp)
Ltmp692:
	.loc	25 1331 22
	movq	%rax, -48(%rbp)
	movq	-288(%rbp), %rcx
Ltmp693:
	.loc	25 1332 20 is_stmt 1
	cmpq	%rcx, %rax
	setb	%dl
	testb	$1, %dl
	movq	%rax, -416(%rbp)
	jne	LBB199_37
	jmp	LBB199_69
LBB199_37:
	.loc	25 0 20 is_stmt 0
	movq	-296(%rbp), %rax
	movq	-416(%rbp), %rcx
	.loc	25 1332 20
	movb	(%rax,%rcx), %dl
	movq	-280(%rbp), %rsi
	.loc	25 1332 42
	addq	32(%rsi), %rcx
	movq	-304(%rbp), %rdi
	.loc	25 1332 33
	cmpq	%rdi, %rcx
	setb	%r8b
	testb	$1, %r8b
	movb	%dl, -417(%rbp)
	movq	%rcx, -432(%rbp)
	jne	LBB199_38
	jmp	LBB199_70
LBB199_38:
	.loc	25 0 33
	movb	-417(%rbp), %al
	movq	-312(%rbp), %rcx
	movq	-432(%rbp), %rdx
	.loc	25 1332 20
	cmpb	(%rcx,%rdx), %al
	.loc	25 1332 17
	jne	LBB199_40
Ltmp694:
	.loc	25 1331 13 is_stmt 1
	jmp	LBB199_32
LBB199_40:
	.loc	25 0 13 is_stmt 0
	movq	-416(%rbp), %rax
	movq	-280(%rbp), %rcx
Ltmp695:
	.loc	25 1333 38 is_stmt 1
	subq	(%rcx), %rax
	addq	$1, %rax
	.loc	25 1333 21 is_stmt 0
	addq	32(%rcx), %rax
	movq	%rax, 32(%rcx)
	movb	-321(%rbp), %dl
	.loc	25 1334 24 is_stmt 1
	xorb	$-1, %dl
	.loc	25 1334 21 is_stmt 0
	testb	$1, %dl
	jne	LBB199_42
	jmp	LBB199_43
LBB199_42:
	.loc	25 0 21
	movq	-280(%rbp), %rax
	.loc	25 1335 25 is_stmt 1
	movq	$0, 48(%rax)
Ltmp696:
LBB199_43:
	.loc	25 1337 21
	jmp	LBB199_44
Ltmp697:
LBB199_44:
	.loc	25 1337 21 is_stmt 0
	jmp	LBB199_25
LBB199_45:
	.loc	25 0 21
	movq	-280(%rbp), %rax
Ltmp698:
	.loc	25 1342 53 is_stmt 1
	movq	48(%rax), %rcx
	movq	%rcx, -192(%rbp)
	.loc	25 1342 25 is_stmt 0
	jmp	LBB199_47
LBB199_46:
	.loc	25 1342 42
	movq	$0, -192(%rbp)
LBB199_47:
Ltmp699:
	.loc	25 1343 23 is_stmt 1
	movq	-192(%rbp), %rax
	movq	-280(%rbp), %rcx
	.loc	25 1343 30 is_stmt 0
	movq	(%rcx), %rdx
	.loc	25 1343 22
	movq	%rax, -184(%rbp)
	movq	%rdx, -176(%rbp)
	movq	-184(%rbp), %rdi
	movq	-176(%rbp), %rsi
	callq	__ZN4core4iter6traits8iterator8Iterator3rev17hdcf481ea50604223E
	movq	%rax, -440(%rbp)
	movq	%rdx, -448(%rbp)
	.loc	25 0 22
	movq	-440(%rbp), %rdi
	movq	-448(%rbp), %rsi
	.loc	25 1343 22
	callq	__ZN63_$LT$I$u20$as$u20$core..iter..traits..collect..IntoIterator$GT$9into_iter17h3fd498e88855d922E
	movq	%rax, -456(%rbp)
	movq	%rdx, -464(%rbp)
	.loc	25 0 22
	movq	-456(%rbp), %rax
	.loc	25 1343 22
	movq	%rax, -168(%rbp)
	movq	-464(%rbp), %rcx
	movq	%rcx, -160(%rbp)
LBB199_50:
	.loc	25 0 22
	leaq	-168(%rbp), %rdi
Ltmp700:
	.loc	25 1343 22
	callq	__ZN93_$LT$core..iter..adapters..Rev$LT$I$GT$$u20$as$u20$core..iter..traits..iterator..Iterator$GT$4next17h00418e31fe0076b1E
	movq	%rdx, -144(%rbp)
	movq	%rax, -152(%rbp)
	.loc	25 1343 17
	movq	-152(%rbp), %rax
	testq	%rax, %rax
	je	LBB199_52
	jmp	LBB199_75
LBB199_75:
	jmp	LBB199_54
Ltmp701:
LBB199_52:
	.loc	25 0 17
	movq	-280(%rbp), %rax
	.loc	25 1354 29 is_stmt 1
	movq	32(%rax), %rcx
	movq	%rcx, -16(%rbp)
	movq	-296(%rbp), %rdi
	movq	-288(%rbp), %rsi
	movq	%rcx, -472(%rbp)
Ltmp702:
	.loc	25 1357 30
	callq	__ZN4core5slice29_$LT$impl$u20$$u5b$T$u5d$$GT$3len17he68d0d86fa79f574E
	movq	%rax, -480(%rbp)
	jmp	LBB199_63
Ltmp703:
	.loc	25 1343 22
	ud2
LBB199_54:
	.loc	25 1343 17 is_stmt 0
	movq	-144(%rbp), %rax
	movq	%rax, -40(%rbp)
Ltmp704:
	.loc	25 1343 17
	movq	%rax, -32(%rbp)
Ltmp705:
	.loc	25 1343 22
	movq	%rax, -24(%rbp)
	movq	-288(%rbp), %rcx
Ltmp706:
	.loc	25 1344 20 is_stmt 1
	cmpq	%rcx, %rax
	setb	%dl
	testb	$1, %dl
	movq	%rax, -488(%rbp)
	jne	LBB199_55
	jmp	LBB199_71
LBB199_55:
	.loc	25 0 20 is_stmt 0
	movq	-296(%rbp), %rax
	movq	-488(%rbp), %rcx
	.loc	25 1344 20
	movb	(%rax,%rcx), %dl
	movq	-280(%rbp), %rsi
	.loc	25 1344 42
	addq	32(%rsi), %rcx
	movq	-304(%rbp), %rdi
	.loc	25 1344 33
	cmpq	%rdi, %rcx
	setb	%r8b
	testb	$1, %r8b
	movb	%dl, -489(%rbp)
	movq	%rcx, -504(%rbp)
	jne	LBB199_56
	jmp	LBB199_72
LBB199_56:
	.loc	25 0 33
	movb	-489(%rbp), %al
	movq	-312(%rbp), %rcx
	movq	-504(%rbp), %rdx
	.loc	25 1344 20
	cmpb	(%rcx,%rdx), %al
	.loc	25 1344 17
	jne	LBB199_58
Ltmp707:
	.loc	25 1343 13 is_stmt 1
	jmp	LBB199_50
LBB199_58:
	.loc	25 0 13 is_stmt 0
	movq	-280(%rbp), %rax
Ltmp708:
	.loc	25 1345 38 is_stmt 1
	movq	16(%rax), %rcx
	.loc	25 1345 21 is_stmt 0
	addq	32(%rax), %rcx
	movq	%rcx, 32(%rax)
	movb	-321(%rbp), %dl
	.loc	25 1346 24 is_stmt 1
	xorb	$-1, %dl
	.loc	25 1346 21 is_stmt 0
	testb	$1, %dl
	jne	LBB199_60
	jmp	LBB199_62
LBB199_60:
	.loc	25 0 21
	movq	-296(%rbp), %rdi
	movq	-288(%rbp), %rsi
	.loc	25 1347 39 is_stmt 1
	callq	__ZN4core5slice29_$LT$impl$u20$$u5b$T$u5d$$GT$3len17he68d0d86fa79f574E
	movq	%rax, -512(%rbp)
	.loc	25 0 39 is_stmt 0
	movq	-512(%rbp), %rax
	movq	-280(%rbp), %rcx
	.loc	25 1347 25
	subq	16(%rcx), %rax
	movq	%rax, 48(%rcx)
Ltmp709:
LBB199_62:
	.loc	25 1349 21 is_stmt 1
	jmp	LBB199_44
LBB199_63:
	.loc	25 0 21 is_stmt 0
	movq	-480(%rbp), %rax
	movq	-280(%rbp), %rcx
Ltmp710:
	.loc	25 1357 13 is_stmt 1
	addq	32(%rcx), %rax
	movq	%rax, 32(%rcx)
	movb	-321(%rbp), %dl
	.loc	25 1358 16
	xorb	$-1, %dl
	.loc	25 1358 13 is_stmt 0
	testb	$1, %dl
	jne	LBB199_65
	jmp	LBB199_66
LBB199_65:
	.loc	25 0 13
	movq	-280(%rbp), %rax
	.loc	25 1359 17 is_stmt 1
	movq	$0, 48(%rax)
LBB199_66:
	.loc	25 0 17 is_stmt 0
	movq	-296(%rbp), %rdi
	movq	-288(%rbp), %rsi
	.loc	25 1362 55 is_stmt 1
	callq	__ZN4core5slice29_$LT$impl$u20$$u5b$T$u5d$$GT$3len17he68d0d86fa79f574E
	movq	%rax, -520(%rbp)
	.loc	25 0 55 is_stmt 0
	movq	-472(%rbp), %rax
	movq	-520(%rbp), %rcx
	.loc	25 1362 43
	addq	%rcx, %rax
	movq	-272(%rbp), %rdi
	movq	-472(%rbp), %rsi
	.loc	25 1362 20
	movq	%rax, %rdx
	callq	__ZN89_$LT$core..str..pattern..RejectAndMatch$u20$as$u20$core..str..pattern..TwoWayStrategy$GT$8matching17h2a6ad1a124e81acbE
Ltmp711:
	.loc	25 1362 13
	jmp	LBB199_9
LBB199_69:
Ltmp712:
	.loc	25 1332 20 is_stmt 1
	leaq	l___unnamed_4(%rip), %rdx
	movq	-416(%rbp), %rdi
	movq	-288(%rbp), %rsi
	callq	__ZN4core9panicking18panic_bounds_check17he87128426d100e93E
LBB199_70:
	.loc	25 1332 33 is_stmt 0
	leaq	l___unnamed_5(%rip), %rdx
	movq	-432(%rbp), %rdi
	movq	-304(%rbp), %rsi
	callq	__ZN4core9panicking18panic_bounds_check17he87128426d100e93E
Ltmp713:
LBB199_71:
	.loc	25 1344 20 is_stmt 1
	leaq	l___unnamed_6(%rip), %rdx
	movq	-488(%rbp), %rdi
	movq	-288(%rbp), %rsi
	callq	__ZN4core9panicking18panic_bounds_check17he87128426d100e93E
LBB199_72:
	.loc	25 1344 33 is_stmt 0
	leaq	l___unnamed_7(%rip), %rdx
	movq	-504(%rbp), %rdi
	movq	-304(%rbp), %rsi
	callq	__ZN4core9panicking18panic_bounds_check17he87128426d100e93E
Ltmp714:
Lfunc_end199:
	.cfi_endproc

	.p2align	4, 0x90
__ZN4core3str7pattern7Pattern15is_contained_in17hc2ba59cfe22c549fE:
Lfunc_begin200:
	.loc	25 110 0 is_stmt 1
	.cfi_startproc
	.cfi_personality 155, _rust_eh_personality
	.cfi_lsda 16, Lexception23
	pushq	%rbp
	.cfi_def_cfa_offset 16
	.cfi_offset %rbp, -16
	movq	%rsp, %rbp
	.cfi_def_cfa_register %rbp
	subq	$224, %rsp
	movq	%rdi, -48(%rbp)
	movq	%rsi, -40(%rbp)
	movq	%rdx, -32(%rbp)
	movq	%rcx, -24(%rbp)
Ltmp720:
	.loc	25 111 9 prologue_end
	leaq	-152(%rbp), %rax
	movq	%rdi, -184(%rbp)
	movq	%rax, %rdi
	movq	-184(%rbp), %rax
	movq	%rsi, -192(%rbp)
	movq	%rax, %rsi
	movq	-192(%rbp), %r8
	movq	%rdx, -200(%rbp)
	movq	%r8, %rdx
	movq	-200(%rbp), %r9
	movq	%rcx, -208(%rbp)
	movq	%r9, %rcx
	movq	-208(%rbp), %r8
	callq	__ZN55_$LT$$RF$str$u20$as$u20$core..str..pattern..Pattern$GT$13into_searcher17h47105515bd4a4ef8E
	jmp	LBB200_2
LBB200_1:
	.loc	25 110 5
	movq	-16(%rbp), %rdi
	callq	__Unwind_Resume
	ud2
LBB200_2:
Ltmp715:
	.loc	25 0 5 is_stmt 0
	leaq	-176(%rbp), %rdi
	leaq	-152(%rbp), %rsi
	.loc	25 111 9 is_stmt 1
	callq	__ZN80_$LT$core..str..pattern..StrSearcher$u20$as$u20$core..str..pattern..Searcher$GT$10next_match17h7107c165203c1aecE
Ltmp716:
	jmp	LBB200_4
LBB200_3:
	.loc	25 112 5
	jmp	LBB200_1
LBB200_4:
Ltmp717:
	.loc	25 0 5 is_stmt 0
	leaq	-176(%rbp), %rdi
	.loc	25 111 9 is_stmt 1
	callq	__ZN4core6option15Option$LT$T$GT$7is_some17hdc805e149efd350dE
Ltmp718:
	movb	%al, -209(%rbp)
	jmp	LBB200_5
LBB200_5:
	.loc	25 112 5
	jmp	LBB200_6
LBB200_6:
	.loc	25 0 5 is_stmt 0
	movb	-209(%rbp), %al
	.loc	25 112 6
	andb	$1, %al
	movzbl	%al, %eax
	addq	$224, %rsp
	popq	%rbp
	retq
Ltmp721:
LBB200_7:
Ltmp719:
	.loc	25 0 6
	movq	%rax, -16(%rbp)
	movl	%edx, -8(%rbp)
	jmp	LBB200_3
Lfunc_end200:
	.cfi_endproc
	.section	__TEXT,__gcc_except_tab
	.p2align	2
GCC_except_table200:
Lexception23:
	.byte	255
	.byte	255
	.byte	1
	.uleb128 Lcst_end23-Lcst_begin23
Lcst_begin23:
	.uleb128 Lfunc_begin200-Lfunc_begin200
	.uleb128 Ltmp715-Lfunc_begin200
	.byte	0
	.byte	0
	.uleb128 Ltmp715-Lfunc_begin200
	.uleb128 Ltmp718-Ltmp715
	.uleb128 Ltmp719-Lfunc_begin200
	.byte	0
Lcst_end23:
	.p2align	2

	.section	__TEXT,__text,regular,pure_instructions
	.p2align	4, 0x90
__ZN4core4char7convert18from_u32_unchecked17h60cf44e8bbe72ec1E:
Lfunc_begin201:
	.file	26 "/rustc/6c8927b0cf80ceee19386026cf9d7fd4fd9d486f/src/libcore/char/convert.rs"
	.loc	26 101 0 is_stmt 1
	.cfi_startproc
	pushq	%rbp
	.cfi_def_cfa_offset 16
	.cfi_offset %rbp, -16
	movq	%rsp, %rbp
	.cfi_def_cfa_register %rbp
	subq	$12, %rsp
	movl	%edi, -8(%rbp)
Ltmp722:
	.loc	26 103 78 prologue_end
	movl	%edi, -4(%rbp)
	movl	-4(%rbp), %eax
	movl	%eax, -12(%rbp)
	.loc	26 0 78 is_stmt 0
	movl	-12(%rbp), %eax
	.loc	26 104 2 is_stmt 1
	addq	$12, %rsp
	popq	%rbp
	retq
Ltmp723:
Lfunc_end201:
	.cfi_endproc

	.p2align	4, 0x90
__ZN4core4char7methods15encode_utf8_raw17h35d9cf8ab00f7957E:
Lfunc_begin202:
	.file	27 "/rustc/6c8927b0cf80ceee19386026cf9d7fd4fd9d486f/src/libcore/char/methods.rs"
	.loc	27 1621 0
	.cfi_startproc
	pushq	%rbp
	.cfi_def_cfa_offset 16
	.cfi_offset %rbp, -16
	movq	%rsp, %rbp
	.cfi_def_cfa_register %rbp
	subq	$432, %rsp
	movl	%edi, -292(%rbp)
	movq	%rsi, -120(%rbp)
	movq	%rdx, -112(%rbp)
Ltmp724:
	.loc	27 1622 24 prologue_end
	movl	-292(%rbp), %edi
	movq	%rsi, -304(%rbp)
	movq	%rdx, -312(%rbp)
	.loc	27 1622 15 is_stmt 0
	callq	__ZN4core4char7methods8len_utf817hb78c0f49a3a3da4dE
	movq	%rax, -288(%rbp)
	.loc	27 0 15
	leaq	l___unnamed_8(%rip), %rax
Ltmp725:
	.loc	27 1623 12 is_stmt 1
	movq	-288(%rbp), %rcx
	movq	-304(%rbp), %rdi
	movq	-312(%rbp), %rsi
	.loc	27 1623 22 is_stmt 0
	movq	%rax, %rdx
	movq	%rcx, -320(%rbp)
	callq	__ZN4core5slice77_$LT$impl$u20$core..ops..index..IndexMut$LT$I$GT$$u20$for$u20$$u5b$T$u5d$$GT$9index_mut17h193f4ce9b6cfffc9E
	movq	%rax, -328(%rbp)
	movq	%rdx, -336(%rbp)
	.loc	27 0 22
	movq	-320(%rbp), %rax
	.loc	27 1623 11
	movq	%rax, -280(%rbp)
	movq	-328(%rbp), %rcx
	movq	%rcx, -272(%rbp)
	movq	-336(%rbp), %rdx
	movq	%rdx, -264(%rbp)
	.loc	27 1624 10 is_stmt 1
	movq	-280(%rbp), %rsi
	decq	%rsi
	movq	%rsi, %rdi
	subq	$3, %rdi
	movq	%rsi, -344(%rbp)
	ja	LBB202_4
	.loc	27 0 10 is_stmt 0
	leaq	LJTI202_0(%rip), %rax
	movq	-344(%rbp), %rcx
	movslq	(%rax,%rcx,4), %rdx
	addq	%rax, %rdx
	jmpq	*%rdx
LBB202_3:
	.loc	27 1624 13
	cmpq	$1, -264(%rbp)
	jae	LBB202_8
LBB202_4:
	.loc	27 1643 13 is_stmt 1
	movq	l___unnamed_9(%rip), %rax
	movq	-304(%rbp), %rdi
	movq	-312(%rbp), %rsi
	movq	%rax, -352(%rbp)
	.loc	27 1646 13
	callq	__ZN4core5slice29_$LT$impl$u20$$u5b$T$u5d$$GT$3len17he68d0d86fa79f574E
	movq	%rax, -136(%rbp)
	jmp	LBB202_12
LBB202_5:
	.loc	27 1627 13
	cmpq	$2, -264(%rbp)
	jae	LBB202_9
	jmp	LBB202_4
LBB202_6:
	.loc	27 1631 13
	cmpq	$3, -264(%rbp)
	jae	LBB202_10
	jmp	LBB202_4
LBB202_7:
	.loc	27 1636 13
	cmpq	$4, -264(%rbp)
	jae	LBB202_11
	jmp	LBB202_4
LBB202_8:
	.loc	27 1624 14
	movq	-272(%rbp), %rax
	movq	%rax, -32(%rbp)
Ltmp726:
	.loc	27 1625 18
	movl	-292(%rbp), %ecx
	.loc	27 1625 13 is_stmt 0
	movb	%cl, (%rax)
Ltmp727:
	.loc	27 1623 5 is_stmt 1
	jmp	LBB202_17
LBB202_9:
	.loc	27 1627 14
	movq	-272(%rbp), %rax
	movq	%rax, -48(%rbp)
	.loc	27 1627 17 is_stmt 0
	movq	-272(%rbp), %rcx
	movq	%rcx, %rdx
	addq	$1, %rdx
	movq	%rdx, -40(%rbp)
Ltmp728:
	.loc	27 1628 19 is_stmt 1
	movl	-292(%rbp), %esi
	shrl	$6, %esi
	.loc	27 1628 18 is_stmt 0
	andl	$31, %esi
	.loc	27 1628 13
	orb	$-64, %sil
	movb	%sil, (%rax)
	.loc	27 1629 19 is_stmt 1
	movl	-292(%rbp), %edi
	.loc	27 1629 18 is_stmt 0
	andl	$63, %edi
	.loc	27 1629 13
	orb	$-128, %dil
	movb	%dil, 1(%rcx)
Ltmp729:
	.loc	27 1623 5 is_stmt 1
	jmp	LBB202_17
LBB202_10:
	.loc	27 1631 14
	movq	-272(%rbp), %rax
	movq	%rax, -72(%rbp)
	.loc	27 1631 17 is_stmt 0
	movq	-272(%rbp), %rcx
	movq	%rcx, %rdx
	addq	$1, %rdx
	movq	%rdx, -64(%rbp)
	.loc	27 1631 20
	movq	-272(%rbp), %rdx
	movq	%rdx, %rsi
	addq	$2, %rsi
	movq	%rsi, -56(%rbp)
Ltmp730:
	.loc	27 1632 19 is_stmt 1
	movl	-292(%rbp), %edi
	shrl	$12, %edi
	.loc	27 1632 18 is_stmt 0
	andl	$15, %edi
	.loc	27 1632 13
	orb	$-32, %dil
	movb	%dil, (%rax)
	.loc	27 1633 19 is_stmt 1
	movl	-292(%rbp), %r8d
	shrl	$6, %r8d
	.loc	27 1633 18 is_stmt 0
	andl	$63, %r8d
	.loc	27 1633 13
	orb	$-128, %r8b
	movb	%r8b, 1(%rcx)
	.loc	27 1634 19 is_stmt 1
	movl	-292(%rbp), %r9d
	.loc	27 1634 18 is_stmt 0
	andl	$63, %r9d
	.loc	27 1634 13
	orb	$-128, %r9b
	movb	%r9b, 2(%rdx)
Ltmp731:
	.loc	27 1623 5 is_stmt 1
	jmp	LBB202_17
LBB202_11:
	.loc	27 1636 14
	movq	-272(%rbp), %rax
	movq	%rax, -104(%rbp)
	.loc	27 1636 17 is_stmt 0
	movq	-272(%rbp), %rcx
	movq	%rcx, %rdx
	addq	$1, %rdx
	movq	%rdx, -96(%rbp)
	.loc	27 1636 20
	movq	-272(%rbp), %rdx
	movq	%rdx, %rsi
	addq	$2, %rsi
	movq	%rsi, -88(%rbp)
	.loc	27 1636 23
	movq	-272(%rbp), %rsi
	movq	%rsi, %rdi
	addq	$3, %rdi
	movq	%rdi, -80(%rbp)
Ltmp732:
	.loc	27 1637 19 is_stmt 1
	movl	-292(%rbp), %r8d
	shrl	$18, %r8d
	.loc	27 1637 18 is_stmt 0
	andl	$7, %r8d
	.loc	27 1637 13
	orb	$-16, %r8b
	movb	%r8b, (%rax)
	.loc	27 1638 19 is_stmt 1
	movl	-292(%rbp), %r9d
	shrl	$12, %r9d
	.loc	27 1638 18 is_stmt 0
	andl	$63, %r9d
	.loc	27 1638 13
	orb	$-128, %r9b
	movb	%r9b, 1(%rcx)
	.loc	27 1639 19 is_stmt 1
	movl	-292(%rbp), %r10d
	shrl	$6, %r10d
	.loc	27 1639 18 is_stmt 0
	andl	$63, %r10d
	.loc	27 1639 13
	orb	$-128, %r10b
	movb	%r10b, 2(%rdx)
	.loc	27 1640 19 is_stmt 1
	movl	-292(%rbp), %r11d
	.loc	27 1640 18 is_stmt 0
	andl	$63, %r11d
	.loc	27 1640 13
	orb	$-128, %r11b
	movb	%r11b, 3(%rsi)
Ltmp733:
	.loc	27 1623 5 is_stmt 1
	jmp	LBB202_17
LBB202_12:
	.loc	27 0 5 is_stmt 0
	movq	__ZN4core3fmt3num3imp54_$LT$impl$u20$core..fmt..Display$u20$for$u20$usize$GT$3fmt17h12ea2856299c9b06E@GOTPCREL(%rip), %rsi
	.file	28 "/rustc/6c8927b0cf80ceee19386026cf9d7fd4fd9d486f/src/libcore/macros/mod.rs"
	.loc	28 19 38 is_stmt 1
	leaq	-288(%rbp), %rax
	movq	%rax, -160(%rbp)
	leaq	-292(%rbp), %rax
	movq	%rax, -152(%rbp)
	leaq	-136(%rbp), %rax
	movq	%rax, -144(%rbp)
	.loc	27 1644 13
	movq	-160(%rbp), %rax
	movq	%rax, -24(%rbp)
	.loc	27 1645 13
	movq	-152(%rbp), %rcx
	movq	%rcx, -16(%rbp)
	.loc	27 1646 13
	movq	-144(%rbp), %rdx
	movq	%rdx, -8(%rbp)
Ltmp734:
	.loc	28 19 38
	movq	%rax, %rdi
	movq	%rcx, -360(%rbp)
	movq	%rdx, -368(%rbp)
	callq	__ZN4core3fmt10ArgumentV13new17h1bca65dc50e25b2eE
	movq	%rax, -376(%rbp)
	movq	%rdx, -384(%rbp)
	.loc	28 0 38 is_stmt 0
	movq	__ZN4core3fmt3num53_$LT$impl$u20$core..fmt..UpperHex$u20$for$u20$u32$GT$3fmt17h7bd10b5f3c9584f1E@GOTPCREL(%rip), %rsi
	movq	-360(%rbp), %rdi
	.loc	28 19 38
	callq	__ZN4core3fmt10ArgumentV13new17h01744d6d1c31d216E
	movq	%rax, -392(%rbp)
	movq	%rdx, -400(%rbp)
	.loc	28 0 38
	movq	__ZN4core3fmt3num3imp54_$LT$impl$u20$core..fmt..Display$u20$for$u20$usize$GT$3fmt17h12ea2856299c9b06E@GOTPCREL(%rip), %rsi
	movq	-368(%rbp), %rdi
	.loc	28 19 38
	callq	__ZN4core3fmt10ArgumentV13new17h1bca65dc50e25b2eE
	movq	%rax, -408(%rbp)
	movq	%rdx, -416(%rbp)
	.loc	28 0 38
	movq	-376(%rbp), %rax
	.loc	28 19 38
	movq	%rax, -208(%rbp)
	movq	-384(%rbp), %rcx
	movq	%rcx, -200(%rbp)
	movq	-392(%rbp), %rdx
	movq	%rdx, -192(%rbp)
	movq	-400(%rbp), %rsi
	movq	%rsi, -184(%rbp)
	movq	-408(%rbp), %rdi
	movq	%rdi, -176(%rbp)
	movq	-416(%rbp), %r8
	movq	%r8, -168(%rbp)
Ltmp735:
	.loc	28 19 38
	leaq	-208(%rbp), %r9
	leaq	-256(%rbp), %rdi
	movq	-352(%rbp), %rsi
	movl	$3, %r10d
	movq	%r10, %rdx
	movq	%r9, %rcx
	movq	%r10, %r8
	callq	__ZN4core3fmt9Arguments6new_v117h742fe6c0b443dd69E
	.loc	28 19 9
	leaq	l___unnamed_10(%rip), %rsi
	leaq	-256(%rbp), %rdi
	callq	__ZN4core9panicking9panic_fmt17hfce5b7173905fc53E
LBB202_17:
	.loc	28 0 9
	leaq	l___unnamed_11(%rip), %rax
	.loc	27 1649 16 is_stmt 1
	movq	-288(%rbp), %rcx
	.loc	27 1649 14 is_stmt 0
	movq	%rcx, -128(%rbp)
	.loc	27 1649 10
	movq	-128(%rbp), %rdx
	movq	-304(%rbp), %rdi
	movq	-312(%rbp), %rsi
	movq	%rax, %rcx
	callq	__ZN4core5slice77_$LT$impl$u20$core..ops..index..IndexMut$LT$I$GT$$u20$for$u20$$u5b$T$u5d$$GT$9index_mut17h3ffcb0318399514eE
	movq	%rax, -424(%rbp)
	movq	%rdx, -432(%rbp)
Ltmp736:
	.loc	27 0 10
	movq	-424(%rbp), %rax
	movq	-432(%rbp), %rdx
	.loc	27 1650 2 is_stmt 1
	addq	$432, %rsp
	popq	%rbp
	retq
Ltmp737:
Lfunc_end202:
	.cfi_endproc
	.p2align	2, 0x90
	.data_region jt32
.set L202_0_set_3, LBB202_3-LJTI202_0
.set L202_0_set_5, LBB202_5-LJTI202_0
.set L202_0_set_6, LBB202_6-LJTI202_0
.set L202_0_set_7, LBB202_7-LJTI202_0
LJTI202_0:
	.long	L202_0_set_3
	.long	L202_0_set_5
	.long	L202_0_set_6
	.long	L202_0_set_7
	.end_data_region

	.p2align	4, 0x90
__ZN4core4char7methods22_$LT$impl$u20$char$GT$11encode_utf817h287572c23835d43eE:
Lfunc_begin203:
	.loc	27 642 0
	.cfi_startproc
	pushq	%rbp
	.cfi_def_cfa_offset 16
	.cfi_offset %rbp, -16
	movq	%rsp, %rbp
	.cfi_def_cfa_register %rbp
	subq	$64, %rsp
	movl	%edi, -20(%rbp)
	movq	%rsi, -16(%rbp)
	movq	%rdx, -8(%rbp)
Ltmp738:
	.loc	27 644 42 prologue_end
	callq	__ZN4core4char7methods15encode_utf8_raw17h35d9cf8ab00f7957E
	movq	%rax, -32(%rbp)
	movq	%rdx, -40(%rbp)
	.loc	27 0 42 is_stmt 0
	movq	-32(%rbp), %rdi
	movq	-40(%rbp), %rsi
	.loc	27 644 18
	callq	__ZN4core3str23from_utf8_unchecked_mut17hf0e5a322356d3960E
	movq	%rax, -48(%rbp)
	movq	%rdx, -56(%rbp)
	.loc	27 0 18
	movq	-48(%rbp), %rax
	movq	-56(%rbp), %rdx
	.loc	27 645 6 is_stmt 1
	addq	$64, %rsp
	popq	%rbp
	retq
Ltmp739:
Lfunc_end203:
	.cfi_endproc

	.p2align	4, 0x90
__ZN4core4char7methods22_$LT$impl$u20$char$GT$8len_utf817hd3e90a755a69062dE:
Lfunc_begin204:
	.loc	27 580 0
	.cfi_startproc
	pushq	%rbp
	.cfi_def_cfa_offset 16
	.cfi_offset %rbp, -16
	movq	%rsp, %rbp
	.cfi_def_cfa_register %rbp
	subq	$16, %rsp
	movl	%edi, -4(%rbp)
Ltmp740:
	.loc	27 581 9 prologue_end
	callq	__ZN4core4char7methods8len_utf817hb78c0f49a3a3da4dE
	movq	%rax, -16(%rbp)
	.loc	27 0 9 is_stmt 0
	movq	-16(%rbp), %rax
	.loc	27 582 6 is_stmt 1
	addq	$16, %rsp
	popq	%rbp
	retq
Ltmp741:
Lfunc_end204:
	.cfi_endproc

	.p2align	4, 0x90
__ZN4core4char7methods8len_utf817hb78c0f49a3a3da4dE:
Lfunc_begin205:
	.loc	27 1593 0
	.cfi_startproc
	pushq	%rbp
	.cfi_def_cfa_offset 16
	.cfi_offset %rbp, -16
	movq	%rsp, %rbp
	.cfi_def_cfa_register %rbp
	subq	$24, %rsp
	movl	%edi, -4(%rbp)
Ltmp742:
	.loc	27 1594 8 prologue_end
	cmpl	$128, %edi
	movl	%edi, -20(%rbp)
	.loc	27 1594 5 is_stmt 0
	jb	LBB205_2
	.loc	27 0 5
	movl	-20(%rbp), %eax
	.loc	27 1596 15 is_stmt 1
	cmpl	$2048, %eax
	.loc	27 1596 12 is_stmt 0
	jb	LBB205_4
	jmp	LBB205_3
LBB205_2:
	.loc	27 1595 9 is_stmt 1
	movq	$1, -16(%rbp)
	.loc	27 1594 5
	jmp	LBB205_9
LBB205_3:
	.loc	27 0 5 is_stmt 0
	movl	-20(%rbp), %eax
	.loc	27 1598 15 is_stmt 1
	cmpl	$65536, %eax
	.loc	27 1598 12 is_stmt 0
	jb	LBB205_6
	jmp	LBB205_5
LBB205_4:
	.loc	27 1597 9 is_stmt 1
	movq	$2, -16(%rbp)
	.loc	27 1596 12
	jmp	LBB205_8
LBB205_5:
	.loc	27 1601 9
	movq	$4, -16(%rbp)
	.loc	27 1598 12
	jmp	LBB205_7
LBB205_6:
	.loc	27 1599 9
	movq	$3, -16(%rbp)
LBB205_7:
	.loc	27 1596 12
	jmp	LBB205_8
LBB205_8:
	.loc	27 1594 5
	jmp	LBB205_9
LBB205_9:
	.loc	27 1603 2
	movq	-16(%rbp), %rax
	addq	$24, %rsp
	popq	%rbp
	retq
Ltmp743:
Lfunc_end205:
	.cfi_endproc

	.p2align	4, 0x90
__ZN4core4iter5range101_$LT$impl$u20$core..iter..traits..iterator..Iterator$u20$for$u20$core..ops..range..Range$LT$A$GT$$GT$4next17h77ff4d6442248e36E:
Lfunc_begin206:
	.loc	14 504 0
	.cfi_startproc
	pushq	%rbp
	.cfi_def_cfa_offset 16
	.cfi_offset %rbp, -16
	movq	%rsp, %rbp
	.cfi_def_cfa_register %rbp
	subq	$80, %rsp
	movq	%rdi, -16(%rbp)
Ltmp744:
	.loc	14 505 12 prologue_end
	movq	%rdi, %rax
	.loc	14 505 25 is_stmt 0
	movq	%rdi, %rcx
	addq	$8, %rcx
	movq	%rdi, -40(%rbp)
	.loc	14 505 12
	movq	%rax, %rdi
	movq	%rcx, %rsi
	callq	__ZN4core3cmp5impls57_$LT$impl$u20$core..cmp..PartialOrd$u20$for$u20$usize$GT$2lt17h741b18d97b38633bE
	movb	%al, -41(%rbp)
	.loc	14 0 12
	movb	-41(%rbp), %al
	.loc	14 505 9
	testb	$1, %al
	jne	LBB206_3
	jmp	LBB206_2
LBB206_2:
	.loc	14 510 13 is_stmt 1
	movq	$0, -32(%rbp)
	.loc	14 505 9
	jmp	LBB206_7
LBB206_3:
	.loc	14 0 9 is_stmt 0
	movq	-40(%rbp), %rax
	.loc	14 507 54 is_stmt 1
	movq	%rax, %rdi
	callq	__ZN4core5clone5impls54_$LT$impl$u20$core..clone..Clone$u20$for$u20$usize$GT$5clone17hc7958a567b4a683dE
	movq	%rax, -56(%rbp)
	.loc	14 0 54 is_stmt 0
	movq	-56(%rbp), %rdi
	.loc	14 507 30
	movl	$1, %esi
	callq	__ZN49_$LT$usize$u20$as$u20$core..iter..range..Step$GT$17forward_unchecked17hfb0ecbf2a14d19c1E
	movq	%rax, -8(%rbp)
	movq	%rax, -64(%rbp)
	.loc	14 0 30
	movq	-40(%rbp), %rax
Ltmp745:
	.loc	14 508 18 is_stmt 1
	movq	%rax, %rdi
	movq	-64(%rbp), %rsi
	callq	__ZN4core3mem7replace17hfbed44e9f0faf073E
	movq	%rax, -72(%rbp)
	.loc	14 0 18 is_stmt 0
	movq	-72(%rbp), %rax
	.loc	14 508 13
	movq	%rax, -24(%rbp)
	movq	$1, -32(%rbp)
Ltmp746:
LBB206_7:
	.loc	14 512 6 is_stmt 1
	movq	-32(%rbp), %rax
	movq	-24(%rbp), %rdx
	addq	$80, %rsp
	popq	%rbp
	retq
Ltmp747:
Lfunc_end206:
	.cfi_endproc

	.p2align	4, 0x90
__ZN4core4iter5range116_$LT$impl$u20$core..iter..traits..double_ended..DoubleEndedIterator$u20$for$u20$core..ops..range..Range$LT$A$GT$$GT$9next_back17h006201d2819aa72cE:
Lfunc_begin207:
	.loc	14 588 0
	.cfi_startproc
	pushq	%rbp
	.cfi_def_cfa_offset 16
	.cfi_offset %rbp, -16
	movq	%rsp, %rbp
	.cfi_def_cfa_register %rbp
	subq	$80, %rsp
	movq	%rdi, -24(%rbp)
Ltmp748:
	.loc	14 589 12 prologue_end
	movq	%rdi, %rax
	.loc	14 589 25 is_stmt 0
	movq	%rdi, %rcx
	addq	$8, %rcx
	movq	%rdi, -56(%rbp)
	.loc	14 589 12
	movq	%rax, %rdi
	movq	%rcx, %rsi
	callq	__ZN4core3cmp5impls57_$LT$impl$u20$core..cmp..PartialOrd$u20$for$u20$usize$GT$2lt17h741b18d97b38633bE
	movb	%al, -57(%rbp)
	.loc	14 0 12
	movb	-57(%rbp), %al
	.loc	14 589 9
	testb	$1, %al
	jne	LBB207_3
	jmp	LBB207_2
LBB207_2:
	.loc	14 594 13 is_stmt 1
	movq	$0, -48(%rbp)
	.loc	14 589 9
	jmp	LBB207_7
LBB207_3:
	.loc	14 0 9 is_stmt 0
	movq	-56(%rbp), %rax
	.loc	14 591 58 is_stmt 1
	addq	$8, %rax
	movq	%rax, %rdi
	callq	__ZN4core5clone5impls54_$LT$impl$u20$core..clone..Clone$u20$for$u20$usize$GT$5clone17hc7958a567b4a683dE
	movq	%rax, -72(%rbp)
	.loc	14 0 58 is_stmt 0
	movq	-72(%rbp), %rdi
	.loc	14 591 33
	movl	$1, %esi
	callq	__ZN49_$LT$usize$u20$as$u20$core..iter..range..Step$GT$18backward_unchecked17h8875d8f9ed686066E
	movq	%rax, -80(%rbp)
	.loc	14 591 13
	jmp	LBB207_8
LBB207_6:
	.loc	14 592 13 is_stmt 1
	movq	-32(%rbp), %rax
	movq	%rax, -40(%rbp)
	movq	$1, -48(%rbp)
LBB207_7:
	.loc	14 596 6
	movq	-48(%rbp), %rax
	movq	-40(%rbp), %rdx
	addq	$80, %rsp
	popq	%rbp
	retq
LBB207_8:
	.loc	14 0 6 is_stmt 0
	movq	-56(%rbp), %rax
	movq	-80(%rbp), %rcx
	.loc	14 591 13 is_stmt 1
	movq	%rcx, 8(%rax)
	.loc	14 592 18
	addq	$8, %rax
	movq	%rax, %rdi
	callq	__ZN4core5clone5impls54_$LT$impl$u20$core..clone..Clone$u20$for$u20$usize$GT$5clone17hc7958a567b4a683dE
	movq	%rax, -32(%rbp)
	jmp	LBB207_6
Ltmp749:
Lfunc_end207:
	.cfi_endproc

	.p2align	4, 0x90
__ZN4core4iter6traits8iterator8Iterator3rev17hdcf481ea50604223E:
Lfunc_begin208:
	.file	29 "/rustc/6c8927b0cf80ceee19386026cf9d7fd4fd9d486f/src/libcore/iter/traits/iterator.rs"
	.loc	29 2621 0
	.cfi_startproc
	pushq	%rbp
	.cfi_def_cfa_offset 16
	.cfi_offset %rbp, -16
	movq	%rsp, %rbp
	.cfi_def_cfa_register %rbp
	subq	$32, %rsp
	movq	%rdi, -16(%rbp)
	movq	%rsi, -8(%rbp)
Ltmp750:
	.loc	29 2625 9 prologue_end
	callq	__ZN4core4iter8adapters12Rev$LT$T$GT$3new17h5aaed17f364f89c0E
	movq	%rax, -24(%rbp)
	movq	%rdx, -32(%rbp)
	.loc	29 0 9 is_stmt 0
	movq	-24(%rbp), %rax
	movq	-32(%rbp), %rdx
	.loc	29 2626 6 is_stmt 1
	addq	$32, %rsp
	popq	%rbp
	retq
Ltmp751:
Lfunc_end208:
	.cfi_endproc

	.p2align	4, 0x90
__ZN4core4iter8adapters12Rev$LT$T$GT$3new17h5aaed17f364f89c0E:
Lfunc_begin209:
	.file	30 "/rustc/6c8927b0cf80ceee19386026cf9d7fd4fd9d486f/src/libcore/iter/adapters/mod.rs"
	.loc	30 35 0
	.cfi_startproc
	pushq	%rbp
	.cfi_def_cfa_offset 16
	.cfi_offset %rbp, -16
	movq	%rsp, %rbp
	.cfi_def_cfa_register %rbp
	subq	$32, %rsp
	movq	%rdi, -16(%rbp)
	movq	%rsi, -8(%rbp)
Ltmp752:
	.loc	30 36 9 prologue_end
	movq	%rdi, -32(%rbp)
	movq	%rsi, -24(%rbp)
	.loc	30 37 6
	movq	-32(%rbp), %rax
	movq	-24(%rbp), %rdx
	addq	$32, %rsp
	popq	%rbp
	retq
Ltmp753:
Lfunc_end209:
	.cfi_endproc

	.p2align	4, 0x90
__ZN4core5alloc6layout10size_align17h144b6b7d8cc84076E:
Lfunc_begin210:
	.file	31 "/rustc/6c8927b0cf80ceee19386026cf9d7fd4fd9d486f/src/libcore/alloc/layout.rs"
	.loc	31 7 0
	.cfi_startproc
	pushq	%rbp
	.cfi_def_cfa_offset 16
	.cfi_offset %rbp, -16
	movq	%rsp, %rbp
	.cfi_def_cfa_register %rbp
	subq	$48, %rsp
Ltmp754:
	.loc	17 310 5 prologue_end
	movq	$544, -16(%rbp)
	movq	-16(%rbp), %rax
	movq	%rax, -40(%rbp)
Ltmp755:
	.loc	17 451 5
	movq	$8, -8(%rbp)
	movq	-8(%rbp), %rax
	movq	%rax, -48(%rbp)
Ltmp756:
	.loc	17 0 5 is_stmt 0
	movq	-40(%rbp), %rax
	.loc	31 8 5 is_stmt 1
	movq	%rax, -32(%rbp)
	movq	-48(%rbp), %rcx
	movq	%rcx, -24(%rbp)
	.loc	31 9 2
	movq	-32(%rbp), %rax
	movq	-24(%rbp), %rdx
	addq	$48, %rsp
	popq	%rbp
	retq
Ltmp757:
Lfunc_end210:
	.cfi_endproc

	.p2align	4, 0x90
__ZN4core5alloc6layout10size_align17hd97a50b651261317E:
Lfunc_begin211:
	.loc	31 7 0
	.cfi_startproc
	pushq	%rbp
	.cfi_def_cfa_offset 16
	.cfi_offset %rbp, -16
	movq	%rsp, %rbp
	.cfi_def_cfa_register %rbp
	subq	$48, %rsp
Ltmp758:
	.loc	17 310 5 prologue_end
	movq	$640, -16(%rbp)
	movq	-16(%rbp), %rax
	movq	%rax, -40(%rbp)
Ltmp759:
	.loc	17 451 5
	movq	$8, -8(%rbp)
	movq	-8(%rbp), %rax
	movq	%rax, -48(%rbp)
Ltmp760:
	.loc	17 0 5 is_stmt 0
	movq	-40(%rbp), %rax
	.loc	31 8 5 is_stmt 1
	movq	%rax, -32(%rbp)
	movq	-48(%rbp), %rcx
	movq	%rcx, -24(%rbp)
	.loc	31 9 2
	movq	-32(%rbp), %rax
	movq	-24(%rbp), %rdx
	addq	$48, %rsp
	popq	%rbp
	retq
Ltmp761:
Lfunc_end211:
	.cfi_endproc

	.p2align	4, 0x90
__ZN4core5alloc6layout6Layout25from_size_align_unchecked17haf142b1382fad227E:
Lfunc_begin212:
	.loc	31 92 0
	.cfi_startproc
	pushq	%rbp
	.cfi_def_cfa_offset 16
	.cfi_offset %rbp, -16
	movq	%rsp, %rbp
	.cfi_def_cfa_register %rbp
	subq	$48, %rsp
	movq	%rdi, -16(%rbp)
	movq	%rsi, -8(%rbp)
	movq	%rdi, -40(%rbp)
Ltmp762:
	.loc	31 94 48 prologue_end
	movq	%rsi, %rdi
	callq	__ZN4core3num12NonZeroUsize13new_unchecked17h7cdf533f263d2e2fE
	movq	%rax, -48(%rbp)
	.loc	31 0 48 is_stmt 0
	movq	-40(%rbp), %rax
	.loc	31 94 9
	movq	%rax, -32(%rbp)
	movq	-48(%rbp), %rcx
	movq	%rcx, -24(%rbp)
	.loc	31 95 6 is_stmt 1
	movq	-32(%rbp), %rax
	movq	-24(%rbp), %rdx
	addq	$48, %rsp
	popq	%rbp
	retq
Ltmp763:
Lfunc_end212:
	.cfi_endproc

	.p2align	4, 0x90
__ZN4core5alloc6layout6Layout3new17h03689fd131a7aadeE:
Lfunc_begin213:
	.loc	31 117 0
	.cfi_startproc
	pushq	%rbp
	.cfi_def_cfa_offset 16
	.cfi_offset %rbp, -16
	movq	%rsp, %rbp
	.cfi_def_cfa_register %rbp
	subq	$48, %rsp
Ltmp764:
	.loc	31 118 29 prologue_end
	callq	__ZN4core5alloc6layout10size_align17hd97a50b651261317E
	movq	%rax, -24(%rbp)
	movq	%rdx, -32(%rbp)
	.loc	31 0 29 is_stmt 0
	movq	-24(%rbp), %rax
	.loc	31 118 14
	movq	%rax, -16(%rbp)
	movq	-32(%rbp), %rcx
	.loc	31 118 20
	movq	%rcx, -8(%rbp)
Ltmp765:
	.loc	31 123 18 is_stmt 1
	movq	%rax, %rdi
	movq	%rcx, %rsi
	callq	__ZN4core5alloc6layout6Layout25from_size_align_unchecked17haf142b1382fad227E
	movq	%rax, -40(%rbp)
	movq	%rdx, -48(%rbp)
Ltmp766:
	.loc	31 0 18 is_stmt 0
	movq	-40(%rbp), %rax
	movq	-48(%rbp), %rdx
	.loc	31 124 6 is_stmt 1
	addq	$48, %rsp
	popq	%rbp
	retq
Ltmp767:
Lfunc_end213:
	.cfi_endproc

	.p2align	4, 0x90
__ZN4core5alloc6layout6Layout3new17hff7b3ed3c8bf02fdE:
Lfunc_begin214:
	.loc	31 117 0
	.cfi_startproc
	pushq	%rbp
	.cfi_def_cfa_offset 16
	.cfi_offset %rbp, -16
	movq	%rsp, %rbp
	.cfi_def_cfa_register %rbp
	subq	$48, %rsp
Ltmp768:
	.loc	31 118 29 prologue_end
	callq	__ZN4core5alloc6layout10size_align17h144b6b7d8cc84076E
	movq	%rax, -24(%rbp)
	movq	%rdx, -32(%rbp)
	.loc	31 0 29 is_stmt 0
	movq	-24(%rbp), %rax
	.loc	31 118 14
	movq	%rax, -16(%rbp)
	movq	-32(%rbp), %rcx
	.loc	31 118 20
	movq	%rcx, -8(%rbp)
Ltmp769:
	.loc	31 123 18 is_stmt 1
	movq	%rax, %rdi
	movq	%rcx, %rsi
	callq	__ZN4core5alloc6layout6Layout25from_size_align_unchecked17haf142b1382fad227E
	movq	%rax, -40(%rbp)
	movq	%rdx, -48(%rbp)
Ltmp770:
	.loc	31 0 18 is_stmt 0
	movq	-40(%rbp), %rax
	movq	-48(%rbp), %rdx
	.loc	31 124 6 is_stmt 1
	addq	$48, %rsp
	popq	%rbp
	retq
Ltmp771:
Lfunc_end214:
	.cfi_endproc

	.p2align	4, 0x90
__ZN4core5alloc6layout6Layout4size17hfd5ecd5bf308c1c0E:
Lfunc_begin215:
	.loc	31 101 0
	.cfi_startproc
	pushq	%rbp
	.cfi_def_cfa_offset 16
	.cfi_offset %rbp, -16
	movq	%rsp, %rbp
	.cfi_def_cfa_register %rbp
	pushq	%rax
	movq	%rdi, -8(%rbp)
Ltmp772:
	.loc	31 102 9 prologue_end
	movq	(%rdi), %rax
	.loc	31 103 6
	addq	$8, %rsp
	popq	%rbp
	retq
Ltmp773:
Lfunc_end215:
	.cfi_endproc

	.p2align	4, 0x90
__ZN4core5alloc6layout6Layout5align17h869bbda6b224999fE:
Lfunc_begin216:
	.loc	31 109 0
	.cfi_startproc
	pushq	%rbp
	.cfi_def_cfa_offset 16
	.cfi_offset %rbp, -16
	movq	%rsp, %rbp
	.cfi_def_cfa_register %rbp
	subq	$16, %rsp
	movq	%rdi, -8(%rbp)
Ltmp774:
	.loc	31 110 9 prologue_end
	movq	8(%rdi), %rdi
	callq	__ZN4core3num12NonZeroUsize3get17h3bb8ef49afb57fbfE
	movq	%rax, -16(%rbp)
	.loc	31 0 9 is_stmt 0
	movq	-16(%rbp), %rax
	.loc	31 111 6 is_stmt 1
	addq	$16, %rsp
	popq	%rbp
	retq
Ltmp775:
Lfunc_end216:
	.cfi_endproc

	.p2align	4, 0x90
__ZN4core5clone5impls54_$LT$impl$u20$core..clone..Clone$u20$for$u20$usize$GT$5clone17hc7958a567b4a683dE:
Lfunc_begin217:
	.file	32 "/rustc/6c8927b0cf80ceee19386026cf9d7fd4fd9d486f/src/libcore/clone.rs"
	.loc	32 184 0
	.cfi_startproc
	pushq	%rbp
	.cfi_def_cfa_offset 16
	.cfi_offset %rbp, -16
	movq	%rsp, %rbp
	.cfi_def_cfa_register %rbp
	pushq	%rax
	movq	%rdi, -8(%rbp)
Ltmp776:
	.loc	32 185 25 prologue_end
	movq	(%rdi), %rax
	.loc	32 186 22
	addq	$8, %rsp
	popq	%rbp
	retq
Ltmp777:
Lfunc_end217:
	.cfi_endproc

	.p2align	4, 0x90
__ZN4core5slice14from_raw_parts17h5a3f1c54bf844a31E:
Lfunc_begin218:
	.loc	1 6094 0
	.cfi_startproc
	pushq	%rbp
	.cfi_def_cfa_offset 16
	.cfi_offset %rbp, -16
	movq	%rsp, %rbp
	.cfi_def_cfa_register %rbp
	subq	$32, %rsp
	movq	%rdi, -16(%rbp)
	movq	%rsi, -8(%rbp)
Ltmp778:
	.loc	1 6101 16 prologue_end
	callq	__ZN4core3ptr20slice_from_raw_parts17h68951a687886473fE
	movq	%rax, -24(%rbp)
	movq	%rdx, -32(%rbp)
	.loc	1 0 16 is_stmt 0
	movq	-24(%rbp), %rax
	movq	-32(%rbp), %rdx
	.loc	1 6102 2 is_stmt 1
	addq	$32, %rsp
	popq	%rbp
	retq
Ltmp779:
Lfunc_end218:
	.cfi_endproc

	.p2align	4, 0x90
__ZN4core5slice14from_raw_parts17hcb12c4afab7a2136E:
Lfunc_begin219:
	.loc	1 6094 0
	.cfi_startproc
	pushq	%rbp
	.cfi_def_cfa_offset 16
	.cfi_offset %rbp, -16
	movq	%rsp, %rbp
	.cfi_def_cfa_register %rbp
	subq	$32, %rsp
	movq	%rdi, -16(%rbp)
	movq	%rsi, -8(%rbp)
Ltmp780:
	.loc	1 6101 16 prologue_end
	callq	__ZN4core3ptr20slice_from_raw_parts17h274cf9160b51ed30E
	movq	%rax, -24(%rbp)
	movq	%rdx, -32(%rbp)
	.loc	1 0 16 is_stmt 0
	movq	-24(%rbp), %rax
	movq	-32(%rbp), %rdx
	.loc	1 6102 2 is_stmt 1
	addq	$32, %rsp
	popq	%rbp
	retq
Ltmp781:
Lfunc_end219:
	.cfi_endproc

	.p2align	4, 0x90
__ZN4core5slice14from_raw_parts17hda3ad71ee5b9dafaE:
Lfunc_begin220:
	.loc	1 6094 0
	.cfi_startproc
	pushq	%rbp
	.cfi_def_cfa_offset 16
	.cfi_offset %rbp, -16
	movq	%rsp, %rbp
	.cfi_def_cfa_register %rbp
	subq	$32, %rsp
	movq	%rdi, -16(%rbp)
	movq	%rsi, -8(%rbp)
Ltmp782:
	.loc	1 6101 16 prologue_end
	callq	__ZN4core3ptr20slice_from_raw_parts17h8457e5063c181227E
	movq	%rax, -24(%rbp)
	movq	%rdx, -32(%rbp)
	.loc	1 0 16 is_stmt 0
	movq	-24(%rbp), %rax
	movq	-32(%rbp), %rdx
	.loc	1 6102 2 is_stmt 1
	addq	$32, %rsp
	popq	%rbp
	retq
Ltmp783:
Lfunc_end220:
	.cfi_endproc

	.p2align	4, 0x90
__ZN4core5slice29_$LT$impl$u20$$u5b$T$u5d$$GT$13get_unchecked17h0e650084b06906c8E:
Lfunc_begin221:
	.loc	1 309 0
	.cfi_startproc
	pushq	%rbp
	.cfi_def_cfa_offset 16
	.cfi_offset %rbp, -16
	movq	%rsp, %rbp
	.cfi_def_cfa_register %rbp
	subq	$48, %rsp
	movq	%rdi, -24(%rbp)
	movq	%rsi, -16(%rbp)
	movq	%rdx, -8(%rbp)
	movq	%rdi, -32(%rbp)
Ltmp784:
	.loc	1 316 20 prologue_end
	movq	%rdx, %rdi
	movq	-32(%rbp), %rax
	movq	%rsi, -40(%rbp)
	movq	%rax, %rsi
	movq	-40(%rbp), %rdx
	callq	__ZN68_$LT$usize$u20$as$u20$core..slice..SliceIndex$LT$$u5b$T$u5d$$GT$$GT$13get_unchecked17hf5b57323ee3662f5E
	movq	%rax, -48(%rbp)
	.loc	1 0 20 is_stmt 0
	movq	-48(%rbp), %rax
	.loc	1 317 6 is_stmt 1
	addq	$48, %rsp
	popq	%rbp
	retq
Ltmp785:
Lfunc_end221:
	.cfi_endproc

	.p2align	4, 0x90
__ZN4core5slice29_$LT$impl$u20$$u5b$T$u5d$$GT$13get_unchecked17h1c114b3b9618c30dE:
Lfunc_begin222:
	.loc	1 309 0
	.cfi_startproc
	pushq	%rbp
	.cfi_def_cfa_offset 16
	.cfi_offset %rbp, -16
	movq	%rsp, %rbp
	.cfi_def_cfa_register %rbp
	subq	$48, %rsp
	movq	%rdi, -24(%rbp)
	movq	%rsi, -16(%rbp)
	movq	%rdx, -8(%rbp)
	movq	%rdi, -32(%rbp)
Ltmp786:
	.loc	1 316 20 prologue_end
	movq	%rdx, %rdi
	movq	-32(%rbp), %rax
	movq	%rsi, -40(%rbp)
	movq	%rax, %rsi
	movq	-40(%rbp), %rdx
	callq	__ZN68_$LT$usize$u20$as$u20$core..slice..SliceIndex$LT$$u5b$T$u5d$$GT$$GT$13get_unchecked17h09cf77c814b1daa7E
	movq	%rax, -48(%rbp)
	.loc	1 0 20 is_stmt 0
	movq	-48(%rbp), %rax
	.loc	1 317 6 is_stmt 1
	addq	$48, %rsp
	popq	%rbp
	retq
Ltmp787:
Lfunc_end222:
	.cfi_endproc

	.p2align	4, 0x90
__ZN4core5slice29_$LT$impl$u20$$u5b$T$u5d$$GT$13get_unchecked17h4c6887cc551eca67E:
Lfunc_begin223:
	.loc	1 309 0
	.cfi_startproc
	pushq	%rbp
	.cfi_def_cfa_offset 16
	.cfi_offset %rbp, -16
	movq	%rsp, %rbp
	.cfi_def_cfa_register %rbp
	subq	$48, %rsp
	movq	%rdi, -24(%rbp)
	movq	%rsi, -16(%rbp)
	movq	%rdx, -8(%rbp)
	movq	%rdi, -32(%rbp)
Ltmp788:
	.loc	1 316 20 prologue_end
	movq	%rdx, %rdi
	movq	-32(%rbp), %rax
	movq	%rsi, -40(%rbp)
	movq	%rax, %rsi
	movq	-40(%rbp), %rdx
	callq	__ZN68_$LT$usize$u20$as$u20$core..slice..SliceIndex$LT$$u5b$T$u5d$$GT$$GT$13get_unchecked17hb2a7b9166e0e420aE
	movq	%rax, -48(%rbp)
	.loc	1 0 20 is_stmt 0
	movq	-48(%rbp), %rax
	.loc	1 317 6 is_stmt 1
	addq	$48, %rsp
	popq	%rbp
	retq
Ltmp789:
Lfunc_end223:
	.cfi_endproc

	.p2align	4, 0x90
__ZN4core5slice29_$LT$impl$u20$$u5b$T$u5d$$GT$13get_unchecked17hd758fa76cbbeae29E:
Lfunc_begin224:
	.loc	1 309 0
	.cfi_startproc
	pushq	%rbp
	.cfi_def_cfa_offset 16
	.cfi_offset %rbp, -16
	movq	%rsp, %rbp
	.cfi_def_cfa_register %rbp
	subq	$48, %rsp
	movq	%rdi, -24(%rbp)
	movq	%rsi, -16(%rbp)
	movq	%rdx, -8(%rbp)
	movq	%rdi, -32(%rbp)
Ltmp790:
	.loc	1 316 20 prologue_end
	movq	%rdx, %rdi
	movq	-32(%rbp), %rax
	movq	%rsi, -40(%rbp)
	movq	%rax, %rsi
	movq	-40(%rbp), %rdx
	callq	__ZN68_$LT$usize$u20$as$u20$core..slice..SliceIndex$LT$$u5b$T$u5d$$GT$$GT$13get_unchecked17h6c20b05583ee812aE
	movq	%rax, -48(%rbp)
	.loc	1 0 20 is_stmt 0
	movq	-48(%rbp), %rax
	.loc	1 317 6 is_stmt 1
	addq	$48, %rsp
	popq	%rbp
	retq
Ltmp791:
Lfunc_end224:
	.cfi_endproc

	.p2align	4, 0x90
__ZN4core5slice29_$LT$impl$u20$$u5b$T$u5d$$GT$17get_unchecked_mut17h05a44a4be1978401E:
Lfunc_begin225:
	.loc	1 343 0
	.cfi_startproc
	pushq	%rbp
	.cfi_def_cfa_offset 16
	.cfi_offset %rbp, -16
	movq	%rsp, %rbp
	.cfi_def_cfa_register %rbp
	subq	$48, %rsp
	movq	%rdi, -24(%rbp)
	movq	%rsi, -16(%rbp)
	movq	%rdx, -8(%rbp)
	movq	%rdi, -32(%rbp)
Ltmp792:
	.loc	1 350 24 prologue_end
	movq	%rdx, %rdi
	movq	-32(%rbp), %rax
	movq	%rsi, -40(%rbp)
	movq	%rax, %rsi
	movq	-40(%rbp), %rdx
	callq	__ZN68_$LT$usize$u20$as$u20$core..slice..SliceIndex$LT$$u5b$T$u5d$$GT$$GT$17get_unchecked_mut17h42f8fc3fc2ffc369E
	movq	%rax, -48(%rbp)
	.loc	1 0 24 is_stmt 0
	movq	-48(%rbp), %rax
	.loc	1 351 6 is_stmt 1
	addq	$48, %rsp
	popq	%rbp
	retq
Ltmp793:
Lfunc_end225:
	.cfi_endproc

	.p2align	4, 0x90
__ZN4core5slice29_$LT$impl$u20$$u5b$T$u5d$$GT$3get17h707180e99d45c296E:
Lfunc_begin226:
	.loc	1 256 0
	.cfi_startproc
	pushq	%rbp
	.cfi_def_cfa_offset 16
	.cfi_offset %rbp, -16
	movq	%rsp, %rbp
	.cfi_def_cfa_register %rbp
	subq	$64, %rsp
	movq	%rdi, -32(%rbp)
	movq	%rsi, -24(%rbp)
	movq	%rdx, -16(%rbp)
	movq	%rcx, -8(%rbp)
	movq	%rdi, -40(%rbp)
Ltmp794:
	.loc	1 260 9 prologue_end
	movq	%rdx, %rdi
	movq	%rsi, -48(%rbp)
	movq	%rcx, %rsi
	movq	-40(%rbp), %rdx
	movq	-48(%rbp), %rcx
	callq	__ZN99_$LT$core..ops..range..Range$LT$usize$GT$$u20$as$u20$core..slice..SliceIndex$LT$$u5b$T$u5d$$GT$$GT$3get17h37933e6659d323d9E
	movq	%rax, -56(%rbp)
	movq	%rdx, -64(%rbp)
	.loc	1 0 9 is_stmt 0
	movq	-56(%rbp), %rax
	movq	-64(%rbp), %rdx
	.loc	1 261 6 is_stmt 1
	addq	$64, %rsp
	popq	%rbp
	retq
Ltmp795:
Lfunc_end226:
	.cfi_endproc

	.p2align	4, 0x90
__ZN4core5slice29_$LT$impl$u20$$u5b$T$u5d$$GT$3get17hea1e839efea3f410E:
Lfunc_begin227:
	.loc	1 256 0
	.cfi_startproc
	pushq	%rbp
	.cfi_def_cfa_offset 16
	.cfi_offset %rbp, -16
	movq	%rsp, %rbp
	.cfi_def_cfa_register %rbp
	subq	$48, %rsp
	movq	%rdi, -24(%rbp)
	movq	%rsi, -16(%rbp)
	movq	%rdx, -8(%rbp)
	movq	%rdi, -32(%rbp)
Ltmp796:
	.loc	1 260 9 prologue_end
	movq	%rdx, %rdi
	movq	-32(%rbp), %rax
	movq	%rsi, -40(%rbp)
	movq	%rax, %rsi
	movq	-40(%rbp), %rdx
	callq	__ZN68_$LT$usize$u20$as$u20$core..slice..SliceIndex$LT$$u5b$T$u5d$$GT$$GT$3get17hecf4a7d09644babaE
	movq	%rax, -48(%rbp)
	.loc	1 0 9 is_stmt 0
	movq	-48(%rbp), %rax
	.loc	1 261 6 is_stmt 1
	addq	$48, %rsp
	popq	%rbp
	retq
Ltmp797:
Lfunc_end227:
	.cfi_endproc

	.p2align	4, 0x90
__ZN4core5slice29_$LT$impl$u20$$u5b$T$u5d$$GT$3len17he68d0d86fa79f574E:
Lfunc_begin228:
	.loc	1 72 0
	.cfi_startproc
	pushq	%rbp
	.cfi_def_cfa_offset 16
	.cfi_offset %rbp, -16
	movq	%rsp, %rbp
	.cfi_def_cfa_register %rbp
	subq	$32, %rsp
	movq	%rdi, -16(%rbp)
	movq	%rsi, -8(%rbp)
Ltmp798:
	.loc	1 73 18 prologue_end
	movq	%rdi, -32(%rbp)
	movq	%rsi, -24(%rbp)
	movq	-24(%rbp), %rax
	.loc	1 74 6
	addq	$32, %rsp
	popq	%rbp
	retq
Ltmp799:
Lfunc_end228:
	.cfi_endproc

	.p2align	4, 0x90
__ZN4core5slice29_$LT$impl$u20$$u5b$T$u5d$$GT$4iter17h8ac7d7a9471ebd9cE:
Lfunc_begin229:
	.loc	1 611 0
	.cfi_startproc
	pushq	%rbp
	.cfi_def_cfa_offset 16
	.cfi_offset %rbp, -16
	movq	%rsp, %rbp
	.cfi_def_cfa_register %rbp
	subq	$128, %rsp
	movq	%rdi, -32(%rbp)
	movq	%rsi, -24(%rbp)
	movq	%rdi, -72(%rbp)
	movq	%rsi, -80(%rbp)
Ltmp800:
	.loc	1 613 23 prologue_end
	callq	__ZN4core5slice29_$LT$impl$u20$$u5b$T$u5d$$GT$6as_ptr17h44f0e82fee7c6a38E
	movq	%rax, -16(%rbp)
	movq	%rax, -88(%rbp)
	.loc	1 0 23 is_stmt 0
	movq	-88(%rbp), %rdi
Ltmp801:
	.loc	1 614 21 is_stmt 1
	callq	__ZN4core3ptr9const_ptr33_$LT$impl$u20$$BP$const$u20$T$GT$7is_null17h0563ad4a197ee532E
Ltmp802:
	.loc	17 310 5
	movq	$1, -8(%rbp)
	movq	-8(%rbp), %rax
	movq	%rax, -96(%rbp)
Ltmp803:
	.loc	17 0 5 is_stmt 0
	movq	-96(%rbp), %rax
	.loc	1 616 26 is_stmt 1
	cmpq	$0, %rax
	.loc	1 616 23 is_stmt 0
	je	LBB229_6
	.loc	1 0 23
	movq	-72(%rbp), %rdi
	movq	-80(%rbp), %rsi
	.loc	1 619 25 is_stmt 1
	callq	__ZN4core5slice29_$LT$impl$u20$$u5b$T$u5d$$GT$3len17he68d0d86fa79f574E
	movq	%rax, -104(%rbp)
	jmp	LBB229_9
LBB229_6:
	.loc	1 0 25 is_stmt 0
	movq	-72(%rbp), %rdi
	movq	-80(%rbp), %rsi
	.loc	1 617 49 is_stmt 1
	callq	__ZN4core5slice29_$LT$impl$u20$$u5b$T$u5d$$GT$3len17he68d0d86fa79f574E
	movq	%rax, -112(%rbp)
	.loc	1 0 49 is_stmt 0
	movq	-88(%rbp), %rdi
	movq	-112(%rbp), %rsi
	.loc	1 617 17
	callq	__ZN4core3ptr9const_ptr33_$LT$impl$u20$$BP$const$u20$T$GT$12wrapping_add17ha39925b7032194f0E
	movq	%rax, -120(%rbp)
	.loc	1 0 17
	movq	-120(%rbp), %rax
	.loc	1 617 17
	movq	%rax, -48(%rbp)
	.loc	1 616 23 is_stmt 1
	jmp	LBB229_11
LBB229_9:
	.loc	1 0 23 is_stmt 0
	movq	-88(%rbp), %rdi
	movq	-104(%rbp), %rsi
	.loc	1 619 17 is_stmt 1
	callq	__ZN4core3ptr9const_ptr33_$LT$impl$u20$$BP$const$u20$T$GT$3add17h9bfd161079b0ba12E
	movq	%rax, -48(%rbp)
	.loc	1 616 23
	jmp	LBB229_11
LBB229_11:
	.loc	1 0 23 is_stmt 0
	movq	-88(%rbp), %rdi
Ltmp804:
	.loc	1 622 25 is_stmt 1
	callq	__ZN4core3ptr8non_null16NonNull$LT$T$GT$13new_unchecked17he8d2af0860a6e051E
	movq	%rax, -128(%rbp)
	.loc	1 622 64 is_stmt 0
	movq	-48(%rbp), %rax
	movq	-128(%rbp), %rcx
	.loc	1 622 13
	movq	%rcx, -64(%rbp)
	movq	%rax, -56(%rbp)
Ltmp805:
	.loc	1 624 6 is_stmt 1
	movq	-64(%rbp), %rax
	movq	-56(%rbp), %rdx
	addq	$128, %rsp
	popq	%rbp
	retq
Ltmp806:
Lfunc_end229:
	.cfi_endproc

	.p2align	4, 0x90
__ZN4core5slice29_$LT$impl$u20$$u5b$T$u5d$$GT$6as_ptr17h44f0e82fee7c6a38E:
Lfunc_begin230:
	.loc	1 382 0
	.cfi_startproc
	pushq	%rbp
	.cfi_def_cfa_offset 16
	.cfi_offset %rbp, -16
	movq	%rsp, %rbp
	.cfi_def_cfa_register %rbp
	subq	$16, %rsp
	movq	%rdi, -16(%rbp)
	movq	%rsi, -8(%rbp)
Ltmp807:
	.loc	1 384 6 prologue_end
	movq	%rdi, %rax
	addq	$16, %rsp
	popq	%rbp
	retq
Ltmp808:
Lfunc_end230:
	.cfi_endproc

	.p2align	4, 0x90
__ZN4core5slice74_$LT$impl$u20$core..ops..index..Index$LT$I$GT$$u20$for$u20$$u5b$T$u5d$$GT$5index17h2891073fe2c7196eE:
Lfunc_begin231:
	.loc	1 2958 0
	.cfi_startproc
	pushq	%rbp
	.cfi_def_cfa_offset 16
	.cfi_offset %rbp, -16
	movq	%rsp, %rbp
	.cfi_def_cfa_register %rbp
	subq	$64, %rsp
	movq	%rdi, -32(%rbp)
	movq	%rsi, -24(%rbp)
	movq	%rdx, -16(%rbp)
	movq	%rcx, -8(%rbp)
	movq	%rdi, -40(%rbp)
Ltmp809:
	.loc	1 2959 9 prologue_end
	movq	%rdx, %rdi
	movq	%rsi, -48(%rbp)
	movq	%rcx, %rsi
	movq	-40(%rbp), %rdx
	movq	-48(%rbp), %rcx
	callq	__ZN99_$LT$core..ops..range..Range$LT$usize$GT$$u20$as$u20$core..slice..SliceIndex$LT$$u5b$T$u5d$$GT$$GT$5index17ha4d8c9d086f37ee2E
	movq	%rax, -56(%rbp)
	movq	%rdx, -64(%rbp)
	.loc	1 0 9 is_stmt 0
	movq	-56(%rbp), %rax
	movq	-64(%rbp), %rdx
	.loc	1 2960 6 is_stmt 1
	addq	$64, %rsp
	popq	%rbp
	retq
Ltmp810:
Lfunc_end231:
	.cfi_endproc

	.p2align	4, 0x90
__ZN4core5slice77_$LT$impl$u20$core..ops..index..IndexMut$LT$I$GT$$u20$for$u20$$u5b$T$u5d$$GT$9index_mut17h193f4ce9b6cfffc9E:
Lfunc_begin232:
	.loc	1 2969 0
	.cfi_startproc
	pushq	%rbp
	.cfi_def_cfa_offset 16
	.cfi_offset %rbp, -16
	movq	%rsp, %rbp
	.cfi_def_cfa_register %rbp
	subq	$48, %rsp
	movq	%rdi, -24(%rbp)
	movq	%rsi, -16(%rbp)
Ltmp811:
	.loc	1 2970 9 prologue_end
	callq	__ZN90_$LT$core..ops..range..RangeFull$u20$as$u20$core..slice..SliceIndex$LT$$u5b$T$u5d$$GT$$GT$9index_mut17h1358ac4468921a53E
	movq	%rax, -32(%rbp)
	movq	%rdx, -40(%rbp)
	.loc	1 0 9 is_stmt 0
	movq	-32(%rbp), %rax
	movq	-40(%rbp), %rdx
	.loc	1 2971 6 is_stmt 1
	addq	$48, %rsp
	popq	%rbp
	retq
Ltmp812:
Lfunc_end232:
	.cfi_endproc

	.p2align	4, 0x90
__ZN4core5slice77_$LT$impl$u20$core..ops..index..IndexMut$LT$I$GT$$u20$for$u20$$u5b$T$u5d$$GT$9index_mut17h3ffcb0318399514eE:
Lfunc_begin233:
	.loc	1 2969 0
	.cfi_startproc
	pushq	%rbp
	.cfi_def_cfa_offset 16
	.cfi_offset %rbp, -16
	movq	%rsp, %rbp
	.cfi_def_cfa_register %rbp
	subq	$64, %rsp
	movq	%rdi, -24(%rbp)
	movq	%rsi, -16(%rbp)
	movq	%rdx, -8(%rbp)
	movq	%rdi, -32(%rbp)
Ltmp813:
	.loc	1 2970 9 prologue_end
	movq	%rdx, %rdi
	movq	-32(%rbp), %rax
	movq	%rsi, -40(%rbp)
	movq	%rax, %rsi
	movq	-40(%rbp), %rdx
	callq	__ZN101_$LT$core..ops..range..RangeTo$LT$usize$GT$$u20$as$u20$core..slice..SliceIndex$LT$$u5b$T$u5d$$GT$$GT$9index_mut17hed7d26a6245671bbE
	movq	%rax, -48(%rbp)
	movq	%rdx, -56(%rbp)
	.loc	1 0 9 is_stmt 0
	movq	-48(%rbp), %rax
	movq	-56(%rbp), %rdx
	.loc	1 2971 6 is_stmt 1
	addq	$64, %rsp
	popq	%rbp
	retq
Ltmp814:
Lfunc_end233:
	.cfi_endproc

	.p2align	4, 0x90
__ZN4core5slice81_$LT$impl$u20$core..cmp..PartialEq$LT$$u5b$B$u5d$$GT$$u20$for$u20$$u5b$A$u5d$$GT$2eq17hb0d97f905a10ee66E:
Lfunc_begin234:
	.loc	1 6187 0
	.cfi_startproc
	pushq	%rbp
	.cfi_def_cfa_offset 16
	.cfi_offset %rbp, -16
	movq	%rsp, %rbp
	.cfi_def_cfa_register %rbp
	subq	$48, %rsp
	movq	%rdi, -32(%rbp)
	movq	%rsi, -24(%rbp)
	movq	%rdx, -16(%rbp)
	movq	%rcx, -8(%rbp)
Ltmp815:
	.loc	1 6188 9 prologue_end
	callq	__ZN68_$LT$$u5b$A$u5d$$u20$as$u20$core..slice..SlicePartialEq$LT$A$GT$$GT$5equal17habc754c8d91b276eE
	movb	%al, -33(%rbp)
	.loc	1 0 9 is_stmt 0
	movb	-33(%rbp), %al
	.loc	1 6189 6 is_stmt 1
	andb	$1, %al
	movzbl	%al, %eax
	addq	$48, %rsp
	popq	%rbp
	retq
Ltmp816:
Lfunc_end234:
	.cfi_endproc

	.p2align	4, 0x90
__ZN4core6option15Option$LT$T$GT$14unwrap_or_else17h1f334d29e7eb9603E:
Lfunc_begin235:
	.file	33 "/rustc/6c8927b0cf80ceee19386026cf9d7fd4fd9d486f/src/libcore/option.rs"
	.loc	33 425 0
	.cfi_startproc
	.cfi_personality 155, _rust_eh_personality
	.cfi_lsda 16, Lexception24
	pushq	%rbp
	.cfi_def_cfa_offset 16
	.cfi_offset %rbp, -16
	movq	%rsp, %rbp
	.cfi_def_cfa_register %rbp
	subq	$96, %rsp
	movq	%rdi, %rax
Ltmp820:
	.loc	33 427 13 prologue_end
	movb	$0, -25(%rbp)
	movb	$1, -25(%rbp)
	movq	8(%rsi), %rcx
	testq	%rcx, %rcx
	setne	%dl
	movzbl	%dl, %r8d
	movl	%r8d, %ecx
	movq	%rsi, -72(%rbp)
Ltmp821:
	.loc	33 0 13 is_stmt 0
	movq	%rdi, -80(%rbp)
	movq	%rax, -88(%rbp)
	.loc	33 427 13
	je	LBB235_1
	jmp	LBB235_10
Ltmp822:
LBB235_10:
	jmp	LBB235_3
Ltmp823:
LBB235_1:
	.loc	33 428 21 is_stmt 1
	movb	$0, -25(%rbp)
Ltmp817:
	movq	-80(%rbp), %rdi
	callq	__ZN5alloc11collections5btree16unwrap_unchecked28_$u7b$$u7b$closure$u7d$$u7d$17haad613bf121ff3cfE
Ltmp818:
	jmp	LBB235_4
Ltmp824:
	.loc	33 426 15
	ud2
LBB235_3:
Ltmp825:
	.loc	33 0 15 is_stmt 0
	movq	-72(%rbp), %rax
	.loc	33 427 18 is_stmt 1
	movq	(%rax), %rcx
	movq	%rcx, -64(%rbp)
	movq	8(%rax), %rcx
	movq	%rcx, -56(%rbp)
	movq	16(%rax), %rcx
	movq	%rcx, -48(%rbp)
	movq	24(%rax), %rcx
	movq	%rcx, -40(%rbp)
Ltmp826:
	.loc	33 427 24 is_stmt 0
	movq	-64(%rbp), %rcx
	movq	-80(%rbp), %rdx
	movq	%rcx, (%rdx)
	movq	-56(%rbp), %rcx
	movq	%rcx, 8(%rdx)
	movq	-48(%rbp), %rcx
	movq	%rcx, 16(%rdx)
	movq	-40(%rbp), %rcx
	movq	%rcx, 24(%rdx)
Ltmp827:
	.loc	33 426 9 is_stmt 1
	jmp	LBB235_8
Ltmp828:
LBB235_4:
	jmp	LBB235_8
Ltmp829:
LBB235_5:
	.loc	33 0 9 is_stmt 0
	movq	-88(%rbp), %rax
	.loc	33 430 6 is_stmt 1
	addq	$96, %rsp
	popq	%rbp
	retq
Ltmp830:
LBB235_6:
	.loc	33 425 5
	movq	-16(%rbp), %rdi
	callq	__Unwind_Resume
	ud2
Ltmp831:
LBB235_7:
	.loc	33 430 5
	movb	$0, -25(%rbp)
	jmp	LBB235_5
Ltmp832:
LBB235_8:
	testb	$1, -25(%rbp)
	jne	LBB235_7
	jmp	LBB235_5
Ltmp833:
LBB235_9:
Ltmp819:
	.loc	33 0 5 is_stmt 0
	movq	%rax, -16(%rbp)
	movl	%edx, -8(%rbp)
	jmp	LBB235_6
Lfunc_end235:
	.cfi_endproc
	.section	__TEXT,__gcc_except_tab
	.p2align	2
GCC_except_table235:
Lexception24:
	.byte	255
	.byte	255
	.byte	1
	.uleb128 Lcst_end24-Lcst_begin24
Lcst_begin24:
	.uleb128 Ltmp817-Lfunc_begin235
	.uleb128 Ltmp818-Ltmp817
	.uleb128 Ltmp819-Lfunc_begin235
	.byte	0
	.uleb128 Ltmp818-Lfunc_begin235
	.uleb128 Lfunc_end235-Ltmp818
	.byte	0
	.byte	0
Lcst_end24:
	.p2align	2

	.section	__TEXT,__text,regular,pure_instructions
	.p2align	4, 0x90
__ZN4core6option15Option$LT$T$GT$14unwrap_or_else17h8f5f6a80aca54ddcE:
Lfunc_begin236:
	.loc	33 425 0 is_stmt 1
	.cfi_startproc
	.cfi_personality 155, _rust_eh_personality
	.cfi_lsda 16, Lexception25
	pushq	%rbp
	.cfi_def_cfa_offset 16
	.cfi_offset %rbp, -16
	movq	%rsp, %rbp
	.cfi_def_cfa_register %rbp
	subq	$96, %rsp
	movq	%rdi, %rax
Ltmp837:
	.loc	33 427 13 prologue_end
	movb	$0, -25(%rbp)
	movb	$1, -25(%rbp)
	movq	8(%rsi), %rcx
	testq	%rcx, %rcx
	setne	%dl
	movzbl	%dl, %r8d
	movl	%r8d, %ecx
	movq	%rsi, -72(%rbp)
Ltmp838:
	.loc	33 0 13 is_stmt 0
	movq	%rdi, -80(%rbp)
	movq	%rax, -88(%rbp)
	.loc	33 427 13
	je	LBB236_1
	jmp	LBB236_10
Ltmp839:
LBB236_10:
	jmp	LBB236_3
Ltmp840:
LBB236_1:
	.loc	33 428 21 is_stmt 1
	movb	$0, -25(%rbp)
Ltmp834:
	movq	-80(%rbp), %rdi
	callq	__ZN5alloc11collections5btree16unwrap_unchecked28_$u7b$$u7b$closure$u7d$$u7d$17ha605c88456c3fed7E
Ltmp835:
	jmp	LBB236_4
Ltmp841:
	.loc	33 426 15
	ud2
LBB236_3:
Ltmp842:
	.loc	33 0 15 is_stmt 0
	movq	-72(%rbp), %rax
	.loc	33 427 18 is_stmt 1
	movq	(%rax), %rcx
	movq	%rcx, -64(%rbp)
	movq	8(%rax), %rcx
	movq	%rcx, -56(%rbp)
	movq	16(%rax), %rcx
	movq	%rcx, -48(%rbp)
	movq	24(%rax), %rcx
	movq	%rcx, -40(%rbp)
Ltmp843:
	.loc	33 427 24 is_stmt 0
	movq	-64(%rbp), %rcx
	movq	-80(%rbp), %rdx
	movq	%rcx, (%rdx)
	movq	-56(%rbp), %rcx
	movq	%rcx, 8(%rdx)
	movq	-48(%rbp), %rcx
	movq	%rcx, 16(%rdx)
	movq	-40(%rbp), %rcx
	movq	%rcx, 24(%rdx)
Ltmp844:
	.loc	33 426 9 is_stmt 1
	jmp	LBB236_8
Ltmp845:
LBB236_4:
	jmp	LBB236_8
Ltmp846:
LBB236_5:
	.loc	33 0 9 is_stmt 0
	movq	-88(%rbp), %rax
	.loc	33 430 6 is_stmt 1
	addq	$96, %rsp
	popq	%rbp
	retq
Ltmp847:
LBB236_6:
	.loc	33 425 5
	movq	-16(%rbp), %rdi
	callq	__Unwind_Resume
	ud2
Ltmp848:
LBB236_7:
	.loc	33 430 5
	movb	$0, -25(%rbp)
	jmp	LBB236_5
Ltmp849:
LBB236_8:
	testb	$1, -25(%rbp)
	jne	LBB236_7
	jmp	LBB236_5
Ltmp850:
LBB236_9:
Ltmp836:
	.loc	33 0 5 is_stmt 0
	movq	%rax, -16(%rbp)
	movl	%edx, -8(%rbp)
	jmp	LBB236_6
Lfunc_end236:
	.cfi_endproc
	.section	__TEXT,__gcc_except_tab
	.p2align	2
GCC_except_table236:
Lexception25:
	.byte	255
	.byte	255
	.byte	1
	.uleb128 Lcst_end25-Lcst_begin25
Lcst_begin25:
	.uleb128 Ltmp834-Lfunc_begin236
	.uleb128 Ltmp835-Ltmp834
	.uleb128 Ltmp836-Lfunc_begin236
	.byte	0
	.uleb128 Ltmp835-Lfunc_begin236
	.uleb128 Lfunc_end236-Ltmp835
	.byte	0
	.byte	0
Lcst_end25:
	.p2align	2

	.section	__TEXT,__text,regular,pure_instructions
	.p2align	4, 0x90
__ZN4core6option15Option$LT$T$GT$14unwrap_or_else17hd06e48ee5b35e5d6E:
Lfunc_begin237:
	.loc	33 425 0 is_stmt 1
	.cfi_startproc
	.cfi_personality 155, _rust_eh_personality
	.cfi_lsda 16, Lexception26
	pushq	%rbp
	.cfi_def_cfa_offset 16
	.cfi_offset %rbp, -16
	movq	%rsp, %rbp
	.cfi_def_cfa_register %rbp
	subq	$128, %rsp
	movq	%rdi, -96(%rbp)
	movq	%rsi, -88(%rbp)
Ltmp854:
	.loc	33 427 13 prologue_end
	movb	$0, -33(%rbp)
	movb	$1, -33(%rbp)
	movq	-96(%rbp), %rax
	testq	%rax, %rax
	setne	%cl
	movzbl	%cl, %r8d
	movl	%r8d, %eax
	movq	%rdx, -104(%rbp)
Ltmp855:
	je	LBB237_1
	jmp	LBB237_10
Ltmp856:
LBB237_10:
	jmp	LBB237_3
Ltmp857:
LBB237_1:
	.loc	33 428 21
	movb	$0, -33(%rbp)
	movq	-104(%rbp), %rax
	movq	16(%rax), %rcx
	movq	%rcx, -48(%rbp)
	movq	(%rax), %rcx
	movq	8(%rax), %rdx
	movq	%rdx, -56(%rbp)
	movq	%rcx, -64(%rbp)
Ltmp851:
	leaq	-64(%rbp), %rdi
	callq	__ZN4core3str6traits105_$LT$impl$u20$core..slice..SliceIndex$LT$str$GT$$u20$for$u20$core..ops..range..RangeFrom$LT$usize$GT$$GT$5index28_$u7b$$u7b$closure$u7d$$u7d$17h1202bddaa767f579E
Ltmp852:
	movq	%rdx, -112(%rbp)
	movq	%rax, -120(%rbp)
	jmp	LBB237_4
Ltmp858:
	.loc	33 426 15
	ud2
LBB237_3:
Ltmp859:
	.loc	33 427 18
