	.section	__TEXT,__text,regular,pure_instructions
	.macosx_version_min 10, 7
	.p2align	4, 0x90
__ZN112_$LT$alloc..collections..btree..map..IntoIter$LT$K$C$V$GT$$u20$as$u20$core..iter..traits..iterator..Iterator$GT$4next17h93b1ed3ddac567a3E:
	.cfi_startproc
	pushq	%rbp
	.cfi_def_cfa_offset 16
	.cfi_offset %rbp, -16
	movq	%rsp, %rbp
	.cfi_def_cfa_register %rbp
	pushq	%r15
	pushq	%r14
	pushq	%r13
	pushq	%r12
	pushq	%rbx
	subq	$136, %rsp
	.cfi_offset %rbx, -56
	.cfi_offset %r12, -48
	.cfi_offset %r13, -40
	.cfi_offset %r14, -32
	.cfi_offset %r15, -24
	movq	%rsi, %r12
	movq	%rdi, %rsi
	movq	64(%r12), %rax
	testq	%rax, %rax
	je	LBB0_21
	decq	%rax
	movq	%rax, 64(%r12)
	movq	8(%r12), %rax
	testq	%rax, %rax
	cmoveq	%rax, %r12
	je	LBB0_23
	movq	(%r12), %rax
	movq	8(%r12), %rdi
	movq	16(%r12), %r8
	movq	24(%r12), %r13
	movzwl	10(%rdi), %ecx
	cmpq	%rcx, %r13
	jae	LBB0_4
	movq	%rax, %rbx
	jmp	LBB0_10
LBB0_21:
	movq	$0, (%rsi)
	jmp	LBB0_22
LBB0_4:
	movq	%r8, -48(%rbp)
	movq	%rsi, -56(%rbp)
	movl	$544, %r15d
	movq	(%rdi), %r14
	testq	%r14, %r14
	je	LBB0_6
	.p2align	4, 0x90
LBB0_7:
	leaq	1(%rax), %rbx
	movzwl	8(%rdi), %r13d
LBB0_8:
	testq	%rax, %rax
	movl	$640, %esi
	cmoveq	%r15, %rsi
	movl	$8, %edx
	callq	___rust_dealloc
	movzwl	10(%r14), %ecx
	movq	%rbx, %rax
	movq	%r14, %rdi
	cmpq	%rcx, %r13
	jb	LBB0_9
	movq	(%rdi), %r14
	testq	%r14, %r14
	jne	LBB0_7
LBB0_6:
	movq	%rax, %rbx
	xorl	%r14d, %r14d
	jmp	LBB0_8
LBB0_9:
	movq	%r14, %rdi
	movq	-56(%rbp), %rsi
	movq	-48(%rbp), %r8
LBB0_10:
	leaq	(,%r13,2), %rax
	addq	%r13, %rax
	movq	32(%rdi,%rax,8), %rcx
	movq	%rcx, -128(%rbp)
	vmovups	16(%rdi,%rax,8), %xmm0
	vmovaps	%xmm0, -144(%rbp)
	movq	296(%rdi,%rax,8), %rcx
	movq	%rcx, -160(%rbp)
	vmovups	280(%rdi,%rax,8), %xmm0
	vmovaps	%xmm0, -176(%rbp)
	testq	%rbx, %rbx
	je	LBB0_11
	movq	%rbx, %rax
	movq	552(%rdi,%r13,8), %rdi
	decq	%rax
	je	LBB0_13
	addq	$-2, %rbx
	movq	%rax, %rcx
	andq	$7, %rcx
	je	LBB0_18
	xorl	%edx, %edx
	.p2align	4, 0x90
LBB0_16:
	movq	544(%rdi), %rdi
	incq	%rdx
	cmpq	%rdx, %rcx
	jne	LBB0_16
	subq	%rdx, %rax
LBB0_18:
	xorl	%r13d, %r13d
	cmpq	$7, %rbx
	jb	LBB0_20
	.p2align	4, 0x90
LBB0_19:
	movq	544(%rdi), %rcx
	movq	544(%rcx), %rcx
	movq	544(%rcx), %rcx
	movq	544(%rcx), %rcx
	movq	544(%rcx), %rcx
	movq	544(%rcx), %rcx
	movq	544(%rcx), %rcx
	movq	544(%rcx), %rdi
	addq	$-8, %rax
	jne	LBB0_19
	jmp	LBB0_20
LBB0_11:
	incq	%r13
	jmp	LBB0_20
LBB0_13:
	xorl	%r13d, %r13d
LBB0_20:
	movq	-128(%rbp), %rax
	vmovaps	-144(%rbp), %xmm0
	vmovaps	%xmm0, -112(%rbp)
	movq	%rax, -96(%rbp)
	vmovaps	-176(%rbp), %xmm0
	vmovups	%xmm0, -88(%rbp)
	movq	-160(%rbp), %rax
	movq	%rax, -72(%rbp)
	vmovups	-112(%rbp), %xmm0
	vmovups	%xmm0, (%rsi)
	movq	-96(%rbp), %rax
	movq	%rax, 16(%rsi)
	movq	-88(%rbp), %rax
	movq	%rax, 24(%rsi)
	movq	-96(%rbp), %rax
	movq	%rax, 16(%rsi)
	vmovups	-88(%rbp), %xmm0
	vmovups	%xmm0, 24(%rsi)
	movq	-72(%rbp), %rax
	movq	%rax, 40(%rsi)
	movq	$0, (%r12)
	movq	%rdi, 8(%r12)
	movq	%r8, 16(%r12)
	movq	%r13, 24(%r12)
LBB0_22:
	addq	$136, %rsp
	popq	%rbx
	popq	%r12
	popq	%r13
	popq	%r14
	popq	%r15
	popq	%rbp
	retq
LBB0_23:
	leaq	l___unnamed_1(%rip), %rdi
	leaq	l___unnamed_2(%rip), %rdx
	movl	$43, %esi
	callq	__ZN4core9panicking5panic17h736ee47a631475c0E
	.cfi_endproc

	.p2align	4, 0x90
__ZN36_$LT$T$u20$as$u20$core..any..Any$GT$7type_id17h51d817ae8eada307E:
	.cfi_startproc
	pushq	%rbp
	.cfi_def_cfa_offset 16
	.cfi_offset %rbp, -16
	movq	%rsp, %rbp
	.cfi_def_cfa_register %rbp
	movabsq	$1229646359891580772, %rax
	popq	%rbp
	retq
	.cfi_endproc

	.private_extern	__ZN3std2rt10lang_start17h5a9dcbab0d21db0aE
	.globl	__ZN3std2rt10lang_start17h5a9dcbab0d21db0aE
	.p2align	4, 0x90
__ZN3std2rt10lang_start17h5a9dcbab0d21db0aE:
	.cfi_startproc
	pushq	%rbp
	.cfi_def_cfa_offset 16
	.cfi_offset %rbp, -16
	movq	%rsp, %rbp
	.cfi_def_cfa_register %rbp
	subq	$16, %rsp
	movq	%rdx, %rcx
	movq	%rsi, %rdx
	movq	%rdi, -8(%rbp)
	leaq	l___unnamed_3(%rip), %rsi
	leaq	-8(%rbp), %rdi
	callq	__ZN3std2rt19lang_start_internal17hebefdaa8fd585aefE
	addq	$16, %rsp
	popq	%rbp
	retq
	.cfi_endproc

	.p2align	4, 0x90
__ZN3std2rt10lang_start28_$u7b$$u7b$closure$u7d$$u7d$17ha9dd8dc2d558bc9fE:
	.cfi_startproc
	pushq	%rbp
	.cfi_def_cfa_offset 16
	.cfi_offset %rbp, -16
	movq	%rsp, %rbp
	.cfi_def_cfa_register %rbp
	callq	*(%rdi)
	xorl	%eax, %eax
	popq	%rbp
	retq
	.cfi_endproc

	.p2align	4, 0x90
__ZN3std9panicking11begin_panic17h3472b5f8dfbce83cE:
	.cfi_startproc
	pushq	%rbp
	.cfi_def_cfa_offset 16
	.cfi_offset %rbp, -16
	movq	%rsp, %rbp
	.cfi_def_cfa_register %rbp
	subq	$16, %rsp
	leaq	l___unnamed_4(%rip), %rax
	movq	%rax, -16(%rbp)
	movq	$51, -8(%rbp)
	leaq	l___unnamed_5(%rip), %rdi
	callq	__ZN4core5panic8Location6caller17hf55c9a52d6249cfcE
	leaq	l___unnamed_6(%rip), %rsi
	leaq	-16(%rbp), %rdi
	xorl	%edx, %edx
	movq	%rax, %rcx
	callq	__ZN3std9panicking20rust_panic_with_hook17hf8b9378dd2e7986aE
	.cfi_endproc

	.p2align	4, 0x90
__ZN44_$LT$$RF$T$u20$as$u20$core..fmt..Display$GT$3fmt17h7d149bbf8ef2d359E:
	.cfi_startproc
	pushq	%rbp
	.cfi_def_cfa_offset 16
	.cfi_offset %rbp, -16
	movq	%rsp, %rbp
	.cfi_def_cfa_register %rbp
	movq	%rsi, %rdx
	movq	(%rdi), %rax
	movq	8(%rdi), %rsi
	movq	%rax, %rdi
	popq	%rbp
	jmp	__ZN42_$LT$str$u20$as$u20$core..fmt..Display$GT$3fmt17hd4dee1c1c4ccf892E
	.cfi_endproc

	.p2align	4, 0x90
__ZN4core3ops8function6FnOnce40call_once$u7b$$u7b$vtable.shim$u7d$$u7d$17h29ee9f07836daf8fE:
	.cfi_startproc
	pushq	%rbp
	.cfi_def_cfa_offset 16
	.cfi_offset %rbp, -16
	movq	%rsp, %rbp
	.cfi_def_cfa_register %rbp
	callq	*(%rdi)
	xorl	%eax, %eax
	popq	%rbp
	retq
	.cfi_endproc

	.p2align	4, 0x90
__ZN4core3ptr13drop_in_place17h01b1c68a48f1c10dE:
	.cfi_startproc
	pushq	%rbp
	.cfi_def_cfa_offset 16
	.cfi_offset %rbp, -16
	movq	%rsp, %rbp
	.cfi_def_cfa_register %rbp
	pushq	%rbx
	pushq	%rax
	.cfi_offset %rbx, -24
	movq	%rdi, %rbx
	movq	(%rdi), %rdi
	testq	%rdi, %rdi
	je	LBB7_3
	movq	8(%rbx), %rsi
	testq	%rsi, %rsi
	je	LBB7_3
	movl	$1, %edx
	callq	___rust_dealloc
LBB7_3:
	movq	24(%rbx), %rdi
	testq	%rdi, %rdi
	je	LBB7_5
	movq	32(%rbx), %rsi
	testq	%rsi, %rsi
	je	LBB7_5
	movl	$1, %edx
	addq	$8, %rsp
	popq	%rbx
	popq	%rbp
	jmp	___rust_dealloc
LBB7_5:
	addq	$8, %rsp
	popq	%rbx
	popq	%rbp
	retq
	.cfi_endproc

	.p2align	4, 0x90
__ZN4core3ptr13drop_in_place17h0a57fd93d961ecc2E:
	.cfi_startproc
	pushq	%rbp
	.cfi_def_cfa_offset 16
	.cfi_offset %rbp, -16
	movq	%rsp, %rbp
	.cfi_def_cfa_register %rbp
	popq	%rbp
	retq
	.cfi_endproc

	.p2align	4, 0x90
__ZN4core3ptr13drop_in_place17h2432c1c9773e8d8dE:
	.cfi_startproc
	pushq	%rbp
	.cfi_def_cfa_offset 16
	.cfi_offset %rbp, -16
	movq	%rsp, %rbp
	.cfi_def_cfa_register %rbp
	testq	%rsi, %rsi
	je	LBB9_3
	testq	%rdi, %rdi
	je	LBB9_3
	shlq	$4, %rsi
	je	LBB9_3
	movl	$8, %edx
	popq	%rbp
	jmp	___rust_dealloc
LBB9_3:
	popq	%rbp
	retq
	.cfi_endproc

	.p2align	4, 0x90
__ZN4core3ptr13drop_in_place17h9a0d1d5f4892cd88E:
	.cfi_startproc
	pushq	%rbp
	.cfi_def_cfa_offset 16
	.cfi_offset %rbp, -16
	movq	%rsp, %rbp
	.cfi_def_cfa_register %rbp
	movq	(%rdi), %rax
	testq	%rax, %rax
	je	LBB10_2
	movb	$0, (%rax)
	movq	8(%rdi), %rsi
	testq	%rsi, %rsi
	je	LBB10_2
	movq	(%rdi), %rdi
	movl	$1, %edx
	popq	%rbp
	jmp	___rust_dealloc
LBB10_2:
	popq	%rbp
	retq
	.cfi_endproc

	.p2align	4, 0x90
__ZN4core3ptr13drop_in_place17h9f69a54ed15c9295E:
	.cfi_startproc
	pushq	%rbp
	.cfi_def_cfa_offset 16
	.cfi_offset %rbp, -16
	movq	%rsp, %rbp
	.cfi_def_cfa_register %rbp
	movq	%rdi, %rax
	movq	(%rdi), %rdi
	testq	%rdi, %rdi
	je	LBB11_2
	movq	8(%rax), %rsi
	testq	%rsi, %rsi
	je	LBB11_2
	movl	$1, %edx
	popq	%rbp
	jmp	___rust_dealloc
LBB11_2:
	popq	%rbp
	retq
	.cfi_endproc

	.p2align	4, 0x90
__ZN4core3ptr13drop_in_place17ha543652dc979e556E:
	.cfi_startproc
	pushq	%rbp
	.cfi_def_cfa_offset 16
	.cfi_offset %rbp, -16
	movq	%rsp, %rbp
	.cfi_def_cfa_register %rbp
	cmpl	$3, (%rdi)
	jne	LBB12_1
	addq	$4, %rdi
	popq	%rbp
	jmp	__ZN70_$LT$std..sys..unix..fd..FileDesc$u20$as$u20$core..ops..drop..Drop$GT$4drop17hf5fce2bf4d9f8deaE
LBB12_1:
	popq	%rbp
	retq
	.cfi_endproc

	.p2align	4, 0x90
__ZN4core3ptr13drop_in_place17hc70010fc3cc3a738E:
Lfunc_begin0:
	.cfi_startproc
	.cfi_personality 155, _rust_eh_personality
	.cfi_lsda 16, Lexception0
	pushq	%rbp
	.cfi_def_cfa_offset 16
	.cfi_offset %rbp, -16
	movq	%rsp, %rbp
	.cfi_def_cfa_register %rbp
	pushq	%r15
	pushq	%r14
	pushq	%r13
	pushq	%r12
	pushq	%rbx
	subq	$120, %rsp
	.cfi_offset %rbx, -56
	.cfi_offset %r12, -48
	.cfi_offset %r13, -40
	.cfi_offset %r14, -32
	.cfi_offset %r15, -24
	movq	%rdi, %r14
	movq	(%rdi), %rax
	movb	$0, (%rax)
	movq	8(%rdi), %rsi
	testq	%rsi, %rsi
	je	LBB13_2
	movq	(%r14), %rdi
	movl	$1, %edx
	callq	___rust_dealloc
LBB13_2:
	movq	16(%r14), %rbx
	movq	32(%r14), %r15
	testq	%r15, %r15
	je	LBB13_8
	shlq	$4, %r15
	addq	%rbx, %r15
	jmp	LBB13_4
	.p2align	4, 0x90
LBB13_6:
	addq	$16, %rbx
	cmpq	%r15, %rbx
	je	LBB13_7
LBB13_4:
	movq	(%rbx), %rax
	movb	$0, (%rax)
	movq	8(%rbx), %rsi
	testq	%rsi, %rsi
	je	LBB13_6
	movq	(%rbx), %rdi
	movl	$1, %edx
	callq	___rust_dealloc
	jmp	LBB13_6
LBB13_7:
	movq	16(%r14), %rbx
LBB13_8:
	movq	24(%r14), %rsi
	testq	%rsi, %rsi
	je	LBB13_12
	testq	%rbx, %rbx
	je	LBB13_12
	shlq	$4, %rsi
	je	LBB13_12
	movl	$8, %edx
	movq	%rbx, %rdi
	callq	___rust_dealloc
LBB13_12:
	movq	48(%r14), %rsi
	testq	%rsi, %rsi
	je	LBB13_16
	movq	40(%r14), %rdi
	testq	%rdi, %rdi
	je	LBB13_16
	shlq	$3, %rsi
	testq	%rsi, %rsi
	je	LBB13_16
	movl	$8, %edx
	callq	___rust_dealloc
LBB13_16:
	movq	64(%r14), %rcx
	testq	%rcx, %rcx
	je	LBB13_17
	movq	72(%r14), %rdi
	movq	80(%r14), %rax
	movzwl	10(%rcx), %edx
	testq	%rdi, %rdi
	je	LBB13_32
	movb	$1, %bl
	movq	%rcx, %rsi
	.p2align	4, 0x90
LBB13_36:
	testb	$1, %bl
	je	LBB13_33
	cmpq	$1, %rdi
	setne	%bl
	movq	544(%rcx), %rcx
	movq	544(%rsi,%rdx,8), %rsi
	movzwl	10(%rsi), %edx
	decq	%rdi
	jne	LBB13_36
	jmp	LBB13_38
LBB13_17:
	movq	$0, -104(%rbp)
	movq	$0, -72(%rbp)
	xorl	%eax, %eax
	jmp	LBB13_39
LBB13_32:
	movq	%rcx, %rsi
LBB13_38:
	movq	$0, -112(%rbp)
	movq	%rcx, -104(%rbp)
	vxorps	%xmm0, %xmm0, %xmm0
	vmovups	%xmm0, -96(%rbp)
	movq	$0, -80(%rbp)
	movq	%rsi, -72(%rbp)
	movq	$0, -64(%rbp)
	movq	%rdx, -56(%rbp)
LBB13_39:
	movq	%rax, -48(%rbp)
Ltmp2:
	leaq	-160(%rbp), %rdi
	leaq	-112(%rbp), %rsi
	callq	__ZN112_$LT$alloc..collections..btree..map..IntoIter$LT$K$C$V$GT$$u20$as$u20$core..iter..traits..iterator..Iterator$GT$4next17h93b1ed3ddac567a3E
Ltmp3:
	movq	-160(%rbp), %rdi
	testq	%rdi, %rdi
	je	LBB13_50
	leaq	-160(%rbp), %r15
	leaq	-112(%rbp), %r12
	.p2align	4, 0x90
LBB13_42:
	movq	-136(%rbp), %rbx
	movq	-128(%rbp), %r13
	testq	%rdi, %rdi
	je	LBB13_45
	movq	-152(%rbp), %rsi
	testq	%rsi, %rsi
	je	LBB13_45
	movl	$1, %edx
	callq	___rust_dealloc
LBB13_45:
	testq	%rbx, %rbx
	je	LBB13_48
	testq	%r13, %r13
	je	LBB13_48
	movl	$1, %edx
	movq	%rbx, %rdi
	movq	%r13, %rsi
	callq	___rust_dealloc
LBB13_48:
Ltmp5:
	movq	%r15, %rdi
	movq	%r12, %rsi
	callq	__ZN112_$LT$alloc..collections..btree..map..IntoIter$LT$K$C$V$GT$$u20$as$u20$core..iter..traits..iterator..Iterator$GT$4next17h93b1ed3ddac567a3E
Ltmp6:
	movq	-160(%rbp), %rdi
	testq	%rdi, %rdi
	jne	LBB13_42
LBB13_50:
	movq	-104(%rbp), %rdi
	testq	%rdi, %rdi
	je	LBB13_27
	movq	-112(%rbp), %rax
	movl	$544, %r15d
	.p2align	4, 0x90
LBB13_52:
	movq	(%rdi), %r12
	xorl	%ebx, %ebx
	testq	%r12, %r12
	setne	%bl
	addq	%rax, %rbx
	testq	%rax, %rax
	movl	$640, %esi
	cmoveq	%r15, %rsi
	movl	$8, %edx
	callq	___rust_dealloc
	movq	%rbx, %rax
	movq	%r12, %rdi
	testq	%r12, %r12
	jne	LBB13_52
LBB13_27:
	movq	96(%r14), %rax
	testq	%rax, %rax
	je	LBB13_30
	movb	$0, (%rax)
	movq	104(%r14), %rsi
	testq	%rsi, %rsi
	je	LBB13_30
	movq	96(%r14), %rdi
	movl	$1, %edx
	callq	___rust_dealloc
LBB13_30:
	leaq	112(%r14), %rdi
Ltmp8:
	callq	__ZN4core3ptr13drop_in_place17hf98fc657a9839624E
Ltmp9:
	cmpl	$3, 152(%r14)
	jne	LBB13_23
	leaq	156(%r14), %rdi
Ltmp11:
	callq	__ZN70_$LT$std..sys..unix..fd..FileDesc$u20$as$u20$core..ops..drop..Drop$GT$4drop17hf5fce2bf4d9f8deaE
Ltmp12:
LBB13_23:
	cmpl	$3, 160(%r14)
	jne	LBB13_21
	leaq	164(%r14), %rdi
Ltmp14:
	callq	__ZN70_$LT$std..sys..unix..fd..FileDesc$u20$as$u20$core..ops..drop..Drop$GT$4drop17hf5fce2bf4d9f8deaE
Ltmp15:
LBB13_21:
	cmpl	$3, 168(%r14)
	jne	LBB13_59
	addq	$172, %r14
	movq	%r14, %rdi
	addq	$120, %rsp
	popq	%rbx
	popq	%r12
	popq	%r13
	popq	%r14
	popq	%r15
	popq	%rbp
	jmp	__ZN70_$LT$std..sys..unix..fd..FileDesc$u20$as$u20$core..ops..drop..Drop$GT$4drop17hf5fce2bf4d9f8deaE
LBB13_59:
	addq	$120, %rsp
	popq	%rbx
	popq	%r12
	popq	%r13
	popq	%r14
	popq	%r15
	popq	%rbp
	retq
LBB13_33:
	leaq	__ZN44_$LT$$RF$T$u20$as$u20$core..fmt..Display$GT$3fmt17h7d149bbf8ef2d359E(%rip), %rax
	vmovq	%rax, %xmm0
	leaq	l___unnamed_7(%rip), %rax
	vmovq	%rax, %xmm1
	vpunpcklqdq	%xmm0, %xmm1, %xmm0
	vmovdqa	%xmm0, -160(%rbp)
	leaq	l___unnamed_8(%rip), %rax
	movq	%rax, -112(%rbp)
	movq	$1, -104(%rbp)
	movq	$0, -96(%rbp)
	leaq	-160(%rbp), %rax
	movq	%rax, -80(%rbp)
	movq	$1, -72(%rbp)
Ltmp0:
	leaq	l___unnamed_9(%rip), %rsi
	leaq	-112(%rbp), %rdi
	callq	__ZN4core9panicking9panic_fmt17hab6ef1464e9720aaE
Ltmp1:
	ud2
LBB13_58:
Ltmp16:
	movq	%rax, %rbx
	jmp	LBB13_20
LBB13_18:
Ltmp13:
	movq	%rax, %rbx
	jmp	LBB13_19
LBB13_54:
Ltmp4:
	jmp	LBB13_55
LBB13_57:
Ltmp10:
	movq	%rax, %rbx
	jmp	LBB13_56
LBB13_53:
Ltmp7:
LBB13_55:
	movq	%rax, %rbx
	leaq	96(%r14), %rdi
	callq	__ZN4core3ptr13drop_in_place17h9a0d1d5f4892cd88E
	leaq	112(%r14), %rdi
	callq	__ZN4core3ptr13drop_in_place17hf98fc657a9839624E
LBB13_56:
	leaq	152(%r14), %rdi
	callq	__ZN4core3ptr13drop_in_place17ha543652dc979e556E
LBB13_19:
	leaq	160(%r14), %rdi
	callq	__ZN4core3ptr13drop_in_place17ha543652dc979e556E
LBB13_20:
	addq	$168, %r14
	movq	%r14, %rdi
	callq	__ZN4core3ptr13drop_in_place17ha543652dc979e556E
	movq	%rbx, %rdi
	callq	__Unwind_Resume
	ud2
Lfunc_end0:
	.cfi_endproc
	.section	__TEXT,__gcc_except_tab
	.p2align	2
GCC_except_table13:
Lexception0:
	.byte	255
	.byte	255
	.byte	1
	.uleb128 Lcst_end0-Lcst_begin0
Lcst_begin0:
	.uleb128 Ltmp2-Lfunc_begin0
	.uleb128 Ltmp3-Ltmp2
	.uleb128 Ltmp4-Lfunc_begin0
	.byte	0
	.uleb128 Ltmp5-Lfunc_begin0
	.uleb128 Ltmp6-Ltmp5
	.uleb128 Ltmp7-Lfunc_begin0
	.byte	0
	.uleb128 Ltmp8-Lfunc_begin0
	.uleb128 Ltmp9-Ltmp8
	.uleb128 Ltmp10-Lfunc_begin0
	.byte	0
	.uleb128 Ltmp11-Lfunc_begin0
	.uleb128 Ltmp12-Ltmp11
	.uleb128 Ltmp13-Lfunc_begin0
	.byte	0
	.uleb128 Ltmp14-Lfunc_begin0
	.uleb128 Ltmp15-Ltmp14
	.uleb128 Ltmp16-Lfunc_begin0
	.byte	0
	.uleb128 Ltmp15-Lfunc_begin0
	.uleb128 Ltmp0-Ltmp15
	.byte	0
	.byte	0
	.uleb128 Ltmp0-Lfunc_begin0
	.uleb128 Ltmp1-Ltmp0
	.uleb128 Ltmp4-Lfunc_begin0
	.byte	0
	.uleb128 Ltmp1-Lfunc_begin0
	.uleb128 Lfunc_end0-Ltmp1
	.byte	0
	.byte	0
Lcst_end0:
	.p2align	2

	.section	__TEXT,__text,regular,pure_instructions
	.p2align	4, 0x90
__ZN4core3ptr13drop_in_place17he92c7ed6ddff466aE:
Lfunc_begin1:
	.cfi_startproc
	.cfi_personality 155, _rust_eh_personality
	.cfi_lsda 16, Lexception1
	pushq	%rbp
	.cfi_def_cfa_offset 16
	.cfi_offset %rbp, -16
	movq	%rsp, %rbp
	.cfi_def_cfa_register %rbp
	pushq	%r14
	pushq	%rbx
	.cfi_offset %rbx, -32
	.cfi_offset %r14, -24
	movq	%rdi, %rbx
	movq	(%rdi), %rdi
	movq	8(%rbx), %rax
Ltmp17:
	callq	*(%rax)
Ltmp18:
	movq	8(%rbx), %rax
	movq	8(%rax), %rsi
	testq	%rsi, %rsi
	je	LBB14_2
	movq	(%rbx), %rdi
	movq	16(%rax), %rdx
	popq	%rbx
	popq	%r14
	popq	%rbp
	jmp	___rust_dealloc
LBB14_2:
	popq	%rbx
	popq	%r14
	popq	%rbp
	retq
LBB14_3:
Ltmp19:
	movq	%rax, %r14
	movq	(%rbx), %rdi
	movq	8(%rbx), %rsi
	callq	__ZN5alloc5alloc8box_free17h1c2ef394f6e89612E
	movq	%r14, %rdi
	callq	__Unwind_Resume
	ud2
Lfunc_end1:
	.cfi_endproc
	.section	__TEXT,__gcc_except_tab
	.p2align	2
GCC_except_table14:
Lexception1:
	.byte	255
	.byte	255
	.byte	1
	.uleb128 Lcst_end1-Lcst_begin1
Lcst_begin1:
	.uleb128 Ltmp17-Lfunc_begin1
	.uleb128 Ltmp18-Ltmp17
	.uleb128 Ltmp19-Lfunc_begin1
	.byte	0
	.uleb128 Ltmp18-Lfunc_begin1
	.uleb128 Lfunc_end1-Ltmp18
	.byte	0
	.byte	0
Lcst_end1:
	.p2align	2

	.section	__TEXT,__text,regular,pure_instructions
	.p2align	4, 0x90
__ZN4core3ptr13drop_in_place17hf98fc657a9839624E:
Lfunc_begin2:
	.cfi_startproc
	.cfi_personality 155, _rust_eh_personality
	.cfi_lsda 16, Lexception2
	pushq	%rbp
	.cfi_def_cfa_offset 16
	.cfi_offset %rbp, -16
	movq	%rsp, %rbp
	.cfi_def_cfa_register %rbp
	pushq	%r15
	pushq	%r14
	pushq	%r13
	pushq	%r12
	pushq	%rbx
	pushq	%rax
	.cfi_offset %rbx, -56
	.cfi_offset %r12, -48
	.cfi_offset %r13, -40
	.cfi_offset %r14, -32
	.cfi_offset %r15, -24
	movq	%rdi, %r14
	movq	(%rdi), %rbx
	movq	16(%rdi), %r12
	testq	%r12, %r12
	je	LBB15_7
	shlq	$4, %r12
	leaq	(%rbx,%r12), %r15
	addq	$-16, %r12
	addq	$16, %rbx
	jmp	LBB15_2
	.p2align	4, 0x90
LBB15_5:
	addq	$-16, %r12
	addq	$16, %rbx
	addq	$16, %r13
	cmpq	%r15, %r13
	je	LBB15_6
LBB15_2:
	movq	-16(%rbx), %rdi
	movq	-8(%rbx), %rax
Ltmp20:
	callq	*(%rax)
Ltmp21:
	leaq	-16(%rbx), %r13
	movq	8(%r13), %rax
	movq	8(%rax), %rsi
	testq	%rsi, %rsi
	je	LBB15_5
	movq	-16(%rbx), %rdi
	movq	16(%rax), %rdx
	callq	___rust_dealloc
	jmp	LBB15_5
LBB15_6:
	movq	(%r14), %rbx
LBB15_7:
	movq	8(%r14), %rsi
	testq	%rsi, %rsi
	je	LBB15_14
	testq	%rbx, %rbx
	je	LBB15_14
	shlq	$4, %rsi
	je	LBB15_14
	movl	$8, %edx
	movq	%rbx, %rdi
	addq	$8, %rsp
	popq	%rbx
	popq	%r12
	popq	%r13
	popq	%r14
	popq	%r15
	popq	%rbp
	jmp	___rust_dealloc
LBB15_14:
	addq	$8, %rsp
	popq	%rbx
	popq	%r12
	popq	%r13
	popq	%r14
	popq	%r15
	popq	%rbp
	retq
LBB15_11:
Ltmp22:
	movq	%rax, %r15
	movq	-16(%rbx), %rdi
	movq	-8(%rbx), %rsi
	callq	__ZN5alloc5alloc8box_free17h1c2ef394f6e89612E
	testq	%r12, %r12
	je	LBB15_16
	.p2align	4, 0x90
LBB15_12:
Ltmp23:
	movq	%rbx, %rdi
	callq	__ZN4core3ptr13drop_in_place17he92c7ed6ddff466aE
Ltmp24:
	addq	$16, %rbx
	addq	$-16, %r12
	jne	LBB15_12
	jmp	LBB15_16
LBB15_15:
Ltmp25:
	movq	%rax, %r15
LBB15_16:
	movq	(%r14), %rdi
	movq	8(%r14), %rsi
	callq	__ZN4core3ptr13drop_in_place17h2432c1c9773e8d8dE
	movq	%r15, %rdi
	callq	__Unwind_Resume
	ud2
Lfunc_end2:
	.cfi_endproc
	.section	__TEXT,__gcc_except_tab
	.p2align	2
GCC_except_table15:
Lexception2:
	.byte	255
	.byte	255
	.byte	1
	.uleb128 Lcst_end2-Lcst_begin2
Lcst_begin2:
	.uleb128 Ltmp20-Lfunc_begin2
	.uleb128 Ltmp21-Ltmp20
	.uleb128 Ltmp22-Lfunc_begin2
	.byte	0
	.uleb128 Ltmp23-Lfunc_begin2
	.uleb128 Ltmp24-Ltmp23
	.uleb128 Ltmp25-Lfunc_begin2
	.byte	0
	.uleb128 Ltmp24-Lfunc_begin2
	.uleb128 Lfunc_end2-Ltmp24
	.byte	0
	.byte	0
Lcst_end2:
	.p2align	2

	.section	__TEXT,__text,regular,pure_instructions
	.p2align	4, 0x90
__ZN4core3ptr13drop_in_place17hfd85c0206e111fa5E:
	.cfi_startproc
	pushq	%rbp
	.cfi_def_cfa_offset 16
	.cfi_offset %rbp, -16
	movq	%rsp, %rbp
	.cfi_def_cfa_register %rbp
	pushq	%rbx
	pushq	%rax
	.cfi_offset %rbx, -24
	movq	%rdi, %rbx
	movq	(%rdi), %rdi
	testq	%rdi, %rdi
	je	LBB16_5
	movq	8(%rbx), %rsi
	testq	%rsi, %rsi
	je	LBB16_3
	movl	$1, %edx
	callq	___rust_dealloc
LBB16_3:
	movq	24(%rbx), %rdi
	testq	%rdi, %rdi
	je	LBB16_5
	movq	32(%rbx), %rsi
	testq	%rsi, %rsi
	je	LBB16_5
	movl	$1, %edx
	addq	$8, %rsp
	popq	%rbx
	popq	%rbp
	jmp	___rust_dealloc
LBB16_5:
	addq	$8, %rsp
	popq	%rbx
	popq	%rbp
	retq
	.cfi_endproc

	.p2align	4, 0x90
__ZN5alloc5alloc8box_free17h1c2ef394f6e89612E:
	.cfi_startproc
	pushq	%rbp
	.cfi_def_cfa_offset 16
	.cfi_offset %rbp, -16
	movq	%rsp, %rbp
	.cfi_def_cfa_register %rbp
	movq	%rsi, %rax
	movq	8(%rsi), %rsi
	testq	%rsi, %rsi
	je	LBB17_1
	movq	16(%rax), %rdx
	popq	%rbp
	jmp	___rust_dealloc
LBB17_1:
	popq	%rbp
	retq
	.cfi_endproc

	.p2align	4, 0x90
__ZN5alloc5alloc8box_free17h4400b187b80c0debE:
	.cfi_startproc
	pushq	%rbp
	.cfi_def_cfa_offset 16
	.cfi_offset %rbp, -16
	movq	%rsp, %rbp
	.cfi_def_cfa_register %rbp
	movl	$24, %esi
	movl	$8, %edx
	popq	%rbp
	jmp	___rust_dealloc
	.cfi_endproc

	.p2align	4, 0x90
__ZN84_$LT$core..str..Split$LT$P$GT$$u20$as$u20$core..iter..traits..iterator..Iterator$GT$4next17hdfd5935786b41cb0E:
	.cfi_startproc
	pushq	%rbp
	.cfi_def_cfa_offset 16
	.cfi_offset %rbp, -16
	movq	%rsp, %rbp
	.cfi_def_cfa_register %rbp
	pushq	%r15
	pushq	%r14
	pushq	%r13
	pushq	%r12
	pushq	%rbx
	subq	$24, %rsp
	.cfi_offset %rbx, -56
	.cfi_offset %r12, -48
	.cfi_offset %r13, -40
	.cfi_offset %r14, -32
	.cfi_offset %r15, -24
	cmpb	$0, 65(%rdi)
	jne	LBB19_1
	movq	%rdi, %r13
	movq	32(%rdi), %rsi
	movq	40(%rdi), %rax
	movq	%rax, %rdx
	subq	%rsi, %rdx
	jb	LBB19_16
	cmpq	%rax, 24(%r13)
	jb	LBB19_16
	movq	16(%r13), %rcx
	movq	48(%r13), %rax
	movq	%rcx, -56(%rbp)
	addq	%rcx, %rsi
	movzbl	59(%rax,%r13), %edi
	callq	__ZN4core5slice6memchr6memchr17h319ffdabcbdf42caE
	cmpq	$1, %rax
	jne	LBB19_15
	leaq	60(%r13), %rax
	movq	%rax, -48(%rbp)
	.p2align	4, 0x90
LBB19_6:
	movq	32(%r13), %rax
	movq	48(%r13), %r15
	leaq	(%rdx,%rax), %rbx
	addq	$1, %rbx
	movq	%rbx, 32(%r13)
	movq	%rbx, %r12
	subq	%r15, %r12
	jae	LBB19_8
	movq	24(%r13), %r14
	movq	40(%r13), %rax
	movq	%rax, %rdx
	subq	%rbx, %rdx
	jae	LBB19_13
	jmp	LBB19_16
	.p2align	4, 0x90
LBB19_8:
	movq	24(%r13), %r14
	cmpq	%rbx, %r14
	jb	LBB19_12
	cmpq	$5, %r15
	jae	LBB19_23
	movq	16(%r13), %rdi
	addq	%r12, %rdi
	cmpq	-48(%rbp), %rdi
	je	LBB19_21
	movq	-48(%rbp), %rsi
	movq	%r15, %rdx
	callq	_bcmp
	testl	%eax, %eax
	je	LBB19_21
LBB19_12:
	movq	40(%r13), %rax
	movq	%rax, %rdx
	subq	%rbx, %rdx
	jb	LBB19_16
LBB19_13:
	cmpq	%rax, %r14
	jb	LBB19_16
	addq	16(%r13), %rbx
	movzbl	59(%r15,%r13), %edi
	movq	%rbx, %rsi
	callq	__ZN4core5slice6memchr6memchr17h319ffdabcbdf42caE
	cmpq	$1, %rax
	je	LBB19_6
LBB19_15:
	movq	40(%r13), %rax
	movq	%rax, 32(%r13)
LBB19_16:
	cmpb	$0, 65(%r13)
	je	LBB19_17
LBB19_1:
	xorl	%eax, %eax
LBB19_22:
	movq	%r12, %rdx
	addq	$24, %rsp
	popq	%rbx
	popq	%r12
	popq	%r13
	popq	%r14
	popq	%r15
	popq	%rbp
	retq
LBB19_17:
	cmpb	$0, 64(%r13)
	je	LBB19_19
	movq	(%r13), %rax
	movq	8(%r13), %r12
	jmp	LBB19_20
LBB19_19:
	movq	(%r13), %rax
	movq	8(%r13), %r12
	cmpq	%rax, %r12
	je	LBB19_1
LBB19_20:
	movb	$1, 65(%r13)
	subq	%rax, %r12
	addq	16(%r13), %rax
	jmp	LBB19_22
LBB19_21:
	movq	(%r13), %rcx
	movq	-56(%rbp), %rax
	addq	%rcx, %rax
	subq	%rcx, %r12
	movq	%rbx, (%r13)
	jmp	LBB19_22
LBB19_23:
	leaq	l___unnamed_10(%rip), %rdx
	movl	$4, %esi
	movq	%r15, %rdi
	callq	__ZN4core5slice20slice_index_len_fail17h550a313151a85135E
	.cfi_endproc

	.p2align	4, 0x90
__ZN91_$LT$std..panicking..begin_panic..PanicPayload$LT$A$GT$$u20$as$u20$core..panic..BoxMeUp$GT$3get17hd5dc609ed828885aE:
	.cfi_startproc
	pushq	%rbp
	.cfi_def_cfa_offset 16
	.cfi_offset %rbp, -16
	movq	%rsp, %rbp
	.cfi_def_cfa_register %rbp
	cmpq	$0, (%rdi)
	je	LBB20_2
	movq	%rdi, %rax
	leaq	l___unnamed_11(%rip), %rdx
	popq	%rbp
	retq
LBB20_2:
	callq	__ZN3std7process5abort17h4dccaf05298ce780E
	.cfi_endproc

	.p2align	4, 0x90
__ZN91_$LT$std..panicking..begin_panic..PanicPayload$LT$A$GT$$u20$as$u20$core..panic..BoxMeUp$GT$8take_box17h0288fc734011f5e9E:
	.cfi_startproc
	pushq	%rbp
	.cfi_def_cfa_offset 16
	.cfi_offset %rbp, -16
	movq	%rsp, %rbp
	.cfi_def_cfa_register %rbp
	pushq	%r14
	pushq	%rbx
	.cfi_offset %rbx, -32
	.cfi_offset %r14, -24
	movq	(%rdi), %rbx
	movq	8(%rdi), %r14
	movq	$0, (%rdi)
	testq	%rbx, %rbx
	je	LBB21_3
	movl	$16, %edi
	movl	$8, %esi
	callq	___rust_alloc
	testq	%rax, %rax
	je	LBB21_4
	movq	%rbx, (%rax)
	movq	%r14, 8(%rax)
	leaq	l___unnamed_11(%rip), %rdx
	popq	%rbx
	popq	%r14
	popq	%rbp
	retq
LBB21_3:
	callq	__ZN3std7process5abort17h4dccaf05298ce780E
LBB21_4:
	movl	$16, %edi
	movl	$8, %esi
	callq	__ZN5alloc5alloc18handle_alloc_error17hbc0ab0ed90816c07E
	.cfi_endproc

	.p2align	4, 0x90
__ZN18build_script_build4main17hb8bba3dfc012d475E:
Lfunc_begin3:
	.cfi_startproc
	.cfi_personality 155, _rust_eh_personality
	.cfi_lsda 16, Lexception3
	pushq	%rbp
	.cfi_def_cfa_offset 16
	.cfi_offset %rbp, -16
	movq	%rsp, %rbp
	.cfi_def_cfa_register %rbp
	pushq	%r15
	pushq	%r14
	pushq	%r13
	pushq	%r12
	pushq	%rbx
	subq	$632, %rsp
	.cfi_offset %rbx, -56
	.cfi_offset %r12, -48
	.cfi_offset %r13, -40
	.cfi_offset %r14, -32
	.cfi_offset %r15, -24
	leaq	l___unnamed_12(%rip), %rsi
	leaq	-256(%rbp), %rdi
	movl	$5, %edx
	callq	__ZN3std3env7_var_os17hc8b7303001145450E
	cmpq	$0, -256(%rbp)
	je	LBB22_13
	movq	-240(%rbp), %rdx
	movq	%rdx, -656(%rbp)
	vmovups	-256(%rbp), %xmm0
	vmovaps	%xmm0, -672(%rbp)
	movq	%rdx, -608(%rbp)
	vmovaps	%xmm0, -624(%rbp)
	movq	-624(%rbp), %rbx
Ltmp26:
	leaq	-256(%rbp), %rdi
	movq	%rbx, %rsi
	callq	__ZN3std3sys4unix7process14process_common7Command3new17hcd746a384cbb0b47E
Ltmp27:
	vmovups	-104(%rbp), %ymm0
	vmovups	%ymm0, -376(%rbp)
	vmovups	-128(%rbp), %ymm0
	vmovups	%ymm0, -400(%rbp)
	vmovups	-256(%rbp), %ymm0
	vmovups	-224(%rbp), %ymm1
	vmovups	-192(%rbp), %ymm2
	vmovups	-160(%rbp), %ymm3
	vmovups	%ymm3, -432(%rbp)
	vmovups	%ymm2, -464(%rbp)
	vmovups	%ymm1, -496(%rbp)
	vmovups	%ymm0, -528(%rbp)
	movq	-616(%rbp), %rsi
	testq	%rsi, %rsi
	je	LBB22_4
	movl	$1, %edx
	movq	%rbx, %rdi
	vzeroupper
	callq	___rust_dealloc
LBB22_4:
Ltmp29:
	leaq	l___unnamed_13(%rip), %rsi
	leaq	-528(%rbp), %rdi
	movl	$9, %edx
	vzeroupper
	callq	__ZN3std3sys4unix7process14process_common7Command3arg17hc476c471a9efd12bE
Ltmp30:
Ltmp31:
	leaq	-336(%rbp), %rdi
	leaq	-528(%rbp), %rsi
	callq	__ZN3std7process7Command6output17h3119df81721f3b73E
Ltmp32:
	cmpq	$1, -336(%rbp)
	je	LBB22_7
	movq	-328(%rbp), %r12
	movq	-320(%rbp), %rcx
	movq	-312(%rbp), %rbx
	movq	-304(%rbp), %r15
	movq	-296(%rbp), %rax
	vmovups	-288(%rbp), %xmm0
	vmovaps	%xmm0, -640(%rbp)
	testq	%r12, %r12
	je	LBB22_12
	movq	%r12, -592(%rbp)
	movq	%rcx, -72(%rbp)
	movq	%rcx, -584(%rbp)
	movq	%rbx, -576(%rbp)
	movq	%r15, -568(%rbp)
	movq	%rax, -64(%rbp)
	movq	%rax, -560(%rbp)
	vmovaps	-640(%rbp), %xmm0
	vmovups	%xmm0, -552(%rbp)
Ltmp34:
	leaq	-528(%rbp), %rdi
	callq	__ZN4core3ptr13drop_in_place17hc70010fc3cc3a738E
Ltmp35:
Ltmp36:
	leaq	-256(%rbp), %rdi
	movq	%r12, %rsi
	movq	%rbx, %rdx
	callq	__ZN4core3str9from_utf817he06957962f38305fE
Ltmp37:
	cmpq	$1, -256(%rbp)
	je	LBB22_30
	movq	-248(%rbp), %rax
	testq	%rax, %rax
	je	LBB22_30
	movq	-240(%rbp), %rcx
	movq	$0, -528(%rbp)
	movq	%rcx, -520(%rbp)
	movq	%rax, -512(%rbp)
	movq	%rcx, -504(%rbp)
	movq	$0, -496(%rbp)
	movq	%rcx, -488(%rbp)
	movq	$1, -480(%rbp)
	movabsq	$197568495662, %rax
	movq	%rax, -472(%rbp)
	movw	$1, -464(%rbp)
Ltmp38:
	leaq	-528(%rbp), %rdi
	callq	__ZN84_$LT$core..str..Split$LT$P$GT$$u20$as$u20$core..iter..traits..iterator..Iterator$GT$4next17hdfd5935786b41cb0E
Ltmp39:
	xorl	%esi, %esi
	testq	%rax, %rax
	setne	%sil
	leaq	l___unnamed_14(%rip), %rcx
	xorl	%edi, %edi
	testq	%rcx, %rcx
	setne	%dil
	cmpq	%rdi, %rsi
	jne	LBB22_30
	testq	%rax, %rax
	je	LBB22_26
	testq	%rcx, %rcx
	je	LBB22_26
	cmpq	$7, %rdx
	jne	LBB22_30
	cmpq	%rcx, %rax
	je	LBB22_26
	movl	$1953723762, %ecx
	xorl	(%rax), %ecx
	movl	$824206196, %edx
	xorl	3(%rax), %edx
	orl	%ecx, %edx
	jne	LBB22_30
LBB22_26:
Ltmp40:
	leaq	-528(%rbp), %rdi
	callq	__ZN84_$LT$core..str..Split$LT$P$GT$$u20$as$u20$core..iter..traits..iterator..Iterator$GT$4next17hdfd5935786b41cb0E
Ltmp41:
	movq	%rax, %r14
	movq	%rdx, %rbx
Ltmp42:
	leaq	-528(%rbp), %rdi
	callq	__ZN84_$LT$core..str..Split$LT$P$GT$$u20$as$u20$core..iter..traits..iterator..Iterator$GT$4next17hdfd5935786b41cb0E
Ltmp43:
	movq	%rbx, -264(%rbp)
	movq	%r15, %r13
	testq	%rax, %rax
	je	LBB22_29
	movq	$0, -256(%rbp)
	movq	%rdx, -248(%rbp)
	movq	%rax, -240(%rbp)
	movq	%rdx, -232(%rbp)
	movq	$0, -224(%rbp)
	movq	%rdx, -216(%rbp)
	movq	$1, -208(%rbp)
	movabsq	$193273528365, %rax
	movq	%rax, -200(%rbp)
	movw	$1, -192(%rbp)
	movq	$-1, %rbx
	leaq	-256(%rbp), %r15
	.p2align	4, 0x90
LBB22_36:
Ltmp44:
	movq	%r15, %rdi
	callq	__ZN84_$LT$core..str..Split$LT$P$GT$$u20$as$u20$core..iter..traits..iterator..Iterator$GT$4next17hdfd5935786b41cb0E
Ltmp45:
	testq	%rbx, %rbx
	je	LBB22_39
	incq	%rbx
	testq	%rax, %rax
	jne	LBB22_36
LBB22_39:
	testq	%rax, %rax
	je	LBB22_40
	cmpq	$3, %rdx
	movq	%r13, %r15
	jae	LBB22_42
LBB22_47:
	xorl	%ebx, %ebx
	testq	%r14, %r14
	jne	LBB22_49
	jmp	LBB22_30
LBB22_40:
	movb	$2, %bl
	movq	%r13, %r15
	testq	%r14, %r14
	jne	LBB22_49
	jmp	LBB22_30
LBB22_42:
	movb	$1, %bl
	leaq	l___unnamed_15(%rip), %rcx
	cmpq	%rcx, %rax
	je	LBB22_48
	movzwl	(%rax), %ecx
	xorl	$25956, %ecx
	movzbl	2(%rax), %esi
	xorl	$118, %esi
	orw	%cx, %si
	je	LBB22_48
	cmpq	$7, %rdx
	jb	LBB22_47
	leaq	l___unnamed_16(%rip), %rcx
	cmpq	%rcx, %rax
	je	LBB22_48
	movl	$1751607662, %ecx
	xorl	(%rax), %ecx
	movl	$2037150824, %edx
	xorl	3(%rax), %edx
	orl	%ecx, %edx
	jne	LBB22_47
LBB22_48:
	testq	%r14, %r14
	je	LBB22_30
LBB22_49:
Ltmp47:
	movq	%r14, %rdi
	movq	-264(%rbp), %rsi
	callq	__ZN4core3num52_$LT$impl$u20$core..str..FromStr$u20$for$u20$u32$GT$8from_str17hb8ee2851a4cfefb0E
Ltmp48:
	movq	%rax, %r13
	testb	$1, %r13b
	jne	LBB22_30
	movq	-72(%rbp), %rsi
	testq	%rsi, %rsi
	je	LBB22_53
	movl	$1, %edx
	movq	%r12, %rdi
	callq	___rust_dealloc
LBB22_53:
	testq	%r15, %r15
	movq	-64(%rbp), %rsi
	je	LBB22_56
	testq	%rsi, %rsi
	je	LBB22_56
	movl	$1, %edx
	movq	%r15, %rdi
	callq	___rust_dealloc
LBB22_56:
	testb	$1, %bl
	sete	-264(%rbp)
	cmpb	$2, %bl
	sete	%r15b
	leaq	l___unnamed_17(%rip), %rsi
	leaq	-256(%rbp), %rdi
	movl	$30, %edx
	callq	__ZN3std3env4_var17heb54e5eb7997d7b3E
	movq	-256(%rbp), %r14
	testq	%r14, %r14
	movq	-248(%rbp), %rdi
	testq	%rdi, %rdi
	je	LBB22_59
	movq	-240(%rbp), %rsi
	testq	%rsi, %rsi
	je	LBB22_59
	movl	$1, %edx
	callq	___rust_dealloc
LBB22_59:
	leaq	l___unnamed_18(%rip), %rsi
	leaq	-256(%rbp), %rdi
	movl	$19, %edx
	callq	__ZN3std3env4_var17heb54e5eb7997d7b3E
	movq	-256(%rbp), %rax
	movq	%rax, -72(%rbp)
	testq	%rax, %rax
	movq	-248(%rbp), %rdi
	testq	%rdi, %rdi
	je	LBB22_62
	movq	-240(%rbp), %rsi
	testq	%rsi, %rsi
	je	LBB22_62
	movl	$1, %edx
	callq	___rust_dealloc
LBB22_62:
	leaq	l___unnamed_19(%rip), %rsi
	leaq	-256(%rbp), %rdi
	movl	$29, %edx
	callq	__ZN3std3env4_var17heb54e5eb7997d7b3E
	movq	-256(%rbp), %rax
	testq	%rax, %rax
	movq	%rax, -64(%rbp)
	movq	-248(%rbp), %rdi
	testq	%rdi, %rdi
	je	LBB22_65
	movq	-240(%rbp), %rsi
	testq	%rsi, %rsi
	je	LBB22_65
	movl	$1, %edx
	callq	___rust_dealloc
LBB22_65:
	leaq	l___unnamed_20(%rip), %rsi
	leaq	-256(%rbp), %rdi
	movl	$7, %edx
	callq	__ZN3std3env4_var17heb54e5eb7997d7b3E
	movq	-256(%rbp), %r12
	testq	%r12, %r12
	movq	-248(%rbp), %rdi
	testq	%rdi, %rdi
	je	LBB22_68
	movq	-240(%rbp), %rsi
	testq	%rsi, %rsi
	je	LBB22_68
	movl	$1, %edx
	callq	___rust_dealloc
LBB22_68:
	leaq	l___unnamed_21(%rip), %rsi
	leaq	-256(%rbp), %rdi
	movl	$21, %edx
	callq	__ZN3std3env4_var17heb54e5eb7997d7b3E
	cmpq	$0, -256(%rbp)
	je	LBB22_69
	movq	-248(%rbp), %rdi
	testq	%rdi, %rdi
	je	LBB22_82
	movq	-240(%rbp), %rsi
	testq	%rsi, %rsi
	je	LBB22_82
	movl	$1, %edx
	callq	___rust_dealloc
	jmp	LBB22_82
LBB22_69:
	movq	-248(%rbp), %rdi
	testq	%rdi, %rdi
	je	LBB22_72
	movq	-240(%rbp), %rsi
	testq	%rsi, %rsi
	je	LBB22_72
	movl	$1, %edx
	callq	___rust_dealloc
LBB22_72:
	leaq	l___unnamed_22(%rip), %rax
	movq	%rax, -256(%rbp)
	movq	$1, -248(%rbp)
	movq	$0, -240(%rbp)
	leaq	l___unnamed_23(%rip), %rax
	movq	%rax, -224(%rbp)
	movq	$0, -216(%rbp)
	leaq	-256(%rbp), %rdi
	callq	__ZN3std2io5stdio6_print17hdea2154009b9e479E
LBB22_82:
	leaq	l___unnamed_24(%rip), %rsi
	leaq	-256(%rbp), %rbx
	movl	$15, %edx
	movq	%rbx, %rdi
	callq	__ZN3std3sys4unix7process14process_common7Command3new17hcd746a384cbb0b47E
Ltmp50:
	leaq	-528(%rbp), %rdi
	movq	%rbx, %rsi
	callq	__ZN3std7process7Command6output17h3119df81721f3b73E
Ltmp51:
	cmpq	$1, -528(%rbp)
	jne	LBB22_84
	movq	$0, -336(%rbp)
	cmpb	$2, -520(%rbp)
	jb	LBB22_90
	movq	-512(%rbp), %rbx
	movq	(%rbx), %rdi
	movq	8(%rbx), %rax
Ltmp53:
	callq	*(%rax)
Ltmp54:
	movq	8(%rbx), %rax
	movq	8(%rax), %rsi
	testq	%rsi, %rsi
	je	LBB22_89
	movq	(%rbx), %rdi
	movq	16(%rax), %rdx
	callq	___rust_dealloc
LBB22_89:
	movl	$24, %esi
	movl	$8, %edx
	movq	%rbx, %rdi
	callq	___rust_dealloc
	jmp	LBB22_90
LBB22_84:
	vmovups	-520(%rbp), %ymm0
	vmovups	-496(%rbp), %ymm1
	vmovups	%ymm1, -312(%rbp)
	vmovups	%ymm0, -336(%rbp)
LBB22_90:
Ltmp56:
	leaq	-256(%rbp), %rbx
	movq	%rbx, %rdi
	vzeroupper
	callq	__ZN4core3ptr13drop_in_place17hc70010fc3cc3a738E
Ltmp57:
	cmpq	$0, -336(%rbp)
	je	LBB22_140
	vmovups	-336(%rbp), %ymm0
	vmovups	-312(%rbp), %ymm1
	vmovups	%ymm0, -256(%rbp)
	vmovups	%ymm1, -232(%rbp)
	cmpq	$0, -256(%rbp)
	je	LBB22_93
	vmovups	-256(%rbp), %ymm0
	vmovups	-232(%rbp), %ymm1
	vmovups	%ymm1, -504(%rbp)
	vmovups	%ymm0, -528(%rbp)
	leaq	-480(%rbp), %rdi
Ltmp59:
	vzeroupper
	callq	__ZN3std7process10ExitStatus7success17h2b8b99214fbc7387E
Ltmp60:
	testb	%al, %al
	je	LBB22_129
	movb	%r15b, -41(%rbp)
	movq	-512(%rbp), %r15
	movq	%r15, -576(%rbp)
	vmovaps	-528(%rbp), %xmm0
	vmovaps	%xmm0, -592(%rbp)
	movq	-592(%rbp), %rbx
Ltmp62:
	leaq	-256(%rbp), %rdi
	movq	%rbx, %rsi
	movq	%r15, %rdx
	callq	__ZN4core3str9from_utf817he06957962f38305fE
Ltmp63:
	cmpq	$1, -256(%rbp)
	movq	-584(%rbp), %rsi
	jne	LBB22_106
	testq	%rsi, %rsi
	movb	-41(%rbp), %r15b
	je	LBB22_102
	movl	$1, %edx
	movq	%rbx, %rdi
	jmp	LBB22_101
LBB22_129:
	movq	-528(%rbp), %rdi
	testq	%rdi, %rdi
	je	LBB22_102
	movq	-520(%rbp), %rsi
	testq	%rsi, %rsi
	je	LBB22_102
	movl	$1, %edx
LBB22_101:
	callq	___rust_dealloc
LBB22_102:
	movq	-504(%rbp), %rdi
	testq	%rdi, %rdi
	je	LBB22_105
	movq	-496(%rbp), %rsi
	testq	%rsi, %rsi
	je	LBB22_105
	movl	$1, %edx
	callq	___rust_dealloc
LBB22_105:
	leaq	-256(%rbp), %rbx
LBB22_140:
	leaq	l___unnamed_25(%rip), %rax
	movq	%rbx, %rdi
LBB22_141:
	movq	%rax, (%rdi)
	movq	$1, 8(%rdi)
	movq	$0, 16(%rdi)
	leaq	l___unnamed_23(%rip), %rax
	movq	%rax, 32(%rdi)
	movq	$0, 40(%rdi)
	callq	__ZN3std2io5stdio6_print17hdea2154009b9e479E
	testq	%r12, %r12
	movq	-64(%rbp), %rbx
	je	LBB22_149
	shrq	$32, %r13
	cmpl	$14, %r13d
	ja	LBB22_152
LBB22_151:
	testq	%r14, %r14
	je	LBB22_152
	cmpl	$18, %r13d
	ja	LBB22_155
LBB22_154:
	testq	%r14, %r14
	je	LBB22_155
	cmpl	$23, %r13d
	ja	LBB22_158
LBB22_157:
	testq	%r14, %r14
	je	LBB22_158
	cmpl	$24, %r13d
	ja	LBB22_162
LBB22_160:
	testq	%r14, %r14
	je	LBB22_162
	cmpq	$0, -72(%rbp)
	jne	LBB22_163
LBB22_162:
	leaq	l___unnamed_26(%rip), %rax
	movq	%rax, -256(%rbp)
	movq	$1, -248(%rbp)
	movq	$0, -240(%rbp)
	leaq	l___unnamed_23(%rip), %rax
	movq	%rax, -224(%rbp)
	movq	$0, -216(%rbp)
	leaq	-256(%rbp), %rdi
	callq	__ZN3std2io5stdio6_print17hdea2154009b9e479E
LBB22_163:
	cmpl	$29, %r13d
	ja	LBB22_165
	testq	%r14, %r14
	jne	LBB22_166
LBB22_165:
	leaq	l___unnamed_27(%rip), %rax
	movq	%rax, -256(%rbp)
	movq	$1, -248(%rbp)
	movq	$0, -240(%rbp)
	leaq	l___unnamed_23(%rip), %rax
	movq	%rax, -224(%rbp)
	movq	$0, -216(%rbp)
	leaq	-256(%rbp), %rdi
	callq	__ZN3std2io5stdio6_print17hdea2154009b9e479E
LBB22_166:
	cmpl	$32, %r13d
	ja	LBB22_168
	testq	%r14, %r14
	je	LBB22_168
	testq	%r14, %r14
	je	LBB22_170
LBB22_171:
	testq	%rbx, %rbx
	jne	LBB22_174
	jmp	LBB22_172
LBB22_168:
	leaq	l___unnamed_28(%rip), %rax
	movq	%rax, -256(%rbp)
	movq	$1, -248(%rbp)
	movq	$0, -240(%rbp)
	leaq	l___unnamed_23(%rip), %rax
	movq	%rax, -224(%rbp)
	movq	$0, -216(%rbp)
	leaq	-256(%rbp), %rdi
	callq	__ZN3std2io5stdio6_print17hdea2154009b9e479E
	testq	%r14, %r14
	jne	LBB22_171
LBB22_170:
	leaq	l___unnamed_29(%rip), %rax
	movq	%rax, -256(%rbp)
	movq	$1, -248(%rbp)
	movq	$0, -240(%rbp)
	leaq	l___unnamed_23(%rip), %rax
	movq	%rax, -224(%rbp)
	movq	$0, -216(%rbp)
	leaq	-256(%rbp), %rdi
	callq	__ZN3std2io5stdio6_print17hdea2154009b9e479E
	testq	%rbx, %rbx
	jne	LBB22_174
LBB22_172:
	orb	-264(%rbp), %r15b
	cmpl	$40, %r13d
	setb	%al
	orb	%r15b, %al
	jne	LBB22_181
	leaq	l___unnamed_30(%rip), %rax
	movq	%rax, -256(%rbp)
	movq	$1, -248(%rbp)
	movq	$0, -240(%rbp)
	leaq	l___unnamed_23(%rip), %rax
	movq	%rax, -224(%rbp)
	movq	$0, -216(%rbp)
	leaq	-256(%rbp), %rdi
	callq	__ZN3std2io5stdio6_print17hdea2154009b9e479E
LBB22_174:
	addq	$632, %rsp
	popq	%rbx
	popq	%r12
	popq	%r13
	popq	%r14
	popq	%r15
	popq	%rbp
	retq
LBB22_106:
	cmpq	$2, %r15
	jae	LBB22_108
LBB22_107:
	movl	$13, %eax
	movq	%rax, -56(%rbp)
	xorl	%r15d, %r15d
	testq	%rsi, %rsi
	je	LBB22_123
LBB22_122:
	movl	$1, %edx
	movq	%rbx, %rdi
	callq	___rust_dealloc
LBB22_123:
	movq	-504(%rbp), %rdi
	testq	%rdi, %rdi
	je	LBB22_126
	movq	-496(%rbp), %rsi
	testq	%rsi, %rsi
	je	LBB22_126
	movl	$1, %edx
	callq	___rust_dealloc
LBB22_126:
	testl	%r15d, %r15d
	movb	-41(%rbp), %r15b
	leaq	-256(%rbp), %rbx
	movq	-56(%rbp), %rcx
	je	LBB22_140
	addl	$-10, %ecx
	cmpl	$3, %ecx
	ja	LBB22_140
	leaq	LJTI22_0(%rip), %rax
	movslq	(%rax,%rcx,4), %rcx
	addq	%rax, %rcx
	jmpq	*%rcx
LBB22_138:
	leaq	l___unnamed_31(%rip), %rax
	leaq	-528(%rbp), %rdi
	testq	%r14, %r14
	je	LBB22_141
	testq	%r12, %r12
	jne	LBB22_140
	jmp	LBB22_141
LBB22_108:
	movl	$1, %r15d
	leaq	l___unnamed_32(%rip), %rax
	cmpq	%rax, %rbx
	je	LBB22_109
	movzwl	(%rbx), %eax
	cmpl	$12337, %eax
	je	LBB22_109
	leaq	l___unnamed_33(%rip), %rax
	cmpq	%rax, %rbx
	je	LBB22_112
	movzwl	(%rbx), %eax
	cmpl	$12593, %eax
	je	LBB22_112
	leaq	l___unnamed_34(%rip), %rax
	cmpq	%rax, %rbx
	je	LBB22_115
	movzwl	(%rbx), %eax
	cmpl	$12849, %eax
	je	LBB22_115
	leaq	l___unnamed_35(%rip), %rax
	cmpq	%rax, %rbx
	je	LBB22_119
	movzwl	(%rbx), %eax
	cmpl	$13105, %eax
	jne	LBB22_107
LBB22_119:
	movl	$13, %eax
	movq	%rax, -56(%rbp)
	testq	%rsi, %rsi
	jne	LBB22_122
	jmp	LBB22_123
LBB22_109:
	movl	$10, %eax
	movq	%rax, -56(%rbp)
	testq	%rsi, %rsi
	jne	LBB22_122
	jmp	LBB22_123
LBB22_144:
	testq	%r12, %r12
	jne	LBB22_140
	leaq	l___unnamed_36(%rip), %rax
	leaq	-528(%rbp), %rdi
	jmp	LBB22_148
LBB22_146:
	testq	%r12, %r12
	jne	LBB22_140
	leaq	l___unnamed_37(%rip), %rax
	leaq	-256(%rbp), %rdi
	jmp	LBB22_148
LBB22_142:
	testq	%r12, %r12
	jne	LBB22_140
	leaq	l___unnamed_25(%rip), %rax
	leaq	-336(%rbp), %rdi
LBB22_148:
	movq	%rax, (%rdi)
	movq	$1, 8(%rdi)
	movq	$0, 16(%rdi)
	leaq	l___unnamed_23(%rip), %rax
	movq	%rax, 32(%rdi)
	movq	$0, 40(%rdi)
	callq	__ZN3std2io5stdio6_print17hdea2154009b9e479E
	movq	-64(%rbp), %rbx
LBB22_149:
	leaq	l___unnamed_38(%rip), %rax
	movq	%rax, -256(%rbp)
	movq	$1, -248(%rbp)
	movq	$0, -240(%rbp)
	leaq	l___unnamed_23(%rip), %rax
	movq	%rax, -224(%rbp)
	movq	$0, -216(%rbp)
	leaq	-256(%rbp), %rdi
	callq	__ZN3std2io5stdio6_print17hdea2154009b9e479E
	shrq	$32, %r13
	cmpl	$14, %r13d
	jbe	LBB22_151
LBB22_152:
	leaq	l___unnamed_39(%rip), %rax
	movq	%rax, -256(%rbp)
	movq	$1, -248(%rbp)
	movq	$0, -240(%rbp)
	leaq	l___unnamed_23(%rip), %rax
	movq	%rax, -224(%rbp)
	movq	$0, -216(%rbp)
	leaq	-256(%rbp), %rdi
	callq	__ZN3std2io5stdio6_print17hdea2154009b9e479E
	cmpl	$18, %r13d
	jbe	LBB22_154
LBB22_155:
	leaq	l___unnamed_40(%rip), %rax
	movq	%rax, -256(%rbp)
	movq	$1, -248(%rbp)
	movq	$0, -240(%rbp)
	leaq	l___unnamed_23(%rip), %rax
	movq	%rax, -224(%rbp)
	movq	$0, -216(%rbp)
	leaq	-256(%rbp), %rdi
	callq	__ZN3std2io5stdio6_print17hdea2154009b9e479E
	cmpl	$23, %r13d
	jbe	LBB22_157
LBB22_158:
	leaq	l___unnamed_41(%rip), %rax
	movq	%rax, -256(%rbp)
	movq	$1, -248(%rbp)
	movq	$0, -240(%rbp)
	leaq	l___unnamed_23(%rip), %rax
	movq	%rax, -224(%rbp)
	movq	$0, -216(%rbp)
	leaq	-256(%rbp), %rdi
	callq	__ZN3std2io5stdio6_print17hdea2154009b9e479E
	cmpl	$24, %r13d
	jbe	LBB22_160
	jmp	LBB22_162
LBB22_112:
	movl	$11, %eax
	movq	%rax, -56(%rbp)
	testq	%rsi, %rsi
	jne	LBB22_122
	jmp	LBB22_123
LBB22_115:
	movl	$12, %eax
	movq	%rax, -56(%rbp)
	testq	%rsi, %rsi
	jne	LBB22_122
	jmp	LBB22_123
LBB22_7:
	cmpb	$2, -328(%rbp)
	jb	LBB22_12
	movq	-320(%rbp), %r14
	movq	(%r14), %rdi
	movq	8(%r14), %rax
Ltmp68:
	callq	*(%rax)
Ltmp69:
	movq	8(%r14), %rax
	movq	8(%rax), %rsi
	testq	%rsi, %rsi
	je	LBB22_11
	movq	(%r14), %rdi
	movq	16(%rax), %rdx
	callq	___rust_dealloc
LBB22_11:
	movl	$24, %esi
	movl	$8, %edx
	movq	%r14, %rdi
	callq	___rust_dealloc
LBB22_12:
Ltmp71:
	leaq	-528(%rbp), %rdi
	callq	__ZN4core3ptr13drop_in_place17hc70010fc3cc3a738E
Ltmp72:
	jmp	LBB22_13
LBB22_29:
	movq	%r13, %r15
LBB22_30:
	cmpq	$0, -72(%rbp)
	je	LBB22_32
	movl	$1, %edx
	movq	%r12, %rdi
	movq	-72(%rbp), %rsi
	callq	___rust_dealloc
LBB22_32:
	testq	%r15, %r15
	je	LBB22_13
	cmpq	$0, -64(%rbp)
	je	LBB22_13
	movl	$1, %edx
	movq	%r15, %rdi
	movq	-64(%rbp), %rsi
	callq	___rust_dealloc
LBB22_13:
	leaq	l___unnamed_42(%rip), %rdi
	leaq	l___unnamed_43(%rip), %rdx
	movl	$27, %esi
	callq	__ZN4core6option13expect_failed17h68bd601d867bb8d1E
LBB22_93:
Ltmp65:
	leaq	l___unnamed_1(%rip), %rdi
	leaq	l___unnamed_44(%rip), %rdx
	movl	$43, %esi
	vzeroupper
	callq	__ZN4core9panicking5panic17h736ee47a631475c0E
Ltmp66:
	ud2
LBB22_181:
	callq	__ZN3std9panicking11begin_panic17h3472b5f8dfbce83cE
LBB22_179:
Ltmp70:
	movq	%rax, %r15
	movq	(%r14), %rdi
	movq	8(%r14), %rsi
	callq	__ZN5alloc5alloc8box_free17h1c2ef394f6e89612E
	movq	%r14, %rdi
	callq	__ZN5alloc5alloc8box_free17h4400b187b80c0debE
	jmp	LBB22_75
LBB22_135:
Ltmp67:
	movq	%rax, %r15
	leaq	-256(%rbp), %rdi
	jmp	LBB22_176
LBB22_73:
Ltmp73:
	movq	%rax, %r15
	movq	%r15, %rdi
	callq	__Unwind_Resume
	ud2
LBB22_180:
Ltmp55:
	movq	%rax, %r15
	movq	(%rbx), %rdi
	movq	8(%rbx), %rsi
	callq	__ZN5alloc5alloc8box_free17h1c2ef394f6e89612E
	movq	%rbx, %rdi
	callq	__ZN5alloc5alloc8box_free17h4400b187b80c0debE
	jmp	LBB22_137
LBB22_134:
Ltmp64:
	movq	%rax, %r15
	leaq	-592(%rbp), %rdi
	jmp	LBB22_133
LBB22_132:
Ltmp61:
	movq	%rax, %r15
	leaq	-528(%rbp), %rdi
LBB22_133:
	callq	__ZN4core3ptr13drop_in_place17h9f69a54ed15c9295E
	leaq	-504(%rbp), %rdi
	callq	__ZN4core3ptr13drop_in_place17h9f69a54ed15c9295E
	movq	%r15, %rdi
	callq	__Unwind_Resume
	ud2
LBB22_175:
Ltmp58:
	movq	%rax, %r15
	leaq	-336(%rbp), %rdi
LBB22_176:
	callq	__ZN4core3ptr13drop_in_place17hfd85c0206e111fa5E
	movq	%r15, %rdi
	callq	__Unwind_Resume
	ud2
LBB22_136:
Ltmp52:
	movq	%rax, %r15
LBB22_137:
	leaq	-256(%rbp), %rdi
	callq	__ZN4core3ptr13drop_in_place17hc70010fc3cc3a738E
	movq	%r15, %rdi
	callq	__Unwind_Resume
	ud2
LBB22_178:
Ltmp28:
	movq	%rax, %r15
	leaq	-624(%rbp), %rdi
	callq	__ZN4core3ptr13drop_in_place17h9f69a54ed15c9295E
	movq	%r15, %rdi
	callq	__Unwind_Resume
	ud2
LBB22_74:
Ltmp33:
	movq	%rax, %r15
LBB22_75:
	leaq	-528(%rbp), %rdi
	callq	__ZN4core3ptr13drop_in_place17hc70010fc3cc3a738E
	movq	%r15, %rdi
	callq	__Unwind_Resume
	ud2
LBB22_77:
Ltmp49:
	jmp	LBB22_78
LBB22_76:
Ltmp46:
LBB22_78:
	movq	%rax, %r15
	leaq	-592(%rbp), %rdi
	callq	__ZN4core3ptr13drop_in_place17h01b1c68a48f1c10dE
	movq	%r15, %rdi
	callq	__Unwind_Resume
	ud2
Lfunc_end3:
	.cfi_endproc
	.p2align	2, 0x90
	.data_region jt32
.set L22_0_set_138, LBB22_138-LJTI22_0
.set L22_0_set_142, LBB22_142-LJTI22_0
.set L22_0_set_144, LBB22_144-LJTI22_0
.set L22_0_set_146, LBB22_146-LJTI22_0
LJTI22_0:
	.long	L22_0_set_138
	.long	L22_0_set_142
	.long	L22_0_set_144
	.long	L22_0_set_146
	.end_data_region
	.section	__TEXT,__gcc_except_tab
	.p2align	2
GCC_except_table22:
Lexception3:
	.byte	255
	.byte	255
	.byte	1
	.uleb128 Lcst_end3-Lcst_begin3
Lcst_begin3:
	.uleb128 Lfunc_begin3-Lfunc_begin3
	.uleb128 Ltmp26-Lfunc_begin3
	.byte	0
	.byte	0
	.uleb128 Ltmp26-Lfunc_begin3
	.uleb128 Ltmp27-Ltmp26
	.uleb128 Ltmp28-Lfunc_begin3
	.byte	0
	.uleb128 Ltmp29-Lfunc_begin3
	.uleb128 Ltmp32-Ltmp29
	.uleb128 Ltmp33-Lfunc_begin3
	.byte	0
	.uleb128 Ltmp34-Lfunc_begin3
	.uleb128 Ltmp43-Ltmp34
	.uleb128 Ltmp49-Lfunc_begin3
	.byte	0
	.uleb128 Ltmp44-Lfunc_begin3
	.uleb128 Ltmp45-Ltmp44
	.uleb128 Ltmp46-Lfunc_begin3
	.byte	0
	.uleb128 Ltmp47-Lfunc_begin3
	.uleb128 Ltmp48-Ltmp47
	.uleb128 Ltmp49-Lfunc_begin3
	.byte	0
	.uleb128 Ltmp48-Lfunc_begin3
	.uleb128 Ltmp50-Ltmp48
	.byte	0
	.byte	0
	.uleb128 Ltmp50-Lfunc_begin3
	.uleb128 Ltmp51-Ltmp50
	.uleb128 Ltmp52-Lfunc_begin3
	.byte	0
	.uleb128 Ltmp53-Lfunc_begin3
	.uleb128 Ltmp54-Ltmp53
	.uleb128 Ltmp55-Lfunc_begin3
	.byte	0
	.uleb128 Ltmp56-Lfunc_begin3
	.uleb128 Ltmp57-Ltmp56
	.uleb128 Ltmp58-Lfunc_begin3
	.byte	0
	.uleb128 Ltmp59-Lfunc_begin3
	.uleb128 Ltmp60-Ltmp59
	.uleb128 Ltmp61-Lfunc_begin3
	.byte	0
	.uleb128 Ltmp62-Lfunc_begin3
	.uleb128 Ltmp63-Ltmp62
	.uleb128 Ltmp64-Lfunc_begin3
	.byte	0
	.uleb128 Ltmp63-Lfunc_begin3
	.uleb128 Ltmp68-Ltmp63
	.byte	0
	.byte	0
	.uleb128 Ltmp68-Lfunc_begin3
	.uleb128 Ltmp69-Ltmp68
	.uleb128 Ltmp70-Lfunc_begin3
	.byte	0
	.uleb128 Ltmp71-Lfunc_begin3
	.uleb128 Ltmp72-Ltmp71
	.uleb128 Ltmp73-Lfunc_begin3
	.byte	0
	.uleb128 Ltmp72-Lfunc_begin3
	.uleb128 Ltmp65-Ltmp72
	.byte	0
	.byte	0
	.uleb128 Ltmp65-Lfunc_begin3
	.uleb128 Ltmp66-Ltmp65
	.uleb128 Ltmp67-Lfunc_begin3
	.byte	0
	.uleb128 Ltmp66-Lfunc_begin3
	.uleb128 Lfunc_end3-Ltmp66
	.byte	0
	.byte	0
Lcst_end3:
	.p2align	2

	.section	__TEXT,__text,regular,pure_instructions
	.globl	_main
	.p2align	4, 0x90
_main:
	.cfi_startproc
	pushq	%rbp
	.cfi_def_cfa_offset 16
	.cfi_offset %rbp, -16
	movq	%rsp, %rbp
	.cfi_def_cfa_register %rbp
	subq	$16, %rsp
	movq	%rsi, %rcx
	movslq	%edi, %rdx
	leaq	__ZN18build_script_build4main17hb8bba3dfc012d475E(%rip), %rax
	movq	%rax, -8(%rbp)
	leaq	l___unnamed_3(%rip), %rsi
	leaq	-8(%rbp), %rdi
	callq	__ZN3std2rt19lang_start_internal17hebefdaa8fd585aefE
	addq	$16, %rsp
	popq	%rbp
	retq
	.cfi_endproc

	.section	__TEXT,__const
l___unnamed_45:
	.ascii	"/rustc/a74d1862d4d87a56244958416fd05976c58ca1a8/src/liballoc/collections/btree/map.rs"

	.section	__DATA,__const
	.p2align	3
l___unnamed_2:
	.quad	l___unnamed_45
	.asciz	"U\000\000\000\000\000\000\000C\006\000\000\033\000\000"

	.p2align	3
l___unnamed_3:
	.quad	__ZN4core3ptr13drop_in_place17h0a57fd93d961ecc2E
	.quad	8
	.quad	8
	.quad	__ZN3std2rt10lang_start28_$u7b$$u7b$closure$u7d$$u7d$17ha9dd8dc2d558bc9fE
	.quad	__ZN3std2rt10lang_start28_$u7b$$u7b$closure$u7d$$u7d$17ha9dd8dc2d558bc9fE
	.quad	__ZN4core3ops8function6FnOnce40call_once$u7b$$u7b$vtable.shim$u7d$$u7d$17h29ee9f07836daf8fE

	.p2align	3
l___unnamed_6:
	.quad	__ZN4core3ptr13drop_in_place17h0a57fd93d961ecc2E
	.quad	16
	.quad	8
	.quad	__ZN91_$LT$std..panicking..begin_panic..PanicPayload$LT$A$GT$$u20$as$u20$core..panic..BoxMeUp$GT$8take_box17h0288fc734011f5e9E
	.quad	__ZN91_$LT$std..panicking..begin_panic..PanicPayload$LT$A$GT$$u20$as$u20$core..panic..BoxMeUp$GT$3get17hd5dc609ed828885aE

	.section	__TEXT,__const
l___unnamed_46:
	.ascii	"/rustc/a74d1862d4d87a56244958416fd05976c58ca1a8/src/libcore/macros/mod.rs"

	.section	__DATA,__const
	.p2align	3
l___unnamed_9:
	.quad	l___unnamed_46
	.asciz	"I\000\000\000\000\000\000\000\020\000\000\000\t\000\000"

	.section	__TEXT,__const
l___unnamed_1:
	.ascii	"called `Option::unwrap()` on a `None` value"

l___unnamed_47:
	.ascii	"internal error: entered unreachable code: "

	.section	__DATA,__const
	.p2align	3
l___unnamed_8:
	.quad	l___unnamed_47
	.asciz	"*\000\000\000\000\000\000"

	.section	__TEXT,__const
l___unnamed_48:
	.ascii	"BTreeMap has different depths"

	.section	__DATA,__const
	.p2align	3
l___unnamed_7:
	.quad	l___unnamed_48
	.asciz	"\035\000\000\000\000\000\000"

	.section	__TEXT,__const
l___unnamed_49:
	.ascii	"/rustc/a74d1862d4d87a56244958416fd05976c58ca1a8/src/libcore/str/pattern.rs"

	.section	__DATA,__const
	.p2align	3
l___unnamed_10:
	.quad	l___unnamed_49
	.asciz	"J\000\000\000\000\000\000\000\213\001\000\000&\000\000"

	.p2align	3
l___unnamed_11:
	.quad	__ZN4core3ptr13drop_in_place17h0a57fd93d961ecc2E
	.quad	16
	.quad	8
	.quad	__ZN36_$LT$T$u20$as$u20$core..any..Any$GT$7type_id17h51d817ae8eada307E

	.section	__TEXT,__const
l___unnamed_42:
	.ascii	"Failed to get rustc version"

l___unnamed_50:
	.ascii	"/Users/yingyuhang/.cargo/registry/src/github.com-1ecc6299db9ec823/libc-0.2.71/build.rs"

	.section	__DATA,__const
	.p2align	3
l___unnamed_43:
	.quad	l___unnamed_50
	.asciz	"V\000\000\000\000\000\000\000\007\000\000\000\t\000\000"

	.section	__TEXT,__const
l___unnamed_17:
	.ascii	"CARGO_FEATURE_RUSTC_DEP_OF_STD"

l___unnamed_18:
	.ascii	"CARGO_FEATURE_ALIGN"

l___unnamed_19:
	.ascii	"CARGO_FEATURE_CONST_EXTERN_FN"

l___unnamed_20:
	.ascii	"LIBC_CI"

l___unnamed_21:
	.ascii	"CARGO_FEATURE_USE_STD"

l___unnamed_51:
	.ascii	"cargo:warning=\"libc's use_std cargo feature is deprecated since libc 0.2.55; please consider using the `std` cargo feature instead\"\n"

	.section	__DATA,__const
	.p2align	3
l___unnamed_22:
	.quad	l___unnamed_51
	.asciz	"\204\000\000\000\000\000\000"

	.section	__TEXT,__const
	.p2align	3
l___unnamed_23:
	.byte	0

l___unnamed_52:
	.ascii	"cargo:rustc-cfg=freebsd13\n"

	.section	__DATA,__const
	.p2align	3
l___unnamed_37:
	.quad	l___unnamed_52
	.asciz	"\032\000\000\000\000\000\000"

	.section	__TEXT,__const
l___unnamed_53:
	.ascii	"cargo:rustc-cfg=freebsd12\n"

	.section	__DATA,__const
	.p2align	3
l___unnamed_36:
	.quad	l___unnamed_53
	.asciz	"\032\000\000\000\000\000\000"

	.section	__TEXT,__const
l___unnamed_54:
	.ascii	"cargo:rustc-cfg=freebsd11\n"

	.section	__DATA,__const
	.p2align	3
l___unnamed_25:
	.quad	l___unnamed_54
	.asciz	"\032\000\000\000\000\000\000"

	.section	__TEXT,__const
l___unnamed_55:
	.ascii	"cargo:rustc-cfg=freebsd10\n"

	.section	__DATA,__const
	.p2align	3
l___unnamed_31:
	.quad	l___unnamed_55
	.asciz	"\032\000\000\000\000\000\000"

	.section	__TEXT,__const
l___unnamed_56:
	.ascii	"cargo:rustc-cfg=libc_deny_warnings\n"

	.section	__DATA,__const
	.p2align	3
l___unnamed_38:
	.quad	l___unnamed_56
	.asciz	"#\000\000\000\000\000\000"

	.section	__TEXT,__const
l___unnamed_57:
	.ascii	"cargo:rustc-cfg=libc_priv_mod_use\n"

	.section	__DATA,__const
	.p2align	3
l___unnamed_39:
	.quad	l___unnamed_57
	.asciz	"\"\000\000\000\000\000\000"

	.section	__TEXT,__const
l___unnamed_58:
	.ascii	"cargo:rustc-cfg=libc_union\n"

	.section	__DATA,__const
	.p2align	3
l___unnamed_40:
	.quad	l___unnamed_58
	.asciz	"\033\000\000\000\000\000\000"

	.section	__TEXT,__const
l___unnamed_59:
	.ascii	"cargo:rustc-cfg=libc_const_size_of\n"

	.section	__DATA,__const
	.p2align	3
l___unnamed_41:
	.quad	l___unnamed_59
	.asciz	"#\000\000\000\000\000\000"

	.section	__TEXT,__const
l___unnamed_60:
	.ascii	"cargo:rustc-cfg=libc_align\n"

	.section	__DATA,__const
	.p2align	3
l___unnamed_26:
	.quad	l___unnamed_60
	.asciz	"\033\000\000\000\000\000\000"

	.section	__TEXT,__const
l___unnamed_61:
	.ascii	"cargo:rustc-cfg=libc_core_cvoid\n"

	.section	__DATA,__const
	.p2align	3
l___unnamed_27:
	.quad	l___unnamed_61
	.asciz	" \000\000\000\000\000\000"

	.section	__TEXT,__const
l___unnamed_62:
	.ascii	"cargo:rustc-cfg=libc_packedN\n"

	.section	__DATA,__const
	.p2align	3
l___unnamed_28:
	.quad	l___unnamed_62
	.asciz	"\035\000\000\000\000\000\000"

	.section	__TEXT,__const
l___unnamed_63:
	.ascii	"cargo:rustc-cfg=libc_thread_local\n"

	.section	__DATA,__const
	.p2align	3
l___unnamed_29:
	.quad	l___unnamed_63
	.asciz	"\"\000\000\000\000\000\000"

	.section	__TEXT,__const
l___unnamed_4:
	.ascii	"const-extern-fn requires a nightly compiler >= 1.40"

	.section	__DATA,__const
	.p2align	3
l___unnamed_5:
	.quad	l___unnamed_50
	.asciz	"V\000\000\000\000\000\000\000P\000\000\000\r\000\000"

	.section	__TEXT,__const
l___unnamed_64:
	.ascii	"cargo:rustc-cfg=libc_const_extern_fn\n"

	.section	__DATA,__const
	.p2align	3
l___unnamed_30:
	.quad	l___unnamed_64
	.asciz	"%\000\000\000\000\000\000"

	.section	__TEXT,__const
l___unnamed_12:
	.ascii	"RUSTC"

l___unnamed_13:
	.ascii	"--version"

l___unnamed_14:
	.ascii	"rustc 1"

l___unnamed_15:
	.ascii	"dev"

l___unnamed_16:
	.ascii	"nightly"

l___unnamed_24:
	.ascii	"freebsd-version"

	.section	__DATA,__const
	.p2align	3
l___unnamed_44:
	.quad	l___unnamed_50
	.asciz	"V\000\000\000\000\000\000\000~\000\000\000\022\000\000"

	.section	__TEXT,__const
l___unnamed_32:
	.ascii	"10"

l___unnamed_33:
	.space	2,49

l___unnamed_34:
	.ascii	"12"

l___unnamed_35:
	.ascii	"13"


.subsections_via_symbols
