	.section	__TEXT,__text,regular,pure_instructions
	.macosx_version_min 10, 7
	.p2align	4, 0x90
__ZN112_$LT$alloc..collections..btree..map..IntoIter$LT$K$C$V$GT$$u20$as$u20$core..iter..traits..iterator..Iterator$GT$4next17h95877a95b6a7cd0aE:
Lfunc_begin0:
	.file	1 "/rustc/a74d1862d4d87a56244958416fd05976c58ca1a8/src/liballoc/collections/btree/map.rs"
	.loc	1 1598 0
	.cfi_startproc
	pushq	%rbp
	.cfi_def_cfa_offset 16
	.cfi_offset %rbp, -16
	movq	%rsp, %rbp
	.cfi_def_cfa_register %rbp
	pushq	%r15
	pushq	%r14
	pushq	%r13
	pushq	%r12
	pushq	%rbx
	subq	$120, %rsp
	.cfi_offset %rbx, -56
	.cfi_offset %r12, -48
	.cfi_offset %r13, -40
	.cfi_offset %r14, -32
	.cfi_offset %r15, -24
	movq	%rdi, %r9
Ltmp0:
	.loc	1 1599 12 prologue_end
	movq	64(%rsi), %rax
	testq	%rax, %rax
	.loc	1 1599 9 is_stmt 0
	je	LBB0_21
Ltmp1:
	.loc	1 0 9
	movq	%rsi, %r12
Ltmp2:
	.loc	1 1602 13 is_stmt 1
	decq	%rax
	movq	%rax, 64(%rsi)
Ltmp3:
	.file	2 "/rustc/a74d1862d4d87a56244958416fd05976c58ca1a8/src/libcore/option.rs"
	.loc	2 291 13
	movq	8(%rsi), %rax
	testq	%rax, %rax
	cmoveq	%rax, %r12
Ltmp4:
	.loc	2 387 13
	je	LBB0_23
Ltmp5:
	.file	3 "/rustc/a74d1862d4d87a56244958416fd05976c58ca1a8/src/libcore/ptr/mod.rs"
	.loc	3 651 5
	movq	(%r12), %rax
Ltmp6:
	movq	8(%r12), %rdi
Ltmp7:
	movq	16(%r12), %r10
Ltmp8:
	movq	24(%r12), %r13
Ltmp9:
	.file	4 "/rustc/a74d1862d4d87a56244958416fd05976c58ca1a8/src/liballoc/collections/btree/node.rs"
	.loc	4 293 9
	movzwl	10(%rdi), %ecx
Ltmp10:
	.loc	4 814 12
	cmpq	%rcx, %r13
	.loc	4 814 9 is_stmt 0
	jae	LBB0_4
Ltmp11:
	.file	5 "/rustc/a74d1862d4d87a56244958416fd05976c58ca1a8/src/liballoc/collections/btree/navigate.rs"
	.loc	5 0 0
	movq	%rax, %rbx
Ltmp12:
	jmp	LBB0_10
Ltmp13:
LBB0_21:
	.loc	1 1600 13 is_stmt 1
	movq	$0, (%r9)
	jmp	LBB0_22
Ltmp14:
LBB0_4:
	.loc	1 0 13 is_stmt 0
	movq	%r10, -48(%rbp)
Ltmp15:
	movq	%r9, -56(%rbp)
	movl	$544, %r15d
Ltmp16:
	.loc	4 344 30 is_stmt 1
	movq	(%rdi), %r14
Ltmp17:
	.loc	4 345 16
	testq	%r14, %r14
	je	LBB0_6
Ltmp18:
	.p2align	4, 0x90
LBB0_7:
	.loc	4 348 29
	leaq	1(%rax), %rbx
Ltmp19:
	.loc	4 353 43
	movzwl	8(%rdi), %r13d
Ltmp20:
LBB0_8:
	.loc	4 397 16
	testq	%rax, %rax
	.loc	4 397 13 is_stmt 0
	movl	$640, %esi
	cmoveq	%r15, %rsi
Ltmp21:
	.file	6 "/rustc/a74d1862d4d87a56244958416fd05976c58ca1a8/src/liballoc/alloc.rs"
	.loc	6 102 5 is_stmt 1
	movl	$8, %edx
	callq	___rust_dealloc
Ltmp22:
	.loc	4 293 9
	movzwl	10(%r14), %ecx
	movq	%rbx, %rax
	movq	%r14, %rdi
Ltmp23:
	.loc	4 814 12
	cmpq	%rcx, %r13
	.loc	4 814 9 is_stmt 0
	jb	LBB0_9
Ltmp24:
	.loc	4 344 30 is_stmt 1
	movq	(%rdi), %r14
Ltmp25:
	.loc	4 345 16
	testq	%r14, %r14
	jne	LBB0_7
Ltmp26:
LBB0_6:
	.loc	4 0 16 is_stmt 0
	movq	%rax, %rbx
Ltmp27:
	xorl	%r14d, %r14d
Ltmp28:
	jmp	LBB0_8
Ltmp29:
LBB0_9:
	movq	%r14, %rdi
	movq	-56(%rbp), %r9
	movq	-48(%rbp), %r10
Ltmp30:
LBB0_10:
	.loc	4 975 13 is_stmt 1
	leaq	(%r13,%r13,2), %rax
Ltmp31:
	.loc	3 651 5
	movq	32(%rdi,%rax,8), %rcx
	movq	%rcx, -64(%rbp)
	movq	16(%rdi,%rax,8), %rcx
	movq	24(%rdi,%rax,8), %rdx
	movq	%rdx, -72(%rbp)
	movq	%rcx, -80(%rbp)
Ltmp32:
	.loc	3 651 5 is_stmt 0
	movq	296(%rdi,%rax,8), %rcx
	movq	%rcx, -88(%rbp)
	movq	280(%rdi,%rax,8), %rcx
	movq	288(%rdi,%rax,8), %rax
	movq	%rax, -96(%rbp)
	movq	%rcx, -104(%rbp)
Ltmp33:
	.loc	4 680 12 is_stmt 1
	testq	%rbx, %rbx
Ltmp34:
	.loc	5 223 13
	je	LBB0_11
Ltmp35:
	.loc	4 680 12
	movq	%rbx, %rax
Ltmp36:
	.loc	4 963 17
	movq	552(%rdi,%r13,8), %rdi
Ltmp37:
	.loc	4 680 12
	decq	%rax
Ltmp38:
	.loc	5 199 17
	je	LBB0_13
Ltmp39:
	addq	$-2, %rbx
Ltmp40:
	movq	%rax, %rcx
	andq	$7, %rcx
	je	LBB0_18
Ltmp41:
	.loc	5 0 17 is_stmt 0
	xorl	%edx, %edx
Ltmp42:
	.p2align	4, 0x90
LBB0_16:
	movq	544(%rdi), %rdi
Ltmp43:
	.loc	5 199 17
	incq	%rdx
	cmpq	%rdx, %rcx
	jne	LBB0_16
Ltmp44:
	subq	%rdx, %rax
Ltmp45:
LBB0_18:
	.loc	5 0 17
	xorl	%r13d, %r13d
Ltmp46:
	.loc	5 199 17
	cmpq	$7, %rbx
	jb	LBB0_20
Ltmp47:
	.p2align	4, 0x90
LBB0_19:
	.loc	5 0 0
	movq	544(%rdi), %rcx
Ltmp48:
	movq	544(%rcx), %rcx
Ltmp49:
	movq	544(%rcx), %rcx
Ltmp50:
	movq	544(%rcx), %rcx
Ltmp51:
	movq	544(%rcx), %rcx
Ltmp52:
	movq	544(%rcx), %rcx
Ltmp53:
	movq	544(%rcx), %rcx
Ltmp54:
	movq	544(%rcx), %rdi
Ltmp55:
	.loc	4 680 12 is_stmt 1
	addq	$-8, %rax
Ltmp56:
	.loc	5 199 17
	jne	LBB0_19
	jmp	LBB0_20
Ltmp57:
LBB0_11:
	.loc	5 0 17 is_stmt 0
	incq	%r13
Ltmp58:
	jmp	LBB0_20
Ltmp59:
LBB0_13:
	xorl	%r13d, %r13d
Ltmp60:
LBB0_20:
	.loc	5 166 36 is_stmt 1
	movq	-64(%rbp), %r8
	movq	%r8, -136(%rbp)
	movq	-80(%rbp), %rcx
	movq	-72(%rbp), %rdx
	movq	%rdx, -144(%rbp)
	movq	%rcx, -152(%rbp)
	.loc	5 166 35 is_stmt 0
	movq	-104(%rbp), %rsi
	movq	-96(%rbp), %rbx
	movq	%rsi, -128(%rbp)
	movq	%rbx, -120(%rbp)
	movq	-88(%rbp), %rax
	movq	%rax, -112(%rbp)
	.loc	5 166 13
	movq	%rax, 40(%r9)
	movq	%rbx, 32(%r9)
	movq	%rsi, 24(%r9)
	movq	%r8, 16(%r9)
	movq	%rdx, 8(%r9)
	movq	%rcx, (%r9)
Ltmp61:
	.loc	3 836 42 is_stmt 1
	movq	$0, (%r12)
	movq	%rdi, 8(%r12)
	movq	%r10, 16(%r12)
	movq	%r13, 24(%r12)
Ltmp62:
LBB0_22:
	.loc	1 1605 6
	addq	$120, %rsp
	popq	%rbx
	popq	%r12
	popq	%r13
	popq	%r14
	popq	%r15
	popq	%rbp
	retq
LBB0_23:
Ltmp63:
	.file	7 "/rustc/a74d1862d4d87a56244958416fd05976c58ca1a8/src/libcore/macros/mod.rs"
	.loc	7 10 9
	leaq	l___unnamed_2(%rip), %rdi
	leaq	l___unnamed_3(%rip), %rdx
	movl	$43, %esi
	callq	__ZN4core9panicking5panic17h736ee47a631475c0E
Ltmp64:
Lfunc_end0:
	.cfi_endproc
	.file	8 "/rustc/a74d1862d4d87a56244958416fd05976c58ca1a8/src/libcore/result.rs"

	.private_extern	__ZN3std2rt10lang_start17haaed4db77e8d4f09E
	.globl	__ZN3std2rt10lang_start17haaed4db77e8d4f09E
	.p2align	4, 0x90
__ZN3std2rt10lang_start17haaed4db77e8d4f09E:
Lfunc_begin1:
	.file	9 "/rustc/a74d1862d4d87a56244958416fd05976c58ca1a8/src/libstd/rt.rs"
	.loc	9 62 0
	.cfi_startproc
	pushq	%rbp
	.cfi_def_cfa_offset 16
	.cfi_offset %rbp, -16
	movq	%rsp, %rbp
	.cfi_def_cfa_register %rbp
	subq	$16, %rsp
	movq	%rdx, %rcx
Ltmp65:
	movq	%rsi, %rdx
Ltmp66:
	.loc	9 67 26 prologue_end
	movq	%rdi, -8(%rbp)
	.loc	9 67 5 is_stmt 0
	leaq	l___unnamed_1(%rip), %rsi
	leaq	-8(%rbp), %rdi
Ltmp67:
	callq	__ZN3std2rt19lang_start_internal17hebefdaa8fd585aefE
Ltmp68:
	.loc	9 68 2 is_stmt 1
	addq	$16, %rsp
	popq	%rbp
	retq
Ltmp69:
Lfunc_end1:
	.cfi_endproc

	.p2align	4, 0x90
__ZN3std2rt10lang_start28_$u7b$$u7b$closure$u7d$$u7d$17hde6a9c3f6345ae75E:
Lfunc_begin2:
	.loc	9 67 0
	.cfi_startproc
	pushq	%rbp
	.cfi_def_cfa_offset 16
	.cfi_offset %rbp, -16
	movq	%rsp, %rbp
	.cfi_def_cfa_register %rbp
Ltmp70:
	.loc	9 67 34 prologue_end
	callq	*(%rdi)
Ltmp71:
	.loc	9 67 49 is_stmt 0
	xorl	%eax, %eax
	popq	%rbp
	retq
Ltmp72:
Lfunc_end2:
	.cfi_endproc

	.p2align	4, 0x90
__ZN44_$LT$$RF$T$u20$as$u20$core..fmt..Display$GT$3fmt17h8a097b24e882d7a6E:
Lfunc_begin3:
	.file	10 "/rustc/a74d1862d4d87a56244958416fd05976c58ca1a8/src/libcore/fmt/mod.rs"
	.loc	10 1973 0 is_stmt 1
	.cfi_startproc
	pushq	%rbp
	.cfi_def_cfa_offset 16
	.cfi_offset %rbp, -16
	movq	%rsp, %rbp
	.cfi_def_cfa_register %rbp
	movq	%rsi, %rdx
Ltmp73:
	.loc	10 1973 71 prologue_end
	movq	(%rdi), %rax
	movq	8(%rdi), %rsi
	.loc	10 1973 62 is_stmt 0
	movq	%rax, %rdi
Ltmp74:
	popq	%rbp
	jmp	__ZN42_$LT$str$u20$as$u20$core..fmt..Display$GT$3fmt17hd4dee1c1c4ccf892E
Ltmp75:
Lfunc_end3:
	.cfi_endproc

	.p2align	4, 0x90
__ZN4core3ops8function6FnOnce40call_once$u7b$$u7b$vtable.shim$u7d$$u7d$17hd09b656a58804c18E:
Lfunc_begin4:
	.file	11 "/rustc/a74d1862d4d87a56244958416fd05976c58ca1a8/src/libcore/ops/function.rs"
	.loc	11 232 0 is_stmt 1
	.cfi_startproc
	pushq	%rbp
	.cfi_def_cfa_offset 16
	.cfi_offset %rbp, -16
	movq	%rsp, %rbp
	.cfi_def_cfa_register %rbp
Ltmp76:
	.loc	9 67 34 prologue_end
	callq	*(%rdi)
Ltmp77:
	.loc	11 232 5
	xorl	%eax, %eax
	popq	%rbp
	retq
Ltmp78:
Lfunc_end4:
	.cfi_endproc

	.p2align	4, 0x90
__ZN4core3ptr13drop_in_place17h6fe4ea79b29ce849E:
Lfunc_begin5:
	.loc	3 178 0
	.cfi_startproc
	.cfi_personality 155, _rust_eh_personality
	.cfi_lsda 16, Lexception0
	pushq	%rbp
	.cfi_def_cfa_offset 16
	.cfi_offset %rbp, -16
	movq	%rsp, %rbp
	.cfi_def_cfa_register %rbp
	pushq	%r15
	pushq	%r14
	pushq	%r13
	pushq	%r12
	pushq	%rbx
	subq	$120, %rsp
	.cfi_offset %rbx, -56
	.cfi_offset %r12, -48
	.cfi_offset %r13, -40
	.cfi_offset %r14, -32
	.cfi_offset %r15, -24
	movq	%rdi, %r14
Ltmp96:
	.file	12 "/rustc/a74d1862d4d87a56244958416fd05976c58ca1a8/src/libstd/ffi/c_str.rs"
	.loc	12 645 14 prologue_end
	movq	(%rdi), %rax
Ltmp97:
	.loc	12 645 13 is_stmt 0
	movb	$0, (%rax)
Ltmp98:
	.loc	3 178 1 is_stmt 1
	movq	8(%rdi), %rsi
Ltmp99:
	.loc	6 185 12
	testq	%rsi, %rsi
	.loc	6 185 9 is_stmt 0
	je	LBB5_2
Ltmp100:
	.loc	3 178 1 is_stmt 1
	movq	(%r14), %rdi
Ltmp101:
	.loc	6 102 5
	movl	$1, %edx
	callq	___rust_dealloc
Ltmp102:
LBB5_2:
	.file	13 "/rustc/a74d1862d4d87a56244958416fd05976c58ca1a8/src/liballoc/vec.rs"
	.loc	13 850 19
	movq	16(%r14), %rbx
Ltmp103:
	.loc	13 2384 81
	movq	32(%r14), %r15
Ltmp104:
	.loc	3 178 1
	testq	%r15, %r15
	je	LBB5_8
Ltmp105:
	shlq	$4, %r15
Ltmp106:
	addq	%rbx, %r15
	jmp	LBB5_4
Ltmp107:
	.p2align	4, 0x90
LBB5_6:
	addq	$16, %rbx
Ltmp108:
	cmpq	%r15, %rbx
	je	LBB5_7
Ltmp109:
LBB5_4:
	.loc	12 645 14
	movq	(%rbx), %rax
Ltmp110:
	.loc	12 645 13 is_stmt 0
	movb	$0, (%rax)
Ltmp111:
	.loc	3 178 1 is_stmt 1
	movq	8(%rbx), %rsi
Ltmp112:
	.loc	6 185 12
	testq	%rsi, %rsi
	.loc	6 185 9 is_stmt 0
	je	LBB5_6
Ltmp113:
	.loc	3 178 1 is_stmt 1
	movq	(%rbx), %rdi
Ltmp114:
	.loc	6 102 5
	movl	$1, %edx
	callq	___rust_dealloc
Ltmp115:
	.loc	6 0 5 is_stmt 0
	jmp	LBB5_6
Ltmp116:
LBB5_7:
	.loc	3 178 1 is_stmt 1
	movq	16(%r14), %rbx
Ltmp117:
LBB5_8:
	movq	24(%r14), %rsi
Ltmp118:
	.file	14 "/rustc/a74d1862d4d87a56244958416fd05976c58ca1a8/src/liballoc/raw_vec.rs"
	.loc	14 200 40
	testq	%rsi, %rsi
	.loc	14 200 9 is_stmt 0
	je	LBB5_12
Ltmp119:
	.loc	14 532 16 is_stmt 1
	testq	%rbx, %rbx
Ltmp120:
	je	LBB5_12
Ltmp121:
	.loc	14 0 0 is_stmt 0
	shlq	$4, %rsi
Ltmp122:
	.loc	14 532 16
	je	LBB5_12
Ltmp123:
	.loc	6 102 5 is_stmt 1
	movl	$8, %edx
	movq	%rbx, %rdi
	callq	___rust_dealloc
Ltmp124:
LBB5_12:
	.loc	3 178 1
	movq	48(%r14), %rsi
Ltmp125:
	.loc	14 200 40
	testq	%rsi, %rsi
	.loc	14 200 9 is_stmt 0
	je	LBB5_16
Ltmp126:
	.loc	3 0 0
	movq	40(%r14), %rdi
Ltmp127:
	.loc	14 532 16 is_stmt 1
	testq	%rdi, %rdi
Ltmp128:
	je	LBB5_16
Ltmp129:
	.loc	14 0 0 is_stmt 0
	shlq	$3, %rsi
Ltmp130:
	.loc	14 532 16
	testq	%rsi, %rsi
	je	LBB5_16
Ltmp131:
	.loc	6 102 5 is_stmt 1
	movl	$8, %edx
	callq	___rust_dealloc
Ltmp132:
LBB5_16:
	.loc	3 178 1
	movq	64(%r14), %rcx
Ltmp133:
	.loc	1 1544 16
	testq	%rcx, %rcx
	je	LBB5_17
Ltmp134:
	.loc	3 0 0 is_stmt 0
	movq	72(%r14), %rdi
Ltmp135:
	movq	80(%r14), %rax
Ltmp136:
	.loc	4 293 9 is_stmt 1
	movzwl	10(%rcx), %edx
Ltmp137:
	.loc	4 680 12
	testq	%rdi, %rdi
Ltmp138:
	.loc	1 2136 14
	je	LBB5_32
Ltmp139:
	.loc	1 0 14 is_stmt 0
	movb	$1, %bl
	movq	%rcx, %rsi
Ltmp140:
	.p2align	4, 0x90
LBB5_36:
	.loc	1 2139 33 is_stmt 1
	testb	$1, %bl
	je	LBB5_33
Ltmp141:
	.loc	4 680 12
	cmpq	$1, %rdi
	setne	%bl
Ltmp142:
	.loc	4 963 17
	movq	544(%rcx), %rcx
Ltmp143:
	.loc	4 963 17 is_stmt 0
	movq	544(%rsi,%rdx,8), %rsi
Ltmp144:
	.loc	4 293 9 is_stmt 1
	movzwl	10(%rsi), %edx
Ltmp145:
	.loc	4 680 12
	decq	%rdi
Ltmp146:
	.loc	1 2136 14
	jne	LBB5_36
	jmp	LBB5_38
Ltmp147:
LBB5_17:
	.loc	1 1549 13
	movq	$0, -104(%rbp)
	movq	$0, -72(%rbp)
	xorl	%eax, %eax
	jmp	LBB5_39
Ltmp148:
LBB5_32:
	.loc	1 0 13 is_stmt 0
	movq	%rcx, %rsi
Ltmp149:
LBB5_38:
	.loc	1 1547 13 is_stmt 1
	movq	$0, -112(%rbp)
	movq	%rcx, -104(%rbp)
	movq	$0, -96(%rbp)
	movq	$0, -88(%rbp)
	movq	$0, -80(%rbp)
	movq	%rsi, -72(%rbp)
	movq	$0, -64(%rbp)
	movq	%rdx, -56(%rbp)
Ltmp150:
LBB5_39:
	.loc	1 0 0 is_stmt 0
	movq	%rax, -48(%rbp)
Ltmp151:
Ltmp81:
	leaq	-160(%rbp), %rdi
	leaq	-112(%rbp), %rsi
Ltmp152:
	.loc	1 1575 32 is_stmt 1
	callq	__ZN112_$LT$alloc..collections..btree..map..IntoIter$LT$K$C$V$GT$$u20$as$u20$core..iter..traits..iterator..Iterator$GT$4next17h95877a95b6a7cd0aE
Ltmp82:
Ltmp153:
	.loc	1 1575 19 is_stmt 0
	movq	-160(%rbp), %rdi
	testq	%rdi, %rdi
	je	LBB5_50
Ltmp154:
	.loc	1 0 19
	leaq	-160(%rbp), %r15
	leaq	-112(%rbp), %r12
Ltmp155:
	.p2align	4, 0x90
LBB5_42:
	.loc	1 1575 24
	movq	-136(%rbp), %rbx
Ltmp156:
	movq	-128(%rbp), %r13
Ltmp157:
	.loc	14 532 16 is_stmt 1
	testq	%rdi, %rdi
Ltmp158:
	.loc	14 200 9
	je	LBB5_45
Ltmp159:
	.loc	1 0 0 is_stmt 0
	movq	-152(%rbp), %rsi
Ltmp160:
	.loc	14 200 9
	testq	%rsi, %rsi
	je	LBB5_45
Ltmp161:
	.loc	6 102 5 is_stmt 1
	movl	$1, %edx
	callq	___rust_dealloc
Ltmp162:
LBB5_45:
	.loc	3 178 1
	testq	%rbx, %rbx
Ltmp163:
	je	LBB5_48
Ltmp164:
	testq	%r13, %r13
	je	LBB5_48
Ltmp165:
	.loc	6 102 5
	movl	$1, %edx
	movq	%rbx, %rdi
	movq	%r13, %rsi
	callq	___rust_dealloc
Ltmp166:
LBB5_48:
Ltmp84:
	.loc	1 1575 32
	movq	%r15, %rdi
	movq	%r12, %rsi
	callq	__ZN112_$LT$alloc..collections..btree..map..IntoIter$LT$K$C$V$GT$$u20$as$u20$core..iter..traits..iterator..Iterator$GT$4next17h95877a95b6a7cd0aE
Ltmp85:
Ltmp167:
	.loc	1 1575 19 is_stmt 0
	movq	-160(%rbp), %rdi
	testq	%rdi, %rdi
	jne	LBB5_42
Ltmp168:
LBB5_50:
	.loc	3 651 5 is_stmt 1
	movq	-104(%rbp), %rdi
Ltmp169:
	.loc	1 1582 20
	testq	%rdi, %rdi
	je	LBB5_27
Ltmp170:
	.loc	3 651 5
	movq	-112(%rbp), %rax
Ltmp171:
	.loc	3 0 5 is_stmt 0
	movl	$544, %r15d
Ltmp172:
	.p2align	4, 0x90
LBB5_52:
	.loc	4 344 30 is_stmt 1
	movq	(%rdi), %r12
Ltmp173:
	.loc	4 345 16
	xorl	%ebx, %ebx
	testq	%r12, %r12
	setne	%bl
	addq	%rax, %rbx
Ltmp174:
	.loc	4 397 16
	testq	%rax, %rax
	.loc	4 397 13 is_stmt 0
	movl	$640, %esi
	cmoveq	%r15, %rsi
Ltmp175:
	.loc	6 102 5 is_stmt 1
	movl	$8, %edx
	callq	___rust_dealloc
Ltmp176:
	.loc	1 0 0 is_stmt 0
	movq	%rbx, %rax
	movq	%r12, %rdi
Ltmp177:
	.loc	4 345 16 is_stmt 1
	testq	%r12, %r12
Ltmp178:
	.loc	1 1586 27
	jne	LBB5_52
Ltmp179:
LBB5_27:
	.loc	3 178 1
	movq	96(%r14), %rax
Ltmp180:
	testq	%rax, %rax
	je	LBB5_30
Ltmp181:
	.loc	12 645 13
	movb	$0, (%rax)
Ltmp182:
	.loc	3 178 1
	movq	104(%r14), %rsi
Ltmp183:
	.loc	6 185 12
	testq	%rsi, %rsi
	.loc	6 185 9 is_stmt 0
	je	LBB5_30
Ltmp184:
	.loc	3 178 1 is_stmt 1
	movq	96(%r14), %rdi
Ltmp185:
	.loc	6 102 5
	movl	$1, %edx
	callq	___rust_dealloc
Ltmp186:
LBB5_30:
	.loc	3 178 1
	leaq	112(%r14), %rdi
Ltmp87:
	callq	__ZN4core3ptr13drop_in_place17h9671c872a8f72c0dE
Ltmp88:
Ltmp187:
	.loc	3 178 1 is_stmt 0
	cmpl	$3, 152(%r14)
	jne	LBB5_23
Ltmp188:
	.loc	3 178 1
	leaq	156(%r14), %rdi
Ltmp189:
Ltmp90:
	.loc	3 178 1
	callq	__ZN70_$LT$std..sys..unix..fd..FileDesc$u20$as$u20$core..ops..drop..Drop$GT$4drop17hf5fce2bf4d9f8deaE
Ltmp190:
Ltmp91:
LBB5_23:
	.loc	3 178 1
	cmpl	$3, 160(%r14)
	jne	LBB5_21
Ltmp191:
	.loc	3 178 1
	leaq	164(%r14), %rdi
Ltmp192:
Ltmp93:
	.loc	3 178 1
	callq	__ZN70_$LT$std..sys..unix..fd..FileDesc$u20$as$u20$core..ops..drop..Drop$GT$4drop17hf5fce2bf4d9f8deaE
Ltmp193:
Ltmp94:
LBB5_21:
	.loc	3 178 1
	cmpl	$3, 168(%r14)
	jne	LBB5_59
Ltmp194:
	.loc	3 178 1
	addq	$172, %r14
Ltmp195:
	.loc	3 178 1
	movq	%r14, %rdi
	addq	$120, %rsp
	popq	%rbx
	popq	%r12
	popq	%r13
	popq	%r14
Ltmp196:
	popq	%r15
	popq	%rbp
	jmp	__ZN70_$LT$std..sys..unix..fd..FileDesc$u20$as$u20$core..ops..drop..Drop$GT$4drop17hf5fce2bf4d9f8deaE
Ltmp197:
LBB5_59:
	.loc	3 178 1
	addq	$120, %rsp
	popq	%rbx
	popq	%r12
	popq	%r13
	popq	%r14
Ltmp198:
	popq	%r15
	popq	%rbp
	retq
LBB5_33:
Ltmp199:
	.loc	7 16 38 is_stmt 1
	leaq	__ZN44_$LT$$RF$T$u20$as$u20$core..fmt..Display$GT$3fmt17h8a097b24e882d7a6E(%rip), %rax
Ltmp200:
	movq	%rax, %xmm0
	leaq	l___unnamed_4(%rip), %rax
	movq	%rax, %xmm1
	punpcklqdq	%xmm0, %xmm1
	movdqa	%xmm1, -160(%rbp)
Ltmp201:
	.loc	10 328 9
	leaq	l___unnamed_5(%rip), %rax
Ltmp202:
	movq	%rax, -112(%rbp)
	movq	$1, -104(%rbp)
	movq	$0, -96(%rbp)
	leaq	-160(%rbp), %rax
Ltmp203:
	movq	%rax, -80(%rbp)
	movq	$1, -72(%rbp)
Ltmp204:
Ltmp79:
	.loc	7 16 9
	leaq	l___unnamed_6(%rip), %rsi
	leaq	-112(%rbp), %rdi
Ltmp205:
	callq	__ZN4core9panicking9panic_fmt17hab6ef1464e9720aaE
Ltmp206:
Ltmp80:
	ud2
Ltmp207:
LBB5_58:
Ltmp95:
	.loc	7 0 9 is_stmt 0
	movq	%rax, %rbx
	jmp	LBB5_20
Ltmp208:
LBB5_18:
Ltmp92:
	movq	%rax, %rbx
	jmp	LBB5_19
Ltmp209:
LBB5_54:
Ltmp83:
	jmp	LBB5_55
Ltmp210:
LBB5_57:
Ltmp89:
	movq	%rax, %rbx
	jmp	LBB5_56
Ltmp211:
LBB5_53:
Ltmp86:
LBB5_55:
	movq	%rax, %rbx
	.loc	3 178 1 is_stmt 1
	leaq	96(%r14), %rdi
	callq	__ZN4core3ptr13drop_in_place17h944ec60c774bb833E
	leaq	112(%r14), %rdi
	callq	__ZN4core3ptr13drop_in_place17h9671c872a8f72c0dE
Ltmp212:
LBB5_56:
	leaq	152(%r14), %rdi
	callq	__ZN4core3ptr13drop_in_place17h97a7ef727cd6aeb9E
Ltmp213:
LBB5_19:
	leaq	160(%r14), %rdi
	callq	__ZN4core3ptr13drop_in_place17h97a7ef727cd6aeb9E
Ltmp214:
LBB5_20:
	addq	$168, %r14
Ltmp215:
	movq	%r14, %rdi
	callq	__ZN4core3ptr13drop_in_place17h97a7ef727cd6aeb9E
	movq	%rbx, %rdi
	callq	__Unwind_Resume
	ud2
Ltmp216:
Lfunc_end5:
	.cfi_endproc
	.file	15 "/rustc/a74d1862d4d87a56244958416fd05976c58ca1a8/src/libcore/mem/mod.rs"
	.section	__TEXT,__gcc_except_tab
	.p2align	2
GCC_except_table5:
Lexception0:
	.byte	255
	.byte	255
	.byte	1
	.uleb128 Lcst_end0-Lcst_begin0
Lcst_begin0:
	.uleb128 Ltmp81-Lfunc_begin5
	.uleb128 Ltmp82-Ltmp81
	.uleb128 Ltmp83-Lfunc_begin5
	.byte	0
	.uleb128 Ltmp84-Lfunc_begin5
	.uleb128 Ltmp85-Ltmp84
	.uleb128 Ltmp86-Lfunc_begin5
	.byte	0
	.uleb128 Ltmp87-Lfunc_begin5
	.uleb128 Ltmp88-Ltmp87
	.uleb128 Ltmp89-Lfunc_begin5
	.byte	0
	.uleb128 Ltmp90-Lfunc_begin5
	.uleb128 Ltmp91-Ltmp90
	.uleb128 Ltmp92-Lfunc_begin5
	.byte	0
	.uleb128 Ltmp93-Lfunc_begin5
	.uleb128 Ltmp94-Ltmp93
	.uleb128 Ltmp95-Lfunc_begin5
	.byte	0
	.uleb128 Ltmp94-Lfunc_begin5
	.uleb128 Ltmp79-Ltmp94
	.byte	0
	.byte	0
	.uleb128 Ltmp79-Lfunc_begin5
	.uleb128 Ltmp80-Ltmp79
	.uleb128 Ltmp83-Lfunc_begin5
	.byte	0
	.uleb128 Ltmp80-Lfunc_begin5
	.uleb128 Lfunc_end5-Ltmp80
	.byte	0
	.byte	0
Lcst_end0:
	.p2align	2

	.section	__TEXT,__text,regular,pure_instructions
	.p2align	4, 0x90
__ZN4core3ptr13drop_in_place17h944ec60c774bb833E:
Lfunc_begin6:
	.loc	3 178 0
	.cfi_startproc
	pushq	%rbp
	.cfi_def_cfa_offset 16
	.cfi_offset %rbp, -16
	movq	%rsp, %rbp
	.cfi_def_cfa_register %rbp
Ltmp217:
	.loc	3 178 1 prologue_end
	movq	(%rdi), %rax
Ltmp218:
	testq	%rax, %rax
	je	LBB6_2
Ltmp219:
	.loc	12 645 13
	movb	$0, (%rax)
Ltmp220:
	.loc	3 178 1
	movq	8(%rdi), %rsi
Ltmp221:
	.loc	6 185 12
	testq	%rsi, %rsi
	.loc	6 185 9 is_stmt 0
	je	LBB6_2
Ltmp222:
	.loc	3 178 1 is_stmt 1
	movq	(%rdi), %rdi
Ltmp223:
	.loc	6 102 5
	movl	$1, %edx
	popq	%rbp
	jmp	___rust_dealloc
Ltmp224:
LBB6_2:
	.loc	3 178 1
	popq	%rbp
	retq
Ltmp225:
Lfunc_end6:
	.cfi_endproc

	.p2align	4, 0x90
__ZN4core3ptr13drop_in_place17h9671c872a8f72c0dE:
Lfunc_begin7:
	.loc	3 178 0
	.cfi_startproc
	.cfi_personality 155, _rust_eh_personality
	.cfi_lsda 16, Lexception1
	pushq	%rbp
	.cfi_def_cfa_offset 16
	.cfi_offset %rbp, -16
	movq	%rsp, %rbp
	.cfi_def_cfa_register %rbp
	pushq	%r15
	pushq	%r14
	pushq	%r13
	pushq	%r12
	pushq	%rbx
	pushq	%rax
	.cfi_offset %rbx, -56
	.cfi_offset %r12, -48
	.cfi_offset %r13, -40
	.cfi_offset %r14, -32
	.cfi_offset %r15, -24
	movq	%rdi, %r14
Ltmp232:
	.loc	13 850 19 prologue_end
	movq	(%rdi), %rbx
Ltmp233:
	.loc	13 2384 81
	movq	16(%rdi), %r12
Ltmp234:
	.loc	3 178 1
	testq	%r12, %r12
	je	LBB7_7
Ltmp235:
	.loc	3 0 0 is_stmt 0
	shlq	$4, %r12
Ltmp236:
	leaq	(%rbx,%r12), %r15
Ltmp237:
	.loc	3 178 1
	addq	$-16, %r12
	addq	$16, %rbx
Ltmp238:
	.loc	3 0 1
	jmp	LBB7_2
Ltmp239:
	.p2align	4, 0x90
LBB7_5:
	.loc	3 178 1
	addq	$-16, %r12
	addq	$16, %rbx
	addq	$16, %r13
	cmpq	%r15, %r13
	je	LBB7_6
Ltmp240:
LBB7_2:
	.loc	3 178 1
	movq	-16(%rbx), %rdi
	movq	-8(%rbx), %rax
Ltmp226:
	callq	*(%rax)
Ltmp227:
Ltmp241:
	leaq	-16(%rbx), %r13
	movq	8(%r13), %rax
Ltmp242:
	.loc	6 282 16 is_stmt 1
	movq	8(%rax), %rsi
Ltmp243:
	.loc	6 185 12
	testq	%rsi, %rsi
	.loc	6 185 9 is_stmt 0
	je	LBB7_5
Ltmp244:
	.loc	3 178 1 is_stmt 1
	movq	-16(%rbx), %rdi
Ltmp245:
	.loc	6 283 17
	movq	16(%rax), %rdx
Ltmp246:
	.loc	6 102 5
	callq	___rust_dealloc
Ltmp247:
	.loc	6 0 5 is_stmt 0
	jmp	LBB7_5
Ltmp248:
LBB7_6:
	.loc	3 178 1 is_stmt 1
	movq	(%r14), %rbx
Ltmp249:
LBB7_7:
	movq	8(%r14), %rsi
Ltmp250:
	.loc	14 200 40
	testq	%rsi, %rsi
	.loc	14 200 9 is_stmt 0
	je	LBB7_14
Ltmp251:
	.loc	14 532 16 is_stmt 1
	testq	%rbx, %rbx
Ltmp252:
	je	LBB7_14
Ltmp253:
	.loc	14 0 0 is_stmt 0
	shlq	$4, %rsi
Ltmp254:
	.loc	14 532 16
	je	LBB7_14
Ltmp255:
	.loc	6 102 5 is_stmt 1
	movl	$8, %edx
	movq	%rbx, %rdi
	addq	$8, %rsp
	popq	%rbx
Ltmp256:
	popq	%r12
	popq	%r13
	popq	%r14
Ltmp257:
	popq	%r15
	popq	%rbp
	jmp	___rust_dealloc
Ltmp258:
LBB7_14:
	.loc	3 178 1
	addq	$8, %rsp
	popq	%rbx
	popq	%r12
	popq	%r13
	popq	%r14
Ltmp259:
	popq	%r15
	popq	%rbp
	retq
LBB7_11:
Ltmp260:
Ltmp228:
	.loc	3 0 1 is_stmt 0
	movq	%rax, %r15
Ltmp261:
	.loc	3 178 1
	movq	-16(%rbx), %rdi
	movq	-8(%rbx), %rsi
	callq	__ZN5alloc5alloc8box_free17h2a94484be67aaa5cE
Ltmp262:
	.loc	3 178 1
	testq	%r12, %r12
	je	LBB7_16
Ltmp263:
	.p2align	4, 0x90
LBB7_12:
Ltmp229:
	movq	%rbx, %rdi
	callq	__ZN4core3ptr13drop_in_place17h9c49b512896421b4E
Ltmp230:
Ltmp264:
	addq	$16, %rbx
	addq	$-16, %r12
	jne	LBB7_12
	jmp	LBB7_16
Ltmp265:
LBB7_15:
Ltmp231:
	.loc	3 0 1
	movq	%rax, %r15
Ltmp266:
LBB7_16:
	.loc	3 178 1
	movq	(%r14), %rdi
	movq	8(%r14), %rsi
	callq	__ZN4core3ptr13drop_in_place17hd2e5aa1405cad312E
	movq	%r15, %rdi
	callq	__Unwind_Resume
	ud2
Ltmp267:
Lfunc_end7:
	.cfi_endproc
	.section	__TEXT,__gcc_except_tab
	.p2align	2
GCC_except_table7:
Lexception1:
	.byte	255
	.byte	255
	.byte	1
	.uleb128 Lcst_end1-Lcst_begin1
Lcst_begin1:
	.uleb128 Ltmp226-Lfunc_begin7
	.uleb128 Ltmp227-Ltmp226
	.uleb128 Ltmp228-Lfunc_begin7
	.byte	0
	.uleb128 Ltmp229-Lfunc_begin7
	.uleb128 Ltmp230-Ltmp229
	.uleb128 Ltmp231-Lfunc_begin7
	.byte	0
	.uleb128 Ltmp230-Lfunc_begin7
	.uleb128 Lfunc_end7-Ltmp230
	.byte	0
	.byte	0
Lcst_end1:
	.p2align	2

	.section	__TEXT,__text,regular,pure_instructions
	.p2align	4, 0x90
__ZN4core3ptr13drop_in_place17h97a7ef727cd6aeb9E:
Lfunc_begin8:
	.loc	3 178 0 is_stmt 1
	.cfi_startproc
	pushq	%rbp
	.cfi_def_cfa_offset 16
	.cfi_offset %rbp, -16
	movq	%rsp, %rbp
	.cfi_def_cfa_register %rbp
Ltmp268:
	.loc	3 178 1 prologue_end
	cmpl	$3, (%rdi)
	jne	LBB8_1
Ltmp269:
	.loc	3 178 1 is_stmt 0
	addq	$4, %rdi
Ltmp270:
	.loc	3 178 1
	popq	%rbp
	jmp	__ZN70_$LT$std..sys..unix..fd..FileDesc$u20$as$u20$core..ops..drop..Drop$GT$4drop17hf5fce2bf4d9f8deaE
Ltmp271:
LBB8_1:
	.loc	3 178 1
	popq	%rbp
	retq
Ltmp272:
Lfunc_end8:
	.cfi_endproc

	.p2align	4, 0x90
__ZN4core3ptr13drop_in_place17h9c49b512896421b4E:
Lfunc_begin9:
	.loc	3 178 0 is_stmt 1
	.cfi_startproc
	.cfi_personality 155, _rust_eh_personality
	.cfi_lsda 16, Lexception2
	pushq	%rbp
	.cfi_def_cfa_offset 16
	.cfi_offset %rbp, -16
	movq	%rsp, %rbp
	.cfi_def_cfa_register %rbp
	pushq	%r14
	pushq	%rbx
	.cfi_offset %rbx, -32
	.cfi_offset %r14, -24
	movq	%rdi, %rbx
Ltmp276:
	.loc	3 178 1 prologue_end
	movq	(%rdi), %rdi
	movq	8(%rbx), %rax
Ltmp273:
	callq	*(%rax)
Ltmp274:
Ltmp277:
	movq	8(%rbx), %rax
Ltmp278:
	.loc	6 282 16
	movq	8(%rax), %rsi
Ltmp279:
	.loc	6 185 12
	testq	%rsi, %rsi
	.loc	6 185 9 is_stmt 0
	je	LBB9_2
Ltmp280:
	.loc	3 178 1 is_stmt 1
	movq	(%rbx), %rdi
Ltmp281:
	.loc	6 283 17
	movq	16(%rax), %rdx
Ltmp282:
	.loc	6 102 5
	popq	%rbx
Ltmp283:
	popq	%r14
	popq	%rbp
	jmp	___rust_dealloc
Ltmp284:
LBB9_2:
	.loc	3 178 1
	popq	%rbx
Ltmp285:
	popq	%r14
	popq	%rbp
	retq
LBB9_3:
Ltmp286:
Ltmp275:
	.loc	3 0 1 is_stmt 0
	movq	%rax, %r14
	.loc	3 178 1
	movq	(%rbx), %rdi
	movq	8(%rbx), %rsi
	callq	__ZN5alloc5alloc8box_free17h2a94484be67aaa5cE
	movq	%r14, %rdi
	callq	__Unwind_Resume
	ud2
Ltmp287:
Lfunc_end9:
	.cfi_endproc
	.section	__TEXT,__gcc_except_tab
	.p2align	2
GCC_except_table9:
Lexception2:
	.byte	255
	.byte	255
	.byte	1
	.uleb128 Lcst_end2-Lcst_begin2
Lcst_begin2:
	.uleb128 Ltmp273-Lfunc_begin9
	.uleb128 Ltmp274-Ltmp273
	.uleb128 Ltmp275-Lfunc_begin9
	.byte	0
	.uleb128 Ltmp274-Lfunc_begin9
	.uleb128 Lfunc_end9-Ltmp274
	.byte	0
	.byte	0
Lcst_end2:
	.p2align	2

	.section	__TEXT,__text,regular,pure_instructions
	.p2align	4, 0x90
__ZN4core3ptr13drop_in_place17hb132a0a2ff5b8009E:
Lfunc_begin10:
	.loc	3 178 0 is_stmt 1
	.cfi_startproc
	pushq	%rbp
	.cfi_def_cfa_offset 16
	.cfi_offset %rbp, -16
	movq	%rsp, %rbp
	.cfi_def_cfa_register %rbp
	pushq	%rbx
	pushq	%rax
	.cfi_offset %rbx, -24
	movq	%rdi, %rbx
Ltmp288:
	.loc	3 178 1 prologue_end
	movq	(%rdi), %rdi
Ltmp289:
	.loc	14 532 16
	testq	%rdi, %rdi
Ltmp290:
	.loc	14 200 9
	je	LBB10_3
Ltmp291:
	.loc	3 0 0 is_stmt 0
	movq	8(%rbx), %rsi
Ltmp292:
	.loc	14 200 9
	testq	%rsi, %rsi
	je	LBB10_3
Ltmp293:
	.loc	6 102 5 is_stmt 1
	movl	$1, %edx
	callq	___rust_dealloc
Ltmp294:
LBB10_3:
	.loc	3 178 1
	movq	24(%rbx), %rdi
Ltmp295:
	.loc	14 532 16
	testq	%rdi, %rdi
Ltmp296:
	.loc	14 200 9
	je	LBB10_5
Ltmp297:
	.loc	3 0 0 is_stmt 0
	movq	32(%rbx), %rsi
Ltmp298:
	.loc	14 200 9
	testq	%rsi, %rsi
	je	LBB10_5
Ltmp299:
	.loc	6 102 5 is_stmt 1
	movl	$1, %edx
	addq	$8, %rsp
	popq	%rbx
Ltmp300:
	popq	%rbp
	jmp	___rust_dealloc
Ltmp301:
LBB10_5:
	.loc	3 178 1
	addq	$8, %rsp
	popq	%rbx
Ltmp302:
	popq	%rbp
	retq
Ltmp303:
Lfunc_end10:
	.cfi_endproc

	.p2align	4, 0x90
__ZN4core3ptr13drop_in_place17hd2e5aa1405cad312E:
Lfunc_begin11:
	.loc	3 178 0
	.cfi_startproc
	pushq	%rbp
	.cfi_def_cfa_offset 16
	.cfi_offset %rbp, -16
	movq	%rsp, %rbp
	.cfi_def_cfa_register %rbp
Ltmp304:
	.loc	14 200 40 prologue_end
	testq	%rsi, %rsi
	.loc	14 200 9 is_stmt 0
	je	LBB11_3
Ltmp305:
	.loc	14 532 16 is_stmt 1
	testq	%rdi, %rdi
Ltmp306:
	je	LBB11_3
Ltmp307:
	.loc	14 0 0 is_stmt 0
	shlq	$4, %rsi
Ltmp308:
	.loc	14 532 16
	je	LBB11_3
Ltmp309:
	.loc	6 102 5 is_stmt 1
	movl	$8, %edx
	popq	%rbp
	jmp	___rust_dealloc
Ltmp310:
LBB11_3:
	.loc	3 178 1
	popq	%rbp
	retq
Ltmp311:
Lfunc_end11:
	.cfi_endproc

	.p2align	4, 0x90
__ZN4core3ptr13drop_in_place17hd353cb4b094fbd60E:
Lfunc_begin12:
	.loc	3 178 0
	.cfi_startproc
	pushq	%rbp
	.cfi_def_cfa_offset 16
	.cfi_offset %rbp, -16
	movq	%rsp, %rbp
	.cfi_def_cfa_register %rbp
Ltmp312:
	.loc	3 178 1 prologue_end
	popq	%rbp
	retq
Ltmp313:
Lfunc_end12:
	.cfi_endproc

	.p2align	4, 0x90
__ZN4core3ptr13drop_in_place17he16a7ff3b35ce572E:
Lfunc_begin13:
	.loc	3 178 0
	.cfi_startproc
	pushq	%rbp
	.cfi_def_cfa_offset 16
	.cfi_offset %rbp, -16
	movq	%rsp, %rbp
	.cfi_def_cfa_register %rbp
	movq	%rdi, %rax
Ltmp314:
	.loc	3 178 1 prologue_end
	movq	(%rdi), %rdi
Ltmp315:
	.loc	14 532 16
	testq	%rdi, %rdi
Ltmp316:
	.loc	14 200 9
	je	LBB13_2
Ltmp317:
	.loc	3 0 0 is_stmt 0
	movq	8(%rax), %rsi
Ltmp318:
	.loc	14 200 9
	testq	%rsi, %rsi
	je	LBB13_2
Ltmp319:
	.loc	6 102 5 is_stmt 1
	movl	$1, %edx
	popq	%rbp
	jmp	___rust_dealloc
Ltmp320:
LBB13_2:
	.loc	3 178 1
	popq	%rbp
	retq
Ltmp321:
Lfunc_end13:
	.cfi_endproc

	.p2align	4, 0x90
__ZN5alloc5alloc8box_free17h2a94484be67aaa5cE:
Lfunc_begin14:
	.loc	6 281 0
	.cfi_startproc
	pushq	%rbp
	.cfi_def_cfa_offset 16
	.cfi_offset %rbp, -16
	movq	%rsp, %rbp
	.cfi_def_cfa_register %rbp
	movq	%rsi, %rax
Ltmp322:
	.loc	6 282 16 prologue_end
	movq	8(%rsi), %rsi
Ltmp323:
	.loc	6 185 12
	testq	%rsi, %rsi
	.loc	6 185 9 is_stmt 0
	je	LBB14_1
Ltmp324:
	.loc	6 283 17 is_stmt 1
	movq	16(%rax), %rdx
Ltmp325:
	.loc	6 102 5
	popq	%rbp
	jmp	___rust_dealloc
Ltmp326:
LBB14_1:
	.loc	6 286 2
	popq	%rbp
	retq
Ltmp327:
Lfunc_end14:
	.cfi_endproc

	.p2align	4, 0x90
__ZN5alloc5alloc8box_free17hc8b5a3e82fa2f6f2E:
Lfunc_begin15:
	.loc	6 281 0
	.cfi_startproc
	pushq	%rbp
	.cfi_def_cfa_offset 16
	.cfi_offset %rbp, -16
	movq	%rsp, %rbp
	.cfi_def_cfa_register %rbp
Ltmp328:
	.loc	6 102 5 prologue_end
	movl	$24, %esi
	movl	$8, %edx
	popq	%rbp
	jmp	___rust_dealloc
Ltmp329:
Lfunc_end15:
	.cfi_endproc

	.p2align	4, 0x90
__ZN84_$LT$core..str..Split$LT$P$GT$$u20$as$u20$core..iter..traits..iterator..Iterator$GT$4next17h7189b380d6ed0bb5E:
Lfunc_begin16:
	.file	16 "/rustc/a74d1862d4d87a56244958416fd05976c58ca1a8/src/libcore/str/mod.rs"
	.loc	16 975 0
	.cfi_startproc
	pushq	%rbp
	.cfi_def_cfa_offset 16
	.cfi_offset %rbp, -16
	movq	%rsp, %rbp
	.cfi_def_cfa_register %rbp
Ltmp330:
	pushq	%r15
	pushq	%r14
	pushq	%r13
	pushq	%r12
	pushq	%rbx
	subq	$24, %rsp
	.cfi_offset %rbx, -56
	.cfi_offset %r12, -48
	.cfi_offset %r13, -40
	.cfi_offset %r14, -32
	.cfi_offset %r15, -24
	.loc	16 1121 12 prologue_end
	cmpb	$0, 65(%rdi)
	.loc	16 1121 9 is_stmt 0
	jne	LBB16_1
Ltmp331:
	.loc	16 0 9
	movq	%rdi, %r13
Ltmp332:
	.file	17 "/rustc/a74d1862d4d87a56244958416fd05976c58ca1a8/src/libcore/str/pattern.rs"
	.loc	17 369 54 is_stmt 1
	movq	32(%rdi), %rsi
Ltmp333:
	.loc	17 369 67 is_stmt 0
	movq	40(%rdi), %rax
Ltmp334:
	.file	18 "/rustc/a74d1862d4d87a56244958416fd05976c58ca1a8/src/libcore/slice/mod.rs"
	.loc	18 2888 12 is_stmt 1
	movq	%rax, %rdx
	subq	%rsi, %rdx
Ltmp335:
	.loc	17 369 84
	jb	LBB16_16
Ltmp336:
	cmpq	%rax, 24(%r13)
	jb	LBB16_16
Ltmp337:
	.loc	16 0 0 is_stmt 0
	movq	16(%r13), %rcx
Ltmp338:
	.loc	17 372 71 is_stmt 1
	movq	48(%r13), %rax
Ltmp339:
	.loc	17 0 71 is_stmt 0
	movq	%rcx, -56(%rbp)
Ltmp340:
	.loc	18 2888 12 is_stmt 1
	addq	%rcx, %rsi
Ltmp341:
	.loc	17 373 34
	movzbl	59(%rax,%r13), %edi
	callq	__ZN4core5slice6memchr6memchr17h319ffdabcbdf42caE
Ltmp342:
	.loc	17 373 20 is_stmt 0
	cmpq	$1, %rax
	jne	LBB16_15
Ltmp343:
	.loc	17 0 20
	leaq	60(%r13), %rax
	movq	%rax, -48(%rbp)
Ltmp344:
	.p2align	4, 0x90
LBB16_6:
	.loc	17 391 17 is_stmt 1
	movq	32(%r13), %rax
	.loc	17 392 35
	movq	48(%r13), %r15
Ltmp345:
	.loc	17 391 17
	leaq	1(%rdx,%rax), %rbx
Ltmp346:
	movq	%rbx, 32(%r13)
	.loc	17 392 20
	movq	%rbx, %r12
	subq	%r15, %r12
	.loc	17 392 17 is_stmt 0
	jae	LBB16_8
Ltmp347:
	.loc	17 369 25 is_stmt 1
	movq	24(%r13), %r14
Ltmp348:
	.loc	17 369 67 is_stmt 0
	movq	40(%r13), %rax
Ltmp349:
	.loc	18 2888 12 is_stmt 1
	movq	%rax, %rdx
	subq	%rbx, %rdx
	jae	LBB16_13
	jmp	LBB16_16
Ltmp350:
	.p2align	4, 0x90
LBB16_8:
	.loc	17 394 42
	movq	24(%r13), %r14
Ltmp351:
	.loc	18 2888 37
	cmpq	%rbx, %r14
Ltmp352:
	.loc	17 394 28
	jb	LBB16_12
Ltmp353:
	.loc	18 2918 19
	cmpq	$5, %r15
	.loc	18 2918 16 is_stmt 0
	jae	LBB16_23
Ltmp354:
	.loc	18 0 16
	movq	16(%r13), %rdi
	addq	%r12, %rdi
Ltmp355:
	.loc	18 5863 12 is_stmt 1
	cmpq	-48(%rbp), %rdi
	.loc	18 5863 9 is_stmt 0
	je	LBB16_21
Ltmp356:
	.loc	18 0 9
	movq	-48(%rbp), %rsi
Ltmp357:
	.loc	18 5868 13 is_stmt 1
	movq	%r15, %rdx
Ltmp358:
	callq	_bcmp
Ltmp359:
	testl	%eax, %eax
Ltmp360:
	.loc	17 395 25
	je	LBB16_21
Ltmp361:
LBB16_12:
	.loc	17 369 67
	movq	40(%r13), %rax
Ltmp362:
	.loc	18 2888 12
	movq	%rax, %rdx
	subq	%rbx, %rdx
Ltmp363:
	.loc	17 369 84
	jb	LBB16_16
Ltmp364:
LBB16_13:
	cmpq	%rax, %r14
	jb	LBB16_16
Ltmp365:
	.loc	18 2888 12
	addq	16(%r13), %rbx
Ltmp366:
	.loc	17 373 34
	movzbl	59(%r15,%r13), %edi
	movq	%rbx, %rsi
	callq	__ZN4core5slice6memchr6memchr17h319ffdabcbdf42caE
Ltmp367:
	.loc	17 373 20 is_stmt 0
	cmpq	$1, %rax
	je	LBB16_6
Ltmp368:
LBB16_15:
	.loc	17 402 31 is_stmt 1
	movq	40(%r13), %rax
	.loc	17 402 17 is_stmt 0
	movq	%rax, 32(%r13)
Ltmp369:
LBB16_16:
	.loc	16 1107 13 is_stmt 1
	cmpb	$0, 65(%r13)
	.loc	16 1107 12 is_stmt 0
	je	LBB16_17
Ltmp370:
LBB16_1:
	.loc	16 0 12
	xorl	%eax, %eax
LBB16_22:
	.loc	16 977 14 is_stmt 1
	movq	%r12, %rdx
	addq	$24, %rsp
	popq	%rbx
	popq	%r12
	popq	%r13
	popq	%r14
	popq	%r15
	popq	%rbp
	retq
LBB16_17:
Ltmp371:
	.loc	16 1107 31
	cmpb	$0, 64(%r13)
	.loc	16 1107 30 is_stmt 0
	je	LBB16_19
Ltmp372:
	.loc	16 1111 68 is_stmt 1
	movq	(%r13), %rax
	.loc	16 1111 80 is_stmt 0
	movq	8(%r13), %r12
	jmp	LBB16_20
Ltmp373:
LBB16_19:
	.loc	16 1107 71 is_stmt 1
	movq	(%r13), %rax
	.loc	16 1107 60 is_stmt 0
	movq	8(%r13), %r12
	cmpq	%rax, %r12
	.loc	16 1107 12
	je	LBB16_1
Ltmp374:
LBB16_20:
	.loc	16 1108 13 is_stmt 1
	movb	$1, 65(%r13)
Ltmp375:
	.loc	16 1908 23
	subq	%rax, %r12
Ltmp376:
	.file	19 "/rustc/a74d1862d4d87a56244958416fd05976c58ca1a8/src/libcore/ptr/const_ptr.rs"
	.loc	19 158 9
	addq	16(%r13), %rax
Ltmp377:
	.loc	19 0 9 is_stmt 0
	jmp	LBB16_22
Ltmp378:
LBB16_21:
	.loc	16 1129 50 is_stmt 1
	movq	(%r13), %rcx
Ltmp379:
	.loc	16 0 50 is_stmt 0
	movq	-56(%rbp), %rax
Ltmp380:
	.loc	19 158 9 is_stmt 1
	addq	%rcx, %rax
Ltmp381:
	.loc	16 1908 23
	subq	%rcx, %r12
Ltmp382:
	.loc	16 1130 17
	movq	%rbx, (%r13)
	jmp	LBB16_22
Ltmp383:
LBB16_23:
	.loc	18 2919 13
	leaq	l___unnamed_7(%rip), %rdx
Ltmp384:
	movl	$4, %esi
	movq	%r15, %rdi
	callq	__ZN4core5slice20slice_index_len_fail17h550a313151a85135E
Ltmp385:
Lfunc_end16:
	.cfi_endproc
	.file	20 "/rustc/a74d1862d4d87a56244958416fd05976c58ca1a8/src/libcore/cmp.rs"

	.p2align	4, 0x90
__ZN18build_script_build4main17h47ad47af462d67d1E:
Lfunc_begin17:
	.file	21 "/Users/yingyuhang/.cargo/registry/src/github.com-1ecc6299db9ec823/failure_derive-0.1.8/build.rs"
	.loc	21 6 0
	.cfi_startproc
	.cfi_personality 155, _rust_eh_personality
	.cfi_lsda 16, Lexception3
	pushq	%rbp
	.cfi_def_cfa_offset 16
	.cfi_offset %rbp, -16
	movq	%rsp, %rbp
	.cfi_def_cfa_register %rbp
Ltmp411:
	pushq	%r15
	pushq	%r14
	pushq	%rbx
	subq	$536, %rsp
	.cfi_offset %rbx, -40
	.cfi_offset %r14, -32
	.cfi_offset %r15, -24
	.file	22 "/rustc/a74d1862d4d87a56244958416fd05976c58ca1a8/src/libstd/env.rs"
	.loc	22 246 5 prologue_end
	leaq	l___unnamed_8(%rip), %rsi
	leaq	-288(%rbp), %rdi
	movl	$5, %edx
	callq	__ZN3std3env7_var_os17hc8b7303001145450E
Ltmp412:
	.loc	21 14 9
	cmpq	$0, -288(%rbp)
	je	LBB17_23
	.loc	21 14 14 is_stmt 0
	movq	-272(%rbp), %rdx
	movq	%rdx, -296(%rbp)
	movq	-288(%rbp), %rbx
Ltmp413:
	movq	-280(%rbp), %rax
	movq	%rax, -304(%rbp)
	movq	%rbx, -312(%rbp)
Ltmp414:
	.loc	21 18 37 is_stmt 1
	movq	%rdx, -88(%rbp)
	movq	%rax, -96(%rbp)
	movq	%rbx, -104(%rbp)
Ltmp386:
	leaq	-288(%rbp), %rdi
Ltmp415:
	.file	23 "/rustc/a74d1862d4d87a56244958416fd05976c58ca1a8/src/libstd/process.rs"
	.loc	23 501 26
	movq	%rbx, %rsi
	callq	__ZN3std3sys4unix7process14process_common7Command3new17hcd746a384cbb0b47E
Ltmp387:
Ltmp416:
	.loc	23 0 26 is_stmt 0
	leaq	-560(%rbp), %rdi
	leaq	-288(%rbp), %rsi
	.loc	23 501 9
	movl	$184, %edx
	callq	_memcpy
Ltmp417:
	.loc	3 178 1 is_stmt 1
	movq	-96(%rbp), %rsi
Ltmp418:
	.loc	14 200 40
	testq	%rsi, %rsi
	.loc	14 200 9 is_stmt 0
	je	LBB17_4
Ltmp419:
	.loc	6 102 5 is_stmt 1
	movl	$1, %edx
	movq	%rbx, %rdi
	callq	___rust_dealloc
Ltmp420:
LBB17_4:
Ltmp389:
	.loc	23 542 9
	leaq	l___unnamed_9(%rip), %rsi
	leaq	-560(%rbp), %rdi
	movl	$9, %edx
	callq	__ZN3std3sys4unix7process14process_common7Command3arg17hc476c471a9efd12bE
Ltmp390:
Ltmp421:
Ltmp391:
	.loc	23 0 9 is_stmt 0
	leaq	-376(%rbp), %rdi
	leaq	-560(%rbp), %rsi
	.loc	21 18 24 is_stmt 1
	callq	__ZN3std7process7Command6output17h3119df81721f3b73E
Ltmp392:
	.loc	21 19 9
	cmpq	$1, -376(%rbp)
	jne	LBB17_13
Ltmp422:
	.loc	3 178 1
	cmpb	$2, -368(%rbp)
	jb	LBB17_12
Ltmp423:
	.loc	3 178 1 is_stmt 0
	movq	-360(%rbp), %rbx
Ltmp424:
	.loc	3 178 1
	movq	(%rbx), %rdi
	movq	8(%rbx), %rax
Ltmp405:
	callq	*(%rax)
Ltmp406:
Ltmp425:
	movq	8(%rbx), %rax
Ltmp426:
	.loc	6 282 16 is_stmt 1
	movq	8(%rax), %rsi
Ltmp427:
	.loc	6 185 12
	testq	%rsi, %rsi
	.loc	6 185 9 is_stmt 0
	je	LBB17_11
Ltmp428:
	.loc	3 178 1 is_stmt 1
	movq	(%rbx), %rdi
Ltmp429:
	.loc	6 283 17
	movq	16(%rax), %rdx
Ltmp430:
	.loc	6 102 5
	callq	___rust_dealloc
Ltmp431:
LBB17_11:
	.loc	6 102 5 is_stmt 0
	movl	$24, %esi
	movl	$8, %edx
	movq	%rbx, %rdi
	callq	___rust_dealloc
Ltmp432:
LBB17_12:
Ltmp408:
	.loc	6 0 5
	leaq	-560(%rbp), %rdi
	.loc	21 21 6 is_stmt 1
	callq	__ZN4core3ptr13drop_in_place17h6fe4ea79b29ce849E
Ltmp409:
	jmp	LBB17_23
LBB17_13:
	.loc	21 0 0 is_stmt 0
	leaq	-368(%rbp), %rax
Ltmp433:
	.loc	21 19 12 is_stmt 1
	movq	48(%rax), %rcx
	movq	%rcx, -32(%rbp)
	movq	40(%rax), %rcx
	movq	%rcx, -40(%rbp)
	movq	32(%rax), %rcx
	movq	%rcx, -48(%rbp)
	movq	24(%rax), %rcx
	movq	%rcx, -56(%rbp)
	movq	16(%rax), %rcx
	movq	%rcx, -64(%rbp)
	movq	(%rax), %rcx
	movq	8(%rax), %rax
Ltmp434:
	movq	%rax, -72(%rbp)
	movq	%rcx, -80(%rbp)
Ltmp394:
	leaq	-560(%rbp), %rdi
	.loc	21 21 6
	callq	__ZN4core3ptr13drop_in_place17h6fe4ea79b29ce849E
Ltmp395:
Ltmp435:
	.loc	13 814 19
	movq	-80(%rbp), %r15
Ltmp436:
	.loc	13 1966 55
	movq	-64(%rbp), %rdx
Ltmp396:
	leaq	-288(%rbp), %rdi
Ltmp437:
	.loc	21 23 25
	movq	%r15, %rsi
	callq	__ZN4core3str9from_utf817he06957962f38305fE
Ltmp397:
Ltmp438:
	.loc	21 24 9
	cmpq	$1, -288(%rbp)
	jne	LBB17_24
Ltmp439:
LBB17_16:
	.loc	21 0 9 is_stmt 0
	xorl	%ebx, %ebx
Ltmp440:
	.loc	3 178 1 is_stmt 1
	movq	-72(%rbp), %rsi
Ltmp441:
	.loc	14 200 40
	testq	%rsi, %rsi
	.loc	14 200 9 is_stmt 0
	jne	LBB17_18
	jmp	LBB17_19
Ltmp442:
LBB17_24:
	.loc	21 24 12 is_stmt 1
	movdqu	-280(%rbp), %xmm0
Ltmp443:
	.loc	16 3299 9
	movq	$0, -288(%rbp)
	pshufd	$78, %xmm0, %xmm1
	movq	%xmm1, -280(%rbp)
	movdqu	%xmm0, -272(%rbp)
	movq	$0, -256(%rbp)
	movq	%xmm1, -248(%rbp)
	movq	$1, -240(%rbp)
	movabsq	$197568495662, %rax
	movq	%rax, -232(%rbp)
	movw	$1, -224(%rbp)
Ltmp398:
	leaq	-288(%rbp), %rdi
Ltmp444:
	.loc	21 29 8
	callq	__ZN84_$LT$core..str..Split$LT$P$GT$$u20$as$u20$core..iter..traits..iterator..Iterator$GT$4next17h7189b380d6ed0bb5E
Ltmp399:
Ltmp445:
	.loc	2 151 16
	xorl	%esi, %esi
	testq	%rax, %rax
	setne	%sil
Ltmp446:
	.loc	2 151 16 is_stmt 0
	leaq	l___unnamed_10(%rip), %rcx
	xorl	%edi, %edi
	testq	%rcx, %rcx
	setne	%dil
Ltmp447:
	.loc	2 0 16
	movb	$1, %bl
	.loc	2 151 16
	cmpq	%rdi, %rsi
	jne	LBB17_17
Ltmp448:
	testq	%rax, %rax
	je	LBB17_31
Ltmp449:
	.loc	2 0 16
	testq	%rcx, %rcx
	.loc	2 151 16
	je	LBB17_31
Ltmp450:
	.loc	18 5860 12 is_stmt 1
	cmpq	$7, %rdx
	.loc	18 5860 9 is_stmt 0
	jne	LBB17_17
Ltmp451:
	.loc	18 5863 12 is_stmt 1
	cmpq	%rcx, %rax
	.loc	18 5863 9 is_stmt 0
	je	LBB17_31
Ltmp452:
	.loc	18 0 9
	movl	$1953723762, %ecx
Ltmp453:
	.loc	18 5868 13 is_stmt 1
	xorl	(%rax), %ecx
	movl	$824206196, %edx
Ltmp454:
	xorl	3(%rax), %edx
	orl	%ecx, %edx
Ltmp455:
	.loc	21 29 5
	je	LBB17_31
Ltmp456:
LBB17_17:
	.loc	3 178 1
	movq	-72(%rbp), %rsi
Ltmp457:
	.loc	14 200 40
	testq	%rsi, %rsi
	.loc	14 200 9 is_stmt 0
	je	LBB17_19
Ltmp458:
LBB17_18:
	.loc	6 102 5 is_stmt 1
	movl	$1, %edx
	movq	%r15, %rdi
	callq	___rust_dealloc
Ltmp459:
LBB17_19:
	.loc	3 178 1
	movq	-56(%rbp), %rdi
Ltmp460:
	.loc	14 532 16
	testq	%rdi, %rdi
Ltmp461:
	.loc	14 200 9
	je	LBB17_22
Ltmp462:
	.loc	3 0 0 is_stmt 0
	movq	-48(%rbp), %rsi
Ltmp463:
	.loc	14 200 9
	testq	%rsi, %rsi
	je	LBB17_22
Ltmp464:
	.loc	6 102 5 is_stmt 1
	movl	$1, %edx
	callq	___rust_dealloc
Ltmp465:
LBB17_22:
	.loc	21 7 5
	testb	%bl, %bl
	je	LBB17_23
LBB17_41:
Ltmp466:
	.loc	10 328 9
	leaq	l___unnamed_11(%rip), %rax
Ltmp467:
	movq	%rax, -288(%rbp)
	movq	$1, -280(%rbp)
	movq	$0, -272(%rbp)
	leaq	l___unnamed_12(%rip), %rax
Ltmp468:
	movq	%rax, -256(%rbp)
	movq	$0, -248(%rbp)
	leaq	-288(%rbp), %rdi
Ltmp469:
	.loc	21 8 9
	callq	__ZN3std2io5stdio6_print17hdea2154009b9e479E
Ltmp470:
LBB17_23:
	.loc	21 10 2
	addq	$536, %rsp
	popq	%rbx
	popq	%r14
	popq	%r15
	popq	%rbp
	retq
LBB17_31:
Ltmp400:
	.loc	21 0 2 is_stmt 0
	leaq	-288(%rbp), %rdi
Ltmp471:
	.loc	21 33 22 is_stmt 1
	callq	__ZN84_$LT$core..str..Split$LT$P$GT$$u20$as$u20$core..iter..traits..iterator..Iterator$GT$4next17h7189b380d6ed0bb5E
Ltmp401:
	.loc	21 34 9
	testq	%rax, %rax
	je	LBB17_16
Ltmp402:
Ltmp472:
	.loc	21 38 5
	movq	%rax, %rdi
	movq	%rdx, %rsi
	callq	__ZN4core3num52_$LT$impl$u20$core..str..FromStr$u20$for$u20$u32$GT$8from_str17hb8ee2851a4cfefb0E
Ltmp473:
Ltmp403:
	.loc	21 0 0 is_stmt 0
	movq	%rax, %r14
Ltmp474:
	.loc	3 178 1 is_stmt 1
	movq	-72(%rbp), %rsi
Ltmp475:
	.loc	14 200 40
	testq	%rsi, %rsi
	.loc	14 200 9 is_stmt 0
	je	LBB17_36
Ltmp476:
	.loc	6 102 5 is_stmt 1
	movl	$1, %edx
	movq	%r15, %rdi
	callq	___rust_dealloc
Ltmp477:
LBB17_36:
	.loc	3 178 1
	movq	-56(%rbp), %rdi
Ltmp478:
	.loc	14 532 16
	testq	%rdi, %rdi
Ltmp479:
	.loc	14 200 9
	je	LBB17_39
Ltmp480:
	.loc	3 0 0 is_stmt 0
	movq	-48(%rbp), %rsi
Ltmp481:
	.loc	14 200 9
	testq	%rsi, %rsi
	je	LBB17_39
Ltmp482:
	.loc	6 102 5 is_stmt 1
	movl	$1, %edx
	callq	___rust_dealloc
Ltmp483:
LBB17_39:
	.loc	21 7 5
	testb	$1, %r14b
	jne	LBB17_23
	.loc	21 0 0 is_stmt 0
	shrq	$32, %r14
	.loc	21 7 5
	cmpl	$27, %r14d
	jae	LBB17_41
	jmp	LBB17_23
LBB17_48:
Ltmp484:
Ltmp407:
	.loc	21 0 5
	movq	%rax, %r14
Ltmp485:
	.loc	3 178 1 is_stmt 1
	movq	(%rbx), %rdi
	movq	8(%rbx), %rsi
	callq	__ZN5alloc5alloc8box_free17h2a94484be67aaa5cE
Ltmp486:
	.loc	3 178 1 is_stmt 0
	movq	%rbx, %rdi
	callq	__ZN5alloc5alloc8box_free17hc8b5a3e82fa2f6f2E
	jmp	LBB17_46
Ltmp487:
LBB17_44:
Ltmp410:
	.loc	3 0 1
	movq	%rax, %r14
	movq	%r14, %rdi
	callq	__Unwind_Resume
	ud2
LBB17_47:
Ltmp388:
	movq	%rax, %r14
Ltmp488:
	leaq	-104(%rbp), %rdi
Ltmp489:
	.loc	23 502 5 is_stmt 1
	callq	__ZN4core3ptr13drop_in_place17he16a7ff3b35ce572E
	movq	%r14, %rdi
	callq	__Unwind_Resume
	ud2
Ltmp490:
LBB17_42:
Ltmp404:
	.loc	23 0 5 is_stmt 0
	movq	%rax, %r14
Ltmp491:
	leaq	-80(%rbp), %rdi
	.loc	21 39 1 is_stmt 1
	callq	__ZN4core3ptr13drop_in_place17hb132a0a2ff5b8009E
	movq	%r14, %rdi
	callq	__Unwind_Resume
	ud2
Ltmp492:
LBB17_45:
Ltmp393:
	.loc	21 0 1 is_stmt 0
	movq	%rax, %r14
LBB17_46:
	leaq	-560(%rbp), %rdi
	.loc	21 21 6 is_stmt 1
	callq	__ZN4core3ptr13drop_in_place17h6fe4ea79b29ce849E
	movq	%r14, %rdi
	callq	__Unwind_Resume
	ud2
Ltmp493:
Lfunc_end17:
	.cfi_endproc
	.section	__TEXT,__gcc_except_tab
	.p2align	2
GCC_except_table17:
Lexception3:
	.byte	255
	.byte	255
	.byte	1
	.uleb128 Lcst_end3-Lcst_begin3
Lcst_begin3:
	.uleb128 Lfunc_begin17-Lfunc_begin17
	.uleb128 Ltmp386-Lfunc_begin17
	.byte	0
	.byte	0
	.uleb128 Ltmp386-Lfunc_begin17
	.uleb128 Ltmp387-Ltmp386
	.uleb128 Ltmp388-Lfunc_begin17
	.byte	0
	.uleb128 Ltmp387-Lfunc_begin17
	.uleb128 Ltmp389-Ltmp387
	.byte	0
	.byte	0
	.uleb128 Ltmp389-Lfunc_begin17
	.uleb128 Ltmp392-Ltmp389
	.uleb128 Ltmp393-Lfunc_begin17
	.byte	0
	.uleb128 Ltmp405-Lfunc_begin17
	.uleb128 Ltmp406-Ltmp405
	.uleb128 Ltmp407-Lfunc_begin17
	.byte	0
	.uleb128 Ltmp408-Lfunc_begin17
	.uleb128 Ltmp409-Ltmp408
	.uleb128 Ltmp410-Lfunc_begin17
	.byte	0
	.uleb128 Ltmp394-Lfunc_begin17
	.uleb128 Ltmp399-Ltmp394
	.uleb128 Ltmp404-Lfunc_begin17
	.byte	0
	.uleb128 Ltmp399-Lfunc_begin17
	.uleb128 Ltmp400-Ltmp399
	.byte	0
	.byte	0
	.uleb128 Ltmp400-Lfunc_begin17
	.uleb128 Ltmp403-Ltmp400
	.uleb128 Ltmp404-Lfunc_begin17
	.byte	0
	.uleb128 Ltmp403-Lfunc_begin17
	.uleb128 Lfunc_end17-Ltmp403
	.byte	0
	.byte	0
Lcst_end3:
	.p2align	2

	.section	__TEXT,__text,regular,pure_instructions
	.globl	_main
	.p2align	4, 0x90
_main:
Lfunc_begin18:
	.cfi_startproc
	pushq	%rbp
	.cfi_def_cfa_offset 16
	.cfi_offset %rbp, -16
	movq	%rsp, %rbp
	.cfi_def_cfa_register %rbp
	subq	$16, %rsp
	movq	%rsi, %rcx
	movslq	%edi, %rdx
	leaq	__ZN18build_script_build4main17h47ad47af462d67d1E(%rip), %rax
	movq	%rax, -8(%rbp)
	leaq	l___unnamed_1(%rip), %rsi
	leaq	-8(%rbp), %rdi
	callq	__ZN3std2rt19lang_start_internal17hebefdaa8fd585aefE
	addq	$16, %rsp
	popq	%rbp
	retq
Lfunc_end18:
	.cfi_endproc

	.section	__TEXT,__const
l___unnamed_13:
	.ascii	"/rustc/a74d1862d4d87a56244958416fd05976c58ca1a8/src/liballoc/collections/btree/map.rs"

	.section	__DATA,__const
	.p2align	3
l___unnamed_3:
	.quad	l___unnamed_13
	.asciz	"U\000\000\000\000\000\000\000C\006\000\000\033\000\000"

	.p2align	3
l___unnamed_1:
	.quad	__ZN4core3ptr13drop_in_place17hd353cb4b094fbd60E
	.quad	8
	.quad	8
	.quad	__ZN3std2rt10lang_start28_$u7b$$u7b$closure$u7d$$u7d$17hde6a9c3f6345ae75E
	.quad	__ZN3std2rt10lang_start28_$u7b$$u7b$closure$u7d$$u7d$17hde6a9c3f6345ae75E
	.quad	__ZN4core3ops8function6FnOnce40call_once$u7b$$u7b$vtable.shim$u7d$$u7d$17hd09b656a58804c18E

	.section	__TEXT,__const
l___unnamed_14:
	.ascii	"/rustc/a74d1862d4d87a56244958416fd05976c58ca1a8/src/libcore/macros/mod.rs"

	.section	__DATA,__const
	.p2align	3
l___unnamed_6:
	.quad	l___unnamed_14
	.asciz	"I\000\000\000\000\000\000\000\020\000\000\000\t\000\000"

	.section	__TEXT,__const
l___unnamed_2:
	.ascii	"called `Option::unwrap()` on a `None` value"

l___unnamed_15:
	.ascii	"internal error: entered unreachable code: "

	.section	__DATA,__const
	.p2align	3
l___unnamed_5:
	.quad	l___unnamed_15
	.asciz	"*\000\000\000\000\000\000"

	.section	__TEXT,__const
l___unnamed_16:
	.ascii	"BTreeMap has different depths"

	.section	__DATA,__const
	.p2align	3
l___unnamed_4:
	.quad	l___unnamed_16
	.asciz	"\035\000\000\000\000\000\000"

	.section	__TEXT,__const
l___unnamed_17:
	.ascii	"/rustc/a74d1862d4d87a56244958416fd05976c58ca1a8/src/libcore/str/pattern.rs"

	.section	__DATA,__const
	.p2align	3
l___unnamed_7:
	.quad	l___unnamed_17
	.asciz	"J\000\000\000\000\000\000\000\213\001\000\000&\000\000"

	.section	__TEXT,__const
l___unnamed_18:
	.ascii	"cargo:rustc-cfg=has_dyn_trait\n"

	.section	__DATA,__const
	.p2align	3
l___unnamed_11:
	.quad	l___unnamed_18
	.asciz	"\036\000\000\000\000\000\000"

	.section	__TEXT,__const
	.p2align	3
l___unnamed_12:
	.byte	0

l___unnamed_8:
	.ascii	"RUSTC"

l___unnamed_9:
	.ascii	"--version"

l___unnamed_10:
	.ascii	"rustc 1"

	.section	__DATA,__const
Lsec_end0:
	.section	__TEXT,__text,regular,pure_instructions
Lsec_end1: