	.section	__TEXT,__text,regular,pure_instructions
	.macosx_version_min 10, 7
	.private_extern	__ZN3std2rt10lang_start17h8742487488d1b298E
	.globl	__ZN3std2rt10lang_start17h8742487488d1b298E
	.p2align	4, 0x90
__ZN3std2rt10lang_start17h8742487488d1b298E:
Lfunc_begin0:
	.file	1 "/rustc/6c8927b0cf80ceee19386026cf9d7fd4fd9d486f/src/libstd/rt.rs"
	.loc	1 62 0
	.cfi_startproc
	pushq	%rbp
	.cfi_def_cfa_offset 16
	.cfi_offset %rbp, -16
	movq	%rsp, %rbp
	.cfi_def_cfa_register %rbp
	subq	$64, %rsp
	leaq	l___unnamed_1(%rip), %rax
	movq	%rdi, -24(%rbp)
	movq	%rsi, -16(%rbp)
	movq	%rdx, -8(%rbp)
Ltmp0:
	.loc	1 67 26 prologue_end
	movq	%rdi, -32(%rbp)
	.loc	1 67 25 is_stmt 0
	leaq	-32(%rbp), %rcx
	.loc	1 67 5
	movq	%rcx, %rdi
	movq	%rsi, -40(%rbp)
	movq	%rax, %rsi
	movq	-40(%rbp), %rax
	movq	%rdx, -48(%rbp)
	movq	%rax, %rdx
	movq	-48(%rbp), %rcx
	callq	__ZN3std2rt19lang_start_internal17hbbd10965adc92ae7E
	movq	%rax, -56(%rbp)
	.loc	1 0 5
	movq	-56(%rbp), %rax
	.loc	1 68 2 is_stmt 1
	addq	$64, %rsp
	popq	%rbp
	retq
Ltmp1:
Lfunc_end0:
	.cfi_endproc

	.p2align	4, 0x90
__ZN3std2rt10lang_start28_$u7b$$u7b$closure$u7d$$u7d$17he690024af5665e8bE:
Lfunc_begin1:
	.loc	1 67 0
	.cfi_startproc
	pushq	%rbp
	.cfi_def_cfa_offset 16
	.cfi_offset %rbp, -16
	movq	%rsp, %rbp
	.cfi_def_cfa_register %rbp
	subq	$16, %rsp
	movq	%rdi, -8(%rbp)
Ltmp2:
	.loc	1 67 34 prologue_end
	callq	*(%rdi)
	callq	__ZN54_$LT$$LP$$RP$$u20$as$u20$std..process..Termination$GT$6report17h22886b8d1c1d42d6E
	movl	%eax, -12(%rbp)
	.loc	1 0 34 is_stmt 0
	movl	-12(%rbp), %eax
	.loc	1 67 49
	addq	$16, %rsp
	popq	%rbp
	retq
Ltmp3:
Lfunc_end1:
	.cfi_endproc

	.p2align	4, 0x90
__ZN3std3sys4unix7process14process_common8ExitCode6as_i3217ha7d5aba5213a5f47E:
Lfunc_begin2:
	.file	2 "/rustc/6c8927b0cf80ceee19386026cf9d7fd4fd9d486f/src/libstd/sys/unix/process/process_common.rs"
	.loc	2 398 0 is_stmt 1
	.cfi_startproc
	pushq	%rbp
	.cfi_def_cfa_offset 16
	.cfi_offset %rbp, -16
	movq	%rsp, %rbp
	.cfi_def_cfa_register %rbp
	pushq	%rax
	movq	%rdi, -8(%rbp)
Ltmp4:
	.loc	2 399 9 prologue_end
	movzbl	(%rdi), %eax
	.loc	2 400 6
	addq	$8, %rsp
	popq	%rbp
	retq
Ltmp5:
Lfunc_end2:
	.cfi_endproc

	.p2align	4, 0x90
__ZN4core3ops8function6FnOnce40call_once$u7b$$u7b$vtable.shim$u7d$$u7d$17hb444de7b56717ccdE:
Lfunc_begin3:
	.file	3 "/rustc/6c8927b0cf80ceee19386026cf9d7fd4fd9d486f/src/libcore/ops/function.rs"
	.loc	3 233 0
	.cfi_startproc
	pushq	%rbp
	.cfi_def_cfa_offset 16
	.cfi_offset %rbp, -16
	movq	%rsp, %rbp
	.cfi_def_cfa_register %rbp
	subq	$32, %rsp
	movq	%rdi, -8(%rbp)
Ltmp6:
	.loc	3 233 5 prologue_end
	movq	(%rdi), %rdi
	callq	__ZN4core3ops8function6FnOnce9call_once17h0c347607afea6184E
	movl	%eax, -20(%rbp)
	.loc	3 0 5 is_stmt 0
	movl	-20(%rbp), %eax
	.loc	3 233 5
	addq	$32, %rsp
	popq	%rbp
	retq
Ltmp7:
Lfunc_end3:
	.cfi_endproc

	.p2align	4, 0x90
__ZN4core3ops8function6FnOnce9call_once17h0c347607afea6184E:
Lfunc_begin4:
	.loc	3 233 0 is_stmt 1
	.cfi_startproc
	.cfi_personality 155, _rust_eh_personality
	.cfi_lsda 16, Lexception0
	pushq	%rbp
	.cfi_def_cfa_offset 16
	.cfi_offset %rbp, -16
	movq	%rsp, %rbp
	.cfi_def_cfa_register %rbp
	subq	$48, %rsp
	movq	%rdi, -32(%rbp)
Ltmp8:
	leaq	-32(%rbp), %rdi
Ltmp11:
	.loc	3 233 5 prologue_end
	callq	__ZN3std2rt10lang_start28_$u7b$$u7b$closure$u7d$$u7d$17he690024af5665e8bE
Ltmp9:
	movl	%eax, -36(%rbp)
	jmp	LBB4_1
LBB4_1:
	jmp	LBB4_2
LBB4_2:
	.loc	3 0 5 is_stmt 0
	movl	-36(%rbp), %eax
	.loc	3 233 5
	addq	$48, %rsp
	popq	%rbp
	retq
LBB4_3:
	jmp	LBB4_4
LBB4_4:
	movq	-16(%rbp), %rdi
	callq	__Unwind_Resume
	ud2
Ltmp12:
LBB4_5:
Ltmp10:
	.loc	3 0 5
	movq	%rax, -16(%rbp)
	movl	%edx, -8(%rbp)
	jmp	LBB4_3
Lfunc_end4:
	.cfi_endproc
	.section	__TEXT,__gcc_except_tab
	.p2align	2
GCC_except_table4:
Lexception0:
	.byte	255
	.byte	255
	.byte	1
	.uleb128 Lcst_end0-Lcst_begin0
Lcst_begin0:
	.uleb128 Ltmp8-Lfunc_begin4
	.uleb128 Ltmp9-Ltmp8
	.uleb128 Ltmp10-Lfunc_begin4
	.byte	0
	.uleb128 Ltmp9-Lfunc_begin4
	.uleb128 Lfunc_end4-Ltmp9
	.byte	0
	.byte	0
Lcst_end0:
	.p2align	2

	.section	__TEXT,__text,regular,pure_instructions
	.p2align	4, 0x90
__ZN4core3ptr13drop_in_place17h245b5e0fff19b4bfE:
Lfunc_begin5:
	.file	4 "/rustc/6c8927b0cf80ceee19386026cf9d7fd4fd9d486f/src/libcore/ptr/mod.rs"
	.loc	4 184 0 is_stmt 1
	.cfi_startproc
	pushq	%rbp
	.cfi_def_cfa_offset 16
	.cfi_offset %rbp, -16
	movq	%rsp, %rbp
	.cfi_def_cfa_register %rbp
	subq	$16, %rsp
	movq	%rdi, -8(%rbp)
Ltmp13:
	.loc	4 184 1 prologue_end
	addq	$16, %rsp
	popq	%rbp
	retq
Ltmp14:
Lfunc_end5:
	.cfi_endproc

	.p2align	4, 0x90
__ZN54_$LT$$LP$$RP$$u20$as$u20$std..process..Termination$GT$6report17h22886b8d1c1d42d6E:
Lfunc_begin6:
	.file	5 "/rustc/6c8927b0cf80ceee19386026cf9d7fd4fd9d486f/src/libstd/process.rs"
	.loc	5 1667 0
	.cfi_startproc
	pushq	%rbp
	.cfi_def_cfa_offset 16
	.cfi_offset %rbp, -16
	movq	%rsp, %rbp
	.cfi_def_cfa_register %rbp
	subq	$16, %rsp
	xorl	%edi, %edi
Ltmp15:
	.loc	5 1668 9 prologue_end
	callq	__ZN68_$LT$std..process..ExitCode$u20$as$u20$std..process..Termination$GT$6report17h0e70212c9297c7ddE
	movl	%eax, -12(%rbp)
	.loc	5 0 9 is_stmt 0
	movl	-12(%rbp), %eax
	.loc	5 1669 6 is_stmt 1
	addq	$16, %rsp
	popq	%rbp
	retq
Ltmp16:
Lfunc_end6:
	.cfi_endproc

	.p2align	4, 0x90
__ZN68_$LT$std..process..ExitCode$u20$as$u20$std..process..Termination$GT$6report17h0e70212c9297c7ddE:
Lfunc_begin7:
	.loc	5 1701 0
	.cfi_startproc
	pushq	%rbp
	.cfi_def_cfa_offset 16
	.cfi_offset %rbp, -16
	movq	%rsp, %rbp
	.cfi_def_cfa_register %rbp
	subq	$16, %rsp
	movb	%dil, -1(%rbp)
Ltmp17:
	.loc	5 1702 9 prologue_end
	leaq	-1(%rbp), %rdi
Ltmp18:
	callq	__ZN3std3sys4unix7process14process_common8ExitCode6as_i3217ha7d5aba5213a5f47E
Ltmp19:
	.loc	5 0 9 is_stmt 0
	movl	%eax, -8(%rbp)
	movl	-8(%rbp), %eax
	.loc	5 1703 6 is_stmt 1
	addq	$16, %rsp
	popq	%rbp
	retq
Ltmp20:
Lfunc_end7:
	.cfi_endproc

	.p2align	4, 0x90
__ZN18build_script_build4main17h491332c1c7994f7cE:
Lfunc_begin8:
	.file	6 "/Users/yingyuhang/.cargo/registry/src/github.com-1ecc6299db9ec823/crossbeam-utils-0.7.2/build.rs"
	.loc	6 3 0
	.cfi_startproc
	.cfi_personality 155, _rust_eh_personality
	.cfi_lsda 16, Lexception1
	pushq	%rbp
	.cfi_def_cfa_offset 16
	.cfi_offset %rbp, -16
	movq	%rsp, %rbp
	.cfi_def_cfa_register %rbp
	subq	$160, %rsp
Ltmp36:
	.loc	6 4 15 prologue_end
	leaq	-144(%rbp), %rdi
Ltmp37:
	callq	__ZN7autocfg3new17h27716e9c459c201aE
Ltmp38:
	jmp	LBB8_2
LBB8_1:
	.loc	6 3 1
	movq	-16(%rbp), %rdi
	callq	__Unwind_Resume
	ud2
LBB8_2:
Ltmp21:
	.loc	6 0 1 is_stmt 0
	leaq	-144(%rbp), %rdi
	movl	$1, %esi
	movl	$31, %edx
Ltmp39:
	.loc	6 5 8 is_stmt 1
	callq	__ZN7autocfg7AutoCfg19probe_rustc_version17he331dd36e07f7581E
Ltmp22:
	movb	%al, -145(%rbp)
	jmp	LBB8_3
LBB8_3:
	.loc	6 0 8 is_stmt 0
	movb	-145(%rbp), %al
	.loc	6 5 5
	testb	$1, %al
	jne	LBB8_6
	jmp	LBB8_5
Ltmp40:
LBB8_4:
	.loc	6 14 1 is_stmt 1
	leaq	-144(%rbp), %rdi
	callq	__ZN4core3ptr13drop_in_place17h0f004417ad3a5453E
	jmp	LBB8_1
LBB8_5:
Ltmp41:
	.loc	6 5 5
	jmp	LBB8_8
LBB8_6:
Ltmp23:
	.loc	6 6 9
	leaq	L___unnamed_2(%rip), %rdi
	movl	$16, %esi
	callq	__ZN7autocfg4emit17h18a055003984a7dfE
Ltmp24:
	jmp	LBB8_7
LBB8_7:
	.loc	6 5 5
	jmp	LBB8_8
LBB8_8:
Ltmp25:
	.loc	6 9 5
	leaq	l___unnamed_3(%rip), %rsi
	leaq	l___unnamed_4(%rip), %rcx
	leaq	-144(%rbp), %rdi
	movl	$28, %edx
	movl	$13, %r8d
	callq	__ZN7autocfg7AutoCfg13emit_type_cfg17hfea976d6aead15b8E
Ltmp26:
	jmp	LBB8_9
LBB8_9:
Ltmp27:
	.loc	6 10 5
	leaq	l___unnamed_5(%rip), %rsi
	leaq	l___unnamed_6(%rip), %rcx
	leaq	-144(%rbp), %rdi
	movl	$29, %edx
	movl	$14, %r8d
	callq	__ZN7autocfg7AutoCfg13emit_type_cfg17hfea976d6aead15b8E
Ltmp28:
	jmp	LBB8_10
LBB8_10:
Ltmp29:
	.loc	6 11 5
	leaq	l___unnamed_7(%rip), %rsi
	leaq	l___unnamed_8(%rip), %rcx
	leaq	-144(%rbp), %rdi
	movl	$29, %edx
	movl	$14, %r8d
	callq	__ZN7autocfg7AutoCfg13emit_type_cfg17hfea976d6aead15b8E
Ltmp30:
	jmp	LBB8_11
LBB8_11:
Ltmp31:
	.loc	6 12 5
	leaq	l___unnamed_9(%rip), %rsi
	leaq	l___unnamed_10(%rip), %rcx
	leaq	-144(%rbp), %rdi
	movl	$29, %edx
	movl	$14, %r8d
	callq	__ZN7autocfg7AutoCfg13emit_type_cfg17hfea976d6aead15b8E
Ltmp32:
	jmp	LBB8_12
LBB8_12:
Ltmp33:
	.loc	6 13 5
	leaq	l___unnamed_11(%rip), %rsi
	leaq	l___unnamed_12(%rip), %rcx
	leaq	-144(%rbp), %rdi
	movl	$30, %edx
	movl	$15, %r8d
	callq	__ZN7autocfg7AutoCfg13emit_type_cfg17hfea976d6aead15b8E
Ltmp34:
	jmp	LBB8_13
Ltmp42:
LBB8_13:
	.loc	6 14 1
	leaq	-144(%rbp), %rdi
	callq	__ZN4core3ptr13drop_in_place17h0f004417ad3a5453E
	.loc	6 14 2 is_stmt 0
	addq	$160, %rsp
	popq	%rbp
	retq
Ltmp43:
LBB8_15:
Ltmp35:
	.loc	6 0 2
	movq	%rax, -16(%rbp)
	movl	%edx, -8(%rbp)
	jmp	LBB8_4
Lfunc_end8:
	.cfi_endproc
	.section	__TEXT,__gcc_except_tab
	.p2align	2
GCC_except_table8:
Lexception1:
	.byte	255
	.byte	255
	.byte	1
	.uleb128 Lcst_end1-Lcst_begin1
Lcst_begin1:
	.uleb128 Lfunc_begin8-Lfunc_begin8
	.uleb128 Ltmp21-Lfunc_begin8
	.byte	0
	.byte	0
	.uleb128 Ltmp21-Lfunc_begin8
	.uleb128 Ltmp22-Ltmp21
	.uleb128 Ltmp35-Lfunc_begin8
	.byte	0
	.uleb128 Ltmp22-Lfunc_begin8
	.uleb128 Ltmp23-Ltmp22
	.byte	0
	.byte	0
	.uleb128 Ltmp23-Lfunc_begin8
	.uleb128 Ltmp34-Ltmp23
	.uleb128 Ltmp35-Lfunc_begin8
	.byte	0
	.uleb128 Ltmp34-Lfunc_begin8
	.uleb128 Lfunc_end8-Ltmp34
	.byte	0
	.byte	0
Lcst_end1:
	.p2align	2

	.section	__TEXT,__text,regular,pure_instructions
	.globl	_main
	.p2align	4, 0x90
_main:
Lfunc_begin9:
	.cfi_startproc
	pushq	%rbp
	.cfi_def_cfa_offset 16
	.cfi_offset %rbp, -16
	movq	%rsp, %rbp
	.cfi_def_cfa_register %rbp
	subq	$16, %rsp
	movslq	%edi, %rax
	leaq	__ZN18build_script_build4main17h491332c1c7994f7cE(%rip), %rdi
	movq	%rsi, -8(%rbp)
	movq	%rax, %rsi
	movq	-8(%rbp), %rdx
	callq	__ZN3std2rt10lang_start17h8742487488d1b298E
	addq	$16, %rsp
	popq	%rbp
	retq
Lfunc_end9:
	.cfi_endproc

	.section	__DATA,__const
	.p2align	3
l___unnamed_1:
	.quad	__ZN4core3ptr13drop_in_place17h245b5e0fff19b4bfE
	.quad	8
	.quad	8
	.quad	__ZN3std2rt10lang_start28_$u7b$$u7b$closure$u7d$$u7d$17he690024af5665e8bE
	.quad	__ZN3std2rt10lang_start28_$u7b$$u7b$closure$u7d$$u7d$17he690024af5665e8bE
	.quad	__ZN4core3ops8function6FnOnce40call_once$u7b$$u7b$vtable.shim$u7d$$u7d$17hb444de7b56717ccdE

	.section	__TEXT,__literal16,16byte_literals
L___unnamed_2:
	.ascii	"has_min_const_fn"

	.section	__TEXT,__const
l___unnamed_3:
	.ascii	"core::sync::atomic::AtomicU8"

l___unnamed_4:
	.ascii	"has_atomic_u8"

l___unnamed_5:
	.ascii	"core::sync::atomic::AtomicU16"

l___unnamed_6:
	.ascii	"has_atomic_u16"

l___unnamed_7:
	.ascii	"core::sync::atomic::AtomicU32"

l___unnamed_8:
	.ascii	"has_atomic_u32"

l___unnamed_9:
	.ascii	"core::sync::atomic::AtomicU64"

l___unnamed_10:
	.ascii	"has_atomic_u64"

l___unnamed_11:
	.ascii	"core::sync::atomic::AtomicU128"

l___unnamed_12:
	.ascii	"has_atomic_u128"

	.section	__DATA,__const
Lsec_end0:
	.section	__TEXT,__text,regular,pure_instructions
Lsec_end1: