	.section	__TEXT,__text,regular,pure_instructions
	.macosx_version_min 10, 7
	.private_extern	__ZN3std2rt10lang_start17h64a942bdd457f656E
	.globl	__ZN3std2rt10lang_start17h64a942bdd457f656E
	.p2align	4, 0x90
__ZN3std2rt10lang_start17h64a942bdd457f656E:
Lfunc_begin0:
	.file	1 "/rustc/a74d1862d4d87a56244958416fd05976c58ca1a8/src/libstd/rt.rs"
	.loc	1 62 0
	.cfi_startproc
	pushq	%rbp
	.cfi_def_cfa_offset 16
	.cfi_offset %rbp, -16
	movq	%rsp, %rbp
	.cfi_def_cfa_register %rbp
	subq	$16, %rsp
	movq	%rdx, %rcx
Ltmp0:
	movq	%rsi, %rdx
Ltmp1:
	.loc	1 67 26 prologue_end
	movq	%rdi, -8(%rbp)
	.loc	1 67 5 is_stmt 0
	leaq	l___unnamed_1(%rip), %rsi
	leaq	-8(%rbp), %rdi
Ltmp2:
	callq	__ZN3std2rt19lang_start_internal17hebefdaa8fd585aefE
Ltmp3:
	.loc	1 68 2 is_stmt 1
	addq	$16, %rsp
	popq	%rbp
	retq
Ltmp4:
Lfunc_end0:
	.cfi_endproc

	.p2align	4, 0x90
__ZN3std2rt10lang_start28_$u7b$$u7b$closure$u7d$$u7d$17h59a703df921e4777E:
Lfunc_begin1:
	.loc	1 67 0
	.cfi_startproc
	pushq	%rbp
	.cfi_def_cfa_offset 16
	.cfi_offset %rbp, -16
	movq	%rsp, %rbp
	.cfi_def_cfa_register %rbp
Ltmp5:
	.loc	1 67 34 prologue_end
	callq	*(%rdi)
Ltmp6:
	.loc	1 67 49 is_stmt 0
	xorl	%eax, %eax
	popq	%rbp
	retq
Ltmp7:
Lfunc_end1:
	.cfi_endproc

	.p2align	4, 0x90
__ZN4core3ops8function6FnOnce40call_once$u7b$$u7b$vtable.shim$u7d$$u7d$17hfda9091fc747322eE:
Lfunc_begin2:
	.file	2 "/rustc/a74d1862d4d87a56244958416fd05976c58ca1a8/src/libcore/ops/function.rs"
	.loc	2 232 0 is_stmt 1
	.cfi_startproc
	pushq	%rbp
	.cfi_def_cfa_offset 16
	.cfi_offset %rbp, -16
	movq	%rsp, %rbp
	.cfi_def_cfa_register %rbp
Ltmp8:
	.loc	1 67 34 prologue_end
	callq	*(%rdi)
Ltmp9:
	.loc	2 232 5
	xorl	%eax, %eax
	popq	%rbp
	retq
Ltmp10:
Lfunc_end2:
	.cfi_endproc

	.p2align	4, 0x90
__ZN4core3ptr13drop_in_place17h81254958fcb32e61E:
Lfunc_begin3:
	.file	3 "/rustc/a74d1862d4d87a56244958416fd05976c58ca1a8/src/libcore/ptr/mod.rs"
	.loc	3 178 0
	.cfi_startproc
	pushq	%rbp
	.cfi_def_cfa_offset 16
	.cfi_offset %rbp, -16
	movq	%rsp, %rbp
	.cfi_def_cfa_register %rbp
	pushq	%r15
	pushq	%r14
	pushq	%rbx
	pushq	%rax
	.cfi_offset %rbx, -40
	.cfi_offset %r14, -32
	.cfi_offset %r15, -24
	movq	%rdi, %r14
Ltmp11:
	.loc	3 178 1 prologue_end
	movq	(%rdi), %rdi
Ltmp12:
	.file	4 "/rustc/a74d1862d4d87a56244958416fd05976c58ca1a8/src/liballoc/raw_vec.rs"
	.loc	4 532 16
	testq	%rdi, %rdi
Ltmp13:
	.loc	4 200 9
	je	LBB3_3
Ltmp14:
	.loc	3 0 0 is_stmt 0
	movq	8(%r14), %rsi
Ltmp15:
	.loc	4 200 9
	testq	%rsi, %rsi
	je	LBB3_3
Ltmp16:
	.file	5 "/rustc/a74d1862d4d87a56244958416fd05976c58ca1a8/src/liballoc/alloc.rs"
	.loc	5 102 5 is_stmt 1
	movl	$1, %edx
	callq	___rust_dealloc
Ltmp17:
LBB3_3:
	.loc	3 178 1
	movq	24(%r14), %rdi
Ltmp18:
	.loc	4 532 16
	testq	%rdi, %rdi
Ltmp19:
	.loc	4 200 9
	je	LBB3_6
Ltmp20:
	.loc	3 0 0 is_stmt 0
	movq	32(%r14), %rsi
Ltmp21:
	.loc	4 200 9
	testq	%rsi, %rsi
	je	LBB3_6
Ltmp22:
	.loc	5 102 5 is_stmt 1
	movl	$1, %edx
	callq	___rust_dealloc
Ltmp23:
LBB3_6:
	.loc	3 178 1
	movq	72(%r14), %rdi
Ltmp24:
	testq	%rdi, %rdi
	je	LBB3_7
Ltmp25:
	.loc	3 178 1 is_stmt 0
	movq	80(%r14), %rsi
Ltmp26:
	.loc	4 200 40 is_stmt 1
	testq	%rsi, %rsi
	.loc	4 200 9 is_stmt 0
	je	LBB3_7
Ltmp27:
	.loc	5 102 5 is_stmt 1
	movl	$1, %edx
	callq	___rust_dealloc
Ltmp28:
LBB3_7:
	.loc	3 178 1
	movq	96(%r14), %rbx
	testq	%rbx, %rbx
	je	LBB3_18
Ltmp29:
	.file	6 "/rustc/a74d1862d4d87a56244958416fd05976c58ca1a8/src/liballoc/vec.rs"
	.loc	6 2384 81
	movq	112(%r14), %rax
Ltmp30:
	.loc	3 178 1
	testq	%rax, %rax
	je	LBB3_15
Ltmp31:
	leaq	(%rax,%rax,2), %rax
Ltmp32:
	leaq	(%rbx,%rax,8), %r15
Ltmp33:
	.loc	3 178 1 is_stmt 0
	movq	(%rbx), %rdi
Ltmp34:
	.loc	4 532 16 is_stmt 1
	testq	%rdi, %rdi
Ltmp35:
	.loc	4 200 9
	jne	LBB3_11
Ltmp36:
	.p2align	4, 0x90
LBB3_13:
	.loc	3 178 1
	addq	$24, %rbx
Ltmp37:
	cmpq	%r15, %rbx
	je	LBB3_14
Ltmp38:
LBB3_10:
	.loc	3 178 1 is_stmt 0
	movq	(%rbx), %rdi
Ltmp39:
	.loc	4 532 16 is_stmt 1
	testq	%rdi, %rdi
Ltmp40:
	.loc	4 200 9
	je	LBB3_13
Ltmp41:
LBB3_11:
	.loc	3 0 0 is_stmt 0
	movq	8(%rbx), %rsi
Ltmp42:
	.loc	4 200 9
	testq	%rsi, %rsi
	je	LBB3_13
Ltmp43:
	.loc	5 102 5 is_stmt 1
	movl	$1, %edx
	callq	___rust_dealloc
Ltmp44:
	.loc	3 178 1
	addq	$24, %rbx
Ltmp45:
	cmpq	%r15, %rbx
	jne	LBB3_10
Ltmp46:
LBB3_14:
	.loc	3 178 1 is_stmt 0
	movq	96(%r14), %rbx
Ltmp47:
LBB3_15:
	movq	104(%r14), %rax
Ltmp48:
	.loc	4 200 40 is_stmt 1
	testq	%rax, %rax
	.loc	4 200 9 is_stmt 0
	je	LBB3_18
Ltmp49:
	.loc	4 532 16 is_stmt 1
	testq	%rbx, %rbx
Ltmp50:
	je	LBB3_18
Ltmp51:
	.loc	4 0 0 is_stmt 0
	shlq	$3, %rax
	leaq	(%rax,%rax,2), %rsi
Ltmp52:
	.loc	4 532 16
	testq	%rsi, %rsi
	je	LBB3_18
Ltmp53:
	.loc	5 102 5 is_stmt 1
	movl	$8, %edx
	movq	%rbx, %rdi
	addq	$8, %rsp
	popq	%rbx
Ltmp54:
	popq	%r14
Ltmp55:
	popq	%r15
	popq	%rbp
	jmp	___rust_dealloc
Ltmp56:
LBB3_18:
	.loc	3 178 1
	addq	$8, %rsp
	popq	%rbx
	popq	%r14
Ltmp57:
	popq	%r15
	popq	%rbp
	retq
Ltmp58:
Lfunc_end3:
	.cfi_endproc

	.p2align	4, 0x90
__ZN4core3ptr13drop_in_place17ha7f7d434e1aaca13E:
Lfunc_begin4:
	.loc	3 178 0
	.cfi_startproc
	pushq	%rbp
	.cfi_def_cfa_offset 16
	.cfi_offset %rbp, -16
	movq	%rsp, %rbp
	.cfi_def_cfa_register %rbp
Ltmp59:
	.loc	3 178 1 prologue_end
	popq	%rbp
	retq
Ltmp60:
Lfunc_end4:
	.cfi_endproc

	.p2align	4, 0x90
__ZN18build_script_build4main17h5ef0172f4b0934c1E:
Lfunc_begin5:
	.file	7 "/Users/yingyuhang/.cargo/registry/src/github.com-1ecc6299db9ec823/crossbeam-epoch-0.8.2/build.rs"
	.loc	7 3 0
	.cfi_startproc
	.cfi_personality 155, _rust_eh_personality
	.cfi_lsda 16, Lexception0
	pushq	%rbp
	.cfi_def_cfa_offset 16
	.cfi_offset %rbp, -16
	movq	%rsp, %rbp
	.cfi_def_cfa_register %rbp
	pushq	%rbx
	subq	$184, %rsp
	.cfi_offset %rbx, -24
Ltmp66:
	leaq	-184(%rbp), %rbx
Ltmp67:
	.loc	7 4 15 prologue_end
	movq	%rbx, %rdi
	callq	__ZN7autocfg3new17h27aaef3f6341d34dE
Ltmp61:
Ltmp68:
	.loc	7 5 8
	movl	$1, %esi
	movl	$31, %edx
	movq	%rbx, %rdi
	callq	__ZN7autocfg7AutoCfg19probe_rustc_version17h9395d7565ddde6deE
Ltmp62:
Ltmp69:
	.loc	7 5 5 is_stmt 0
	testb	%al, %al
	je	LBB5_3
Ltmp70:
	.file	8 "/rustc/a74d1862d4d87a56244958416fd05976c58ca1a8/src/libcore/fmt/mod.rs"
	.loc	8 328 9 is_stmt 1
	leaq	l___unnamed_2(%rip), %rax
Ltmp71:
	movq	%rax, -56(%rbp)
	movq	$1, -48(%rbp)
	movq	$0, -40(%rbp)
	leaq	l___unnamed_3(%rip), %rax
Ltmp72:
	movq	%rax, -24(%rbp)
	movq	$0, -16(%rbp)
Ltmp63:
	leaq	-56(%rbp), %rdi
Ltmp73:
	.loc	7 6 9
	callq	__ZN3std2io5stdio6_print17hdea2154009b9e479E
Ltmp74:
Ltmp64:
LBB5_3:
	.loc	7 0 9 is_stmt 0
	leaq	-184(%rbp), %rdi
	.loc	7 8 1 is_stmt 1
	callq	__ZN4core3ptr13drop_in_place17h81254958fcb32e61E
	.loc	7 8 2 is_stmt 0
	addq	$184, %rsp
	popq	%rbx
	popq	%rbp
	retq
Ltmp75:
LBB5_4:
Ltmp65:
	.loc	7 0 2
	movq	%rax, %rbx
	leaq	-184(%rbp), %rdi
	.loc	7 8 1
	callq	__ZN4core3ptr13drop_in_place17h81254958fcb32e61E
	movq	%rbx, %rdi
	callq	__Unwind_Resume
	ud2
Ltmp76:
Lfunc_end5:
	.cfi_endproc
	.section	__TEXT,__gcc_except_tab
	.p2align	2
GCC_except_table5:
Lexception0:
	.byte	255
	.byte	255
	.byte	1
	.uleb128 Lcst_end0-Lcst_begin0
Lcst_begin0:
	.uleb128 Lfunc_begin5-Lfunc_begin5
	.uleb128 Ltmp61-Lfunc_begin5
	.byte	0
	.byte	0
	.uleb128 Ltmp61-Lfunc_begin5
	.uleb128 Ltmp64-Ltmp61
	.uleb128 Ltmp65-Lfunc_begin5
	.byte	0
	.uleb128 Ltmp64-Lfunc_begin5
	.uleb128 Lfunc_end5-Ltmp64
	.byte	0
	.byte	0
Lcst_end0:
	.p2align	2

	.section	__TEXT,__text,regular,pure_instructions
	.globl	_main
	.p2align	4, 0x90
_main:
Lfunc_begin6:
	.cfi_startproc
	pushq	%rbp
	.cfi_def_cfa_offset 16
	.cfi_offset %rbp, -16
	movq	%rsp, %rbp
	.cfi_def_cfa_register %rbp
	subq	$16, %rsp
	movq	%rsi, %rcx
	movslq	%edi, %rdx
	leaq	__ZN18build_script_build4main17h5ef0172f4b0934c1E(%rip), %rax
	movq	%rax, -8(%rbp)
	leaq	l___unnamed_1(%rip), %rsi
	leaq	-8(%rbp), %rdi
	callq	__ZN3std2rt19lang_start_internal17hebefdaa8fd585aefE
	addq	$16, %rsp
	popq	%rbp
	retq
Lfunc_end6:
	.cfi_endproc

	.section	__DATA,__const
	.p2align	3
l___unnamed_1:
	.quad	__ZN4core3ptr13drop_in_place17ha7f7d434e1aaca13E
	.quad	8
	.quad	8
	.quad	__ZN3std2rt10lang_start28_$u7b$$u7b$closure$u7d$$u7d$17h59a703df921e4777E
	.quad	__ZN3std2rt10lang_start28_$u7b$$u7b$closure$u7d$$u7d$17h59a703df921e4777E
	.quad	__ZN4core3ops8function6FnOnce40call_once$u7b$$u7b$vtable.shim$u7d$$u7d$17hfda9091fc747322eE

	.section	__TEXT,__const
l___unnamed_4:
	.ascii	"cargo:rustc-cfg=has_min_const_fn\n"

	.section	__DATA,__const
	.p2align	3
l___unnamed_2:
	.quad	l___unnamed_4
	.asciz	"!\000\000\000\000\000\000"

	.section	__TEXT,__const
	.p2align	3
l___unnamed_3:
	.byte	0

	.section	__DATA,__const
Lsec_end0:
	.section	__TEXT,__text,regular,pure_instructions
Lsec_end1: