	.section	__TEXT,__text,regular,pure_instructions
	.macosx_version_min 10, 7
	.p2align	4, 0x90
__ZN101_$LT$core..ops..range..RangeTo$LT$usize$GT$$u20$as$u20$core..slice..SliceIndex$LT$$u5b$T$u5d$$GT$$GT$9index_mut17h1103bb2d99d64029E:
Lfunc_begin0:
	.file	1 "/rustc/6c8927b0cf80ceee19386026cf9d7fd4fd9d486f/src/libcore/slice/mod.rs"
	.loc	1 3218 0
	.cfi_startproc
	pushq	%rbp
	.cfi_def_cfa_offset 16
	.cfi_offset %rbp, -16
	movq	%rsp, %rbp
	.cfi_def_cfa_register %rbp
	subq	$80, %rsp
	movq	%rdi, -24(%rbp)
	movq	%rsi, -16(%rbp)
	movq	%rdx, -8(%rbp)
Ltmp0:
	.loc	1 3219 9 prologue_end
	movq	$0, -40(%rbp)
	movq	%rdi, -32(%rbp)
	movq	-40(%rbp), %rdi
	movq	-32(%rbp), %rax
	movq	%rsi, -48(%rbp)
	movq	%rax, %rsi
	movq	-48(%rbp), %rax
	movq	%rdx, -56(%rbp)
	movq	%rax, %rdx
	movq	-56(%rbp), %r8
	movq	%rcx, -64(%rbp)
	movq	%r8, %rcx
	movq	-64(%rbp), %r8
	callq	__ZN99_$LT$core..ops..range..Range$LT$usize$GT$$u20$as$u20$core..slice..SliceIndex$LT$$u5b$T$u5d$$GT$$GT$9index_mut17h247ed3915edb83efE
	movq	%rax, -72(%rbp)
	movq	%rdx, -80(%rbp)
	.loc	1 0 9 is_stmt 0
	movq	-72(%rbp), %rax
	movq	-80(%rbp), %rdx
	.loc	1 3220 6 is_stmt 1
	addq	$80, %rsp
	popq	%rbp
	retq
Ltmp1:
Lfunc_end0:
	.cfi_endproc

	.p2align	4, 0x90
__ZN105_$LT$std..ffi..os_str..OsString$u20$as$u20$core..ops..index..Index$LT$core..ops..range..RangeFull$GT$$GT$5index17h00df0e2afcdd01f5E:
Lfunc_begin1:
	.file	2 "/rustc/6c8927b0cf80ceee19386026cf9d7fd4fd9d486f/src/libstd/ffi/os_str.rs"
	.loc	2 378 0
	.cfi_startproc
	pushq	%rbp
	.cfi_def_cfa_offset 16
	.cfi_offset %rbp, -16
	movq	%rsp, %rbp
	.cfi_def_cfa_register %rbp
	subq	$64, %rsp
	movq	%rdi, -16(%rbp)
	movq	%rsi, -24(%rbp)
Ltmp2:
	.loc	2 379 27 prologue_end
	callq	__ZN3std10sys_common12os_str_bytes3Buf8as_slice17ha55251160c1180f3E
	movq	%rax, -32(%rbp)
	movq	%rdx, -40(%rbp)
	.loc	2 0 27 is_stmt 0
	movq	-32(%rbp), %rdi
	movq	-40(%rbp), %rsi
	.loc	2 379 9
	callq	__ZN3std3ffi6os_str5OsStr10from_inner17h7a56e3f0e4cbbe34E
	movq	%rax, -48(%rbp)
	movq	%rdx, -56(%rbp)
	.loc	2 0 9
	movq	-48(%rbp), %rax
	movq	-56(%rbp), %rdx
	.loc	2 380 6 is_stmt 1
	addq	$64, %rsp
	popq	%rbp
	retq
Ltmp3:
Lfunc_end1:
	.cfi_endproc

	.p2align	4, 0x90
__ZN112_$LT$alloc..collections..btree..map..IntoIter$LT$K$C$V$GT$$u20$as$u20$core..iter..traits..iterator..Iterator$GT$4next17h596c4e8f94039165E:
Lfunc_begin2:
	.file	3 "/rustc/6c8927b0cf80ceee19386026cf9d7fd4fd9d486f/src/liballoc/collections/btree/map.rs"
	.loc	3 1486 0
	.cfi_startproc
	pushq	%rbp
	.cfi_def_cfa_offset 16
	.cfi_offset %rbp, -16
	movq	%rsp, %rbp
	.cfi_def_cfa_register %rbp
	subq	$96, %rsp
	movq	%rdi, %rax
	movq	%rsi, -8(%rbp)
Ltmp4:
	.loc	3 1487 12 prologue_end
	cmpq	$0, 64(%rsi)
	movq	%rsi, -64(%rbp)
	movq	%rdi, -72(%rbp)
	movq	%rax, -80(%rbp)
	.loc	3 1487 9 is_stmt 0
	je	LBB2_2
	.loc	3 0 9
	movq	-64(%rbp), %rax
	.loc	3 1490 13 is_stmt 1
	movq	64(%rax), %rcx
	subq	$1, %rcx
	movq	%rcx, 64(%rax)
	.loc	3 1491 27
	movq	%rax, %rdi
	callq	__ZN4core6option15Option$LT$T$GT$6as_mut17ha1f2d54808f59cd5E
	movq	%rax, -88(%rbp)
	jmp	LBB2_3
LBB2_2:
	.loc	3 0 27 is_stmt 0
	movq	-72(%rbp), %rax
	.loc	3 1488 13 is_stmt 1
	movq	$0, (%rax)
	.loc	3 1487 9
	jmp	LBB2_6
LBB2_3:
	.loc	3 0 9 is_stmt 0
	leaq	l___unnamed_2(%rip), %rax
	movq	-88(%rbp), %rdi
	.loc	3 1491 27 is_stmt 1
	movq	%rax, %rsi
	callq	__ZN4core6option15Option$LT$T$GT$6unwrap17h594dab4bf743279fE
	movq	%rax, -96(%rbp)
	leaq	-56(%rbp), %rdi
	movq	-96(%rbp), %rsi
	callq	__ZN5alloc11collections5btree8navigate263_$LT$impl$u20$alloc..collections..btree..node..Handle$LT$alloc..collections..btree..node..NodeRef$LT$alloc..collections..btree..node..marker..Owned$C$K$C$V$C$alloc..collections..btree..node..marker..Leaf$GT$$C$alloc..collections..btree..node..marker..Edge$GT$$GT$14next_unchecked17heb2edd1120b4d69cE
	.loc	3 0 27 is_stmt 0
	movq	-72(%rbp), %rax
	.loc	3 1491 13
	leaq	-56(%rbp), %rcx
	movq	%rax, %rdi
	movq	%rcx, %rsi
	movl	$48, %edx
	callq	_memcpy
LBB2_6:
	.loc	3 0 13
	movq	-80(%rbp), %rax
	.loc	3 1493 6 is_stmt 1
	addq	$96, %rsp
	popq	%rbp
	retq
Ltmp5:
Lfunc_end2:
	.cfi_endproc

	.p2align	4, 0x90
__ZN115_$LT$alloc..collections..btree..map..BTreeMap$LT$K$C$V$GT$$u20$as$u20$core..iter..traits..collect..IntoIterator$GT$9into_iter17ha0c98213ab812e0aE:
Lfunc_begin3:
	.loc	3 1430 0
	.cfi_startproc
	pushq	%rbp
	.cfi_def_cfa_offset 16
	.cfi_offset %rbp, -16
	movq	%rsp, %rbp
	.cfi_def_cfa_register %rbp
	subq	$496, %rsp
	movq	%rdi, %rax
Ltmp6:
	.loc	3 1431 40 prologue_end
	movq	(%rsi), %rcx
	movq	%rcx, -440(%rbp)
	movq	8(%rsi), %rcx
	movq	%rcx, -432(%rbp)
	movq	16(%rsi), %rcx
	movq	%rcx, -424(%rbp)
Ltmp7:
	.file	4 "/rustc/6c8927b0cf80ceee19386026cf9d7fd4fd9d486f/src/libcore/mem/manually_drop.rs"
	.loc	4 83 24
	movq	-440(%rbp), %rcx
	movq	%rcx, -40(%rbp)
	movq	-432(%rbp), %rcx
	movq	%rcx, -32(%rbp)
	movq	-424(%rbp), %rcx
	movq	%rcx, -24(%rbp)
	.loc	4 83 9 is_stmt 0
	movq	-40(%rbp), %rcx
	movq	%rcx, -464(%rbp)
	movq	-32(%rbp), %rcx
	movq	%rcx, -456(%rbp)
	movq	-24(%rbp), %rcx
	movq	%rcx, -448(%rbp)
	movq	%rdi, -472(%rbp)
	movq	%rax, -480(%rbp)
Ltmp8:
	.loc	4 0 9
	leaq	-464(%rbp), %rax
	movq	%rax, -8(%rbp)
	movq	%rax, -488(%rbp)
Ltmp9:
	movq	-488(%rbp), %rdi
Ltmp10:
	.loc	3 1432 29 is_stmt 1
	callq	__ZN4core6option15Option$LT$T$GT$4take17h9d6825b913f87b3eE
Ltmp11:
	movq	%rdx, -408(%rbp)
	movq	%rax, -416(%rbp)
	.loc	3 0 29 is_stmt 0
	xorl	%eax, %eax
	movl	%eax, %ecx
	.loc	3 1432 16
	cmpq	$0, -416(%rbp)
	movl	$1, %edx
	cmovbeq	%rcx, %rdx
	cmpq	$1, %rdx
	je	LBB3_5
	.loc	3 1437 31 is_stmt 1
	movq	$0, -112(%rbp)
	.loc	3 1437 43 is_stmt 0
	movq	$0, -80(%rbp)
	.loc	3 1437 13
	movq	-120(%rbp), %rax
	movq	-472(%rbp), %rcx
	movq	%rax, (%rcx)
	movq	-112(%rbp), %rax
	movq	%rax, 8(%rcx)
	movq	-104(%rbp), %rax
	movq	%rax, 16(%rcx)
	movq	-96(%rbp), %rax
	movq	%rax, 24(%rcx)
	movq	-88(%rbp), %rax
	movq	%rax, 32(%rcx)
	movq	-80(%rbp), %rax
	movq	%rax, 40(%rcx)
	movq	-72(%rbp), %rax
	movq	%rax, 48(%rcx)
	movq	-64(%rbp), %rax
	movq	%rax, 56(%rcx)
	movq	$0, 64(%rcx)
	.loc	3 1432 9 is_stmt 1
	jmp	LBB3_9
LBB3_5:
	.loc	3 1432 21 is_stmt 0
	movq	-416(%rbp), %rax
	movq	-408(%rbp), %rcx
	movq	%rax, -56(%rbp)
	movq	%rcx, -48(%rbp)
Ltmp12:
	.loc	3 1433 44 is_stmt 1
	leaq	-272(%rbp), %rdi
	movq	%rax, %rsi
	movq	%rcx, %rdx
	callq	__ZN5alloc11collections5btree4node17Root$LT$K$C$V$GT$8into_ref17h5d9b81d3bf9e1962E
	.loc	3 1433 26 is_stmt 0
	leaq	-336(%rbp), %rdi
	leaq	-272(%rbp), %rsi
	callq	__ZN5alloc11collections5btree3map17full_range_search17h900ff6763467d543E
	.loc	3 1433 18
	movq	-336(%rbp), %rax
	movq	%rax, -400(%rbp)
	movq	-328(%rbp), %rax
	movq	%rax, -392(%rbp)
	movq	-320(%rbp), %rax
	movq	%rax, -384(%rbp)
	movq	-312(%rbp), %rax
	movq	%rax, -376(%rbp)
	.loc	3 1433 21
	movq	-304(%rbp), %rax
	movq	%rax, -368(%rbp)
	movq	-296(%rbp), %rax
	movq	%rax, -360(%rbp)
	movq	-288(%rbp), %rax
	movq	%rax, -352(%rbp)
	movq	-280(%rbp), %rax
	movq	%rax, -344(%rbp)
Ltmp13:
	.loc	3 1435 36 is_stmt 1
	movq	-400(%rbp), %rax
	movq	%rax, -216(%rbp)
	movq	-392(%rbp), %rax
	movq	%rax, -208(%rbp)
	movq	-384(%rbp), %rax
	movq	%rax, -200(%rbp)
	movq	-376(%rbp), %rax
	movq	%rax, -192(%rbp)
	.loc	3 1435 31 is_stmt 0
	movq	-216(%rbp), %rax
	movq	%rax, -248(%rbp)
	movq	-208(%rbp), %rax
	movq	%rax, -240(%rbp)
	movq	-200(%rbp), %rax
	movq	%rax, -232(%rbp)
	movq	-192(%rbp), %rax
	movq	%rax, -224(%rbp)
	.loc	3 1435 51
	movq	-368(%rbp), %rax
	movq	%rax, -152(%rbp)
	movq	-360(%rbp), %rax
	movq	%rax, -144(%rbp)
	movq	-352(%rbp), %rax
	movq	%rax, -136(%rbp)
	movq	-344(%rbp), %rax
	movq	%rax, -128(%rbp)
	.loc	3 1435 46
	movq	-152(%rbp), %rax
	movq	%rax, -184(%rbp)
	movq	-144(%rbp), %rax
	movq	%rax, -176(%rbp)
	movq	-136(%rbp), %rax
	movq	%rax, -168(%rbp)
	movq	-128(%rbp), %rax
	movq	%rax, -160(%rbp)
	leaq	-464(%rbp), %rax
	movq	%rax, -16(%rbp)
	movq	%rax, -496(%rbp)
	.loc	3 0 46
	movq	-496(%rbp), %rax
	.loc	3 1435 63
	movq	16(%rax), %rcx
	.loc	3 1435 13
	movq	-248(%rbp), %rdx
	movq	-472(%rbp), %rsi
	movq	%rdx, (%rsi)
	movq	-240(%rbp), %rdx
	movq	%rdx, 8(%rsi)
	movq	-232(%rbp), %rdx
	movq	%rdx, 16(%rsi)
	movq	-224(%rbp), %rdx
	movq	%rdx, 24(%rsi)
	movq	-184(%rbp), %rdx
	movq	%rdx, 32(%rsi)
	movq	-176(%rbp), %rdx
	movq	%rdx, 40(%rsi)
	movq	-168(%rbp), %rdx
	movq	%rdx, 48(%rsi)
	movq	-160(%rbp), %rdx
	movq	%rdx, 56(%rsi)
	movq	%rcx, 64(%rsi)
Ltmp14:
LBB3_9:
	.loc	3 0 13
	movq	-480(%rbp), %rax
	.loc	3 1439 6 is_stmt 1
	addq	$496, %rsp
	popq	%rbp
	retq
Ltmp15:
Lfunc_end3:
	.cfi_endproc

	.p2align	4, 0x90
__ZN119_$LT$core..ptr..non_null..NonNull$LT$T$GT$$u20$as$u20$core..convert..From$LT$core..ptr..unique..Unique$LT$T$GT$$GT$$GT$4from17h1ae7e213d340fbe9E:
Lfunc_begin4:
	.file	5 "/rustc/6c8927b0cf80ceee19386026cf9d7fd4fd9d486f/src/libcore/ptr/non_null.rs"
	.loc	5 329 0
	.cfi_startproc
	pushq	%rbp
	.cfi_def_cfa_offset 16
	.cfi_offset %rbp, -16
	movq	%rsp, %rbp
	.cfi_def_cfa_register %rbp
	subq	$32, %rsp
	movq	%rdi, -8(%rbp)
Ltmp16:
	.loc	5 332 41 prologue_end
	callq	__ZN4core3ptr6unique15Unique$LT$T$GT$6as_ptr17h120807842212e45aE
	movq	%rax, -16(%rbp)
	.loc	5 0 41 is_stmt 0
	movq	-16(%rbp), %rdi
	.loc	5 332 18
	callq	__ZN4core3ptr8non_null16NonNull$LT$T$GT$13new_unchecked17h772ffa0775985e4bE
	movq	%rax, -24(%rbp)
	.loc	5 0 18
	movq	-24(%rbp), %rax
	.loc	5 333 6 is_stmt 1
	addq	$32, %rsp
	popq	%rbp
	retq
Ltmp17:
Lfunc_end4:
	.cfi_endproc

	.p2align	4, 0x90
__ZN119_$LT$core..ptr..non_null..NonNull$LT$T$GT$$u20$as$u20$core..convert..From$LT$core..ptr..unique..Unique$LT$T$GT$$GT$$GT$4from17hba176f55a5363e94E:
Lfunc_begin5:
	.loc	5 329 0
	.cfi_startproc
	pushq	%rbp
	.cfi_def_cfa_offset 16
	.cfi_offset %rbp, -16
	movq	%rsp, %rbp
	.cfi_def_cfa_register %rbp
	subq	$32, %rsp
	movq	%rdi, -8(%rbp)
Ltmp18:
	.loc	5 332 41 prologue_end
	callq	__ZN4core3ptr6unique15Unique$LT$T$GT$6as_ptr17h116d6720cc952b9bE
	movq	%rax, -16(%rbp)
	.loc	5 0 41 is_stmt 0
	movq	-16(%rbp), %rdi
	.loc	5 332 18
	callq	__ZN4core3ptr8non_null16NonNull$LT$T$GT$13new_unchecked17hc837c1cd30d21ee3E
	movq	%rax, -24(%rbp)
	.loc	5 0 18
	movq	-24(%rbp), %rax
	.loc	5 333 6 is_stmt 1
	addq	$32, %rsp
	popq	%rbp
	retq
Ltmp19:
Lfunc_end5:
	.cfi_endproc

	.p2align	4, 0x90
__ZN166_$LT$$LT$alloc..collections..btree..map..IntoIter$LT$K$C$V$GT$$u20$as$u20$core..ops..drop..Drop$GT$..drop..DropGuard$LT$K$C$V$GT$$u20$as$u20$core..ops..drop..Drop$GT$4drop17h8c83753076fed2d8E:
Lfunc_begin6:
	.loc	3 1448 0
	.cfi_startproc
	pushq	%rbp
	.cfi_def_cfa_offset 16
	.cfi_offset %rbp, -16
	movq	%rsp, %rbp
	.cfi_def_cfa_register %rbp
	subq	$384, %rsp
	movq	%rdi, -40(%rbp)
	movq	%rdi, -376(%rbp)
LBB6_1:
	movq	-376(%rbp), %rax
Ltmp20:
	.loc	3 1451 37 prologue_end
	movq	(%rax), %rsi
	leaq	-368(%rbp), %rdi
	callq	__ZN112_$LT$alloc..collections..btree..map..IntoIter$LT$K$C$V$GT$$u20$as$u20$core..iter..traits..iterator..Iterator$GT$4next17h596c4e8f94039165E
	.loc	3 0 37 is_stmt 0
	xorl	%eax, %eax
	movl	%eax, %ecx
	.loc	3 1451 27
	cmpq	$0, -368(%rbp)
	movl	$1, %edx
	cmovbeq	%rcx, %rdx
	cmpq	$1, %rdx
	je	LBB6_4
	.loc	3 1451 52
	leaq	-368(%rbp), %rdi
	callq	__ZN4core3ptr13drop_in_place17h6c319fd0c394efcdE
	jmp	LBB6_5
LBB6_4:
	leaq	-368(%rbp), %rdi
	callq	__ZN4core3ptr13drop_in_place17h6c319fd0c394efcdE
	jmp	LBB6_6
LBB6_5:
	.loc	3 0 52
	movq	-376(%rbp), %rax
	.loc	3 1455 52 is_stmt 1
	movq	(%rax), %rcx
	.loc	3 1455 42 is_stmt 0
	leaq	-240(%rbp), %rdi
	movq	%rcx, %rsi
	callq	__ZN4core3ptr4read17h3364ca48b0c36da4E
	jmp	LBB6_7
LBB6_6:
	.loc	3 1451 17 is_stmt 1
	jmp	LBB6_1
LBB6_7:
Ltmp21:
	.file	6 "/rustc/6c8927b0cf80ceee19386026cf9d7fd4fd9d486f/src/liballoc/collections/btree/mod.rs"
	.loc	6 18 5
	movq	-240(%rbp), %rax
	movq	%rax, -32(%rbp)
	movq	-232(%rbp), %rax
	movq	%rax, -24(%rbp)
	movq	-224(%rbp), %rax
	movq	%rax, -16(%rbp)
	movq	-216(%rbp), %rax
	movq	%rax, -8(%rbp)
	leaq	-272(%rbp), %rdi
	leaq	-32(%rbp), %rsi
	callq	__ZN4core6option15Option$LT$T$GT$14unwrap_or_else17h44bcbbb53ae572abE
Ltmp22:
	.loc	3 1455 25
	leaq	-296(%rbp), %rdi
	leaq	-272(%rbp), %rsi
	callq	__ZN5alloc11collections5btree4node25Handle$LT$Node$C$Type$GT$9into_node17heaefbd7452ca1a96E
	leaq	-320(%rbp), %rdi
	leaq	-296(%rbp), %rsi
	callq	__ZN5alloc11collections5btree4node40NodeRef$LT$BorrowType$C$K$C$V$C$Type$GT$11forget_type17h6ddf9fe2ea76da19E
Ltmp23:
	.loc	3 1456 21
	jmp	LBB6_11
LBB6_11:
	.loc	3 1456 46 is_stmt 0
	movq	-320(%rbp), %rax
	movq	%rax, -176(%rbp)
	movq	-312(%rbp), %rax
	movq	%rax, -168(%rbp)
	movq	-304(%rbp), %rax
	movq	%rax, -160(%rbp)
	leaq	-208(%rbp), %rdi
	leaq	-176(%rbp), %rsi
	callq	__ZN5alloc11collections5btree4node127NodeRef$LT$alloc..collections..btree..node..marker..Owned$C$K$C$V$C$alloc..collections..btree..node..marker..LeafOrInternal$GT$21deallocate_and_ascend17hac5a0a5e0c083b16E
	.loc	3 0 46
	xorl	%eax, %eax
	movl	%eax, %ecx
	.loc	3 1456 31
	cmpq	$0, -200(%rbp)
	movl	$1, %edx
	cmovbeq	%rcx, %rdx
	cmpq	$1, %rdx
	je	LBB6_14
Ltmp24:
	.loc	3 1460 14 is_stmt 1
	addq	$384, %rsp
	popq	%rbp
	retq
LBB6_14:
Ltmp25:
	.loc	3 1456 36
	movq	-208(%rbp), %rax
	movq	%rax, -152(%rbp)
	movq	-200(%rbp), %rax
	movq	%rax, -144(%rbp)
	movq	-192(%rbp), %rax
	movq	%rax, -136(%rbp)
	movq	-184(%rbp), %rax
	movq	%rax, -128(%rbp)
Ltmp26:
	.loc	3 1457 32
	movq	-152(%rbp), %rax
	movq	%rax, -72(%rbp)
	movq	-144(%rbp), %rax
	movq	%rax, -64(%rbp)
	movq	-136(%rbp), %rax
	movq	%rax, -56(%rbp)
	movq	-128(%rbp), %rax
	movq	%rax, -48(%rbp)
	leaq	-96(%rbp), %rdi
	leaq	-72(%rbp), %rsi
	callq	__ZN5alloc11collections5btree4node25Handle$LT$Node$C$Type$GT$9into_node17h742e885d92fa629aE
	leaq	-120(%rbp), %rdi
	leaq	-96(%rbp), %rsi
	callq	__ZN5alloc11collections5btree4node40NodeRef$LT$BorrowType$C$K$C$V$C$Type$GT$11forget_type17h4f511d2ec20c469aE
	.loc	3 1457 25 is_stmt 0
	movq	-120(%rbp), %rax
	movq	%rax, -320(%rbp)
	movq	-112(%rbp), %rax
	movq	%rax, -312(%rbp)
	movq	-104(%rbp), %rax
	movq	%rax, -304(%rbp)
Ltmp27:
	.loc	3 1456 21 is_stmt 1
	jmp	LBB6_11
Ltmp28:
Lfunc_end6:
	.cfi_endproc

	.p2align	4, 0x90
__ZN3std10sys_common12os_str_bytes3Buf8as_slice17ha55251160c1180f3E:
Lfunc_begin7:
	.file	7 "/rustc/6c8927b0cf80ceee19386026cf9d7fd4fd9d486f/src/libstd/sys_common/os_str_bytes.rs"
	.loc	7 108 0
	.cfi_startproc
	pushq	%rbp
	.cfi_def_cfa_offset 16
	.cfi_offset %rbp, -16
	movq	%rsp, %rbp
	.cfi_def_cfa_register %rbp
	subq	$64, %rsp
	movq	%rdi, -24(%rbp)
Ltmp29:
	.loc	7 112 34 prologue_end
	callq	__ZN68_$LT$alloc..vec..Vec$LT$T$GT$$u20$as$u20$core..ops..deref..Deref$GT$5deref17hb9e04ceb3173898aE
	movq	%rax, -32(%rbp)
	movq	%rdx, -40(%rbp)
	.loc	7 0 34 is_stmt 0
	movq	-32(%rbp), %rax
	.loc	7 112 18
	movq	%rax, -16(%rbp)
	movq	-40(%rbp), %rcx
	movq	%rcx, -8(%rbp)
	movq	-16(%rbp), %rax
	movq	-8(%rbp), %rdx
	movq	%rax, -48(%rbp)
	movq	%rdx, -56(%rbp)
	.loc	7 0 18
	movq	-48(%rbp), %rax
	movq	-56(%rbp), %rdx
	.loc	7 113 6 is_stmt 1
	addq	$64, %rsp
	popq	%rbp
	retq
Ltmp30:
Lfunc_end7:
	.cfi_endproc

	.p2align	4, 0x90
__ZN3std10sys_common12os_str_bytes5Slice13from_u8_slice17hbc3751551577d788E:
Lfunc_begin8:
	.loc	7 155 0
	.cfi_startproc
	pushq	%rbp
	.cfi_def_cfa_offset 16
	.cfi_offset %rbp, -16
	movq	%rsp, %rbp
	.cfi_def_cfa_register %rbp
	subq	$48, %rsp
	movq	%rdi, -32(%rbp)
	movq	%rsi, -24(%rbp)
Ltmp31:
	.loc	7 156 18 prologue_end
	movq	%rdi, -16(%rbp)
	movq	%rsi, -8(%rbp)
	movq	-16(%rbp), %rax
	movq	-8(%rbp), %rdx
	movq	%rax, -40(%rbp)
	movq	%rdx, -48(%rbp)
	.loc	7 0 18 is_stmt 0
	movq	-40(%rbp), %rax
	movq	-48(%rbp), %rdx
	.loc	7 157 6 is_stmt 1
	addq	$48, %rsp
	popq	%rbp
	retq
Ltmp32:
Lfunc_end8:
	.cfi_endproc

	.p2align	4, 0x90
__ZN3std10sys_common12os_str_bytes5Slice8from_str17h833e71b2027efa98E:
Lfunc_begin9:
	.loc	7 160 0
	.cfi_startproc
	pushq	%rbp
	.cfi_def_cfa_offset 16
	.cfi_offset %rbp, -16
	movq	%rsp, %rbp
	.cfi_def_cfa_register %rbp
	subq	$80, %rsp
	movq	%rdi, -48(%rbp)
	movq	%rsi, -40(%rbp)
	movq	%rdi, -16(%rbp)
	movq	%rsi, -8(%rbp)
Ltmp33:
	.file	8 "/rustc/6c8927b0cf80ceee19386026cf9d7fd4fd9d486f/src/libcore/str/mod.rs"
	.loc	8 2359 18 prologue_end
	movq	%rdi, -32(%rbp)
	movq	%rsi, -24(%rbp)
	movq	-32(%rbp), %rdi
	movq	-24(%rbp), %rsi
	movq	%rdi, -56(%rbp)
	movq	%rsi, -64(%rbp)
Ltmp34:
	.loc	8 0 18 is_stmt 0
	movq	-56(%rbp), %rdi
	movq	-64(%rbp), %rsi
	.loc	7 161 9 is_stmt 1
	callq	__ZN3std10sys_common12os_str_bytes5Slice13from_u8_slice17hbc3751551577d788E
	movq	%rax, -72(%rbp)
	movq	%rdx, -80(%rbp)
	.loc	7 0 9 is_stmt 0
	movq	-72(%rbp), %rax
	movq	-80(%rbp), %rdx
	.loc	7 162 6 is_stmt 1
	addq	$80, %rsp
	popq	%rbp
	retq
Ltmp35:
Lfunc_end9:
	.cfi_endproc

	.private_extern	__ZN3std2rt10lang_start17h9ca51aa9bd0e287aE
	.globl	__ZN3std2rt10lang_start17h9ca51aa9bd0e287aE
	.p2align	4, 0x90
__ZN3std2rt10lang_start17h9ca51aa9bd0e287aE:
Lfunc_begin10:
	.file	9 "/rustc/6c8927b0cf80ceee19386026cf9d7fd4fd9d486f/src/libstd/rt.rs"
	.loc	9 62 0
	.cfi_startproc
	pushq	%rbp
	.cfi_def_cfa_offset 16
	.cfi_offset %rbp, -16
	movq	%rsp, %rbp
	.cfi_def_cfa_register %rbp
	subq	$64, %rsp
	leaq	l___unnamed_1(%rip), %rax
	movq	%rdi, -24(%rbp)
	movq	%rsi, -16(%rbp)
	movq	%rdx, -8(%rbp)
Ltmp36:
	.loc	9 67 26 prologue_end
	movq	%rdi, -32(%rbp)
	.loc	9 67 25 is_stmt 0
	leaq	-32(%rbp), %rcx
	.loc	9 67 5
	movq	%rcx, %rdi
	movq	%rsi, -40(%rbp)
	movq	%rax, %rsi
	movq	-40(%rbp), %rax
	movq	%rdx, -48(%rbp)
	movq	%rax, %rdx
	movq	-48(%rbp), %rcx
	callq	__ZN3std2rt19lang_start_internal17hbbd10965adc92ae7E
	movq	%rax, -56(%rbp)
	.loc	9 0 5
	movq	-56(%rbp), %rax
	.loc	9 68 2 is_stmt 1
	addq	$64, %rsp
	popq	%rbp
	retq
Ltmp37:
Lfunc_end10:
	.cfi_endproc

	.p2align	4, 0x90
__ZN3std2rt10lang_start28_$u7b$$u7b$closure$u7d$$u7d$17h2d48b2320dd158a5E:
Lfunc_begin11:
	.loc	9 67 0
	.cfi_startproc
	pushq	%rbp
	.cfi_def_cfa_offset 16
	.cfi_offset %rbp, -16
	movq	%rsp, %rbp
	.cfi_def_cfa_register %rbp
	subq	$16, %rsp
	movq	%rdi, -8(%rbp)
Ltmp38:
	.loc	9 67 34 prologue_end
	callq	*(%rdi)
	callq	__ZN54_$LT$$LP$$RP$$u20$as$u20$std..process..Termination$GT$6report17h148331efc280b1cdE
	movl	%eax, -12(%rbp)
	.loc	9 0 34 is_stmt 0
	movl	-12(%rbp), %eax
	.loc	9 67 49
	addq	$16, %rsp
	popq	%rbp
	retq
Ltmp39:
Lfunc_end11:
	.cfi_endproc

	.p2align	4, 0x90
__ZN3std3env6var_os17he6cfe0c8d76e39d1E:
Lfunc_begin12:
	.file	10 "/rustc/6c8927b0cf80ceee19386026cf9d7fd4fd9d486f/src/libstd/env.rs"
	.loc	10 245 0 is_stmt 1
	.cfi_startproc
	.cfi_personality 155, _rust_eh_personality
	.cfi_lsda 16, Lexception0
	pushq	%rbp
	.cfi_def_cfa_offset 16
	.cfi_offset %rbp, -16
	movq	%rsp, %rbp
	.cfi_def_cfa_register %rbp
	subq	$64, %rsp
	movq	%rdi, %rax
	movq	%rsi, -32(%rbp)
	movq	%rdx, -24(%rbp)
Ltmp40:
	leaq	-32(%rbp), %rcx
	movq	%rdi, -40(%rbp)
Ltmp45:
	.loc	10 246 13 prologue_end
	movq	%rcx, %rdi
	movq	%rax, -48(%rbp)
	callq	__ZN55_$LT$$RF$T$u20$as$u20$core..convert..AsRef$LT$U$GT$$GT$6as_ref17h158c18387bf3db69E
Ltmp41:
	movq	%rdx, -56(%rbp)
	movq	%rax, -64(%rbp)
	jmp	LBB12_2
LBB12_1:
	.loc	10 245 1
	movq	-16(%rbp), %rdi
	callq	__Unwind_Resume
	ud2
LBB12_2:
Ltmp42:
	.loc	10 0 1 is_stmt 0
	movq	-40(%rbp), %rdi
	movq	-64(%rbp), %rsi
	movq	-56(%rbp), %rdx
	.loc	10 246 5 is_stmt 1
	callq	__ZN3std3env7_var_os17hc628b18a701aa4a3E
Ltmp43:
	jmp	LBB12_4
LBB12_3:
	.loc	10 247 1
	jmp	LBB12_1
LBB12_4:
	jmp	LBB12_5
LBB12_5:
	.loc	10 0 1 is_stmt 0
	movq	-48(%rbp), %rax
	.loc	10 247 2
	addq	$64, %rsp
	popq	%rbp
	retq
Ltmp46:
LBB12_6:
Ltmp44:
	.loc	10 0 2
	movq	%rax, -16(%rbp)
	movl	%edx, -8(%rbp)
	jmp	LBB12_3
Lfunc_end12:
	.cfi_endproc
	.section	__TEXT,__gcc_except_tab
	.p2align	2
GCC_except_table12:
Lexception0:
	.byte	255
	.byte	255
	.byte	1
	.uleb128 Lcst_end0-Lcst_begin0
Lcst_begin0:
	.uleb128 Ltmp40-Lfunc_begin12
	.uleb128 Ltmp41-Ltmp40
	.uleb128 Ltmp44-Lfunc_begin12
	.byte	0
	.uleb128 Ltmp41-Lfunc_begin12
	.uleb128 Ltmp42-Ltmp41
	.byte	0
	.byte	0
	.uleb128 Ltmp42-Lfunc_begin12
	.uleb128 Ltmp43-Ltmp42
	.uleb128 Ltmp44-Lfunc_begin12
	.byte	0
Lcst_end0:
	.p2align	2

	.section	__TEXT,__text,regular,pure_instructions
	.p2align	4, 0x90
__ZN3std3ffi6os_str5OsStr10from_inner17h7a56e3f0e4cbbe34E:
Lfunc_begin13:
	.loc	2 528 0 is_stmt 1
	.cfi_startproc
	pushq	%rbp
	.cfi_def_cfa_offset 16
	.cfi_offset %rbp, -16
	movq	%rsp, %rbp
	.cfi_def_cfa_register %rbp
	subq	$16, %rsp
	movq	%rdi, -16(%rbp)
	movq	%rsi, -8(%rbp)
Ltmp47:
	.loc	2 532 6 prologue_end
	movq	%rdi, %rax
	movq	%rsi, %rdx
	addq	$16, %rsp
	popq	%rbp
	retq
Ltmp48:
Lfunc_end13:
	.cfi_endproc

	.p2align	4, 0x90
__ZN3std3ffi6os_str85_$LT$impl$u20$core..convert..AsRef$LT$std..ffi..os_str..OsStr$GT$$u20$for$u20$str$GT$6as_ref17h90970dced2c93a9fE:
Lfunc_begin14:
	.loc	2 1157 0
	.cfi_startproc
	pushq	%rbp
	.cfi_def_cfa_offset 16
	.cfi_offset %rbp, -16
	movq	%rsp, %rbp
	.cfi_def_cfa_register %rbp
	subq	$48, %rsp
	movq	%rdi, -16(%rbp)
	movq	%rsi, -8(%rbp)
Ltmp49:
	.loc	2 1158 27 prologue_end
	callq	__ZN3std10sys_common12os_str_bytes5Slice8from_str17h833e71b2027efa98E
	movq	%rax, -24(%rbp)
	movq	%rdx, -32(%rbp)
	.loc	2 0 27 is_stmt 0
	movq	-24(%rbp), %rdi
	movq	-32(%rbp), %rsi
	.loc	2 1158 9
	callq	__ZN3std3ffi6os_str5OsStr10from_inner17h7a56e3f0e4cbbe34E
	movq	%rax, -40(%rbp)
	movq	%rdx, -48(%rbp)
	.loc	2 0 9
	movq	-40(%rbp), %rax
	movq	-48(%rbp), %rdx
	.loc	2 1159 6 is_stmt 1
	addq	$48, %rsp
	popq	%rbp
	retq
Ltmp50:
Lfunc_end14:
	.cfi_endproc

	.p2align	4, 0x90
__ZN3std3sys4unix7process14process_common8ExitCode6as_i3217ha93d4badc31b557aE:
Lfunc_begin15:
	.file	11 "/rustc/6c8927b0cf80ceee19386026cf9d7fd4fd9d486f/src/libstd/sys/unix/process/process_common.rs"
	.loc	11 398 0
	.cfi_startproc
	pushq	%rbp
	.cfi_def_cfa_offset 16
	.cfi_offset %rbp, -16
	movq	%rsp, %rbp
	.cfi_def_cfa_register %rbp
	pushq	%rax
	movq	%rdi, -8(%rbp)
Ltmp51:
	.loc	11 399 9 prologue_end
	movzbl	(%rdi), %eax
	.loc	11 400 6
	addq	$8, %rsp
	popq	%rbp
	retq
Ltmp52:
Lfunc_end15:
	.cfi_endproc

	.p2align	4, 0x90
__ZN3std7process7Command3arg17hb48f1878f989a8d7E:
Lfunc_begin16:
	.file	12 "/rustc/6c8927b0cf80ceee19386026cf9d7fd4fd9d486f/src/libstd/process.rs"
	.loc	12 541 0
	.cfi_startproc
	.cfi_personality 155, _rust_eh_personality
	.cfi_lsda 16, Lexception1
	pushq	%rbp
	.cfi_def_cfa_offset 16
	.cfi_offset %rbp, -16
	movq	%rsp, %rbp
	.cfi_def_cfa_register %rbp
	subq	$80, %rsp
	movq	%rsi, -40(%rbp)
	movq	%rdx, -32(%rbp)
	movq	%rdi, -24(%rbp)
Ltmp58:
	.loc	12 542 9 prologue_end
	movq	%rdi, %rax
Ltmp53:
	leaq	-40(%rbp), %rcx
	movq	%rdi, -48(%rbp)
	.loc	12 542 24 is_stmt 0
	movq	%rcx, %rdi
	movq	%rax, -56(%rbp)
	callq	__ZN55_$LT$$RF$T$u20$as$u20$core..convert..AsRef$LT$U$GT$$GT$6as_ref17h158c18387bf3db69E
Ltmp54:
	movq	%rdx, -64(%rbp)
	movq	%rax, -72(%rbp)
	jmp	LBB16_2
LBB16_1:
	.loc	12 541 5 is_stmt 1
	movq	-16(%rbp), %rdi
	callq	__Unwind_Resume
	ud2
LBB16_2:
Ltmp55:
	.loc	12 0 5 is_stmt 0
	movq	-56(%rbp), %rdi
	movq	-72(%rbp), %rsi
	movq	-64(%rbp), %rdx
	.loc	12 542 9 is_stmt 1
	callq	__ZN3std3sys4unix7process14process_common7Command3arg17he3b985033bebdb87E
Ltmp56:
	jmp	LBB16_4
LBB16_3:
	.loc	12 544 5
	jmp	LBB16_1
LBB16_4:
	jmp	LBB16_5
LBB16_5:
	.loc	12 0 5 is_stmt 0
	movq	-48(%rbp), %rax
	.loc	12 544 6
	addq	$80, %rsp
	popq	%rbp
	retq
Ltmp59:
LBB16_6:
Ltmp57:
	.loc	12 0 6
	movq	%rax, -16(%rbp)
	movl	%edx, -8(%rbp)
	jmp	LBB16_3
Lfunc_end16:
	.cfi_endproc
	.section	__TEXT,__gcc_except_tab
	.p2align	2
GCC_except_table16:
Lexception1:
	.byte	255
	.byte	255
	.byte	1
	.uleb128 Lcst_end1-Lcst_begin1
Lcst_begin1:
	.uleb128 Ltmp53-Lfunc_begin16
	.uleb128 Ltmp54-Ltmp53
	.uleb128 Ltmp57-Lfunc_begin16
	.byte	0
	.uleb128 Ltmp54-Lfunc_begin16
	.uleb128 Ltmp55-Ltmp54
	.byte	0
	.byte	0
	.uleb128 Ltmp55-Lfunc_begin16
	.uleb128 Ltmp56-Ltmp55
	.uleb128 Ltmp57-Lfunc_begin16
	.byte	0
Lcst_end1:
	.p2align	2

	.section	__TEXT,__text,regular,pure_instructions
	.p2align	4, 0x90
__ZN3std7process7Command3new17hd6b924727af465ddE:
Lfunc_begin17:
	.loc	12 500 0 is_stmt 1
	.cfi_startproc
	.cfi_personality 155, _rust_eh_personality
	.cfi_lsda 16, Lexception2
	pushq	%rbp
	.cfi_def_cfa_offset 16
	.cfi_offset %rbp, -16
	movq	%rsp, %rbp
	.cfi_def_cfa_register %rbp
	subq	$240, %rsp
	movq	%rdi, %rax
Ltmp60:
	movq	%rdi, -208(%rbp)
Ltmp65:
	.loc	12 501 44 prologue_end
	movq	%rsi, %rdi
	movq	%rsi, -216(%rbp)
Ltmp66:
	.loc	12 0 44 is_stmt 0
	movq	%rax, -224(%rbp)
	.loc	12 501 44
	callq	__ZN98_$LT$std..ffi..os_str..OsString$u20$as$u20$core..convert..AsRef$LT$std..ffi..os_str..OsStr$GT$$GT$6as_ref17he466f223c1a8da0dE
Ltmp61:
	movq	%rdx, -232(%rbp)
	movq	%rax, -240(%rbp)
	jmp	LBB17_2
Ltmp67:
LBB17_1:
	.loc	12 500 5 is_stmt 1
	movq	-16(%rbp), %rdi
	callq	__Unwind_Resume
	ud2
Ltmp68:
LBB17_2:
Ltmp62:
	.loc	12 0 5 is_stmt 0
	leaq	-200(%rbp), %rdi
	movq	-240(%rbp), %rsi
	movq	-232(%rbp), %rdx
	.loc	12 501 26 is_stmt 1
	callq	__ZN3std3sys4unix7process14process_common7Command3new17h6b51c4bb5fada643E
Ltmp63:
	jmp	LBB17_4
Ltmp69:
LBB17_3:
	.loc	12 0 26 is_stmt 0
	movq	-216(%rbp), %rdi
	.loc	12 502 5 is_stmt 1
	callq	__ZN4core3ptr13drop_in_place17h13318a4e5e057590E
	jmp	LBB17_1
Ltmp70:
LBB17_4:
	.loc	12 0 5 is_stmt 0
	movq	-208(%rbp), %rax
	.loc	12 501 9 is_stmt 1
	leaq	-200(%rbp), %rcx
	movq	%rax, %rdi
	movq	%rcx, %rsi
	movl	$184, %edx
	callq	_memcpy
	movq	-216(%rbp), %rdi
	.loc	12 502 5
	callq	__ZN4core3ptr13drop_in_place17h13318a4e5e057590E
Ltmp71:
	.loc	12 0 5 is_stmt 0
	movq	-224(%rbp), %rax
	.loc	12 502 6
	addq	$240, %rsp
	popq	%rbp
	retq
Ltmp72:
LBB17_6:
Ltmp64:
	.loc	12 0 6
	movq	%rax, -16(%rbp)
	movl	%edx, -8(%rbp)
	jmp	LBB17_3
Lfunc_end17:
	.cfi_endproc
	.section	__TEXT,__gcc_except_tab
	.p2align	2
GCC_except_table17:
Lexception2:
	.byte	255
	.byte	255
	.byte	1
	.uleb128 Lcst_end2-Lcst_begin2
Lcst_begin2:
	.uleb128 Ltmp60-Lfunc_begin17
	.uleb128 Ltmp61-Ltmp60
	.uleb128 Ltmp64-Lfunc_begin17
	.byte	0
	.uleb128 Ltmp61-Lfunc_begin17
	.uleb128 Ltmp62-Ltmp61
	.byte	0
	.byte	0
	.uleb128 Ltmp62-Lfunc_begin17
	.uleb128 Ltmp63-Ltmp62
	.uleb128 Ltmp64-Lfunc_begin17
	.byte	0
	.uleb128 Ltmp63-Lfunc_begin17
	.uleb128 Lfunc_end17-Ltmp63
	.byte	0
	.byte	0
Lcst_end2:
	.p2align	2

	.section	__TEXT,__text,regular,pure_instructions
	.p2align	4, 0x90
__ZN44_$LT$$RF$T$u20$as$u20$core..fmt..Display$GT$3fmt17h0f010a7ca0e5b577E:
Lfunc_begin18:
	.file	13 "/rustc/6c8927b0cf80ceee19386026cf9d7fd4fd9d486f/src/libcore/fmt/mod.rs"
	.loc	13 2022 0 is_stmt 1
	.cfi_startproc
	pushq	%rbp
	.cfi_def_cfa_offset 16
	.cfi_offset %rbp, -16
	movq	%rsp, %rbp
	.cfi_def_cfa_register %rbp
	subq	$32, %rsp
	movq	%rdi, -16(%rbp)
	movq	%rsi, -8(%rbp)
Ltmp73:
	.loc	13 2022 71 prologue_end
	movq	(%rdi), %rax
	movq	8(%rdi), %rcx
	.loc	13 2022 62 is_stmt 0
	movq	%rax, %rdi
	movq	%rsi, -24(%rbp)
	movq	%rcx, %rsi
	movq	-24(%rbp), %rdx
	callq	__ZN42_$LT$str$u20$as$u20$core..fmt..Display$GT$3fmt17h6768afae62e94f93E
	movb	%al, -25(%rbp)
	.loc	13 0 62
	movb	-25(%rbp), %al
	.loc	13 2022 84
	andb	$1, %al
	movzbl	%al, %eax
	addq	$32, %rsp
	popq	%rbp
	retq
Ltmp74:
Lfunc_end18:
	.cfi_endproc

	.p2align	4, 0x90
__ZN4core10intrinsics19copy_nonoverlapping17h1104a01053c122e3E:
Lfunc_begin19:
	.file	14 "/rustc/6c8927b0cf80ceee19386026cf9d7fd4fd9d486f/src/libcore/intrinsics.rs"
	.loc	14 2114 0 is_stmt 1
	.cfi_startproc
	pushq	%rbp
	.cfi_def_cfa_offset 16
	.cfi_offset %rbp, -16
	movq	%rsp, %rbp
	.cfi_def_cfa_register %rbp
	subq	$32, %rsp
	movq	%rdi, -24(%rbp)
	movq	%rsi, -16(%rbp)
	movq	%rdx, -8(%rbp)
Ltmp75:
	.loc	14 2130 14 prologue_end
	imulq	$24, %rdx, %rdx
	movq	%rdi, -32(%rbp)
	movq	%rsi, %rdi
	movq	-32(%rbp), %rsi
	callq	_memcpy
	.loc	14 2131 2
	addq	$32, %rsp
	popq	%rbp
	retq
Ltmp76:
Lfunc_end19:
	.cfi_endproc

	.p2align	4, 0x90
__ZN4core10intrinsics19copy_nonoverlapping17h29fd699bf3ff652bE:
Lfunc_begin20:
	.loc	14 2114 0
	.cfi_startproc
	pushq	%rbp
	.cfi_def_cfa_offset 16
	.cfi_offset %rbp, -16
	movq	%rsp, %rbp
	.cfi_def_cfa_register %rbp
	subq	$32, %rsp
	movq	%rdi, -24(%rbp)
	movq	%rsi, -16(%rbp)
	movq	%rdx, -8(%rbp)
Ltmp77:
	.loc	14 2130 14 prologue_end
	shlq	$5, %rdx
	movq	%rdi, -32(%rbp)
	movq	%rsi, %rdi
	movq	-32(%rbp), %rsi
	callq	_memcpy
	.loc	14 2131 2
	addq	$32, %rsp
	popq	%rbp
	retq
Ltmp78:
Lfunc_end20:
	.cfi_endproc

	.p2align	4, 0x90
__ZN4core10intrinsics19copy_nonoverlapping17h3a2e7098b8e39e8eE:
Lfunc_begin21:
	.loc	14 2114 0
	.cfi_startproc
	pushq	%rbp
	.cfi_def_cfa_offset 16
	.cfi_offset %rbp, -16
	movq	%rsp, %rbp
	.cfi_def_cfa_register %rbp
	subq	$32, %rsp
	movq	%rdi, -24(%rbp)
	movq	%rsi, -16(%rbp)
	movq	%rdx, -8(%rbp)
Ltmp79:
	.loc	14 2130 14 prologue_end
	imulq	$24, %rdx, %rdx
	movq	%rdi, -32(%rbp)
	movq	%rsi, %rdi
	movq	-32(%rbp), %rsi
	callq	_memcpy
	.loc	14 2131 2
	addq	$32, %rsp
	popq	%rbp
	retq
Ltmp80:
Lfunc_end21:
	.cfi_endproc

	.p2align	4, 0x90
__ZN4core10intrinsics19copy_nonoverlapping17h936a6b26fb4e8fbbE:
Lfunc_begin22:
	.loc	14 2114 0
	.cfi_startproc
	pushq	%rbp
	.cfi_def_cfa_offset 16
	.cfi_offset %rbp, -16
	movq	%rsp, %rbp
	.cfi_def_cfa_register %rbp
	subq	$32, %rsp
	movq	%rdi, -24(%rbp)
	movq	%rsi, -16(%rbp)
	movq	%rdx, -8(%rbp)
Ltmp81:
	.loc	14 2130 14 prologue_end
	shlq	$4, %rdx
	movq	%rdi, -32(%rbp)
	movq	%rsi, %rdi
	movq	-32(%rbp), %rsi
	callq	_memcpy
	.loc	14 2131 2
	addq	$32, %rsp
	popq	%rbp
	retq
Ltmp82:
Lfunc_end22:
	.cfi_endproc

	.p2align	4, 0x90
__ZN4core10intrinsics19copy_nonoverlapping17h9ced25cc80d03a62E:
Lfunc_begin23:
	.loc	14 2114 0
	.cfi_startproc
	pushq	%rbp
	.cfi_def_cfa_offset 16
	.cfi_offset %rbp, -16
	movq	%rsp, %rbp
	.cfi_def_cfa_register %rbp
	subq	$32, %rsp
	movq	%rdi, -24(%rbp)
	movq	%rsi, -16(%rbp)
	movq	%rdx, -8(%rbp)
Ltmp83:
	.loc	14 2130 14 prologue_end
	shlq	$0, %rdx
	movq	%rdi, -32(%rbp)
	movq	%rsi, %rdi
	movq	-32(%rbp), %rsi
	callq	_memcpy
	.loc	14 2131 2
	addq	$32, %rsp
	popq	%rbp
	retq
Ltmp84:
Lfunc_end23:
	.cfi_endproc

	.p2align	4, 0x90
__ZN4core10intrinsics19copy_nonoverlapping17ha574299db4eee404E:
Lfunc_begin24:
	.loc	14 2114 0
	.cfi_startproc
	pushq	%rbp
	.cfi_def_cfa_offset 16
	.cfi_offset %rbp, -16
	movq	%rsp, %rbp
	.cfi_def_cfa_register %rbp
	subq	$32, %rsp
	movq	%rdi, -24(%rbp)
	movq	%rsi, -16(%rbp)
	movq	%rdx, -8(%rbp)
Ltmp85:
	.loc	14 2130 14 prologue_end
	imulq	$24, %rdx, %rdx
	movq	%rdi, -32(%rbp)
	movq	%rsi, %rdi
	movq	-32(%rbp), %rsi
	callq	_memcpy
	.loc	14 2131 2
	addq	$32, %rsp
	popq	%rbp
	retq
Ltmp86:
Lfunc_end24:
	.cfi_endproc

	.p2align	4, 0x90
__ZN4core10intrinsics19copy_nonoverlapping17hb2d1437714ca4973E:
Lfunc_begin25:
	.loc	14 2114 0
	.cfi_startproc
	pushq	%rbp
	.cfi_def_cfa_offset 16
	.cfi_offset %rbp, -16
	movq	%rsp, %rbp
	.cfi_def_cfa_register %rbp
	subq	$32, %rsp
	movq	%rdi, -24(%rbp)
	movq	%rsi, -16(%rbp)
	movq	%rdx, -8(%rbp)
Ltmp87:
	.loc	14 2130 14 prologue_end
	imulq	$24, %rdx, %rdx
	movq	%rdi, -32(%rbp)
	movq	%rsi, %rdi
	movq	-32(%rbp), %rsi
	callq	_memcpy
	.loc	14 2131 2
	addq	$32, %rsp
	popq	%rbp
	retq
Ltmp88:
Lfunc_end25:
	.cfi_endproc

	.p2align	4, 0x90
__ZN4core10intrinsics19copy_nonoverlapping17hbb07d213f1ba9805E:
Lfunc_begin26:
	.loc	14 2114 0
	.cfi_startproc
	pushq	%rbp
	.cfi_def_cfa_offset 16
	.cfi_offset %rbp, -16
	movq	%rsp, %rbp
	.cfi_def_cfa_register %rbp
	subq	$32, %rsp
	movq	%rdi, -24(%rbp)
	movq	%rsi, -16(%rbp)
	movq	%rdx, -8(%rbp)
Ltmp89:
	.loc	14 2130 14 prologue_end
	shlq	$5, %rdx
	movq	%rdi, -32(%rbp)
	movq	%rsi, %rdi
	movq	-32(%rbp), %rsi
	callq	_memcpy
	.loc	14 2131 2
	addq	$32, %rsp
	popq	%rbp
	retq
Ltmp90:
Lfunc_end26:
	.cfi_endproc

	.p2align	4, 0x90
__ZN4core10intrinsics19copy_nonoverlapping17hd379296696cdb355E:
Lfunc_begin27:
	.loc	14 2114 0
	.cfi_startproc
	pushq	%rbp
	.cfi_def_cfa_offset 16
	.cfi_offset %rbp, -16
	movq	%rsp, %rbp
	.cfi_def_cfa_register %rbp
	subq	$32, %rsp
	movq	%rdi, -24(%rbp)
	movq	%rsi, -16(%rbp)
	movq	%rdx, -8(%rbp)
Ltmp91:
	.loc	14 2130 14 prologue_end
	imulq	$24, %rdx, %rdx
	movq	%rdi, -32(%rbp)
	movq	%rsi, %rdi
	movq	-32(%rbp), %rsi
	callq	_memcpy
	.loc	14 2131 2
	addq	$32, %rsp
	popq	%rbp
	retq
Ltmp92:
Lfunc_end27:
	.cfi_endproc

	.p2align	4, 0x90
__ZN4core3cmp5impls69_$LT$impl$u20$core..cmp..PartialEq$LT$$RF$B$GT$$u20$for$u20$$RF$A$GT$2eq17hcb1c5016b4c6a723E:
Lfunc_begin28:
	.file	15 "/rustc/6c8927b0cf80ceee19386026cf9d7fd4fd9d486f/src/libcore/cmp.rs"
	.loc	15 1218 0
	.cfi_startproc
	pushq	%rbp
	.cfi_def_cfa_offset 16
	.cfi_offset %rbp, -16
	movq	%rsp, %rbp
	.cfi_def_cfa_register %rbp
	subq	$32, %rsp
	movq	%rdi, -16(%rbp)
	movq	%rsi, -8(%rbp)
Ltmp93:
	.loc	15 1219 27 prologue_end
	movq	(%rdi), %rax
	movq	8(%rdi), %rcx
	.loc	15 1219 34 is_stmt 0
	movq	(%rsi), %rdx
	movq	8(%rsi), %rsi
	.loc	15 1219 13
	movq	%rax, %rdi
	movq	%rsi, -24(%rbp)
	movq	%rcx, %rsi
	movq	-24(%rbp), %rcx
	callq	__ZN4core5slice81_$LT$impl$u20$core..cmp..PartialEq$LT$$u5b$B$u5d$$GT$$u20$for$u20$$u5b$A$u5d$$GT$2eq17h6755bf9bf80791dfE
	movb	%al, -25(%rbp)
	.loc	15 0 13
	movb	-25(%rbp), %al
	.loc	15 1220 10 is_stmt 1
	andb	$1, %al
	movzbl	%al, %eax
	addq	$32, %rsp
	popq	%rbp
	retq
Ltmp94:
Lfunc_end28:
	.cfi_endproc

	.p2align	4, 0x90
__ZN4core3cmp5impls69_$LT$impl$u20$core..cmp..PartialEq$LT$$RF$B$GT$$u20$for$u20$$RF$A$GT$2ne17h4ca6ba4596180d82E:
Lfunc_begin29:
	.loc	15 1222 0
	.cfi_startproc
	pushq	%rbp
	.cfi_def_cfa_offset 16
	.cfi_offset %rbp, -16
	movq	%rsp, %rbp
	.cfi_def_cfa_register %rbp
	subq	$32, %rsp
	movq	%rdi, -16(%rbp)
	movq	%rsi, -8(%rbp)
Ltmp95:
	.loc	15 1223 27 prologue_end
	movq	(%rdi), %rax
	movq	8(%rdi), %rcx
	.loc	15 1223 34 is_stmt 0
	movq	(%rsi), %rdx
	movq	8(%rsi), %rsi
	.loc	15 1223 13
	movq	%rax, %rdi
	movq	%rsi, -24(%rbp)
	movq	%rcx, %rsi
	movq	-24(%rbp), %rcx
	callq	__ZN4core3str6traits54_$LT$impl$u20$core..cmp..PartialEq$u20$for$u20$str$GT$2ne17h7746ecd34c8e4f24E
	movb	%al, -25(%rbp)
	.loc	15 0 13
	movb	-25(%rbp), %al
	.loc	15 1224 10 is_stmt 1
	andb	$1, %al
	movzbl	%al, %eax
	addq	$32, %rsp
	popq	%rbp
	retq
Ltmp96:
Lfunc_end29:
	.cfi_endproc

	.p2align	4, 0x90
__ZN4core3fmt10ArgumentV13new17h3e3e83d4b8c4bc8fE:
Lfunc_begin30:
	.loc	13 281 0
	.cfi_startproc
	pushq	%rbp
	.cfi_def_cfa_offset 16
	.cfi_offset %rbp, -16
	movq	%rsp, %rbp
	.cfi_def_cfa_register %rbp
	subq	$72, %rsp
	movq	%rdi, -32(%rbp)
	movq	%rsi, -24(%rbp)
Ltmp97:
	.loc	13 290 42 prologue_end
	movq	%rsi, -16(%rbp)
	movq	-16(%rbp), %rax
	movq	%rdi, -56(%rbp)
	movq	%rax, -64(%rbp)
	.loc	13 0 42 is_stmt 0
	movq	-56(%rbp), %rax
	.loc	13 290 68
	movq	%rax, -8(%rbp)
	movq	-8(%rbp), %rcx
	movq	%rcx, -72(%rbp)
	.loc	13 0 68
	movq	-72(%rbp), %rax
	.loc	13 290 18
	movq	%rax, -48(%rbp)
	movq	-64(%rbp), %rcx
	movq	%rcx, -40(%rbp)
	.loc	13 291 6 is_stmt 1
	movq	-48(%rbp), %rax
	movq	-40(%rbp), %rdx
	addq	$72, %rsp
	popq	%rbp
	retq
Ltmp98:
Lfunc_end30:
	.cfi_endproc

	.p2align	4, 0x90
__ZN4core3fmt10ArgumentV13new17h9832ac8e0eef1ccfE:
Lfunc_begin31:
	.loc	13 281 0
	.cfi_startproc
	pushq	%rbp
	.cfi_def_cfa_offset 16
	.cfi_offset %rbp, -16
	movq	%rsp, %rbp
	.cfi_def_cfa_register %rbp
	subq	$72, %rsp
	movq	%rdi, -32(%rbp)
	movq	%rsi, -24(%rbp)
Ltmp99:
	.loc	13 290 42 prologue_end
	movq	%rsi, -16(%rbp)
	movq	-16(%rbp), %rax
	movq	%rdi, -56(%rbp)
	movq	%rax, -64(%rbp)
	.loc	13 0 42 is_stmt 0
	movq	-56(%rbp), %rax
	.loc	13 290 68
	movq	%rax, -8(%rbp)
	movq	-8(%rbp), %rcx
	movq	%rcx, -72(%rbp)
	.loc	13 0 68
	movq	-72(%rbp), %rax
	.loc	13 290 18
	movq	%rax, -48(%rbp)
	movq	-64(%rbp), %rcx
	movq	%rcx, -40(%rbp)
	.loc	13 291 6 is_stmt 1
	movq	-48(%rbp), %rax
	movq	-40(%rbp), %rdx
	addq	$72, %rsp
	popq	%rbp
	retq
Ltmp100:
Lfunc_end31:
	.cfi_endproc

	.p2align	4, 0x90
__ZN4core3fmt10ArgumentV13new17hdc49f8de09b4c8b5E:
Lfunc_begin32:
	.loc	13 281 0
	.cfi_startproc
	pushq	%rbp
	.cfi_def_cfa_offset 16
	.cfi_offset %rbp, -16
	movq	%rsp, %rbp
	.cfi_def_cfa_register %rbp
	subq	$72, %rsp
	movq	%rdi, -32(%rbp)
	movq	%rsi, -24(%rbp)
Ltmp101:
	.loc	13 290 42 prologue_end
	movq	%rsi, -16(%rbp)
	movq	-16(%rbp), %rax
	movq	%rdi, -56(%rbp)
	movq	%rax, -64(%rbp)
	.loc	13 0 42 is_stmt 0
	movq	-56(%rbp), %rax
	.loc	13 290 68
	movq	%rax, -8(%rbp)
	movq	-8(%rbp), %rcx
	movq	%rcx, -72(%rbp)
	.loc	13 0 68
	movq	-72(%rbp), %rax
	.loc	13 290 18
	movq	%rax, -48(%rbp)
	movq	-64(%rbp), %rcx
	movq	%rcx, -40(%rbp)
	.loc	13 291 6 is_stmt 1
	movq	-48(%rbp), %rax
	movq	-40(%rbp), %rdx
	addq	$72, %rsp
	popq	%rbp
	retq
Ltmp102:
Lfunc_end32:
	.cfi_endproc

	.p2align	4, 0x90
__ZN4core3fmt9Arguments6new_v117ha93eddda787f6f88E:
Lfunc_begin33:
	.loc	13 327 0
	.cfi_startproc
	pushq	%rbp
	.cfi_def_cfa_offset 16
	.cfi_offset %rbp, -16
	movq	%rsp, %rbp
	.cfi_def_cfa_register %rbp
	subq	$48, %rsp
	movq	%rdi, %rax
	movq	%rsi, -32(%rbp)
	movq	%rdx, -24(%rbp)
	movq	%rcx, -16(%rbp)
	movq	%r8, -8(%rbp)
Ltmp103:
	.loc	13 328 34 prologue_end
	movq	$0, -48(%rbp)
	.loc	13 328 9 is_stmt 0
	movq	%rsi, (%rdi)
	movq	%rdx, 8(%rdi)
	movq	-48(%rbp), %rdx
	movq	-40(%rbp), %rsi
	movq	%rdx, 16(%rdi)
	movq	%rsi, 24(%rdi)
	movq	%rcx, 32(%rdi)
	movq	%r8, 40(%rdi)
	.loc	13 329 6 is_stmt 1
	addq	$48, %rsp
	popq	%rbp
	retq
Ltmp104:
Lfunc_end33:
	.cfi_endproc

	.p2align	4, 0x90
__ZN4core3mem11size_of_val17h078d7931d08df53eE:
Lfunc_begin34:
	.file	16 "/rustc/6c8927b0cf80ceee19386026cf9d7fd4fd9d486f/src/libcore/mem/mod.rs"
	.loc	16 335 0
	.cfi_startproc
	pushq	%rbp
	.cfi_def_cfa_offset 16
	.cfi_offset %rbp, -16
	movq	%rsp, %rbp
	.cfi_def_cfa_register %rbp
	subq	$32, %rsp
	movq	%rdi, -24(%rbp)
	movq	%rsi, -16(%rbp)
Ltmp105:
	.loc	16 336 5 prologue_end
	shlq	$0, %rsi
	movq	%rsi, -8(%rbp)
	movq	-8(%rbp), %rax
	movq	%rax, -32(%rbp)
	.loc	16 0 5 is_stmt 0
	movq	-32(%rbp), %rax
	.loc	16 337 2 is_stmt 1
	addq	$32, %rsp
	popq	%rbp
	retq
Ltmp106:
Lfunc_end34:
	.cfi_endproc

	.p2align	4, 0x90
__ZN4core3mem4drop17h4307b1ee7b359a44E:
Lfunc_begin35:
	.loc	16 883 0
	.cfi_startproc
	pushq	%rbp
	.cfi_def_cfa_offset 16
	.cfi_offset %rbp, -16
	movq	%rsp, %rbp
	.cfi_def_cfa_register %rbp
Ltmp107:
	.loc	16 883 24 prologue_end
	callq	__ZN4core3ptr13drop_in_place17h8dd2b002ee7d0a25E
Ltmp108:
	.loc	16 883 25 is_stmt 0
	popq	%rbp
	retq
Ltmp109:
Lfunc_end35:
	.cfi_endproc

	.p2align	4, 0x90
__ZN4core3mem4drop17h7eedc8e2e16aca1dE:
Lfunc_begin36:
	.loc	16 883 0 is_stmt 1
	.cfi_startproc
	pushq	%rbp
	.cfi_def_cfa_offset 16
	.cfi_offset %rbp, -16
	movq	%rsp, %rbp
	.cfi_def_cfa_register %rbp
Ltmp110:
	.loc	16 883 24 prologue_end
	callq	__ZN4core3ptr13drop_in_place17h7f379c1f2302d002E
Ltmp111:
	.loc	16 883 25 is_stmt 0
	popq	%rbp
	retq
Ltmp112:
Lfunc_end36:
	.cfi_endproc

	.p2align	4, 0x90
__ZN4core3mem4swap17h622b1bc688213117E:
Lfunc_begin37:
	.loc	16 686 0 is_stmt 1
	.cfi_startproc
	pushq	%rbp
	.cfi_def_cfa_offset 16
	.cfi_offset %rbp, -16
	movq	%rsp, %rbp
	.cfi_def_cfa_register %rbp
	subq	$16, %rsp
	movq	%rdi, -16(%rbp)
	movq	%rsi, -8(%rbp)
Ltmp113:
	.loc	16 690 9 prologue_end
	callq	__ZN4core3ptr23swap_nonoverlapping_one17hc85da2f86aebe603E
	.loc	16 692 2
	addq	$16, %rsp
	popq	%rbp
	retq
Ltmp114:
Lfunc_end37:
	.cfi_endproc

	.p2align	4, 0x90
__ZN4core3mem4take17hfec626cdf3d6250bE:
Lfunc_begin38:
	.loc	16 750 0
	.cfi_startproc
	pushq	%rbp
	.cfi_def_cfa_offset 16
	.cfi_offset %rbp, -16
	movq	%rsp, %rbp
	.cfi_def_cfa_register %rbp
	subq	$48, %rsp
	movq	%rdi, -8(%rbp)
	movq	%rdi, -16(%rbp)
Ltmp115:
	.loc	16 751 19 prologue_end
	callq	__ZN72_$LT$core..option..Option$LT$T$GT$$u20$as$u20$core..default..Default$GT$7default17h354de0a651327ae3E
	movq	%rax, -24(%rbp)
	movq	%rdx, -32(%rbp)
	.loc	16 0 19 is_stmt 0
	movq	-16(%rbp), %rdi
	movq	-24(%rbp), %rsi
	movq	-32(%rbp), %rdx
	.loc	16 751 5
	callq	__ZN4core3mem7replace17hf0c54f32f98b9d96E
	movq	%rax, -40(%rbp)
	movq	%rdx, -48(%rbp)
	.loc	16 0 5
	movq	-40(%rbp), %rax
	movq	-48(%rbp), %rdx
	.loc	16 752 2 is_stmt 1
	addq	$48, %rsp
	popq	%rbp
	retq
Ltmp116:
Lfunc_end38:
	.cfi_endproc

	.p2align	4, 0x90
__ZN4core3mem6forget17hf681b4967905e6f8E:
Lfunc_begin39:
	.loc	16 147 0
	.cfi_startproc
	pushq	%rbp
	.cfi_def_cfa_offset 16
	.cfi_offset %rbp, -16
	movq	%rsp, %rbp
	.cfi_def_cfa_register %rbp
	subq	$24, %rsp
	movq	%rdi, -24(%rbp)
	movq	%rdi, -8(%rbp)
Ltmp117:
	.loc	4 83 9 prologue_end
	movq	%rdi, -16(%rbp)
Ltmp118:
	.loc	16 149 2
	addq	$24, %rsp
	popq	%rbp
	retq
Ltmp119:
Lfunc_end39:
	.cfi_endproc

	.p2align	4, 0x90
__ZN4core3mem7replace17hf0c54f32f98b9d96E:
Lfunc_begin40:
	.loc	16 814 0
	.cfi_startproc
	.cfi_personality 155, _rust_eh_personality
	.cfi_lsda 16, Lexception3
	pushq	%rbp
	.cfi_def_cfa_offset 16
	.cfi_offset %rbp, -16
	movq	%rsp, %rbp
	.cfi_def_cfa_register %rbp
	subq	$48, %rsp
	movq	%rsi, -40(%rbp)
	movq	%rdx, -32(%rbp)
	movq	%rdi, -24(%rbp)
Ltmp120:
	leaq	-40(%rbp), %rsi
Ltmp123:
	.loc	16 815 5 prologue_end
	callq	__ZN4core3mem4swap17h622b1bc688213117E
Ltmp121:
	jmp	LBB40_2
LBB40_1:
	.loc	16 814 1
	movq	-16(%rbp), %rdi
	callq	__Unwind_Resume
	ud2
LBB40_2:
	.loc	16 816 5
	movq	-40(%rbp), %rax
	movq	-32(%rbp), %rdx
	.loc	16 817 2
	addq	$48, %rsp
	popq	%rbp
	retq
LBB40_3:
	.loc	16 817 1 is_stmt 0
	jmp	LBB40_1
Ltmp124:
LBB40_4:
Ltmp122:
	.loc	16 0 1
	movq	%rax, -16(%rbp)
	movl	%edx, -8(%rbp)
	jmp	LBB40_3
Lfunc_end40:
	.cfi_endproc
	.section	__TEXT,__gcc_except_tab
	.p2align	2
GCC_except_table40:
Lexception3:
	.byte	255
	.byte	255
	.byte	1
	.uleb128 Lcst_end3-Lcst_begin3
Lcst_begin3:
	.uleb128 Ltmp120-Lfunc_begin40
	.uleb128 Ltmp121-Ltmp120
	.uleb128 Ltmp122-Lfunc_begin40
	.byte	0
	.uleb128 Ltmp121-Lfunc_begin40
	.uleb128 Lfunc_end40-Ltmp121
	.byte	0
	.byte	0
Lcst_end3:
	.p2align	2

	.section	__TEXT,__text,regular,pure_instructions
	.p2align	4, 0x90
__ZN4core3num12NonZeroUsize13new_unchecked17h773f1d51463e6becE:
Lfunc_begin41:
	.file	17 "/rustc/6c8927b0cf80ceee19386026cf9d7fd4fd9d486f/src/libcore/num/mod.rs"
	.loc	17 83 0 is_stmt 1
	.cfi_startproc
	pushq	%rbp
	.cfi_def_cfa_offset 16
	.cfi_offset %rbp, -16
	movq	%rsp, %rbp
	.cfi_def_cfa_register %rbp
	subq	$16, %rsp
	movq	%rdi, -8(%rbp)
Ltmp125:
	.loc	17 85 30 prologue_end
	movq	%rdi, -16(%rbp)
	.loc	17 86 18
	movq	-16(%rbp), %rax
	addq	$16, %rsp
	popq	%rbp
	retq
Ltmp126:
Lfunc_end41:
	.cfi_endproc

	.p2align	4, 0x90
__ZN4core3num12NonZeroUsize3get17h17a8d575bb6c5545E:
Lfunc_begin42:
	.loc	17 105 0
	.cfi_startproc
	pushq	%rbp
	.cfi_def_cfa_offset 16
	.cfi_offset %rbp, -16
	movq	%rsp, %rbp
	.cfi_def_cfa_register %rbp
	pushq	%rax
	movq	%rdi, -8(%rbp)
Ltmp127:
	.loc	17 107 18 prologue_end
	movq	%rdi, %rax
	addq	$8, %rsp
	popq	%rbp
	retq
Ltmp128:
Lfunc_end42:
	.cfi_endproc

	.p2align	4, 0x90
__ZN4core3ops8function6FnOnce40call_once$u7b$$u7b$vtable.shim$u7d$$u7d$17h8d4f039b27abe86eE:
Lfunc_begin43:
	.file	18 "/rustc/6c8927b0cf80ceee19386026cf9d7fd4fd9d486f/src/libcore/ops/function.rs"
	.loc	18 233 0
	.cfi_startproc
	pushq	%rbp
	.cfi_def_cfa_offset 16
	.cfi_offset %rbp, -16
	movq	%rsp, %rbp
	.cfi_def_cfa_register %rbp
	subq	$32, %rsp
	movq	%rdi, -8(%rbp)
Ltmp129:
	.loc	18 233 5 prologue_end
	movq	(%rdi), %rdi
	callq	__ZN4core3ops8function6FnOnce9call_once17he5a0a08f24d8757eE
	movl	%eax, -20(%rbp)
	.loc	18 0 5 is_stmt 0
	movl	-20(%rbp), %eax
	.loc	18 233 5
	addq	$32, %rsp
	popq	%rbp
	retq
Ltmp130:
Lfunc_end43:
	.cfi_endproc

	.p2align	4, 0x90
__ZN4core3ops8function6FnOnce9call_once17he5a0a08f24d8757eE:
Lfunc_begin44:
	.loc	18 233 0 is_stmt 1
	.cfi_startproc
	.cfi_personality 155, _rust_eh_personality
	.cfi_lsda 16, Lexception4
	pushq	%rbp
	.cfi_def_cfa_offset 16
	.cfi_offset %rbp, -16
	movq	%rsp, %rbp
	.cfi_def_cfa_register %rbp
	subq	$48, %rsp
	movq	%rdi, -32(%rbp)
Ltmp131:
	leaq	-32(%rbp), %rdi
Ltmp134:
	.loc	18 233 5 prologue_end
	callq	__ZN3std2rt10lang_start28_$u7b$$u7b$closure$u7d$$u7d$17h2d48b2320dd158a5E
Ltmp132:
	movl	%eax, -36(%rbp)
	jmp	LBB44_1
LBB44_1:
	jmp	LBB44_2
LBB44_2:
	.loc	18 0 5 is_stmt 0
	movl	-36(%rbp), %eax
	.loc	18 233 5
	addq	$48, %rsp
	popq	%rbp
	retq
LBB44_3:
	jmp	LBB44_4
LBB44_4:
	movq	-16(%rbp), %rdi
	callq	__Unwind_Resume
	ud2
Ltmp135:
LBB44_5:
Ltmp133:
	.loc	18 0 5
	movq	%rax, -16(%rbp)
	movl	%edx, -8(%rbp)
	jmp	LBB44_3
Lfunc_end44:
	.cfi_endproc
	.section	__TEXT,__gcc_except_tab
	.p2align	2
GCC_except_table44:
Lexception4:
	.byte	255
	.byte	255
	.byte	1
	.uleb128 Lcst_end4-Lcst_begin4
Lcst_begin4:
	.uleb128 Ltmp131-Lfunc_begin44
	.uleb128 Ltmp132-Ltmp131
	.uleb128 Ltmp133-Lfunc_begin44
	.byte	0
	.uleb128 Ltmp132-Lfunc_begin44
	.uleb128 Lfunc_end44-Ltmp132
	.byte	0
	.byte	0
Lcst_end4:
	.p2align	2

	.section	__TEXT,__text,regular,pure_instructions
	.p2align	4, 0x90
__ZN4core3ptr13drop_in_place17h085934c2f74fe5f9E:
Lfunc_begin45:
	.file	19 "/rustc/6c8927b0cf80ceee19386026cf9d7fd4fd9d486f/src/libcore/ptr/mod.rs"
	.loc	19 184 0 is_stmt 1
	.cfi_startproc
	pushq	%rbp
	.cfi_def_cfa_offset 16
	.cfi_offset %rbp, -16
	movq	%rsp, %rbp
	.cfi_def_cfa_register %rbp
	subq	$32, %rsp
	xorl	%eax, %eax
	movl	%eax, %ecx
	movq	%rdi, -8(%rbp)
Ltmp136:
	.loc	19 184 1 prologue_end
	movl	(%rdi), %eax
	subl	$4, %eax
	cmpl	$0, %eax
	movl	$1, %edx
	cmovbeq	%rcx, %rdx
	cmpq	$0, %rdx
	movq	%rdi, -24(%rbp)
	jne	LBB45_2
LBB45_1:
	addq	$32, %rsp
	popq	%rbp
	retq
LBB45_2:
	.loc	19 0 1 is_stmt 0
	movq	-24(%rbp), %rdi
	.loc	19 184 1
	callq	__ZN4core3ptr13drop_in_place17h463aba500ff7b2b0E
	jmp	LBB45_1
Ltmp137:
Lfunc_end45:
	.cfi_endproc

	.p2align	4, 0x90
__ZN4core3ptr13drop_in_place17h08ae4412abb256b3E:
Lfunc_begin46:
	.loc	19 184 0 is_stmt 1
	.cfi_startproc
	.cfi_personality 155, _rust_eh_personality
	.cfi_lsda 16, Lexception5
	pushq	%rbp
	.cfi_def_cfa_offset 16
	.cfi_offset %rbp, -16
	movq	%rsp, %rbp
	.cfi_def_cfa_register %rbp
	subq	$80, %rsp
	xorl	%eax, %eax
	movq	%rdi, -32(%rbp)
	movq	%rsi, -24(%rbp)
Ltmp144:
	.loc	19 184 1 prologue_end
	testb	$1, %al
	movq	%rdi, -72(%rbp)
	movq	%rsi, -80(%rbp)
	jne	LBB46_7
	jmp	LBB46_12
LBB46_1:
	addq	$80, %rsp
	popq	%rbp
	retq
LBB46_2:
	movq	-16(%rbp), %rdi
	callq	__Unwind_Resume
	ud2
LBB46_3:
	movq	-56(%rbp), %rax
	shlq	$4, %rax
	movq	-72(%rbp), %rcx
	addq	%rax, %rcx
	movq	-56(%rbp), %rax
	addq	$1, %rax
	movq	%rax, -56(%rbp)
	movq	%rcx, %rdi
	callq	__ZN4core3ptr13drop_in_place17h9bd091b2ec3be350E
LBB46_4:
	.loc	19 0 1 is_stmt 0
	movq	-80(%rbp), %rax
	.loc	19 184 1
	cmpq	%rax, -56(%rbp)
	je	LBB46_2
	jmp	LBB46_3
LBB46_5:
	movq	-56(%rbp), %rax
	movq	%rax, %rcx
	shlq	$4, %rcx
	movq	-72(%rbp), %rdx
	addq	%rcx, %rdx
	incq	%rax
	movq	%rax, -56(%rbp)
Ltmp141:
	movq	%rdx, %rdi
	callq	__ZN4core3ptr13drop_in_place17h9bd091b2ec3be350E
Ltmp142:
	jmp	LBB46_6
LBB46_6:
	.loc	19 0 1
	movq	-80(%rbp), %rax
	.loc	19 184 1
	cmpq	%rax, -56(%rbp)
	je	LBB46_1
	jmp	LBB46_5
LBB46_7:
	movq	$0, -56(%rbp)
	jmp	LBB46_6
LBB46_8:
	movq	-48(%rbp), %rdi
	movq	-48(%rbp), %rax
	addq	$16, %rax
	movq	%rax, -48(%rbp)
	callq	__ZN4core3ptr13drop_in_place17h9bd091b2ec3be350E
LBB46_9:
	movq	-48(%rbp), %rax
	cmpq	-40(%rbp), %rax
	je	LBB46_2
	jmp	LBB46_8
LBB46_10:
	movq	-48(%rbp), %rax
	movq	%rax, %rcx
	addq	$16, %rcx
	movq	%rcx, -48(%rbp)
Ltmp138:
	movq	%rax, %rdi
	callq	__ZN4core3ptr13drop_in_place17h9bd091b2ec3be350E
Ltmp139:
	jmp	LBB46_11
LBB46_11:
	movq	-48(%rbp), %rax
	cmpq	-40(%rbp), %rax
	je	LBB46_1
	jmp	LBB46_10
LBB46_12:
	.loc	19 0 1
	movq	-72(%rbp), %rax
	.loc	19 184 1
	movq	%rax, -48(%rbp)
	movq	-80(%rbp), %rax
	shlq	$4, %rax
	addq	-48(%rbp), %rax
	movq	%rax, -40(%rbp)
	jmp	LBB46_11
Ltmp145:
LBB46_13:
Ltmp140:
	.loc	19 0 1
	movq	%rax, -16(%rbp)
	movl	%edx, -8(%rbp)
	jmp	LBB46_9
LBB46_14:
Ltmp143:
	movq	%rax, -16(%rbp)
	movl	%edx, -8(%rbp)
	jmp	LBB46_4
Lfunc_end46:
	.cfi_endproc
	.section	__TEXT,__gcc_except_tab
	.p2align	2
GCC_except_table46:
Lexception5:
	.byte	255
	.byte	255
	.byte	1
	.uleb128 Lcst_end5-Lcst_begin5
Lcst_begin5:
	.uleb128 Lfunc_begin46-Lfunc_begin46
	.uleb128 Ltmp141-Lfunc_begin46
	.byte	0
	.byte	0
	.uleb128 Ltmp141-Lfunc_begin46
	.uleb128 Ltmp142-Ltmp141
	.uleb128 Ltmp143-Lfunc_begin46
	.byte	0
	.uleb128 Ltmp142-Lfunc_begin46
	.uleb128 Ltmp138-Ltmp142
	.byte	0
	.byte	0
	.uleb128 Ltmp138-Lfunc_begin46
	.uleb128 Ltmp139-Ltmp138
	.uleb128 Ltmp140-Lfunc_begin46
	.byte	0
Lcst_end5:
	.p2align	2

	.section	__TEXT,__text,regular,pure_instructions
	.p2align	4, 0x90
__ZN4core3ptr13drop_in_place17h0dfffc2cfa51e354E:
Lfunc_begin47:
	.loc	19 184 0 is_stmt 1
	.cfi_startproc
	pushq	%rbp
	.cfi_def_cfa_offset 16
	.cfi_offset %rbp, -16
	movq	%rsp, %rbp
	.cfi_def_cfa_register %rbp
	subq	$16, %rsp
	movq	%rdi, -8(%rbp)
Ltmp146:
	.loc	19 184 1 prologue_end
	callq	__ZN4core3ptr13drop_in_place17h9608146903346ddbE
	addq	$16, %rsp
	popq	%rbp
	retq
Ltmp147:
Lfunc_end47:
	.cfi_endproc

	.p2align	4, 0x90
__ZN4core3ptr13drop_in_place17h10d6b9fbfdd564e1E:
Lfunc_begin48:
	.loc	19 184 0
	.cfi_startproc
	pushq	%rbp
	.cfi_def_cfa_offset 16
	.cfi_offset %rbp, -16
	movq	%rsp, %rbp
	.cfi_def_cfa_register %rbp
	subq	$16, %rsp
	movq	%rdi, -8(%rbp)
Ltmp148:
	.loc	19 184 1 prologue_end
	callq	__ZN4core3ptr13drop_in_place17h768d23b1d8f3bd38E
	addq	$16, %rsp
	popq	%rbp
	retq
Ltmp149:
Lfunc_end48:
	.cfi_endproc

	.p2align	4, 0x90
__ZN4core3ptr13drop_in_place17h13318a4e5e057590E:
Lfunc_begin49:
	.loc	19 184 0
	.cfi_startproc
	pushq	%rbp
	.cfi_def_cfa_offset 16
	.cfi_offset %rbp, -16
	movq	%rsp, %rbp
	.cfi_def_cfa_register %rbp
	subq	$16, %rsp
	movq	%rdi, -8(%rbp)
Ltmp150:
	.loc	19 184 1 prologue_end
	callq	__ZN4core3ptr13drop_in_place17h1f8f7699f2e52efbE
	addq	$16, %rsp
	popq	%rbp
	retq
Ltmp151:
Lfunc_end49:
	.cfi_endproc

	.p2align	4, 0x90
__ZN4core3ptr13drop_in_place17h1f8f7699f2e52efbE:
Lfunc_begin50:
	.loc	19 184 0
	.cfi_startproc
	pushq	%rbp
	.cfi_def_cfa_offset 16
	.cfi_offset %rbp, -16
	movq	%rsp, %rbp
	.cfi_def_cfa_register %rbp
	subq	$16, %rsp
	movq	%rdi, -8(%rbp)
Ltmp152:
	.loc	19 184 1 prologue_end
	callq	__ZN4core3ptr13drop_in_place17h93916c91d09b0e70E
	addq	$16, %rsp
	popq	%rbp
	retq
Ltmp153:
Lfunc_end50:
	.cfi_endproc

	.p2align	4, 0x90
__ZN4core3ptr13drop_in_place17h259501f6f7caa76aE:
Lfunc_begin51:
	.loc	19 184 0
	.cfi_startproc
	pushq	%rbp
	.cfi_def_cfa_offset 16
	.cfi_offset %rbp, -16
	movq	%rsp, %rbp
	.cfi_def_cfa_register %rbp
	subq	$16, %rsp
	movq	%rdi, -8(%rbp)
Ltmp154:
	.loc	19 184 1 prologue_end
	callq	__ZN4core3ptr13drop_in_place17he57a0a7186af8249E
	addq	$16, %rsp
	popq	%rbp
	retq
Ltmp155:
Lfunc_end51:
	.cfi_endproc

	.p2align	4, 0x90
__ZN4core3ptr13drop_in_place17h260a347273fb8a92E:
Lfunc_begin52:
	.loc	19 184 0
	.cfi_startproc
	pushq	%rbp
	.cfi_def_cfa_offset 16
	.cfi_offset %rbp, -16
	movq	%rsp, %rbp
	.cfi_def_cfa_register %rbp
	subq	$48, %rsp
	movq	%rdi, -24(%rbp)
	movq	%rdi, -40(%rbp)
Ltmp156:
	.loc	19 184 1 prologue_end
	jmp	LBB52_2
LBB52_1:
	addq	$48, %rsp
	popq	%rbp
	retq
LBB52_2:
	.loc	19 0 1 is_stmt 0
	movq	-40(%rbp), %rax
	.loc	19 184 1
	movq	(%rax), %rdi
	movq	8(%rax), %rsi
	callq	__ZN5alloc5alloc8box_free17h947eb460a36b7db4E
	jmp	LBB52_1
Ltmp157:
Lfunc_end52:
	.cfi_endproc

	.p2align	4, 0x90
__ZN4core3ptr13drop_in_place17h2b1866efd711ef6bE:
Lfunc_begin53:
	.loc	19 184 0 is_stmt 1
	.cfi_startproc
	pushq	%rbp
	.cfi_def_cfa_offset 16
	.cfi_offset %rbp, -16
	movq	%rsp, %rbp
	.cfi_def_cfa_register %rbp
	subq	$32, %rsp
	xorl	%eax, %eax
	movl	%eax, %ecx
	movq	%rdi, -8(%rbp)
Ltmp158:
	.loc	19 184 1 prologue_end
	cmpq	$0, (%rdi)
	movl	$1, %edx
	cmovbeq	%rcx, %rdx
	cmpq	$0, %rdx
	movq	%rdi, -24(%rbp)
	jne	LBB53_2
LBB53_1:
	addq	$32, %rsp
	popq	%rbp
	retq
LBB53_2:
	.loc	19 0 1 is_stmt 0
	movq	-24(%rbp), %rax
	.loc	19 184 1
	movq	%rax, %rdi
	callq	__ZN4core3ptr13drop_in_place17h13318a4e5e057590E
	jmp	LBB53_1
Ltmp159:
Lfunc_end53:
	.cfi_endproc

	.p2align	4, 0x90
__ZN4core3ptr13drop_in_place17h463aba500ff7b2b0E:
Lfunc_begin54:
	.loc	19 184 0 is_stmt 1
	.cfi_startproc
	pushq	%rbp
	.cfi_def_cfa_offset 16
	.cfi_offset %rbp, -16
	movq	%rsp, %rbp
	.cfi_def_cfa_register %rbp
	subq	$32, %rsp
	movq	%rdi, -8(%rbp)
Ltmp160:
	.loc	19 184 1 prologue_end
	movl	(%rdi), %eax
	subl	$2, %eax
	movq	%rdi, -24(%rbp)
	ja	LBB54_2
	jmp	LBB54_1
LBB54_1:
	addq	$32, %rsp
	popq	%rbp
	retq
LBB54_2:
	.loc	19 0 1 is_stmt 0
	movq	-24(%rbp), %rax
	.loc	19 184 1
	addq	$4, %rax
	movq	%rax, %rdi
	callq	__ZN4core3ptr13drop_in_place17hd5f0b4ca12b97fe4E
	jmp	LBB54_1
Ltmp161:
Lfunc_end54:
	.cfi_endproc

	.p2align	4, 0x90
__ZN4core3ptr13drop_in_place17h55ad1edd1bf11bbaE:
Lfunc_begin55:
	.loc	19 184 0 is_stmt 1
	.cfi_startproc
	.cfi_personality 155, _rust_eh_personality
	.cfi_lsda 16, Lexception6
	pushq	%rbp
	.cfi_def_cfa_offset 16
	.cfi_offset %rbp, -16
	movq	%rsp, %rbp
	.cfi_def_cfa_register %rbp
	subq	$48, %rsp
	movq	%rdi, -24(%rbp)
Ltmp165:
	.loc	19 184 1 prologue_end
	movq	(%rdi), %rax
Ltmp162:
	movq	%rdi, -40(%rbp)
	movq	%rax, %rdi
	callq	__ZN4core3ptr13drop_in_place17h0dfffc2cfa51e354E
Ltmp163:
	jmp	LBB55_3
LBB55_1:
	addq	$48, %rsp
	popq	%rbp
	retq
LBB55_2:
	movq	-16(%rbp), %rdi
	callq	__Unwind_Resume
	ud2
LBB55_3:
	.loc	19 0 1 is_stmt 0
	movq	-40(%rbp), %rax
	.loc	19 184 1
	movq	(%rax), %rdi
	callq	__ZN5alloc5alloc8box_free17h818fd4124e21c1eaE
	jmp	LBB55_1
LBB55_4:
	.loc	19 0 1
	movq	-40(%rbp), %rax
	.loc	19 184 1
	movq	(%rax), %rdi
	callq	__ZN5alloc5alloc8box_free17h818fd4124e21c1eaE
	jmp	LBB55_2
Ltmp166:
LBB55_5:
Ltmp164:
	.loc	19 0 1
	movq	%rax, -16(%rbp)
	movl	%edx, -8(%rbp)
	jmp	LBB55_4
Lfunc_end55:
	.cfi_endproc
	.section	__TEXT,__gcc_except_tab
	.p2align	2
GCC_except_table55:
Lexception6:
	.byte	255
	.byte	255
	.byte	1
	.uleb128 Lcst_end6-Lcst_begin6
Lcst_begin6:
	.uleb128 Ltmp162-Lfunc_begin55
	.uleb128 Ltmp163-Ltmp162
	.uleb128 Ltmp164-Lfunc_begin55
	.byte	0
	.uleb128 Ltmp163-Lfunc_begin55
	.uleb128 Lfunc_end55-Ltmp163
	.byte	0
	.byte	0
Lcst_end6:
	.p2align	2

	.section	__TEXT,__text,regular,pure_instructions
	.p2align	4, 0x90
__ZN4core3ptr13drop_in_place17h55ba1b7547172fdeE:
Lfunc_begin56:
	.loc	19 184 0 is_stmt 1
	.cfi_startproc
	.cfi_personality 155, _rust_eh_personality
	.cfi_lsda 16, Lexception7
	pushq	%rbp
	.cfi_def_cfa_offset 16
	.cfi_offset %rbp, -16
	movq	%rsp, %rbp
	.cfi_def_cfa_register %rbp
	subq	$48, %rsp
	movq	%rdi, -24(%rbp)
Ltmp167:
	movq	%rdi, -40(%rbp)
Ltmp170:
	.loc	19 184 1 prologue_end
	callq	__ZN4core3ptr13drop_in_place17h93916c91d09b0e70E
Ltmp168:
	jmp	LBB56_4
LBB56_1:
	movq	-16(%rbp), %rdi
	callq	__Unwind_Resume
	ud2
LBB56_2:
	addq	$48, %rsp
	popq	%rbp
	retq
LBB56_3:
	.loc	19 0 1 is_stmt 0
	movq	-40(%rbp), %rax
	.loc	19 184 1
	addq	$24, %rax
	movq	%rax, %rdi
	callq	__ZN4core3ptr13drop_in_place17h93916c91d09b0e70E
	jmp	LBB56_1
LBB56_4:
	.loc	19 0 1
	movq	-40(%rbp), %rax
	.loc	19 184 1
	addq	$24, %rax
	movq	%rax, %rdi
	callq	__ZN4core3ptr13drop_in_place17h93916c91d09b0e70E
	jmp	LBB56_2
Ltmp171:
LBB56_5:
Ltmp169:
	.loc	19 0 1
	movq	%rax, -16(%rbp)
	movl	%edx, -8(%rbp)
	jmp	LBB56_3
Lfunc_end56:
	.cfi_endproc
	.section	__TEXT,__gcc_except_tab
	.p2align	2
GCC_except_table56:
Lexception7:
	.byte	255
	.byte	255
	.byte	1
	.uleb128 Lcst_end7-Lcst_begin7
Lcst_begin7:
	.uleb128 Ltmp167-Lfunc_begin56
	.uleb128 Ltmp168-Ltmp167
	.uleb128 Ltmp169-Lfunc_begin56
	.byte	0
	.uleb128 Ltmp168-Lfunc_begin56
	.uleb128 Lfunc_end56-Ltmp168
	.byte	0
	.byte	0
Lcst_end7:
	.p2align	2

	.section	__TEXT,__text,regular,pure_instructions
	.p2align	4, 0x90
__ZN4core3ptr13drop_in_place17h6188489a31d0d6f7E:
Lfunc_begin57:
	.loc	19 184 0 is_stmt 1
	.cfi_startproc
	pushq	%rbp
	.cfi_def_cfa_offset 16
	.cfi_offset %rbp, -16
	movq	%rsp, %rbp
	.cfi_def_cfa_register %rbp
	subq	$16, %rsp
	movq	%rdi, -8(%rbp)
Ltmp172:
	.loc	19 184 1 prologue_end
	callq	__ZN77_$LT$alloc..raw_vec..RawVec$LT$T$C$A$GT$$u20$as$u20$core..ops..drop..Drop$GT$4drop17hb51461067eb8f1e2E
	addq	$16, %rsp
	popq	%rbp
	retq
Ltmp173:
Lfunc_end57:
	.cfi_endproc

	.p2align	4, 0x90
__ZN4core3ptr13drop_in_place17h6c319fd0c394efcdE:
Lfunc_begin58:
	.loc	19 184 0
	.cfi_startproc
	pushq	%rbp
	.cfi_def_cfa_offset 16
	.cfi_offset %rbp, -16
	movq	%rsp, %rbp
	.cfi_def_cfa_register %rbp
	subq	$32, %rsp
	xorl	%eax, %eax
	movl	%eax, %ecx
	movq	%rdi, -8(%rbp)
Ltmp174:
	.loc	19 184 1 prologue_end
	cmpq	$0, (%rdi)
	movl	$1, %edx
	cmovbeq	%rcx, %rdx
	cmpq	$0, %rdx
	movq	%rdi, -24(%rbp)
	jne	LBB58_2
LBB58_1:
	addq	$32, %rsp
	popq	%rbp
	retq
LBB58_2:
	.loc	19 0 1 is_stmt 0
	movq	-24(%rbp), %rax
	.loc	19 184 1
	movq	%rax, %rdi
	callq	__ZN4core3ptr13drop_in_place17h7f379c1f2302d002E
	jmp	LBB58_1
Ltmp175:
Lfunc_end58:
	.cfi_endproc

	.p2align	4, 0x90
__ZN4core3ptr13drop_in_place17h6db1e207167aefb9E:
Lfunc_begin59:
	.loc	19 184 0 is_stmt 1
	.cfi_startproc
	pushq	%rbp
	.cfi_def_cfa_offset 16
	.cfi_offset %rbp, -16
	movq	%rsp, %rbp
	.cfi_def_cfa_register %rbp
	subq	$16, %rsp
	movq	%rdi, -8(%rbp)
Ltmp176:
	.loc	19 184 1 prologue_end
	callq	__ZN77_$LT$alloc..raw_vec..RawVec$LT$T$C$A$GT$$u20$as$u20$core..ops..drop..Drop$GT$4drop17h8c85514868be05e1E
	addq	$16, %rsp
	popq	%rbp
	retq
Ltmp177:
Lfunc_end59:
	.cfi_endproc

	.p2align	4, 0x90
__ZN4core3ptr13drop_in_place17h6de65827fe3af416E:
Lfunc_begin60:
	.loc	19 184 0
	.cfi_startproc
	pushq	%rbp
	.cfi_def_cfa_offset 16
	.cfi_offset %rbp, -16
	movq	%rsp, %rbp
	.cfi_def_cfa_register %rbp
	subq	$16, %rsp
	movq	%rdi, -8(%rbp)
Ltmp178:
	.loc	19 184 1 prologue_end
	addq	$16, %rsp
	popq	%rbp
	retq
Ltmp179:
Lfunc_end60:
	.cfi_endproc

	.p2align	4, 0x90
__ZN4core3ptr13drop_in_place17h70838a3015772547E:
Lfunc_begin61:
	.loc	19 184 0
	.cfi_startproc
	pushq	%rbp
	.cfi_def_cfa_offset 16
	.cfi_offset %rbp, -16
	movq	%rsp, %rbp
	.cfi_def_cfa_register %rbp
	subq	$16, %rsp
	movq	%rdi, -8(%rbp)
Ltmp180:
	.loc	19 184 1 prologue_end
	callq	__ZN4core3ptr13drop_in_place17hc992238a64808b24E
	addq	$16, %rsp
	popq	%rbp
	retq
Ltmp181:
Lfunc_end61:
	.cfi_endproc

	.p2align	4, 0x90
__ZN4core3ptr13drop_in_place17h75d29b448c51ba68E:
Lfunc_begin62:
	.loc	19 184 0
	.cfi_startproc
	pushq	%rbp
	.cfi_def_cfa_offset 16
	.cfi_offset %rbp, -16
	movq	%rsp, %rbp
	.cfi_def_cfa_register %rbp
	subq	$16, %rsp
	movq	%rdi, -8(%rbp)
Ltmp182:
	.loc	19 184 1 prologue_end
	callq	__ZN4core3ptr13drop_in_place17h96aa418df264fdb6E
	addq	$16, %rsp
	popq	%rbp
	retq
Ltmp183:
Lfunc_end62:
	.cfi_endproc

	.p2align	4, 0x90
__ZN4core3ptr13drop_in_place17h768d23b1d8f3bd38E:
Lfunc_begin63:
	.loc	19 184 0
	.cfi_startproc
	.cfi_personality 155, _rust_eh_personality
	.cfi_lsda 16, Lexception8
	pushq	%rbp
	.cfi_def_cfa_offset 16
	.cfi_offset %rbp, -16
	movq	%rsp, %rbp
	.cfi_def_cfa_register %rbp
	subq	$48, %rsp
	movq	%rdi, -24(%rbp)
Ltmp184:
	movq	%rdi, -40(%rbp)
Ltmp187:
	.loc	19 184 1 prologue_end
	callq	__ZN66_$LT$alloc..vec..Vec$LT$T$GT$$u20$as$u20$core..ops..drop..Drop$GT$4drop17hab4c4d6d0be8af4fE
Ltmp185:
	jmp	LBB63_4
LBB63_1:
	movq	-16(%rbp), %rdi
	callq	__Unwind_Resume
	ud2
LBB63_2:
	addq	$48, %rsp
	popq	%rbp
	retq
LBB63_3:
	.loc	19 0 1 is_stmt 0
	movq	-40(%rbp), %rax
	.loc	19 184 1
	movq	%rax, %rdi
	callq	__ZN4core3ptr13drop_in_place17hb25a7bae74b8055aE
	jmp	LBB63_1
LBB63_4:
	.loc	19 0 1
	movq	-40(%rbp), %rax
	.loc	19 184 1
	movq	%rax, %rdi
	callq	__ZN4core3ptr13drop_in_place17hb25a7bae74b8055aE
	jmp	LBB63_2
Ltmp188:
LBB63_5:
Ltmp186:
	.loc	19 0 1
	movq	%rax, -16(%rbp)
	movl	%edx, -8(%rbp)
	jmp	LBB63_3
Lfunc_end63:
	.cfi_endproc
	.section	__TEXT,__gcc_except_tab
	.p2align	2
GCC_except_table63:
Lexception8:
	.byte	255
	.byte	255
	.byte	1
	.uleb128 Lcst_end8-Lcst_begin8
Lcst_begin8:
	.uleb128 Ltmp184-Lfunc_begin63
	.uleb128 Ltmp185-Ltmp184
	.uleb128 Ltmp186-Lfunc_begin63
	.byte	0
	.uleb128 Ltmp185-Lfunc_begin63
	.uleb128 Lfunc_end63-Ltmp185
	.byte	0
	.byte	0
Lcst_end8:
	.p2align	2

	.section	__TEXT,__text,regular,pure_instructions
	.p2align	4, 0x90
__ZN4core3ptr13drop_in_place17h7af37aeda8e1b0d9E:
Lfunc_begin64:
	.loc	19 184 0 is_stmt 1
	.cfi_startproc
	pushq	%rbp
	.cfi_def_cfa_offset 16
	.cfi_offset %rbp, -16
	movq	%rsp, %rbp
	.cfi_def_cfa_register %rbp
	subq	$16, %rsp
	movq	%rdi, -8(%rbp)
Ltmp189:
	.loc	19 184 1 prologue_end
	callq	__ZN166_$LT$$LT$alloc..collections..btree..map..IntoIter$LT$K$C$V$GT$$u20$as$u20$core..ops..drop..Drop$GT$..drop..DropGuard$LT$K$C$V$GT$$u20$as$u20$core..ops..drop..Drop$GT$4drop17h8c83753076fed2d8E
	addq	$16, %rsp
	popq	%rbp
	retq
Ltmp190:
Lfunc_end64:
	.cfi_endproc

	.p2align	4, 0x90
__ZN4core3ptr13drop_in_place17h7db8ea886260413fE:
Lfunc_begin65:
	.loc	19 184 0
	.cfi_startproc
	pushq	%rbp
	.cfi_def_cfa_offset 16
	.cfi_offset %rbp, -16
	movq	%rsp, %rbp
	.cfi_def_cfa_register %rbp
	subq	$16, %rsp
	movq	%rdi, -8(%rbp)
Ltmp191:
	.loc	19 184 1 prologue_end
	callq	__ZN77_$LT$alloc..raw_vec..RawVec$LT$T$C$A$GT$$u20$as$u20$core..ops..drop..Drop$GT$4drop17haa1704d85c813262E
	addq	$16, %rsp
	popq	%rbp
	retq
Ltmp192:
Lfunc_end65:
	.cfi_endproc

	.p2align	4, 0x90
__ZN4core3ptr13drop_in_place17h7f379c1f2302d002E:
Lfunc_begin66:
	.loc	19 184 0
	.cfi_startproc
	.cfi_personality 155, _rust_eh_personality
	.cfi_lsda 16, Lexception9
	pushq	%rbp
	.cfi_def_cfa_offset 16
	.cfi_offset %rbp, -16
	movq	%rsp, %rbp
	.cfi_def_cfa_register %rbp
	subq	$48, %rsp
	movq	%rdi, -24(%rbp)
Ltmp193:
	movq	%rdi, -40(%rbp)
Ltmp196:
	.loc	19 184 1 prologue_end
	callq	__ZN4core3ptr13drop_in_place17h13318a4e5e057590E
Ltmp194:
	jmp	LBB66_4
LBB66_1:
	movq	-16(%rbp), %rdi
	callq	__Unwind_Resume
	ud2
LBB66_2:
	addq	$48, %rsp
	popq	%rbp
	retq
LBB66_3:
	.loc	19 0 1 is_stmt 0
	movq	-40(%rbp), %rax
	.loc	19 184 1
	addq	$24, %rax
	movq	%rax, %rdi
	callq	__ZN4core3ptr13drop_in_place17h2b1866efd711ef6bE
	jmp	LBB66_1
LBB66_4:
	.loc	19 0 1
	movq	-40(%rbp), %rax
	.loc	19 184 1
	addq	$24, %rax
	movq	%rax, %rdi
	callq	__ZN4core3ptr13drop_in_place17h2b1866efd711ef6bE
	jmp	LBB66_2
Ltmp197:
LBB66_5:
Ltmp195:
	.loc	19 0 1
	movq	%rax, -16(%rbp)
	movl	%edx, -8(%rbp)
	jmp	LBB66_3
Lfunc_end66:
	.cfi_endproc
	.section	__TEXT,__gcc_except_tab
	.p2align	2
GCC_except_table66:
Lexception9:
	.byte	255
	.byte	255
	.byte	1
	.uleb128 Lcst_end9-Lcst_begin9
Lcst_begin9:
	.uleb128 Ltmp193-Lfunc_begin66
	.uleb128 Ltmp194-Ltmp193
	.uleb128 Ltmp195-Lfunc_begin66
	.byte	0
	.uleb128 Ltmp194-Lfunc_begin66
	.uleb128 Lfunc_end66-Ltmp194
	.byte	0
	.byte	0
Lcst_end9:
	.p2align	2

	.section	__TEXT,__text,regular,pure_instructions
	.p2align	4, 0x90
__ZN4core3ptr13drop_in_place17h8dd2b002ee7d0a25E:
Lfunc_begin67:
	.loc	19 184 0 is_stmt 1
	.cfi_startproc
	pushq	%rbp
	.cfi_def_cfa_offset 16
	.cfi_offset %rbp, -16
	movq	%rsp, %rbp
	.cfi_def_cfa_register %rbp
	subq	$16, %rsp
	movq	%rdi, -8(%rbp)
Ltmp198:
	.loc	19 184 1 prologue_end
	callq	__ZN95_$LT$alloc..collections..btree..map..IntoIter$LT$K$C$V$GT$$u20$as$u20$core..ops..drop..Drop$GT$4drop17h77241d172c372fdeE
	addq	$16, %rsp
	popq	%rbp
	retq
Ltmp199:
Lfunc_end67:
	.cfi_endproc

	.p2align	4, 0x90
__ZN4core3ptr13drop_in_place17h93916c91d09b0e70E:
Lfunc_begin68:
	.loc	19 184 0
	.cfi_startproc
	.cfi_personality 155, _rust_eh_personality
	.cfi_lsda 16, Lexception10
	pushq	%rbp
	.cfi_def_cfa_offset 16
	.cfi_offset %rbp, -16
	movq	%rsp, %rbp
	.cfi_def_cfa_register %rbp
	subq	$48, %rsp
	movq	%rdi, -24(%rbp)
Ltmp200:
	movq	%rdi, -40(%rbp)
Ltmp203:
	.loc	19 184 1 prologue_end
	callq	__ZN66_$LT$alloc..vec..Vec$LT$T$GT$$u20$as$u20$core..ops..drop..Drop$GT$4drop17hb623bb9135c28a0fE
Ltmp201:
	jmp	LBB68_4
LBB68_1:
	movq	-16(%rbp), %rdi
	callq	__Unwind_Resume
	ud2
LBB68_2:
	addq	$48, %rsp
	popq	%rbp
	retq
LBB68_3:
	.loc	19 0 1 is_stmt 0
	movq	-40(%rbp), %rax
	.loc	19 184 1
	movq	%rax, %rdi
	callq	__ZN4core3ptr13drop_in_place17h7db8ea886260413fE
	jmp	LBB68_1
LBB68_4:
	.loc	19 0 1
	movq	-40(%rbp), %rax
	.loc	19 184 1
	movq	%rax, %rdi
	callq	__ZN4core3ptr13drop_in_place17h7db8ea886260413fE
	jmp	LBB68_2
Ltmp204:
LBB68_5:
Ltmp202:
	.loc	19 0 1
	movq	%rax, -16(%rbp)
	movl	%edx, -8(%rbp)
	jmp	LBB68_3
Lfunc_end68:
	.cfi_endproc
	.section	__TEXT,__gcc_except_tab
	.p2align	2
GCC_except_table68:
Lexception10:
	.byte	255
	.byte	255
	.byte	1
	.uleb128 Lcst_end10-Lcst_begin10
Lcst_begin10:
	.uleb128 Ltmp200-Lfunc_begin68
	.uleb128 Ltmp201-Ltmp200
	.uleb128 Ltmp202-Lfunc_begin68
	.byte	0
	.uleb128 Ltmp201-Lfunc_begin68
	.uleb128 Lfunc_end68-Ltmp201
	.byte	0
	.byte	0
Lcst_end10:
	.p2align	2

	.section	__TEXT,__text,regular,pure_instructions
	.p2align	4, 0x90
__ZN4core3ptr13drop_in_place17h9608146903346ddbE:
Lfunc_begin69:
	.loc	19 184 0 is_stmt 1
	.cfi_startproc
	.cfi_personality 155, _rust_eh_personality
	.cfi_lsda 16, Lexception11
	pushq	%rbp
	.cfi_def_cfa_offset 16
	.cfi_offset %rbp, -16
	movq	%rsp, %rbp
	.cfi_def_cfa_register %rbp
	subq	$48, %rsp
	movq	%rdi, -24(%rbp)
Ltmp208:
	.loc	19 184 1 prologue_end
	movq	(%rdi), %rax
	movq	8(%rdi), %rcx
	movq	(%rcx), %rcx
Ltmp205:
	movq	%rdi, -40(%rbp)
	movq	%rax, %rdi
	callq	*%rcx
Ltmp206:
	jmp	LBB69_3
LBB69_1:
	addq	$48, %rsp
	popq	%rbp
	retq
LBB69_2:
	movq	-16(%rbp), %rdi
	callq	__Unwind_Resume
	ud2
LBB69_3:
	.loc	19 0 1 is_stmt 0
	movq	-40(%rbp), %rax
	.loc	19 184 1
	movq	(%rax), %rdi
	movq	8(%rax), %rsi
	callq	__ZN5alloc5alloc8box_free17hcf82c8db245e3a7cE
	jmp	LBB69_1
LBB69_4:
	.loc	19 0 1
	movq	-40(%rbp), %rax
	.loc	19 184 1
	movq	(%rax), %rdi
	movq	8(%rax), %rsi
	callq	__ZN5alloc5alloc8box_free17hcf82c8db245e3a7cE
	jmp	LBB69_2
Ltmp209:
LBB69_5:
Ltmp207:
	.loc	19 0 1
	movq	%rax, -16(%rbp)
	movl	%edx, -8(%rbp)
	jmp	LBB69_4
Lfunc_end69:
	.cfi_endproc
	.section	__TEXT,__gcc_except_tab
	.p2align	2
GCC_except_table69:
Lexception11:
	.byte	255
	.byte	255
	.byte	1
	.uleb128 Lcst_end11-Lcst_begin11
Lcst_begin11:
	.uleb128 Ltmp205-Lfunc_begin69
	.uleb128 Ltmp206-Ltmp205
	.uleb128 Ltmp207-Lfunc_begin69
	.byte	0
	.uleb128 Ltmp206-Lfunc_begin69
	.uleb128 Lfunc_end69-Ltmp206
	.byte	0
	.byte	0
Lcst_end11:
	.p2align	2

	.section	__TEXT,__text,regular,pure_instructions
	.p2align	4, 0x90
__ZN4core3ptr13drop_in_place17h96aa418df264fdb6E:
Lfunc_begin70:
	.loc	19 184 0 is_stmt 1
	.cfi_startproc
	pushq	%rbp
	.cfi_def_cfa_offset 16
	.cfi_offset %rbp, -16
	movq	%rsp, %rbp
	.cfi_def_cfa_register %rbp
	subq	$32, %rsp
	movq	%rdi, -8(%rbp)
Ltmp210:
	.loc	19 184 1 prologue_end
	movb	(%rdi), %al
	subb	$1, %al
	movq	%rdi, -24(%rbp)
	ja	LBB70_2
	jmp	LBB70_1
LBB70_1:
	addq	$32, %rsp
	popq	%rbp
	retq
LBB70_2:
	.loc	19 0 1 is_stmt 0
	movq	-24(%rbp), %rax
	.loc	19 184 1
	addq	$8, %rax
	movq	%rax, %rdi
	callq	__ZN4core3ptr13drop_in_place17h55ad1edd1bf11bbaE
	jmp	LBB70_1
Ltmp211:
Lfunc_end70:
	.cfi_endproc

	.p2align	4, 0x90
__ZN4core3ptr13drop_in_place17h9bd091b2ec3be350E:
Lfunc_begin71:
	.loc	19 184 0 is_stmt 1
	.cfi_startproc
	.cfi_personality 155, _rust_eh_personality
	.cfi_lsda 16, Lexception12
	pushq	%rbp
	.cfi_def_cfa_offset 16
	.cfi_offset %rbp, -16
	movq	%rsp, %rbp
	.cfi_def_cfa_register %rbp
	subq	$48, %rsp
	movq	%rdi, -24(%rbp)
Ltmp212:
	movq	%rdi, -40(%rbp)
Ltmp215:
	.loc	19 184 1 prologue_end
	callq	__ZN66_$LT$std..ffi..c_str..CString$u20$as$u20$core..ops..drop..Drop$GT$4drop17h9482c99ab4fe55acE
Ltmp213:
	jmp	LBB71_4
LBB71_1:
	movq	-16(%rbp), %rdi
	callq	__Unwind_Resume
	ud2
LBB71_2:
	addq	$48, %rsp
	popq	%rbp
	retq
LBB71_3:
	.loc	19 0 1 is_stmt 0
	movq	-40(%rbp), %rax
	.loc	19 184 1
	movq	%rax, %rdi
	callq	__ZN4core3ptr13drop_in_place17h260a347273fb8a92E
	jmp	LBB71_1
LBB71_4:
	.loc	19 0 1
	movq	-40(%rbp), %rax
	.loc	19 184 1
	movq	%rax, %rdi
	callq	__ZN4core3ptr13drop_in_place17h260a347273fb8a92E
	jmp	LBB71_2
Ltmp216:
LBB71_5:
Ltmp214:
	.loc	19 0 1
	movq	%rax, -16(%rbp)
	movl	%edx, -8(%rbp)
	jmp	LBB71_3
Lfunc_end71:
	.cfi_endproc
	.section	__TEXT,__gcc_except_tab
	.p2align	2
GCC_except_table71:
Lexception12:
	.byte	255
	.byte	255
	.byte	1
	.uleb128 Lcst_end12-Lcst_begin12
Lcst_begin12:
	.uleb128 Ltmp212-Lfunc_begin71
	.uleb128 Ltmp213-Ltmp212
	.uleb128 Ltmp214-Lfunc_begin71
	.byte	0
	.uleb128 Ltmp213-Lfunc_begin71
	.uleb128 Lfunc_end71-Ltmp213
	.byte	0
	.byte	0
Lcst_end12:
	.p2align	2

	.section	__TEXT,__text,regular,pure_instructions
	.p2align	4, 0x90
__ZN4core3ptr13drop_in_place17h9c3934bc948bc3a3E:
Lfunc_begin72:
	.loc	19 184 0 is_stmt 1
	.cfi_startproc
	pushq	%rbp
	.cfi_def_cfa_offset 16
	.cfi_offset %rbp, -16
	movq	%rsp, %rbp
	.cfi_def_cfa_register %rbp
	subq	$32, %rsp
	xorl	%eax, %eax
	movl	%eax, %ecx
	movq	%rdi, -8(%rbp)
Ltmp217:
	.loc	19 184 1 prologue_end
	cmpq	$0, (%rdi)
	movl	$1, %edx
	cmovbeq	%rcx, %rdx
	cmpq	$0, %rdx
	movq	%rdi, -24(%rbp)
	jne	LBB72_2
LBB72_1:
	addq	$32, %rsp
	popq	%rbp
	retq
LBB72_2:
	.loc	19 0 1 is_stmt 0
	movq	-24(%rbp), %rdi
	.loc	19 184 1
	callq	__ZN4core3ptr13drop_in_place17h9bd091b2ec3be350E
	jmp	LBB72_1
Ltmp218:
Lfunc_end72:
	.cfi_endproc

	.p2align	4, 0x90
__ZN4core3ptr13drop_in_place17h9e5af68509e47e27E:
Lfunc_begin73:
	.loc	19 184 0 is_stmt 1
	.cfi_startproc
	.cfi_personality 155, _rust_eh_personality
	.cfi_lsda 16, Lexception13
	pushq	%rbp
	.cfi_def_cfa_offset 16
	.cfi_offset %rbp, -16
	movq	%rsp, %rbp
	.cfi_def_cfa_register %rbp
	subq	$48, %rsp
	movq	%rdi, -24(%rbp)
Ltmp222:
	.loc	19 184 1 prologue_end
	movq	(%rdi), %rax
	movq	8(%rdi), %rcx
	movq	(%rcx), %rcx
Ltmp219:
	movq	%rdi, -40(%rbp)
	movq	%rax, %rdi
	callq	*%rcx
Ltmp220:
	jmp	LBB73_3
LBB73_1:
	addq	$48, %rsp
	popq	%rbp
	retq
LBB73_2:
	movq	-16(%rbp), %rdi
	callq	__Unwind_Resume
	ud2
LBB73_3:
	.loc	19 0 1 is_stmt 0
	movq	-40(%rbp), %rax
	.loc	19 184 1
	movq	(%rax), %rdi
	movq	8(%rax), %rsi
	callq	__ZN5alloc5alloc8box_free17h125f9c632de20b97E
	jmp	LBB73_1
LBB73_4:
	.loc	19 0 1
	movq	-40(%rbp), %rax
	.loc	19 184 1
	movq	(%rax), %rdi
	movq	8(%rax), %rsi
	callq	__ZN5alloc5alloc8box_free17h125f9c632de20b97E
	jmp	LBB73_2
Ltmp223:
LBB73_5:
Ltmp221:
	.loc	19 0 1
	movq	%rax, -16(%rbp)
	movl	%edx, -8(%rbp)
	jmp	LBB73_4
Lfunc_end73:
	.cfi_endproc
	.section	__TEXT,__gcc_except_tab
	.p2align	2
GCC_except_table73:
Lexception13:
	.byte	255
	.byte	255
	.byte	1
	.uleb128 Lcst_end13-Lcst_begin13
Lcst_begin13:
	.uleb128 Ltmp219-Lfunc_begin73
	.uleb128 Ltmp220-Ltmp219
	.uleb128 Ltmp221-Lfunc_begin73
	.byte	0
	.uleb128 Ltmp220-Lfunc_begin73
	.uleb128 Lfunc_end73-Ltmp220
	.byte	0
	.byte	0
Lcst_end13:
	.p2align	2

	.section	__TEXT,__text,regular,pure_instructions
	.p2align	4, 0x90
__ZN4core3ptr13drop_in_place17hb25a7bae74b8055aE:
Lfunc_begin74:
	.loc	19 184 0 is_stmt 1
	.cfi_startproc
	pushq	%rbp
	.cfi_def_cfa_offset 16
	.cfi_offset %rbp, -16
	movq	%rsp, %rbp
	.cfi_def_cfa_register %rbp
	subq	$16, %rsp
	movq	%rdi, -8(%rbp)
Ltmp224:
	.loc	19 184 1 prologue_end
	callq	__ZN77_$LT$alloc..raw_vec..RawVec$LT$T$C$A$GT$$u20$as$u20$core..ops..drop..Drop$GT$4drop17hd775b4718ffa0450E
	addq	$16, %rsp
	popq	%rbp
	retq
Ltmp225:
Lfunc_end74:
	.cfi_endproc

	.p2align	4, 0x90
__ZN4core3ptr13drop_in_place17hba0894c5d8aa4e56E:
Lfunc_begin75:
	.loc	19 184 0
	.cfi_startproc
	.cfi_personality 155, _rust_eh_personality
	.cfi_lsda 16, Lexception14
	pushq	%rbp
	.cfi_def_cfa_offset 16
	.cfi_offset %rbp, -16
	movq	%rsp, %rbp
	.cfi_def_cfa_register %rbp
	subq	$48, %rsp
	movq	%rdi, -24(%rbp)
Ltmp226:
	movq	%rdi, -40(%rbp)
Ltmp229:
	.loc	19 184 1 prologue_end
	callq	__ZN66_$LT$alloc..vec..Vec$LT$T$GT$$u20$as$u20$core..ops..drop..Drop$GT$4drop17hc815571e8e4b58b9E
Ltmp227:
	jmp	LBB75_4
LBB75_1:
	movq	-16(%rbp), %rdi
	callq	__Unwind_Resume
	ud2
LBB75_2:
	addq	$48, %rsp
	popq	%rbp
	retq
LBB75_3:
	.loc	19 0 1 is_stmt 0
	movq	-40(%rbp), %rax
	.loc	19 184 1
	movq	%rax, %rdi
	callq	__ZN4core3ptr13drop_in_place17h6188489a31d0d6f7E
	jmp	LBB75_1
LBB75_4:
	.loc	19 0 1
	movq	-40(%rbp), %rax
	.loc	19 184 1
	movq	%rax, %rdi
	callq	__ZN4core3ptr13drop_in_place17h6188489a31d0d6f7E
	jmp	LBB75_2
Ltmp230:
LBB75_5:
Ltmp228:
	.loc	19 0 1
	movq	%rax, -16(%rbp)
	movl	%edx, -8(%rbp)
	jmp	LBB75_3
Lfunc_end75:
	.cfi_endproc
	.section	__TEXT,__gcc_except_tab
	.p2align	2
GCC_except_table75:
Lexception14:
	.byte	255
	.byte	255
	.byte	1
	.uleb128 Lcst_end14-Lcst_begin14
Lcst_begin14:
	.uleb128 Ltmp226-Lfunc_begin75
	.uleb128 Ltmp227-Ltmp226
	.uleb128 Ltmp228-Lfunc_begin75
	.byte	0
	.uleb128 Ltmp227-Lfunc_begin75
	.uleb128 Lfunc_end75-Ltmp227
	.byte	0
	.byte	0
Lcst_end14:
	.p2align	2

	.section	__TEXT,__text,regular,pure_instructions
	.p2align	4, 0x90
__ZN4core3ptr13drop_in_place17hbb9e6279f719c5e1E:
Lfunc_begin76:
	.loc	19 184 0 is_stmt 1
	.cfi_startproc
	.cfi_personality 155, _rust_eh_personality
	.cfi_lsda 16, Lexception15
	pushq	%rbp
	.cfi_def_cfa_offset 16
	.cfi_offset %rbp, -16
	movq	%rsp, %rbp
	.cfi_def_cfa_register %rbp
	subq	$80, %rsp
	xorl	%eax, %eax
	movq	%rdi, -32(%rbp)
	movq	%rsi, -24(%rbp)
Ltmp237:
	.loc	19 184 1 prologue_end
	testb	$1, %al
	movq	%rdi, -72(%rbp)
	movq	%rsi, -80(%rbp)
	jne	LBB76_7
	jmp	LBB76_12
LBB76_1:
	addq	$80, %rsp
	popq	%rbp
	retq
LBB76_2:
	movq	-16(%rbp), %rdi
	callq	__Unwind_Resume
	ud2
LBB76_3:
	movq	-56(%rbp), %rax
	shlq	$4, %rax
	movq	-72(%rbp), %rcx
	addq	%rax, %rcx
	movq	-56(%rbp), %rax
	addq	$1, %rax
	movq	%rax, -56(%rbp)
	movq	%rcx, %rdi
	callq	__ZN4core3ptr13drop_in_place17h9e5af68509e47e27E
LBB76_4:
	.loc	19 0 1 is_stmt 0
	movq	-80(%rbp), %rax
	.loc	19 184 1
	cmpq	%rax, -56(%rbp)
	je	LBB76_2
	jmp	LBB76_3
LBB76_5:
	movq	-56(%rbp), %rax
	movq	%rax, %rcx
	shlq	$4, %rcx
	movq	-72(%rbp), %rdx
	addq	%rcx, %rdx
	incq	%rax
	movq	%rax, -56(%rbp)
Ltmp234:
	movq	%rdx, %rdi
	callq	__ZN4core3ptr13drop_in_place17h9e5af68509e47e27E
Ltmp235:
	jmp	LBB76_6
LBB76_6:
	.loc	19 0 1
	movq	-80(%rbp), %rax
	.loc	19 184 1
	cmpq	%rax, -56(%rbp)
	je	LBB76_1
	jmp	LBB76_5
LBB76_7:
	movq	$0, -56(%rbp)
	jmp	LBB76_6
LBB76_8:
	movq	-48(%rbp), %rdi
	movq	-48(%rbp), %rax
	addq	$16, %rax
	movq	%rax, -48(%rbp)
	callq	__ZN4core3ptr13drop_in_place17h9e5af68509e47e27E
LBB76_9:
	movq	-48(%rbp), %rax
	cmpq	-40(%rbp), %rax
	je	LBB76_2
	jmp	LBB76_8
LBB76_10:
	movq	-48(%rbp), %rax
	movq	%rax, %rcx
	addq	$16, %rcx
	movq	%rcx, -48(%rbp)
Ltmp231:
	movq	%rax, %rdi
	callq	__ZN4core3ptr13drop_in_place17h9e5af68509e47e27E
Ltmp232:
	jmp	LBB76_11
LBB76_11:
	movq	-48(%rbp), %rax
	cmpq	-40(%rbp), %rax
	je	LBB76_1
	jmp	LBB76_10
LBB76_12:
	.loc	19 0 1
	movq	-72(%rbp), %rax
	.loc	19 184 1
	movq	%rax, -48(%rbp)
	movq	-80(%rbp), %rax
	shlq	$4, %rax
	addq	-48(%rbp), %rax
	movq	%rax, -40(%rbp)
	jmp	LBB76_11
Ltmp238:
LBB76_13:
Ltmp233:
	.loc	19 0 1
	movq	%rax, -16(%rbp)
	movl	%edx, -8(%rbp)
	jmp	LBB76_9
LBB76_14:
Ltmp236:
	movq	%rax, -16(%rbp)
	movl	%edx, -8(%rbp)
	jmp	LBB76_4
Lfunc_end76:
	.cfi_endproc
	.section	__TEXT,__gcc_except_tab
	.p2align	2
GCC_except_table76:
Lexception15:
	.byte	255
	.byte	255
	.byte	1
	.uleb128 Lcst_end15-Lcst_begin15
Lcst_begin15:
	.uleb128 Lfunc_begin76-Lfunc_begin76
	.uleb128 Ltmp234-Lfunc_begin76
	.byte	0
	.byte	0
	.uleb128 Ltmp234-Lfunc_begin76
	.uleb128 Ltmp235-Ltmp234
	.uleb128 Ltmp236-Lfunc_begin76
	.byte	0
	.uleb128 Ltmp235-Lfunc_begin76
	.uleb128 Ltmp231-Ltmp235
	.byte	0
	.byte	0
	.uleb128 Ltmp231-Lfunc_begin76
	.uleb128 Ltmp232-Ltmp231
	.uleb128 Ltmp233-Lfunc_begin76
	.byte	0
Lcst_end15:
	.p2align	2

	.section	__TEXT,__text,regular,pure_instructions
	.p2align	4, 0x90
__ZN4core3ptr13drop_in_place17hc992238a64808b24E:
Lfunc_begin77:
	.loc	19 184 0 is_stmt 1
	.cfi_startproc
	pushq	%rbp
	.cfi_def_cfa_offset 16
	.cfi_offset %rbp, -16
	movq	%rsp, %rbp
	.cfi_def_cfa_register %rbp
	subq	$16, %rsp
	movq	%rdi, -8(%rbp)
Ltmp239:
	.loc	19 184 1 prologue_end
	callq	__ZN95_$LT$alloc..collections..btree..map..BTreeMap$LT$K$C$V$GT$$u20$as$u20$core..ops..drop..Drop$GT$4drop17hb00570f41c759a75E
	addq	$16, %rsp
	popq	%rbp
	retq
Ltmp240:
Lfunc_end77:
	.cfi_endproc

	.p2align	4, 0x90
__ZN4core3ptr13drop_in_place17hd5f0b4ca12b97fe4E:
Lfunc_begin78:
	.loc	19 184 0
	.cfi_startproc
	pushq	%rbp
	.cfi_def_cfa_offset 16
	.cfi_offset %rbp, -16
	movq	%rsp, %rbp
	.cfi_def_cfa_register %rbp
	subq	$16, %rsp
	movq	%rdi, -8(%rbp)
Ltmp241:
	.loc	19 184 1 prologue_end
	callq	__ZN70_$LT$std..sys..unix..fd..FileDesc$u20$as$u20$core..ops..drop..Drop$GT$4drop17h633394f1cf9da1c8E
	addq	$16, %rsp
	popq	%rbp
	retq
Ltmp242:
Lfunc_end78:
	.cfi_endproc

	.p2align	4, 0x90
__ZN4core3ptr13drop_in_place17hdcaac0265edfe309E:
Lfunc_begin79:
	.loc	19 184 0
	.cfi_startproc
	pushq	%rbp
	.cfi_def_cfa_offset 16
	.cfi_offset %rbp, -16
	movq	%rsp, %rbp
	.cfi_def_cfa_register %rbp
	subq	$32, %rsp
	movq	%rdi, -8(%rbp)
Ltmp243:
	.loc	19 184 1 prologue_end
	cmpq	$0, (%rdi)
	movq	%rdi, -24(%rbp)
	je	LBB79_2
	jmp	LBB79_3
LBB79_1:
	addq	$32, %rsp
	popq	%rbp
	retq
LBB79_2:
	.loc	19 0 1 is_stmt 0
	movq	-24(%rbp), %rax
	.loc	19 184 1
	addq	$8, %rax
	movq	%rax, %rdi
	callq	__ZN4core3ptr13drop_in_place17h55ba1b7547172fdeE
	jmp	LBB79_1
LBB79_3:
	.loc	19 0 1
	movq	-24(%rbp), %rax
	.loc	19 184 1
	addq	$8, %rax
	movq	%rax, %rdi
	callq	__ZN4core3ptr13drop_in_place17h75d29b448c51ba68E
	jmp	LBB79_1
Ltmp244:
Lfunc_end79:
	.cfi_endproc

	.p2align	4, 0x90
__ZN4core3ptr13drop_in_place17he57a0a7186af8249E:
Lfunc_begin80:
	.loc	19 184 0 is_stmt 1
	.cfi_startproc
	.cfi_personality 155, _rust_eh_personality
	.cfi_lsda 16, Lexception16
	pushq	%rbp
	.cfi_def_cfa_offset 16
	.cfi_offset %rbp, -16
	movq	%rsp, %rbp
	.cfi_def_cfa_register %rbp
	subq	$48, %rsp
	movq	%rdi, -24(%rbp)
Ltmp245:
	movq	%rdi, -40(%rbp)
Ltmp269:
	.loc	19 184 1 prologue_end
	callq	__ZN4core3ptr13drop_in_place17h9bd091b2ec3be350E
Ltmp246:
	jmp	LBB80_18
LBB80_1:
	movq	-16(%rbp), %rdi
	callq	__Unwind_Resume
	ud2
LBB80_2:
	addq	$48, %rsp
	popq	%rbp
	retq
LBB80_3:
	.loc	19 0 1 is_stmt 0
	movq	-40(%rbp), %rax
	.loc	19 184 1
	addq	$168, %rax
	movq	%rax, %rdi
	callq	__ZN4core3ptr13drop_in_place17h085934c2f74fe5f9E
	jmp	LBB80_1
LBB80_4:
	.loc	19 0 1
	movq	-40(%rbp), %rax
	.loc	19 184 1
	addq	$160, %rax
	movq	%rax, %rdi
	callq	__ZN4core3ptr13drop_in_place17h085934c2f74fe5f9E
	jmp	LBB80_3
LBB80_5:
	.loc	19 0 1
	movq	-40(%rbp), %rax
	.loc	19 184 1
	addq	$152, %rax
	movq	%rax, %rdi
	callq	__ZN4core3ptr13drop_in_place17h085934c2f74fe5f9E
	jmp	LBB80_4
LBB80_6:
	.loc	19 0 1
	movq	-40(%rbp), %rax
	.loc	19 184 1
	addq	$112, %rax
	movq	%rax, %rdi
	callq	__ZN4core3ptr13drop_in_place17hba0894c5d8aa4e56E
	jmp	LBB80_5
LBB80_7:
	.loc	19 0 1
	movq	-40(%rbp), %rax
	.loc	19 184 1
	addq	$96, %rax
	movq	%rax, %rdi
	callq	__ZN4core3ptr13drop_in_place17h9c3934bc948bc3a3E
	jmp	LBB80_6
LBB80_8:
	.loc	19 0 1
	movq	-40(%rbp), %rax
	.loc	19 184 1
	addq	$64, %rax
	movq	%rax, %rdi
	callq	__ZN4core3ptr13drop_in_place17h70838a3015772547E
	jmp	LBB80_7
LBB80_9:
	.loc	19 0 1
	movq	-40(%rbp), %rax
	.loc	19 184 1
	addq	$40, %rax
	movq	%rax, %rdi
	callq	__ZN4core3ptr13drop_in_place17h10d6b9fbfdd564e1E
	jmp	LBB80_8
LBB80_10:
	.loc	19 0 1
	movq	-40(%rbp), %rax
	.loc	19 184 1
	addq	$16, %rax
	movq	%rax, %rdi
	callq	__ZN4core3ptr13drop_in_place17hf456796389b68119E
	jmp	LBB80_9
LBB80_11:
	.loc	19 0 1
	movq	-40(%rbp), %rax
	.loc	19 184 1
	addq	$168, %rax
	movq	%rax, %rdi
	callq	__ZN4core3ptr13drop_in_place17h085934c2f74fe5f9E
	jmp	LBB80_2
LBB80_12:
	.loc	19 0 1
	movq	-40(%rbp), %rax
	.loc	19 184 1
	addq	$160, %rax
Ltmp266:
	movq	%rax, %rdi
	callq	__ZN4core3ptr13drop_in_place17h085934c2f74fe5f9E
Ltmp267:
	jmp	LBB80_11
LBB80_13:
	.loc	19 0 1
	movq	-40(%rbp), %rax
	.loc	19 184 1
	addq	$152, %rax
Ltmp263:
	movq	%rax, %rdi
	callq	__ZN4core3ptr13drop_in_place17h085934c2f74fe5f9E
Ltmp264:
	jmp	LBB80_12
LBB80_14:
	.loc	19 0 1
	movq	-40(%rbp), %rax
	.loc	19 184 1
	addq	$112, %rax
Ltmp260:
	movq	%rax, %rdi
	callq	__ZN4core3ptr13drop_in_place17hba0894c5d8aa4e56E
Ltmp261:
	jmp	LBB80_13
LBB80_15:
	.loc	19 0 1
	movq	-40(%rbp), %rax
	.loc	19 184 1
	addq	$96, %rax
Ltmp257:
	movq	%rax, %rdi
	callq	__ZN4core3ptr13drop_in_place17h9c3934bc948bc3a3E
Ltmp258:
	jmp	LBB80_14
LBB80_16:
	.loc	19 0 1
	movq	-40(%rbp), %rax
	.loc	19 184 1
	addq	$64, %rax
Ltmp254:
	movq	%rax, %rdi
	callq	__ZN4core3ptr13drop_in_place17h70838a3015772547E
Ltmp255:
	jmp	LBB80_15
LBB80_17:
	.loc	19 0 1
	movq	-40(%rbp), %rax
	.loc	19 184 1
	addq	$40, %rax
Ltmp251:
	movq	%rax, %rdi
	callq	__ZN4core3ptr13drop_in_place17h10d6b9fbfdd564e1E
Ltmp252:
	jmp	LBB80_16
LBB80_18:
	.loc	19 0 1
	movq	-40(%rbp), %rax
	.loc	19 184 1
	addq	$16, %rax
Ltmp248:
	movq	%rax, %rdi
	callq	__ZN4core3ptr13drop_in_place17hf456796389b68119E
Ltmp249:
	jmp	LBB80_17
Ltmp270:
LBB80_19:
Ltmp247:
	.loc	19 0 1
	movq	%rax, -16(%rbp)
	movl	%edx, -8(%rbp)
	jmp	LBB80_10
LBB80_20:
Ltmp250:
	movq	%rax, -16(%rbp)
	movl	%edx, -8(%rbp)
	jmp	LBB80_9
LBB80_21:
Ltmp253:
	movq	%rax, -16(%rbp)
	movl	%edx, -8(%rbp)
	jmp	LBB80_8
LBB80_22:
Ltmp256:
	movq	%rax, -16(%rbp)
	movl	%edx, -8(%rbp)
	jmp	LBB80_7
LBB80_23:
Ltmp259:
	movq	%rax, -16(%rbp)
	movl	%edx, -8(%rbp)
	jmp	LBB80_6
LBB80_24:
Ltmp262:
	movq	%rax, -16(%rbp)
	movl	%edx, -8(%rbp)
	jmp	LBB80_5
LBB80_25:
Ltmp265:
	movq	%rax, -16(%rbp)
	movl	%edx, -8(%rbp)
	jmp	LBB80_4
LBB80_26:
Ltmp268:
	movq	%rax, -16(%rbp)
	movl	%edx, -8(%rbp)
	jmp	LBB80_3
Lfunc_end80:
	.cfi_endproc
	.section	__TEXT,__gcc_except_tab
	.p2align	2
GCC_except_table80:
Lexception16:
	.byte	255
	.byte	255
	.byte	1
	.uleb128 Lcst_end16-Lcst_begin16
Lcst_begin16:
	.uleb128 Ltmp245-Lfunc_begin80
	.uleb128 Ltmp246-Ltmp245
	.uleb128 Ltmp247-Lfunc_begin80
	.byte	0
	.uleb128 Ltmp246-Lfunc_begin80
	.uleb128 Ltmp266-Ltmp246
	.byte	0
	.byte	0
	.uleb128 Ltmp266-Lfunc_begin80
	.uleb128 Ltmp267-Ltmp266
	.uleb128 Ltmp268-Lfunc_begin80
	.byte	0
	.uleb128 Ltmp263-Lfunc_begin80
	.uleb128 Ltmp264-Ltmp263
	.uleb128 Ltmp265-Lfunc_begin80
	.byte	0
	.uleb128 Ltmp260-Lfunc_begin80
	.uleb128 Ltmp261-Ltmp260
	.uleb128 Ltmp262-Lfunc_begin80
	.byte	0
	.uleb128 Ltmp257-Lfunc_begin80
	.uleb128 Ltmp258-Ltmp257
	.uleb128 Ltmp259-Lfunc_begin80
	.byte	0
	.uleb128 Ltmp254-Lfunc_begin80
	.uleb128 Ltmp255-Ltmp254
	.uleb128 Ltmp256-Lfunc_begin80
	.byte	0
	.uleb128 Ltmp251-Lfunc_begin80
	.uleb128 Ltmp252-Ltmp251
	.uleb128 Ltmp253-Lfunc_begin80
	.byte	0
	.uleb128 Ltmp248-Lfunc_begin80
	.uleb128 Ltmp249-Ltmp248
	.uleb128 Ltmp250-Lfunc_begin80
	.byte	0
Lcst_end16:
	.p2align	2

	.section	__TEXT,__text,regular,pure_instructions
	.p2align	4, 0x90
__ZN4core3ptr13drop_in_place17hedb5cc0d21e89978E:
Lfunc_begin81:
	.loc	19 184 0 is_stmt 1
	.cfi_startproc
	pushq	%rbp
	.cfi_def_cfa_offset 16
	.cfi_offset %rbp, -16
	movq	%rsp, %rbp
	.cfi_def_cfa_register %rbp
	subq	$32, %rsp
	movq	%rdi, -16(%rbp)
	movq	%rsi, -8(%rbp)
Ltmp271:
	.loc	19 184 1 prologue_end
	callq	*(%rsi)
	addq	$32, %rsp
	popq	%rbp
	retq
Ltmp272:
Lfunc_end81:
	.cfi_endproc

	.p2align	4, 0x90
__ZN4core3ptr13drop_in_place17hf456796389b68119E:
Lfunc_begin82:
	.loc	19 184 0
	.cfi_startproc
	.cfi_personality 155, _rust_eh_personality
	.cfi_lsda 16, Lexception17
	pushq	%rbp
	.cfi_def_cfa_offset 16
	.cfi_offset %rbp, -16
	movq	%rsp, %rbp
	.cfi_def_cfa_register %rbp
	subq	$48, %rsp
	movq	%rdi, -24(%rbp)
Ltmp273:
	movq	%rdi, -40(%rbp)
Ltmp276:
	.loc	19 184 1 prologue_end
	callq	__ZN66_$LT$alloc..vec..Vec$LT$T$GT$$u20$as$u20$core..ops..drop..Drop$GT$4drop17h1c400aa01cb711a4E
Ltmp274:
	jmp	LBB82_4
LBB82_1:
	movq	-16(%rbp), %rdi
	callq	__Unwind_Resume
	ud2
LBB82_2:
	addq	$48, %rsp
	popq	%rbp
	retq
LBB82_3:
	.loc	19 0 1 is_stmt 0
	movq	-40(%rbp), %rax
	.loc	19 184 1
	movq	%rax, %rdi
	callq	__ZN4core3ptr13drop_in_place17h6db1e207167aefb9E
	jmp	LBB82_1
LBB82_4:
	.loc	19 0 1
	movq	-40(%rbp), %rax
	.loc	19 184 1
	movq	%rax, %rdi
	callq	__ZN4core3ptr13drop_in_place17h6db1e207167aefb9E
	jmp	LBB82_2
Ltmp277:
LBB82_5:
Ltmp275:
	.loc	19 0 1
	movq	%rax, -16(%rbp)
	movl	%edx, -8(%rbp)
	jmp	LBB82_3
Lfunc_end82:
	.cfi_endproc
	.section	__TEXT,__gcc_except_tab
	.p2align	2
GCC_except_table82:
Lexception17:
	.byte	255
	.byte	255
	.byte	1
	.uleb128 Lcst_end17-Lcst_begin17
Lcst_begin17:
	.uleb128 Ltmp273-Lfunc_begin82
	.uleb128 Ltmp274-Ltmp273
	.uleb128 Ltmp275-Lfunc_begin82
	.byte	0
	.uleb128 Ltmp274-Lfunc_begin82
	.uleb128 Lfunc_end82-Ltmp274
	.byte	0
	.byte	0
Lcst_end17:
	.p2align	2

	.section	__TEXT,__text,regular,pure_instructions
	.p2align	4, 0x90
__ZN4core3ptr13drop_in_place17hfa9330695e7a8593E:
Lfunc_begin83:
	.loc	19 184 0 is_stmt 1
	.cfi_startproc
	pushq	%rbp
	.cfi_def_cfa_offset 16
	.cfi_offset %rbp, -16
	movq	%rsp, %rbp
	.cfi_def_cfa_register %rbp
	subq	$32, %rsp
	movq	%rdi, -16(%rbp)
	movq	%rsi, -8(%rbp)
Ltmp278:
	.loc	19 184 1 prologue_end
	callq	*(%rsi)
	addq	$32, %rsp
	popq	%rbp
	retq
Ltmp279:
Lfunc_end83:
	.cfi_endproc

	.p2align	4, 0x90
__ZN4core3ptr19swap_nonoverlapping17hd8697d7d735d4341E:
Lfunc_begin84:
	.loc	19 430 0
	.cfi_startproc
	pushq	%rbp
	.cfi_def_cfa_offset 16
	.cfi_offset %rbp, -16
	movq	%rsp, %rbp
	.cfi_def_cfa_register %rbp
	subq	$96, %rsp
	movq	%rdi, -56(%rbp)
	movq	%rsi, -48(%rbp)
	movq	%rdx, -40(%rbp)
Ltmp280:
	.loc	19 440 13 prologue_end
	movq	%rdi, -32(%rbp)
Ltmp281:
	.loc	19 441 13
	movq	%rsi, -24(%rbp)
Ltmp282:
	.loc	16 310 5
	movq	$16, -8(%rbp)
	movq	-8(%rbp), %rax
	movq	%rdx, -64(%rbp)
	movq	%rdi, -72(%rbp)
	movq	%rsi, -80(%rbp)
	movq	%rax, -88(%rbp)
Ltmp283:
	.loc	16 0 5 is_stmt 0
	movq	-88(%rbp), %rax
	movq	-64(%rbp), %rcx
	.loc	19 442 15 is_stmt 1
	imulq	%rcx, %rax
	movq	%rax, -16(%rbp)
	movq	-72(%rbp), %rdi
	movq	-80(%rbp), %rsi
Ltmp284:
	.loc	19 445 14
	movq	%rax, %rdx
	callq	__ZN4core3ptr25swap_nonoverlapping_bytes17h45361bb5ef620077E
Ltmp285:
	.loc	19 446 2
	addq	$96, %rsp
	popq	%rbp
	retq
Ltmp286:
Lfunc_end84:
	.cfi_endproc

	.p2align	4, 0x90
__ZN4core3ptr20slice_from_raw_parts17h8f2fb586068e9551E:
Lfunc_begin85:
	.loc	19 264 0
	.cfi_startproc
	pushq	%rbp
	.cfi_def_cfa_offset 16
	.cfi_offset %rbp, -16
	movq	%rsp, %rbp
	.cfi_def_cfa_register %rbp
	subq	$48, %rsp
	movq	%rdi, -16(%rbp)
	movq	%rsi, -8(%rbp)
Ltmp287:
	.loc	19 268 26 prologue_end
	movq	%rdi, -32(%rbp)
	movq	%rsi, -24(%rbp)
	.loc	19 268 14 is_stmt 0
	movq	-32(%rbp), %rax
	movq	-24(%rbp), %rcx
	movq	%rax, -48(%rbp)
	movq	%rcx, -40(%rbp)
	movq	-48(%rbp), %rax
	movq	-40(%rbp), %rdx
	.loc	19 269 2 is_stmt 1
	addq	$48, %rsp
	popq	%rbp
	retq
Ltmp288:
Lfunc_end85:
	.cfi_endproc

	.p2align	4, 0x90
__ZN4core3ptr20slice_from_raw_parts17h9ecb93295149d21bE:
Lfunc_begin86:
	.loc	19 264 0
	.cfi_startproc
	pushq	%rbp
	.cfi_def_cfa_offset 16
	.cfi_offset %rbp, -16
	movq	%rsp, %rbp
	.cfi_def_cfa_register %rbp
	subq	$48, %rsp
	movq	%rdi, -16(%rbp)
	movq	%rsi, -8(%rbp)
Ltmp289:
	.loc	19 268 26 prologue_end
	movq	%rdi, -32(%rbp)
	movq	%rsi, -24(%rbp)
	.loc	19 268 14 is_stmt 0
	movq	-32(%rbp), %rax
	movq	-24(%rbp), %rcx
	movq	%rax, -48(%rbp)
	movq	%rcx, -40(%rbp)
	movq	-48(%rbp), %rax
	movq	-40(%rbp), %rdx
	.loc	19 269 2 is_stmt 1
	addq	$48, %rsp
	popq	%rbp
	retq
Ltmp290:
Lfunc_end86:
	.cfi_endproc

	.p2align	4, 0x90
__ZN4core3ptr20slice_from_raw_parts17hc81367c10a65411aE:
Lfunc_begin87:
	.loc	19 264 0
	.cfi_startproc
	pushq	%rbp
	.cfi_def_cfa_offset 16
	.cfi_offset %rbp, -16
	movq	%rsp, %rbp
	.cfi_def_cfa_register %rbp
	subq	$48, %rsp
	movq	%rdi, -16(%rbp)
	movq	%rsi, -8(%rbp)
Ltmp291:
	.loc	19 268 26 prologue_end
	movq	%rdi, -32(%rbp)
	movq	%rsi, -24(%rbp)
	.loc	19 268 14 is_stmt 0
	movq	-32(%rbp), %rax
	movq	-24(%rbp), %rcx
	movq	%rax, -48(%rbp)
	movq	%rcx, -40(%rbp)
	movq	-48(%rbp), %rax
	movq	-40(%rbp), %rdx
	.loc	19 269 2 is_stmt 1
	addq	$48, %rsp
	popq	%rbp
	retq
Ltmp292:
Lfunc_end87:
	.cfi_endproc

	.p2align	4, 0x90
__ZN4core3ptr23swap_nonoverlapping_one17hc85da2f86aebe603E:
Lfunc_begin88:
	.loc	19 449 0
	.cfi_startproc
	.cfi_personality 155, _rust_eh_personality
	.cfi_lsda 16, Lexception18
	pushq	%rbp
	.cfi_def_cfa_offset 16
	.cfi_offset %rbp, -16
	movq	%rsp, %rbp
	.cfi_def_cfa_register %rbp
	subq	$112, %rsp
	movq	%rdi, -56(%rbp)
	movq	%rsi, -48(%rbp)
Ltmp298:
	.loc	19 452 8 prologue_end
	movb	$0, -57(%rbp)
Ltmp299:
	.loc	16 310 5
	movq	$16, -8(%rbp)
	movq	-8(%rbp), %rax
	movq	%rdi, -72(%rbp)
	movq	%rsi, -80(%rbp)
	movq	%rax, -88(%rbp)
Ltmp300:
	.loc	19 452 8
	jmp	LBB88_2
LBB88_1:
	.loc	19 449 1
	movq	-24(%rbp), %rdi
	callq	__Unwind_Resume
	ud2
LBB88_2:
	.loc	19 0 1 is_stmt 0
	movq	-88(%rbp), %rax
	.loc	19 452 8 is_stmt 1
	cmpq	$32, %rax
	.loc	19 452 5 is_stmt 0
	jb	LBB88_4
	.loc	19 0 5
	movq	-72(%rbp), %rdi
	movq	-80(%rbp), %rsi
	.loc	19 462 18 is_stmt 1
	movl	$1, %edx
	callq	__ZN4core3ptr19swap_nonoverlapping17hd8697d7d735d4341E
	jmp	LBB88_8
LBB88_4:
	.loc	19 456 21
	movb	$1, -57(%rbp)
	movq	-72(%rbp), %rdi
	callq	__ZN4core3ptr4read17h17943164a22cc995E
	movq	%rax, -40(%rbp)
	movq	%rdx, -32(%rbp)
	movq	%rax, -96(%rbp)
	movq	%rdx, -104(%rbp)
Ltmp293:
	.loc	19 0 21 is_stmt 0
	movl	$1, %edx
	movq	-80(%rbp), %rdi
	movq	-72(%rbp), %rsi
Ltmp301:
	.loc	19 457 13 is_stmt 1
	callq	__ZN4core10intrinsics19copy_nonoverlapping17h936a6b26fb4e8fbbE
Ltmp294:
	jmp	LBB88_6
LBB88_6:
	.loc	19 458 22
	movb	$0, -57(%rbp)
Ltmp295:
	movq	-80(%rbp), %rdi
	movq	-96(%rbp), %rsi
	movq	-104(%rbp), %rdx
	.loc	19 458 13 is_stmt 0
	callq	__ZN4core3ptr5write17h6199c15cbfafca7bE
Ltmp296:
	jmp	LBB88_7
Ltmp302:
LBB88_7:
	.loc	19 459 9 is_stmt 1
	movb	$0, -57(%rbp)
	.loc	19 452 5
	jmp	LBB88_9
LBB88_8:
	jmp	LBB88_9
LBB88_9:
	.loc	19 464 2
	addq	$112, %rsp
	popq	%rbp
	retq
LBB88_10:
	.loc	19 459 9
	movb	$0, -57(%rbp)
	jmp	LBB88_1
LBB88_11:
	testb	$1, -57(%rbp)
	jne	LBB88_10
	jmp	LBB88_1
Ltmp303:
LBB88_12:
Ltmp297:
	.loc	19 0 9 is_stmt 0
	movq	%rax, -24(%rbp)
	movl	%edx, -16(%rbp)
	jmp	LBB88_11
Lfunc_end88:
	.cfi_endproc
	.section	__TEXT,__gcc_except_tab
	.p2align	2
GCC_except_table88:
Lexception18:
	.byte	255
	.byte	255
	.byte	1
	.uleb128 Lcst_end18-Lcst_begin18
Lcst_begin18:
	.uleb128 Lfunc_begin88-Lfunc_begin88
	.uleb128 Ltmp293-Lfunc_begin88
	.byte	0
	.byte	0
	.uleb128 Ltmp293-Lfunc_begin88
	.uleb128 Ltmp296-Ltmp293
	.uleb128 Ltmp297-Lfunc_begin88
	.byte	0
Lcst_end18:
	.p2align	2

	.section	__TEXT,__text,regular,pure_instructions
	.p2align	4, 0x90
__ZN4core3ptr24slice_from_raw_parts_mut17h268fe44fe8f134dcE:
Lfunc_begin89:
	.loc	19 300 0 is_stmt 1
	.cfi_startproc
	pushq	%rbp
	.cfi_def_cfa_offset 16
	.cfi_offset %rbp, -16
	movq	%rsp, %rbp
	.cfi_def_cfa_register %rbp
	subq	$48, %rsp
	movq	%rdi, -16(%rbp)
	movq	%rsi, -8(%rbp)
Ltmp304:
	.loc	19 303 26 prologue_end
	movq	%rdi, -32(%rbp)
	movq	%rsi, -24(%rbp)
	.loc	19 303 14 is_stmt 0
	movq	-32(%rbp), %rax
	movq	-24(%rbp), %rcx
	movq	%rax, -48(%rbp)
	movq	%rcx, -40(%rbp)
	movq	-48(%rbp), %rax
	movq	-40(%rbp), %rdx
	.loc	19 304 2 is_stmt 1
	addq	$48, %rsp
	popq	%rbp
	retq
Ltmp305:
Lfunc_end89:
	.cfi_endproc

	.p2align	4, 0x90
__ZN4core3ptr24slice_from_raw_parts_mut17h2ab296c9a711a337E:
Lfunc_begin90:
	.loc	19 300 0
	.cfi_startproc
	pushq	%rbp
	.cfi_def_cfa_offset 16
	.cfi_offset %rbp, -16
	movq	%rsp, %rbp
	.cfi_def_cfa_register %rbp
	subq	$48, %rsp
	movq	%rdi, -16(%rbp)
	movq	%rsi, -8(%rbp)
Ltmp306:
	.loc	19 303 26 prologue_end
	movq	%rdi, -32(%rbp)
	movq	%rsi, -24(%rbp)
	.loc	19 303 14 is_stmt 0
	movq	-32(%rbp), %rax
	movq	-24(%rbp), %rcx
	movq	%rax, -48(%rbp)
	movq	%rcx, -40(%rbp)
	movq	-48(%rbp), %rax
	movq	-40(%rbp), %rdx
	.loc	19 304 2 is_stmt 1
	addq	$48, %rsp
	popq	%rbp
	retq
Ltmp307:
Lfunc_end90:
	.cfi_endproc

	.p2align	4, 0x90
__ZN4core3ptr24slice_from_raw_parts_mut17h5a650f211ec5f8c6E:
Lfunc_begin91:
	.loc	19 300 0
	.cfi_startproc
	pushq	%rbp
	.cfi_def_cfa_offset 16
	.cfi_offset %rbp, -16
	movq	%rsp, %rbp
	.cfi_def_cfa_register %rbp
	subq	$48, %rsp
	movq	%rdi, -16(%rbp)
	movq	%rsi, -8(%rbp)
Ltmp308:
	.loc	19 303 26 prologue_end
	movq	%rdi, -32(%rbp)
	movq	%rsi, -24(%rbp)
	.loc	19 303 14 is_stmt 0
	movq	-32(%rbp), %rax
	movq	-24(%rbp), %rcx
	movq	%rax, -48(%rbp)
	movq	%rcx, -40(%rbp)
	movq	-48(%rbp), %rax
	movq	-40(%rbp), %rdx
	.loc	19 304 2 is_stmt 1
	addq	$48, %rsp
	popq	%rbp
	retq
Ltmp309:
Lfunc_end91:
	.cfi_endproc

	.p2align	4, 0x90
__ZN4core3ptr24slice_from_raw_parts_mut17hada80b113dbc2580E:
Lfunc_begin92:
	.loc	19 300 0
	.cfi_startproc
	pushq	%rbp
	.cfi_def_cfa_offset 16
	.cfi_offset %rbp, -16
	movq	%rsp, %rbp
	.cfi_def_cfa_register %rbp
	subq	$48, %rsp
	movq	%rdi, -16(%rbp)
	movq	%rsi, -8(%rbp)
Ltmp310:
	.loc	19 303 26 prologue_end
	movq	%rdi, -32(%rbp)
	movq	%rsi, -24(%rbp)
	.loc	19 303 14 is_stmt 0
	movq	-32(%rbp), %rax
	movq	-24(%rbp), %rcx
	movq	%rax, -48(%rbp)
	movq	%rcx, -40(%rbp)
	movq	-48(%rbp), %rax
	movq	-40(%rbp), %rdx
	.loc	19 304 2 is_stmt 1
	addq	$48, %rsp
	popq	%rbp
	retq
Ltmp311:
Lfunc_end92:
	.cfi_endproc

	.p2align	4, 0x90
__ZN4core3ptr25swap_nonoverlapping_bytes17h45361bb5ef620077E:
Lfunc_begin93:
	.loc	19 467 0
	.cfi_startproc
	pushq	%rbp
	.cfi_def_cfa_offset 16
	.cfi_offset %rbp, -16
	movq	%rsp, %rbp
	.cfi_def_cfa_register %rbp
	andq	$-32, %rsp
	subq	$352, %rsp
	movq	%rdi, 208(%rsp)
	movq	%rsi, 216(%rsp)
	movq	%rdx, 224(%rsp)
Ltmp312:
	.loc	16 310 5 prologue_end
	movq	$32, 296(%rsp)
	movq	296(%rsp), %rax
Ltmp313:
	.loc	19 478 22
	movq	%rax, 232(%rsp)
	movq	%rdi, 104(%rsp)
	movq	%rsi, 96(%rsp)
	movq	%rdx, 88(%rsp)
	movq	%rax, 80(%rsp)
Ltmp314:
	.loc	19 483 17
	movq	$0, 120(%rsp)
LBB93_2:
	.loc	19 0 17 is_stmt 0
	movq	80(%rsp), %rax
Ltmp315:
	.loc	19 484 11 is_stmt 1
	addq	120(%rsp), %rax
	movq	88(%rsp), %rcx
	cmpq	%rcx, %rax
	.loc	19 484 5 is_stmt 0
	jbe	LBB93_4
	.loc	19 0 5
	movq	88(%rsp), %rax
	.loc	19 509 8 is_stmt 1
	cmpq	%rax, 120(%rsp)
	.loc	19 509 5 is_stmt 0
	jb	LBB93_13
	jmp	LBB93_12
LBB93_4:
	.loc	19 0 5
	leaq	128(%rsp), %rax
	movq	%rax, 304(%rsp)
	movq	%rax, 312(%rsp)
Ltmp316:
	.loc	19 488 17 is_stmt 1
	leaq	128(%rsp), %rax
	movq	%rax, 240(%rsp)
Ltmp317:
	.loc	19 497 27
	movq	120(%rsp), %rsi
	movq	104(%rsp), %rdi
	movq	%rax, 72(%rsp)
	.loc	19 497 21 is_stmt 0
	callq	__ZN4core3ptr7mut_ptr31_$LT$impl$u20$$BP$mut$u20$T$GT$3add17he4cef8eea04bdd3cE
	movq	%rax, 248(%rsp)
	movq	%rax, 64(%rsp)
Ltmp318:
	.loc	19 498 27 is_stmt 1
	movq	120(%rsp), %rsi
	movq	96(%rsp), %rdi
	.loc	19 498 21 is_stmt 0
	callq	__ZN4core3ptr7mut_ptr31_$LT$impl$u20$$BP$mut$u20$T$GT$3add17he4cef8eea04bdd3cE
	movq	%rax, 256(%rsp)
	movq	%rax, 56(%rsp)
	.loc	19 0 21
	movq	64(%rsp), %rdi
	movq	72(%rsp), %rsi
	movq	80(%rsp), %rdx
Ltmp319:
	.loc	19 502 13 is_stmt 1
	callq	__ZN4core10intrinsics19copy_nonoverlapping17h9ced25cc80d03a62E
	.loc	19 0 13 is_stmt 0
	movq	56(%rsp), %rdi
	movq	64(%rsp), %rsi
	movq	80(%rsp), %rdx
	.loc	19 503 13 is_stmt 1
	callq	__ZN4core10intrinsics19copy_nonoverlapping17h9ced25cc80d03a62E
	.loc	19 0 13 is_stmt 0
	movq	72(%rsp), %rdi
	movq	56(%rsp), %rsi
	movq	80(%rsp), %rdx
	.loc	19 504 13 is_stmt 1
	callq	__ZN4core10intrinsics19copy_nonoverlapping17h9ced25cc80d03a62E
Ltmp320:
	.loc	19 0 13 is_stmt 0
	movq	80(%rsp), %rax
	.loc	19 506 9 is_stmt 1
	addq	120(%rsp), %rax
	movq	%rax, 120(%rsp)
Ltmp321:
	.loc	19 484 5
	jmp	LBB93_2
LBB93_12:
	.loc	19 509 5
	jmp	LBB93_21
LBB93_13:
	.loc	19 0 5 is_stmt 0
	movq	88(%rsp), %rax
Ltmp322:
	.loc	19 512 19 is_stmt 1
	subq	120(%rsp), %rax
	movq	%rax, 264(%rsp)
	leaq	176(%rsp), %rcx
	movq	%rcx, 320(%rsp)
	movq	%rcx, 328(%rsp)
	movq	%rax, 48(%rsp)
	movq	%rcx, 40(%rsp)
	.loc	19 0 19 is_stmt 0
	movq	40(%rsp), %rax
Ltmp323:
	.loc	19 514 17 is_stmt 1
	movq	%rax, 272(%rsp)
Ltmp324:
	.loc	19 518 27
	movq	120(%rsp), %rsi
	movq	104(%rsp), %rdi
	movq	%rax, 32(%rsp)
	.loc	19 518 21 is_stmt 0
	callq	__ZN4core3ptr7mut_ptr31_$LT$impl$u20$$BP$mut$u20$T$GT$3add17he4cef8eea04bdd3cE
	movq	%rax, 280(%rsp)
	movq	%rax, 24(%rsp)
Ltmp325:
	.loc	19 519 27 is_stmt 1
	movq	120(%rsp), %rsi
	movq	96(%rsp), %rdi
	.loc	19 519 21 is_stmt 0
	callq	__ZN4core3ptr7mut_ptr31_$LT$impl$u20$$BP$mut$u20$T$GT$3add17he4cef8eea04bdd3cE
	movq	%rax, 288(%rsp)
	movq	%rax, 16(%rsp)
	.loc	19 0 21
	movq	24(%rsp), %rdi
	movq	32(%rsp), %rsi
	movq	48(%rsp), %rdx
Ltmp326:
	.loc	19 521 13 is_stmt 1
	callq	__ZN4core10intrinsics19copy_nonoverlapping17h9ced25cc80d03a62E
	.loc	19 0 13 is_stmt 0
	movq	16(%rsp), %rdi
	movq	24(%rsp), %rsi
	movq	48(%rsp), %rdx
	.loc	19 522 13 is_stmt 1
	callq	__ZN4core10intrinsics19copy_nonoverlapping17h9ced25cc80d03a62E
	.loc	19 0 13 is_stmt 0
	movq	32(%rsp), %rdi
	movq	16(%rsp), %rsi
	movq	48(%rsp), %rdx
	.loc	19 523 13 is_stmt 1
	callq	__ZN4core10intrinsics19copy_nonoverlapping17h9ced25cc80d03a62E
Ltmp327:
	.loc	19 509 5
	jmp	LBB93_21
Ltmp328:
LBB93_21:
	.loc	19 526 2
	movq	%rbp, %rsp
	popq	%rbp
	retq
Ltmp329:
Lfunc_end93:
	.cfi_endproc

	.p2align	4, 0x90
__ZN4core3ptr4read17h144b435dd1d50496E:
Lfunc_begin94:
	.loc	19 692 0
	.cfi_startproc
	pushq	%rbp
	.cfi_def_cfa_offset 16
	.cfi_offset %rbp, -16
	movq	%rsp, %rbp
	.cfi_def_cfa_register %rbp
	subq	$128, %rsp
	movq	%rdi, %rax
	movq	%rsi, -48(%rbp)
	movq	%rsi, -104(%rbp)
	movq	%rdi, -112(%rbp)
	movq	%rax, -120(%rbp)
	leaq	-96(%rbp), %rax
	movq	%rax, -16(%rbp)
	movq	%rax, -8(%rbp)
	movq	%rax, -128(%rbp)
	movq	-104(%rbp), %rdi
	movq	-128(%rbp), %rsi
Ltmp330:
	.loc	19 702 9 prologue_end
	movl	$1, %edx
	callq	__ZN4core10intrinsics19copy_nonoverlapping17hd379296696cdb355E
	.loc	19 703 9
	movq	-96(%rbp), %rax
	movq	%rax, -72(%rbp)
	movq	-88(%rbp), %rax
	movq	%rax, -64(%rbp)
	movq	-80(%rbp), %rax
	movq	%rax, -56(%rbp)
Ltmp331:
	.file	20 "/rustc/6c8927b0cf80ceee19386026cf9d7fd4fd9d486f/src/libcore/mem/maybe_uninit.rs"
	.loc	20 501 38
	movq	-72(%rbp), %rax
	movq	%rax, -40(%rbp)
	movq	-64(%rbp), %rax
	movq	%rax, -32(%rbp)
	movq	-56(%rbp), %rax
	movq	%rax, -24(%rbp)
Ltmp332:
	.loc	4 101 9
	movq	-40(%rbp), %rax
	movq	-112(%rbp), %rcx
	movq	%rax, (%rcx)
	movq	-32(%rbp), %rax
	movq	%rax, 8(%rcx)
	movq	-24(%rbp), %rax
	movq	%rax, 16(%rcx)
Ltmp333:
	.loc	4 0 9 is_stmt 0
	movq	-120(%rbp), %rax
	.loc	19 705 2 is_stmt 1
	addq	$128, %rsp
	popq	%rbp
	retq
Ltmp334:
Lfunc_end94:
	.cfi_endproc

	.p2align	4, 0x90
__ZN4core3ptr4read17h17943164a22cc995E:
Lfunc_begin95:
	.loc	19 692 0
	.cfi_startproc
	pushq	%rbp
	.cfi_def_cfa_offset 16
	.cfi_offset %rbp, -16
	movq	%rsp, %rbp
	.cfi_def_cfa_register %rbp
	subq	$128, %rsp
	movq	%rdi, -72(%rbp)
Ltmp335:
	.loc	20 272 6 prologue_end
	movq	-64(%rbp), %rax
	movq	-56(%rbp), %rcx
Ltmp336:
	.loc	19 694 19
	movq	%rcx, -80(%rbp)
	movq	%rax, -88(%rbp)
	movq	%rdi, -96(%rbp)
	.loc	19 0 19 is_stmt 0
	leaq	-88(%rbp), %rax
	movq	%rax, -16(%rbp)
	movq	%rax, -8(%rbp)
	movq	%rax, -104(%rbp)
	movq	-96(%rbp), %rdi
	movq	-104(%rbp), %rsi
Ltmp337:
	.loc	19 702 9 is_stmt 1
	movl	$1, %edx
	callq	__ZN4core10intrinsics19copy_nonoverlapping17h936a6b26fb4e8fbbE
	.loc	19 703 9
	movq	-88(%rbp), %rax
	movq	-80(%rbp), %rcx
	movq	%rax, -48(%rbp)
	movq	%rcx, -40(%rbp)
	movq	%rax, -32(%rbp)
	movq	%rcx, -24(%rbp)
	movq	%rax, -112(%rbp)
	movq	%rcx, -120(%rbp)
Ltmp338:
	.loc	19 0 9 is_stmt 0
	movq	-112(%rbp), %rax
	movq	-120(%rbp), %rdx
	.loc	19 705 2 is_stmt 1
	addq	$128, %rsp
	popq	%rbp
	retq
Ltmp339:
Lfunc_end95:
	.cfi_endproc

	.p2align	4, 0x90
__ZN4core3ptr4read17h2322a2ce485e9f47E:
Lfunc_begin96:
	.loc	19 692 0
	.cfi_startproc
	pushq	%rbp
	.cfi_def_cfa_offset 16
	.cfi_offset %rbp, -16
	movq	%rsp, %rbp
	.cfi_def_cfa_register %rbp
	subq	$128, %rsp
	movq	%rdi, %rax
	movq	%rsi, -48(%rbp)
	movq	%rsi, -104(%rbp)
	movq	%rdi, -112(%rbp)
	movq	%rax, -120(%rbp)
	leaq	-96(%rbp), %rax
	movq	%rax, -16(%rbp)
	movq	%rax, -8(%rbp)
	movq	%rax, -128(%rbp)
	movq	-104(%rbp), %rdi
	movq	-128(%rbp), %rsi
Ltmp340:
	.loc	19 702 9 prologue_end
	movl	$1, %edx
	callq	__ZN4core10intrinsics19copy_nonoverlapping17ha574299db4eee404E
	.loc	19 703 9
	movq	-96(%rbp), %rax
	movq	%rax, -72(%rbp)
	movq	-88(%rbp), %rax
	movq	%rax, -64(%rbp)
	movq	-80(%rbp), %rax
	movq	%rax, -56(%rbp)
Ltmp341:
	.loc	20 501 38
	movq	-72(%rbp), %rax
	movq	%rax, -40(%rbp)
	movq	-64(%rbp), %rax
	movq	%rax, -32(%rbp)
	movq	-56(%rbp), %rax
	movq	%rax, -24(%rbp)
Ltmp342:
	.loc	4 101 9
	movq	-40(%rbp), %rax
	movq	-112(%rbp), %rcx
	movq	%rax, (%rcx)
	movq	-32(%rbp), %rax
	movq	%rax, 8(%rcx)
	movq	-24(%rbp), %rax
	movq	%rax, 16(%rcx)
Ltmp343:
	.loc	4 0 9 is_stmt 0
	movq	-120(%rbp), %rax
	.loc	19 705 2 is_stmt 1
	addq	$128, %rsp
	popq	%rbp
	retq
Ltmp344:
Lfunc_end96:
	.cfi_endproc

	.p2align	4, 0x90
__ZN4core3ptr4read17h3364ca48b0c36da4E:
Lfunc_begin97:
	.loc	19 692 0
	.cfi_startproc
	pushq	%rbp
	.cfi_def_cfa_offset 16
	.cfi_offset %rbp, -16
	movq	%rsp, %rbp
	.cfi_def_cfa_register %rbp
	subq	$160, %rsp
	movq	%rdi, %rax
	movq	%rsi, -56(%rbp)
	movq	%rsi, -128(%rbp)
	movq	%rdi, -136(%rbp)
	movq	%rax, -144(%rbp)
	leaq	-120(%rbp), %rax
	movq	%rax, -16(%rbp)
	movq	%rax, -8(%rbp)
	movq	%rax, -152(%rbp)
	movq	-128(%rbp), %rdi
	movq	-152(%rbp), %rsi
Ltmp345:
	.loc	19 702 9 prologue_end
	movl	$1, %edx
	callq	__ZN4core10intrinsics19copy_nonoverlapping17h29fd699bf3ff652bE
	.loc	19 703 9
	movq	-120(%rbp), %rax
	movq	%rax, -88(%rbp)
	movq	-112(%rbp), %rax
	movq	%rax, -80(%rbp)
	movq	-104(%rbp), %rax
	movq	%rax, -72(%rbp)
	movq	-96(%rbp), %rax
	movq	%rax, -64(%rbp)
Ltmp346:
	.loc	20 501 38
	movq	-88(%rbp), %rax
	movq	%rax, -48(%rbp)
	movq	-80(%rbp), %rax
	movq	%rax, -40(%rbp)
	movq	-72(%rbp), %rax
	movq	%rax, -32(%rbp)
	movq	-64(%rbp), %rax
	movq	%rax, -24(%rbp)
Ltmp347:
	.loc	4 101 9
	movq	-48(%rbp), %rax
	movq	-136(%rbp), %rcx
	movq	%rax, (%rcx)
	movq	-40(%rbp), %rax
	movq	%rax, 8(%rcx)
	movq	-32(%rbp), %rax
	movq	%rax, 16(%rcx)
	movq	-24(%rbp), %rax
	movq	%rax, 24(%rcx)
Ltmp348:
	.loc	4 0 9 is_stmt 0
	movq	-144(%rbp), %rax
	.loc	19 705 2 is_stmt 1
	addq	$160, %rsp
	popq	%rbp
	retq
Ltmp349:
Lfunc_end97:
	.cfi_endproc

	.p2align	4, 0x90
__ZN4core3ptr4read17hcc142ed38def3583E:
Lfunc_begin98:
	.loc	19 692 0
	.cfi_startproc
	pushq	%rbp
	.cfi_def_cfa_offset 16
	.cfi_offset %rbp, -16
	movq	%rsp, %rbp
	.cfi_def_cfa_register %rbp
	subq	$128, %rsp
	movq	%rdi, %rax
	movq	%rsi, -48(%rbp)
	movq	%rsi, -104(%rbp)
	movq	%rdi, -112(%rbp)
	movq	%rax, -120(%rbp)
	leaq	-96(%rbp), %rax
	movq	%rax, -16(%rbp)
	movq	%rax, -8(%rbp)
	movq	%rax, -128(%rbp)
	movq	-104(%rbp), %rdi
	movq	-128(%rbp), %rsi
Ltmp350:
	.loc	19 702 9 prologue_end
	movl	$1, %edx
	callq	__ZN4core10intrinsics19copy_nonoverlapping17h3a2e7098b8e39e8eE
	.loc	19 703 9
	movq	-96(%rbp), %rax
	movq	%rax, -72(%rbp)
	movq	-88(%rbp), %rax
	movq	%rax, -64(%rbp)
	movq	-80(%rbp), %rax
	movq	%rax, -56(%rbp)
Ltmp351:
	.loc	20 501 38
	movq	-72(%rbp), %rax
	movq	%rax, -40(%rbp)
	movq	-64(%rbp), %rax
	movq	%rax, -32(%rbp)
	movq	-56(%rbp), %rax
	movq	%rax, -24(%rbp)
Ltmp352:
	.loc	4 101 9
	movq	-40(%rbp), %rax
	movq	-112(%rbp), %rcx
	movq	%rax, (%rcx)
	movq	-32(%rbp), %rax
	movq	%rax, 8(%rcx)
	movq	-24(%rbp), %rax
	movq	%rax, 16(%rcx)
Ltmp353:
	.loc	4 0 9 is_stmt 0
	movq	-120(%rbp), %rax
	.loc	19 705 2 is_stmt 1
	addq	$128, %rsp
	popq	%rbp
	retq
Ltmp354:
Lfunc_end98:
	.cfi_endproc

	.p2align	4, 0x90
__ZN4core3ptr4read17hd5a9c3db9a131856E:
Lfunc_begin99:
	.loc	19 692 0
	.cfi_startproc
	pushq	%rbp
	.cfi_def_cfa_offset 16
	.cfi_offset %rbp, -16
	movq	%rsp, %rbp
	.cfi_def_cfa_register %rbp
	subq	$128, %rsp
	movq	%rdi, %rax
	movq	%rsi, -48(%rbp)
	movq	%rsi, -104(%rbp)
	movq	%rdi, -112(%rbp)
	movq	%rax, -120(%rbp)
	leaq	-96(%rbp), %rax
	movq	%rax, -16(%rbp)
	movq	%rax, -8(%rbp)
	movq	%rax, -128(%rbp)
	movq	-104(%rbp), %rdi
	movq	-128(%rbp), %rsi
Ltmp355:
	.loc	19 702 9 prologue_end
	movl	$1, %edx
	callq	__ZN4core10intrinsics19copy_nonoverlapping17hb2d1437714ca4973E
	.loc	19 703 9
	movq	-96(%rbp), %rax
	movq	%rax, -72(%rbp)
	movq	-88(%rbp), %rax
	movq	%rax, -64(%rbp)
	movq	-80(%rbp), %rax
	movq	%rax, -56(%rbp)
Ltmp356:
	.loc	20 501 38
	movq	-72(%rbp), %rax
	movq	%rax, -40(%rbp)
	movq	-64(%rbp), %rax
	movq	%rax, -32(%rbp)
	movq	-56(%rbp), %rax
	movq	%rax, -24(%rbp)
Ltmp357:
	.loc	4 101 9
	movq	-40(%rbp), %rax
	movq	-112(%rbp), %rcx
	movq	%rax, (%rcx)
	movq	-32(%rbp), %rax
	movq	%rax, 8(%rcx)
	movq	-24(%rbp), %rax
	movq	%rax, 16(%rcx)
Ltmp358:
	.loc	4 0 9 is_stmt 0
	movq	-120(%rbp), %rax
	.loc	19 705 2 is_stmt 1
	addq	$128, %rsp
	popq	%rbp
	retq
Ltmp359:
Lfunc_end99:
	.cfi_endproc

	.p2align	4, 0x90
__ZN4core3ptr4read17hd6725328ced4bd02E:
Lfunc_begin100:
	.loc	19 692 0
	.cfi_startproc
	pushq	%rbp
	.cfi_def_cfa_offset 16
	.cfi_offset %rbp, -16
	movq	%rsp, %rbp
	.cfi_def_cfa_register %rbp
	subq	$160, %rsp
	movq	%rdi, %rax
	movq	%rsi, -56(%rbp)
	movq	%rsi, -128(%rbp)
	movq	%rdi, -136(%rbp)
	movq	%rax, -144(%rbp)
	leaq	-120(%rbp), %rax
	movq	%rax, -16(%rbp)
	movq	%rax, -8(%rbp)
	movq	%rax, -152(%rbp)
	movq	-128(%rbp), %rdi
	movq	-152(%rbp), %rsi
Ltmp360:
	.loc	19 702 9 prologue_end
	movl	$1, %edx
	callq	__ZN4core10intrinsics19copy_nonoverlapping17hbb07d213f1ba9805E
	.loc	19 703 9
	movq	-120(%rbp), %rax
	movq	%rax, -88(%rbp)
	movq	-112(%rbp), %rax
	movq	%rax, -80(%rbp)
	movq	-104(%rbp), %rax
	movq	%rax, -72(%rbp)
	movq	-96(%rbp), %rax
	movq	%rax, -64(%rbp)
Ltmp361:
	.loc	20 501 38
	movq	-88(%rbp), %rax
	movq	%rax, -48(%rbp)
	movq	-80(%rbp), %rax
	movq	%rax, -40(%rbp)
	movq	-72(%rbp), %rax
	movq	%rax, -32(%rbp)
	movq	-64(%rbp), %rax
	movq	%rax, -24(%rbp)
Ltmp362:
	.loc	4 101 9
	movq	-48(%rbp), %rax
	movq	-136(%rbp), %rcx
	movq	%rax, (%rcx)
	movq	-40(%rbp), %rax
	movq	%rax, 8(%rcx)
	movq	-32(%rbp), %rax
	movq	%rax, 16(%rcx)
	movq	-24(%rbp), %rax
	movq	%rax, 24(%rcx)
Ltmp363:
	.loc	4 0 9 is_stmt 0
	movq	-144(%rbp), %rax
	.loc	19 705 2 is_stmt 1
	addq	$160, %rsp
	popq	%rbp
	retq
Ltmp364:
Lfunc_end100:
	.cfi_endproc

	.p2align	4, 0x90
__ZN4core3ptr4read17hd69d215e8b91fe2dE:
Lfunc_begin101:
	.loc	19 692 0
	.cfi_startproc
	pushq	%rbp
	.cfi_def_cfa_offset 16
	.cfi_offset %rbp, -16
	movq	%rsp, %rbp
	.cfi_def_cfa_register %rbp
	subq	$128, %rsp
	movq	%rdi, %rax
	movq	%rsi, -48(%rbp)
	movq	%rsi, -104(%rbp)
	movq	%rdi, -112(%rbp)
	movq	%rax, -120(%rbp)
	leaq	-96(%rbp), %rax
	movq	%rax, -16(%rbp)
	movq	%rax, -8(%rbp)
	movq	%rax, -128(%rbp)
	movq	-104(%rbp), %rdi
	movq	-128(%rbp), %rsi
Ltmp365:
	.loc	19 702 9 prologue_end
	movl	$1, %edx
	callq	__ZN4core10intrinsics19copy_nonoverlapping17h1104a01053c122e3E
	.loc	19 703 9
	movq	-96(%rbp), %rax
	movq	%rax, -72(%rbp)
	movq	-88(%rbp), %rax
	movq	%rax, -64(%rbp)
	movq	-80(%rbp), %rax
	movq	%rax, -56(%rbp)
Ltmp366:
	.loc	20 501 38
	movq	-72(%rbp), %rax
	movq	%rax, -40(%rbp)
	movq	-64(%rbp), %rax
	movq	%rax, -32(%rbp)
	movq	-56(%rbp), %rax
	movq	%rax, -24(%rbp)
Ltmp367:
	.loc	4 101 9
	movq	-40(%rbp), %rax
	movq	-112(%rbp), %rcx
	movq	%rax, (%rcx)
	movq	-32(%rbp), %rax
	movq	%rax, 8(%rcx)
	movq	-24(%rbp), %rax
	movq	%rax, 16(%rcx)
Ltmp368:
	.loc	4 0 9 is_stmt 0
	movq	-120(%rbp), %rax
	.loc	19 705 2 is_stmt 1
	addq	$128, %rsp
	popq	%rbp
	retq
Ltmp369:
Lfunc_end101:
	.cfi_endproc

	.p2align	4, 0x90
__ZN4core3ptr5write17h6199c15cbfafca7bE:
Lfunc_begin102:
	.loc	19 895 0
	.cfi_startproc
	pushq	%rbp
	.cfi_def_cfa_offset 16
	.cfi_offset %rbp, -16
	movq	%rsp, %rbp
	.cfi_def_cfa_register %rbp
	subq	$32, %rsp
	movq	%rdi, -24(%rbp)
	movq	%rsi, -16(%rbp)
	movq	%rdx, -8(%rbp)
Ltmp370:
	.loc	19 901 51 prologue_end
	movq	%rsi, (%rdi)
	movq	%rdx, 8(%rdi)
	.loc	19 902 2
	addq	$32, %rsp
	popq	%rbp
	retq
Ltmp371:
Lfunc_end102:
	.cfi_endproc

	.p2align	4, 0x90
__ZN4core3ptr5write17heba24e35d5c52146E:
Lfunc_begin103:
	.loc	19 895 0
	.cfi_startproc
	pushq	%rbp
	.cfi_def_cfa_offset 16
	.cfi_offset %rbp, -16
	movq	%rsp, %rbp
	.cfi_def_cfa_register %rbp
	subq	$16, %rsp
	movq	%rdi, -8(%rbp)
Ltmp372:
	.loc	19 901 51 prologue_end
	movq	(%rsi), %rax
	movq	%rax, (%rdi)
	movq	8(%rsi), %rax
	movq	%rax, 8(%rdi)
	movq	16(%rsi), %rax
	movq	%rax, 16(%rdi)
	movq	24(%rsi), %rax
	movq	%rax, 24(%rdi)
	.loc	19 902 2
	addq	$16, %rsp
	popq	%rbp
	retq
Ltmp373:
Lfunc_end103:
	.cfi_endproc

	.p2align	4, 0x90
__ZN4core3ptr6unique15Unique$LT$T$GT$13new_unchecked17h43cfc06608792fc3E:
Lfunc_begin104:
	.file	21 "/rustc/6c8927b0cf80ceee19386026cf9d7fd4fd9d486f/src/libcore/ptr/unique.rs"
	.loc	21 89 0
	.cfi_startproc
	pushq	%rbp
	.cfi_def_cfa_offset 16
	.cfi_offset %rbp, -16
	movq	%rsp, %rbp
	.cfi_def_cfa_register %rbp
	subq	$24, %rsp
	movq	%rdi, -8(%rbp)
Ltmp374:
	.loc	21 91 18 prologue_end
	movq	%rdi, -24(%rbp)
	.loc	21 92 6
	movq	-24(%rbp), %rax
	addq	$24, %rsp
	popq	%rbp
	retq
Ltmp375:
Lfunc_end104:
	.cfi_endproc

	.p2align	4, 0x90
__ZN4core3ptr6unique15Unique$LT$T$GT$4cast17h137ccf9c30e7648cE:
Lfunc_begin105:
	.loc	21 137 0
	.cfi_startproc
	pushq	%rbp
	.cfi_def_cfa_offset 16
	.cfi_offset %rbp, -16
	movq	%rsp, %rbp
	.cfi_def_cfa_register %rbp
	subq	$32, %rsp
	movq	%rdi, -8(%rbp)
Ltmp376:
	.loc	21 141 40 prologue_end
	callq	__ZN4core3ptr6unique15Unique$LT$T$GT$6as_ptr17h3ee0267635cc8541E
	movq	%rax, -16(%rbp)
	.loc	21 0 40 is_stmt 0
	movq	-16(%rbp), %rax
	.loc	21 141 18
	movq	%rax, %rdi
	callq	__ZN4core3ptr6unique15Unique$LT$T$GT$13new_unchecked17h43cfc06608792fc3E
	movq	%rax, -24(%rbp)
	.loc	21 0 18
	movq	-24(%rbp), %rax
	.loc	21 142 6 is_stmt 1
	addq	$32, %rsp
	popq	%rbp
	retq
Ltmp377:
Lfunc_end105:
	.cfi_endproc

	.p2align	4, 0x90
__ZN4core3ptr6unique15Unique$LT$T$GT$4cast17h19d8c3e3fabdf881E:
Lfunc_begin106:
	.loc	21 137 0
	.cfi_startproc
	pushq	%rbp
	.cfi_def_cfa_offset 16
	.cfi_offset %rbp, -16
	movq	%rsp, %rbp
	.cfi_def_cfa_register %rbp
	subq	$32, %rsp
	movq	%rdi, -16(%rbp)
	movq	%rsi, -8(%rbp)
Ltmp378:
	.loc	21 141 40 prologue_end
	callq	__ZN4core3ptr6unique15Unique$LT$T$GT$6as_ptr17hb93c8bbb1f2f9638E
	movq	%rax, -24(%rbp)
	.loc	21 0 40 is_stmt 0
	movq	-24(%rbp), %rax
	.loc	21 141 18
	movq	%rax, %rdi
	callq	__ZN4core3ptr6unique15Unique$LT$T$GT$13new_unchecked17h43cfc06608792fc3E
	movq	%rax, -32(%rbp)
	.loc	21 0 18
	movq	-32(%rbp), %rax
	.loc	21 142 6 is_stmt 1
	addq	$32, %rsp
	popq	%rbp
	retq
Ltmp379:
Lfunc_end106:
	.cfi_endproc

	.p2align	4, 0x90
__ZN4core3ptr6unique15Unique$LT$T$GT$4cast17h615e5400fd6349fdE:
Lfunc_begin107:
	.loc	21 137 0
	.cfi_startproc
	pushq	%rbp
	.cfi_def_cfa_offset 16
	.cfi_offset %rbp, -16
	movq	%rsp, %rbp
	.cfi_def_cfa_register %rbp
	subq	$32, %rsp
	movq	%rdi, -8(%rbp)
Ltmp380:
	.loc	21 141 40 prologue_end
	callq	__ZN4core3ptr6unique15Unique$LT$T$GT$6as_ptr17h116d6720cc952b9bE
	movq	%rax, -16(%rbp)
	.loc	21 0 40 is_stmt 0
	movq	-16(%rbp), %rdi
	.loc	21 141 18
	callq	__ZN4core3ptr6unique15Unique$LT$T$GT$13new_unchecked17h43cfc06608792fc3E
	movq	%rax, -24(%rbp)
	.loc	21 0 18
	movq	-24(%rbp), %rax
	.loc	21 142 6 is_stmt 1
	addq	$32, %rsp
	popq	%rbp
	retq
Ltmp381:
Lfunc_end107:
	.cfi_endproc

	.p2align	4, 0x90
__ZN4core3ptr6unique15Unique$LT$T$GT$4cast17h6a35ebbb16c5c273E:
Lfunc_begin108:
	.loc	21 137 0
	.cfi_startproc
	pushq	%rbp
	.cfi_def_cfa_offset 16
	.cfi_offset %rbp, -16
	movq	%rsp, %rbp
	.cfi_def_cfa_register %rbp
	subq	$32, %rsp
	movq	%rdi, -16(%rbp)
	movq	%rsi, -8(%rbp)
Ltmp382:
	.loc	21 141 40 prologue_end
	callq	__ZN4core3ptr6unique15Unique$LT$T$GT$6as_ptr17h9d0dc6cad354b38dE
	movq	%rax, -24(%rbp)
	.loc	21 0 40 is_stmt 0
	movq	-24(%rbp), %rax
	.loc	21 141 18
	movq	%rax, %rdi
	callq	__ZN4core3ptr6unique15Unique$LT$T$GT$13new_unchecked17h43cfc06608792fc3E
	movq	%rax, -32(%rbp)
	.loc	21 0 18
	movq	-32(%rbp), %rax
	.loc	21 142 6 is_stmt 1
	addq	$32, %rsp
	popq	%rbp
	retq
Ltmp383:
Lfunc_end108:
	.cfi_endproc

	.p2align	4, 0x90
__ZN4core3ptr6unique15Unique$LT$T$GT$4cast17ha85af74a00d091b9E:
Lfunc_begin109:
	.loc	21 137 0
	.cfi_startproc
	pushq	%rbp
	.cfi_def_cfa_offset 16
	.cfi_offset %rbp, -16
	movq	%rsp, %rbp
	.cfi_def_cfa_register %rbp
	subq	$32, %rsp
	movq	%rdi, -8(%rbp)
Ltmp384:
	.loc	21 141 40 prologue_end
	callq	__ZN4core3ptr6unique15Unique$LT$T$GT$6as_ptr17h63478c297b7749cfE
	movq	%rax, -16(%rbp)
	.loc	21 0 40 is_stmt 0
	movq	-16(%rbp), %rax
	.loc	21 141 18
	movq	%rax, %rdi
	callq	__ZN4core3ptr6unique15Unique$LT$T$GT$13new_unchecked17h43cfc06608792fc3E
	movq	%rax, -24(%rbp)
	.loc	21 0 18
	movq	-24(%rbp), %rax
	.loc	21 142 6 is_stmt 1
	addq	$32, %rsp
	popq	%rbp
	retq
Ltmp385:
Lfunc_end109:
	.cfi_endproc

	.p2align	4, 0x90
__ZN4core3ptr6unique15Unique$LT$T$GT$4cast17hab9d261e7ccf9e1eE:
Lfunc_begin110:
	.loc	21 137 0
	.cfi_startproc
	pushq	%rbp
	.cfi_def_cfa_offset 16
	.cfi_offset %rbp, -16
	movq	%rsp, %rbp
	.cfi_def_cfa_register %rbp
	subq	$32, %rsp
	movq	%rdi, -8(%rbp)
Ltmp386:
	.loc	21 141 40 prologue_end
	callq	__ZN4core3ptr6unique15Unique$LT$T$GT$6as_ptr17he9a22d77eb4ed871E
	movq	%rax, -16(%rbp)
	.loc	21 0 40 is_stmt 0
	movq	-16(%rbp), %rax
	.loc	21 141 18
	movq	%rax, %rdi
	callq	__ZN4core3ptr6unique15Unique$LT$T$GT$13new_unchecked17h43cfc06608792fc3E
	movq	%rax, -24(%rbp)
	.loc	21 0 18
	movq	-24(%rbp), %rax
	.loc	21 142 6 is_stmt 1
	addq	$32, %rsp
	popq	%rbp
	retq
Ltmp387:
Lfunc_end110:
	.cfi_endproc

	.p2align	4, 0x90
__ZN4core3ptr6unique15Unique$LT$T$GT$4cast17hed0c9c09408e27efE:
Lfunc_begin111:
	.loc	21 137 0
	.cfi_startproc
	pushq	%rbp
	.cfi_def_cfa_offset 16
	.cfi_offset %rbp, -16
	movq	%rsp, %rbp
	.cfi_def_cfa_register %rbp
	subq	$32, %rsp
	movq	%rdi, -8(%rbp)
Ltmp388:
	.loc	21 141 40 prologue_end
	callq	__ZN4core3ptr6unique15Unique$LT$T$GT$6as_ptr17h63c044a7b2f5e417E
	movq	%rax, -16(%rbp)
	.loc	21 0 40 is_stmt 0
	movq	-16(%rbp), %rax
	.loc	21 141 18
	movq	%rax, %rdi
	callq	__ZN4core3ptr6unique15Unique$LT$T$GT$13new_unchecked17h43cfc06608792fc3E
	movq	%rax, -24(%rbp)
	.loc	21 0 18
	movq	-24(%rbp), %rax
	.loc	21 142 6 is_stmt 1
	addq	$32, %rsp
	popq	%rbp
	retq
Ltmp389:
Lfunc_end111:
	.cfi_endproc

	.p2align	4, 0x90
__ZN4core3ptr6unique15Unique$LT$T$GT$4cast17hed79b86ec891c1bbE:
Lfunc_begin112:
	.loc	21 137 0
	.cfi_startproc
	pushq	%rbp
	.cfi_def_cfa_offset 16
	.cfi_offset %rbp, -16
	movq	%rsp, %rbp
	.cfi_def_cfa_register %rbp
	subq	$32, %rsp
	movq	%rdi, -16(%rbp)
	movq	%rsi, -8(%rbp)
Ltmp390:
	.loc	21 141 40 prologue_end
	callq	__ZN4core3ptr6unique15Unique$LT$T$GT$6as_ptr17hfb745a8927c68fdeE
	movq	%rax, -24(%rbp)
	.loc	21 0 40 is_stmt 0
	movq	-24(%rbp), %rax
	.loc	21 141 18
	movq	%rax, %rdi
	callq	__ZN4core3ptr6unique15Unique$LT$T$GT$13new_unchecked17h43cfc06608792fc3E
	movq	%rax, -32(%rbp)
	.loc	21 0 18
	movq	-32(%rbp), %rax
	.loc	21 142 6 is_stmt 1
	addq	$32, %rsp
	popq	%rbp
	retq
Ltmp391:
Lfunc_end112:
	.cfi_endproc

	.p2align	4, 0x90
__ZN4core3ptr6unique15Unique$LT$T$GT$6as_ptr17h116d6720cc952b9bE:
Lfunc_begin113:
	.loc	21 107 0
	.cfi_startproc
	pushq	%rbp
	.cfi_def_cfa_offset 16
	.cfi_offset %rbp, -16
	movq	%rsp, %rbp
	.cfi_def_cfa_register %rbp
	pushq	%rax
	movq	%rdi, -8(%rbp)
Ltmp392:
	.loc	21 109 6 prologue_end
	movq	%rdi, %rax
	addq	$8, %rsp
	popq	%rbp
	retq
Ltmp393:
Lfunc_end113:
	.cfi_endproc

	.p2align	4, 0x90
__ZN4core3ptr6unique15Unique$LT$T$GT$6as_ptr17h120807842212e45aE:
Lfunc_begin114:
	.loc	21 107 0
	.cfi_startproc
	pushq	%rbp
	.cfi_def_cfa_offset 16
	.cfi_offset %rbp, -16
	movq	%rsp, %rbp
	.cfi_def_cfa_register %rbp
	pushq	%rax
	movq	%rdi, -8(%rbp)
Ltmp394:
	.loc	21 109 6 prologue_end
	movq	%rdi, %rax
	addq	$8, %rsp
	popq	%rbp
	retq
Ltmp395:
Lfunc_end114:
	.cfi_endproc

	.p2align	4, 0x90
__ZN4core3ptr6unique15Unique$LT$T$GT$6as_ptr17h3ee0267635cc8541E:
Lfunc_begin115:
	.loc	21 107 0
	.cfi_startproc
	pushq	%rbp
	.cfi_def_cfa_offset 16
	.cfi_offset %rbp, -16
	movq	%rsp, %rbp
	.cfi_def_cfa_register %rbp
	pushq	%rax
	movq	%rdi, -8(%rbp)
Ltmp396:
	.loc	21 109 6 prologue_end
	movq	%rdi, %rax
	addq	$8, %rsp
	popq	%rbp
	retq
Ltmp397:
Lfunc_end115:
	.cfi_endproc

	.p2align	4, 0x90
__ZN4core3ptr6unique15Unique$LT$T$GT$6as_ptr17h63478c297b7749cfE:
Lfunc_begin116:
	.loc	21 107 0
	.cfi_startproc
	pushq	%rbp
	.cfi_def_cfa_offset 16
	.cfi_offset %rbp, -16
	movq	%rsp, %rbp
	.cfi_def_cfa_register %rbp
	pushq	%rax
	movq	%rdi, -8(%rbp)
Ltmp398:
	.loc	21 109 6 prologue_end
	movq	%rdi, %rax
	addq	$8, %rsp
	popq	%rbp
	retq
Ltmp399:
Lfunc_end116:
	.cfi_endproc

	.p2align	4, 0x90
__ZN4core3ptr6unique15Unique$LT$T$GT$6as_ptr17h63c044a7b2f5e417E:
Lfunc_begin117:
	.loc	21 107 0
	.cfi_startproc
	pushq	%rbp
	.cfi_def_cfa_offset 16
	.cfi_offset %rbp, -16
	movq	%rsp, %rbp
	.cfi_def_cfa_register %rbp
	pushq	%rax
	movq	%rdi, -8(%rbp)
Ltmp400:
	.loc	21 109 6 prologue_end
	movq	%rdi, %rax
	addq	$8, %rsp
	popq	%rbp
	retq
Ltmp401:
Lfunc_end117:
	.cfi_endproc

	.p2align	4, 0x90
__ZN4core3ptr6unique15Unique$LT$T$GT$6as_ptr17h9d0dc6cad354b38dE:
Lfunc_begin118:
	.loc	21 107 0
	.cfi_startproc
	pushq	%rbp
	.cfi_def_cfa_offset 16
	.cfi_offset %rbp, -16
	movq	%rsp, %rbp
	.cfi_def_cfa_register %rbp
	subq	$16, %rsp
	movq	%rdi, -16(%rbp)
	movq	%rsi, -8(%rbp)
Ltmp402:
	.loc	21 109 6 prologue_end
	movq	%rdi, %rax
	movq	%rsi, %rdx
	addq	$16, %rsp
	popq	%rbp
	retq
Ltmp403:
Lfunc_end118:
	.cfi_endproc

	.p2align	4, 0x90
__ZN4core3ptr6unique15Unique$LT$T$GT$6as_ptr17hb93c8bbb1f2f9638E:
Lfunc_begin119:
	.loc	21 107 0
	.cfi_startproc
	pushq	%rbp
	.cfi_def_cfa_offset 16
	.cfi_offset %rbp, -16
	movq	%rsp, %rbp
	.cfi_def_cfa_register %rbp
	subq	$16, %rsp
	movq	%rdi, -16(%rbp)
	movq	%rsi, -8(%rbp)
Ltmp404:
	.loc	21 109 6 prologue_end
	movq	%rdi, %rax
	movq	%rsi, %rdx
	addq	$16, %rsp
	popq	%rbp
	retq
Ltmp405:
Lfunc_end119:
	.cfi_endproc

	.p2align	4, 0x90
__ZN4core3ptr6unique15Unique$LT$T$GT$6as_ptr17he9a22d77eb4ed871E:
Lfunc_begin120:
	.loc	21 107 0
	.cfi_startproc
	pushq	%rbp
	.cfi_def_cfa_offset 16
	.cfi_offset %rbp, -16
	movq	%rsp, %rbp
	.cfi_def_cfa_register %rbp
	pushq	%rax
	movq	%rdi, -8(%rbp)
Ltmp406:
	.loc	21 109 6 prologue_end
	movq	%rdi, %rax
	addq	$8, %rsp
	popq	%rbp
	retq
Ltmp407:
Lfunc_end120:
	.cfi_endproc

	.p2align	4, 0x90
__ZN4core3ptr6unique15Unique$LT$T$GT$6as_ptr17hfb745a8927c68fdeE:
Lfunc_begin121:
	.loc	21 107 0
	.cfi_startproc
	pushq	%rbp
	.cfi_def_cfa_offset 16
	.cfi_offset %rbp, -16
	movq	%rsp, %rbp
	.cfi_def_cfa_register %rbp
	subq	$16, %rsp
	movq	%rdi, -16(%rbp)
	movq	%rsi, -8(%rbp)
Ltmp408:
	.loc	21 109 6 prologue_end
	movq	%rdi, %rax
	movq	%rsi, %rdx
	addq	$16, %rsp
	popq	%rbp
	retq
Ltmp409:
Lfunc_end121:
	.cfi_endproc

	.p2align	4, 0x90
__ZN4core3ptr6unique15Unique$LT$T$GT$6as_ref17h02c4323fb47f9f53E:
Lfunc_begin122:
	.loc	21 117 0
	.cfi_startproc
	pushq	%rbp
	.cfi_def_cfa_offset 16
	.cfi_offset %rbp, -16
	movq	%rsp, %rbp
	.cfi_def_cfa_register %rbp
	subq	$32, %rsp
	movq	%rdi, -8(%rbp)
Ltmp410:
	.loc	21 120 20 prologue_end
	movq	(%rdi), %rax
	movq	8(%rdi), %rsi
	movq	%rax, %rdi
	callq	__ZN4core3ptr6unique15Unique$LT$T$GT$6as_ptr17h9d0dc6cad354b38dE
	movq	%rax, -16(%rbp)
	movq	%rdx, -24(%rbp)
	.loc	21 0 20 is_stmt 0
	movq	-16(%rbp), %rax
	movq	-24(%rbp), %rdx
	.loc	21 121 6 is_stmt 1
	addq	$32, %rsp
	popq	%rbp
	retq
Ltmp411:
Lfunc_end122:
	.cfi_endproc

	.p2align	4, 0x90
__ZN4core3ptr6unique15Unique$LT$T$GT$6as_ref17h5aa79211756e179dE:
Lfunc_begin123:
	.loc	21 117 0
	.cfi_startproc
	pushq	%rbp
	.cfi_def_cfa_offset 16
	.cfi_offset %rbp, -16
	movq	%rsp, %rbp
	.cfi_def_cfa_register %rbp
	subq	$32, %rsp
	movq	%rdi, -8(%rbp)
Ltmp412:
	.loc	21 120 20 prologue_end
	movq	(%rdi), %rax
	movq	8(%rdi), %rsi
	movq	%rax, %rdi
	callq	__ZN4core3ptr6unique15Unique$LT$T$GT$6as_ptr17hfb745a8927c68fdeE
	movq	%rax, -16(%rbp)
	movq	%rdx, -24(%rbp)
	.loc	21 0 20 is_stmt 0
	movq	-16(%rbp), %rax
	movq	-24(%rbp), %rdx
	.loc	21 121 6 is_stmt 1
	addq	$32, %rsp
	popq	%rbp
	retq
Ltmp413:
Lfunc_end123:
	.cfi_endproc

	.p2align	4, 0x90
__ZN4core3ptr6unique15Unique$LT$T$GT$6as_ref17h98ca4fedf2f6ff39E:
Lfunc_begin124:
	.loc	21 117 0
	.cfi_startproc
	pushq	%rbp
	.cfi_def_cfa_offset 16
	.cfi_offset %rbp, -16
	movq	%rsp, %rbp
	.cfi_def_cfa_register %rbp
	subq	$32, %rsp
	movq	%rdi, -8(%rbp)
Ltmp414:
	.loc	21 120 20 prologue_end
	movq	(%rdi), %rax
	movq	8(%rdi), %rsi
	movq	%rax, %rdi
	callq	__ZN4core3ptr6unique15Unique$LT$T$GT$6as_ptr17hb93c8bbb1f2f9638E
	movq	%rax, -16(%rbp)
	movq	%rdx, -24(%rbp)
	.loc	21 0 20 is_stmt 0
	movq	-16(%rbp), %rax
	movq	-24(%rbp), %rdx
	.loc	21 121 6 is_stmt 1
	addq	$32, %rsp
	popq	%rbp
	retq
Ltmp415:
Lfunc_end124:
	.cfi_endproc

	.p2align	4, 0x90
__ZN4core3ptr6unique15Unique$LT$T$GT$6as_ref17hd318c7fd9ae0d210E:
Lfunc_begin125:
	.loc	21 117 0
	.cfi_startproc
	pushq	%rbp
	.cfi_def_cfa_offset 16
	.cfi_offset %rbp, -16
	movq	%rsp, %rbp
	.cfi_def_cfa_register %rbp
	subq	$16, %rsp
	movq	%rdi, -8(%rbp)
Ltmp416:
	.loc	21 120 20 prologue_end
	movq	(%rdi), %rdi
	callq	__ZN4core3ptr6unique15Unique$LT$T$GT$6as_ptr17h63478c297b7749cfE
	movq	%rax, -16(%rbp)
	.loc	21 0 20 is_stmt 0
	movq	-16(%rbp), %rax
	.loc	21 121 6 is_stmt 1
	addq	$16, %rsp
	popq	%rbp
	retq
Ltmp417:
Lfunc_end125:
	.cfi_endproc

	.p2align	4, 0x90
__ZN4core3ptr7mut_ptr31_$LT$impl$u20$$BP$mut$u20$T$GT$3add17he4cef8eea04bdd3cE:
Lfunc_begin126:
	.file	22 "/rustc/6c8927b0cf80ceee19386026cf9d7fd4fd9d486f/src/libcore/ptr/mut_ptr.rs"
	.loc	22 529 0
	.cfi_startproc
	pushq	%rbp
	.cfi_def_cfa_offset 16
	.cfi_offset %rbp, -16
	movq	%rsp, %rbp
	.cfi_def_cfa_register %rbp
	subq	$32, %rsp
	movq	%rdi, -16(%rbp)
	movq	%rsi, -8(%rbp)
Ltmp418:
	.loc	22 534 18 prologue_end
	callq	__ZN4core3ptr7mut_ptr31_$LT$impl$u20$$BP$mut$u20$T$GT$6offset17hfd9d7e19cb07aac1E
	movq	%rax, -24(%rbp)
	.loc	22 0 18 is_stmt 0
	movq	-24(%rbp), %rax
	.loc	22 535 6 is_stmt 1
	addq	$32, %rsp
	popq	%rbp
	retq
Ltmp419:
Lfunc_end126:
	.cfi_endproc

	.p2align	4, 0x90
__ZN4core3ptr7mut_ptr31_$LT$impl$u20$$BP$mut$u20$T$GT$6offset17hfd9d7e19cb07aac1E:
Lfunc_begin127:
	.loc	22 158 0
	.cfi_startproc
	pushq	%rbp
	.cfi_def_cfa_offset 16
	.cfi_offset %rbp, -16
	movq	%rsp, %rbp
	.cfi_def_cfa_register %rbp
	subq	$32, %rsp
	movq	%rdi, -24(%rbp)
	movq	%rsi, -16(%rbp)
Ltmp420:
	.loc	22 165 18 prologue_end
	addq	%rsi, %rdi
	movq	%rdi, -8(%rbp)
	movq	-8(%rbp), %rax
	movq	%rax, -32(%rbp)
	.loc	22 0 18 is_stmt 0
	movq	-32(%rbp), %rax
	.loc	22 166 6 is_stmt 1
	addq	$32, %rsp
	popq	%rbp
	retq
Ltmp421:
Lfunc_end127:
	.cfi_endproc

	.p2align	4, 0x90
__ZN4core3ptr7mut_ptr31_$LT$impl$u20$$BP$mut$u20$T$GT$7is_null17h0e6d588df528da63E:
Lfunc_begin128:
	.loc	22 26 0
	.cfi_startproc
	pushq	%rbp
	.cfi_def_cfa_offset 16
	.cfi_offset %rbp, -16
	movq	%rsp, %rbp
	.cfi_def_cfa_register %rbp
	subq	$16, %rsp
	movq	%rdi, -8(%rbp)
	movq	%rdi, -16(%rbp)
	movq	-16(%rbp), %rax
Ltmp422:
	.loc	22 29 9 prologue_end
	cmpq	$0, %rax
	sete	%cl
	.loc	22 30 6
	andb	$1, %cl
	movzbl	%cl, %edx
	movl	%edx, %eax
	addq	$16, %rsp
	popq	%rbp
	retq
Ltmp423:
Lfunc_end128:
	.cfi_endproc

	.p2align	4, 0x90
__ZN4core3ptr7mut_ptr31_$LT$impl$u20$$BP$mut$u20$T$GT$7is_null17h8f2cf8d9aff46ab3E:
Lfunc_begin129:
	.loc	22 26 0
	.cfi_startproc
	pushq	%rbp
	.cfi_def_cfa_offset 16
	.cfi_offset %rbp, -16
	movq	%rsp, %rbp
	.cfi_def_cfa_register %rbp
	subq	$16, %rsp
	movq	%rdi, -8(%rbp)
	movq	%rdi, -16(%rbp)
	movq	-16(%rbp), %rax
Ltmp424:
	.loc	22 29 9 prologue_end
	cmpq	$0, %rax
	sete	%cl
	.loc	22 30 6
	andb	$1, %cl
	movzbl	%cl, %edx
	movl	%edx, %eax
	addq	$16, %rsp
	popq	%rbp
	retq
Ltmp425:
Lfunc_end129:
	.cfi_endproc

	.p2align	4, 0x90
__ZN4core3ptr7mut_ptr31_$LT$impl$u20$$BP$mut$u20$T$GT$7is_null17ha7e729df61297e2fE:
Lfunc_begin130:
	.loc	22 26 0
	.cfi_startproc
	pushq	%rbp
	.cfi_def_cfa_offset 16
	.cfi_offset %rbp, -16
	movq	%rsp, %rbp
	.cfi_def_cfa_register %rbp
	subq	$16, %rsp
	movq	%rdi, -8(%rbp)
	movq	%rdi, -16(%rbp)
	movq	-16(%rbp), %rax
Ltmp426:
	.loc	22 29 9 prologue_end
	cmpq	$0, %rax
	sete	%cl
	.loc	22 30 6
	andb	$1, %cl
	movzbl	%cl, %edx
	movl	%edx, %eax
	addq	$16, %rsp
	popq	%rbp
	retq
Ltmp427:
Lfunc_end130:
	.cfi_endproc

	.p2align	4, 0x90
__ZN4core3ptr7mut_ptr31_$LT$impl$u20$$BP$mut$u20$T$GT$7is_null17hbeb44adcbec38a48E:
Lfunc_begin131:
	.loc	22 26 0
	.cfi_startproc
	pushq	%rbp
	.cfi_def_cfa_offset 16
	.cfi_offset %rbp, -16
	movq	%rsp, %rbp
	.cfi_def_cfa_register %rbp
	subq	$16, %rsp
	movq	%rdi, -8(%rbp)
	movq	%rdi, -16(%rbp)
	movq	-16(%rbp), %rax
Ltmp428:
	.loc	22 29 9 prologue_end
	cmpq	$0, %rax
	sete	%cl
	.loc	22 30 6
	andb	$1, %cl
	movzbl	%cl, %edx
	movl	%edx, %eax
	addq	$16, %rsp
	popq	%rbp
	retq
Ltmp429:
Lfunc_end131:
	.cfi_endproc

	.p2align	4, 0x90
__ZN4core3ptr7mut_ptr31_$LT$impl$u20$$BP$mut$u20$T$GT$7is_null17he10dbf9c706b66b0E:
Lfunc_begin132:
	.loc	22 26 0
	.cfi_startproc
	pushq	%rbp
	.cfi_def_cfa_offset 16
	.cfi_offset %rbp, -16
	movq	%rsp, %rbp
	.cfi_def_cfa_register %rbp
	subq	$16, %rsp
	movq	%rdi, -8(%rbp)
	movq	%rdi, -16(%rbp)
	movq	-16(%rbp), %rax
Ltmp430:
	.loc	22 29 9 prologue_end
	cmpq	$0, %rax
	sete	%cl
	.loc	22 30 6
	andb	$1, %cl
	movzbl	%cl, %edx
	movl	%edx, %eax
	addq	$16, %rsp
	popq	%rbp
	retq
Ltmp431:
Lfunc_end132:
	.cfi_endproc

	.p2align	4, 0x90
__ZN4core3ptr7mut_ptr41_$LT$impl$u20$$BP$mut$u20$$u5b$T$u5d$$GT$10as_mut_ptr17h624cb5659faedac9E:
Lfunc_begin133:
	.loc	22 1051 0
	.cfi_startproc
	pushq	%rbp
	.cfi_def_cfa_offset 16
	.cfi_offset %rbp, -16
	movq	%rsp, %rbp
	.cfi_def_cfa_register %rbp
	subq	$16, %rsp
	movq	%rdi, -16(%rbp)
	movq	%rsi, -8(%rbp)
Ltmp432:
	.loc	22 1053 6 prologue_end
	movq	%rdi, %rax
	addq	$16, %rsp
	popq	%rbp
	retq
Ltmp433:
Lfunc_end133:
	.cfi_endproc

	.p2align	4, 0x90
__ZN4core3ptr8non_null16NonNull$LT$T$GT$13new_unchecked17h772ffa0775985e4bE:
Lfunc_begin134:
	.loc	5 90 0
	.cfi_startproc
	pushq	%rbp
	.cfi_def_cfa_offset 16
	.cfi_offset %rbp, -16
	movq	%rsp, %rbp
	.cfi_def_cfa_register %rbp
	subq	$16, %rsp
	movq	%rdi, -8(%rbp)
Ltmp434:
	.loc	5 92 18 prologue_end
	movq	%rdi, -16(%rbp)
	.loc	5 93 6
	movq	-16(%rbp), %rax
	addq	$16, %rsp
	popq	%rbp
	retq
Ltmp435:
Lfunc_end134:
	.cfi_endproc

	.p2align	4, 0x90
__ZN4core3ptr8non_null16NonNull$LT$T$GT$13new_unchecked17hc837c1cd30d21ee3E:
Lfunc_begin135:
	.loc	5 90 0
	.cfi_startproc
	pushq	%rbp
	.cfi_def_cfa_offset 16
	.cfi_offset %rbp, -16
	movq	%rsp, %rbp
	.cfi_def_cfa_register %rbp
	subq	$16, %rsp
	movq	%rdi, -8(%rbp)
Ltmp436:
	.loc	5 92 18 prologue_end
	movq	%rdi, -16(%rbp)
	.loc	5 93 6
	movq	-16(%rbp), %rax
	addq	$16, %rsp
	popq	%rbp
	retq
Ltmp437:
Lfunc_end135:
	.cfi_endproc

	.p2align	4, 0x90
__ZN4core3ptr8non_null16NonNull$LT$T$GT$3new17h31728ddf38958bbbE:
Lfunc_begin136:
	.loc	5 98 0
	.cfi_startproc
	pushq	%rbp
	.cfi_def_cfa_offset 16
	.cfi_offset %rbp, -16
	movq	%rsp, %rbp
	.cfi_def_cfa_register %rbp
	subq	$48, %rsp
	movq	%rdi, -8(%rbp)
	movq	%rdi, -24(%rbp)
Ltmp438:
	.loc	5 99 13 prologue_end
	callq	__ZN4core3ptr7mut_ptr31_$LT$impl$u20$$BP$mut$u20$T$GT$7is_null17ha7e729df61297e2fE
	movb	%al, -25(%rbp)
	.loc	5 0 13 is_stmt 0
	movb	-25(%rbp), %al
	.loc	5 99 12
	xorb	$-1, %al
	.loc	5 99 9
	testb	$1, %al
	jne	LBB136_3
	.loc	5 103 13 is_stmt 1
	movq	$0, -16(%rbp)
	.loc	5 99 9
	jmp	LBB136_5
LBB136_3:
	.loc	5 0 9 is_stmt 0
	movq	-24(%rbp), %rdi
	.loc	5 101 27 is_stmt 1
	callq	__ZN4core3ptr8non_null16NonNull$LT$T$GT$13new_unchecked17h772ffa0775985e4bE
	movq	%rax, -40(%rbp)
	.loc	5 0 27 is_stmt 0
	movq	-40(%rbp), %rax
	.loc	5 101 13
	movq	%rax, -16(%rbp)
LBB136_5:
	.loc	5 105 6 is_stmt 1
	movq	-16(%rbp), %rax
	addq	$48, %rsp
	popq	%rbp
	retq
Ltmp439:
Lfunc_end136:
	.cfi_endproc

	.p2align	4, 0x90
__ZN4core3ptr8non_null16NonNull$LT$T$GT$4cast17hd9b8c545c356ba93E:
Lfunc_begin137:
	.loc	5 145 0
	.cfi_startproc
	pushq	%rbp
	.cfi_def_cfa_offset 16
	.cfi_offset %rbp, -16
	movq	%rsp, %rbp
	.cfi_def_cfa_register %rbp
	subq	$32, %rsp
	movq	%rdi, -8(%rbp)
Ltmp440:
	.loc	5 147 41 prologue_end
	callq	__ZN4core3ptr8non_null16NonNull$LT$T$GT$6as_ptr17hbdbb2c25f4759b88E
	movq	%rax, -16(%rbp)
	.loc	5 0 41 is_stmt 0
	movq	-16(%rbp), %rax
	.loc	5 147 18
	movq	%rax, %rdi
	callq	__ZN4core3ptr8non_null16NonNull$LT$T$GT$13new_unchecked17hc837c1cd30d21ee3E
	movq	%rax, -24(%rbp)
	.loc	5 0 18
	movq	-24(%rbp), %rax
	.loc	5 148 6 is_stmt 1
	addq	$32, %rsp
	popq	%rbp
	retq
Ltmp441:
Lfunc_end137:
	.cfi_endproc

	.p2align	4, 0x90
__ZN4core3ptr8non_null16NonNull$LT$T$GT$6as_ptr17h496e5785159e1a68E:
Lfunc_begin138:
	.loc	5 111 0
	.cfi_startproc
	pushq	%rbp
	.cfi_def_cfa_offset 16
	.cfi_offset %rbp, -16
	movq	%rsp, %rbp
	.cfi_def_cfa_register %rbp
	pushq	%rax
	movq	%rdi, -8(%rbp)
Ltmp442:
	.loc	5 113 6 prologue_end
	movq	%rdi, %rax
	addq	$8, %rsp
	popq	%rbp
	retq
Ltmp443:
Lfunc_end138:
	.cfi_endproc

	.p2align	4, 0x90
__ZN4core3ptr8non_null16NonNull$LT$T$GT$6as_ptr17hbdbb2c25f4759b88E:
Lfunc_begin139:
	.loc	5 111 0
	.cfi_startproc
	pushq	%rbp
	.cfi_def_cfa_offset 16
	.cfi_offset %rbp, -16
	movq	%rsp, %rbp
	.cfi_def_cfa_register %rbp
	pushq	%rax
	movq	%rdi, -8(%rbp)
Ltmp444:
	.loc	5 113 6 prologue_end
	movq	%rdi, %rax
	addq	$8, %rsp
	popq	%rbp
	retq
Ltmp445:
Lfunc_end139:
	.cfi_endproc

	.p2align	4, 0x90
__ZN4core3ptr8non_null16NonNull$LT$T$GT$6as_ref17h95730e58c00de3f1E:
Lfunc_begin140:
	.loc	5 122 0
	.cfi_startproc
	pushq	%rbp
	.cfi_def_cfa_offset 16
	.cfi_offset %rbp, -16
	movq	%rsp, %rbp
	.cfi_def_cfa_register %rbp
	subq	$16, %rsp
	movq	%rdi, -8(%rbp)
Ltmp446:
	.loc	5 125 20 prologue_end
	movq	(%rdi), %rdi
	callq	__ZN4core3ptr8non_null16NonNull$LT$T$GT$6as_ptr17hbdbb2c25f4759b88E
	movq	%rax, -16(%rbp)
	.loc	5 0 20 is_stmt 0
	movq	-16(%rbp), %rax
	.loc	5 126 6 is_stmt 1
	addq	$16, %rsp
	popq	%rbp
	retq
Ltmp447:
Lfunc_end140:
	.cfi_endproc

	.p2align	4, 0x90
__ZN4core3ptr9const_ptr33_$LT$impl$u20$$BP$const$u20$T$GT$13guaranteed_eq17h1dc3526f81beaf95E:
Lfunc_begin141:
	.file	23 "/rustc/6c8927b0cf80ceee19386026cf9d7fd4fd9d486f/src/libcore/ptr/const_ptr.rs"
	.loc	23 327 0
	.cfi_startproc
	pushq	%rbp
	.cfi_def_cfa_offset 16
	.cfi_offset %rbp, -16
	movq	%rsp, %rbp
	.cfi_def_cfa_register %rbp
	subq	$32, %rsp
	movq	%rdi, -24(%rbp)
	movq	%rsi, -16(%rbp)
Ltmp448:
	.loc	23 331 9 prologue_end
	cmpq	%rsi, %rdi
	sete	%al
	andb	$1, %al
	movb	%al, -1(%rbp)
	movb	-1(%rbp), %al
	movb	%al, -25(%rbp)
	.loc	23 0 9 is_stmt 0
	movb	-25(%rbp), %al
	.loc	23 332 6 is_stmt 1
	andb	$1, %al
	movzbl	%al, %eax
	addq	$32, %rsp
	popq	%rbp
	retq
Ltmp449:
Lfunc_end141:
	.cfi_endproc

	.p2align	4, 0x90
__ZN4core3ptr9const_ptr33_$LT$impl$u20$$BP$const$u20$T$GT$3add17h87018e0cc996e8f8E:
Lfunc_begin142:
	.loc	23 473 0
	.cfi_startproc
	pushq	%rbp
	.cfi_def_cfa_offset 16
	.cfi_offset %rbp, -16
	movq	%rsp, %rbp
	.cfi_def_cfa_register %rbp
	subq	$32, %rsp
	movq	%rdi, -16(%rbp)
	movq	%rsi, -8(%rbp)
Ltmp450:
	.loc	23 478 18 prologue_end
	callq	__ZN4core3ptr9const_ptr33_$LT$impl$u20$$BP$const$u20$T$GT$6offset17h0d9317994be0dd39E
	movq	%rax, -24(%rbp)
	.loc	23 0 18 is_stmt 0
	movq	-24(%rbp), %rax
	.loc	23 479 6 is_stmt 1
	addq	$32, %rsp
	popq	%rbp
	retq
Ltmp451:
Lfunc_end142:
	.cfi_endproc

	.p2align	4, 0x90
__ZN4core3ptr9const_ptr33_$LT$impl$u20$$BP$const$u20$T$GT$3add17h9652e23b81a96307E:
Lfunc_begin143:
	.loc	23 473 0
	.cfi_startproc
	pushq	%rbp
	.cfi_def_cfa_offset 16
	.cfi_offset %rbp, -16
	movq	%rsp, %rbp
	.cfi_def_cfa_register %rbp
	subq	$32, %rsp
	movq	%rdi, -16(%rbp)
	movq	%rsi, -8(%rbp)
Ltmp452:
	.loc	23 478 18 prologue_end
	callq	__ZN4core3ptr9const_ptr33_$LT$impl$u20$$BP$const$u20$T$GT$6offset17h50967c6b349fa5a9E
	movq	%rax, -24(%rbp)
	.loc	23 0 18 is_stmt 0
	movq	-24(%rbp), %rax
	.loc	23 479 6 is_stmt 1
	addq	$32, %rsp
	popq	%rbp
	retq
Ltmp453:
Lfunc_end143:
	.cfi_endproc

	.p2align	4, 0x90
__ZN4core3ptr9const_ptr33_$LT$impl$u20$$BP$const$u20$T$GT$3add17hdcc4618e2e20525eE:
Lfunc_begin144:
	.loc	23 473 0
	.cfi_startproc
	pushq	%rbp
	.cfi_def_cfa_offset 16
	.cfi_offset %rbp, -16
	movq	%rsp, %rbp
	.cfi_def_cfa_register %rbp
	subq	$32, %rsp
	movq	%rdi, -16(%rbp)
	movq	%rsi, -8(%rbp)
Ltmp454:
	.loc	23 478 18 prologue_end
	callq	__ZN4core3ptr9const_ptr33_$LT$impl$u20$$BP$const$u20$T$GT$6offset17h391e6b246cc175edE
	movq	%rax, -24(%rbp)
	.loc	23 0 18 is_stmt 0
	movq	-24(%rbp), %rax
	.loc	23 479 6 is_stmt 1
	addq	$32, %rsp
	popq	%rbp
	retq
Ltmp455:
Lfunc_end144:
	.cfi_endproc

	.p2align	4, 0x90
__ZN4core3ptr9const_ptr33_$LT$impl$u20$$BP$const$u20$T$GT$3add17hec82dc87d04ee6f6E:
Lfunc_begin145:
	.loc	23 473 0
	.cfi_startproc
	pushq	%rbp
	.cfi_def_cfa_offset 16
	.cfi_offset %rbp, -16
	movq	%rsp, %rbp
	.cfi_def_cfa_register %rbp
	subq	$32, %rsp
	movq	%rdi, -16(%rbp)
	movq	%rsi, -8(%rbp)
Ltmp456:
	.loc	23 478 18 prologue_end
	callq	__ZN4core3ptr9const_ptr33_$LT$impl$u20$$BP$const$u20$T$GT$6offset17hb8577c09c4ad8198E
	movq	%rax, -24(%rbp)
	.loc	23 0 18 is_stmt 0
	movq	-24(%rbp), %rax
	.loc	23 479 6 is_stmt 1
	addq	$32, %rsp
	popq	%rbp
	retq
Ltmp457:
Lfunc_end145:
	.cfi_endproc

	.p2align	4, 0x90
__ZN4core3ptr9const_ptr33_$LT$impl$u20$$BP$const$u20$T$GT$6offset17h0d9317994be0dd39E:
Lfunc_begin146:
	.loc	23 159 0
	.cfi_startproc
	pushq	%rbp
	.cfi_def_cfa_offset 16
	.cfi_offset %rbp, -16
	movq	%rsp, %rbp
	.cfi_def_cfa_register %rbp
	subq	$32, %rsp
	movq	%rdi, -24(%rbp)
	movq	%rsi, -16(%rbp)
Ltmp458:
	.loc	23 164 18 prologue_end
	shlq	$3, %rsi
	addq	%rsi, %rdi
	movq	%rdi, -8(%rbp)
	movq	-8(%rbp), %rax
	movq	%rax, -32(%rbp)
	.loc	23 0 18 is_stmt 0
	movq	-32(%rbp), %rax
	.loc	23 165 6 is_stmt 1
	addq	$32, %rsp
	popq	%rbp
	retq
Ltmp459:
Lfunc_end146:
	.cfi_endproc

	.p2align	4, 0x90
__ZN4core3ptr9const_ptr33_$LT$impl$u20$$BP$const$u20$T$GT$6offset17h391e6b246cc175edE:
Lfunc_begin147:
	.loc	23 159 0
	.cfi_startproc
	pushq	%rbp
	.cfi_def_cfa_offset 16
	.cfi_offset %rbp, -16
	movq	%rsp, %rbp
	.cfi_def_cfa_register %rbp
	subq	$32, %rsp
	movq	%rdi, -24(%rbp)
	movq	%rsi, -16(%rbp)
Ltmp460:
	.loc	23 164 18 prologue_end
	imulq	$24, %rsi, %rax
	addq	%rax, %rdi
	movq	%rdi, -8(%rbp)
	movq	-8(%rbp), %rax
	movq	%rax, -32(%rbp)
	.loc	23 0 18 is_stmt 0
	movq	-32(%rbp), %rax
	.loc	23 165 6 is_stmt 1
	addq	$32, %rsp
	popq	%rbp
	retq
Ltmp461:
Lfunc_end147:
	.cfi_endproc

	.p2align	4, 0x90
__ZN4core3ptr9const_ptr33_$LT$impl$u20$$BP$const$u20$T$GT$6offset17h50967c6b349fa5a9E:
Lfunc_begin148:
	.loc	23 159 0
	.cfi_startproc
	pushq	%rbp
	.cfi_def_cfa_offset 16
	.cfi_offset %rbp, -16
	movq	%rsp, %rbp
	.cfi_def_cfa_register %rbp
	subq	$32, %rsp
	movq	%rdi, -24(%rbp)
	movq	%rsi, -16(%rbp)
Ltmp462:
	.loc	23 164 18 prologue_end
	addq	%rsi, %rdi
	movq	%rdi, -8(%rbp)
	movq	-8(%rbp), %rax
	movq	%rax, -32(%rbp)
	.loc	23 0 18 is_stmt 0
	movq	-32(%rbp), %rax
	.loc	23 165 6 is_stmt 1
	addq	$32, %rsp
	popq	%rbp
	retq
Ltmp463:
Lfunc_end148:
	.cfi_endproc

	.p2align	4, 0x90
__ZN4core3ptr9const_ptr33_$LT$impl$u20$$BP$const$u20$T$GT$6offset17hb8577c09c4ad8198E:
Lfunc_begin149:
	.loc	23 159 0
	.cfi_startproc
	pushq	%rbp
	.cfi_def_cfa_offset 16
	.cfi_offset %rbp, -16
	movq	%rsp, %rbp
	.cfi_def_cfa_register %rbp
	subq	$32, %rsp
	movq	%rdi, -24(%rbp)
	movq	%rsi, -16(%rbp)
Ltmp464:
	.loc	23 164 18 prologue_end
	imulq	$24, %rsi, %rax
	addq	%rax, %rdi
	movq	%rdi, -8(%rbp)
	movq	-8(%rbp), %rax
	movq	%rax, -32(%rbp)
	.loc	23 0 18 is_stmt 0
	movq	-32(%rbp), %rax
	.loc	23 165 6 is_stmt 1
	addq	$32, %rsp
	popq	%rbp
	retq
Ltmp465:
Lfunc_end149:
	.cfi_endproc

	.p2align	4, 0x90
__ZN4core3ptr9const_ptr43_$LT$impl$u20$$BP$const$u20$$u5b$T$u5d$$GT$6as_ptr17hb2605210395d1ddfE:
Lfunc_begin150:
	.loc	23 845 0
	.cfi_startproc
	pushq	%rbp
	.cfi_def_cfa_offset 16
	.cfi_offset %rbp, -16
	movq	%rsp, %rbp
	.cfi_def_cfa_register %rbp
	subq	$16, %rsp
	movq	%rdi, -16(%rbp)
	movq	%rsi, -8(%rbp)
Ltmp466:
	.loc	23 847 6 prologue_end
	movq	%rdi, %rax
	addq	$16, %rsp
	popq	%rbp
	retq
Ltmp467:
Lfunc_end150:
	.cfi_endproc

	.p2align	4, 0x90
__ZN4core3ptr9const_ptr43_$LT$impl$u20$$BP$const$u20$$u5b$T$u5d$$GT$6as_ptr17hd0759fe5972f37d5E:
Lfunc_begin151:
	.loc	23 845 0
	.cfi_startproc
	pushq	%rbp
	.cfi_def_cfa_offset 16
	.cfi_offset %rbp, -16
	movq	%rsp, %rbp
	.cfi_def_cfa_register %rbp
	subq	$16, %rsp
	movq	%rdi, -16(%rbp)
	movq	%rsi, -8(%rbp)
Ltmp468:
	.loc	23 847 6 prologue_end
	movq	%rdi, %rax
	addq	$16, %rsp
	popq	%rbp
	retq
Ltmp469:
Lfunc_end151:
	.cfi_endproc

	.p2align	4, 0x90
__ZN4core3ptr9const_ptr43_$LT$impl$u20$$BP$const$u20$$u5b$T$u5d$$GT$6as_ptr17he300bc277aefe7e5E:
Lfunc_begin152:
	.loc	23 845 0
	.cfi_startproc
	pushq	%rbp
	.cfi_def_cfa_offset 16
	.cfi_offset %rbp, -16
	movq	%rsp, %rbp
	.cfi_def_cfa_register %rbp
	subq	$16, %rsp
	movq	%rdi, -16(%rbp)
	movq	%rsi, -8(%rbp)
Ltmp470:
	.loc	23 847 6 prologue_end
	movq	%rdi, %rax
	addq	$16, %rsp
	popq	%rbp
	retq
Ltmp471:
Lfunc_end152:
	.cfi_endproc

	.p2align	4, 0x90
__ZN4core3ptr9const_ptr43_$LT$impl$u20$$BP$const$u20$$u5b$T$u5d$$GT$6as_ptr17he363a132e48f0726E:
Lfunc_begin153:
	.loc	23 845 0
	.cfi_startproc
	pushq	%rbp
	.cfi_def_cfa_offset 16
	.cfi_offset %rbp, -16
	movq	%rsp, %rbp
	.cfi_def_cfa_register %rbp
	subq	$16, %rsp
	movq	%rdi, -16(%rbp)
	movq	%rsi, -8(%rbp)
Ltmp472:
	.loc	23 847 6 prologue_end
	movq	%rdi, %rax
	addq	$16, %rsp
	popq	%rbp
	retq
Ltmp473:
Lfunc_end153:
	.cfi_endproc

	.p2align	4, 0x90
__ZN4core3str21_$LT$impl$u20$str$GT$13get_unchecked17hb36119bffbe96015E:
Lfunc_begin154:
	.loc	8 2533 0
	.cfi_startproc
	pushq	%rbp
	.cfi_def_cfa_offset 16
	.cfi_offset %rbp, -16
	movq	%rsp, %rbp
	.cfi_def_cfa_register %rbp
	subq	$64, %rsp
	movq	%rdi, -32(%rbp)
	movq	%rsi, -24(%rbp)
	movq	%rdx, -16(%rbp)
	movq	%rcx, -8(%rbp)
	movq	%rdi, -40(%rbp)
Ltmp474:
	.loc	8 2537 20 prologue_end
	movq	%rdx, %rdi
	movq	%rsi, -48(%rbp)
	movq	%rcx, %rsi
	movq	-40(%rbp), %rdx
	movq	-48(%rbp), %rcx
	callq	__ZN4core3str6traits101_$LT$impl$u20$core..slice..SliceIndex$LT$str$GT$$u20$for$u20$core..ops..range..Range$LT$usize$GT$$GT$13get_unchecked17h669b96fb9dcf7183E
	movq	%rax, -56(%rbp)
	movq	%rdx, -64(%rbp)
	.loc	8 0 20 is_stmt 0
	movq	-56(%rbp), %rax
	movq	-64(%rbp), %rdx
	.loc	8 2538 6 is_stmt 1
	addq	$64, %rsp
	popq	%rbp
	retq
Ltmp475:
Lfunc_end154:
	.cfi_endproc

	.p2align	4, 0x90
__ZN4core3str21_$LT$impl$u20$str$GT$3len17h1f0348cd5a233844E:
Lfunc_begin155:
	.loc	8 2273 0
	.cfi_startproc
	pushq	%rbp
	.cfi_def_cfa_offset 16
	.cfi_offset %rbp, -16
	movq	%rsp, %rbp
	.cfi_def_cfa_register %rbp
	subq	$80, %rsp
	movq	%rdi, -48(%rbp)
	movq	%rsi, -40(%rbp)
	movq	%rdi, -16(%rbp)
	movq	%rsi, -8(%rbp)
Ltmp476:
	.loc	8 2359 18 prologue_end
	movq	%rdi, -32(%rbp)
	movq	%rsi, -24(%rbp)
	movq	-32(%rbp), %rdi
	movq	-24(%rbp), %rsi
	movq	%rdi, -56(%rbp)
	movq	%rsi, -64(%rbp)
Ltmp477:
	.loc	8 0 18 is_stmt 0
	movq	-56(%rbp), %rdi
	movq	-64(%rbp), %rsi
	.loc	8 2274 9 is_stmt 1
	callq	__ZN4core5slice29_$LT$impl$u20$$u5b$T$u5d$$GT$3len17h807f8ba861584158E
	movq	%rax, -72(%rbp)
	.loc	8 0 9 is_stmt 0
	movq	-72(%rbp), %rax
	.loc	8 2275 6 is_stmt 1
	addq	$80, %rsp
	popq	%rbp
	retq
Ltmp478:
Lfunc_end155:
	.cfi_endproc

	.p2align	4, 0x90
__ZN4core3str21_$LT$impl$u20$str$GT$5split17h5c5b3641bf1ed93fE:
Lfunc_begin156:
	.loc	8 3320 0
	.cfi_startproc
	.cfi_personality 155, _rust_eh_personality
	.cfi_lsda 16, Lexception19
	pushq	%rbp
	.cfi_def_cfa_offset 16
	.cfi_offset %rbp, -16
	movq	%rsp, %rbp
	.cfi_def_cfa_register %rbp
	subq	$224, %rsp
	movq	%rdi, %rax
	movq	%rsi, -40(%rbp)
	movq	%rdx, -32(%rbp)
	movl	%ecx, -20(%rbp)
Ltmp484:
	.loc	8 3321 15 prologue_end
	movb	$0, -41(%rbp)
	movb	$1, -41(%rbp)
Ltmp479:
	movq	%rdi, -176(%rbp)
	.loc	8 3323 18
	movq	%rsi, %rdi
	movq	%rsi, -184(%rbp)
	movq	%rdx, %rsi
	movl	%ecx, -188(%rbp)
	movq	%rdx, -200(%rbp)
	movq	%rax, -208(%rbp)
	callq	__ZN4core3str21_$LT$impl$u20$str$GT$3len17h1f0348cd5a233844E
Ltmp480:
	movq	%rax, -216(%rbp)
	jmp	LBB156_2
LBB156_1:
	.loc	8 3320 5
	movq	-16(%rbp), %rdi
	callq	__Unwind_Resume
	ud2
LBB156_2:
	.loc	8 3324 22
	movb	$0, -41(%rbp)
Ltmp481:
	leaq	-96(%rbp), %rdi
	movl	-188(%rbp), %esi
	movq	-184(%rbp), %rdx
	movq	-200(%rbp), %rcx
	callq	__ZN52_$LT$char$u20$as$u20$core..str..pattern..Pattern$GT$13into_searcher17h1383e1dc062c1ecbE
Ltmp482:
	jmp	LBB156_3
LBB156_3:
	.loc	8 3321 15
	movq	$0, -168(%rbp)
	movq	-216(%rbp), %rax
	movq	%rax, -160(%rbp)
	leaq	-168(%rbp), %rcx
	movq	%rcx, %rdx
	addq	$16, %rdx
	leaq	-96(%rbp), %rsi
	movq	%rdx, %rdi
	movl	$48, %edx
	movq	%rcx, -224(%rbp)
	callq	_memcpy
	movb	$1, -104(%rbp)
	movb	$0, -103(%rbp)
	movq	-176(%rbp), %rax
	movq	-224(%rbp), %rcx
	.loc	8 3321 9 is_stmt 0
	movq	%rax, %rdi
	movq	%rcx, %rsi
	movl	$72, %edx
	callq	_memcpy
	movq	-208(%rbp), %rax
	.loc	8 3328 6 is_stmt 1
	addq	$224, %rsp
	popq	%rbp
	retq
LBB156_4:
	.loc	8 3328 5 is_stmt 0
	movb	$0, -41(%rbp)
	jmp	LBB156_1
LBB156_5:
	testb	$1, -41(%rbp)
	jne	LBB156_4
	jmp	LBB156_1
Ltmp485:
LBB156_6:
Ltmp483:
	.loc	8 0 5
	movq	%rax, -16(%rbp)
	movl	%edx, -8(%rbp)
	jmp	LBB156_5
Lfunc_end156:
	.cfi_endproc
	.section	__TEXT,__gcc_except_tab
	.p2align	2
GCC_except_table156:
Lexception19:
	.byte	255
	.byte	255
	.byte	1
	.uleb128 Lcst_end19-Lcst_begin19
Lcst_begin19:
	.uleb128 Ltmp479-Lfunc_begin156
	.uleb128 Ltmp480-Ltmp479
	.uleb128 Ltmp483-Lfunc_begin156
	.byte	0
	.uleb128 Ltmp480-Lfunc_begin156
	.uleb128 Ltmp481-Ltmp480
	.byte	0
	.byte	0
	.uleb128 Ltmp481-Lfunc_begin156
	.uleb128 Ltmp482-Ltmp481
	.uleb128 Ltmp483-Lfunc_begin156
	.byte	0
	.uleb128 Ltmp482-Lfunc_begin156
	.uleb128 Lfunc_end156-Ltmp482
	.byte	0
	.byte	0
Lcst_end19:
	.p2align	2

	.section	__TEXT,__text,regular,pure_instructions
	.p2align	4, 0x90
__ZN4core3str22SplitInternal$LT$P$GT$4next17h1bc5ad371cc390f1E:
Lfunc_begin157:
	.loc	8 1118 0 is_stmt 1
	.cfi_startproc
	pushq	%rbp
	.cfi_def_cfa_offset 16
	.cfi_offset %rbp, -16
	movq	%rsp, %rbp
	.cfi_def_cfa_register %rbp
	subq	$160, %rsp
	movq	%rdi, -56(%rbp)
Ltmp486:
	.loc	8 1119 9 prologue_end
	testb	$1, 65(%rdi)
	movq	%rdi, -120(%rbp)
	jne	LBB157_2
	.loc	8 0 9 is_stmt 0
	movq	-120(%rbp), %rax
	.loc	8 1123 24 is_stmt 1
	addq	$16, %rax
	movq	%rax, %rdi
	callq	__ZN81_$LT$core..str..pattern..CharSearcher$u20$as$u20$core..str..pattern..Searcher$GT$8haystack17hbeb3a67a31e9c7c7E
	movq	%rax, -48(%rbp)
	movq	%rdx, -40(%rbp)
	movq	%rax, -128(%rbp)
	movq	%rdx, -136(%rbp)
	jmp	LBB157_4
LBB157_2:
	.loc	8 1120 20
	movq	$0, -112(%rbp)
LBB157_3:
	.loc	8 1133 6
	movq	-112(%rbp), %rax
	movq	-104(%rbp), %rdx
	addq	$160, %rsp
	popq	%rbp
	retq
LBB157_4:
	.loc	8 0 6 is_stmt 0
	movq	-120(%rbp), %rax
Ltmp487:
	.loc	8 1124 15 is_stmt 1
	addq	$16, %rax
	leaq	-96(%rbp), %rdi
	movq	%rax, %rsi
	callq	__ZN81_$LT$core..str..pattern..CharSearcher$u20$as$u20$core..str..pattern..Searcher$GT$10next_match17h9c8242be01716e83E
	.loc	8 1126 13
	movq	-96(%rbp), %rax
	testq	%rax, %rax
	je	LBB157_6
	jmp	LBB157_12
LBB157_12:
	jmp	LBB157_8
LBB157_6:
	.loc	8 0 13 is_stmt 0
	movq	-120(%rbp), %rdi
	.loc	8 1131 21 is_stmt 1
	callq	__ZN4core3str22SplitInternal$LT$P$GT$7get_end17ha0e661f133cb6eb2E
	movq	%rdx, -104(%rbp)
	movq	%rax, -112(%rbp)
	jmp	LBB157_10
	.loc	8 1124 15
	ud2
LBB157_8:
	.loc	8 1126 19
	movq	-88(%rbp), %rax
	movq	%rax, -32(%rbp)
	.loc	8 1126 22 is_stmt 0
	movq	-80(%rbp), %rcx
	movq	%rcx, -24(%rbp)
	movq	-120(%rbp), %rdx
Ltmp488:
	.loc	8 1127 50 is_stmt 1
	movq	(%rdx), %rsi
	movq	%rsi, -72(%rbp)
	movq	%rax, -64(%rbp)
	.loc	8 1127 27 is_stmt 0
	movq	-72(%rbp), %rdx
	movq	-64(%rbp), %rax
	movq	-128(%rbp), %rdi
	movq	-136(%rbp), %rsi
	movq	%rcx, -144(%rbp)
	movq	%rax, %rcx
	callq	__ZN4core3str21_$LT$impl$u20$str$GT$13get_unchecked17hb36119bffbe96015E
	movq	%rax, -16(%rbp)
	movq	%rdx, -8(%rbp)
	movq	%rax, -152(%rbp)
	movq	%rdx, -160(%rbp)
	.loc	8 0 27
	movq	-120(%rbp), %rax
	movq	-144(%rbp), %rcx
Ltmp489:
	.loc	8 1128 17 is_stmt 1
	movq	%rcx, (%rax)
	movq	-152(%rbp), %rdx
	.loc	8 1129 17
	movq	%rdx, -112(%rbp)
	movq	-160(%rbp), %rsi
	movq	%rsi, -104(%rbp)
Ltmp490:
	.loc	8 1124 9
	jmp	LBB157_11
LBB157_10:
	jmp	LBB157_11
Ltmp491:
LBB157_11:
	.loc	8 1133 6
	jmp	LBB157_3
Ltmp492:
Lfunc_end157:
	.cfi_endproc

	.p2align	4, 0x90
__ZN4core3str22SplitInternal$LT$P$GT$7get_end17ha0e661f133cb6eb2E:
Lfunc_begin158:
	.loc	8 1104 0
	.cfi_startproc
	pushq	%rbp
	.cfi_def_cfa_offset 16
	.cfi_offset %rbp, -16
	movq	%rsp, %rbp
	.cfi_def_cfa_register %rbp
	subq	$112, %rsp
	movq	%rdi, -24(%rbp)
Ltmp493:
	.loc	8 1105 13 prologue_end
	movb	65(%rdi), %al
	.loc	8 1105 12 is_stmt 0
	xorb	$-1, %al
	testb	$1, %al
	movq	%rdi, -72(%rbp)
	jne	LBB158_3
	jmp	LBB158_2
LBB158_1:
	movb	$1, -42(%rbp)
	jmp	LBB158_4
LBB158_2:
	movb	$0, -42(%rbp)
	jmp	LBB158_4
LBB158_3:
	.loc	8 0 12
	movq	-72(%rbp), %rax
	.loc	8 1105 30
	testb	$1, 64(%rax)
	jne	LBB158_5
	jmp	LBB158_7
LBB158_4:
	.loc	8 1105 9
	testb	$1, -42(%rbp)
	jne	LBB158_10
	jmp	LBB158_9
LBB158_5:
	.loc	8 1105 30
	movb	$1, -41(%rbp)
	jmp	LBB158_8
LBB158_6:
	movb	$0, -41(%rbp)
	jmp	LBB158_8
LBB158_7:
	.loc	8 0 30
	movq	-72(%rbp), %rax
	.loc	8 1105 60
	movq	8(%rax), %rcx
	subq	(%rax), %rcx
	cmpq	$0, %rcx
	.loc	8 1105 30
	ja	LBB158_5
	jmp	LBB158_6
LBB158_8:
	.loc	8 1105 12
	testb	$1, -41(%rbp)
	jne	LBB158_1
	jmp	LBB158_2
LBB158_9:
	.loc	8 1113 13 is_stmt 1
	movq	$0, -64(%rbp)
	.loc	8 1105 9
	jmp	LBB158_13
LBB158_10:
	.loc	8 0 9 is_stmt 0
	movq	-72(%rbp), %rax
	.loc	8 1106 13 is_stmt 1
	movb	$1, 65(%rax)
	.loc	8 1109 30
	addq	$16, %rax
	movq	%rax, %rdi
	callq	__ZN81_$LT$core..str..pattern..CharSearcher$u20$as$u20$core..str..pattern..Searcher$GT$8haystack17hbeb3a67a31e9c7c7E
	movq	%rax, -80(%rbp)
	movq	%rdx, -88(%rbp)
	.loc	8 0 30 is_stmt 0
	movq	-72(%rbp), %rax
	.loc	8 1109 68
	movq	(%rax), %rcx
	.loc	8 1109 80
	movq	8(%rax), %rdx
	.loc	8 1109 68
	movq	%rcx, -40(%rbp)
	movq	%rdx, -32(%rbp)
	.loc	8 1109 30
	movq	-40(%rbp), %rdx
	movq	-32(%rbp), %rcx
	movq	-80(%rbp), %rdi
	movq	-88(%rbp), %rsi
	callq	__ZN4core3str21_$LT$impl$u20$str$GT$13get_unchecked17hb36119bffbe96015E
	movq	%rax, -16(%rbp)
	movq	%rdx, -8(%rbp)
	movq	%rax, -96(%rbp)
	movq	%rdx, -104(%rbp)
	.loc	8 0 30
	movq	-96(%rbp), %rax
Ltmp494:
	.loc	8 1110 17 is_stmt 1
	movq	%rax, -64(%rbp)
	movq	-104(%rbp), %rcx
	movq	%rcx, -56(%rbp)
Ltmp495:
LBB158_13:
	.loc	8 1115 6
	movq	-64(%rbp), %rax
	movq	-56(%rbp), %rdx
	addq	$112, %rsp
	popq	%rbp
	retq
Ltmp496:
Lfunc_end158:
	.cfi_endproc

	.p2align	4, 0x90
__ZN4core3str23from_utf8_unchecked_mut17hb79ab430095e762eE:
Lfunc_begin159:
	.loc	8 444 0
	.cfi_startproc
	pushq	%rbp
	.cfi_def_cfa_offset 16
	.cfi_offset %rbp, -16
	movq	%rsp, %rbp
	.cfi_def_cfa_register %rbp
	subq	$16, %rsp
	movq	%rdi, -16(%rbp)
	movq	%rsi, -8(%rbp)
Ltmp497:
	.loc	8 450 2 prologue_end
	movq	%rdi, %rax
	movq	%rsi, %rdx
	addq	$16, %rsp
	popq	%rbp
	retq
Ltmp498:
Lfunc_end159:
	.cfi_endproc

	.p2align	4, 0x90
__ZN4core3str6traits101_$LT$impl$u20$core..slice..SliceIndex$LT$str$GT$$u20$for$u20$core..ops..range..Range$LT$usize$GT$$GT$13get_unchecked17h669b96fb9dcf7183E:
Lfunc_begin160:
	.loc	8 1907 0
	.cfi_startproc
	pushq	%rbp
	.cfi_def_cfa_offset 16
	.cfi_offset %rbp, -16
	movq	%rsp, %rbp
	.cfi_def_cfa_register %rbp
	subq	$112, %rsp
	movq	%rdi, -64(%rbp)
	movq	%rsi, -56(%rbp)
	movq	%rdx, -48(%rbp)
	movq	%rcx, -40(%rbp)
Ltmp499:
	.loc	8 1908 25 prologue_end
	movq	%rdx, -32(%rbp)
	movq	%rcx, -24(%rbp)
	movq	%rdi, -72(%rbp)
Ltmp500:
	.loc	8 1911 32
	movq	%rdx, %rdi
	movq	%rsi, -80(%rbp)
	movq	%rcx, %rsi
	callq	__ZN4core3ptr9const_ptr43_$LT$impl$u20$$BP$const$u20$$u5b$T$u5d$$GT$6as_ptr17hb2605210395d1ddfE
	movq	%rax, -88(%rbp)
	.loc	8 0 32 is_stmt 0
	movq	-88(%rbp), %rdi
	movq	-72(%rbp), %rsi
	.loc	8 1911 32
	callq	__ZN4core3ptr9const_ptr33_$LT$impl$u20$$BP$const$u20$T$GT$3add17h9652e23b81a96307E
	movq	%rax, -16(%rbp)
	movq	%rax, -96(%rbp)
	.loc	8 0 32
	movq	-80(%rbp), %rax
	movq	-72(%rbp), %rcx
Ltmp501:
	.loc	8 1912 23 is_stmt 1
	subq	%rcx, %rax
	movq	%rax, -8(%rbp)
	movq	-96(%rbp), %rdi
Ltmp502:
	.loc	8 1913 13
	movq	%rax, %rsi
	callq	__ZN4core3ptr20slice_from_raw_parts17h9ecb93295149d21bE
	movq	%rax, -104(%rbp)
	movq	%rdx, -112(%rbp)
Ltmp503:
	.loc	8 0 13 is_stmt 0
	movq	-104(%rbp), %rax
	movq	-112(%rbp), %rdx
	.loc	8 1914 10 is_stmt 1
	addq	$112, %rsp
	popq	%rbp
	retq
Ltmp504:
Lfunc_end160:
	.cfi_endproc

	.p2align	4, 0x90
__ZN4core3str6traits54_$LT$impl$u20$core..cmp..PartialEq$u20$for$u20$str$GT$2eq17h20ffeba6eeb98606E:
Lfunc_begin161:
	.loc	8 1742 0
	.cfi_startproc
	pushq	%rbp
	.cfi_def_cfa_offset 16
	.cfi_offset %rbp, -16
	movq	%rsp, %rbp
	.cfi_def_cfa_register %rbp
	subq	$160, %rsp
	movq	%rdi, -96(%rbp)
	movq	%rsi, -88(%rbp)
	movq	%rdx, -80(%rbp)
	movq	%rcx, -72(%rbp)
	movq	%rdi, -48(%rbp)
	movq	%rsi, -40(%rbp)
Ltmp505:
	.loc	8 2359 18 prologue_end
	movq	%rdi, -64(%rbp)
	movq	%rsi, -56(%rbp)
	movq	-64(%rbp), %rax
	movq	-56(%rbp), %rsi
Ltmp506:
	.loc	8 1743 13
	movq	%rsi, -120(%rbp)
	movq	%rax, -128(%rbp)
	movq	%rdx, -136(%rbp)
	movq	%rcx, -144(%rbp)
	.loc	8 0 13 is_stmt 0
	movq	-136(%rbp), %rax
	movq	%rax, -16(%rbp)
	movq	-144(%rbp), %rcx
	movq	%rcx, -8(%rbp)
Ltmp507:
	.loc	8 2359 18 is_stmt 1
	movq	%rax, -32(%rbp)
	movq	%rcx, -24(%rbp)
	movq	-32(%rbp), %rdx
	movq	-24(%rbp), %rsi
Ltmp508:
	.loc	8 1743 32
	movq	%rsi, -104(%rbp)
	movq	%rdx, -112(%rbp)
	.loc	8 1743 13 is_stmt 0
	leaq	-128(%rbp), %rdi
	leaq	-112(%rbp), %rsi
	callq	__ZN4core3cmp5impls69_$LT$impl$u20$core..cmp..PartialEq$LT$$RF$B$GT$$u20$for$u20$$RF$A$GT$2eq17hcb1c5016b4c6a723E
	movb	%al, -145(%rbp)
	.loc	8 0 13
	movb	-145(%rbp), %al
	.loc	8 1744 10 is_stmt 1
	andb	$1, %al
	movzbl	%al, %eax
	addq	$160, %rsp
	popq	%rbp
	retq
Ltmp509:
Lfunc_end161:
	.cfi_endproc

	.p2align	4, 0x90
__ZN4core3str6traits54_$LT$impl$u20$core..cmp..PartialEq$u20$for$u20$str$GT$2ne17h7746ecd34c8e4f24E:
Lfunc_begin162:
	.loc	8 1746 0
	.cfi_startproc
	pushq	%rbp
	.cfi_def_cfa_offset 16
	.cfi_offset %rbp, -16
	movq	%rsp, %rbp
	.cfi_def_cfa_register %rbp
	subq	$48, %rsp
	movq	%rdi, -32(%rbp)
	movq	%rsi, -24(%rbp)
	movq	%rdx, -16(%rbp)
	movq	%rcx, -8(%rbp)
Ltmp510:
	.loc	8 1747 14 prologue_end
	callq	__ZN4core3str6traits54_$LT$impl$u20$core..cmp..PartialEq$u20$for$u20$str$GT$2eq17h20ffeba6eeb98606E
	movb	%al, -33(%rbp)
	.loc	8 0 14 is_stmt 0
	movb	-33(%rbp), %al
	.loc	8 1747 13
	xorb	$-1, %al
	.loc	8 1748 10 is_stmt 1
	andb	$1, %al
	movzbl	%al, %eax
	addq	$48, %rsp
	popq	%rbp
	retq
Ltmp511:
Lfunc_end162:
	.cfi_endproc

	.p2align	4, 0x90
__ZN4core4char7methods15encode_utf8_raw17h656bf5d0a37b9567E:
Lfunc_begin163:
	.file	24 "/rustc/6c8927b0cf80ceee19386026cf9d7fd4fd9d486f/src/libcore/char/methods.rs"
	.loc	24 1621 0
	.cfi_startproc
	pushq	%rbp
	.cfi_def_cfa_offset 16
	.cfi_offset %rbp, -16
	movq	%rsp, %rbp
	.cfi_def_cfa_register %rbp
	subq	$432, %rsp
	movl	%edi, -292(%rbp)
	movq	%rsi, -120(%rbp)
	movq	%rdx, -112(%rbp)
Ltmp512:
	.loc	24 1622 24 prologue_end
	movl	-292(%rbp), %edi
	movq	%rsi, -304(%rbp)
	movq	%rdx, -312(%rbp)
	.loc	24 1622 15 is_stmt 0
	callq	__ZN4core4char7methods8len_utf817h51a81d0a688b7cf6E
	movq	%rax, -288(%rbp)
	.loc	24 0 15
	leaq	l___unnamed_3(%rip), %rax
Ltmp513:
	.loc	24 1623 12 is_stmt 1
	movq	-288(%rbp), %rcx
	movq	-304(%rbp), %rdi
	movq	-312(%rbp), %rsi
	.loc	24 1623 22 is_stmt 0
	movq	%rax, %rdx
	movq	%rcx, -320(%rbp)
	callq	__ZN4core5slice77_$LT$impl$u20$core..ops..index..IndexMut$LT$I$GT$$u20$for$u20$$u5b$T$u5d$$GT$9index_mut17h8287cf9903e0777cE
	movq	%rax, -328(%rbp)
	movq	%rdx, -336(%rbp)
	.loc	24 0 22
	movq	-320(%rbp), %rax
	.loc	24 1623 11
	movq	%rax, -280(%rbp)
	movq	-328(%rbp), %rcx
	movq	%rcx, -272(%rbp)
	movq	-336(%rbp), %rdx
	movq	%rdx, -264(%rbp)
	.loc	24 1624 10 is_stmt 1
	movq	-280(%rbp), %rsi
	decq	%rsi
	movq	%rsi, %rdi
	subq	$3, %rdi
	movq	%rsi, -344(%rbp)
	ja	LBB163_4
	.loc	24 0 10 is_stmt 0
	leaq	LJTI163_0(%rip), %rax
	movq	-344(%rbp), %rcx
	movslq	(%rax,%rcx,4), %rdx
	addq	%rax, %rdx
	jmpq	*%rdx
LBB163_3:
	.loc	24 1624 13
	cmpq	$1, -264(%rbp)
	jae	LBB163_8
LBB163_4:
	.loc	24 1643 13 is_stmt 1
	movq	l___unnamed_4(%rip), %rax
	movq	-304(%rbp), %rdi
	movq	-312(%rbp), %rsi
	movq	%rax, -352(%rbp)
	.loc	24 1646 13
	callq	__ZN4core5slice29_$LT$impl$u20$$u5b$T$u5d$$GT$3len17h807f8ba861584158E
	movq	%rax, -136(%rbp)
	jmp	LBB163_12
LBB163_5:
	.loc	24 1627 13
	cmpq	$2, -264(%rbp)
	jae	LBB163_9
	jmp	LBB163_4
LBB163_6:
	.loc	24 1631 13
	cmpq	$3, -264(%rbp)
	jae	LBB163_10
	jmp	LBB163_4
LBB163_7:
	.loc	24 1636 13
	cmpq	$4, -264(%rbp)
	jae	LBB163_11
	jmp	LBB163_4
LBB163_8:
	.loc	24 1624 14
	movq	-272(%rbp), %rax
	movq	%rax, -32(%rbp)
Ltmp514:
	.loc	24 1625 18
	movl	-292(%rbp), %ecx
	.loc	24 1625 13 is_stmt 0
	movb	%cl, (%rax)
Ltmp515:
	.loc	24 1623 5 is_stmt 1
	jmp	LBB163_17
LBB163_9:
	.loc	24 1627 14
	movq	-272(%rbp), %rax
	movq	%rax, -48(%rbp)
	.loc	24 1627 17 is_stmt 0
	movq	-272(%rbp), %rcx
	movq	%rcx, %rdx
	addq	$1, %rdx
	movq	%rdx, -40(%rbp)
Ltmp516:
	.loc	24 1628 19 is_stmt 1
	movl	-292(%rbp), %esi
	shrl	$6, %esi
	.loc	24 1628 18 is_stmt 0
	andl	$31, %esi
	.loc	24 1628 13
	orb	$-64, %sil
	movb	%sil, (%rax)
	.loc	24 1629 19 is_stmt 1
	movl	-292(%rbp), %edi
	.loc	24 1629 18 is_stmt 0
	andl	$63, %edi
	.loc	24 1629 13
	orb	$-128, %dil
	movb	%dil, 1(%rcx)
Ltmp517:
	.loc	24 1623 5 is_stmt 1
	jmp	LBB163_17
LBB163_10:
	.loc	24 1631 14
	movq	-272(%rbp), %rax
	movq	%rax, -72(%rbp)
	.loc	24 1631 17 is_stmt 0
	movq	-272(%rbp), %rcx
	movq	%rcx, %rdx
	addq	$1, %rdx
	movq	%rdx, -64(%rbp)
	.loc	24 1631 20
	movq	-272(%rbp), %rdx
	movq	%rdx, %rsi
	addq	$2, %rsi
	movq	%rsi, -56(%rbp)
Ltmp518:
	.loc	24 1632 19 is_stmt 1
	movl	-292(%rbp), %edi
	shrl	$12, %edi
	.loc	24 1632 18 is_stmt 0
	andl	$15, %edi
	.loc	24 1632 13
	orb	$-32, %dil
	movb	%dil, (%rax)
	.loc	24 1633 19 is_stmt 1
	movl	-292(%rbp), %r8d
	shrl	$6, %r8d
	.loc	24 1633 18 is_stmt 0
	andl	$63, %r8d
	.loc	24 1633 13
	orb	$-128, %r8b
	movb	%r8b, 1(%rcx)
	.loc	24 1634 19 is_stmt 1
	movl	-292(%rbp), %r9d
	.loc	24 1634 18 is_stmt 0
	andl	$63, %r9d
	.loc	24 1634 13
	orb	$-128, %r9b
	movb	%r9b, 2(%rdx)
Ltmp519:
	.loc	24 1623 5 is_stmt 1
	jmp	LBB163_17
LBB163_11:
	.loc	24 1636 14
	movq	-272(%rbp), %rax
	movq	%rax, -104(%rbp)
	.loc	24 1636 17 is_stmt 0
	movq	-272(%rbp), %rcx
	movq	%rcx, %rdx
	addq	$1, %rdx
	movq	%rdx, -96(%rbp)
	.loc	24 1636 20
	movq	-272(%rbp), %rdx
	movq	%rdx, %rsi
	addq	$2, %rsi
	movq	%rsi, -88(%rbp)
	.loc	24 1636 23
	movq	-272(%rbp), %rsi
	movq	%rsi, %rdi
	addq	$3, %rdi
	movq	%rdi, -80(%rbp)
Ltmp520:
	.loc	24 1637 19 is_stmt 1
	movl	-292(%rbp), %r8d
	shrl	$18, %r8d
	.loc	24 1637 18 is_stmt 0
	andl	$7, %r8d
	.loc	24 1637 13
	orb	$-16, %r8b
	movb	%r8b, (%rax)
	.loc	24 1638 19 is_stmt 1
	movl	-292(%rbp), %r9d
	shrl	$12, %r9d
	.loc	24 1638 18 is_stmt 0
	andl	$63, %r9d
	.loc	24 1638 13
	orb	$-128, %r9b
	movb	%r9b, 1(%rcx)
	.loc	24 1639 19 is_stmt 1
	movl	-292(%rbp), %r10d
	shrl	$6, %r10d
	.loc	24 1639 18 is_stmt 0
	andl	$63, %r10d
	.loc	24 1639 13
	orb	$-128, %r10b
	movb	%r10b, 2(%rdx)
	.loc	24 1640 19 is_stmt 1
	movl	-292(%rbp), %r11d
	.loc	24 1640 18 is_stmt 0
	andl	$63, %r11d
	.loc	24 1640 13
	orb	$-128, %r11b
	movb	%r11b, 3(%rsi)
Ltmp521:
	.loc	24 1623 5 is_stmt 1
	jmp	LBB163_17
LBB163_12:
	.loc	24 0 5 is_stmt 0
	movq	__ZN4core3fmt3num3imp54_$LT$impl$u20$core..fmt..Display$u20$for$u20$usize$GT$3fmt17h12ea2856299c9b06E@GOTPCREL(%rip), %rsi
	.file	25 "/rustc/6c8927b0cf80ceee19386026cf9d7fd4fd9d486f/src/libcore/macros/mod.rs"
	.loc	25 19 38 is_stmt 1
	leaq	-288(%rbp), %rax
	movq	%rax, -160(%rbp)
	leaq	-292(%rbp), %rax
	movq	%rax, -152(%rbp)
	leaq	-136(%rbp), %rax
	movq	%rax, -144(%rbp)
	.loc	24 1644 13
	movq	-160(%rbp), %rax
	movq	%rax, -24(%rbp)
	.loc	24 1645 13
	movq	-152(%rbp), %rcx
	movq	%rcx, -16(%rbp)
	.loc	24 1646 13
	movq	-144(%rbp), %rdx
	movq	%rdx, -8(%rbp)
Ltmp522:
	.loc	25 19 38
	movq	%rax, %rdi
	movq	%rcx, -360(%rbp)
	movq	%rdx, -368(%rbp)
	callq	__ZN4core3fmt10ArgumentV13new17h3e3e83d4b8c4bc8fE
	movq	%rax, -376(%rbp)
	movq	%rdx, -384(%rbp)
	.loc	25 0 38 is_stmt 0
	movq	__ZN4core3fmt3num53_$LT$impl$u20$core..fmt..UpperHex$u20$for$u20$u32$GT$3fmt17h7bd10b5f3c9584f1E@GOTPCREL(%rip), %rsi
	movq	-360(%rbp), %rdi
	.loc	25 19 38
	callq	__ZN4core3fmt10ArgumentV13new17hdc49f8de09b4c8b5E
	movq	%rax, -392(%rbp)
	movq	%rdx, -400(%rbp)
	.loc	25 0 38
	movq	__ZN4core3fmt3num3imp54_$LT$impl$u20$core..fmt..Display$u20$for$u20$usize$GT$3fmt17h12ea2856299c9b06E@GOTPCREL(%rip), %rsi
	movq	-368(%rbp), %rdi
	.loc	25 19 38
	callq	__ZN4core3fmt10ArgumentV13new17h3e3e83d4b8c4bc8fE
	movq	%rax, -408(%rbp)
	movq	%rdx, -416(%rbp)
	.loc	25 0 38
	movq	-376(%rbp), %rax
	.loc	25 19 38
	movq	%rax, -208(%rbp)
	movq	-384(%rbp), %rcx
	movq	%rcx, -200(%rbp)
	movq	-392(%rbp), %rdx
	movq	%rdx, -192(%rbp)
	movq	-400(%rbp), %rsi
	movq	%rsi, -184(%rbp)
	movq	-408(%rbp), %rdi
	movq	%rdi, -176(%rbp)
	movq	-416(%rbp), %r8
	movq	%r8, -168(%rbp)
Ltmp523:
	.loc	25 19 38
	leaq	-208(%rbp), %r9
	leaq	-256(%rbp), %rdi
	movq	-352(%rbp), %rsi
	movl	$3, %r10d
	movq	%r10, %rdx
	movq	%r9, %rcx
	movq	%r10, %r8
	callq	__ZN4core3fmt9Arguments6new_v117ha93eddda787f6f88E
	.loc	25 19 9
	leaq	l___unnamed_5(%rip), %rsi
	leaq	-256(%rbp), %rdi
	callq	__ZN4core9panicking9panic_fmt17hfce5b7173905fc53E
LBB163_17:
	.loc	25 0 9
	leaq	l___unnamed_6(%rip), %rax
	.loc	24 1649 16 is_stmt 1
	movq	-288(%rbp), %rcx
	.loc	24 1649 14 is_stmt 0
	movq	%rcx, -128(%rbp)
	.loc	24 1649 10
	movq	-128(%rbp), %rdx
	movq	-304(%rbp), %rdi
	movq	-312(%rbp), %rsi
	movq	%rax, %rcx
	callq	__ZN4core5slice77_$LT$impl$u20$core..ops..index..IndexMut$LT$I$GT$$u20$for$u20$$u5b$T$u5d$$GT$9index_mut17hc7a71a1238761cb2E
	movq	%rax, -424(%rbp)
	movq	%rdx, -432(%rbp)
Ltmp524:
	.loc	24 0 10
	movq	-424(%rbp), %rax
	movq	-432(%rbp), %rdx
	.loc	24 1650 2 is_stmt 1
	addq	$432, %rsp
	popq	%rbp
	retq
Ltmp525:
Lfunc_end163:
	.cfi_endproc
	.p2align	2, 0x90
	.data_region jt32
.set L163_0_set_3, LBB163_3-LJTI163_0
.set L163_0_set_5, LBB163_5-LJTI163_0
.set L163_0_set_6, LBB163_6-LJTI163_0
.set L163_0_set_7, LBB163_7-LJTI163_0
LJTI163_0:
	.long	L163_0_set_3
	.long	L163_0_set_5
	.long	L163_0_set_6
	.long	L163_0_set_7
	.end_data_region

	.p2align	4, 0x90
__ZN4core4char7methods22_$LT$impl$u20$char$GT$11encode_utf817hd9d5de6a86b413baE:
Lfunc_begin164:
	.loc	24 642 0
	.cfi_startproc
	pushq	%rbp
	.cfi_def_cfa_offset 16
	.cfi_offset %rbp, -16
	movq	%rsp, %rbp
	.cfi_def_cfa_register %rbp
	subq	$64, %rsp
	movl	%edi, -20(%rbp)
	movq	%rsi, -16(%rbp)
	movq	%rdx, -8(%rbp)
Ltmp526:
	.loc	24 644 42 prologue_end
	callq	__ZN4core4char7methods15encode_utf8_raw17h656bf5d0a37b9567E
	movq	%rax, -32(%rbp)
	movq	%rdx, -40(%rbp)
	.loc	24 0 42 is_stmt 0
	movq	-32(%rbp), %rdi
	movq	-40(%rbp), %rsi
	.loc	24 644 18
	callq	__ZN4core3str23from_utf8_unchecked_mut17hb79ab430095e762eE
	movq	%rax, -48(%rbp)
	movq	%rdx, -56(%rbp)
	.loc	24 0 18
	movq	-48(%rbp), %rax
	movq	-56(%rbp), %rdx
	.loc	24 645 6 is_stmt 1
	addq	$64, %rsp
	popq	%rbp
	retq
Ltmp527:
Lfunc_end164:
	.cfi_endproc

	.p2align	4, 0x90
__ZN4core4char7methods8len_utf817h51a81d0a688b7cf6E:
Lfunc_begin165:
	.loc	24 1593 0
	.cfi_startproc
	pushq	%rbp
	.cfi_def_cfa_offset 16
	.cfi_offset %rbp, -16
	movq	%rsp, %rbp
	.cfi_def_cfa_register %rbp
	subq	$24, %rsp
	movl	%edi, -4(%rbp)
Ltmp528:
	.loc	24 1594 8 prologue_end
	cmpl	$128, %edi
	movl	%edi, -20(%rbp)
	.loc	24 1594 5 is_stmt 0
	jb	LBB165_2
	.loc	24 0 5
	movl	-20(%rbp), %eax
	.loc	24 1596 15 is_stmt 1
	cmpl	$2048, %eax
	.loc	24 1596 12 is_stmt 0
	jb	LBB165_4
	jmp	LBB165_3
LBB165_2:
	.loc	24 1595 9 is_stmt 1
	movq	$1, -16(%rbp)
	.loc	24 1594 5
	jmp	LBB165_9
LBB165_3:
	.loc	24 0 5 is_stmt 0
	movl	-20(%rbp), %eax
	.loc	24 1598 15 is_stmt 1
	cmpl	$65536, %eax
	.loc	24 1598 12 is_stmt 0
	jb	LBB165_6
	jmp	LBB165_5
LBB165_4:
	.loc	24 1597 9 is_stmt 1
	movq	$2, -16(%rbp)
	.loc	24 1596 12
	jmp	LBB165_8
LBB165_5:
	.loc	24 1601 9
	movq	$4, -16(%rbp)
	.loc	24 1598 12
	jmp	LBB165_7
LBB165_6:
	.loc	24 1599 9
	movq	$3, -16(%rbp)
LBB165_7:
	.loc	24 1596 12
	jmp	LBB165_8
LBB165_8:
	.loc	24 1594 5
	jmp	LBB165_9
LBB165_9:
	.loc	24 1603 2
	movq	-16(%rbp), %rax
	addq	$24, %rsp
	popq	%rbp
	retq
Ltmp529:
Lfunc_end165:
	.cfi_endproc

	.p2align	4, 0x90
__ZN4core5alloc6layout10size_align17h3f70b6e2ac845ce7E:
Lfunc_begin166:
	.file	26 "/rustc/6c8927b0cf80ceee19386026cf9d7fd4fd9d486f/src/libcore/alloc/layout.rs"
	.loc	26 7 0
	.cfi_startproc
	pushq	%rbp
	.cfi_def_cfa_offset 16
	.cfi_offset %rbp, -16
	movq	%rsp, %rbp
	.cfi_def_cfa_register %rbp
	subq	$48, %rsp
Ltmp530:
	.loc	16 310 5 prologue_end
	movq	$640, -16(%rbp)
	movq	-16(%rbp), %rax
	movq	%rax, -40(%rbp)
Ltmp531:
	.loc	16 451 5
	movq	$8, -8(%rbp)
	movq	-8(%rbp), %rax
	movq	%rax, -48(%rbp)
Ltmp532:
	.loc	16 0 5 is_stmt 0
	movq	-40(%rbp), %rax
	.loc	26 8 5 is_stmt 1
	movq	%rax, -32(%rbp)
	movq	-48(%rbp), %rcx
	movq	%rcx, -24(%rbp)
	.loc	26 9 2
	movq	-32(%rbp), %rax
	movq	-24(%rbp), %rdx
	addq	$48, %rsp
	popq	%rbp
	retq
Ltmp533:
Lfunc_end166:
	.cfi_endproc

	.p2align	4, 0x90
__ZN4core5alloc6layout10size_align17hf2d7e199edd09d4dE:
Lfunc_begin167:
	.loc	26 7 0
	.cfi_startproc
	pushq	%rbp
	.cfi_def_cfa_offset 16
	.cfi_offset %rbp, -16
	movq	%rsp, %rbp
	.cfi_def_cfa_register %rbp
	subq	$48, %rsp
Ltmp534:
	.loc	16 310 5 prologue_end
	movq	$544, -16(%rbp)
	movq	-16(%rbp), %rax
	movq	%rax, -40(%rbp)
Ltmp535:
	.loc	16 451 5
	movq	$8, -8(%rbp)
	movq	-8(%rbp), %rax
	movq	%rax, -48(%rbp)
Ltmp536:
	.loc	16 0 5 is_stmt 0
	movq	-40(%rbp), %rax
	.loc	26 8 5 is_stmt 1
	movq	%rax, -32(%rbp)
	movq	-48(%rbp), %rcx
	movq	%rcx, -24(%rbp)
	.loc	26 9 2
	movq	-32(%rbp), %rax
	movq	-24(%rbp), %rdx
	addq	$48, %rsp
	popq	%rbp
	retq
Ltmp537:
Lfunc_end167:
	.cfi_endproc

	.p2align	4, 0x90
__ZN4core5alloc6layout6Layout25from_size_align_unchecked17h7e05e0c838c95d44E:
Lfunc_begin168:
	.loc	26 92 0
	.cfi_startproc
	pushq	%rbp
	.cfi_def_cfa_offset 16
	.cfi_offset %rbp, -16
	movq	%rsp, %rbp
	.cfi_def_cfa_register %rbp
	subq	$48, %rsp
	movq	%rdi, -16(%rbp)
	movq	%rsi, -8(%rbp)
	movq	%rdi, -40(%rbp)
Ltmp538:
	.loc	26 94 48 prologue_end
	movq	%rsi, %rdi
	callq	__ZN4core3num12NonZeroUsize13new_unchecked17h773f1d51463e6becE
	movq	%rax, -48(%rbp)
	.loc	26 0 48 is_stmt 0
	movq	-40(%rbp), %rax
	.loc	26 94 9
	movq	%rax, -32(%rbp)
	movq	-48(%rbp), %rcx
	movq	%rcx, -24(%rbp)
	.loc	26 95 6 is_stmt 1
	movq	-32(%rbp), %rax
	movq	-24(%rbp), %rdx
	addq	$48, %rsp
	popq	%rbp
	retq
Ltmp539:
Lfunc_end168:
	.cfi_endproc

	.p2align	4, 0x90
__ZN4core5alloc6layout6Layout3new17he64ef2c4f26c30feE:
Lfunc_begin169:
	.loc	26 117 0
	.cfi_startproc
	pushq	%rbp
	.cfi_def_cfa_offset 16
	.cfi_offset %rbp, -16
	movq	%rsp, %rbp
	.cfi_def_cfa_register %rbp
	subq	$48, %rsp
Ltmp540:
	.loc	26 118 29 prologue_end
	callq	__ZN4core5alloc6layout10size_align17hf2d7e199edd09d4dE
	movq	%rax, -24(%rbp)
	movq	%rdx, -32(%rbp)
	.loc	26 0 29 is_stmt 0
	movq	-24(%rbp), %rax
	.loc	26 118 14
	movq	%rax, -16(%rbp)
	movq	-32(%rbp), %rcx
	.loc	26 118 20
	movq	%rcx, -8(%rbp)
Ltmp541:
	.loc	26 123 18 is_stmt 1
	movq	%rax, %rdi
	movq	%rcx, %rsi
	callq	__ZN4core5alloc6layout6Layout25from_size_align_unchecked17h7e05e0c838c95d44E
	movq	%rax, -40(%rbp)
	movq	%rdx, -48(%rbp)
Ltmp542:
	.loc	26 0 18 is_stmt 0
	movq	-40(%rbp), %rax
	movq	-48(%rbp), %rdx
	.loc	26 124 6 is_stmt 1
	addq	$48, %rsp
	popq	%rbp
	retq
Ltmp543:
Lfunc_end169:
	.cfi_endproc

	.p2align	4, 0x90
__ZN4core5alloc6layout6Layout3new17hf3e6cd7cd85d1fb6E:
Lfunc_begin170:
	.loc	26 117 0
	.cfi_startproc
	pushq	%rbp
	.cfi_def_cfa_offset 16
	.cfi_offset %rbp, -16
	movq	%rsp, %rbp
	.cfi_def_cfa_register %rbp
	subq	$48, %rsp
Ltmp544:
	.loc	26 118 29 prologue_end
	callq	__ZN4core5alloc6layout10size_align17h3f70b6e2ac845ce7E
	movq	%rax, -24(%rbp)
	movq	%rdx, -32(%rbp)
	.loc	26 0 29 is_stmt 0
	movq	-24(%rbp), %rax
	.loc	26 118 14
	movq	%rax, -16(%rbp)
	movq	-32(%rbp), %rcx
	.loc	26 118 20
	movq	%rcx, -8(%rbp)
Ltmp545:
	.loc	26 123 18 is_stmt 1
	movq	%rax, %rdi
	movq	%rcx, %rsi
	callq	__ZN4core5alloc6layout6Layout25from_size_align_unchecked17h7e05e0c838c95d44E
	movq	%rax, -40(%rbp)
	movq	%rdx, -48(%rbp)
Ltmp546:
	.loc	26 0 18 is_stmt 0
	movq	-40(%rbp), %rax
	movq	-48(%rbp), %rdx
	.loc	26 124 6 is_stmt 1
	addq	$48, %rsp
	popq	%rbp
	retq
Ltmp547:
Lfunc_end170:
	.cfi_endproc

	.p2align	4, 0x90
__ZN4core5alloc6layout6Layout4size17h25b0918691bc6127E:
Lfunc_begin171:
	.loc	26 101 0
	.cfi_startproc
	pushq	%rbp
	.cfi_def_cfa_offset 16
	.cfi_offset %rbp, -16
	movq	%rsp, %rbp
	.cfi_def_cfa_register %rbp
	pushq	%rax
	movq	%rdi, -8(%rbp)
Ltmp548:
	.loc	26 102 9 prologue_end
	movq	(%rdi), %rax
	.loc	26 103 6
	addq	$8, %rsp
	popq	%rbp
	retq
Ltmp549:
Lfunc_end171:
	.cfi_endproc

	.p2align	4, 0x90
__ZN4core5alloc6layout6Layout5align17hb56fd1692542f64aE:
Lfunc_begin172:
	.loc	26 109 0
	.cfi_startproc
	pushq	%rbp
	.cfi_def_cfa_offset 16
	.cfi_offset %rbp, -16
	movq	%rsp, %rbp
	.cfi_def_cfa_register %rbp
	subq	$16, %rsp
	movq	%rdi, -8(%rbp)
Ltmp550:
	.loc	26 110 9 prologue_end
	movq	8(%rdi), %rdi
	callq	__ZN4core3num12NonZeroUsize3get17h17a8d575bb6c5545E
	movq	%rax, -16(%rbp)
	.loc	26 0 9 is_stmt 0
	movq	-16(%rbp), %rax
	.loc	26 111 6 is_stmt 1
	addq	$16, %rsp
	popq	%rbp
	retq
Ltmp551:
Lfunc_end172:
	.cfi_endproc

	.p2align	4, 0x90
__ZN4core5slice14from_raw_parts17h385eed4dd76ff637E:
Lfunc_begin173:
	.loc	1 6094 0
	.cfi_startproc
	pushq	%rbp
	.cfi_def_cfa_offset 16
	.cfi_offset %rbp, -16
	movq	%rsp, %rbp
	.cfi_def_cfa_register %rbp
	subq	$32, %rsp
	movq	%rdi, -16(%rbp)
	movq	%rsi, -8(%rbp)
Ltmp552:
	.loc	1 6101 16 prologue_end
	callq	__ZN4core3ptr20slice_from_raw_parts17h9ecb93295149d21bE
	movq	%rax, -24(%rbp)
	movq	%rdx, -32(%rbp)
	.loc	1 0 16 is_stmt 0
	movq	-24(%rbp), %rax
	movq	-32(%rbp), %rdx
	.loc	1 6102 2 is_stmt 1
	addq	$32, %rsp
	popq	%rbp
	retq
Ltmp553:
Lfunc_end173:
	.cfi_endproc

	.p2align	4, 0x90
__ZN4core5slice14from_raw_parts17h3e26650b1ed47fe8E:
Lfunc_begin174:
	.loc	1 6094 0
	.cfi_startproc
	pushq	%rbp
	.cfi_def_cfa_offset 16
	.cfi_offset %rbp, -16
	movq	%rsp, %rbp
	.cfi_def_cfa_register %rbp
	subq	$32, %rsp
	movq	%rdi, -16(%rbp)
	movq	%rsi, -8(%rbp)
Ltmp554:
	.loc	1 6101 16 prologue_end
	callq	__ZN4core3ptr20slice_from_raw_parts17h8f2fb586068e9551E
	movq	%rax, -24(%rbp)
	movq	%rdx, -32(%rbp)
	.loc	1 0 16 is_stmt 0
	movq	-24(%rbp), %rax
	movq	-32(%rbp), %rdx
	.loc	1 6102 2 is_stmt 1
	addq	$32, %rsp
	popq	%rbp
	retq
Ltmp555:
Lfunc_end174:
	.cfi_endproc

	.p2align	4, 0x90
__ZN4core5slice14from_raw_parts17hfda219bae55af339E:
Lfunc_begin175:
	.loc	1 6094 0
	.cfi_startproc
	pushq	%rbp
	.cfi_def_cfa_offset 16
	.cfi_offset %rbp, -16
	movq	%rsp, %rbp
	.cfi_def_cfa_register %rbp
	subq	$32, %rsp
	movq	%rdi, -16(%rbp)
	movq	%rsi, -8(%rbp)
Ltmp556:
	.loc	1 6101 16 prologue_end
	callq	__ZN4core3ptr20slice_from_raw_parts17hc81367c10a65411aE
	movq	%rax, -24(%rbp)
	movq	%rdx, -32(%rbp)
	.loc	1 0 16 is_stmt 0
	movq	-24(%rbp), %rax
	movq	-32(%rbp), %rdx
	.loc	1 6102 2 is_stmt 1
	addq	$32, %rsp
	popq	%rbp
	retq
Ltmp557:
Lfunc_end175:
	.cfi_endproc

	.p2align	4, 0x90
__ZN4core5slice29_$LT$impl$u20$$u5b$T$u5d$$GT$13get_unchecked17h135156a665edfe26E:
Lfunc_begin176:
	.loc	1 309 0
	.cfi_startproc
	pushq	%rbp
	.cfi_def_cfa_offset 16
	.cfi_offset %rbp, -16
	movq	%rsp, %rbp
	.cfi_def_cfa_register %rbp
	subq	$48, %rsp
	movq	%rdi, -24(%rbp)
	movq	%rsi, -16(%rbp)
	movq	%rdx, -8(%rbp)
	movq	%rdi, -32(%rbp)
Ltmp558:
	.loc	1 316 20 prologue_end
	movq	%rdx, %rdi
	movq	-32(%rbp), %rax
	movq	%rsi, -40(%rbp)
	movq	%rax, %rsi
	movq	-40(%rbp), %rdx
	callq	__ZN68_$LT$usize$u20$as$u20$core..slice..SliceIndex$LT$$u5b$T$u5d$$GT$$GT$13get_unchecked17h83f5bf95679ef9daE
	movq	%rax, -48(%rbp)
	.loc	1 0 20 is_stmt 0
	movq	-48(%rbp), %rax
	.loc	1 317 6 is_stmt 1
	addq	$48, %rsp
	popq	%rbp
	retq
Ltmp559:
Lfunc_end176:
	.cfi_endproc

	.p2align	4, 0x90
__ZN4core5slice29_$LT$impl$u20$$u5b$T$u5d$$GT$13get_unchecked17h8a2c8ba6886f9bf7E:
Lfunc_begin177:
	.loc	1 309 0
	.cfi_startproc
	pushq	%rbp
	.cfi_def_cfa_offset 16
	.cfi_offset %rbp, -16
	movq	%rsp, %rbp
	.cfi_def_cfa_register %rbp
	subq	$48, %rsp
	movq	%rdi, -24(%rbp)
	movq	%rsi, -16(%rbp)
	movq	%rdx, -8(%rbp)
	movq	%rdi, -32(%rbp)
Ltmp560:
	.loc	1 316 20 prologue_end
	movq	%rdx, %rdi
	movq	-32(%rbp), %rax
	movq	%rsi, -40(%rbp)
	movq	%rax, %rsi
	movq	-40(%rbp), %rdx
	callq	__ZN68_$LT$usize$u20$as$u20$core..slice..SliceIndex$LT$$u5b$T$u5d$$GT$$GT$13get_unchecked17h6ef15eed204d08a9E
	movq	%rax, -48(%rbp)
	.loc	1 0 20 is_stmt 0
	movq	-48(%rbp), %rax
	.loc	1 317 6 is_stmt 1
	addq	$48, %rsp
	popq	%rbp
	retq
Ltmp561:
Lfunc_end177:
	.cfi_endproc

	.p2align	4, 0x90
__ZN4core5slice29_$LT$impl$u20$$u5b$T$u5d$$GT$13get_unchecked17hd1d3db8da22f4a4aE:
Lfunc_begin178:
	.loc	1 309 0
	.cfi_startproc
	pushq	%rbp
	.cfi_def_cfa_offset 16
	.cfi_offset %rbp, -16
	movq	%rsp, %rbp
	.cfi_def_cfa_register %rbp
	subq	$48, %rsp
	movq	%rdi, -24(%rbp)
	movq	%rsi, -16(%rbp)
	movq	%rdx, -8(%rbp)
	movq	%rdi, -32(%rbp)
Ltmp562:
	.loc	1 316 20 prologue_end
	movq	%rdx, %rdi
	movq	-32(%rbp), %rax
	movq	%rsi, -40(%rbp)
	movq	%rax, %rsi
	movq	-40(%rbp), %rdx
	callq	__ZN68_$LT$usize$u20$as$u20$core..slice..SliceIndex$LT$$u5b$T$u5d$$GT$$GT$13get_unchecked17hd31c42f926db5b00E
	movq	%rax, -48(%rbp)
	.loc	1 0 20 is_stmt 0
	movq	-48(%rbp), %rax
	.loc	1 317 6 is_stmt 1
	addq	$48, %rsp
	popq	%rbp
	retq
Ltmp563:
Lfunc_end178:
	.cfi_endproc

	.p2align	4, 0x90
__ZN4core5slice29_$LT$impl$u20$$u5b$T$u5d$$GT$13get_unchecked17hf33e7aa3c16d71d3E:
Lfunc_begin179:
	.loc	1 309 0
	.cfi_startproc
	pushq	%rbp
	.cfi_def_cfa_offset 16
	.cfi_offset %rbp, -16
	movq	%rsp, %rbp
	.cfi_def_cfa_register %rbp
	subq	$48, %rsp
	movq	%rdi, -24(%rbp)
	movq	%rsi, -16(%rbp)
	movq	%rdx, -8(%rbp)
	movq	%rdi, -32(%rbp)
Ltmp564:
	.loc	1 316 20 prologue_end
	movq	%rdx, %rdi
	movq	-32(%rbp), %rax
	movq	%rsi, -40(%rbp)
	movq	%rax, %rsi
	movq	-40(%rbp), %rdx
	callq	__ZN68_$LT$usize$u20$as$u20$core..slice..SliceIndex$LT$$u5b$T$u5d$$GT$$GT$13get_unchecked17h052a96febe65beb3E
	movq	%rax, -48(%rbp)
	.loc	1 0 20 is_stmt 0
	movq	-48(%rbp), %rax
	.loc	1 317 6 is_stmt 1
	addq	$48, %rsp
	popq	%rbp
	retq
Ltmp565:
Lfunc_end179:
	.cfi_endproc

	.p2align	4, 0x90
__ZN4core5slice29_$LT$impl$u20$$u5b$T$u5d$$GT$17get_unchecked_mut17h65de1a6a616175c4E:
Lfunc_begin180:
	.loc	1 343 0
	.cfi_startproc
	pushq	%rbp
	.cfi_def_cfa_offset 16
	.cfi_offset %rbp, -16
	movq	%rsp, %rbp
	.cfi_def_cfa_register %rbp
	subq	$48, %rsp
	movq	%rdi, -24(%rbp)
	movq	%rsi, -16(%rbp)
	movq	%rdx, -8(%rbp)
	movq	%rdi, -32(%rbp)
Ltmp566:
	.loc	1 350 24 prologue_end
	movq	%rdx, %rdi
	movq	-32(%rbp), %rax
	movq	%rsi, -40(%rbp)
	movq	%rax, %rsi
	movq	-40(%rbp), %rdx
	callq	__ZN68_$LT$usize$u20$as$u20$core..slice..SliceIndex$LT$$u5b$T$u5d$$GT$$GT$17get_unchecked_mut17hf8b6f22123c67d35E
	movq	%rax, -48(%rbp)
	.loc	1 0 24 is_stmt 0
	movq	-48(%rbp), %rax
	.loc	1 351 6 is_stmt 1
	addq	$48, %rsp
	popq	%rbp
	retq
Ltmp567:
Lfunc_end180:
	.cfi_endproc

	.p2align	4, 0x90
__ZN4core5slice29_$LT$impl$u20$$u5b$T$u5d$$GT$3get17h4f953d1a7c33c7d5E:
Lfunc_begin181:
	.loc	1 256 0
	.cfi_startproc
	pushq	%rbp
	.cfi_def_cfa_offset 16
	.cfi_offset %rbp, -16
	movq	%rsp, %rbp
	.cfi_def_cfa_register %rbp
	subq	$64, %rsp
	movq	%rdi, -32(%rbp)
	movq	%rsi, -24(%rbp)
	movq	%rdx, -16(%rbp)
	movq	%rcx, -8(%rbp)
	movq	%rdi, -40(%rbp)
Ltmp568:
	.loc	1 260 9 prologue_end
	movq	%rdx, %rdi
	movq	%rsi, -48(%rbp)
	movq	%rcx, %rsi
	movq	-40(%rbp), %rdx
	movq	-48(%rbp), %rcx
	callq	__ZN99_$LT$core..ops..range..Range$LT$usize$GT$$u20$as$u20$core..slice..SliceIndex$LT$$u5b$T$u5d$$GT$$GT$3get17hb602710e9e35acc9E
	movq	%rax, -56(%rbp)
	movq	%rdx, -64(%rbp)
	.loc	1 0 9 is_stmt 0
	movq	-56(%rbp), %rax
	movq	-64(%rbp), %rdx
	.loc	1 261 6 is_stmt 1
	addq	$64, %rsp
	popq	%rbp
	retq
Ltmp569:
Lfunc_end181:
	.cfi_endproc

	.p2align	4, 0x90
__ZN4core5slice29_$LT$impl$u20$$u5b$T$u5d$$GT$3len17h807f8ba861584158E:
Lfunc_begin182:
	.loc	1 72 0
	.cfi_startproc
	pushq	%rbp
	.cfi_def_cfa_offset 16
	.cfi_offset %rbp, -16
	movq	%rsp, %rbp
	.cfi_def_cfa_register %rbp
	subq	$32, %rsp
	movq	%rdi, -16(%rbp)
	movq	%rsi, -8(%rbp)
Ltmp570:
	.loc	1 73 18 prologue_end
	movq	%rdi, -32(%rbp)
	movq	%rsi, -24(%rbp)
	movq	-24(%rbp), %rax
	.loc	1 74 6
	addq	$32, %rsp
	popq	%rbp
	retq
Ltmp571:
Lfunc_end182:
	.cfi_endproc

	.p2align	4, 0x90
__ZN4core5slice29_$LT$impl$u20$$u5b$T$u5d$$GT$6as_ptr17h86c668aa0dbc64a9E:
Lfunc_begin183:
	.loc	1 382 0
	.cfi_startproc
	pushq	%rbp
	.cfi_def_cfa_offset 16
	.cfi_offset %rbp, -16
	movq	%rsp, %rbp
	.cfi_def_cfa_register %rbp
	subq	$16, %rsp
	movq	%rdi, -16(%rbp)
	movq	%rsi, -8(%rbp)
Ltmp572:
	.loc	1 384 6 prologue_end
	movq	%rdi, %rax
	addq	$16, %rsp
	popq	%rbp
	retq
Ltmp573:
Lfunc_end183:
	.cfi_endproc

	.p2align	4, 0x90
__ZN4core5slice74_$LT$impl$u20$core..ops..index..Index$LT$I$GT$$u20$for$u20$$u5b$T$u5d$$GT$5index17h2f94f42c6071568aE:
Lfunc_begin184:
	.loc	1 2958 0
	.cfi_startproc
	pushq	%rbp
	.cfi_def_cfa_offset 16
	.cfi_offset %rbp, -16
	movq	%rsp, %rbp
	.cfi_def_cfa_register %rbp
	subq	$64, %rsp
	movq	%rdi, -32(%rbp)
	movq	%rsi, -24(%rbp)
	movq	%rdx, -16(%rbp)
	movq	%rcx, -8(%rbp)
	movq	%rdi, -40(%rbp)
Ltmp574:
	.loc	1 2959 9 prologue_end
	movq	%rdx, %rdi
	movq	%rsi, -48(%rbp)
	movq	%rcx, %rsi
	movq	-40(%rbp), %rdx
	movq	-48(%rbp), %rcx
	callq	__ZN99_$LT$core..ops..range..Range$LT$usize$GT$$u20$as$u20$core..slice..SliceIndex$LT$$u5b$T$u5d$$GT$$GT$5index17hcb1353f0aad74949E
	movq	%rax, -56(%rbp)
	movq	%rdx, -64(%rbp)
	.loc	1 0 9 is_stmt 0
	movq	-56(%rbp), %rax
	movq	-64(%rbp), %rdx
	.loc	1 2960 6 is_stmt 1
	addq	$64, %rsp
	popq	%rbp
	retq
Ltmp575:
Lfunc_end184:
	.cfi_endproc

	.p2align	4, 0x90
__ZN4core5slice77_$LT$impl$u20$core..ops..index..IndexMut$LT$I$GT$$u20$for$u20$$u5b$T$u5d$$GT$9index_mut17h8287cf9903e0777cE:
Lfunc_begin185:
	.loc	1 2969 0
	.cfi_startproc
	pushq	%rbp
	.cfi_def_cfa_offset 16
	.cfi_offset %rbp, -16
	movq	%rsp, %rbp
	.cfi_def_cfa_register %rbp
	subq	$48, %rsp
	movq	%rdi, -24(%rbp)
	movq	%rsi, -16(%rbp)
Ltmp576:
	.loc	1 2970 9 prologue_end
	callq	__ZN90_$LT$core..ops..range..RangeFull$u20$as$u20$core..slice..SliceIndex$LT$$u5b$T$u5d$$GT$$GT$9index_mut17h5d467beaa15d5871E
	movq	%rax, -32(%rbp)
	movq	%rdx, -40(%rbp)
	.loc	1 0 9 is_stmt 0
	movq	-32(%rbp), %rax
	movq	-40(%rbp), %rdx
	.loc	1 2971 6 is_stmt 1
	addq	$48, %rsp
	popq	%rbp
	retq
Ltmp577:
Lfunc_end185:
	.cfi_endproc

	.p2align	4, 0x90
__ZN4core5slice77_$LT$impl$u20$core..ops..index..IndexMut$LT$I$GT$$u20$for$u20$$u5b$T$u5d$$GT$9index_mut17hc7a71a1238761cb2E:
Lfunc_begin186:
	.loc	1 2969 0
	.cfi_startproc
	pushq	%rbp
	.cfi_def_cfa_offset 16
	.cfi_offset %rbp, -16
	movq	%rsp, %rbp
	.cfi_def_cfa_register %rbp
	subq	$64, %rsp
	movq	%rdi, -24(%rbp)
	movq	%rsi, -16(%rbp)
	movq	%rdx, -8(%rbp)
	movq	%rdi, -32(%rbp)
Ltmp578:
	.loc	1 2970 9 prologue_end
	movq	%rdx, %rdi
	movq	-32(%rbp), %rax
	movq	%rsi, -40(%rbp)
	movq	%rax, %rsi
	movq	-40(%rbp), %rdx
	callq	__ZN101_$LT$core..ops..range..RangeTo$LT$usize$GT$$u20$as$u20$core..slice..SliceIndex$LT$$u5b$T$u5d$$GT$$GT$9index_mut17h1103bb2d99d64029E
	movq	%rax, -48(%rbp)
	movq	%rdx, -56(%rbp)
	.loc	1 0 9 is_stmt 0
	movq	-48(%rbp), %rax
	movq	-56(%rbp), %rdx
	.loc	1 2971 6 is_stmt 1
	addq	$64, %rsp
	popq	%rbp
	retq
Ltmp579:
Lfunc_end186:
	.cfi_endproc

	.p2align	4, 0x90
__ZN4core5slice81_$LT$impl$u20$core..cmp..PartialEq$LT$$u5b$B$u5d$$GT$$u20$for$u20$$u5b$A$u5d$$GT$2eq17h6755bf9bf80791dfE:
Lfunc_begin187:
	.loc	1 6187 0
	.cfi_startproc
	pushq	%rbp
	.cfi_def_cfa_offset 16
	.cfi_offset %rbp, -16
	movq	%rsp, %rbp
	.cfi_def_cfa_register %rbp
	subq	$48, %rsp
	movq	%rdi, -32(%rbp)
	movq	%rsi, -24(%rbp)
	movq	%rdx, -16(%rbp)
	movq	%rcx, -8(%rbp)
Ltmp580:
	.loc	1 6188 9 prologue_end
	callq	__ZN68_$LT$$u5b$A$u5d$$u20$as$u20$core..slice..SlicePartialEq$LT$A$GT$$GT$5equal17hae3d131b1f15d48fE
	movb	%al, -33(%rbp)
	.loc	1 0 9 is_stmt 0
	movb	-33(%rbp), %al
	.loc	1 6189 6 is_stmt 1
	andb	$1, %al
	movzbl	%al, %eax
	addq	$48, %rsp
	popq	%rbp
	retq
Ltmp581:
Lfunc_end187:
	.cfi_endproc

	.p2align	4, 0x90
__ZN4core6option15Option$LT$T$GT$14unwrap_or_else17h44bcbbb53ae572abE:
Lfunc_begin188:
	.file	27 "/rustc/6c8927b0cf80ceee19386026cf9d7fd4fd9d486f/src/libcore/option.rs"
	.loc	27 425 0
	.cfi_startproc
	.cfi_personality 155, _rust_eh_personality
	.cfi_lsda 16, Lexception20
	pushq	%rbp
	.cfi_def_cfa_offset 16
	.cfi_offset %rbp, -16
	movq	%rsp, %rbp
	.cfi_def_cfa_register %rbp
	subq	$96, %rsp
	movq	%rdi, %rax
Ltmp585:
	.loc	27 427 13 prologue_end
	movb	$0, -25(%rbp)
	movb	$1, -25(%rbp)
	movq	8(%rsi), %rcx
	testq	%rcx, %rcx
	setne	%dl
	movzbl	%dl, %r8d
	movl	%r8d, %ecx
	movq	%rsi, -72(%rbp)
Ltmp586:
	.loc	27 0 13 is_stmt 0
	movq	%rdi, -80(%rbp)
	movq	%rax, -88(%rbp)
	.loc	27 427 13
	je	LBB188_1
	jmp	LBB188_10
Ltmp587:
LBB188_10:
	jmp	LBB188_3
Ltmp588:
LBB188_1:
	.loc	27 428 21 is_stmt 1
	movb	$0, -25(%rbp)
Ltmp582:
	movq	-80(%rbp), %rdi
	callq	__ZN5alloc11collections5btree16unwrap_unchecked28_$u7b$$u7b$closure$u7d$$u7d$17h77d3ef20e607cb24E
Ltmp583:
	jmp	LBB188_4
Ltmp589:
	.loc	27 426 15
	ud2
LBB188_3:
Ltmp590:
	.loc	27 0 15 is_stmt 0
	movq	-72(%rbp), %rax
	.loc	27 427 18 is_stmt 1
	movq	(%rax), %rcx
	movq	%rcx, -64(%rbp)
	movq	8(%rax), %rcx
	movq	%rcx, -56(%rbp)
	movq	16(%rax), %rcx
	movq	%rcx, -48(%rbp)
	movq	24(%rax), %rcx
	movq	%rcx, -40(%rbp)
Ltmp591:
	.loc	27 427 24 is_stmt 0
	movq	-64(%rbp), %rcx
	movq	-80(%rbp), %rdx
	movq	%rcx, (%rdx)
	movq	-56(%rbp), %rcx
	movq	%rcx, 8(%rdx)
	movq	-48(%rbp), %rcx
	movq	%rcx, 16(%rdx)
	movq	-40(%rbp), %rcx
	movq	%rcx, 24(%rdx)
Ltmp592:
	.loc	27 426 9 is_stmt 1
	jmp	LBB188_8
Ltmp593:
LBB188_4:
	jmp	LBB188_8
Ltmp594:
LBB188_5:
	.loc	27 0 9 is_stmt 0
	movq	-88(%rbp), %rax
	.loc	27 430 6 is_stmt 1
	addq	$96, %rsp
	popq	%rbp
	retq
Ltmp595:
LBB188_6:
	.loc	27 425 5
	movq	-16(%rbp), %rdi
	callq	__Unwind_Resume
	ud2
Ltmp596:
LBB188_7:
	.loc	27 430 5
	movb	$0, -25(%rbp)
	jmp	LBB188_5
Ltmp597:
LBB188_8:
	testb	$1, -25(%rbp)
	jne	LBB188_7
	jmp	LBB188_5
Ltmp598:
LBB188_9:
Ltmp584:
	.loc	27 0 5 is_stmt 0
	movq	%rax, -16(%rbp)
	movl	%edx, -8(%rbp)
	jmp	LBB188_6
Lfunc_end188:
	.cfi_endproc
	.section	__TEXT,__gcc_except_tab
	.p2align	2
GCC_except_table188:
Lexception20:
	.byte	255
	.byte	255
	.byte	1
	.uleb128 Lcst_end20-Lcst_begin20
Lcst_begin20:
	.uleb128 Ltmp582-Lfunc_begin188
	.uleb128 Ltmp583-Ltmp582
	.uleb128 Ltmp584-Lfunc_begin188
	.byte	0
	.uleb128 Ltmp583-Lfunc_begin188
	.uleb128 Lfunc_end188-Ltmp583
	.byte	0
	.byte	0
Lcst_end20:
	.p2align	2

	.section	__TEXT,__text,regular,pure_instructions
	.p2align	4, 0x90
__ZN4core6option15Option$LT$T$GT$14unwrap_or_else17hde3c7efa0abd33ecE:
Lfunc_begin189:
	.loc	27 425 0 is_stmt 1
	.cfi_startproc
	.cfi_personality 155, _rust_eh_personality
	.cfi_lsda 16, Lexception21
	pushq	%rbp
	.cfi_def_cfa_offset 16
	.cfi_offset %rbp, -16
	movq	%rsp, %rbp
	.cfi_def_cfa_register %rbp
	subq	$96, %rsp
	movq	%rdi, %rax
Ltmp602:
	.loc	27 427 13 prologue_end
	movb	$0, -25(%rbp)
	movb	$1, -25(%rbp)
	movq	8(%rsi), %rcx
	testq	%rcx, %rcx
	setne	%dl
	movzbl	%dl, %r8d
	movl	%r8d, %ecx
	movq	%rsi, -72(%rbp)
Ltmp603:
	.loc	27 0 13 is_stmt 0
	movq	%rdi, -80(%rbp)
	movq	%rax, -88(%rbp)
	.loc	27 427 13
	je	LBB189_1
	jmp	LBB189_10
Ltmp604:
LBB189_10:
	jmp	LBB189_3
Ltmp605:
LBB189_1:
	.loc	27 428 21 is_stmt 1
	movb	$0, -25(%rbp)
Ltmp599:
	movq	-80(%rbp), %rdi
	callq	__ZN5alloc11collections5btree16unwrap_unchecked28_$u7b$$u7b$closure$u7d$$u7d$17h9eb9c9a54192fb18E
Ltmp600:
	jmp	LBB189_4
Ltmp606:
	.loc	27 426 15
	ud2
LBB189_3:
Ltmp607:
	.loc	27 0 15 is_stmt 0
	movq	-72(%rbp), %rax
	.loc	27 427 18 is_stmt 1
	movq	(%rax), %rcx
	movq	%rcx, -64(%rbp)
	movq	8(%rax), %rcx
	movq	%rcx, -56(%rbp)
	movq	16(%rax), %rcx
	movq	%rcx, -48(%rbp)
	movq	24(%rax), %rcx
	movq	%rcx, -40(%rbp)
Ltmp608:
	.loc	27 427 24 is_stmt 0
	movq	-64(%rbp), %rcx
	movq	-80(%rbp), %rdx
	movq	%rcx, (%rdx)
	movq	-56(%rbp), %rcx
	movq	%rcx, 8(%rdx)
	movq	-48(%rbp), %rcx
	movq	%rcx, 16(%rdx)
	movq	-40(%rbp), %rcx
	movq	%rcx, 24(%rdx)
Ltmp609:
	.loc	27 426 9 is_stmt 1
	jmp	LBB189_8
Ltmp610:
LBB189_4:
	jmp	LBB189_8
Ltmp611:
LBB189_5:
	.loc	27 0 9 is_stmt 0
	movq	-88(%rbp), %rax
	.loc	27 430 6 is_stmt 1
	addq	$96, %rsp
	popq	%rbp
	retq
Ltmp612:
LBB189_6:
	.loc	27 425 5
	movq	-16(%rbp), %rdi
	callq	__Unwind_Resume
	ud2
Ltmp613:
LBB189_7:
	.loc	27 430 5
	movb	$0, -25(%rbp)
	jmp	LBB189_5
Ltmp614:
LBB189_8:
	testb	$1, -25(%rbp)
	jne	LBB189_7
	jmp	LBB189_5
Ltmp615:
LBB189_9:
Ltmp601:
	.loc	27 0 5 is_stmt 0
	movq	%rax, -16(%rbp)
	movl	%edx, -8(%rbp)
	jmp	LBB189_6
Lfunc_end189:
	.cfi_endproc
	.section	__TEXT,__gcc_except_tab
	.p2align	2
GCC_except_table189:
Lexception21:
	.byte	255
	.byte	255
	.byte	1
	.uleb128 Lcst_end21-Lcst_begin21
Lcst_begin21:
	.uleb128 Ltmp599-Lfunc_begin189
	.uleb128 Ltmp600-Ltmp599
	.uleb128 Ltmp601-Lfunc_begin189
	.byte	0
	.uleb128 Ltmp600-Lfunc_begin189
	.uleb128 Lfunc_end189-Ltmp600
	.byte	0
	.byte	0
Lcst_end21:
	.p2align	2

	.section	__TEXT,__text,regular,pure_instructions
	.p2align	4, 0x90
__ZN4core6option15Option$LT$T$GT$4take17h9d6825b913f87b3eE:
Lfunc_begin190:
	.loc	27 891 0 is_stmt 1
	.cfi_startproc
	pushq	%rbp
	.cfi_def_cfa_offset 16
	.cfi_offset %rbp, -16
	movq	%rsp, %rbp
	.cfi_def_cfa_register %rbp
	subq	$32, %rsp
	movq	%rdi, -8(%rbp)
Ltmp616:
	.loc	27 892 9 prologue_end
	callq	__ZN4core3mem4take17hfec626cdf3d6250bE
	movq	%rax, -16(%rbp)
	movq	%rdx, -24(%rbp)
	.loc	27 0 9 is_stmt 0
	movq	-16(%rbp), %rax
	movq	-24(%rbp), %rdx
	.loc	27 893 6 is_stmt 1
	addq	$32, %rsp
	popq	%rbp
	retq
Ltmp617:
Lfunc_end190:
	.cfi_endproc

	.p2align	4, 0x90
__ZN4core6option15Option$LT$T$GT$5ok_or17h46cc582d2981fb36E:
Lfunc_begin191:
	.loc	27 536 0
	.cfi_startproc
	pushq	%rbp
	.cfi_def_cfa_offset 16
	.cfi_offset %rbp, -16
	movq	%rsp, %rbp
	.cfi_def_cfa_register %rbp
	subq	$80, %rsp
	movq	%rdi, -80(%rbp)
	movq	%rsi, -72(%rbp)
Ltmp618:
	.loc	27 538 13 prologue_end
	movb	$0, -41(%rbp)
	movb	$1, -41(%rbp)
	movq	-80(%rbp), %rax
	testq	%rax, %rax
	setne	%cl
	movzbl	%cl, %edx
	movl	%edx, %eax
	je	LBB191_1
	jmp	LBB191_7
LBB191_7:
	jmp	LBB191_3
LBB191_1:
	.loc	27 539 25
	movb	$0, -41(%rbp)
	.loc	27 539 21 is_stmt 0
	movq	$0, -64(%rbp)
	.loc	27 537 9 is_stmt 1
	jmp	LBB191_4
	.loc	27 537 15 is_stmt 0
	ud2
LBB191_3:
	.loc	27 538 18 is_stmt 1
	movq	-80(%rbp), %rax
	movq	-72(%rbp), %rcx
	movq	%rax, -32(%rbp)
	movq	%rcx, -24(%rbp)
Ltmp619:
	.loc	27 538 24 is_stmt 0
	movq	%rax, -64(%rbp)
	movq	%rcx, -56(%rbp)
Ltmp620:
LBB191_4:
	.loc	27 541 5 is_stmt 1
	testb	$1, -41(%rbp)
	jne	LBB191_6
LBB191_5:
	.loc	27 541 6 is_stmt 0
	movq	-64(%rbp), %rax
	movq	-56(%rbp), %rdx
	addq	$80, %rsp
	popq	%rbp
	retq
LBB191_6:
	.loc	27 541 5
	movb	$0, -41(%rbp)
	jmp	LBB191_5
Ltmp621:
Lfunc_end191:
	.cfi_endproc

	.p2align	4, 0x90
__ZN4core6option15Option$LT$T$GT$6as_mut17ha1f2d54808f59cd5E:
Lfunc_begin192:
	.loc	27 287 0 is_stmt 1
	.cfi_startproc
	pushq	%rbp
	.cfi_def_cfa_offset 16
	.cfi_offset %rbp, -16
	movq	%rsp, %rbp
	.cfi_def_cfa_register %rbp
	subq	$32, %rsp
	movq	%rdi, -16(%rbp)
Ltmp622:
	.loc	27 289 13 prologue_end
	movq	8(%rdi), %rax
	testq	%rax, %rax
	setne	%cl
	movzbl	%cl, %edx
	movl	%edx, %eax
	movq	%rdi, -32(%rbp)
	je	LBB192_1
	jmp	LBB192_5
LBB192_5:
	jmp	LBB192_3
LBB192_1:
	.loc	27 290 21
	movq	$0, -24(%rbp)
	.loc	27 288 9
	jmp	LBB192_4
	.loc	27 288 15 is_stmt 0
	ud2
LBB192_3:
	.loc	27 0 15
	movq	-32(%rbp), %rax
	.loc	27 289 18 is_stmt 1
	movq	%rax, -8(%rbp)
Ltmp623:
	.loc	27 289 32 is_stmt 0
	movq	%rax, -24(%rbp)
Ltmp624:
LBB192_4:
	.loc	27 292 6 is_stmt 1
	movq	-24(%rbp), %rax
	addq	$32, %rsp
	popq	%rbp
	retq
Ltmp625:
Lfunc_end192:
	.cfi_endproc

	.p2align	4, 0x90
__ZN4core6option15Option$LT$T$GT$6unwrap17h594dab4bf743279fE:
Lfunc_begin193:
	.loc	27 383 0
	.cfi_startproc
	.cfi_personality 155, _rust_eh_personality
	.cfi_lsda 16, Lexception22
	pushq	%rbp
	.cfi_def_cfa_offset 16
	.cfi_offset %rbp, -16
	movq	%rsp, %rbp
	.cfi_def_cfa_register %rbp
	subq	$48, %rsp
	movq	%rdi, -32(%rbp)
Ltmp629:
	.loc	27 385 13 prologue_end
	movq	-32(%rbp), %rax
	testq	%rax, %rax
	setne	%cl
	movzbl	%cl, %edx
	movl	%edx, %eax
	movq	%rsi, -40(%rbp)
	je	LBB193_1
	jmp	LBB193_7
LBB193_7:
	jmp	LBB193_3
LBB193_1:
Ltmp626:
	.loc	25 10 9
	leaq	l___unnamed_7(%rip), %rdi
	movl	$43, %esi
	movq	-40(%rbp), %rdx
	callq	__ZN4core9panicking5panic17h383a6b80ea7021aaE
Ltmp627:
	jmp	LBB193_5
	.loc	27 384 15
	ud2
LBB193_3:
	.loc	27 385 18
	movq	-32(%rbp), %rax
	movq	%rax, -24(%rbp)
	.loc	27 388 6
	addq	$48, %rsp
	popq	%rbp
	retq
LBB193_4:
	.loc	27 383 5
	movq	-16(%rbp), %rdi
	callq	__Unwind_Resume
	ud2
Ltmp630:
LBB193_5:
	.loc	27 0 5 is_stmt 0
	ud2
LBB193_6:
Ltmp628:
	movq	%rax, -16(%rbp)
	movl	%edx, -8(%rbp)
	jmp	LBB193_4
Lfunc_end193:
	.cfi_endproc
	.section	__TEXT,__gcc_except_tab
	.p2align	2
GCC_except_table193:
Lexception22:
	.byte	255
	.byte	255
	.byte	1
	.uleb128 Lcst_end22-Lcst_begin22
Lcst_begin22:
	.uleb128 Ltmp626-Lfunc_begin193
	.uleb128 Ltmp627-Ltmp626
	.uleb128 Ltmp628-Lfunc_begin193
	.byte	0
	.uleb128 Ltmp627-Lfunc_begin193
	.uleb128 Lfunc_end193-Ltmp627
	.byte	0
	.byte	0
Lcst_end22:
	.p2align	2

	.section	__TEXT,__text,regular,pure_instructions
	.p2align	4, 0x90
__ZN4core6result19Result$LT$T$C$E$GT$2ok17h0133e587c9cf7866E:
Lfunc_begin194:
	.file	28 "/rustc/6c8927b0cf80ceee19386026cf9d7fd4fd9d486f/src/libcore/result.rs"
	.loc	28 394 0 is_stmt 1
	.cfi_startproc
	pushq	%rbp
	.cfi_def_cfa_offset 16
	.cfi_offset %rbp, -16
	movq	%rsp, %rbp
	.cfi_def_cfa_register %rbp
	subq	$88, %rsp
	movq	%rdi, %rax
Ltmp631:
	.loc	28 396 13 prologue_end
	movq	(%rsi), %rcx
	testq	%rcx, %rcx
	movq	%rsi, -72(%rbp)
Ltmp632:
	.loc	28 0 13 is_stmt 0
	movq	%rdi, -80(%rbp)
	movq	%rax, -88(%rbp)
	.loc	28 396 13
	je	LBB194_3
	jmp	LBB194_7
Ltmp633:
LBB194_7:
	.loc	28 0 13
	movq	-80(%rbp), %rax
	.loc	28 397 23 is_stmt 1
	movq	$0, 8(%rax)
	.loc	28 395 9
	jmp	LBB194_6
Ltmp634:
	.loc	28 395 15 is_stmt 0
	ud2
LBB194_3:
Ltmp635:
	.loc	28 0 15
	movq	-72(%rbp), %rax
	.loc	28 396 16 is_stmt 1
	movq	8(%rax), %rcx
	movq	%rcx, -64(%rbp)
	movq	16(%rax), %rcx
	movq	%rcx, -56(%rbp)
	movq	24(%rax), %rcx
	movq	%rcx, -48(%rbp)
	movq	32(%rax), %rcx
	movq	%rcx, -40(%rbp)
Ltmp636:
	.loc	28 396 27 is_stmt 0
	movq	-64(%rbp), %rcx
	movq	%rcx, -32(%rbp)
	movq	-56(%rbp), %rcx
	movq	%rcx, -24(%rbp)
	movq	-48(%rbp), %rcx
	movq	%rcx, -16(%rbp)
	movq	-40(%rbp), %rcx
	movq	%rcx, -8(%rbp)
	.loc	28 396 22
	movq	-32(%rbp), %rcx
	movq	-80(%rbp), %rdx
	movq	%rcx, (%rdx)
	movq	-24(%rbp), %rcx
	movq	%rcx, 8(%rdx)
	movq	-16(%rbp), %rcx
	movq	%rcx, 16(%rdx)
	movq	-8(%rbp), %rcx
	movq	%rcx, 24(%rdx)
Ltmp637:
	.loc	28 399 5 is_stmt 1
	jmp	LBB194_6
Ltmp638:
LBB194_4:
	.loc	28 0 5 is_stmt 0
	movq	-88(%rbp), %rax
	.loc	28 399 6
	addq	$88, %rsp
	popq	%rbp
	retq
Ltmp639:
LBB194_5:
	.loc	28 399 5
	jmp	LBB194_4
Ltmp640:
LBB194_6:
	.loc	28 0 5
	movq	-72(%rbp), %rax
	.loc	28 399 5
	cmpq	$0, (%rax)
	je	LBB194_4
	jmp	LBB194_5
Ltmp641:
Lfunc_end194:
	.cfi_endproc

	.p2align	4, 0x90
__ZN4core6result19Result$LT$T$C$E$GT$9unwrap_or17h85fffb318275eedaE:
Lfunc_begin195:
	.loc	28 827 0 is_stmt 1
	.cfi_startproc
	pushq	%rbp
	.cfi_def_cfa_offset 16
	.cfi_offset %rbp, -16
	movq	%rsp, %rbp
	.cfi_def_cfa_register %rbp
	subq	$56, %rsp
	movq	%rdi, -40(%rbp)
	movq	-40(%rbp), %rax
	movq	%rax, -48(%rbp)
	movl	%esi, -24(%rbp)
Ltmp642:
	.loc	28 829 13 prologue_end
	movb	$0, -25(%rbp)
	movb	$1, -25(%rbp)
	movzbl	-48(%rbp), %ecx
	movl	%ecx, %eax
	testb	$1, %al
	movl	%esi, -52(%rbp)
	je	LBB195_3
	jmp	LBB195_9
LBB195_9:
	.loc	28 830 23
	movb	$0, -25(%rbp)
	movl	-52(%rbp), %eax
	movl	%eax, -32(%rbp)
	.loc	28 828 9
	jmp	LBB195_6
	.loc	28 828 15 is_stmt 0
	ud2
LBB195_3:
	.loc	28 829 16 is_stmt 1
	movl	-44(%rbp), %eax
	movl	%eax, -20(%rbp)
Ltmp643:
	.loc	28 829 22 is_stmt 0
	movl	%eax, -32(%rbp)
Ltmp644:
	.loc	28 832 5 is_stmt 1
	jmp	LBB195_6
LBB195_4:
	movb	-48(%rbp), %al
	andb	$1, %al
	movzbl	%al, %ecx
	movl	%ecx, %edx
	cmpq	$0, %rdx
	je	LBB195_7
	jmp	LBB195_8
LBB195_5:
	movb	$0, -25(%rbp)
	jmp	LBB195_4
LBB195_6:
	testb	$1, -25(%rbp)
	jne	LBB195_5
	jmp	LBB195_4
LBB195_7:
	.loc	28 832 6 is_stmt 0
	movl	-32(%rbp), %eax
	addq	$56, %rsp
	popq	%rbp
	retq
LBB195_8:
	.loc	28 832 5
	jmp	LBB195_7
Ltmp645:
Lfunc_end195:
	.cfi_endproc

	.p2align	4, 0x90
__ZN4core7convert3num66_$LT$impl$u20$core..convert..From$LT$u16$GT$$u20$for$u20$usize$GT$4from17h8f3a5cc82de412e9E:
Lfunc_begin196:
	.file	29 "/rustc/6c8927b0cf80ceee19386026cf9d7fd4fd9d486f/src/libcore/convert/num.rs"
	.loc	29 51 0 is_stmt 1
	.cfi_startproc
	pushq	%rbp
	.cfi_def_cfa_offset 16
	.cfi_offset %rbp, -16
	movq	%rsp, %rbp
	.cfi_def_cfa_register %rbp
	subq	$2, %rsp
	movw	%di, -2(%rbp)
Ltmp646:
	.loc	29 52 17 prologue_end
	movzwl	%di, %eax
	.loc	29 53 14
	addq	$2, %rsp
	popq	%rbp
	retq
Ltmp647:
Lfunc_end196:
	.cfi_endproc

	.p2align	4, 0x90
__ZN50_$LT$T$u20$as$u20$core..convert..From$LT$T$GT$$GT$4from17hde3854964fd20403E:
Lfunc_begin197:
	.file	30 "/rustc/6c8927b0cf80ceee19386026cf9d7fd4fd9d486f/src/libcore/convert/mod.rs"
	.loc	30 570 0
	.cfi_startproc
	pushq	%rbp
	.cfi_def_cfa_offset 16
	.cfi_offset %rbp, -16
	movq	%rsp, %rbp
	.cfi_def_cfa_register %rbp
	pushq	%rax
Ltmp648:
	.loc	30 572 6 prologue_end
	addq	$8, %rsp
	popq	%rbp
	retq
Ltmp649:
Lfunc_end197:
	.cfi_endproc

	.p2align	4, 0x90
__ZN50_$LT$T$u20$as$u20$core..convert..Into$LT$U$GT$$GT$4into17h32e92c1a08615a41E:
Lfunc_begin198:
	.loc	30 562 0
	.cfi_startproc
	pushq	%rbp
	.cfi_def_cfa_offset 16
	.cfi_offset %rbp, -16
	movq	%rsp, %rbp
	.cfi_def_cfa_register %rbp
	subq	$16, %rsp
	movq	%rdi, -8(%rbp)
Ltmp650:
	.loc	30 563 9 prologue_end
	callq	__ZN119_$LT$core..ptr..non_null..NonNull$LT$T$GT$$u20$as$u20$core..convert..From$LT$core..ptr..unique..Unique$LT$T$GT$$GT$$GT$4from17hba176f55a5363e94E
	movq	%rax, -16(%rbp)
	.loc	30 0 9 is_stmt 0
	movq	-16(%rbp), %rax
	.loc	30 564 6 is_stmt 1
	addq	$16, %rsp
	popq	%rbp
	retq
Ltmp651:
Lfunc_end198:
	.cfi_endproc

	.p2align	4, 0x90
__ZN52_$LT$char$u20$as$u20$core..str..pattern..Pattern$GT$13into_searcher17h1383e1dc062c1ecbE:
Lfunc_begin199:
	.file	31 "/rustc/6c8927b0cf80ceee19386026cf9d7fd4fd9d486f/src/libcore/str/pattern.rs"
	.loc	31 535 0
	.cfi_startproc
	pushq	%rbp
	.cfi_def_cfa_offset 16
	.cfi_offset %rbp, -16
	movq	%rsp, %rbp
	.cfi_def_cfa_register %rbp
	subq	$128, %rsp
	movq	%rdi, %rax
	leaq	-36(%rbp), %r8
	xorl	%r9d, %r9d
	movl	%esi, -28(%rbp)
	movq	%rdx, -24(%rbp)
	movq	%rcx, -16(%rbp)
Ltmp652:
	movq	%rdi, -48(%rbp)
Ltmp653:
	.loc	31 536 32 prologue_end
	movq	%r8, %rdi
	movl	%esi, -52(%rbp)
	movl	%r9d, %esi
	movl	$4, %r10d
	movq	%rdx, -64(%rbp)
	movq	%r10, %rdx
	movq	%rcx, -72(%rbp)
	movq	%rax, -80(%rbp)
	movq	%r8, -88(%rbp)
Ltmp654:
	.loc	31 0 32 is_stmt 0
	movq	%r10, -96(%rbp)
	.loc	31 536 32
	callq	_memset
	movq	-88(%rbp), %rax
	movl	-52(%rbp), %edi
Ltmp655:
	.loc	31 537 25 is_stmt 1
	movq	%rax, %rsi
	movq	-96(%rbp), %rdx
	callq	__ZN4core4char7methods22_$LT$impl$u20$char$GT$11encode_utf817hd9d5de6a86b413baE
	movq	%rax, -104(%rbp)
	movq	%rdx, -112(%rbp)
Ltmp656:
	.loc	31 0 25 is_stmt 0
	movq	-104(%rbp), %rdi
	movq	-112(%rbp), %rsi
	.loc	31 537 25
	callq	__ZN4core3str21_$LT$impl$u20$str$GT$3len17h1f0348cd5a233844E
	movq	%rax, -8(%rbp)
	movq	%rax, -120(%rbp)
Ltmp657:
	.loc	31 0 25
	movq	-64(%rbp), %rdi
	movq	-72(%rbp), %rsi
Ltmp658:
	.loc	31 541 26 is_stmt 1
	callq	__ZN4core3str21_$LT$impl$u20$str$GT$3len17h1f0348cd5a233844E
	movq	%rax, -128(%rbp)
Ltmp659:
	.loc	31 544 13
	movl	-36(%rbp), %eax
	movl	%eax, -32(%rbp)
	movq	-48(%rbp), %rcx
	movq	-64(%rbp), %rdx
	.loc	31 538 9
	movq	%rdx, (%rcx)
	movq	-72(%rbp), %rsi
	movq	%rsi, 8(%rcx)
	movq	$0, 16(%rcx)
	movq	-128(%rbp), %rdi
	movq	%rdi, 24(%rcx)
	movl	-52(%rbp), %eax
	movl	%eax, 40(%rcx)
	movq	-120(%rbp), %r8
	movq	%r8, 32(%rcx)
	movl	-32(%rbp), %r9d
	movl	%r9d, 44(%rcx)
	movq	-80(%rbp), %r10
Ltmp660:
	.loc	31 546 6
	movq	%r10, %rax
	addq	$128, %rsp
	popq	%rbp
	retq
Ltmp661:
Lfunc_end199:
	.cfi_endproc

	.p2align	4, 0x90
__ZN54_$LT$$LP$$RP$$u20$as$u20$std..process..Termination$GT$6report17h148331efc280b1cdE:
Lfunc_begin200:
	.loc	12 1667 0
	.cfi_startproc
	pushq	%rbp
	.cfi_def_cfa_offset 16
	.cfi_offset %rbp, -16
	movq	%rsp, %rbp
	.cfi_def_cfa_register %rbp
	subq	$16, %rsp
	xorl	%edi, %edi
Ltmp662:
	.loc	12 1668 9 prologue_end
	callq	__ZN68_$LT$std..process..ExitCode$u20$as$u20$std..process..Termination$GT$6report17hca78cf6b6b03f3c1E
	movl	%eax, -12(%rbp)
	.loc	12 0 9 is_stmt 0
	movl	-12(%rbp), %eax
	.loc	12 1669 6 is_stmt 1
	addq	$16, %rsp
	popq	%rbp
	retq
Ltmp663:
Lfunc_end200:
	.cfi_endproc

	.p2align	4, 0x90
__ZN55_$LT$$RF$T$u20$as$u20$core..convert..AsRef$LT$U$GT$$GT$6as_ref17h158c18387bf3db69E:
Lfunc_begin201:
	.loc	30 513 0
	.cfi_startproc
	pushq	%rbp
	.cfi_def_cfa_offset 16
	.cfi_offset %rbp, -16
	movq	%rsp, %rbp
	.cfi_def_cfa_register %rbp
	subq	$32, %rsp
	movq	%rdi, -8(%rbp)
Ltmp664:
	.loc	30 514 33 prologue_end
	movq	(%rdi), %rax
	movq	8(%rdi), %rsi
	.loc	30 514 9 is_stmt 0
	movq	%rax, %rdi
	callq	__ZN3std3ffi6os_str85_$LT$impl$u20$core..convert..AsRef$LT$std..ffi..os_str..OsStr$GT$$u20$for$u20$str$GT$6as_ref17h90970dced2c93a9fE
	movq	%rax, -16(%rbp)
	movq	%rdx, -24(%rbp)
	.loc	30 0 9
	movq	-16(%rbp), %rax
	movq	-24(%rbp), %rdx
	.loc	30 515 6 is_stmt 1
	addq	$32, %rsp
	popq	%rbp
	retq
Ltmp665:
Lfunc_end201:
	.cfi_endproc

	.p2align	4, 0x90
__ZN5alloc11collections5btree16unwrap_unchecked28_$u7b$$u7b$closure$u7d$$u7d$17h77d3ef20e607cb24E:
Lfunc_begin202:
	.loc	6 18 0
	.cfi_startproc
	pushq	%rbp
	.cfi_def_cfa_offset 16
	.cfi_offset %rbp, -16
	movq	%rsp, %rbp
	.cfi_def_cfa_register %rbp
	pushq	%rax
Ltmp666:
	.loc	6 23 17 prologue_end
	ud2
Ltmp667:
Lfunc_end202:
	.cfi_endproc

	.p2align	4, 0x90
__ZN5alloc11collections5btree16unwrap_unchecked28_$u7b$$u7b$closure$u7d$$u7d$17h9eb9c9a54192fb18E:
Lfunc_begin203:
	.loc	6 18 0
	.cfi_startproc
	pushq	%rbp
	.cfi_def_cfa_offset 16
	.cfi_offset %rbp, -16
	movq	%rsp, %rbp
	.cfi_def_cfa_register %rbp
	pushq	%rax
Ltmp668:
	.loc	6 23 17 prologue_end
	ud2
Ltmp669:
Lfunc_end203:
	.cfi_endproc

	.p2align	4, 0x90
__ZN5alloc11collections5btree3map17full_range_search17h900ff6763467d543E:
Lfunc_begin204:
	.loc	3 2039 0
	.cfi_startproc
	pushq	%rbp
	.cfi_def_cfa_offset 16
	.cfi_offset %rbp, -16
	movq	%rsp, %rbp
	.cfi_def_cfa_register %rbp
	subq	$832, %rsp
	movq	%rdi, %rax
Ltmp670:
	.loc	3 2047 33 prologue_end
	leaq	-768(%rbp), %rcx
Ltmp671:
	.loc	3 0 33 is_stmt 0
	movq	%rdi, -776(%rbp)
	.loc	3 2047 33
	movq	%rcx, %rdi
	movq	%rsi, -784(%rbp)
Ltmp672:
	.loc	3 0 33
	movq	%rax, -792(%rbp)
	.loc	3 2047 33
	callq	__ZN4core3ptr4read17h2322a2ce485e9f47E
Ltmp673:
	.loc	3 0 33
	movq	-784(%rbp), %rax
Ltmp674:
	.loc	3 2048 24 is_stmt 1
	movq	(%rax), %rcx
	movq	%rcx, -744(%rbp)
	movq	8(%rax), %rcx
	movq	%rcx, -736(%rbp)
	movq	16(%rax), %rcx
	movq	%rcx, -728(%rbp)
Ltmp675:
LBB204_2:
	.loc	3 2050 21
	movq	-768(%rbp), %rax
	movq	%rax, -688(%rbp)
	movq	-760(%rbp), %rax
	movq	%rax, -680(%rbp)
	movq	-752(%rbp), %rax
	movq	%rax, -672(%rbp)
	leaq	-720(%rbp), %rdi
	leaq	-688(%rbp), %rsi
	callq	__ZN5alloc11collections5btree4node40NodeRef$LT$BorrowType$C$K$C$V$C$Type$GT$10first_edge17h91127074dd089b48E
Ltmp676:
	.loc	3 2051 20
	movq	-744(%rbp), %rax
	movq	%rax, -632(%rbp)
	movq	-736(%rbp), %rax
	movq	%rax, -624(%rbp)
	movq	-728(%rbp), %rax
	movq	%rax, -616(%rbp)
	leaq	-664(%rbp), %rdi
	leaq	-632(%rbp), %rsi
	callq	__ZN5alloc11collections5btree4node40NodeRef$LT$BorrowType$C$K$C$V$C$Type$GT$9last_edge17h353fca8d2613e1bdE
Ltmp677:
	.loc	3 2052 16
	movq	-720(%rbp), %rax
	movq	%rax, -488(%rbp)
	movq	-712(%rbp), %rax
	movq	%rax, -480(%rbp)
	movq	-704(%rbp), %rax
	movq	%rax, -472(%rbp)
	movq	-696(%rbp), %rax
	movq	%rax, -464(%rbp)
	leaq	-528(%rbp), %rdi
	leaq	-488(%rbp), %rsi
	callq	__ZN5alloc11collections5btree4node151Handle$LT$alloc..collections..btree..node..NodeRef$LT$BorrowType$C$K$C$V$C$alloc..collections..btree..node..marker..LeafOrInternal$GT$$C$HandleType$GT$5force17h4a99b3ded74b5124E
Ltmp678:
	.loc	3 2052 31 is_stmt 0
	movq	-664(%rbp), %rax
	movq	%rax, -416(%rbp)
	movq	-656(%rbp), %rax
	movq	%rax, -408(%rbp)
	movq	-648(%rbp), %rax
	movq	%rax, -400(%rbp)
	movq	-640(%rbp), %rax
	movq	%rax, -392(%rbp)
	leaq	-456(%rbp), %rdi
	leaq	-416(%rbp), %rsi
	callq	__ZN5alloc11collections5btree4node151Handle$LT$alloc..collections..btree..node..NodeRef$LT$BorrowType$C$K$C$V$C$alloc..collections..btree..node..marker..LeafOrInternal$GT$$C$HandleType$GT$5force17h4a99b3ded74b5124E
Ltmp679:
	.loc	3 2052 15
	movq	-496(%rbp), %rax
	movq	%rax, -576(%rbp)
	movq	-504(%rbp), %rax
	movq	%rax, -584(%rbp)
	movq	-512(%rbp), %rax
	movq	%rax, -592(%rbp)
	movq	-528(%rbp), %rax
	movq	-520(%rbp), %rcx
	movq	%rcx, -600(%rbp)
	movq	%rax, -608(%rbp)
	movq	-424(%rbp), %rax
	movq	%rax, -536(%rbp)
	movq	-432(%rbp), %rax
	movq	%rax, -544(%rbp)
	movq	-440(%rbp), %rax
	movq	%rax, -552(%rbp)
	movq	-456(%rbp), %rax
	movq	-448(%rbp), %rcx
	movq	%rcx, -560(%rbp)
	movq	%rax, -568(%rbp)
	.loc	3 2053 14 is_stmt 1
	movq	-608(%rbp), %rax
	testq	%rax, %rax
	movq	%rax, -800(%rbp)
	je	LBB204_7
	jmp	LBB204_16
Ltmp680:
LBB204_16:
	.loc	3 0 14 is_stmt 0
	movq	-800(%rbp), %rax
	.loc	3 2053 14
	subq	$1, %rax
	je	LBB204_9
	jmp	LBB204_8
Ltmp681:
LBB204_7:
	.loc	3 2053 23
	cmpq	$0, -568(%rbp)
	je	LBB204_10
Ltmp682:
LBB204_8:
	.loc	25 548 16 is_stmt 1
	movq	l___unnamed_8(%rip), %rax
	.loc	3 2060 31
	movq	l___unnamed_9(%rip), %rcx
	.loc	25 19 38
	movq	%rcx, -16(%rbp)
	.loc	3 2060 31
	movq	-16(%rbp), %rcx
	movq	%rcx, -8(%rbp)
Ltmp683:
	.loc	25 19 38
	movq	%rcx, %rdi
	leaq	__ZN44_$LT$$RF$T$u20$as$u20$core..fmt..Display$GT$3fmt17h0f010a7ca0e5b577E(%rip), %rsi
	movq	%rax, -808(%rbp)
	callq	__ZN4core3fmt10ArgumentV13new17h9832ac8e0eef1ccfE
	movq	%rax, -816(%rbp)
	movq	%rdx, -824(%rbp)
	jmp	LBB204_14
Ltmp684:
LBB204_9:
	.loc	3 2056 33
	cmpq	$1, -568(%rbp)
	je	LBB204_11
	jmp	LBB204_8
Ltmp685:
LBB204_10:
	.loc	3 2053 19
	movq	-600(%rbp), %rax
	movq	%rax, -384(%rbp)
	movq	-592(%rbp), %rax
	movq	%rax, -376(%rbp)
	movq	-584(%rbp), %rax
	movq	%rax, -368(%rbp)
	movq	-576(%rbp), %rax
	movq	%rax, -360(%rbp)
	.loc	3 2053 28 is_stmt 0
	movq	-560(%rbp), %rax
	movq	%rax, -352(%rbp)
	movq	-552(%rbp), %rax
	movq	%rax, -344(%rbp)
	movq	-544(%rbp), %rax
	movq	%rax, -336(%rbp)
	movq	-536(%rbp), %rax
	movq	%rax, -328(%rbp)
Ltmp686:
	.loc	3 2054 25 is_stmt 1
	movq	-384(%rbp), %rax
	movq	%rax, -320(%rbp)
	movq	-376(%rbp), %rax
	movq	%rax, -312(%rbp)
	movq	-368(%rbp), %rax
	movq	%rax, -304(%rbp)
	movq	-360(%rbp), %rax
	movq	%rax, -296(%rbp)
	.loc	3 2054 28 is_stmt 0
	movq	-352(%rbp), %rax
	movq	%rax, -288(%rbp)
	movq	-344(%rbp), %rax
	movq	%rax, -280(%rbp)
	movq	-336(%rbp), %rax
	movq	%rax, -272(%rbp)
	movq	-328(%rbp), %rax
	movq	%rax, -264(%rbp)
	.loc	3 2054 24
	movq	-320(%rbp), %rax
	movq	-776(%rbp), %rcx
	movq	%rax, (%rcx)
	movq	-312(%rbp), %rax
	movq	%rax, 8(%rcx)
	movq	-304(%rbp), %rax
	movq	%rax, 16(%rcx)
	movq	-296(%rbp), %rax
	movq	%rax, 24(%rcx)
	movq	-288(%rbp), %rax
	movq	%rax, 32(%rcx)
	movq	-280(%rbp), %rax
	movq	%rax, 40(%rcx)
	movq	-272(%rbp), %rax
	movq	%rax, 48(%rcx)
	movq	-264(%rbp), %rax
	movq	%rax, 56(%rcx)
	movq	-792(%rbp), %rax
Ltmp687:
	.loc	3 2063 2 is_stmt 1
	addq	$832, %rsp
	popq	%rbp
	retq
Ltmp688:
LBB204_11:
	.loc	3 2056 23
	movq	-600(%rbp), %rax
	movq	%rax, -256(%rbp)
	movq	-592(%rbp), %rax
	movq	%rax, -248(%rbp)
	movq	-584(%rbp), %rax
	movq	%rax, -240(%rbp)
	movq	-576(%rbp), %rax
	movq	%rax, -232(%rbp)
	.loc	3 2056 42 is_stmt 0
	movq	-560(%rbp), %rax
	movq	%rax, -224(%rbp)
	movq	-552(%rbp), %rax
	movq	%rax, -216(%rbp)
	movq	-544(%rbp), %rax
	movq	%rax, -208(%rbp)
	movq	-536(%rbp), %rax
	movq	%rax, -200(%rbp)
Ltmp689:
	.loc	3 2057 28 is_stmt 1
	movq	-256(%rbp), %rax
	movq	%rax, -168(%rbp)
	movq	-248(%rbp), %rax
	movq	%rax, -160(%rbp)
	movq	-240(%rbp), %rax
	movq	%rax, -152(%rbp)
	movq	-232(%rbp), %rax
	movq	%rax, -144(%rbp)
	leaq	-192(%rbp), %rdi
	leaq	-168(%rbp), %rsi
	callq	__ZN5alloc11collections5btree4node180Handle$LT$alloc..collections..btree..node..NodeRef$LT$BorrowType$C$K$C$V$C$alloc..collections..btree..node..marker..Internal$GT$$C$alloc..collections..btree..node..marker..Edge$GT$7descend17h0a3dfcc1458b3f31E
Ltmp690:
	.loc	3 2057 17 is_stmt 0
	movq	-192(%rbp), %rax
	movq	%rax, -768(%rbp)
	movq	-184(%rbp), %rax
	movq	%rax, -760(%rbp)
	movq	-176(%rbp), %rax
	movq	%rax, -752(%rbp)
	.loc	3 2058 28 is_stmt 1
	movq	-224(%rbp), %rax
	movq	%rax, -112(%rbp)
	movq	-216(%rbp), %rax
	movq	%rax, -104(%rbp)
	movq	-208(%rbp), %rax
	movq	%rax, -96(%rbp)
	movq	-200(%rbp), %rax
	movq	%rax, -88(%rbp)
	leaq	-136(%rbp), %rdi
	leaq	-112(%rbp), %rsi
	callq	__ZN5alloc11collections5btree4node180Handle$LT$alloc..collections..btree..node..NodeRef$LT$BorrowType$C$K$C$V$C$alloc..collections..btree..node..marker..Internal$GT$$C$alloc..collections..btree..node..marker..Edge$GT$7descend17h0a3dfcc1458b3f31E
Ltmp691:
	.loc	3 2058 17 is_stmt 0
	movq	-136(%rbp), %rax
	movq	%rax, -744(%rbp)
	movq	-128(%rbp), %rax
	movq	%rax, -736(%rbp)
	movq	-120(%rbp), %rax
	movq	%rax, -728(%rbp)
Ltmp692:
	.loc	3 2049 5 is_stmt 1
	jmp	LBB204_2
Ltmp693:
LBB204_14:
	.loc	3 0 5 is_stmt 0
	movq	-816(%rbp), %rax
Ltmp694:
	.loc	25 19 38 is_stmt 1
	movq	%rax, -32(%rbp)
	movq	-824(%rbp), %rcx
	movq	%rcx, -24(%rbp)
Ltmp695:
	.loc	25 19 38 is_stmt 0
	leaq	-32(%rbp), %rdx
	leaq	-80(%rbp), %rdi
	movq	-808(%rbp), %rsi
	movl	$1, %r8d
	movq	%rdx, -832(%rbp)
	movq	%r8, %rdx
	movq	-832(%rbp), %rcx
	callq	__ZN4core3fmt9Arguments6new_v117ha93eddda787f6f88E
Ltmp696:
	.loc	25 19 9
	leaq	l___unnamed_5(%rip), %rsi
	leaq	-80(%rbp), %rdi
	callq	__ZN4core9panicking9panic_fmt17hfce5b7173905fc53E
Ltmp697:
Lfunc_end204:
	.cfi_endproc

	.p2align	4, 0x90
__ZN5alloc11collections5btree4node104Handle$LT$alloc..collections..btree..node..NodeRef$LT$BorrowType$C$K$C$V$C$NodeType$GT$$C$HandleType$GT$8reborrow17h5d730b272fa58cd7E:
Lfunc_begin205:
	.file	32 "/rustc/6c8927b0cf80ceee19386026cf9d7fd4fd9d486f/src/liballoc/collections/btree/node.rs"
	.loc	32 781 0 is_stmt 1
	.cfi_startproc
	pushq	%rbp
	.cfi_def_cfa_offset 16
	.cfi_offset %rbp, -16
	movq	%rsp, %rbp
	.cfi_def_cfa_register %rbp
	subq	$64, %rsp
	movq	%rdi, %rax
	movq	%rsi, -8(%rbp)
Ltmp698:
	.loc	32 783 24 prologue_end
	movq	%rsi, %rcx
	leaq	-40(%rbp), %rdx
	movq	%rdi, -48(%rbp)
	movq	%rdx, %rdi
	movq	%rsi, -56(%rbp)
	movq	%rcx, %rsi
	movq	%rax, -64(%rbp)
	callq	__ZN5alloc11collections5btree4node40NodeRef$LT$BorrowType$C$K$C$V$C$Type$GT$8reborrow17hc7d43dc36e61f209E
	.loc	32 0 24 is_stmt 0
	movq	-56(%rbp), %rax
	.loc	32 783 51
	movq	24(%rax), %rcx
	.loc	32 783 9
	movq	-40(%rbp), %rdx
	movq	-48(%rbp), %rsi
	movq	%rdx, (%rsi)
	movq	-32(%rbp), %rdx
	movq	%rdx, 8(%rsi)
	movq	-24(%rbp), %rdx
	movq	%rdx, 16(%rsi)
	movq	%rcx, 24(%rsi)
	movq	-64(%rbp), %rax
	.loc	32 784 6 is_stmt 1
	addq	$64, %rsp
	popq	%rbp
	retq
Ltmp699:
Lfunc_end205:
	.cfi_endproc

	.p2align	4, 0x90
__ZN5alloc11collections5btree4node127NodeRef$LT$alloc..collections..btree..node..marker..Owned$C$K$C$V$C$alloc..collections..btree..node..marker..LeafOrInternal$GT$21deallocate_and_ascend17hac5a0a5e0c083b16E:
Lfunc_begin206:
	.loc	32 395 0
	.cfi_startproc
	pushq	%rbp
	.cfi_def_cfa_offset 16
	.cfi_offset %rbp, -16
	movq	%rsp, %rbp
	.cfi_def_cfa_register %rbp
	subq	$144, %rsp
	movq	%rdi, %rax
Ltmp700:
	.loc	32 398 22 prologue_end
	movq	(%rsi), %rcx
	movq	%rcx, -16(%rbp)
Ltmp701:
	.loc	32 399 20
	movq	8(%rsi), %rdx
	movq	%rdx, -8(%rbp)
Ltmp702:
	.loc	32 400 19
	movq	(%rsi), %r8
	movq	%r8, -64(%rbp)
	movq	8(%rsi), %r8
	movq	%r8, -56(%rbp)
	movq	16(%rsi), %rsi
Ltmp703:
	movq	%rsi, -48(%rbp)
	leaq	-104(%rbp), %rsi
	movq	%rdi, -112(%rbp)
Ltmp704:
	movq	%rsi, %rdi
	leaq	-64(%rbp), %rsi
	movq	%rax, -120(%rbp)
	movq	%rcx, -128(%rbp)
	movq	%rdx, -136(%rbp)
	callq	__ZN5alloc11collections5btree4node40NodeRef$LT$BorrowType$C$K$C$V$C$Type$GT$6ascend17h923542a4efd27962E
Ltmp705:
	.loc	32 0 19 is_stmt 0
	movq	-112(%rbp), %rdi
	.loc	32 400 19
	leaq	-104(%rbp), %rsi
	callq	__ZN4core6result19Result$LT$T$C$E$GT$2ok17h0133e587c9cf7866E
	.loc	32 0 19
	movq	-136(%rbp), %rdi
Ltmp706:
	.loc	32 403 17 is_stmt 1
	callq	__ZN4core3ptr8non_null16NonNull$LT$T$GT$4cast17hd9b8c545c356ba93E
	movq	%rax, -144(%rbp)
	.loc	32 0 17 is_stmt 0
	movq	-128(%rbp), %rax
	.loc	32 404 20 is_stmt 1
	cmpq	$0, %rax
	.loc	32 404 17 is_stmt 0
	ja	LBB206_5
	.loc	32 407 21 is_stmt 1
	callq	__ZN4core5alloc6layout6Layout3new17he64ef2c4f26c30feE
	movq	%rdx, -24(%rbp)
	movq	%rax, -32(%rbp)
	jmp	LBB206_6
LBB206_5:
	.loc	32 405 21
	callq	__ZN4core5alloc6layout6Layout3new17hf3e6cd7cd85d1fb6E
	movq	%rdx, -24(%rbp)
	movq	%rax, -32(%rbp)
LBB206_6:
	.loc	32 402 13
	movq	-32(%rbp), %rdx
	movq	-24(%rbp), %rcx
	leaq	-40(%rbp), %rdi
	movq	-144(%rbp), %rsi
	callq	__ZN62_$LT$alloc..alloc..Global$u20$as$u20$core..alloc..AllocRef$GT$7dealloc17h5f6b4e438f7f6560E
Ltmp707:
	.loc	32 0 13 is_stmt 0
	movq	-120(%rbp), %rax
	.loc	32 412 6 is_stmt 1
	addq	$144, %rsp
	popq	%rbp
	retq
Ltmp708:
Lfunc_end206:
	.cfi_endproc

	.p2align	4, 0x90
__ZN5alloc11collections5btree4node137Handle$LT$alloc..collections..btree..node..NodeRef$LT$BorrowType$C$K$C$V$C$NodeType$GT$$C$alloc..collections..btree..node..marker..KV$GT$10right_edge17h10c1bccc2ab711f7E:
Lfunc_begin207:
	.loc	32 756 0
	.cfi_startproc
	pushq	%rbp
	.cfi_def_cfa_offset 16
	.cfi_offset %rbp, -16
	movq	%rsp, %rbp
	.cfi_def_cfa_register %rbp
	subq	$32, %rsp
	movq	%rdi, %rax
Ltmp709:
	.loc	32 757 35 prologue_end
	movq	(%rsi), %rcx
	movq	%rcx, -24(%rbp)
	movq	8(%rsi), %rcx
	movq	%rcx, -16(%rbp)
	movq	16(%rsi), %rcx
	movq	%rcx, -8(%rbp)
	.loc	32 757 46 is_stmt 0
	movq	24(%rsi), %rcx
	addq	$1, %rcx
	.loc	32 757 18
	leaq	-24(%rbp), %rsi
Ltmp710:
	movq	%rcx, %rdx
	movq	%rax, -32(%rbp)
	callq	__ZN5alloc11collections5btree4node139Handle$LT$alloc..collections..btree..node..NodeRef$LT$BorrowType$C$K$C$V$C$NodeType$GT$$C$alloc..collections..btree..node..marker..Edge$GT$8new_edge17h80cabea0b2d85d4aE
	.loc	32 0 18
	movq	-32(%rbp), %rax
	.loc	32 758 6 is_stmt 1
	addq	$32, %rsp
	popq	%rbp
	retq
Ltmp711:
Lfunc_end207:
	.cfi_endproc

	.p2align	4, 0x90
__ZN5alloc11collections5btree4node137Handle$LT$alloc..collections..btree..node..NodeRef$LT$BorrowType$C$K$C$V$C$NodeType$GT$$C$alloc..collections..btree..node..marker..KV$GT$10right_edge17h5c132eb8053ac23eE:
Lfunc_begin208:
	.loc	32 756 0
	.cfi_startproc
	pushq	%rbp
	.cfi_def_cfa_offset 16
	.cfi_offset %rbp, -16
	movq	%rsp, %rbp
	.cfi_def_cfa_register %rbp
	subq	$32, %rsp
	movq	%rdi, %rax
Ltmp712:
	.loc	32 757 35 prologue_end
	movq	(%rsi), %rcx
	movq	%rcx, -24(%rbp)
	movq	8(%rsi), %rcx
	movq	%rcx, -16(%rbp)
	movq	16(%rsi), %rcx
	movq	%rcx, -8(%rbp)
	.loc	32 757 46 is_stmt 0
	movq	24(%rsi), %rcx
	addq	$1, %rcx
	.loc	32 757 18
	leaq	-24(%rbp), %rsi
Ltmp713:
	movq	%rcx, %rdx
	movq	%rax, -32(%rbp)
	callq	__ZN5alloc11collections5btree4node139Handle$LT$alloc..collections..btree..node..NodeRef$LT$BorrowType$C$K$C$V$C$NodeType$GT$$C$alloc..collections..btree..node..marker..Edge$GT$8new_edge17ha8a3a951af5e5c04E
	.loc	32 0 18
	movq	-32(%rbp), %rax
	.loc	32 758 6 is_stmt 1
	addq	$32, %rsp
	popq	%rbp
	retq
Ltmp714:
Lfunc_end208:
	.cfi_endproc

	.p2align	4, 0x90
__ZN5alloc11collections5btree4node137Handle$LT$alloc..collections..btree..node..NodeRef$LT$BorrowType$C$K$C$V$C$NodeType$GT$$C$alloc..collections..btree..node..marker..KV$GT$6new_kv17h7d1a1b55b46eeb60E:
Lfunc_begin209:
	.loc	32 746 0
	.cfi_startproc
	pushq	%rbp
	.cfi_def_cfa_offset 16
	.cfi_offset %rbp, -16
	movq	%rsp, %rbp
	.cfi_def_cfa_register %rbp
	subq	$32, %rsp
	movq	%rdi, %rax
Ltmp715:
	movq	%rdx, -8(%rbp)
Ltmp716:
	.loc	32 749 18 prologue_end
	movq	(%rsi), %rcx
	movq	%rcx, -32(%rbp)
	movq	8(%rsi), %rcx
	movq	%rcx, -24(%rbp)
	movq	16(%rsi), %rcx
	movq	%rcx, -16(%rbp)
	.loc	32 749 9 is_stmt 0
	movq	-32(%rbp), %rcx
	movq	%rcx, (%rdi)
	movq	-24(%rbp), %rcx
	movq	%rcx, 8(%rdi)
	movq	-16(%rbp), %rcx
	movq	%rcx, 16(%rdi)
	movq	%rdx, 24(%rdi)
	.loc	32 750 6 is_stmt 1
	addq	$32, %rsp
	popq	%rbp
	retq
Ltmp717:
Lfunc_end209:
	.cfi_endproc

	.p2align	4, 0x90
__ZN5alloc11collections5btree4node139Handle$LT$alloc..collections..btree..node..NodeRef$LT$BorrowType$C$K$C$V$C$NodeType$GT$$C$alloc..collections..btree..node..marker..Edge$GT$8new_edge17h80cabea0b2d85d4aE:
Lfunc_begin210:
	.loc	32 809 0
	.cfi_startproc
	pushq	%rbp
	.cfi_def_cfa_offset 16
	.cfi_offset %rbp, -16
	movq	%rsp, %rbp
	.cfi_def_cfa_register %rbp
	subq	$32, %rsp
	movq	%rdi, %rax
Ltmp718:
	movq	%rdx, -8(%rbp)
Ltmp719:
	.loc	32 812 18 prologue_end
	movq	(%rsi), %rcx
	movq	%rcx, -32(%rbp)
	movq	8(%rsi), %rcx
	movq	%rcx, -24(%rbp)
	movq	16(%rsi), %rcx
	movq	%rcx, -16(%rbp)
	.loc	32 812 9 is_stmt 0
	movq	-32(%rbp), %rcx
	movq	%rcx, (%rdi)
	movq	-24(%rbp), %rcx
	movq	%rcx, 8(%rdi)
	movq	-16(%rbp), %rcx
	movq	%rcx, 16(%rdi)
	movq	%rdx, 24(%rdi)
	.loc	32 813 6 is_stmt 1
	addq	$32, %rsp
	popq	%rbp
	retq
Ltmp720:
Lfunc_end210:
	.cfi_endproc

	.p2align	4, 0x90
__ZN5alloc11collections5btree4node139Handle$LT$alloc..collections..btree..node..NodeRef$LT$BorrowType$C$K$C$V$C$NodeType$GT$$C$alloc..collections..btree..node..marker..Edge$GT$8new_edge17ha8a3a951af5e5c04E:
Lfunc_begin211:
	.loc	32 809 0
	.cfi_startproc
	pushq	%rbp
	.cfi_def_cfa_offset 16
	.cfi_offset %rbp, -16
	movq	%rsp, %rbp
	.cfi_def_cfa_register %rbp
	subq	$32, %rsp
	movq	%rdi, %rax
Ltmp721:
	movq	%rdx, -8(%rbp)
Ltmp722:
	.loc	32 812 18 prologue_end
	movq	(%rsi), %rcx
	movq	%rcx, -32(%rbp)
	movq	8(%rsi), %rcx
	movq	%rcx, -24(%rbp)
	movq	16(%rsi), %rcx
	movq	%rcx, -16(%rbp)
	.loc	32 812 9 is_stmt 0
	movq	-32(%rbp), %rcx
	movq	%rcx, (%rdi)
	movq	-24(%rbp), %rcx
	movq	%rcx, 8(%rdi)
	movq	-16(%rbp), %rcx
	movq	%rcx, 16(%rdi)
	movq	%rdx, 24(%rdi)
	.loc	32 813 6 is_stmt 1
	addq	$32, %rsp
	popq	%rbp
	retq
Ltmp723:
Lfunc_end211:
	.cfi_endproc

	.p2align	4, 0x90
__ZN5alloc11collections5btree4node139Handle$LT$alloc..collections..btree..node..NodeRef$LT$BorrowType$C$K$C$V$C$NodeType$GT$$C$alloc..collections..btree..node..marker..Edge$GT$8new_edge17hdc9fc586d37af338E:
Lfunc_begin212:
	.loc	32 809 0
	.cfi_startproc
	pushq	%rbp
	.cfi_def_cfa_offset 16
	.cfi_offset %rbp, -16
	movq	%rsp, %rbp
	.cfi_def_cfa_register %rbp
	subq	$32, %rsp
	movq	%rdi, %rax
Ltmp724:
	movq	%rdx, -8(%rbp)
Ltmp725:
	.loc	32 812 18 prologue_end
	movq	(%rsi), %rcx
	movq	%rcx, -32(%rbp)
	movq	8(%rsi), %rcx
	movq	%rcx, -24(%rbp)
	movq	16(%rsi), %rcx
	movq	%rcx, -16(%rbp)
	.loc	32 812 9 is_stmt 0
	movq	-32(%rbp), %rcx
	movq	%rcx, (%rdi)
	movq	-24(%rbp), %rcx
	movq	%rcx, 8(%rdi)
	movq	-16(%rbp), %rcx
	movq	%rcx, 16(%rdi)
	movq	%rdx, 24(%rdi)
	.loc	32 813 6 is_stmt 1
	addq	$32, %rsp
	popq	%rbp
	retq
Ltmp726:
Lfunc_end212:
	.cfi_endproc

	.p2align	4, 0x90
__ZN5alloc11collections5btree4node139Handle$LT$alloc..collections..btree..node..NodeRef$LT$BorrowType$C$K$C$V$C$NodeType$GT$$C$alloc..collections..btree..node..marker..Edge$GT$8right_kv17h12844a19c35c09a1E:
Lfunc_begin213:
	.loc	32 823 0
	.cfi_startproc
	pushq	%rbp
	.cfi_def_cfa_offset 16
	.cfi_offset %rbp, -16
	movq	%rsp, %rbp
	.cfi_def_cfa_register %rbp
	subq	$128, %rsp
	movq	%rdi, %rax
Ltmp727:
	.loc	32 824 12 prologue_end
	movq	24(%rsi), %rcx
	.loc	32 824 23 is_stmt 0
	movq	%rsi, %rdx
	movq	%rdi, -96(%rbp)
	movq	%rdx, %rdi
	movq	%rsi, -104(%rbp)
Ltmp728:
	.loc	32 0 23
	movq	%rax, -112(%rbp)
	movq	%rcx, -120(%rbp)
	.loc	32 824 23
	callq	__ZN5alloc11collections5btree4node40NodeRef$LT$BorrowType$C$K$C$V$C$Type$GT$3len17hea74c7f868b5bd24E
	movq	%rax, -128(%rbp)
Ltmp729:
	.loc	32 0 23
	movq	-120(%rbp), %rax
	movq	-128(%rbp), %rcx
	.loc	32 824 12
	cmpq	%rcx, %rax
	.loc	32 824 9
	jb	LBB213_3
Ltmp730:
	.loc	32 0 9
	movq	-104(%rbp), %rax
	.loc	32 827 17 is_stmt 1
	movq	(%rax), %rcx
	movq	%rcx, -32(%rbp)
	movq	8(%rax), %rcx
	movq	%rcx, -24(%rbp)
	movq	16(%rax), %rcx
	movq	%rcx, -16(%rbp)
	movq	24(%rax), %rcx
	movq	%rcx, -8(%rbp)
	.loc	32 827 13 is_stmt 0
	movq	-32(%rbp), %rcx
	movq	-96(%rbp), %rdx
	movq	%rcx, 8(%rdx)
	movq	-24(%rbp), %rcx
	movq	%rcx, 16(%rdx)
	movq	-16(%rbp), %rcx
	movq	%rcx, 24(%rdx)
	movq	-8(%rbp), %rcx
	movq	%rcx, 32(%rdx)
	movq	$1, (%rdx)
	.loc	32 824 9 is_stmt 1
	jmp	LBB213_5
Ltmp731:
LBB213_3:
	.loc	32 0 9 is_stmt 0
	movq	-104(%rbp), %rax
	.loc	32 825 40 is_stmt 1
	movq	(%rax), %rcx
	movq	%rcx, -56(%rbp)
	movq	8(%rax), %rcx
	movq	%rcx, -48(%rbp)
	movq	16(%rax), %rcx
	movq	%rcx, -40(%rbp)
	.loc	32 825 51 is_stmt 0
	movq	24(%rax), %rdx
	.loc	32 825 25
	leaq	-88(%rbp), %rdi
	leaq	-56(%rbp), %rsi
	callq	__ZN5alloc11collections5btree4node137Handle$LT$alloc..collections..btree..node..NodeRef$LT$BorrowType$C$K$C$V$C$NodeType$GT$$C$alloc..collections..btree..node..marker..KV$GT$6new_kv17h7d1a1b55b46eeb60E
Ltmp732:
	.loc	32 825 13
	movq	-88(%rbp), %rax
	movq	-96(%rbp), %rcx
	movq	%rax, 8(%rcx)
	movq	-80(%rbp), %rax
	movq	%rax, 16(%rcx)
	movq	-72(%rbp), %rax
	movq	%rax, 24(%rcx)
	movq	-64(%rbp), %rax
	movq	%rax, 32(%rcx)
	movq	$0, (%rcx)
Ltmp733:
LBB213_5:
	.loc	32 0 13
	movq	-112(%rbp), %rax
	.loc	32 829 6 is_stmt 1
	addq	$128, %rsp
	popq	%rbp
	retq
Ltmp734:
Lfunc_end213:
	.cfi_endproc

	.p2align	4, 0x90
__ZN5alloc11collections5btree4node151Handle$LT$alloc..collections..btree..node..NodeRef$LT$BorrowType$C$K$C$V$C$alloc..collections..btree..node..marker..LeafOrInternal$GT$$C$HandleType$GT$5force17h4a99b3ded74b5124E:
Lfunc_begin214:
	.loc	32 1393 0
	.cfi_startproc
	pushq	%rbp
	.cfi_def_cfa_offset 16
	.cfi_offset %rbp, -16
	movq	%rsp, %rbp
	.cfi_def_cfa_register %rbp
	subq	$256, %rsp
	movq	%rdi, %rax
Ltmp735:
	.loc	32 1399 15 prologue_end
	movq	(%rsi), %rcx
	movq	%rcx, -200(%rbp)
	movq	8(%rsi), %rcx
	movq	%rcx, -192(%rbp)
	movq	16(%rsi), %rcx
	movq	%rcx, -184(%rbp)
	leaq	-232(%rbp), %rcx
	movq	%rdi, -240(%rbp)
	movq	%rcx, %rdi
	leaq	-200(%rbp), %rcx
	movq	%rsi, -248(%rbp)
Ltmp736:
	movq	%rcx, %rsi
	movq	%rax, -256(%rbp)
	callq	__ZN5alloc11collections5btree4node91NodeRef$LT$BorrowType$C$K$C$V$C$alloc..collections..btree..node..marker..LeafOrInternal$GT$5force17h3e0da1e1b30826f6E
Ltmp737:
	.loc	32 1400 13
	movq	-232(%rbp), %rax
	testq	%rax, %rax
	je	LBB214_4
	jmp	LBB214_6
Ltmp738:
LBB214_6:
	.loc	32 1403 35
	movq	-224(%rbp), %rax
	movq	%rax, -88(%rbp)
	movq	-216(%rbp), %rax
	movq	%rax, -80(%rbp)
	movq	-208(%rbp), %rax
	movq	%rax, -72(%rbp)
Ltmp739:
	.loc	32 1404 48
	movq	-88(%rbp), %rax
	movq	%rax, -32(%rbp)
	movq	-80(%rbp), %rax
	movq	%rax, -24(%rbp)
	movq	-72(%rbp), %rax
	movq	%rax, -16(%rbp)
	movq	-248(%rbp), %rax
	.loc	32 1404 59 is_stmt 0
	movq	24(%rax), %rcx
	.loc	32 1404 39
	movq	-32(%rbp), %rdx
	movq	%rdx, -64(%rbp)
	movq	-24(%rbp), %rdx
	movq	%rdx, -56(%rbp)
	movq	-16(%rbp), %rdx
	movq	%rdx, -48(%rbp)
	movq	%rcx, -40(%rbp)
	.loc	32 1404 17
	movq	-64(%rbp), %rcx
	movq	-240(%rbp), %rdx
	movq	%rcx, 8(%rdx)
	movq	-56(%rbp), %rcx
	movq	%rcx, 16(%rdx)
	movq	-48(%rbp), %rcx
	movq	%rcx, 24(%rdx)
	movq	-40(%rbp), %rcx
	movq	%rcx, 32(%rdx)
	movq	$1, (%rdx)
Ltmp740:
	.loc	32 1399 9 is_stmt 1
	jmp	LBB214_5
Ltmp741:
	.loc	32 1399 15 is_stmt 0
	ud2
LBB214_4:
Ltmp742:
	.loc	32 1400 31 is_stmt 1
	movq	-224(%rbp), %rax
	movq	%rax, -176(%rbp)
	movq	-216(%rbp), %rax
	movq	%rax, -168(%rbp)
	movq	-208(%rbp), %rax
	movq	%rax, -160(%rbp)
Ltmp743:
	.loc	32 1401 44
	movq	-176(%rbp), %rax
	movq	%rax, -120(%rbp)
	movq	-168(%rbp), %rax
	movq	%rax, -112(%rbp)
	movq	-160(%rbp), %rax
	movq	%rax, -104(%rbp)
	movq	-248(%rbp), %rax
	.loc	32 1401 55 is_stmt 0
	movq	24(%rax), %rcx
	.loc	32 1401 35
	movq	-120(%rbp), %rdx
	movq	%rdx, -152(%rbp)
	movq	-112(%rbp), %rdx
	movq	%rdx, -144(%rbp)
	movq	-104(%rbp), %rdx
	movq	%rdx, -136(%rbp)
	movq	%rcx, -128(%rbp)
	.loc	32 1401 17
	movq	-152(%rbp), %rcx
	movq	-240(%rbp), %rdx
	movq	%rcx, 8(%rdx)
	movq	-144(%rbp), %rcx
	movq	%rcx, 16(%rdx)
	movq	-136(%rbp), %rcx
	movq	%rcx, 24(%rdx)
	movq	-128(%rbp), %rcx
	movq	%rcx, 32(%rdx)
	movq	$0, (%rdx)
Ltmp744:
LBB214_5:
	.loc	32 0 17
	movq	-256(%rbp), %rax
	.loc	32 1407 6 is_stmt 1
	addq	$256, %rsp
	popq	%rbp
	retq
Ltmp745:
Lfunc_end214:
	.cfi_endproc

	.p2align	4, 0x90
__ZN5alloc11collections5btree4node151Handle$LT$alloc..collections..btree..node..NodeRef$LT$BorrowType$C$K$C$V$C$alloc..collections..btree..node..marker..LeafOrInternal$GT$$C$HandleType$GT$5force17h5f7fd6c1ae549051E:
Lfunc_begin215:
	.loc	32 1393 0
	.cfi_startproc
	pushq	%rbp
	.cfi_def_cfa_offset 16
	.cfi_offset %rbp, -16
	movq	%rsp, %rbp
	.cfi_def_cfa_register %rbp
	subq	$256, %rsp
	movq	%rdi, %rax
Ltmp746:
	.loc	32 1399 15 prologue_end
	movq	(%rsi), %rcx
	movq	%rcx, -200(%rbp)
	movq	8(%rsi), %rcx
	movq	%rcx, -192(%rbp)
	movq	16(%rsi), %rcx
	movq	%rcx, -184(%rbp)
	leaq	-232(%rbp), %rcx
	movq	%rdi, -240(%rbp)
	movq	%rcx, %rdi
	leaq	-200(%rbp), %rcx
	movq	%rsi, -248(%rbp)
Ltmp747:
	movq	%rcx, %rsi
	movq	%rax, -256(%rbp)
	callq	__ZN5alloc11collections5btree4node91NodeRef$LT$BorrowType$C$K$C$V$C$alloc..collections..btree..node..marker..LeafOrInternal$GT$5force17h3e0da1e1b30826f6E
Ltmp748:
	.loc	32 1400 13
	movq	-232(%rbp), %rax
	testq	%rax, %rax
	je	LBB215_4
	jmp	LBB215_6
Ltmp749:
LBB215_6:
	.loc	32 1403 35
	movq	-224(%rbp), %rax
	movq	%rax, -88(%rbp)
	movq	-216(%rbp), %rax
	movq	%rax, -80(%rbp)
	movq	-208(%rbp), %rax
	movq	%rax, -72(%rbp)
Ltmp750:
	.loc	32 1404 48
	movq	-88(%rbp), %rax
	movq	%rax, -32(%rbp)
	movq	-80(%rbp), %rax
	movq	%rax, -24(%rbp)
	movq	-72(%rbp), %rax
	movq	%rax, -16(%rbp)
	movq	-248(%rbp), %rax
	.loc	32 1404 59 is_stmt 0
	movq	24(%rax), %rcx
	.loc	32 1404 39
	movq	-32(%rbp), %rdx
	movq	%rdx, -64(%rbp)
	movq	-24(%rbp), %rdx
	movq	%rdx, -56(%rbp)
	movq	-16(%rbp), %rdx
	movq	%rdx, -48(%rbp)
	movq	%rcx, -40(%rbp)
	.loc	32 1404 17
	movq	-64(%rbp), %rcx
	movq	-240(%rbp), %rdx
	movq	%rcx, 8(%rdx)
	movq	-56(%rbp), %rcx
	movq	%rcx, 16(%rdx)
	movq	-48(%rbp), %rcx
	movq	%rcx, 24(%rdx)
	movq	-40(%rbp), %rcx
	movq	%rcx, 32(%rdx)
	movq	$1, (%rdx)
Ltmp751:
	.loc	32 1399 9 is_stmt 1
	jmp	LBB215_5
Ltmp752:
	.loc	32 1399 15 is_stmt 0
	ud2
LBB215_4:
Ltmp753:
	.loc	32 1400 31 is_stmt 1
	movq	-224(%rbp), %rax
	movq	%rax, -176(%rbp)
	movq	-216(%rbp), %rax
	movq	%rax, -168(%rbp)
	movq	-208(%rbp), %rax
	movq	%rax, -160(%rbp)
Ltmp754:
	.loc	32 1401 44
	movq	-176(%rbp), %rax
	movq	%rax, -120(%rbp)
	movq	-168(%rbp), %rax
	movq	%rax, -112(%rbp)
	movq	-160(%rbp), %rax
	movq	%rax, -104(%rbp)
	movq	-248(%rbp), %rax
	.loc	32 1401 55 is_stmt 0
	movq	24(%rax), %rcx
	.loc	32 1401 35
	movq	-120(%rbp), %rdx
	movq	%rdx, -152(%rbp)
	movq	-112(%rbp), %rdx
	movq	%rdx, -144(%rbp)
	movq	-104(%rbp), %rdx
	movq	%rdx, -136(%rbp)
	movq	%rcx, -128(%rbp)
	.loc	32 1401 17
	movq	-152(%rbp), %rcx
	movq	-240(%rbp), %rdx
	movq	%rcx, 8(%rdx)
	movq	-144(%rbp), %rcx
	movq	%rcx, 16(%rdx)
	movq	-136(%rbp), %rcx
	movq	%rcx, 24(%rdx)
	movq	-128(%rbp), %rcx
	movq	%rcx, 32(%rdx)
	movq	$0, (%rdx)
Ltmp755:
LBB215_5:
	.loc	32 0 17
	movq	-256(%rbp), %rax
	.loc	32 1407 6 is_stmt 1
	addq	$256, %rsp
	popq	%rbp
	retq
Ltmp756:
Lfunc_end215:
	.cfi_endproc

	.p2align	4, 0x90
__ZN5alloc11collections5btree4node173Handle$LT$alloc..collections..btree..node..NodeRef$LT$alloc..collections..btree..node..marker..Immut$C$K$C$V$C$NodeType$GT$$C$alloc..collections..btree..node..marker..KV$GT$7into_kv17hacf9953b2b2160e5E:
Lfunc_begin216:
	.loc	32 982 0
	.cfi_startproc
	pushq	%rbp
	.cfi_def_cfa_offset 16
	.cfi_offset %rbp, -16
	movq	%rsp, %rbp
	.cfi_def_cfa_register %rbp
	subq	$144, %rsp
Ltmp757:
	.loc	32 984 32 prologue_end
	movq	(%rdi), %rax
	movq	%rax, -56(%rbp)
	movq	8(%rdi), %rax
	movq	%rax, -48(%rbp)
	movq	16(%rdi), %rax
	movq	%rax, -40(%rbp)
	leaq	-88(%rbp), %rax
	movq	%rdi, -112(%rbp)
Ltmp758:
	movq	%rax, %rdi
	leaq	-56(%rbp), %rsi
	callq	__ZN5alloc11collections5btree4node76NodeRef$LT$alloc..collections..btree..node..marker..Immut$C$K$C$V$C$Type$GT$11into_slices17hffacbcdf4c6ea2e1E
Ltmp759:
	.loc	32 984 18 is_stmt 0
	movq	-88(%rbp), %rax
	movq	-80(%rbp), %rcx
	movq	%rax, -32(%rbp)
	movq	%rcx, -24(%rbp)
	.loc	32 984 24
	movq	-72(%rbp), %rdx
	movq	-64(%rbp), %rsi
	movq	%rdx, -16(%rbp)
	movq	%rsi, -8(%rbp)
	movq	-112(%rbp), %rdi
Ltmp760:
	.loc	32 985 33 is_stmt 1
	movq	24(%rdi), %r8
	.loc	32 985 14 is_stmt 0
	movq	%rax, %rdi
	movq	%rsi, -120(%rbp)
	movq	%rcx, %rsi
	movq	%rdx, -128(%rbp)
	movq	%r8, %rdx
	callq	__ZN4core5slice29_$LT$impl$u20$$u5b$T$u5d$$GT$13get_unchecked17hd1d3db8da22f4a4aE
	movq	%rax, -136(%rbp)
Ltmp761:
	.loc	32 0 14
	movq	-112(%rbp), %rax
	.loc	32 985 63
	movq	24(%rax), %rdx
	movq	-128(%rbp), %rdi
	movq	-120(%rbp), %rsi
	.loc	32 985 44
	callq	__ZN4core5slice29_$LT$impl$u20$$u5b$T$u5d$$GT$13get_unchecked17h8a2c8ba6886f9bf7E
	movq	%rax, -144(%rbp)
Ltmp762:
	.loc	32 0 44
	movq	-136(%rbp), %rax
	.loc	32 985 13
	movq	%rax, -104(%rbp)
	movq	-144(%rbp), %rcx
	movq	%rcx, -96(%rbp)
Ltmp763:
	.loc	32 987 6 is_stmt 1
	movq	-104(%rbp), %rax
	movq	-96(%rbp), %rdx
	addq	$144, %rsp
	popq	%rbp
	retq
Ltmp764:
Lfunc_end216:
	.cfi_endproc

	.p2align	4, 0x90
__ZN5alloc11collections5btree4node176Handle$LT$alloc..collections..btree..node..NodeRef$LT$BorrowType$C$K$C$V$C$alloc..collections..btree..node..marker..Leaf$GT$$C$alloc..collections..btree..node..marker..Edge$GT$16forget_node_type17h83bffb6c38cde94aE:
Lfunc_begin217:
	.loc	32 1366 0
	.cfi_startproc
	pushq	%rbp
	.cfi_def_cfa_offset 16
	.cfi_offset %rbp, -16
	movq	%rsp, %rbp
	.cfi_def_cfa_register %rbp
	subq	$80, %rsp
	movq	%rdi, %rax
Ltmp765:
	.loc	32 1369 35 prologue_end
	movq	(%rsi), %rcx
	movq	%rcx, -24(%rbp)
	movq	8(%rsi), %rcx
	movq	%rcx, -16(%rbp)
	movq	16(%rsi), %rcx
	movq	%rcx, -8(%rbp)
	leaq	-48(%rbp), %rcx
	movq	%rdi, -56(%rbp)
	movq	%rcx, %rdi
	leaq	-24(%rbp), %rcx
	movq	%rsi, -64(%rbp)
Ltmp766:
	movq	%rcx, %rsi
	movq	%rax, -72(%rbp)
	callq	__ZN5alloc11collections5btree4node40NodeRef$LT$BorrowType$C$K$C$V$C$Type$GT$11forget_type17h6ddf9fe2ea76da19E
Ltmp767:
	.loc	32 0 35 is_stmt 0
	movq	-64(%rbp), %rax
	.loc	32 1369 60
	movq	24(%rax), %rdx
	movq	-56(%rbp), %rdi
	.loc	32 1369 18
	leaq	-48(%rbp), %rsi
	callq	__ZN5alloc11collections5btree4node139Handle$LT$alloc..collections..btree..node..NodeRef$LT$BorrowType$C$K$C$V$C$NodeType$GT$$C$alloc..collections..btree..node..marker..Edge$GT$8new_edge17hdc9fc586d37af338E
Ltmp768:
	.loc	32 0 18
	movq	-72(%rbp), %rax
	.loc	32 1370 6 is_stmt 1
	addq	$80, %rsp
	popq	%rbp
	retq
Ltmp769:
Lfunc_end217:
	.cfi_endproc

	.p2align	4, 0x90
__ZN5alloc11collections5btree4node17Root$LT$K$C$V$GT$8into_ref17h5d9b81d3bf9e1962E:
Lfunc_begin218:
	.loc	32 184 0
	.cfi_startproc
	pushq	%rbp
	.cfi_def_cfa_offset 16
	.cfi_offset %rbp, -16
	movq	%rsp, %rbp
	.cfi_def_cfa_register %rbp
	subq	$48, %rsp
	movq	%rdi, %rax
	movq	%rsi, -16(%rbp)
	movq	%rdx, -8(%rbp)
Ltmp770:
	.loc	32 186 21 prologue_end
	movq	-8(%rbp), %rcx
	.loc	32 187 19
	leaq	-16(%rbp), %rdx
Ltmp771:
	.loc	32 0 19 is_stmt 0
	movq	%rdi, -24(%rbp)
	.loc	32 187 19
	movq	%rdx, %rdi
	movq	%rax, -32(%rbp)
	movq	%rcx, -40(%rbp)
	callq	__ZN5alloc11collections5btree4node22BoxedNode$LT$K$C$V$GT$6as_ptr17hb0662f9a2b1643e6E
Ltmp772:
	.loc	32 0 19
	movq	%rax, -48(%rbp)
	.loc	32 188 19 is_stmt 1
	jmp	LBB218_2
LBB218_2:
	.loc	32 0 19 is_stmt 0
	movq	-24(%rbp), %rax
	movq	-40(%rbp), %rcx
	.loc	32 185 9 is_stmt 1
	movq	%rcx, (%rax)
	movq	-48(%rbp), %rdx
	movq	%rdx, 8(%rax)
	movq	$0, 16(%rax)
	movq	-32(%rbp), %rax
	.loc	32 191 6
	addq	$48, %rsp
	popq	%rbp
	retq
Ltmp773:
Lfunc_end218:
	.cfi_endproc

	.p2align	4, 0x90
__ZN5alloc11collections5btree4node180Handle$LT$alloc..collections..btree..node..NodeRef$LT$BorrowType$C$K$C$V$C$alloc..collections..btree..node..marker..Internal$GT$$C$alloc..collections..btree..node..marker..Edge$GT$16forget_node_type17h996da409ffe4b9d2E:
Lfunc_begin219:
	.loc	32 1374 0
	.cfi_startproc
	pushq	%rbp
	.cfi_def_cfa_offset 16
	.cfi_offset %rbp, -16
	movq	%rsp, %rbp
	.cfi_def_cfa_register %rbp
	subq	$80, %rsp
	movq	%rdi, %rax
Ltmp774:
	.loc	32 1377 35 prologue_end
	movq	(%rsi), %rcx
	movq	%rcx, -24(%rbp)
	movq	8(%rsi), %rcx
	movq	%rcx, -16(%rbp)
	movq	16(%rsi), %rcx
	movq	%rcx, -8(%rbp)
	leaq	-48(%rbp), %rcx
	movq	%rdi, -56(%rbp)
	movq	%rcx, %rdi
	leaq	-24(%rbp), %rcx
	movq	%rsi, -64(%rbp)
Ltmp775:
	movq	%rcx, %rsi
	movq	%rax, -72(%rbp)
	callq	__ZN5alloc11collections5btree4node40NodeRef$LT$BorrowType$C$K$C$V$C$Type$GT$11forget_type17h4f511d2ec20c469aE
Ltmp776:
	.loc	32 0 35 is_stmt 0
	movq	-64(%rbp), %rax
	.loc	32 1377 60
	movq	24(%rax), %rdx
	movq	-56(%rbp), %rdi
	.loc	32 1377 18
	leaq	-48(%rbp), %rsi
	callq	__ZN5alloc11collections5btree4node139Handle$LT$alloc..collections..btree..node..NodeRef$LT$BorrowType$C$K$C$V$C$NodeType$GT$$C$alloc..collections..btree..node..marker..Edge$GT$8new_edge17hdc9fc586d37af338E
Ltmp777:
	.loc	32 0 18
	movq	-72(%rbp), %rax
	.loc	32 1378 6 is_stmt 1
	addq	$80, %rsp
	popq	%rbp
	retq
Ltmp778:
Lfunc_end219:
	.cfi_endproc

	.p2align	4, 0x90
__ZN5alloc11collections5btree4node180Handle$LT$alloc..collections..btree..node..NodeRef$LT$BorrowType$C$K$C$V$C$alloc..collections..btree..node..marker..Internal$GT$$C$alloc..collections..btree..node..marker..Edge$GT$7descend17h0a3dfcc1458b3f31E:
Lfunc_begin220:
	.loc	32 969 0
	.cfi_startproc
	pushq	%rbp
	.cfi_def_cfa_offset 16
	.cfi_offset %rbp, -16
	movq	%rsp, %rbp
	.cfi_def_cfa_register %rbp
	subq	$96, %rsp
	movq	%rdi, %rax
Ltmp779:
	.loc	32 971 21 prologue_end
	movq	(%rsi), %rcx
	subq	$1, %rcx
	.loc	32 973 20
	movq	%rsi, %rdx
	movq	%rdi, -32(%rbp)
	movq	%rdx, %rdi
	movq	%rsi, -40(%rbp)
Ltmp780:
	.loc	32 0 20 is_stmt 0
	movq	%rax, -48(%rbp)
	movq	%rcx, -56(%rbp)
	.loc	32 973 20
	callq	__ZN5alloc11collections5btree4node85NodeRef$LT$BorrowType$C$K$C$V$C$alloc..collections..btree..node..marker..Internal$GT$11as_internal17hee9c712bc71f278dE
	movq	%rax, -64(%rbp)
Ltmp781:
	.loc	32 0 20
	movq	-64(%rbp), %rax
	.loc	32 973 20
	addq	$544, %rax
	movq	-40(%rbp), %rcx
	.loc	32 973 64
	movq	24(%rcx), %rdx
	.loc	32 973 20
	movq	%rax, %rdi
	movl	$12, %esi
	callq	__ZN4core5slice29_$LT$impl$u20$$u5b$T$u5d$$GT$13get_unchecked17hf33e7aa3c16d71d3E
	movq	%rax, -72(%rbp)
Ltmp782:
	.loc	32 0 20
	movq	-72(%rbp), %rax
	movq	%rax, -16(%rbp)
	movq	%rax, -8(%rbp)
	movq	%rax, -80(%rbp)
Ltmp783:
	movq	-80(%rbp), %rdi
	.loc	32 973 17
	callq	__ZN5alloc11collections5btree4node22BoxedNode$LT$K$C$V$GT$6as_ptr17hb0662f9a2b1643e6E
	movq	%rax, -88(%rbp)
Ltmp784:
	.loc	32 0 17
	movq	-40(%rbp), %rax
	.loc	32 975 19 is_stmt 1
	movq	16(%rax), %rcx
	movq	-32(%rbp), %rdx
	movq	-56(%rbp), %rsi
	.loc	32 970 9
	movq	%rsi, (%rdx)
	movq	-88(%rbp), %rdi
	movq	%rdi, 8(%rdx)
	movq	%rcx, 16(%rdx)
	movq	-48(%rbp), %rax
	.loc	32 978 6
	addq	$96, %rsp
	popq	%rbp
	retq
Ltmp785:
Lfunc_end220:
	.cfi_endproc

	.p2align	4, 0x90
__ZN5alloc11collections5btree4node22BoxedNode$LT$K$C$V$GT$6as_ptr17hb0662f9a2b1643e6E:
Lfunc_begin221:
	.loc	32 138 0
	.cfi_startproc
	pushq	%rbp
	.cfi_def_cfa_offset 16
	.cfi_offset %rbp, -16
	movq	%rsp, %rbp
	.cfi_def_cfa_register %rbp
	subq	$16, %rsp
	movq	%rdi, -8(%rbp)
Ltmp786:
	.loc	32 139 23 prologue_end
	movq	(%rdi), %rdi
	.loc	32 139 9 is_stmt 0
	callq	__ZN119_$LT$core..ptr..non_null..NonNull$LT$T$GT$$u20$as$u20$core..convert..From$LT$core..ptr..unique..Unique$LT$T$GT$$GT$$GT$4from17h1ae7e213d340fbe9E
	movq	%rax, -16(%rbp)
	.loc	32 0 9
	movq	-16(%rbp), %rax
	.loc	32 140 6 is_stmt 1
	addq	$16, %rsp
	popq	%rbp
	retq
Ltmp787:
Lfunc_end221:
	.cfi_endproc

	.p2align	4, 0x90
__ZN5alloc11collections5btree4node25Handle$LT$Node$C$Type$GT$9into_node17h742e885d92fa629aE:
Lfunc_begin222:
	.loc	32 733 0
	.cfi_startproc
	pushq	%rbp
	.cfi_def_cfa_offset 16
	.cfi_offset %rbp, -16
	movq	%rsp, %rbp
	.cfi_def_cfa_register %rbp
	movq	%rdi, %rax
Ltmp788:
	.loc	32 734 9 prologue_end
	movq	(%rsi), %rcx
	movq	%rcx, (%rdi)
	movq	8(%rsi), %rcx
	movq	%rcx, 8(%rdi)
	movq	16(%rsi), %rcx
	movq	%rcx, 16(%rdi)
	.loc	32 735 6
	popq	%rbp
	retq
Ltmp789:
Lfunc_end222:
	.cfi_endproc

	.p2align	4, 0x90
__ZN5alloc11collections5btree4node25Handle$LT$Node$C$Type$GT$9into_node17hc885ed0c457bb738E:
Lfunc_begin223:
	.loc	32 733 0
	.cfi_startproc
	pushq	%rbp
	.cfi_def_cfa_offset 16
	.cfi_offset %rbp, -16
	movq	%rsp, %rbp
	.cfi_def_cfa_register %rbp
	movq	%rdi, %rax
Ltmp790:
	.loc	32 734 9 prologue_end
	movq	(%rsi), %rcx
	movq	%rcx, (%rdi)
	movq	8(%rsi), %rcx
	movq	%rcx, 8(%rdi)
	movq	16(%rsi), %rcx
	movq	%rcx, 16(%rdi)
	.loc	32 735 6
	popq	%rbp
	retq
Ltmp791:
Lfunc_end223:
	.cfi_endproc

	.p2align	4, 0x90
__ZN5alloc11collections5btree4node25Handle$LT$Node$C$Type$GT$9into_node17heaefbd7452ca1a96E:
Lfunc_begin224:
	.loc	32 733 0
	.cfi_startproc
	pushq	%rbp
	.cfi_def_cfa_offset 16
	.cfi_offset %rbp, -16
	movq	%rsp, %rbp
	.cfi_def_cfa_register %rbp
	movq	%rdi, %rax
Ltmp792:
	.loc	32 734 9 prologue_end
	movq	(%rsi), %rcx
	movq	%rcx, (%rdi)
	movq	8(%rsi), %rcx
	movq	%rcx, 8(%rdi)
	movq	16(%rsi), %rcx
	movq	%rcx, 16(%rdi)
	.loc	32 735 6
	popq	%rbp
	retq
Ltmp793:
Lfunc_end224:
	.cfi_endproc

	.p2align	4, 0x90
__ZN5alloc11collections5btree4node40NodeRef$LT$BorrowType$C$K$C$V$C$Type$GT$10first_edge17h581e8efe53ba3652E:
Lfunc_begin225:
	.loc	32 367 0
	.cfi_startproc
	pushq	%rbp
	.cfi_def_cfa_offset 16
	.cfi_offset %rbp, -16
	movq	%rsp, %rbp
	.cfi_def_cfa_register %rbp
	subq	$32, %rsp
	movq	%rdi, %rax
	xorl	%ecx, %ecx
	movl	%ecx, %edx
Ltmp794:
	.loc	32 368 35 prologue_end
	movq	(%rsi), %r8
	movq	%r8, -24(%rbp)
	movq	8(%rsi), %r8
	movq	%r8, -16(%rbp)
	movq	16(%rsi), %rsi
Ltmp795:
	movq	%rsi, -8(%rbp)
	.loc	32 368 18 is_stmt 0
	leaq	-24(%rbp), %rsi
	movq	%rax, -32(%rbp)
	callq	__ZN5alloc11collections5btree4node139Handle$LT$alloc..collections..btree..node..NodeRef$LT$BorrowType$C$K$C$V$C$NodeType$GT$$C$alloc..collections..btree..node..marker..Edge$GT$8new_edge17h80cabea0b2d85d4aE
	.loc	32 0 18
	movq	-32(%rbp), %rax
	.loc	32 369 6 is_stmt 1
	addq	$32, %rsp
	popq	%rbp
	retq
Ltmp796:
Lfunc_end225:
	.cfi_endproc

	.p2align	4, 0x90
__ZN5alloc11collections5btree4node40NodeRef$LT$BorrowType$C$K$C$V$C$Type$GT$10first_edge17h6b891c1062a68aeeE:
Lfunc_begin226:
	.loc	32 367 0
	.cfi_startproc
	pushq	%rbp
	.cfi_def_cfa_offset 16
	.cfi_offset %rbp, -16
	movq	%rsp, %rbp
	.cfi_def_cfa_register %rbp
	subq	$32, %rsp
	movq	%rdi, %rax
	xorl	%ecx, %ecx
	movl	%ecx, %edx
Ltmp797:
	.loc	32 368 35 prologue_end
	movq	(%rsi), %r8
	movq	%r8, -24(%rbp)
	movq	8(%rsi), %r8
	movq	%r8, -16(%rbp)
	movq	16(%rsi), %rsi
Ltmp798:
	movq	%rsi, -8(%rbp)
	.loc	32 368 18 is_stmt 0
	leaq	-24(%rbp), %rsi
	movq	%rax, -32(%rbp)
	callq	__ZN5alloc11collections5btree4node139Handle$LT$alloc..collections..btree..node..NodeRef$LT$BorrowType$C$K$C$V$C$NodeType$GT$$C$alloc..collections..btree..node..marker..Edge$GT$8new_edge17ha8a3a951af5e5c04E
	.loc	32 0 18
	movq	-32(%rbp), %rax
	.loc	32 369 6 is_stmt 1
	addq	$32, %rsp
	popq	%rbp
	retq
Ltmp799:
Lfunc_end226:
	.cfi_endproc

	.p2align	4, 0x90
__ZN5alloc11collections5btree4node40NodeRef$LT$BorrowType$C$K$C$V$C$Type$GT$10first_edge17h91127074dd089b48E:
Lfunc_begin227:
	.loc	32 367 0
	.cfi_startproc
	pushq	%rbp
	.cfi_def_cfa_offset 16
	.cfi_offset %rbp, -16
	movq	%rsp, %rbp
	.cfi_def_cfa_register %rbp
	subq	$32, %rsp
	movq	%rdi, %rax
	xorl	%ecx, %ecx
	movl	%ecx, %edx
Ltmp800:
	.loc	32 368 35 prologue_end
	movq	(%rsi), %r8
	movq	%r8, -24(%rbp)
	movq	8(%rsi), %r8
	movq	%r8, -16(%rbp)
	movq	16(%rsi), %rsi
Ltmp801:
	movq	%rsi, -8(%rbp)
	.loc	32 368 18 is_stmt 0
	leaq	-24(%rbp), %rsi
	movq	%rax, -32(%rbp)
	callq	__ZN5alloc11collections5btree4node139Handle$LT$alloc..collections..btree..node..NodeRef$LT$BorrowType$C$K$C$V$C$NodeType$GT$$C$alloc..collections..btree..node..marker..Edge$GT$8new_edge17hdc9fc586d37af338E
	.loc	32 0 18
	movq	-32(%rbp), %rax
	.loc	32 369 6 is_stmt 1
	addq	$32, %rsp
	popq	%rbp
	retq
Ltmp802:
Lfunc_end227:
	.cfi_endproc

	.p2align	4, 0x90
__ZN5alloc11collections5btree4node40NodeRef$LT$BorrowType$C$K$C$V$C$Type$GT$11forget_type17h4f511d2ec20c469aE:
Lfunc_begin228:
	.loc	32 310 0
	.cfi_startproc
	pushq	%rbp
	.cfi_def_cfa_offset 16
	.cfi_offset %rbp, -16
	movq	%rsp, %rbp
	.cfi_def_cfa_register %rbp
	pushq	%rax
	movq	%rdi, %rax
Ltmp803:
	.loc	32 311 27 prologue_end
	movq	(%rsi), %rcx
	.loc	32 311 46 is_stmt 0
	movq	8(%rsi), %rdx
	.loc	32 311 63
	movq	16(%rsi), %rsi
Ltmp804:
	.loc	32 311 9
	movq	%rcx, (%rdi)
	movq	%rdx, 8(%rdi)
	movq	%rsi, 16(%rdi)
	.loc	32 312 6 is_stmt 1
	addq	$8, %rsp
	popq	%rbp
	retq
Ltmp805:
Lfunc_end228:
	.cfi_endproc

	.p2align	4, 0x90
__ZN5alloc11collections5btree4node40NodeRef$LT$BorrowType$C$K$C$V$C$Type$GT$11forget_type17h6ddf9fe2ea76da19E:
Lfunc_begin229:
	.loc	32 310 0
	.cfi_startproc
	pushq	%rbp
	.cfi_def_cfa_offset 16
	.cfi_offset %rbp, -16
	movq	%rsp, %rbp
	.cfi_def_cfa_register %rbp
	pushq	%rax
	movq	%rdi, %rax
Ltmp806:
	.loc	32 311 27 prologue_end
	movq	(%rsi), %rcx
	.loc	32 311 46 is_stmt 0
	movq	8(%rsi), %rdx
	.loc	32 311 63
	movq	16(%rsi), %rsi
Ltmp807:
	.loc	32 311 9
	movq	%rcx, (%rdi)
	movq	%rdx, 8(%rdi)
	movq	%rsi, 16(%rdi)
	.loc	32 312 6 is_stmt 1
	addq	$8, %rsp
	popq	%rbp
	retq
Ltmp808:
Lfunc_end229:
	.cfi_endproc

	.p2align	4, 0x90
__ZN5alloc11collections5btree4node40NodeRef$LT$BorrowType$C$K$C$V$C$Type$GT$3len17h303d9e3ac24d7fbcE:
Lfunc_begin230:
	.loc	32 298 0
	.cfi_startproc
	pushq	%rbp
	.cfi_def_cfa_offset 16
	.cfi_offset %rbp, -16
	movq	%rsp, %rbp
	.cfi_def_cfa_register %rbp
	subq	$16, %rsp
	movq	%rdi, -8(%rbp)
Ltmp809:
	.loc	32 299 9 prologue_end
	callq	__ZN5alloc11collections5btree4node40NodeRef$LT$BorrowType$C$K$C$V$C$Type$GT$7as_leaf17hbc9c74093c539289E
	movq	%rax, -16(%rbp)
	.loc	32 0 9 is_stmt 0
	movq	-16(%rbp), %rax
	.loc	32 299 9
	movzwl	10(%rax), %ecx
	movl	%ecx, %eax
	.loc	32 300 6 is_stmt 1
	addq	$16, %rsp
	popq	%rbp
	retq
Ltmp810:
Lfunc_end230:
	.cfi_endproc

	.p2align	4, 0x90
__ZN5alloc11collections5btree4node40NodeRef$LT$BorrowType$C$K$C$V$C$Type$GT$3len17hea74c7f868b5bd24E:
Lfunc_begin231:
	.loc	32 298 0
	.cfi_startproc
	pushq	%rbp
	.cfi_def_cfa_offset 16
	.cfi_offset %rbp, -16
	movq	%rsp, %rbp
	.cfi_def_cfa_register %rbp
	subq	$16, %rsp
	movq	%rdi, -8(%rbp)
Ltmp811:
	.loc	32 299 9 prologue_end
	callq	__ZN5alloc11collections5btree4node40NodeRef$LT$BorrowType$C$K$C$V$C$Type$GT$7as_leaf17h0679190ddfa26545E
	movq	%rax, -16(%rbp)
	.loc	32 0 9 is_stmt 0
	movq	-16(%rbp), %rax
	.loc	32 299 9
	movzwl	10(%rax), %ecx
	movl	%ecx, %eax
	.loc	32 300 6 is_stmt 1
	addq	$16, %rsp
	popq	%rbp
	retq
Ltmp812:
Lfunc_end231:
	.cfi_endproc

	.p2align	4, 0x90
__ZN5alloc11collections5btree4node40NodeRef$LT$BorrowType$C$K$C$V$C$Type$GT$6ascend17h923542a4efd27962E:
Lfunc_begin232:
	.loc	32 347 0
	.cfi_startproc
	pushq	%rbp
	.cfi_def_cfa_offset 16
	.cfi_offset %rbp, -16
	movq	%rsp, %rbp
	.cfi_def_cfa_register %rbp
	subq	$192, %rsp
	movq	%rdi, %rax
Ltmp813:
	movq	%rdi, -136(%rbp)
Ltmp814:
	.loc	32 350 30 prologue_end
	movq	%rsi, %rdi
	movq	%rsi, -144(%rbp)
Ltmp815:
	.loc	32 0 30 is_stmt 0
	movq	%rax, -152(%rbp)
	.loc	32 350 30
	callq	__ZN5alloc11collections5btree4node40NodeRef$LT$BorrowType$C$K$C$V$C$Type$GT$7as_leaf17h0679190ddfa26545E
	movq	%rax, -160(%rbp)
Ltmp816:
	.loc	32 0 30
	movq	-160(%rbp), %rax
	.loc	32 350 30
	movq	(%rax), %rcx
	movq	%rcx, -32(%rbp)
Ltmp817:
	.loc	32 351 33 is_stmt 1
	movq	%rcx, %rdi
	callq	__ZN4core3ptr8non_null16NonNull$LT$T$GT$3new17h31728ddf38958bbbE
	movq	%rax, -128(%rbp)
Ltmp818:
	.loc	32 0 33 is_stmt 0
	xorl	%eax, %eax
	movl	%eax, %ecx
	.loc	32 351 16
	cmpq	$0, -128(%rbp)
	movl	$1, %edx
	cmovbeq	%rcx, %rdx
	cmpq	$1, %rdx
	je	LBB232_4
Ltmp819:
	.loc	32 0 16
	movq	-144(%rbp), %rax
	.loc	32 363 17 is_stmt 1
	movq	(%rax), %rcx
	movq	%rcx, -56(%rbp)
	movq	8(%rax), %rcx
	movq	%rcx, -48(%rbp)
	movq	16(%rax), %rcx
	movq	%rcx, -40(%rbp)
	.loc	32 363 13 is_stmt 0
	movq	-56(%rbp), %rcx
	movq	-136(%rbp), %rdx
	movq	%rcx, 8(%rdx)
	movq	-48(%rbp), %rcx
	movq	%rcx, 16(%rdx)
	movq	-40(%rbp), %rcx
	movq	%rcx, 24(%rdx)
	movq	$1, (%rdx)
	.loc	32 351 9 is_stmt 1
	jmp	LBB232_8
Ltmp820:
LBB232_4:
	.loc	32 351 21 is_stmt 0
	movq	-128(%rbp), %rax
	movq	%rax, -24(%rbp)
	movq	-144(%rbp), %rcx
Ltmp821:
	.loc	32 354 29 is_stmt 1
	movq	(%rcx), %rdx
	addq	$1, %rdx
	.loc	32 356 27
	movq	16(%rcx), %rsi
	.loc	32 353 23
	movq	%rdx, -88(%rbp)
	movq	%rax, -80(%rbp)
	movq	%rsi, -72(%rbp)
	.loc	32 359 44
	movq	%rcx, %rdi
	callq	__ZN5alloc11collections5btree4node40NodeRef$LT$BorrowType$C$K$C$V$C$Type$GT$7as_leaf17h0679190ddfa26545E
	movq	%rax, -168(%rbp)
Ltmp822:
	.loc	32 0 44 is_stmt 0
	movq	-168(%rbp), %rax
	.loc	32 359 44
	addq	$8, %rax
	movq	%rax, -16(%rbp)
	movq	%rax, -8(%rbp)
	movq	%rax, -176(%rbp)
Ltmp823:
	.loc	32 0 44
	movq	-176(%rbp), %rax
	.loc	32 359 31
	movzwl	(%rax), %edi
	callq	__ZN4core7convert3num66_$LT$impl$u20$core..convert..From$LT$u16$GT$$u20$for$u20$usize$GT$4from17h8f3a5cc82de412e9E
	movq	%rax, -184(%rbp)
Ltmp824:
	.loc	32 352 16 is_stmt 1
	movq	-88(%rbp), %rax
	movq	%rax, -120(%rbp)
	movq	-80(%rbp), %rax
	movq	%rax, -112(%rbp)
	movq	-72(%rbp), %rax
	movq	%rax, -104(%rbp)
	movq	-184(%rbp), %rax
	movq	%rax, -96(%rbp)
	.loc	32 352 13 is_stmt 0
	movq	-120(%rbp), %rcx
	movq	-136(%rbp), %rdx
	movq	%rcx, 8(%rdx)
	movq	-112(%rbp), %rcx
	movq	%rcx, 16(%rdx)
	movq	-104(%rbp), %rcx
	movq	%rcx, 24(%rdx)
	movq	-96(%rbp), %rcx
	movq	%rcx, 32(%rdx)
	movq	$0, (%rdx)
Ltmp825:
LBB232_8:
	.loc	32 0 13
	movq	-152(%rbp), %rax
	.loc	32 365 6 is_stmt 1
	addq	$192, %rsp
	popq	%rbp
	retq
Ltmp826:
Lfunc_end232:
	.cfi_endproc

	.p2align	4, 0x90
__ZN5alloc11collections5btree4node40NodeRef$LT$BorrowType$C$K$C$V$C$Type$GT$7as_leaf17h0679190ddfa26545E:
Lfunc_begin233:
	.loc	32 323 0
	.cfi_startproc
	pushq	%rbp
	.cfi_def_cfa_offset 16
	.cfi_offset %rbp, -16
	movq	%rsp, %rbp
	.cfi_def_cfa_register %rbp
	subq	$16, %rsp
	movq	%rdi, -8(%rbp)
Ltmp827:
	.loc	32 327 18 prologue_end
	addq	$8, %rdi
	callq	__ZN4core3ptr8non_null16NonNull$LT$T$GT$6as_ref17h95730e58c00de3f1E
	movq	%rax, -16(%rbp)
	.loc	32 0 18 is_stmt 0
	movq	-16(%rbp), %rax
	.loc	32 328 6 is_stmt 1
	addq	$16, %rsp
	popq	%rbp
	retq
Ltmp828:
Lfunc_end233:
	.cfi_endproc

	.p2align	4, 0x90
__ZN5alloc11collections5btree4node40NodeRef$LT$BorrowType$C$K$C$V$C$Type$GT$7as_leaf17hbc9c74093c539289E:
Lfunc_begin234:
	.loc	32 323 0
	.cfi_startproc
	pushq	%rbp
	.cfi_def_cfa_offset 16
	.cfi_offset %rbp, -16
	movq	%rsp, %rbp
	.cfi_def_cfa_register %rbp
	subq	$16, %rsp
	movq	%rdi, -8(%rbp)
Ltmp829:
	.loc	32 327 18 prologue_end
	addq	$8, %rdi
	callq	__ZN4core3ptr8non_null16NonNull$LT$T$GT$6as_ref17h95730e58c00de3f1E
	movq	%rax, -16(%rbp)
	.loc	32 0 18 is_stmt 0
	movq	-16(%rbp), %rax
	.loc	32 328 6 is_stmt 1
	addq	$16, %rsp
	popq	%rbp
	retq
Ltmp830:
Lfunc_end234:
	.cfi_endproc

	.p2align	4, 0x90
__ZN5alloc11collections5btree4node40NodeRef$LT$BorrowType$C$K$C$V$C$Type$GT$8reborrow17hc7d43dc36e61f209E:
Lfunc_begin235:
	.loc	32 315 0
	.cfi_startproc
	pushq	%rbp
	.cfi_def_cfa_offset 16
	.cfi_offset %rbp, -16
	movq	%rsp, %rbp
	.cfi_def_cfa_register %rbp
	subq	$16, %rsp
	movq	%rdi, %rax
	movq	%rsi, -8(%rbp)
Ltmp831:
	.loc	32 316 27 prologue_end
	movq	(%rsi), %rcx
	.loc	32 316 46 is_stmt 0
	movq	8(%rsi), %rdx
	.loc	32 316 63
	movq	16(%rsi), %rsi
	.loc	32 316 9
	movq	%rcx, (%rdi)
	movq	%rdx, 8(%rdi)
	movq	%rsi, 16(%rdi)
	.loc	32 317 6 is_stmt 1
	addq	$16, %rsp
	popq	%rbp
	retq
Ltmp832:
Lfunc_end235:
	.cfi_endproc

	.p2align	4, 0x90
__ZN5alloc11collections5btree4node40NodeRef$LT$BorrowType$C$K$C$V$C$Type$GT$9last_edge17h353fca8d2613e1bdE:
Lfunc_begin236:
	.loc	32 371 0
	.cfi_startproc
	pushq	%rbp
	.cfi_def_cfa_offset 16
	.cfi_offset %rbp, -16
	movq	%rsp, %rbp
	.cfi_def_cfa_register %rbp
	subq	$64, %rsp
	movq	%rdi, %rax
Ltmp833:
	movq	%rdi, -40(%rbp)
Ltmp834:
	.loc	32 372 19 prologue_end
	movq	%rsi, %rdi
	movq	%rsi, -48(%rbp)
Ltmp835:
	.loc	32 0 19 is_stmt 0
	movq	%rax, -56(%rbp)
	.loc	32 372 19
	callq	__ZN5alloc11collections5btree4node40NodeRef$LT$BorrowType$C$K$C$V$C$Type$GT$3len17hea74c7f868b5bd24E
	movq	%rax, -8(%rbp)
	movq	%rax, -64(%rbp)
Ltmp836:
	.loc	32 0 19
	movq	-48(%rbp), %rax
Ltmp837:
	.loc	32 373 35 is_stmt 1
	movq	(%rax), %rcx
	movq	%rcx, -32(%rbp)
	movq	8(%rax), %rcx
	movq	%rcx, -24(%rbp)
	movq	16(%rax), %rcx
	movq	%rcx, -16(%rbp)
	movq	-40(%rbp), %rdi
	.loc	32 373 18 is_stmt 0
	leaq	-32(%rbp), %rsi
	movq	-64(%rbp), %rdx
	callq	__ZN5alloc11collections5btree4node139Handle$LT$alloc..collections..btree..node..NodeRef$LT$BorrowType$C$K$C$V$C$NodeType$GT$$C$alloc..collections..btree..node..marker..Edge$GT$8new_edge17hdc9fc586d37af338E
Ltmp838:
	.loc	32 0 18
	movq	-56(%rbp), %rax
	.loc	32 374 6 is_stmt 1
	addq	$64, %rsp
	popq	%rbp
	retq
Ltmp839:
Lfunc_end236:
	.cfi_endproc

	.p2align	4, 0x90
__ZN5alloc11collections5btree4node76NodeRef$LT$alloc..collections..btree..node..marker..Immut$C$K$C$V$C$Type$GT$11into_slices17hffacbcdf4c6ea2e1E:
Lfunc_begin237:
	.loc	32 470 0
	.cfi_startproc
	pushq	%rbp
	.cfi_def_cfa_offset 16
	.cfi_offset %rbp, -16
	movq	%rsp, %rbp
	.cfi_def_cfa_register %rbp
	subq	$128, %rsp
	movq	%rdi, %rax
Ltmp840:
	.loc	32 472 26 prologue_end
	leaq	-72(%rbp), %rcx
Ltmp841:
	.loc	32 0 26 is_stmt 0
	movq	%rdi, -80(%rbp)
	.loc	32 472 26
	movq	%rcx, %rdi
	movq	%rsi, -88(%rbp)
Ltmp842:
	.loc	32 0 26
	movq	%rax, -96(%rbp)
	.loc	32 472 26
	callq	__ZN4core3ptr4read17hd69d215e8b91fe2dE
Ltmp843:
	.loc	32 473 10 is_stmt 1
	movq	-72(%rbp), %rax
	movq	%rax, -48(%rbp)
	movq	-64(%rbp), %rax
	movq	%rax, -40(%rbp)
	movq	-56(%rbp), %rax
	movq	%rax, -32(%rbp)
	leaq	-48(%rbp), %rdi
	callq	__ZN5alloc11collections5btree4node76NodeRef$LT$alloc..collections..btree..node..marker..Immut$C$K$C$V$C$Type$GT$14into_key_slice17hd3ebb0cc19838251E
	movq	%rax, -104(%rbp)
	movq	%rdx, -112(%rbp)
Ltmp844:
	.loc	32 0 10 is_stmt 0
	movq	-88(%rbp), %rax
	.loc	32 473 30
	movq	(%rax), %rcx
	movq	%rcx, -24(%rbp)
	movq	8(%rax), %rcx
	movq	%rcx, -16(%rbp)
	movq	16(%rax), %rcx
	movq	%rcx, -8(%rbp)
	leaq	-24(%rbp), %rdi
	callq	__ZN5alloc11collections5btree4node76NodeRef$LT$alloc..collections..btree..node..marker..Immut$C$K$C$V$C$Type$GT$14into_val_slice17h876b6e2ed1cea680E
	movq	%rax, -120(%rbp)
	movq	%rdx, -128(%rbp)
Ltmp845:
	.loc	32 0 30
	movq	-80(%rbp), %rax
	movq	-104(%rbp), %rcx
	.loc	32 473 9
	movq	%rcx, (%rax)
	movq	-112(%rbp), %rdx
	movq	%rdx, 8(%rax)
	movq	-120(%rbp), %rsi
	movq	%rsi, 16(%rax)
	movq	-128(%rbp), %rdi
	movq	%rdi, 24(%rax)
	movq	-96(%rbp), %rax
Ltmp846:
	.loc	32 474 6 is_stmt 1
	addq	$128, %rsp
	popq	%rbp
	retq
Ltmp847:
Lfunc_end237:
	.cfi_endproc

	.p2align	4, 0x90
__ZN5alloc11collections5btree4node76NodeRef$LT$alloc..collections..btree..node..marker..Immut$C$K$C$V$C$Type$GT$14into_key_slice17hd3ebb0cc19838251E:
Lfunc_begin238:
	.loc	32 462 0
	.cfi_startproc
	pushq	%rbp
	.cfi_def_cfa_offset 16
	.cfi_offset %rbp, -16
	movq	%rsp, %rbp
	.cfi_def_cfa_register %rbp
	subq	$64, %rsp
	movq	%rdi, -24(%rbp)
Ltmp848:
	.loc	32 463 64 prologue_end
	callq	__ZN5alloc11collections5btree4node40NodeRef$LT$BorrowType$C$K$C$V$C$Type$GT$7as_leaf17hbc9c74093c539289E
	movq	%rax, -32(%rbp)
Ltmp849:
	.loc	32 0 64 is_stmt 0
	movq	-32(%rbp), %rax
	.loc	32 463 63
	addq	$16, %rax
	movq	%rax, -16(%rbp)
	movq	$11, -8(%rbp)
	movq	%rax, -40(%rbp)
Ltmp850:
	.loc	32 0 63
	movq	-24(%rbp), %rdi
	.loc	32 463 86
	callq	__ZN5alloc11collections5btree4node40NodeRef$LT$BorrowType$C$K$C$V$C$Type$GT$3len17h303d9e3ac24d7fbcE
	movq	%rax, -48(%rbp)
Ltmp851:
	.loc	32 0 86
	movq	-40(%rbp), %rdi
	movq	-48(%rbp), %rsi
	.loc	32 463 18
	callq	__ZN4core5slice14from_raw_parts17hfda219bae55af339E
	movq	%rax, -56(%rbp)
	movq	%rdx, -64(%rbp)
Ltmp852:
	.loc	32 0 18
	movq	-56(%rbp), %rax
	movq	-64(%rbp), %rdx
	.loc	32 464 6 is_stmt 1
	addq	$64, %rsp
	popq	%rbp
	retq
Ltmp853:
Lfunc_end238:
	.cfi_endproc

	.p2align	4, 0x90
__ZN5alloc11collections5btree4node76NodeRef$LT$alloc..collections..btree..node..marker..Immut$C$K$C$V$C$Type$GT$14into_val_slice17h876b6e2ed1cea680E:
Lfunc_begin239:
	.loc	32 466 0
	.cfi_startproc
	pushq	%rbp
	.cfi_def_cfa_offset 16
	.cfi_offset %rbp, -16
	movq	%rsp, %rbp
	.cfi_def_cfa_register %rbp
	subq	$64, %rsp
	movq	%rdi, -24(%rbp)
Ltmp854:
	.loc	32 467 64 prologue_end
	callq	__ZN5alloc11collections5btree4node40NodeRef$LT$BorrowType$C$K$C$V$C$Type$GT$7as_leaf17hbc9c74093c539289E
	movq	%rax, -32(%rbp)
Ltmp855:
	.loc	32 0 64 is_stmt 0
	movq	-32(%rbp), %rax
	.loc	32 467 63
	addq	$280, %rax
	movq	%rax, -16(%rbp)
	movq	$11, -8(%rbp)
	movq	%rax, -40(%rbp)
Ltmp856:
	.loc	32 0 63
	movq	-24(%rbp), %rdi
	.loc	32 467 86
	callq	__ZN5alloc11collections5btree4node40NodeRef$LT$BorrowType$C$K$C$V$C$Type$GT$3len17h303d9e3ac24d7fbcE
	movq	%rax, -48(%rbp)
Ltmp857:
	.loc	32 0 86
	movq	-40(%rbp), %rdi
	movq	-48(%rbp), %rsi
	.loc	32 467 18
	callq	__ZN4core5slice14from_raw_parts17h3e26650b1ed47fe8E
	movq	%rax, -56(%rbp)
	movq	%rdx, -64(%rbp)
Ltmp858:
	.loc	32 0 18
	movq	-56(%rbp), %rax
	movq	-64(%rbp), %rdx
	.loc	32 468 6 is_stmt 1
	addq	$64, %rsp
	popq	%rbp
	retq
Ltmp859:
Lfunc_end239:
	.cfi_endproc

	.p2align	4, 0x90
__ZN5alloc11collections5btree4node85NodeRef$LT$BorrowType$C$K$C$V$C$alloc..collections..btree..node..marker..Internal$GT$11as_internal17hee9c712bc71f278dE:
Lfunc_begin240:
	.loc	32 281 0
	.cfi_startproc
	pushq	%rbp
	.cfi_def_cfa_offset 16
	.cfi_offset %rbp, -16
	movq	%rsp, %rbp
	.cfi_def_cfa_register %rbp
	subq	$16, %rsp
	movq	%rdi, -8(%rbp)
Ltmp860:
	.loc	32 282 21 prologue_end
	movq	8(%rdi), %rdi
	callq	__ZN4core3ptr8non_null16NonNull$LT$T$GT$6as_ptr17hbdbb2c25f4759b88E
	movq	%rax, -16(%rbp)
	.loc	32 0 21 is_stmt 0
	movq	-16(%rbp), %rax
	.loc	32 283 6 is_stmt 1
	addq	$16, %rsp
	popq	%rbp
	retq
Ltmp861:
Lfunc_end240:
	.cfi_endproc

	.p2align	4, 0x90
__ZN5alloc11collections5btree4node91NodeRef$LT$BorrowType$C$K$C$V$C$alloc..collections..btree..node..marker..LeafOrInternal$GT$5force17h3e0da1e1b30826f6E:
Lfunc_begin241:
	.loc	32 684 0
	.cfi_startproc
	pushq	%rbp
	.cfi_def_cfa_offset 16
	.cfi_offset %rbp, -16
	movq	%rsp, %rbp
	.cfi_def_cfa_register %rbp
	subq	$88, %rsp
	movq	%rdi, %rax
Ltmp862:
	.loc	32 690 12 prologue_end
	cmpq	$0, (%rsi)
	movq	%rsi, -72(%rbp)
Ltmp863:
	.loc	32 0 12 is_stmt 0
	movq	%rdi, -80(%rbp)
	movq	%rax, -88(%rbp)
	.loc	32 690 9
	je	LBB241_2
Ltmp864:
	.loc	32 0 9
	movq	-72(%rbp), %rax
	.loc	32 699 25 is_stmt 1
	movq	(%rax), %rcx
	.loc	32 700 23
	movq	8(%rax), %rdx
	.loc	32 701 23
	movq	16(%rax), %rsi
	.loc	32 698 35
	movq	%rcx, -32(%rbp)
	movq	%rdx, -24(%rbp)
	movq	%rsi, -16(%rbp)
	.loc	32 698 13 is_stmt 0
	movq	-32(%rbp), %rcx
	movq	-80(%rbp), %rdx
	movq	%rcx, 8(%rdx)
	movq	-24(%rbp), %rcx
	movq	%rcx, 16(%rdx)
	movq	-16(%rbp), %rcx
	movq	%rcx, 24(%rdx)
	movq	$1, (%rdx)
	.loc	32 690 9 is_stmt 1
	jmp	LBB241_3
Ltmp865:
LBB241_2:
	.loc	32 0 9 is_stmt 0
	movq	-72(%rbp), %rax
	.loc	32 692 25 is_stmt 1
	movq	(%rax), %rcx
	.loc	32 693 23
	movq	8(%rax), %rdx
	.loc	32 694 23
	movq	16(%rax), %rsi
	.loc	32 691 31
	movq	%rcx, -64(%rbp)
	movq	%rdx, -56(%rbp)
	movq	%rsi, -48(%rbp)
	.loc	32 691 13 is_stmt 0
	movq	-64(%rbp), %rcx
	movq	-80(%rbp), %rdx
	movq	%rcx, 8(%rdx)
	movq	-56(%rbp), %rcx
	movq	%rcx, 16(%rdx)
	movq	-48(%rbp), %rcx
	movq	%rcx, 24(%rdx)
	movq	$0, (%rdx)
Ltmp866:
LBB241_3:
	.loc	32 0 13
	movq	-88(%rbp), %rax
	.loc	32 705 6 is_stmt 1
	addq	$88, %rsp
	popq	%rbp
	retq
Ltmp867:
Lfunc_end241:
	.cfi_endproc

	.p2align	4, 0x90
__ZN5alloc11collections5btree8navigate142_$LT$impl$u20$alloc..collections..btree..node..NodeRef$LT$BorrowType$C$K$C$V$C$alloc..collections..btree..node..marker..LeafOrInternal$GT$$GT$15first_leaf_edge17h3e21223067bb8828E:
Lfunc_begin242:
	.file	33 "/rustc/6c8927b0cf80ceee19386026cf9d7fd4fd9d486f/src/liballoc/collections/btree/navigate.rs"
	.loc	33 213 0
	.cfi_startproc
	pushq	%rbp
	.cfi_def_cfa_offset 16
	.cfi_offset %rbp, -16
	movq	%rsp, %rbp
	.cfi_def_cfa_register %rbp
	subq	$256, %rsp
	movq	%rdi, %rax
Ltmp868:
	.loc	33 214 24 prologue_end
	movq	(%rsi), %rcx
	movq	%rcx, -232(%rbp)
	movq	8(%rsi), %rcx
	movq	%rcx, -224(%rbp)
	movq	16(%rsi), %rcx
	movq	%rcx, -216(%rbp)
	movq	%rdi, -240(%rbp)
	movq	%rax, -248(%rbp)
Ltmp869:
LBB242_1:
	.loc	33 216 19
	movq	-232(%rbp), %rax
	movq	%rax, -176(%rbp)
	movq	-224(%rbp), %rax
	movq	%rax, -168(%rbp)
	movq	-216(%rbp), %rax
	movq	%rax, -160(%rbp)
	leaq	-208(%rbp), %rdi
	leaq	-176(%rbp), %rsi
	callq	__ZN5alloc11collections5btree4node91NodeRef$LT$BorrowType$C$K$C$V$C$alloc..collections..btree..node..marker..LeafOrInternal$GT$5force17h3e0da1e1b30826f6E
	.loc	33 217 17
	movq	-208(%rbp), %rax
	testq	%rax, %rax
	je	LBB242_5
	jmp	LBB242_9
LBB242_9:
	.loc	33 218 26
	movq	-200(%rbp), %rax
	movq	%rax, -104(%rbp)
	movq	-192(%rbp), %rax
	movq	%rax, -96(%rbp)
	movq	-184(%rbp), %rax
	movq	%rax, -88(%rbp)
Ltmp870:
	.loc	33 218 46 is_stmt 0
	movq	-104(%rbp), %rax
	movq	%rax, -24(%rbp)
	movq	-96(%rbp), %rax
	movq	%rax, -16(%rbp)
	movq	-88(%rbp), %rax
	movq	%rax, -8(%rbp)
	leaq	-56(%rbp), %rdi
	leaq	-24(%rbp), %rsi
	callq	__ZN5alloc11collections5btree4node40NodeRef$LT$BorrowType$C$K$C$V$C$Type$GT$10first_edge17h581e8efe53ba3652E
	jmp	LBB242_7
Ltmp871:
	.loc	33 216 19 is_stmt 1
	ud2
LBB242_5:
	.loc	33 217 22
	movq	-200(%rbp), %rax
	movq	%rax, -152(%rbp)
	movq	-192(%rbp), %rax
	movq	%rax, -144(%rbp)
	movq	-184(%rbp), %rax
	movq	%rax, -136(%rbp)
Ltmp872:
	.loc	33 217 38 is_stmt 0
	movq	-152(%rbp), %rax
	movq	%rax, -128(%rbp)
	movq	-144(%rbp), %rax
	movq	%rax, -120(%rbp)
	movq	-136(%rbp), %rax
	movq	%rax, -112(%rbp)
	movq	-240(%rbp), %rdi
	leaq	-128(%rbp), %rsi
	callq	__ZN5alloc11collections5btree4node40NodeRef$LT$BorrowType$C$K$C$V$C$Type$GT$10first_edge17h6b891c1062a68aeeE
Ltmp873:
	.loc	33 0 38
	movq	-248(%rbp), %rax
	.loc	33 221 6 is_stmt 1
	addq	$256, %rsp
	popq	%rbp
	retq
LBB242_7:
Ltmp874:
	.loc	33 218 46
	leaq	-80(%rbp), %rdi
	leaq	-56(%rbp), %rsi
	callq	__ZN5alloc11collections5btree4node180Handle$LT$alloc..collections..btree..node..NodeRef$LT$BorrowType$C$K$C$V$C$alloc..collections..btree..node..marker..Internal$GT$$C$alloc..collections..btree..node..marker..Edge$GT$7descend17h0a3dfcc1458b3f31E
	.loc	33 218 39 is_stmt 0
	movq	-80(%rbp), %rax
	movq	%rax, -232(%rbp)
	movq	-72(%rbp), %rax
	movq	%rax, -224(%rbp)
	movq	-64(%rbp), %rax
	movq	%rax, -216(%rbp)
Ltmp875:
	.loc	33 215 9 is_stmt 1
	jmp	LBB242_1
Ltmp876:
Lfunc_end242:
	.cfi_endproc

	.p2align	4, 0x90
__ZN5alloc11collections5btree8navigate235_$LT$impl$u20$alloc..collections..btree..node..Handle$LT$alloc..collections..btree..node..NodeRef$LT$BorrowType$C$K$C$V$C$alloc..collections..btree..node..marker..LeafOrInternal$GT$$C$alloc..collections..btree..node..marker..KV$GT$$GT$14next_leaf_edge17h239e669378292462E:
Lfunc_begin243:
	.loc	33 239 0
	.cfi_startproc
	pushq	%rbp
	.cfi_def_cfa_offset 16
	.cfi_offset %rbp, -16
	movq	%rsp, %rbp
	.cfi_def_cfa_register %rbp
	subq	$304, %rsp
	movq	%rdi, %rax
Ltmp877:
	.loc	33 240 15 prologue_end
	movq	(%rsi), %rcx
	movq	%rcx, -248(%rbp)
	movq	8(%rsi), %rcx
	movq	%rcx, -240(%rbp)
	movq	16(%rsi), %rcx
	movq	%rcx, -232(%rbp)
	movq	24(%rsi), %rcx
	movq	%rcx, -224(%rbp)
	leaq	-288(%rbp), %rcx
	movq	%rdi, -296(%rbp)
	movq	%rcx, %rdi
	leaq	-248(%rbp), %rsi
Ltmp878:
	.loc	33 0 15 is_stmt 0
	movq	%rax, -304(%rbp)
	.loc	33 240 15
	callq	__ZN5alloc11collections5btree4node151Handle$LT$alloc..collections..btree..node..NodeRef$LT$BorrowType$C$K$C$V$C$alloc..collections..btree..node..marker..LeafOrInternal$GT$$C$HandleType$GT$5force17h5f7fd6c1ae549051E
	.loc	33 241 13 is_stmt 1
	movq	-288(%rbp), %rax
	testq	%rax, %rax
	je	LBB243_4
	jmp	LBB243_10
LBB243_10:
	.loc	33 242 22
	movq	-280(%rbp), %rax
	movq	%rax, -152(%rbp)
	movq	-272(%rbp), %rax
	movq	%rax, -144(%rbp)
	movq	-264(%rbp), %rax
	movq	%rax, -136(%rbp)
	movq	-256(%rbp), %rax
	movq	%rax, -128(%rbp)
Ltmp879:
	.loc	33 243 42
	movq	-152(%rbp), %rax
	movq	%rax, -88(%rbp)
	movq	-144(%rbp), %rax
	movq	%rax, -80(%rbp)
	movq	-136(%rbp), %rax
	movq	%rax, -72(%rbp)
	movq	-128(%rbp), %rax
	movq	%rax, -64(%rbp)
	leaq	-120(%rbp), %rdi
	leaq	-88(%rbp), %rsi
	callq	__ZN5alloc11collections5btree4node137Handle$LT$alloc..collections..btree..node..NodeRef$LT$BorrowType$C$K$C$V$C$NodeType$GT$$C$alloc..collections..btree..node..marker..KV$GT$10right_edge17h10c1bccc2ab711f7E
	jmp	LBB243_6
Ltmp880:
	.loc	33 240 15
	ud2
LBB243_4:
	.loc	33 241 18
	movq	-280(%rbp), %rax
	movq	%rax, -216(%rbp)
	movq	-272(%rbp), %rax
	movq	%rax, -208(%rbp)
	movq	-264(%rbp), %rax
	movq	%rax, -200(%rbp)
	movq	-256(%rbp), %rax
	movq	%rax, -192(%rbp)
Ltmp881:
	.loc	33 241 30 is_stmt 0
	movq	-216(%rbp), %rax
	movq	%rax, -184(%rbp)
	movq	-208(%rbp), %rax
	movq	%rax, -176(%rbp)
	movq	-200(%rbp), %rax
	movq	%rax, -168(%rbp)
	movq	-192(%rbp), %rax
	movq	%rax, -160(%rbp)
	movq	-296(%rbp), %rdi
	leaq	-184(%rbp), %rsi
	callq	__ZN5alloc11collections5btree4node137Handle$LT$alloc..collections..btree..node..NodeRef$LT$BorrowType$C$K$C$V$C$NodeType$GT$$C$alloc..collections..btree..node..marker..KV$GT$10right_edge17h5c132eb8053ac23eE
Ltmp882:
	.loc	33 240 9 is_stmt 1
	jmp	LBB243_9
LBB243_6:
Ltmp883:
	.loc	33 244 17
	movq	-120(%rbp), %rax
	movq	%rax, -32(%rbp)
	movq	-112(%rbp), %rax
	movq	%rax, -24(%rbp)
	movq	-104(%rbp), %rax
	movq	%rax, -16(%rbp)
	movq	-96(%rbp), %rax
	movq	%rax, -8(%rbp)
	leaq	-56(%rbp), %rdi
	leaq	-32(%rbp), %rsi
	callq	__ZN5alloc11collections5btree4node180Handle$LT$alloc..collections..btree..node..NodeRef$LT$BorrowType$C$K$C$V$C$alloc..collections..btree..node..marker..Internal$GT$$C$alloc..collections..btree..node..marker..Edge$GT$7descend17h0a3dfcc1458b3f31E
	.loc	33 0 17 is_stmt 0
	movq	-296(%rbp), %rdi
	.loc	33 244 17
	leaq	-56(%rbp), %rsi
	callq	__ZN5alloc11collections5btree8navigate142_$LT$impl$u20$alloc..collections..btree..node..NodeRef$LT$BorrowType$C$K$C$V$C$alloc..collections..btree..node..marker..LeafOrInternal$GT$$GT$15first_leaf_edge17h3e21223067bb8828E
Ltmp884:
	.loc	33 240 9 is_stmt 1
	jmp	LBB243_9
LBB243_9:
	.loc	33 0 9 is_stmt 0
	movq	-304(%rbp), %rax
	.loc	33 247 6 is_stmt 1
	addq	$304, %rsp
	popq	%rbp
	retq
Ltmp885:
Lfunc_end243:
	.cfi_endproc

	.p2align	4, 0x90
__ZN5alloc11collections5btree8navigate25next_kv_unchecked_dealloc17h40957c60cc307c40E:
Lfunc_begin244:
	.loc	33 59 0
	.cfi_startproc
	pushq	%rbp
	.cfi_def_cfa_offset 16
	.cfi_offset %rbp, -16
	movq	%rsp, %rbp
	.cfi_def_cfa_register %rbp
	subq	$400, %rsp
	movq	%rdi, %rax
Ltmp886:
	.loc	33 62 28 prologue_end
	movq	(%rsi), %rcx
	movq	%rcx, -352(%rbp)
	movq	8(%rsi), %rcx
	movq	%rcx, -344(%rbp)
	movq	16(%rsi), %rcx
	movq	%rcx, -336(%rbp)
	movq	24(%rsi), %rcx
	movq	%rcx, -328(%rbp)
	leaq	-384(%rbp), %rcx
Ltmp887:
	.loc	33 0 28 is_stmt 0
	movq	%rdi, -392(%rbp)
Ltmp888:
	.loc	33 62 28
	movq	%rcx, %rdi
	leaq	-352(%rbp), %rsi
Ltmp889:
	.loc	33 0 28
	movq	%rax, -400(%rbp)
	.loc	33 62 28
	callq	__ZN5alloc11collections5btree4node176Handle$LT$alloc..collections..btree..node..NodeRef$LT$BorrowType$C$K$C$V$C$alloc..collections..btree..node..marker..Leaf$GT$$C$alloc..collections..btree..node..marker..Edge$GT$16forget_node_type17h83bffb6c38cde94aE
Ltmp890:
	.loc	33 63 13 is_stmt 1
	jmp	LBB244_2
LBB244_2:
	.loc	33 64 30
	movq	-384(%rbp), %rax
	movq	%rax, -248(%rbp)
	movq	-376(%rbp), %rax
	movq	%rax, -240(%rbp)
	movq	-368(%rbp), %rax
	movq	%rax, -232(%rbp)
	movq	-360(%rbp), %rax
	movq	%rax, -224(%rbp)
	leaq	-288(%rbp), %rdi
	leaq	-248(%rbp), %rsi
	callq	__ZN5alloc11collections5btree4node139Handle$LT$alloc..collections..btree..node..NodeRef$LT$BorrowType$C$K$C$V$C$NodeType$GT$$C$alloc..collections..btree..node..marker..Edge$GT$8right_kv17h12844a19c35c09a1E
	.loc	33 65 21
	movq	-288(%rbp), %rax
	testq	%rax, %rax
	je	LBB244_6
	jmp	LBB244_11
LBB244_11:
	.loc	33 66 25
	movq	-280(%rbp), %rax
	movq	%rax, -216(%rbp)
	movq	-272(%rbp), %rax
	movq	%rax, -208(%rbp)
	movq	-264(%rbp), %rax
	movq	%rax, -200(%rbp)
	movq	-256(%rbp), %rax
	movq	%rax, -192(%rbp)
Ltmp891:
	.loc	33 68 47
	movq	-216(%rbp), %rax
	movq	%rax, -128(%rbp)
	movq	-208(%rbp), %rax
	movq	%rax, -120(%rbp)
	movq	-200(%rbp), %rax
	movq	%rax, -112(%rbp)
	movq	-192(%rbp), %rax
	movq	%rax, -104(%rbp)
	leaq	-152(%rbp), %rdi
	leaq	-128(%rbp), %rsi
	callq	__ZN5alloc11collections5btree4node25Handle$LT$Node$C$Type$GT$9into_node17hc885ed0c457bb738E
	jmp	LBB244_7
Ltmp892:
	.loc	33 64 30
	ud2
LBB244_6:
	.loc	33 65 24
	movq	-280(%rbp), %rax
	movq	-392(%rbp), %rcx
	movq	%rax, (%rcx)
	movq	-272(%rbp), %rax
	movq	%rax, 8(%rcx)
	movq	-264(%rbp), %rax
	movq	%rax, 16(%rcx)
	movq	-256(%rbp), %rax
	movq	%rax, 24(%rcx)
	movq	-400(%rbp), %rax
Ltmp893:
	.loc	33 74 10
	addq	$400, %rsp
	popq	%rbp
	retq
LBB244_7:
Ltmp894:
	.loc	33 68 47
	leaq	-184(%rbp), %rdi
	leaq	-152(%rbp), %rsi
	callq	__ZN5alloc11collections5btree4node127NodeRef$LT$alloc..collections..btree..node..marker..Owned$C$K$C$V$C$alloc..collections..btree..node..marker..LeafOrInternal$GT$21deallocate_and_ascend17hac5a0a5e0c083b16E
Ltmp895:
	.loc	33 69 46
