	.section	__TEXT,__text,regular,pure_instructions
	.macosx_version_min 10, 7
	.private_extern	__ZN3std2rt10lang_start17h7d98b5f941cb8608E
	.globl	__ZN3std2rt10lang_start17h7d98b5f941cb8608E
	.p2align	4, 0x90
__ZN3std2rt10lang_start17h7d98b5f941cb8608E:
Lfunc_begin0:
	.file	1 "/rustc/a74d1862d4d87a56244958416fd05976c58ca1a8/src/libstd/rt.rs"
	.loc	1 62 0
	.cfi_startproc
	pushq	%rbp
	.cfi_def_cfa_offset 16
	.cfi_offset %rbp, -16
	movq	%rsp, %rbp
	.cfi_def_cfa_register %rbp
	subq	$16, %rsp
	movq	%rdx, %rcx
Ltmp0:
	movq	%rsi, %rdx
Ltmp1:
	.loc	1 67 26 prologue_end
	movq	%rdi, -8(%rbp)
	.loc	1 67 5 is_stmt 0
	leaq	l___unnamed_1(%rip), %rsi
	leaq	-8(%rbp), %rdi
Ltmp2:
	callq	__ZN3std2rt19lang_start_internal17hebefdaa8fd585aefE
Ltmp3:
	.loc	1 68 2 is_stmt 1
	addq	$16, %rsp
	popq	%rbp
	retq
Ltmp4:
Lfunc_end0:
	.cfi_endproc

	.p2align	4, 0x90
__ZN3std2rt10lang_start28_$u7b$$u7b$closure$u7d$$u7d$17hb85e4f311152cfd3E:
Lfunc_begin1:
	.loc	1 67 0
	.cfi_startproc
	pushq	%rbp
	.cfi_def_cfa_offset 16
	.cfi_offset %rbp, -16
	movq	%rsp, %rbp
	.cfi_def_cfa_register %rbp
Ltmp5:
	.loc	1 67 34 prologue_end
	callq	*(%rdi)
Ltmp6:
	.loc	1 67 49 is_stmt 0
	xorl	%eax, %eax
	popq	%rbp
	retq
Ltmp7:
Lfunc_end1:
	.cfi_endproc

	.p2align	4, 0x90
__ZN4core3ops8function6FnOnce40call_once$u7b$$u7b$vtable.shim$u7d$$u7d$17h4c34e230e4ca97c0E:
Lfunc_begin2:
	.file	2 "/rustc/a74d1862d4d87a56244958416fd05976c58ca1a8/src/libcore/ops/function.rs"
	.loc	2 232 0 is_stmt 1
	.cfi_startproc
	pushq	%rbp
	.cfi_def_cfa_offset 16
	.cfi_offset %rbp, -16
	movq	%rsp, %rbp
	.cfi_def_cfa_register %rbp
Ltmp8:
	.loc	1 67 34 prologue_end
	callq	*(%rdi)
Ltmp9:
	.loc	2 232 5
	xorl	%eax, %eax
	popq	%rbp
	retq
Ltmp10:
Lfunc_end2:
	.cfi_endproc

	.p2align	4, 0x90
__ZN4core3ptr13drop_in_place17h1b2413416b2b1794E:
Lfunc_begin3:
	.file	3 "/rustc/a74d1862d4d87a56244958416fd05976c58ca1a8/src/libcore/ptr/mod.rs"
	.loc	3 178 0
	.cfi_startproc
	pushq	%rbp
	.cfi_def_cfa_offset 16
	.cfi_offset %rbp, -16
	movq	%rsp, %rbp
	.cfi_def_cfa_register %rbp
	movq	%rdi, %rax
Ltmp11:
	.loc	3 178 1 prologue_end
	movq	(%rdi), %rdi
Ltmp12:
	testq	%rdi, %rdi
	je	LBB3_2
Ltmp13:
	.loc	3 178 1 is_stmt 0
	movq	8(%rax), %rsi
Ltmp14:
	.file	4 "/rustc/a74d1862d4d87a56244958416fd05976c58ca1a8/src/liballoc/raw_vec.rs"
	.loc	4 200 40 is_stmt 1
	testq	%rsi, %rsi
	.loc	4 200 9 is_stmt 0
	je	LBB3_2
Ltmp15:
	.file	5 "/rustc/a74d1862d4d87a56244958416fd05976c58ca1a8/src/liballoc/alloc.rs"
	.loc	5 102 5 is_stmt 1
	movl	$1, %edx
	popq	%rbp
	jmp	___rust_dealloc
Ltmp16:
LBB3_2:
	.loc	3 178 1
	popq	%rbp
	retq
Ltmp17:
Lfunc_end3:
	.cfi_endproc

	.p2align	4, 0x90
__ZN4core3ptr13drop_in_place17h343f3f5e96fe4576E:
Lfunc_begin4:
	.loc	3 178 0
	.cfi_startproc
	pushq	%rbp
	.cfi_def_cfa_offset 16
	.cfi_offset %rbp, -16
	movq	%rsp, %rbp
	.cfi_def_cfa_register %rbp
Ltmp18:
	.loc	3 178 1 prologue_end
	popq	%rbp
	retq
Ltmp19:
Lfunc_end4:
	.cfi_endproc

	.p2align	4, 0x90
__ZN4core3ptr13drop_in_place17h99ec01b01fc1cc6dE:
Lfunc_begin5:
	.loc	3 178 0
	.cfi_startproc
	pushq	%rbp
	.cfi_def_cfa_offset 16
	.cfi_offset %rbp, -16
	movq	%rsp, %rbp
	.cfi_def_cfa_register %rbp
	movq	%rdi, %rax
Ltmp20:
	.loc	3 178 1 prologue_end
	movq	(%rdi), %rdi
Ltmp21:
	.loc	4 532 16
	testq	%rdi, %rdi
Ltmp22:
	.loc	4 200 9
	je	LBB5_2
Ltmp23:
	.loc	3 0 0 is_stmt 0
	movq	8(%rax), %rsi
Ltmp24:
	.loc	4 200 9
	testq	%rsi, %rsi
	je	LBB5_2
Ltmp25:
	.loc	5 102 5 is_stmt 1
	movl	$1, %edx
	popq	%rbp
	jmp	___rust_dealloc
Ltmp26:
LBB5_2:
	.loc	3 178 1
	popq	%rbp
	retq
Ltmp27:
Lfunc_end5:
	.cfi_endproc

	.p2align	4, 0x90
__ZN4core3str6traits105_$LT$impl$u20$core..slice..SliceIndex$LT$str$GT$$u20$for$u20$core..ops..range..RangeFrom$LT$usize$GT$$GT$5index28_$u7b$$u7b$closure$u7d$$u7d$17h9d52ec4873c735e4E:
Lfunc_begin6:
	.file	6 "/rustc/a74d1862d4d87a56244958416fd05976c58ca1a8/src/libcore/str/mod.rs"
	.loc	6 2052 0
	.cfi_startproc
	pushq	%rbp
	.cfi_def_cfa_offset 16
	.cfi_offset %rbp, -16
	movq	%rsp, %rbp
	.cfi_def_cfa_register %rbp
Ltmp28:
	.loc	6 2052 71 prologue_end
	movq	(%rdi), %rcx
	.loc	6 2052 78 is_stmt 0
	movq	8(%rdi), %rdx
	.loc	6 2052 71
	movq	(%rcx), %rax
	movq	8(%rcx), %rsi
	.loc	6 2052 78
	movq	(%rdx), %rdx
	.loc	6 2052 85
	movq	16(%rdi), %rcx
	movq	(%rcx), %rcx
	.loc	6 2052 47
	leaq	l___unnamed_3(%rip), %r8
	movq	%rax, %rdi
Ltmp29:
	callq	__ZN4core3str16slice_error_fail17h6b29707aec812690E
Ltmp30:
Lfunc_end6:
	.cfi_endproc

	.p2align	4, 0x90
__ZN18build_script_build4main17h5c748819cd578510E:
Lfunc_begin7:
	.file	7 "/Users/yingyuhang/.cargo/registry/src/github.com-1ecc6299db9ec823/packed_simd-0.3.3/build.rs"
	.loc	7 1 0 is_stmt 1
	.cfi_startproc
	.cfi_personality 155, _rust_eh_personality
	.cfi_lsda 16, Lexception0
	pushq	%rbp
	.cfi_def_cfa_offset 16
	.cfi_offset %rbp, -16
	movq	%rsp, %rbp
	.cfi_def_cfa_register %rbp
Ltmp53:
	pushq	%r15
	pushq	%r14
	pushq	%r13
	pushq	%r12
	pushq	%rbx
	subq	$216, %rsp
	.cfi_offset %rbx, -56
	.cfi_offset %r12, -48
	.cfi_offset %r13, -40
	.cfi_offset %r14, -32
	.cfi_offset %r15, -24
Ltmp54:
	.file	8 "/rustc/a74d1862d4d87a56244958416fd05976c58ca1a8/src/libstd/env.rs"
	.loc	8 212 5 prologue_end
	leaq	l___unnamed_4(%rip), %rsi
	leaq	-192(%rbp), %rdi
	movl	$6, %edx
	callq	__ZN3std3env4_var17heb54e5eb7997d7b3E
Ltmp55:
	.file	9 "/rustc/a74d1862d4d87a56244958416fd05976c58ca1a8/src/libcore/result.rs"
	.loc	9 962 13
	cmpq	$1, -192(%rbp)
Ltmp56:
	je	LBB7_1
Ltmp57:
	.loc	9 962 16 is_stmt 0
	movq	-168(%rbp), %rdx
	movq	%rdx, -224(%rbp)
	movq	-184(%rbp), %r14
Ltmp58:
	movq	-176(%rbp), %rax
	movq	%rax, -232(%rbp)
	movq	%r14, -240(%rbp)
Ltmp59:
Ltmp31:
	.file	10 "/rustc/a74d1862d4d87a56244958416fd05976c58ca1a8/src/libcore/str/pattern.rs"
	.loc	10 830 9 is_stmt 1
	leaq	L___unnamed_5(%rip), %rcx
Ltmp60:
	.loc	10 0 9 is_stmt 0
	leaq	-192(%rbp), %rdi
	.loc	10 830 9
	movl	$4, %r8d
	movq	%r14, %rsi
	callq	__ZN4core3str7pattern11StrSearcher3new17hf20175b25b057116E
Ltmp61:
Ltmp32:
	.loc	10 977 13 is_stmt 1
	cmpq	$1, -160(%rbp)
	jne	LBB7_6
Ltmp62:
	.loc	10 985 31
	movq	-104(%rbp), %r10
Ltmp63:
	.loc	10 0 0 is_stmt 0
	movq	-168(%rbp), %rsi
Ltmp64:
	leaq	-1(%rsi), %rax
	movq	%rax, -64(%rbp)
	movq	-192(%rbp), %r13
Ltmp65:
	movq	-184(%rbp), %r8
Ltmp66:
	movq	-176(%rbp), %r9
Ltmp67:
	movq	-120(%rbp), %rbx
	leaq	-1(%rsi,%rbx), %rcx
Ltmp68:
	.loc	10 985 31
	cmpq	$-1, %r10
Ltmp69:
	.loc	10 988 17 is_stmt 1
	je	LBB7_37
Ltmp70:
	.loc	10 0 0 is_stmt 0
	cmpq	%r8, %rcx
Ltmp71:
	.loc	10 1271 17 is_stmt 1
	jae	LBB7_80
Ltmp72:
	.loc	10 0 0 is_stmt 0
	movq	-128(%rbp), %r11
	movq	-152(%rbp), %r15
Ltmp73:
	movq	-136(%rbp), %rax
	movq	%rsi, %rdx
	movq	%rax, -48(%rbp)
	subq	%rax, %rdx
	movq	%rdx, -200(%rbp)
	movq	%r15, %rax
	negq	%rax
	movq	%rax, -56(%rbp)
Ltmp74:
	.loc	10 1250 9 is_stmt 1
	movzbl	(%r13,%rcx), %eax
	btq	%rax, %r11
Ltmp75:
	.loc	10 1283 13
	jb	LBB7_61
Ltmp76:
	.p2align	4, 0x90
LBB7_60:
	.loc	10 1284 17
	addq	%rsi, %rbx
	xorl	%r10d, %r10d
	movq	-64(%rbp), %rax
Ltmp77:
	.loc	10 1270 48
	leaq	(%rbx,%rax), %rcx
Ltmp78:
	.file	11 "/rustc/a74d1862d4d87a56244958416fd05976c58ca1a8/src/libcore/slice/mod.rs"
	.loc	11 2851 12
	cmpq	%r8, %rcx
Ltmp79:
	.loc	10 1271 17
	jae	LBB7_74
Ltmp80:
LBB7_59:
	.loc	10 1250 9
	movzbl	(%r13,%rcx), %eax
	btq	%rax, %r11
Ltmp81:
	.loc	10 1283 13
	jae	LBB7_60
Ltmp82:
LBB7_61:
	.file	12 "/rustc/a74d1862d4d87a56244958416fd05976c58ca1a8/src/libcore/cmp.rs"
	.loc	12 1017 9
	cmpq	%r10, %r15
	.loc	12 0 0 is_stmt 0
	movq	%r10, %rcx
	cmovaq	%r15, %rcx
Ltmp83:
	.loc	10 1294 13 is_stmt 1
	leaq	(%r9,%rcx), %rdx
	leaq	(%rbx,%rcx), %r12
Ltmp84:
	.p2align	4, 0x90
LBB7_62:
	.loc	12 1137 52
	cmpq	%rsi, %rcx
Ltmp85:
	.file	13 "/rustc/a74d1862d4d87a56244958416fd05976c58ca1a8/src/libcore/iter/range.rs"
	.loc	13 211 9
	jae	LBB7_63
Ltmp86:
	.loc	10 1295 33
	cmpq	%r8, %r12
	jae	LBB7_75
Ltmp87:
	.file	14 "/rustc/a74d1862d4d87a56244958416fd05976c58ca1a8/src/libcore/num/mod.rs"
	.loc	14 3632 30
	incq	%rcx
Ltmp88:
	.loc	10 1295 20
	movzbl	(%rdx), %eax
	.loc	10 1295 17 is_stmt 0
	incq	%rdx
	leaq	1(%r12), %rdi
	.loc	10 1295 20
	cmpb	(%r13,%r12), %al
Ltmp89:
	.loc	10 0 0
	movq	%rdi, %r12
Ltmp90:
	.loc	10 1295 17
	je	LBB7_62
Ltmp91:
	.loc	10 1297 21 is_stmt 1
	addq	-56(%rbp), %rdi
	xorl	%r10d, %r10d
Ltmp92:
	.loc	10 1270 48
	movq	%rdi, %rbx
	movq	-64(%rbp), %rax
	leaq	(%rbx,%rax), %rcx
Ltmp93:
	.loc	11 2851 12
	cmpq	%r8, %rcx
Ltmp94:
	.loc	10 1271 17
	jb	LBB7_59
	jmp	LBB7_74
Ltmp95:
	.p2align	4, 0x90
LBB7_63:
	.loc	10 0 0 is_stmt 0
	movq	%r15, %rdi
Ltmp96:
	.p2align	4, 0x90
LBB7_64:
	.loc	12 1137 52 is_stmt 1
	cmpq	%rdi, %r10
Ltmp97:
	.loc	13 282 9
	jae	LBB7_65
Ltmp98:
	.file	15 "/rustc/a74d1862d4d87a56244958416fd05976c58ca1a8/src/libcore/ops/arith.rs"
	.loc	15 194 45
	decq	%rdi
Ltmp99:
	.loc	10 1307 20
	cmpq	%rsi, %rdi
	jae	LBB7_76
Ltmp100:
	.loc	10 1307 42 is_stmt 0
	leaq	(%rdi,%rbx), %rcx
Ltmp101:
	.loc	10 1307 33
	cmpq	%r8, %rcx
	jae	LBB7_77
Ltmp102:
	.loc	10 1307 20
	movzbl	(%r9,%rdi), %eax
	cmpb	(%r13,%rcx), %al
	.loc	10 1307 17
	je	LBB7_64
Ltmp103:
	.loc	10 1308 21 is_stmt 1
	addq	-48(%rbp), %rbx
	movq	-200(%rbp), %r10
	movq	-64(%rbp), %rax
Ltmp104:
	.loc	10 1270 48
	leaq	(%rbx,%rax), %rcx
Ltmp105:
	.loc	11 2851 12
	cmpq	%r8, %rcx
Ltmp106:
	.loc	10 1271 17
	jb	LBB7_59
Ltmp107:
LBB7_74:
	.loc	10 1286 21
	movq	%r10, -104(%rbp)
Ltmp108:
	.loc	10 1308 21
	movq	%rbx, -120(%rbp)
Ltmp109:
	.loc	3 178 1
	movq	-232(%rbp), %rsi
Ltmp110:
	.loc	4 200 40
	testq	%rsi, %rsi
	.loc	4 200 9 is_stmt 0
	jne	LBB7_81
	jmp	LBB7_82
Ltmp111:
LBB7_6:
	.loc	10 933 32 is_stmt 1
	movb	-136(%rbp), %r9b
Ltmp112:
	.loc	10 935 27
	movq	-152(%rbp), %rax
Ltmp113:
	.loc	10 936 23
	movq	-192(%rbp), %r10
Ltmp114:
	movq	-184(%rbp), %rdx
Ltmp115:
	.file	16 "/rustc/a74d1862d4d87a56244958416fd05976c58ca1a8/src/libcore/ptr/const_ptr.rs"
	.loc	16 0 0 is_stmt 0
	leaq	(%r10,%rdx), %r8
	jmp	LBB7_8
Ltmp116:
	.p2align	4, 0x90
LBB7_7:
	.loc	10 940 25 is_stmt 1
	addq	%rcx, %rax
Ltmp117:
LBB7_8:
	.loc	10 933 32
	movl	%r9d, %ebx
Ltmp118:
	testb	%r9b, %r9b
	sete	%r9b
Ltmp119:
	.loc	10 0 32 is_stmt 0
	movq	%r10, -256(%rbp)
	movq	%rdx, -248(%rbp)
Ltmp120:
	.loc	6 2051 18 is_stmt 1
	movq	%rax, -208(%rbp)
	.loc	6 2051 25 is_stmt 0
	movq	%rdx, -216(%rbp)
Ltmp121:
	.loc	6 2303 12 is_stmt 1
	testq	%rax, %rax
	je	LBB7_13
Ltmp122:
	cmpq	%rax, %rdx
	je	LBB7_13
Ltmp123:
	.loc	6 2307 13
	jbe	LBB7_12
Ltmp124:
	.loc	6 2309 25
	cmpb	$-65, (%r10,%rax)
Ltmp125:
	.loc	6 2021 13
	jle	LBB7_12
Ltmp126:
LBB7_13:
	.loc	6 0 13 is_stmt 0
	movl	$1114112, %esi
Ltmp127:
	.loc	6 2303 26 is_stmt 1
	cmpq	%rax, %rdx
Ltmp128:
	.loc	11 3303 21
	je	LBB7_31
Ltmp129:
	.loc	10 0 0 is_stmt 0
	leaq	(%r10,%rax), %rcx
Ltmp130:
	.loc	6 519 13 is_stmt 1
	movzbl	(%rcx), %esi
Ltmp131:
	.loc	6 520 8
	testb	%sil, %sil
	.loc	6 520 5 is_stmt 0
	jns	LBB7_31
Ltmp132:
	.loc	6 0 0
	leaq	1(%rcx), %rdi
Ltmp133:
	.loc	11 3179 9 is_stmt 1
	cmpq	%r8, %rdi
	.loc	11 3303 21
	je	LBB7_16
Ltmp134:
	.loc	6 508 15
	movzbl	1(%rcx), %edi
Ltmp135:
	.file	17 "/rustc/a74d1862d4d87a56244958416fd05976c58ca1a8/src/libcore/ptr/mut_ptr.rs"
	.loc	17 152 9
	addq	$2, %rcx
Ltmp136:
	.loc	6 507 5
	andl	$63, %edi
Ltmp137:
	.loc	6 0 0 is_stmt 0
	movl	%esi, %r11d
	andl	$31, %r11d
Ltmp138:
	.loc	6 530 8 is_stmt 1
	cmpb	$-33, %sil
	.loc	6 530 5 is_stmt 0
	jbe	LBB7_19
Ltmp139:
LBB7_21:
	.loc	11 3179 9 is_stmt 1
	cmpq	%r8, %rcx
	.loc	11 3303 21
	je	LBB7_22
Ltmp140:
	.loc	6 508 15
	movzbl	(%rcx), %r15d
Ltmp141:
	.loc	17 152 9
	incq	%rcx
Ltmp142:
	.loc	6 507 5
	andl	$63, %r15d
Ltmp143:
	.loc	6 495 5
	shll	$6, %edi
	orl	%r15d, %edi
Ltmp144:
	.loc	6 536 12
	cmpb	$-16, %sil
	.loc	6 536 9 is_stmt 0
	jb	LBB7_25
Ltmp145:
LBB7_26:
	.loc	11 3179 9 is_stmt 1
	cmpq	%r8, %rcx
	.loc	11 3303 21
	je	LBB7_27
Ltmp146:
	.loc	6 508 15
	movzbl	(%rcx), %ecx
	.loc	6 507 5
	andl	$63, %ecx
	jmp	LBB7_29
Ltmp147:
LBB7_16:
	.loc	6 0 5 is_stmt 0
	xorl	%edi, %edi
	movq	%r8, %rcx
	movl	%esi, %r11d
	andl	$31, %r11d
Ltmp148:
	.loc	6 530 8 is_stmt 1
	cmpb	$-33, %sil
	.loc	6 530 5 is_stmt 0
	ja	LBB7_21
Ltmp149:
LBB7_19:
	.loc	6 0 5
	shll	$6, %r11d
Ltmp150:
	orl	%r11d, %edi
Ltmp151:
	jmp	LBB7_30
Ltmp152:
LBB7_22:
	xorl	%r15d, %r15d
	movq	%r8, %rcx
Ltmp153:
	.loc	6 495 5 is_stmt 1
	shll	$6, %edi
	orl	%r15d, %edi
Ltmp154:
	.loc	6 536 12
	cmpb	$-16, %sil
	.loc	6 536 9 is_stmt 0
	jae	LBB7_26
Ltmp155:
LBB7_25:
	.loc	6 0 9
	shll	$12, %r11d
Ltmp156:
	orl	%r11d, %edi
Ltmp157:
	jmp	LBB7_30
Ltmp158:
LBB7_27:
	xorl	%ecx, %ecx
Ltmp159:
LBB7_29:
	.loc	6 540 18 is_stmt 1
	andl	$7, %r11d
Ltmp160:
	shll	$18, %r11d
Ltmp161:
	.loc	6 495 5
	shll	$6, %edi
Ltmp162:
	orl	%r11d, %edi
Ltmp163:
	.loc	6 540 13
	orl	%ecx, %edi
Ltmp164:
LBB7_30:
	.loc	6 0 13 is_stmt 0
	movl	%edi, %esi
Ltmp165:
	.p2align	4, 0x90
LBB7_31:
	.loc	10 933 32 is_stmt 1
	testb	%bl, %bl
Ltmp166:
	.loc	10 937 26
	jne	LBB7_79
Ltmp167:
	.loc	10 938 21
	cmpl	$1114112, %esi
	je	LBB7_80
Ltmp168:
	.loc	10 0 21 is_stmt 0
	movl	$1, %ecx
Ltmp169:
	.file	18 "/rustc/a74d1862d4d87a56244958416fd05976c58ca1a8/src/libcore/char/methods.rs"
	.loc	18 360 12 is_stmt 1
	cmpl	$128, %esi
	.loc	18 360 9 is_stmt 0
	jb	LBB7_7
Ltmp170:
	.loc	18 0 9
	movl	$2, %ecx
	.loc	18 362 19 is_stmt 1
	cmpl	$2048, %esi
	.loc	18 362 16 is_stmt 0
	jb	LBB7_7
Ltmp171:
	.loc	18 364 19 is_stmt 1
	cmpl	$65536, %esi
	.loc	18 364 16 is_stmt 0
	movl	$4, %ecx
	sbbq	$0, %rcx
	jmp	LBB7_7
Ltmp172:
LBB7_37:
	.loc	10 0 0
	cmpq	%r8, %rcx
Ltmp173:
	.loc	10 1271 17 is_stmt 1
	jae	LBB7_80
Ltmp174:
	.loc	10 0 0 is_stmt 0
	movq	-128(%rbp), %r10
	movq	-152(%rbp), %rdx
Ltmp175:
	movq	-136(%rbp), %rax
	movq	%rax, -48(%rbp)
	leaq	(%r9,%rdx), %rax
	movq	%rax, -56(%rbp)
	leaq	(%r13,%rdx), %r12
	movq	%rbx, %r11
Ltmp176:
	.loc	10 1250 9 is_stmt 1
	movzbl	(%r13,%rcx), %ecx
	btq	%rcx, %r10
Ltmp177:
	.loc	10 1283 13
	jb	LBB7_40
Ltmp178:
LBB7_50:
	.loc	10 1284 17
	addq	%rsi, %r11
Ltmp179:
LBB7_51:
	.loc	10 1270 48
	movq	%r11, %rbx
Ltmp180:
LBB7_52:
	.loc	10 0 48 is_stmt 0
	movq	-64(%rbp), %rax
	.loc	10 1270 48
	leaq	(%rbx,%rax), %rcx
Ltmp181:
	.loc	11 2851 12 is_stmt 1
	cmpq	%r8, %rcx
Ltmp182:
	.loc	10 1271 17
	jae	LBB7_53
Ltmp183:
	.loc	10 0 17 is_stmt 0
	movq	%rbx, %r11
Ltmp184:
	.loc	10 1250 9 is_stmt 1
	movzbl	(%r13,%rcx), %ecx
	btq	%rcx, %r10
Ltmp185:
	.loc	10 1283 13
	jae	LBB7_50
Ltmp186:
LBB7_40:
	.loc	10 0 0 is_stmt 0
	xorl	%ecx, %ecx
	movq	%r11, %rbx
	movq	-56(%rbp), %r15
Ltmp187:
	.p2align	4, 0x90
LBB7_41:
	leaq	(%rdx,%rcx), %rdi
Ltmp188:
	.loc	12 1137 52 is_stmt 1
	cmpq	%rsi, %rdi
Ltmp189:
	.loc	13 211 9
	jae	LBB7_42
Ltmp190:
	.loc	10 1295 33
	leaq	(%rdx,%rbx), %rdi
	cmpq	%r8, %rdi
	jae	LBB7_54
Ltmp191:
	.loc	10 1295 20 is_stmt 0
	movzbl	(%r15), %eax
	.loc	10 1295 17
	incq	%r15
	incq	%rcx
	.loc	10 1295 20
	cmpb	(%r12,%rbx), %al
	.loc	10 1295 17
	leaq	1(%rbx), %rbx
	je	LBB7_41
	jmp	LBB7_52
Ltmp192:
LBB7_42:
	.loc	10 0 0
	movq	%rdx, %rdi
Ltmp193:
	.p2align	4, 0x90
LBB7_43:
	.loc	12 1137 52 is_stmt 1
	testq	%rdi, %rdi
Ltmp194:
	.loc	13 282 9
	je	LBB7_78
Ltmp195:
	.loc	15 194 45
	decq	%rdi
Ltmp196:
	.loc	10 1307 20
	cmpq	%rsi, %rdi
	jae	LBB7_55
Ltmp197:
	.loc	10 1307 42 is_stmt 0
	leaq	(%rdi,%r11), %rcx
	.loc	10 1307 33
	cmpq	%r8, %rcx
	jae	LBB7_56
Ltmp198:
	.loc	10 1307 20
	movzbl	(%r9,%rdi), %ebx
	cmpb	(%r13,%rcx), %bl
	.loc	10 1307 17
	je	LBB7_43
Ltmp199:
	.loc	10 1308 21 is_stmt 1
	addq	-48(%rbp), %r11
	jmp	LBB7_51
Ltmp200:
LBB7_65:
	.loc	10 1320 13
	addq	%rsi, %rbx
	movq	%rbx, -120(%rbp)
	.loc	10 1322 17
	movq	$0, -104(%rbp)
	jmp	LBB7_79
Ltmp201:
LBB7_78:
	.loc	10 1320 13
	addq	%rsi, %r11
	movq	%r11, -120(%rbp)
Ltmp202:
LBB7_79:
	.file	19 "/rustc/a74d1862d4d87a56244958416fd05976c58ca1a8/src/libcore/fmt/mod.rs"
	.loc	19 328 9
	leaq	l___unnamed_6(%rip), %rax
Ltmp203:
	movq	%rax, -192(%rbp)
	movq	$1, -184(%rbp)
	movq	$0, -176(%rbp)
	leaq	l___unnamed_7(%rip), %rax
Ltmp204:
	movq	%rax, -160(%rbp)
	movq	$0, -152(%rbp)
Ltmp45:
	leaq	-192(%rbp), %rdi
Ltmp205:
	.loc	7 5 9
	callq	__ZN3std2io5stdio6_print17hdea2154009b9e479E
Ltmp206:
Ltmp46:
LBB7_80:
	.loc	3 178 1
	movq	-232(%rbp), %rsi
Ltmp207:
	.loc	4 200 40
	testq	%rsi, %rsi
	.loc	4 200 9 is_stmt 0
	je	LBB7_82
Ltmp208:
LBB7_81:
	.loc	5 102 5 is_stmt 1
	movl	$1, %edx
	movq	%r14, %rdi
	callq	___rust_dealloc
Ltmp209:
LBB7_82:
	.loc	7 7 2
	addq	$216, %rsp
	popq	%rbx
	popq	%r12
	popq	%r13
	popq	%r14
	popq	%r15
	popq	%rbp
	retq
LBB7_53:
Ltmp210:
	.loc	10 1284 17
	movq	%rbx, -120(%rbp)
Ltmp211:
	.loc	3 178 1
	movq	-232(%rbp), %rsi
Ltmp212:
	.loc	4 200 40
	testq	%rsi, %rsi
	.loc	4 200 9 is_stmt 0
	jne	LBB7_81
	jmp	LBB7_82
Ltmp213:
LBB7_75:
Ltmp39:
	.loc	10 1295 33 is_stmt 1
	leaq	l___unnamed_8(%rip), %rdx
	movq	%r12, %rdi
	movq	%r8, %rsi
Ltmp214:
	callq	__ZN4core9panicking18panic_bounds_check17habe69d236c55e3edE
Ltmp215:
Ltmp40:
	.loc	10 0 33 is_stmt 0
	jmp	LBB7_2
Ltmp216:
LBB7_12:
	leaq	-256(%rbp), %rax
Ltmp217:
	.file	20 "/rustc/a74d1862d4d87a56244958416fd05976c58ca1a8/src/libcore/option.rs"
	.loc	20 430 21 is_stmt 1
	movq	%rax, -88(%rbp)
	leaq	-208(%rbp), %rax
	movq	%rax, -80(%rbp)
	leaq	-216(%rbp), %rax
	movq	%rax, -72(%rbp)
Ltmp33:
	leaq	-88(%rbp), %rdi
	callq	__ZN4core3str6traits105_$LT$impl$u20$core..slice..SliceIndex$LT$str$GT$$u20$for$u20$core..ops..range..RangeFrom$LT$usize$GT$$GT$5index28_$u7b$$u7b$closure$u7d$$u7d$17h9d52ec4873c735e4E
Ltmp218:
Ltmp34:
	.loc	20 0 21 is_stmt 0
	jmp	LBB7_2
Ltmp219:
LBB7_54:
Ltmp47:
	.loc	10 1295 33 is_stmt 1
	leaq	l___unnamed_8(%rip), %rdx
	movq	%r8, %rsi
Ltmp220:
	callq	__ZN4core9panicking18panic_bounds_check17habe69d236c55e3edE
Ltmp221:
Ltmp48:
	.loc	10 0 33 is_stmt 0
	jmp	LBB7_2
Ltmp222:
LBB7_76:
Ltmp35:
	.loc	10 1307 20 is_stmt 1
	leaq	l___unnamed_9(%rip), %rdx
	callq	__ZN4core9panicking18panic_bounds_check17habe69d236c55e3edE
Ltmp223:
Ltmp36:
	.loc	10 0 20 is_stmt 0
	jmp	LBB7_2
Ltmp224:
LBB7_77:
Ltmp37:
	.loc	10 1307 33
	leaq	l___unnamed_10(%rip), %rdx
	movq	%rcx, %rdi
Ltmp225:
	movq	%r8, %rsi
Ltmp226:
	callq	__ZN4core9panicking18panic_bounds_check17habe69d236c55e3edE
Ltmp227:
Ltmp38:
	.loc	10 0 33
	jmp	LBB7_2
Ltmp228:
LBB7_55:
Ltmp41:
	.loc	10 1307 20
	leaq	l___unnamed_9(%rip), %rdx
	callq	__ZN4core9panicking18panic_bounds_check17habe69d236c55e3edE
Ltmp229:
Ltmp42:
	.loc	10 0 20
	jmp	LBB7_2
Ltmp230:
LBB7_56:
Ltmp43:
	.loc	10 1307 33
	leaq	l___unnamed_10(%rip), %rdx
	movq	%rcx, %rdi
Ltmp231:
	movq	%r8, %rsi
Ltmp232:
	callq	__ZN4core9panicking18panic_bounds_check17habe69d236c55e3edE
Ltmp233:
Ltmp44:
	.loc	10 0 33
	jmp	LBB7_2
Ltmp234:
LBB7_1:
	.loc	9 963 17 is_stmt 1
	movq	-168(%rbp), %rax
	movq	%rax, -72(%rbp)
	movq	-184(%rbp), %rax
	movq	-176(%rbp), %rcx
	movq	%rcx, -80(%rbp)
	movq	%rax, -88(%rbp)
Ltmp50:
Ltmp235:
	.loc	9 963 23 is_stmt 0
	leaq	l___unnamed_11(%rip), %rdi
	leaq	l___unnamed_2(%rip), %rcx
	leaq	l___unnamed_12(%rip), %r8
	leaq	-88(%rbp), %rdx
	movl	$39, %esi
	callq	__ZN4core6result13unwrap_failed17hb5a510096a5fc85fE
Ltmp51:
Ltmp236:
LBB7_2:
	.loc	9 0 23
	ud2
LBB7_3:
Ltmp237:
Ltmp52:
	movq	%rax, %rbx
	leaq	-88(%rbp), %rdi
	.loc	9 963 45
	callq	__ZN4core3ptr13drop_in_place17h1b2413416b2b1794E
	movq	%rbx, %rdi
	callq	__Unwind_Resume
	ud2
Ltmp238:
LBB7_83:
Ltmp49:
	.loc	9 0 45
	movq	%rax, %rbx
	leaq	-240(%rbp), %rdi
	.loc	7 7 1 is_stmt 1
	callq	__ZN4core3ptr13drop_in_place17h99ec01b01fc1cc6dE
	movq	%rbx, %rdi
	callq	__Unwind_Resume
	ud2
Ltmp239:
Lfunc_end7:
	.cfi_endproc
	.file	21 "/rustc/a74d1862d4d87a56244958416fd05976c58ca1a8/src/libcore/iter/adapters/mod.rs"
	.section	__TEXT,__gcc_except_tab
	.p2align	2
GCC_except_table7:
Lexception0:
	.byte	255
	.byte	255
	.byte	1
	.uleb128 Lcst_end0-Lcst_begin0
Lcst_begin0:
	.uleb128 Lfunc_begin7-Lfunc_begin7
	.uleb128 Ltmp31-Lfunc_begin7
	.byte	0
	.byte	0
	.uleb128 Ltmp31-Lfunc_begin7
	.uleb128 Ltmp44-Ltmp31
	.uleb128 Ltmp49-Lfunc_begin7
	.byte	0
	.uleb128 Ltmp50-Lfunc_begin7
	.uleb128 Ltmp51-Ltmp50
	.uleb128 Ltmp52-Lfunc_begin7
	.byte	0
	.uleb128 Ltmp51-Lfunc_begin7
	.uleb128 Lfunc_end7-Ltmp51
	.byte	0
	.byte	0
Lcst_end0:
	.p2align	2

	.section	__TEXT,__text,regular,pure_instructions
	.globl	_main
	.p2align	4, 0x90
_main:
Lfunc_begin8:
	.cfi_startproc
	pushq	%rbp
	.cfi_def_cfa_offset 16
	.cfi_offset %rbp, -16
	movq	%rsp, %rbp
	.cfi_def_cfa_register %rbp
	subq	$16, %rsp
	movq	%rsi, %rcx
	movslq	%edi, %rdx
	leaq	__ZN18build_script_build4main17h5c748819cd578510E(%rip), %rax
	movq	%rax, -8(%rbp)
	leaq	l___unnamed_1(%rip), %rsi
	leaq	-8(%rbp), %rdi
	callq	__ZN3std2rt19lang_start_internal17hebefdaa8fd585aefE
	addq	$16, %rsp
	popq	%rbp
	retq
Lfunc_end8:
	.cfi_endproc

	.section	__DATA,__const
	.p2align	3
l___unnamed_1:
	.quad	__ZN4core3ptr13drop_in_place17h343f3f5e96fe4576E
	.quad	8
	.quad	8
	.quad	__ZN3std2rt10lang_start28_$u7b$$u7b$closure$u7d$$u7d$17hb85e4f311152cfd3E
	.quad	__ZN3std2rt10lang_start28_$u7b$$u7b$closure$u7d$$u7d$17hb85e4f311152cfd3E
	.quad	__ZN4core3ops8function6FnOnce40call_once$u7b$$u7b$vtable.shim$u7d$$u7d$17h4c34e230e4ca97c0E

	.section	__TEXT,__const
l___unnamed_13:
	.ascii	"/rustc/a74d1862d4d87a56244958416fd05976c58ca1a8/src/libcore/str/mod.rs"

	.section	__DATA,__const
	.p2align	3
l___unnamed_3:
	.quad	l___unnamed_13
	.asciz	"F\000\000\000\000\000\000\000\004\b\000\000/\000\000"

	.section	__TEXT,__const
l___unnamed_14:
	.ascii	"/rustc/a74d1862d4d87a56244958416fd05976c58ca1a8/src/libcore/str/pattern.rs"

	.section	__DATA,__const
	.p2align	3
l___unnamed_8:
	.quad	l___unnamed_14
	.asciz	"J\000\000\000\000\000\000\000\017\005\000\000!\000\000"

	.p2align	3
l___unnamed_9:
	.quad	l___unnamed_14
	.asciz	"J\000\000\000\000\000\000\000\033\005\000\000\024\000\000"

	.p2align	3
l___unnamed_10:
	.quad	l___unnamed_14
	.asciz	"J\000\000\000\000\000\000\000\033\005\000\000!\000\000"

	.p2align	3
l___unnamed_2:
	.quad	__ZN4core3ptr13drop_in_place17h1b2413416b2b1794E
	.quad	24
	.quad	8
	.quad	__ZN55_$LT$std..env..VarError$u20$as$u20$core..fmt..Debug$GT$3fmt17h4b70de487f3ab127E

	.section	__TEXT,__const
l___unnamed_4:
	.ascii	"TARGET"

l___unnamed_11:
	.ascii	"TARGET environment variable not defined"

l___unnamed_15:
	.ascii	"/Users/yingyuhang/.cargo/registry/src/github.com-1ecc6299db9ec823/packed_simd-0.3.3/build.rs"

	.section	__DATA,__const
	.p2align	3
l___unnamed_12:
	.quad	l___unnamed_15
	.asciz	"\\\000\000\000\000\000\000\000\002\000\000\000\022\000\000"

	.section	__TEXT,__literal4,4byte_literals
L___unnamed_5:
	.ascii	"neon"

	.section	__TEXT,__const
l___unnamed_16:
	.ascii	"cargo:rustc-cfg=libcore_neon\n"

	.section	__DATA,__const
	.p2align	3
l___unnamed_6:
	.quad	l___unnamed_16
	.asciz	"\035\000\000\000\000\000\000"

	.section	__TEXT,__const
	.p2align	3
l___unnamed_7:
	.byte	0

	.section	__DATA,__const
Lsec_end0:
	.section	__TEXT,__text,regular,pure_instructions
Lsec_end1: