	.section	__TEXT,__text,regular,pure_instructions
	.macosx_version_min 10, 7
	.p2align	4, 0x90
__ZN101_$LT$core..ops..range..RangeTo$LT$usize$GT$$u20$as$u20$core..slice..SliceIndex$LT$$u5b$T$u5d$$GT$$GT$9index_mut17h94a38db28472a2d5E:
Lfunc_begin0:
	.file	1 "/rustc/6c8927b0cf80ceee19386026cf9d7fd4fd9d486f/src/libcore/slice/mod.rs"
	.loc	1 3218 0
	.cfi_startproc
	pushq	%rbp
	.cfi_def_cfa_offset 16
	.cfi_offset %rbp, -16
	movq	%rsp, %rbp
	.cfi_def_cfa_register %rbp
	subq	$80, %rsp
	movq	%rdi, -24(%rbp)
	movq	%rsi, -16(%rbp)
	movq	%rdx, -8(%rbp)
Ltmp0:
	.loc	1 3219 9 prologue_end
	movq	$0, -40(%rbp)
	movq	%rdi, -32(%rbp)
	movq	-40(%rbp), %rdi
	movq	-32(%rbp), %rax
	movq	%rsi, -48(%rbp)
	movq	%rax, %rsi
	movq	-48(%rbp), %rax
	movq	%rdx, -56(%rbp)
	movq	%rax, %rdx
	movq	-56(%rbp), %r8
	movq	%rcx, -64(%rbp)
	movq	%r8, %rcx
	movq	-64(%rbp), %r8
	callq	__ZN99_$LT$core..ops..range..Range$LT$usize$GT$$u20$as$u20$core..slice..SliceIndex$LT$$u5b$T$u5d$$GT$$GT$9index_mut17h69ed82eb1783222bE
	movq	%rax, -72(%rbp)
	movq	%rdx, -80(%rbp)
	.loc	1 0 9 is_stmt 0
	movq	-72(%rbp), %rax
	movq	-80(%rbp), %rdx
	.loc	1 3220 6 is_stmt 1
	addq	$80, %rsp
	popq	%rbp
	retq
Ltmp1:
Lfunc_end0:
	.cfi_endproc

	.p2align	4, 0x90
__ZN105_$LT$std..ffi..os_str..OsString$u20$as$u20$core..ops..index..Index$LT$core..ops..range..RangeFull$GT$$GT$5index17h85f0d9a3853881f6E:
Lfunc_begin1:
	.file	2 "/rustc/6c8927b0cf80ceee19386026cf9d7fd4fd9d486f/src/libstd/ffi/os_str.rs"
	.loc	2 378 0
	.cfi_startproc
	pushq	%rbp
	.cfi_def_cfa_offset 16
	.cfi_offset %rbp, -16
	movq	%rsp, %rbp
	.cfi_def_cfa_register %rbp
	subq	$64, %rsp
	movq	%rdi, -16(%rbp)
	movq	%rsi, -24(%rbp)
Ltmp2:
	.loc	2 379 27 prologue_end
	callq	__ZN3std10sys_common12os_str_bytes3Buf8as_slice17h1f0d46c60902c55dE
	movq	%rax, -32(%rbp)
	movq	%rdx, -40(%rbp)
	.loc	2 0 27 is_stmt 0
	movq	-32(%rbp), %rdi
	movq	-40(%rbp), %rsi
	.loc	2 379 9
	callq	__ZN3std3ffi6os_str5OsStr10from_inner17hfde33fb3fe7ce938E
	movq	%rax, -48(%rbp)
	movq	%rdx, -56(%rbp)
	.loc	2 0 9
	movq	-48(%rbp), %rax
	movq	-56(%rbp), %rdx
	.loc	2 380 6 is_stmt 1
	addq	$64, %rsp
	popq	%rbp
	retq
Ltmp3:
Lfunc_end1:
	.cfi_endproc

	.p2align	4, 0x90
__ZN112_$LT$alloc..collections..btree..map..IntoIter$LT$K$C$V$GT$$u20$as$u20$core..iter..traits..iterator..Iterator$GT$4next17h3250cb900152ffebE:
Lfunc_begin2:
	.file	3 "/rustc/6c8927b0cf80ceee19386026cf9d7fd4fd9d486f/src/liballoc/collections/btree/map.rs"
	.loc	3 1486 0
	.cfi_startproc
	pushq	%rbp
	.cfi_def_cfa_offset 16
	.cfi_offset %rbp, -16
	movq	%rsp, %rbp
	.cfi_def_cfa_register %rbp
	subq	$96, %rsp
	movq	%rdi, %rax
	movq	%rsi, -8(%rbp)
Ltmp4:
	.loc	3 1487 12 prologue_end
	cmpq	$0, 64(%rsi)
	movq	%rsi, -64(%rbp)
	movq	%rdi, -72(%rbp)
	movq	%rax, -80(%rbp)
	.loc	3 1487 9 is_stmt 0
	je	LBB2_2
	.loc	3 0 9
	movq	-64(%rbp), %rax
	.loc	3 1490 13 is_stmt 1
	movq	64(%rax), %rcx
	subq	$1, %rcx
	movq	%rcx, 64(%rax)
	.loc	3 1491 27
	movq	%rax, %rdi
	callq	__ZN4core6option15Option$LT$T$GT$6as_mut17hf9cde92e42488dd3E
	movq	%rax, -88(%rbp)
	jmp	LBB2_3
LBB2_2:
	.loc	3 0 27 is_stmt 0
	movq	-72(%rbp), %rax
	.loc	3 1488 13 is_stmt 1
	movq	$0, (%rax)
	.loc	3 1487 9
	jmp	LBB2_6
LBB2_3:
	.loc	3 0 9 is_stmt 0
	leaq	l___unnamed_2(%rip), %rax
	movq	-88(%rbp), %rdi
	.loc	3 1491 27 is_stmt 1
	movq	%rax, %rsi
	callq	__ZN4core6option15Option$LT$T$GT$6unwrap17hc1ab02b9037b9afaE
	movq	%rax, -96(%rbp)
	leaq	-56(%rbp), %rdi
	movq	-96(%rbp), %rsi
	callq	__ZN5alloc11collections5btree8navigate263_$LT$impl$u20$alloc..collections..btree..node..Handle$LT$alloc..collections..btree..node..NodeRef$LT$alloc..collections..btree..node..marker..Owned$C$K$C$V$C$alloc..collections..btree..node..marker..Leaf$GT$$C$alloc..collections..btree..node..marker..Edge$GT$$GT$14next_unchecked17h9e3344c91a5dcd58E
	.loc	3 0 27 is_stmt 0
	movq	-72(%rbp), %rax
	.loc	3 1491 13
	leaq	-56(%rbp), %rcx
	movq	%rax, %rdi
	movq	%rcx, %rsi
	movl	$48, %edx
	callq	_memcpy
LBB2_6:
	.loc	3 0 13
	movq	-80(%rbp), %rax
	.loc	3 1493 6 is_stmt 1
	addq	$96, %rsp
	popq	%rbp
	retq
Ltmp5:
Lfunc_end2:
	.cfi_endproc

	.p2align	4, 0x90
__ZN115_$LT$alloc..collections..btree..map..BTreeMap$LT$K$C$V$GT$$u20$as$u20$core..iter..traits..collect..IntoIterator$GT$9into_iter17hdc502bebef7832efE:
Lfunc_begin3:
	.loc	3 1430 0
	.cfi_startproc
	pushq	%rbp
	.cfi_def_cfa_offset 16
	.cfi_offset %rbp, -16
	movq	%rsp, %rbp
	.cfi_def_cfa_register %rbp
	subq	$496, %rsp
	movq	%rdi, %rax
Ltmp6:
	.loc	3 1431 40 prologue_end
	movq	(%rsi), %rcx
	movq	%rcx, -440(%rbp)
	movq	8(%rsi), %rcx
	movq	%rcx, -432(%rbp)
	movq	16(%rsi), %rcx
	movq	%rcx, -424(%rbp)
Ltmp7:
	.file	4 "/rustc/6c8927b0cf80ceee19386026cf9d7fd4fd9d486f/src/libcore/mem/manually_drop.rs"
	.loc	4 83 24
	movq	-440(%rbp), %rcx
	movq	%rcx, -40(%rbp)
	movq	-432(%rbp), %rcx
	movq	%rcx, -32(%rbp)
	movq	-424(%rbp), %rcx
	movq	%rcx, -24(%rbp)
	.loc	4 83 9 is_stmt 0
	movq	-40(%rbp), %rcx
	movq	%rcx, -464(%rbp)
	movq	-32(%rbp), %rcx
	movq	%rcx, -456(%rbp)
	movq	-24(%rbp), %rcx
	movq	%rcx, -448(%rbp)
	movq	%rdi, -472(%rbp)
	movq	%rax, -480(%rbp)
Ltmp8:
	.loc	4 0 9
	leaq	-464(%rbp), %rax
	movq	%rax, -8(%rbp)
	movq	%rax, -488(%rbp)
Ltmp9:
	movq	-488(%rbp), %rdi
Ltmp10:
	.loc	3 1432 29 is_stmt 1
	callq	__ZN4core6option15Option$LT$T$GT$4take17h0f4059d30937fe70E
Ltmp11:
	movq	%rdx, -408(%rbp)
	movq	%rax, -416(%rbp)
	.loc	3 0 29 is_stmt 0
	xorl	%eax, %eax
	movl	%eax, %ecx
	.loc	3 1432 16
	cmpq	$0, -416(%rbp)
	movl	$1, %edx
	cmovbeq	%rcx, %rdx
	cmpq	$1, %rdx
	je	LBB3_5
	.loc	3 1437 31 is_stmt 1
	movq	$0, -112(%rbp)
	.loc	3 1437 43 is_stmt 0
	movq	$0, -80(%rbp)
	.loc	3 1437 13
	movq	-120(%rbp), %rax
	movq	-472(%rbp), %rcx
	movq	%rax, (%rcx)
	movq	-112(%rbp), %rax
	movq	%rax, 8(%rcx)
	movq	-104(%rbp), %rax
	movq	%rax, 16(%rcx)
	movq	-96(%rbp), %rax
	movq	%rax, 24(%rcx)
	movq	-88(%rbp), %rax
	movq	%rax, 32(%rcx)
	movq	-80(%rbp), %rax
	movq	%rax, 40(%rcx)
	movq	-72(%rbp), %rax
	movq	%rax, 48(%rcx)
	movq	-64(%rbp), %rax
	movq	%rax, 56(%rcx)
	movq	$0, 64(%rcx)
	.loc	3 1432 9 is_stmt 1
	jmp	LBB3_9
LBB3_5:
	.loc	3 1432 21 is_stmt 0
	movq	-416(%rbp), %rax
	movq	-408(%rbp), %rcx
	movq	%rax, -56(%rbp)
	movq	%rcx, -48(%rbp)
Ltmp12:
	.loc	3 1433 44 is_stmt 1
	leaq	-272(%rbp), %rdi
	movq	%rax, %rsi
	movq	%rcx, %rdx
	callq	__ZN5alloc11collections5btree4node17Root$LT$K$C$V$GT$8into_ref17hff28eaf80bd099ffE
	.loc	3 1433 26 is_stmt 0
	leaq	-336(%rbp), %rdi
	leaq	-272(%rbp), %rsi
	callq	__ZN5alloc11collections5btree3map17full_range_search17hd274dc2058d63dddE
	.loc	3 1433 18
	movq	-336(%rbp), %rax
	movq	%rax, -400(%rbp)
	movq	-328(%rbp), %rax
	movq	%rax, -392(%rbp)
	movq	-320(%rbp), %rax
	movq	%rax, -384(%rbp)
	movq	-312(%rbp), %rax
	movq	%rax, -376(%rbp)
	.loc	3 1433 21
	movq	-304(%rbp), %rax
	movq	%rax, -368(%rbp)
	movq	-296(%rbp), %rax
	movq	%rax, -360(%rbp)
	movq	-288(%rbp), %rax
	movq	%rax, -352(%rbp)
	movq	-280(%rbp), %rax
	movq	%rax, -344(%rbp)
Ltmp13:
	.loc	3 1435 36 is_stmt 1
	movq	-400(%rbp), %rax
	movq	%rax, -216(%rbp)
	movq	-392(%rbp), %rax
	movq	%rax, -208(%rbp)
	movq	-384(%rbp), %rax
	movq	%rax, -200(%rbp)
	movq	-376(%rbp), %rax
	movq	%rax, -192(%rbp)
	.loc	3 1435 31 is_stmt 0
	movq	-216(%rbp), %rax
	movq	%rax, -248(%rbp)
	movq	-208(%rbp), %rax
	movq	%rax, -240(%rbp)
	movq	-200(%rbp), %rax
	movq	%rax, -232(%rbp)
	movq	-192(%rbp), %rax
	movq	%rax, -224(%rbp)
	.loc	3 1435 51
	movq	-368(%rbp), %rax
	movq	%rax, -152(%rbp)
	movq	-360(%rbp), %rax
	movq	%rax, -144(%rbp)
	movq	-352(%rbp), %rax
	movq	%rax, -136(%rbp)
	movq	-344(%rbp), %rax
	movq	%rax, -128(%rbp)
	.loc	3 1435 46
	movq	-152(%rbp), %rax
	movq	%rax, -184(%rbp)
	movq	-144(%rbp), %rax
	movq	%rax, -176(%rbp)
	movq	-136(%rbp), %rax
	movq	%rax, -168(%rbp)
	movq	-128(%rbp), %rax
	movq	%rax, -160(%rbp)
	leaq	-464(%rbp), %rax
	movq	%rax, -16(%rbp)
	movq	%rax, -496(%rbp)
	.loc	3 0 46
	movq	-496(%rbp), %rax
	.loc	3 1435 63
	movq	16(%rax), %rcx
	.loc	3 1435 13
	movq	-248(%rbp), %rdx
	movq	-472(%rbp), %rsi
	movq	%rdx, (%rsi)
	movq	-240(%rbp), %rdx
	movq	%rdx, 8(%rsi)
	movq	-232(%rbp), %rdx
	movq	%rdx, 16(%rsi)
	movq	-224(%rbp), %rdx
	movq	%rdx, 24(%rsi)
	movq	-184(%rbp), %rdx
	movq	%rdx, 32(%rsi)
	movq	-176(%rbp), %rdx
	movq	%rdx, 40(%rsi)
	movq	-168(%rbp), %rdx
	movq	%rdx, 48(%rsi)
	movq	-160(%rbp), %rdx
	movq	%rdx, 56(%rsi)
	movq	%rcx, 64(%rsi)
Ltmp14:
LBB3_9:
	.loc	3 0 13
	movq	-480(%rbp), %rax
	.loc	3 1439 6 is_stmt 1
	addq	$496, %rsp
	popq	%rbp
	retq
Ltmp15:
Lfunc_end3:
	.cfi_endproc

	.p2align	4, 0x90
__ZN119_$LT$core..ptr..non_null..NonNull$LT$T$GT$$u20$as$u20$core..convert..From$LT$core..ptr..unique..Unique$LT$T$GT$$GT$$GT$4from17hf45024b5d19073baE:
Lfunc_begin4:
	.file	5 "/rustc/6c8927b0cf80ceee19386026cf9d7fd4fd9d486f/src/libcore/ptr/non_null.rs"
	.loc	5 329 0
	.cfi_startproc
	pushq	%rbp
	.cfi_def_cfa_offset 16
	.cfi_offset %rbp, -16
	movq	%rsp, %rbp
	.cfi_def_cfa_register %rbp
	subq	$32, %rsp
	movq	%rdi, -8(%rbp)
Ltmp16:
	.loc	5 332 41 prologue_end
	callq	__ZN4core3ptr6unique15Unique$LT$T$GT$6as_ptr17hfef13a45e375501fE
	movq	%rax, -16(%rbp)
	.loc	5 0 41 is_stmt 0
	movq	-16(%rbp), %rdi
	.loc	5 332 18
	callq	__ZN4core3ptr8non_null16NonNull$LT$T$GT$13new_unchecked17h112bb0504b0dcd91E
	movq	%rax, -24(%rbp)
	.loc	5 0 18
	movq	-24(%rbp), %rax
	.loc	5 333 6 is_stmt 1
	addq	$32, %rsp
	popq	%rbp
	retq
Ltmp17:
Lfunc_end4:
	.cfi_endproc

	.p2align	4, 0x90
__ZN119_$LT$core..ptr..non_null..NonNull$LT$T$GT$$u20$as$u20$core..convert..From$LT$core..ptr..unique..Unique$LT$T$GT$$GT$$GT$4from17hf586995d2ece5b15E:
Lfunc_begin5:
	.loc	5 329 0
	.cfi_startproc
	pushq	%rbp
	.cfi_def_cfa_offset 16
	.cfi_offset %rbp, -16
	movq	%rsp, %rbp
	.cfi_def_cfa_register %rbp
	subq	$32, %rsp
	movq	%rdi, -8(%rbp)
Ltmp18:
	.loc	5 332 41 prologue_end
	callq	__ZN4core3ptr6unique15Unique$LT$T$GT$6as_ptr17h92839a9febdc54f2E
	movq	%rax, -16(%rbp)
	.loc	5 0 41 is_stmt 0
	movq	-16(%rbp), %rdi
	.loc	5 332 18
	callq	__ZN4core3ptr8non_null16NonNull$LT$T$GT$13new_unchecked17h0250a5095c522e8dE
	movq	%rax, -24(%rbp)
	.loc	5 0 18
	movq	-24(%rbp), %rax
	.loc	5 333 6 is_stmt 1
	addq	$32, %rsp
	popq	%rbp
	retq
Ltmp19:
Lfunc_end5:
	.cfi_endproc

	.p2align	4, 0x90
__ZN166_$LT$$LT$alloc..collections..btree..map..IntoIter$LT$K$C$V$GT$$u20$as$u20$core..ops..drop..Drop$GT$..drop..DropGuard$LT$K$C$V$GT$$u20$as$u20$core..ops..drop..Drop$GT$4drop17h1373e80bd375b352E:
Lfunc_begin6:
	.loc	3 1448 0
	.cfi_startproc
	pushq	%rbp
	.cfi_def_cfa_offset 16
	.cfi_offset %rbp, -16
	movq	%rsp, %rbp
	.cfi_def_cfa_register %rbp
	subq	$384, %rsp
	movq	%rdi, -40(%rbp)
	movq	%rdi, -376(%rbp)
LBB6_1:
	movq	-376(%rbp), %rax
Ltmp20:
	.loc	3 1451 37 prologue_end
	movq	(%rax), %rsi
	leaq	-368(%rbp), %rdi
	callq	__ZN112_$LT$alloc..collections..btree..map..IntoIter$LT$K$C$V$GT$$u20$as$u20$core..iter..traits..iterator..Iterator$GT$4next17h3250cb900152ffebE
	.loc	3 0 37 is_stmt 0
	xorl	%eax, %eax
	movl	%eax, %ecx
	.loc	3 1451 27
	cmpq	$0, -368(%rbp)
	movl	$1, %edx
	cmovbeq	%rcx, %rdx
	cmpq	$1, %rdx
	je	LBB6_4
	.loc	3 1451 52
	leaq	-368(%rbp), %rdi
	callq	__ZN4core3ptr13drop_in_place17hb1796d673c18e9fdE
	jmp	LBB6_5
LBB6_4:
	leaq	-368(%rbp), %rdi
	callq	__ZN4core3ptr13drop_in_place17hb1796d673c18e9fdE
	jmp	LBB6_6
LBB6_5:
	.loc	3 0 52
	movq	-376(%rbp), %rax
	.loc	3 1455 52 is_stmt 1
	movq	(%rax), %rcx
	.loc	3 1455 42 is_stmt 0
	leaq	-240(%rbp), %rdi
	movq	%rcx, %rsi
	callq	__ZN4core3ptr4read17h2a1a97de8708b684E
	jmp	LBB6_7
LBB6_6:
	.loc	3 1451 17 is_stmt 1
	jmp	LBB6_1
LBB6_7:
Ltmp21:
	.file	6 "/rustc/6c8927b0cf80ceee19386026cf9d7fd4fd9d486f/src/liballoc/collections/btree/mod.rs"
	.loc	6 18 5
	movq	-240(%rbp), %rax
	movq	%rax, -32(%rbp)
	movq	-232(%rbp), %rax
	movq	%rax, -24(%rbp)
	movq	-224(%rbp), %rax
	movq	%rax, -16(%rbp)
	movq	-216(%rbp), %rax
	movq	%rax, -8(%rbp)
	leaq	-272(%rbp), %rdi
	leaq	-32(%rbp), %rsi
	callq	__ZN4core6option15Option$LT$T$GT$14unwrap_or_else17h2683cf278023aa27E
Ltmp22:
	.loc	3 1455 25
	leaq	-296(%rbp), %rdi
	leaq	-272(%rbp), %rsi
	callq	__ZN5alloc11collections5btree4node25Handle$LT$Node$C$Type$GT$9into_node17hf81f84ea3d09825dE
	leaq	-320(%rbp), %rdi
	leaq	-296(%rbp), %rsi
	callq	__ZN5alloc11collections5btree4node40NodeRef$LT$BorrowType$C$K$C$V$C$Type$GT$11forget_type17hcf3b87e581bc8e85E
Ltmp23:
	.loc	3 1456 21
	jmp	LBB6_11
LBB6_11:
	.loc	3 1456 46 is_stmt 0
	movq	-320(%rbp), %rax
	movq	%rax, -176(%rbp)
	movq	-312(%rbp), %rax
	movq	%rax, -168(%rbp)
	movq	-304(%rbp), %rax
	movq	%rax, -160(%rbp)
	leaq	-208(%rbp), %rdi
	leaq	-176(%rbp), %rsi
	callq	__ZN5alloc11collections5btree4node127NodeRef$LT$alloc..collections..btree..node..marker..Owned$C$K$C$V$C$alloc..collections..btree..node..marker..LeafOrInternal$GT$21deallocate_and_ascend17h542fd0d5ffecafabE
	.loc	3 0 46
	xorl	%eax, %eax
	movl	%eax, %ecx
	.loc	3 1456 31
	cmpq	$0, -200(%rbp)
	movl	$1, %edx
	cmovbeq	%rcx, %rdx
	cmpq	$1, %rdx
	je	LBB6_14
Ltmp24:
	.loc	3 1460 14 is_stmt 1
	addq	$384, %rsp
	popq	%rbp
	retq
LBB6_14:
Ltmp25:
	.loc	3 1456 36
	movq	-208(%rbp), %rax
	movq	%rax, -152(%rbp)
	movq	-200(%rbp), %rax
	movq	%rax, -144(%rbp)
	movq	-192(%rbp), %rax
	movq	%rax, -136(%rbp)
	movq	-184(%rbp), %rax
	movq	%rax, -128(%rbp)
Ltmp26:
	.loc	3 1457 32
	movq	-152(%rbp), %rax
	movq	%rax, -72(%rbp)
	movq	-144(%rbp), %rax
	movq	%rax, -64(%rbp)
	movq	-136(%rbp), %rax
	movq	%rax, -56(%rbp)
	movq	-128(%rbp), %rax
	movq	%rax, -48(%rbp)
	leaq	-96(%rbp), %rdi
	leaq	-72(%rbp), %rsi
	callq	__ZN5alloc11collections5btree4node25Handle$LT$Node$C$Type$GT$9into_node17h55ed8761db98fa9eE
	leaq	-120(%rbp), %rdi
	leaq	-96(%rbp), %rsi
	callq	__ZN5alloc11collections5btree4node40NodeRef$LT$BorrowType$C$K$C$V$C$Type$GT$11forget_type17hfa79aaa2baa50e99E
	.loc	3 1457 25 is_stmt 0
	movq	-120(%rbp), %rax
	movq	%rax, -320(%rbp)
	movq	-112(%rbp), %rax
	movq	%rax, -312(%rbp)
	movq	-104(%rbp), %rax
	movq	%rax, -304(%rbp)
Ltmp27:
	.loc	3 1456 21 is_stmt 1
	jmp	LBB6_11
Ltmp28:
Lfunc_end6:
	.cfi_endproc

	.p2align	4, 0x90
__ZN3std10sys_common12os_str_bytes3Buf8as_slice17h1f0d46c60902c55dE:
Lfunc_begin7:
	.file	7 "/rustc/6c8927b0cf80ceee19386026cf9d7fd4fd9d486f/src/libstd/sys_common/os_str_bytes.rs"
	.loc	7 108 0
	.cfi_startproc
	pushq	%rbp
	.cfi_def_cfa_offset 16
	.cfi_offset %rbp, -16
	movq	%rsp, %rbp
	.cfi_def_cfa_register %rbp
	subq	$64, %rsp
	movq	%rdi, -24(%rbp)
Ltmp29:
	.loc	7 112 34 prologue_end
	callq	__ZN68_$LT$alloc..vec..Vec$LT$T$GT$$u20$as$u20$core..ops..deref..Deref$GT$5deref17hdc0bfbc720687f7cE
	movq	%rax, -32(%rbp)
	movq	%rdx, -40(%rbp)
	.loc	7 0 34 is_stmt 0
	movq	-32(%rbp), %rax
	.loc	7 112 18
	movq	%rax, -16(%rbp)
	movq	-40(%rbp), %rcx
	movq	%rcx, -8(%rbp)
	movq	-16(%rbp), %rax
	movq	-8(%rbp), %rdx
	movq	%rax, -48(%rbp)
	movq	%rdx, -56(%rbp)
	.loc	7 0 18
	movq	-48(%rbp), %rax
	movq	-56(%rbp), %rdx
	.loc	7 113 6 is_stmt 1
	addq	$64, %rsp
	popq	%rbp
	retq
Ltmp30:
Lfunc_end7:
	.cfi_endproc

	.p2align	4, 0x90
__ZN3std10sys_common12os_str_bytes5Slice13from_u8_slice17h1efae253f6da3fb8E:
Lfunc_begin8:
	.loc	7 155 0
	.cfi_startproc
	pushq	%rbp
	.cfi_def_cfa_offset 16
	.cfi_offset %rbp, -16
	movq	%rsp, %rbp
	.cfi_def_cfa_register %rbp
	subq	$48, %rsp
	movq	%rdi, -32(%rbp)
	movq	%rsi, -24(%rbp)
Ltmp31:
	.loc	7 156 18 prologue_end
	movq	%rdi, -16(%rbp)
	movq	%rsi, -8(%rbp)
	movq	-16(%rbp), %rax
	movq	-8(%rbp), %rdx
	movq	%rax, -40(%rbp)
	movq	%rdx, -48(%rbp)
	.loc	7 0 18 is_stmt 0
	movq	-40(%rbp), %rax
	movq	-48(%rbp), %rdx
	.loc	7 157 6 is_stmt 1
	addq	$48, %rsp
	popq	%rbp
	retq
Ltmp32:
Lfunc_end8:
	.cfi_endproc

	.p2align	4, 0x90
__ZN3std10sys_common12os_str_bytes5Slice8from_str17h5cbc2f3539e2b96cE:
Lfunc_begin9:
	.loc	7 160 0
	.cfi_startproc
	pushq	%rbp
	.cfi_def_cfa_offset 16
	.cfi_offset %rbp, -16
	movq	%rsp, %rbp
	.cfi_def_cfa_register %rbp
	subq	$80, %rsp
	movq	%rdi, -48(%rbp)
	movq	%rsi, -40(%rbp)
	movq	%rdi, -16(%rbp)
	movq	%rsi, -8(%rbp)
Ltmp33:
	.file	8 "/rustc/6c8927b0cf80ceee19386026cf9d7fd4fd9d486f/src/libcore/str/mod.rs"
	.loc	8 2359 18 prologue_end
	movq	%rdi, -32(%rbp)
	movq	%rsi, -24(%rbp)
	movq	-32(%rbp), %rdi
	movq	-24(%rbp), %rsi
	movq	%rdi, -56(%rbp)
	movq	%rsi, -64(%rbp)
Ltmp34:
	.loc	8 0 18 is_stmt 0
	movq	-56(%rbp), %rdi
	movq	-64(%rbp), %rsi
	.loc	7 161 9 is_stmt 1
	callq	__ZN3std10sys_common12os_str_bytes5Slice13from_u8_slice17h1efae253f6da3fb8E
	movq	%rax, -72(%rbp)
	movq	%rdx, -80(%rbp)
	.loc	7 0 9 is_stmt 0
	movq	-72(%rbp), %rax
	movq	-80(%rbp), %rdx
	.loc	7 162 6 is_stmt 1
	addq	$80, %rsp
	popq	%rbp
	retq
Ltmp35:
Lfunc_end9:
	.cfi_endproc

	.private_extern	__ZN3std2rt10lang_start17h57b66577dd699574E
	.globl	__ZN3std2rt10lang_start17h57b66577dd699574E
	.p2align	4, 0x90
__ZN3std2rt10lang_start17h57b66577dd699574E:
Lfunc_begin10:
	.file	9 "/rustc/6c8927b0cf80ceee19386026cf9d7fd4fd9d486f/src/libstd/rt.rs"
	.loc	9 62 0
	.cfi_startproc
	pushq	%rbp
	.cfi_def_cfa_offset 16
	.cfi_offset %rbp, -16
	movq	%rsp, %rbp
	.cfi_def_cfa_register %rbp
	subq	$64, %rsp
	leaq	l___unnamed_1(%rip), %rax
	movq	%rdi, -24(%rbp)
	movq	%rsi, -16(%rbp)
	movq	%rdx, -8(%rbp)
Ltmp36:
	.loc	9 67 26 prologue_end
	movq	%rdi, -32(%rbp)
	.loc	9 67 25 is_stmt 0
	leaq	-32(%rbp), %rcx
	.loc	9 67 5
	movq	%rcx, %rdi
	movq	%rsi, -40(%rbp)
	movq	%rax, %rsi
	movq	-40(%rbp), %rax
	movq	%rdx, -48(%rbp)
	movq	%rax, %rdx
	movq	-48(%rbp), %rcx
	callq	__ZN3std2rt19lang_start_internal17hbbd10965adc92ae7E
	movq	%rax, -56(%rbp)
	.loc	9 0 5
	movq	-56(%rbp), %rax
	.loc	9 68 2 is_stmt 1
	addq	$64, %rsp
	popq	%rbp
	retq
Ltmp37:
Lfunc_end10:
	.cfi_endproc

	.p2align	4, 0x90
__ZN3std2rt10lang_start28_$u7b$$u7b$closure$u7d$$u7d$17hb126214f2246e38bE:
Lfunc_begin11:
	.loc	9 67 0
	.cfi_startproc
	pushq	%rbp
	.cfi_def_cfa_offset 16
	.cfi_offset %rbp, -16
	movq	%rsp, %rbp
	.cfi_def_cfa_register %rbp
	subq	$16, %rsp
	movq	%rdi, -8(%rbp)
Ltmp38:
	.loc	9 67 34 prologue_end
	callq	*(%rdi)
	callq	__ZN54_$LT$$LP$$RP$$u20$as$u20$std..process..Termination$GT$6report17h66e3a0d5432b73e6E
	movl	%eax, -12(%rbp)
	.loc	9 0 34 is_stmt 0
	movl	-12(%rbp), %eax
	.loc	9 67 49
	addq	$16, %rsp
	popq	%rbp
	retq
Ltmp39:
Lfunc_end11:
	.cfi_endproc

	.p2align	4, 0x90
__ZN3std3env6var_os17h738d148eaa2298d1E:
Lfunc_begin12:
	.file	10 "/rustc/6c8927b0cf80ceee19386026cf9d7fd4fd9d486f/src/libstd/env.rs"
	.loc	10 245 0 is_stmt 1
	.cfi_startproc
	.cfi_personality 155, _rust_eh_personality
	.cfi_lsda 16, Lexception0
	pushq	%rbp
	.cfi_def_cfa_offset 16
	.cfi_offset %rbp, -16
	movq	%rsp, %rbp
	.cfi_def_cfa_register %rbp
	subq	$64, %rsp
	movq	%rdi, %rax
	movq	%rsi, -32(%rbp)
	movq	%rdx, -24(%rbp)
Ltmp40:
	leaq	-32(%rbp), %rcx
	movq	%rdi, -40(%rbp)
Ltmp45:
	.loc	10 246 13 prologue_end
	movq	%rcx, %rdi
	movq	%rax, -48(%rbp)
	callq	__ZN55_$LT$$RF$T$u20$as$u20$core..convert..AsRef$LT$U$GT$$GT$6as_ref17h544a5204e92e9ed2E
Ltmp41:
	movq	%rdx, -56(%rbp)
	movq	%rax, -64(%rbp)
	jmp	LBB12_2
LBB12_1:
	.loc	10 245 1
	movq	-16(%rbp), %rdi
	callq	__Unwind_Resume
	ud2
LBB12_2:
Ltmp42:
	.loc	10 0 1 is_stmt 0
	movq	-40(%rbp), %rdi
	movq	-64(%rbp), %rsi
	movq	-56(%rbp), %rdx
	.loc	10 246 5 is_stmt 1
	callq	__ZN3std3env7_var_os17hc628b18a701aa4a3E
Ltmp43:
	jmp	LBB12_4
LBB12_3:
	.loc	10 247 1
	jmp	LBB12_1
LBB12_4:
	jmp	LBB12_5
LBB12_5:
	.loc	10 0 1 is_stmt 0
	movq	-48(%rbp), %rax
	.loc	10 247 2
	addq	$64, %rsp
	popq	%rbp
	retq
Ltmp46:
LBB12_6:
Ltmp44:
	.loc	10 0 2
	movq	%rax, -16(%rbp)
	movl	%edx, -8(%rbp)
	jmp	LBB12_3
Lfunc_end12:
	.cfi_endproc
	.section	__TEXT,__gcc_except_tab
	.p2align	2
GCC_except_table12:
Lexception0:
	.byte	255
	.byte	255
	.byte	1
	.uleb128 Lcst_end0-Lcst_begin0
Lcst_begin0:
	.uleb128 Ltmp40-Lfunc_begin12
	.uleb128 Ltmp41-Ltmp40
	.uleb128 Ltmp44-Lfunc_begin12
	.byte	0
	.uleb128 Ltmp41-Lfunc_begin12
	.uleb128 Ltmp42-Ltmp41
	.byte	0
	.byte	0
	.uleb128 Ltmp42-Lfunc_begin12
	.uleb128 Ltmp43-Ltmp42
	.uleb128 Ltmp44-Lfunc_begin12
	.byte	0
Lcst_end0:
	.p2align	2

	.section	__TEXT,__text,regular,pure_instructions
	.p2align	4, 0x90
__ZN3std3ffi6os_str5OsStr10from_inner17hfde33fb3fe7ce938E:
Lfunc_begin13:
	.loc	2 528 0 is_stmt 1
	.cfi_startproc
	pushq	%rbp
	.cfi_def_cfa_offset 16
	.cfi_offset %rbp, -16
	movq	%rsp, %rbp
	.cfi_def_cfa_register %rbp
	subq	$16, %rsp
	movq	%rdi, -16(%rbp)
	movq	%rsi, -8(%rbp)
Ltmp47:
	.loc	2 532 6 prologue_end
	movq	%rdi, %rax
	movq	%rsi, %rdx
	addq	$16, %rsp
	popq	%rbp
	retq
Ltmp48:
Lfunc_end13:
	.cfi_endproc

	.p2align	4, 0x90
__ZN3std3ffi6os_str85_$LT$impl$u20$core..convert..AsRef$LT$std..ffi..os_str..OsStr$GT$$u20$for$u20$str$GT$6as_ref17h387088127f91291aE:
Lfunc_begin14:
	.loc	2 1157 0
	.cfi_startproc
	pushq	%rbp
	.cfi_def_cfa_offset 16
	.cfi_offset %rbp, -16
	movq	%rsp, %rbp
	.cfi_def_cfa_register %rbp
	subq	$48, %rsp
	movq	%rdi, -16(%rbp)
	movq	%rsi, -8(%rbp)
Ltmp49:
	.loc	2 1158 27 prologue_end
	callq	__ZN3std10sys_common12os_str_bytes5Slice8from_str17h5cbc2f3539e2b96cE
	movq	%rax, -24(%rbp)
	movq	%rdx, -32(%rbp)
	.loc	2 0 27 is_stmt 0
	movq	-24(%rbp), %rdi
	movq	-32(%rbp), %rsi
	.loc	2 1158 9
	callq	__ZN3std3ffi6os_str5OsStr10from_inner17hfde33fb3fe7ce938E
	movq	%rax, -40(%rbp)
	movq	%rdx, -48(%rbp)
	.loc	2 0 9
	movq	-40(%rbp), %rax
	movq	-48(%rbp), %rdx
	.loc	2 1159 6 is_stmt 1
	addq	$48, %rsp
	popq	%rbp
	retq
Ltmp50:
Lfunc_end14:
	.cfi_endproc

	.p2align	4, 0x90
__ZN3std3sys4unix7process14process_common8ExitCode6as_i3217h4014f927be6b5621E:
Lfunc_begin15:
	.file	11 "/rustc/6c8927b0cf80ceee19386026cf9d7fd4fd9d486f/src/libstd/sys/unix/process/process_common.rs"
	.loc	11 398 0
	.cfi_startproc
	pushq	%rbp
	.cfi_def_cfa_offset 16
	.cfi_offset %rbp, -16
	movq	%rsp, %rbp
	.cfi_def_cfa_register %rbp
	pushq	%rax
	movq	%rdi, -8(%rbp)
Ltmp51:
	.loc	11 399 9 prologue_end
	movzbl	(%rdi), %eax
	.loc	11 400 6
	addq	$8, %rsp
	popq	%rbp
	retq
Ltmp52:
Lfunc_end15:
	.cfi_endproc

	.p2align	4, 0x90
__ZN3std7process7Command3arg17h583e54cb2c692cc1E:
Lfunc_begin16:
	.file	12 "/rustc/6c8927b0cf80ceee19386026cf9d7fd4fd9d486f/src/libstd/process.rs"
	.loc	12 541 0
	.cfi_startproc
	.cfi_personality 155, _rust_eh_personality
	.cfi_lsda 16, Lexception1
	pushq	%rbp
	.cfi_def_cfa_offset 16
	.cfi_offset %rbp, -16
	movq	%rsp, %rbp
	.cfi_def_cfa_register %rbp
	subq	$80, %rsp
	movq	%rsi, -40(%rbp)
	movq	%rdx, -32(%rbp)
	movq	%rdi, -24(%rbp)
Ltmp58:
	.loc	12 542 9 prologue_end
	movq	%rdi, %rax
Ltmp53:
	leaq	-40(%rbp), %rcx
	movq	%rdi, -48(%rbp)
	.loc	12 542 24 is_stmt 0
	movq	%rcx, %rdi
	movq	%rax, -56(%rbp)
	callq	__ZN55_$LT$$RF$T$u20$as$u20$core..convert..AsRef$LT$U$GT$$GT$6as_ref17h544a5204e92e9ed2E
Ltmp54:
	movq	%rdx, -64(%rbp)
	movq	%rax, -72(%rbp)
	jmp	LBB16_2
LBB16_1:
	.loc	12 541 5 is_stmt 1
	movq	-16(%rbp), %rdi
	callq	__Unwind_Resume
	ud2
LBB16_2:
Ltmp55:
	.loc	12 0 5 is_stmt 0
	movq	-56(%rbp), %rdi
	movq	-72(%rbp), %rsi
	movq	-64(%rbp), %rdx
	.loc	12 542 9 is_stmt 1
	callq	__ZN3std3sys4unix7process14process_common7Command3arg17he3b985033bebdb87E
Ltmp56:
	jmp	LBB16_4
LBB16_3:
	.loc	12 544 5
	jmp	LBB16_1
LBB16_4:
	jmp	LBB16_5
LBB16_5:
	.loc	12 0 5 is_stmt 0
	movq	-48(%rbp), %rax
	.loc	12 544 6
	addq	$80, %rsp
	popq	%rbp
	retq
Ltmp59:
LBB16_6:
Ltmp57:
	.loc	12 0 6
	movq	%rax, -16(%rbp)
	movl	%edx, -8(%rbp)
	jmp	LBB16_3
Lfunc_end16:
	.cfi_endproc
	.section	__TEXT,__gcc_except_tab
	.p2align	2
GCC_except_table16:
Lexception1:
	.byte	255
	.byte	255
	.byte	1
	.uleb128 Lcst_end1-Lcst_begin1
Lcst_begin1:
	.uleb128 Ltmp53-Lfunc_begin16
	.uleb128 Ltmp54-Ltmp53
	.uleb128 Ltmp57-Lfunc_begin16
	.byte	0
	.uleb128 Ltmp54-Lfunc_begin16
	.uleb128 Ltmp55-Ltmp54
	.byte	0
	.byte	0
	.uleb128 Ltmp55-Lfunc_begin16
	.uleb128 Ltmp56-Ltmp55
	.uleb128 Ltmp57-Lfunc_begin16
	.byte	0
Lcst_end1:
	.p2align	2

	.section	__TEXT,__text,regular,pure_instructions
	.p2align	4, 0x90
__ZN3std7process7Command3new17hedb6c88081728adcE:
Lfunc_begin17:
	.loc	12 500 0 is_stmt 1
	.cfi_startproc
	.cfi_personality 155, _rust_eh_personality
	.cfi_lsda 16, Lexception2
	pushq	%rbp
	.cfi_def_cfa_offset 16
	.cfi_offset %rbp, -16
	movq	%rsp, %rbp
	.cfi_def_cfa_register %rbp
	subq	$240, %rsp
	movq	%rdi, %rax
Ltmp60:
	movq	%rdi, -208(%rbp)
Ltmp65:
	.loc	12 501 44 prologue_end
	movq	%rsi, %rdi
	movq	%rsi, -216(%rbp)
Ltmp66:
	.loc	12 0 44 is_stmt 0
	movq	%rax, -224(%rbp)
	.loc	12 501 44
	callq	__ZN98_$LT$std..ffi..os_str..OsString$u20$as$u20$core..convert..AsRef$LT$std..ffi..os_str..OsStr$GT$$GT$6as_ref17h5bf5ac4be4e522c1E
Ltmp61:
	movq	%rdx, -232(%rbp)
	movq	%rax, -240(%rbp)
	jmp	LBB17_2
Ltmp67:
LBB17_1:
	.loc	12 500 5 is_stmt 1
	movq	-16(%rbp), %rdi
	callq	__Unwind_Resume
	ud2
Ltmp68:
LBB17_2:
Ltmp62:
	.loc	12 0 5 is_stmt 0
	leaq	-200(%rbp), %rdi
	movq	-240(%rbp), %rsi
	movq	-232(%rbp), %rdx
	.loc	12 501 26 is_stmt 1
	callq	__ZN3std3sys4unix7process14process_common7Command3new17h6b51c4bb5fada643E
Ltmp63:
	jmp	LBB17_4
Ltmp69:
LBB17_3:
	.loc	12 0 26 is_stmt 0
	movq	-216(%rbp), %rdi
	.loc	12 502 5 is_stmt 1
	callq	__ZN4core3ptr13drop_in_place17h9052c0b311151b34E
	jmp	LBB17_1
Ltmp70:
LBB17_4:
	.loc	12 0 5 is_stmt 0
	movq	-208(%rbp), %rax
	.loc	12 501 9 is_stmt 1
	leaq	-200(%rbp), %rcx
	movq	%rax, %rdi
	movq	%rcx, %rsi
	movl	$184, %edx
	callq	_memcpy
	movq	-216(%rbp), %rdi
	.loc	12 502 5
	callq	__ZN4core3ptr13drop_in_place17h9052c0b311151b34E
Ltmp71:
	.loc	12 0 5 is_stmt 0
	movq	-224(%rbp), %rax
	.loc	12 502 6
	addq	$240, %rsp
	popq	%rbp
	retq
Ltmp72:
LBB17_6:
Ltmp64:
	.loc	12 0 6
	movq	%rax, -16(%rbp)
	movl	%edx, -8(%rbp)
	jmp	LBB17_3
Lfunc_end17:
	.cfi_endproc
	.section	__TEXT,__gcc_except_tab
	.p2align	2
GCC_except_table17:
Lexception2:
	.byte	255
	.byte	255
	.byte	1
	.uleb128 Lcst_end2-Lcst_begin2
Lcst_begin2:
	.uleb128 Ltmp60-Lfunc_begin17
	.uleb128 Ltmp61-Ltmp60
	.uleb128 Ltmp64-Lfunc_begin17
	.byte	0
	.uleb128 Ltmp61-Lfunc_begin17
	.uleb128 Ltmp62-Ltmp61
	.byte	0
	.byte	0
	.uleb128 Ltmp62-Lfunc_begin17
	.uleb128 Ltmp63-Ltmp62
	.uleb128 Ltmp64-Lfunc_begin17
	.byte	0
	.uleb128 Ltmp63-Lfunc_begin17
	.uleb128 Lfunc_end17-Ltmp63
	.byte	0
	.byte	0
Lcst_end2:
	.p2align	2

	.section	__TEXT,__text,regular,pure_instructions
	.p2align	4, 0x90
__ZN44_$LT$$RF$T$u20$as$u20$core..fmt..Display$GT$3fmt17h8b2e6fe214a5a13cE:
Lfunc_begin18:
	.file	13 "/rustc/6c8927b0cf80ceee19386026cf9d7fd4fd9d486f/src/libcore/fmt/mod.rs"
	.loc	13 2022 0 is_stmt 1
	.cfi_startproc
	pushq	%rbp
	.cfi_def_cfa_offset 16
	.cfi_offset %rbp, -16
	movq	%rsp, %rbp
	.cfi_def_cfa_register %rbp
	subq	$32, %rsp
	movq	%rdi, -16(%rbp)
	movq	%rsi, -8(%rbp)
Ltmp73:
	.loc	13 2022 71 prologue_end
	movq	(%rdi), %rax
	movq	8(%rdi), %rcx
	.loc	13 2022 62 is_stmt 0
	movq	%rax, %rdi
	movq	%rsi, -24(%rbp)
	movq	%rcx, %rsi
	movq	-24(%rbp), %rdx
	callq	__ZN42_$LT$str$u20$as$u20$core..fmt..Display$GT$3fmt17h6768afae62e94f93E
	movb	%al, -25(%rbp)
	.loc	13 0 62
	movb	-25(%rbp), %al
	.loc	13 2022 84
	andb	$1, %al
	movzbl	%al, %eax
	addq	$32, %rsp
	popq	%rbp
	retq
Ltmp74:
Lfunc_end18:
	.cfi_endproc

	.p2align	4, 0x90
__ZN4core10intrinsics19copy_nonoverlapping17h13d2ad59a7a9d24bE:
Lfunc_begin19:
	.file	14 "/rustc/6c8927b0cf80ceee19386026cf9d7fd4fd9d486f/src/libcore/intrinsics.rs"
	.loc	14 2114 0 is_stmt 1
	.cfi_startproc
	pushq	%rbp
	.cfi_def_cfa_offset 16
	.cfi_offset %rbp, -16
	movq	%rsp, %rbp
	.cfi_def_cfa_register %rbp
	subq	$32, %rsp
	movq	%rdi, -24(%rbp)
	movq	%rsi, -16(%rbp)
	movq	%rdx, -8(%rbp)
Ltmp75:
	.loc	14 2130 14 prologue_end
	shlq	$0, %rdx
	movq	%rdi, -32(%rbp)
	movq	%rsi, %rdi
	movq	-32(%rbp), %rsi
	callq	_memcpy
	.loc	14 2131 2
	addq	$32, %rsp
	popq	%rbp
	retq
Ltmp76:
Lfunc_end19:
	.cfi_endproc

	.p2align	4, 0x90
__ZN4core10intrinsics19copy_nonoverlapping17h25a886e17ff18355E:
Lfunc_begin20:
	.loc	14 2114 0
	.cfi_startproc
	pushq	%rbp
	.cfi_def_cfa_offset 16
	.cfi_offset %rbp, -16
	movq	%rsp, %rbp
	.cfi_def_cfa_register %rbp
	subq	$32, %rsp
	movq	%rdi, -24(%rbp)
	movq	%rsi, -16(%rbp)
	movq	%rdx, -8(%rbp)
Ltmp77:
	.loc	14 2130 14 prologue_end
	shlq	$5, %rdx
	movq	%rdi, -32(%rbp)
	movq	%rsi, %rdi
	movq	-32(%rbp), %rsi
	callq	_memcpy
	.loc	14 2131 2
	addq	$32, %rsp
	popq	%rbp
	retq
Ltmp78:
Lfunc_end20:
	.cfi_endproc

	.p2align	4, 0x90
__ZN4core10intrinsics19copy_nonoverlapping17h2649b847efa3d8cdE:
Lfunc_begin21:
	.loc	14 2114 0
	.cfi_startproc
	pushq	%rbp
	.cfi_def_cfa_offset 16
	.cfi_offset %rbp, -16
	movq	%rsp, %rbp
	.cfi_def_cfa_register %rbp
	subq	$32, %rsp
	movq	%rdi, -24(%rbp)
	movq	%rsi, -16(%rbp)
	movq	%rdx, -8(%rbp)
Ltmp79:
	.loc	14 2130 14 prologue_end
	imulq	$24, %rdx, %rdx
	movq	%rdi, -32(%rbp)
	movq	%rsi, %rdi
	movq	-32(%rbp), %rsi
	callq	_memcpy
	.loc	14 2131 2
	addq	$32, %rsp
	popq	%rbp
	retq
Ltmp80:
Lfunc_end21:
	.cfi_endproc

	.p2align	4, 0x90
__ZN4core10intrinsics19copy_nonoverlapping17h297d16ed0cb50210E:
Lfunc_begin22:
	.loc	14 2114 0
	.cfi_startproc
	pushq	%rbp
	.cfi_def_cfa_offset 16
	.cfi_offset %rbp, -16
	movq	%rsp, %rbp
	.cfi_def_cfa_register %rbp
	subq	$32, %rsp
	movq	%rdi, -24(%rbp)
	movq	%rsi, -16(%rbp)
	movq	%rdx, -8(%rbp)
Ltmp81:
	.loc	14 2130 14 prologue_end
	imulq	$24, %rdx, %rdx
	movq	%rdi, -32(%rbp)
	movq	%rsi, %rdi
	movq	-32(%rbp), %rsi
	callq	_memcpy
	.loc	14 2131 2
	addq	$32, %rsp
	popq	%rbp
	retq
Ltmp82:
Lfunc_end22:
	.cfi_endproc

	.p2align	4, 0x90
__ZN4core10intrinsics19copy_nonoverlapping17h31761e930a8be5bbE:
Lfunc_begin23:
	.loc	14 2114 0
	.cfi_startproc
	pushq	%rbp
	.cfi_def_cfa_offset 16
	.cfi_offset %rbp, -16
	movq	%rsp, %rbp
	.cfi_def_cfa_register %rbp
	subq	$32, %rsp
	movq	%rdi, -24(%rbp)
	movq	%rsi, -16(%rbp)
	movq	%rdx, -8(%rbp)
Ltmp83:
	.loc	14 2130 14 prologue_end
	imulq	$24, %rdx, %rdx
	movq	%rdi, -32(%rbp)
	movq	%rsi, %rdi
	movq	-32(%rbp), %rsi
	callq	_memcpy
	.loc	14 2131 2
	addq	$32, %rsp
	popq	%rbp
	retq
Ltmp84:
Lfunc_end23:
	.cfi_endproc

	.p2align	4, 0x90
__ZN4core10intrinsics19copy_nonoverlapping17h50a0b23e1f463078E:
Lfunc_begin24:
	.loc	14 2114 0
	.cfi_startproc
	pushq	%rbp
	.cfi_def_cfa_offset 16
	.cfi_offset %rbp, -16
	movq	%rsp, %rbp
	.cfi_def_cfa_register %rbp
	subq	$32, %rsp
	movq	%rdi, -24(%rbp)
	movq	%rsi, -16(%rbp)
	movq	%rdx, -8(%rbp)
Ltmp85:
	.loc	14 2130 14 prologue_end
	shlq	$4, %rdx
	movq	%rdi, -32(%rbp)
	movq	%rsi, %rdi
	movq	-32(%rbp), %rsi
	callq	_memcpy
	.loc	14 2131 2
	addq	$32, %rsp
	popq	%rbp
	retq
Ltmp86:
Lfunc_end24:
	.cfi_endproc

	.p2align	4, 0x90
__ZN4core10intrinsics19copy_nonoverlapping17h5ba02f01ebd80f9fE:
Lfunc_begin25:
	.loc	14 2114 0
	.cfi_startproc
	pushq	%rbp
	.cfi_def_cfa_offset 16
	.cfi_offset %rbp, -16
	movq	%rsp, %rbp
	.cfi_def_cfa_register %rbp
	subq	$32, %rsp
	movq	%rdi, -24(%rbp)
	movq	%rsi, -16(%rbp)
	movq	%rdx, -8(%rbp)
Ltmp87:
	.loc	14 2130 14 prologue_end
	imulq	$24, %rdx, %rdx
	movq	%rdi, -32(%rbp)
	movq	%rsi, %rdi
	movq	-32(%rbp), %rsi
	callq	_memcpy
	.loc	14 2131 2
	addq	$32, %rsp
	popq	%rbp
	retq
Ltmp88:
Lfunc_end25:
	.cfi_endproc

	.p2align	4, 0x90
__ZN4core10intrinsics19copy_nonoverlapping17h6821627b08d0e744E:
Lfunc_begin26:
	.loc	14 2114 0
	.cfi_startproc
	pushq	%rbp
	.cfi_def_cfa_offset 16
	.cfi_offset %rbp, -16
	movq	%rsp, %rbp
	.cfi_def_cfa_register %rbp
	subq	$32, %rsp
	movq	%rdi, -24(%rbp)
	movq	%rsi, -16(%rbp)
	movq	%rdx, -8(%rbp)
Ltmp89:
	.loc	14 2130 14 prologue_end
	imulq	$24, %rdx, %rdx
	movq	%rdi, -32(%rbp)
	movq	%rsi, %rdi
	movq	-32(%rbp), %rsi
	callq	_memcpy
	.loc	14 2131 2
	addq	$32, %rsp
	popq	%rbp
	retq
Ltmp90:
Lfunc_end26:
	.cfi_endproc

	.p2align	4, 0x90
__ZN4core10intrinsics19copy_nonoverlapping17hd9ddeafaba95371eE:
Lfunc_begin27:
	.loc	14 2114 0
	.cfi_startproc
	pushq	%rbp
	.cfi_def_cfa_offset 16
	.cfi_offset %rbp, -16
	movq	%rsp, %rbp
	.cfi_def_cfa_register %rbp
	subq	$32, %rsp
	movq	%rdi, -24(%rbp)
	movq	%rsi, -16(%rbp)
	movq	%rdx, -8(%rbp)
Ltmp91:
	.loc	14 2130 14 prologue_end
	shlq	$5, %rdx
	movq	%rdi, -32(%rbp)
	movq	%rsi, %rdi
	movq	-32(%rbp), %rsi
	callq	_memcpy
	.loc	14 2131 2
	addq	$32, %rsp
	popq	%rbp
	retq
Ltmp92:
Lfunc_end27:
	.cfi_endproc

	.p2align	4, 0x90
__ZN4core3cmp5impls69_$LT$impl$u20$core..cmp..PartialEq$LT$$RF$B$GT$$u20$for$u20$$RF$A$GT$2eq17hd0c7cfb61f46096bE:
Lfunc_begin28:
	.file	15 "/rustc/6c8927b0cf80ceee19386026cf9d7fd4fd9d486f/src/libcore/cmp.rs"
	.loc	15 1218 0
	.cfi_startproc
	pushq	%rbp
	.cfi_def_cfa_offset 16
	.cfi_offset %rbp, -16
	movq	%rsp, %rbp
	.cfi_def_cfa_register %rbp
	subq	$32, %rsp
	movq	%rdi, -16(%rbp)
	movq	%rsi, -8(%rbp)
Ltmp93:
	.loc	15 1219 27 prologue_end
	movq	(%rdi), %rax
	movq	8(%rdi), %rcx
	.loc	15 1219 34 is_stmt 0
	movq	(%rsi), %rdx
	movq	8(%rsi), %rsi
	.loc	15 1219 13
	movq	%rax, %rdi
	movq	%rsi, -24(%rbp)
	movq	%rcx, %rsi
	movq	-24(%rbp), %rcx
	callq	__ZN4core5slice81_$LT$impl$u20$core..cmp..PartialEq$LT$$u5b$B$u5d$$GT$$u20$for$u20$$u5b$A$u5d$$GT$2eq17h336bfbb23225aba6E
	movb	%al, -25(%rbp)
	.loc	15 0 13
	movb	-25(%rbp), %al
	.loc	15 1220 10 is_stmt 1
	andb	$1, %al
	movzbl	%al, %eax
	addq	$32, %rsp
	popq	%rbp
	retq
Ltmp94:
Lfunc_end28:
	.cfi_endproc

	.p2align	4, 0x90
__ZN4core3cmp5impls69_$LT$impl$u20$core..cmp..PartialEq$LT$$RF$B$GT$$u20$for$u20$$RF$A$GT$2ne17h14ce2e8edf67d739E:
Lfunc_begin29:
	.loc	15 1222 0
	.cfi_startproc
	pushq	%rbp
	.cfi_def_cfa_offset 16
	.cfi_offset %rbp, -16
	movq	%rsp, %rbp
	.cfi_def_cfa_register %rbp
	subq	$32, %rsp
	movq	%rdi, -16(%rbp)
	movq	%rsi, -8(%rbp)
Ltmp95:
	.loc	15 1223 27 prologue_end
	movq	(%rdi), %rax
	movq	8(%rdi), %rcx
	.loc	15 1223 34 is_stmt 0
	movq	(%rsi), %rdx
	movq	8(%rsi), %rsi
	.loc	15 1223 13
	movq	%rax, %rdi
	movq	%rsi, -24(%rbp)
	movq	%rcx, %rsi
	movq	-24(%rbp), %rcx
	callq	__ZN4core3str6traits54_$LT$impl$u20$core..cmp..PartialEq$u20$for$u20$str$GT$2ne17hbf0e9b164bc40c34E
	movb	%al, -25(%rbp)
	.loc	15 0 13
	movb	-25(%rbp), %al
	.loc	15 1224 10 is_stmt 1
	andb	$1, %al
	movzbl	%al, %eax
	addq	$32, %rsp
	popq	%rbp
	retq
Ltmp96:
Lfunc_end29:
	.cfi_endproc

	.p2align	4, 0x90
__ZN4core3fmt10ArgumentV13new17h95be023087790869E:
Lfunc_begin30:
	.loc	13 281 0
	.cfi_startproc
	pushq	%rbp
	.cfi_def_cfa_offset 16
	.cfi_offset %rbp, -16
	movq	%rsp, %rbp
	.cfi_def_cfa_register %rbp
	subq	$72, %rsp
	movq	%rdi, -32(%rbp)
	movq	%rsi, -24(%rbp)
Ltmp97:
	.loc	13 290 42 prologue_end
	movq	%rsi, -16(%rbp)
	movq	-16(%rbp), %rax
	movq	%rdi, -56(%rbp)
	movq	%rax, -64(%rbp)
	.loc	13 0 42 is_stmt 0
	movq	-56(%rbp), %rax
	.loc	13 290 68
	movq	%rax, -8(%rbp)
	movq	-8(%rbp), %rcx
	movq	%rcx, -72(%rbp)
	.loc	13 0 68
	movq	-72(%rbp), %rax
	.loc	13 290 18
	movq	%rax, -48(%rbp)
	movq	-64(%rbp), %rcx
	movq	%rcx, -40(%rbp)
	.loc	13 291 6 is_stmt 1
	movq	-48(%rbp), %rax
	movq	-40(%rbp), %rdx
	addq	$72, %rsp
	popq	%rbp
	retq
Ltmp98:
Lfunc_end30:
	.cfi_endproc

	.p2align	4, 0x90
__ZN4core3fmt10ArgumentV13new17hb2e433e8866b73bbE:
Lfunc_begin31:
	.loc	13 281 0
	.cfi_startproc
	pushq	%rbp
	.cfi_def_cfa_offset 16
	.cfi_offset %rbp, -16
	movq	%rsp, %rbp
	.cfi_def_cfa_register %rbp
	subq	$72, %rsp
	movq	%rdi, -32(%rbp)
	movq	%rsi, -24(%rbp)
Ltmp99:
	.loc	13 290 42 prologue_end
	movq	%rsi, -16(%rbp)
	movq	-16(%rbp), %rax
	movq	%rdi, -56(%rbp)
	movq	%rax, -64(%rbp)
	.loc	13 0 42 is_stmt 0
	movq	-56(%rbp), %rax
	.loc	13 290 68
	movq	%rax, -8(%rbp)
	movq	-8(%rbp), %rcx
	movq	%rcx, -72(%rbp)
	.loc	13 0 68
	movq	-72(%rbp), %rax
	.loc	13 290 18
	movq	%rax, -48(%rbp)
	movq	-64(%rbp), %rcx
	movq	%rcx, -40(%rbp)
	.loc	13 291 6 is_stmt 1
	movq	-48(%rbp), %rax
	movq	-40(%rbp), %rdx
	addq	$72, %rsp
	popq	%rbp
	retq
Ltmp100:
Lfunc_end31:
	.cfi_endproc

	.p2align	4, 0x90
__ZN4core3fmt10ArgumentV13new17hb8aef5ec3ff55663E:
Lfunc_begin32:
	.loc	13 281 0
	.cfi_startproc
	pushq	%rbp
	.cfi_def_cfa_offset 16
	.cfi_offset %rbp, -16
	movq	%rsp, %rbp
	.cfi_def_cfa_register %rbp
	subq	$72, %rsp
	movq	%rdi, -32(%rbp)
	movq	%rsi, -24(%rbp)
Ltmp101:
	.loc	13 290 42 prologue_end
	movq	%rsi, -16(%rbp)
	movq	-16(%rbp), %rax
	movq	%rdi, -56(%rbp)
	movq	%rax, -64(%rbp)
	.loc	13 0 42 is_stmt 0
	movq	-56(%rbp), %rax
	.loc	13 290 68
	movq	%rax, -8(%rbp)
	movq	-8(%rbp), %rcx
	movq	%rcx, -72(%rbp)
	.loc	13 0 68
	movq	-72(%rbp), %rax
	.loc	13 290 18
	movq	%rax, -48(%rbp)
	movq	-64(%rbp), %rcx
	movq	%rcx, -40(%rbp)
	.loc	13 291 6 is_stmt 1
	movq	-48(%rbp), %rax
	movq	-40(%rbp), %rdx
	addq	$72, %rsp
	popq	%rbp
	retq
Ltmp102:
Lfunc_end32:
	.cfi_endproc

	.p2align	4, 0x90
__ZN4core3fmt9Arguments6new_v117h2fb643a0fcc34f37E:
Lfunc_begin33:
	.loc	13 327 0
	.cfi_startproc
	pushq	%rbp
	.cfi_def_cfa_offset 16
	.cfi_offset %rbp, -16
	movq	%rsp, %rbp
	.cfi_def_cfa_register %rbp
	subq	$48, %rsp
	movq	%rdi, %rax
	movq	%rsi, -32(%rbp)
	movq	%rdx, -24(%rbp)
	movq	%rcx, -16(%rbp)
	movq	%r8, -8(%rbp)
Ltmp103:
	.loc	13 328 34 prologue_end
	movq	$0, -48(%rbp)
	.loc	13 328 9 is_stmt 0
	movq	%rsi, (%rdi)
	movq	%rdx, 8(%rdi)
	movq	-48(%rbp), %rdx
	movq	-40(%rbp), %rsi
	movq	%rdx, 16(%rdi)
	movq	%rsi, 24(%rdi)
	movq	%rcx, 32(%rdi)
	movq	%r8, 40(%rdi)
	.loc	13 329 6 is_stmt 1
	addq	$48, %rsp
	popq	%rbp
	retq
Ltmp104:
Lfunc_end33:
	.cfi_endproc

	.p2align	4, 0x90
__ZN4core3mem11size_of_val17hf971cd864fa9bb2eE:
Lfunc_begin34:
	.file	16 "/rustc/6c8927b0cf80ceee19386026cf9d7fd4fd9d486f/src/libcore/mem/mod.rs"
	.loc	16 335 0
	.cfi_startproc
	pushq	%rbp
	.cfi_def_cfa_offset 16
	.cfi_offset %rbp, -16
	movq	%rsp, %rbp
	.cfi_def_cfa_register %rbp
	subq	$32, %rsp
	movq	%rdi, -24(%rbp)
	movq	%rsi, -16(%rbp)
Ltmp105:
	.loc	16 336 5 prologue_end
	shlq	$0, %rsi
	movq	%rsi, -8(%rbp)
	movq	-8(%rbp), %rax
	movq	%rax, -32(%rbp)
	.loc	16 0 5 is_stmt 0
	movq	-32(%rbp), %rax
	.loc	16 337 2 is_stmt 1
	addq	$32, %rsp
	popq	%rbp
	retq
Ltmp106:
Lfunc_end34:
	.cfi_endproc

	.p2align	4, 0x90
__ZN4core3mem4drop17h181758578003ee56E:
Lfunc_begin35:
	.loc	16 883 0
	.cfi_startproc
	pushq	%rbp
	.cfi_def_cfa_offset 16
	.cfi_offset %rbp, -16
	movq	%rsp, %rbp
	.cfi_def_cfa_register %rbp
Ltmp107:
	.loc	16 883 24 prologue_end
	callq	__ZN4core3ptr13drop_in_place17h0502830a42bfbf40E
Ltmp108:
	.loc	16 883 25 is_stmt 0
	popq	%rbp
	retq
Ltmp109:
Lfunc_end35:
	.cfi_endproc

	.p2align	4, 0x90
__ZN4core3mem4drop17h1abc7715032541d5E:
Lfunc_begin36:
	.loc	16 883 0 is_stmt 1
	.cfi_startproc
	pushq	%rbp
	.cfi_def_cfa_offset 16
	.cfi_offset %rbp, -16
	movq	%rsp, %rbp
	.cfi_def_cfa_register %rbp
Ltmp110:
	.loc	16 883 24 prologue_end
	callq	__ZN4core3ptr13drop_in_place17h61d2f37d929865f0E
Ltmp111:
	.loc	16 883 25 is_stmt 0
	popq	%rbp
	retq
Ltmp112:
Lfunc_end36:
	.cfi_endproc

	.p2align	4, 0x90
__ZN4core3mem4swap17he62099a4503be686E:
Lfunc_begin37:
	.loc	16 686 0 is_stmt 1
	.cfi_startproc
	pushq	%rbp
	.cfi_def_cfa_offset 16
	.cfi_offset %rbp, -16
	movq	%rsp, %rbp
	.cfi_def_cfa_register %rbp
	subq	$16, %rsp
	movq	%rdi, -16(%rbp)
	movq	%rsi, -8(%rbp)
Ltmp113:
	.loc	16 690 9 prologue_end
	callq	__ZN4core3ptr23swap_nonoverlapping_one17hec3d82734a6acf32E
	.loc	16 692 2
	addq	$16, %rsp
	popq	%rbp
	retq
Ltmp114:
Lfunc_end37:
	.cfi_endproc

	.p2align	4, 0x90
__ZN4core3mem4take17hc5555b0c5ba48486E:
Lfunc_begin38:
	.loc	16 750 0
	.cfi_startproc
	pushq	%rbp
	.cfi_def_cfa_offset 16
	.cfi_offset %rbp, -16
	movq	%rsp, %rbp
	.cfi_def_cfa_register %rbp
	subq	$48, %rsp
	movq	%rdi, -8(%rbp)
	movq	%rdi, -16(%rbp)
Ltmp115:
	.loc	16 751 19 prologue_end
	callq	__ZN72_$LT$core..option..Option$LT$T$GT$$u20$as$u20$core..default..Default$GT$7default17hf0f002ab1425f116E
	movq	%rax, -24(%rbp)
	movq	%rdx, -32(%rbp)
	.loc	16 0 19 is_stmt 0
	movq	-16(%rbp), %rdi
	movq	-24(%rbp), %rsi
	movq	-32(%rbp), %rdx
	.loc	16 751 5
	callq	__ZN4core3mem7replace17hd6f6aa8036db2138E
	movq	%rax, -40(%rbp)
	movq	%rdx, -48(%rbp)
	.loc	16 0 5
	movq	-40(%rbp), %rax
	movq	-48(%rbp), %rdx
	.loc	16 752 2 is_stmt 1
	addq	$48, %rsp
	popq	%rbp
	retq
Ltmp116:
Lfunc_end38:
	.cfi_endproc

	.p2align	4, 0x90
__ZN4core3mem6forget17ha51ed1f6f8c28207E:
Lfunc_begin39:
	.loc	16 147 0
	.cfi_startproc
	pushq	%rbp
	.cfi_def_cfa_offset 16
	.cfi_offset %rbp, -16
	movq	%rsp, %rbp
	.cfi_def_cfa_register %rbp
	subq	$24, %rsp
	movq	%rdi, -24(%rbp)
	movq	%rdi, -8(%rbp)
Ltmp117:
	.loc	4 83 9 prologue_end
	movq	%rdi, -16(%rbp)
Ltmp118:
	.loc	16 149 2
	addq	$24, %rsp
	popq	%rbp
	retq
Ltmp119:
Lfunc_end39:
	.cfi_endproc

	.p2align	4, 0x90
__ZN4core3mem7replace17hd6f6aa8036db2138E:
Lfunc_begin40:
	.loc	16 814 0
	.cfi_startproc
	.cfi_personality 155, _rust_eh_personality
	.cfi_lsda 16, Lexception3
	pushq	%rbp
	.cfi_def_cfa_offset 16
	.cfi_offset %rbp, -16
	movq	%rsp, %rbp
	.cfi_def_cfa_register %rbp
	subq	$48, %rsp
	movq	%rsi, -40(%rbp)
	movq	%rdx, -32(%rbp)
	movq	%rdi, -24(%rbp)
Ltmp120:
	leaq	-40(%rbp), %rsi
Ltmp123:
	.loc	16 815 5 prologue_end
	callq	__ZN4core3mem4swap17he62099a4503be686E
Ltmp121:
	jmp	LBB40_2
LBB40_1:
	.loc	16 814 1
	movq	-16(%rbp), %rdi
	callq	__Unwind_Resume
	ud2
LBB40_2:
	.loc	16 816 5
	movq	-40(%rbp), %rax
	movq	-32(%rbp), %rdx
	.loc	16 817 2
	addq	$48, %rsp
	popq	%rbp
	retq
LBB40_3:
	.loc	16 817 1 is_stmt 0
	jmp	LBB40_1
Ltmp124:
LBB40_4:
Ltmp122:
	.loc	16 0 1
	movq	%rax, -16(%rbp)
	movl	%edx, -8(%rbp)
	jmp	LBB40_3
Lfunc_end40:
	.cfi_endproc
	.section	__TEXT,__gcc_except_tab
	.p2align	2
GCC_except_table40:
Lexception3:
	.byte	255
	.byte	255
	.byte	1
	.uleb128 Lcst_end3-Lcst_begin3
Lcst_begin3:
	.uleb128 Ltmp120-Lfunc_begin40
	.uleb128 Ltmp121-Ltmp120
	.uleb128 Ltmp122-Lfunc_begin40
	.byte	0
	.uleb128 Ltmp121-Lfunc_begin40
	.uleb128 Lfunc_end40-Ltmp121
	.byte	0
	.byte	0
Lcst_end3:
	.p2align	2

	.section	__TEXT,__text,regular,pure_instructions
	.p2align	4, 0x90
__ZN4core3num12NonZeroUsize13new_unchecked17he8b46f44db8b3726E:
Lfunc_begin41:
	.file	17 "/rustc/6c8927b0cf80ceee19386026cf9d7fd4fd9d486f/src/libcore/num/mod.rs"
	.loc	17 83 0 is_stmt 1
	.cfi_startproc
	pushq	%rbp
	.cfi_def_cfa_offset 16
	.cfi_offset %rbp, -16
	movq	%rsp, %rbp
	.cfi_def_cfa_register %rbp
	subq	$16, %rsp
	movq	%rdi, -8(%rbp)
Ltmp125:
	.loc	17 85 30 prologue_end
	movq	%rdi, -16(%rbp)
	.loc	17 86 18
	movq	-16(%rbp), %rax
	addq	$16, %rsp
	popq	%rbp
	retq
Ltmp126:
Lfunc_end41:
	.cfi_endproc

	.p2align	4, 0x90
__ZN4core3num12NonZeroUsize3get17hdfdeb107d3f7a41fE:
Lfunc_begin42:
	.loc	17 105 0
	.cfi_startproc
	pushq	%rbp
	.cfi_def_cfa_offset 16
	.cfi_offset %rbp, -16
	movq	%rsp, %rbp
	.cfi_def_cfa_register %rbp
	pushq	%rax
	movq	%rdi, -8(%rbp)
Ltmp127:
	.loc	17 107 18 prologue_end
	movq	%rdi, %rax
	addq	$8, %rsp
	popq	%rbp
	retq
Ltmp128:
Lfunc_end42:
	.cfi_endproc

	.p2align	4, 0x90
__ZN4core3ops8function6FnOnce40call_once$u7b$$u7b$vtable.shim$u7d$$u7d$17hde9f7ed5ac5c739cE:
Lfunc_begin43:
	.file	18 "/rustc/6c8927b0cf80ceee19386026cf9d7fd4fd9d486f/src/libcore/ops/function.rs"
	.loc	18 233 0
	.cfi_startproc
	pushq	%rbp
	.cfi_def_cfa_offset 16
	.cfi_offset %rbp, -16
	movq	%rsp, %rbp
	.cfi_def_cfa_register %rbp
	subq	$32, %rsp
	movq	%rdi, -8(%rbp)
Ltmp129:
	.loc	18 233 5 prologue_end
	movq	(%rdi), %rdi
	callq	__ZN4core3ops8function6FnOnce9call_once17h45c579d6ddfdcd36E
	movl	%eax, -20(%rbp)
	.loc	18 0 5 is_stmt 0
	movl	-20(%rbp), %eax
	.loc	18 233 5
	addq	$32, %rsp
	popq	%rbp
	retq
Ltmp130:
Lfunc_end43:
	.cfi_endproc

	.p2align	4, 0x90
__ZN4core3ops8function6FnOnce9call_once17h45c579d6ddfdcd36E:
Lfunc_begin44:
	.loc	18 233 0 is_stmt 1
	.cfi_startproc
	.cfi_personality 155, _rust_eh_personality
	.cfi_lsda 16, Lexception4
	pushq	%rbp
	.cfi_def_cfa_offset 16
	.cfi_offset %rbp, -16
	movq	%rsp, %rbp
	.cfi_def_cfa_register %rbp
	subq	$48, %rsp
	movq	%rdi, -32(%rbp)
Ltmp131:
	leaq	-32(%rbp), %rdi
Ltmp134:
	.loc	18 233 5 prologue_end
	callq	__ZN3std2rt10lang_start28_$u7b$$u7b$closure$u7d$$u7d$17hb126214f2246e38bE
Ltmp132:
	movl	%eax, -36(%rbp)
	jmp	LBB44_1
LBB44_1:
	jmp	LBB44_2
LBB44_2:
	.loc	18 0 5 is_stmt 0
	movl	-36(%rbp), %eax
	.loc	18 233 5
	addq	$48, %rsp
	popq	%rbp
	retq
LBB44_3:
	jmp	LBB44_4
LBB44_4:
	movq	-16(%rbp), %rdi
	callq	__Unwind_Resume
	ud2
Ltmp135:
LBB44_5:
Ltmp133:
	.loc	18 0 5
	movq	%rax, -16(%rbp)
	movl	%edx, -8(%rbp)
	jmp	LBB44_3
Lfunc_end44:
	.cfi_endproc
	.section	__TEXT,__gcc_except_tab
	.p2align	2
GCC_except_table44:
Lexception4:
	.byte	255
	.byte	255
	.byte	1
	.uleb128 Lcst_end4-Lcst_begin4
Lcst_begin4:
	.uleb128 Ltmp131-Lfunc_begin44
	.uleb128 Ltmp132-Ltmp131
	.uleb128 Ltmp133-Lfunc_begin44
	.byte	0
	.uleb128 Ltmp132-Lfunc_begin44
	.uleb128 Lfunc_end44-Ltmp132
	.byte	0
	.byte	0
Lcst_end4:
	.p2align	2

	.section	__TEXT,__text,regular,pure_instructions
	.p2align	4, 0x90
__ZN4core3ptr13drop_in_place17h011c2f9466d99889E:
Lfunc_begin45:
	.file	19 "/rustc/6c8927b0cf80ceee19386026cf9d7fd4fd9d486f/src/libcore/ptr/mod.rs"
	.loc	19 184 0 is_stmt 1
	.cfi_startproc
	.cfi_personality 155, _rust_eh_personality
	.cfi_lsda 16, Lexception5
	pushq	%rbp
	.cfi_def_cfa_offset 16
	.cfi_offset %rbp, -16
	movq	%rsp, %rbp
	.cfi_def_cfa_register %rbp
	subq	$48, %rsp
	movq	%rdi, -24(%rbp)
Ltmp136:
	movq	%rdi, -40(%rbp)
Ltmp139:
	.loc	19 184 1 prologue_end
	callq	__ZN66_$LT$alloc..vec..Vec$LT$T$GT$$u20$as$u20$core..ops..drop..Drop$GT$4drop17hb995df75d03d6870E
Ltmp137:
	jmp	LBB45_4
LBB45_1:
	movq	-16(%rbp), %rdi
	callq	__Unwind_Resume
	ud2
LBB45_2:
	addq	$48, %rsp
	popq	%rbp
	retq
LBB45_3:
	.loc	19 0 1 is_stmt 0
	movq	-40(%rbp), %rax
	.loc	19 184 1
	movq	%rax, %rdi
	callq	__ZN4core3ptr13drop_in_place17h063905f510edeeaeE
	jmp	LBB45_1
LBB45_4:
	.loc	19 0 1
	movq	-40(%rbp), %rax
	.loc	19 184 1
	movq	%rax, %rdi
	callq	__ZN4core3ptr13drop_in_place17h063905f510edeeaeE
	jmp	LBB45_2
Ltmp140:
LBB45_5:
Ltmp138:
	.loc	19 0 1
	movq	%rax, -16(%rbp)
	movl	%edx, -8(%rbp)
	jmp	LBB45_3
Lfunc_end45:
	.cfi_endproc
	.section	__TEXT,__gcc_except_tab
	.p2align	2
GCC_except_table45:
Lexception5:
	.byte	255
	.byte	255
	.byte	1
	.uleb128 Lcst_end5-Lcst_begin5
Lcst_begin5:
	.uleb128 Ltmp136-Lfunc_begin45
	.uleb128 Ltmp137-Ltmp136
	.uleb128 Ltmp138-Lfunc_begin45
	.byte	0
	.uleb128 Ltmp137-Lfunc_begin45
	.uleb128 Lfunc_end45-Ltmp137
	.byte	0
	.byte	0
Lcst_end5:
	.p2align	2

	.section	__TEXT,__text,regular,pure_instructions
	.p2align	4, 0x90
__ZN4core3ptr13drop_in_place17h0502830a42bfbf40E:
Lfunc_begin46:
	.loc	19 184 0 is_stmt 1
	.cfi_startproc
	.cfi_personality 155, _rust_eh_personality
	.cfi_lsda 16, Lexception6
	pushq	%rbp
	.cfi_def_cfa_offset 16
	.cfi_offset %rbp, -16
	movq	%rsp, %rbp
	.cfi_def_cfa_register %rbp
	subq	$48, %rsp
	movq	%rdi, -24(%rbp)
Ltmp141:
	movq	%rdi, -40(%rbp)
Ltmp144:
	.loc	19 184 1 prologue_end
	callq	__ZN4core3ptr13drop_in_place17h9052c0b311151b34E
Ltmp142:
	jmp	LBB46_4
LBB46_1:
	movq	-16(%rbp), %rdi
	callq	__Unwind_Resume
	ud2
LBB46_2:
	addq	$48, %rsp
	popq	%rbp
	retq
LBB46_3:
	.loc	19 0 1 is_stmt 0
	movq	-40(%rbp), %rax
	.loc	19 184 1
	addq	$24, %rax
	movq	%rax, %rdi
	callq	__ZN4core3ptr13drop_in_place17ha82319c39eb948e1E
	jmp	LBB46_1
LBB46_4:
	.loc	19 0 1
	movq	-40(%rbp), %rax
	.loc	19 184 1
	addq	$24, %rax
	movq	%rax, %rdi
	callq	__ZN4core3ptr13drop_in_place17ha82319c39eb948e1E
	jmp	LBB46_2
Ltmp145:
LBB46_5:
Ltmp143:
	.loc	19 0 1
	movq	%rax, -16(%rbp)
	movl	%edx, -8(%rbp)
	jmp	LBB46_3
Lfunc_end46:
	.cfi_endproc
	.section	__TEXT,__gcc_except_tab
	.p2align	2
GCC_except_table46:
Lexception6:
	.byte	255
	.byte	255
	.byte	1
	.uleb128 Lcst_end6-Lcst_begin6
Lcst_begin6:
	.uleb128 Ltmp141-Lfunc_begin46
	.uleb128 Ltmp142-Ltmp141
	.uleb128 Ltmp143-Lfunc_begin46
	.byte	0
	.uleb128 Ltmp142-Lfunc_begin46
	.uleb128 Lfunc_end46-Ltmp142
	.byte	0
	.byte	0
Lcst_end6:
	.p2align	2

	.section	__TEXT,__text,regular,pure_instructions
	.p2align	4, 0x90
__ZN4core3ptr13drop_in_place17h05ef970e38e9fd9cE:
Lfunc_begin47:
	.loc	19 184 0 is_stmt 1
	.cfi_startproc
	pushq	%rbp
	.cfi_def_cfa_offset 16
	.cfi_offset %rbp, -16
	movq	%rsp, %rbp
	.cfi_def_cfa_register %rbp
	subq	$32, %rsp
	movq	%rdi, -16(%rbp)
	movq	%rsi, -8(%rbp)
Ltmp146:
	.loc	19 184 1 prologue_end
	callq	*(%rsi)
	addq	$32, %rsp
	popq	%rbp
	retq
Ltmp147:
Lfunc_end47:
	.cfi_endproc

	.p2align	4, 0x90
__ZN4core3ptr13drop_in_place17h063905f510edeeaeE:
Lfunc_begin48:
	.loc	19 184 0
	.cfi_startproc
	pushq	%rbp
	.cfi_def_cfa_offset 16
	.cfi_offset %rbp, -16
	movq	%rsp, %rbp
	.cfi_def_cfa_register %rbp
	subq	$16, %rsp
	movq	%rdi, -8(%rbp)
Ltmp148:
	.loc	19 184 1 prologue_end
	callq	__ZN77_$LT$alloc..raw_vec..RawVec$LT$T$C$A$GT$$u20$as$u20$core..ops..drop..Drop$GT$4drop17h7cb9730172897292E
	addq	$16, %rsp
	popq	%rbp
	retq
Ltmp149:
Lfunc_end48:
	.cfi_endproc

	.p2align	4, 0x90
__ZN4core3ptr13drop_in_place17h082768afb6e5024aE:
Lfunc_begin49:
	.loc	19 184 0
	.cfi_startproc
	pushq	%rbp
	.cfi_def_cfa_offset 16
	.cfi_offset %rbp, -16
	movq	%rsp, %rbp
	.cfi_def_cfa_register %rbp
	subq	$32, %rsp
	movq	%rdi, -8(%rbp)
Ltmp150:
	.loc	19 184 1 prologue_end
	movb	(%rdi), %al
	subb	$1, %al
	movq	%rdi, -24(%rbp)
	ja	LBB49_2
	jmp	LBB49_1
LBB49_1:
	addq	$32, %rsp
	popq	%rbp
	retq
LBB49_2:
	.loc	19 0 1 is_stmt 0
	movq	-24(%rbp), %rax
	.loc	19 184 1
	addq	$8, %rax
	movq	%rax, %rdi
	callq	__ZN4core3ptr13drop_in_place17h6e6b7d2df28c3a3bE
	jmp	LBB49_1
Ltmp151:
Lfunc_end49:
	.cfi_endproc

	.p2align	4, 0x90
__ZN4core3ptr13drop_in_place17h0c3c9c22e528504fE:
Lfunc_begin50:
	.loc	19 184 0 is_stmt 1
	.cfi_startproc
	pushq	%rbp
	.cfi_def_cfa_offset 16
	.cfi_offset %rbp, -16
	movq	%rsp, %rbp
	.cfi_def_cfa_register %rbp
	subq	$16, %rsp
	movq	%rdi, -8(%rbp)
Ltmp152:
	.loc	19 184 1 prologue_end
	callq	__ZN4core3ptr13drop_in_place17h011c2f9466d99889E
	addq	$16, %rsp
	popq	%rbp
	retq
Ltmp153:
Lfunc_end50:
	.cfi_endproc

	.p2align	4, 0x90
__ZN4core3ptr13drop_in_place17h107b7a0a8b01a256E:
Lfunc_begin51:
	.loc	19 184 0
	.cfi_startproc
	pushq	%rbp
	.cfi_def_cfa_offset 16
	.cfi_offset %rbp, -16
	movq	%rsp, %rbp
	.cfi_def_cfa_register %rbp
	subq	$16, %rsp
	movq	%rdi, -8(%rbp)
Ltmp154:
	.loc	19 184 1 prologue_end
	callq	__ZN77_$LT$alloc..raw_vec..RawVec$LT$T$C$A$GT$$u20$as$u20$core..ops..drop..Drop$GT$4drop17h5a0ddf288974fdcaE
	addq	$16, %rsp
	popq	%rbp
	retq
Ltmp155:
Lfunc_end51:
	.cfi_endproc

	.p2align	4, 0x90
__ZN4core3ptr13drop_in_place17h228bf8e07a8b9243E:
Lfunc_begin52:
	.loc	19 184 0
	.cfi_startproc
	pushq	%rbp
	.cfi_def_cfa_offset 16
	.cfi_offset %rbp, -16
	movq	%rsp, %rbp
	.cfi_def_cfa_register %rbp
	subq	$16, %rsp
	movq	%rdi, -8(%rbp)
Ltmp156:
	.loc	19 184 1 prologue_end
	callq	__ZN95_$LT$alloc..collections..btree..map..BTreeMap$LT$K$C$V$GT$$u20$as$u20$core..ops..drop..Drop$GT$4drop17h997ded63ab0a7087E
	addq	$16, %rsp
	popq	%rbp
	retq
Ltmp157:
Lfunc_end52:
	.cfi_endproc

	.p2align	4, 0x90
__ZN4core3ptr13drop_in_place17h249aded3fc454acdE:
Lfunc_begin53:
	.loc	19 184 0
	.cfi_startproc
	pushq	%rbp
	.cfi_def_cfa_offset 16
	.cfi_offset %rbp, -16
	movq	%rsp, %rbp
	.cfi_def_cfa_register %rbp
	subq	$32, %rsp
	xorl	%eax, %eax
	movl	%eax, %ecx
	movq	%rdi, -8(%rbp)
Ltmp158:
	.loc	19 184 1 prologue_end
	movl	(%rdi), %eax
	subl	$4, %eax
	cmpl	$0, %eax
	movl	$1, %edx
	cmovbeq	%rcx, %rdx
	cmpq	$0, %rdx
	movq	%rdi, -24(%rbp)
	jne	LBB53_2
LBB53_1:
	addq	$32, %rsp
	popq	%rbp
	retq
LBB53_2:
	.loc	19 0 1 is_stmt 0
	movq	-24(%rbp), %rdi
	.loc	19 184 1
	callq	__ZN4core3ptr13drop_in_place17hb22b843eac386836E
	jmp	LBB53_1
Ltmp159:
Lfunc_end53:
	.cfi_endproc

	.p2align	4, 0x90
__ZN4core3ptr13drop_in_place17h28191d71475b1134E:
Lfunc_begin54:
	.loc	19 184 0 is_stmt 1
	.cfi_startproc
	pushq	%rbp
	.cfi_def_cfa_offset 16
	.cfi_offset %rbp, -16
	movq	%rsp, %rbp
	.cfi_def_cfa_register %rbp
	subq	$16, %rsp
	movq	%rdi, -8(%rbp)
Ltmp160:
	.loc	19 184 1 prologue_end
	callq	__ZN4core3ptr13drop_in_place17h082768afb6e5024aE
	addq	$16, %rsp
	popq	%rbp
	retq
Ltmp161:
Lfunc_end54:
	.cfi_endproc

	.p2align	4, 0x90
__ZN4core3ptr13drop_in_place17h443f962a250ed07bE:
Lfunc_begin55:
	.loc	19 184 0
	.cfi_startproc
	pushq	%rbp
	.cfi_def_cfa_offset 16
	.cfi_offset %rbp, -16
	movq	%rsp, %rbp
	.cfi_def_cfa_register %rbp
	subq	$16, %rsp
	movq	%rdi, -8(%rbp)
Ltmp162:
	.loc	19 184 1 prologue_end
	callq	__ZN4core3ptr13drop_in_place17hffcae152a0c8ea50E
	addq	$16, %rsp
	popq	%rbp
	retq
Ltmp163:
Lfunc_end55:
	.cfi_endproc

	.p2align	4, 0x90
__ZN4core3ptr13drop_in_place17h463f4b9003fea42cE:
Lfunc_begin56:
	.loc	19 184 0
	.cfi_startproc
	.cfi_personality 155, _rust_eh_personality
	.cfi_lsda 16, Lexception7
	pushq	%rbp
	.cfi_def_cfa_offset 16
	.cfi_offset %rbp, -16
	movq	%rsp, %rbp
	.cfi_def_cfa_register %rbp
	subq	$48, %rsp
	movq	%rdi, -24(%rbp)
Ltmp164:
	movq	%rdi, -40(%rbp)
Ltmp167:
	.loc	19 184 1 prologue_end
	callq	__ZN66_$LT$std..ffi..c_str..CString$u20$as$u20$core..ops..drop..Drop$GT$4drop17h8d57981832be143cE
Ltmp165:
	jmp	LBB56_4
LBB56_1:
	movq	-16(%rbp), %rdi
	callq	__Unwind_Resume
	ud2
LBB56_2:
	addq	$48, %rsp
	popq	%rbp
	retq
LBB56_3:
	.loc	19 0 1 is_stmt 0
	movq	-40(%rbp), %rax
	.loc	19 184 1
	movq	%rax, %rdi
	callq	__ZN4core3ptr13drop_in_place17hbf7bb9c90c353b52E
	jmp	LBB56_1
LBB56_4:
	.loc	19 0 1
	movq	-40(%rbp), %rax
	.loc	19 184 1
	movq	%rax, %rdi
	callq	__ZN4core3ptr13drop_in_place17hbf7bb9c90c353b52E
	jmp	LBB56_2
Ltmp168:
LBB56_5:
Ltmp166:
	.loc	19 0 1
	movq	%rax, -16(%rbp)
	movl	%edx, -8(%rbp)
	jmp	LBB56_3
Lfunc_end56:
	.cfi_endproc
	.section	__TEXT,__gcc_except_tab
	.p2align	2
GCC_except_table56:
Lexception7:
	.byte	255
	.byte	255
	.byte	1
	.uleb128 Lcst_end7-Lcst_begin7
Lcst_begin7:
	.uleb128 Ltmp164-Lfunc_begin56
	.uleb128 Ltmp165-Ltmp164
	.uleb128 Ltmp166-Lfunc_begin56
	.byte	0
	.uleb128 Ltmp165-Lfunc_begin56
	.uleb128 Lfunc_end56-Ltmp165
	.byte	0
	.byte	0
Lcst_end7:
	.p2align	2

	.section	__TEXT,__text,regular,pure_instructions
	.p2align	4, 0x90
__ZN4core3ptr13drop_in_place17h53bef79e6867b4dfE:
Lfunc_begin57:
	.loc	19 184 0 is_stmt 1
	.cfi_startproc
	pushq	%rbp
	.cfi_def_cfa_offset 16
	.cfi_offset %rbp, -16
	movq	%rsp, %rbp
	.cfi_def_cfa_register %rbp
	subq	$16, %rsp
	movq	%rdi, -8(%rbp)
Ltmp169:
	.loc	19 184 1 prologue_end
	callq	__ZN77_$LT$alloc..raw_vec..RawVec$LT$T$C$A$GT$$u20$as$u20$core..ops..drop..Drop$GT$4drop17h4bbe94a0617017daE
	addq	$16, %rsp
	popq	%rbp
	retq
Ltmp170:
Lfunc_end57:
	.cfi_endproc

	.p2align	4, 0x90
__ZN4core3ptr13drop_in_place17h61d2f37d929865f0E:
Lfunc_begin58:
	.loc	19 184 0
	.cfi_startproc
	pushq	%rbp
	.cfi_def_cfa_offset 16
	.cfi_offset %rbp, -16
	movq	%rsp, %rbp
	.cfi_def_cfa_register %rbp
	subq	$16, %rsp
	movq	%rdi, -8(%rbp)
Ltmp171:
	.loc	19 184 1 prologue_end
	callq	__ZN95_$LT$alloc..collections..btree..map..IntoIter$LT$K$C$V$GT$$u20$as$u20$core..ops..drop..Drop$GT$4drop17hc8d1a9051cbf6b01E
	addq	$16, %rsp
	popq	%rbp
	retq
Ltmp172:
Lfunc_end58:
	.cfi_endproc

	.p2align	4, 0x90
__ZN4core3ptr13drop_in_place17h68895c584aa8ada9E:
Lfunc_begin59:
	.loc	19 184 0
	.cfi_startproc
	pushq	%rbp
	.cfi_def_cfa_offset 16
	.cfi_offset %rbp, -16
	movq	%rsp, %rbp
	.cfi_def_cfa_register %rbp
	subq	$32, %rsp
	movq	%rdi, -16(%rbp)
	movq	%rsi, -8(%rbp)
Ltmp173:
	.loc	19 184 1 prologue_end
	callq	*(%rsi)
	addq	$32, %rsp
	popq	%rbp
	retq
Ltmp174:
Lfunc_end59:
	.cfi_endproc

	.p2align	4, 0x90
__ZN4core3ptr13drop_in_place17h6e6b7d2df28c3a3bE:
Lfunc_begin60:
	.loc	19 184 0
	.cfi_startproc
	.cfi_personality 155, _rust_eh_personality
	.cfi_lsda 16, Lexception8
	pushq	%rbp
	.cfi_def_cfa_offset 16
	.cfi_offset %rbp, -16
	movq	%rsp, %rbp
	.cfi_def_cfa_register %rbp
	subq	$48, %rsp
	movq	%rdi, -24(%rbp)
Ltmp178:
	.loc	19 184 1 prologue_end
	movq	(%rdi), %rax
Ltmp175:
	movq	%rdi, -40(%rbp)
	movq	%rax, %rdi
	callq	__ZN4core3ptr13drop_in_place17h6e9d5e072b0f16c8E
Ltmp176:
	jmp	LBB60_3
LBB60_1:
	addq	$48, %rsp
	popq	%rbp
	retq
LBB60_2:
	movq	-16(%rbp), %rdi
	callq	__Unwind_Resume
	ud2
LBB60_3:
	.loc	19 0 1 is_stmt 0
	movq	-40(%rbp), %rax
	.loc	19 184 1
	movq	(%rax), %rdi
	callq	__ZN5alloc5alloc8box_free17h318ace9cbcd564a4E
	jmp	LBB60_1
LBB60_4:
	.loc	19 0 1
	movq	-40(%rbp), %rax
	.loc	19 184 1
	movq	(%rax), %rdi
	callq	__ZN5alloc5alloc8box_free17h318ace9cbcd564a4E
	jmp	LBB60_2
Ltmp179:
LBB60_5:
Ltmp177:
	.loc	19 0 1
	movq	%rax, -16(%rbp)
	movl	%edx, -8(%rbp)
	jmp	LBB60_4
Lfunc_end60:
	.cfi_endproc
	.section	__TEXT,__gcc_except_tab
	.p2align	2
GCC_except_table60:
Lexception8:
	.byte	255
	.byte	255
	.byte	1
	.uleb128 Lcst_end8-Lcst_begin8
Lcst_begin8:
	.uleb128 Ltmp175-Lfunc_begin60
	.uleb128 Ltmp176-Ltmp175
	.uleb128 Ltmp177-Lfunc_begin60
	.byte	0
	.uleb128 Ltmp176-Lfunc_begin60
	.uleb128 Lfunc_end60-Ltmp176
	.byte	0
	.byte	0
Lcst_end8:
	.p2align	2

	.section	__TEXT,__text,regular,pure_instructions
	.p2align	4, 0x90
__ZN4core3ptr13drop_in_place17h6e9d5e072b0f16c8E:
Lfunc_begin61:
	.loc	19 184 0 is_stmt 1
	.cfi_startproc
	pushq	%rbp
	.cfi_def_cfa_offset 16
	.cfi_offset %rbp, -16
	movq	%rsp, %rbp
	.cfi_def_cfa_register %rbp
	subq	$16, %rsp
	movq	%rdi, -8(%rbp)
Ltmp180:
	.loc	19 184 1 prologue_end
	callq	__ZN4core3ptr13drop_in_place17h82b049d80b9ec152E
	addq	$16, %rsp
	popq	%rbp
	retq
Ltmp181:
Lfunc_end61:
	.cfi_endproc

	.p2align	4, 0x90
__ZN4core3ptr13drop_in_place17h6f66e09426289a63E:
Lfunc_begin62:
	.loc	19 184 0
	.cfi_startproc
	pushq	%rbp
	.cfi_def_cfa_offset 16
	.cfi_offset %rbp, -16
	movq	%rsp, %rbp
	.cfi_def_cfa_register %rbp
	subq	$16, %rsp
	movq	%rdi, -8(%rbp)
Ltmp182:
	.loc	19 184 1 prologue_end
	callq	__ZN77_$LT$alloc..raw_vec..RawVec$LT$T$C$A$GT$$u20$as$u20$core..ops..drop..Drop$GT$4drop17he32731e824e46760E
	addq	$16, %rsp
	popq	%rbp
	retq
Ltmp183:
Lfunc_end62:
	.cfi_endproc

	.p2align	4, 0x90
__ZN4core3ptr13drop_in_place17h80845d0499b857cbE:
Lfunc_begin63:
	.loc	19 184 0
	.cfi_startproc
	pushq	%rbp
	.cfi_def_cfa_offset 16
	.cfi_offset %rbp, -16
	movq	%rsp, %rbp
	.cfi_def_cfa_register %rbp
	subq	$16, %rsp
	movq	%rdi, -8(%rbp)
Ltmp184:
	.loc	19 184 1 prologue_end
	callq	__ZN70_$LT$std..sys..unix..fd..FileDesc$u20$as$u20$core..ops..drop..Drop$GT$4drop17h633394f1cf9da1c8E
	addq	$16, %rsp
	popq	%rbp
	retq
Ltmp185:
Lfunc_end63:
	.cfi_endproc

	.p2align	4, 0x90
__ZN4core3ptr13drop_in_place17h82b049d80b9ec152E:
Lfunc_begin64:
	.loc	19 184 0
	.cfi_startproc
	.cfi_personality 155, _rust_eh_personality
	.cfi_lsda 16, Lexception9
	pushq	%rbp
	.cfi_def_cfa_offset 16
	.cfi_offset %rbp, -16
	movq	%rsp, %rbp
	.cfi_def_cfa_register %rbp
	subq	$48, %rsp
	movq	%rdi, -24(%rbp)
Ltmp189:
	.loc	19 184 1 prologue_end
	movq	(%rdi), %rax
	movq	8(%rdi), %rcx
	movq	(%rcx), %rcx
Ltmp186:
	movq	%rdi, -40(%rbp)
	movq	%rax, %rdi
	callq	*%rcx
Ltmp187:
	jmp	LBB64_3
LBB64_1:
	addq	$48, %rsp
	popq	%rbp
	retq
LBB64_2:
	movq	-16(%rbp), %rdi
	callq	__Unwind_Resume
	ud2
LBB64_3:
	.loc	19 0 1 is_stmt 0
	movq	-40(%rbp), %rax
	.loc	19 184 1
	movq	(%rax), %rdi
	movq	8(%rax), %rsi
	callq	__ZN5alloc5alloc8box_free17h131235dba3de5a98E
	jmp	LBB64_1
LBB64_4:
	.loc	19 0 1
	movq	-40(%rbp), %rax
	.loc	19 184 1
	movq	(%rax), %rdi
	movq	8(%rax), %rsi
	callq	__ZN5alloc5alloc8box_free17h131235dba3de5a98E
	jmp	LBB64_2
Ltmp190:
LBB64_5:
Ltmp188:
	.loc	19 0 1
	movq	%rax, -16(%rbp)
	movl	%edx, -8(%rbp)
	jmp	LBB64_4
Lfunc_end64:
	.cfi_endproc
	.section	__TEXT,__gcc_except_tab
	.p2align	2
GCC_except_table64:
Lexception9:
	.byte	255
	.byte	255
	.byte	1
	.uleb128 Lcst_end9-Lcst_begin9
Lcst_begin9:
	.uleb128 Ltmp186-Lfunc_begin64
	.uleb128 Ltmp187-Ltmp186
	.uleb128 Ltmp188-Lfunc_begin64
	.byte	0
	.uleb128 Ltmp187-Lfunc_begin64
	.uleb128 Lfunc_end64-Ltmp187
	.byte	0
	.byte	0
Lcst_end9:
	.p2align	2

	.section	__TEXT,__text,regular,pure_instructions
	.p2align	4, 0x90
__ZN4core3ptr13drop_in_place17h83f384144f0ec174E:
Lfunc_begin65:
	.loc	19 184 0 is_stmt 1
	.cfi_startproc
	pushq	%rbp
	.cfi_def_cfa_offset 16
	.cfi_offset %rbp, -16
	movq	%rsp, %rbp
	.cfi_def_cfa_register %rbp
	subq	$16, %rsp
	movq	%rdi, -8(%rbp)
Ltmp191:
	.loc	19 184 1 prologue_end
	addq	$16, %rsp
	popq	%rbp
	retq
Ltmp192:
Lfunc_end65:
	.cfi_endproc

	.p2align	4, 0x90
__ZN4core3ptr13drop_in_place17h88d9fef036d22aaaE:
Lfunc_begin66:
	.loc	19 184 0
	.cfi_startproc
	pushq	%rbp
	.cfi_def_cfa_offset 16
	.cfi_offset %rbp, -16
	movq	%rsp, %rbp
	.cfi_def_cfa_register %rbp
	subq	$16, %rsp
	movq	%rdi, -8(%rbp)
Ltmp193:
	.loc	19 184 1 prologue_end
	callq	__ZN4core3ptr13drop_in_place17hab14644a9c2f92feE
	addq	$16, %rsp
	popq	%rbp
	retq
Ltmp194:
Lfunc_end66:
	.cfi_endproc

	.p2align	4, 0x90
__ZN4core3ptr13drop_in_place17h8fbd173394500f16E:
Lfunc_begin67:
	.loc	19 184 0
	.cfi_startproc
	pushq	%rbp
	.cfi_def_cfa_offset 16
	.cfi_offset %rbp, -16
	movq	%rsp, %rbp
	.cfi_def_cfa_register %rbp
	subq	$32, %rsp
	movq	%rdi, -8(%rbp)
Ltmp195:
	.loc	19 184 1 prologue_end
	cmpq	$0, (%rdi)
	movq	%rdi, -24(%rbp)
	je	LBB67_2
	jmp	LBB67_3
LBB67_1:
	addq	$32, %rsp
	popq	%rbp
	retq
LBB67_2:
	.loc	19 0 1 is_stmt 0
	movq	-24(%rbp), %rax
	.loc	19 184 1
	addq	$8, %rax
	movq	%rax, %rdi
	callq	__ZN4core3ptr13drop_in_place17hcc5be29be3dbb7d6E
	jmp	LBB67_1
LBB67_3:
	.loc	19 0 1
	movq	-24(%rbp), %rax
	.loc	19 184 1
	addq	$8, %rax
	movq	%rax, %rdi
	callq	__ZN4core3ptr13drop_in_place17h0c3c9c22e528504fE
	jmp	LBB67_1
Ltmp196:
Lfunc_end67:
	.cfi_endproc

	.p2align	4, 0x90
__ZN4core3ptr13drop_in_place17h9052c0b311151b34E:
Lfunc_begin68:
	.loc	19 184 0 is_stmt 1
	.cfi_startproc
	pushq	%rbp
	.cfi_def_cfa_offset 16
	.cfi_offset %rbp, -16
	movq	%rsp, %rbp
	.cfi_def_cfa_register %rbp
	subq	$16, %rsp
	movq	%rdi, -8(%rbp)
Ltmp197:
	.loc	19 184 1 prologue_end
	callq	__ZN4core3ptr13drop_in_place17hc5c80e2ce0869fc8E
	addq	$16, %rsp
	popq	%rbp
	retq
Ltmp198:
Lfunc_end68:
	.cfi_endproc

	.p2align	4, 0x90
__ZN4core3ptr13drop_in_place17h977403c58ac7d9bcE:
Lfunc_begin69:
	.loc	19 184 0
	.cfi_startproc
	.cfi_personality 155, _rust_eh_personality
	.cfi_lsda 16, Lexception10
	pushq	%rbp
	.cfi_def_cfa_offset 16
	.cfi_offset %rbp, -16
	movq	%rsp, %rbp
	.cfi_def_cfa_register %rbp
	subq	$80, %rsp
	xorl	%eax, %eax
	movq	%rdi, -32(%rbp)
	movq	%rsi, -24(%rbp)
Ltmp205:
	.loc	19 184 1 prologue_end
	testb	$1, %al
	movq	%rdi, -72(%rbp)
	movq	%rsi, -80(%rbp)
	jne	LBB69_7
	jmp	LBB69_12
LBB69_1:
	addq	$80, %rsp
	popq	%rbp
	retq
LBB69_2:
	movq	-16(%rbp), %rdi
	callq	__Unwind_Resume
	ud2
LBB69_3:
	movq	-56(%rbp), %rax
	shlq	$4, %rax
	movq	-72(%rbp), %rcx
	addq	%rax, %rcx
	movq	-56(%rbp), %rax
	addq	$1, %rax
	movq	%rax, -56(%rbp)
	movq	%rcx, %rdi
	callq	__ZN4core3ptr13drop_in_place17h463f4b9003fea42cE
LBB69_4:
	.loc	19 0 1 is_stmt 0
	movq	-80(%rbp), %rax
	.loc	19 184 1
	cmpq	%rax, -56(%rbp)
	je	LBB69_2
	jmp	LBB69_3
LBB69_5:
	movq	-56(%rbp), %rax
	movq	%rax, %rcx
	shlq	$4, %rcx
	movq	-72(%rbp), %rdx
	addq	%rcx, %rdx
	incq	%rax
	movq	%rax, -56(%rbp)
Ltmp202:
	movq	%rdx, %rdi
	callq	__ZN4core3ptr13drop_in_place17h463f4b9003fea42cE
Ltmp203:
	jmp	LBB69_6
LBB69_6:
	.loc	19 0 1
	movq	-80(%rbp), %rax
	.loc	19 184 1
	cmpq	%rax, -56(%rbp)
	je	LBB69_1
	jmp	LBB69_5
LBB69_7:
	movq	$0, -56(%rbp)
	jmp	LBB69_6
LBB69_8:
	movq	-48(%rbp), %rdi
	movq	-48(%rbp), %rax
	addq	$16, %rax
	movq	%rax, -48(%rbp)
	callq	__ZN4core3ptr13drop_in_place17h463f4b9003fea42cE
LBB69_9:
	movq	-48(%rbp), %rax
	cmpq	-40(%rbp), %rax
	je	LBB69_2
	jmp	LBB69_8
LBB69_10:
	movq	-48(%rbp), %rax
	movq	%rax, %rcx
	addq	$16, %rcx
	movq	%rcx, -48(%rbp)
Ltmp199:
	movq	%rax, %rdi
	callq	__ZN4core3ptr13drop_in_place17h463f4b9003fea42cE
Ltmp200:
	jmp	LBB69_11
LBB69_11:
	movq	-48(%rbp), %rax
	cmpq	-40(%rbp), %rax
	je	LBB69_1
	jmp	LBB69_10
LBB69_12:
	.loc	19 0 1
	movq	-72(%rbp), %rax
	.loc	19 184 1
	movq	%rax, -48(%rbp)
	movq	-80(%rbp), %rax
	shlq	$4, %rax
	addq	-48(%rbp), %rax
	movq	%rax, -40(%rbp)
	jmp	LBB69_11
Ltmp206:
LBB69_13:
Ltmp201:
	.loc	19 0 1
	movq	%rax, -16(%rbp)
	movl	%edx, -8(%rbp)
	jmp	LBB69_9
LBB69_14:
Ltmp204:
	movq	%rax, -16(%rbp)
	movl	%edx, -8(%rbp)
	jmp	LBB69_4
Lfunc_end69:
	.cfi_endproc
	.section	__TEXT,__gcc_except_tab
	.p2align	2
GCC_except_table69:
Lexception10:
	.byte	255
	.byte	255
	.byte	1
	.uleb128 Lcst_end10-Lcst_begin10
Lcst_begin10:
	.uleb128 Lfunc_begin69-Lfunc_begin69
	.uleb128 Ltmp202-Lfunc_begin69
	.byte	0
	.byte	0
	.uleb128 Ltmp202-Lfunc_begin69
	.uleb128 Ltmp203-Ltmp202
	.uleb128 Ltmp204-Lfunc_begin69
	.byte	0
	.uleb128 Ltmp203-Lfunc_begin69
	.uleb128 Ltmp199-Ltmp203
	.byte	0
	.byte	0
	.uleb128 Ltmp199-Lfunc_begin69
	.uleb128 Ltmp200-Ltmp199
	.uleb128 Ltmp201-Lfunc_begin69
	.byte	0
Lcst_end10:
	.p2align	2

	.section	__TEXT,__text,regular,pure_instructions
	.p2align	4, 0x90
__ZN4core3ptr13drop_in_place17ha23d6c07fb8beabaE:
Lfunc_begin70:
	.loc	19 184 0 is_stmt 1
	.cfi_startproc
	.cfi_personality 155, _rust_eh_personality
	.cfi_lsda 16, Lexception11
	pushq	%rbp
	.cfi_def_cfa_offset 16
	.cfi_offset %rbp, -16
	movq	%rsp, %rbp
	.cfi_def_cfa_register %rbp
	subq	$48, %rsp
	movq	%rdi, -24(%rbp)
Ltmp207:
	movq	%rdi, -40(%rbp)
Ltmp210:
	.loc	19 184 1 prologue_end
	callq	__ZN66_$LT$alloc..vec..Vec$LT$T$GT$$u20$as$u20$core..ops..drop..Drop$GT$4drop17h9511256e90a60337E
Ltmp208:
	jmp	LBB70_4
LBB70_1:
	movq	-16(%rbp), %rdi
	callq	__Unwind_Resume
	ud2
LBB70_2:
	addq	$48, %rsp
	popq	%rbp
	retq
LBB70_3:
	.loc	19 0 1 is_stmt 0
	movq	-40(%rbp), %rax
	.loc	19 184 1
	movq	%rax, %rdi
	callq	__ZN4core3ptr13drop_in_place17h6f66e09426289a63E
	jmp	LBB70_1
LBB70_4:
	.loc	19 0 1
	movq	-40(%rbp), %rax
	.loc	19 184 1
	movq	%rax, %rdi
	callq	__ZN4core3ptr13drop_in_place17h6f66e09426289a63E
	jmp	LBB70_2
Ltmp211:
LBB70_5:
Ltmp209:
	.loc	19 0 1
	movq	%rax, -16(%rbp)
	movl	%edx, -8(%rbp)
	jmp	LBB70_3
Lfunc_end70:
	.cfi_endproc
	.section	__TEXT,__gcc_except_tab
	.p2align	2
GCC_except_table70:
Lexception11:
	.byte	255
	.byte	255
	.byte	1
	.uleb128 Lcst_end11-Lcst_begin11
Lcst_begin11:
	.uleb128 Ltmp207-Lfunc_begin70
	.uleb128 Ltmp208-Ltmp207
	.uleb128 Ltmp209-Lfunc_begin70
	.byte	0
	.uleb128 Ltmp208-Lfunc_begin70
	.uleb128 Lfunc_end70-Ltmp208
	.byte	0
	.byte	0
Lcst_end11:
	.p2align	2

	.section	__TEXT,__text,regular,pure_instructions
	.p2align	4, 0x90
__ZN4core3ptr13drop_in_place17ha82319c39eb948e1E:
Lfunc_begin71:
	.loc	19 184 0 is_stmt 1
	.cfi_startproc
	pushq	%rbp
	.cfi_def_cfa_offset 16
	.cfi_offset %rbp, -16
	movq	%rsp, %rbp
	.cfi_def_cfa_register %rbp
	subq	$32, %rsp
	xorl	%eax, %eax
	movl	%eax, %ecx
	movq	%rdi, -8(%rbp)
Ltmp212:
	.loc	19 184 1 prologue_end
	cmpq	$0, (%rdi)
	movl	$1, %edx
	cmovbeq	%rcx, %rdx
	cmpq	$0, %rdx
	movq	%rdi, -24(%rbp)
	jne	LBB71_2
LBB71_1:
	addq	$32, %rsp
	popq	%rbp
	retq
LBB71_2:
	.loc	19 0 1 is_stmt 0
	movq	-24(%rbp), %rax
	.loc	19 184 1
	movq	%rax, %rdi
	callq	__ZN4core3ptr13drop_in_place17h9052c0b311151b34E
	jmp	LBB71_1
Ltmp213:
Lfunc_end71:
	.cfi_endproc

	.p2align	4, 0x90
__ZN4core3ptr13drop_in_place17hab14644a9c2f92feE:
Lfunc_begin72:
	.loc	19 184 0 is_stmt 1
	.cfi_startproc
	.cfi_personality 155, _rust_eh_personality
	.cfi_lsda 16, Lexception12
	pushq	%rbp
	.cfi_def_cfa_offset 16
	.cfi_offset %rbp, -16
	movq	%rsp, %rbp
	.cfi_def_cfa_register %rbp
	subq	$48, %rsp
	movq	%rdi, -24(%rbp)
Ltmp214:
	movq	%rdi, -40(%rbp)
Ltmp238:
	.loc	19 184 1 prologue_end
	callq	__ZN4core3ptr13drop_in_place17h463f4b9003fea42cE
Ltmp215:
	jmp	LBB72_18
LBB72_1:
	movq	-16(%rbp), %rdi
	callq	__Unwind_Resume
	ud2
LBB72_2:
	addq	$48, %rsp
	popq	%rbp
	retq
LBB72_3:
	.loc	19 0 1 is_stmt 0
	movq	-40(%rbp), %rax
	.loc	19 184 1
	addq	$168, %rax
	movq	%rax, %rdi
	callq	__ZN4core3ptr13drop_in_place17h249aded3fc454acdE
	jmp	LBB72_1
LBB72_4:
	.loc	19 0 1
	movq	-40(%rbp), %rax
	.loc	19 184 1
	addq	$160, %rax
	movq	%rax, %rdi
	callq	__ZN4core3ptr13drop_in_place17h249aded3fc454acdE
	jmp	LBB72_3
LBB72_5:
	.loc	19 0 1
	movq	-40(%rbp), %rax
	.loc	19 184 1
	addq	$152, %rax
	movq	%rax, %rdi
	callq	__ZN4core3ptr13drop_in_place17h249aded3fc454acdE
	jmp	LBB72_4
LBB72_6:
	.loc	19 0 1
	movq	-40(%rbp), %rax
	.loc	19 184 1
	addq	$112, %rax
	movq	%rax, %rdi
	callq	__ZN4core3ptr13drop_in_place17hdd017822a0355241E
	jmp	LBB72_5
LBB72_7:
	.loc	19 0 1
	movq	-40(%rbp), %rax
	.loc	19 184 1
	addq	$96, %rax
	movq	%rax, %rdi
	callq	__ZN4core3ptr13drop_in_place17he975a5a6a3f1fde0E
	jmp	LBB72_6
LBB72_8:
	.loc	19 0 1
	movq	-40(%rbp), %rax
	.loc	19 184 1
	addq	$64, %rax
	movq	%rax, %rdi
	callq	__ZN4core3ptr13drop_in_place17hc13baa52740cd86cE
	jmp	LBB72_7
LBB72_9:
	.loc	19 0 1
	movq	-40(%rbp), %rax
	.loc	19 184 1
	addq	$40, %rax
	movq	%rax, %rdi
	callq	__ZN4core3ptr13drop_in_place17h443f962a250ed07bE
	jmp	LBB72_8
LBB72_10:
	.loc	19 0 1
	movq	-40(%rbp), %rax
	.loc	19 184 1
	addq	$16, %rax
	movq	%rax, %rdi
	callq	__ZN4core3ptr13drop_in_place17ha23d6c07fb8beabaE
	jmp	LBB72_9
LBB72_11:
	.loc	19 0 1
	movq	-40(%rbp), %rax
	.loc	19 184 1
	addq	$168, %rax
	movq	%rax, %rdi
	callq	__ZN4core3ptr13drop_in_place17h249aded3fc454acdE
	jmp	LBB72_2
LBB72_12:
	.loc	19 0 1
	movq	-40(%rbp), %rax
	.loc	19 184 1
	addq	$160, %rax
Ltmp235:
	movq	%rax, %rdi
	callq	__ZN4core3ptr13drop_in_place17h249aded3fc454acdE
Ltmp236:
	jmp	LBB72_11
LBB72_13:
	.loc	19 0 1
	movq	-40(%rbp), %rax
	.loc	19 184 1
	addq	$152, %rax
Ltmp232:
	movq	%rax, %rdi
	callq	__ZN4core3ptr13drop_in_place17h249aded3fc454acdE
Ltmp233:
	jmp	LBB72_12
LBB72_14:
	.loc	19 0 1
	movq	-40(%rbp), %rax
	.loc	19 184 1
	addq	$112, %rax
Ltmp229:
	movq	%rax, %rdi
	callq	__ZN4core3ptr13drop_in_place17hdd017822a0355241E
Ltmp230:
	jmp	LBB72_13
LBB72_15:
	.loc	19 0 1
	movq	-40(%rbp), %rax
	.loc	19 184 1
	addq	$96, %rax
Ltmp226:
	movq	%rax, %rdi
	callq	__ZN4core3ptr13drop_in_place17he975a5a6a3f1fde0E
Ltmp227:
	jmp	LBB72_14
LBB72_16:
	.loc	19 0 1
	movq	-40(%rbp), %rax
	.loc	19 184 1
	addq	$64, %rax
Ltmp223:
	movq	%rax, %rdi
	callq	__ZN4core3ptr13drop_in_place17hc13baa52740cd86cE
Ltmp224:
	jmp	LBB72_15
LBB72_17:
	.loc	19 0 1
	movq	-40(%rbp), %rax
	.loc	19 184 1
	addq	$40, %rax
Ltmp220:
	movq	%rax, %rdi
	callq	__ZN4core3ptr13drop_in_place17h443f962a250ed07bE
Ltmp221:
	jmp	LBB72_16
LBB72_18:
	.loc	19 0 1
	movq	-40(%rbp), %rax
	.loc	19 184 1
	addq	$16, %rax
Ltmp217:
	movq	%rax, %rdi
	callq	__ZN4core3ptr13drop_in_place17ha23d6c07fb8beabaE
Ltmp218:
	jmp	LBB72_17
Ltmp239:
LBB72_19:
Ltmp216:
	.loc	19 0 1
	movq	%rax, -16(%rbp)
	movl	%edx, -8(%rbp)
	jmp	LBB72_10
LBB72_20:
Ltmp219:
	movq	%rax, -16(%rbp)
	movl	%edx, -8(%rbp)
	jmp	LBB72_9
LBB72_21:
Ltmp222:
	movq	%rax, -16(%rbp)
	movl	%edx, -8(%rbp)
	jmp	LBB72_8
LBB72_22:
Ltmp225:
	movq	%rax, -16(%rbp)
	movl	%edx, -8(%rbp)
	jmp	LBB72_7
LBB72_23:
Ltmp228:
	movq	%rax, -16(%rbp)
	movl	%edx, -8(%rbp)
	jmp	LBB72_6
LBB72_24:
Ltmp231:
	movq	%rax, -16(%rbp)
	movl	%edx, -8(%rbp)
	jmp	LBB72_5
LBB72_25:
Ltmp234:
	movq	%rax, -16(%rbp)
	movl	%edx, -8(%rbp)
	jmp	LBB72_4
LBB72_26:
Ltmp237:
	movq	%rax, -16(%rbp)
	movl	%edx, -8(%rbp)
	jmp	LBB72_3
Lfunc_end72:
	.cfi_endproc
	.section	__TEXT,__gcc_except_tab
	.p2align	2
GCC_except_table72:
Lexception12:
	.byte	255
	.byte	255
	.byte	1
	.uleb128 Lcst_end12-Lcst_begin12
Lcst_begin12:
	.uleb128 Ltmp214-Lfunc_begin72
	.uleb128 Ltmp215-Ltmp214
	.uleb128 Ltmp216-Lfunc_begin72
	.byte	0
	.uleb128 Ltmp215-Lfunc_begin72
	.uleb128 Ltmp235-Ltmp215
	.byte	0
	.byte	0
	.uleb128 Ltmp235-Lfunc_begin72
	.uleb128 Ltmp236-Ltmp235
	.uleb128 Ltmp237-Lfunc_begin72
	.byte	0
	.uleb128 Ltmp232-Lfunc_begin72
	.uleb128 Ltmp233-Ltmp232
	.uleb128 Ltmp234-Lfunc_begin72
	.byte	0
	.uleb128 Ltmp229-Lfunc_begin72
	.uleb128 Ltmp230-Ltmp229
	.uleb128 Ltmp231-Lfunc_begin72
	.byte	0
	.uleb128 Ltmp226-Lfunc_begin72
	.uleb128 Ltmp227-Ltmp226
	.uleb128 Ltmp228-Lfunc_begin72
	.byte	0
	.uleb128 Ltmp223-Lfunc_begin72
	.uleb128 Ltmp224-Ltmp223
	.uleb128 Ltmp225-Lfunc_begin72
	.byte	0
	.uleb128 Ltmp220-Lfunc_begin72
	.uleb128 Ltmp221-Ltmp220
	.uleb128 Ltmp222-Lfunc_begin72
	.byte	0
	.uleb128 Ltmp217-Lfunc_begin72
	.uleb128 Ltmp218-Ltmp217
	.uleb128 Ltmp219-Lfunc_begin72
	.byte	0
Lcst_end12:
	.p2align	2

	.section	__TEXT,__text,regular,pure_instructions
	.p2align	4, 0x90
__ZN4core3ptr13drop_in_place17hae9b38ad67a8c383E:
Lfunc_begin73:
	.loc	19 184 0 is_stmt 1
	.cfi_startproc
	pushq	%rbp
	.cfi_def_cfa_offset 16
	.cfi_offset %rbp, -16
	movq	%rsp, %rbp
	.cfi_def_cfa_register %rbp
	subq	$16, %rsp
	movq	%rdi, -8(%rbp)
Ltmp240:
	.loc	19 184 1 prologue_end
	callq	__ZN166_$LT$$LT$alloc..collections..btree..map..IntoIter$LT$K$C$V$GT$$u20$as$u20$core..ops..drop..Drop$GT$..drop..DropGuard$LT$K$C$V$GT$$u20$as$u20$core..ops..drop..Drop$GT$4drop17h1373e80bd375b352E
	addq	$16, %rsp
	popq	%rbp
	retq
Ltmp241:
Lfunc_end73:
	.cfi_endproc

	.p2align	4, 0x90
__ZN4core3ptr13drop_in_place17hb1796d673c18e9fdE:
Lfunc_begin74:
	.loc	19 184 0
	.cfi_startproc
	pushq	%rbp
	.cfi_def_cfa_offset 16
	.cfi_offset %rbp, -16
	movq	%rsp, %rbp
	.cfi_def_cfa_register %rbp
	subq	$32, %rsp
	xorl	%eax, %eax
	movl	%eax, %ecx
	movq	%rdi, -8(%rbp)
Ltmp242:
	.loc	19 184 1 prologue_end
	cmpq	$0, (%rdi)
	movl	$1, %edx
	cmovbeq	%rcx, %rdx
	cmpq	$0, %rdx
	movq	%rdi, -24(%rbp)
	jne	LBB74_2
LBB74_1:
	addq	$32, %rsp
	popq	%rbp
	retq
LBB74_2:
	.loc	19 0 1 is_stmt 0
	movq	-24(%rbp), %rax
	.loc	19 184 1
	movq	%rax, %rdi
	callq	__ZN4core3ptr13drop_in_place17h0502830a42bfbf40E
	jmp	LBB74_1
Ltmp243:
Lfunc_end74:
	.cfi_endproc

	.p2align	4, 0x90
__ZN4core3ptr13drop_in_place17hb22b843eac386836E:
Lfunc_begin75:
	.loc	19 184 0 is_stmt 1
	.cfi_startproc
	pushq	%rbp
	.cfi_def_cfa_offset 16
	.cfi_offset %rbp, -16
	movq	%rsp, %rbp
	.cfi_def_cfa_register %rbp
	subq	$32, %rsp
	movq	%rdi, -8(%rbp)
Ltmp244:
	.loc	19 184 1 prologue_end
	movl	(%rdi), %eax
	subl	$2, %eax
	movq	%rdi, -24(%rbp)
	ja	LBB75_2
	jmp	LBB75_1
LBB75_1:
	addq	$32, %rsp
	popq	%rbp
	retq
LBB75_2:
	.loc	19 0 1 is_stmt 0
	movq	-24(%rbp), %rax
	.loc	19 184 1
	addq	$4, %rax
	movq	%rax, %rdi
	callq	__ZN4core3ptr13drop_in_place17h80845d0499b857cbE
	jmp	LBB75_1
Ltmp245:
Lfunc_end75:
	.cfi_endproc

	.p2align	4, 0x90
__ZN4core3ptr13drop_in_place17hbf7bb9c90c353b52E:
Lfunc_begin76:
	.loc	19 184 0 is_stmt 1
	.cfi_startproc
	pushq	%rbp
	.cfi_def_cfa_offset 16
	.cfi_offset %rbp, -16
	movq	%rsp, %rbp
	.cfi_def_cfa_register %rbp
	subq	$48, %rsp
	movq	%rdi, -24(%rbp)
	movq	%rdi, -40(%rbp)
Ltmp246:
	.loc	19 184 1 prologue_end
	jmp	LBB76_2
LBB76_1:
	addq	$48, %rsp
	popq	%rbp
	retq
LBB76_2:
	.loc	19 0 1 is_stmt 0
	movq	-40(%rbp), %rax
	.loc	19 184 1
	movq	(%rax), %rdi
	movq	8(%rax), %rsi
	callq	__ZN5alloc5alloc8box_free17h573e534017018bfeE
	jmp	LBB76_1
Ltmp247:
Lfunc_end76:
	.cfi_endproc

	.p2align	4, 0x90
__ZN4core3ptr13drop_in_place17hc13baa52740cd86cE:
Lfunc_begin77:
	.loc	19 184 0 is_stmt 1
	.cfi_startproc
	pushq	%rbp
	.cfi_def_cfa_offset 16
	.cfi_offset %rbp, -16
	movq	%rsp, %rbp
	.cfi_def_cfa_register %rbp
	subq	$16, %rsp
	movq	%rdi, -8(%rbp)
Ltmp248:
	.loc	19 184 1 prologue_end
	callq	__ZN4core3ptr13drop_in_place17h228bf8e07a8b9243E
	addq	$16, %rsp
	popq	%rbp
	retq
Ltmp249:
Lfunc_end77:
	.cfi_endproc

	.p2align	4, 0x90
__ZN4core3ptr13drop_in_place17hc5c80e2ce0869fc8E:
Lfunc_begin78:
	.loc	19 184 0
	.cfi_startproc
	pushq	%rbp
	.cfi_def_cfa_offset 16
	.cfi_offset %rbp, -16
	movq	%rsp, %rbp
	.cfi_def_cfa_register %rbp
	subq	$16, %rsp
	movq	%rdi, -8(%rbp)
Ltmp250:
	.loc	19 184 1 prologue_end
	callq	__ZN4core3ptr13drop_in_place17h011c2f9466d99889E
	addq	$16, %rsp
	popq	%rbp
	retq
Ltmp251:
Lfunc_end78:
	.cfi_endproc

	.p2align	4, 0x90
__ZN4core3ptr13drop_in_place17hc9161b294206aecbE:
Lfunc_begin79:
	.loc	19 184 0
	.cfi_startproc
	.cfi_personality 155, _rust_eh_personality
	.cfi_lsda 16, Lexception13
	pushq	%rbp
	.cfi_def_cfa_offset 16
	.cfi_offset %rbp, -16
	movq	%rsp, %rbp
	.cfi_def_cfa_register %rbp
	subq	$48, %rsp
	movq	%rdi, -24(%rbp)
Ltmp255:
	.loc	19 184 1 prologue_end
	movq	(%rdi), %rax
	movq	8(%rdi), %rcx
	movq	(%rcx), %rcx
Ltmp252:
	movq	%rdi, -40(%rbp)
	movq	%rax, %rdi
	callq	*%rcx
Ltmp253:
	jmp	LBB79_3
LBB79_1:
	addq	$48, %rsp
	popq	%rbp
	retq
LBB79_2:
	movq	-16(%rbp), %rdi
	callq	__Unwind_Resume
	ud2
LBB79_3:
	.loc	19 0 1 is_stmt 0
	movq	-40(%rbp), %rax
	.loc	19 184 1
	movq	(%rax), %rdi
	movq	8(%rax), %rsi
	callq	__ZN5alloc5alloc8box_free17hdfa32dd408b7ab2aE
	jmp	LBB79_1
LBB79_4:
	.loc	19 0 1
	movq	-40(%rbp), %rax
	.loc	19 184 1
	movq	(%rax), %rdi
	movq	8(%rax), %rsi
	callq	__ZN5alloc5alloc8box_free17hdfa32dd408b7ab2aE
	jmp	LBB79_2
Ltmp256:
LBB79_5:
Ltmp254:
	.loc	19 0 1
	movq	%rax, -16(%rbp)
	movl	%edx, -8(%rbp)
	jmp	LBB79_4
Lfunc_end79:
	.cfi_endproc
	.section	__TEXT,__gcc_except_tab
	.p2align	2
GCC_except_table79:
Lexception13:
	.byte	255
	.byte	255
	.byte	1
	.uleb128 Lcst_end13-Lcst_begin13
Lcst_begin13:
	.uleb128 Ltmp252-Lfunc_begin79
	.uleb128 Ltmp253-Ltmp252
	.uleb128 Ltmp254-Lfunc_begin79
	.byte	0
	.uleb128 Ltmp253-Lfunc_begin79
	.uleb128 Lfunc_end79-Ltmp253
	.byte	0
	.byte	0
Lcst_end13:
	.p2align	2

	.section	__TEXT,__text,regular,pure_instructions
	.p2align	4, 0x90
__ZN4core3ptr13drop_in_place17hca713b5923b46fe8E:
Lfunc_begin80:
	.loc	19 184 0 is_stmt 1
	.cfi_startproc
	pushq	%rbp
	.cfi_def_cfa_offset 16
	.cfi_offset %rbp, -16
	movq	%rsp, %rbp
	.cfi_def_cfa_register %rbp
	subq	$32, %rsp
	movq	%rdi, -8(%rbp)
Ltmp257:
	.loc	19 184 1 prologue_end
	cmpq	$0, (%rdi)
	movq	%rdi, -24(%rbp)
	je	LBB80_2
	jmp	LBB80_3
LBB80_1:
	addq	$32, %rsp
	popq	%rbp
	retq
LBB80_2:
	.loc	19 0 1 is_stmt 0
	movq	-24(%rbp), %rax
	.loc	19 184 1
	addq	$8, %rax
	movq	%rax, %rdi
	callq	__ZN4core3ptr13drop_in_place17hec04fb3a8f172ee4E
	jmp	LBB80_1
LBB80_3:
	.loc	19 0 1
	movq	-24(%rbp), %rax
	.loc	19 184 1
	addq	$8, %rax
	movq	%rax, %rdi
	callq	__ZN4core3ptr13drop_in_place17h28191d71475b1134E
	jmp	LBB80_1
Ltmp258:
Lfunc_end80:
	.cfi_endproc

	.p2align	4, 0x90
__ZN4core3ptr13drop_in_place17hcc5be29be3dbb7d6E:
Lfunc_begin81:
	.loc	19 184 0 is_stmt 1
	.cfi_startproc
	pushq	%rbp
	.cfi_def_cfa_offset 16
	.cfi_offset %rbp, -16
	movq	%rsp, %rbp
	.cfi_def_cfa_register %rbp
	subq	$16, %rsp
	movq	%rdi, -8(%rbp)
Ltmp259:
	.loc	19 184 1 prologue_end
	callq	__ZN4core3ptr13drop_in_place17h011c2f9466d99889E
	addq	$16, %rsp
	popq	%rbp
	retq
Ltmp260:
Lfunc_end81:
	.cfi_endproc

	.p2align	4, 0x90
__ZN4core3ptr13drop_in_place17hdd017822a0355241E:
Lfunc_begin82:
	.loc	19 184 0
	.cfi_startproc
	.cfi_personality 155, _rust_eh_personality
	.cfi_lsda 16, Lexception14
	pushq	%rbp
	.cfi_def_cfa_offset 16
	.cfi_offset %rbp, -16
	movq	%rsp, %rbp
	.cfi_def_cfa_register %rbp
	subq	$48, %rsp
	movq	%rdi, -24(%rbp)
Ltmp261:
	movq	%rdi, -40(%rbp)
Ltmp264:
	.loc	19 184 1 prologue_end
	callq	__ZN66_$LT$alloc..vec..Vec$LT$T$GT$$u20$as$u20$core..ops..drop..Drop$GT$4drop17h676c05fabdc48155E
Ltmp262:
	jmp	LBB82_4
LBB82_1:
	movq	-16(%rbp), %rdi
	callq	__Unwind_Resume
	ud2
LBB82_2:
	addq	$48, %rsp
	popq	%rbp
	retq
LBB82_3:
	.loc	19 0 1 is_stmt 0
	movq	-40(%rbp), %rax
	.loc	19 184 1
	movq	%rax, %rdi
	callq	__ZN4core3ptr13drop_in_place17h107b7a0a8b01a256E
	jmp	LBB82_1
LBB82_4:
	.loc	19 0 1
	movq	-40(%rbp), %rax
	.loc	19 184 1
	movq	%rax, %rdi
	callq	__ZN4core3ptr13drop_in_place17h107b7a0a8b01a256E
	jmp	LBB82_2
Ltmp265:
LBB82_5:
Ltmp263:
	.loc	19 0 1
	movq	%rax, -16(%rbp)
	movl	%edx, -8(%rbp)
	jmp	LBB82_3
Lfunc_end82:
	.cfi_endproc
	.section	__TEXT,__gcc_except_tab
	.p2align	2
GCC_except_table82:
Lexception14:
	.byte	255
	.byte	255
	.byte	1
	.uleb128 Lcst_end14-Lcst_begin14
Lcst_begin14:
	.uleb128 Ltmp261-Lfunc_begin82
	.uleb128 Ltmp262-Ltmp261
	.uleb128 Ltmp263-Lfunc_begin82
	.byte	0
	.uleb128 Ltmp262-Lfunc_begin82
	.uleb128 Lfunc_end82-Ltmp262
	.byte	0
	.byte	0
Lcst_end14:
	.p2align	2

	.section	__TEXT,__text,regular,pure_instructions
	.p2align	4, 0x90
__ZN4core3ptr13drop_in_place17hdf90636b15ee8aa3E:
Lfunc_begin83:
	.loc	19 184 0 is_stmt 1
	.cfi_startproc
	.cfi_personality 155, _rust_eh_personality
	.cfi_lsda 16, Lexception15
	pushq	%rbp
	.cfi_def_cfa_offset 16
	.cfi_offset %rbp, -16
	movq	%rsp, %rbp
	.cfi_def_cfa_register %rbp
	subq	$80, %rsp
	xorl	%eax, %eax
	movq	%rdi, -32(%rbp)
	movq	%rsi, -24(%rbp)
Ltmp272:
	.loc	19 184 1 prologue_end
	testb	$1, %al
	movq	%rdi, -72(%rbp)
	movq	%rsi, -80(%rbp)
	jne	LBB83_7
	jmp	LBB83_12
LBB83_1:
	addq	$80, %rsp
	popq	%rbp
	retq
LBB83_2:
	movq	-16(%rbp), %rdi
	callq	__Unwind_Resume
	ud2
LBB83_3:
	movq	-56(%rbp), %rax
	shlq	$4, %rax
	movq	-72(%rbp), %rcx
	addq	%rax, %rcx
	movq	-56(%rbp), %rax
	addq	$1, %rax
	movq	%rax, -56(%rbp)
	movq	%rcx, %rdi
	callq	__ZN4core3ptr13drop_in_place17hc9161b294206aecbE
LBB83_4:
	.loc	19 0 1 is_stmt 0
	movq	-80(%rbp), %rax
	.loc	19 184 1
	cmpq	%rax, -56(%rbp)
	je	LBB83_2
	jmp	LBB83_3
LBB83_5:
	movq	-56(%rbp), %rax
	movq	%rax, %rcx
	shlq	$4, %rcx
	movq	-72(%rbp), %rdx
	addq	%rcx, %rdx
	incq	%rax
	movq	%rax, -56(%rbp)
Ltmp269:
	movq	%rdx, %rdi
	callq	__ZN4core3ptr13drop_in_place17hc9161b294206aecbE
Ltmp270:
	jmp	LBB83_6
LBB83_6:
	.loc	19 0 1
	movq	-80(%rbp), %rax
	.loc	19 184 1
	cmpq	%rax, -56(%rbp)
	je	LBB83_1
	jmp	LBB83_5
LBB83_7:
	movq	$0, -56(%rbp)
	jmp	LBB83_6
LBB83_8:
	movq	-48(%rbp), %rdi
	movq	-48(%rbp), %rax
	addq	$16, %rax
	movq	%rax, -48(%rbp)
	callq	__ZN4core3ptr13drop_in_place17hc9161b294206aecbE
LBB83_9:
	movq	-48(%rbp), %rax
	cmpq	-40(%rbp), %rax
	je	LBB83_2
	jmp	LBB83_8
LBB83_10:
	movq	-48(%rbp), %rax
	movq	%rax, %rcx
	addq	$16, %rcx
	movq	%rcx, -48(%rbp)
Ltmp266:
	movq	%rax, %rdi
	callq	__ZN4core3ptr13drop_in_place17hc9161b294206aecbE
Ltmp267:
	jmp	LBB83_11
LBB83_11:
	movq	-48(%rbp), %rax
	cmpq	-40(%rbp), %rax
	je	LBB83_1
	jmp	LBB83_10
LBB83_12:
	.loc	19 0 1
	movq	-72(%rbp), %rax
	.loc	19 184 1
	movq	%rax, -48(%rbp)
	movq	-80(%rbp), %rax
	shlq	$4, %rax
	addq	-48(%rbp), %rax
	movq	%rax, -40(%rbp)
	jmp	LBB83_11
Ltmp273:
LBB83_13:
Ltmp268:
	.loc	19 0 1
	movq	%rax, -16(%rbp)
	movl	%edx, -8(%rbp)
	jmp	LBB83_9
LBB83_14:
Ltmp271:
	movq	%rax, -16(%rbp)
	movl	%edx, -8(%rbp)
	jmp	LBB83_4
Lfunc_end83:
	.cfi_endproc
	.section	__TEXT,__gcc_except_tab
	.p2align	2
GCC_except_table83:
Lexception15:
	.byte	255
	.byte	255
	.byte	1
	.uleb128 Lcst_end15-Lcst_begin15
Lcst_begin15:
	.uleb128 Lfunc_begin83-Lfunc_begin83
	.uleb128 Ltmp269-Lfunc_begin83
	.byte	0
	.byte	0
	.uleb128 Ltmp269-Lfunc_begin83
	.uleb128 Ltmp270-Ltmp269
	.uleb128 Ltmp271-Lfunc_begin83
	.byte	0
	.uleb128 Ltmp270-Lfunc_begin83
	.uleb128 Ltmp266-Ltmp270
	.byte	0
	.byte	0
	.uleb128 Ltmp266-Lfunc_begin83
	.uleb128 Ltmp267-Ltmp266
	.uleb128 Ltmp268-Lfunc_begin83
	.byte	0
Lcst_end15:
	.p2align	2

	.section	__TEXT,__text,regular,pure_instructions
	.p2align	4, 0x90
__ZN4core3ptr13drop_in_place17he975a5a6a3f1fde0E:
Lfunc_begin84:
	.loc	19 184 0 is_stmt 1
	.cfi_startproc
	pushq	%rbp
	.cfi_def_cfa_offset 16
	.cfi_offset %rbp, -16
	movq	%rsp, %rbp
	.cfi_def_cfa_register %rbp
	subq	$32, %rsp
	xorl	%eax, %eax
	movl	%eax, %ecx
	movq	%rdi, -8(%rbp)
Ltmp274:
	.loc	19 184 1 prologue_end
	cmpq	$0, (%rdi)
	movl	$1, %edx
	cmovbeq	%rcx, %rdx
	cmpq	$0, %rdx
	movq	%rdi, -24(%rbp)
	jne	LBB84_2
LBB84_1:
	addq	$32, %rsp
	popq	%rbp
	retq
LBB84_2:
	.loc	19 0 1 is_stmt 0
	movq	-24(%rbp), %rdi
	.loc	19 184 1
	callq	__ZN4core3ptr13drop_in_place17h463f4b9003fea42cE
	jmp	LBB84_1
Ltmp275:
Lfunc_end84:
	.cfi_endproc

	.p2align	4, 0x90
__ZN4core3ptr13drop_in_place17hec04fb3a8f172ee4E:
Lfunc_begin85:
	.loc	19 184 0 is_stmt 1
	.cfi_startproc
	.cfi_personality 155, _rust_eh_personality
	.cfi_lsda 16, Lexception16
	pushq	%rbp
	.cfi_def_cfa_offset 16
	.cfi_offset %rbp, -16
	movq	%rsp, %rbp
	.cfi_def_cfa_register %rbp
	subq	$48, %rsp
	movq	%rdi, -24(%rbp)
Ltmp276:
	movq	%rdi, -40(%rbp)
Ltmp279:
	.loc	19 184 1 prologue_end
	callq	__ZN4core3ptr13drop_in_place17h011c2f9466d99889E
Ltmp277:
	jmp	LBB85_4
LBB85_1:
	movq	-16(%rbp), %rdi
	callq	__Unwind_Resume
	ud2
LBB85_2:
	addq	$48, %rsp
	popq	%rbp
	retq
LBB85_3:
	.loc	19 0 1 is_stmt 0
	movq	-40(%rbp), %rax
	.loc	19 184 1
	addq	$24, %rax
	movq	%rax, %rdi
	callq	__ZN4core3ptr13drop_in_place17h011c2f9466d99889E
	jmp	LBB85_1
LBB85_4:
	.loc	19 0 1
	movq	-40(%rbp), %rax
	.loc	19 184 1
	addq	$24, %rax
	movq	%rax, %rdi
	callq	__ZN4core3ptr13drop_in_place17h011c2f9466d99889E
	jmp	LBB85_2
Ltmp280:
LBB85_5:
Ltmp278:
	.loc	19 0 1
	movq	%rax, -16(%rbp)
	movl	%edx, -8(%rbp)
	jmp	LBB85_3
Lfunc_end85:
	.cfi_endproc
	.section	__TEXT,__gcc_except_tab
	.p2align	2
GCC_except_table85:
Lexception16:
	.byte	255
	.byte	255
	.byte	1
	.uleb128 Lcst_end16-Lcst_begin16
Lcst_begin16:
	.uleb128 Ltmp276-Lfunc_begin85
	.uleb128 Ltmp277-Ltmp276
	.uleb128 Ltmp278-Lfunc_begin85
	.byte	0
	.uleb128 Ltmp277-Lfunc_begin85
	.uleb128 Lfunc_end85-Ltmp277
	.byte	0
	.byte	0
Lcst_end16:
	.p2align	2

	.section	__TEXT,__text,regular,pure_instructions
	.p2align	4, 0x90
__ZN4core3ptr13drop_in_place17hffcae152a0c8ea50E:
Lfunc_begin86:
	.loc	19 184 0 is_stmt 1
	.cfi_startproc
	.cfi_personality 155, _rust_eh_personality
	.cfi_lsda 16, Lexception17
	pushq	%rbp
	.cfi_def_cfa_offset 16
	.cfi_offset %rbp, -16
	movq	%rsp, %rbp
	.cfi_def_cfa_register %rbp
	subq	$48, %rsp
	movq	%rdi, -24(%rbp)
Ltmp281:
	movq	%rdi, -40(%rbp)
Ltmp284:
	.loc	19 184 1 prologue_end
	callq	__ZN66_$LT$alloc..vec..Vec$LT$T$GT$$u20$as$u20$core..ops..drop..Drop$GT$4drop17h7ed173e0b7ce2a85E
Ltmp282:
	jmp	LBB86_4
LBB86_1:
	movq	-16(%rbp), %rdi
	callq	__Unwind_Resume
	ud2
LBB86_2:
	addq	$48, %rsp
	popq	%rbp
	retq
LBB86_3:
	.loc	19 0 1 is_stmt 0
	movq	-40(%rbp), %rax
	.loc	19 184 1
	movq	%rax, %rdi
	callq	__ZN4core3ptr13drop_in_place17h53bef79e6867b4dfE
	jmp	LBB86_1
LBB86_4:
	.loc	19 0 1
	movq	-40(%rbp), %rax
	.loc	19 184 1
	movq	%rax, %rdi
	callq	__ZN4core3ptr13drop_in_place17h53bef79e6867b4dfE
	jmp	LBB86_2
Ltmp285:
LBB86_5:
Ltmp283:
	.loc	19 0 1
	movq	%rax, -16(%rbp)
	movl	%edx, -8(%rbp)
	jmp	LBB86_3
Lfunc_end86:
	.cfi_endproc
	.section	__TEXT,__gcc_except_tab
	.p2align	2
GCC_except_table86:
Lexception17:
	.byte	255
	.byte	255
	.byte	1
	.uleb128 Lcst_end17-Lcst_begin17
Lcst_begin17:
	.uleb128 Ltmp281-Lfunc_begin86
	.uleb128 Ltmp282-Ltmp281
	.uleb128 Ltmp283-Lfunc_begin86
	.byte	0
	.uleb128 Ltmp282-Lfunc_begin86
	.uleb128 Lfunc_end86-Ltmp282
	.byte	0
	.byte	0
Lcst_end17:
	.p2align	2

	.section	__TEXT,__text,regular,pure_instructions
	.p2align	4, 0x90
__ZN4core3ptr19swap_nonoverlapping17hc0849b01ce8f9424E:
Lfunc_begin87:
	.loc	19 430 0 is_stmt 1
	.cfi_startproc
	pushq	%rbp
	.cfi_def_cfa_offset 16
	.cfi_offset %rbp, -16
	movq	%rsp, %rbp
	.cfi_def_cfa_register %rbp
	subq	$96, %rsp
	movq	%rdi, -56(%rbp)
	movq	%rsi, -48(%rbp)
	movq	%rdx, -40(%rbp)
Ltmp286:
	.loc	19 440 13 prologue_end
	movq	%rdi, -32(%rbp)
Ltmp287:
	.loc	19 441 13
	movq	%rsi, -24(%rbp)
Ltmp288:
	.loc	16 310 5
	movq	$16, -8(%rbp)
	movq	-8(%rbp), %rax
	movq	%rdx, -64(%rbp)
	movq	%rdi, -72(%rbp)
	movq	%rsi, -80(%rbp)
	movq	%rax, -88(%rbp)
Ltmp289:
	.loc	16 0 5 is_stmt 0
	movq	-88(%rbp), %rax
	movq	-64(%rbp), %rcx
	.loc	19 442 15 is_stmt 1
	imulq	%rcx, %rax
	movq	%rax, -16(%rbp)
	movq	-72(%rbp), %rdi
	movq	-80(%rbp), %rsi
Ltmp290:
	.loc	19 445 14
	movq	%rax, %rdx
	callq	__ZN4core3ptr25swap_nonoverlapping_bytes17hd510e578df8411d8E
Ltmp291:
	.loc	19 446 2
	addq	$96, %rsp
	popq	%rbp
	retq
Ltmp292:
Lfunc_end87:
	.cfi_endproc

	.p2align	4, 0x90
__ZN4core3ptr20slice_from_raw_parts17h094cd785ccf04f9eE:
Lfunc_begin88:
	.loc	19 264 0
	.cfi_startproc
	pushq	%rbp
	.cfi_def_cfa_offset 16
	.cfi_offset %rbp, -16
	movq	%rsp, %rbp
	.cfi_def_cfa_register %rbp
	subq	$48, %rsp
	movq	%rdi, -16(%rbp)
	movq	%rsi, -8(%rbp)
Ltmp293:
	.loc	19 268 26 prologue_end
	movq	%rdi, -32(%rbp)
	movq	%rsi, -24(%rbp)
	.loc	19 268 14 is_stmt 0
	movq	-32(%rbp), %rax
	movq	-24(%rbp), %rcx
	movq	%rax, -48(%rbp)
	movq	%rcx, -40(%rbp)
	movq	-48(%rbp), %rax
	movq	-40(%rbp), %rdx
	.loc	19 269 2 is_stmt 1
	addq	$48, %rsp
	popq	%rbp
	retq
Ltmp294:
Lfunc_end88:
	.cfi_endproc

	.p2align	4, 0x90
__ZN4core3ptr20slice_from_raw_parts17h17a7dc51b8829e71E:
Lfunc_begin89:
	.loc	19 264 0
	.cfi_startproc
	pushq	%rbp
	.cfi_def_cfa_offset 16
	.cfi_offset %rbp, -16
	movq	%rsp, %rbp
	.cfi_def_cfa_register %rbp
	subq	$48, %rsp
	movq	%rdi, -16(%rbp)
	movq	%rsi, -8(%rbp)
Ltmp295:
	.loc	19 268 26 prologue_end
	movq	%rdi, -32(%rbp)
	movq	%rsi, -24(%rbp)
	.loc	19 268 14 is_stmt 0
	movq	-32(%rbp), %rax
	movq	-24(%rbp), %rcx
	movq	%rax, -48(%rbp)
	movq	%rcx, -40(%rbp)
	movq	-48(%rbp), %rax
	movq	-40(%rbp), %rdx
	.loc	19 269 2 is_stmt 1
	addq	$48, %rsp
	popq	%rbp
	retq
Ltmp296:
Lfunc_end89:
	.cfi_endproc

	.p2align	4, 0x90
__ZN4core3ptr20slice_from_raw_parts17h73a2b5c158af213bE:
Lfunc_begin90:
	.loc	19 264 0
	.cfi_startproc
	pushq	%rbp
	.cfi_def_cfa_offset 16
	.cfi_offset %rbp, -16
	movq	%rsp, %rbp
	.cfi_def_cfa_register %rbp
	subq	$48, %rsp
	movq	%rdi, -16(%rbp)
	movq	%rsi, -8(%rbp)
Ltmp297:
	.loc	19 268 26 prologue_end
	movq	%rdi, -32(%rbp)
	movq	%rsi, -24(%rbp)
	.loc	19 268 14 is_stmt 0
	movq	-32(%rbp), %rax
	movq	-24(%rbp), %rcx
	movq	%rax, -48(%rbp)
	movq	%rcx, -40(%rbp)
	movq	-48(%rbp), %rax
	movq	-40(%rbp), %rdx
	.loc	19 269 2 is_stmt 1
	addq	$48, %rsp
	popq	%rbp
	retq
Ltmp298:
Lfunc_end90:
	.cfi_endproc

	.p2align	4, 0x90
__ZN4core3ptr23swap_nonoverlapping_one17hec3d82734a6acf32E:
Lfunc_begin91:
	.loc	19 449 0
	.cfi_startproc
	.cfi_personality 155, _rust_eh_personality
	.cfi_lsda 16, Lexception18
	pushq	%rbp
	.cfi_def_cfa_offset 16
	.cfi_offset %rbp, -16
	movq	%rsp, %rbp
	.cfi_def_cfa_register %rbp
	subq	$112, %rsp
	movq	%rdi, -56(%rbp)
	movq	%rsi, -48(%rbp)
Ltmp304:
	.loc	19 452 8 prologue_end
	movb	$0, -57(%rbp)
Ltmp305:
	.loc	16 310 5
	movq	$16, -8(%rbp)
	movq	-8(%rbp), %rax
	movq	%rdi, -72(%rbp)
	movq	%rsi, -80(%rbp)
	movq	%rax, -88(%rbp)
Ltmp306:
	.loc	19 452 8
	jmp	LBB91_2
LBB91_1:
	.loc	19 449 1
	movq	-24(%rbp), %rdi
	callq	__Unwind_Resume
	ud2
LBB91_2:
	.loc	19 0 1 is_stmt 0
	movq	-88(%rbp), %rax
	.loc	19 452 8 is_stmt 1
	cmpq	$32, %rax
	.loc	19 452 5 is_stmt 0
	jb	LBB91_4
	.loc	19 0 5
	movq	-72(%rbp), %rdi
	movq	-80(%rbp), %rsi
	.loc	19 462 18 is_stmt 1
	movl	$1, %edx
	callq	__ZN4core3ptr19swap_nonoverlapping17hc0849b01ce8f9424E
	jmp	LBB91_8
LBB91_4:
	.loc	19 456 21
	movb	$1, -57(%rbp)
	movq	-72(%rbp), %rdi
	callq	__ZN4core3ptr4read17hd1b91492212a15c9E
	movq	%rax, -40(%rbp)
	movq	%rdx, -32(%rbp)
	movq	%rax, -96(%rbp)
	movq	%rdx, -104(%rbp)
Ltmp299:
	.loc	19 0 21 is_stmt 0
	movl	$1, %edx
	movq	-80(%rbp), %rdi
	movq	-72(%rbp), %rsi
Ltmp307:
	.loc	19 457 13 is_stmt 1
	callq	__ZN4core10intrinsics19copy_nonoverlapping17h50a0b23e1f463078E
Ltmp300:
	jmp	LBB91_6
LBB91_6:
	.loc	19 458 22
	movb	$0, -57(%rbp)
Ltmp301:
	movq	-80(%rbp), %rdi
	movq	-96(%rbp), %rsi
	movq	-104(%rbp), %rdx
	.loc	19 458 13 is_stmt 0
	callq	__ZN4core3ptr5write17h2ae97f6b7dc12479E
Ltmp302:
	jmp	LBB91_7
Ltmp308:
LBB91_7:
	.loc	19 459 9 is_stmt 1
	movb	$0, -57(%rbp)
	.loc	19 452 5
	jmp	LBB91_9
LBB91_8:
	jmp	LBB91_9
LBB91_9:
	.loc	19 464 2
	addq	$112, %rsp
	popq	%rbp
	retq
LBB91_10:
	.loc	19 459 9
	movb	$0, -57(%rbp)
	jmp	LBB91_1
LBB91_11:
	testb	$1, -57(%rbp)
	jne	LBB91_10
	jmp	LBB91_1
Ltmp309:
LBB91_12:
Ltmp303:
	.loc	19 0 9 is_stmt 0
	movq	%rax, -24(%rbp)
	movl	%edx, -16(%rbp)
	jmp	LBB91_11
Lfunc_end91:
	.cfi_endproc
	.section	__TEXT,__gcc_except_tab
	.p2align	2
GCC_except_table91:
Lexception18:
	.byte	255
	.byte	255
	.byte	1
	.uleb128 Lcst_end18-Lcst_begin18
Lcst_begin18:
	.uleb128 Lfunc_begin91-Lfunc_begin91
	.uleb128 Ltmp299-Lfunc_begin91
	.byte	0
	.byte	0
	.uleb128 Ltmp299-Lfunc_begin91
	.uleb128 Ltmp302-Ltmp299
	.uleb128 Ltmp303-Lfunc_begin91
	.byte	0
Lcst_end18:
	.p2align	2

	.section	__TEXT,__text,regular,pure_instructions
	.p2align	4, 0x90
__ZN4core3ptr24slice_from_raw_parts_mut17h2ee299e974acd620E:
Lfunc_begin92:
	.loc	19 300 0 is_stmt 1
	.cfi_startproc
	pushq	%rbp
	.cfi_def_cfa_offset 16
	.cfi_offset %rbp, -16
	movq	%rsp, %rbp
	.cfi_def_cfa_register %rbp
	subq	$48, %rsp
	movq	%rdi, -16(%rbp)
	movq	%rsi, -8(%rbp)
Ltmp310:
	.loc	19 303 26 prologue_end
	movq	%rdi, -32(%rbp)
	movq	%rsi, -24(%rbp)
	.loc	19 303 14 is_stmt 0
	movq	-32(%rbp), %rax
	movq	-24(%rbp), %rcx
	movq	%rax, -48(%rbp)
	movq	%rcx, -40(%rbp)
	movq	-48(%rbp), %rax
	movq	-40(%rbp), %rdx
	.loc	19 304 2 is_stmt 1
	addq	$48, %rsp
	popq	%rbp
	retq
Ltmp311:
Lfunc_end92:
	.cfi_endproc

	.p2align	4, 0x90
__ZN4core3ptr24slice_from_raw_parts_mut17h8e4be81ef8495625E:
Lfunc_begin93:
	.loc	19 300 0
	.cfi_startproc
	pushq	%rbp
	.cfi_def_cfa_offset 16
	.cfi_offset %rbp, -16
	movq	%rsp, %rbp
	.cfi_def_cfa_register %rbp
	subq	$48, %rsp
	movq	%rdi, -16(%rbp)
	movq	%rsi, -8(%rbp)
Ltmp312:
	.loc	19 303 26 prologue_end
	movq	%rdi, -32(%rbp)
	movq	%rsi, -24(%rbp)
	.loc	19 303 14 is_stmt 0
	movq	-32(%rbp), %rax
	movq	-24(%rbp), %rcx
	movq	%rax, -48(%rbp)
	movq	%rcx, -40(%rbp)
	movq	-48(%rbp), %rax
	movq	-40(%rbp), %rdx
	.loc	19 304 2 is_stmt 1
	addq	$48, %rsp
	popq	%rbp
	retq
Ltmp313:
Lfunc_end93:
	.cfi_endproc

	.p2align	4, 0x90
__ZN4core3ptr24slice_from_raw_parts_mut17h96ce1b27142aa537E:
Lfunc_begin94:
	.loc	19 300 0
	.cfi_startproc
	pushq	%rbp
	.cfi_def_cfa_offset 16
	.cfi_offset %rbp, -16
	movq	%rsp, %rbp
	.cfi_def_cfa_register %rbp
	subq	$48, %rsp
	movq	%rdi, -16(%rbp)
	movq	%rsi, -8(%rbp)
Ltmp314:
	.loc	19 303 26 prologue_end
	movq	%rdi, -32(%rbp)
	movq	%rsi, -24(%rbp)
	.loc	19 303 14 is_stmt 0
	movq	-32(%rbp), %rax
	movq	-24(%rbp), %rcx
	movq	%rax, -48(%rbp)
	movq	%rcx, -40(%rbp)
	movq	-48(%rbp), %rax
	movq	-40(%rbp), %rdx
	.loc	19 304 2 is_stmt 1
	addq	$48, %rsp
	popq	%rbp
	retq
Ltmp315:
Lfunc_end94:
	.cfi_endproc

	.p2align	4, 0x90
__ZN4core3ptr24slice_from_raw_parts_mut17hbc0192c26eee660eE:
Lfunc_begin95:
	.loc	19 300 0
	.cfi_startproc
	pushq	%rbp
	.cfi_def_cfa_offset 16
	.cfi_offset %rbp, -16
	movq	%rsp, %rbp
	.cfi_def_cfa_register %rbp
	subq	$48, %rsp
	movq	%rdi, -16(%rbp)
	movq	%rsi, -8(%rbp)
Ltmp316:
	.loc	19 303 26 prologue_end
	movq	%rdi, -32(%rbp)
	movq	%rsi, -24(%rbp)
	.loc	19 303 14 is_stmt 0
	movq	-32(%rbp), %rax
	movq	-24(%rbp), %rcx
	movq	%rax, -48(%rbp)
	movq	%rcx, -40(%rbp)
	movq	-48(%rbp), %rax
	movq	-40(%rbp), %rdx
	.loc	19 304 2 is_stmt 1
	addq	$48, %rsp
	popq	%rbp
	retq
Ltmp317:
Lfunc_end95:
	.cfi_endproc

	.p2align	4, 0x90
__ZN4core3ptr25swap_nonoverlapping_bytes17hd510e578df8411d8E:
Lfunc_begin96:
	.loc	19 467 0
	.cfi_startproc
	pushq	%rbp
	.cfi_def_cfa_offset 16
	.cfi_offset %rbp, -16
	movq	%rsp, %rbp
	.cfi_def_cfa_register %rbp
	andq	$-32, %rsp
	subq	$352, %rsp
	movq	%rdi, 208(%rsp)
	movq	%rsi, 216(%rsp)
	movq	%rdx, 224(%rsp)
Ltmp318:
	.loc	16 310 5 prologue_end
	movq	$32, 296(%rsp)
	movq	296(%rsp), %rax
Ltmp319:
	.loc	19 478 22
	movq	%rax, 232(%rsp)
	movq	%rdi, 104(%rsp)
	movq	%rsi, 96(%rsp)
	movq	%rdx, 88(%rsp)
	movq	%rax, 80(%rsp)
Ltmp320:
	.loc	19 483 17
	movq	$0, 120(%rsp)
LBB96_2:
	.loc	19 0 17 is_stmt 0
	movq	80(%rsp), %rax
Ltmp321:
	.loc	19 484 11 is_stmt 1
	addq	120(%rsp), %rax
	movq	88(%rsp), %rcx
	cmpq	%rcx, %rax
	.loc	19 484 5 is_stmt 0
	jbe	LBB96_4
	.loc	19 0 5
	movq	88(%rsp), %rax
	.loc	19 509 8 is_stmt 1
	cmpq	%rax, 120(%rsp)
	.loc	19 509 5 is_stmt 0
	jb	LBB96_13
	jmp	LBB96_12
LBB96_4:
	.loc	19 0 5
	leaq	128(%rsp), %rax
	movq	%rax, 304(%rsp)
	movq	%rax, 312(%rsp)
Ltmp322:
	.loc	19 488 17 is_stmt 1
	leaq	128(%rsp), %rax
	movq	%rax, 240(%rsp)
Ltmp323:
	.loc	19 497 27
	movq	120(%rsp), %rsi
	movq	104(%rsp), %rdi
	movq	%rax, 72(%rsp)
	.loc	19 497 21 is_stmt 0
	callq	__ZN4core3ptr7mut_ptr31_$LT$impl$u20$$BP$mut$u20$T$GT$3add17heeeac7c861825809E
	movq	%rax, 248(%rsp)
	movq	%rax, 64(%rsp)
Ltmp324:
	.loc	19 498 27 is_stmt 1
	movq	120(%rsp), %rsi
	movq	96(%rsp), %rdi
	.loc	19 498 21 is_stmt 0
	callq	__ZN4core3ptr7mut_ptr31_$LT$impl$u20$$BP$mut$u20$T$GT$3add17heeeac7c861825809E
	movq	%rax, 256(%rsp)
	movq	%rax, 56(%rsp)
	.loc	19 0 21
	movq	64(%rsp), %rdi
	movq	72(%rsp), %rsi
	movq	80(%rsp), %rdx
Ltmp325:
	.loc	19 502 13 is_stmt 1
	callq	__ZN4core10intrinsics19copy_nonoverlapping17h13d2ad59a7a9d24bE
	.loc	19 0 13 is_stmt 0
	movq	56(%rsp), %rdi
	movq	64(%rsp), %rsi
	movq	80(%rsp), %rdx
	.loc	19 503 13 is_stmt 1
	callq	__ZN4core10intrinsics19copy_nonoverlapping17h13d2ad59a7a9d24bE
	.loc	19 0 13 is_stmt 0
	movq	72(%rsp), %rdi
	movq	56(%rsp), %rsi
	movq	80(%rsp), %rdx
	.loc	19 504 13 is_stmt 1
	callq	__ZN4core10intrinsics19copy_nonoverlapping17h13d2ad59a7a9d24bE
Ltmp326:
	.loc	19 0 13 is_stmt 0
	movq	80(%rsp), %rax
	.loc	19 506 9 is_stmt 1
	addq	120(%rsp), %rax
	movq	%rax, 120(%rsp)
Ltmp327:
	.loc	19 484 5
	jmp	LBB96_2
LBB96_12:
	.loc	19 509 5
	jmp	LBB96_21
LBB96_13:
	.loc	19 0 5 is_stmt 0
	movq	88(%rsp), %rax
Ltmp328:
	.loc	19 512 19 is_stmt 1
	subq	120(%rsp), %rax
	movq	%rax, 264(%rsp)
	leaq	176(%rsp), %rcx
	movq	%rcx, 320(%rsp)
	movq	%rcx, 328(%rsp)
	movq	%rax, 48(%rsp)
	movq	%rcx, 40(%rsp)
	.loc	19 0 19 is_stmt 0
	movq	40(%rsp), %rax
Ltmp329:
	.loc	19 514 17 is_stmt 1
	movq	%rax, 272(%rsp)
Ltmp330:
	.loc	19 518 27
	movq	120(%rsp), %rsi
	movq	104(%rsp), %rdi
	movq	%rax, 32(%rsp)
	.loc	19 518 21 is_stmt 0
	callq	__ZN4core3ptr7mut_ptr31_$LT$impl$u20$$BP$mut$u20$T$GT$3add17heeeac7c861825809E
	movq	%rax, 280(%rsp)
	movq	%rax, 24(%rsp)
Ltmp331:
	.loc	19 519 27 is_stmt 1
	movq	120(%rsp), %rsi
	movq	96(%rsp), %rdi
	.loc	19 519 21 is_stmt 0
	callq	__ZN4core3ptr7mut_ptr31_$LT$impl$u20$$BP$mut$u20$T$GT$3add17heeeac7c861825809E
	movq	%rax, 288(%rsp)
	movq	%rax, 16(%rsp)
	.loc	19 0 21
	movq	24(%rsp), %rdi
	movq	32(%rsp), %rsi
	movq	48(%rsp), %rdx
Ltmp332:
	.loc	19 521 13 is_stmt 1
	callq	__ZN4core10intrinsics19copy_nonoverlapping17h13d2ad59a7a9d24bE
	.loc	19 0 13 is_stmt 0
	movq	16(%rsp), %rdi
	movq	24(%rsp), %rsi
	movq	48(%rsp), %rdx
	.loc	19 522 13 is_stmt 1
	callq	__ZN4core10intrinsics19copy_nonoverlapping17h13d2ad59a7a9d24bE
	.loc	19 0 13 is_stmt 0
	movq	32(%rsp), %rdi
	movq	16(%rsp), %rsi
	movq	48(%rsp), %rdx
	.loc	19 523 13 is_stmt 1
	callq	__ZN4core10intrinsics19copy_nonoverlapping17h13d2ad59a7a9d24bE
Ltmp333:
	.loc	19 509 5
	jmp	LBB96_21
Ltmp334:
LBB96_21:
	.loc	19 526 2
	movq	%rbp, %rsp
	popq	%rbp
	retq
Ltmp335:
Lfunc_end96:
	.cfi_endproc

	.p2align	4, 0x90
__ZN4core3ptr4read17h1ddcfdcabb6c16f9E:
Lfunc_begin97:
	.loc	19 692 0
	.cfi_startproc
	pushq	%rbp
	.cfi_def_cfa_offset 16
	.cfi_offset %rbp, -16
	movq	%rsp, %rbp
	.cfi_def_cfa_register %rbp
	subq	$128, %rsp
	movq	%rdi, %rax
	movq	%rsi, -48(%rbp)
	movq	%rsi, -104(%rbp)
	movq	%rdi, -112(%rbp)
	movq	%rax, -120(%rbp)
	leaq	-96(%rbp), %rax
	movq	%rax, -16(%rbp)
	movq	%rax, -8(%rbp)
	movq	%rax, -128(%rbp)
	movq	-104(%rbp), %rdi
	movq	-128(%rbp), %rsi
Ltmp336:
	.loc	19 702 9 prologue_end
	movl	$1, %edx
	callq	__ZN4core10intrinsics19copy_nonoverlapping17h5ba02f01ebd80f9fE
	.loc	19 703 9
	movq	-96(%rbp), %rax
	movq	%rax, -72(%rbp)
	movq	-88(%rbp), %rax
	movq	%rax, -64(%rbp)
	movq	-80(%rbp), %rax
	movq	%rax, -56(%rbp)
Ltmp337:
	.file	20 "/rustc/6c8927b0cf80ceee19386026cf9d7fd4fd9d486f/src/libcore/mem/maybe_uninit.rs"
	.loc	20 501 38
	movq	-72(%rbp), %rax
	movq	%rax, -40(%rbp)
	movq	-64(%rbp), %rax
	movq	%rax, -32(%rbp)
	movq	-56(%rbp), %rax
	movq	%rax, -24(%rbp)
Ltmp338:
	.loc	4 101 9
	movq	-40(%rbp), %rax
	movq	-112(%rbp), %rcx
	movq	%rax, (%rcx)
	movq	-32(%rbp), %rax
	movq	%rax, 8(%rcx)
	movq	-24(%rbp), %rax
	movq	%rax, 16(%rcx)
Ltmp339:
	.loc	4 0 9 is_stmt 0
	movq	-120(%rbp), %rax
	.loc	19 705 2 is_stmt 1
	addq	$128, %rsp
	popq	%rbp
	retq
Ltmp340:
Lfunc_end97:
	.cfi_endproc

	.p2align	4, 0x90
__ZN4core3ptr4read17h2a1a97de8708b684E:
Lfunc_begin98:
	.loc	19 692 0
	.cfi_startproc
	pushq	%rbp
	.cfi_def_cfa_offset 16
	.cfi_offset %rbp, -16
	movq	%rsp, %rbp
	.cfi_def_cfa_register %rbp
	subq	$160, %rsp
	movq	%rdi, %rax
	movq	%rsi, -56(%rbp)
	movq	%rsi, -128(%rbp)
	movq	%rdi, -136(%rbp)
	movq	%rax, -144(%rbp)
	leaq	-120(%rbp), %rax
	movq	%rax, -16(%rbp)
	movq	%rax, -8(%rbp)
	movq	%rax, -152(%rbp)
	movq	-128(%rbp), %rdi
	movq	-152(%rbp), %rsi
Ltmp341:
	.loc	19 702 9 prologue_end
	movl	$1, %edx
	callq	__ZN4core10intrinsics19copy_nonoverlapping17h25a886e17ff18355E
	.loc	19 703 9
	movq	-120(%rbp), %rax
	movq	%rax, -88(%rbp)
	movq	-112(%rbp), %rax
	movq	%rax, -80(%rbp)
	movq	-104(%rbp), %rax
	movq	%rax, -72(%rbp)
	movq	-96(%rbp), %rax
	movq	%rax, -64(%rbp)
Ltmp342:
	.loc	20 501 38
	movq	-88(%rbp), %rax
	movq	%rax, -48(%rbp)
	movq	-80(%rbp), %rax
	movq	%rax, -40(%rbp)
	movq	-72(%rbp), %rax
	movq	%rax, -32(%rbp)
	movq	-64(%rbp), %rax
	movq	%rax, -24(%rbp)
Ltmp343:
	.loc	4 101 9
	movq	-48(%rbp), %rax
	movq	-136(%rbp), %rcx
	movq	%rax, (%rcx)
	movq	-40(%rbp), %rax
	movq	%rax, 8(%rcx)
	movq	-32(%rbp), %rax
	movq	%rax, 16(%rcx)
	movq	-24(%rbp), %rax
	movq	%rax, 24(%rcx)
Ltmp344:
	.loc	4 0 9 is_stmt 0
	movq	-144(%rbp), %rax
	.loc	19 705 2 is_stmt 1
	addq	$160, %rsp
	popq	%rbp
	retq
Ltmp345:
Lfunc_end98:
	.cfi_endproc

	.p2align	4, 0x90
__ZN4core3ptr4read17h46d3dedcd2aa05bfE:
Lfunc_begin99:
	.loc	19 692 0
	.cfi_startproc
	pushq	%rbp
	.cfi_def_cfa_offset 16
	.cfi_offset %rbp, -16
	movq	%rsp, %rbp
	.cfi_def_cfa_register %rbp
	subq	$128, %rsp
	movq	%rdi, %rax
	movq	%rsi, -48(%rbp)
	movq	%rsi, -104(%rbp)
	movq	%rdi, -112(%rbp)
	movq	%rax, -120(%rbp)
	leaq	-96(%rbp), %rax
	movq	%rax, -16(%rbp)
	movq	%rax, -8(%rbp)
	movq	%rax, -128(%rbp)
	movq	-104(%rbp), %rdi
	movq	-128(%rbp), %rsi
Ltmp346:
	.loc	19 702 9 prologue_end
	movl	$1, %edx
	callq	__ZN4core10intrinsics19copy_nonoverlapping17h297d16ed0cb50210E
	.loc	19 703 9
	movq	-96(%rbp), %rax
	movq	%rax, -72(%rbp)
	movq	-88(%rbp), %rax
	movq	%rax, -64(%rbp)
	movq	-80(%rbp), %rax
	movq	%rax, -56(%rbp)
Ltmp347:
	.loc	20 501 38
	movq	-72(%rbp), %rax
	movq	%rax, -40(%rbp)
	movq	-64(%rbp), %rax
	movq	%rax, -32(%rbp)
	movq	-56(%rbp), %rax
	movq	%rax, -24(%rbp)
Ltmp348:
	.loc	4 101 9
	movq	-40(%rbp), %rax
	movq	-112(%rbp), %rcx
	movq	%rax, (%rcx)
	movq	-32(%rbp), %rax
	movq	%rax, 8(%rcx)
	movq	-24(%rbp), %rax
	movq	%rax, 16(%rcx)
Ltmp349:
	.loc	4 0 9 is_stmt 0
	movq	-120(%rbp), %rax
	.loc	19 705 2 is_stmt 1
	addq	$128, %rsp
	popq	%rbp
	retq
Ltmp350:
Lfunc_end99:
	.cfi_endproc

	.p2align	4, 0x90
__ZN4core3ptr4read17h56ffa520308f8137E:
Lfunc_begin100:
	.loc	19 692 0
	.cfi_startproc
	pushq	%rbp
	.cfi_def_cfa_offset 16
	.cfi_offset %rbp, -16
	movq	%rsp, %rbp
	.cfi_def_cfa_register %rbp
	subq	$128, %rsp
	movq	%rdi, %rax
	movq	%rsi, -48(%rbp)
	movq	%rsi, -104(%rbp)
	movq	%rdi, -112(%rbp)
	movq	%rax, -120(%rbp)
	leaq	-96(%rbp), %rax
	movq	%rax, -16(%rbp)
	movq	%rax, -8(%rbp)
	movq	%rax, -128(%rbp)
	movq	-104(%rbp), %rdi
	movq	-128(%rbp), %rsi
Ltmp351:
	.loc	19 702 9 prologue_end
	movl	$1, %edx
	callq	__ZN4core10intrinsics19copy_nonoverlapping17h2649b847efa3d8cdE
	.loc	19 703 9
	movq	-96(%rbp), %rax
	movq	%rax, -72(%rbp)
	movq	-88(%rbp), %rax
	movq	%rax, -64(%rbp)
	movq	-80(%rbp), %rax
	movq	%rax, -56(%rbp)
Ltmp352:
	.loc	20 501 38
	movq	-72(%rbp), %rax
	movq	%rax, -40(%rbp)
	movq	-64(%rbp), %rax
	movq	%rax, -32(%rbp)
	movq	-56(%rbp), %rax
	movq	%rax, -24(%rbp)
Ltmp353:
	.loc	4 101 9
	movq	-40(%rbp), %rax
	movq	-112(%rbp), %rcx
	movq	%rax, (%rcx)
	movq	-32(%rbp), %rax
	movq	%rax, 8(%rcx)
	movq	-24(%rbp), %rax
	movq	%rax, 16(%rcx)
Ltmp354:
	.loc	4 0 9 is_stmt 0
	movq	-120(%rbp), %rax
	.loc	19 705 2 is_stmt 1
	addq	$128, %rsp
	popq	%rbp
	retq
Ltmp355:
Lfunc_end100:
	.cfi_endproc

	.p2align	4, 0x90
__ZN4core3ptr4read17h95458ba102b1e49bE:
Lfunc_begin101:
	.loc	19 692 0
	.cfi_startproc
	pushq	%rbp
	.cfi_def_cfa_offset 16
	.cfi_offset %rbp, -16
	movq	%rsp, %rbp
	.cfi_def_cfa_register %rbp
	subq	$160, %rsp
	movq	%rdi, %rax
	movq	%rsi, -56(%rbp)
	movq	%rsi, -128(%rbp)
	movq	%rdi, -136(%rbp)
	movq	%rax, -144(%rbp)
	leaq	-120(%rbp), %rax
	movq	%rax, -16(%rbp)
	movq	%rax, -8(%rbp)
	movq	%rax, -152(%rbp)
	movq	-128(%rbp), %rdi
	movq	-152(%rbp), %rsi
Ltmp356:
	.loc	19 702 9 prologue_end
	movl	$1, %edx
	callq	__ZN4core10intrinsics19copy_nonoverlapping17hd9ddeafaba95371eE
	.loc	19 703 9
	movq	-120(%rbp), %rax
	movq	%rax, -88(%rbp)
	movq	-112(%rbp), %rax
	movq	%rax, -80(%rbp)
	movq	-104(%rbp), %rax
	movq	%rax, -72(%rbp)
	movq	-96(%rbp), %rax
	movq	%rax, -64(%rbp)
Ltmp357:
	.loc	20 501 38
	movq	-88(%rbp), %rax
	movq	%rax, -48(%rbp)
	movq	-80(%rbp), %rax
	movq	%rax, -40(%rbp)
	movq	-72(%rbp), %rax
	movq	%rax, -32(%rbp)
	movq	-64(%rbp), %rax
	movq	%rax, -24(%rbp)
Ltmp358:
	.loc	4 101 9
	movq	-48(%rbp), %rax
	movq	-136(%rbp), %rcx
	movq	%rax, (%rcx)
	movq	-40(%rbp), %rax
	movq	%rax, 8(%rcx)
	movq	-32(%rbp), %rax
	movq	%rax, 16(%rcx)
	movq	-24(%rbp), %rax
	movq	%rax, 24(%rcx)
Ltmp359:
	.loc	4 0 9 is_stmt 0
	movq	-144(%rbp), %rax
	.loc	19 705 2 is_stmt 1
	addq	$160, %rsp
	popq	%rbp
	retq
Ltmp360:
Lfunc_end101:
	.cfi_endproc

	.p2align	4, 0x90
__ZN4core3ptr4read17hd1b91492212a15c9E:
Lfunc_begin102:
	.loc	19 692 0
	.cfi_startproc
	pushq	%rbp
	.cfi_def_cfa_offset 16
	.cfi_offset %rbp, -16
	movq	%rsp, %rbp
	.cfi_def_cfa_register %rbp
	subq	$128, %rsp
	movq	%rdi, -72(%rbp)
Ltmp361:
	.loc	20 272 6 prologue_end
	movq	-64(%rbp), %rax
	movq	-56(%rbp), %rcx
Ltmp362:
	.loc	19 694 19
	movq	%rcx, -80(%rbp)
	movq	%rax, -88(%rbp)
	movq	%rdi, -96(%rbp)
	.loc	19 0 19 is_stmt 0
	leaq	-88(%rbp), %rax
	movq	%rax, -16(%rbp)
	movq	%rax, -8(%rbp)
	movq	%rax, -104(%rbp)
	movq	-96(%rbp), %rdi
	movq	-104(%rbp), %rsi
Ltmp363:
	.loc	19 702 9 is_stmt 1
	movl	$1, %edx
	callq	__ZN4core10intrinsics19copy_nonoverlapping17h50a0b23e1f463078E
	.loc	19 703 9
	movq	-88(%rbp), %rax
	movq	-80(%rbp), %rcx
	movq	%rax, -48(%rbp)
	movq	%rcx, -40(%rbp)
	movq	%rax, -32(%rbp)
	movq	%rcx, -24(%rbp)
	movq	%rax, -112(%rbp)
	movq	%rcx, -120(%rbp)
Ltmp364:
	.loc	19 0 9 is_stmt 0
	movq	-112(%rbp), %rax
	movq	-120(%rbp), %rdx
	.loc	19 705 2 is_stmt 1
	addq	$128, %rsp
	popq	%rbp
	retq
Ltmp365:
Lfunc_end102:
	.cfi_endproc

	.p2align	4, 0x90
__ZN4core3ptr4read17hd330d7bc1e5209acE:
Lfunc_begin103:
	.loc	19 692 0
	.cfi_startproc
	pushq	%rbp
	.cfi_def_cfa_offset 16
	.cfi_offset %rbp, -16
	movq	%rsp, %rbp
	.cfi_def_cfa_register %rbp
	subq	$128, %rsp
	movq	%rdi, %rax
	movq	%rsi, -48(%rbp)
	movq	%rsi, -104(%rbp)
	movq	%rdi, -112(%rbp)
	movq	%rax, -120(%rbp)
	leaq	-96(%rbp), %rax
	movq	%rax, -16(%rbp)
	movq	%rax, -8(%rbp)
	movq	%rax, -128(%rbp)
	movq	-104(%rbp), %rdi
	movq	-128(%rbp), %rsi
Ltmp366:
	.loc	19 702 9 prologue_end
	movl	$1, %edx
	callq	__ZN4core10intrinsics19copy_nonoverlapping17h6821627b08d0e744E
	.loc	19 703 9
	movq	-96(%rbp), %rax
	movq	%rax, -72(%rbp)
	movq	-88(%rbp), %rax
	movq	%rax, -64(%rbp)
	movq	-80(%rbp), %rax
	movq	%rax, -56(%rbp)
Ltmp367:
	.loc	20 501 38
	movq	-72(%rbp), %rax
	movq	%rax, -40(%rbp)
	movq	-64(%rbp), %rax
	movq	%rax, -32(%rbp)
	movq	-56(%rbp), %rax
	movq	%rax, -24(%rbp)
Ltmp368:
	.loc	4 101 9
	movq	-40(%rbp), %rax
	movq	-112(%rbp), %rcx
	movq	%rax, (%rcx)
	movq	-32(%rbp), %rax
	movq	%rax, 8(%rcx)
	movq	-24(%rbp), %rax
	movq	%rax, 16(%rcx)
Ltmp369:
	.loc	4 0 9 is_stmt 0
	movq	-120(%rbp), %rax
	.loc	19 705 2 is_stmt 1
	addq	$128, %rsp
	popq	%rbp
	retq
Ltmp370:
Lfunc_end103:
	.cfi_endproc

	.p2align	4, 0x90
__ZN4core3ptr4read17hff68d347b4db90f1E:
Lfunc_begin104:
	.loc	19 692 0
	.cfi_startproc
	pushq	%rbp
	.cfi_def_cfa_offset 16
	.cfi_offset %rbp, -16
	movq	%rsp, %rbp
	.cfi_def_cfa_register %rbp
	subq	$128, %rsp
	movq	%rdi, %rax
	movq	%rsi, -48(%rbp)
	movq	%rsi, -104(%rbp)
	movq	%rdi, -112(%rbp)
	movq	%rax, -120(%rbp)
	leaq	-96(%rbp), %rax
	movq	%rax, -16(%rbp)
	movq	%rax, -8(%rbp)
	movq	%rax, -128(%rbp)
	movq	-104(%rbp), %rdi
	movq	-128(%rbp), %rsi
Ltmp371:
	.loc	19 702 9 prologue_end
	movl	$1, %edx
	callq	__ZN4core10intrinsics19copy_nonoverlapping17h31761e930a8be5bbE
	.loc	19 703 9
	movq	-96(%rbp), %rax
	movq	%rax, -72(%rbp)
	movq	-88(%rbp), %rax
	movq	%rax, -64(%rbp)
	movq	-80(%rbp), %rax
	movq	%rax, -56(%rbp)
Ltmp372:
	.loc	20 501 38
	movq	-72(%rbp), %rax
	movq	%rax, -40(%rbp)
	movq	-64(%rbp), %rax
	movq	%rax, -32(%rbp)
	movq	-56(%rbp), %rax
	movq	%rax, -24(%rbp)
Ltmp373:
	.loc	4 101 9
	movq	-40(%rbp), %rax
	movq	-112(%rbp), %rcx
	movq	%rax, (%rcx)
	movq	-32(%rbp), %rax
	movq	%rax, 8(%rcx)
	movq	-24(%rbp), %rax
	movq	%rax, 16(%rcx)
Ltmp374:
	.loc	4 0 9 is_stmt 0
	movq	-120(%rbp), %rax
	.loc	19 705 2 is_stmt 1
	addq	$128, %rsp
	popq	%rbp
	retq
Ltmp375:
Lfunc_end104:
	.cfi_endproc

	.p2align	4, 0x90
__ZN4core3ptr5write17h2ae97f6b7dc12479E:
Lfunc_begin105:
	.loc	19 895 0
	.cfi_startproc
	pushq	%rbp
	.cfi_def_cfa_offset 16
	.cfi_offset %rbp, -16
	movq	%rsp, %rbp
	.cfi_def_cfa_register %rbp
	subq	$32, %rsp
	movq	%rdi, -24(%rbp)
	movq	%rsi, -16(%rbp)
	movq	%rdx, -8(%rbp)
Ltmp376:
	.loc	19 901 51 prologue_end
	movq	%rsi, (%rdi)
	movq	%rdx, 8(%rdi)
	.loc	19 902 2
	addq	$32, %rsp
	popq	%rbp
	retq
Ltmp377:
Lfunc_end105:
	.cfi_endproc

	.p2align	4, 0x90
__ZN4core3ptr5write17h51a73a989fdad161E:
Lfunc_begin106:
	.loc	19 895 0
	.cfi_startproc
	pushq	%rbp
	.cfi_def_cfa_offset 16
	.cfi_offset %rbp, -16
	movq	%rsp, %rbp
	.cfi_def_cfa_register %rbp
	subq	$16, %rsp
	movq	%rdi, -8(%rbp)
Ltmp378:
	.loc	19 901 51 prologue_end
	movq	(%rsi), %rax
	movq	%rax, (%rdi)
	movq	8(%rsi), %rax
	movq	%rax, 8(%rdi)
	movq	16(%rsi), %rax
	movq	%rax, 16(%rdi)
	movq	24(%rsi), %rax
	movq	%rax, 24(%rdi)
	.loc	19 902 2
	addq	$16, %rsp
	popq	%rbp
	retq
Ltmp379:
Lfunc_end106:
	.cfi_endproc

	.p2align	4, 0x90
__ZN4core3ptr6unique15Unique$LT$T$GT$13new_unchecked17h1ec8741e22c3b897E:
Lfunc_begin107:
	.file	21 "/rustc/6c8927b0cf80ceee19386026cf9d7fd4fd9d486f/src/libcore/ptr/unique.rs"
	.loc	21 89 0
	.cfi_startproc
	pushq	%rbp
	.cfi_def_cfa_offset 16
	.cfi_offset %rbp, -16
	movq	%rsp, %rbp
	.cfi_def_cfa_register %rbp
	subq	$24, %rsp
	movq	%rdi, -8(%rbp)
Ltmp380:
	.loc	21 91 18 prologue_end
	movq	%rdi, -24(%rbp)
	.loc	21 92 6
	movq	-24(%rbp), %rax
	addq	$24, %rsp
	popq	%rbp
	retq
Ltmp381:
Lfunc_end107:
	.cfi_endproc

	.p2align	4, 0x90
__ZN4core3ptr6unique15Unique$LT$T$GT$4cast17h041e9d39b0b8a8d5E:
Lfunc_begin108:
	.loc	21 137 0
	.cfi_startproc
	pushq	%rbp
	.cfi_def_cfa_offset 16
	.cfi_offset %rbp, -16
	movq	%rsp, %rbp
	.cfi_def_cfa_register %rbp
	subq	$32, %rsp
	movq	%rdi, -16(%rbp)
	movq	%rsi, -8(%rbp)
Ltmp382:
	.loc	21 141 40 prologue_end
	callq	__ZN4core3ptr6unique15Unique$LT$T$GT$6as_ptr17h0d96c388f45d41ffE
	movq	%rax, -24(%rbp)
	.loc	21 0 40 is_stmt 0
	movq	-24(%rbp), %rax
	.loc	21 141 18
	movq	%rax, %rdi
	callq	__ZN4core3ptr6unique15Unique$LT$T$GT$13new_unchecked17h1ec8741e22c3b897E
	movq	%rax, -32(%rbp)
	.loc	21 0 18
	movq	-32(%rbp), %rax
	.loc	21 142 6 is_stmt 1
	addq	$32, %rsp
	popq	%rbp
	retq
Ltmp383:
Lfunc_end108:
	.cfi_endproc

	.p2align	4, 0x90
__ZN4core3ptr6unique15Unique$LT$T$GT$4cast17h275c57707dee9d25E:
Lfunc_begin109:
	.loc	21 137 0
	.cfi_startproc
	pushq	%rbp
	.cfi_def_cfa_offset 16
	.cfi_offset %rbp, -16
	movq	%rsp, %rbp
	.cfi_def_cfa_register %rbp
	subq	$32, %rsp
	movq	%rdi, -16(%rbp)
	movq	%rsi, -8(%rbp)
Ltmp384:
	.loc	21 141 40 prologue_end
	callq	__ZN4core3ptr6unique15Unique$LT$T$GT$6as_ptr17habb803f09536845dE
	movq	%rax, -24(%rbp)
	.loc	21 0 40 is_stmt 0
	movq	-24(%rbp), %rax
	.loc	21 141 18
	movq	%rax, %rdi
	callq	__ZN4core3ptr6unique15Unique$LT$T$GT$13new_unchecked17h1ec8741e22c3b897E
	movq	%rax, -32(%rbp)
	.loc	21 0 18
	movq	-32(%rbp), %rax
	.loc	21 142 6 is_stmt 1
	addq	$32, %rsp
	popq	%rbp
	retq
Ltmp385:
Lfunc_end109:
	.cfi_endproc

	.p2align	4, 0x90
__ZN4core3ptr6unique15Unique$LT$T$GT$4cast17h38d3d1f5d8a46864E:
Lfunc_begin110:
	.loc	21 137 0
	.cfi_startproc
	pushq	%rbp
	.cfi_def_cfa_offset 16
	.cfi_offset %rbp, -16
	movq	%rsp, %rbp
	.cfi_def_cfa_register %rbp
	subq	$32, %rsp
	movq	%rdi, -16(%rbp)
	movq	%rsi, -8(%rbp)
Ltmp386:
	.loc	21 141 40 prologue_end
	callq	__ZN4core3ptr6unique15Unique$LT$T$GT$6as_ptr17h75a742024e04887aE
	movq	%rax, -24(%rbp)
	.loc	21 0 40 is_stmt 0
	movq	-24(%rbp), %rax
	.loc	21 141 18
	movq	%rax, %rdi
	callq	__ZN4core3ptr6unique15Unique$LT$T$GT$13new_unchecked17h1ec8741e22c3b897E
	movq	%rax, -32(%rbp)
	.loc	21 0 18
	movq	-32(%rbp), %rax
	.loc	21 142 6 is_stmt 1
	addq	$32, %rsp
	popq	%rbp
	retq
Ltmp387:
Lfunc_end110:
	.cfi_endproc

	.p2align	4, 0x90
__ZN4core3ptr6unique15Unique$LT$T$GT$4cast17h64fef7b7a0133872E:
Lfunc_begin111:
	.loc	21 137 0
	.cfi_startproc
	pushq	%rbp
	.cfi_def_cfa_offset 16
	.cfi_offset %rbp, -16
	movq	%rsp, %rbp
	.cfi_def_cfa_register %rbp
	subq	$32, %rsp
	movq	%rdi, -8(%rbp)
Ltmp388:
	.loc	21 141 40 prologue_end
	callq	__ZN4core3ptr6unique15Unique$LT$T$GT$6as_ptr17h0d0d3439e1583fe0E
	movq	%rax, -16(%rbp)
	.loc	21 0 40 is_stmt 0
	movq	-16(%rbp), %rax
	.loc	21 141 18
	movq	%rax, %rdi
	callq	__ZN4core3ptr6unique15Unique$LT$T$GT$13new_unchecked17h1ec8741e22c3b897E
	movq	%rax, -24(%rbp)
	.loc	21 0 18
	movq	-24(%rbp), %rax
	.loc	21 142 6 is_stmt 1
	addq	$32, %rsp
	popq	%rbp
	retq
Ltmp389:
Lfunc_end111:
	.cfi_endproc

	.p2align	4, 0x90
__ZN4core3ptr6unique15Unique$LT$T$GT$4cast17h755ff72bfb6bfdc5E:
Lfunc_begin112:
	.loc	21 137 0
	.cfi_startproc
	pushq	%rbp
	.cfi_def_cfa_offset 16
	.cfi_offset %rbp, -16
	movq	%rsp, %rbp
	.cfi_def_cfa_register %rbp
	subq	$32, %rsp
	movq	%rdi, -8(%rbp)
Ltmp390:
	.loc	21 141 40 prologue_end
	callq	__ZN4core3ptr6unique15Unique$LT$T$GT$6as_ptr17hfef13a45e375501fE
	movq	%rax, -16(%rbp)
	.loc	21 0 40 is_stmt 0
	movq	-16(%rbp), %rdi
	.loc	21 141 18
	callq	__ZN4core3ptr6unique15Unique$LT$T$GT$13new_unchecked17h1ec8741e22c3b897E
	movq	%rax, -24(%rbp)
	.loc	21 0 18
	movq	-24(%rbp), %rax
	.loc	21 142 6 is_stmt 1
	addq	$32, %rsp
	popq	%rbp
	retq
Ltmp391:
Lfunc_end112:
	.cfi_endproc

	.p2align	4, 0x90
__ZN4core3ptr6unique15Unique$LT$T$GT$4cast17hba6d0132badd066dE:
Lfunc_begin113:
	.loc	21 137 0
	.cfi_startproc
	pushq	%rbp
	.cfi_def_cfa_offset 16
	.cfi_offset %rbp, -16
	movq	%rsp, %rbp
	.cfi_def_cfa_register %rbp
	subq	$32, %rsp
	movq	%rdi, -8(%rbp)
Ltmp392:
	.loc	21 141 40 prologue_end
	callq	__ZN4core3ptr6unique15Unique$LT$T$GT$6as_ptr17hfdda69e9ab0ccda1E
	movq	%rax, -16(%rbp)
	.loc	21 0 40 is_stmt 0
	movq	-16(%rbp), %rax
	.loc	21 141 18
	movq	%rax, %rdi
	callq	__ZN4core3ptr6unique15Unique$LT$T$GT$13new_unchecked17h1ec8741e22c3b897E
	movq	%rax, -24(%rbp)
	.loc	21 0 18
	movq	-24(%rbp), %rax
	.loc	21 142 6 is_stmt 1
	addq	$32, %rsp
	popq	%rbp
	retq
Ltmp393:
Lfunc_end113:
	.cfi_endproc

	.p2align	4, 0x90
__ZN4core3ptr6unique15Unique$LT$T$GT$4cast17hd94d9a798addfe18E:
Lfunc_begin114:
	.loc	21 137 0
	.cfi_startproc
	pushq	%rbp
	.cfi_def_cfa_offset 16
	.cfi_offset %rbp, -16
	movq	%rsp, %rbp
	.cfi_def_cfa_register %rbp
	subq	$32, %rsp
	movq	%rdi, -8(%rbp)
Ltmp394:
	.loc	21 141 40 prologue_end
	callq	__ZN4core3ptr6unique15Unique$LT$T$GT$6as_ptr17hcaa1b0404c822eceE
	movq	%rax, -16(%rbp)
	.loc	21 0 40 is_stmt 0
	movq	-16(%rbp), %rax
	.loc	21 141 18
	movq	%rax, %rdi
	callq	__ZN4core3ptr6unique15Unique$LT$T$GT$13new_unchecked17h1ec8741e22c3b897E
	movq	%rax, -24(%rbp)
	.loc	21 0 18
	movq	-24(%rbp), %rax
	.loc	21 142 6 is_stmt 1
	addq	$32, %rsp
	popq	%rbp
	retq
Ltmp395:
Lfunc_end114:
	.cfi_endproc

	.p2align	4, 0x90
__ZN4core3ptr6unique15Unique$LT$T$GT$4cast17hffc2d874860f2be0E:
Lfunc_begin115:
	.loc	21 137 0
	.cfi_startproc
	pushq	%rbp
	.cfi_def_cfa_offset 16
	.cfi_offset %rbp, -16
	movq	%rsp, %rbp
	.cfi_def_cfa_register %rbp
	subq	$32, %rsp
	movq	%rdi, -8(%rbp)
Ltmp396:
	.loc	21 141 40 prologue_end
	callq	__ZN4core3ptr6unique15Unique$LT$T$GT$6as_ptr17hf796d84447bd126eE
	movq	%rax, -16(%rbp)
	.loc	21 0 40 is_stmt 0
	movq	-16(%rbp), %rax
	.loc	21 141 18
	movq	%rax, %rdi
	callq	__ZN4core3ptr6unique15Unique$LT$T$GT$13new_unchecked17h1ec8741e22c3b897E
	movq	%rax, -24(%rbp)
	.loc	21 0 18
	movq	-24(%rbp), %rax
	.loc	21 142 6 is_stmt 1
	addq	$32, %rsp
	popq	%rbp
	retq
Ltmp397:
Lfunc_end115:
	.cfi_endproc

	.p2align	4, 0x90
__ZN4core3ptr6unique15Unique$LT$T$GT$6as_ptr17h0d0d3439e1583fe0E:
Lfunc_begin116:
	.loc	21 107 0
	.cfi_startproc
	pushq	%rbp
	.cfi_def_cfa_offset 16
	.cfi_offset %rbp, -16
	movq	%rsp, %rbp
	.cfi_def_cfa_register %rbp
	pushq	%rax
	movq	%rdi, -8(%rbp)
Ltmp398:
	.loc	21 109 6 prologue_end
	movq	%rdi, %rax
	addq	$8, %rsp
	popq	%rbp
	retq
Ltmp399:
Lfunc_end116:
	.cfi_endproc

	.p2align	4, 0x90
__ZN4core3ptr6unique15Unique$LT$T$GT$6as_ptr17h0d96c388f45d41ffE:
Lfunc_begin117:
	.loc	21 107 0
	.cfi_startproc
	pushq	%rbp
	.cfi_def_cfa_offset 16
	.cfi_offset %rbp, -16
	movq	%rsp, %rbp
	.cfi_def_cfa_register %rbp
	subq	$16, %rsp
	movq	%rdi, -16(%rbp)
	movq	%rsi, -8(%rbp)
Ltmp400:
	.loc	21 109 6 prologue_end
	movq	%rdi, %rax
	movq	%rsi, %rdx
	addq	$16, %rsp
	popq	%rbp
	retq
Ltmp401:
Lfunc_end117:
	.cfi_endproc

	.p2align	4, 0x90
__ZN4core3ptr6unique15Unique$LT$T$GT$6as_ptr17h75a742024e04887aE:
Lfunc_begin118:
	.loc	21 107 0
	.cfi_startproc
	pushq	%rbp
	.cfi_def_cfa_offset 16
	.cfi_offset %rbp, -16
	movq	%rsp, %rbp
	.cfi_def_cfa_register %rbp
	subq	$16, %rsp
	movq	%rdi, -16(%rbp)
	movq	%rsi, -8(%rbp)
Ltmp402:
	.loc	21 109 6 prologue_end
	movq	%rdi, %rax
	movq	%rsi, %rdx
	addq	$16, %rsp
	popq	%rbp
	retq
Ltmp403:
Lfunc_end118:
	.cfi_endproc

	.p2align	4, 0x90
__ZN4core3ptr6unique15Unique$LT$T$GT$6as_ptr17h92839a9febdc54f2E:
Lfunc_begin119:
	.loc	21 107 0
	.cfi_startproc
	pushq	%rbp
	.cfi_def_cfa_offset 16
	.cfi_offset %rbp, -16
	movq	%rsp, %rbp
	.cfi_def_cfa_register %rbp
	pushq	%rax
	movq	%rdi, -8(%rbp)
Ltmp404:
	.loc	21 109 6 prologue_end
	movq	%rdi, %rax
	addq	$8, %rsp
	popq	%rbp
	retq
Ltmp405:
Lfunc_end119:
	.cfi_endproc

	.p2align	4, 0x90
__ZN4core3ptr6unique15Unique$LT$T$GT$6as_ptr17habb803f09536845dE:
Lfunc_begin120:
	.loc	21 107 0
	.cfi_startproc
	pushq	%rbp
	.cfi_def_cfa_offset 16
	.cfi_offset %rbp, -16
	movq	%rsp, %rbp
	.cfi_def_cfa_register %rbp
	subq	$16, %rsp
	movq	%rdi, -16(%rbp)
	movq	%rsi, -8(%rbp)
Ltmp406:
	.loc	21 109 6 prologue_end
	movq	%rdi, %rax
	movq	%rsi, %rdx
	addq	$16, %rsp
	popq	%rbp
	retq
Ltmp407:
Lfunc_end120:
	.cfi_endproc

	.p2align	4, 0x90
__ZN4core3ptr6unique15Unique$LT$T$GT$6as_ptr17hcaa1b0404c822eceE:
Lfunc_begin121:
	.loc	21 107 0
	.cfi_startproc
	pushq	%rbp
	.cfi_def_cfa_offset 16
	.cfi_offset %rbp, -16
	movq	%rsp, %rbp
	.cfi_def_cfa_register %rbp
	pushq	%rax
	movq	%rdi, -8(%rbp)
Ltmp408:
	.loc	21 109 6 prologue_end
	movq	%rdi, %rax
	addq	$8, %rsp
	popq	%rbp
	retq
Ltmp409:
Lfunc_end121:
	.cfi_endproc

	.p2align	4, 0x90
__ZN4core3ptr6unique15Unique$LT$T$GT$6as_ptr17hf796d84447bd126eE:
Lfunc_begin122:
	.loc	21 107 0
	.cfi_startproc
	pushq	%rbp
	.cfi_def_cfa_offset 16
	.cfi_offset %rbp, -16
	movq	%rsp, %rbp
	.cfi_def_cfa_register %rbp
	pushq	%rax
	movq	%rdi, -8(%rbp)
Ltmp410:
	.loc	21 109 6 prologue_end
	movq	%rdi, %rax
	addq	$8, %rsp
	popq	%rbp
	retq
Ltmp411:
Lfunc_end122:
	.cfi_endproc

	.p2align	4, 0x90
__ZN4core3ptr6unique15Unique$LT$T$GT$6as_ptr17hfdda69e9ab0ccda1E:
Lfunc_begin123:
	.loc	21 107 0
	.cfi_startproc
	pushq	%rbp
	.cfi_def_cfa_offset 16
	.cfi_offset %rbp, -16
	movq	%rsp, %rbp
	.cfi_def_cfa_register %rbp
	pushq	%rax
	movq	%rdi, -8(%rbp)
Ltmp412:
	.loc	21 109 6 prologue_end
	movq	%rdi, %rax
	addq	$8, %rsp
	popq	%rbp
	retq
Ltmp413:
Lfunc_end123:
	.cfi_endproc

	.p2align	4, 0x90
__ZN4core3ptr6unique15Unique$LT$T$GT$6as_ptr17hfef13a45e375501fE:
Lfunc_begin124:
	.loc	21 107 0
	.cfi_startproc
	pushq	%rbp
	.cfi_def_cfa_offset 16
	.cfi_offset %rbp, -16
	movq	%rsp, %rbp
	.cfi_def_cfa_register %rbp
	pushq	%rax
	movq	%rdi, -8(%rbp)
Ltmp414:
	.loc	21 109 6 prologue_end
	movq	%rdi, %rax
	addq	$8, %rsp
	popq	%rbp
	retq
Ltmp415:
Lfunc_end124:
	.cfi_endproc

	.p2align	4, 0x90
__ZN4core3ptr6unique15Unique$LT$T$GT$6as_ref17h15a05aaa0c517221E:
Lfunc_begin125:
	.loc	21 117 0
	.cfi_startproc
	pushq	%rbp
	.cfi_def_cfa_offset 16
	.cfi_offset %rbp, -16
	movq	%rsp, %rbp
	.cfi_def_cfa_register %rbp
	subq	$32, %rsp
	movq	%rdi, -8(%rbp)
Ltmp416:
	.loc	21 120 20 prologue_end
	movq	(%rdi), %rax
	movq	8(%rdi), %rsi
	movq	%rax, %rdi
	callq	__ZN4core3ptr6unique15Unique$LT$T$GT$6as_ptr17h75a742024e04887aE
	movq	%rax, -16(%rbp)
	movq	%rdx, -24(%rbp)
	.loc	21 0 20 is_stmt 0
	movq	-16(%rbp), %rax
	movq	-24(%rbp), %rdx
	.loc	21 121 6 is_stmt 1
	addq	$32, %rsp
	popq	%rbp
	retq
Ltmp417:
Lfunc_end125:
	.cfi_endproc

	.p2align	4, 0x90
__ZN4core3ptr6unique15Unique$LT$T$GT$6as_ref17h5264b7237cb0000eE:
Lfunc_begin126:
	.loc	21 117 0
	.cfi_startproc
	pushq	%rbp
	.cfi_def_cfa_offset 16
	.cfi_offset %rbp, -16
	movq	%rsp, %rbp
	.cfi_def_cfa_register %rbp
	subq	$32, %rsp
	movq	%rdi, -8(%rbp)
Ltmp418:
	.loc	21 120 20 prologue_end
	movq	(%rdi), %rax
	movq	8(%rdi), %rsi
	movq	%rax, %rdi
	callq	__ZN4core3ptr6unique15Unique$LT$T$GT$6as_ptr17habb803f09536845dE
	movq	%rax, -16(%rbp)
	movq	%rdx, -24(%rbp)
	.loc	21 0 20 is_stmt 0
	movq	-16(%rbp), %rax
	movq	-24(%rbp), %rdx
	.loc	21 121 6 is_stmt 1
	addq	$32, %rsp
	popq	%rbp
	retq
Ltmp419:
Lfunc_end126:
	.cfi_endproc

	.p2align	4, 0x90
__ZN4core3ptr6unique15Unique$LT$T$GT$6as_ref17h62b8d2a5e36a882aE:
Lfunc_begin127:
	.loc	21 117 0
	.cfi_startproc
	pushq	%rbp
	.cfi_def_cfa_offset 16
	.cfi_offset %rbp, -16
	movq	%rsp, %rbp
	.cfi_def_cfa_register %rbp
	subq	$16, %rsp
	movq	%rdi, -8(%rbp)
Ltmp420:
	.loc	21 120 20 prologue_end
	movq	(%rdi), %rdi
	callq	__ZN4core3ptr6unique15Unique$LT$T$GT$6as_ptr17hfdda69e9ab0ccda1E
	movq	%rax, -16(%rbp)
	.loc	21 0 20 is_stmt 0
	movq	-16(%rbp), %rax
	.loc	21 121 6 is_stmt 1
	addq	$16, %rsp
	popq	%rbp
	retq
Ltmp421:
Lfunc_end127:
	.cfi_endproc

	.p2align	4, 0x90
__ZN4core3ptr6unique15Unique$LT$T$GT$6as_ref17hf29af21f154604f0E:
Lfunc_begin128:
	.loc	21 117 0
	.cfi_startproc
	pushq	%rbp
	.cfi_def_cfa_offset 16
	.cfi_offset %rbp, -16
	movq	%rsp, %rbp
	.cfi_def_cfa_register %rbp
	subq	$32, %rsp
	movq	%rdi, -8(%rbp)
Ltmp422:
	.loc	21 120 20 prologue_end
	movq	(%rdi), %rax
	movq	8(%rdi), %rsi
	movq	%rax, %rdi
	callq	__ZN4core3ptr6unique15Unique$LT$T$GT$6as_ptr17h0d96c388f45d41ffE
	movq	%rax, -16(%rbp)
	movq	%rdx, -24(%rbp)
	.loc	21 0 20 is_stmt 0
	movq	-16(%rbp), %rax
	movq	-24(%rbp), %rdx
	.loc	21 121 6 is_stmt 1
	addq	$32, %rsp
	popq	%rbp
	retq
Ltmp423:
Lfunc_end128:
	.cfi_endproc

	.p2align	4, 0x90
__ZN4core3ptr7mut_ptr31_$LT$impl$u20$$BP$mut$u20$T$GT$3add17heeeac7c861825809E:
Lfunc_begin129:
	.file	22 "/rustc/6c8927b0cf80ceee19386026cf9d7fd4fd9d486f/src/libcore/ptr/mut_ptr.rs"
	.loc	22 529 0
	.cfi_startproc
	pushq	%rbp
	.cfi_def_cfa_offset 16
	.cfi_offset %rbp, -16
	movq	%rsp, %rbp
	.cfi_def_cfa_register %rbp
	subq	$32, %rsp
	movq	%rdi, -16(%rbp)
	movq	%rsi, -8(%rbp)
Ltmp424:
	.loc	22 534 18 prologue_end
	callq	__ZN4core3ptr7mut_ptr31_$LT$impl$u20$$BP$mut$u20$T$GT$6offset17hac2dc2f2ed31caa7E
	movq	%rax, -24(%rbp)
	.loc	22 0 18 is_stmt 0
	movq	-24(%rbp), %rax
	.loc	22 535 6 is_stmt 1
	addq	$32, %rsp
	popq	%rbp
	retq
Ltmp425:
Lfunc_end129:
	.cfi_endproc

	.p2align	4, 0x90
__ZN4core3ptr7mut_ptr31_$LT$impl$u20$$BP$mut$u20$T$GT$6offset17hac2dc2f2ed31caa7E:
Lfunc_begin130:
	.loc	22 158 0
	.cfi_startproc
	pushq	%rbp
	.cfi_def_cfa_offset 16
	.cfi_offset %rbp, -16
	movq	%rsp, %rbp
	.cfi_def_cfa_register %rbp
	subq	$32, %rsp
	movq	%rdi, -24(%rbp)
	movq	%rsi, -16(%rbp)
Ltmp426:
	.loc	22 165 18 prologue_end
	addq	%rsi, %rdi
	movq	%rdi, -8(%rbp)
	movq	-8(%rbp), %rax
	movq	%rax, -32(%rbp)
	.loc	22 0 18 is_stmt 0
	movq	-32(%rbp), %rax
	.loc	22 166 6 is_stmt 1
	addq	$32, %rsp
	popq	%rbp
	retq
Ltmp427:
Lfunc_end130:
	.cfi_endproc

	.p2align	4, 0x90
__ZN4core3ptr7mut_ptr31_$LT$impl$u20$$BP$mut$u20$T$GT$7is_null17h6dcae8ffce4270c0E:
Lfunc_begin131:
	.loc	22 26 0
	.cfi_startproc
	pushq	%rbp
	.cfi_def_cfa_offset 16
	.cfi_offset %rbp, -16
	movq	%rsp, %rbp
	.cfi_def_cfa_register %rbp
	subq	$16, %rsp
	movq	%rdi, -8(%rbp)
	movq	%rdi, -16(%rbp)
	movq	-16(%rbp), %rax
Ltmp428:
	.loc	22 29 9 prologue_end
	cmpq	$0, %rax
	sete	%cl
	.loc	22 30 6
	andb	$1, %cl
	movzbl	%cl, %edx
	movl	%edx, %eax
	addq	$16, %rsp
	popq	%rbp
	retq
Ltmp429:
Lfunc_end131:
	.cfi_endproc

	.p2align	4, 0x90
__ZN4core3ptr7mut_ptr31_$LT$impl$u20$$BP$mut$u20$T$GT$7is_null17h9291630913211bb5E:
Lfunc_begin132:
	.loc	22 26 0
	.cfi_startproc
	pushq	%rbp
	.cfi_def_cfa_offset 16
	.cfi_offset %rbp, -16
	movq	%rsp, %rbp
	.cfi_def_cfa_register %rbp
	subq	$16, %rsp
	movq	%rdi, -8(%rbp)
	movq	%rdi, -16(%rbp)
	movq	-16(%rbp), %rax
Ltmp430:
	.loc	22 29 9 prologue_end
	cmpq	$0, %rax
	sete	%cl
	.loc	22 30 6
	andb	$1, %cl
	movzbl	%cl, %edx
	movl	%edx, %eax
	addq	$16, %rsp
	popq	%rbp
	retq
Ltmp431:
Lfunc_end132:
	.cfi_endproc

	.p2align	4, 0x90
__ZN4core3ptr7mut_ptr31_$LT$impl$u20$$BP$mut$u20$T$GT$7is_null17ha4e0f3dfbc772e84E:
Lfunc_begin133:
	.loc	22 26 0
	.cfi_startproc
	pushq	%rbp
	.cfi_def_cfa_offset 16
	.cfi_offset %rbp, -16
	movq	%rsp, %rbp
	.cfi_def_cfa_register %rbp
	subq	$16, %rsp
	movq	%rdi, -8(%rbp)
	movq	%rdi, -16(%rbp)
	movq	-16(%rbp), %rax
Ltmp432:
	.loc	22 29 9 prologue_end
	cmpq	$0, %rax
	sete	%cl
	.loc	22 30 6
	andb	$1, %cl
	movzbl	%cl, %edx
	movl	%edx, %eax
	addq	$16, %rsp
	popq	%rbp
	retq
Ltmp433:
Lfunc_end133:
	.cfi_endproc

	.p2align	4, 0x90
__ZN4core3ptr7mut_ptr31_$LT$impl$u20$$BP$mut$u20$T$GT$7is_null17ha87714630a556e10E:
Lfunc_begin134:
	.loc	22 26 0
	.cfi_startproc
	pushq	%rbp
	.cfi_def_cfa_offset 16
	.cfi_offset %rbp, -16
	movq	%rsp, %rbp
	.cfi_def_cfa_register %rbp
	subq	$16, %rsp
	movq	%rdi, -8(%rbp)
	movq	%rdi, -16(%rbp)
	movq	-16(%rbp), %rax
Ltmp434:
	.loc	22 29 9 prologue_end
	cmpq	$0, %rax
	sete	%cl
	.loc	22 30 6
	andb	$1, %cl
	movzbl	%cl, %edx
	movl	%edx, %eax
	addq	$16, %rsp
	popq	%rbp
	retq
Ltmp435:
Lfunc_end134:
	.cfi_endproc

	.p2align	4, 0x90
__ZN4core3ptr7mut_ptr31_$LT$impl$u20$$BP$mut$u20$T$GT$7is_null17he9165413d377df18E:
Lfunc_begin135:
	.loc	22 26 0
	.cfi_startproc
	pushq	%rbp
	.cfi_def_cfa_offset 16
	.cfi_offset %rbp, -16
	movq	%rsp, %rbp
	.cfi_def_cfa_register %rbp
	subq	$16, %rsp
	movq	%rdi, -8(%rbp)
	movq	%rdi, -16(%rbp)
	movq	-16(%rbp), %rax
Ltmp436:
	.loc	22 29 9 prologue_end
	cmpq	$0, %rax
	sete	%cl
	.loc	22 30 6
	andb	$1, %cl
	movzbl	%cl, %edx
	movl	%edx, %eax
	addq	$16, %rsp
	popq	%rbp
	retq
Ltmp437:
Lfunc_end135:
	.cfi_endproc

	.p2align	4, 0x90
__ZN4core3ptr7mut_ptr41_$LT$impl$u20$$BP$mut$u20$$u5b$T$u5d$$GT$10as_mut_ptr17h762759ca7df55efbE:
Lfunc_begin136:
	.loc	22 1051 0
	.cfi_startproc
	pushq	%rbp
	.cfi_def_cfa_offset 16
	.cfi_offset %rbp, -16
	movq	%rsp, %rbp
	.cfi_def_cfa_register %rbp
	subq	$16, %rsp
	movq	%rdi, -16(%rbp)
	movq	%rsi, -8(%rbp)
Ltmp438:
	.loc	22 1053 6 prologue_end
	movq	%rdi, %rax
	addq	$16, %rsp
	popq	%rbp
	retq
Ltmp439:
Lfunc_end136:
	.cfi_endproc

	.p2align	4, 0x90
__ZN4core3ptr8non_null16NonNull$LT$T$GT$13new_unchecked17h0250a5095c522e8dE:
Lfunc_begin137:
	.loc	5 90 0
	.cfi_startproc
	pushq	%rbp
	.cfi_def_cfa_offset 16
	.cfi_offset %rbp, -16
	movq	%rsp, %rbp
	.cfi_def_cfa_register %rbp
	subq	$16, %rsp
	movq	%rdi, -8(%rbp)
Ltmp440:
	.loc	5 92 18 prologue_end
	movq	%rdi, -16(%rbp)
	.loc	5 93 6
	movq	-16(%rbp), %rax
	addq	$16, %rsp
	popq	%rbp
	retq
Ltmp441:
Lfunc_end137:
	.cfi_endproc

	.p2align	4, 0x90
__ZN4core3ptr8non_null16NonNull$LT$T$GT$13new_unchecked17h112bb0504b0dcd91E:
Lfunc_begin138:
	.loc	5 90 0
	.cfi_startproc
	pushq	%rbp
	.cfi_def_cfa_offset 16
	.cfi_offset %rbp, -16
	movq	%rsp, %rbp
	.cfi_def_cfa_register %rbp
	subq	$16, %rsp
	movq	%rdi, -8(%rbp)
Ltmp442:
	.loc	5 92 18 prologue_end
	movq	%rdi, -16(%rbp)
	.loc	5 93 6
	movq	-16(%rbp), %rax
	addq	$16, %rsp
	popq	%rbp
	retq
Ltmp443:
Lfunc_end138:
	.cfi_endproc

	.p2align	4, 0x90
__ZN4core3ptr8non_null16NonNull$LT$T$GT$3new17h0e626bb4ba605955E:
Lfunc_begin139:
	.loc	5 98 0
	.cfi_startproc
	pushq	%rbp
	.cfi_def_cfa_offset 16
	.cfi_offset %rbp, -16
	movq	%rsp, %rbp
	.cfi_def_cfa_register %rbp
	subq	$48, %rsp
	movq	%rdi, -8(%rbp)
	movq	%rdi, -24(%rbp)
Ltmp444:
	.loc	5 99 13 prologue_end
	callq	__ZN4core3ptr7mut_ptr31_$LT$impl$u20$$BP$mut$u20$T$GT$7is_null17ha4e0f3dfbc772e84E
	movb	%al, -25(%rbp)
	.loc	5 0 13 is_stmt 0
	movb	-25(%rbp), %al
	.loc	5 99 12
	xorb	$-1, %al
	.loc	5 99 9
	testb	$1, %al
	jne	LBB139_3
	.loc	5 103 13 is_stmt 1
	movq	$0, -16(%rbp)
	.loc	5 99 9
	jmp	LBB139_5
LBB139_3:
	.loc	5 0 9 is_stmt 0
	movq	-24(%rbp), %rdi
	.loc	5 101 27 is_stmt 1
	callq	__ZN4core3ptr8non_null16NonNull$LT$T$GT$13new_unchecked17h0250a5095c522e8dE
	movq	%rax, -40(%rbp)
	.loc	5 0 27 is_stmt 0
	movq	-40(%rbp), %rax
	.loc	5 101 13
	movq	%rax, -16(%rbp)
LBB139_5:
	.loc	5 105 6 is_stmt 1
	movq	-16(%rbp), %rax
	addq	$48, %rsp
	popq	%rbp
	retq
Ltmp445:
Lfunc_end139:
	.cfi_endproc

	.p2align	4, 0x90
__ZN4core3ptr8non_null16NonNull$LT$T$GT$4cast17hf7a3f2940fdef445E:
Lfunc_begin140:
	.loc	5 145 0
	.cfi_startproc
	pushq	%rbp
	.cfi_def_cfa_offset 16
	.cfi_offset %rbp, -16
	movq	%rsp, %rbp
	.cfi_def_cfa_register %rbp
	subq	$32, %rsp
	movq	%rdi, -8(%rbp)
Ltmp446:
	.loc	5 147 41 prologue_end
	callq	__ZN4core3ptr8non_null16NonNull$LT$T$GT$6as_ptr17h7170d69e11de9a34E
	movq	%rax, -16(%rbp)
	.loc	5 0 41 is_stmt 0
	movq	-16(%rbp), %rax
	.loc	5 147 18
	movq	%rax, %rdi
	callq	__ZN4core3ptr8non_null16NonNull$LT$T$GT$13new_unchecked17h112bb0504b0dcd91E
	movq	%rax, -24(%rbp)
	.loc	5 0 18
	movq	-24(%rbp), %rax
	.loc	5 148 6 is_stmt 1
	addq	$32, %rsp
	popq	%rbp
	retq
Ltmp447:
Lfunc_end140:
	.cfi_endproc

	.p2align	4, 0x90
__ZN4core3ptr8non_null16NonNull$LT$T$GT$6as_ptr17h7170d69e11de9a34E:
Lfunc_begin141:
	.loc	5 111 0
	.cfi_startproc
	pushq	%rbp
	.cfi_def_cfa_offset 16
	.cfi_offset %rbp, -16
	movq	%rsp, %rbp
	.cfi_def_cfa_register %rbp
	pushq	%rax
	movq	%rdi, -8(%rbp)
Ltmp448:
	.loc	5 113 6 prologue_end
	movq	%rdi, %rax
	addq	$8, %rsp
	popq	%rbp
	retq
Ltmp449:
Lfunc_end141:
	.cfi_endproc

	.p2align	4, 0x90
__ZN4core3ptr8non_null16NonNull$LT$T$GT$6as_ptr17hda71164ee5feb0cfE:
Lfunc_begin142:
	.loc	5 111 0
	.cfi_startproc
	pushq	%rbp
	.cfi_def_cfa_offset 16
	.cfi_offset %rbp, -16
	movq	%rsp, %rbp
	.cfi_def_cfa_register %rbp
	pushq	%rax
	movq	%rdi, -8(%rbp)
Ltmp450:
	.loc	5 113 6 prologue_end
	movq	%rdi, %rax
	addq	$8, %rsp
	popq	%rbp
	retq
Ltmp451:
Lfunc_end142:
	.cfi_endproc

	.p2align	4, 0x90
__ZN4core3ptr8non_null16NonNull$LT$T$GT$6as_ref17h92a4274cdbd45c05E:
Lfunc_begin143:
	.loc	5 122 0
	.cfi_startproc
	pushq	%rbp
	.cfi_def_cfa_offset 16
	.cfi_offset %rbp, -16
	movq	%rsp, %rbp
	.cfi_def_cfa_register %rbp
	subq	$16, %rsp
	movq	%rdi, -8(%rbp)
Ltmp452:
	.loc	5 125 20 prologue_end
	movq	(%rdi), %rdi
	callq	__ZN4core3ptr8non_null16NonNull$LT$T$GT$6as_ptr17h7170d69e11de9a34E
	movq	%rax, -16(%rbp)
	.loc	5 0 20 is_stmt 0
	movq	-16(%rbp), %rax
	.loc	5 126 6 is_stmt 1
	addq	$16, %rsp
	popq	%rbp
	retq
Ltmp453:
Lfunc_end143:
	.cfi_endproc

	.p2align	4, 0x90
__ZN4core3ptr9const_ptr33_$LT$impl$u20$$BP$const$u20$T$GT$13guaranteed_eq17h94e3cbce32f82e9fE:
Lfunc_begin144:
	.file	23 "/rustc/6c8927b0cf80ceee19386026cf9d7fd4fd9d486f/src/libcore/ptr/const_ptr.rs"
	.loc	23 327 0
	.cfi_startproc
	pushq	%rbp
	.cfi_def_cfa_offset 16
	.cfi_offset %rbp, -16
	movq	%rsp, %rbp
	.cfi_def_cfa_register %rbp
	subq	$32, %rsp
	movq	%rdi, -24(%rbp)
	movq	%rsi, -16(%rbp)
Ltmp454:
	.loc	23 331 9 prologue_end
	cmpq	%rsi, %rdi
	sete	%al
	andb	$1, %al
	movb	%al, -1(%rbp)
	movb	-1(%rbp), %al
	movb	%al, -25(%rbp)
	.loc	23 0 9 is_stmt 0
	movb	-25(%rbp), %al
	.loc	23 332 6 is_stmt 1
	andb	$1, %al
	movzbl	%al, %eax
	addq	$32, %rsp
	popq	%rbp
	retq
Ltmp455:
Lfunc_end144:
	.cfi_endproc

	.p2align	4, 0x90
__ZN4core3ptr9const_ptr33_$LT$impl$u20$$BP$const$u20$T$GT$3add17h60df27e35ca92f7dE:
Lfunc_begin145:
	.loc	23 473 0
	.cfi_startproc
	pushq	%rbp
	.cfi_def_cfa_offset 16
	.cfi_offset %rbp, -16
	movq	%rsp, %rbp
	.cfi_def_cfa_register %rbp
	subq	$32, %rsp
	movq	%rdi, -16(%rbp)
	movq	%rsi, -8(%rbp)
Ltmp456:
	.loc	23 478 18 prologue_end
	callq	__ZN4core3ptr9const_ptr33_$LT$impl$u20$$BP$const$u20$T$GT$6offset17h1523e2f3264999a1E
	movq	%rax, -24(%rbp)
	.loc	23 0 18 is_stmt 0
	movq	-24(%rbp), %rax
	.loc	23 479 6 is_stmt 1
	addq	$32, %rsp
	popq	%rbp
	retq
Ltmp457:
Lfunc_end145:
	.cfi_endproc

	.p2align	4, 0x90
__ZN4core3ptr9const_ptr33_$LT$impl$u20$$BP$const$u20$T$GT$3add17h77be8308a2d382ddE:
Lfunc_begin146:
	.loc	23 473 0
	.cfi_startproc
	pushq	%rbp
	.cfi_def_cfa_offset 16
	.cfi_offset %rbp, -16
	movq	%rsp, %rbp
	.cfi_def_cfa_register %rbp
	subq	$32, %rsp
	movq	%rdi, -16(%rbp)
	movq	%rsi, -8(%rbp)
Ltmp458:
	.loc	23 478 18 prologue_end
	callq	__ZN4core3ptr9const_ptr33_$LT$impl$u20$$BP$const$u20$T$GT$6offset17hd3e53daadc653cd1E
	movq	%rax, -24(%rbp)
	.loc	23 0 18 is_stmt 0
	movq	-24(%rbp), %rax
	.loc	23 479 6 is_stmt 1
	addq	$32, %rsp
	popq	%rbp
	retq
Ltmp459:
Lfunc_end146:
	.cfi_endproc

	.p2align	4, 0x90
__ZN4core3ptr9const_ptr33_$LT$impl$u20$$BP$const$u20$T$GT$3add17h9781bd4ec2d35746E:
Lfunc_begin147:
	.loc	23 473 0
	.cfi_startproc
	pushq	%rbp
	.cfi_def_cfa_offset 16
	.cfi_offset %rbp, -16
	movq	%rsp, %rbp
	.cfi_def_cfa_register %rbp
	subq	$32, %rsp
	movq	%rdi, -16(%rbp)
	movq	%rsi, -8(%rbp)
Ltmp460:
	.loc	23 478 18 prologue_end
	callq	__ZN4core3ptr9const_ptr33_$LT$impl$u20$$BP$const$u20$T$GT$6offset17h01c6ac6f5d89abb8E
	movq	%rax, -24(%rbp)
	.loc	23 0 18 is_stmt 0
	movq	-24(%rbp), %rax
	.loc	23 479 6 is_stmt 1
	addq	$32, %rsp
	popq	%rbp
	retq
Ltmp461:
Lfunc_end147:
	.cfi_endproc

	.p2align	4, 0x90
__ZN4core3ptr9const_ptr33_$LT$impl$u20$$BP$const$u20$T$GT$3add17hea6d6d15f01a8fa0E:
Lfunc_begin148:
	.loc	23 473 0
	.cfi_startproc
	pushq	%rbp
	.cfi_def_cfa_offset 16
	.cfi_offset %rbp, -16
	movq	%rsp, %rbp
	.cfi_def_cfa_register %rbp
	subq	$32, %rsp
	movq	%rdi, -16(%rbp)
	movq	%rsi, -8(%rbp)
Ltmp462:
	.loc	23 478 18 prologue_end
	callq	__ZN4core3ptr9const_ptr33_$LT$impl$u20$$BP$const$u20$T$GT$6offset17he31d4593e41b207aE
	movq	%rax, -24(%rbp)
	.loc	23 0 18 is_stmt 0
	movq	-24(%rbp), %rax
	.loc	23 479 6 is_stmt 1
	addq	$32, %rsp
	popq	%rbp
	retq
Ltmp463:
Lfunc_end148:
	.cfi_endproc

	.p2align	4, 0x90
__ZN4core3ptr9const_ptr33_$LT$impl$u20$$BP$const$u20$T$GT$6offset17h01c6ac6f5d89abb8E:
Lfunc_begin149:
	.loc	23 159 0
	.cfi_startproc
	pushq	%rbp
	.cfi_def_cfa_offset 16
	.cfi_offset %rbp, -16
	movq	%rsp, %rbp
	.cfi_def_cfa_register %rbp
	subq	$32, %rsp
	movq	%rdi, -24(%rbp)
	movq	%rsi, -16(%rbp)
Ltmp464:
	.loc	23 164 18 prologue_end
	imulq	$24, %rsi, %rax
	addq	%rax, %rdi
	movq	%rdi, -8(%rbp)
	movq	-8(%rbp), %rax
	movq	%rax, -32(%rbp)
	.loc	23 0 18 is_stmt 0
	movq	-32(%rbp), %rax
	.loc	23 165 6 is_stmt 1
	addq	$32, %rsp
	popq	%rbp
	retq
Ltmp465:
Lfunc_end149:
	.cfi_endproc

	.p2align	4, 0x90
__ZN4core3ptr9const_ptr33_$LT$impl$u20$$BP$const$u20$T$GT$6offset17h1523e2f3264999a1E:
Lfunc_begin150:
	.loc	23 159 0
	.cfi_startproc
	pushq	%rbp
	.cfi_def_cfa_offset 16
	.cfi_offset %rbp, -16
	movq	%rsp, %rbp
	.cfi_def_cfa_register %rbp
	subq	$32, %rsp
	movq	%rdi, -24(%rbp)
	movq	%rsi, -16(%rbp)
Ltmp466:
	.loc	23 164 18 prologue_end
	imulq	$24, %rsi, %rax
	addq	%rax, %rdi
	movq	%rdi, -8(%rbp)
	movq	-8(%rbp), %rax
	movq	%rax, -32(%rbp)
	.loc	23 0 18 is_stmt 0
	movq	-32(%rbp), %rax
	.loc	23 165 6 is_stmt 1
	addq	$32, %rsp
	popq	%rbp
	retq
Ltmp467:
Lfunc_end150:
	.cfi_endproc

	.p2align	4, 0x90
__ZN4core3ptr9const_ptr33_$LT$impl$u20$$BP$const$u20$T$GT$6offset17hd3e53daadc653cd1E:
Lfunc_begin151:
	.loc	23 159 0
	.cfi_startproc
	pushq	%rbp
	.cfi_def_cfa_offset 16
	.cfi_offset %rbp, -16
	movq	%rsp, %rbp
	.cfi_def_cfa_register %rbp
	subq	$32, %rsp
	movq	%rdi, -24(%rbp)
	movq	%rsi, -16(%rbp)
Ltmp468:
	.loc	23 164 18 prologue_end
	addq	%rsi, %rdi
	movq	%rdi, -8(%rbp)
	movq	-8(%rbp), %rax
	movq	%rax, -32(%rbp)
	.loc	23 0 18 is_stmt 0
	movq	-32(%rbp), %rax
	.loc	23 165 6 is_stmt 1
	addq	$32, %rsp
	popq	%rbp
	retq
Ltmp469:
Lfunc_end151:
	.cfi_endproc

	.p2align	4, 0x90
__ZN4core3ptr9const_ptr33_$LT$impl$u20$$BP$const$u20$T$GT$6offset17he31d4593e41b207aE:
Lfunc_begin152:
	.loc	23 159 0
	.cfi_startproc
	pushq	%rbp
	.cfi_def_cfa_offset 16
	.cfi_offset %rbp, -16
	movq	%rsp, %rbp
	.cfi_def_cfa_register %rbp
	subq	$32, %rsp
	movq	%rdi, -24(%rbp)
	movq	%rsi, -16(%rbp)
Ltmp470:
	.loc	23 164 18 prologue_end
	shlq	$3, %rsi
	addq	%rsi, %rdi
	movq	%rdi, -8(%rbp)
	movq	-8(%rbp), %rax
	movq	%rax, -32(%rbp)
	.loc	23 0 18 is_stmt 0
	movq	-32(%rbp), %rax
	.loc	23 165 6 is_stmt 1
	addq	$32, %rsp
	popq	%rbp
	retq
Ltmp471:
Lfunc_end152:
	.cfi_endproc

	.p2align	4, 0x90
__ZN4core3ptr9const_ptr43_$LT$impl$u20$$BP$const$u20$$u5b$T$u5d$$GT$6as_ptr17had44752a04cf493fE:
Lfunc_begin153:
	.loc	23 845 0
	.cfi_startproc
	pushq	%rbp
	.cfi_def_cfa_offset 16
	.cfi_offset %rbp, -16
	movq	%rsp, %rbp
	.cfi_def_cfa_register %rbp
	subq	$16, %rsp
	movq	%rdi, -16(%rbp)
	movq	%rsi, -8(%rbp)
Ltmp472:
	.loc	23 847 6 prologue_end
	movq	%rdi, %rax
	addq	$16, %rsp
	popq	%rbp
	retq
Ltmp473:
Lfunc_end153:
	.cfi_endproc

	.p2align	4, 0x90
__ZN4core3ptr9const_ptr43_$LT$impl$u20$$BP$const$u20$$u5b$T$u5d$$GT$6as_ptr17hd295e6a692526a51E:
Lfunc_begin154:
	.loc	23 845 0
	.cfi_startproc
	pushq	%rbp
	.cfi_def_cfa_offset 16
	.cfi_offset %rbp, -16
	movq	%rsp, %rbp
	.cfi_def_cfa_register %rbp
	subq	$16, %rsp
	movq	%rdi, -16(%rbp)
	movq	%rsi, -8(%rbp)
Ltmp474:
	.loc	23 847 6 prologue_end
	movq	%rdi, %rax
	addq	$16, %rsp
	popq	%rbp
	retq
Ltmp475:
Lfunc_end154:
	.cfi_endproc

	.p2align	4, 0x90
__ZN4core3ptr9const_ptr43_$LT$impl$u20$$BP$const$u20$$u5b$T$u5d$$GT$6as_ptr17he3d928f27d20ce4eE:
Lfunc_begin155:
	.loc	23 845 0
	.cfi_startproc
	pushq	%rbp
	.cfi_def_cfa_offset 16
	.cfi_offset %rbp, -16
	movq	%rsp, %rbp
	.cfi_def_cfa_register %rbp
	subq	$16, %rsp
	movq	%rdi, -16(%rbp)
	movq	%rsi, -8(%rbp)
Ltmp476:
	.loc	23 847 6 prologue_end
	movq	%rdi, %rax
	addq	$16, %rsp
	popq	%rbp
	retq
Ltmp477:
Lfunc_end155:
	.cfi_endproc

	.p2align	4, 0x90
__ZN4core3ptr9const_ptr43_$LT$impl$u20$$BP$const$u20$$u5b$T$u5d$$GT$6as_ptr17hf326d23c07753500E:
Lfunc_begin156:
	.loc	23 845 0
	.cfi_startproc
	pushq	%rbp
	.cfi_def_cfa_offset 16
	.cfi_offset %rbp, -16
	movq	%rsp, %rbp
	.cfi_def_cfa_register %rbp
	subq	$16, %rsp
	movq	%rdi, -16(%rbp)
	movq	%rsi, -8(%rbp)
Ltmp478:
	.loc	23 847 6 prologue_end
	movq	%rdi, %rax
	addq	$16, %rsp
	popq	%rbp
	retq
Ltmp479:
Lfunc_end156:
	.cfi_endproc

	.p2align	4, 0x90
__ZN4core3str19from_utf8_unchecked17h0cacb2ee3f700e07E:
Lfunc_begin157:
	.loc	8 417 0
	.cfi_startproc
	pushq	%rbp
	.cfi_def_cfa_offset 16
	.cfi_offset %rbp, -16
	movq	%rsp, %rbp
	.cfi_def_cfa_register %rbp
	subq	$16, %rsp
	movq	%rdi, -16(%rbp)
	movq	%rsi, -8(%rbp)
Ltmp480:
	.loc	8 423 2 prologue_end
	movq	%rdi, %rax
	movq	%rsi, %rdx
	addq	$16, %rsp
	popq	%rbp
	retq
Ltmp481:
Lfunc_end157:
	.cfi_endproc

	.p2align	4, 0x90
__ZN4core3str21_$LT$impl$u20$str$GT$13get_unchecked17h361445795f8737a1E:
Lfunc_begin158:
	.loc	8 2533 0
	.cfi_startproc
	pushq	%rbp
	.cfi_def_cfa_offset 16
	.cfi_offset %rbp, -16
	movq	%rsp, %rbp
	.cfi_def_cfa_register %rbp
	subq	$64, %rsp
	movq	%rdi, -32(%rbp)
	movq	%rsi, -24(%rbp)
	movq	%rdx, -16(%rbp)
	movq	%rcx, -8(%rbp)
	movq	%rdi, -40(%rbp)
Ltmp482:
	.loc	8 2537 20 prologue_end
	movq	%rdx, %rdi
	movq	%rsi, -48(%rbp)
	movq	%rcx, %rsi
	movq	-40(%rbp), %rdx
	movq	-48(%rbp), %rcx
	callq	__ZN4core3str6traits101_$LT$impl$u20$core..slice..SliceIndex$LT$str$GT$$u20$for$u20$core..ops..range..Range$LT$usize$GT$$GT$13get_unchecked17h147af0cd6a9e95a9E
	movq	%rax, -56(%rbp)
	movq	%rdx, -64(%rbp)
	.loc	8 0 20 is_stmt 0
	movq	-56(%rbp), %rax
	movq	-64(%rbp), %rdx
	.loc	8 2538 6 is_stmt 1
	addq	$64, %rsp
	popq	%rbp
	retq
Ltmp483:
Lfunc_end158:
	.cfi_endproc

	.p2align	4, 0x90
__ZN4core3str21_$LT$impl$u20$str$GT$3len17h721bb85ac9ad15d3E:
Lfunc_begin159:
	.loc	8 2273 0
	.cfi_startproc
	pushq	%rbp
	.cfi_def_cfa_offset 16
	.cfi_offset %rbp, -16
	movq	%rsp, %rbp
	.cfi_def_cfa_register %rbp
	subq	$80, %rsp
	movq	%rdi, -48(%rbp)
	movq	%rsi, -40(%rbp)
	movq	%rdi, -16(%rbp)
	movq	%rsi, -8(%rbp)
Ltmp484:
	.loc	8 2359 18 prologue_end
	movq	%rdi, -32(%rbp)
	movq	%rsi, -24(%rbp)
	movq	-32(%rbp), %rdi
	movq	-24(%rbp), %rsi
	movq	%rdi, -56(%rbp)
	movq	%rsi, -64(%rbp)
Ltmp485:
	.loc	8 0 18 is_stmt 0
	movq	-56(%rbp), %rdi
	movq	-64(%rbp), %rsi
	.loc	8 2274 9 is_stmt 1
	callq	__ZN4core5slice29_$LT$impl$u20$$u5b$T$u5d$$GT$3len17h388df21b6e60886dE
	movq	%rax, -72(%rbp)
	.loc	8 0 9 is_stmt 0
	movq	-72(%rbp), %rax
	.loc	8 2275 6 is_stmt 1
	addq	$80, %rsp
	popq	%rbp
	retq
Ltmp486:
Lfunc_end159:
	.cfi_endproc

	.p2align	4, 0x90
__ZN4core3str21_$LT$impl$u20$str$GT$5split17h626c8e1cd990f446E:
Lfunc_begin160:
	.loc	8 3320 0
	.cfi_startproc
	.cfi_personality 155, _rust_eh_personality
	.cfi_lsda 16, Lexception19
	pushq	%rbp
	.cfi_def_cfa_offset 16
	.cfi_offset %rbp, -16
	movq	%rsp, %rbp
	.cfi_def_cfa_register %rbp
	subq	$224, %rsp
	movq	%rdi, %rax
	movq	%rsi, -40(%rbp)
	movq	%rdx, -32(%rbp)
	movl	%ecx, -20(%rbp)
Ltmp492:
	.loc	8 3321 15 prologue_end
	movb	$0, -41(%rbp)
	movb	$1, -41(%rbp)
Ltmp487:
	movq	%rdi, -176(%rbp)
	.loc	8 3323 18
	movq	%rsi, %rdi
	movq	%rsi, -184(%rbp)
	movq	%rdx, %rsi
	movl	%ecx, -188(%rbp)
	movq	%rdx, -200(%rbp)
	movq	%rax, -208(%rbp)
	callq	__ZN4core3str21_$LT$impl$u20$str$GT$3len17h721bb85ac9ad15d3E
Ltmp488:
	movq	%rax, -216(%rbp)
	jmp	LBB160_2
LBB160_1:
	.loc	8 3320 5
	movq	-16(%rbp), %rdi
	callq	__Unwind_Resume
	ud2
LBB160_2:
	.loc	8 3324 22
	movb	$0, -41(%rbp)
Ltmp489:
	leaq	-96(%rbp), %rdi
	movl	-188(%rbp), %esi
	movq	-184(%rbp), %rdx
	movq	-200(%rbp), %rcx
	callq	__ZN52_$LT$char$u20$as$u20$core..str..pattern..Pattern$GT$13into_searcher17h20472f65704d40a7E
Ltmp490:
	jmp	LBB160_3
LBB160_3:
	.loc	8 3321 15
	movq	$0, -168(%rbp)
	movq	-216(%rbp), %rax
	movq	%rax, -160(%rbp)
	leaq	-168(%rbp), %rcx
	movq	%rcx, %rdx
	addq	$16, %rdx
	leaq	-96(%rbp), %rsi
	movq	%rdx, %rdi
	movl	$48, %edx
	movq	%rcx, -224(%rbp)
	callq	_memcpy
	movb	$1, -104(%rbp)
	movb	$0, -103(%rbp)
	movq	-176(%rbp), %rax
	movq	-224(%rbp), %rcx
	.loc	8 3321 9 is_stmt 0
	movq	%rax, %rdi
	movq	%rcx, %rsi
	movl	$72, %edx
	callq	_memcpy
	movq	-208(%rbp), %rax
	.loc	8 3328 6 is_stmt 1
	addq	$224, %rsp
	popq	%rbp
	retq
LBB160_4:
	.loc	8 3328 5 is_stmt 0
	movb	$0, -41(%rbp)
	jmp	LBB160_1
LBB160_5:
	testb	$1, -41(%rbp)
	jne	LBB160_4
	jmp	LBB160_1
Ltmp493:
LBB160_6:
Ltmp491:
	.loc	8 0 5
	movq	%rax, -16(%rbp)
	movl	%edx, -8(%rbp)
	jmp	LBB160_5
Lfunc_end160:
	.cfi_endproc
	.section	__TEXT,__gcc_except_tab
	.p2align	2
GCC_except_table160:
Lexception19:
	.byte	255
	.byte	255
	.byte	1
	.uleb128 Lcst_end19-Lcst_begin19
Lcst_begin19:
	.uleb128 Ltmp487-Lfunc_begin160
	.uleb128 Ltmp488-Ltmp487
	.uleb128 Ltmp491-Lfunc_begin160
	.byte	0
	.uleb128 Ltmp488-Lfunc_begin160
	.uleb128 Ltmp489-Ltmp488
	.byte	0
	.byte	0
	.uleb128 Ltmp489-Lfunc_begin160
	.uleb128 Ltmp490-Ltmp489
	.uleb128 Ltmp491-Lfunc_begin160
	.byte	0
	.uleb128 Ltmp490-Lfunc_begin160
	.uleb128 Lfunc_end160-Ltmp490
	.byte	0
	.byte	0
Lcst_end19:
	.p2align	2

	.section	__TEXT,__text,regular,pure_instructions
	.p2align	4, 0x90
__ZN4core3str22SplitInternal$LT$P$GT$4next17h256ae1588bcb2848E:
Lfunc_begin161:
	.loc	8 1118 0 is_stmt 1
	.cfi_startproc
	pushq	%rbp
	.cfi_def_cfa_offset 16
	.cfi_offset %rbp, -16
	movq	%rsp, %rbp
	.cfi_def_cfa_register %rbp
	subq	$160, %rsp
	movq	%rdi, -56(%rbp)
Ltmp494:
	.loc	8 1119 9 prologue_end
	testb	$1, 65(%rdi)
	movq	%rdi, -120(%rbp)
	jne	LBB161_2
	.loc	8 0 9 is_stmt 0
	movq	-120(%rbp), %rax
	.loc	8 1123 24 is_stmt 1
	addq	$16, %rax
	movq	%rax, %rdi
	callq	__ZN81_$LT$core..str..pattern..CharSearcher$u20$as$u20$core..str..pattern..Searcher$GT$8haystack17h6bf05de28f603c99E
	movq	%rax, -48(%rbp)
	movq	%rdx, -40(%rbp)
	movq	%rax, -128(%rbp)
	movq	%rdx, -136(%rbp)
	jmp	LBB161_4
LBB161_2:
	.loc	8 1120 20
	movq	$0, -112(%rbp)
LBB161_3:
	.loc	8 1133 6
	movq	-112(%rbp), %rax
	movq	-104(%rbp), %rdx
	addq	$160, %rsp
	popq	%rbp
	retq
LBB161_4:
	.loc	8 0 6 is_stmt 0
	movq	-120(%rbp), %rax
Ltmp495:
	.loc	8 1124 15 is_stmt 1
	addq	$16, %rax
	leaq	-96(%rbp), %rdi
	movq	%rax, %rsi
	callq	__ZN81_$LT$core..str..pattern..CharSearcher$u20$as$u20$core..str..pattern..Searcher$GT$10next_match17h3bb35a8bfb739a44E
	.loc	8 1126 13
	movq	-96(%rbp), %rax
	testq	%rax, %rax
	je	LBB161_6
	jmp	LBB161_12
LBB161_12:
	jmp	LBB161_8
LBB161_6:
	.loc	8 0 13 is_stmt 0
	movq	-120(%rbp), %rdi
	.loc	8 1131 21 is_stmt 1
	callq	__ZN4core3str22SplitInternal$LT$P$GT$7get_end17h2af531a3255e2355E
	movq	%rdx, -104(%rbp)
	movq	%rax, -112(%rbp)
	jmp	LBB161_10
	.loc	8 1124 15
	ud2
LBB161_8:
	.loc	8 1126 19
	movq	-88(%rbp), %rax
	movq	%rax, -32(%rbp)
	.loc	8 1126 22 is_stmt 0
	movq	-80(%rbp), %rcx
	movq	%rcx, -24(%rbp)
	movq	-120(%rbp), %rdx
Ltmp496:
	.loc	8 1127 50 is_stmt 1
	movq	(%rdx), %rsi
	movq	%rsi, -72(%rbp)
	movq	%rax, -64(%rbp)
	.loc	8 1127 27 is_stmt 0
	movq	-72(%rbp), %rdx
	movq	-64(%rbp), %rax
	movq	-128(%rbp), %rdi
	movq	-136(%rbp), %rsi
	movq	%rcx, -144(%rbp)
	movq	%rax, %rcx
	callq	__ZN4core3str21_$LT$impl$u20$str$GT$13get_unchecked17h361445795f8737a1E
	movq	%rax, -16(%rbp)
	movq	%rdx, -8(%rbp)
	movq	%rax, -152(%rbp)
	movq	%rdx, -160(%rbp)
	.loc	8 0 27
	movq	-120(%rbp), %rax
	movq	-144(%rbp), %rcx
Ltmp497:
	.loc	8 1128 17 is_stmt 1
	movq	%rcx, (%rax)
	movq	-152(%rbp), %rdx
	.loc	8 1129 17
	movq	%rdx, -112(%rbp)
	movq	-160(%rbp), %rsi
	movq	%rsi, -104(%rbp)
Ltmp498:
	.loc	8 1124 9
	jmp	LBB161_11
LBB161_10:
	jmp	LBB161_11
Ltmp499:
LBB161_11:
	.loc	8 1133 6
	jmp	LBB161_3
Ltmp500:
Lfunc_end161:
	.cfi_endproc

	.p2align	4, 0x90
__ZN4core3str22SplitInternal$LT$P$GT$7get_end17h2af531a3255e2355E:
Lfunc_begin162:
	.loc	8 1104 0
	.cfi_startproc
	pushq	%rbp
	.cfi_def_cfa_offset 16
	.cfi_offset %rbp, -16
	movq	%rsp, %rbp
	.cfi_def_cfa_register %rbp
	subq	$112, %rsp
	movq	%rdi, -24(%rbp)
Ltmp501:
	.loc	8 1105 13 prologue_end
	movb	65(%rdi), %al
	.loc	8 1105 12 is_stmt 0
	xorb	$-1, %al
	testb	$1, %al
	movq	%rdi, -72(%rbp)
	jne	LBB162_3
	jmp	LBB162_2
LBB162_1:
	movb	$1, -42(%rbp)
	jmp	LBB162_4
LBB162_2:
	movb	$0, -42(%rbp)
	jmp	LBB162_4
LBB162_3:
	.loc	8 0 12
	movq	-72(%rbp), %rax
	.loc	8 1105 30
	testb	$1, 64(%rax)
	jne	LBB162_5
	jmp	LBB162_7
LBB162_4:
	.loc	8 1105 9
	testb	$1, -42(%rbp)
	jne	LBB162_10
	jmp	LBB162_9
LBB162_5:
	.loc	8 1105 30
	movb	$1, -41(%rbp)
	jmp	LBB162_8
LBB162_6:
	movb	$0, -41(%rbp)
	jmp	LBB162_8
LBB162_7:
	.loc	8 0 30
	movq	-72(%rbp), %rax
	.loc	8 1105 60
	movq	8(%rax), %rcx
	subq	(%rax), %rcx
	cmpq	$0, %rcx
	.loc	8 1105 30
	ja	LBB162_5
	jmp	LBB162_6
LBB162_8:
	.loc	8 1105 12
	testb	$1, -41(%rbp)
	jne	LBB162_1
	jmp	LBB162_2
LBB162_9:
	.loc	8 1113 13 is_stmt 1
	movq	$0, -64(%rbp)
	.loc	8 1105 9
	jmp	LBB162_13
LBB162_10:
	.loc	8 0 9 is_stmt 0
	movq	-72(%rbp), %rax
	.loc	8 1106 13 is_stmt 1
	movb	$1, 65(%rax)
	.loc	8 1109 30
	addq	$16, %rax
	movq	%rax, %rdi
	callq	__ZN81_$LT$core..str..pattern..CharSearcher$u20$as$u20$core..str..pattern..Searcher$GT$8haystack17h6bf05de28f603c99E
	movq	%rax, -80(%rbp)
	movq	%rdx, -88(%rbp)
	.loc	8 0 30 is_stmt 0
	movq	-72(%rbp), %rax
	.loc	8 1109 68
	movq	(%rax), %rcx
	.loc	8 1109 80
	movq	8(%rax), %rdx
	.loc	8 1109 68
	movq	%rcx, -40(%rbp)
	movq	%rdx, -32(%rbp)
	.loc	8 1109 30
	movq	-40(%rbp), %rdx
	movq	-32(%rbp), %rcx
	movq	-80(%rbp), %rdi
	movq	-88(%rbp), %rsi
	callq	__ZN4core3str21_$LT$impl$u20$str$GT$13get_unchecked17h361445795f8737a1E
	movq	%rax, -16(%rbp)
	movq	%rdx, -8(%rbp)
	movq	%rax, -96(%rbp)
	movq	%rdx, -104(%rbp)
	.loc	8 0 30
	movq	-96(%rbp), %rax
Ltmp502:
	.loc	8 1110 17 is_stmt 1
	movq	%rax, -64(%rbp)
	movq	-104(%rbp), %rcx
	movq	%rcx, -56(%rbp)
Ltmp503:
LBB162_13:
	.loc	8 1115 6
	movq	-64(%rbp), %rax
	movq	-56(%rbp), %rdx
	addq	$112, %rsp
	popq	%rbp
	retq
Ltmp504:
Lfunc_end162:
	.cfi_endproc

	.p2align	4, 0x90
__ZN4core3str23from_utf8_unchecked_mut17h0f210cf2b7ae505dE:
Lfunc_begin163:
	.loc	8 444 0
	.cfi_startproc
	pushq	%rbp
	.cfi_def_cfa_offset 16
	.cfi_offset %rbp, -16
	movq	%rsp, %rbp
	.cfi_def_cfa_register %rbp
	subq	$16, %rsp
	movq	%rdi, -16(%rbp)
	movq	%rsi, -8(%rbp)
Ltmp505:
	.loc	8 450 2 prologue_end
	movq	%rdi, %rax
	movq	%rsi, %rdx
	addq	$16, %rsp
	popq	%rbp
	retq
Ltmp506:
Lfunc_end163:
	.cfi_endproc

	.p2align	4, 0x90
__ZN4core3str6traits101_$LT$impl$u20$core..slice..SliceIndex$LT$str$GT$$u20$for$u20$core..ops..range..Range$LT$usize$GT$$GT$13get_unchecked17h147af0cd6a9e95a9E:
Lfunc_begin164:
	.loc	8 1907 0
	.cfi_startproc
	pushq	%rbp
	.cfi_def_cfa_offset 16
	.cfi_offset %rbp, -16
	movq	%rsp, %rbp
	.cfi_def_cfa_register %rbp
	subq	$112, %rsp
	movq	%rdi, -64(%rbp)
	movq	%rsi, -56(%rbp)
	movq	%rdx, -48(%rbp)
	movq	%rcx, -40(%rbp)
Ltmp507:
	.loc	8 1908 25 prologue_end
	movq	%rdx, -32(%rbp)
	movq	%rcx, -24(%rbp)
	movq	%rdi, -72(%rbp)
Ltmp508:
	.loc	8 1911 32
	movq	%rdx, %rdi
	movq	%rsi, -80(%rbp)
	movq	%rcx, %rsi
	callq	__ZN4core3ptr9const_ptr43_$LT$impl$u20$$BP$const$u20$$u5b$T$u5d$$GT$6as_ptr17hd295e6a692526a51E
	movq	%rax, -88(%rbp)
	.loc	8 0 32 is_stmt 0
	movq	-88(%rbp), %rdi
	movq	-72(%rbp), %rsi
	.loc	8 1911 32
	callq	__ZN4core3ptr9const_ptr33_$LT$impl$u20$$BP$const$u20$T$GT$3add17h77be8308a2d382ddE
	movq	%rax, -16(%rbp)
	movq	%rax, -96(%rbp)
	.loc	8 0 32
	movq	-80(%rbp), %rax
	movq	-72(%rbp), %rcx
Ltmp509:
	.loc	8 1912 23 is_stmt 1
	subq	%rcx, %rax
	movq	%rax, -8(%rbp)
	movq	-96(%rbp), %rdi
Ltmp510:
	.loc	8 1913 13
	movq	%rax, %rsi
	callq	__ZN4core3ptr20slice_from_raw_parts17h094cd785ccf04f9eE
	movq	%rax, -104(%rbp)
	movq	%rdx, -112(%rbp)
Ltmp511:
	.loc	8 0 13 is_stmt 0
	movq	-104(%rbp), %rax
	movq	-112(%rbp), %rdx
	.loc	8 1914 10 is_stmt 1
	addq	$112, %rsp
	popq	%rbp
	retq
Ltmp512:
Lfunc_end164:
	.cfi_endproc

	.p2align	4, 0x90
__ZN4core3str6traits54_$LT$impl$u20$core..cmp..PartialEq$u20$for$u20$str$GT$2eq17h3c60d71b5929c5ccE:
Lfunc_begin165:
	.loc	8 1742 0
	.cfi_startproc
	pushq	%rbp
	.cfi_def_cfa_offset 16
	.cfi_offset %rbp, -16
	movq	%rsp, %rbp
	.cfi_def_cfa_register %rbp
	subq	$160, %rsp
	movq	%rdi, -96(%rbp)
	movq	%rsi, -88(%rbp)
	movq	%rdx, -80(%rbp)
	movq	%rcx, -72(%rbp)
	movq	%rdi, -48(%rbp)
	movq	%rsi, -40(%rbp)
Ltmp513:
	.loc	8 2359 18 prologue_end
	movq	%rdi, -64(%rbp)
	movq	%rsi, -56(%rbp)
	movq	-64(%rbp), %rax
	movq	-56(%rbp), %rsi
Ltmp514:
	.loc	8 1743 13
	movq	%rsi, -120(%rbp)
	movq	%rax, -128(%rbp)
	movq	%rdx, -136(%rbp)
	movq	%rcx, -144(%rbp)
	.loc	8 0 13 is_stmt 0
	movq	-136(%rbp), %rax
	movq	%rax, -16(%rbp)
	movq	-144(%rbp), %rcx
	movq	%rcx, -8(%rbp)
Ltmp515:
	.loc	8 2359 18 is_stmt 1
	movq	%rax, -32(%rbp)
	movq	%rcx, -24(%rbp)
	movq	-32(%rbp), %rdx
	movq	-24(%rbp), %rsi
Ltmp516:
	.loc	8 1743 32
	movq	%rsi, -104(%rbp)
	movq	%rdx, -112(%rbp)
	.loc	8 1743 13 is_stmt 0
	leaq	-128(%rbp), %rdi
	leaq	-112(%rbp), %rsi
	callq	__ZN4core3cmp5impls69_$LT$impl$u20$core..cmp..PartialEq$LT$$RF$B$GT$$u20$for$u20$$RF$A$GT$2eq17hd0c7cfb61f46096bE
	movb	%al, -145(%rbp)
	.loc	8 0 13
	movb	-145(%rbp), %al
	.loc	8 1744 10 is_stmt 1
	andb	$1, %al
	movzbl	%al, %eax
	addq	$160, %rsp
	popq	%rbp
	retq
Ltmp517:
Lfunc_end165:
	.cfi_endproc

	.p2align	4, 0x90
__ZN4core3str6traits54_$LT$impl$u20$core..cmp..PartialEq$u20$for$u20$str$GT$2ne17hbf0e9b164bc40c34E:
Lfunc_begin166:
	.loc	8 1746 0
	.cfi_startproc
	pushq	%rbp
	.cfi_def_cfa_offset 16
	.cfi_offset %rbp, -16
	movq	%rsp, %rbp
	.cfi_def_cfa_register %rbp
	subq	$48, %rsp
	movq	%rdi, -32(%rbp)
	movq	%rsi, -24(%rbp)
	movq	%rdx, -16(%rbp)
	movq	%rcx, -8(%rbp)
Ltmp518:
	.loc	8 1747 14 prologue_end
	callq	__ZN4core3str6traits54_$LT$impl$u20$core..cmp..PartialEq$u20$for$u20$str$GT$2eq17h3c60d71b5929c5ccE
	movb	%al, -33(%rbp)
	.loc	8 0 14 is_stmt 0
	movb	-33(%rbp), %al
	.loc	8 1747 13
	xorb	$-1, %al
	.loc	8 1748 10 is_stmt 1
	andb	$1, %al
	movzbl	%al, %eax
	addq	$48, %rsp
	popq	%rbp
	retq
Ltmp519:
Lfunc_end166:
	.cfi_endproc

	.p2align	4, 0x90
__ZN4core4char7methods15encode_utf8_raw17hb7e1bedfb73b7071E:
Lfunc_begin167:
	.file	24 "/rustc/6c8927b0cf80ceee19386026cf9d7fd4fd9d486f/src/libcore/char/methods.rs"
	.loc	24 1621 0
	.cfi_startproc
	pushq	%rbp
	.cfi_def_cfa_offset 16
	.cfi_offset %rbp, -16
	movq	%rsp, %rbp
	.cfi_def_cfa_register %rbp
	subq	$432, %rsp
	movl	%edi, -292(%rbp)
	movq	%rsi, -120(%rbp)
	movq	%rdx, -112(%rbp)
Ltmp520:
	.loc	24 1622 24 prologue_end
	movl	-292(%rbp), %edi
	movq	%rsi, -304(%rbp)
	movq	%rdx, -312(%rbp)
	.loc	24 1622 15 is_stmt 0
	callq	__ZN4core4char7methods8len_utf817h32019fc9739eef0fE
	movq	%rax, -288(%rbp)
	.loc	24 0 15
	leaq	l___unnamed_3(%rip), %rax
Ltmp521:
	.loc	24 1623 12 is_stmt 1
	movq	-288(%rbp), %rcx
	movq	-304(%rbp), %rdi
	movq	-312(%rbp), %rsi
	.loc	24 1623 22 is_stmt 0
	movq	%rax, %rdx
	movq	%rcx, -320(%rbp)
	callq	__ZN4core5slice77_$LT$impl$u20$core..ops..index..IndexMut$LT$I$GT$$u20$for$u20$$u5b$T$u5d$$GT$9index_mut17h9dd906757cfe047dE
	movq	%rax, -328(%rbp)
	movq	%rdx, -336(%rbp)
	.loc	24 0 22
	movq	-320(%rbp), %rax
	.loc	24 1623 11
	movq	%rax, -280(%rbp)
	movq	-328(%rbp), %rcx
	movq	%rcx, -272(%rbp)
	movq	-336(%rbp), %rdx
	movq	%rdx, -264(%rbp)
	.loc	24 1624 10 is_stmt 1
	movq	-280(%rbp), %rsi
	decq	%rsi
	movq	%rsi, %rdi
	subq	$3, %rdi
	movq	%rsi, -344(%rbp)
	ja	LBB167_4
	.loc	24 0 10 is_stmt 0
	leaq	LJTI167_0(%rip), %rax
	movq	-344(%rbp), %rcx
	movslq	(%rax,%rcx,4), %rdx
	addq	%rax, %rdx
	jmpq	*%rdx
LBB167_3:
	.loc	24 1624 13
	cmpq	$1, -264(%rbp)
	jae	LBB167_8
LBB167_4:
	.loc	24 1643 13 is_stmt 1
	movq	l___unnamed_4(%rip), %rax
	movq	-304(%rbp), %rdi
	movq	-312(%rbp), %rsi
	movq	%rax, -352(%rbp)
	.loc	24 1646 13
	callq	__ZN4core5slice29_$LT$impl$u20$$u5b$T$u5d$$GT$3len17h388df21b6e60886dE
	movq	%rax, -136(%rbp)
	jmp	LBB167_12
LBB167_5:
	.loc	24 1627 13
	cmpq	$2, -264(%rbp)
	jae	LBB167_9
	jmp	LBB167_4
LBB167_6:
	.loc	24 1631 13
	cmpq	$3, -264(%rbp)
	jae	LBB167_10
	jmp	LBB167_4
LBB167_7:
	.loc	24 1636 13
	cmpq	$4, -264(%rbp)
	jae	LBB167_11
	jmp	LBB167_4
LBB167_8:
	.loc	24 1624 14
	movq	-272(%rbp), %rax
	movq	%rax, -32(%rbp)
Ltmp522:
	.loc	24 1625 18
	movl	-292(%rbp), %ecx
	.loc	24 1625 13 is_stmt 0
	movb	%cl, (%rax)
Ltmp523:
	.loc	24 1623 5 is_stmt 1
	jmp	LBB167_17
LBB167_9:
	.loc	24 1627 14
	movq	-272(%rbp), %rax
	movq	%rax, -48(%rbp)
	.loc	24 1627 17 is_stmt 0
	movq	-272(%rbp), %rcx
	movq	%rcx, %rdx
	addq	$1, %rdx
	movq	%rdx, -40(%rbp)
Ltmp524:
	.loc	24 1628 19 is_stmt 1
	movl	-292(%rbp), %esi
	shrl	$6, %esi
	.loc	24 1628 18 is_stmt 0
	andl	$31, %esi
	.loc	24 1628 13
	orb	$-64, %sil
	movb	%sil, (%rax)
	.loc	24 1629 19 is_stmt 1
	movl	-292(%rbp), %edi
	.loc	24 1629 18 is_stmt 0
	andl	$63, %edi
	.loc	24 1629 13
	orb	$-128, %dil
	movb	%dil, 1(%rcx)
Ltmp525:
	.loc	24 1623 5 is_stmt 1
	jmp	LBB167_17
LBB167_10:
	.loc	24 1631 14
	movq	-272(%rbp), %rax
	movq	%rax, -72(%rbp)
	.loc	24 1631 17 is_stmt 0
	movq	-272(%rbp), %rcx
	movq	%rcx, %rdx
	addq	$1, %rdx
	movq	%rdx, -64(%rbp)
	.loc	24 1631 20
	movq	-272(%rbp), %rdx
	movq	%rdx, %rsi
	addq	$2, %rsi
	movq	%rsi, -56(%rbp)
Ltmp526:
	.loc	24 1632 19 is_stmt 1
	movl	-292(%rbp), %edi
	shrl	$12, %edi
	.loc	24 1632 18 is_stmt 0
	andl	$15, %edi
	.loc	24 1632 13
	orb	$-32, %dil
	movb	%dil, (%rax)
	.loc	24 1633 19 is_stmt 1
	movl	-292(%rbp), %r8d
	shrl	$6, %r8d
	.loc	24 1633 18 is_stmt 0
	andl	$63, %r8d
	.loc	24 1633 13
	orb	$-128, %r8b
	movb	%r8b, 1(%rcx)
	.loc	24 1634 19 is_stmt 1
	movl	-292(%rbp), %r9d
	.loc	24 1634 18 is_stmt 0
	andl	$63, %r9d
	.loc	24 1634 13
	orb	$-128, %r9b
	movb	%r9b, 2(%rdx)
Ltmp527:
	.loc	24 1623 5 is_stmt 1
	jmp	LBB167_17
LBB167_11:
	.loc	24 1636 14
	movq	-272(%rbp), %rax
	movq	%rax, -104(%rbp)
	.loc	24 1636 17 is_stmt 0
	movq	-272(%rbp), %rcx
	movq	%rcx, %rdx
	addq	$1, %rdx
	movq	%rdx, -96(%rbp)
	.loc	24 1636 20
	movq	-272(%rbp), %rdx
	movq	%rdx, %rsi
	addq	$2, %rsi
	movq	%rsi, -88(%rbp)
	.loc	24 1636 23
	movq	-272(%rbp), %rsi
	movq	%rsi, %rdi
	addq	$3, %rdi
	movq	%rdi, -80(%rbp)
Ltmp528:
	.loc	24 1637 19 is_stmt 1
	movl	-292(%rbp), %r8d
	shrl	$18, %r8d
	.loc	24 1637 18 is_stmt 0
	andl	$7, %r8d
	.loc	24 1637 13
	orb	$-16, %r8b
	movb	%r8b, (%rax)
	.loc	24 1638 19 is_stmt 1
	movl	-292(%rbp), %r9d
	shrl	$12, %r9d
	.loc	24 1638 18 is_stmt 0
	andl	$63, %r9d
	.loc	24 1638 13
	orb	$-128, %r9b
	movb	%r9b, 1(%rcx)
	.loc	24 1639 19 is_stmt 1
	movl	-292(%rbp), %r10d
	shrl	$6, %r10d
	.loc	24 1639 18 is_stmt 0
	andl	$63, %r10d
	.loc	24 1639 13
	orb	$-128, %r10b
	movb	%r10b, 2(%rdx)
	.loc	24 1640 19 is_stmt 1
	movl	-292(%rbp), %r11d
	.loc	24 1640 18 is_stmt 0
	andl	$63, %r11d
	.loc	24 1640 13
	orb	$-128, %r11b
	movb	%r11b, 3(%rsi)
Ltmp529:
	.loc	24 1623 5 is_stmt 1
	jmp	LBB167_17
LBB167_12:
	.loc	24 0 5 is_stmt 0
	movq	__ZN4core3fmt3num3imp54_$LT$impl$u20$core..fmt..Display$u20$for$u20$usize$GT$3fmt17h12ea2856299c9b06E@GOTPCREL(%rip), %rsi
	.file	25 "/rustc/6c8927b0cf80ceee19386026cf9d7fd4fd9d486f/src/libcore/macros/mod.rs"
	.loc	25 19 38 is_stmt 1
	leaq	-288(%rbp), %rax
	movq	%rax, -160(%rbp)
	leaq	-292(%rbp), %rax
	movq	%rax, -152(%rbp)
	leaq	-136(%rbp), %rax
	movq	%rax, -144(%rbp)
	.loc	24 1644 13
	movq	-160(%rbp), %rax
	movq	%rax, -24(%rbp)
	.loc	24 1645 13
	movq	-152(%rbp), %rcx
	movq	%rcx, -16(%rbp)
	.loc	24 1646 13
	movq	-144(%rbp), %rdx
	movq	%rdx, -8(%rbp)
Ltmp530:
	.loc	25 19 38
	movq	%rax, %rdi
	movq	%rcx, -360(%rbp)
	movq	%rdx, -368(%rbp)
	callq	__ZN4core3fmt10ArgumentV13new17hb8aef5ec3ff55663E
	movq	%rax, -376(%rbp)
	movq	%rdx, -384(%rbp)
	.loc	25 0 38 is_stmt 0
	movq	__ZN4core3fmt3num53_$LT$impl$u20$core..fmt..UpperHex$u20$for$u20$u32$GT$3fmt17h7bd10b5f3c9584f1E@GOTPCREL(%rip), %rsi
	movq	-360(%rbp), %rdi
	.loc	25 19 38
	callq	__ZN4core3fmt10ArgumentV13new17h95be023087790869E
	movq	%rax, -392(%rbp)
	movq	%rdx, -400(%rbp)
	.loc	25 0 38
	movq	__ZN4core3fmt3num3imp54_$LT$impl$u20$core..fmt..Display$u20$for$u20$usize$GT$3fmt17h12ea2856299c9b06E@GOTPCREL(%rip), %rsi
	movq	-368(%rbp), %rdi
	.loc	25 19 38
	callq	__ZN4core3fmt10ArgumentV13new17hb8aef5ec3ff55663E
	movq	%rax, -408(%rbp)
	movq	%rdx, -416(%rbp)
	.loc	25 0 38
	movq	-376(%rbp), %rax
	.loc	25 19 38
	movq	%rax, -208(%rbp)
	movq	-384(%rbp), %rcx
	movq	%rcx, -200(%rbp)
	movq	-392(%rbp), %rdx
	movq	%rdx, -192(%rbp)
	movq	-400(%rbp), %rsi
	movq	%rsi, -184(%rbp)
	movq	-408(%rbp), %rdi
	movq	%rdi, -176(%rbp)
	movq	-416(%rbp), %r8
	movq	%r8, -168(%rbp)
Ltmp531:
	.loc	25 19 38
	leaq	-208(%rbp), %r9
	leaq	-256(%rbp), %rdi
	movq	-352(%rbp), %rsi
	movl	$3, %r10d
	movq	%r10, %rdx
	movq	%r9, %rcx
	movq	%r10, %r8
	callq	__ZN4core3fmt9Arguments6new_v117h2fb643a0fcc34f37E
	.loc	25 19 9
	leaq	l___unnamed_5(%rip), %rsi
	leaq	-256(%rbp), %rdi
	callq	__ZN4core9panicking9panic_fmt17hfce5b7173905fc53E
LBB167_17:
	.loc	25 0 9
	leaq	l___unnamed_6(%rip), %rax
	.loc	24 1649 16 is_stmt 1
	movq	-288(%rbp), %rcx
	.loc	24 1649 14 is_stmt 0
	movq	%rcx, -128(%rbp)
	.loc	24 1649 10
	movq	-128(%rbp), %rdx
	movq	-304(%rbp), %rdi
	movq	-312(%rbp), %rsi
	movq	%rax, %rcx
	callq	__ZN4core5slice77_$LT$impl$u20$core..ops..index..IndexMut$LT$I$GT$$u20$for$u20$$u5b$T$u5d$$GT$9index_mut17h131f913d5902fd72E
	movq	%rax, -424(%rbp)
	movq	%rdx, -432(%rbp)
Ltmp532:
	.loc	24 0 10
	movq	-424(%rbp), %rax
	movq	-432(%rbp), %rdx
	.loc	24 1650 2 is_stmt 1
	addq	$432, %rsp
	popq	%rbp
	retq
Ltmp533:
Lfunc_end167:
	.cfi_endproc
	.p2align	2, 0x90
	.data_region jt32
.set L167_0_set_3, LBB167_3-LJTI167_0
.set L167_0_set_5, LBB167_5-LJTI167_0
.set L167_0_set_6, LBB167_6-LJTI167_0
.set L167_0_set_7, LBB167_7-LJTI167_0
LJTI167_0:
	.long	L167_0_set_3
	.long	L167_0_set_5
	.long	L167_0_set_6
	.long	L167_0_set_7
	.end_data_region

	.p2align	4, 0x90
__ZN4core4char7methods22_$LT$impl$u20$char$GT$11encode_utf817hd318e8ee49b40b42E:
Lfunc_begin168:
	.loc	24 642 0
	.cfi_startproc
	pushq	%rbp
	.cfi_def_cfa_offset 16
	.cfi_offset %rbp, -16
	movq	%rsp, %rbp
	.cfi_def_cfa_register %rbp
	subq	$64, %rsp
	movl	%edi, -20(%rbp)
	movq	%rsi, -16(%rbp)
	movq	%rdx, -8(%rbp)
Ltmp534:
	.loc	24 644 42 prologue_end
	callq	__ZN4core4char7methods15encode_utf8_raw17hb7e1bedfb73b7071E
	movq	%rax, -32(%rbp)
	movq	%rdx, -40(%rbp)
	.loc	24 0 42 is_stmt 0
	movq	-32(%rbp), %rdi
	movq	-40(%rbp), %rsi
	.loc	24 644 18
	callq	__ZN4core3str23from_utf8_unchecked_mut17h0f210cf2b7ae505dE
	movq	%rax, -48(%rbp)
	movq	%rdx, -56(%rbp)
	.loc	24 0 18
	movq	-48(%rbp), %rax
	movq	-56(%rbp), %rdx
	.loc	24 645 6 is_stmt 1
	addq	$64, %rsp
	popq	%rbp
	retq
Ltmp535:
Lfunc_end168:
	.cfi_endproc

	.p2align	4, 0x90
__ZN4core4char7methods8len_utf817h32019fc9739eef0fE:
Lfunc_begin169:
	.loc	24 1593 0
	.cfi_startproc
	pushq	%rbp
	.cfi_def_cfa_offset 16
	.cfi_offset %rbp, -16
	movq	%rsp, %rbp
	.cfi_def_cfa_register %rbp
	subq	$24, %rsp
	movl	%edi, -4(%rbp)
Ltmp536:
	.loc	24 1594 8 prologue_end
	cmpl	$128, %edi
	movl	%edi, -20(%rbp)
	.loc	24 1594 5 is_stmt 0
	jb	LBB169_2
	.loc	24 0 5
	movl	-20(%rbp), %eax
	.loc	24 1596 15 is_stmt 1
	cmpl	$2048, %eax
	.loc	24 1596 12 is_stmt 0
	jb	LBB169_4
	jmp	LBB169_3
LBB169_2:
	.loc	24 1595 9 is_stmt 1
	movq	$1, -16(%rbp)
	.loc	24 1594 5
	jmp	LBB169_9
LBB169_3:
	.loc	24 0 5 is_stmt 0
	movl	-20(%rbp), %eax
	.loc	24 1598 15 is_stmt 1
	cmpl	$65536, %eax
	.loc	24 1598 12 is_stmt 0
	jb	LBB169_6
	jmp	LBB169_5
LBB169_4:
	.loc	24 1597 9 is_stmt 1
	movq	$2, -16(%rbp)
	.loc	24 1596 12
	jmp	LBB169_8
LBB169_5:
	.loc	24 1601 9
	movq	$4, -16(%rbp)
	.loc	24 1598 12
	jmp	LBB169_7
LBB169_6:
	.loc	24 1599 9
	movq	$3, -16(%rbp)
LBB169_7:
	.loc	24 1596 12
	jmp	LBB169_8
LBB169_8:
	.loc	24 1594 5
	jmp	LBB169_9
LBB169_9:
	.loc	24 1603 2
	movq	-16(%rbp), %rax
	addq	$24, %rsp
	popq	%rbp
	retq
Ltmp537:
Lfunc_end169:
	.cfi_endproc

	.p2align	4, 0x90
__ZN4core5alloc6layout10size_align17h741d1a8fe5b78bd7E:
Lfunc_begin170:
	.file	26 "/rustc/6c8927b0cf80ceee19386026cf9d7fd4fd9d486f/src/libcore/alloc/layout.rs"
	.loc	26 7 0
	.cfi_startproc
	pushq	%rbp
	.cfi_def_cfa_offset 16
	.cfi_offset %rbp, -16
	movq	%rsp, %rbp
	.cfi_def_cfa_register %rbp
	subq	$48, %rsp
Ltmp538:
	.loc	16 310 5 prologue_end
	movq	$640, -16(%rbp)
	movq	-16(%rbp), %rax
	movq	%rax, -40(%rbp)
Ltmp539:
	.loc	16 451 5
	movq	$8, -8(%rbp)
	movq	-8(%rbp), %rax
	movq	%rax, -48(%rbp)
Ltmp540:
	.loc	16 0 5 is_stmt 0
	movq	-40(%rbp), %rax
	.loc	26 8 5 is_stmt 1
	movq	%rax, -32(%rbp)
	movq	-48(%rbp), %rcx
	movq	%rcx, -24(%rbp)
	.loc	26 9 2
	movq	-32(%rbp), %rax
	movq	-24(%rbp), %rdx
	addq	$48, %rsp
	popq	%rbp
	retq
Ltmp541:
Lfunc_end170:
	.cfi_endproc

	.p2align	4, 0x90
__ZN4core5alloc6layout10size_align17hcf6b558284f30284E:
Lfunc_begin171:
	.loc	26 7 0
	.cfi_startproc
	pushq	%rbp
	.cfi_def_cfa_offset 16
	.cfi_offset %rbp, -16
	movq	%rsp, %rbp
	.cfi_def_cfa_register %rbp
	subq	$48, %rsp
Ltmp542:
	.loc	16 310 5 prologue_end
	movq	$544, -16(%rbp)
	movq	-16(%rbp), %rax
	movq	%rax, -40(%rbp)
Ltmp543:
	.loc	16 451 5
	movq	$8, -8(%rbp)
	movq	-8(%rbp), %rax
	movq	%rax, -48(%rbp)
Ltmp544:
	.loc	16 0 5 is_stmt 0
	movq	-40(%rbp), %rax
	.loc	26 8 5 is_stmt 1
	movq	%rax, -32(%rbp)
	movq	-48(%rbp), %rcx
	movq	%rcx, -24(%rbp)
	.loc	26 9 2
	movq	-32(%rbp), %rax
	movq	-24(%rbp), %rdx
	addq	$48, %rsp
	popq	%rbp
	retq
Ltmp545:
Lfunc_end171:
	.cfi_endproc

	.p2align	4, 0x90
__ZN4core5alloc6layout6Layout25from_size_align_unchecked17hb460de1ca8af0646E:
Lfunc_begin172:
	.loc	26 92 0
	.cfi_startproc
	pushq	%rbp
	.cfi_def_cfa_offset 16
	.cfi_offset %rbp, -16
	movq	%rsp, %rbp
	.cfi_def_cfa_register %rbp
	subq	$48, %rsp
	movq	%rdi, -16(%rbp)
	movq	%rsi, -8(%rbp)
	movq	%rdi, -40(%rbp)
Ltmp546:
	.loc	26 94 48 prologue_end
	movq	%rsi, %rdi
	callq	__ZN4core3num12NonZeroUsize13new_unchecked17he8b46f44db8b3726E
	movq	%rax, -48(%rbp)
	.loc	26 0 48 is_stmt 0
	movq	-40(%rbp), %rax
	.loc	26 94 9
	movq	%rax, -32(%rbp)
	movq	-48(%rbp), %rcx
	movq	%rcx, -24(%rbp)
	.loc	26 95 6 is_stmt 1
	movq	-32(%rbp), %rax
	movq	-24(%rbp), %rdx
	addq	$48, %rsp
	popq	%rbp
	retq
Ltmp547:
Lfunc_end172:
	.cfi_endproc

	.p2align	4, 0x90
__ZN4core5alloc6layout6Layout3new17h58b662fc7e012324E:
Lfunc_begin173:
	.loc	26 117 0
	.cfi_startproc
	pushq	%rbp
	.cfi_def_cfa_offset 16
	.cfi_offset %rbp, -16
	movq	%rsp, %rbp
	.cfi_def_cfa_register %rbp
	subq	$48, %rsp
Ltmp548:
	.loc	26 118 29 prologue_end
	callq	__ZN4core5alloc6layout10size_align17h741d1a8fe5b78bd7E
	movq	%rax, -24(%rbp)
	movq	%rdx, -32(%rbp)
	.loc	26 0 29 is_stmt 0
	movq	-24(%rbp), %rax
	.loc	26 118 14
	movq	%rax, -16(%rbp)
	movq	-32(%rbp), %rcx
	.loc	26 118 20
	movq	%rcx, -8(%rbp)
Ltmp549:
	.loc	26 123 18 is_stmt 1
	movq	%rax, %rdi
	movq	%rcx, %rsi
	callq	__ZN4core5alloc6layout6Layout25from_size_align_unchecked17hb460de1ca8af0646E
	movq	%rax, -40(%rbp)
	movq	%rdx, -48(%rbp)
Ltmp550:
	.loc	26 0 18 is_stmt 0
	movq	-40(%rbp), %rax
	movq	-48(%rbp), %rdx
	.loc	26 124 6 is_stmt 1
	addq	$48, %rsp
	popq	%rbp
	retq
Ltmp551:
Lfunc_end173:
	.cfi_endproc

	.p2align	4, 0x90
__ZN4core5alloc6layout6Layout3new17hd30914bbb12f5d64E:
Lfunc_begin174:
	.loc	26 117 0
	.cfi_startproc
	pushq	%rbp
	.cfi_def_cfa_offset 16
	.cfi_offset %rbp, -16
	movq	%rsp, %rbp
	.cfi_def_cfa_register %rbp
	subq	$48, %rsp
Ltmp552:
	.loc	26 118 29 prologue_end
	callq	__ZN4core5alloc6layout10size_align17hcf6b558284f30284E
	movq	%rax, -24(%rbp)
	movq	%rdx, -32(%rbp)
	.loc	26 0 29 is_stmt 0
	movq	-24(%rbp), %rax
	.loc	26 118 14
	movq	%rax, -16(%rbp)
	movq	-32(%rbp), %rcx
	.loc	26 118 20
	movq	%rcx, -8(%rbp)
Ltmp553:
	.loc	26 123 18 is_stmt 1
	movq	%rax, %rdi
	movq	%rcx, %rsi
	callq	__ZN4core5alloc6layout6Layout25from_size_align_unchecked17hb460de1ca8af0646E
	movq	%rax, -40(%rbp)
	movq	%rdx, -48(%rbp)
Ltmp554:
	.loc	26 0 18 is_stmt 0
	movq	-40(%rbp), %rax
	movq	-48(%rbp), %rdx
	.loc	26 124 6 is_stmt 1
	addq	$48, %rsp
	popq	%rbp
	retq
Ltmp555:
Lfunc_end174:
	.cfi_endproc

	.p2align	4, 0x90
__ZN4core5alloc6layout6Layout4size17hf1e91b59cec95581E:
Lfunc_begin175:
	.loc	26 101 0
	.cfi_startproc
	pushq	%rbp
	.cfi_def_cfa_offset 16
	.cfi_offset %rbp, -16
	movq	%rsp, %rbp
	.cfi_def_cfa_register %rbp
	pushq	%rax
	movq	%rdi, -8(%rbp)
Ltmp556:
	.loc	26 102 9 prologue_end
	movq	(%rdi), %rax
	.loc	26 103 6
	addq	$8, %rsp
	popq	%rbp
	retq
Ltmp557:
Lfunc_end175:
	.cfi_endproc

	.p2align	4, 0x90
__ZN4core5alloc6layout6Layout5align17h5f49b6ca4b34f1beE:
Lfunc_begin176:
	.loc	26 109 0
	.cfi_startproc
	pushq	%rbp
	.cfi_def_cfa_offset 16
	.cfi_offset %rbp, -16
	movq	%rsp, %rbp
	.cfi_def_cfa_register %rbp
	subq	$16, %rsp
	movq	%rdi, -8(%rbp)
Ltmp558:
	.loc	26 110 9 prologue_end
	movq	8(%rdi), %rdi
	callq	__ZN4core3num12NonZeroUsize3get17hdfdeb107d3f7a41fE
	movq	%rax, -16(%rbp)
	.loc	26 0 9 is_stmt 0
	movq	-16(%rbp), %rax
	.loc	26 111 6 is_stmt 1
	addq	$16, %rsp
	popq	%rbp
	retq
Ltmp559:
Lfunc_end176:
	.cfi_endproc

	.p2align	4, 0x90
__ZN4core5slice14from_raw_parts17hc7eba4b781872644E:
Lfunc_begin177:
	.loc	1 6094 0
	.cfi_startproc
	pushq	%rbp
	.cfi_def_cfa_offset 16
	.cfi_offset %rbp, -16
	movq	%rsp, %rbp
	.cfi_def_cfa_register %rbp
	subq	$32, %rsp
	movq	%rdi, -16(%rbp)
	movq	%rsi, -8(%rbp)
Ltmp560:
	.loc	1 6101 16 prologue_end
	callq	__ZN4core3ptr20slice_from_raw_parts17h094cd785ccf04f9eE
	movq	%rax, -24(%rbp)
	movq	%rdx, -32(%rbp)
	.loc	1 0 16 is_stmt 0
	movq	-24(%rbp), %rax
	movq	-32(%rbp), %rdx
	.loc	1 6102 2 is_stmt 1
	addq	$32, %rsp
	popq	%rbp
	retq
Ltmp561:
Lfunc_end177:
	.cfi_endproc

	.p2align	4, 0x90
__ZN4core5slice14from_raw_parts17hde7fe1f997255920E:
Lfunc_begin178:
	.loc	1 6094 0
	.cfi_startproc
	pushq	%rbp
	.cfi_def_cfa_offset 16
	.cfi_offset %rbp, -16
	movq	%rsp, %rbp
	.cfi_def_cfa_register %rbp
	subq	$32, %rsp
	movq	%rdi, -16(%rbp)
	movq	%rsi, -8(%rbp)
Ltmp562:
	.loc	1 6101 16 prologue_end
	callq	__ZN4core3ptr20slice_from_raw_parts17h17a7dc51b8829e71E
	movq	%rax, -24(%rbp)
	movq	%rdx, -32(%rbp)
	.loc	1 0 16 is_stmt 0
	movq	-24(%rbp), %rax
	movq	-32(%rbp), %rdx
	.loc	1 6102 2 is_stmt 1
	addq	$32, %rsp
	popq	%rbp
	retq
Ltmp563:
Lfunc_end178:
	.cfi_endproc

	.p2align	4, 0x90
__ZN4core5slice14from_raw_parts17hf1f0e1f0f8551d98E:
Lfunc_begin179:
	.loc	1 6094 0
	.cfi_startproc
	pushq	%rbp
	.cfi_def_cfa_offset 16
	.cfi_offset %rbp, -16
	movq	%rsp, %rbp
	.cfi_def_cfa_register %rbp
	subq	$32, %rsp
	movq	%rdi, -16(%rbp)
	movq	%rsi, -8(%rbp)
Ltmp564:
	.loc	1 6101 16 prologue_end
	callq	__ZN4core3ptr20slice_from_raw_parts17h73a2b5c158af213bE
	movq	%rax, -24(%rbp)
	movq	%rdx, -32(%rbp)
	.loc	1 0 16 is_stmt 0
	movq	-24(%rbp), %rax
	movq	-32(%rbp), %rdx
	.loc	1 6102 2 is_stmt 1
	addq	$32, %rsp
	popq	%rbp
	retq
Ltmp565:
Lfunc_end179:
	.cfi_endproc

	.p2align	4, 0x90
__ZN4core5slice29_$LT$impl$u20$$u5b$T$u5d$$GT$13get_unchecked17h252c63f4e8725d55E:
Lfunc_begin180:
	.loc	1 309 0
	.cfi_startproc
	pushq	%rbp
	.cfi_def_cfa_offset 16
	.cfi_offset %rbp, -16
	movq	%rsp, %rbp
	.cfi_def_cfa_register %rbp
	subq	$48, %rsp
	movq	%rdi, -24(%rbp)
	movq	%rsi, -16(%rbp)
	movq	%rdx, -8(%rbp)
	movq	%rdi, -32(%rbp)
Ltmp566:
	.loc	1 316 20 prologue_end
	movq	%rdx, %rdi
	movq	-32(%rbp), %rax
	movq	%rsi, -40(%rbp)
	movq	%rax, %rsi
	movq	-40(%rbp), %rdx
	callq	__ZN68_$LT$usize$u20$as$u20$core..slice..SliceIndex$LT$$u5b$T$u5d$$GT$$GT$13get_unchecked17h9405aba382798799E
	movq	%rax, -48(%rbp)
	.loc	1 0 20 is_stmt 0
	movq	-48(%rbp), %rax
	.loc	1 317 6 is_stmt 1
	addq	$48, %rsp
	popq	%rbp
	retq
Ltmp567:
Lfunc_end180:
	.cfi_endproc

	.p2align	4, 0x90
__ZN4core5slice29_$LT$impl$u20$$u5b$T$u5d$$GT$13get_unchecked17h71771f940d77a073E:
Lfunc_begin181:
	.loc	1 309 0
	.cfi_startproc
	pushq	%rbp
	.cfi_def_cfa_offset 16
	.cfi_offset %rbp, -16
	movq	%rsp, %rbp
	.cfi_def_cfa_register %rbp
	subq	$48, %rsp
	movq	%rdi, -24(%rbp)
	movq	%rsi, -16(%rbp)
	movq	%rdx, -8(%rbp)
	movq	%rdi, -32(%rbp)
Ltmp568:
	.loc	1 316 20 prologue_end
	movq	%rdx, %rdi
	movq	-32(%rbp), %rax
	movq	%rsi, -40(%rbp)
	movq	%rax, %rsi
	movq	-40(%rbp), %rdx
	callq	__ZN68_$LT$usize$u20$as$u20$core..slice..SliceIndex$LT$$u5b$T$u5d$$GT$$GT$13get_unchecked17he221339535a68e12E
	movq	%rax, -48(%rbp)
	.loc	1 0 20 is_stmt 0
	movq	-48(%rbp), %rax
	.loc	1 317 6 is_stmt 1
	addq	$48, %rsp
	popq	%rbp
	retq
Ltmp569:
Lfunc_end181:
	.cfi_endproc

	.p2align	4, 0x90
__ZN4core5slice29_$LT$impl$u20$$u5b$T$u5d$$GT$13get_unchecked17hf5e25c9b295eb8e6E:
Lfunc_begin182:
	.loc	1 309 0
	.cfi_startproc
	pushq	%rbp
	.cfi_def_cfa_offset 16
	.cfi_offset %rbp, -16
	movq	%rsp, %rbp
	.cfi_def_cfa_register %rbp
	subq	$48, %rsp
	movq	%rdi, -24(%rbp)
	movq	%rsi, -16(%rbp)
	movq	%rdx, -8(%rbp)
	movq	%rdi, -32(%rbp)
Ltmp570:
	.loc	1 316 20 prologue_end
	movq	%rdx, %rdi
	movq	-32(%rbp), %rax
	movq	%rsi, -40(%rbp)
	movq	%rax, %rsi
	movq	-40(%rbp), %rdx
	callq	__ZN68_$LT$usize$u20$as$u20$core..slice..SliceIndex$LT$$u5b$T$u5d$$GT$$GT$13get_unchecked17h4aee034ba205fe2cE
	movq	%rax, -48(%rbp)
	.loc	1 0 20 is_stmt 0
	movq	-48(%rbp), %rax
	.loc	1 317 6 is_stmt 1
	addq	$48, %rsp
	popq	%rbp
	retq
Ltmp571:
Lfunc_end182:
	.cfi_endproc

	.p2align	4, 0x90
__ZN4core5slice29_$LT$impl$u20$$u5b$T$u5d$$GT$13get_unchecked17hfb121f534a485b0eE:
Lfunc_begin183:
	.loc	1 309 0
	.cfi_startproc
	pushq	%rbp
	.cfi_def_cfa_offset 16
	.cfi_offset %rbp, -16
	movq	%rsp, %rbp
	.cfi_def_cfa_register %rbp
	subq	$48, %rsp
	movq	%rdi, -24(%rbp)
	movq	%rsi, -16(%rbp)
	movq	%rdx, -8(%rbp)
	movq	%rdi, -32(%rbp)
Ltmp572:
	.loc	1 316 20 prologue_end
	movq	%rdx, %rdi
	movq	-32(%rbp), %rax
	movq	%rsi, -40(%rbp)
	movq	%rax, %rsi
	movq	-40(%rbp), %rdx
	callq	__ZN68_$LT$usize$u20$as$u20$core..slice..SliceIndex$LT$$u5b$T$u5d$$GT$$GT$13get_unchecked17h0a247d28820ea112E
	movq	%rax, -48(%rbp)
	.loc	1 0 20 is_stmt 0
	movq	-48(%rbp), %rax
	.loc	1 317 6 is_stmt 1
	addq	$48, %rsp
	popq	%rbp
	retq
Ltmp573:
Lfunc_end183:
	.cfi_endproc

	.p2align	4, 0x90
__ZN4core5slice29_$LT$impl$u20$$u5b$T$u5d$$GT$17get_unchecked_mut17h20ccbf9bf285e718E:
Lfunc_begin184:
	.loc	1 343 0
	.cfi_startproc
	pushq	%rbp
	.cfi_def_cfa_offset 16
	.cfi_offset %rbp, -16
	movq	%rsp, %rbp
	.cfi_def_cfa_register %rbp
	subq	$48, %rsp
	movq	%rdi, -24(%rbp)
	movq	%rsi, -16(%rbp)
	movq	%rdx, -8(%rbp)
	movq	%rdi, -32(%rbp)
Ltmp574:
	.loc	1 350 24 prologue_end
	movq	%rdx, %rdi
	movq	-32(%rbp), %rax
	movq	%rsi, -40(%rbp)
	movq	%rax, %rsi
	movq	-40(%rbp), %rdx
	callq	__ZN68_$LT$usize$u20$as$u20$core..slice..SliceIndex$LT$$u5b$T$u5d$$GT$$GT$17get_unchecked_mut17hec58dc84cb17b523E
	movq	%rax, -48(%rbp)
	.loc	1 0 24 is_stmt 0
	movq	-48(%rbp), %rax
	.loc	1 351 6 is_stmt 1
	addq	$48, %rsp
	popq	%rbp
	retq
Ltmp575:
Lfunc_end184:
	.cfi_endproc

	.p2align	4, 0x90
__ZN4core5slice29_$LT$impl$u20$$u5b$T$u5d$$GT$3get17h0998064b1db6c250E:
Lfunc_begin185:
	.loc	1 256 0
	.cfi_startproc
	pushq	%rbp
	.cfi_def_cfa_offset 16
	.cfi_offset %rbp, -16
	movq	%rsp, %rbp
	.cfi_def_cfa_register %rbp
	subq	$64, %rsp
	movq	%rdi, -32(%rbp)
	movq	%rsi, -24(%rbp)
	movq	%rdx, -16(%rbp)
	movq	%rcx, -8(%rbp)
	movq	%rdi, -40(%rbp)
Ltmp576:
	.loc	1 260 9 prologue_end
	movq	%rdx, %rdi
	movq	%rsi, -48(%rbp)
	movq	%rcx, %rsi
	movq	-40(%rbp), %rdx
	movq	-48(%rbp), %rcx
	callq	__ZN99_$LT$core..ops..range..Range$LT$usize$GT$$u20$as$u20$core..slice..SliceIndex$LT$$u5b$T$u5d$$GT$$GT$3get17h8bc81de964e6c6d5E
	movq	%rax, -56(%rbp)
	movq	%rdx, -64(%rbp)
	.loc	1 0 9 is_stmt 0
	movq	-56(%rbp), %rax
	movq	-64(%rbp), %rdx
	.loc	1 261 6 is_stmt 1
	addq	$64, %rsp
	popq	%rbp
	retq
Ltmp577:
Lfunc_end185:
	.cfi_endproc

	.p2align	4, 0x90
__ZN4core5slice29_$LT$impl$u20$$u5b$T$u5d$$GT$3len17h388df21b6e60886dE:
Lfunc_begin186:
	.loc	1 72 0
	.cfi_startproc
	pushq	%rbp
	.cfi_def_cfa_offset 16
	.cfi_offset %rbp, -16
	movq	%rsp, %rbp
	.cfi_def_cfa_register %rbp
	subq	$32, %rsp
	movq	%rdi, -16(%rbp)
	movq	%rsi, -8(%rbp)
Ltmp578:
	.loc	1 73 18 prologue_end
	movq	%rdi, -32(%rbp)
	movq	%rsi, -24(%rbp)
	movq	-24(%rbp), %rax
	.loc	1 74 6
	addq	$32, %rsp
	popq	%rbp
	retq
Ltmp579:
Lfunc_end186:
	.cfi_endproc

	.p2align	4, 0x90
__ZN4core5slice29_$LT$impl$u20$$u5b$T$u5d$$GT$6as_ptr17h378722d0b955c071E:
Lfunc_begin187:
	.loc	1 382 0
	.cfi_startproc
	pushq	%rbp
	.cfi_def_cfa_offset 16
	.cfi_offset %rbp, -16
	movq	%rsp, %rbp
	.cfi_def_cfa_register %rbp
	subq	$16, %rsp
	movq	%rdi, -16(%rbp)
	movq	%rsi, -8(%rbp)
Ltmp580:
	.loc	1 384 6 prologue_end
	movq	%rdi, %rax
	addq	$16, %rsp
	popq	%rbp
	retq
Ltmp581:
Lfunc_end187:
	.cfi_endproc

	.p2align	4, 0x90
__ZN4core5slice74_$LT$impl$u20$core..ops..index..Index$LT$I$GT$$u20$for$u20$$u5b$T$u5d$$GT$5index17h16013200ea2d67c9E:
Lfunc_begin188:
	.loc	1 2958 0
	.cfi_startproc
	pushq	%rbp
	.cfi_def_cfa_offset 16
	.cfi_offset %rbp, -16
	movq	%rsp, %rbp
	.cfi_def_cfa_register %rbp
	subq	$64, %rsp
	movq	%rdi, -32(%rbp)
	movq	%rsi, -24(%rbp)
	movq	%rdx, -16(%rbp)
	movq	%rcx, -8(%rbp)
	movq	%rdi, -40(%rbp)
Ltmp582:
	.loc	1 2959 9 prologue_end
	movq	%rdx, %rdi
	movq	%rsi, -48(%rbp)
	movq	%rcx, %rsi
	movq	-40(%rbp), %rdx
	movq	-48(%rbp), %rcx
	callq	__ZN99_$LT$core..ops..range..Range$LT$usize$GT$$u20$as$u20$core..slice..SliceIndex$LT$$u5b$T$u5d$$GT$$GT$5index17hae500c8ff57038d3E
	movq	%rax, -56(%rbp)
	movq	%rdx, -64(%rbp)
	.loc	1 0 9 is_stmt 0
	movq	-56(%rbp), %rax
	movq	-64(%rbp), %rdx
	.loc	1 2960 6 is_stmt 1
	addq	$64, %rsp
	popq	%rbp
	retq
Ltmp583:
Lfunc_end188:
	.cfi_endproc

	.p2align	4, 0x90
__ZN4core5slice77_$LT$impl$u20$core..ops..index..IndexMut$LT$I$GT$$u20$for$u20$$u5b$T$u5d$$GT$9index_mut17h131f913d5902fd72E:
Lfunc_begin189:
	.loc	1 2969 0
	.cfi_startproc
	pushq	%rbp
	.cfi_def_cfa_offset 16
	.cfi_offset %rbp, -16
	movq	%rsp, %rbp
	.cfi_def_cfa_register %rbp
	subq	$64, %rsp
	movq	%rdi, -24(%rbp)
	movq	%rsi, -16(%rbp)
	movq	%rdx, -8(%rbp)
	movq	%rdi, -32(%rbp)
Ltmp584:
	.loc	1 2970 9 prologue_end
	movq	%rdx, %rdi
	movq	-32(%rbp), %rax
	movq	%rsi, -40(%rbp)
	movq	%rax, %rsi
	movq	-40(%rbp), %rdx
	callq	__ZN101_$LT$core..ops..range..RangeTo$LT$usize$GT$$u20$as$u20$core..slice..SliceIndex$LT$$u5b$T$u5d$$GT$$GT$9index_mut17h94a38db28472a2d5E
	movq	%rax, -48(%rbp)
	movq	%rdx, -56(%rbp)
	.loc	1 0 9 is_stmt 0
	movq	-48(%rbp), %rax
	movq	-56(%rbp), %rdx
	.loc	1 2971 6 is_stmt 1
	addq	$64, %rsp
	popq	%rbp
	retq
Ltmp585:
Lfunc_end189:
	.cfi_endproc

	.p2align	4, 0x90
__ZN4core5slice77_$LT$impl$u20$core..ops..index..IndexMut$LT$I$GT$$u20$for$u20$$u5b$T$u5d$$GT$9index_mut17h9dd906757cfe047dE:
Lfunc_begin190:
	.loc	1 2969 0
	.cfi_startproc
	pushq	%rbp
	.cfi_def_cfa_offset 16
	.cfi_offset %rbp, -16
	movq	%rsp, %rbp
	.cfi_def_cfa_register %rbp
	subq	$48, %rsp
	movq	%rdi, -24(%rbp)
	movq	%rsi, -16(%rbp)
Ltmp586:
	.loc	1 2970 9 prologue_end
	callq	__ZN90_$LT$core..ops..range..RangeFull$u20$as$u20$core..slice..SliceIndex$LT$$u5b$T$u5d$$GT$$GT$9index_mut17he1944a763ec4c259E
	movq	%rax, -32(%rbp)
	movq	%rdx, -40(%rbp)
	.loc	1 0 9 is_stmt 0
	movq	-32(%rbp), %rax
	movq	-40(%rbp), %rdx
	.loc	1 2971 6 is_stmt 1
	addq	$48, %rsp
	popq	%rbp
	retq
Ltmp587:
Lfunc_end190:
	.cfi_endproc

	.p2align	4, 0x90
__ZN4core5slice81_$LT$impl$u20$core..cmp..PartialEq$LT$$u5b$B$u5d$$GT$$u20$for$u20$$u5b$A$u5d$$GT$2eq17h336bfbb23225aba6E:
Lfunc_begin191:
	.loc	1 6187 0
	.cfi_startproc
	pushq	%rbp
	.cfi_def_cfa_offset 16
	.cfi_offset %rbp, -16
	movq	%rsp, %rbp
	.cfi_def_cfa_register %rbp
	subq	$48, %rsp
	movq	%rdi, -32(%rbp)
	movq	%rsi, -24(%rbp)
	movq	%rdx, -16(%rbp)
	movq	%rcx, -8(%rbp)
Ltmp588:
	.loc	1 6188 9 prologue_end
	callq	__ZN68_$LT$$u5b$A$u5d$$u20$as$u20$core..slice..SlicePartialEq$LT$A$GT$$GT$5equal17h30b847588484ba2fE
	movb	%al, -33(%rbp)
	.loc	1 0 9 is_stmt 0
	movb	-33(%rbp), %al
	.loc	1 6189 6 is_stmt 1
	andb	$1, %al
	movzbl	%al, %eax
	addq	$48, %rsp
	popq	%rbp
	retq
Ltmp589:
Lfunc_end191:
	.cfi_endproc

	.p2align	4, 0x90
__ZN4core6option15Option$LT$T$GT$14unwrap_or_else17h1e7973090d580741E:
Lfunc_begin192:
	.file	27 "/rustc/6c8927b0cf80ceee19386026cf9d7fd4fd9d486f/src/libcore/option.rs"
	.loc	27 425 0
	.cfi_startproc
	.cfi_personality 155, _rust_eh_personality
	.cfi_lsda 16, Lexception20
	pushq	%rbp
	.cfi_def_cfa_offset 16
	.cfi_offset %rbp, -16
	movq	%rsp, %rbp
	.cfi_def_cfa_register %rbp
	subq	$96, %rsp
	movq	%rdi, %rax
Ltmp593:
	.loc	27 427 13 prologue_end
	movb	$0, -25(%rbp)
	movb	$1, -25(%rbp)
	movq	8(%rsi), %rcx
	testq	%rcx, %rcx
	setne	%dl
	movzbl	%dl, %r8d
	movl	%r8d, %ecx
	movq	%rsi, -72(%rbp)
Ltmp594:
	.loc	27 0 13 is_stmt 0
	movq	%rdi, -80(%rbp)
	movq	%rax, -88(%rbp)
	.loc	27 427 13
	je	LBB192_1
	jmp	LBB192_10
Ltmp595:
LBB192_10:
	jmp	LBB192_3
Ltmp596:
LBB192_1:
	.loc	27 428 21 is_stmt 1
	movb	$0, -25(%rbp)
Ltmp590:
	movq	-80(%rbp), %rdi
	callq	__ZN5alloc11collections5btree16unwrap_unchecked28_$u7b$$u7b$closure$u7d$$u7d$17h40b93ae1e03a4563E
Ltmp591:
	jmp	LBB192_4
Ltmp597:
	.loc	27 426 15
	ud2
LBB192_3:
Ltmp598:
	.loc	27 0 15 is_stmt 0
	movq	-72(%rbp), %rax
	.loc	27 427 18 is_stmt 1
	movq	(%rax), %rcx
	movq	%rcx, -64(%rbp)
	movq	8(%rax), %rcx
	movq	%rcx, -56(%rbp)
	movq	16(%rax), %rcx
	movq	%rcx, -48(%rbp)
	movq	24(%rax), %rcx
	movq	%rcx, -40(%rbp)
Ltmp599:
	.loc	27 427 24 is_stmt 0
	movq	-64(%rbp), %rcx
	movq	-80(%rbp), %rdx
	movq	%rcx, (%rdx)
	movq	-56(%rbp), %rcx
	movq	%rcx, 8(%rdx)
	movq	-48(%rbp), %rcx
	movq	%rcx, 16(%rdx)
	movq	-40(%rbp), %rcx
	movq	%rcx, 24(%rdx)
Ltmp600:
	.loc	27 426 9 is_stmt 1
	jmp	LBB192_8
Ltmp601:
LBB192_4:
	jmp	LBB192_8
Ltmp602:
LBB192_5:
	.loc	27 0 9 is_stmt 0
	movq	-88(%rbp), %rax
	.loc	27 430 6 is_stmt 1
	addq	$96, %rsp
	popq	%rbp
	retq
Ltmp603:
LBB192_6:
	.loc	27 425 5
	movq	-16(%rbp), %rdi
	callq	__Unwind_Resume
	ud2
Ltmp604:
LBB192_7:
	.loc	27 430 5
	movb	$0, -25(%rbp)
	jmp	LBB192_5
Ltmp605:
LBB192_8:
	testb	$1, -25(%rbp)
	jne	LBB192_7
	jmp	LBB192_5
Ltmp606:
LBB192_9:
Ltmp592:
	.loc	27 0 5 is_stmt 0
	movq	%rax, -16(%rbp)
	movl	%edx, -8(%rbp)
	jmp	LBB192_6
Lfunc_end192:
	.cfi_endproc
	.section	__TEXT,__gcc_except_tab
	.p2align	2
GCC_except_table192:
Lexception20:
	.byte	255
	.byte	255
	.byte	1
	.uleb128 Lcst_end20-Lcst_begin20
Lcst_begin20:
	.uleb128 Ltmp590-Lfunc_begin192
	.uleb128 Ltmp591-Ltmp590
	.uleb128 Ltmp592-Lfunc_begin192
	.byte	0
	.uleb128 Ltmp591-Lfunc_begin192
	.uleb128 Lfunc_end192-Ltmp591
	.byte	0
	.byte	0
Lcst_end20:
	.p2align	2

	.section	__TEXT,__text,regular,pure_instructions
	.p2align	4, 0x90
__ZN4core6option15Option$LT$T$GT$14unwrap_or_else17h2683cf278023aa27E:
Lfunc_begin193:
	.loc	27 425 0 is_stmt 1
	.cfi_startproc
	.cfi_personality 155, _rust_eh_personality
	.cfi_lsda 16, Lexception21
	pushq	%rbp
	.cfi_def_cfa_offset 16
	.cfi_offset %rbp, -16
	movq	%rsp, %rbp
	.cfi_def_cfa_register %rbp
	subq	$96, %rsp
	movq	%rdi, %rax
Ltmp610:
	.loc	27 427 13 prologue_end
	movb	$0, -25(%rbp)
	movb	$1, -25(%rbp)
	movq	8(%rsi), %rcx
	testq	%rcx, %rcx
	setne	%dl
	movzbl	%dl, %r8d
	movl	%r8d, %ecx
	movq	%rsi, -72(%rbp)
Ltmp611:
	.loc	27 0 13 is_stmt 0
	movq	%rdi, -80(%rbp)
	movq	%rax, -88(%rbp)
	.loc	27 427 13
	je	LBB193_1
	jmp	LBB193_10
Ltmp612:
LBB193_10:
	jmp	LBB193_3
Ltmp613:
LBB193_1:
	.loc	27 428 21 is_stmt 1
	movb	$0, -25(%rbp)
Ltmp607:
	movq	-80(%rbp), %rdi
	callq	__ZN5alloc11collections5btree16unwrap_unchecked28_$u7b$$u7b$closure$u7d$$u7d$17h4cbd31f737bf8c0fE
Ltmp608:
	jmp	LBB193_4
Ltmp614:
	.loc	27 426 15
	ud2
LBB193_3:
Ltmp615:
	.loc	27 0 15 is_stmt 0
	movq	-72(%rbp), %rax
	.loc	27 427 18 is_stmt 1
	movq	(%rax), %rcx
	movq	%rcx, -64(%rbp)
	movq	8(%rax), %rcx
	movq	%rcx, -56(%rbp)
	movq	16(%rax), %rcx
	movq	%rcx, -48(%rbp)
	movq	24(%rax), %rcx
	movq	%rcx, -40(%rbp)
Ltmp616:
	.loc	27 427 24 is_stmt 0
	movq	-64(%rbp), %rcx
	movq	-80(%rbp), %rdx
	movq	%rcx, (%rdx)
	movq	-56(%rbp), %rcx
	movq	%rcx, 8(%rdx)
	movq	-48(%rbp), %rcx
	movq	%rcx, 16(%rdx)
	movq	-40(%rbp), %rcx
	movq	%rcx, 24(%rdx)
Ltmp617:
	.loc	27 426 9 is_stmt 1
	jmp	LBB193_8
Ltmp618:
LBB193_4:
	jmp	LBB193_8
Ltmp619:
LBB193_5:
	.loc	27 0 9 is_stmt 0
	movq	-88(%rbp), %rax
	.loc	27 430 6 is_stmt 1
	addq	$96, %rsp
	popq	%rbp
	retq
Ltmp620:
LBB193_6:
	.loc	27 425 5
	movq	-16(%rbp), %rdi
	callq	__Unwind_Resume
	ud2
Ltmp621:
LBB193_7:
	.loc	27 430 5
	movb	$0, -25(%rbp)
	jmp	LBB193_5
Ltmp622:
LBB193_8:
	testb	$1, -25(%rbp)
	jne	LBB193_7
	jmp	LBB193_5
Ltmp623:
LBB193_9:
Ltmp609:
	.loc	27 0 5 is_stmt 0
	movq	%rax, -16(%rbp)
	movl	%edx, -8(%rbp)
	jmp	LBB193_6
Lfunc_end193:
	.cfi_endproc
	.section	__TEXT,__gcc_except_tab
	.p2align	2
GCC_except_table193:
Lexception21:
	.byte	255
	.byte	255
	.byte	1
	.uleb128 Lcst_end21-Lcst_begin21
Lcst_begin21:
	.uleb128 Ltmp607-Lfunc_begin193
	.uleb128 Ltmp608-Ltmp607
	.uleb128 Ltmp609-Lfunc_begin193
	.byte	0
	.uleb128 Ltmp608-Lfunc_begin193
	.uleb128 Lfunc_end193-Ltmp608
	.byte	0
	.byte	0
Lcst_end21:
	.p2align	2

	.section	__TEXT,__text,regular,pure_instructions
	.p2align	4, 0x90
__ZN4core6option15Option$LT$T$GT$4take17h0f4059d30937fe70E:
Lfunc_begin194:
	.loc	27 891 0 is_stmt 1
	.cfi_startproc
	pushq	%rbp
	.cfi_def_cfa_offset 16
	.cfi_offset %rbp, -16
	movq	%rsp, %rbp
	.cfi_def_cfa_register %rbp
	subq	$32, %rsp
	movq	%rdi, -8(%rbp)
Ltmp624:
	.loc	27 892 9 prologue_end
	callq	__ZN4core3mem4take17hc5555b0c5ba48486E
	movq	%rax, -16(%rbp)
	movq	%rdx, -24(%rbp)
	.loc	27 0 9 is_stmt 0
	movq	-16(%rbp), %rax
	movq	-24(%rbp), %rdx
	.loc	27 893 6 is_stmt 1
	addq	$32, %rsp
	popq	%rbp
	retq
Ltmp625:
Lfunc_end194:
	.cfi_endproc

	.p2align	4, 0x90
__ZN4core6option15Option$LT$T$GT$5ok_or17h5fceea65c65c2e08E:
Lfunc_begin195:
	.loc	27 536 0
	.cfi_startproc
	pushq	%rbp
	.cfi_def_cfa_offset 16
	.cfi_offset %rbp, -16
	movq	%rsp, %rbp
	.cfi_def_cfa_register %rbp
	subq	$80, %rsp
	movq	%rdi, -80(%rbp)
	movq	%rsi, -72(%rbp)
Ltmp626:
	.loc	27 538 13 prologue_end
	movb	$0, -41(%rbp)
	movb	$1, -41(%rbp)
	movq	-80(%rbp), %rax
	testq	%rax, %rax
	setne	%cl
	movzbl	%cl, %edx
	movl	%edx, %eax
	je	LBB195_1
	jmp	LBB195_7
LBB195_7:
	jmp	LBB195_3
LBB195_1:
	.loc	27 539 25
	movb	$0, -41(%rbp)
	.loc	27 539 21 is_stmt 0
	movq	$0, -64(%rbp)
	.loc	27 537 9 is_stmt 1
	jmp	LBB195_4
	.loc	27 537 15 is_stmt 0
	ud2
LBB195_3:
	.loc	27 538 18 is_stmt 1
	movq	-80(%rbp), %rax
	movq	-72(%rbp), %rcx
	movq	%rax, -32(%rbp)
	movq	%rcx, -24(%rbp)
Ltmp627:
	.loc	27 538 24 is_stmt 0
	movq	%rax, -64(%rbp)
	movq	%rcx, -56(%rbp)
Ltmp628:
LBB195_4:
	.loc	27 541 5 is_stmt 1
	testb	$1, -41(%rbp)
	jne	LBB195_6
LBB195_5:
	.loc	27 541 6 is_stmt 0
	movq	-64(%rbp), %rax
	movq	-56(%rbp), %rdx
	addq	$80, %rsp
	popq	%rbp
	retq
LBB195_6:
	.loc	27 541 5
	movb	$0, -41(%rbp)
	jmp	LBB195_5
Ltmp629:
Lfunc_end195:
	.cfi_endproc

	.p2align	4, 0x90
__ZN4core6option15Option$LT$T$GT$6as_mut17hf9cde92e42488dd3E:
Lfunc_begin196:
	.loc	27 287 0 is_stmt 1
	.cfi_startproc
	pushq	%rbp
	.cfi_def_cfa_offset 16
	.cfi_offset %rbp, -16
	movq	%rsp, %rbp
	.cfi_def_cfa_register %rbp
	subq	$32, %rsp
	movq	%rdi, -16(%rbp)
Ltmp630:
	.loc	27 289 13 prologue_end
	movq	8(%rdi), %rax
	testq	%rax, %rax
	setne	%cl
	movzbl	%cl, %edx
	movl	%edx, %eax
	movq	%rdi, -32(%rbp)
	je	LBB196_1
	jmp	LBB196_5
LBB196_5:
	jmp	LBB196_3
LBB196_1:
	.loc	27 290 21
	movq	$0, -24(%rbp)
	.loc	27 288 9
	jmp	LBB196_4
	.loc	27 288 15 is_stmt 0
	ud2
LBB196_3:
	.loc	27 0 15
	movq	-32(%rbp), %rax
	.loc	27 289 18 is_stmt 1
	movq	%rax, -8(%rbp)
Ltmp631:
	.loc	27 289 32 is_stmt 0
	movq	%rax, -24(%rbp)
Ltmp632:
LBB196_4:
	.loc	27 292 6 is_stmt 1
	movq	-24(%rbp), %rax
	addq	$32, %rsp
	popq	%rbp
	retq
Ltmp633:
Lfunc_end196:
	.cfi_endproc

	.p2align	4, 0x90
__ZN4core6option15Option$LT$T$GT$6unwrap17hc1ab02b9037b9afaE:
Lfunc_begin197:
	.loc	27 383 0
	.cfi_startproc
	.cfi_personality 155, _rust_eh_personality
	.cfi_lsda 16, Lexception22
	pushq	%rbp
	.cfi_def_cfa_offset 16
	.cfi_offset %rbp, -16
	movq	%rsp, %rbp
	.cfi_def_cfa_register %rbp
	subq	$48, %rsp
	movq	%rdi, -32(%rbp)
Ltmp637:
	.loc	27 385 13 prologue_end
	movq	-32(%rbp), %rax
	testq	%rax, %rax
	setne	%cl
	movzbl	%cl, %edx
	movl	%edx, %eax
	movq	%rsi, -40(%rbp)
	je	LBB197_1
	jmp	LBB197_7
LBB197_7:
	jmp	LBB197_3
LBB197_1:
Ltmp634:
	.loc	25 10 9
	leaq	l___unnamed_7(%rip), %rdi
	movl	$43, %esi
	movq	-40(%rbp), %rdx
	callq	__ZN4core9panicking5panic17h383a6b80ea7021aaE
Ltmp635:
	jmp	LBB197_5
	.loc	27 384 15
	ud2
LBB197_3:
	.loc	27 385 18
	movq	-32(%rbp), %rax
	movq	%rax, -24(%rbp)
	.loc	27 388 6
	addq	$48, %rsp
	popq	%rbp
	retq
LBB197_4:
	.loc	27 383 5
	movq	-16(%rbp), %rdi
	callq	__Unwind_Resume
	ud2
Ltmp638:
LBB197_5:
	.loc	27 0 5 is_stmt 0
	ud2
LBB197_6:
Ltmp636:
	movq	%rax, -16(%rbp)
	movl	%edx, -8(%rbp)
	jmp	LBB197_4
Lfunc_end197:
	.cfi_endproc
	.section	__TEXT,__gcc_except_tab
	.p2align	2
GCC_except_table197:
Lexception22:
	.byte	255
	.byte	255
	.byte	1
	.uleb128 Lcst_end22-Lcst_begin22
Lcst_begin22:
	.uleb128 Ltmp634-Lfunc_begin197
	.uleb128 Ltmp635-Ltmp634
	.uleb128 Ltmp636-Lfunc_begin197
	.byte	0
	.uleb128 Ltmp635-Lfunc_begin197
	.uleb128 Lfunc_end197-Ltmp635
	.byte	0
	.byte	0
Lcst_end22:
	.p2align	2

	.section	__TEXT,__text,regular,pure_instructions
	.p2align	4, 0x90
__ZN4core6option15Option$LT$T$GT$8and_then17h7fd4e9e075d196f4E:
Lfunc_begin198:
	.loc	27 669 0 is_stmt 1
	.cfi_startproc
	.cfi_personality 155, _rust_eh_personality
	.cfi_lsda 16, Lexception23
	pushq	%rbp
	.cfi_def_cfa_offset 16
	.cfi_offset %rbp, -16
	movq	%rsp, %rbp
	.cfi_def_cfa_register %rbp
	subq	$128, %rsp
	movq	%rdi, %rax
Ltmp642:
	.loc	27 671 13 prologue_end
	movb	$0, -25(%rbp)
	movb	$1, -25(%rbp)
	movq	(%rsi), %rcx
	testq	%rcx, %rcx
	setne	%dl
	movzbl	%dl, %r8d
	movl	%r8d, %ecx
	movq	%rsi, -112(%rbp)
Ltmp643:
	.loc	27 0 13 is_stmt 0
	movq	%rdi, -120(%rbp)
	movq	%rax, -128(%rbp)
	.loc	27 671 13
	je	LBB198_1
	jmp	LBB198_10
Ltmp644:
LBB198_10:
	jmp	LBB198_3
Ltmp645:
LBB198_1:
	.loc	27 0 13
	movq	-120(%rbp), %rax
	.loc	27 672 21 is_stmt 1
	movq	$0, (%rax)
	.loc	27 670 9
	jmp	LBB198_8
Ltmp646:
	.loc	27 670 15 is_stmt 0
	ud2
LBB198_3:
Ltmp647:
	.loc	27 0 15
	movq	-112(%rbp), %rax
	.loc	27 671 18 is_stmt 1
	movq	16(%rax), %rcx
	movq	%rcx, -88(%rbp)
	movq	(%rax), %rcx
	movq	8(%rax), %rdx
	movq	%rdx, -96(%rbp)
	movq	%rcx, -104(%rbp)
Ltmp648:
	.loc	27 671 24 is_stmt 0
	movb	$0, -25(%rbp)
	.loc	27 671 26
	movq	-88(%rbp), %rcx
	movq	%rcx, -40(%rbp)
	movq	-104(%rbp), %rcx
	movq	-96(%rbp), %rdx
	movq	%rdx, -48(%rbp)
	movq	%rcx, -56(%rbp)
	.loc	27 671 24
	movq	-40(%rbp), %rcx
	movq	%rcx, -64(%rbp)
	movq	-56(%rbp), %rcx
	movq	-48(%rbp), %rdx
	movq	%rdx, -72(%rbp)
	movq	%rcx, -80(%rbp)
Ltmp639:
	leaq	-80(%rbp), %rsi
	movq	-120(%rbp), %rdi
	callq	__ZN18build_script_build19rustc_minor_version28_$u7b$$u7b$closure$u7d$$u7d$17h13cb4822724dcae2E
Ltmp640:
	jmp	LBB198_4
Ltmp649:
LBB198_4:
	.loc	27 674 5 is_stmt 1
	jmp	LBB198_8
Ltmp650:
LBB198_5:
	.loc	27 0 5 is_stmt 0
	movq	-128(%rbp), %rax
	.loc	27 674 6
	addq	$128, %rsp
	popq	%rbp
	retq
Ltmp651:
LBB198_6:
	.loc	27 669 5 is_stmt 1
	movq	-16(%rbp), %rdi
	callq	__Unwind_Resume
	ud2
Ltmp652:
LBB198_7:
	.loc	27 674 5
	movb	$0, -25(%rbp)
	jmp	LBB198_5
Ltmp653:
LBB198_8:
	testb	$1, -25(%rbp)
	jne	LBB198_7
	jmp	LBB198_5
Ltmp654:
LBB198_9:
Ltmp641:
	.loc	27 0 5 is_stmt 0
	movq	%rax, -16(%rbp)
	movl	%edx, -8(%rbp)
	jmp	LBB198_6
Lfunc_end198:
	.cfi_endproc
	.section	__TEXT,__gcc_except_tab
	.p2align	2
GCC_except_table198:
Lexception23:
	.byte	255
	.byte	255
	.byte	1
	.uleb128 Lcst_end23-Lcst_begin23
Lcst_begin23:
	.uleb128 Ltmp639-Lfunc_begin198
	.uleb128 Ltmp640-Ltmp639
	.uleb128 Ltmp641-Lfunc_begin198
	.byte	0
	.uleb128 Ltmp640-Lfunc_begin198
	.uleb128 Lfunc_end198-Ltmp640
	.byte	0
	.byte	0
Lcst_end23:
	.p2align	2

	.section	__TEXT,__text,regular,pure_instructions
	.p2align	4, 0x90
__ZN4core6option15Option$LT$T$GT$8and_then17h97c2f8a36e7325d5E:
Lfunc_begin199:
	.loc	27 669 0 is_stmt 1
	.cfi_startproc
	.cfi_personality 155, _rust_eh_personality
	.cfi_lsda 16, Lexception24
	pushq	%rbp
	.cfi_def_cfa_offset 16
	.cfi_offset %rbp, -16
	movq	%rsp, %rbp
	.cfi_def_cfa_register %rbp
	subq	$224, %rsp
	movq	%rdi, %rax
Ltmp658:
	.loc	27 671 13 prologue_end
	movb	$0, -25(%rbp)
	movb	$1, -25(%rbp)
	movq	(%rsi), %rcx
	testq	%rcx, %rcx
	setne	%dl
	movzbl	%dl, %r8d
	movl	%r8d, %ecx
	movq	%rsi, -208(%rbp)
Ltmp659:
	.loc	27 0 13 is_stmt 0
	movq	%rdi, -216(%rbp)
	movq	%rax, -224(%rbp)
	.loc	27 671 13
	je	LBB199_1
	jmp	LBB199_10
Ltmp660:
LBB199_10:
	jmp	LBB199_3
Ltmp661:
LBB199_1:
	.loc	27 0 13
	movq	-216(%rbp), %rax
	.loc	27 672 21 is_stmt 1
	movq	$0, (%rax)
	.loc	27 670 9
	jmp	LBB199_8
Ltmp662:
	.loc	27 670 15 is_stmt 0
	ud2
LBB199_3:
Ltmp663:
	.loc	27 0 15
	movq	-208(%rbp), %rax
	.loc	27 671 18 is_stmt 1
	movq	48(%rax), %rcx
	movq	%rcx, -152(%rbp)
	movq	40(%rax), %rcx
	movq	%rcx, -160(%rbp)
	movq	32(%rax), %rcx
	movq	%rcx, -168(%rbp)
	movq	24(%rax), %rcx
	movq	%rcx, -176(%rbp)
	movq	16(%rax), %rcx
	movq	%rcx, -184(%rbp)
	movq	(%rax), %rcx
	movq	8(%rax), %rdx
	movq	%rdx, -192(%rbp)
	movq	%rcx, -200(%rbp)
Ltmp664:
	.loc	27 671 24 is_stmt 0
	movb	$0, -25(%rbp)
	.loc	27 671 26
	movq	-152(%rbp), %rcx
	movq	%rcx, -40(%rbp)
	movq	-160(%rbp), %rcx
	movq	%rcx, -48(%rbp)
	movq	-168(%rbp), %rcx
	movq	%rcx, -56(%rbp)
	movq	-176(%rbp), %rcx
	movq	%rcx, -64(%rbp)
	movq	-184(%rbp), %rcx
	movq	%rcx, -72(%rbp)
	movq	-200(%rbp), %rcx
	movq	-192(%rbp), %rdx
	movq	%rdx, -80(%rbp)
	movq	%rcx, -88(%rbp)
	.loc	27 671 24
	movq	-40(%rbp), %rcx
	movq	%rcx, -96(%rbp)
	movq	-48(%rbp), %rcx
	movq	%rcx, -104(%rbp)
	movq	-56(%rbp), %rcx
	movq	%rcx, -112(%rbp)
	movq	-64(%rbp), %rcx
	movq	%rcx, -120(%rbp)
	movq	-72(%rbp), %rcx
	movq	%rcx, -128(%rbp)
	movq	-88(%rbp), %rcx
	movq	-80(%rbp), %rdx
	movq	%rdx, -136(%rbp)
	movq	%rcx, -144(%rbp)
Ltmp655:
	leaq	-144(%rbp), %rsi
	movq	-216(%rbp), %rdi
	callq	__ZN18build_script_build19rustc_minor_version28_$u7b$$u7b$closure$u7d$$u7d$17hfe046b3fd1ef6a67E
Ltmp656:
	jmp	LBB199_4
Ltmp665:
LBB199_4:
	.loc	27 674 5 is_stmt 1
	jmp	LBB199_8
Ltmp666:
LBB199_5:
	.loc	27 0 5 is_stmt 0
	movq	-224(%rbp), %rax
	.loc	27 674 6
	addq	$224, %rsp
	popq	%rbp
	retq
Ltmp667:
LBB199_6:
	.loc	27 669 5 is_stmt 1
	movq	-16(%rbp), %rdi
	callq	__Unwind_Resume
	ud2
Ltmp668:
LBB199_7:
	.loc	27 674 5
	movb	$0, -25(%rbp)
	jmp	LBB199_5
Ltmp669:
LBB199_8:
	testb	$1, -25(%rbp)
	jne	LBB199_7
	jmp	LBB199_5
Ltmp670:
LBB199_9:
Ltmp657:
	.loc	27 0 5 is_stmt 0
	movq	%rax, -16(%rbp)
	movl	%edx, -8(%rbp)
	jmp	LBB199_6
Lfunc_end199:
	.cfi_endproc
	.section	__TEXT,__gcc_except_tab
	.p2align	2
GCC_except_table199:
Lexception24:
	.byte	255
	.byte	255
	.byte	1
	.uleb128 Lcst_end24-Lcst_begin24
Lcst_begin24:
	.uleb128 Ltmp655-Lfunc_begin199
	.uleb128 Ltmp656-Ltmp655
	.uleb128 Ltmp657-Lfunc_begin199
	.byte	0
	.uleb128 Ltmp656-Lfunc_begin199
	.uleb128 Lfunc_end199-Ltmp656
	.byte	0
	.byte	0
Lcst_end24:
	.p2align	2

	.section	__TEXT,__text,regular,pure_instructions
	.p2align	4, 0x90
__ZN4core6result19Result$LT$T$C$E$GT$2ok17h4d7df82346f5ea16E:
Lfunc_begin200:
	.file	28 "/rustc/6c8927b0cf80ceee19386026cf9d7fd4fd9d486f/src/libcore/result.rs"
	.loc	28 394 0 is_stmt 1
	.cfi_startproc
	pushq	%rbp
	.cfi_def_cfa_offset 16
	.cfi_offset %rbp, -16
	movq	%rsp, %rbp
	.cfi_def_cfa_register %rbp
	subq	$32, %rsp
	movq	%rdi, -24(%rbp)
	movq	-24(%rbp), %rax
	movq	%rax, -32(%rbp)
Ltmp671:
	.loc	28 396 13 prologue_end
	movzbl	-32(%rbp), %ecx
	movl	%ecx, %eax
	testb	$1, %al
	je	LBB200_3
	jmp	LBB200_7
LBB200_7:
	.loc	28 397 23
	movl	$0, -16(%rbp)
	.loc	28 395 9
	jmp	LBB200_6
	.loc	28 395 15 is_stmt 0
	ud2
LBB200_3:
	.loc	28 396 16 is_stmt 1
	movl	-28(%rbp), %eax
	movl	%eax, -4(%rbp)
Ltmp672:
	.loc	28 396 22 is_stmt 0
	movl	%eax, -12(%rbp)
	movl	$1, -16(%rbp)
Ltmp673:
	.loc	28 399 5 is_stmt 1
	jmp	LBB200_6
LBB200_4:
	.loc	28 399 6 is_stmt 0
	movl	-16(%rbp), %eax
	movl	-12(%rbp), %edx
	addq	$32, %rsp
	popq	%rbp
	retq
LBB200_5:
	.loc	28 399 5
	jmp	LBB200_4
LBB200_6:
	movb	-32(%rbp), %al
	andb	$1, %al
	movzbl	%al, %ecx
	movl	%ecx, %edx
	cmpq	$0, %rdx
	je	LBB200_4
	jmp	LBB200_5
Ltmp674:
Lfunc_end200:
	.cfi_endproc

	.p2align	4, 0x90
__ZN4core6result19Result$LT$T$C$E$GT$2ok17h5747336f53f2eb09E:
Lfunc_begin201:
	.loc	28 394 0 is_stmt 1
	.cfi_startproc
	pushq	%rbp
	.cfi_def_cfa_offset 16
	.cfi_offset %rbp, -16
	movq	%rsp, %rbp
	.cfi_def_cfa_register %rbp
	subq	$160, %rsp
	movq	%rdi, %rax
Ltmp675:
	.loc	28 396 13 prologue_end
	movq	(%rsi), %rcx
	testq	%rcx, %rcx
	movq	%rsi, -120(%rbp)
Ltmp676:
	.loc	28 0 13 is_stmt 0
	movq	%rdi, -128(%rbp)
	movq	%rax, -136(%rbp)
	.loc	28 396 13
	je	LBB201_3
	jmp	LBB201_7
Ltmp677:
LBB201_7:
	.loc	28 0 13
	movq	-128(%rbp), %rax
	.loc	28 397 23 is_stmt 1
	movq	$0, (%rax)
	.loc	28 395 9
	jmp	LBB201_6
Ltmp678:
	.loc	28 395 15 is_stmt 0
	ud2
LBB201_3:
Ltmp679:
	.loc	28 0 15
	movq	-120(%rbp), %rax
	.loc	28 396 16 is_stmt 1
	addq	$8, %rax
	leaq	-112(%rbp), %rcx
	movq	%rcx, %rdx
	movq	%rdx, %rdi
	movq	%rax, %rsi
	movl	$56, %eax
	movq	%rax, %rdx
	movq	%rcx, -144(%rbp)
	movq	%rax, -152(%rbp)
	callq	_memcpy
Ltmp680:
	.loc	28 396 27 is_stmt 0
	leaq	-56(%rbp), %rax
	movq	%rax, %rcx
	movq	-144(%rbp), %rdx
	movq	%rcx, %rdi
	movq	%rdx, %rsi
	movq	-152(%rbp), %rdx
	movq	%rax, -160(%rbp)
	callq	_memcpy
	movq	-128(%rbp), %rax
	movq	-160(%rbp), %rcx
	.loc	28 396 22
	movq	%rax, %rdi
	movq	%rcx, %rsi
	movq	-152(%rbp), %rdx
	callq	_memcpy
Ltmp681:
	.loc	28 399 5 is_stmt 1
	jmp	LBB201_6
Ltmp682:
LBB201_4:
	.loc	28 0 5 is_stmt 0
	movq	-136(%rbp), %rax
	.loc	28 399 6
	addq	$160, %rsp
	popq	%rbp
	retq
Ltmp683:
LBB201_5:
	.loc	28 0 6
	movq	-120(%rbp), %rdi
	.loc	28 399 5
	callq	__ZN4core3ptr13drop_in_place17hca713b5923b46fe8E
	jmp	LBB201_4
Ltmp684:
LBB201_6:
	.loc	28 0 5
	movq	-120(%rbp), %rax
	.loc	28 399 5
	cmpq	$0, (%rax)
	je	LBB201_4
	jmp	LBB201_5
Ltmp685:
Lfunc_end201:
	.cfi_endproc

	.p2align	4, 0x90
__ZN4core6result19Result$LT$T$C$E$GT$2ok17hcd3504db31abcd00E:
Lfunc_begin202:
	.loc	28 394 0 is_stmt 1
	.cfi_startproc
	pushq	%rbp
	.cfi_def_cfa_offset 16
	.cfi_offset %rbp, -16
	movq	%rsp, %rbp
	.cfi_def_cfa_register %rbp
	subq	$88, %rsp
	movq	%rdi, %rax
Ltmp686:
	.loc	28 396 13 prologue_end
	movq	(%rsi), %rcx
	testq	%rcx, %rcx
	movq	%rsi, -72(%rbp)
Ltmp687:
	.loc	28 0 13 is_stmt 0
	movq	%rdi, -80(%rbp)
	movq	%rax, -88(%rbp)
	.loc	28 396 13
	je	LBB202_3
	jmp	LBB202_7
Ltmp688:
LBB202_7:
	.loc	28 0 13
	movq	-80(%rbp), %rax
	.loc	28 397 23 is_stmt 1
	movq	$0, 8(%rax)
	.loc	28 395 9
	jmp	LBB202_6
Ltmp689:
	.loc	28 395 15 is_stmt 0
	ud2
LBB202_3:
Ltmp690:
	.loc	28 0 15
	movq	-72(%rbp), %rax
	.loc	28 396 16 is_stmt 1
	movq	8(%rax), %rcx
	movq	%rcx, -64(%rbp)
	movq	16(%rax), %rcx
	movq	%rcx, -56(%rbp)
	movq	24(%rax), %rcx
	movq	%rcx, -48(%rbp)
	movq	32(%rax), %rcx
	movq	%rcx, -40(%rbp)
Ltmp691:
	.loc	28 396 27 is_stmt 0
	movq	-64(%rbp), %rcx
	movq	%rcx, -32(%rbp)
	movq	-56(%rbp), %rcx
	movq	%rcx, -24(%rbp)
	movq	-48(%rbp), %rcx
	movq	%rcx, -16(%rbp)
	movq	-40(%rbp), %rcx
	movq	%rcx, -8(%rbp)
	.loc	28 396 22
	movq	-32(%rbp), %rcx
	movq	-80(%rbp), %rdx
	movq	%rcx, (%rdx)
	movq	-24(%rbp), %rcx
	movq	%rcx, 8(%rdx)
	movq	-16(%rbp), %rcx
	movq	%rcx, 16(%rdx)
	movq	-8(%rbp), %rcx
	movq	%rcx, 24(%rdx)
Ltmp692:
	.loc	28 399 5 is_stmt 1
	jmp	LBB202_6
Ltmp693:
LBB202_4:
	.loc	28 0 5 is_stmt 0
	movq	-88(%rbp), %rax
	.loc	28 399 6
	addq	$88, %rsp
	popq	%rbp
	retq
Ltmp694:
LBB202_5:
	.loc	28 399 5
	jmp	LBB202_4
Ltmp695:
LBB202_6:
	.loc	28 0 5
	movq	-72(%rbp), %rax
	.loc	28 399 5
	cmpq	$0, (%rax)
	je	LBB202_4
	jmp	LBB202_5
Ltmp696:
Lfunc_end202:
	.cfi_endproc

	.p2align	4, 0x90
__ZN4core6result19Result$LT$T$C$E$GT$2ok17hd66b2100062d2fb9E:
Lfunc_begin203:
	.loc	28 394 0 is_stmt 1
	.cfi_startproc
	pushq	%rbp
	.cfi_def_cfa_offset 16
	.cfi_offset %rbp, -16
	movq	%rsp, %rbp
	.cfi_def_cfa_register %rbp
	subq	$80, %rsp
	movq	%rdi, %rax
Ltmp697:
	.loc	28 396 13 prologue_end
	movq	(%rsi), %rcx
	testq	%rcx, %rcx
	movq	%rsi, -56(%rbp)
Ltmp698:
	.loc	28 0 13 is_stmt 0
	movq	%rdi, -64(%rbp)
	movq	%rax, -72(%rbp)
	.loc	28 396 13
	je	LBB203_3
	jmp	LBB203_7
Ltmp699:
LBB203_7:
	.loc	28 0 13
	movq	-64(%rbp), %rax
	.loc	28 397 23 is_stmt 1
	movq	$0, (%rax)
	.loc	28 395 9
	jmp	LBB203_6
Ltmp700:
	.loc	28 395 15 is_stmt 0
	ud2
LBB203_3:
Ltmp701:
	.loc	28 0 15
	movq	-56(%rbp), %rax
	.loc	28 396 16 is_stmt 1
	movq	8(%rax), %rcx
	movq	%rcx, -48(%rbp)
	movq	16(%rax), %rcx
	movq	%rcx, -40(%rbp)
	movq	24(%rax), %rcx
	movq	%rcx, -32(%rbp)
Ltmp702:
	.loc	28 396 27 is_stmt 0
	movq	-48(%rbp), %rcx
	movq	%rcx, -24(%rbp)
	movq	-40(%rbp), %rcx
	movq	%rcx, -16(%rbp)
	movq	-32(%rbp), %rcx
	movq	%rcx, -8(%rbp)
	.loc	28 396 22
	movq	-24(%rbp), %rcx
	movq	-64(%rbp), %rdx
	movq	%rcx, (%rdx)
	movq	-16(%rbp), %rcx
	movq	%rcx, 8(%rdx)
	movq	-8(%rbp), %rcx
	movq	%rcx, 16(%rdx)
Ltmp703:
	.loc	28 399 5 is_stmt 1
	jmp	LBB203_6
Ltmp704:
LBB203_4:
	.loc	28 0 5 is_stmt 0
	movq	-72(%rbp), %rax
	.loc	28 399 6
	addq	$80, %rsp
	popq	%rbp
	retq
Ltmp705:
LBB203_5:
	.loc	28 0 6
	movq	-56(%rbp), %rdi
	.loc	28 399 5
	callq	__ZN4core3ptr13drop_in_place17h8fbd173394500f16E
	jmp	LBB203_4
Ltmp706:
LBB203_6:
	.loc	28 0 5
	movq	-56(%rbp), %rax
	.loc	28 399 5
	cmpq	$0, (%rax)
	je	LBB203_4
	jmp	LBB203_5
Ltmp707:
Lfunc_end203:
	.cfi_endproc

	.p2align	4, 0x90
__ZN4core7convert3num66_$LT$impl$u20$core..convert..From$LT$u16$GT$$u20$for$u20$usize$GT$4from17hd82f9204ff831e31E:
Lfunc_begin204:
	.file	29 "/rustc/6c8927b0cf80ceee19386026cf9d7fd4fd9d486f/src/libcore/convert/num.rs"
	.loc	29 51 0 is_stmt 1
	.cfi_startproc
	pushq	%rbp
	.cfi_def_cfa_offset 16
	.cfi_offset %rbp, -16
	movq	%rsp, %rbp
	.cfi_def_cfa_register %rbp
	subq	$2, %rsp
	movw	%di, -2(%rbp)
Ltmp708:
	.loc	29 52 17 prologue_end
	movzwl	%di, %eax
	.loc	29 53 14
	addq	$2, %rsp
	popq	%rbp
	retq
Ltmp709:
Lfunc_end204:
	.cfi_endproc

	.p2align	4, 0x90
__ZN50_$LT$T$u20$as$u20$core..convert..From$LT$T$GT$$GT$4from17h06823445d81aec06E:
Lfunc_begin205:
	.file	30 "/rustc/6c8927b0cf80ceee19386026cf9d7fd4fd9d486f/src/libcore/convert/mod.rs"
	.loc	30 570 0
	.cfi_startproc
	pushq	%rbp
	.cfi_def_cfa_offset 16
	.cfi_offset %rbp, -16
	movq	%rsp, %rbp
	.cfi_def_cfa_register %rbp
	pushq	%rax
Ltmp710:
	.loc	30 572 6 prologue_end
	addq	$8, %rsp
	popq	%rbp
	retq
Ltmp711:
Lfunc_end205:
	.cfi_endproc

	.p2align	4, 0x90
__ZN50_$LT$T$u20$as$u20$core..convert..Into$LT$U$GT$$GT$4into17h229b8e61758e2bc8E:
Lfunc_begin206:
	.loc	30 562 0
	.cfi_startproc
	pushq	%rbp
	.cfi_def_cfa_offset 16
	.cfi_offset %rbp, -16
	movq	%rsp, %rbp
	.cfi_def_cfa_register %rbp
	subq	$16, %rsp
	movq	%rdi, -8(%rbp)
Ltmp712:
	.loc	30 563 9 prologue_end
	callq	__ZN119_$LT$core..ptr..non_null..NonNull$LT$T$GT$$u20$as$u20$core..convert..From$LT$core..ptr..unique..Unique$LT$T$GT$$GT$$GT$4from17hf45024b5d19073baE
	movq	%rax, -16(%rbp)
	.loc	30 0 9 is_stmt 0
	movq	-16(%rbp), %rax
	.loc	30 564 6 is_stmt 1
	addq	$16, %rsp
	popq	%rbp
	retq
Ltmp713:
Lfunc_end206:
	.cfi_endproc

	.p2align	4, 0x90
__ZN52_$LT$char$u20$as$u20$core..str..pattern..Pattern$GT$13into_searcher17h20472f65704d40a7E:
Lfunc_begin207:
	.file	31 "/rustc/6c8927b0cf80ceee19386026cf9d7fd4fd9d486f/src/libcore/str/pattern.rs"
	.loc	31 535 0
	.cfi_startproc
	pushq	%rbp
	.cfi_def_cfa_offset 16
	.cfi_offset %rbp, -16
	movq	%rsp, %rbp
	.cfi_def_cfa_register %rbp
	subq	$128, %rsp
	movq	%rdi, %rax
	leaq	-36(%rbp), %r8
	xorl	%r9d, %r9d
	movl	%esi, -28(%rbp)
	movq	%rdx, -24(%rbp)
	movq	%rcx, -16(%rbp)
Ltmp714:
	movq	%rdi, -48(%rbp)
Ltmp715:
	.loc	31 536 32 prologue_end
	movq	%r8, %rdi
	movl	%esi, -52(%rbp)
	movl	%r9d, %esi
	movl	$4, %r10d
	movq	%rdx, -64(%rbp)
	movq	%r10, %rdx
	movq	%rcx, -72(%rbp)
	movq	%rax, -80(%rbp)
	movq	%r8, -88(%rbp)
Ltmp716:
	.loc	31 0 32 is_stmt 0
	movq	%r10, -96(%rbp)
	.loc	31 536 32
	callq	_memset
	movq	-88(%rbp), %rax
	movl	-52(%rbp), %edi
Ltmp717:
	.loc	31 537 25 is_stmt 1
	movq	%rax, %rsi
	movq	-96(%rbp), %rdx
	callq	__ZN4core4char7methods22_$LT$impl$u20$char$GT$11encode_utf817hd318e8ee49b40b42E
	movq	%rax, -104(%rbp)
	movq	%rdx, -112(%rbp)
Ltmp718:
	.loc	31 0 25 is_stmt 0
	movq	-104(%rbp), %rdi
	movq	-112(%rbp), %rsi
	.loc	31 537 25
	callq	__ZN4core3str21_$LT$impl$u20$str$GT$3len17h721bb85ac9ad15d3E
	movq	%rax, -8(%rbp)
	movq	%rax, -120(%rbp)
Ltmp719:
	.loc	31 0 25
	movq	-64(%rbp), %rdi
	movq	-72(%rbp), %rsi
Ltmp720:
	.loc	31 541 26 is_stmt 1
	callq	__ZN4core3str21_$LT$impl$u20$str$GT$3len17h721bb85ac9ad15d3E
	movq	%rax, -128(%rbp)
Ltmp721:
	.loc	31 544 13
	movl	-36(%rbp), %eax
	movl	%eax, -32(%rbp)
	movq	-48(%rbp), %rcx
	movq	-64(%rbp), %rdx
	.loc	31 538 9
	movq	%rdx, (%rcx)
	movq	-72(%rbp), %rsi
	movq	%rsi, 8(%rcx)
	movq	$0, 16(%rcx)
	movq	-128(%rbp), %rdi
	movq	%rdi, 24(%rcx)
	movl	-52(%rbp), %eax
	movl	%eax, 40(%rcx)
	movq	-120(%rbp), %r8
	movq	%r8, 32(%rcx)
	movl	-32(%rbp), %r9d
	movl	%r9d, 44(%rcx)
	movq	-80(%rbp), %r10
Ltmp722:
	.loc	31 546 6
	movq	%r10, %rax
	addq	$128, %rsp
	popq	%rbp
	retq
Ltmp723:
Lfunc_end207:
	.cfi_endproc

	.p2align	4, 0x90
__ZN54_$LT$$LP$$RP$$u20$as$u20$std..process..Termination$GT$6report17h66e3a0d5432b73e6E:
Lfunc_begin208:
	.loc	12 1667 0
	.cfi_startproc
	pushq	%rbp
	.cfi_def_cfa_offset 16
	.cfi_offset %rbp, -16
	movq	%rsp, %rbp
	.cfi_def_cfa_register %rbp
	subq	$16, %rsp
	xorl	%edi, %edi
Ltmp724:
	.loc	12 1668 9 prologue_end
	callq	__ZN68_$LT$std..process..ExitCode$u20$as$u20$std..process..Termination$GT$6report17h423499106136dea8E
	movl	%eax, -12(%rbp)
	.loc	12 0 9 is_stmt 0
	movl	-12(%rbp), %eax
	.loc	12 1669 6 is_stmt 1
	addq	$16, %rsp
	popq	%rbp
	retq
Ltmp725:
Lfunc_end208:
	.cfi_endproc

	.p2align	4, 0x90
__ZN55_$LT$$RF$T$u20$as$u20$core..convert..AsRef$LT$U$GT$$GT$6as_ref17h544a5204e92e9ed2E:
Lfunc_begin209:
	.loc	30 513 0
	.cfi_startproc
	pushq	%rbp
	.cfi_def_cfa_offset 16
	.cfi_offset %rbp, -16
	movq	%rsp, %rbp
	.cfi_def_cfa_register %rbp
	subq	$32, %rsp
	movq	%rdi, -8(%rbp)
Ltmp726:
	.loc	30 514 33 prologue_end
	movq	(%rdi), %rax
	movq	8(%rdi), %rsi
	.loc	30 514 9 is_stmt 0
	movq	%rax, %rdi
	callq	__ZN3std3ffi6os_str85_$LT$impl$u20$core..convert..AsRef$LT$std..ffi..os_str..OsStr$GT$$u20$for$u20$str$GT$6as_ref17h387088127f91291aE
	movq	%rax, -16(%rbp)
	movq	%rdx, -24(%rbp)
	.loc	30 0 9
	movq	-16(%rbp), %rax
	movq	-24(%rbp), %rdx
	.loc	30 515 6 is_stmt 1
	addq	$32, %rsp
	popq	%rbp
	retq
Ltmp727:
Lfunc_end209:
	.cfi_endproc

	.p2align	4, 0x90
__ZN5alloc11collections5btree16unwrap_unchecked28_$u7b$$u7b$closure$u7d$$u7d$17h40b93ae1e03a4563E:
Lfunc_begin210:
	.loc	6 18 0
	.cfi_startproc
	pushq	%rbp
	.cfi_def_cfa_offset 16
	.cfi_offset %rbp, -16
	movq	%rsp, %rbp
	.cfi_def_cfa_register %rbp
	pushq	%rax
Ltmp728:
	.loc	6 23 17 prologue_end
	ud2
Ltmp729:
Lfunc_end210:
	.cfi_endproc

	.p2align	4, 0x90
__ZN5alloc11collections5btree16unwrap_unchecked28_$u7b$$u7b$closure$u7d$$u7d$17h4cbd31f737bf8c0fE:
Lfunc_begin211:
	.loc	6 18 0
	.cfi_startproc
	pushq	%rbp
	.cfi_def_cfa_offset 16
	.cfi_offset %rbp, -16
	movq	%rsp, %rbp
	.cfi_def_cfa_register %rbp
	pushq	%rax
Ltmp730:
	.loc	6 23 17 prologue_end
	ud2
Ltmp731:
Lfunc_end211:
	.cfi_endproc

	.p2align	4, 0x90
__ZN5alloc11collections5btree3map17full_range_search17hd274dc2058d63dddE:
Lfunc_begin212:
	.loc	3 2039 0
	.cfi_startproc
	pushq	%rbp
	.cfi_def_cfa_offset 16
	.cfi_offset %rbp, -16
	movq	%rsp, %rbp
	.cfi_def_cfa_register %rbp
	subq	$832, %rsp
	movq	%rdi, %rax
Ltmp732:
	.loc	3 2047 33 prologue_end
	leaq	-768(%rbp), %rcx
Ltmp733:
	.loc	3 0 33 is_stmt 0
	movq	%rdi, -776(%rbp)
	.loc	3 2047 33
	movq	%rcx, %rdi
	movq	%rsi, -784(%rbp)
Ltmp734:
	.loc	3 0 33
	movq	%rax, -792(%rbp)
	.loc	3 2047 33
	callq	__ZN4core3ptr4read17h46d3dedcd2aa05bfE
Ltmp735:
	.loc	3 0 33
	movq	-784(%rbp), %rax
Ltmp736:
	.loc	3 2048 24 is_stmt 1
	movq	(%rax), %rcx
	movq	%rcx, -744(%rbp)
	movq	8(%rax), %rcx
	movq	%rcx, -736(%rbp)
	movq	16(%rax), %rcx
	movq	%rcx, -728(%rbp)
Ltmp737:
LBB212_2:
	.loc	3 2050 21
	movq	-768(%rbp), %rax
	movq	%rax, -688(%rbp)
	movq	-760(%rbp), %rax
	movq	%rax, -680(%rbp)
	movq	-752(%rbp), %rax
	movq	%rax, -672(%rbp)
	leaq	-720(%rbp), %rdi
	leaq	-688(%rbp), %rsi
	callq	__ZN5alloc11collections5btree4node40NodeRef$LT$BorrowType$C$K$C$V$C$Type$GT$10first_edge17habf38c30fdfc59eaE
Ltmp738:
	.loc	3 2051 20
	movq	-744(%rbp), %rax
	movq	%rax, -632(%rbp)
	movq	-736(%rbp), %rax
	movq	%rax, -624(%rbp)
	movq	-728(%rbp), %rax
	movq	%rax, -616(%rbp)
	leaq	-664(%rbp), %rdi
	leaq	-632(%rbp), %rsi
	callq	__ZN5alloc11collections5btree4node40NodeRef$LT$BorrowType$C$K$C$V$C$Type$GT$9last_edge17hdc5415dccb5a961fE
Ltmp739:
	.loc	3 2052 16
	movq	-720(%rbp), %rax
	movq	%rax, -488(%rbp)
	movq	-712(%rbp), %rax
	movq	%rax, -480(%rbp)
	movq	-704(%rbp), %rax
	movq	%rax, -472(%rbp)
	movq	-696(%rbp), %rax
	movq	%rax, -464(%rbp)
	leaq	-528(%rbp), %rdi
	leaq	-488(%rbp), %rsi
	callq	__ZN5alloc11collections5btree4node151Handle$LT$alloc..collections..btree..node..NodeRef$LT$BorrowType$C$K$C$V$C$alloc..collections..btree..node..marker..LeafOrInternal$GT$$C$HandleType$GT$5force17hf25a405f29d3e60aE
Ltmp740:
	.loc	3 2052 31 is_stmt 0
	movq	-664(%rbp), %rax
	movq	%rax, -416(%rbp)
	movq	-656(%rbp), %rax
	movq	%rax, -408(%rbp)
	movq	-648(%rbp), %rax
	movq	%rax, -400(%rbp)
	movq	-640(%rbp), %rax
	movq	%rax, -392(%rbp)
	leaq	-456(%rbp), %rdi
	leaq	-416(%rbp), %rsi
	callq	__ZN5alloc11collections5btree4node151Handle$LT$alloc..collections..btree..node..NodeRef$LT$BorrowType$C$K$C$V$C$alloc..collections..btree..node..marker..LeafOrInternal$GT$$C$HandleType$GT$5force17hf25a405f29d3e60aE
Ltmp741:
	.loc	3 2052 15
	movq	-496(%rbp), %rax
	movq	%rax, -576(%rbp)
	movq	-504(%rbp), %rax
	movq	%rax, -584(%rbp)
	movq	-512(%rbp), %rax
	movq	%rax, -592(%rbp)
	movq	-528(%rbp), %rax
	movq	-520(%rbp), %rcx
	movq	%rcx, -600(%rbp)
	movq	%rax, -608(%rbp)
	movq	-424(%rbp), %rax
	movq	%rax, -536(%rbp)
	movq	-432(%rbp), %rax
	movq	%rax, -544(%rbp)
	movq	-440(%rbp), %rax
	movq	%rax, -552(%rbp)
	movq	-456(%rbp), %rax
	movq	-448(%rbp), %rcx
	movq	%rcx, -560(%rbp)
	movq	%rax, -568(%rbp)
	.loc	3 2053 14 is_stmt 1
	movq	-608(%rbp), %rax
	testq	%rax, %rax
	movq	%rax, -800(%rbp)
	je	LBB212_7
	jmp	LBB212_16
Ltmp742:
LBB212_16:
	.loc	3 0 14 is_stmt 0
	movq	-800(%rbp), %rax
	.loc	3 2053 14
	subq	$1, %rax
	je	LBB212_9
	jmp	LBB212_8
Ltmp743:
LBB212_7:
	.loc	3 2053 23
	cmpq	$0, -568(%rbp)
	je	LBB212_10
Ltmp744:
LBB212_8:
	.loc	25 548 16 is_stmt 1
	movq	l___unnamed_8(%rip), %rax
	.loc	3 2060 31
	movq	l___unnamed_9(%rip), %rcx
	.loc	25 19 38
	movq	%rcx, -16(%rbp)
	.loc	3 2060 31
	movq	-16(%rbp), %rcx
	movq	%rcx, -8(%rbp)
Ltmp745:
	.loc	25 19 38
	movq	%rcx, %rdi
	leaq	__ZN44_$LT$$RF$T$u20$as$u20$core..fmt..Display$GT$3fmt17h8b2e6fe214a5a13cE(%rip), %rsi
	movq	%rax, -808(%rbp)
	callq	__ZN4core3fmt10ArgumentV13new17hb2e433e8866b73bbE
	movq	%rax, -816(%rbp)
	movq	%rdx, -824(%rbp)
	jmp	LBB212_14
Ltmp746:
LBB212_9:
	.loc	3 2056 33
	cmpq	$1, -568(%rbp)
	je	LBB212_11
	jmp	LBB212_8
Ltmp747:
LBB212_10:
	.loc	3 2053 19
	movq	-600(%rbp), %rax
	movq	%rax, -384(%rbp)
	movq	-592(%rbp), %rax
	movq	%rax, -376(%rbp)
	movq	-584(%rbp), %rax
	movq	%rax, -368(%rbp)
	movq	-576(%rbp), %rax
	movq	%rax, -360(%rbp)
	.loc	3 2053 28 is_stmt 0
	movq	-560(%rbp), %rax
	movq	%rax, -352(%rbp)
	movq	-552(%rbp), %rax
	movq	%rax, -344(%rbp)
	movq	-544(%rbp), %rax
	movq	%rax, -336(%rbp)
	movq	-536(%rbp), %rax
	movq	%rax, -328(%rbp)
Ltmp748:
	.loc	3 2054 25 is_stmt 1
	movq	-384(%rbp), %rax
	movq	%rax, -320(%rbp)
	movq	-376(%rbp), %rax
	movq	%rax, -312(%rbp)
	movq	-368(%rbp), %rax
	movq	%rax, -304(%rbp)
	movq	-360(%rbp), %rax
	movq	%rax, -296(%rbp)
	.loc	3 2054 28 is_stmt 0
	movq	-352(%rbp), %rax
	movq	%rax, -288(%rbp)
	movq	-344(%rbp), %rax
	movq	%rax, -280(%rbp)
	movq	-336(%rbp), %rax
	movq	%rax, -272(%rbp)
	movq	-328(%rbp), %rax
	movq	%rax, -264(%rbp)
	.loc	3 2054 24
	movq	-320(%rbp), %rax
	movq	-776(%rbp), %rcx
	movq	%rax, (%rcx)
	movq	-312(%rbp), %rax
	movq	%rax, 8(%rcx)
	movq	-304(%rbp), %rax
	movq	%rax, 16(%rcx)
	movq	-296(%rbp), %rax
	movq	%rax, 24(%rcx)
	movq	-288(%rbp), %rax
	movq	%rax, 32(%rcx)
	movq	-280(%rbp), %rax
	movq	%rax, 40(%rcx)
	movq	-272(%rbp), %rax
	movq	%rax, 48(%rcx)
	movq	-264(%rbp), %rax
	movq	%rax, 56(%rcx)
	movq	-792(%rbp), %rax
Ltmp749:
	.loc	3 2063 2 is_stmt 1
	addq	$832, %rsp
	popq	%rbp
	retq
Ltmp750:
LBB212_11:
	.loc	3 2056 23
	movq	-600(%rbp), %rax
	movq	%rax, -256(%rbp)
	movq	-592(%rbp), %rax
	movq	%rax, -248(%rbp)
	movq	-584(%rbp), %rax
	movq	%rax, -240(%rbp)
	movq	-576(%rbp), %rax
	movq	%rax, -232(%rbp)
	.loc	3 2056 42 is_stmt 0
	movq	-560(%rbp), %rax
	movq	%rax, -224(%rbp)
	movq	-552(%rbp), %rax
	movq	%rax, -216(%rbp)
	movq	-544(%rbp), %rax
	movq	%rax, -208(%rbp)
	movq	-536(%rbp), %rax
	movq	%rax, -200(%rbp)
Ltmp751:
	.loc	3 2057 28 is_stmt 1
	movq	-256(%rbp), %rax
	movq	%rax, -168(%rbp)
	movq	-248(%rbp), %rax
	movq	%rax, -160(%rbp)
	movq	-240(%rbp), %rax
	movq	%rax, -152(%rbp)
	movq	-232(%rbp), %rax
	movq	%rax, -144(%rbp)
	leaq	-192(%rbp), %rdi
	leaq	-168(%rbp), %rsi
	callq	__ZN5alloc11collections5btree4node180Handle$LT$alloc..collections..btree..node..NodeRef$LT$BorrowType$C$K$C$V$C$alloc..collections..btree..node..marker..Internal$GT$$C$alloc..collections..btree..node..marker..Edge$GT$7descend17h3444bf71d2e41981E
Ltmp752:
	.loc	3 2057 17 is_stmt 0
	movq	-192(%rbp), %rax
	movq	%rax, -768(%rbp)
	movq	-184(%rbp), %rax
	movq	%rax, -760(%rbp)
	movq	-176(%rbp), %rax
	movq	%rax, -752(%rbp)
	.loc	3 2058 28 is_stmt 1
	movq	-224(%rbp), %rax
	movq	%rax, -112(%rbp)
	movq	-216(%rbp), %rax
	movq	%rax, -104(%rbp)
	movq	-208(%rbp), %rax
	movq	%rax, -96(%rbp)
	movq	-200(%rbp), %rax
	movq	%rax, -88(%rbp)
	leaq	-136(%rbp), %rdi
	leaq	-112(%rbp), %rsi
	callq	__ZN5alloc11collections5btree4node180Handle$LT$alloc..collections..btree..node..NodeRef$LT$BorrowType$C$K$C$V$C$alloc..collections..btree..node..marker..Internal$GT$$C$alloc..collections..btree..node..marker..Edge$GT$7descend17h3444bf71d2e41981E
Ltmp753:
	.loc	3 2058 17 is_stmt 0
	movq	-136(%rbp), %rax
	movq	%rax, -744(%rbp)
	movq	-128(%rbp), %rax
	movq	%rax, -736(%rbp)
	movq	-120(%rbp), %rax
	movq	%rax, -728(%rbp)
Ltmp754:
	.loc	3 2049 5 is_stmt 1
	jmp	LBB212_2
Ltmp755:
LBB212_14:
	.loc	3 0 5 is_stmt 0
	movq	-816(%rbp), %rax
Ltmp756:
	.loc	25 19 38 is_stmt 1
	movq	%rax, -32(%rbp)
	movq	-824(%rbp), %rcx
	movq	%rcx, -24(%rbp)
Ltmp757:
	.loc	25 19 38 is_stmt 0
	leaq	-32(%rbp), %rdx
	leaq	-80(%rbp), %rdi
	movq	-808(%rbp), %rsi
	movl	$1, %r8d
	movq	%rdx, -832(%rbp)
	movq	%r8, %rdx
	movq	-832(%rbp), %rcx
	callq	__ZN4core3fmt9Arguments6new_v117h2fb643a0fcc34f37E
Ltmp758:
	.loc	25 19 9
	leaq	l___unnamed_5(%rip), %rsi
	leaq	-80(%rbp), %rdi
	callq	__ZN4core9panicking9panic_fmt17hfce5b7173905fc53E
Ltmp759:
Lfunc_end212:
	.cfi_endproc

	.p2align	4, 0x90
__ZN5alloc11collections5btree4node104Handle$LT$alloc..collections..btree..node..NodeRef$LT$BorrowType$C$K$C$V$C$NodeType$GT$$C$HandleType$GT$8reborrow17h70baade12582d5cbE:
Lfunc_begin213:
	.file	32 "/rustc/6c8927b0cf80ceee19386026cf9d7fd4fd9d486f/src/liballoc/collections/btree/node.rs"
	.loc	32 781 0 is_stmt 1
	.cfi_startproc
	pushq	%rbp
	.cfi_def_cfa_offset 16
	.cfi_offset %rbp, -16
	movq	%rsp, %rbp
	.cfi_def_cfa_register %rbp
	subq	$64, %rsp
	movq	%rdi, %rax
	movq	%rsi, -8(%rbp)
Ltmp760:
	.loc	32 783 24 prologue_end
	movq	%rsi, %rcx
	leaq	-40(%rbp), %rdx
	movq	%rdi, -48(%rbp)
	movq	%rdx, %rdi
	movq	%rsi, -56(%rbp)
	movq	%rcx, %rsi
	movq	%rax, -64(%rbp)
	callq	__ZN5alloc11collections5btree4node40NodeRef$LT$BorrowType$C$K$C$V$C$Type$GT$8reborrow17h88de668e54d8a748E
	.loc	32 0 24 is_stmt 0
	movq	-56(%rbp), %rax
	.loc	32 783 51
	movq	24(%rax), %rcx
	.loc	32 783 9
	movq	-40(%rbp), %rdx
	movq	-48(%rbp), %rsi
	movq	%rdx, (%rsi)
	movq	-32(%rbp), %rdx
	movq	%rdx, 8(%rsi)
	movq	-24(%rbp), %rdx
	movq	%rdx, 16(%rsi)
	movq	%rcx, 24(%rsi)
	movq	-64(%rbp), %rax
	.loc	32 784 6 is_stmt 1
	addq	$64, %rsp
	popq	%rbp
	retq
Ltmp761:
Lfunc_end213:
	.cfi_endproc

	.p2align	4, 0x90
__ZN5alloc11collections5btree4node127NodeRef$LT$alloc..collections..btree..node..marker..Owned$C$K$C$V$C$alloc..collections..btree..node..marker..LeafOrInternal$GT$21deallocate_and_ascend17h542fd0d5ffecafabE:
Lfunc_begin214:
	.loc	32 395 0
	.cfi_startproc
	pushq	%rbp
	.cfi_def_cfa_offset 16
	.cfi_offset %rbp, -16
	movq	%rsp, %rbp
	.cfi_def_cfa_register %rbp
	subq	$144, %rsp
	movq	%rdi, %rax
Ltmp762:
	.loc	32 398 22 prologue_end
	movq	(%rsi), %rcx
	movq	%rcx, -16(%rbp)
Ltmp763:
	.loc	32 399 20
	movq	8(%rsi), %rdx
	movq	%rdx, -8(%rbp)
Ltmp764:
	.loc	32 400 19
	movq	(%rsi), %r8
	movq	%r8, -64(%rbp)
	movq	8(%rsi), %r8
	movq	%r8, -56(%rbp)
	movq	16(%rsi), %rsi
Ltmp765:
	movq	%rsi, -48(%rbp)
	leaq	-104(%rbp), %rsi
	movq	%rdi, -112(%rbp)
Ltmp766:
	movq	%rsi, %rdi
	leaq	-64(%rbp), %rsi
	movq	%rax, -120(%rbp)
	movq	%rcx, -128(%rbp)
	movq	%rdx, -136(%rbp)
	callq	__ZN5alloc11collections5btree4node40NodeRef$LT$BorrowType$C$K$C$V$C$Type$GT$6ascend17h45d0e1399b59f840E
Ltmp767:
	.loc	32 0 19 is_stmt 0
	movq	-112(%rbp), %rdi
	.loc	32 400 19
	leaq	-104(%rbp), %rsi
	callq	__ZN4core6result19Result$LT$T$C$E$GT$2ok17hcd3504db31abcd00E
	.loc	32 0 19
	movq	-136(%rbp), %rdi
Ltmp768:
	.loc	32 403 17 is_stmt 1
	callq	__ZN4core3ptr8non_null16NonNull$LT$T$GT$4cast17hf7a3f2940fdef445E
	movq	%rax, -144(%rbp)
	.loc	32 0 17 is_stmt 0
	movq	-128(%rbp), %rax
	.loc	32 404 20 is_stmt 1
	cmpq	$0, %rax
	.loc	32 404 17 is_stmt 0
	ja	LBB214_5
	.loc	32 407 21 is_stmt 1
	callq	__ZN4core5alloc6layout6Layout3new17hd30914bbb12f5d64E
	movq	%rdx, -24(%rbp)
	movq	%rax, -32(%rbp)
	jmp	LBB214_6
LBB214_5:
	.loc	32 405 21
	callq	__ZN4core5alloc6layout6Layout3new17h58b662fc7e012324E
	movq	%rdx, -24(%rbp)
	movq	%rax, -32(%rbp)
LBB214_6:
	.loc	32 402 13
	movq	-32(%rbp), %rdx
	movq	-24(%rbp), %rcx
	leaq	-40(%rbp), %rdi
	movq	-144(%rbp), %rsi
	callq	__ZN62_$LT$alloc..alloc..Global$u20$as$u20$core..alloc..AllocRef$GT$7dealloc17h28d4fc3f4e286a9eE
Ltmp769:
	.loc	32 0 13 is_stmt 0
	movq	-120(%rbp), %rax
	.loc	32 412 6 is_stmt 1
	addq	$144, %rsp
	popq	%rbp
	retq
Ltmp770:
Lfunc_end214:
	.cfi_endproc

	.p2align	4, 0x90
__ZN5alloc11collections5btree4node137Handle$LT$alloc..collections..btree..node..NodeRef$LT$BorrowType$C$K$C$V$C$NodeType$GT$$C$alloc..collections..btree..node..marker..KV$GT$10right_edge17h72620b9970bc0b2cE:
Lfunc_begin215:
	.loc	32 756 0
	.cfi_startproc
	pushq	%rbp
	.cfi_def_cfa_offset 16
	.cfi_offset %rbp, -16
	movq	%rsp, %rbp
	.cfi_def_cfa_register %rbp
	subq	$32, %rsp
	movq	%rdi, %rax
Ltmp771:
	.loc	32 757 35 prologue_end
	movq	(%rsi), %rcx
	movq	%rcx, -24(%rbp)
	movq	8(%rsi), %rcx
	movq	%rcx, -16(%rbp)
	movq	16(%rsi), %rcx
	movq	%rcx, -8(%rbp)
	.loc	32 757 46 is_stmt 0
	movq	24(%rsi), %rcx
	addq	$1, %rcx
	.loc	32 757 18
	leaq	-24(%rbp), %rsi
Ltmp772:
	movq	%rcx, %rdx
	movq	%rax, -32(%rbp)
	callq	__ZN5alloc11collections5btree4node139Handle$LT$alloc..collections..btree..node..NodeRef$LT$BorrowType$C$K$C$V$C$NodeType$GT$$C$alloc..collections..btree..node..marker..Edge$GT$8new_edge17hc4db6ea7f98f6c66E
	.loc	32 0 18
	movq	-32(%rbp), %rax
	.loc	32 758 6 is_stmt 1
	addq	$32, %rsp
	popq	%rbp
	retq
Ltmp773:
Lfunc_end215:
	.cfi_endproc

	.p2align	4, 0x90
__ZN5alloc11collections5btree4node137Handle$LT$alloc..collections..btree..node..NodeRef$LT$BorrowType$C$K$C$V$C$NodeType$GT$$C$alloc..collections..btree..node..marker..KV$GT$10right_edge17he2c50be0bc1b9f2eE:
Lfunc_begin216:
	.loc	32 756 0
	.cfi_startproc
	pushq	%rbp
	.cfi_def_cfa_offset 16
	.cfi_offset %rbp, -16
	movq	%rsp, %rbp
	.cfi_def_cfa_register %rbp
	subq	$32, %rsp
	movq	%rdi, %rax
Ltmp774:
	.loc	32 757 35 prologue_end
	movq	(%rsi), %rcx
	movq	%rcx, -24(%rbp)
	movq	8(%rsi), %rcx
	movq	%rcx, -16(%rbp)
	movq	16(%rsi), %rcx
	movq	%rcx, -8(%rbp)
	.loc	32 757 46 is_stmt 0
	movq	24(%rsi), %rcx
	addq	$1, %rcx
	.loc	32 757 18
	leaq	-24(%rbp), %rsi
Ltmp775:
	movq	%rcx, %rdx
	movq	%rax, -32(%rbp)
	callq	__ZN5alloc11collections5btree4node139Handle$LT$alloc..collections..btree..node..NodeRef$LT$BorrowType$C$K$C$V$C$NodeType$GT$$C$alloc..collections..btree..node..marker..Edge$GT$8new_edge17h17230ba4f7ddf23aE
	.loc	32 0 18
	movq	-32(%rbp), %rax
	.loc	32 758 6 is_stmt 1
	addq	$32, %rsp
	popq	%rbp
	retq
Ltmp776:
Lfunc_end216:
	.cfi_endproc

	.p2align	4, 0x90
__ZN5alloc11collections5btree4node137Handle$LT$alloc..collections..btree..node..NodeRef$LT$BorrowType$C$K$C$V$C$NodeType$GT$$C$alloc..collections..btree..node..marker..KV$GT$6new_kv17h4c0214239584e50bE:
Lfunc_begin217:
	.loc	32 746 0
	.cfi_startproc
	pushq	%rbp
	.cfi_def_cfa_offset 16
	.cfi_offset %rbp, -16
	movq	%rsp, %rbp
	.cfi_def_cfa_register %rbp
	subq	$32, %rsp
	movq	%rdi, %rax
Ltmp777:
	movq	%rdx, -8(%rbp)
Ltmp778:
	.loc	32 749 18 prologue_end
	movq	(%rsi), %rcx
	movq	%rcx, -32(%rbp)
	movq	8(%rsi), %rcx
	movq	%rcx, -24(%rbp)
	movq	16(%rsi), %rcx
	movq	%rcx, -16(%rbp)
	.loc	32 749 9 is_stmt 0
	movq	-32(%rbp), %rcx
	movq	%rcx, (%rdi)
	movq	-24(%rbp), %rcx
	movq	%rcx, 8(%rdi)
	movq	-16(%rbp), %rcx
	movq	%rcx, 16(%rdi)
	movq	%rdx, 24(%rdi)
	.loc	32 750 6 is_stmt 1
	addq	$32, %rsp
	popq	%rbp
	retq
Ltmp779:
Lfunc_end217:
	.cfi_endproc

	.p2align	4, 0x90
__ZN5alloc11collections5btree4node139Handle$LT$alloc..collections..btree..node..NodeRef$LT$BorrowType$C$K$C$V$C$NodeType$GT$$C$alloc..collections..btree..node..marker..Edge$GT$8new_edge17h17230ba4f7ddf23aE:
Lfunc_begin218:
	.loc	32 809 0
	.cfi_startproc
	pushq	%rbp
	.cfi_def_cfa_offset 16
	.cfi_offset %rbp, -16
	movq	%rsp, %rbp
	.cfi_def_cfa_register %rbp
	subq	$32, %rsp
	movq	%rdi, %rax
Ltmp780:
	movq	%rdx, -8(%rbp)
Ltmp781:
	.loc	32 812 18 prologue_end
	movq	(%rsi), %rcx
	movq	%rcx, -32(%rbp)
	movq	8(%rsi), %rcx
	movq	%rcx, -24(%rbp)
	movq	16(%rsi), %rcx
	movq	%rcx, -16(%rbp)
	.loc	32 812 9 is_stmt 0
	movq	-32(%rbp), %rcx
	movq	%rcx, (%rdi)
	movq	-24(%rbp), %rcx
	movq	%rcx, 8(%rdi)
	movq	-16(%rbp), %rcx
	movq	%rcx, 16(%rdi)
	movq	%rdx, 24(%rdi)
	.loc	32 813 6 is_stmt 1
	addq	$32, %rsp
	popq	%rbp
	retq
Ltmp782:
Lfunc_end218:
	.cfi_endproc

	.p2align	4, 0x90
__ZN5alloc11collections5btree4node139Handle$LT$alloc..collections..btree..node..NodeRef$LT$BorrowType$C$K$C$V$C$NodeType$GT$$C$alloc..collections..btree..node..marker..Edge$GT$8new_edge17h5b5e509ea3f080d1E:
Lfunc_begin219:
	.loc	32 809 0
	.cfi_startproc
	pushq	%rbp
	.cfi_def_cfa_offset 16
	.cfi_offset %rbp, -16
	movq	%rsp, %rbp
	.cfi_def_cfa_register %rbp
	subq	$32, %rsp
	movq	%rdi, %rax
Ltmp783:
	movq	%rdx, -8(%rbp)
Ltmp784:
	.loc	32 812 18 prologue_end
	movq	(%rsi), %rcx
	movq	%rcx, -32(%rbp)
	movq	8(%rsi), %rcx
	movq	%rcx, -24(%rbp)
	movq	16(%rsi), %rcx
	movq	%rcx, -16(%rbp)
	.loc	32 812 9 is_stmt 0
	movq	-32(%rbp), %rcx
	movq	%rcx, (%rdi)
	movq	-24(%rbp), %rcx
	movq	%rcx, 8(%rdi)
	movq	-16(%rbp), %rcx
	movq	%rcx, 16(%rdi)
	movq	%rdx, 24(%rdi)
	.loc	32 813 6 is_stmt 1
	addq	$32, %rsp
	popq	%rbp
	retq
Ltmp785:
Lfunc_end219:
	.cfi_endproc

	.p2align	4, 0x90
__ZN5alloc11collections5btree4node139Handle$LT$alloc..collections..btree..node..NodeRef$LT$BorrowType$C$K$C$V$C$NodeType$GT$$C$alloc..collections..btree..node..marker..Edge$GT$8new_edge17hc4db6ea7f98f6c66E:
Lfunc_begin220:
	.loc	32 809 0
	.cfi_startproc
	pushq	%rbp
	.cfi_def_cfa_offset 16
	.cfi_offset %rbp, -16
	movq	%rsp, %rbp
	.cfi_def_cfa_register %rbp
	subq	$32, %rsp
	movq	%rdi, %rax
Ltmp786:
	movq	%rdx, -8(%rbp)
Ltmp787:
	.loc	32 812 18 prologue_end
	movq	(%rsi), %rcx
	movq	%rcx, -32(%rbp)
	movq	8(%rsi), %rcx
	movq	%rcx, -24(%rbp)
	movq	16(%rsi), %rcx
	movq	%rcx, -16(%rbp)
	.loc	32 812 9 is_stmt 0
	movq	-32(%rbp), %rcx
	movq	%rcx, (%rdi)
	movq	-24(%rbp), %rcx
	movq	%rcx, 8(%rdi)
	movq	-16(%rbp), %rcx
	movq	%rcx, 16(%rdi)
	movq	%rdx, 24(%rdi)
	.loc	32 813 6 is_stmt 1
	addq	$32, %rsp
	popq	%rbp
	retq
Ltmp788:
Lfunc_end220:
	.cfi_endproc

	.p2align	4, 0x90
__ZN5alloc11collections5btree4node139Handle$LT$alloc..collections..btree..node..NodeRef$LT$BorrowType$C$K$C$V$C$NodeType$GT$$C$alloc..collections..btree..node..marker..Edge$GT$8right_kv17hb7b1dcd5ce4365a9E:
Lfunc_begin221:
	.loc	32 823 0
	.cfi_startproc
	pushq	%rbp
	.cfi_def_cfa_offset 16
	.cfi_offset %rbp, -16
	movq	%rsp, %rbp
	.cfi_def_cfa_register %rbp
	subq	$128, %rsp
	movq	%rdi, %rax
Ltmp789:
	.loc	32 824 12 prologue_end
	movq	24(%rsi), %rcx
	.loc	32 824 23 is_stmt 0
	movq	%rsi, %rdx
	movq	%rdi, -96(%rbp)
	movq	%rdx, %rdi
	movq	%rsi, -104(%rbp)
Ltmp790:
	.loc	32 0 23
	movq	%rax, -112(%rbp)
	movq	%rcx, -120(%rbp)
	.loc	32 824 23
	callq	__ZN5alloc11collections5btree4node40NodeRef$LT$BorrowType$C$K$C$V$C$Type$GT$3len17h32e48ea8bfdee2d7E
	movq	%rax, -128(%rbp)
Ltmp791:
	.loc	32 0 23
	movq	-120(%rbp), %rax
	movq	-128(%rbp), %rcx
	.loc	32 824 12
	cmpq	%rcx, %rax
	.loc	32 824 9
	jb	LBB221_3
Ltmp792:
	.loc	32 0 9
	movq	-104(%rbp), %rax
	.loc	32 827 17 is_stmt 1
	movq	(%rax), %rcx
	movq	%rcx, -32(%rbp)
	movq	8(%rax), %rcx
	movq	%rcx, -24(%rbp)
	movq	16(%rax), %rcx
	movq	%rcx, -16(%rbp)
	movq	24(%rax), %rcx
	movq	%rcx, -8(%rbp)
	.loc	32 827 13 is_stmt 0
	movq	-32(%rbp), %rcx
	movq	-96(%rbp), %rdx
	movq	%rcx, 8(%rdx)
	movq	-24(%rbp), %rcx
	movq	%rcx, 16(%rdx)
	movq	-16(%rbp), %rcx
	movq	%rcx, 24(%rdx)
	movq	-8(%rbp), %rcx
	movq	%rcx, 32(%rdx)
	movq	$1, (%rdx)
	.loc	32 824 9 is_stmt 1
	jmp	LBB221_5
Ltmp793:
LBB221_3:
	.loc	32 0 9 is_stmt 0
	movq	-104(%rbp), %rax
	.loc	32 825 40 is_stmt 1
	movq	(%rax), %rcx
	movq	%rcx, -56(%rbp)
	movq	8(%rax), %rcx
	movq	%rcx, -48(%rbp)
	movq	16(%rax), %rcx
	movq	%rcx, -40(%rbp)
	.loc	32 825 51 is_stmt 0
	movq	24(%rax), %rdx
	.loc	32 825 25
	leaq	-88(%rbp), %rdi
	leaq	-56(%rbp), %rsi
	callq	__ZN5alloc11collections5btree4node137Handle$LT$alloc..collections..btree..node..NodeRef$LT$BorrowType$C$K$C$V$C$NodeType$GT$$C$alloc..collections..btree..node..marker..KV$GT$6new_kv17h4c0214239584e50bE
Ltmp794:
	.loc	32 825 13
	movq	-88(%rbp), %rax
	movq	-96(%rbp), %rcx
	movq	%rax, 8(%rcx)
	movq	-80(%rbp), %rax
	movq	%rax, 16(%rcx)
	movq	-72(%rbp), %rax
	movq	%rax, 24(%rcx)
	movq	-64(%rbp), %rax
	movq	%rax, 32(%rcx)
	movq	$0, (%rcx)
Ltmp795:
LBB221_5:
	.loc	32 0 13
	movq	-112(%rbp), %rax
	.loc	32 829 6 is_stmt 1
	addq	$128, %rsp
	popq	%rbp
	retq
Ltmp796:
Lfunc_end221:
	.cfi_endproc

	.p2align	4, 0x90
__ZN5alloc11collections5btree4node151Handle$LT$alloc..collections..btree..node..NodeRef$LT$BorrowType$C$K$C$V$C$alloc..collections..btree..node..marker..LeafOrInternal$GT$$C$HandleType$GT$5force17hcd898a3368c7b334E:
Lfunc_begin222:
	.loc	32 1393 0
	.cfi_startproc
	pushq	%rbp
	.cfi_def_cfa_offset 16
	.cfi_offset %rbp, -16
	movq	%rsp, %rbp
	.cfi_def_cfa_register %rbp
	subq	$256, %rsp
	movq	%rdi, %rax
Ltmp797:
	.loc	32 1399 15 prologue_end
	movq	(%rsi), %rcx
	movq	%rcx, -200(%rbp)
	movq	8(%rsi), %rcx
	movq	%rcx, -192(%rbp)
	movq	16(%rsi), %rcx
	movq	%rcx, -184(%rbp)
	leaq	-232(%rbp), %rcx
	movq	%rdi, -240(%rbp)
	movq	%rcx, %rdi
	leaq	-200(%rbp), %rcx
	movq	%rsi, -248(%rbp)
Ltmp798:
	movq	%rcx, %rsi
	movq	%rax, -256(%rbp)
	callq	__ZN5alloc11collections5btree4node91NodeRef$LT$BorrowType$C$K$C$V$C$alloc..collections..btree..node..marker..LeafOrInternal$GT$5force17hea8b5aa60d0ec3e0E
Ltmp799:
	.loc	32 1400 13
	movq	-232(%rbp), %rax
	testq	%rax, %rax
	je	LBB222_4
	jmp	LBB222_6
Ltmp800:
LBB222_6:
	.loc	32 1403 35
	movq	-224(%rbp), %rax
	movq	%rax, -88(%rbp)
	movq	-216(%rbp), %rax
	movq	%rax, -80(%rbp)
	movq	-208(%rbp), %rax
	movq	%rax, -72(%rbp)
Ltmp801:
	.loc	32 1404 48
	movq	-88(%rbp), %rax
	movq	%rax, -32(%rbp)
	movq	-80(%rbp), %rax
	movq	%rax, -24(%rbp)
	movq	-72(%rbp), %rax
	movq	%rax, -16(%rbp)
	movq	-248(%rbp), %rax
	.loc	32 1404 59 is_stmt 0
	movq	24(%rax), %rcx
	.loc	32 1404 39
	movq	-32(%rbp), %rdx
	movq	%rdx, -64(%rbp)
	movq	-24(%rbp), %rdx
	movq	%rdx, -56(%rbp)
	movq	-16(%rbp), %rdx
	movq	%rdx, -48(%rbp)
	movq	%rcx, -40(%rbp)
	.loc	32 1404 17
	movq	-64(%rbp), %rcx
	movq	-240(%rbp), %rdx
	movq	%rcx, 8(%rdx)
	movq	-56(%rbp), %rcx
	movq	%rcx, 16(%rdx)
	movq	-48(%rbp), %rcx
	movq	%rcx, 24(%rdx)
	movq	-40(%rbp), %rcx
	movq	%rcx, 32(%rdx)
	movq	$1, (%rdx)
Ltmp802:
	.loc	32 1399 9 is_stmt 1
	jmp	LBB222_5
Ltmp803:
	.loc	32 1399 15 is_stmt 0
	ud2
LBB222_4:
Ltmp804:
	.loc	32 1400 31 is_stmt 1
	movq	-224(%rbp), %rax
	movq	%rax, -176(%rbp)
	movq	-216(%rbp), %rax
	movq	%rax, -168(%rbp)
	movq	-208(%rbp), %rax
	movq	%rax, -160(%rbp)
Ltmp805:
	.loc	32 1401 44
	movq	-176(%rbp), %rax
	movq	%rax, -120(%rbp)
	movq	-168(%rbp), %rax
	movq	%rax, -112(%rbp)
	movq	-160(%rbp), %rax
	movq	%rax, -104(%rbp)
	movq	-248(%rbp), %rax
	.loc	32 1401 55 is_stmt 0
	movq	24(%rax), %rcx
	.loc	32 1401 35
	movq	-120(%rbp), %rdx
	movq	%rdx, -152(%rbp)
	movq	-112(%rbp), %rdx
	movq	%rdx, -144(%rbp)
	movq	-104(%rbp), %rdx
	movq	%rdx, -136(%rbp)
	movq	%rcx, -128(%rbp)
	.loc	32 1401 17
	movq	-152(%rbp), %rcx
	movq	-240(%rbp), %rdx
	movq	%rcx, 8(%rdx)
	movq	-144(%rbp), %rcx
	movq	%rcx, 16(%rdx)
	movq	-136(%rbp), %rcx
	movq	%rcx, 24(%rdx)
	movq	-128(%rbp), %rcx
	movq	%rcx, 32(%rdx)
	movq	$0, (%rdx)
Ltmp806:
LBB222_5:
	.loc	32 0 17
	movq	-256(%rbp), %rax
	.loc	32 1407 6 is_stmt 1
	addq	$256, %rsp
	popq	%rbp
	retq
Ltmp807:
Lfunc_end222:
	.cfi_endproc

	.p2align	4, 0x90
__ZN5alloc11collections5btree4node151Handle$LT$alloc..collections..btree..node..NodeRef$LT$BorrowType$C$K$C$V$C$alloc..collections..btree..node..marker..LeafOrInternal$GT$$C$HandleType$GT$5force17hf25a405f29d3e60aE:
Lfunc_begin223:
	.loc	32 1393 0
	.cfi_startproc
	pushq	%rbp
	.cfi_def_cfa_offset 16
	.cfi_offset %rbp, -16
	movq	%rsp, %rbp
	.cfi_def_cfa_register %rbp
	subq	$256, %rsp
	movq	%rdi, %rax
Ltmp808:
	.loc	32 1399 15 prologue_end
	movq	(%rsi), %rcx
	movq	%rcx, -200(%rbp)
	movq	8(%rsi), %rcx
	movq	%rcx, -192(%rbp)
	movq	16(%rsi), %rcx
	movq	%rcx, -184(%rbp)
	leaq	-232(%rbp), %rcx
	movq	%rdi, -240(%rbp)
	movq	%rcx, %rdi
	leaq	-200(%rbp), %rcx
	movq	%rsi, -248(%rbp)
Ltmp809:
	movq	%rcx, %rsi
	movq	%rax, -256(%rbp)
	callq	__ZN5alloc11collections5btree4node91NodeRef$LT$BorrowType$C$K$C$V$C$alloc..collections..btree..node..marker..LeafOrInternal$GT$5force17hea8b5aa60d0ec3e0E
Ltmp810:
	.loc	32 1400 13
	movq	-232(%rbp), %rax
	testq	%rax, %rax
	je	LBB223_4
	jmp	LBB223_6
Ltmp811:
LBB223_6:
	.loc	32 1403 35
	movq	-224(%rbp), %rax
	movq	%rax, -88(%rbp)
	movq	-216(%rbp), %rax
	movq	%rax, -80(%rbp)
	movq	-208(%rbp), %rax
	movq	%rax, -72(%rbp)
Ltmp812:
	.loc	32 1404 48
	movq	-88(%rbp), %rax
	movq	%rax, -32(%rbp)
	movq	-80(%rbp), %rax
	movq	%rax, -24(%rbp)
	movq	-72(%rbp), %rax
	movq	%rax, -16(%rbp)
	movq	-248(%rbp), %rax
	.loc	32 1404 59 is_stmt 0
	movq	24(%rax), %rcx
	.loc	32 1404 39
	movq	-32(%rbp), %rdx
	movq	%rdx, -64(%rbp)
	movq	-24(%rbp), %rdx
	movq	%rdx, -56(%rbp)
	movq	-16(%rbp), %rdx
	movq	%rdx, -48(%rbp)
	movq	%rcx, -40(%rbp)
	.loc	32 1404 17
	movq	-64(%rbp), %rcx
	movq	-240(%rbp), %rdx
	movq	%rcx, 8(%rdx)
	movq	-56(%rbp), %rcx
	movq	%rcx, 16(%rdx)
	movq	-48(%rbp), %rcx
	movq	%rcx, 24(%rdx)
	movq	-40(%rbp), %rcx
	movq	%rcx, 32(%rdx)
	movq	$1, (%rdx)
Ltmp813:
	.loc	32 1399 9 is_stmt 1
	jmp	LBB223_5
Ltmp814:
	.loc	32 1399 15 is_stmt 0
	ud2
LBB223_4:
Ltmp815:
	.loc	32 1400 31 is_stmt 1
	movq	-224(%rbp), %rax
	movq	%rax, -176(%rbp)
	movq	-216(%rbp), %rax
	movq	%rax, -168(%rbp)
	movq	-208(%rbp), %rax
	movq	%rax, -160(%rbp)
Ltmp816:
	.loc	32 1401 44
	movq	-176(%rbp), %rax
	movq	%rax, -120(%rbp)
	movq	-168(%rbp), %rax
	movq	%rax, -112(%rbp)
	movq	-160(%rbp), %rax
	movq	%rax, -104(%rbp)
	movq	-248(%rbp), %rax
	.loc	32 1401 55 is_stmt 0
	movq	24(%rax), %rcx
	.loc	32 1401 35
	movq	-120(%rbp), %rdx
	movq	%rdx, -152(%rbp)
	movq	-112(%rbp), %rdx
	movq	%rdx, -144(%rbp)
	movq	-104(%rbp), %rdx
	movq	%rdx, -136(%rbp)
	movq	%rcx, -128(%rbp)
	.loc	32 1401 17
	movq	-152(%rbp), %rcx
	movq	-240(%rbp), %rdx
	movq	%rcx, 8(%rdx)
	movq	-144(%rbp), %rcx
	movq	%rcx, 16(%rdx)
	movq	-136(%rbp), %rcx
	movq	%rcx, 24(%rdx)
	movq	-128(%rbp), %rcx
	movq	%rcx, 32(%rdx)
	movq	$0, (%rdx)
Ltmp817:
LBB223_5:
	.loc	32 0 17
	movq	-256(%rbp), %rax
	.loc	32 1407 6 is_stmt 1
	addq	$256, %rsp
	popq	%rbp
	retq
Ltmp818:
Lfunc_end223:
	.cfi_endproc

	.p2align	4, 0x90
__ZN5alloc11collections5btree4node173Handle$LT$alloc..collections..btree..node..NodeRef$LT$alloc..collections..btree..node..marker..Immut$C$K$C$V$C$NodeType$GT$$C$alloc..collections..btree..node..marker..KV$GT$7into_kv17hacc37a7229cdfd54E:
Lfunc_begin224:
	.loc	32 982 0
	.cfi_startproc
	pushq	%rbp
	.cfi_def_cfa_offset 16
	.cfi_offset %rbp, -16
	movq	%rsp, %rbp
	.cfi_def_cfa_register %rbp
	subq	$144, %rsp
Ltmp819:
	.loc	32 984 32 prologue_end
	movq	(%rdi), %rax
	movq	%rax, -56(%rbp)
	movq	8(%rdi), %rax
	movq	%rax, -48(%rbp)
	movq	16(%rdi), %rax
	movq	%rax, -40(%rbp)
	leaq	-88(%rbp), %rax
	movq	%rdi, -112(%rbp)
Ltmp820:
	movq	%rax, %rdi
	leaq	-56(%rbp), %rsi
	callq	__ZN5alloc11collections5btree4node76NodeRef$LT$alloc..collections..btree..node..marker..Immut$C$K$C$V$C$Type$GT$11into_slices17hd657760a46a0f128E
Ltmp821:
	.loc	32 984 18 is_stmt 0
	movq	-88(%rbp), %rax
	movq	-80(%rbp), %rcx
	movq	%rax, -32(%rbp)
	movq	%rcx, -24(%rbp)
	.loc	32 984 24
	movq	-72(%rbp), %rdx
	movq	-64(%rbp), %rsi
	movq	%rdx, -16(%rbp)
	movq	%rsi, -8(%rbp)
	movq	-112(%rbp), %rdi
Ltmp822:
	.loc	32 985 33 is_stmt 1
	movq	24(%rdi), %r8
	.loc	32 985 14 is_stmt 0
	movq	%rax, %rdi
	movq	%rsi, -120(%rbp)
	movq	%rcx, %rsi
	movq	%rdx, -128(%rbp)
	movq	%r8, %rdx
	callq	__ZN4core5slice29_$LT$impl$u20$$u5b$T$u5d$$GT$13get_unchecked17hf5e25c9b295eb8e6E
	movq	%rax, -136(%rbp)
Ltmp823:
	.loc	32 0 14
	movq	-112(%rbp), %rax
	.loc	32 985 63
	movq	24(%rax), %rdx
	movq	-128(%rbp), %rdi
	movq	-120(%rbp), %rsi
	.loc	32 985 44
	callq	__ZN4core5slice29_$LT$impl$u20$$u5b$T$u5d$$GT$13get_unchecked17h252c63f4e8725d55E
	movq	%rax, -144(%rbp)
Ltmp824:
	.loc	32 0 44
	movq	-136(%rbp), %rax
	.loc	32 985 13
	movq	%rax, -104(%rbp)
	movq	-144(%rbp), %rcx
	movq	%rcx, -96(%rbp)
Ltmp825:
	.loc	32 987 6 is_stmt 1
	movq	-104(%rbp), %rax
	movq	-96(%rbp), %rdx
	addq	$144, %rsp
	popq	%rbp
	retq
Ltmp826:
Lfunc_end224:
	.cfi_endproc

	.p2align	4, 0x90
__ZN5alloc11collections5btree4node176Handle$LT$alloc..collections..btree..node..NodeRef$LT$BorrowType$C$K$C$V$C$alloc..collections..btree..node..marker..Leaf$GT$$C$alloc..collections..btree..node..marker..Edge$GT$16forget_node_type17h7268d4957681bb63E:
Lfunc_begin225:
	.loc	32 1366 0
	.cfi_startproc
	pushq	%rbp
	.cfi_def_cfa_offset 16
	.cfi_offset %rbp, -16
	movq	%rsp, %rbp
	.cfi_def_cfa_register %rbp
	subq	$80, %rsp
	movq	%rdi, %rax
Ltmp827:
	.loc	32 1369 35 prologue_end
	movq	(%rsi), %rcx
	movq	%rcx, -24(%rbp)
	movq	8(%rsi), %rcx
	movq	%rcx, -16(%rbp)
	movq	16(%rsi), %rcx
	movq	%rcx, -8(%rbp)
	leaq	-48(%rbp), %rcx
	movq	%rdi, -56(%rbp)
	movq	%rcx, %rdi
	leaq	-24(%rbp), %rcx
	movq	%rsi, -64(%rbp)
Ltmp828:
	movq	%rcx, %rsi
	movq	%rax, -72(%rbp)
	callq	__ZN5alloc11collections5btree4node40NodeRef$LT$BorrowType$C$K$C$V$C$Type$GT$11forget_type17hcf3b87e581bc8e85E
Ltmp829:
	.loc	32 0 35 is_stmt 0
	movq	-64(%rbp), %rax
	.loc	32 1369 60
	movq	24(%rax), %rdx
	movq	-56(%rbp), %rdi
	.loc	32 1369 18
	leaq	-48(%rbp), %rsi
	callq	__ZN5alloc11collections5btree4node139Handle$LT$alloc..collections..btree..node..NodeRef$LT$BorrowType$C$K$C$V$C$NodeType$GT$$C$alloc..collections..btree..node..marker..Edge$GT$8new_edge17h5b5e509ea3f080d1E
Ltmp830:
	.loc	32 0 18
	movq	-72(%rbp), %rax
	.loc	32 1370 6 is_stmt 1
	addq	$80, %rsp
	popq	%rbp
	retq
Ltmp831:
Lfunc_end225:
	.cfi_endproc

	.p2align	4, 0x90
__ZN5alloc11collections5btree4node17Root$LT$K$C$V$GT$8into_ref17hff28eaf80bd099ffE:
Lfunc_begin226:
	.loc	32 184 0
	.cfi_startproc
	pushq	%rbp
	.cfi_def_cfa_offset 16
	.cfi_offset %rbp, -16
	movq	%rsp, %rbp
	.cfi_def_cfa_register %rbp
	subq	$48, %rsp
	movq	%rdi, %rax
	movq	%rsi, -16(%rbp)
	movq	%rdx, -8(%rbp)
Ltmp832:
	.loc	32 186 21 prologue_end
	movq	-8(%rbp), %rcx
	.loc	32 187 19
	leaq	-16(%rbp), %rdx
Ltmp833:
	.loc	32 0 19 is_stmt 0
	movq	%rdi, -24(%rbp)
	.loc	32 187 19
	movq	%rdx, %rdi
	movq	%rax, -32(%rbp)
	movq	%rcx, -40(%rbp)
	callq	__ZN5alloc11collections5btree4node22BoxedNode$LT$K$C$V$GT$6as_ptr17hc35e2af745ab6d71E
Ltmp834:
	.loc	32 0 19
	movq	%rax, -48(%rbp)
	.loc	32 188 19 is_stmt 1
	jmp	LBB226_2
LBB226_2:
	.loc	32 0 19 is_stmt 0
	movq	-24(%rbp), %rax
	movq	-40(%rbp), %rcx
	.loc	32 185 9 is_stmt 1
	movq	%rcx, (%rax)
	movq	-48(%rbp), %rdx
	movq	%rdx, 8(%rax)
	movq	$0, 16(%rax)
	movq	-32(%rbp), %rax
	.loc	32 191 6
	addq	$48, %rsp
	popq	%rbp
	retq
Ltmp835:
Lfunc_end226:
	.cfi_endproc

	.p2align	4, 0x90
__ZN5alloc11collections5btree4node180Handle$LT$alloc..collections..btree..node..NodeRef$LT$BorrowType$C$K$C$V$C$alloc..collections..btree..node..marker..Internal$GT$$C$alloc..collections..btree..node..marker..Edge$GT$16forget_node_type17h8fed4ffac18cf46eE:
Lfunc_begin227:
	.loc	32 1374 0
	.cfi_startproc
	pushq	%rbp
	.cfi_def_cfa_offset 16
	.cfi_offset %rbp, -16
	movq	%rsp, %rbp
	.cfi_def_cfa_register %rbp
	subq	$80, %rsp
	movq	%rdi, %rax
Ltmp836:
	.loc	32 1377 35 prologue_end
	movq	(%rsi), %rcx
	movq	%rcx, -24(%rbp)
	movq	8(%rsi), %rcx
	movq	%rcx, -16(%rbp)
	movq	16(%rsi), %rcx
	movq	%rcx, -8(%rbp)
	leaq	-48(%rbp), %rcx
	movq	%rdi, -56(%rbp)
	movq	%rcx, %rdi
	leaq	-24(%rbp), %rcx
	movq	%rsi, -64(%rbp)
Ltmp837:
	movq	%rcx, %rsi
	movq	%rax, -72(%rbp)
	callq	__ZN5alloc11collections5btree4node40NodeRef$LT$BorrowType$C$K$C$V$C$Type$GT$11forget_type17hfa79aaa2baa50e99E
Ltmp838:
	.loc	32 0 35 is_stmt 0
	movq	-64(%rbp), %rax
	.loc	32 1377 60
	movq	24(%rax), %rdx
	movq	-56(%rbp), %rdi
	.loc	32 1377 18
	leaq	-48(%rbp), %rsi
	callq	__ZN5alloc11collections5btree4node139Handle$LT$alloc..collections..btree..node..NodeRef$LT$BorrowType$C$K$C$V$C$NodeType$GT$$C$alloc..collections..btree..node..marker..Edge$GT$8new_edge17h5b5e509ea3f080d1E
Ltmp839:
	.loc	32 0 18
	movq	-72(%rbp), %rax
	.loc	32 1378 6 is_stmt 1
	addq	$80, %rsp
	popq	%rbp
	retq
Ltmp840:
Lfunc_end227:
	.cfi_endproc

	.p2align	4, 0x90
__ZN5alloc11collections5btree4node180Handle$LT$alloc..collections..btree..node..NodeRef$LT$BorrowType$C$K$C$V$C$alloc..collections..btree..node..marker..Internal$GT$$C$alloc..collections..btree..node..marker..Edge$GT$7descend17h3444bf71d2e41981E:
Lfunc_begin228:
	.loc	32 969 0
	.cfi_startproc
	pushq	%rbp
	.cfi_def_cfa_offset 16
	.cfi_offset %rbp, -16
	movq	%rsp, %rbp
	.cfi_def_cfa_register %rbp
	subq	$96, %rsp
	movq	%rdi, %rax
Ltmp841:
	.loc	32 971 21 prologue_end
	movq	(%rsi), %rcx
	subq	$1, %rcx
	.loc	32 973 20
	movq	%rsi, %rdx
	movq	%rdi, -32(%rbp)
	movq	%rdx, %rdi
	movq	%rsi, -40(%rbp)
Ltmp842:
	.loc	32 0 20 is_stmt 0
	movq	%rax, -48(%rbp)
	movq	%rcx, -56(%rbp)
	.loc	32 973 20
	callq	__ZN5alloc11collections5btree4node85NodeRef$LT$BorrowType$C$K$C$V$C$alloc..collections..btree..node..marker..Internal$GT$11as_internal17ha63703b53801bc5eE
	movq	%rax, -64(%rbp)
Ltmp843:
	.loc	32 0 20
	movq	-64(%rbp), %rax
	.loc	32 973 20
	addq	$544, %rax
	movq	-40(%rbp), %rcx
	.loc	32 973 64
	movq	24(%rcx), %rdx
	.loc	32 973 20
	movq	%rax, %rdi
	movl	$12, %esi
	callq	__ZN4core5slice29_$LT$impl$u20$$u5b$T$u5d$$GT$13get_unchecked17h71771f940d77a073E
	movq	%rax, -72(%rbp)
Ltmp844:
	.loc	32 0 20
	movq	-72(%rbp), %rax
	movq	%rax, -16(%rbp)
	movq	%rax, -8(%rbp)
	movq	%rax, -80(%rbp)
Ltmp845:
	movq	-80(%rbp), %rdi
	.loc	32 973 17
	callq	__ZN5alloc11collections5btree4node22BoxedNode$LT$K$C$V$GT$6as_ptr17hc35e2af745ab6d71E
	movq	%rax, -88(%rbp)
Ltmp846:
	.loc	32 0 17
	movq	-40(%rbp), %rax
	.loc	32 975 19 is_stmt 1
	movq	16(%rax), %rcx
	movq	-32(%rbp), %rdx
	movq	-56(%rbp), %rsi
	.loc	32 970 9
	movq	%rsi, (%rdx)
	movq	-88(%rbp), %rdi
	movq	%rdi, 8(%rdx)
	movq	%rcx, 16(%rdx)
	movq	-48(%rbp), %rax
	.loc	32 978 6
	addq	$96, %rsp
	popq	%rbp
	retq
Ltmp847:
Lfunc_end228:
	.cfi_endproc

	.p2align	4, 0x90
__ZN5alloc11collections5btree4node22BoxedNode$LT$K$C$V$GT$6as_ptr17hc35e2af745ab6d71E:
Lfunc_begin229:
	.loc	32 138 0
	.cfi_startproc
	pushq	%rbp
	.cfi_def_cfa_offset 16
	.cfi_offset %rbp, -16
	movq	%rsp, %rbp
	.cfi_def_cfa_register %rbp
	subq	$16, %rsp
	movq	%rdi, -8(%rbp)
Ltmp848:
	.loc	32 139 23 prologue_end
	movq	(%rdi), %rdi
	.loc	32 139 9 is_stmt 0
	callq	__ZN119_$LT$core..ptr..non_null..NonNull$LT$T$GT$$u20$as$u20$core..convert..From$LT$core..ptr..unique..Unique$LT$T$GT$$GT$$GT$4from17hf586995d2ece5b15E
	movq	%rax, -16(%rbp)
	.loc	32 0 9
	movq	-16(%rbp), %rax
	.loc	32 140 6 is_stmt 1
	addq	$16, %rsp
	popq	%rbp
	retq
Ltmp849:
Lfunc_end229:
	.cfi_endproc

	.p2align	4, 0x90
__ZN5alloc11collections5btree4node25Handle$LT$Node$C$Type$GT$9into_node17h55ed8761db98fa9eE:
Lfunc_begin230:
	.loc	32 733 0
	.cfi_startproc
	pushq	%rbp
	.cfi_def_cfa_offset 16
	.cfi_offset %rbp, -16
	movq	%rsp, %rbp
	.cfi_def_cfa_register %rbp
	movq	%rdi, %rax
Ltmp850:
	.loc	32 734 9 prologue_end
	movq	(%rsi), %rcx
	movq	%rcx, (%rdi)
	movq	8(%rsi), %rcx
	movq	%rcx, 8(%rdi)
	movq	16(%rsi), %rcx
	movq	%rcx, 16(%rdi)
	.loc	32 735 6
	popq	%rbp
	retq
Ltmp851:
Lfunc_end230:
	.cfi_endproc

	.p2align	4, 0x90
__ZN5alloc11collections5btree4node25Handle$LT$Node$C$Type$GT$9into_node17h9ffb95eda31170eaE:
Lfunc_begin231:
	.loc	32 733 0
	.cfi_startproc
	pushq	%rbp
	.cfi_def_cfa_offset 16
	.cfi_offset %rbp, -16
	movq	%rsp, %rbp
	.cfi_def_cfa_register %rbp
	movq	%rdi, %rax
Ltmp852:
	.loc	32 734 9 prologue_end
	movq	(%rsi), %rcx
	movq	%rcx, (%rdi)
	movq	8(%rsi), %rcx
	movq	%rcx, 8(%rdi)
	movq	16(%rsi), %rcx
	movq	%rcx, 16(%rdi)
	.loc	32 735 6
	popq	%rbp
	retq
Ltmp853:
Lfunc_end231:
	.cfi_endproc

	.p2align	4, 0x90
__ZN5alloc11collections5btree4node25Handle$LT$Node$C$Type$GT$9into_node17hf81f84ea3d09825dE:
Lfunc_begin232:
	.loc	32 733 0
	.cfi_startproc
	pushq	%rbp
	.cfi_def_cfa_offset 16
	.cfi_offset %rbp, -16
	movq	%rsp, %rbp
	.cfi_def_cfa_register %rbp
	movq	%rdi, %rax
Ltmp854:
	.loc	32 734 9 prologue_end
	movq	(%rsi), %rcx
	movq	%rcx, (%rdi)
	movq	8(%rsi), %rcx
	movq	%rcx, 8(%rdi)
	movq	16(%rsi), %rcx
	movq	%rcx, 16(%rdi)
	.loc	32 735 6
	popq	%rbp
	retq
Ltmp855:
Lfunc_end232:
	.cfi_endproc

	.p2align	4, 0x90
__ZN5alloc11collections5btree4node40NodeRef$LT$BorrowType$C$K$C$V$C$Type$GT$10first_edge17ha1f4d7f1fd8eda77E:
Lfunc_begin233:
	.loc	32 367 0
	.cfi_startproc
	pushq	%rbp
	.cfi_def_cfa_offset 16
	.cfi_offset %rbp, -16
	movq	%rsp, %rbp
	.cfi_def_cfa_register %rbp
	subq	$32, %rsp
	movq	%rdi, %rax
	xorl	%ecx, %ecx
	movl	%ecx, %edx
Ltmp856:
	.loc	32 368 35 prologue_end
	movq	(%rsi), %r8
	movq	%r8, -24(%rbp)
	movq	8(%rsi), %r8
	movq	%r8, -16(%rbp)
	movq	16(%rsi), %rsi
Ltmp857:
	movq	%rsi, -8(%rbp)
	.loc	32 368 18 is_stmt 0
	leaq	-24(%rbp), %rsi
	movq	%rax, -32(%rbp)
	callq	__ZN5alloc11collections5btree4node139Handle$LT$alloc..collections..btree..node..NodeRef$LT$BorrowType$C$K$C$V$C$NodeType$GT$$C$alloc..collections..btree..node..marker..Edge$GT$8new_edge17hc4db6ea7f98f6c66E
	.loc	32 0 18
	movq	-32(%rbp), %rax
	.loc	32 369 6 is_stmt 1
	addq	$32, %rsp
	popq	%rbp
	retq
Ltmp858:
Lfunc_end233:
	.cfi_endproc

	.p2align	4, 0x90
__ZN5alloc11collections5btree4node40NodeRef$LT$BorrowType$C$K$C$V$C$Type$GT$10first_edge17habf38c30fdfc59eaE:
Lfunc_begin234:
	.loc	32 367 0
	.cfi_startproc
	pushq	%rbp
	.cfi_def_cfa_offset 16
	.cfi_offset %rbp, -16
	movq	%rsp, %rbp
	.cfi_def_cfa_register %rbp
	subq	$32, %rsp
	movq	%rdi, %rax
	xorl	%ecx, %ecx
	movl	%ecx, %edx
Ltmp859:
	.loc	32 368 35 prologue_end
	movq	(%rsi), %r8
	movq	%r8, -24(%rbp)
	movq	8(%rsi), %r8
	movq	%r8, -16(%rbp)
	movq	16(%rsi), %rsi
Ltmp860:
	movq	%rsi, -8(%rbp)
	.loc	32 368 18 is_stmt 0
	leaq	-24(%rbp), %rsi
	movq	%rax, -32(%rbp)
	callq	__ZN5alloc11collections5btree4node139Handle$LT$alloc..collections..btree..node..NodeRef$LT$BorrowType$C$K$C$V$C$NodeType$GT$$C$alloc..collections..btree..node..marker..Edge$GT$8new_edge17h5b5e509ea3f080d1E
	.loc	32 0 18
	movq	-32(%rbp), %rax
	.loc	32 369 6 is_stmt 1
	addq	$32, %rsp
	popq	%rbp
	retq
Ltmp861:
Lfunc_end234:
	.cfi_endproc

	.p2align	4, 0x90
__ZN5alloc11collections5btree4node40NodeRef$LT$BorrowType$C$K$C$V$C$Type$GT$10first_edge17hcdb9685e070be2f1E:
Lfunc_begin235:
	.loc	32 367 0
	.cfi_startproc
	pushq	%rbp
	.cfi_def_cfa_offset 16
	.cfi_offset %rbp, -16
	movq	%rsp, %rbp
	.cfi_def_cfa_register %rbp
	subq	$32, %rsp
	movq	%rdi, %rax
	xorl	%ecx, %ecx
	movl	%ecx, %edx
Ltmp862:
	.loc	32 368 35 prologue_end
	movq	(%rsi), %r8
	movq	%r8, -24(%rbp)
	movq	8(%rsi), %r8
	movq	%r8, -16(%rbp)
	movq	16(%rsi), %rsi
Ltmp863:
	movq	%rsi, -8(%rbp)
	.loc	32 368 18 is_stmt 0
	leaq	-24(%rbp), %rsi
	movq	%rax, -32(%rbp)
	callq	__ZN5alloc11collections5btree4node139Handle$LT$alloc..collections..btree..node..NodeRef$LT$BorrowType$C$K$C$V$C$NodeType$GT$$C$alloc..collections..btree..node..marker..Edge$GT$8new_edge17h17230ba4f7ddf23aE
	.loc	32 0 18
	movq	-32(%rbp), %rax
	.loc	32 369 6 is_stmt 1
	addq	$32, %rsp
	popq	%rbp
	retq
Ltmp864:
Lfunc_end235:
	.cfi_endproc

	.p2align	4, 0x90
__ZN5alloc11collections5btree4node40NodeRef$LT$BorrowType$C$K$C$V$C$Type$GT$11forget_type17hcf3b87e581bc8e85E:
Lfunc_begin236:
	.loc	32 310 0
	.cfi_startproc
	pushq	%rbp
	.cfi_def_cfa_offset 16
	.cfi_offset %rbp, -16
	movq	%rsp, %rbp
	.cfi_def_cfa_register %rbp
	pushq	%rax
	movq	%rdi, %rax
Ltmp865:
	.loc	32 311 27 prologue_end
	movq	(%rsi), %rcx
	.loc	32 311 46 is_stmt 0
	movq	8(%rsi), %rdx
	.loc	32 311 63
	movq	16(%rsi), %rsi
Ltmp866:
	.loc	32 311 9
	movq	%rcx, (%rdi)
	movq	%rdx, 8(%rdi)
	movq	%rsi, 16(%rdi)
	.loc	32 312 6 is_stmt 1
	addq	$8, %rsp
	popq	%rbp
	retq
Ltmp867:
Lfunc_end236:
	.cfi_endproc

	.p2align	4, 0x90
__ZN5alloc11collections5btree4node40NodeRef$LT$BorrowType$C$K$C$V$C$Type$GT$11forget_type17hfa79aaa2baa50e99E:
Lfunc_begin237:
	.loc	32 310 0
	.cfi_startproc
	pushq	%rbp
	.cfi_def_cfa_offset 16
	.cfi_offset %rbp, -16
	movq	%rsp, %rbp
	.cfi_def_cfa_register %rbp
	pushq	%rax
	movq	%rdi, %rax
Ltmp868:
	.loc	32 311 27 prologue_end
	movq	(%rsi), %rcx
	.loc	32 311 46 is_stmt 0
	movq	8(%rsi), %rdx
	.loc	32 311 63
	movq	16(%rsi), %rsi
Ltmp869:
	.loc	32 311 9
	movq	%rcx, (%rdi)
	movq	%rdx, 8(%rdi)
	movq	%rsi, 16(%rdi)
	.loc	32 312 6 is_stmt 1
	addq	$8, %rsp
	popq	%rbp
	retq
Ltmp870:
Lfunc_end237:
	.cfi_endproc

	.p2align	4, 0x90
__ZN5alloc11collections5btree4node40NodeRef$LT$BorrowType$C$K$C$V$C$Type$GT$3len17h32e48ea8bfdee2d7E:
Lfunc_begin238:
	.loc	32 298 0
	.cfi_startproc
	pushq	%rbp
	.cfi_def_cfa_offset 16
	.cfi_offset %rbp, -16
	movq	%rsp, %rbp
	.cfi_def_cfa_register %rbp
	subq	$16, %rsp
	movq	%rdi, -8(%rbp)
Ltmp871:
	.loc	32 299 9 prologue_end
	callq	__ZN5alloc11collections5btree4node40NodeRef$LT$BorrowType$C$K$C$V$C$Type$GT$7as_leaf17hbc1b99eb4d92bed8E
	movq	%rax, -16(%rbp)
	.loc	32 0 9 is_stmt 0
	movq	-16(%rbp), %rax
	.loc	32 299 9
	movzwl	10(%rax), %ecx
	movl	%ecx, %eax
	.loc	32 300 6 is_stmt 1
	addq	$16, %rsp
	popq	%rbp
	retq
Ltmp872:
Lfunc_end238:
	.cfi_endproc

	.p2align	4, 0x90
__ZN5alloc11collections5btree4node40NodeRef$LT$BorrowType$C$K$C$V$C$Type$GT$3len17h3e457788bb66b14dE:
Lfunc_begin239:
	.loc	32 298 0
	.cfi_startproc
	pushq	%rbp
	.cfi_def_cfa_offset 16
	.cfi_offset %rbp, -16
	movq	%rsp, %rbp
	.cfi_def_cfa_register %rbp
	subq	$16, %rsp
	movq	%rdi, -8(%rbp)
Ltmp873:
	.loc	32 299 9 prologue_end
	callq	__ZN5alloc11collections5btree4node40NodeRef$LT$BorrowType$C$K$C$V$C$Type$GT$7as_leaf17h76dd6a0bdc81c437E
	movq	%rax, -16(%rbp)
	.loc	32 0 9 is_stmt 0
	movq	-16(%rbp), %rax
	.loc	32 299 9
	movzwl	10(%rax), %ecx
	movl	%ecx, %eax
	.loc	32 300 6 is_stmt 1
	addq	$16, %rsp
	popq	%rbp
	retq
Ltmp874:
Lfunc_end239:
	.cfi_endproc

	.p2align	4, 0x90
__ZN5alloc11collections5btree4node40NodeRef$LT$BorrowType$C$K$C$V$C$Type$GT$6ascend17h45d0e1399b59f840E:
Lfunc_begin240:
	.loc	32 347 0
	.cfi_startproc
	pushq	%rbp
	.cfi_def_cfa_offset 16
	.cfi_offset %rbp, -16
	movq	%rsp, %rbp
	.cfi_def_cfa_register %rbp
	subq	$192, %rsp
	movq	%rdi, %rax
Ltmp875:
	movq	%rdi, -136(%rbp)
Ltmp876:
	.loc	32 350 30 prologue_end
	movq	%rsi, %rdi
	movq	%rsi, -144(%rbp)
Ltmp877:
	.loc	32 0 30 is_stmt 0
	movq	%rax, -152(%rbp)
	.loc	32 350 30
	callq	__ZN5alloc11collections5btree4node40NodeRef$LT$BorrowType$C$K$C$V$C$Type$GT$7as_leaf17hbc1b99eb4d92bed8E
	movq	%rax, -160(%rbp)
Ltmp878:
	.loc	32 0 30
	movq	-160(%rbp), %rax
	.loc	32 350 30
	movq	(%rax), %rcx
	movq	%rcx, -32(%rbp)
Ltmp879:
	.loc	32 351 33 is_stmt 1
	movq	%rcx, %rdi
	callq	__ZN4core3ptr8non_null16NonNull$LT$T$GT$3new17h0e626bb4ba605955E
	movq	%rax, -128(%rbp)
Ltmp880:
	.loc	32 0 33 is_stmt 0
	xorl	%eax, %eax
	movl	%eax, %ecx
	.loc	32 351 16
	cmpq	$0, -128(%rbp)
	movl	$1, %edx
	cmovbeq	%rcx, %rdx
	cmpq	$1, %rdx
	je	LBB240_4
Ltmp881:
	.loc	32 0 16
	movq	-144(%rbp), %rax
	.loc	32 363 17 is_stmt 1
	movq	(%rax), %rcx
	movq	%rcx, -56(%rbp)
	movq	8(%rax), %rcx
	movq	%rcx, -48(%rbp)
	movq	16(%rax), %rcx
	movq	%rcx, -40(%rbp)
	.loc	32 363 13 is_stmt 0
	movq	-56(%rbp), %rcx
	movq	-136(%rbp), %rdx
	movq	%rcx, 8(%rdx)
	movq	-48(%rbp), %rcx
	movq	%rcx, 16(%rdx)
	movq	-40(%rbp), %rcx
	movq	%rcx, 24(%rdx)
	movq	$1, (%rdx)
	.loc	32 351 9 is_stmt 1
	jmp	LBB240_8
Ltmp882:
LBB240_4:
	.loc	32 351 21 is_stmt 0
	movq	-128(%rbp), %rax
	movq	%rax, -24(%rbp)
	movq	-144(%rbp), %rcx
Ltmp883:
	.loc	32 354 29 is_stmt 1
	movq	(%rcx), %rdx
	addq	$1, %rdx
	.loc	32 356 27
	movq	16(%rcx), %rsi
	.loc	32 353 23
	movq	%rdx, -88(%rbp)
	movq	%rax, -80(%rbp)
	movq	%rsi, -72(%rbp)
	.loc	32 359 44
	movq	%rcx, %rdi
	callq	__ZN5alloc11collections5btree4node40NodeRef$LT$BorrowType$C$K$C$V$C$Type$GT$7as_leaf17hbc1b99eb4d92bed8E
	movq	%rax, -168(%rbp)
Ltmp884:
	.loc	32 0 44 is_stmt 0
	movq	-168(%rbp), %rax
	.loc	32 359 44
	addq	$8, %rax
	movq	%rax, -16(%rbp)
	movq	%rax, -8(%rbp)
	movq	%rax, -176(%rbp)
Ltmp885:
	.loc	32 0 44
	movq	-176(%rbp), %rax
	.loc	32 359 31
	movzwl	(%rax), %edi
	callq	__ZN4core7convert3num66_$LT$impl$u20$core..convert..From$LT$u16$GT$$u20$for$u20$usize$GT$4from17hd82f9204ff831e31E
	movq	%rax, -184(%rbp)
Ltmp886:
	.loc	32 352 16 is_stmt 1
	movq	-88(%rbp), %rax
	movq	%rax, -120(%rbp)
	movq	-80(%rbp), %rax
	movq	%rax, -112(%rbp)
	movq	-72(%rbp), %rax
	movq	%rax, -104(%rbp)
	movq	-184(%rbp), %rax
	movq	%rax, -96(%rbp)
	.loc	32 352 13 is_stmt 0
	movq	-120(%rbp), %rcx
	movq	-136(%rbp), %rdx
	movq	%rcx, 8(%rdx)
	movq	-112(%rbp), %rcx
	movq	%rcx, 16(%rdx)
	movq	-104(%rbp), %rcx
	movq	%rcx, 24(%rdx)
	movq	-96(%rbp), %rcx
	movq	%rcx, 32(%rdx)
	movq	$0, (%rdx)
Ltmp887:
LBB240_8:
	.loc	32 0 13
	movq	-152(%rbp), %rax
	.loc	32 365 6 is_stmt 1
	addq	$192, %rsp
	popq	%rbp
	retq
Ltmp888:
Lfunc_end240:
	.cfi_endproc

	.p2align	4, 0x90
__ZN5alloc11collections5btree4node40NodeRef$LT$BorrowType$C$K$C$V$C$Type$GT$7as_leaf17h76dd6a0bdc81c437E:
Lfunc_begin241:
	.loc	32 323 0
	.cfi_startproc
	pushq	%rbp
	.cfi_def_cfa_offset 16
	.cfi_offset %rbp, -16
	movq	%rsp, %rbp
	.cfi_def_cfa_register %rbp
	subq	$16, %rsp
	movq	%rdi, -8(%rbp)
Ltmp889:
	.loc	32 327 18 prologue_end
	addq	$8, %rdi
	callq	__ZN4core3ptr8non_null16NonNull$LT$T$GT$6as_ref17h92a4274cdbd45c05E
	movq	%rax, -16(%rbp)
	.loc	32 0 18 is_stmt 0
	movq	-16(%rbp), %rax
	.loc	32 328 6 is_stmt 1
	addq	$16, %rsp
	popq	%rbp
	retq
Ltmp890:
Lfunc_end241:
	.cfi_endproc

	.p2align	4, 0x90
__ZN5alloc11collections5btree4node40NodeRef$LT$BorrowType$C$K$C$V$C$Type$GT$7as_leaf17hbc1b99eb4d92bed8E:
Lfunc_begin242:
	.loc	32 323 0
	.cfi_startproc
	pushq	%rbp
	.cfi_def_cfa_offset 16
	.cfi_offset %rbp, -16
	movq	%rsp, %rbp
	.cfi_def_cfa_register %rbp
	subq	$16, %rsp
	movq	%rdi, -8(%rbp)
Ltmp891:
	.loc	32 327 18 prologue_end
	addq	$8, %rdi
	callq	__ZN4core3ptr8non_null16NonNull$LT$T$GT$6as_ref17h92a4274cdbd45c05E
	movq	%rax, -16(%rbp)
	.loc	32 0 18 is_stmt 0
	movq	-16(%rbp), %rax
	.loc	32 328 6 is_stmt 1
	addq	$16, %rsp
	popq	%rbp
	retq
Ltmp892:
Lfunc_end242:
	.cfi_endproc

	.p2align	4, 0x90
__ZN5alloc11collections5btree4node40NodeRef$LT$BorrowType$C$K$C$V$C$Type$GT$8reborrow17h88de668e54d8a748E:
Lfunc_begin243:
	.loc	32 315 0
	.cfi_startproc
	pushq	%rbp
	.cfi_def_cfa_offset 16
	.cfi_offset %rbp, -16
	movq	%rsp, %rbp
	.cfi_def_cfa_register %rbp
	subq	$16, %rsp
	movq	%rdi, %rax
	movq	%rsi, -8(%rbp)
Ltmp893:
	.loc	32 316 27 prologue_end
	movq	(%rsi), %rcx
	.loc	32 316 46 is_stmt 0
	movq	8(%rsi), %rdx
	.loc	32 316 63
	movq	16(%rsi), %rsi
	.loc	32 316 9
	movq	%rcx, (%rdi)
	movq	%rdx, 8(%rdi)
	movq	%rsi, 16(%rdi)
	.loc	32 317 6 is_stmt 1
	addq	$16, %rsp
	popq	%rbp
	retq
Ltmp894:
Lfunc_end243:
	.cfi_endproc

	.p2align	4, 0x90
__ZN5alloc11collections5btree4node40NodeRef$LT$BorrowType$C$K$C$V$C$Type$GT$9last_edge17hdc5415dccb5a961fE:
Lfunc_begin244:
	.loc	32 371 0
	.cfi_startproc
	pushq	%rbp
	.cfi_def_cfa_offset 16
	.cfi_offset %rbp, -16
	movq	%rsp, %rbp
	.cfi_def_cfa_register %rbp
	subq	$64, %rsp
	movq	%rdi, %rax
Ltmp895:
	movq	%rdi, -40(%rbp)
Ltmp896:
	.loc	32 372 19 prologue_end
	movq	%rsi, %rdi
	movq	%rsi, -48(%rbp)
Ltmp897:
	.loc	32 0 19 is_stmt 0
	movq	%rax, -56(%rbp)
	.loc	32 372 19
	callq	__ZN5alloc11collections5btree4node40NodeRef$LT$BorrowType$C$K$C$V$C$Type$GT$3len17h32e48ea8bfdee2d7E
	movq	%rax, -8(%rbp)
	movq	%rax, -64(%rbp)
Ltmp898:
	.loc	32 0 19
	movq	-48(%rbp), %rax
Ltmp899:
	.loc	32 373 35 is_stmt 1
	movq	(%rax), %rcx
	movq	%rcx, -32(%rbp)
	movq	8(%rax), %rcx
	movq	%rcx, -24(%rbp)
	movq	16(%rax), %rcx
	movq	%rcx, -16(%rbp)
	movq	-40(%rbp), %rdi
	.loc	32 373 18 is_stmt 0
	leaq	-32(%rbp), %rsi
	movq	-64(%rbp), %rdx
	callq	__ZN5alloc11collections5btree4node139Handle$LT$alloc..collections..btree..node..NodeRef$LT$BorrowType$C$K$C$V$C$NodeType$GT$$C$alloc..collections..btree..node..marker..Edge$GT$8new_edge17h5b5e509ea3f080d1E
Ltmp900:
	.loc	32 0 18
	movq	-56(%rbp), %rax
	.loc	32 374 6 is_stmt 1
	addq	$64, %rsp
	popq	%rbp
	retq
Ltmp901:
Lfunc_end244:
	.cfi_endproc

	.p2align	4, 0x90
__ZN5alloc11collections5btree4node76NodeRef$LT$alloc..collections..btree..node..marker..Immut$C$K$C$V$C$Type$GT$11into_slices17hd657760a46a0f128E:
Lfunc_begin245:
	.loc	32 470 0
	.cfi_startproc
	pushq	%rbp
	.cfi_def_cfa_offset 16
	.cfi_offset %rbp, -16
	movq	%rsp, %rbp
	.cfi_def_cfa_register %rbp
	subq	$128, %rsp
	movq	%rdi, %rax
Ltmp902:
	.loc	32 472 26 prologue_end
	leaq	-72(%rbp), %rcx
Ltmp903:
	.loc	32 0 26 is_stmt 0
	movq	%rdi, -80(%rbp)
	.loc	32 472 26
	movq	%rcx, %rdi
	movq	%rsi, -88(%rbp)
Ltmp904:
	.loc	32 0 26
	movq	%rax, -96(%rbp)
	.loc	32 472 26
	callq	__ZN4core3ptr4read17h56ffa520308f8137E
Ltmp905:
	.loc	32 473 10 is_stmt 1
	movq	-72(%rbp), %rax
	movq	%rax, -48(%rbp)
	movq	-64(%rbp), %rax
	movq	%rax, -40(%rbp)
	movq	-56(%rbp), %rax
	movq	%rax, -32(%rbp)
	leaq	-48(%rbp), %rdi
	callq	__ZN5alloc11collections5btree4node76NodeRef$LT$alloc..collections..btree..node..marker..Immut$C$K$C$V$C$Type$GT$14into_key_slice17h93489f133b74b25aE
	movq	%rax, -104(%rbp)
	movq	%rdx, -112(%rbp)
Ltmp906:
	.loc	32 0 10 is_stmt 0
	movq	-88(%rbp), %rax
	.loc	32 473 30
	movq	(%rax), %rcx
	movq	%rcx, -24(%rbp)
	movq	8(%rax), %rcx
	movq	%rcx, -16(%rbp)
	movq	16(%rax), %rcx
	movq	%rcx, -8(%rbp)
	leaq	-24(%rbp), %rdi
	callq	__ZN5alloc11collections5btree4node76NodeRef$LT$alloc..collections..btree..node..marker..Immut$C$K$C$V$C$Type$GT$14into_val_slice17h2571b7ee1a476914E
	movq	%rax, -120(%rbp)
	movq	%rdx, -128(%rbp)
Ltmp907:
	.loc	32 0 30
	movq	-80(%rbp), %rax
	movq	-104(%rbp), %rcx
	.loc	32 473 9
	movq	%rcx, (%rax)
	movq	-112(%rbp), %rdx
	movq	%rdx, 8(%rax)
	movq	-120(%rbp), %rsi
	movq	%rsi, 16(%rax)
	movq	-128(%rbp), %rdi
	movq	%rdi, 24(%rax)
	movq	-96(%rbp), %rax
Ltmp908:
	.loc	32 474 6 is_stmt 1
	addq	$128, %rsp
	popq	%rbp
	retq
Ltmp909:
Lfunc_end245:
	.cfi_endproc

	.p2align	4, 0x90
__ZN5alloc11collections5btree4node76NodeRef$LT$alloc..collections..btree..node..marker..Immut$C$K$C$V$C$Type$GT$14into_key_slice17h93489f133b74b25aE:
Lfunc_begin246:
	.loc	32 462 0
	.cfi_startproc
	pushq	%rbp
	.cfi_def_cfa_offset 16
	.cfi_offset %rbp, -16
	movq	%rsp, %rbp
	.cfi_def_cfa_register %rbp
	subq	$64, %rsp
	movq	%rdi, -24(%rbp)
Ltmp910:
	.loc	32 463 64 prologue_end
	callq	__ZN5alloc11collections5btree4node40NodeRef$LT$BorrowType$C$K$C$V$C$Type$GT$7as_leaf17h76dd6a0bdc81c437E
	movq	%rax, -32(%rbp)
Ltmp911:
	.loc	32 0 64 is_stmt 0
	movq	-32(%rbp), %rax
	.loc	32 463 63
	addq	$16, %rax
	movq	%rax, -16(%rbp)
	movq	$11, -8(%rbp)
	movq	%rax, -40(%rbp)
Ltmp912:
	.loc	32 0 63
	movq	-24(%rbp), %rdi
	.loc	32 463 86
	callq	__ZN5alloc11collections5btree4node40NodeRef$LT$BorrowType$C$K$C$V$C$Type$GT$3len17h3e457788bb66b14dE
	movq	%rax, -48(%rbp)
Ltmp913:
	.loc	32 0 86
	movq	-40(%rbp), %rdi
	movq	-48(%rbp), %rsi
	.loc	32 463 18
	callq	__ZN4core5slice14from_raw_parts17hf1f0e1f0f8551d98E
	movq	%rax, -56(%rbp)
	movq	%rdx, -64(%rbp)
Ltmp914:
	.loc	32 0 18
	movq	-56(%rbp), %rax
	movq	-64(%rbp), %rdx
	.loc	32 464 6 is_stmt 1
	addq	$64, %rsp
	popq	%rbp
	retq
Ltmp915:
Lfunc_end246:
	.cfi_endproc

	.p2align	4, 0x90
__ZN5alloc11collections5btree4node76NodeRef$LT$alloc..collections..btree..node..marker..Immut$C$K$C$V$C$Type$GT$14into_val_slice17h2571b7ee1a476914E:
Lfunc_begin247:
	.loc	32 466 0
	.cfi_startproc
	pushq	%rbp
	.cfi_def_cfa_offset 16
	.cfi_offset %rbp, -16
	movq	%rsp, %rbp
	.cfi_def_cfa_register %rbp
	subq	$64, %rsp
	movq	%rdi, -24(%rbp)
Ltmp916:
	.loc	32 467 64 prologue_end
	callq	__ZN5alloc11collections5btree4node40NodeRef$LT$BorrowType$C$K$C$V$C$Type$GT$7as_leaf17h76dd6a0bdc81c437E
	movq	%rax, -32(%rbp)
Ltmp917:
	.loc	32 0 64 is_stmt 0
	movq	-32(%rbp), %rax
	.loc	32 467 63
	addq	$280, %rax
	movq	%rax, -16(%rbp)
	movq	$11, -8(%rbp)
	movq	%rax, -40(%rbp)
Ltmp918:
	.loc	32 0 63
	movq	-24(%rbp), %rdi
	.loc	32 467 86
	callq	__ZN5alloc11collections5btree4node40NodeRef$LT$BorrowType$C$K$C$V$C$Type$GT$3len17h3e457788bb66b14dE
	movq	%rax, -48(%rbp)
Ltmp919:
	.loc	32 0 86
	movq	-40(%rbp), %rdi
	movq	-48(%rbp), %rsi
	.loc	32 467 18
	callq	__ZN4core5slice14from_raw_parts17hde7fe1f997255920E
	movq	%rax, -56(%rbp)
	movq	%rdx, -64(%rbp)
Ltmp920:
	.loc	32 0 18
	movq	-56(%rbp), %rax
	movq	-64(%rbp), %rdx
	.loc	32 468 6 is_stmt 1
	addq	$64, %rsp
	popq	%rbp
	retq
Ltmp921:
Lfunc_end247:
	.cfi_endproc

	.p2align	4, 0x90
__ZN5alloc11collections5btree4node85NodeRef$LT$BorrowType$C$K$C$V$C$alloc..collections..btree..node..marker..Internal$GT$11as_internal17ha63703b53801bc5eE:
Lfunc_begin248:
	.loc	32 281 0
	.cfi_startproc
	pushq	%rbp
	.cfi_def_cfa_offset 16
	.cfi_offset %rbp, -16
	movq	%rsp, %rbp
	.cfi_def_cfa_register %rbp
	subq	$16, %rsp
	movq	%rdi, -8(%rbp)
Ltmp922:
	.loc	32 282 21 prologue_end
	movq	8(%rdi), %rdi
	callq	__ZN4core3ptr8non_null16NonNull$LT$T$GT$6as_ptr17h7170d69e11de9a34E
	movq	%rax, -16(%rbp)
	.loc	32 0 21 is_stmt 0
	movq	-16(%rbp), %rax
	.loc	32 283 6 is_stmt 1
	addq	$16, %rsp
	popq	%rbp
	retq
Ltmp923:
Lfunc_end248:
	.cfi_endproc

	.p2align	4, 0x90
__ZN5alloc11collections5btree4node91NodeRef$LT$BorrowType$C$K$C$V$C$alloc..collections..btree..node..marker..LeafOrInternal$GT$5force17hea8b5aa60d0ec3e0E:
Lfunc_begin249:
