	.section	__TEXT,__text,regular,pure_instructions
	.macosx_version_min 10, 7
	.p2align	4, 0x90
__ZN112_$LT$alloc..collections..btree..map..IntoIter$LT$K$C$V$GT$$u20$as$u20$core..iter..traits..iterator..Iterator$GT$4next17h3e46b14d107a9bfdE:
Lfunc_begin0:
	.file	1 "/rustc/a74d1862d4d87a56244958416fd05976c58ca1a8/src/liballoc/collections/btree/map.rs"
	.loc	1 1598 0
	.cfi_startproc
	pushq	%rbp
	.cfi_def_cfa_offset 16
	.cfi_offset %rbp, -16
	movq	%rsp, %rbp
	.cfi_def_cfa_register %rbp
	pushq	%r15
	pushq	%r14
	pushq	%r13
	pushq	%r12
	pushq	%rbx
	subq	$120, %rsp
	.cfi_offset %rbx, -56
	.cfi_offset %r12, -48
	.cfi_offset %r13, -40
	.cfi_offset %r14, -32
	.cfi_offset %r15, -24
	movq	%rdi, %r9
Ltmp0:
	.loc	1 1599 12 prologue_end
	movq	64(%rsi), %rax
	testq	%rax, %rax
	.loc	1 1599 9 is_stmt 0
	je	LBB0_21
Ltmp1:
	.loc	1 0 9
	movq	%rsi, %r12
Ltmp2:
	.loc	1 1602 13 is_stmt 1
	decq	%rax
	movq	%rax, 64(%rsi)
Ltmp3:
	.file	2 "/rustc/a74d1862d4d87a56244958416fd05976c58ca1a8/src/libcore/option.rs"
	.loc	2 291 13
	movq	8(%rsi), %rax
	testq	%rax, %rax
	cmoveq	%rax, %r12
Ltmp4:
	.loc	2 387 13
	je	LBB0_23
Ltmp5:
	.file	3 "/rustc/a74d1862d4d87a56244958416fd05976c58ca1a8/src/libcore/ptr/mod.rs"
	.loc	3 651 5
	movq	(%r12), %rax
Ltmp6:
	movq	8(%r12), %rdi
Ltmp7:
	movq	16(%r12), %r10
Ltmp8:
	movq	24(%r12), %r13
Ltmp9:
	.file	4 "/rustc/a74d1862d4d87a56244958416fd05976c58ca1a8/src/liballoc/collections/btree/node.rs"
	.loc	4 293 9
	movzwl	10(%rdi), %ecx
Ltmp10:
	.loc	4 814 12
	cmpq	%rcx, %r13
	.loc	4 814 9 is_stmt 0
	jae	LBB0_4
Ltmp11:
	.file	5 "/rustc/a74d1862d4d87a56244958416fd05976c58ca1a8/src/liballoc/collections/btree/navigate.rs"
	.loc	5 0 0
	movq	%rax, %rbx
Ltmp12:
	jmp	LBB0_10
Ltmp13:
LBB0_21:
	.loc	1 1600 13 is_stmt 1
	movq	$0, (%r9)
	jmp	LBB0_22
Ltmp14:
LBB0_4:
	.loc	1 0 13 is_stmt 0
	movq	%r10, -48(%rbp)
Ltmp15:
	movq	%r9, -56(%rbp)
	movl	$544, %r15d
Ltmp16:
	.loc	4 344 30 is_stmt 1
	movq	(%rdi), %r14
Ltmp17:
	.loc	4 345 16
	testq	%r14, %r14
	je	LBB0_6
Ltmp18:
	.p2align	4, 0x90
LBB0_7:
	.loc	4 348 29
	leaq	1(%rax), %rbx
Ltmp19:
	.loc	4 353 43
	movzwl	8(%rdi), %r13d
Ltmp20:
LBB0_8:
	.loc	4 397 16
	testq	%rax, %rax
	.loc	4 397 13 is_stmt 0
	movl	$640, %esi
	cmoveq	%r15, %rsi
Ltmp21:
	.file	6 "/rustc/a74d1862d4d87a56244958416fd05976c58ca1a8/src/liballoc/alloc.rs"
	.loc	6 102 5 is_stmt 1
	movl	$8, %edx
	callq	___rust_dealloc
Ltmp22:
	.loc	4 293 9
	movzwl	10(%r14), %ecx
	movq	%rbx, %rax
	movq	%r14, %rdi
Ltmp23:
	.loc	4 814 12
	cmpq	%rcx, %r13
	.loc	4 814 9 is_stmt 0
	jb	LBB0_9
Ltmp24:
	.loc	4 344 30 is_stmt 1
	movq	(%rdi), %r14
Ltmp25:
	.loc	4 345 16
	testq	%r14, %r14
	jne	LBB0_7
Ltmp26:
LBB0_6:
	.loc	4 0 16 is_stmt 0
	movq	%rax, %rbx
Ltmp27:
	xorl	%r14d, %r14d
Ltmp28:
	jmp	LBB0_8
Ltmp29:
LBB0_9:
	movq	%r14, %rdi
	movq	-56(%rbp), %r9
	movq	-48(%rbp), %r10
Ltmp30:
LBB0_10:
	.loc	4 975 13 is_stmt 1
	leaq	(%r13,%r13,2), %rax
Ltmp31:
	.loc	3 651 5
	movq	32(%rdi,%rax,8), %rcx
	movq	%rcx, -64(%rbp)
	movq	16(%rdi,%rax,8), %rcx
	movq	24(%rdi,%rax,8), %rdx
	movq	%rdx, -72(%rbp)
	movq	%rcx, -80(%rbp)
Ltmp32:
	.loc	3 651 5 is_stmt 0
	movq	296(%rdi,%rax,8), %rcx
	movq	%rcx, -88(%rbp)
	movq	280(%rdi,%rax,8), %rcx
	movq	288(%rdi,%rax,8), %rax
	movq	%rax, -96(%rbp)
	movq	%rcx, -104(%rbp)
Ltmp33:
	.loc	4 680 12 is_stmt 1
	testq	%rbx, %rbx
Ltmp34:
	.loc	5 223 13
	je	LBB0_11
Ltmp35:
	.loc	4 680 12
	movq	%rbx, %rax
Ltmp36:
	.loc	4 963 17
	movq	552(%rdi,%r13,8), %rdi
Ltmp37:
	.loc	4 680 12
	decq	%rax
Ltmp38:
	.loc	5 199 17
	je	LBB0_13
Ltmp39:
	addq	$-2, %rbx
Ltmp40:
	movq	%rax, %rcx
	andq	$7, %rcx
	je	LBB0_18
Ltmp41:
	.loc	5 0 17 is_stmt 0
	xorl	%edx, %edx
Ltmp42:
	.p2align	4, 0x90
LBB0_16:
	movq	544(%rdi), %rdi
Ltmp43:
	.loc	5 199 17
	incq	%rdx
	cmpq	%rdx, %rcx
	jne	LBB0_16
Ltmp44:
	subq	%rdx, %rax
Ltmp45:
LBB0_18:
	.loc	5 0 17
	xorl	%r13d, %r13d
Ltmp46:
	.loc	5 199 17
	cmpq	$7, %rbx
	jb	LBB0_20
Ltmp47:
	.p2align	4, 0x90
LBB0_19:
	.loc	5 0 0
	movq	544(%rdi), %rcx
Ltmp48:
	movq	544(%rcx), %rcx
Ltmp49:
	movq	544(%rcx), %rcx
Ltmp50:
	movq	544(%rcx), %rcx
Ltmp51:
	movq	544(%rcx), %rcx
Ltmp52:
	movq	544(%rcx), %rcx
Ltmp53:
	movq	544(%rcx), %rcx
Ltmp54:
	movq	544(%rcx), %rdi
Ltmp55:
	.loc	4 680 12 is_stmt 1
	addq	$-8, %rax
Ltmp56:
	.loc	5 199 17
	jne	LBB0_19
	jmp	LBB0_20
Ltmp57:
LBB0_11:
	.loc	5 0 17 is_stmt 0
	incq	%r13
Ltmp58:
	jmp	LBB0_20
Ltmp59:
LBB0_13:
	xorl	%r13d, %r13d
Ltmp60:
LBB0_20:
	.loc	5 166 36 is_stmt 1
	movq	-64(%rbp), %r8
	movq	%r8, -136(%rbp)
	movq	-80(%rbp), %rcx
	movq	-72(%rbp), %rdx
	movq	%rdx, -144(%rbp)
	movq	%rcx, -152(%rbp)
	.loc	5 166 35 is_stmt 0
	movq	-104(%rbp), %rsi
	movq	-96(%rbp), %rbx
	movq	%rsi, -128(%rbp)
	movq	%rbx, -120(%rbp)
	movq	-88(%rbp), %rax
	movq	%rax, -112(%rbp)
	.loc	5 166 13
	movq	%rax, 40(%r9)
	movq	%rbx, 32(%r9)
	movq	%rsi, 24(%r9)
	movq	%r8, 16(%r9)
	movq	%rdx, 8(%r9)
	movq	%rcx, (%r9)
Ltmp61:
	.loc	3 836 42 is_stmt 1
	movq	$0, (%r12)
	movq	%rdi, 8(%r12)
	movq	%r10, 16(%r12)
	movq	%r13, 24(%r12)
Ltmp62:
LBB0_22:
	.loc	1 1605 6
	addq	$120, %rsp
	popq	%rbx
	popq	%r12
	popq	%r13
	popq	%r14
	popq	%r15
	popq	%rbp
	retq
LBB0_23:
Ltmp63:
	.file	7 "/rustc/a74d1862d4d87a56244958416fd05976c58ca1a8/src/libcore/macros/mod.rs"
	.loc	7 10 9
	leaq	l___unnamed_2(%rip), %rdi
	leaq	l___unnamed_3(%rip), %rdx
	movl	$43, %esi
	callq	__ZN4core9panicking5panic17h736ee47a631475c0E
Ltmp64:
Lfunc_end0:
	.cfi_endproc
	.file	8 "/rustc/a74d1862d4d87a56244958416fd05976c58ca1a8/src/libcore/result.rs"

	.private_extern	__ZN3std2rt10lang_start17haf5ef420e5d30e6cE
	.globl	__ZN3std2rt10lang_start17haf5ef420e5d30e6cE
	.p2align	4, 0x90
__ZN3std2rt10lang_start17haf5ef420e5d30e6cE:
Lfunc_begin1:
	.file	9 "/rustc/a74d1862d4d87a56244958416fd05976c58ca1a8/src/libstd/rt.rs"
	.loc	9 62 0
	.cfi_startproc
	pushq	%rbp
	.cfi_def_cfa_offset 16
	.cfi_offset %rbp, -16
	movq	%rsp, %rbp
	.cfi_def_cfa_register %rbp
	subq	$16, %rsp
	movq	%rdx, %rcx
Ltmp65:
	movq	%rsi, %rdx
Ltmp66:
	.loc	9 67 26 prologue_end
	movq	%rdi, -8(%rbp)
	.loc	9 67 5 is_stmt 0
	leaq	l___unnamed_1(%rip), %rsi
	leaq	-8(%rbp), %rdi
Ltmp67:
	callq	__ZN3std2rt19lang_start_internal17hebefdaa8fd585aefE
Ltmp68:
	.loc	9 68 2 is_stmt 1
	addq	$16, %rsp
	popq	%rbp
	retq
Ltmp69:
Lfunc_end1:
	.cfi_endproc

	.p2align	4, 0x90
__ZN3std2rt10lang_start28_$u7b$$u7b$closure$u7d$$u7d$17h446d77eb0e0ab305E:
Lfunc_begin2:
	.loc	9 67 0
	.cfi_startproc
	pushq	%rbp
	.cfi_def_cfa_offset 16
	.cfi_offset %rbp, -16
	movq	%rsp, %rbp
	.cfi_def_cfa_register %rbp
Ltmp70:
	.loc	9 67 34 prologue_end
	callq	*(%rdi)
Ltmp71:
	.loc	9 67 49 is_stmt 0
	xorl	%eax, %eax
	popq	%rbp
	retq
Ltmp72:
Lfunc_end2:
	.cfi_endproc

	.p2align	4, 0x90
__ZN44_$LT$$RF$T$u20$as$u20$core..fmt..Display$GT$3fmt17h876527ff2ae43b79E:
Lfunc_begin3:
	.file	10 "/rustc/a74d1862d4d87a56244958416fd05976c58ca1a8/src/libcore/fmt/mod.rs"
	.loc	10 1973 0 is_stmt 1
	.cfi_startproc
	pushq	%rbp
	.cfi_def_cfa_offset 16
	.cfi_offset %rbp, -16
	movq	%rsp, %rbp
	.cfi_def_cfa_register %rbp
	movq	%rsi, %rdx
Ltmp73:
	.loc	10 1973 71 prologue_end
	movq	(%rdi), %rax
	movq	8(%rdi), %rsi
	.loc	10 1973 62 is_stmt 0
	movq	%rax, %rdi
Ltmp74:
	popq	%rbp
	jmp	__ZN42_$LT$str$u20$as$u20$core..fmt..Display$GT$3fmt17hd4dee1c1c4ccf892E
Ltmp75:
Lfunc_end3:
	.cfi_endproc

	.p2align	4, 0x90
__ZN4core3ops8function6FnOnce40call_once$u7b$$u7b$vtable.shim$u7d$$u7d$17hfe7bc8f4097b9275E:
Lfunc_begin4:
	.file	11 "/rustc/a74d1862d4d87a56244958416fd05976c58ca1a8/src/libcore/ops/function.rs"
	.loc	11 232 0 is_stmt 1
	.cfi_startproc
	pushq	%rbp
	.cfi_def_cfa_offset 16
	.cfi_offset %rbp, -16
	movq	%rsp, %rbp
	.cfi_def_cfa_register %rbp
Ltmp76:
	.loc	9 67 34 prologue_end
	callq	*(%rdi)
Ltmp77:
	.loc	11 232 5
	xorl	%eax, %eax
	popq	%rbp
	retq
Ltmp78:
Lfunc_end4:
	.cfi_endproc

	.p2align	4, 0x90
__ZN4core3ptr13drop_in_place17h32350de881766289E:
Lfunc_begin5:
	.loc	3 178 0
	.cfi_startproc
	.cfi_personality 155, _rust_eh_personality
	.cfi_lsda 16, Lexception0
	pushq	%rbp
	.cfi_def_cfa_offset 16
	.cfi_offset %rbp, -16
	movq	%rsp, %rbp
	.cfi_def_cfa_register %rbp
	pushq	%r14
	pushq	%rbx
	.cfi_offset %rbx, -32
	.cfi_offset %r14, -24
	movq	%rdi, %rbx
Ltmp82:
	.loc	3 178 1 prologue_end
	movq	(%rdi), %rdi
	movq	8(%rbx), %rax
Ltmp79:
	callq	*(%rax)
Ltmp80:
Ltmp83:
	movq	8(%rbx), %rax
Ltmp84:
	.loc	6 282 16
	movq	8(%rax), %rsi
Ltmp85:
	.loc	6 185 12
	testq	%rsi, %rsi
	.loc	6 185 9 is_stmt 0
	je	LBB5_2
Ltmp86:
	.loc	3 178 1 is_stmt 1
	movq	(%rbx), %rdi
Ltmp87:
	.loc	6 283 17
	movq	16(%rax), %rdx
Ltmp88:
	.loc	6 102 5
	popq	%rbx
Ltmp89:
	popq	%r14
	popq	%rbp
	jmp	___rust_dealloc
Ltmp90:
LBB5_2:
	.loc	3 178 1
	popq	%rbx
Ltmp91:
	popq	%r14
	popq	%rbp
	retq
LBB5_3:
Ltmp92:
Ltmp81:
	.loc	3 0 1 is_stmt 0
	movq	%rax, %r14
	.loc	3 178 1
	movq	(%rbx), %rdi
	movq	8(%rbx), %rsi
	callq	__ZN5alloc5alloc8box_free17had4c9bbcee1e6d74E
	movq	%r14, %rdi
	callq	__Unwind_Resume
	ud2
Ltmp93:
Lfunc_end5:
	.cfi_endproc
	.section	__TEXT,__gcc_except_tab
	.p2align	2
GCC_except_table5:
Lexception0:
	.byte	255
	.byte	255
	.byte	1
	.uleb128 Lcst_end0-Lcst_begin0
Lcst_begin0:
	.uleb128 Ltmp79-Lfunc_begin5
	.uleb128 Ltmp80-Ltmp79
	.uleb128 Ltmp81-Lfunc_begin5
	.byte	0
	.uleb128 Ltmp80-Lfunc_begin5
	.uleb128 Lfunc_end5-Ltmp80
	.byte	0
	.byte	0
Lcst_end0:
	.p2align	2

	.section	__TEXT,__text,regular,pure_instructions
	.p2align	4, 0x90
__ZN4core3ptr13drop_in_place17h38cc7730b870ff45E:
Lfunc_begin6:
	.loc	3 178 0 is_stmt 1
	.cfi_startproc
	pushq	%rbp
	.cfi_def_cfa_offset 16
	.cfi_offset %rbp, -16
	movq	%rsp, %rbp
	.cfi_def_cfa_register %rbp
Ltmp94:
	.loc	3 178 1 prologue_end
	cmpl	$3, (%rdi)
	jne	LBB6_1
Ltmp95:
	.loc	3 178 1 is_stmt 0
	addq	$4, %rdi
Ltmp96:
	.loc	3 178 1
	popq	%rbp
	jmp	__ZN70_$LT$std..sys..unix..fd..FileDesc$u20$as$u20$core..ops..drop..Drop$GT$4drop17hf5fce2bf4d9f8deaE
Ltmp97:
LBB6_1:
	.loc	3 178 1
	popq	%rbp
	retq
Ltmp98:
Lfunc_end6:
	.cfi_endproc

	.p2align	4, 0x90
__ZN4core3ptr13drop_in_place17h3ff6e2b501be988cE:
Lfunc_begin7:
	.loc	3 178 0 is_stmt 1
	.cfi_startproc
	pushq	%rbp
	.cfi_def_cfa_offset 16
	.cfi_offset %rbp, -16
	movq	%rsp, %rbp
	.cfi_def_cfa_register %rbp
Ltmp99:
	.file	12 "/rustc/a74d1862d4d87a56244958416fd05976c58ca1a8/src/liballoc/raw_vec.rs"
	.loc	12 200 40 prologue_end
	testq	%rsi, %rsi
	.loc	12 200 9 is_stmt 0
	je	LBB7_3
Ltmp100:
	.loc	12 532 16 is_stmt 1
	testq	%rdi, %rdi
Ltmp101:
	je	LBB7_3
Ltmp102:
	.loc	12 0 0 is_stmt 0
	shlq	$4, %rsi
Ltmp103:
	.loc	12 532 16
	je	LBB7_3
Ltmp104:
	.loc	6 102 5 is_stmt 1
	movl	$8, %edx
	popq	%rbp
	jmp	___rust_dealloc
Ltmp105:
LBB7_3:
	.loc	3 178 1
	popq	%rbp
	retq
Ltmp106:
Lfunc_end7:
	.cfi_endproc

	.p2align	4, 0x90
__ZN4core3ptr13drop_in_place17h8262ef6735ef0d5fE:
Lfunc_begin8:
	.loc	3 178 0
	.cfi_startproc
	pushq	%rbp
	.cfi_def_cfa_offset 16
	.cfi_offset %rbp, -16
	movq	%rsp, %rbp
	.cfi_def_cfa_register %rbp
	movq	%rdi, %rax
Ltmp107:
	.loc	3 178 1 prologue_end
	movq	(%rdi), %rdi
Ltmp108:
	.loc	12 532 16
	testq	%rdi, %rdi
Ltmp109:
	.loc	12 200 9
	je	LBB8_2
Ltmp110:
	.loc	3 0 0 is_stmt 0
	movq	8(%rax), %rsi
Ltmp111:
	.loc	12 200 9
	testq	%rsi, %rsi
	je	LBB8_2
Ltmp112:
	.loc	6 102 5 is_stmt 1
	movl	$1, %edx
	popq	%rbp
	jmp	___rust_dealloc
Ltmp113:
LBB8_2:
	.loc	3 178 1
	popq	%rbp
	retq
Ltmp114:
Lfunc_end8:
	.cfi_endproc

	.p2align	4, 0x90
__ZN4core3ptr13drop_in_place17ha7a920cc7e545250E:
Lfunc_begin9:
	.loc	3 178 0
	.cfi_startproc
	pushq	%rbp
	.cfi_def_cfa_offset 16
	.cfi_offset %rbp, -16
	movq	%rsp, %rbp
	.cfi_def_cfa_register %rbp
Ltmp115:
	.loc	3 178 1 prologue_end
	popq	%rbp
	retq
Ltmp116:
Lfunc_end9:
	.cfi_endproc

	.p2align	4, 0x90
__ZN4core3ptr13drop_in_place17hb8dd4a1d8ae21de6E:
Lfunc_begin10:
	.loc	3 178 0
	.cfi_startproc
	.cfi_personality 155, _rust_eh_personality
	.cfi_lsda 16, Lexception1
	pushq	%rbp
	.cfi_def_cfa_offset 16
	.cfi_offset %rbp, -16
	movq	%rsp, %rbp
	.cfi_def_cfa_register %rbp
	pushq	%r15
	pushq	%r14
	pushq	%r13
	pushq	%r12
	pushq	%rbx
	pushq	%rax
	.cfi_offset %rbx, -56
	.cfi_offset %r12, -48
	.cfi_offset %r13, -40
	.cfi_offset %r14, -32
	.cfi_offset %r15, -24
	movq	%rdi, %r14
Ltmp123:
	.file	13 "/rustc/a74d1862d4d87a56244958416fd05976c58ca1a8/src/liballoc/vec.rs"
	.loc	13 850 19 prologue_end
	movq	(%rdi), %rbx
Ltmp124:
	.loc	13 2384 81
	movq	16(%rdi), %r12
Ltmp125:
	.loc	3 178 1
	testq	%r12, %r12
	je	LBB10_7
Ltmp126:
	.loc	3 0 0 is_stmt 0
	shlq	$4, %r12
Ltmp127:
	leaq	(%rbx,%r12), %r15
Ltmp128:
	.loc	3 178 1
	addq	$-16, %r12
	addq	$16, %rbx
Ltmp129:
	.loc	3 0 1
	jmp	LBB10_2
Ltmp130:
	.p2align	4, 0x90
LBB10_5:
	.loc	3 178 1
	addq	$-16, %r12
	addq	$16, %rbx
	addq	$16, %r13
	cmpq	%r15, %r13
	je	LBB10_6
Ltmp131:
LBB10_2:
	.loc	3 178 1
	movq	-16(%rbx), %rdi
	movq	-8(%rbx), %rax
Ltmp117:
	callq	*(%rax)
Ltmp118:
Ltmp132:
	leaq	-16(%rbx), %r13
	movq	8(%r13), %rax
Ltmp133:
	.loc	6 282 16 is_stmt 1
	movq	8(%rax), %rsi
Ltmp134:
	.loc	6 185 12
	testq	%rsi, %rsi
	.loc	6 185 9 is_stmt 0
	je	LBB10_5
Ltmp135:
	.loc	3 178 1 is_stmt 1
	movq	-16(%rbx), %rdi
Ltmp136:
	.loc	6 283 17
	movq	16(%rax), %rdx
Ltmp137:
	.loc	6 102 5
	callq	___rust_dealloc
Ltmp138:
	.loc	6 0 5 is_stmt 0
	jmp	LBB10_5
Ltmp139:
LBB10_6:
	.loc	3 178 1 is_stmt 1
	movq	(%r14), %rbx
Ltmp140:
LBB10_7:
	movq	8(%r14), %rsi
Ltmp141:
	.loc	12 200 40
	testq	%rsi, %rsi
	.loc	12 200 9 is_stmt 0
	je	LBB10_14
Ltmp142:
	.loc	12 532 16 is_stmt 1
	testq	%rbx, %rbx
Ltmp143:
	je	LBB10_14
Ltmp144:
	.loc	12 0 0 is_stmt 0
	shlq	$4, %rsi
Ltmp145:
	.loc	12 532 16
	je	LBB10_14
Ltmp146:
	.loc	6 102 5 is_stmt 1
	movl	$8, %edx
	movq	%rbx, %rdi
	addq	$8, %rsp
	popq	%rbx
Ltmp147:
	popq	%r12
	popq	%r13
	popq	%r14
Ltmp148:
	popq	%r15
	popq	%rbp
	jmp	___rust_dealloc
Ltmp149:
LBB10_14:
	.loc	3 178 1
	addq	$8, %rsp
	popq	%rbx
	popq	%r12
	popq	%r13
	popq	%r14
Ltmp150:
	popq	%r15
	popq	%rbp
	retq
LBB10_11:
Ltmp151:
Ltmp119:
	.loc	3 0 1 is_stmt 0
	movq	%rax, %r15
Ltmp152:
	.loc	3 178 1
	movq	-16(%rbx), %rdi
	movq	-8(%rbx), %rsi
	callq	__ZN5alloc5alloc8box_free17had4c9bbcee1e6d74E
Ltmp153:
	.loc	3 178 1
	testq	%r12, %r12
	je	LBB10_16
Ltmp154:
	.p2align	4, 0x90
LBB10_12:
Ltmp120:
	movq	%rbx, %rdi
	callq	__ZN4core3ptr13drop_in_place17h32350de881766289E
Ltmp121:
Ltmp155:
	addq	$16, %rbx
	addq	$-16, %r12
	jne	LBB10_12
	jmp	LBB10_16
Ltmp156:
LBB10_15:
Ltmp122:
	.loc	3 0 1
	movq	%rax, %r15
Ltmp157:
LBB10_16:
	.loc	3 178 1
	movq	(%r14), %rdi
	movq	8(%r14), %rsi
	callq	__ZN4core3ptr13drop_in_place17h3ff6e2b501be988cE
	movq	%r15, %rdi
	callq	__Unwind_Resume
	ud2
Ltmp158:
Lfunc_end10:
	.cfi_endproc
	.section	__TEXT,__gcc_except_tab
	.p2align	2
GCC_except_table10:
Lexception1:
	.byte	255
	.byte	255
	.byte	1
	.uleb128 Lcst_end1-Lcst_begin1
Lcst_begin1:
	.uleb128 Ltmp117-Lfunc_begin10
	.uleb128 Ltmp118-Ltmp117
	.uleb128 Ltmp119-Lfunc_begin10
	.byte	0
	.uleb128 Ltmp120-Lfunc_begin10
	.uleb128 Ltmp121-Ltmp120
	.uleb128 Ltmp122-Lfunc_begin10
	.byte	0
	.uleb128 Ltmp121-Lfunc_begin10
	.uleb128 Lfunc_end10-Ltmp121
	.byte	0
	.byte	0
Lcst_end1:
	.p2align	2

	.section	__TEXT,__text,regular,pure_instructions
	.p2align	4, 0x90
__ZN4core3ptr13drop_in_place17hbf6168237abb4645E:
Lfunc_begin11:
	.loc	3 178 0 is_stmt 1
	.cfi_startproc
	pushq	%rbp
	.cfi_def_cfa_offset 16
	.cfi_offset %rbp, -16
	movq	%rsp, %rbp
	.cfi_def_cfa_register %rbp
Ltmp159:
	.loc	3 178 1 prologue_end
	movq	(%rdi), %rax
Ltmp160:
	testq	%rax, %rax
	je	LBB11_2
Ltmp161:
	.file	14 "/rustc/a74d1862d4d87a56244958416fd05976c58ca1a8/src/libstd/ffi/c_str.rs"
	.loc	14 645 13
	movb	$0, (%rax)
Ltmp162:
	.loc	3 178 1
	movq	8(%rdi), %rsi
Ltmp163:
	.loc	6 185 12
	testq	%rsi, %rsi
	.loc	6 185 9 is_stmt 0
	je	LBB11_2
Ltmp164:
	.loc	3 178 1 is_stmt 1
	movq	(%rdi), %rdi
Ltmp165:
	.loc	6 102 5
	movl	$1, %edx
	popq	%rbp
	jmp	___rust_dealloc
Ltmp166:
LBB11_2:
	.loc	3 178 1
	popq	%rbp
	retq
Ltmp167:
Lfunc_end11:
	.cfi_endproc

	.p2align	4, 0x90
__ZN4core3ptr13drop_in_place17hcb5edc8c4ef11b4fE:
Lfunc_begin12:
	.loc	3 178 0
	.cfi_startproc
	pushq	%rbp
	.cfi_def_cfa_offset 16
	.cfi_offset %rbp, -16
	movq	%rsp, %rbp
	.cfi_def_cfa_register %rbp
	pushq	%rbx
	pushq	%rax
	.cfi_offset %rbx, -24
	movq	%rdi, %rbx
Ltmp168:
	.loc	3 178 1 prologue_end
	movq	(%rdi), %rdi
Ltmp169:
	.loc	12 532 16
	testq	%rdi, %rdi
Ltmp170:
	.loc	12 200 9
	je	LBB12_3
Ltmp171:
	.loc	3 0 0 is_stmt 0
	movq	8(%rbx), %rsi
Ltmp172:
	.loc	12 200 9
	testq	%rsi, %rsi
	je	LBB12_3
Ltmp173:
	.loc	6 102 5 is_stmt 1
	movl	$1, %edx
	callq	___rust_dealloc
Ltmp174:
LBB12_3:
	.loc	3 178 1
	movq	24(%rbx), %rdi
Ltmp175:
	.loc	12 532 16
	testq	%rdi, %rdi
Ltmp176:
	.loc	12 200 9
	je	LBB12_5
Ltmp177:
	.loc	3 0 0 is_stmt 0
	movq	32(%rbx), %rsi
Ltmp178:
	.loc	12 200 9
	testq	%rsi, %rsi
	je	LBB12_5
Ltmp179:
	.loc	6 102 5 is_stmt 1
	movl	$1, %edx
	addq	$8, %rsp
	popq	%rbx
Ltmp180:
	popq	%rbp
	jmp	___rust_dealloc
Ltmp181:
LBB12_5:
	.loc	3 178 1
	addq	$8, %rsp
	popq	%rbx
Ltmp182:
	popq	%rbp
	retq
Ltmp183:
Lfunc_end12:
	.cfi_endproc

	.p2align	4, 0x90
__ZN4core3ptr13drop_in_place17he5be0a2995d52c6fE:
Lfunc_begin13:
	.loc	3 178 0
	.cfi_startproc
	.cfi_personality 155, _rust_eh_personality
	.cfi_lsda 16, Lexception2
	pushq	%rbp
	.cfi_def_cfa_offset 16
	.cfi_offset %rbp, -16
	movq	%rsp, %rbp
	.cfi_def_cfa_register %rbp
	pushq	%r15
	pushq	%r14
	pushq	%r13
	pushq	%r12
	pushq	%rbx
	subq	$120, %rsp
	.cfi_offset %rbx, -56
	.cfi_offset %r12, -48
	.cfi_offset %r13, -40
	.cfi_offset %r14, -32
	.cfi_offset %r15, -24
	movq	%rdi, %r14
Ltmp201:
	.loc	14 645 14 prologue_end
	movq	(%rdi), %rax
Ltmp202:
	.loc	14 645 13 is_stmt 0
	movb	$0, (%rax)
Ltmp203:
	.loc	3 178 1 is_stmt 1
	movq	8(%rdi), %rsi
Ltmp204:
	.loc	6 185 12
	testq	%rsi, %rsi
	.loc	6 185 9 is_stmt 0
	je	LBB13_2
Ltmp205:
	.loc	3 178 1 is_stmt 1
	movq	(%r14), %rdi
Ltmp206:
	.loc	6 102 5
	movl	$1, %edx
	callq	___rust_dealloc
Ltmp207:
LBB13_2:
	.loc	13 850 19
	movq	16(%r14), %rbx
Ltmp208:
	.loc	13 2384 81
	movq	32(%r14), %r15
Ltmp209:
	.loc	3 178 1
	testq	%r15, %r15
	je	LBB13_8
Ltmp210:
	shlq	$4, %r15
Ltmp211:
	addq	%rbx, %r15
	jmp	LBB13_4
Ltmp212:
	.p2align	4, 0x90
LBB13_6:
	addq	$16, %rbx
Ltmp213:
	cmpq	%r15, %rbx
	je	LBB13_7
Ltmp214:
LBB13_4:
	.loc	14 645 14
	movq	(%rbx), %rax
Ltmp215:
	.loc	14 645 13 is_stmt 0
	movb	$0, (%rax)
Ltmp216:
	.loc	3 178 1 is_stmt 1
	movq	8(%rbx), %rsi
Ltmp217:
	.loc	6 185 12
	testq	%rsi, %rsi
	.loc	6 185 9 is_stmt 0
	je	LBB13_6
Ltmp218:
	.loc	3 178 1 is_stmt 1
	movq	(%rbx), %rdi
Ltmp219:
	.loc	6 102 5
	movl	$1, %edx
	callq	___rust_dealloc
Ltmp220:
	.loc	6 0 5 is_stmt 0
	jmp	LBB13_6
Ltmp221:
LBB13_7:
	.loc	3 178 1 is_stmt 1
	movq	16(%r14), %rbx
Ltmp222:
LBB13_8:
	movq	24(%r14), %rsi
Ltmp223:
	.loc	12 200 40
	testq	%rsi, %rsi
	.loc	12 200 9 is_stmt 0
	je	LBB13_12
Ltmp224:
	.loc	12 532 16 is_stmt 1
	testq	%rbx, %rbx
Ltmp225:
	je	LBB13_12
Ltmp226:
	.loc	12 0 0 is_stmt 0
	shlq	$4, %rsi
Ltmp227:
	.loc	12 532 16
	je	LBB13_12
Ltmp228:
	.loc	6 102 5 is_stmt 1
	movl	$8, %edx
	movq	%rbx, %rdi
	callq	___rust_dealloc
Ltmp229:
LBB13_12:
	.loc	3 178 1
	movq	48(%r14), %rsi
Ltmp230:
	.loc	12 200 40
	testq	%rsi, %rsi
	.loc	12 200 9 is_stmt 0
	je	LBB13_16
Ltmp231:
	.loc	3 0 0
	movq	40(%r14), %rdi
Ltmp232:
	.loc	12 532 16 is_stmt 1
	testq	%rdi, %rdi
Ltmp233:
	je	LBB13_16
Ltmp234:
	.loc	12 0 0 is_stmt 0
	shlq	$3, %rsi
Ltmp235:
	.loc	12 532 16
	testq	%rsi, %rsi
	je	LBB13_16
Ltmp236:
	.loc	6 102 5 is_stmt 1
	movl	$8, %edx
	callq	___rust_dealloc
Ltmp237:
LBB13_16:
	.loc	3 178 1
	movq	64(%r14), %rcx
Ltmp238:
	.loc	1 1544 16
	testq	%rcx, %rcx
	je	LBB13_17
Ltmp239:
	.loc	3 0 0 is_stmt 0
	movq	72(%r14), %rdi
Ltmp240:
	movq	80(%r14), %rax
Ltmp241:
	.loc	4 293 9 is_stmt 1
	movzwl	10(%rcx), %edx
Ltmp242:
	.loc	4 680 12
	testq	%rdi, %rdi
Ltmp243:
	.loc	1 2136 14
	je	LBB13_32
Ltmp244:
	.loc	1 0 14 is_stmt 0
	movb	$1, %bl
	movq	%rcx, %rsi
Ltmp245:
	.p2align	4, 0x90
LBB13_36:
	.loc	1 2139 33 is_stmt 1
	testb	$1, %bl
	je	LBB13_33
Ltmp246:
	.loc	4 680 12
	cmpq	$1, %rdi
	setne	%bl
Ltmp247:
	.loc	4 963 17
	movq	544(%rcx), %rcx
Ltmp248:
	.loc	4 963 17 is_stmt 0
	movq	544(%rsi,%rdx,8), %rsi
Ltmp249:
	.loc	4 293 9 is_stmt 1
	movzwl	10(%rsi), %edx
Ltmp250:
	.loc	4 680 12
	decq	%rdi
Ltmp251:
	.loc	1 2136 14
	jne	LBB13_36
	jmp	LBB13_38
Ltmp252:
LBB13_17:
	.loc	1 1549 13
	movq	$0, -104(%rbp)
	movq	$0, -72(%rbp)
	xorl	%eax, %eax
	jmp	LBB13_39
Ltmp253:
LBB13_32:
	.loc	1 0 13 is_stmt 0
	movq	%rcx, %rsi
Ltmp254:
LBB13_38:
	.loc	1 1547 13 is_stmt 1
	movq	$0, -112(%rbp)
	movq	%rcx, -104(%rbp)
	movq	$0, -96(%rbp)
	movq	$0, -88(%rbp)
	movq	$0, -80(%rbp)
	movq	%rsi, -72(%rbp)
	movq	$0, -64(%rbp)
	movq	%rdx, -56(%rbp)
Ltmp255:
LBB13_39:
	.loc	1 0 0 is_stmt 0
	movq	%rax, -48(%rbp)
Ltmp256:
Ltmp186:
	leaq	-160(%rbp), %rdi
	leaq	-112(%rbp), %rsi
Ltmp257:
	.loc	1 1575 32 is_stmt 1
	callq	__ZN112_$LT$alloc..collections..btree..map..IntoIter$LT$K$C$V$GT$$u20$as$u20$core..iter..traits..iterator..Iterator$GT$4next17h3e46b14d107a9bfdE
Ltmp187:
Ltmp258:
	.loc	1 1575 19 is_stmt 0
	movq	-160(%rbp), %rdi
	testq	%rdi, %rdi
	je	LBB13_50
Ltmp259:
	.loc	1 0 19
	leaq	-160(%rbp), %r15
	leaq	-112(%rbp), %r12
Ltmp260:
	.p2align	4, 0x90
LBB13_42:
	.loc	1 1575 24
	movq	-136(%rbp), %rbx
Ltmp261:
	movq	-128(%rbp), %r13
Ltmp262:
	.loc	12 532 16 is_stmt 1
	testq	%rdi, %rdi
Ltmp263:
	.loc	12 200 9
	je	LBB13_45
Ltmp264:
	.loc	1 0 0 is_stmt 0
	movq	-152(%rbp), %rsi
Ltmp265:
	.loc	12 200 9
	testq	%rsi, %rsi
	je	LBB13_45
Ltmp266:
	.loc	6 102 5 is_stmt 1
	movl	$1, %edx
	callq	___rust_dealloc
Ltmp267:
LBB13_45:
	.loc	3 178 1
	testq	%rbx, %rbx
Ltmp268:
	je	LBB13_48
Ltmp269:
	testq	%r13, %r13
	je	LBB13_48
Ltmp270:
	.loc	6 102 5
	movl	$1, %edx
	movq	%rbx, %rdi
	movq	%r13, %rsi
	callq	___rust_dealloc
Ltmp271:
LBB13_48:
Ltmp189:
	.loc	1 1575 32
	movq	%r15, %rdi
	movq	%r12, %rsi
	callq	__ZN112_$LT$alloc..collections..btree..map..IntoIter$LT$K$C$V$GT$$u20$as$u20$core..iter..traits..iterator..Iterator$GT$4next17h3e46b14d107a9bfdE
Ltmp190:
Ltmp272:
	.loc	1 1575 19 is_stmt 0
	movq	-160(%rbp), %rdi
	testq	%rdi, %rdi
	jne	LBB13_42
Ltmp273:
LBB13_50:
	.loc	3 651 5 is_stmt 1
	movq	-104(%rbp), %rdi
Ltmp274:
	.loc	1 1582 20
	testq	%rdi, %rdi
	je	LBB13_27
Ltmp275:
	.loc	3 651 5
	movq	-112(%rbp), %rax
Ltmp276:
	.loc	3 0 5 is_stmt 0
	movl	$544, %r15d
Ltmp277:
	.p2align	4, 0x90
LBB13_52:
	.loc	4 344 30 is_stmt 1
	movq	(%rdi), %r12
Ltmp278:
	.loc	4 345 16
	xorl	%ebx, %ebx
	testq	%r12, %r12
	setne	%bl
	addq	%rax, %rbx
Ltmp279:
	.loc	4 397 16
	testq	%rax, %rax
	.loc	4 397 13 is_stmt 0
	movl	$640, %esi
	cmoveq	%r15, %rsi
Ltmp280:
	.loc	6 102 5 is_stmt 1
	movl	$8, %edx
	callq	___rust_dealloc
Ltmp281:
	.loc	1 0 0 is_stmt 0
	movq	%rbx, %rax
	movq	%r12, %rdi
Ltmp282:
	.loc	4 345 16 is_stmt 1
	testq	%r12, %r12
Ltmp283:
	.loc	1 1586 27
	jne	LBB13_52
Ltmp284:
LBB13_27:
	.loc	3 178 1
	movq	96(%r14), %rax
Ltmp285:
	testq	%rax, %rax
	je	LBB13_30
Ltmp286:
	.loc	14 645 13
	movb	$0, (%rax)
Ltmp287:
	.loc	3 178 1
	movq	104(%r14), %rsi
Ltmp288:
	.loc	6 185 12
	testq	%rsi, %rsi
	.loc	6 185 9 is_stmt 0
	je	LBB13_30
Ltmp289:
	.loc	3 178 1 is_stmt 1
	movq	96(%r14), %rdi
Ltmp290:
	.loc	6 102 5
	movl	$1, %edx
	callq	___rust_dealloc
Ltmp291:
LBB13_30:
	.loc	3 178 1
	leaq	112(%r14), %rdi
Ltmp192:
	callq	__ZN4core3ptr13drop_in_place17hb8dd4a1d8ae21de6E
Ltmp193:
Ltmp292:
	.loc	3 178 1 is_stmt 0
	cmpl	$3, 152(%r14)
	jne	LBB13_23
Ltmp293:
	.loc	3 178 1
	leaq	156(%r14), %rdi
Ltmp294:
Ltmp195:
	.loc	3 178 1
	callq	__ZN70_$LT$std..sys..unix..fd..FileDesc$u20$as$u20$core..ops..drop..Drop$GT$4drop17hf5fce2bf4d9f8deaE
Ltmp295:
Ltmp196:
LBB13_23:
	.loc	3 178 1
	cmpl	$3, 160(%r14)
	jne	LBB13_21
Ltmp296:
	.loc	3 178 1
	leaq	164(%r14), %rdi
Ltmp297:
Ltmp198:
	.loc	3 178 1
	callq	__ZN70_$LT$std..sys..unix..fd..FileDesc$u20$as$u20$core..ops..drop..Drop$GT$4drop17hf5fce2bf4d9f8deaE
Ltmp298:
Ltmp199:
LBB13_21:
	.loc	3 178 1
	cmpl	$3, 168(%r14)
	jne	LBB13_59
Ltmp299:
	.loc	3 178 1
	addq	$172, %r14
Ltmp300:
	.loc	3 178 1
	movq	%r14, %rdi
	addq	$120, %rsp
	popq	%rbx
	popq	%r12
	popq	%r13
	popq	%r14
Ltmp301:
	popq	%r15
	popq	%rbp
	jmp	__ZN70_$LT$std..sys..unix..fd..FileDesc$u20$as$u20$core..ops..drop..Drop$GT$4drop17hf5fce2bf4d9f8deaE
Ltmp302:
LBB13_59:
	.loc	3 178 1
	addq	$120, %rsp
	popq	%rbx
	popq	%r12
	popq	%r13
	popq	%r14
Ltmp303:
	popq	%r15
	popq	%rbp
	retq
LBB13_33:
Ltmp304:
	.loc	7 16 38 is_stmt 1
	leaq	__ZN44_$LT$$RF$T$u20$as$u20$core..fmt..Display$GT$3fmt17h876527ff2ae43b79E(%rip), %rax
Ltmp305:
	movq	%rax, %xmm0
	leaq	l___unnamed_4(%rip), %rax
	movq	%rax, %xmm1
	punpcklqdq	%xmm0, %xmm1
	movdqa	%xmm1, -160(%rbp)
Ltmp306:
	.loc	10 328 9
	leaq	l___unnamed_5(%rip), %rax
Ltmp307:
	movq	%rax, -112(%rbp)
	movq	$1, -104(%rbp)
	movq	$0, -96(%rbp)
	leaq	-160(%rbp), %rax
Ltmp308:
	movq	%rax, -80(%rbp)
	movq	$1, -72(%rbp)
Ltmp309:
Ltmp184:
	.loc	7 16 9
	leaq	l___unnamed_6(%rip), %rsi
	leaq	-112(%rbp), %rdi
Ltmp310:
	callq	__ZN4core9panicking9panic_fmt17hab6ef1464e9720aaE
Ltmp311:
Ltmp185:
	ud2
Ltmp312:
LBB13_58:
Ltmp200:
	.loc	7 0 9 is_stmt 0
	movq	%rax, %rbx
	jmp	LBB13_20
Ltmp313:
LBB13_18:
Ltmp197:
	movq	%rax, %rbx
	jmp	LBB13_19
Ltmp314:
LBB13_54:
Ltmp188:
	jmp	LBB13_55
Ltmp315:
LBB13_57:
Ltmp194:
	movq	%rax, %rbx
	jmp	LBB13_56
Ltmp316:
LBB13_53:
Ltmp191:
LBB13_55:
	movq	%rax, %rbx
	.loc	3 178 1 is_stmt 1
	leaq	96(%r14), %rdi
	callq	__ZN4core3ptr13drop_in_place17hbf6168237abb4645E
	leaq	112(%r14), %rdi
	callq	__ZN4core3ptr13drop_in_place17hb8dd4a1d8ae21de6E
Ltmp317:
LBB13_56:
	leaq	152(%r14), %rdi
	callq	__ZN4core3ptr13drop_in_place17h38cc7730b870ff45E
Ltmp318:
LBB13_19:
	leaq	160(%r14), %rdi
	callq	__ZN4core3ptr13drop_in_place17h38cc7730b870ff45E
Ltmp319:
LBB13_20:
	addq	$168, %r14
Ltmp320:
	movq	%r14, %rdi
	callq	__ZN4core3ptr13drop_in_place17h38cc7730b870ff45E
	movq	%rbx, %rdi
	callq	__Unwind_Resume
	ud2
Ltmp321:
Lfunc_end13:
	.cfi_endproc
	.file	15 "/rustc/a74d1862d4d87a56244958416fd05976c58ca1a8/src/libcore/mem/mod.rs"
	.section	__TEXT,__gcc_except_tab
	.p2align	2
GCC_except_table13:
Lexception2:
	.byte	255
	.byte	255
	.byte	1
	.uleb128 Lcst_end2-Lcst_begin2
Lcst_begin2:
	.uleb128 Ltmp186-Lfunc_begin13
	.uleb128 Ltmp187-Ltmp186
	.uleb128 Ltmp188-Lfunc_begin13
	.byte	0
	.uleb128 Ltmp189-Lfunc_begin13
	.uleb128 Ltmp190-Ltmp189
	.uleb128 Ltmp191-Lfunc_begin13
	.byte	0
	.uleb128 Ltmp192-Lfunc_begin13
	.uleb128 Ltmp193-Ltmp192
	.uleb128 Ltmp194-Lfunc_begin13
	.byte	0
	.uleb128 Ltmp195-Lfunc_begin13
	.uleb128 Ltmp196-Ltmp195
	.uleb128 Ltmp197-Lfunc_begin13
	.byte	0
	.uleb128 Ltmp198-Lfunc_begin13
	.uleb128 Ltmp199-Ltmp198
	.uleb128 Ltmp200-Lfunc_begin13
	.byte	0
	.uleb128 Ltmp199-Lfunc_begin13
	.uleb128 Ltmp184-Ltmp199
	.byte	0
	.byte	0
	.uleb128 Ltmp184-Lfunc_begin13
	.uleb128 Ltmp185-Ltmp184
	.uleb128 Ltmp188-Lfunc_begin13
	.byte	0
	.uleb128 Ltmp185-Lfunc_begin13
	.uleb128 Lfunc_end13-Ltmp185
	.byte	0
	.byte	0
Lcst_end2:
	.p2align	2

	.section	__TEXT,__text,regular,pure_instructions
	.p2align	4, 0x90
__ZN4core3str6traits105_$LT$impl$u20$core..slice..SliceIndex$LT$str$GT$$u20$for$u20$core..ops..range..RangeFrom$LT$usize$GT$$GT$5index28_$u7b$$u7b$closure$u7d$$u7d$17hb7e8a6818f537632E:
Lfunc_begin14:
	.file	16 "/rustc/a74d1862d4d87a56244958416fd05976c58ca1a8/src/libcore/str/mod.rs"
	.loc	16 2052 0
	.cfi_startproc
	pushq	%rbp
	.cfi_def_cfa_offset 16
	.cfi_offset %rbp, -16
	movq	%rsp, %rbp
	.cfi_def_cfa_register %rbp
Ltmp322:
	.loc	16 2052 71 prologue_end
	movq	(%rdi), %rcx
	.loc	16 2052 78 is_stmt 0
	movq	8(%rdi), %rdx
	.loc	16 2052 71
	movq	(%rcx), %rax
	movq	8(%rcx), %rsi
	.loc	16 2052 78
	movq	(%rdx), %rdx
	.loc	16 2052 85
	movq	16(%rdi), %rcx
	movq	(%rcx), %rcx
	.loc	16 2052 47
	leaq	l___unnamed_7(%rip), %r8
	movq	%rax, %rdi
Ltmp323:
	callq	__ZN4core3str16slice_error_fail17h6b29707aec812690E
Ltmp324:
Lfunc_end14:
	.cfi_endproc

	.p2align	4, 0x90
__ZN5alloc5alloc8box_free17ha07b7a63ceb1b1a3E:
Lfunc_begin15:
	.loc	6 281 0 is_stmt 1
	.cfi_startproc
	pushq	%rbp
	.cfi_def_cfa_offset 16
	.cfi_offset %rbp, -16
	movq	%rsp, %rbp
	.cfi_def_cfa_register %rbp
Ltmp325:
	.loc	6 102 5 prologue_end
	movl	$24, %esi
	movl	$8, %edx
	popq	%rbp
	jmp	___rust_dealloc
Ltmp326:
Lfunc_end15:
	.cfi_endproc

	.p2align	4, 0x90
__ZN5alloc5alloc8box_free17had4c9bbcee1e6d74E:
Lfunc_begin16:
	.loc	6 281 0
	.cfi_startproc
	pushq	%rbp
	.cfi_def_cfa_offset 16
	.cfi_offset %rbp, -16
	movq	%rsp, %rbp
	.cfi_def_cfa_register %rbp
	movq	%rsi, %rax
Ltmp327:
	.loc	6 282 16 prologue_end
	movq	8(%rsi), %rsi
Ltmp328:
	.loc	6 185 12
	testq	%rsi, %rsi
	.loc	6 185 9 is_stmt 0
	je	LBB16_1
Ltmp329:
	.loc	6 283 17 is_stmt 1
	movq	16(%rax), %rdx
Ltmp330:
	.loc	6 102 5
	popq	%rbp
	jmp	___rust_dealloc
Ltmp331:
LBB16_1:
	.loc	6 286 2
	popq	%rbp
	retq
Ltmp332:
Lfunc_end16:
	.cfi_endproc

	.p2align	4, 0x90
__ZN84_$LT$core..str..Split$LT$P$GT$$u20$as$u20$core..iter..traits..iterator..Iterator$GT$4next17h84447e3f0bdda094E:
Lfunc_begin17:
	.loc	16 975 0
	.cfi_startproc
	pushq	%rbp
	.cfi_def_cfa_offset 16
	.cfi_offset %rbp, -16
	movq	%rsp, %rbp
	.cfi_def_cfa_register %rbp
Ltmp333:
	pushq	%r15
	pushq	%r14
	pushq	%r13
	pushq	%r12
	pushq	%rbx
	subq	$24, %rsp
	.cfi_offset %rbx, -56
	.cfi_offset %r12, -48
	.cfi_offset %r13, -40
	.cfi_offset %r14, -32
	.cfi_offset %r15, -24
	.loc	16 1121 12 prologue_end
	cmpb	$0, 65(%rdi)
	.loc	16 1121 9 is_stmt 0
	jne	LBB17_1
Ltmp334:
	.loc	16 0 9
	movq	%rdi, %r13
Ltmp335:
	.file	17 "/rustc/a74d1862d4d87a56244958416fd05976c58ca1a8/src/libcore/str/pattern.rs"
	.loc	17 369 54 is_stmt 1
	movq	32(%rdi), %rsi
Ltmp336:
	.loc	17 369 67 is_stmt 0
	movq	40(%rdi), %rax
Ltmp337:
	.file	18 "/rustc/a74d1862d4d87a56244958416fd05976c58ca1a8/src/libcore/slice/mod.rs"
	.loc	18 2888 12 is_stmt 1
	movq	%rax, %rdx
	subq	%rsi, %rdx
Ltmp338:
	.loc	17 369 84
	jb	LBB17_16
Ltmp339:
	cmpq	%rax, 24(%r13)
	jb	LBB17_16
Ltmp340:
	.loc	16 0 0 is_stmt 0
	movq	16(%r13), %rcx
Ltmp341:
	.loc	17 372 71 is_stmt 1
	movq	48(%r13), %rax
Ltmp342:
	.loc	17 0 71 is_stmt 0
	movq	%rcx, -56(%rbp)
Ltmp343:
	.loc	18 2888 12 is_stmt 1
	addq	%rcx, %rsi
Ltmp344:
	.loc	17 373 34
	movzbl	59(%rax,%r13), %edi
	callq	__ZN4core5slice6memchr6memchr17h319ffdabcbdf42caE
Ltmp345:
	.loc	17 373 20 is_stmt 0
	cmpq	$1, %rax
	jne	LBB17_15
Ltmp346:
	.loc	17 0 20
	leaq	60(%r13), %rax
	movq	%rax, -48(%rbp)
Ltmp347:
	.p2align	4, 0x90
LBB17_6:
	.loc	17 391 17 is_stmt 1
	movq	32(%r13), %rax
	.loc	17 392 35
	movq	48(%r13), %r15
Ltmp348:
	.loc	17 391 17
	leaq	1(%rdx,%rax), %rbx
Ltmp349:
	movq	%rbx, 32(%r13)
	.loc	17 392 20
	movq	%rbx, %r12
	subq	%r15, %r12
	.loc	17 392 17 is_stmt 0
	jae	LBB17_8
Ltmp350:
	.loc	17 369 25 is_stmt 1
	movq	24(%r13), %r14
Ltmp351:
	.loc	17 369 67 is_stmt 0
	movq	40(%r13), %rax
Ltmp352:
	.loc	18 2888 12 is_stmt 1
	movq	%rax, %rdx
	subq	%rbx, %rdx
	jae	LBB17_13
	jmp	LBB17_16
Ltmp353:
	.p2align	4, 0x90
LBB17_8:
	.loc	17 394 42
	movq	24(%r13), %r14
Ltmp354:
	.loc	18 2888 37
	cmpq	%rbx, %r14
Ltmp355:
	.loc	17 394 28
	jb	LBB17_12
Ltmp356:
	.loc	18 2918 19
	cmpq	$5, %r15
	.loc	18 2918 16 is_stmt 0
	jae	LBB17_23
Ltmp357:
	.loc	18 0 16
	movq	16(%r13), %rdi
	addq	%r12, %rdi
Ltmp358:
	.loc	18 5863 12 is_stmt 1
	cmpq	-48(%rbp), %rdi
	.loc	18 5863 9 is_stmt 0
	je	LBB17_21
Ltmp359:
	.loc	18 0 9
	movq	-48(%rbp), %rsi
Ltmp360:
	.loc	18 5868 13 is_stmt 1
	movq	%r15, %rdx
Ltmp361:
	callq	_bcmp
Ltmp362:
	testl	%eax, %eax
Ltmp363:
	.loc	17 395 25
	je	LBB17_21
Ltmp364:
LBB17_12:
	.loc	17 369 67
	movq	40(%r13), %rax
Ltmp365:
	.loc	18 2888 12
	movq	%rax, %rdx
	subq	%rbx, %rdx
Ltmp366:
	.loc	17 369 84
	jb	LBB17_16
Ltmp367:
LBB17_13:
	cmpq	%rax, %r14
	jb	LBB17_16
Ltmp368:
	.loc	18 2888 12
	addq	16(%r13), %rbx
Ltmp369:
	.loc	17 373 34
	movzbl	59(%r15,%r13), %edi
	movq	%rbx, %rsi
	callq	__ZN4core5slice6memchr6memchr17h319ffdabcbdf42caE
Ltmp370:
	.loc	17 373 20 is_stmt 0
	cmpq	$1, %rax
	je	LBB17_6
Ltmp371:
LBB17_15:
	.loc	17 402 31 is_stmt 1
	movq	40(%r13), %rax
	.loc	17 402 17 is_stmt 0
	movq	%rax, 32(%r13)
Ltmp372:
LBB17_16:
	.loc	16 1107 13 is_stmt 1
	cmpb	$0, 65(%r13)
	.loc	16 1107 12 is_stmt 0
	je	LBB17_17
Ltmp373:
LBB17_1:
	.loc	16 0 12
	xorl	%eax, %eax
LBB17_22:
	.loc	16 977 14 is_stmt 1
	movq	%r12, %rdx
	addq	$24, %rsp
	popq	%rbx
	popq	%r12
	popq	%r13
	popq	%r14
	popq	%r15
	popq	%rbp
	retq
LBB17_17:
Ltmp374:
	.loc	16 1107 31
	cmpb	$0, 64(%r13)
	.loc	16 1107 30 is_stmt 0
	je	LBB17_19
Ltmp375:
	.loc	16 1111 68 is_stmt 1
	movq	(%r13), %rax
	.loc	16 1111 80 is_stmt 0
	movq	8(%r13), %r12
	jmp	LBB17_20
Ltmp376:
LBB17_19:
	.loc	16 1107 71 is_stmt 1
	movq	(%r13), %rax
	.loc	16 1107 60 is_stmt 0
	movq	8(%r13), %r12
	cmpq	%rax, %r12
	.loc	16 1107 12
	je	LBB17_1
Ltmp377:
LBB17_20:
	.loc	16 1108 13 is_stmt 1
	movb	$1, 65(%r13)
Ltmp378:
	.loc	16 1908 23
	subq	%rax, %r12
Ltmp379:
	.file	19 "/rustc/a74d1862d4d87a56244958416fd05976c58ca1a8/src/libcore/ptr/const_ptr.rs"
	.loc	19 158 9
	addq	16(%r13), %rax
Ltmp380:
	.loc	19 0 9 is_stmt 0
	jmp	LBB17_22
Ltmp381:
LBB17_21:
	.loc	16 1129 50 is_stmt 1
	movq	(%r13), %rcx
Ltmp382:
	.loc	16 0 50 is_stmt 0
	movq	-56(%rbp), %rax
Ltmp383:
	.loc	19 158 9 is_stmt 1
	addq	%rcx, %rax
Ltmp384:
	.loc	16 1908 23
	subq	%rcx, %r12
Ltmp385:
	.loc	16 1130 17
	movq	%rbx, (%r13)
	jmp	LBB17_22
Ltmp386:
LBB17_23:
	.loc	18 2919 13
	leaq	l___unnamed_8(%rip), %rdx
Ltmp387:
	movl	$4, %esi
	movq	%r15, %rdi
	callq	__ZN4core5slice20slice_index_len_fail17h550a313151a85135E
Ltmp388:
Lfunc_end17:
	.cfi_endproc
	.file	20 "/rustc/a74d1862d4d87a56244958416fd05976c58ca1a8/src/libcore/cmp.rs"

	.p2align	4, 0x90
__ZN18build_script_build4main17hdb84e851e1c5020dE:
Lfunc_begin18:
	.file	21 "/Users/yingyuhang/.cargo/registry/src/github.com-1ecc6299db9ec823/syn-1.0.33/build.rs"
	.loc	21 8 0
	.cfi_startproc
	.cfi_personality 155, _rust_eh_personality
	.cfi_lsda 16, Lexception3
	pushq	%rbp
	.cfi_def_cfa_offset 16
	.cfi_offset %rbp, -16
	movq	%rsp, %rbp
	.cfi_def_cfa_register %rbp
Ltmp430:
	pushq	%r15
	pushq	%r14
	pushq	%r13
	pushq	%r12
	pushq	%rbx
	subq	$552, %rsp
	.cfi_offset %rbx, -56
	.cfi_offset %r12, -48
	.cfi_offset %r13, -40
	.cfi_offset %r14, -32
	.cfi_offset %r15, -24
Ltmp431:
	.file	22 "/rustc/a74d1862d4d87a56244958416fd05976c58ca1a8/src/libstd/env.rs"
	.loc	22 246 5 prologue_end
	leaq	l___unnamed_9(%rip), %rsi
	leaq	-296(%rbp), %rdi
	movl	$5, %edx
	callq	__ZN3std3env7_var_os17hc8b7303001145450E
Ltmp432:
	.loc	2 1698 9
	movq	-296(%rbp), %rbx
Ltmp433:
	.loc	2 540 13
	testq	%rbx, %rbx
	je	LBB18_70
Ltmp434:
	.loc	21 0 0 is_stmt 0
	movq	-288(%rbp), %r14
Ltmp435:
	movq	-280(%rbp), %rdx
Ltmp436:
	.loc	21 30 31 is_stmt 1
	movq	%rbx, -320(%rbp)
	movq	%r14, -312(%rbp)
	movq	%rdx, -304(%rbp)
Ltmp437:
Ltmp389:
	.loc	21 0 31 is_stmt 0
	leaq	-296(%rbp), %rdi
Ltmp438:
	.file	23 "/rustc/a74d1862d4d87a56244958416fd05976c58ca1a8/src/libstd/process.rs"
	.loc	23 501 26 is_stmt 1
	movq	%rbx, %rsi
	callq	__ZN3std3sys4unix7process14process_common7Command3new17hcd746a384cbb0b47E
Ltmp439:
Ltmp390:
	.loc	23 0 26 is_stmt 0
	leaq	-592(%rbp), %rdi
	leaq	-296(%rbp), %rsi
	.loc	23 501 9
	movl	$184, %edx
	callq	_memcpy
Ltmp440:
	.loc	12 200 40 is_stmt 1
	testq	%r14, %r14
	.loc	12 200 9 is_stmt 0
	je	LBB18_4
Ltmp441:
	.loc	6 102 5 is_stmt 1
	movl	$1, %edx
	movq	%rbx, %rdi
	movq	%r14, %rsi
	callq	___rust_dealloc
Ltmp442:
LBB18_4:
Ltmp392:
	.loc	23 542 9
	leaq	l___unnamed_10(%rip), %rsi
	leaq	-592(%rbp), %rdi
	movl	$9, %edx
	callq	__ZN3std3sys4unix7process14process_common7Command3arg17hc476c471a9efd12bE
Ltmp393:
Ltmp443:
Ltmp394:
	.loc	23 0 9 is_stmt 0
	leaq	-296(%rbp), %rdi
	leaq	-592(%rbp), %rsi
	.loc	21 30 18 is_stmt 1
	callq	__ZN3std7process7Command6output17h3119df81721f3b73E
Ltmp395:
Ltmp444:
	.loc	8 396 13
	cmpq	$1, -296(%rbp)
	jne	LBB18_7
Ltmp445:
	.loc	3 178 1
	cmpb	$2, -288(%rbp)
	jb	LBB18_13
Ltmp446:
	.loc	3 178 1 is_stmt 0
	movq	-280(%rbp), %rbx
Ltmp447:
	.loc	3 178 1
	movq	(%rbx), %rdi
	movq	8(%rbx), %rax
Ltmp397:
	callq	*(%rax)
Ltmp398:
Ltmp448:
	movq	8(%rbx), %rax
Ltmp449:
	.loc	6 282 16 is_stmt 1
	movq	8(%rax), %rsi
Ltmp450:
	.loc	6 185 12
	testq	%rsi, %rsi
	.loc	6 185 9 is_stmt 0
	je	LBB18_12
Ltmp451:
	.loc	3 178 1 is_stmt 1
	movq	(%rbx), %rdi
Ltmp452:
	.loc	6 283 17
	movq	16(%rax), %rdx
Ltmp453:
	.loc	6 102 5
	callq	___rust_dealloc
Ltmp454:
LBB18_12:
	.loc	6 102 5 is_stmt 0
	movl	$24, %esi
	movl	$8, %edx
	movq	%rbx, %rdi
	callq	___rust_dealloc
Ltmp455:
LBB18_13:
	.loc	6 0 5
	xorl	%r15d, %r15d
	jmp	LBB18_14
Ltmp456:
LBB18_7:
	.loc	8 396 27 is_stmt 1
	movq	-288(%rbp), %r15
Ltmp457:
	movq	-280(%rbp), %r12
Ltmp458:
	movq	-272(%rbp), %rbx
Ltmp459:
	movq	-264(%rbp), %rax
Ltmp460:
	.loc	8 0 27 is_stmt 0
	movq	%rax, -56(%rbp)
	.loc	8 396 27
	movq	-256(%rbp), %rax
Ltmp461:
	.loc	8 0 27
	movq	%rax, -48(%rbp)
	.loc	8 396 27
	movq	-248(%rbp), %rax
	movq	%rax, -112(%rbp)
	movq	-240(%rbp), %rax
	movq	%rax, -104(%rbp)
Ltmp462:
LBB18_14:
	.loc	2 1698 9 is_stmt 1
	movq	-112(%rbp), %rax
	movq	-104(%rbp), %rcx
	movq	%rcx, -288(%rbp)
	movq	%rax, -296(%rbp)
Ltmp463:
	.loc	2 540 13
	testq	%r15, %r15
	je	LBB18_126
Ltmp464:
	.loc	2 540 27 is_stmt 0
	movq	-296(%rbp), %rax
	movq	-288(%rbp), %rcx
	movq	%rcx, -336(%rbp)
	movq	%rax, -344(%rbp)
Ltmp465:
	.loc	21 30 18 is_stmt 1
	movq	%r15, -408(%rbp)
	movq	%r12, -400(%rbp)
	movq	%rbx, -392(%rbp)
Ltmp466:
	.loc	21 0 18 is_stmt 0
	movq	-56(%rbp), %rdx
	.loc	21 30 18
	movq	%rdx, -384(%rbp)
	movq	-48(%rbp), %rdx
	movq	%rdx, -376(%rbp)
	movq	%rax, -368(%rbp)
	movq	%rcx, -360(%rbp)
Ltmp400:
	leaq	-592(%rbp), %rdi
Ltmp467:
	.loc	21 30 69
	callq	__ZN4core3ptr13drop_in_place17he5be0a2995d52c6fE
Ltmp401:
Ltmp468:
Ltmp402:
	.loc	21 0 69
	leaq	-296(%rbp), %rdi
Ltmp469:
	.loc	21 31 19 is_stmt 1
	movq	%r15, %rsi
	movq	%rbx, %rdx
	callq	__ZN4core3str9from_utf817he06957962f38305fE
Ltmp403:
Ltmp470:
	.loc	8 396 13
	cmpq	$1, -296(%rbp)
Ltmp471:
	.loc	21 31 54
	je	LBB18_121
	.loc	21 0 0 is_stmt 0
	movq	-288(%rbp), %r13
Ltmp472:
	.loc	21 31 54
	testq	%r13, %r13
	je	LBB18_121
Ltmp473:
	.loc	21 0 0
	movq	-280(%rbp), %r14
Ltmp474:
	.loc	16 3299 9 is_stmt 1
	movq	$0, -592(%rbp)
	movq	%r14, -584(%rbp)
	movq	%r13, -576(%rbp)
	movq	%r14, -568(%rbp)
	movq	$0, -560(%rbp)
	movq	%r14, -552(%rbp)
	movq	$1, -544(%rbp)
	movabsq	$197568495662, %rax
	movq	%rax, -536(%rbp)
	movw	$1, -528(%rbp)
Ltmp404:
	leaq	-592(%rbp), %rdi
Ltmp475:
	.loc	21 33 8
	callq	__ZN84_$LT$core..str..Split$LT$P$GT$$u20$as$u20$core..iter..traits..iterator..Iterator$GT$4next17h84447e3f0bdda094E
Ltmp405:
Ltmp476:
	.loc	2 151 16
	xorl	%esi, %esi
	testq	%rax, %rax
	setne	%sil
Ltmp477:
	.loc	2 151 16 is_stmt 0
	leaq	l___unnamed_11(%rip), %rcx
	xorl	%edi, %edi
	testq	%rcx, %rcx
	setne	%dil
Ltmp478:
	cmpq	%rdi, %rsi
	jne	LBB18_121
Ltmp479:
	testq	%rax, %rax
	je	LBB18_26
Ltmp480:
	.loc	2 0 16
	testq	%rcx, %rcx
	.loc	2 151 16
	je	LBB18_26
Ltmp481:
	.loc	18 5860 12 is_stmt 1
	cmpq	$7, %rdx
	.loc	18 5860 9 is_stmt 0
	jne	LBB18_121
Ltmp482:
	.loc	18 5863 12 is_stmt 1
	cmpq	%rcx, %rax
	.loc	18 5863 9 is_stmt 0
	je	LBB18_26
Ltmp483:
	.loc	18 0 9
	movl	$1953723762, %ecx
Ltmp484:
	.loc	18 5868 13 is_stmt 1
	xorl	(%rax), %ecx
	movl	$824206196, %edx
Ltmp485:
	xorl	3(%rax), %edx
	orl	%ecx, %edx
Ltmp486:
	.loc	21 33 5
	jne	LBB18_121
Ltmp487:
LBB18_26:
Ltmp406:
	.loc	21 0 5 is_stmt 0
	leaq	-592(%rbp), %rdi
	.loc	21 36 17 is_stmt 1
	callq	__ZN84_$LT$core..str..Split$LT$P$GT$$u20$as$u20$core..iter..traits..iterator..Iterator$GT$4next17h84447e3f0bdda094E
Ltmp407:
Ltmp488:
	.loc	21 36 30 is_stmt 0
	testq	%rax, %rax
	je	LBB18_121
Ltmp489:
Ltmp408:
	.loc	16 4280 9 is_stmt 1
	movq	%rax, %rdi
	movq	%rdx, %rsi
	callq	__ZN4core3num52_$LT$impl$u20$core..str..FromStr$u20$for$u20$u32$GT$8from_str17hb8ee2851a4cfefb0E
Ltmp490:
	.loc	16 0 9 is_stmt 0
	movq	%rax, -96(%rbp)
Ltmp409:
Ltmp491:
	.loc	21 36 44 is_stmt 1
	testb	$1, -96(%rbp)
	jne	LBB18_121
Ltmp492:
Ltmp410:
	.loc	17 830 9
	leaq	l___unnamed_12(%rip), %rcx
Ltmp493:
	.loc	17 0 9 is_stmt 0
	leaq	-296(%rbp), %rdi
	.loc	17 830 9
	movl	$7, %r8d
	movq	%r13, %rsi
	movq	%r14, %rdx
	callq	__ZN4core3str7pattern11StrSearcher3new17hf20175b25b057116E
Ltmp494:
Ltmp411:
	.loc	17 977 13 is_stmt 1
	cmpq	$1, -264(%rbp)
	jne	LBB18_32
Ltmp495:
	.loc	17 985 31
	movq	-208(%rbp), %r10
Ltmp496:
	.loc	17 0 0 is_stmt 0
	movq	-272(%rbp), %rsi
Ltmp497:
	leaq	-1(%rsi), %r8
	movq	-296(%rbp), %r13
Ltmp498:
	movq	-288(%rbp), %r9
Ltmp499:
	movq	-280(%rbp), %rbx
Ltmp500:
	movq	-224(%rbp), %rdx
	leaq	-1(%rsi,%rdx), %rcx
Ltmp501:
	.loc	17 985 31
	cmpq	$-1, %r10
Ltmp502:
	.loc	17 0 31
	movq	%rbx, -88(%rbp)
Ltmp503:
	.loc	17 988 17 is_stmt 1
	je	LBB18_77
Ltmp504:
	.loc	17 0 0 is_stmt 0
	cmpq	%r9, %rcx
Ltmp505:
	.loc	17 1271 17 is_stmt 1
	jae	LBB18_94
Ltmp506:
	.loc	17 0 0 is_stmt 0
	movq	-232(%rbp), %rdi
	movq	-256(%rbp), %r14
Ltmp507:
	movq	-240(%rbp), %r11
	movq	%rsi, %rax
	movq	%r11, -72(%rbp)
	subq	%r11, %rax
	movq	%rax, -328(%rbp)
	movq	%r14, %rax
	negq	%rax
	movq	%rax, -80(%rbp)
	movq	%rdi, -64(%rbp)
	jmp	LBB18_101
Ltmp508:
LBB18_121:
	.loc	12 200 40 is_stmt 1
	testq	%r12, %r12
	.loc	12 200 9 is_stmt 0
	je	LBB18_123
Ltmp509:
	.loc	6 102 5 is_stmt 1
	movl	$1, %edx
	movq	%r15, %rdi
	movq	%r12, %rsi
	callq	___rust_dealloc
Ltmp510:
LBB18_123:
	.loc	12 532 16
	cmpq	$0, -56(%rbp)
Ltmp511:
	.loc	12 200 9
	je	LBB18_70
Ltmp512:
	cmpq	$0, -48(%rbp)
	je	LBB18_70
Ltmp513:
	.loc	6 102 5
	movl	$1, %edx
	movq	-56(%rbp), %rdi
	movq	-48(%rbp), %rsi
	callq	___rust_dealloc
	jmp	LBB18_70
Ltmp514:
LBB18_126:
Ltmp427:
	.loc	6 0 5 is_stmt 0
	leaq	-592(%rbp), %rdi
	.loc	21 30 69 is_stmt 1
	callq	__ZN4core3ptr13drop_in_place17he5be0a2995d52c6fE
Ltmp428:
Ltmp515:
LBB18_70:
	.loc	21 21 2
	addq	$552, %rsp
	popq	%rbx
	popq	%r12
	popq	%r13
	popq	%r14
	popq	%r15
	popq	%rbp
	retq
LBB18_32:
Ltmp516:
	.loc	17 933 32
	movb	-240(%rbp), %r9b
Ltmp517:
	.loc	17 935 27
	movq	-256(%rbp), %rax
Ltmp518:
	.loc	17 936 23
	movq	-296(%rbp), %r10
Ltmp519:
	movq	-288(%rbp), %rsi
Ltmp520:
	.loc	19 0 0 is_stmt 0
	leaq	(%r10,%rsi), %r8
	jmp	LBB18_34
Ltmp521:
LBB18_33:
	.loc	17 940 25 is_stmt 1
	addq	%rcx, %rax
Ltmp522:
LBB18_34:
	.loc	17 933 32
	movl	%r9d, %ecx
Ltmp523:
	testb	%r9b, %r9b
	sete	%r9b
Ltmp524:
	.loc	17 0 32 is_stmt 0
	movq	%r10, -112(%rbp)
	movq	%rsi, -104(%rbp)
Ltmp525:
	.loc	16 2051 18 is_stmt 1
	movq	%rax, -352(%rbp)
	.loc	16 2051 25 is_stmt 0
	movq	%rsi, -344(%rbp)
Ltmp526:
	.loc	16 2303 12 is_stmt 1
	testq	%rax, %rax
	je	LBB18_40
Ltmp527:
	cmpq	%rax, %rsi
	je	LBB18_40
Ltmp528:
	.loc	16 2307 13
	jbe	LBB18_38
Ltmp529:
	.loc	16 2309 25
	cmpb	$-65, (%r10,%rax)
Ltmp530:
	.loc	16 2021 13
	jle	LBB18_38
Ltmp531:
LBB18_40:
	.loc	16 0 13 is_stmt 0
	movl	$1114112, %edi
Ltmp532:
	.loc	16 2303 26 is_stmt 1
	cmpq	%rax, %rsi
Ltmp533:
	.loc	18 3303 21
	je	LBB18_58
Ltmp534:
	.loc	17 0 0 is_stmt 0
	leaq	(%r10,%rax), %rdx
Ltmp535:
	.loc	16 519 13 is_stmt 1
	movzbl	(%rdx), %edi
Ltmp536:
	.loc	16 520 8
	testb	%dil, %dil
	.loc	16 520 5 is_stmt 0
	jns	LBB18_58
Ltmp537:
	.loc	16 0 0
	leaq	1(%rdx), %rbx
Ltmp538:
	.loc	18 3179 9 is_stmt 1
	cmpq	%r8, %rbx
	.loc	18 3303 21
	je	LBB18_43
Ltmp539:
	.loc	16 508 15
	movzbl	1(%rdx), %ebx
Ltmp540:
	.file	24 "/rustc/a74d1862d4d87a56244958416fd05976c58ca1a8/src/libcore/ptr/mut_ptr.rs"
	.loc	24 152 9
	addq	$2, %rdx
Ltmp541:
	.loc	16 507 5
	andl	$63, %ebx
Ltmp542:
	.loc	16 0 0 is_stmt 0
	movl	%edi, %r11d
	andl	$31, %r11d
Ltmp543:
	.loc	16 530 8 is_stmt 1
	cmpb	$-33, %dil
	.loc	16 530 5 is_stmt 0
	ja	LBB18_48
	jmp	LBB18_46
Ltmp544:
LBB18_43:
	.loc	16 0 5
	xorl	%ebx, %ebx
	movq	%r8, %rdx
	movl	%edi, %r11d
	andl	$31, %r11d
Ltmp545:
	.loc	16 530 8
	cmpb	$-33, %dil
	.loc	16 530 5
	jbe	LBB18_46
Ltmp546:
LBB18_48:
	.loc	18 3179 9 is_stmt 1
	cmpq	%r8, %rdx
	.loc	18 3303 21
	je	LBB18_49
Ltmp547:
	.loc	16 508 15
	movzbl	(%rdx), %r14d
Ltmp548:
	.loc	24 152 9
	incq	%rdx
Ltmp549:
	.loc	16 507 5
	andl	$63, %r14d
Ltmp550:
	.loc	16 495 5
	shll	$6, %ebx
	orl	%r14d, %ebx
Ltmp551:
	.loc	16 536 12
	cmpb	$-16, %dil
	.loc	16 536 9 is_stmt 0
	jae	LBB18_53
	jmp	LBB18_52
Ltmp552:
LBB18_46:
	.loc	16 0 9
	shll	$6, %r11d
Ltmp553:
	orl	%r11d, %ebx
Ltmp554:
	jmp	LBB18_57
Ltmp555:
LBB18_49:
	xorl	%r14d, %r14d
Ltmp556:
	movq	%r8, %rdx
Ltmp557:
	.loc	16 495 5 is_stmt 1
	shll	$6, %ebx
	orl	%r14d, %ebx
Ltmp558:
	.loc	16 536 12
	cmpb	$-16, %dil
	.loc	16 536 9 is_stmt 0
	jb	LBB18_52
Ltmp559:
LBB18_53:
	.loc	18 3179 9 is_stmt 1
	cmpq	%r8, %rdx
	.loc	18 3303 21
	je	LBB18_54
Ltmp560:
	.loc	16 508 15
	movzbl	(%rdx), %edx
	.loc	16 507 5
	andl	$63, %edx
	jmp	LBB18_56
Ltmp561:
LBB18_52:
	.loc	16 0 5 is_stmt 0
	shll	$12, %r11d
Ltmp562:
	orl	%r11d, %ebx
Ltmp563:
	jmp	LBB18_57
Ltmp564:
LBB18_54:
	xorl	%edx, %edx
Ltmp565:
LBB18_56:
	.loc	16 540 18 is_stmt 1
	andl	$7, %r11d
Ltmp566:
	shll	$18, %r11d
Ltmp567:
	.loc	16 495 5
	shll	$6, %ebx
Ltmp568:
	orl	%r11d, %ebx
Ltmp569:
	.loc	16 540 13
	orl	%edx, %ebx
Ltmp570:
LBB18_57:
	.loc	16 0 13 is_stmt 0
	movl	%ebx, %edi
Ltmp571:
LBB18_58:
	.loc	17 933 32 is_stmt 1
	testb	%cl, %cl
Ltmp572:
	.loc	17 937 26
	jne	LBB18_59
Ltmp573:
	.loc	17 938 21
	cmpl	$1114112, %edi
	je	LBB18_75
Ltmp574:
	.loc	17 0 21 is_stmt 0
	movl	$1, %ecx
Ltmp575:
	.file	25 "/rustc/a74d1862d4d87a56244958416fd05976c58ca1a8/src/libcore/char/methods.rs"
	.loc	25 360 12 is_stmt 1
	cmpl	$128, %edi
	.loc	25 360 9 is_stmt 0
	jb	LBB18_33
Ltmp576:
	.loc	25 0 9
	movl	$2, %ecx
	.loc	25 362 19 is_stmt 1
	cmpl	$2048, %edi
	.loc	25 362 16 is_stmt 0
	jb	LBB18_33
Ltmp577:
	.loc	25 364 19 is_stmt 1
	cmpl	$65536, %edi
	.loc	25 364 16 is_stmt 0
	movl	$4, %ecx
	sbbq	$0, %rcx
	jmp	LBB18_33
Ltmp578:
LBB18_102:
	.loc	17 1284 17 is_stmt 1
	addq	%rsi, %rdx
	xorl	%r10d, %r10d
Ltmp579:
	.loc	17 1270 48
	leaq	(%rdx,%r8), %rcx
Ltmp580:
	.loc	18 2851 12
	cmpq	%r9, %rcx
Ltmp581:
	.loc	17 1271 17
	jae	LBB18_117
Ltmp582:
LBB18_101:
	.loc	17 1250 9
	movzbl	(%r13,%rcx), %eax
	btq	%rax, %rdi
Ltmp583:
	.loc	17 1283 13
	jae	LBB18_102
Ltmp584:
	.loc	17 0 13 is_stmt 0
	movq	%r8, %r11
Ltmp585:
	.loc	20 1017 9 is_stmt 1
	cmpq	%r10, %r14
	.loc	20 0 0 is_stmt 0
	movq	%r10, %rcx
	cmovaq	%r14, %rcx
Ltmp586:
	.loc	17 1294 13 is_stmt 1
	addq	%rcx, %rbx
	leaq	(%rdx,%rcx), %r8
Ltmp587:
LBB18_104:
	.loc	20 1137 52
	cmpq	%rsi, %rcx
Ltmp588:
	.file	26 "/rustc/a74d1862d4d87a56244958416fd05976c58ca1a8/src/libcore/iter/range.rs"
	.loc	26 211 9
	jae	LBB18_105
Ltmp589:
	.loc	17 1295 33
	cmpq	%r9, %r8
	jae	LBB18_118
Ltmp590:
	.file	27 "/rustc/a74d1862d4d87a56244958416fd05976c58ca1a8/src/libcore/num/mod.rs"
	.loc	27 3632 30
	incq	%rcx
Ltmp591:
	.loc	17 1295 20
	movzbl	(%rbx), %eax
	.loc	17 1295 17 is_stmt 0
	incq	%rbx
	leaq	1(%r8), %rdi
	.loc	17 1295 20
	cmpb	(%r13,%r8), %al
Ltmp592:
	.loc	17 0 0
	movq	%rdi, %r8
Ltmp593:
	.loc	17 1295 17
	je	LBB18_104
Ltmp594:
	.loc	17 1297 21 is_stmt 1
	addq	-80(%rbp), %rdi
	xorl	%r10d, %r10d
Ltmp595:
	.loc	17 1270 48
	movq	%rdi, %rdx
	movq	%r11, %r8
	movq	-88(%rbp), %rbx
	movq	-64(%rbp), %rdi
	leaq	(%rdx,%r8), %rcx
Ltmp596:
	.loc	18 2851 12
	cmpq	%r9, %rcx
Ltmp597:
	.loc	17 1271 17
	jb	LBB18_101
	jmp	LBB18_117
Ltmp598:
LBB18_105:
	.loc	17 0 0 is_stmt 0
	movq	%r14, %rdi
	movq	%r11, %r8
	movq	-88(%rbp), %rbx
Ltmp599:
LBB18_106:
	.loc	20 1137 52 is_stmt 1
	cmpq	%rdi, %r10
Ltmp600:
	.loc	26 282 9
	jae	LBB18_107
Ltmp601:
	.file	28 "/rustc/a74d1862d4d87a56244958416fd05976c58ca1a8/src/libcore/ops/arith.rs"
	.loc	28 194 45
	decq	%rdi
Ltmp602:
	.loc	17 1307 20
	cmpq	%rsi, %rdi
	jae	LBB18_119
Ltmp603:
	.loc	17 1307 42 is_stmt 0
	leaq	(%rdi,%rdx), %rcx
Ltmp604:
	.loc	17 1307 33
	cmpq	%r9, %rcx
	jae	LBB18_120
Ltmp605:
	.loc	17 1307 20
	movzbl	(%rbx,%rdi), %eax
	cmpb	(%r13,%rcx), %al
	.loc	17 1307 17
	je	LBB18_106
Ltmp606:
	.loc	17 1308 21 is_stmt 1
	addq	-72(%rbp), %rdx
	movq	-328(%rbp), %r10
	movq	-64(%rbp), %rdi
Ltmp607:
	.loc	17 1270 48
	leaq	(%rdx,%r8), %rcx
Ltmp608:
	.loc	18 2851 12
	cmpq	%r9, %rcx
Ltmp609:
	.loc	17 1271 17
	jb	LBB18_101
Ltmp610:
LBB18_117:
	.loc	17 1286 21
	movq	%r10, -208(%rbp)
	jmp	LBB18_93
Ltmp611:
LBB18_59:
	.loc	17 0 21 is_stmt 0
	movb	$1, %bl
	jmp	LBB18_60
Ltmp612:
LBB18_75:
	xorl	%ebx, %ebx
Ltmp613:
LBB18_60:
	.loc	17 934 17 is_stmt 1
	movb	%r9b, -240(%rbp)
Ltmp614:
	.loc	17 940 25
	movq	%rax, -256(%rbp)
	shrq	$32, -96(%rbp)
Ltmp615:
	.loc	12 200 40
	testq	%r12, %r12
	.loc	12 200 9 is_stmt 0
	jne	LBB18_62
	jmp	LBB18_63
Ltmp616:
LBB18_77:
	.loc	17 0 0
	cmpq	%r9, %rcx
Ltmp617:
	.loc	17 1271 17 is_stmt 1
	jae	LBB18_94
Ltmp618:
	.loc	17 0 0 is_stmt 0
	movq	-232(%rbp), %rax
	movq	%rax, -64(%rbp)
	movq	%rbx, %rax
	movq	-256(%rbp), %rbx
Ltmp619:
	movq	-240(%rbp), %rdi
	movq	%rdi, -72(%rbp)
	addq	%rbx, %rax
	movq	%rax, -80(%rbp)
	leaq	(%r13,%rbx), %r11
	jmp	LBB18_79
Ltmp620:
LBB18_90:
	.loc	17 1284 17 is_stmt 1
	addq	%rsi, %r14
Ltmp621:
LBB18_91:
	.loc	17 1270 48
	movq	%r14, %rdx
Ltmp622:
LBB18_92:
	leaq	(%rdx,%r8), %rcx
Ltmp623:
	.loc	18 2851 12
	cmpq	%r9, %rcx
Ltmp624:
	.loc	17 1271 17
	jae	LBB18_93
Ltmp625:
LBB18_79:
	.loc	17 0 17 is_stmt 0
	movq	%rdx, %r14
Ltmp626:
	.loc	17 1250 9 is_stmt 1
	movzbl	(%r13,%rcx), %ecx
	movq	-64(%rbp), %rax
	btq	%rcx, %rax
Ltmp627:
	.loc	17 1283 13
	jae	LBB18_90
Ltmp628:
	.loc	17 0 0 is_stmt 0
	xorl	%ecx, %ecx
	movq	%r14, %rdx
	movq	-80(%rbp), %r10
Ltmp629:
LBB18_81:
	leaq	(%rbx,%rcx), %rdi
Ltmp630:
	.loc	20 1137 52 is_stmt 1
	cmpq	%rsi, %rdi
Ltmp631:
	.loc	26 211 9
	jae	LBB18_82
Ltmp632:
	.loc	17 1295 33
	leaq	(%rbx,%rdx), %rdi
	cmpq	%r9, %rdi
	jae	LBB18_96
Ltmp633:
	.loc	17 1295 20 is_stmt 0
	movzbl	(%r10), %eax
	.loc	17 1295 17
	incq	%r10
	incq	%rcx
	.loc	17 1295 20
	cmpb	(%r11,%rdx), %al
	.loc	17 1295 17
	leaq	1(%rdx), %rdx
	je	LBB18_81
	jmp	LBB18_92
Ltmp634:
LBB18_82:
	.loc	17 0 0
	movq	%rbx, %rdi
Ltmp635:
LBB18_83:
	.loc	20 1137 52 is_stmt 1
	testq	%rdi, %rdi
Ltmp636:
	.loc	26 282 9
	je	LBB18_95
Ltmp637:
	.loc	28 194 45
	decq	%rdi
Ltmp638:
	.loc	17 1307 20
	cmpq	%rsi, %rdi
	jae	LBB18_97
Ltmp639:
	.loc	17 1307 42 is_stmt 0
	leaq	(%rdi,%r14), %rcx
	.loc	17 1307 33
	cmpq	%r9, %rcx
	jae	LBB18_98
Ltmp640:
	.loc	17 0 33
	movq	-88(%rbp), %rax
	.loc	17 1307 20
	movzbl	(%rax,%rdi), %edx
	cmpb	(%r13,%rcx), %dl
	.loc	17 1307 17
	je	LBB18_83
Ltmp641:
	.loc	17 1308 21 is_stmt 1
	addq	-72(%rbp), %r14
	jmp	LBB18_91
Ltmp642:
LBB18_107:
	.loc	17 1320 13
	addq	%rsi, %rdx
	movq	%rdx, -224(%rbp)
	.loc	17 1322 17
	movq	$0, -208(%rbp)
	movb	$1, %bl
	shrq	$32, -96(%rbp)
Ltmp643:
	.loc	12 200 40
	testq	%r12, %r12
	.loc	12 200 9 is_stmt 0
	jne	LBB18_62
	jmp	LBB18_63
Ltmp644:
LBB18_95:
	.loc	17 1320 13 is_stmt 1
	addq	%rsi, %r14
	movq	%r14, -224(%rbp)
	movb	$1, %bl
	shrq	$32, -96(%rbp)
Ltmp645:
	.loc	12 200 40
	testq	%r12, %r12
	.loc	12 200 9 is_stmt 0
	jne	LBB18_62
	jmp	LBB18_63
Ltmp646:
LBB18_93:
	.loc	17 0 0
	movq	%rdx, -224(%rbp)
Ltmp647:
LBB18_94:
	movq	%r9, -224(%rbp)
	xorl	%ebx, %ebx
	shrq	$32, -96(%rbp)
Ltmp648:
	.loc	12 200 40
	testq	%r12, %r12
	.loc	12 200 9
	je	LBB18_63
Ltmp649:
LBB18_62:
	.loc	6 102 5 is_stmt 1
	movl	$1, %edx
	movq	%r15, %rdi
	movq	%r12, %rsi
	callq	___rust_dealloc
Ltmp650:
LBB18_63:
	.loc	12 532 16
	cmpq	$0, -56(%rbp)
Ltmp651:
	.loc	12 200 9
	je	LBB18_66
Ltmp652:
	cmpq	$0, -48(%rbp)
	je	LBB18_66
Ltmp653:
	.loc	6 102 5
	movl	$1, %edx
	movq	-56(%rbp), %rdi
	movq	-48(%rbp), %rsi
	callq	___rust_dealloc
Ltmp654:
LBB18_66:
	.loc	21 14 8
	cmpl	$35, -96(%rbp)
	.loc	21 14 5 is_stmt 0
	ja	LBB18_68
Ltmp655:
	.loc	10 328 9 is_stmt 1
	leaq	l___unnamed_13(%rip), %rax
Ltmp656:
	movq	%rax, -296(%rbp)
	movq	$1, -288(%rbp)
	movq	$0, -280(%rbp)
	leaq	l___unnamed_14(%rip), %rax
Ltmp657:
	movq	%rax, -264(%rbp)
	movq	$0, -256(%rbp)
	leaq	-296(%rbp), %rdi
Ltmp658:
	.loc	21 15 9
	callq	__ZN3std2io5stdio6_print17hdea2154009b9e479E
Ltmp659:
LBB18_68:
	.loc	21 10 14
	testb	%bl, %bl
Ltmp660:
	.loc	21 18 5
	jne	LBB18_70
Ltmp661:
	.loc	10 328 9
	leaq	l___unnamed_15(%rip), %rax
Ltmp662:
	movq	%rax, -296(%rbp)
	movq	$1, -288(%rbp)
	movq	$0, -280(%rbp)
	leaq	l___unnamed_14(%rip), %rax
Ltmp663:
	movq	%rax, -264(%rbp)
	movq	$0, -256(%rbp)
	leaq	-296(%rbp), %rdi
Ltmp664:
	.loc	21 19 9
	callq	__ZN3std2io5stdio6_print17hdea2154009b9e479E
Ltmp665:
	.loc	21 0 9 is_stmt 0
	jmp	LBB18_70
Ltmp666:
LBB18_118:
Ltmp418:
	.loc	17 1295 33 is_stmt 1
	leaq	l___unnamed_16(%rip), %rdx
	movq	%r8, %rdi
	movq	%r9, %rsi
Ltmp667:
	callq	__ZN4core9panicking18panic_bounds_check17habe69d236c55e3edE
Ltmp668:
Ltmp419:
	.loc	17 0 33 is_stmt 0
	jmp	LBB18_39
Ltmp669:
LBB18_38:
	leaq	-112(%rbp), %rax
Ltmp670:
	.loc	2 430 21 is_stmt 1
	movq	%rax, -320(%rbp)
	leaq	-352(%rbp), %rax
	movq	%rax, -312(%rbp)
	leaq	-344(%rbp), %rax
	movq	%rax, -304(%rbp)
Ltmp412:
	leaq	-320(%rbp), %rdi
	callq	__ZN4core3str6traits105_$LT$impl$u20$core..slice..SliceIndex$LT$str$GT$$u20$for$u20$core..ops..range..RangeFrom$LT$usize$GT$$GT$5index28_$u7b$$u7b$closure$u7d$$u7d$17hb7e8a6818f537632E
Ltmp671:
Ltmp413:
	.loc	2 0 21 is_stmt 0
	jmp	LBB18_39
Ltmp672:
LBB18_96:
Ltmp424:
	.loc	17 1295 33 is_stmt 1
	leaq	l___unnamed_16(%rip), %rdx
	movq	%r9, %rsi
Ltmp673:
	callq	__ZN4core9panicking18panic_bounds_check17habe69d236c55e3edE
Ltmp674:
Ltmp425:
	.loc	17 0 33 is_stmt 0
	jmp	LBB18_39
Ltmp675:
LBB18_119:
Ltmp414:
	.loc	17 1307 20 is_stmt 1
	leaq	l___unnamed_17(%rip), %rdx
	callq	__ZN4core9panicking18panic_bounds_check17habe69d236c55e3edE
Ltmp676:
Ltmp415:
	.loc	17 0 20 is_stmt 0
	jmp	LBB18_39
Ltmp677:
LBB18_120:
Ltmp416:
	.loc	17 1307 33
	leaq	l___unnamed_18(%rip), %rdx
	movq	%rcx, %rdi
Ltmp678:
	movq	%r9, %rsi
Ltmp679:
	callq	__ZN4core9panicking18panic_bounds_check17habe69d236c55e3edE
Ltmp680:
Ltmp417:
	.loc	17 0 33
	jmp	LBB18_39
Ltmp681:
LBB18_97:
Ltmp420:
	.loc	17 1307 20
	leaq	l___unnamed_17(%rip), %rdx
	callq	__ZN4core9panicking18panic_bounds_check17habe69d236c55e3edE
Ltmp682:
Ltmp421:
	.loc	17 0 20
	jmp	LBB18_39
Ltmp683:
LBB18_98:
Ltmp422:
	.loc	17 1307 33
	leaq	l___unnamed_18(%rip), %rdx
	movq	%rcx, %rdi
Ltmp684:
	movq	%r9, %rsi
Ltmp685:
	callq	__ZN4core9panicking18panic_bounds_check17habe69d236c55e3edE
Ltmp686:
Ltmp423:
LBB18_39:
	.loc	17 0 33
	ud2
Ltmp687:
LBB18_127:
Ltmp399:
	movq	%rax, %r14
Ltmp688:
	.loc	3 178 1 is_stmt 1
	movq	(%rbx), %rdi
	movq	8(%rbx), %rsi
	callq	__ZN5alloc5alloc8box_free17had4c9bbcee1e6d74E
Ltmp689:
	.loc	3 178 1 is_stmt 0
	movq	%rbx, %rdi
	callq	__ZN5alloc5alloc8box_free17ha07b7a63ceb1b1a3E
	jmp	LBB18_128
Ltmp690:
LBB18_130:
Ltmp429:
	.loc	3 0 1
	movq	%rax, %r14
	movq	%r14, %rdi
	callq	__Unwind_Resume
	ud2
LBB18_133:
Ltmp391:
	movq	%rax, %r14
Ltmp691:
	leaq	-320(%rbp), %rdi
Ltmp692:
	.loc	23 502 5 is_stmt 1
	callq	__ZN4core3ptr13drop_in_place17h8262ef6735ef0d5fE
	movq	%r14, %rdi
	callq	__Unwind_Resume
	ud2
Ltmp693:
LBB18_132:
Ltmp426:
	.loc	23 0 5 is_stmt 0
	movq	%rax, %r14
Ltmp694:
	leaq	-408(%rbp), %rdi
	.loc	21 39 1 is_stmt 1
	callq	__ZN4core3ptr13drop_in_place17hcb5edc8c4ef11b4fE
	movq	%r14, %rdi
	callq	__Unwind_Resume
	ud2
Ltmp695:
LBB18_131:
Ltmp396:
	.loc	21 0 1 is_stmt 0
	movq	%rax, %r14
LBB18_128:
	leaq	-592(%rbp), %rdi
	.loc	21 30 69 is_stmt 1
	callq	__ZN4core3ptr13drop_in_place17he5be0a2995d52c6fE
	movq	%r14, %rdi
	callq	__Unwind_Resume
	ud2
Ltmp696:
Lfunc_end18:
	.cfi_endproc
	.file	29 "/rustc/a74d1862d4d87a56244958416fd05976c58ca1a8/src/libcore/iter/adapters/mod.rs"
	.section	__TEXT,__gcc_except_tab
	.p2align	2
GCC_except_table18:
Lexception3:
	.byte	255
	.byte	255
	.byte	1
	.uleb128 Lcst_end3-Lcst_begin3
Lcst_begin3:
	.uleb128 Lfunc_begin18-Lfunc_begin18
	.uleb128 Ltmp389-Lfunc_begin18
	.byte	0
	.byte	0
	.uleb128 Ltmp389-Lfunc_begin18
	.uleb128 Ltmp390-Ltmp389
	.uleb128 Ltmp391-Lfunc_begin18
	.byte	0
	.uleb128 Ltmp390-Lfunc_begin18
	.uleb128 Ltmp392-Ltmp390
	.byte	0
	.byte	0
	.uleb128 Ltmp392-Lfunc_begin18
	.uleb128 Ltmp395-Ltmp392
	.uleb128 Ltmp396-Lfunc_begin18
	.byte	0
	.uleb128 Ltmp397-Lfunc_begin18
	.uleb128 Ltmp398-Ltmp397
	.uleb128 Ltmp399-Lfunc_begin18
	.byte	0
	.uleb128 Ltmp400-Lfunc_begin18
	.uleb128 Ltmp411-Ltmp400
	.uleb128 Ltmp426-Lfunc_begin18
	.byte	0
	.uleb128 Ltmp427-Lfunc_begin18
	.uleb128 Ltmp428-Ltmp427
	.uleb128 Ltmp429-Lfunc_begin18
	.byte	0
	.uleb128 Ltmp428-Lfunc_begin18
	.uleb128 Ltmp418-Ltmp428
	.byte	0
	.byte	0
	.uleb128 Ltmp418-Lfunc_begin18
	.uleb128 Ltmp423-Ltmp418
	.uleb128 Ltmp426-Lfunc_begin18
	.byte	0
	.uleb128 Ltmp423-Lfunc_begin18
	.uleb128 Lfunc_end18-Ltmp423
	.byte	0
	.byte	0
Lcst_end3:
	.p2align	2

	.section	__TEXT,__text,regular,pure_instructions
	.globl	_main
	.p2align	4, 0x90
_main:
Lfunc_begin19:
	.cfi_startproc
	pushq	%rbp
	.cfi_def_cfa_offset 16
	.cfi_offset %rbp, -16
	movq	%rsp, %rbp
	.cfi_def_cfa_register %rbp
	subq	$16, %rsp
	movq	%rsi, %rcx
	movslq	%edi, %rdx
	leaq	__ZN18build_script_build4main17hdb84e851e1c5020dE(%rip), %rax
	movq	%rax, -8(%rbp)
	leaq	l___unnamed_1(%rip), %rsi
	leaq	-8(%rbp), %rdi
	callq	__ZN3std2rt19lang_start_internal17hebefdaa8fd585aefE
	addq	$16, %rsp
	popq	%rbp
	retq
Lfunc_end19:
	.cfi_endproc

	.section	__TEXT,__const
l___unnamed_19:
	.ascii	"/rustc/a74d1862d4d87a56244958416fd05976c58ca1a8/src/liballoc/collections/btree/map.rs"

	.section	__DATA,__const
	.p2align	3
l___unnamed_3:
	.quad	l___unnamed_19
	.asciz	"U\000\000\000\000\000\000\000C\006\000\000\033\000\000"

	.p2align	3
l___unnamed_1:
	.quad	__ZN4core3ptr13drop_in_place17ha7a920cc7e545250E
	.quad	8
	.quad	8
	.quad	__ZN3std2rt10lang_start28_$u7b$$u7b$closure$u7d$$u7d$17h446d77eb0e0ab305E
	.quad	__ZN3std2rt10lang_start28_$u7b$$u7b$closure$u7d$$u7d$17h446d77eb0e0ab305E
	.quad	__ZN4core3ops8function6FnOnce40call_once$u7b$$u7b$vtable.shim$u7d$$u7d$17hfe7bc8f4097b9275E

	.section	__TEXT,__const
l___unnamed_20:
	.ascii	"/rustc/a74d1862d4d87a56244958416fd05976c58ca1a8/src/libcore/str/mod.rs"

	.section	__DATA,__const
	.p2align	3
l___unnamed_7:
	.quad	l___unnamed_20
	.asciz	"F\000\000\000\000\000\000\000\004\b\000\000/\000\000"

	.section	__TEXT,__const
l___unnamed_21:
	.ascii	"/rustc/a74d1862d4d87a56244958416fd05976c58ca1a8/src/libcore/str/pattern.rs"

	.section	__DATA,__const
	.p2align	3
l___unnamed_16:
	.quad	l___unnamed_21
	.asciz	"J\000\000\000\000\000\000\000\017\005\000\000!\000\000"

	.p2align	3
l___unnamed_17:
	.quad	l___unnamed_21
	.asciz	"J\000\000\000\000\000\000\000\033\005\000\000\024\000\000"

	.p2align	3
l___unnamed_18:
	.quad	l___unnamed_21
	.asciz	"J\000\000\000\000\000\000\000\033\005\000\000!\000\000"

	.section	__TEXT,__const
l___unnamed_22:
	.ascii	"/rustc/a74d1862d4d87a56244958416fd05976c58ca1a8/src/libcore/macros/mod.rs"

	.section	__DATA,__const
	.p2align	3
l___unnamed_6:
	.quad	l___unnamed_22
	.asciz	"I\000\000\000\000\000\000\000\020\000\000\000\t\000\000"

	.section	__TEXT,__const
l___unnamed_2:
	.ascii	"called `Option::unwrap()` on a `None` value"

l___unnamed_23:
	.ascii	"internal error: entered unreachable code: "

	.section	__DATA,__const
	.p2align	3
l___unnamed_5:
	.quad	l___unnamed_23
	.asciz	"*\000\000\000\000\000\000"

	.section	__TEXT,__const
l___unnamed_24:
	.ascii	"BTreeMap has different depths"

	.section	__DATA,__const
	.p2align	3
l___unnamed_4:
	.quad	l___unnamed_24
	.asciz	"\035\000\000\000\000\000\000"

	.p2align	3
l___unnamed_8:
	.quad	l___unnamed_21
	.asciz	"J\000\000\000\000\000\000\000\213\001\000\000&\000\000"

	.section	__TEXT,__const
l___unnamed_25:
	.ascii	"cargo:rustc-cfg=syn_omit_await_from_token_macro\n"

	.section	__DATA,__const
	.p2align	3
l___unnamed_13:
	.quad	l___unnamed_25
	.asciz	"0\000\000\000\000\000\000"

	.section	__TEXT,__const
	.p2align	3
l___unnamed_14:
	.byte	0

l___unnamed_26:
	.ascii	"cargo:rustc-cfg=syn_disable_nightly_tests\n"

	.section	__DATA,__const
	.p2align	3
l___unnamed_15:
	.quad	l___unnamed_26
	.asciz	"*\000\000\000\000\000\000"

	.section	__TEXT,__const
l___unnamed_9:
	.ascii	"RUSTC"

l___unnamed_10:
	.ascii	"--version"

l___unnamed_11:
	.ascii	"rustc 1"

l___unnamed_12:
	.ascii	"nightly"

	.section	__DATA,__const
Lsec_end0:
	.section	__TEXT,__text,regular,pure_instructions
Lsec_end1: