	.section	__TEXT,__text,regular,pure_instructions
	.macosx_version_min 10, 7
	.p2align	4, 0x90
__ZN101_$LT$core..ops..range..RangeTo$LT$usize$GT$$u20$as$u20$core..slice..SliceIndex$LT$$u5b$T$u5d$$GT$$GT$9index_mut17h3187e7bc303b24acE:
	.cfi_startproc
	pushq	%rbp
	.cfi_def_cfa_offset 16
	.cfi_offset %rbp, -16
	movq	%rsp, %rbp
	.cfi_def_cfa_register %rbp
	subq	$64, %rsp
	movq	$0, -16(%rbp)
	movq	%rdi, -8(%rbp)
	movq	-16(%rbp), %rdi
	movq	-8(%rbp), %rax
	movq	%rsi, -24(%rbp)
	movq	%rax, %rsi
	movq	-24(%rbp), %rax
	movq	%rdx, -32(%rbp)
	movq	%rax, %rdx
	movq	-32(%rbp), %r8
	movq	%rcx, -40(%rbp)
	movq	%r8, %rcx
	movq	-40(%rbp), %r8
	callq	__ZN99_$LT$core..ops..range..Range$LT$usize$GT$$u20$as$u20$core..slice..SliceIndex$LT$$u5b$T$u5d$$GT$$GT$9index_mut17h4e8afd66b2d28782E
	movq	%rax, -48(%rbp)
	movq	%rdx, -56(%rbp)
	movq	-48(%rbp), %rax
	movq	-56(%rbp), %rdx
	addq	$64, %rsp
	popq	%rbp
	retq
	.cfi_endproc

	.p2align	4, 0x90
__ZN105_$LT$std..ffi..os_str..OsString$u20$as$u20$core..ops..index..Index$LT$core..ops..range..RangeFull$GT$$GT$5index17h2a1312ec42e33c51E:
	.cfi_startproc
	pushq	%rbp
	.cfi_def_cfa_offset 16
	.cfi_offset %rbp, -16
	movq	%rsp, %rbp
	.cfi_def_cfa_register %rbp
	subq	$48, %rsp
	movq	%rsi, -8(%rbp)
	callq	__ZN3std10sys_common12os_str_bytes3Buf8as_slice17h3f4949051de5399aE
	movq	%rax, -16(%rbp)
	movq	%rdx, -24(%rbp)
	movq	-16(%rbp), %rdi
	movq	-24(%rbp), %rsi
	callq	__ZN3std3ffi6os_str5OsStr10from_inner17h802b216179a73c8cE
	movq	%rax, -32(%rbp)
	movq	%rdx, -40(%rbp)
	movq	-32(%rbp), %rax
	movq	-40(%rbp), %rdx
	addq	$48, %rsp
	popq	%rbp
	retq
	.cfi_endproc

	.p2align	4, 0x90
__ZN112_$LT$alloc..collections..btree..map..IntoIter$LT$K$C$V$GT$$u20$as$u20$core..iter..traits..iterator..Iterator$GT$4next17hffaa707fc827234bE:
	.cfi_startproc
	pushq	%rbp
	.cfi_def_cfa_offset 16
	.cfi_offset %rbp, -16
	movq	%rsp, %rbp
	.cfi_def_cfa_register %rbp
	subq	$96, %rsp
	movq	%rdi, %rax
	cmpq	$0, 64(%rsi)
	movq	%rsi, -56(%rbp)
	movq	%rdi, -64(%rbp)
	movq	%rax, -72(%rbp)
	je	LBB2_2
	movq	-56(%rbp), %rax
	movq	64(%rax), %rcx
	subq	$1, %rcx
	movq	%rcx, 64(%rax)
	movq	%rax, %rdi
	callq	__ZN4core6option15Option$LT$T$GT$6as_mut17h3933df8463b60765E
	movq	%rax, -80(%rbp)
	jmp	LBB2_3
LBB2_2:
	movq	-64(%rbp), %rax
	movq	$0, (%rax)
	jmp	LBB2_6
LBB2_3:
	leaq	l___unnamed_1(%rip), %rax
	movq	-80(%rbp), %rdi
	movq	%rax, %rsi
	callq	__ZN4core6option15Option$LT$T$GT$6unwrap17ha289c341b067e243E
	movq	%rax, -88(%rbp)
	leaq	-48(%rbp), %rdi
	movq	-88(%rbp), %rsi
	callq	__ZN5alloc11collections5btree8navigate263_$LT$impl$u20$alloc..collections..btree..node..Handle$LT$alloc..collections..btree..node..NodeRef$LT$alloc..collections..btree..node..marker..Owned$C$K$C$V$C$alloc..collections..btree..node..marker..Leaf$GT$$C$alloc..collections..btree..node..marker..Edge$GT$$GT$14next_unchecked17h14226c29959b984dE
	movq	-64(%rbp), %rax
	leaq	-48(%rbp), %rcx
	movq	%rax, %rdi
	movq	%rcx, %rsi
	movl	$48, %edx
	callq	_memcpy
LBB2_6:
	movq	-72(%rbp), %rax
	addq	$96, %rsp
	popq	%rbp
	retq
	.cfi_endproc

	.p2align	4, 0x90
__ZN115_$LT$alloc..collections..btree..map..BTreeMap$LT$K$C$V$GT$$u20$as$u20$core..iter..traits..collect..IntoIterator$GT$9into_iter17hfa1b461586ef47fcE:
	.cfi_startproc
	pushq	%rbp
	.cfi_def_cfa_offset 16
	.cfi_offset %rbp, -16
	movq	%rsp, %rbp
	.cfi_def_cfa_register %rbp
	subq	$464, %rsp
	movq	%rdi, %rax
	movq	(%rsi), %rcx
	movq	%rcx, -408(%rbp)
	movq	8(%rsi), %rcx
	movq	%rcx, -400(%rbp)
	movq	16(%rsi), %rcx
	movq	%rcx, -392(%rbp)
	movq	-408(%rbp), %rcx
	movq	%rcx, -24(%rbp)
	movq	-400(%rbp), %rcx
	movq	%rcx, -16(%rbp)
	movq	-392(%rbp), %rcx
	movq	%rcx, -8(%rbp)
	movq	-24(%rbp), %rcx
	movq	%rcx, -432(%rbp)
	movq	-16(%rbp), %rcx
	movq	%rcx, -424(%rbp)
	movq	-8(%rbp), %rcx
	movq	%rcx, -416(%rbp)
	movq	%rdi, -440(%rbp)
	movq	%rax, -448(%rbp)
	leaq	-432(%rbp), %rax
	movq	%rax, -456(%rbp)
	movq	-456(%rbp), %rdi
	callq	__ZN4core6option15Option$LT$T$GT$4take17h855872c5f03e6a14E
	movq	%rdx, -376(%rbp)
	movq	%rax, -384(%rbp)
	xorl	%eax, %eax
	movl	%eax, %ecx
	cmpq	$0, -384(%rbp)
	movl	$1, %edx
	cmovbeq	%rcx, %rdx
	cmpq	$1, %rdx
	je	LBB3_5
	movq	$0, -80(%rbp)
	movq	$0, -48(%rbp)
	movq	-88(%rbp), %rax
	movq	-440(%rbp), %rcx
	movq	%rax, (%rcx)
	movq	-80(%rbp), %rax
	movq	%rax, 8(%rcx)
	movq	-72(%rbp), %rax
	movq	%rax, 16(%rcx)
	movq	-64(%rbp), %rax
	movq	%rax, 24(%rcx)
	movq	-56(%rbp), %rax
	movq	%rax, 32(%rcx)
	movq	-48(%rbp), %rax
	movq	%rax, 40(%rcx)
	movq	-40(%rbp), %rax
	movq	%rax, 48(%rcx)
	movq	-32(%rbp), %rax
	movq	%rax, 56(%rcx)
	movq	$0, 64(%rcx)
	jmp	LBB3_9
LBB3_5:
	movq	-384(%rbp), %rsi
	movq	-376(%rbp), %rdx
	leaq	-240(%rbp), %rdi
	callq	__ZN5alloc11collections5btree4node17Root$LT$K$C$V$GT$8into_ref17hecbdc75e6e7c3c8bE
	leaq	-304(%rbp), %rdi
	leaq	-240(%rbp), %rsi
	callq	__ZN5alloc11collections5btree3map17full_range_search17h91cb6f641fc5159bE
	movq	-304(%rbp), %rax
	movq	%rax, -368(%rbp)
	movq	-296(%rbp), %rax
	movq	%rax, -360(%rbp)
	movq	-288(%rbp), %rax
	movq	%rax, -352(%rbp)
	movq	-280(%rbp), %rax
	movq	%rax, -344(%rbp)
	movq	-272(%rbp), %rax
	movq	%rax, -336(%rbp)
	movq	-264(%rbp), %rax
	movq	%rax, -328(%rbp)
	movq	-256(%rbp), %rax
	movq	%rax, -320(%rbp)
	movq	-248(%rbp), %rax
	movq	%rax, -312(%rbp)
	movq	-368(%rbp), %rax
	movq	%rax, -184(%rbp)
	movq	-360(%rbp), %rax
	movq	%rax, -176(%rbp)
	movq	-352(%rbp), %rax
	movq	%rax, -168(%rbp)
	movq	-344(%rbp), %rax
	movq	%rax, -160(%rbp)
	movq	-184(%rbp), %rax
	movq	%rax, -216(%rbp)
	movq	-176(%rbp), %rax
	movq	%rax, -208(%rbp)
	movq	-168(%rbp), %rax
	movq	%rax, -200(%rbp)
	movq	-160(%rbp), %rax
	movq	%rax, -192(%rbp)
	movq	-336(%rbp), %rax
	movq	%rax, -120(%rbp)
	movq	-328(%rbp), %rax
	movq	%rax, -112(%rbp)
	movq	-320(%rbp), %rax
	movq	%rax, -104(%rbp)
	movq	-312(%rbp), %rax
	movq	%rax, -96(%rbp)
	movq	-120(%rbp), %rax
	movq	%rax, -152(%rbp)
	movq	-112(%rbp), %rax
	movq	%rax, -144(%rbp)
	movq	-104(%rbp), %rax
	movq	%rax, -136(%rbp)
	movq	-96(%rbp), %rax
	movq	%rax, -128(%rbp)
	leaq	-432(%rbp), %rax
	movq	%rax, -464(%rbp)
	movq	-464(%rbp), %rax
	movq	16(%rax), %rcx
	movq	-216(%rbp), %rdx
	movq	-440(%rbp), %rsi
	movq	%rdx, (%rsi)
	movq	-208(%rbp), %rdx
	movq	%rdx, 8(%rsi)
	movq	-200(%rbp), %rdx
	movq	%rdx, 16(%rsi)
	movq	-192(%rbp), %rdx
	movq	%rdx, 24(%rsi)
	movq	-152(%rbp), %rdx
	movq	%rdx, 32(%rsi)
	movq	-144(%rbp), %rdx
	movq	%rdx, 40(%rsi)
	movq	-136(%rbp), %rdx
	movq	%rdx, 48(%rsi)
	movq	-128(%rbp), %rdx
	movq	%rdx, 56(%rsi)
	movq	%rcx, 64(%rsi)
LBB3_9:
	movq	-448(%rbp), %rax
	addq	$464, %rsp
	popq	%rbp
	retq
	.cfi_endproc

	.p2align	4, 0x90
__ZN119_$LT$core..ptr..non_null..NonNull$LT$T$GT$$u20$as$u20$core..convert..From$LT$core..ptr..unique..Unique$LT$T$GT$$GT$$GT$4from17h3ed427e195143254E:
	.cfi_startproc
	pushq	%rbp
	.cfi_def_cfa_offset 16
	.cfi_offset %rbp, -16
	movq	%rsp, %rbp
	.cfi_def_cfa_register %rbp
	subq	$16, %rsp
	callq	__ZN4core3ptr6unique15Unique$LT$T$GT$6as_ptr17he99744a5334a1a4cE
	movq	%rax, -8(%rbp)
	movq	-8(%rbp), %rdi
	callq	__ZN4core3ptr8non_null16NonNull$LT$T$GT$13new_unchecked17h826182c6e47b5a58E
	movq	%rax, -16(%rbp)
	movq	-16(%rbp), %rax
	addq	$16, %rsp
	popq	%rbp
	retq
	.cfi_endproc

	.p2align	4, 0x90
__ZN119_$LT$core..ptr..non_null..NonNull$LT$T$GT$$u20$as$u20$core..convert..From$LT$core..ptr..unique..Unique$LT$T$GT$$GT$$GT$4from17had16ca0f2eeae6fbE:
	.cfi_startproc
	pushq	%rbp
	.cfi_def_cfa_offset 16
	.cfi_offset %rbp, -16
	movq	%rsp, %rbp
	.cfi_def_cfa_register %rbp
	subq	$16, %rsp
	callq	__ZN4core3ptr6unique15Unique$LT$T$GT$6as_ptr17hfbabee65cfac5b0fE
	movq	%rax, -8(%rbp)
	movq	-8(%rbp), %rdi
	callq	__ZN4core3ptr8non_null16NonNull$LT$T$GT$13new_unchecked17hac98f3a1f3660fa4E
	movq	%rax, -16(%rbp)
	movq	-16(%rbp), %rax
	addq	$16, %rsp
	popq	%rbp
	retq
	.cfi_endproc

	.p2align	4, 0x90
__ZN166_$LT$$LT$alloc..collections..btree..map..IntoIter$LT$K$C$V$GT$$u20$as$u20$core..ops..drop..Drop$GT$..drop..DropGuard$LT$K$C$V$GT$$u20$as$u20$core..ops..drop..Drop$GT$4drop17hca013d57593acbfbE:
	.cfi_startproc
	pushq	%rbp
	.cfi_def_cfa_offset 16
	.cfi_offset %rbp, -16
	movq	%rsp, %rbp
	.cfi_def_cfa_register %rbp
	subq	$368, %rsp
	movq	%rdi, -368(%rbp)
LBB6_1:
	movq	-368(%rbp), %rax
	movq	(%rax), %rsi
	leaq	-360(%rbp), %rdi
	callq	__ZN112_$LT$alloc..collections..btree..map..IntoIter$LT$K$C$V$GT$$u20$as$u20$core..iter..traits..iterator..Iterator$GT$4next17hffaa707fc827234bE
	xorl	%eax, %eax
	movl	%eax, %ecx
	cmpq	$0, -360(%rbp)
	movl	$1, %edx
	cmovbeq	%rcx, %rdx
	cmpq	$1, %rdx
	je	LBB6_4
	leaq	-360(%rbp), %rdi
	callq	__ZN4core3ptr13drop_in_place17h9eaacaa2c8da08ffE
	jmp	LBB6_5
LBB6_4:
	leaq	-360(%rbp), %rdi
	callq	__ZN4core3ptr13drop_in_place17h9eaacaa2c8da08ffE
	jmp	LBB6_6
LBB6_5:
	movq	-368(%rbp), %rax
	movq	(%rax), %rcx
	leaq	-232(%rbp), %rdi
	movq	%rcx, %rsi
	callq	__ZN4core3ptr4read17hd498f47810bafb71E
	jmp	LBB6_7
LBB6_6:
	jmp	LBB6_1
LBB6_7:
	movq	-232(%rbp), %rax
	movq	%rax, -32(%rbp)
	movq	-224(%rbp), %rax
	movq	%rax, -24(%rbp)
	movq	-216(%rbp), %rax
	movq	%rax, -16(%rbp)
	movq	-208(%rbp), %rax
	movq	%rax, -8(%rbp)
	leaq	-264(%rbp), %rdi
	leaq	-32(%rbp), %rsi
	callq	__ZN4core6option15Option$LT$T$GT$14unwrap_or_else17h1339cd7073e0a8c0E
	leaq	-288(%rbp), %rdi
	leaq	-264(%rbp), %rsi
	callq	__ZN5alloc11collections5btree4node25Handle$LT$Node$C$Type$GT$9into_node17hb046d60a656d8f2eE
	leaq	-312(%rbp), %rdi
	leaq	-288(%rbp), %rsi
	callq	__ZN5alloc11collections5btree4node40NodeRef$LT$BorrowType$C$K$C$V$C$Type$GT$11forget_type17ha5935b96bd960992E
	jmp	LBB6_11
LBB6_11:
	movq	-312(%rbp), %rax
	movq	%rax, -168(%rbp)
	movq	-304(%rbp), %rax
	movq	%rax, -160(%rbp)
	movq	-296(%rbp), %rax
	movq	%rax, -152(%rbp)
	leaq	-200(%rbp), %rdi
	leaq	-168(%rbp), %rsi
	callq	__ZN5alloc11collections5btree4node127NodeRef$LT$alloc..collections..btree..node..marker..Owned$C$K$C$V$C$alloc..collections..btree..node..marker..LeafOrInternal$GT$21deallocate_and_ascend17he785eea08c2c6ca1E
	xorl	%eax, %eax
	movl	%eax, %ecx
	cmpq	$0, -192(%rbp)
	movl	$1, %edx
	cmovbeq	%rcx, %rdx
	cmpq	$1, %rdx
	je	LBB6_14
	addq	$368, %rsp
	popq	%rbp
	retq
LBB6_14:
	movq	-200(%rbp), %rax
	movq	%rax, -144(%rbp)
	movq	-192(%rbp), %rax
	movq	%rax, -136(%rbp)
	movq	-184(%rbp), %rax
	movq	%rax, -128(%rbp)
	movq	-176(%rbp), %rax
	movq	%rax, -120(%rbp)
	movq	-144(%rbp), %rax
	movq	%rax, -64(%rbp)
	movq	-136(%rbp), %rax
	movq	%rax, -56(%rbp)
	movq	-128(%rbp), %rax
	movq	%rax, -48(%rbp)
	movq	-120(%rbp), %rax
	movq	%rax, -40(%rbp)
	leaq	-88(%rbp), %rdi
	leaq	-64(%rbp), %rsi
	callq	__ZN5alloc11collections5btree4node25Handle$LT$Node$C$Type$GT$9into_node17hc142882dbf228bf5E
	leaq	-112(%rbp), %rdi
	leaq	-88(%rbp), %rsi
	callq	__ZN5alloc11collections5btree4node40NodeRef$LT$BorrowType$C$K$C$V$C$Type$GT$11forget_type17h4eb68eb37272ba0cE
	movq	-112(%rbp), %rax
	movq	%rax, -312(%rbp)
	movq	-104(%rbp), %rax
	movq	%rax, -304(%rbp)
	movq	-96(%rbp), %rax
	movq	%rax, -296(%rbp)
	jmp	LBB6_11
	.cfi_endproc

	.p2align	4, 0x90
__ZN3std10sys_common12os_str_bytes3Buf8as_slice17h3f4949051de5399aE:
	.cfi_startproc
	pushq	%rbp
	.cfi_def_cfa_offset 16
	.cfi_offset %rbp, -16
	movq	%rsp, %rbp
	.cfi_def_cfa_register %rbp
	subq	$48, %rsp
	callq	__ZN68_$LT$alloc..vec..Vec$LT$T$GT$$u20$as$u20$core..ops..deref..Deref$GT$5deref17h53b97b86fc83bbe9E
	movq	%rax, -24(%rbp)
	movq	%rdx, -32(%rbp)
	movq	-24(%rbp), %rax
	movq	%rax, -16(%rbp)
	movq	-32(%rbp), %rcx
	movq	%rcx, -8(%rbp)
	movq	-16(%rbp), %rax
	movq	-8(%rbp), %rdx
	movq	%rax, -40(%rbp)
	movq	%rdx, -48(%rbp)
	movq	-40(%rbp), %rax
	movq	-48(%rbp), %rdx
	addq	$48, %rsp
	popq	%rbp
	retq
	.cfi_endproc

	.p2align	4, 0x90
__ZN3std10sys_common12os_str_bytes5Slice13from_u8_slice17h04e51c25d95f120dE:
	.cfi_startproc
	pushq	%rbp
	.cfi_def_cfa_offset 16
	.cfi_offset %rbp, -16
	movq	%rsp, %rbp
	.cfi_def_cfa_register %rbp
	subq	$32, %rsp
	movq	%rdi, -16(%rbp)
	movq	%rsi, -8(%rbp)
	movq	-16(%rbp), %rax
	movq	-8(%rbp), %rdx
	movq	%rax, -24(%rbp)
	movq	%rdx, -32(%rbp)
	movq	-24(%rbp), %rax
	movq	-32(%rbp), %rdx
	addq	$32, %rsp
	popq	%rbp
	retq
	.cfi_endproc

	.p2align	4, 0x90
__ZN3std10sys_common12os_str_bytes5Slice8from_str17hbc18bf18cc2218a1E:
	.cfi_startproc
	pushq	%rbp
	.cfi_def_cfa_offset 16
	.cfi_offset %rbp, -16
	movq	%rsp, %rbp
	.cfi_def_cfa_register %rbp
	subq	$48, %rsp
	movq	%rdi, -16(%rbp)
	movq	%rsi, -8(%rbp)
	movq	-16(%rbp), %rdi
	movq	-8(%rbp), %rsi
	movq	%rdi, -24(%rbp)
	movq	%rsi, -32(%rbp)
	movq	-24(%rbp), %rdi
	movq	-32(%rbp), %rsi
	callq	__ZN3std10sys_common12os_str_bytes5Slice13from_u8_slice17h04e51c25d95f120dE
	movq	%rax, -40(%rbp)
	movq	%rdx, -48(%rbp)
	movq	-40(%rbp), %rax
	movq	-48(%rbp), %rdx
	addq	$48, %rsp
	popq	%rbp
	retq
	.cfi_endproc

	.private_extern	__ZN3std2rt10lang_start17h9d599e2c8d711ec2E
	.globl	__ZN3std2rt10lang_start17h9d599e2c8d711ec2E
	.p2align	4, 0x90
__ZN3std2rt10lang_start17h9d599e2c8d711ec2E:
	.cfi_startproc
	pushq	%rbp
	.cfi_def_cfa_offset 16
	.cfi_offset %rbp, -16
	movq	%rsp, %rbp
	.cfi_def_cfa_register %rbp
	subq	$32, %rsp
	leaq	l___unnamed_2(%rip), %rax
	movq	%rdi, -8(%rbp)
	leaq	-8(%rbp), %rcx
	movq	%rcx, %rdi
	movq	%rsi, -16(%rbp)
	movq	%rax, %rsi
	movq	-16(%rbp), %rax
	movq	%rdx, -24(%rbp)
	movq	%rax, %rdx
	movq	-24(%rbp), %rcx
	callq	__ZN3std2rt19lang_start_internal17hbbd10965adc92ae7E
	movq	%rax, -32(%rbp)
	movq	-32(%rbp), %rax
	addq	$32, %rsp
	popq	%rbp
	retq
	.cfi_endproc

	.p2align	4, 0x90
__ZN3std2rt10lang_start28_$u7b$$u7b$closure$u7d$$u7d$17hca00697b96feb0e4E:
	.cfi_startproc
	pushq	%rbp
	.cfi_def_cfa_offset 16
	.cfi_offset %rbp, -16
	movq	%rsp, %rbp
	.cfi_def_cfa_register %rbp
	subq	$16, %rsp
	callq	*(%rdi)
	callq	__ZN54_$LT$$LP$$RP$$u20$as$u20$std..process..Termination$GT$6report17hbfe65bb059d83aaeE
	movl	%eax, -4(%rbp)
	movl	-4(%rbp), %eax
	addq	$16, %rsp
	popq	%rbp
	retq
	.cfi_endproc

	.p2align	4, 0x90
__ZN3std3env6var_os17h2c6635bf23bf36b7E:
Lfunc_begin0:
	.cfi_startproc
	.cfi_personality 155, _rust_eh_personality
	.cfi_lsda 16, Lexception0
	pushq	%rbp
	.cfi_def_cfa_offset 16
	.cfi_offset %rbp, -16
	movq	%rsp, %rbp
	.cfi_def_cfa_register %rbp
	subq	$64, %rsp
	movq	%rdi, %rax
	movq	%rsi, -32(%rbp)
	movq	%rdx, -24(%rbp)
Ltmp0:
	leaq	-32(%rbp), %rcx
	movq	%rdi, -40(%rbp)
	movq	%rcx, %rdi
	movq	%rax, -48(%rbp)
	callq	__ZN55_$LT$$RF$T$u20$as$u20$core..convert..AsRef$LT$U$GT$$GT$6as_ref17h778cd89cb9ca9480E
Ltmp1:
	movq	%rdx, -56(%rbp)
	movq	%rax, -64(%rbp)
	jmp	LBB12_2
LBB12_1:
	movq	-16(%rbp), %rdi
	callq	__Unwind_Resume
	ud2
LBB12_2:
Ltmp2:
	movq	-40(%rbp), %rdi
	movq	-64(%rbp), %rsi
	movq	-56(%rbp), %rdx
	callq	__ZN3std3env7_var_os17hc628b18a701aa4a3E
Ltmp3:
	jmp	LBB12_4
LBB12_3:
	jmp	LBB12_1
LBB12_4:
	jmp	LBB12_5
LBB12_5:
	movq	-48(%rbp), %rax
	addq	$64, %rsp
	popq	%rbp
	retq
LBB12_6:
Ltmp4:
	movq	%rax, -16(%rbp)
	movl	%edx, -8(%rbp)
	jmp	LBB12_3
Lfunc_end0:
	.cfi_endproc
	.section	__TEXT,__gcc_except_tab
	.p2align	2
GCC_except_table12:
Lexception0:
	.byte	255
	.byte	255
	.byte	1
	.uleb128 Lcst_end0-Lcst_begin0
Lcst_begin0:
	.uleb128 Ltmp0-Lfunc_begin0
	.uleb128 Ltmp1-Ltmp0
	.uleb128 Ltmp4-Lfunc_begin0
	.byte	0
	.uleb128 Ltmp1-Lfunc_begin0
	.uleb128 Ltmp2-Ltmp1
	.byte	0
	.byte	0
	.uleb128 Ltmp2-Lfunc_begin0
	.uleb128 Ltmp3-Ltmp2
	.uleb128 Ltmp4-Lfunc_begin0
	.byte	0
Lcst_end0:
	.p2align	2

	.section	__TEXT,__text,regular,pure_instructions
	.p2align	4, 0x90
__ZN3std3ffi6os_str5OsStr10from_inner17h802b216179a73c8cE:
	.cfi_startproc
	pushq	%rbp
	.cfi_def_cfa_offset 16
	.cfi_offset %rbp, -16
	movq	%rsp, %rbp
	.cfi_def_cfa_register %rbp
	movq	%rdi, %rax
	movq	%rsi, %rdx
	popq	%rbp
	retq
	.cfi_endproc

	.p2align	4, 0x90
__ZN3std3ffi6os_str85_$LT$impl$u20$core..convert..AsRef$LT$std..ffi..os_str..OsStr$GT$$u20$for$u20$str$GT$6as_ref17hfa5ee79d2fb2c89fE:
	.cfi_startproc
	pushq	%rbp
	.cfi_def_cfa_offset 16
	.cfi_offset %rbp, -16
	movq	%rsp, %rbp
	.cfi_def_cfa_register %rbp
	subq	$32, %rsp
	callq	__ZN3std10sys_common12os_str_bytes5Slice8from_str17hbc18bf18cc2218a1E
	movq	%rax, -8(%rbp)
	movq	%rdx, -16(%rbp)
	movq	-8(%rbp), %rdi
	movq	-16(%rbp), %rsi
	callq	__ZN3std3ffi6os_str5OsStr10from_inner17h802b216179a73c8cE
	movq	%rax, -24(%rbp)
	movq	%rdx, -32(%rbp)
	movq	-24(%rbp), %rax
	movq	-32(%rbp), %rdx
	addq	$32, %rsp
	popq	%rbp
	retq
	.cfi_endproc

	.p2align	4, 0x90
__ZN3std3sys4unix7process14process_common8ExitCode6as_i3217h68b83650a94a52b0E:
	.cfi_startproc
	pushq	%rbp
	.cfi_def_cfa_offset 16
	.cfi_offset %rbp, -16
	movq	%rsp, %rbp
	.cfi_def_cfa_register %rbp
	movzbl	(%rdi), %eax
	popq	%rbp
	retq
	.cfi_endproc

	.p2align	4, 0x90
__ZN3std7process7Command3arg17h4ab93a0fa73640bcE:
Lfunc_begin1:
	.cfi_startproc
	.cfi_personality 155, _rust_eh_personality
	.cfi_lsda 16, Lexception1
	pushq	%rbp
	.cfi_def_cfa_offset 16
	.cfi_offset %rbp, -16
	movq	%rsp, %rbp
	.cfi_def_cfa_register %rbp
	subq	$64, %rsp
	movq	%rsi, -32(%rbp)
	movq	%rdx, -24(%rbp)
	movq	%rdi, %rax
Ltmp5:
	leaq	-32(%rbp), %rcx
	movq	%rdi, -40(%rbp)
	movq	%rcx, %rdi
	movq	%rax, -48(%rbp)
	callq	__ZN55_$LT$$RF$T$u20$as$u20$core..convert..AsRef$LT$U$GT$$GT$6as_ref17h778cd89cb9ca9480E
Ltmp6:
	movq	%rdx, -56(%rbp)
	movq	%rax, -64(%rbp)
	jmp	LBB16_2
LBB16_1:
	movq	-16(%rbp), %rdi
	callq	__Unwind_Resume
	ud2
LBB16_2:
Ltmp7:
	movq	-48(%rbp), %rdi
	movq	-64(%rbp), %rsi
	movq	-56(%rbp), %rdx
	callq	__ZN3std3sys4unix7process14process_common7Command3arg17he3b985033bebdb87E
Ltmp8:
	jmp	LBB16_4
LBB16_3:
	jmp	LBB16_1
LBB16_4:
	jmp	LBB16_5
LBB16_5:
	movq	-40(%rbp), %rax
	addq	$64, %rsp
	popq	%rbp
	retq
LBB16_6:
Ltmp9:
	movq	%rax, -16(%rbp)
	movl	%edx, -8(%rbp)
	jmp	LBB16_3
Lfunc_end1:
	.cfi_endproc
	.section	__TEXT,__gcc_except_tab
	.p2align	2
GCC_except_table16:
Lexception1:
	.byte	255
	.byte	255
	.byte	1
	.uleb128 Lcst_end1-Lcst_begin1
Lcst_begin1:
	.uleb128 Ltmp5-Lfunc_begin1
	.uleb128 Ltmp6-Ltmp5
	.uleb128 Ltmp9-Lfunc_begin1
	.byte	0
	.uleb128 Ltmp6-Lfunc_begin1
	.uleb128 Ltmp7-Ltmp6
	.byte	0
	.byte	0
	.uleb128 Ltmp7-Lfunc_begin1
	.uleb128 Ltmp8-Ltmp7
	.uleb128 Ltmp9-Lfunc_begin1
	.byte	0
Lcst_end1:
	.p2align	2

	.section	__TEXT,__text,regular,pure_instructions
	.p2align	4, 0x90
__ZN3std7process7Command3new17hd9cb06a1b6cfa47bE:
Lfunc_begin2:
	.cfi_startproc
	.cfi_personality 155, _rust_eh_personality
	.cfi_lsda 16, Lexception2
	pushq	%rbp
	.cfi_def_cfa_offset 16
	.cfi_offset %rbp, -16
	movq	%rsp, %rbp
	.cfi_def_cfa_register %rbp
	subq	$240, %rsp
	movq	%rdi, %rax
Ltmp10:
	movq	%rdi, -208(%rbp)
	movq	%rsi, %rdi
	movq	%rsi, -216(%rbp)
	movq	%rax, -224(%rbp)
	callq	__ZN98_$LT$std..ffi..os_str..OsString$u20$as$u20$core..convert..AsRef$LT$std..ffi..os_str..OsStr$GT$$GT$6as_ref17h64c987444a8c534aE
Ltmp11:
	movq	%rdx, -232(%rbp)
	movq	%rax, -240(%rbp)
	jmp	LBB17_2
LBB17_1:
	movq	-16(%rbp), %rdi
	callq	__Unwind_Resume
	ud2
LBB17_2:
Ltmp12:
	leaq	-200(%rbp), %rdi
	movq	-240(%rbp), %rsi
	movq	-232(%rbp), %rdx
	callq	__ZN3std3sys4unix7process14process_common7Command3new17h6b51c4bb5fada643E
Ltmp13:
	jmp	LBB17_4
LBB17_3:
	movq	-216(%rbp), %rdi
	callq	__ZN4core3ptr13drop_in_place17h8f49ee857e99fd1dE
	jmp	LBB17_1
LBB17_4:
	movq	-208(%rbp), %rax
	leaq	-200(%rbp), %rcx
	movq	%rax, %rdi
	movq	%rcx, %rsi
	movl	$184, %edx
	callq	_memcpy
	movq	-216(%rbp), %rdi
	callq	__ZN4core3ptr13drop_in_place17h8f49ee857e99fd1dE
	movq	-224(%rbp), %rax
	addq	$240, %rsp
	popq	%rbp
	retq
LBB17_6:
Ltmp14:
	movq	%rax, -16(%rbp)
	movl	%edx, -8(%rbp)
	jmp	LBB17_3
Lfunc_end2:
	.cfi_endproc
	.section	__TEXT,__gcc_except_tab
	.p2align	2
GCC_except_table17:
Lexception2:
	.byte	255
	.byte	255
	.byte	1
	.uleb128 Lcst_end2-Lcst_begin2
Lcst_begin2:
	.uleb128 Ltmp10-Lfunc_begin2
	.uleb128 Ltmp11-Ltmp10
	.uleb128 Ltmp14-Lfunc_begin2
	.byte	0
	.uleb128 Ltmp11-Lfunc_begin2
	.uleb128 Ltmp12-Ltmp11
	.byte	0
	.byte	0
	.uleb128 Ltmp12-Lfunc_begin2
	.uleb128 Ltmp13-Ltmp12
	.uleb128 Ltmp14-Lfunc_begin2
	.byte	0
	.uleb128 Ltmp13-Lfunc_begin2
	.uleb128 Lfunc_end2-Ltmp13
	.byte	0
	.byte	0
Lcst_end2:
	.p2align	2

	.section	__TEXT,__text,regular,pure_instructions
	.p2align	4, 0x90
__ZN44_$LT$$RF$T$u20$as$u20$core..fmt..Display$GT$3fmt17h5dc3bcc2ad7242a6E:
	.cfi_startproc
	pushq	%rbp
	.cfi_def_cfa_offset 16
	.cfi_offset %rbp, -16
	movq	%rsp, %rbp
	.cfi_def_cfa_register %rbp
	subq	$16, %rsp
	movq	(%rdi), %rax
	movq	8(%rdi), %rcx
	movq	%rax, %rdi
	movq	%rsi, -8(%rbp)
	movq	%rcx, %rsi
	movq	-8(%rbp), %rdx
	callq	__ZN42_$LT$str$u20$as$u20$core..fmt..Display$GT$3fmt17h6768afae62e94f93E
	movb	%al, -9(%rbp)
	movb	-9(%rbp), %al
	andb	$1, %al
	movzbl	%al, %eax
	addq	$16, %rsp
	popq	%rbp
	retq
	.cfi_endproc

	.p2align	4, 0x90
__ZN4core10intrinsics19copy_nonoverlapping17h187f164b2c9a1487E:
	.cfi_startproc
	pushq	%rbp
	.cfi_def_cfa_offset 16
	.cfi_offset %rbp, -16
	movq	%rsp, %rbp
	.cfi_def_cfa_register %rbp
	subq	$16, %rsp
	shlq	$5, %rdx
	movq	%rdi, -8(%rbp)
	movq	%rsi, %rdi
	movq	-8(%rbp), %rsi
	callq	_memcpy
	addq	$16, %rsp
	popq	%rbp
	retq
	.cfi_endproc

	.p2align	4, 0x90
__ZN4core10intrinsics19copy_nonoverlapping17h5a3ef81181bca286E:
	.cfi_startproc
	pushq	%rbp
	.cfi_def_cfa_offset 16
	.cfi_offset %rbp, -16
	movq	%rsp, %rbp
	.cfi_def_cfa_register %rbp
	subq	$16, %rsp
	imulq	$24, %rdx, %rdx
	movq	%rdi, -8(%rbp)
	movq	%rsi, %rdi
	movq	-8(%rbp), %rsi
	callq	_memcpy
	addq	$16, %rsp
	popq	%rbp
	retq
	.cfi_endproc

	.p2align	4, 0x90
__ZN4core10intrinsics19copy_nonoverlapping17h77fdddc3fde6619dE:
	.cfi_startproc
	pushq	%rbp
	.cfi_def_cfa_offset 16
	.cfi_offset %rbp, -16
	movq	%rsp, %rbp
	.cfi_def_cfa_register %rbp
	subq	$16, %rsp
	shlq	$5, %rdx
	movq	%rdi, -8(%rbp)
	movq	%rsi, %rdi
	movq	-8(%rbp), %rsi
	callq	_memcpy
	addq	$16, %rsp
	popq	%rbp
	retq
	.cfi_endproc

	.p2align	4, 0x90
__ZN4core10intrinsics19copy_nonoverlapping17haf979011a3fa472bE:
	.cfi_startproc
	pushq	%rbp
	.cfi_def_cfa_offset 16
	.cfi_offset %rbp, -16
	movq	%rsp, %rbp
	.cfi_def_cfa_register %rbp
	subq	$16, %rsp
	imulq	$24, %rdx, %rdx
	movq	%rdi, -8(%rbp)
	movq	%rsi, %rdi
	movq	-8(%rbp), %rsi
	callq	_memcpy
	addq	$16, %rsp
	popq	%rbp
	retq
	.cfi_endproc

	.p2align	4, 0x90
__ZN4core10intrinsics19copy_nonoverlapping17hbcaf28f4ec0f8addE:
	.cfi_startproc
	pushq	%rbp
	.cfi_def_cfa_offset 16
	.cfi_offset %rbp, -16
	movq	%rsp, %rbp
	.cfi_def_cfa_register %rbp
	subq	$16, %rsp
	imulq	$24, %rdx, %rdx
	movq	%rdi, -8(%rbp)
	movq	%rsi, %rdi
	movq	-8(%rbp), %rsi
	callq	_memcpy
	addq	$16, %rsp
	popq	%rbp
	retq
	.cfi_endproc

	.p2align	4, 0x90
__ZN4core10intrinsics19copy_nonoverlapping17hd6602c5609d8aca9E:
	.cfi_startproc
	pushq	%rbp
	.cfi_def_cfa_offset 16
	.cfi_offset %rbp, -16
	movq	%rsp, %rbp
	.cfi_def_cfa_register %rbp
	subq	$16, %rsp
	imulq	$24, %rdx, %rdx
	movq	%rdi, -8(%rbp)
	movq	%rsi, %rdi
	movq	-8(%rbp), %rsi
	callq	_memcpy
	addq	$16, %rsp
	popq	%rbp
	retq
	.cfi_endproc

	.p2align	4, 0x90
__ZN4core10intrinsics19copy_nonoverlapping17hd8afc9215dc66c77E:
	.cfi_startproc
	pushq	%rbp
	.cfi_def_cfa_offset 16
	.cfi_offset %rbp, -16
	movq	%rsp, %rbp
	.cfi_def_cfa_register %rbp
	subq	$16, %rsp
	imulq	$24, %rdx, %rdx
	movq	%rdi, -8(%rbp)
	movq	%rsi, %rdi
	movq	-8(%rbp), %rsi
	callq	_memcpy
	addq	$16, %rsp
	popq	%rbp
	retq
	.cfi_endproc

	.p2align	4, 0x90
__ZN4core10intrinsics19copy_nonoverlapping17he59c338e203b5dbbE:
	.cfi_startproc
	pushq	%rbp
	.cfi_def_cfa_offset 16
	.cfi_offset %rbp, -16
	movq	%rsp, %rbp
	.cfi_def_cfa_register %rbp
	subq	$16, %rsp
	shlq	$4, %rdx
	movq	%rdi, -8(%rbp)
	movq	%rsi, %rdi
	movq	-8(%rbp), %rsi
	callq	_memcpy
	addq	$16, %rsp
	popq	%rbp
	retq
	.cfi_endproc

	.p2align	4, 0x90
__ZN4core10intrinsics19copy_nonoverlapping17hf4ea665c698606c5E:
	.cfi_startproc
	pushq	%rbp
	.cfi_def_cfa_offset 16
	.cfi_offset %rbp, -16
	movq	%rsp, %rbp
	.cfi_def_cfa_register %rbp
	subq	$16, %rsp
	shlq	$0, %rdx
	movq	%rdi, -8(%rbp)
	movq	%rsi, %rdi
	movq	-8(%rbp), %rsi
	callq	_memcpy
	addq	$16, %rsp
	popq	%rbp
	retq
	.cfi_endproc

	.p2align	4, 0x90
__ZN4core3cmp5impls69_$LT$impl$u20$core..cmp..PartialEq$LT$$RF$B$GT$$u20$for$u20$$RF$A$GT$2eq17h2b15dac1e03c14e6E:
	.cfi_startproc
	pushq	%rbp
	.cfi_def_cfa_offset 16
	.cfi_offset %rbp, -16
	movq	%rsp, %rbp
	.cfi_def_cfa_register %rbp
	subq	$16, %rsp
	movq	(%rdi), %rax
	movq	8(%rdi), %rcx
	movq	(%rsi), %rdx
	movq	8(%rsi), %rsi
	movq	%rax, %rdi
	movq	%rsi, -8(%rbp)
	movq	%rcx, %rsi
	movq	-8(%rbp), %rcx
	callq	__ZN4core5slice81_$LT$impl$u20$core..cmp..PartialEq$LT$$u5b$B$u5d$$GT$$u20$for$u20$$u5b$A$u5d$$GT$2eq17h8b54f25488620431E
	movb	%al, -9(%rbp)
	movb	-9(%rbp), %al
	andb	$1, %al
	movzbl	%al, %eax
	addq	$16, %rsp
	popq	%rbp
	retq
	.cfi_endproc

	.p2align	4, 0x90
__ZN4core3cmp5impls69_$LT$impl$u20$core..cmp..PartialEq$LT$$RF$B$GT$$u20$for$u20$$RF$A$GT$2ne17hdcb51ae6a4f2f9d4E:
	.cfi_startproc
	pushq	%rbp
	.cfi_def_cfa_offset 16
	.cfi_offset %rbp, -16
	movq	%rsp, %rbp
	.cfi_def_cfa_register %rbp
	subq	$16, %rsp
	movq	(%rdi), %rax
	movq	8(%rdi), %rcx
	movq	(%rsi), %rdx
	movq	8(%rsi), %rsi
	movq	%rax, %rdi
	movq	%rsi, -8(%rbp)
	movq	%rcx, %rsi
	movq	-8(%rbp), %rcx
	callq	__ZN4core3str6traits54_$LT$impl$u20$core..cmp..PartialEq$u20$for$u20$str$GT$2ne17h807769dfa9380e51E
	movb	%al, -9(%rbp)
	movb	-9(%rbp), %al
	andb	$1, %al
	movzbl	%al, %eax
	addq	$16, %rsp
	popq	%rbp
	retq
	.cfi_endproc

	.p2align	4, 0x90
__ZN4core3fmt10ArgumentV13new17h0c4d71660171006aE:
	.cfi_startproc
	pushq	%rbp
	.cfi_def_cfa_offset 16
	.cfi_offset %rbp, -16
	movq	%rsp, %rbp
	.cfi_def_cfa_register %rbp
	subq	$56, %rsp
	movq	%rsi, -16(%rbp)
	movq	-16(%rbp), %rax
	movq	%rdi, -40(%rbp)
	movq	%rax, -48(%rbp)
	movq	-40(%rbp), %rax
	movq	%rax, -8(%rbp)
	movq	-8(%rbp), %rcx
	movq	%rcx, -56(%rbp)
	movq	-56(%rbp), %rax
	movq	%rax, -32(%rbp)
	movq	-48(%rbp), %rcx
	movq	%rcx, -24(%rbp)
	movq	-32(%rbp), %rax
	movq	-24(%rbp), %rdx
	addq	$56, %rsp
	popq	%rbp
	retq
	.cfi_endproc

	.p2align	4, 0x90
__ZN4core3fmt10ArgumentV13new17h9f8e42e5791f354aE:
	.cfi_startproc
	pushq	%rbp
	.cfi_def_cfa_offset 16
	.cfi_offset %rbp, -16
	movq	%rsp, %rbp
	.cfi_def_cfa_register %rbp
	subq	$56, %rsp
	movq	%rsi, -16(%rbp)
	movq	-16(%rbp), %rax
	movq	%rdi, -40(%rbp)
	movq	%rax, -48(%rbp)
	movq	-40(%rbp), %rax
	movq	%rax, -8(%rbp)
	movq	-8(%rbp), %rcx
	movq	%rcx, -56(%rbp)
	movq	-56(%rbp), %rax
	movq	%rax, -32(%rbp)
	movq	-48(%rbp), %rcx
	movq	%rcx, -24(%rbp)
	movq	-32(%rbp), %rax
	movq	-24(%rbp), %rdx
	addq	$56, %rsp
	popq	%rbp
	retq
	.cfi_endproc

	.p2align	4, 0x90
__ZN4core3fmt10ArgumentV13new17hae8fa9517d8d9490E:
	.cfi_startproc
	pushq	%rbp
	.cfi_def_cfa_offset 16
	.cfi_offset %rbp, -16
	movq	%rsp, %rbp
	.cfi_def_cfa_register %rbp
	subq	$56, %rsp
	movq	%rsi, -16(%rbp)
	movq	-16(%rbp), %rax
	movq	%rdi, -40(%rbp)
	movq	%rax, -48(%rbp)
	movq	-40(%rbp), %rax
	movq	%rax, -8(%rbp)
	movq	-8(%rbp), %rcx
	movq	%rcx, -56(%rbp)
	movq	-56(%rbp), %rax
	movq	%rax, -32(%rbp)
	movq	-48(%rbp), %rcx
	movq	%rcx, -24(%rbp)
	movq	-32(%rbp), %rax
	movq	-24(%rbp), %rdx
	addq	$56, %rsp
	popq	%rbp
	retq
	.cfi_endproc

	.p2align	4, 0x90
__ZN4core3fmt9Arguments6new_v117hd227699d940bcf05E:
	.cfi_startproc
	pushq	%rbp
	.cfi_def_cfa_offset 16
	.cfi_offset %rbp, -16
	movq	%rsp, %rbp
	.cfi_def_cfa_register %rbp
	subq	$16, %rsp
	movq	%rdi, %rax
	movq	$0, -16(%rbp)
	movq	%rsi, (%rdi)
	movq	%rdx, 8(%rdi)
	movq	-16(%rbp), %rdx
	movq	-8(%rbp), %rsi
	movq	%rdx, 16(%rdi)
	movq	%rsi, 24(%rdi)
	movq	%rcx, 32(%rdi)
	movq	%r8, 40(%rdi)
	addq	$16, %rsp
	popq	%rbp
	retq
	.cfi_endproc

	.p2align	4, 0x90
__ZN4core3mem11size_of_val17hdd88bf3f24835fceE:
	.cfi_startproc
	pushq	%rbp
	.cfi_def_cfa_offset 16
	.cfi_offset %rbp, -16
	movq	%rsp, %rbp
	.cfi_def_cfa_register %rbp
	subq	$16, %rsp
	shlq	$0, %rsi
	movq	%rsi, -8(%rbp)
	movq	-8(%rbp), %rax
	movq	%rax, -16(%rbp)
	movq	-16(%rbp), %rax
	addq	$16, %rsp
	popq	%rbp
	retq
	.cfi_endproc

	.p2align	4, 0x90
__ZN4core3mem4drop17h36bf63bc3e2b61dfE:
	.cfi_startproc
	pushq	%rbp
	.cfi_def_cfa_offset 16
	.cfi_offset %rbp, -16
	movq	%rsp, %rbp
	.cfi_def_cfa_register %rbp
	callq	__ZN4core3ptr13drop_in_place17hdf9ed5635dbbf4ccE
	popq	%rbp
	retq
	.cfi_endproc

	.p2align	4, 0x90
__ZN4core3mem4drop17hd9848b70979fbb94E:
	.cfi_startproc
	pushq	%rbp
	.cfi_def_cfa_offset 16
	.cfi_offset %rbp, -16
	movq	%rsp, %rbp
	.cfi_def_cfa_register %rbp
	callq	__ZN4core3ptr13drop_in_place17h8dc37b7293308628E
	popq	%rbp
	retq
	.cfi_endproc

	.p2align	4, 0x90
__ZN4core3mem4swap17he2133b5fadd10bcdE:
	.cfi_startproc
	pushq	%rbp
	.cfi_def_cfa_offset 16
	.cfi_offset %rbp, -16
	movq	%rsp, %rbp
	.cfi_def_cfa_register %rbp
	callq	__ZN4core3ptr23swap_nonoverlapping_one17he247c38ce5401e02E
	popq	%rbp
	retq
	.cfi_endproc

	.p2align	4, 0x90
__ZN4core3mem4take17h0ec2ba396e8bc144E:
	.cfi_startproc
	pushq	%rbp
	.cfi_def_cfa_offset 16
	.cfi_offset %rbp, -16
	movq	%rsp, %rbp
	.cfi_def_cfa_register %rbp
	subq	$48, %rsp
	movq	%rdi, -8(%rbp)
	callq	__ZN72_$LT$core..option..Option$LT$T$GT$$u20$as$u20$core..default..Default$GT$7default17h2aeb99d51328cf09E
	movq	%rax, -16(%rbp)
	movq	%rdx, -24(%rbp)
	movq	-8(%rbp), %rdi
	movq	-16(%rbp), %rsi
	movq	-24(%rbp), %rdx
	callq	__ZN4core3mem7replace17hbea4cf2732bc830aE
	movq	%rax, -32(%rbp)
	movq	%rdx, -40(%rbp)
	movq	-32(%rbp), %rax
	movq	-40(%rbp), %rdx
	addq	$48, %rsp
	popq	%rbp
	retq
	.cfi_endproc

	.p2align	4, 0x90
__ZN4core3mem6forget17hc7587099ad3efef1E:
	.cfi_startproc
	pushq	%rbp
	.cfi_def_cfa_offset 16
	.cfi_offset %rbp, -16
	movq	%rsp, %rbp
	.cfi_def_cfa_register %rbp
	pushq	%rax
	movq	%rdi, -8(%rbp)
	addq	$8, %rsp
	popq	%rbp
	retq
	.cfi_endproc

	.p2align	4, 0x90
__ZN4core3mem7replace17hbea4cf2732bc830aE:
Lfunc_begin3:
	.cfi_startproc
	.cfi_personality 155, _rust_eh_personality
	.cfi_lsda 16, Lexception3
	pushq	%rbp
	.cfi_def_cfa_offset 16
	.cfi_offset %rbp, -16
	movq	%rsp, %rbp
	.cfi_def_cfa_register %rbp
	subq	$32, %rsp
	movq	%rsi, -32(%rbp)
	movq	%rdx, -24(%rbp)
Ltmp15:
	leaq	-32(%rbp), %rsi
	callq	__ZN4core3mem4swap17he2133b5fadd10bcdE
Ltmp16:
	jmp	LBB40_2
LBB40_1:
	movq	-16(%rbp), %rdi
	callq	__Unwind_Resume
	ud2
LBB40_2:
	movq	-32(%rbp), %rax
	movq	-24(%rbp), %rdx
	addq	$32, %rsp
	popq	%rbp
	retq
LBB40_3:
	jmp	LBB40_1
LBB40_4:
Ltmp17:
	movq	%rax, -16(%rbp)
	movl	%edx, -8(%rbp)
	jmp	LBB40_3
Lfunc_end3:
	.cfi_endproc
	.section	__TEXT,__gcc_except_tab
	.p2align	2
GCC_except_table40:
Lexception3:
	.byte	255
	.byte	255
	.byte	1
	.uleb128 Lcst_end3-Lcst_begin3
Lcst_begin3:
	.uleb128 Ltmp15-Lfunc_begin3
	.uleb128 Ltmp16-Ltmp15
	.uleb128 Ltmp17-Lfunc_begin3
	.byte	0
	.uleb128 Ltmp16-Lfunc_begin3
	.uleb128 Lfunc_end3-Ltmp16
	.byte	0
	.byte	0
Lcst_end3:
	.p2align	2

	.section	__TEXT,__text,regular,pure_instructions
	.p2align	4, 0x90
__ZN4core3num12NonZeroUsize13new_unchecked17h5050cfe8f486861dE:
	.cfi_startproc
	pushq	%rbp
	.cfi_def_cfa_offset 16
	.cfi_offset %rbp, -16
	movq	%rsp, %rbp
	.cfi_def_cfa_register %rbp
	pushq	%rax
	movq	%rdi, -8(%rbp)
	movq	-8(%rbp), %rax
	addq	$8, %rsp
	popq	%rbp
	retq
	.cfi_endproc

	.p2align	4, 0x90
__ZN4core3num12NonZeroUsize3get17h3d357e4953c3821bE:
	.cfi_startproc
	pushq	%rbp
	.cfi_def_cfa_offset 16
	.cfi_offset %rbp, -16
	movq	%rsp, %rbp
	.cfi_def_cfa_register %rbp
	movq	%rdi, %rax
	popq	%rbp
	retq
	.cfi_endproc

	.p2align	4, 0x90
__ZN4core3ops8function6FnOnce40call_once$u7b$$u7b$vtable.shim$u7d$$u7d$17he90557d15ab6745fE:
	.cfi_startproc
	pushq	%rbp
	.cfi_def_cfa_offset 16
	.cfi_offset %rbp, -16
	movq	%rsp, %rbp
	.cfi_def_cfa_register %rbp
	subq	$16, %rsp
	movq	(%rdi), %rdi
	callq	__ZN4core3ops8function6FnOnce9call_once17h4cd767116ef0ea70E
	movl	%eax, -12(%rbp)
	movl	-12(%rbp), %eax
	addq	$16, %rsp
	popq	%rbp
	retq
	.cfi_endproc

	.p2align	4, 0x90
__ZN4core3ops8function6FnOnce9call_once17h4cd767116ef0ea70E:
Lfunc_begin4:
	.cfi_startproc
	.cfi_personality 155, _rust_eh_personality
	.cfi_lsda 16, Lexception4
	pushq	%rbp
	.cfi_def_cfa_offset 16
	.cfi_offset %rbp, -16
	movq	%rsp, %rbp
	.cfi_def_cfa_register %rbp
	subq	$48, %rsp
	movq	%rdi, -32(%rbp)
Ltmp18:
	leaq	-32(%rbp), %rdi
	callq	__ZN3std2rt10lang_start28_$u7b$$u7b$closure$u7d$$u7d$17hca00697b96feb0e4E
Ltmp19:
	movl	%eax, -36(%rbp)
	jmp	LBB44_1
LBB44_1:
	jmp	LBB44_2
LBB44_2:
	movl	-36(%rbp), %eax
	addq	$48, %rsp
	popq	%rbp
	retq
LBB44_3:
	jmp	LBB44_4
LBB44_4:
	movq	-16(%rbp), %rdi
	callq	__Unwind_Resume
	ud2
LBB44_5:
Ltmp20:
	movq	%rax, -16(%rbp)
	movl	%edx, -8(%rbp)
	jmp	LBB44_3
Lfunc_end4:
	.cfi_endproc
	.section	__TEXT,__gcc_except_tab
	.p2align	2
GCC_except_table44:
Lexception4:
	.byte	255
	.byte	255
	.byte	1
	.uleb128 Lcst_end4-Lcst_begin4
Lcst_begin4:
	.uleb128 Ltmp18-Lfunc_begin4
	.uleb128 Ltmp19-Ltmp18
	.uleb128 Ltmp20-Lfunc_begin4
	.byte	0
	.uleb128 Ltmp19-Lfunc_begin4
	.uleb128 Lfunc_end4-Ltmp19
	.byte	0
	.byte	0
Lcst_end4:
	.p2align	2

	.section	__TEXT,__text,regular,pure_instructions
	.p2align	4, 0x90
__ZN4core3ptr13drop_in_place17h061a1f5d115688ecE:
	.cfi_startproc
	pushq	%rbp
	.cfi_def_cfa_offset 16
	.cfi_offset %rbp, -16
	movq	%rsp, %rbp
	.cfi_def_cfa_register %rbp
	subq	$16, %rsp
	callq	__ZN4core3ptr13drop_in_place17h71b2d41cffdceae7E
	addq	$16, %rsp
	popq	%rbp
	retq
	.cfi_endproc

	.p2align	4, 0x90
__ZN4core3ptr13drop_in_place17h0a883d353b57b659E:
	.cfi_startproc
	pushq	%rbp
	.cfi_def_cfa_offset 16
	.cfi_offset %rbp, -16
	movq	%rsp, %rbp
	.cfi_def_cfa_register %rbp
	subq	$16, %rsp
	callq	__ZN77_$LT$alloc..raw_vec..RawVec$LT$T$C$A$GT$$u20$as$u20$core..ops..drop..Drop$GT$4drop17h2d6d09698b36b1a6E
	addq	$16, %rsp
	popq	%rbp
	retq
	.cfi_endproc

	.p2align	4, 0x90
__ZN4core3ptr13drop_in_place17h10c79dc40ce670c4E:
	.cfi_startproc
	pushq	%rbp
	.cfi_def_cfa_offset 16
	.cfi_offset %rbp, -16
	movq	%rsp, %rbp
	.cfi_def_cfa_register %rbp
	subq	$16, %rsp
	callq	__ZN77_$LT$alloc..raw_vec..RawVec$LT$T$C$A$GT$$u20$as$u20$core..ops..drop..Drop$GT$4drop17h5b33f5eb9c71d514E
	addq	$16, %rsp
	popq	%rbp
	retq
	.cfi_endproc

	.p2align	4, 0x90
__ZN4core3ptr13drop_in_place17h1101499e7326ed29E:
	.cfi_startproc
	pushq	%rbp
	.cfi_def_cfa_offset 16
	.cfi_offset %rbp, -16
	movq	%rsp, %rbp
	.cfi_def_cfa_register %rbp
	subq	$16, %rsp
	movb	(%rdi), %al
	subb	$1, %al
	movq	%rdi, -16(%rbp)
	ja	LBB48_2
	jmp	LBB48_1
LBB48_1:
	addq	$16, %rsp
	popq	%rbp
	retq
LBB48_2:
	movq	-16(%rbp), %rax
	addq	$8, %rax
	movq	%rax, %rdi
	callq	__ZN4core3ptr13drop_in_place17he321d67547b9f3f0E
	jmp	LBB48_1
	.cfi_endproc

	.p2align	4, 0x90
__ZN4core3ptr13drop_in_place17h12ff765c89a7ad6aE:
Lfunc_begin5:
	.cfi_startproc
	.cfi_personality 155, _rust_eh_personality
	.cfi_lsda 16, Lexception5
	pushq	%rbp
	.cfi_def_cfa_offset 16
	.cfi_offset %rbp, -16
	movq	%rsp, %rbp
	.cfi_def_cfa_register %rbp
	subq	$64, %rsp
	xorl	%eax, %eax
	testb	$1, %al
	movq	%rdi, -56(%rbp)
	movq	%rsi, -64(%rbp)
	jne	LBB49_7
	jmp	LBB49_12
LBB49_1:
	addq	$64, %rsp
	popq	%rbp
	retq
LBB49_2:
	movq	-16(%rbp), %rdi
	callq	__Unwind_Resume
	ud2
LBB49_3:
	movq	-40(%rbp), %rax
	shlq	$4, %rax
	movq	-56(%rbp), %rcx
	addq	%rax, %rcx
	movq	-40(%rbp), %rax
	addq	$1, %rax
	movq	%rax, -40(%rbp)
	movq	%rcx, %rdi
	callq	__ZN4core3ptr13drop_in_place17h973f5495b95509c0E
LBB49_4:
	movq	-64(%rbp), %rax
	cmpq	%rax, -40(%rbp)
	je	LBB49_2
	jmp	LBB49_3
LBB49_5:
	movq	-40(%rbp), %rax
	movq	%rax, %rcx
	shlq	$4, %rcx
	movq	-56(%rbp), %rdx
	addq	%rcx, %rdx
	incq	%rax
	movq	%rax, -40(%rbp)
Ltmp24:
	movq	%rdx, %rdi
	callq	__ZN4core3ptr13drop_in_place17h973f5495b95509c0E
Ltmp25:
	jmp	LBB49_6
LBB49_6:
	movq	-64(%rbp), %rax
	cmpq	%rax, -40(%rbp)
	je	LBB49_1
	jmp	LBB49_5
LBB49_7:
	movq	$0, -40(%rbp)
	jmp	LBB49_6
LBB49_8:
	movq	-32(%rbp), %rdi
	movq	-32(%rbp), %rax
	addq	$16, %rax
	movq	%rax, -32(%rbp)
	callq	__ZN4core3ptr13drop_in_place17h973f5495b95509c0E
LBB49_9:
	movq	-32(%rbp), %rax
	cmpq	-24(%rbp), %rax
	je	LBB49_2
	jmp	LBB49_8
LBB49_10:
	movq	-32(%rbp), %rax
	movq	%rax, %rcx
	addq	$16, %rcx
	movq	%rcx, -32(%rbp)
Ltmp21:
	movq	%rax, %rdi
	callq	__ZN4core3ptr13drop_in_place17h973f5495b95509c0E
Ltmp22:
	jmp	LBB49_11
LBB49_11:
	movq	-32(%rbp), %rax
	cmpq	-24(%rbp), %rax
	je	LBB49_1
	jmp	LBB49_10
LBB49_12:
	movq	-56(%rbp), %rax
	movq	%rax, -32(%rbp)
	movq	-64(%rbp), %rax
	shlq	$4, %rax
	addq	-32(%rbp), %rax
	movq	%rax, -24(%rbp)
	jmp	LBB49_11
LBB49_13:
Ltmp23:
	movq	%rax, -16(%rbp)
	movl	%edx, -8(%rbp)
	jmp	LBB49_9
LBB49_14:
Ltmp26:
	movq	%rax, -16(%rbp)
	movl	%edx, -8(%rbp)
	jmp	LBB49_4
Lfunc_end5:
	.cfi_endproc
	.section	__TEXT,__gcc_except_tab
	.p2align	2
GCC_except_table49:
Lexception5:
	.byte	255
	.byte	255
	.byte	1
	.uleb128 Lcst_end5-Lcst_begin5
Lcst_begin5:
	.uleb128 Lfunc_begin5-Lfunc_begin5
	.uleb128 Ltmp24-Lfunc_begin5
	.byte	0
	.byte	0
	.uleb128 Ltmp24-Lfunc_begin5
	.uleb128 Ltmp25-Ltmp24
	.uleb128 Ltmp26-Lfunc_begin5
	.byte	0
	.uleb128 Ltmp25-Lfunc_begin5
	.uleb128 Ltmp21-Ltmp25
	.byte	0
	.byte	0
	.uleb128 Ltmp21-Lfunc_begin5
	.uleb128 Ltmp22-Ltmp21
	.uleb128 Ltmp23-Lfunc_begin5
	.byte	0
Lcst_end5:
	.p2align	2

	.section	__TEXT,__text,regular,pure_instructions
	.p2align	4, 0x90
__ZN4core3ptr13drop_in_place17h2ad594cc437e87d1E:
Lfunc_begin6:
	.cfi_startproc
	.cfi_personality 155, _rust_eh_personality
	.cfi_lsda 16, Lexception6
	pushq	%rbp
	.cfi_def_cfa_offset 16
	.cfi_offset %rbp, -16
	movq	%rsp, %rbp
	.cfi_def_cfa_register %rbp
	subq	$32, %rsp
Ltmp27:
	movq	%rdi, -32(%rbp)
	callq	__ZN66_$LT$alloc..vec..Vec$LT$T$GT$$u20$as$u20$core..ops..drop..Drop$GT$4drop17h5bf52edb587f487eE
Ltmp28:
	jmp	LBB50_4
LBB50_1:
	movq	-16(%rbp), %rdi
	callq	__Unwind_Resume
	ud2
LBB50_2:
	addq	$32, %rsp
	popq	%rbp
	retq
LBB50_3:
	movq	-32(%rbp), %rax
	movq	%rax, %rdi
	callq	__ZN4core3ptr13drop_in_place17hd0278cfd6afb440bE
	jmp	LBB50_1
LBB50_4:
	movq	-32(%rbp), %rax
	movq	%rax, %rdi
	callq	__ZN4core3ptr13drop_in_place17hd0278cfd6afb440bE
	jmp	LBB50_2
LBB50_5:
Ltmp29:
	movq	%rax, -16(%rbp)
	movl	%edx, -8(%rbp)
	jmp	LBB50_3
Lfunc_end6:
	.cfi_endproc
	.section	__TEXT,__gcc_except_tab
	.p2align	2
GCC_except_table50:
Lexception6:
	.byte	255
	.byte	255
	.byte	1
	.uleb128 Lcst_end6-Lcst_begin6
Lcst_begin6:
	.uleb128 Ltmp27-Lfunc_begin6
	.uleb128 Ltmp28-Ltmp27
	.uleb128 Ltmp29-Lfunc_begin6
	.byte	0
	.uleb128 Ltmp28-Lfunc_begin6
	.uleb128 Lfunc_end6-Ltmp28
	.byte	0
	.byte	0
Lcst_end6:
	.p2align	2

	.section	__TEXT,__text,regular,pure_instructions
	.p2align	4, 0x90
__ZN4core3ptr13drop_in_place17h3060bbeaa232b71eE:
	.cfi_startproc
	pushq	%rbp
	.cfi_def_cfa_offset 16
	.cfi_offset %rbp, -16
	movq	%rsp, %rbp
	.cfi_def_cfa_register %rbp
	subq	$16, %rsp
	movl	(%rdi), %eax
	subl	$2, %eax
	movq	%rdi, -16(%rbp)
	ja	LBB51_2
	jmp	LBB51_1
LBB51_1:
	addq	$16, %rsp
	popq	%rbp
	retq
LBB51_2:
	movq	-16(%rbp), %rax
	addq	$4, %rax
	movq	%rax, %rdi
	callq	__ZN4core3ptr13drop_in_place17ha956147db13bc9bdE
	jmp	LBB51_1
	.cfi_endproc

	.p2align	4, 0x90
__ZN4core3ptr13drop_in_place17h3aafeb836df563d2E:
Lfunc_begin7:
	.cfi_startproc
	.cfi_personality 155, _rust_eh_personality
	.cfi_lsda 16, Lexception7
	pushq	%rbp
	.cfi_def_cfa_offset 16
	.cfi_offset %rbp, -16
	movq	%rsp, %rbp
	.cfi_def_cfa_register %rbp
	subq	$32, %rsp
	movq	(%rdi), %rax
	movq	8(%rdi), %rcx
	movq	(%rcx), %rcx
Ltmp30:
	movq	%rdi, -32(%rbp)
	movq	%rax, %rdi
	callq	*%rcx
Ltmp31:
	jmp	LBB52_3
LBB52_1:
	addq	$32, %rsp
	popq	%rbp
	retq
LBB52_2:
	movq	-16(%rbp), %rdi
	callq	__Unwind_Resume
	ud2
LBB52_3:
	movq	-32(%rbp), %rax
	movq	(%rax), %rdi
	movq	8(%rax), %rsi
	callq	__ZN5alloc5alloc8box_free17hc2d95083d4ba9873E
	jmp	LBB52_1
LBB52_4:
	movq	-32(%rbp), %rax
	movq	(%rax), %rdi
	movq	8(%rax), %rsi
	callq	__ZN5alloc5alloc8box_free17hc2d95083d4ba9873E
	jmp	LBB52_2
LBB52_5:
Ltmp32:
	movq	%rax, -16(%rbp)
	movl	%edx, -8(%rbp)
	jmp	LBB52_4
Lfunc_end7:
	.cfi_endproc
	.section	__TEXT,__gcc_except_tab
	.p2align	2
GCC_except_table52:
Lexception7:
	.byte	255
	.byte	255
	.byte	1
	.uleb128 Lcst_end7-Lcst_begin7
Lcst_begin7:
	.uleb128 Ltmp30-Lfunc_begin7
	.uleb128 Ltmp31-Ltmp30
	.uleb128 Ltmp32-Lfunc_begin7
	.byte	0
	.uleb128 Ltmp31-Lfunc_begin7
	.uleb128 Lfunc_end7-Ltmp31
	.byte	0
	.byte	0
Lcst_end7:
	.p2align	2

	.section	__TEXT,__text,regular,pure_instructions
	.p2align	4, 0x90
__ZN4core3ptr13drop_in_place17h3ff68f1416ac79e1E:
	.cfi_startproc
	pushq	%rbp
	.cfi_def_cfa_offset 16
	.cfi_offset %rbp, -16
	movq	%rsp, %rbp
	.cfi_def_cfa_register %rbp
	subq	$16, %rsp
	callq	*(%rsi)
	addq	$16, %rsp
	popq	%rbp
	retq
	.cfi_endproc

	.p2align	4, 0x90
__ZN4core3ptr13drop_in_place17h4cb5480fff1c2a84E:
	.cfi_startproc
	pushq	%rbp
	.cfi_def_cfa_offset 16
	.cfi_offset %rbp, -16
	movq	%rsp, %rbp
	.cfi_def_cfa_register %rbp
	subq	$16, %rsp
	callq	__ZN4core3ptr13drop_in_place17h3aafeb836df563d2E
	addq	$16, %rsp
	popq	%rbp
	retq
	.cfi_endproc

	.p2align	4, 0x90
__ZN4core3ptr13drop_in_place17h5732588b0eb6c5d0E:
Lfunc_begin8:
	.cfi_startproc
	.cfi_personality 155, _rust_eh_personality
	.cfi_lsda 16, Lexception8
	pushq	%rbp
	.cfi_def_cfa_offset 16
	.cfi_offset %rbp, -16
	movq	%rsp, %rbp
	.cfi_def_cfa_register %rbp
	subq	$32, %rsp
Ltmp33:
	movq	%rdi, -32(%rbp)
	callq	__ZN4core3ptr13drop_in_place17h2ad594cc437e87d1E
Ltmp34:
	jmp	LBB55_4
LBB55_1:
	movq	-16(%rbp), %rdi
	callq	__Unwind_Resume
	ud2
LBB55_2:
	addq	$32, %rsp
	popq	%rbp
	retq
LBB55_3:
	movq	-32(%rbp), %rax
	addq	$24, %rax
	movq	%rax, %rdi
	callq	__ZN4core3ptr13drop_in_place17h2ad594cc437e87d1E
	jmp	LBB55_1
LBB55_4:
	movq	-32(%rbp), %rax
	addq	$24, %rax
	movq	%rax, %rdi
	callq	__ZN4core3ptr13drop_in_place17h2ad594cc437e87d1E
	jmp	LBB55_2
LBB55_5:
Ltmp35:
	movq	%rax, -16(%rbp)
	movl	%edx, -8(%rbp)
	jmp	LBB55_3
Lfunc_end8:
	.cfi_endproc
	.section	__TEXT,__gcc_except_tab
	.p2align	2
GCC_except_table55:
Lexception8:
	.byte	255
	.byte	255
	.byte	1
	.uleb128 Lcst_end8-Lcst_begin8
Lcst_begin8:
	.uleb128 Ltmp33-Lfunc_begin8
	.uleb128 Ltmp34-Ltmp33
	.uleb128 Ltmp35-Lfunc_begin8
	.byte	0
	.uleb128 Ltmp34-Lfunc_begin8
	.uleb128 Lfunc_end8-Ltmp34
	.byte	0
	.byte	0
Lcst_end8:
	.p2align	2

	.section	__TEXT,__text,regular,pure_instructions
	.p2align	4, 0x90
__ZN4core3ptr13drop_in_place17h60e9ae3903b74a3dE:
	.cfi_startproc
	pushq	%rbp
	.cfi_def_cfa_offset 16
	.cfi_offset %rbp, -16
	movq	%rsp, %rbp
	.cfi_def_cfa_register %rbp
	pushq	%rax
	addq	$8, %rsp
	popq	%rbp
	retq
	.cfi_endproc

	.p2align	4, 0x90
__ZN4core3ptr13drop_in_place17h701b771c94737344E:
	.cfi_startproc
	pushq	%rbp
	.cfi_def_cfa_offset 16
	.cfi_offset %rbp, -16
	movq	%rsp, %rbp
	.cfi_def_cfa_register %rbp
	subq	$16, %rsp
	callq	*(%rsi)
	addq	$16, %rsp
	popq	%rbp
	retq
	.cfi_endproc

	.p2align	4, 0x90
__ZN4core3ptr13drop_in_place17h71b2d41cffdceae7E:
Lfunc_begin9:
	.cfi_startproc
	.cfi_personality 155, _rust_eh_personality
	.cfi_lsda 16, Lexception9
	pushq	%rbp
	.cfi_def_cfa_offset 16
	.cfi_offset %rbp, -16
	movq	%rsp, %rbp
	.cfi_def_cfa_register %rbp
	subq	$32, %rsp
Ltmp36:
	movq	%rdi, -32(%rbp)
	callq	__ZN66_$LT$alloc..vec..Vec$LT$T$GT$$u20$as$u20$core..ops..drop..Drop$GT$4drop17h8baa584845adfd2cE
Ltmp37:
	jmp	LBB58_4
LBB58_1:
	movq	-16(%rbp), %rdi
	callq	__Unwind_Resume
	ud2
LBB58_2:
	addq	$32, %rsp
	popq	%rbp
	retq
LBB58_3:
	movq	-32(%rbp), %rax
	movq	%rax, %rdi
	callq	__ZN4core3ptr13drop_in_place17h0a883d353b57b659E
	jmp	LBB58_1
LBB58_4:
	movq	-32(%rbp), %rax
	movq	%rax, %rdi
	callq	__ZN4core3ptr13drop_in_place17h0a883d353b57b659E
	jmp	LBB58_2
LBB58_5:
Ltmp38:
	movq	%rax, -16(%rbp)
	movl	%edx, -8(%rbp)
	jmp	LBB58_3
Lfunc_end9:
	.cfi_endproc
	.section	__TEXT,__gcc_except_tab
	.p2align	2
GCC_except_table58:
Lexception9:
	.byte	255
	.byte	255
	.byte	1
	.uleb128 Lcst_end9-Lcst_begin9
Lcst_begin9:
	.uleb128 Ltmp36-Lfunc_begin9
	.uleb128 Ltmp37-Ltmp36
	.uleb128 Ltmp38-Lfunc_begin9
	.byte	0
	.uleb128 Ltmp37-Lfunc_begin9
	.uleb128 Lfunc_end9-Ltmp37
	.byte	0
	.byte	0
Lcst_end9:
	.p2align	2

	.section	__TEXT,__text,regular,pure_instructions
	.p2align	4, 0x90
__ZN4core3ptr13drop_in_place17h73f57067fa100dbfE:
Lfunc_begin10:
	.cfi_startproc
	.cfi_personality 155, _rust_eh_personality
	.cfi_lsda 16, Lexception10
	pushq	%rbp
	.cfi_def_cfa_offset 16
	.cfi_offset %rbp, -16
	movq	%rsp, %rbp
	.cfi_def_cfa_register %rbp
	subq	$32, %rsp
Ltmp39:
	movq	%rdi, -32(%rbp)
	callq	__ZN4core3ptr13drop_in_place17h973f5495b95509c0E
Ltmp40:
	jmp	LBB59_18
LBB59_1:
	movq	-16(%rbp), %rdi
	callq	__Unwind_Resume
	ud2
LBB59_2:
	addq	$32, %rsp
	popq	%rbp
	retq
LBB59_3:
	movq	-32(%rbp), %rax
	addq	$168, %rax
	movq	%rax, %rdi
	callq	__ZN4core3ptr13drop_in_place17h81b38d786bbe1912E
	jmp	LBB59_1
LBB59_4:
	movq	-32(%rbp), %rax
	addq	$160, %rax
	movq	%rax, %rdi
	callq	__ZN4core3ptr13drop_in_place17h81b38d786bbe1912E
	jmp	LBB59_3
LBB59_5:
	movq	-32(%rbp), %rax
	addq	$152, %rax
	movq	%rax, %rdi
	callq	__ZN4core3ptr13drop_in_place17h81b38d786bbe1912E
	jmp	LBB59_4
LBB59_6:
	movq	-32(%rbp), %rax
	addq	$112, %rax
	movq	%rax, %rdi
	callq	__ZN4core3ptr13drop_in_place17hf290f739d986f46aE
	jmp	LBB59_5
LBB59_7:
	movq	-32(%rbp), %rax
	addq	$96, %rax
	movq	%rax, %rdi
	callq	__ZN4core3ptr13drop_in_place17h9890bdad602dea5aE
	jmp	LBB59_6
LBB59_8:
	movq	-32(%rbp), %rax
	addq	$64, %rax
	movq	%rax, %rdi
	callq	__ZN4core3ptr13drop_in_place17h9055508006d0727cE
	jmp	LBB59_7
LBB59_9:
	movq	-32(%rbp), %rax
	addq	$40, %rax
	movq	%rax, %rdi
	callq	__ZN4core3ptr13drop_in_place17h061a1f5d115688ecE
	jmp	LBB59_8
LBB59_10:
	movq	-32(%rbp), %rax
	addq	$16, %rax
	movq	%rax, %rdi
	callq	__ZN4core3ptr13drop_in_place17hf5da44767c0356c8E
	jmp	LBB59_9
LBB59_11:
	movq	-32(%rbp), %rax
	addq	$168, %rax
	movq	%rax, %rdi
	callq	__ZN4core3ptr13drop_in_place17h81b38d786bbe1912E
	jmp	LBB59_2
LBB59_12:
	movq	-32(%rbp), %rax
	addq	$160, %rax
Ltmp60:
	movq	%rax, %rdi
	callq	__ZN4core3ptr13drop_in_place17h81b38d786bbe1912E
Ltmp61:
	jmp	LBB59_11
LBB59_13:
	movq	-32(%rbp), %rax
	addq	$152, %rax
Ltmp57:
	movq	%rax, %rdi
	callq	__ZN4core3ptr13drop_in_place17h81b38d786bbe1912E
Ltmp58:
	jmp	LBB59_12
LBB59_14:
	movq	-32(%rbp), %rax
	addq	$112, %rax
Ltmp54:
	movq	%rax, %rdi
	callq	__ZN4core3ptr13drop_in_place17hf290f739d986f46aE
Ltmp55:
	jmp	LBB59_13
LBB59_15:
	movq	-32(%rbp), %rax
	addq	$96, %rax
Ltmp51:
	movq	%rax, %rdi
	callq	__ZN4core3ptr13drop_in_place17h9890bdad602dea5aE
Ltmp52:
	jmp	LBB59_14
LBB59_16:
	movq	-32(%rbp), %rax
	addq	$64, %rax
Ltmp48:
	movq	%rax, %rdi
	callq	__ZN4core3ptr13drop_in_place17h9055508006d0727cE
Ltmp49:
	jmp	LBB59_15
LBB59_17:
	movq	-32(%rbp), %rax
	addq	$40, %rax
Ltmp45:
	movq	%rax, %rdi
	callq	__ZN4core3ptr13drop_in_place17h061a1f5d115688ecE
Ltmp46:
	jmp	LBB59_16
LBB59_18:
	movq	-32(%rbp), %rax
	addq	$16, %rax
Ltmp42:
	movq	%rax, %rdi
	callq	__ZN4core3ptr13drop_in_place17hf5da44767c0356c8E
Ltmp43:
	jmp	LBB59_17
LBB59_19:
Ltmp41:
	movq	%rax, -16(%rbp)
	movl	%edx, -8(%rbp)
	jmp	LBB59_10
LBB59_20:
Ltmp44:
	movq	%rax, -16(%rbp)
	movl	%edx, -8(%rbp)
	jmp	LBB59_9
LBB59_21:
Ltmp47:
	movq	%rax, -16(%rbp)
	movl	%edx, -8(%rbp)
	jmp	LBB59_8
LBB59_22:
Ltmp50:
	movq	%rax, -16(%rbp)
	movl	%edx, -8(%rbp)
	jmp	LBB59_7
LBB59_23:
Ltmp53:
	movq	%rax, -16(%rbp)
	movl	%edx, -8(%rbp)
	jmp	LBB59_6
LBB59_24:
Ltmp56:
	movq	%rax, -16(%rbp)
	movl	%edx, -8(%rbp)
	jmp	LBB59_5
LBB59_25:
Ltmp59:
	movq	%rax, -16(%rbp)
	movl	%edx, -8(%rbp)
	jmp	LBB59_4
LBB59_26:
Ltmp62:
	movq	%rax, -16(%rbp)
	movl	%edx, -8(%rbp)
	jmp	LBB59_3
Lfunc_end10:
	.cfi_endproc
	.section	__TEXT,__gcc_except_tab
	.p2align	2
GCC_except_table59:
Lexception10:
	.byte	255
	.byte	255
	.byte	1
	.uleb128 Lcst_end10-Lcst_begin10
Lcst_begin10:
	.uleb128 Ltmp39-Lfunc_begin10
	.uleb128 Ltmp40-Ltmp39
	.uleb128 Ltmp41-Lfunc_begin10
	.byte	0
	.uleb128 Ltmp40-Lfunc_begin10
	.uleb128 Ltmp60-Ltmp40
	.byte	0
	.byte	0
	.uleb128 Ltmp60-Lfunc_begin10
	.uleb128 Ltmp61-Ltmp60
	.uleb128 Ltmp62-Lfunc_begin10
	.byte	0
	.uleb128 Ltmp57-Lfunc_begin10
	.uleb128 Ltmp58-Ltmp57
	.uleb128 Ltmp59-Lfunc_begin10
	.byte	0
	.uleb128 Ltmp54-Lfunc_begin10
	.uleb128 Ltmp55-Ltmp54
	.uleb128 Ltmp56-Lfunc_begin10
	.byte	0
	.uleb128 Ltmp51-Lfunc_begin10
	.uleb128 Ltmp52-Ltmp51
	.uleb128 Ltmp53-Lfunc_begin10
	.byte	0
	.uleb128 Ltmp48-Lfunc_begin10
	.uleb128 Ltmp49-Ltmp48
	.uleb128 Ltmp50-Lfunc_begin10
	.byte	0
	.uleb128 Ltmp45-Lfunc_begin10
	.uleb128 Ltmp46-Ltmp45
	.uleb128 Ltmp47-Lfunc_begin10
	.byte	0
	.uleb128 Ltmp42-Lfunc_begin10
	.uleb128 Ltmp43-Ltmp42
	.uleb128 Ltmp44-Lfunc_begin10
	.byte	0
Lcst_end10:
	.p2align	2

	.section	__TEXT,__text,regular,pure_instructions
	.p2align	4, 0x90
__ZN4core3ptr13drop_in_place17h81b38d786bbe1912E:
	.cfi_startproc
	pushq	%rbp
	.cfi_def_cfa_offset 16
	.cfi_offset %rbp, -16
	movq	%rsp, %rbp
	.cfi_def_cfa_register %rbp
	subq	$16, %rsp
	xorl	%eax, %eax
	movl	%eax, %ecx
	movl	(%rdi), %eax
	subl	$4, %eax
	cmpl	$0, %eax
	movl	$1, %edx
	cmovbeq	%rcx, %rdx
	cmpq	$0, %rdx
	movq	%rdi, -16(%rbp)
	jne	LBB60_2
LBB60_1:
	addq	$16, %rsp
	popq	%rbp
	retq
LBB60_2:
	movq	-16(%rbp), %rdi
	callq	__ZN4core3ptr13drop_in_place17h3060bbeaa232b71eE
	jmp	LBB60_1
	.cfi_endproc

	.p2align	4, 0x90
__ZN4core3ptr13drop_in_place17h828a46e4c96c5599E:
	.cfi_startproc
	pushq	%rbp
	.cfi_def_cfa_offset 16
	.cfi_offset %rbp, -16
	movq	%rsp, %rbp
	.cfi_def_cfa_register %rbp
	subq	$16, %rsp
	callq	__ZN95_$LT$alloc..collections..btree..map..BTreeMap$LT$K$C$V$GT$$u20$as$u20$core..ops..drop..Drop$GT$4drop17hc62d6730fc3148d3E
	addq	$16, %rsp
	popq	%rbp
	retq
	.cfi_endproc

	.p2align	4, 0x90
__ZN4core3ptr13drop_in_place17h8dc37b7293308628E:
Lfunc_begin11:
	.cfi_startproc
	.cfi_personality 155, _rust_eh_personality
	.cfi_lsda 16, Lexception11
	pushq	%rbp
	.cfi_def_cfa_offset 16
	.cfi_offset %rbp, -16
	movq	%rsp, %rbp
	.cfi_def_cfa_register %rbp
	subq	$32, %rsp
Ltmp63:
	movq	%rdi, -32(%rbp)
	callq	__ZN4core3ptr13drop_in_place17h8f49ee857e99fd1dE
Ltmp64:
	jmp	LBB62_4
LBB62_1:
	movq	-16(%rbp), %rdi
	callq	__Unwind_Resume
	ud2
LBB62_2:
	addq	$32, %rsp
	popq	%rbp
	retq
LBB62_3:
	movq	-32(%rbp), %rax
	addq	$24, %rax
	movq	%rax, %rdi
	callq	__ZN4core3ptr13drop_in_place17hc1b96bddf94c16efE
	jmp	LBB62_1
LBB62_4:
	movq	-32(%rbp), %rax
	addq	$24, %rax
	movq	%rax, %rdi
	callq	__ZN4core3ptr13drop_in_place17hc1b96bddf94c16efE
	jmp	LBB62_2
LBB62_5:
Ltmp65:
	movq	%rax, -16(%rbp)
	movl	%edx, -8(%rbp)
	jmp	LBB62_3
Lfunc_end11:
	.cfi_endproc
	.section	__TEXT,__gcc_except_tab
	.p2align	2
GCC_except_table62:
Lexception11:
	.byte	255
	.byte	255
	.byte	1
	.uleb128 Lcst_end11-Lcst_begin11
Lcst_begin11:
	.uleb128 Ltmp63-Lfunc_begin11
	.uleb128 Ltmp64-Ltmp63
	.uleb128 Ltmp65-Lfunc_begin11
	.byte	0
	.uleb128 Ltmp64-Lfunc_begin11
	.uleb128 Lfunc_end11-Ltmp64
	.byte	0
	.byte	0
Lcst_end11:
	.p2align	2

	.section	__TEXT,__text,regular,pure_instructions
	.p2align	4, 0x90
__ZN4core3ptr13drop_in_place17h8f49ee857e99fd1dE:
	.cfi_startproc
	pushq	%rbp
	.cfi_def_cfa_offset 16
	.cfi_offset %rbp, -16
	movq	%rsp, %rbp
	.cfi_def_cfa_register %rbp
	subq	$16, %rsp
	callq	__ZN4core3ptr13drop_in_place17hbfde360c90ba19c0E
	addq	$16, %rsp
	popq	%rbp
	retq
	.cfi_endproc

	.p2align	4, 0x90
__ZN4core3ptr13drop_in_place17h9055508006d0727cE:
	.cfi_startproc
	pushq	%rbp
	.cfi_def_cfa_offset 16
	.cfi_offset %rbp, -16
	movq	%rsp, %rbp
	.cfi_def_cfa_register %rbp
	subq	$16, %rsp
	callq	__ZN4core3ptr13drop_in_place17h828a46e4c96c5599E
	addq	$16, %rsp
	popq	%rbp
	retq
	.cfi_endproc

	.p2align	4, 0x90
__ZN4core3ptr13drop_in_place17h973f5495b95509c0E:
Lfunc_begin12:
	.cfi_startproc
	.cfi_personality 155, _rust_eh_personality
	.cfi_lsda 16, Lexception12
	pushq	%rbp
	.cfi_def_cfa_offset 16
	.cfi_offset %rbp, -16
	movq	%rsp, %rbp
	.cfi_def_cfa_register %rbp
	subq	$32, %rsp
Ltmp66:
	movq	%rdi, -32(%rbp)
	callq	__ZN66_$LT$std..ffi..c_str..CString$u20$as$u20$core..ops..drop..Drop$GT$4drop17hfe06d0de14b5a2e9E
Ltmp67:
	jmp	LBB65_4
LBB65_1:
	movq	-16(%rbp), %rdi
	callq	__Unwind_Resume
	ud2
LBB65_2:
	addq	$32, %rsp
	popq	%rbp
	retq
LBB65_3:
	movq	-32(%rbp), %rax
	movq	%rax, %rdi
	callq	__ZN4core3ptr13drop_in_place17hda4d87928598ae4aE
	jmp	LBB65_1
LBB65_4:
	movq	-32(%rbp), %rax
	movq	%rax, %rdi
	callq	__ZN4core3ptr13drop_in_place17hda4d87928598ae4aE
	jmp	LBB65_2
LBB65_5:
Ltmp68:
	movq	%rax, -16(%rbp)
	movl	%edx, -8(%rbp)
	jmp	LBB65_3
Lfunc_end12:
	.cfi_endproc
	.section	__TEXT,__gcc_except_tab
	.p2align	2
GCC_except_table65:
Lexception12:
	.byte	255
	.byte	255
	.byte	1
	.uleb128 Lcst_end12-Lcst_begin12
Lcst_begin12:
	.uleb128 Ltmp66-Lfunc_begin12
	.uleb128 Ltmp67-Ltmp66
	.uleb128 Ltmp68-Lfunc_begin12
	.byte	0
	.uleb128 Ltmp67-Lfunc_begin12
	.uleb128 Lfunc_end12-Ltmp67
	.byte	0
	.byte	0
Lcst_end12:
	.p2align	2

	.section	__TEXT,__text,regular,pure_instructions
	.p2align	4, 0x90
__ZN4core3ptr13drop_in_place17h9890bdad602dea5aE:
	.cfi_startproc
	pushq	%rbp
	.cfi_def_cfa_offset 16
	.cfi_offset %rbp, -16
	movq	%rsp, %rbp
	.cfi_def_cfa_register %rbp
	subq	$16, %rsp
	xorl	%eax, %eax
	movl	%eax, %ecx
	cmpq	$0, (%rdi)
	movl	$1, %edx
	cmovbeq	%rcx, %rdx
	cmpq	$0, %rdx
	movq	%rdi, -16(%rbp)
	jne	LBB66_2
LBB66_1:
	addq	$16, %rsp
	popq	%rbp
	retq
LBB66_2:
	movq	-16(%rbp), %rdi
	callq	__ZN4core3ptr13drop_in_place17h973f5495b95509c0E
	jmp	LBB66_1
	.cfi_endproc

	.p2align	4, 0x90
__ZN4core3ptr13drop_in_place17h9eaacaa2c8da08ffE:
	.cfi_startproc
	pushq	%rbp
	.cfi_def_cfa_offset 16
	.cfi_offset %rbp, -16
	movq	%rsp, %rbp
	.cfi_def_cfa_register %rbp
	subq	$16, %rsp
	xorl	%eax, %eax
	movl	%eax, %ecx
	cmpq	$0, (%rdi)
	movl	$1, %edx
	cmovbeq	%rcx, %rdx
	cmpq	$0, %rdx
	movq	%rdi, -16(%rbp)
	jne	LBB67_2
LBB67_1:
	addq	$16, %rsp
	popq	%rbp
	retq
LBB67_2:
	movq	-16(%rbp), %rax
	movq	%rax, %rdi
	callq	__ZN4core3ptr13drop_in_place17h8dc37b7293308628E
	jmp	LBB67_1
	.cfi_endproc

	.p2align	4, 0x90
__ZN4core3ptr13drop_in_place17ha956147db13bc9bdE:
	.cfi_startproc
	pushq	%rbp
	.cfi_def_cfa_offset 16
	.cfi_offset %rbp, -16
	movq	%rsp, %rbp
	.cfi_def_cfa_register %rbp
	subq	$16, %rsp
	callq	__ZN70_$LT$std..sys..unix..fd..FileDesc$u20$as$u20$core..ops..drop..Drop$GT$4drop17h633394f1cf9da1c8E
	addq	$16, %rsp
	popq	%rbp
	retq
	.cfi_endproc

	.p2align	4, 0x90
__ZN4core3ptr13drop_in_place17hb425a33c4e85b8f7E:
	.cfi_startproc
	pushq	%rbp
	.cfi_def_cfa_offset 16
	.cfi_offset %rbp, -16
	movq	%rsp, %rbp
	.cfi_def_cfa_register %rbp
	subq	$16, %rsp
	callq	__ZN77_$LT$alloc..raw_vec..RawVec$LT$T$C$A$GT$$u20$as$u20$core..ops..drop..Drop$GT$4drop17h964b92a93ada9ce4E
	addq	$16, %rsp
	popq	%rbp
	retq
	.cfi_endproc

	.p2align	4, 0x90
__ZN4core3ptr13drop_in_place17hb649e5726909120aE:
	.cfi_startproc
	pushq	%rbp
	.cfi_def_cfa_offset 16
	.cfi_offset %rbp, -16
	movq	%rsp, %rbp
	.cfi_def_cfa_register %rbp
	subq	$16, %rsp
	callq	__ZN4core3ptr13drop_in_place17h73f57067fa100dbfE
	addq	$16, %rsp
	popq	%rbp
	retq
	.cfi_endproc

	.p2align	4, 0x90
__ZN4core3ptr13drop_in_place17hbb4c3db667013b71E:
	.cfi_startproc
	pushq	%rbp
	.cfi_def_cfa_offset 16
	.cfi_offset %rbp, -16
	movq	%rsp, %rbp
	.cfi_def_cfa_register %rbp
	subq	$16, %rsp
	cmpq	$0, (%rdi)
	movq	%rdi, -16(%rbp)
	je	LBB71_2
	jmp	LBB71_3
LBB71_1:
	addq	$16, %rsp
	popq	%rbp
	retq
LBB71_2:
	movq	-16(%rbp), %rax
	addq	$8, %rax
	movq	%rax, %rdi
	callq	__ZN4core3ptr13drop_in_place17h5732588b0eb6c5d0E
	jmp	LBB71_1
LBB71_3:
	movq	-16(%rbp), %rax
	addq	$8, %rax
	movq	%rax, %rdi
	callq	__ZN4core3ptr13drop_in_place17hd3151e59a3abc246E
	jmp	LBB71_1
	.cfi_endproc

	.p2align	4, 0x90
__ZN4core3ptr13drop_in_place17hbfde360c90ba19c0E:
	.cfi_startproc
	pushq	%rbp
	.cfi_def_cfa_offset 16
	.cfi_offset %rbp, -16
	movq	%rsp, %rbp
	.cfi_def_cfa_register %rbp
	subq	$16, %rsp
	callq	__ZN4core3ptr13drop_in_place17h2ad594cc437e87d1E
	addq	$16, %rsp
	popq	%rbp
	retq
	.cfi_endproc

	.p2align	4, 0x90
__ZN4core3ptr13drop_in_place17hc1b96bddf94c16efE:
	.cfi_startproc
	pushq	%rbp
	.cfi_def_cfa_offset 16
	.cfi_offset %rbp, -16
	movq	%rsp, %rbp
	.cfi_def_cfa_register %rbp
	subq	$16, %rsp
	xorl	%eax, %eax
	movl	%eax, %ecx
	cmpq	$0, (%rdi)
	movl	$1, %edx
	cmovbeq	%rcx, %rdx
	cmpq	$0, %rdx
	movq	%rdi, -16(%rbp)
	jne	LBB73_2
LBB73_1:
	addq	$16, %rsp
	popq	%rbp
	retq
LBB73_2:
	movq	-16(%rbp), %rax
	movq	%rax, %rdi
	callq	__ZN4core3ptr13drop_in_place17h8f49ee857e99fd1dE
	jmp	LBB73_1
	.cfi_endproc

	.p2align	4, 0x90
__ZN4core3ptr13drop_in_place17hca6edc5f8e27b312E:
	.cfi_startproc
	pushq	%rbp
	.cfi_def_cfa_offset 16
	.cfi_offset %rbp, -16
	movq	%rsp, %rbp
	.cfi_def_cfa_register %rbp
	subq	$16, %rsp
	callq	__ZN166_$LT$$LT$alloc..collections..btree..map..IntoIter$LT$K$C$V$GT$$u20$as$u20$core..ops..drop..Drop$GT$..drop..DropGuard$LT$K$C$V$GT$$u20$as$u20$core..ops..drop..Drop$GT$4drop17hca013d57593acbfbE
	addq	$16, %rsp
	popq	%rbp
	retq
	.cfi_endproc

	.p2align	4, 0x90
__ZN4core3ptr13drop_in_place17hd0278cfd6afb440bE:
	.cfi_startproc
	pushq	%rbp
	.cfi_def_cfa_offset 16
	.cfi_offset %rbp, -16
	movq	%rsp, %rbp
	.cfi_def_cfa_register %rbp
	subq	$16, %rsp
	callq	__ZN77_$LT$alloc..raw_vec..RawVec$LT$T$C$A$GT$$u20$as$u20$core..ops..drop..Drop$GT$4drop17h373a0a657ef291a8E
	addq	$16, %rsp
	popq	%rbp
	retq
	.cfi_endproc

	.p2align	4, 0x90
__ZN4core3ptr13drop_in_place17hd3151e59a3abc246E:
	.cfi_startproc
	pushq	%rbp
	.cfi_def_cfa_offset 16
	.cfi_offset %rbp, -16
	movq	%rsp, %rbp
	.cfi_def_cfa_register %rbp
	subq	$16, %rsp
	callq	__ZN4core3ptr13drop_in_place17h1101499e7326ed29E
	addq	$16, %rsp
	popq	%rbp
	retq
	.cfi_endproc

	.p2align	4, 0x90
__ZN4core3ptr13drop_in_place17hd7d0ffdb6c8be56fE:
Lfunc_begin13:
	.cfi_startproc
	.cfi_personality 155, _rust_eh_personality
	.cfi_lsda 16, Lexception13
	pushq	%rbp
	.cfi_def_cfa_offset 16
	.cfi_offset %rbp, -16
	movq	%rsp, %rbp
	.cfi_def_cfa_register %rbp
	subq	$64, %rsp
	xorl	%eax, %eax
	testb	$1, %al
	movq	%rdi, -56(%rbp)
	movq	%rsi, -64(%rbp)
	jne	LBB77_7
	jmp	LBB77_12
LBB77_1:
	addq	$64, %rsp
	popq	%rbp
	retq
LBB77_2:
	movq	-16(%rbp), %rdi
	callq	__Unwind_Resume
	ud2
LBB77_3:
	movq	-40(%rbp), %rax
	shlq	$4, %rax
	movq	-56(%rbp), %rcx
	addq	%rax, %rcx
	movq	-40(%rbp), %rax
	addq	$1, %rax
	movq	%rax, -40(%rbp)
	movq	%rcx, %rdi
	callq	__ZN4core3ptr13drop_in_place17he1021385bb5e5c75E
LBB77_4:
	movq	-64(%rbp), %rax
	cmpq	%rax, -40(%rbp)
	je	LBB77_2
	jmp	LBB77_3
LBB77_5:
	movq	-40(%rbp), %rax
	movq	%rax, %rcx
	shlq	$4, %rcx
	movq	-56(%rbp), %rdx
	addq	%rcx, %rdx
	incq	%rax
	movq	%rax, -40(%rbp)
Ltmp72:
	movq	%rdx, %rdi
	callq	__ZN4core3ptr13drop_in_place17he1021385bb5e5c75E
Ltmp73:
	jmp	LBB77_6
LBB77_6:
	movq	-64(%rbp), %rax
	cmpq	%rax, -40(%rbp)
	je	LBB77_1
	jmp	LBB77_5
LBB77_7:
	movq	$0, -40(%rbp)
	jmp	LBB77_6
LBB77_8:
	movq	-32(%rbp), %rdi
	movq	-32(%rbp), %rax
	addq	$16, %rax
	movq	%rax, -32(%rbp)
	callq	__ZN4core3ptr13drop_in_place17he1021385bb5e5c75E
LBB77_9:
	movq	-32(%rbp), %rax
	cmpq	-24(%rbp), %rax
	je	LBB77_2
	jmp	LBB77_8
LBB77_10:
	movq	-32(%rbp), %rax
	movq	%rax, %rcx
	addq	$16, %rcx
	movq	%rcx, -32(%rbp)
Ltmp69:
	movq	%rax, %rdi
	callq	__ZN4core3ptr13drop_in_place17he1021385bb5e5c75E
Ltmp70:
	jmp	LBB77_11
LBB77_11:
	movq	-32(%rbp), %rax
	cmpq	-24(%rbp), %rax
	je	LBB77_1
	jmp	LBB77_10
LBB77_12:
	movq	-56(%rbp), %rax
	movq	%rax, -32(%rbp)
	movq	-64(%rbp), %rax
	shlq	$4, %rax
	addq	-32(%rbp), %rax
	movq	%rax, -24(%rbp)
	jmp	LBB77_11
LBB77_13:
Ltmp71:
	movq	%rax, -16(%rbp)
	movl	%edx, -8(%rbp)
	jmp	LBB77_9
LBB77_14:
Ltmp74:
	movq	%rax, -16(%rbp)
	movl	%edx, -8(%rbp)
	jmp	LBB77_4
Lfunc_end13:
	.cfi_endproc
	.section	__TEXT,__gcc_except_tab
	.p2align	2
GCC_except_table77:
Lexception13:
	.byte	255
	.byte	255
	.byte	1
	.uleb128 Lcst_end13-Lcst_begin13
Lcst_begin13:
	.uleb128 Lfunc_begin13-Lfunc_begin13
	.uleb128 Ltmp72-Lfunc_begin13
	.byte	0
	.byte	0
	.uleb128 Ltmp72-Lfunc_begin13
	.uleb128 Ltmp73-Ltmp72
	.uleb128 Ltmp74-Lfunc_begin13
	.byte	0
	.uleb128 Ltmp73-Lfunc_begin13
	.uleb128 Ltmp69-Ltmp73
	.byte	0
	.byte	0
	.uleb128 Ltmp69-Lfunc_begin13
	.uleb128 Ltmp70-Ltmp69
	.uleb128 Ltmp71-Lfunc_begin13
	.byte	0
Lcst_end13:
	.p2align	2

	.section	__TEXT,__text,regular,pure_instructions
	.p2align	4, 0x90
__ZN4core3ptr13drop_in_place17hda4d87928598ae4aE:
	.cfi_startproc
	pushq	%rbp
	.cfi_def_cfa_offset 16
	.cfi_offset %rbp, -16
	movq	%rsp, %rbp
	.cfi_def_cfa_register %rbp
	subq	$32, %rsp
	movq	%rdi, -32(%rbp)
	jmp	LBB78_2
LBB78_1:
	addq	$32, %rsp
	popq	%rbp
	retq
LBB78_2:
	movq	-32(%rbp), %rax
	movq	(%rax), %rdi
	movq	8(%rax), %rsi
	callq	__ZN5alloc5alloc8box_free17h3b94c0b8f3b67ff8E
	jmp	LBB78_1
	.cfi_endproc

	.p2align	4, 0x90
__ZN4core3ptr13drop_in_place17hdf9ed5635dbbf4ccE:
	.cfi_startproc
	pushq	%rbp
	.cfi_def_cfa_offset 16
	.cfi_offset %rbp, -16
	movq	%rsp, %rbp
	.cfi_def_cfa_register %rbp
	subq	$16, %rsp
	callq	__ZN95_$LT$alloc..collections..btree..map..IntoIter$LT$K$C$V$GT$$u20$as$u20$core..ops..drop..Drop$GT$4drop17hb92a32cf32d91377E
	addq	$16, %rsp
	popq	%rbp
	retq
	.cfi_endproc

	.p2align	4, 0x90
__ZN4core3ptr13drop_in_place17he1021385bb5e5c75E:
Lfunc_begin14:
	.cfi_startproc
	.cfi_personality 155, _rust_eh_personality
	.cfi_lsda 16, Lexception14
	pushq	%rbp
	.cfi_def_cfa_offset 16
	.cfi_offset %rbp, -16
	movq	%rsp, %rbp
	.cfi_def_cfa_register %rbp
	subq	$32, %rsp
	movq	(%rdi), %rax
	movq	8(%rdi), %rcx
	movq	(%rcx), %rcx
Ltmp75:
	movq	%rdi, -32(%rbp)
	movq	%rax, %rdi
	callq	*%rcx
Ltmp76:
	jmp	LBB80_3
LBB80_1:
	addq	$32, %rsp
	popq	%rbp
	retq
LBB80_2:
	movq	-16(%rbp), %rdi
	callq	__Unwind_Resume
	ud2
LBB80_3:
	movq	-32(%rbp), %rax
	movq	(%rax), %rdi
	movq	8(%rax), %rsi
	callq	__ZN5alloc5alloc8box_free17h2db291581855120aE
	jmp	LBB80_1
LBB80_4:
	movq	-32(%rbp), %rax
	movq	(%rax), %rdi
	movq	8(%rax), %rsi
	callq	__ZN5alloc5alloc8box_free17h2db291581855120aE
	jmp	LBB80_2
LBB80_5:
Ltmp77:
	movq	%rax, -16(%rbp)
	movl	%edx, -8(%rbp)
	jmp	LBB80_4
Lfunc_end14:
	.cfi_endproc
	.section	__TEXT,__gcc_except_tab
	.p2align	2
GCC_except_table80:
Lexception14:
	.byte	255
	.byte	255
	.byte	1
	.uleb128 Lcst_end14-Lcst_begin14
Lcst_begin14:
	.uleb128 Ltmp75-Lfunc_begin14
	.uleb128 Ltmp76-Ltmp75
	.uleb128 Ltmp77-Lfunc_begin14
	.byte	0
	.uleb128 Ltmp76-Lfunc_begin14
	.uleb128 Lfunc_end14-Ltmp76
	.byte	0
	.byte	0
Lcst_end14:
	.p2align	2

	.section	__TEXT,__text,regular,pure_instructions
	.p2align	4, 0x90
__ZN4core3ptr13drop_in_place17he321d67547b9f3f0E:
Lfunc_begin15:
	.cfi_startproc
	.cfi_personality 155, _rust_eh_personality
	.cfi_lsda 16, Lexception15
	pushq	%rbp
	.cfi_def_cfa_offset 16
	.cfi_offset %rbp, -16
	movq	%rsp, %rbp
	.cfi_def_cfa_register %rbp
	subq	$32, %rsp
	movq	(%rdi), %rax
Ltmp78:
	movq	%rdi, -32(%rbp)
	movq	%rax, %rdi
	callq	__ZN4core3ptr13drop_in_place17h4cb5480fff1c2a84E
Ltmp79:
	jmp	LBB81_3
LBB81_1:
	addq	$32, %rsp
	popq	%rbp
	retq
LBB81_2:
	movq	-16(%rbp), %rdi
	callq	__Unwind_Resume
	ud2
LBB81_3:
	movq	-32(%rbp), %rax
	movq	(%rax), %rdi
	callq	__ZN5alloc5alloc8box_free17h875e01b9fbdb041dE
	jmp	LBB81_1
LBB81_4:
	movq	-32(%rbp), %rax
	movq	(%rax), %rdi
	callq	__ZN5alloc5alloc8box_free17h875e01b9fbdb041dE
	jmp	LBB81_2
LBB81_5:
Ltmp80:
	movq	%rax, -16(%rbp)
	movl	%edx, -8(%rbp)
	jmp	LBB81_4
Lfunc_end15:
	.cfi_endproc
	.section	__TEXT,__gcc_except_tab
	.p2align	2
GCC_except_table81:
Lexception15:
	.byte	255
	.byte	255
	.byte	1
	.uleb128 Lcst_end15-Lcst_begin15
Lcst_begin15:
	.uleb128 Ltmp78-Lfunc_begin15
	.uleb128 Ltmp79-Ltmp78
	.uleb128 Ltmp80-Lfunc_begin15
	.byte	0
	.uleb128 Ltmp79-Lfunc_begin15
	.uleb128 Lfunc_end15-Ltmp79
	.byte	0
	.byte	0
Lcst_end15:
	.p2align	2

	.section	__TEXT,__text,regular,pure_instructions
	.p2align	4, 0x90
__ZN4core3ptr13drop_in_place17hf290f739d986f46aE:
Lfunc_begin16:
	.cfi_startproc
	.cfi_personality 155, _rust_eh_personality
	.cfi_lsda 16, Lexception16
	pushq	%rbp
	.cfi_def_cfa_offset 16
	.cfi_offset %rbp, -16
	movq	%rsp, %rbp
	.cfi_def_cfa_register %rbp
	subq	$32, %rsp
Ltmp81:
	movq	%rdi, -32(%rbp)
	callq	__ZN66_$LT$alloc..vec..Vec$LT$T$GT$$u20$as$u20$core..ops..drop..Drop$GT$4drop17h7f98feef0c835ae0E
Ltmp82:
	jmp	LBB82_4
LBB82_1:
	movq	-16(%rbp), %rdi
	callq	__Unwind_Resume
	ud2
LBB82_2:
	addq	$32, %rsp
	popq	%rbp
	retq
LBB82_3:
	movq	-32(%rbp), %rax
	movq	%rax, %rdi
	callq	__ZN4core3ptr13drop_in_place17h10c79dc40ce670c4E
	jmp	LBB82_1
LBB82_4:
	movq	-32(%rbp), %rax
	movq	%rax, %rdi
	callq	__ZN4core3ptr13drop_in_place17h10c79dc40ce670c4E
	jmp	LBB82_2
LBB82_5:
Ltmp83:
	movq	%rax, -16(%rbp)
	movl	%edx, -8(%rbp)
	jmp	LBB82_3
Lfunc_end16:
	.cfi_endproc
	.section	__TEXT,__gcc_except_tab
	.p2align	2
GCC_except_table82:
Lexception16:
	.byte	255
	.byte	255
	.byte	1
	.uleb128 Lcst_end16-Lcst_begin16
Lcst_begin16:
	.uleb128 Ltmp81-Lfunc_begin16
	.uleb128 Ltmp82-Ltmp81
	.uleb128 Ltmp83-Lfunc_begin16
	.byte	0
	.uleb128 Ltmp82-Lfunc_begin16
	.uleb128 Lfunc_end16-Ltmp82
	.byte	0
	.byte	0
Lcst_end16:
	.p2align	2

	.section	__TEXT,__text,regular,pure_instructions
	.p2align	4, 0x90
__ZN4core3ptr13drop_in_place17hf5da44767c0356c8E:
Lfunc_begin17:
	.cfi_startproc
	.cfi_personality 155, _rust_eh_personality
	.cfi_lsda 16, Lexception17
	pushq	%rbp
	.cfi_def_cfa_offset 16
	.cfi_offset %rbp, -16
	movq	%rsp, %rbp
	.cfi_def_cfa_register %rbp
	subq	$32, %rsp
Ltmp84:
	movq	%rdi, -32(%rbp)
	callq	__ZN66_$LT$alloc..vec..Vec$LT$T$GT$$u20$as$u20$core..ops..drop..Drop$GT$4drop17hb11af122625e29e6E
Ltmp85:
	jmp	LBB83_4
LBB83_1:
	movq	-16(%rbp), %rdi
	callq	__Unwind_Resume
	ud2
LBB83_2:
	addq	$32, %rsp
	popq	%rbp
	retq
LBB83_3:
	movq	-32(%rbp), %rax
	movq	%rax, %rdi
	callq	__ZN4core3ptr13drop_in_place17hb425a33c4e85b8f7E
	jmp	LBB83_1
LBB83_4:
	movq	-32(%rbp), %rax
	movq	%rax, %rdi
	callq	__ZN4core3ptr13drop_in_place17hb425a33c4e85b8f7E
	jmp	LBB83_2
LBB83_5:
Ltmp86:
	movq	%rax, -16(%rbp)
	movl	%edx, -8(%rbp)
	jmp	LBB83_3
Lfunc_end17:
	.cfi_endproc
	.section	__TEXT,__gcc_except_tab
	.p2align	2
GCC_except_table83:
Lexception17:
	.byte	255
	.byte	255
	.byte	1
	.uleb128 Lcst_end17-Lcst_begin17
Lcst_begin17:
	.uleb128 Ltmp84-Lfunc_begin17
	.uleb128 Ltmp85-Ltmp84
	.uleb128 Ltmp86-Lfunc_begin17
	.byte	0
	.uleb128 Ltmp85-Lfunc_begin17
	.uleb128 Lfunc_end17-Ltmp85
	.byte	0
	.byte	0
Lcst_end17:
	.p2align	2

	.section	__TEXT,__text,regular,pure_instructions
	.p2align	4, 0x90
__ZN4core3ptr19swap_nonoverlapping17h546c66123e9961fdE:
	.cfi_startproc
	pushq	%rbp
	.cfi_def_cfa_offset 16
	.cfi_offset %rbp, -16
	movq	%rsp, %rbp
	.cfi_def_cfa_register %rbp
	subq	$48, %rsp
	movq	$16, -8(%rbp)
	movq	-8(%rbp), %rax
	movq	%rdx, -16(%rbp)
	movq	%rdi, -24(%rbp)
	movq	%rsi, -32(%rbp)
	movq	%rax, -40(%rbp)
	movq	-40(%rbp), %rax
	movq	-16(%rbp), %rcx
	imulq	%rcx, %rax
	movq	-24(%rbp), %rdi
	movq	-32(%rbp), %rsi
	movq	%rax, %rdx
	callq	__ZN4core3ptr25swap_nonoverlapping_bytes17h4077d1fd5b7ea8ddE
	addq	$48, %rsp
	popq	%rbp
	retq
	.cfi_endproc

	.p2align	4, 0x90
__ZN4core3ptr20slice_from_raw_parts17h6c06be1480afde22E:
	.cfi_startproc
	pushq	%rbp
	.cfi_def_cfa_offset 16
	.cfi_offset %rbp, -16
	movq	%rsp, %rbp
	.cfi_def_cfa_register %rbp
	subq	$32, %rsp
	movq	%rdi, -16(%rbp)
	movq	%rsi, -8(%rbp)
	movq	-16(%rbp), %rax
	movq	-8(%rbp), %rcx
	movq	%rax, -32(%rbp)
	movq	%rcx, -24(%rbp)
	movq	-32(%rbp), %rax
	movq	-24(%rbp), %rdx
	addq	$32, %rsp
	popq	%rbp
	retq
	.cfi_endproc

	.p2align	4, 0x90
__ZN4core3ptr20slice_from_raw_parts17ha074226b72c10683E:
	.cfi_startproc
	pushq	%rbp
	.cfi_def_cfa_offset 16
	.cfi_offset %rbp, -16
	movq	%rsp, %rbp
	.cfi_def_cfa_register %rbp
	subq	$32, %rsp
	movq	%rdi, -16(%rbp)
	movq	%rsi, -8(%rbp)
	movq	-16(%rbp), %rax
	movq	-8(%rbp), %rcx
	movq	%rax, -32(%rbp)
	movq	%rcx, -24(%rbp)
	movq	-32(%rbp), %rax
	movq	-24(%rbp), %rdx
	addq	$32, %rsp
	popq	%rbp
	retq
	.cfi_endproc

	.p2align	4, 0x90
__ZN4core3ptr20slice_from_raw_parts17had65b1d2032116ceE:
	.cfi_startproc
	pushq	%rbp
	.cfi_def_cfa_offset 16
	.cfi_offset %rbp, -16
	movq	%rsp, %rbp
	.cfi_def_cfa_register %rbp
	subq	$32, %rsp
	movq	%rdi, -16(%rbp)
	movq	%rsi, -8(%rbp)
	movq	-16(%rbp), %rax
	movq	-8(%rbp), %rcx
	movq	%rax, -32(%rbp)
	movq	%rcx, -24(%rbp)
	movq	-32(%rbp), %rax
	movq	-24(%rbp), %rdx
	addq	$32, %rsp
	popq	%rbp
	retq
	.cfi_endproc

	.p2align	4, 0x90
__ZN4core3ptr23swap_nonoverlapping_one17he247c38ce5401e02E:
Lfunc_begin18:
	.cfi_startproc
	.cfi_personality 155, _rust_eh_personality
	.cfi_lsda 16, Lexception18
	pushq	%rbp
	.cfi_def_cfa_offset 16
	.cfi_offset %rbp, -16
	movq	%rsp, %rbp
	.cfi_def_cfa_register %rbp
	subq	$80, %rsp
	movb	$0, -25(%rbp)
	movq	$16, -8(%rbp)
	movq	-8(%rbp), %rax
	movq	%rdi, -40(%rbp)
	movq	%rsi, -48(%rbp)
	movq	%rax, -56(%rbp)
	jmp	LBB88_2
LBB88_1:
	movq	-24(%rbp), %rdi
	callq	__Unwind_Resume
	ud2
LBB88_2:
	movq	-56(%rbp), %rax
	cmpq	$32, %rax
	jb	LBB88_4
	movq	-40(%rbp), %rdi
	movq	-48(%rbp), %rsi
	movl	$1, %edx
	callq	__ZN4core3ptr19swap_nonoverlapping17h546c66123e9961fdE
	jmp	LBB88_8
LBB88_4:
	movb	$1, -25(%rbp)
	movq	-40(%rbp), %rdi
	callq	__ZN4core3ptr4read17h68b16bfe70c8ecb6E
	movq	%rax, -64(%rbp)
	movq	%rdx, -72(%rbp)
Ltmp87:
	movl	$1, %edx
	movq	-48(%rbp), %rdi
	movq	-40(%rbp), %rsi
	callq	__ZN4core10intrinsics19copy_nonoverlapping17he59c338e203b5dbbE
Ltmp88:
	jmp	LBB88_6
LBB88_6:
	movb	$0, -25(%rbp)
Ltmp89:
	movq	-48(%rbp), %rdi
	movq	-64(%rbp), %rsi
	movq	-72(%rbp), %rdx
	callq	__ZN4core3ptr5write17ha5a08f04fa4ba995E
Ltmp90:
	jmp	LBB88_7
LBB88_7:
	movb	$0, -25(%rbp)
	jmp	LBB88_9
LBB88_8:
	jmp	LBB88_9
LBB88_9:
	addq	$80, %rsp
	popq	%rbp
	retq
LBB88_10:
	movb	$0, -25(%rbp)
	jmp	LBB88_1
LBB88_11:
	testb	$1, -25(%rbp)
	jne	LBB88_10
	jmp	LBB88_1
LBB88_12:
Ltmp91:
	movq	%rax, -24(%rbp)
	movl	%edx, -16(%rbp)
	jmp	LBB88_11
Lfunc_end18:
	.cfi_endproc
	.section	__TEXT,__gcc_except_tab
	.p2align	2
GCC_except_table88:
Lexception18:
	.byte	255
	.byte	255
	.byte	1
	.uleb128 Lcst_end18-Lcst_begin18
Lcst_begin18:
	.uleb128 Lfunc_begin18-Lfunc_begin18
	.uleb128 Ltmp87-Lfunc_begin18
	.byte	0
	.byte	0
	.uleb128 Ltmp87-Lfunc_begin18
	.uleb128 Ltmp90-Ltmp87
	.uleb128 Ltmp91-Lfunc_begin18
	.byte	0
Lcst_end18:
	.p2align	2

	.section	__TEXT,__text,regular,pure_instructions
	.p2align	4, 0x90
__ZN4core3ptr24slice_from_raw_parts_mut17h254c1e3696c900c6E:
	.cfi_startproc
	pushq	%rbp
	.cfi_def_cfa_offset 16
	.cfi_offset %rbp, -16
	movq	%rsp, %rbp
	.cfi_def_cfa_register %rbp
	subq	$32, %rsp
	movq	%rdi, -16(%rbp)
	movq	%rsi, -8(%rbp)
	movq	-16(%rbp), %rax
	movq	-8(%rbp), %rcx
	movq	%rax, -32(%rbp)
	movq	%rcx, -24(%rbp)
	movq	-32(%rbp), %rax
	movq	-24(%rbp), %rdx
	addq	$32, %rsp
	popq	%rbp
	retq
	.cfi_endproc

	.p2align	4, 0x90
__ZN4core3ptr24slice_from_raw_parts_mut17h3a494e69c50e9e19E:
	.cfi_startproc
	pushq	%rbp
	.cfi_def_cfa_offset 16
	.cfi_offset %rbp, -16
	movq	%rsp, %rbp
	.cfi_def_cfa_register %rbp
	subq	$32, %rsp
	movq	%rdi, -16(%rbp)
	movq	%rsi, -8(%rbp)
	movq	-16(%rbp), %rax
	movq	-8(%rbp), %rcx
	movq	%rax, -32(%rbp)
	movq	%rcx, -24(%rbp)
	movq	-32(%rbp), %rax
	movq	-24(%rbp), %rdx
	addq	$32, %rsp
	popq	%rbp
	retq
	.cfi_endproc

	.p2align	4, 0x90
__ZN4core3ptr24slice_from_raw_parts_mut17hbe4e7a7f801207deE:
	.cfi_startproc
	pushq	%rbp
	.cfi_def_cfa_offset 16
	.cfi_offset %rbp, -16
	movq	%rsp, %rbp
	.cfi_def_cfa_register %rbp
	subq	$32, %rsp
	movq	%rdi, -16(%rbp)
	movq	%rsi, -8(%rbp)
	movq	-16(%rbp), %rax
	movq	-8(%rbp), %rcx
	movq	%rax, -32(%rbp)
	movq	%rcx, -24(%rbp)
	movq	-32(%rbp), %rax
	movq	-24(%rbp), %rdx
	addq	$32, %rsp
	popq	%rbp
	retq
	.cfi_endproc

	.p2align	4, 0x90
__ZN4core3ptr24slice_from_raw_parts_mut17hd3823df8e471f30dE:
	.cfi_startproc
	pushq	%rbp
	.cfi_def_cfa_offset 16
	.cfi_offset %rbp, -16
	movq	%rsp, %rbp
	.cfi_def_cfa_register %rbp
	subq	$32, %rsp
	movq	%rdi, -16(%rbp)
	movq	%rsi, -8(%rbp)
	movq	-16(%rbp), %rax
	movq	-8(%rbp), %rcx
	movq	%rax, -32(%rbp)
	movq	%rcx, -24(%rbp)
	movq	-32(%rbp), %rax
	movq	-24(%rbp), %rdx
	addq	$32, %rsp
	popq	%rbp
	retq
	.cfi_endproc

	.p2align	4, 0x90
__ZN4core3ptr25swap_nonoverlapping_bytes17h4077d1fd5b7ea8ddE:
	.cfi_startproc
	pushq	%rbp
	.cfi_def_cfa_offset 16
	.cfi_offset %rbp, -16
	movq	%rsp, %rbp
	.cfi_def_cfa_register %rbp
	andq	$-32, %rsp
	subq	$224, %rsp
	movq	$32, 200(%rsp)
	movq	200(%rsp), %rax
	movq	%rdi, 104(%rsp)
	movq	%rsi, 96(%rsp)
	movq	%rdx, 88(%rsp)
	movq	%rax, 80(%rsp)
	movq	$0, 120(%rsp)
LBB93_2:
	movq	80(%rsp), %rax
	addq	120(%rsp), %rax
	movq	88(%rsp), %rcx
	cmpq	%rcx, %rax
	jbe	LBB93_4
	movq	88(%rsp), %rax
	cmpq	%rax, 120(%rsp)
	jb	LBB93_13
	jmp	LBB93_12
LBB93_4:
	jmp	LBB93_6
LBB93_6:
	leaq	128(%rsp), %rax
	movq	120(%rsp), %rsi
	movq	104(%rsp), %rdi
	movq	%rax, 72(%rsp)
	callq	__ZN4core3ptr7mut_ptr31_$LT$impl$u20$$BP$mut$u20$T$GT$3add17h0e6a13254005d4d6E
	movq	%rax, 64(%rsp)
	movq	120(%rsp), %rsi
	movq	96(%rsp), %rdi
	callq	__ZN4core3ptr7mut_ptr31_$LT$impl$u20$$BP$mut$u20$T$GT$3add17h0e6a13254005d4d6E
	movq	%rax, 56(%rsp)
	movq	64(%rsp), %rdi
	movq	72(%rsp), %rsi
	movq	80(%rsp), %rdx
	callq	__ZN4core10intrinsics19copy_nonoverlapping17hf4ea665c698606c5E
	movq	56(%rsp), %rdi
	movq	64(%rsp), %rsi
	movq	80(%rsp), %rdx
	callq	__ZN4core10intrinsics19copy_nonoverlapping17hf4ea665c698606c5E
	movq	72(%rsp), %rdi
	movq	56(%rsp), %rsi
	movq	80(%rsp), %rdx
	callq	__ZN4core10intrinsics19copy_nonoverlapping17hf4ea665c698606c5E
	movq	80(%rsp), %rax
	addq	120(%rsp), %rax
	movq	%rax, 120(%rsp)
	jmp	LBB93_2
LBB93_12:
	jmp	LBB93_21
LBB93_13:
	movq	88(%rsp), %rax
	subq	120(%rsp), %rax
	leaq	168(%rsp), %rcx
	movq	%rax, 48(%rsp)
	movq	%rcx, 40(%rsp)
	movq	40(%rsp), %rax
	movq	120(%rsp), %rsi
	movq	104(%rsp), %rdi
	movq	%rax, 32(%rsp)
	callq	__ZN4core3ptr7mut_ptr31_$LT$impl$u20$$BP$mut$u20$T$GT$3add17h0e6a13254005d4d6E
	movq	%rax, 24(%rsp)
	movq	120(%rsp), %rsi
	movq	96(%rsp), %rdi
	callq	__ZN4core3ptr7mut_ptr31_$LT$impl$u20$$BP$mut$u20$T$GT$3add17h0e6a13254005d4d6E
	movq	%rax, 16(%rsp)
	movq	24(%rsp), %rdi
	movq	32(%rsp), %rsi
	movq	48(%rsp), %rdx
	callq	__ZN4core10intrinsics19copy_nonoverlapping17hf4ea665c698606c5E
	movq	16(%rsp), %rdi
	movq	24(%rsp), %rsi
	movq	48(%rsp), %rdx
	callq	__ZN4core10intrinsics19copy_nonoverlapping17hf4ea665c698606c5E
	movq	32(%rsp), %rdi
	movq	16(%rsp), %rsi
	movq	48(%rsp), %rdx
	callq	__ZN4core10intrinsics19copy_nonoverlapping17hf4ea665c698606c5E
	jmp	LBB93_21
LBB93_21:
	movq	%rbp, %rsp
	popq	%rbp
	retq
	.cfi_endproc

	.p2align	4, 0x90
__ZN4core3ptr4read17h68b16bfe70c8ecb6E:
	.cfi_startproc
	pushq	%rbp
	.cfi_def_cfa_offset 16
	.cfi_offset %rbp, -16
	movq	%rsp, %rbp
	.cfi_def_cfa_register %rbp
	subq	$64, %rsp
	movq	-16(%rbp), %rax
	movq	-8(%rbp), %rcx
	movq	%rcx, -24(%rbp)
	movq	%rax, -32(%rbp)
	movq	%rdi, -40(%rbp)
	leaq	-32(%rbp), %rax
	movq	%rax, -48(%rbp)
	movq	-40(%rbp), %rdi
	movq	-48(%rbp), %rsi
	movl	$1, %edx
	callq	__ZN4core10intrinsics19copy_nonoverlapping17he59c338e203b5dbbE
	movq	-32(%rbp), %rax
	movq	-24(%rbp), %rdx
	movq	%rax, -56(%rbp)
	movq	%rdx, -64(%rbp)
	movq	-56(%rbp), %rax
	movq	-64(%rbp), %rdx
	addq	$64, %rsp
	popq	%rbp
	retq
	.cfi_endproc

	.p2align	4, 0x90
__ZN4core3ptr4read17h6a1a5a02d861c2a4E:
	.cfi_startproc
	pushq	%rbp
	.cfi_def_cfa_offset 16
	.cfi_offset %rbp, -16
	movq	%rsp, %rbp
	.cfi_def_cfa_register %rbp
	subq	$112, %rsp
	movq	%rdi, %rax
	movq	%rsi, -80(%rbp)
	movq	%rdi, -88(%rbp)
	movq	%rax, -96(%rbp)
	leaq	-72(%rbp), %rax
	movq	%rax, -104(%rbp)
	movq	-80(%rbp), %rdi
	movq	-104(%rbp), %rsi
	movl	$1, %edx
	callq	__ZN4core10intrinsics19copy_nonoverlapping17hbcaf28f4ec0f8addE
	movq	-72(%rbp), %rax
	movq	%rax, -48(%rbp)
	movq	-64(%rbp), %rax
	movq	%rax, -40(%rbp)
	movq	-56(%rbp), %rax
	movq	%rax, -32(%rbp)
	movq	-48(%rbp), %rax
	movq	%rax, -24(%rbp)
	movq	-40(%rbp), %rax
	movq	%rax, -16(%rbp)
	movq	-32(%rbp), %rax
	movq	%rax, -8(%rbp)
	movq	-24(%rbp), %rax
	movq	-88(%rbp), %rcx
	movq	%rax, (%rcx)
	movq	-16(%rbp), %rax
	movq	%rax, 8(%rcx)
	movq	-8(%rbp), %rax
	movq	%rax, 16(%rcx)
	movq	-96(%rbp), %rax
	addq	$112, %rsp
	popq	%rbp
	retq
	.cfi_endproc

	.p2align	4, 0x90
__ZN4core3ptr4read17h8f804ed93c4e0c4cE:
	.cfi_startproc
	pushq	%rbp
	.cfi_def_cfa_offset 16
	.cfi_offset %rbp, -16
	movq	%rsp, %rbp
	.cfi_def_cfa_register %rbp
	subq	$112, %rsp
	movq	%rdi, %rax
	movq	%rsi, -80(%rbp)
	movq	%rdi, -88(%rbp)
	movq	%rax, -96(%rbp)
	leaq	-72(%rbp), %rax
	movq	%rax, -104(%rbp)
	movq	-80(%rbp), %rdi
	movq	-104(%rbp), %rsi
	movl	$1, %edx
	callq	__ZN4core10intrinsics19copy_nonoverlapping17hd8afc9215dc66c77E
	movq	-72(%rbp), %rax
	movq	%rax, -48(%rbp)
	movq	-64(%rbp), %rax
	movq	%rax, -40(%rbp)
	movq	-56(%rbp), %rax
	movq	%rax, -32(%rbp)
	movq	-48(%rbp), %rax
	movq	%rax, -24(%rbp)
	movq	-40(%rbp), %rax
	movq	%rax, -16(%rbp)
	movq	-32(%rbp), %rax
	movq	%rax, -8(%rbp)
	movq	-24(%rbp), %rax
	movq	-88(%rbp), %rcx
	movq	%rax, (%rcx)
	movq	-16(%rbp), %rax
	movq	%rax, 8(%rcx)
	movq	-8(%rbp), %rax
	movq	%rax, 16(%rcx)
	movq	-96(%rbp), %rax
	addq	$112, %rsp
	popq	%rbp
	retq
	.cfi_endproc

	.p2align	4, 0x90
__ZN4core3ptr4read17h9cfbff00273612fbE:
	.cfi_startproc
	pushq	%rbp
	.cfi_def_cfa_offset 16
	.cfi_offset %rbp, -16
	movq	%rsp, %rbp
	.cfi_def_cfa_register %rbp
	subq	$112, %rsp
	movq	%rdi, %rax
	movq	%rsi, -80(%rbp)
	movq	%rdi, -88(%rbp)
	movq	%rax, -96(%rbp)
	leaq	-72(%rbp), %rax
	movq	%rax, -104(%rbp)
	movq	-80(%rbp), %rdi
	movq	-104(%rbp), %rsi
	movl	$1, %edx
	callq	__ZN4core10intrinsics19copy_nonoverlapping17hd6602c5609d8aca9E
	movq	-72(%rbp), %rax
	movq	%rax, -48(%rbp)
	movq	-64(%rbp), %rax
	movq	%rax, -40(%rbp)
	movq	-56(%rbp), %rax
	movq	%rax, -32(%rbp)
	movq	-48(%rbp), %rax
	movq	%rax, -24(%rbp)
	movq	-40(%rbp), %rax
	movq	%rax, -16(%rbp)
	movq	-32(%rbp), %rax
	movq	%rax, -8(%rbp)
	movq	-24(%rbp), %rax
	movq	-88(%rbp), %rcx
	movq	%rax, (%rcx)
	movq	-16(%rbp), %rax
	movq	%rax, 8(%rcx)
	movq	-8(%rbp), %rax
	movq	%rax, 16(%rcx)
	movq	-96(%rbp), %rax
	addq	$112, %rsp
	popq	%rbp
	retq
	.cfi_endproc

	.p2align	4, 0x90
__ZN4core3ptr4read17hb134753eae6c6fb8E:
	.cfi_startproc
	pushq	%rbp
	.cfi_def_cfa_offset 16
	.cfi_offset %rbp, -16
	movq	%rsp, %rbp
	.cfi_def_cfa_register %rbp
	subq	$112, %rsp
	movq	%rdi, %rax
	movq	%rsi, -80(%rbp)
	movq	%rdi, -88(%rbp)
	movq	%rax, -96(%rbp)
	leaq	-72(%rbp), %rax
	movq	%rax, -104(%rbp)
	movq	-80(%rbp), %rdi
	movq	-104(%rbp), %rsi
	movl	$1, %edx
	callq	__ZN4core10intrinsics19copy_nonoverlapping17haf979011a3fa472bE
	movq	-72(%rbp), %rax
	movq	%rax, -48(%rbp)
	movq	-64(%rbp), %rax
	movq	%rax, -40(%rbp)
	movq	-56(%rbp), %rax
	movq	%rax, -32(%rbp)
	movq	-48(%rbp), %rax
	movq	%rax, -24(%rbp)
	movq	-40(%rbp), %rax
	movq	%rax, -16(%rbp)
	movq	-32(%rbp), %rax
	movq	%rax, -8(%rbp)
	movq	-24(%rbp), %rax
	movq	-88(%rbp), %rcx
	movq	%rax, (%rcx)
	movq	-16(%rbp), %rax
	movq	%rax, 8(%rcx)
	movq	-8(%rbp), %rax
	movq	%rax, 16(%rcx)
	movq	-96(%rbp), %rax
	addq	$112, %rsp
	popq	%rbp
	retq
	.cfi_endproc

	.p2align	4, 0x90
__ZN4core3ptr4read17hba519495011d260dE:
	.cfi_startproc
	pushq	%rbp
	.cfi_def_cfa_offset 16
	.cfi_offset %rbp, -16
	movq	%rsp, %rbp
	.cfi_def_cfa_register %rbp
	subq	$112, %rsp
	movq	%rdi, %rax
	movq	%rsi, -80(%rbp)
	movq	%rdi, -88(%rbp)
	movq	%rax, -96(%rbp)
	leaq	-72(%rbp), %rax
	movq	%rax, -104(%rbp)
	movq	-80(%rbp), %rdi
	movq	-104(%rbp), %rsi
	movl	$1, %edx
	callq	__ZN4core10intrinsics19copy_nonoverlapping17h5a3ef81181bca286E
	movq	-72(%rbp), %rax
	movq	%rax, -48(%rbp)
	movq	-64(%rbp), %rax
	movq	%rax, -40(%rbp)
	movq	-56(%rbp), %rax
	movq	%rax, -32(%rbp)
	movq	-48(%rbp), %rax
	movq	%rax, -24(%rbp)
	movq	-40(%rbp), %rax
	movq	%rax, -16(%rbp)
	movq	-32(%rbp), %rax
	movq	%rax, -8(%rbp)
	movq	-24(%rbp), %rax
	movq	-88(%rbp), %rcx
	movq	%rax, (%rcx)
	movq	-16(%rbp), %rax
	movq	%rax, 8(%rcx)
	movq	-8(%rbp), %rax
	movq	%rax, 16(%rcx)
	movq	-96(%rbp), %rax
	addq	$112, %rsp
	popq	%rbp
	retq
	.cfi_endproc

	.p2align	4, 0x90
__ZN4core3ptr4read17hd498f47810bafb71E:
	.cfi_startproc
	pushq	%rbp
	.cfi_def_cfa_offset 16
	.cfi_offset %rbp, -16
	movq	%rsp, %rbp
	.cfi_def_cfa_register %rbp
	subq	$128, %rsp
	movq	%rdi, %rax
	movq	%rsi, -104(%rbp)
	movq	%rdi, -112(%rbp)
	movq	%rax, -120(%rbp)
	leaq	-96(%rbp), %rax
	movq	%rax, -128(%rbp)
	movq	-104(%rbp), %rdi
	movq	-128(%rbp), %rsi
	movl	$1, %edx
	callq	__ZN4core10intrinsics19copy_nonoverlapping17h77fdddc3fde6619dE
	movq	-96(%rbp), %rax
	movq	%rax, -64(%rbp)
	movq	-88(%rbp), %rax
	movq	%rax, -56(%rbp)
	movq	-80(%rbp), %rax
	movq	%rax, -48(%rbp)
	movq	-72(%rbp), %rax
	movq	%rax, -40(%rbp)
	movq	-64(%rbp), %rax
	movq	%rax, -32(%rbp)
	movq	-56(%rbp), %rax
	movq	%rax, -24(%rbp)
	movq	-48(%rbp), %rax
	movq	%rax, -16(%rbp)
	movq	-40(%rbp), %rax
	movq	%rax, -8(%rbp)
	movq	-32(%rbp), %rax
	movq	-112(%rbp), %rcx
	movq	%rax, (%rcx)
	movq	-24(%rbp), %rax
	movq	%rax, 8(%rcx)
	movq	-16(%rbp), %rax
	movq	%rax, 16(%rcx)
	movq	-8(%rbp), %rax
	movq	%rax, 24(%rcx)
	movq	-120(%rbp), %rax
	addq	$128, %rsp
	popq	%rbp
	retq
	.cfi_endproc

	.p2align	4, 0x90
__ZN4core3ptr4read17hd6b8dede9d09c7b2E:
	.cfi_startproc
	pushq	%rbp
	.cfi_def_cfa_offset 16
	.cfi_offset %rbp, -16
	movq	%rsp, %rbp
	.cfi_def_cfa_register %rbp
	subq	$128, %rsp
	movq	%rdi, %rax
	movq	%rsi, -104(%rbp)
	movq	%rdi, -112(%rbp)
	movq	%rax, -120(%rbp)
	leaq	-96(%rbp), %rax
	movq	%rax, -128(%rbp)
	movq	-104(%rbp), %rdi
	movq	-128(%rbp), %rsi
	movl	$1, %edx
	callq	__ZN4core10intrinsics19copy_nonoverlapping17h187f164b2c9a1487E
	movq	-96(%rbp), %rax
	movq	%rax, -64(%rbp)
	movq	-88(%rbp), %rax
	movq	%rax, -56(%rbp)
	movq	-80(%rbp), %rax
	movq	%rax, -48(%rbp)
	movq	-72(%rbp), %rax
	movq	%rax, -40(%rbp)
	movq	-64(%rbp), %rax
	movq	%rax, -32(%rbp)
	movq	-56(%rbp), %rax
	movq	%rax, -24(%rbp)
	movq	-48(%rbp), %rax
	movq	%rax, -16(%rbp)
	movq	-40(%rbp), %rax
	movq	%rax, -8(%rbp)
	movq	-32(%rbp), %rax
	movq	-112(%rbp), %rcx
	movq	%rax, (%rcx)
	movq	-24(%rbp), %rax
	movq	%rax, 8(%rcx)
	movq	-16(%rbp), %rax
	movq	%rax, 16(%rcx)
	movq	-8(%rbp), %rax
	movq	%rax, 24(%rcx)
	movq	-120(%rbp), %rax
	addq	$128, %rsp
	popq	%rbp
	retq
	.cfi_endproc

	.p2align	4, 0x90
__ZN4core3ptr5write17ha5a08f04fa4ba995E:
	.cfi_startproc
	pushq	%rbp
	.cfi_def_cfa_offset 16
	.cfi_offset %rbp, -16
	movq	%rsp, %rbp
	.cfi_def_cfa_register %rbp
	pushq	%rax
	movq	%rsi, (%rdi)
	movq	%rdx, 8(%rdi)
	addq	$8, %rsp
	popq	%rbp
	retq
	.cfi_endproc

	.p2align	4, 0x90
__ZN4core3ptr5write17hd2b3ddb103399c8eE:
	.cfi_startproc
	pushq	%rbp
	.cfi_def_cfa_offset 16
	.cfi_offset %rbp, -16
	movq	%rsp, %rbp
	.cfi_def_cfa_register %rbp
	pushq	%rax
	movq	(%rsi), %rax
	movq	%rax, (%rdi)
	movq	8(%rsi), %rax
	movq	%rax, 8(%rdi)
	movq	16(%rsi), %rax
	movq	%rax, 16(%rdi)
	movq	24(%rsi), %rax
	movq	%rax, 24(%rdi)
	addq	$8, %rsp
	popq	%rbp
	retq
	.cfi_endproc

	.p2align	4, 0x90
__ZN4core3ptr6unique15Unique$LT$T$GT$13new_unchecked17h36dc17aaad420218E:
	.cfi_startproc
	pushq	%rbp
	.cfi_def_cfa_offset 16
	.cfi_offset %rbp, -16
	movq	%rsp, %rbp
	.cfi_def_cfa_register %rbp
	subq	$16, %rsp
	movq	%rdi, -16(%rbp)
	movq	-16(%rbp), %rax
	addq	$16, %rsp
	popq	%rbp
	retq
	.cfi_endproc

	.p2align	4, 0x90
__ZN4core3ptr6unique15Unique$LT$T$GT$4cast17h17d5c94fa1ff3a1bE:
	.cfi_startproc
	pushq	%rbp
	.cfi_def_cfa_offset 16
	.cfi_offset %rbp, -16
	movq	%rsp, %rbp
	.cfi_def_cfa_register %rbp
	subq	$16, %rsp
	callq	__ZN4core3ptr6unique15Unique$LT$T$GT$6as_ptr17hdb8f6b4b5c3defbeE
	movq	%rax, -8(%rbp)
	movq	-8(%rbp), %rax
	movq	%rax, %rdi
	callq	__ZN4core3ptr6unique15Unique$LT$T$GT$13new_unchecked17h36dc17aaad420218E
	movq	%rax, -16(%rbp)
	movq	-16(%rbp), %rax
	addq	$16, %rsp
	popq	%rbp
	retq
	.cfi_endproc

	.p2align	4, 0x90
__ZN4core3ptr6unique15Unique$LT$T$GT$4cast17h2b735ae24c6ea772E:
	.cfi_startproc
	pushq	%rbp
	.cfi_def_cfa_offset 16
	.cfi_offset %rbp, -16
	movq	%rsp, %rbp
	.cfi_def_cfa_register %rbp
	subq	$16, %rsp
	callq	__ZN4core3ptr6unique15Unique$LT$T$GT$6as_ptr17h5949a9bd752e6892E
	movq	%rax, -8(%rbp)
	movq	-8(%rbp), %rax
	movq	%rax, %rdi
	callq	__ZN4core3ptr6unique15Unique$LT$T$GT$13new_unchecked17h36dc17aaad420218E
	movq	%rax, -16(%rbp)
	movq	-16(%rbp), %rax
	addq	$16, %rsp
	popq	%rbp
	retq
	.cfi_endproc

	.p2align	4, 0x90
__ZN4core3ptr6unique15Unique$LT$T$GT$4cast17h39149073491f18e1E:
	.cfi_startproc
	pushq	%rbp
	.cfi_def_cfa_offset 16
	.cfi_offset %rbp, -16
	movq	%rsp, %rbp
	.cfi_def_cfa_register %rbp
	subq	$16, %rsp
	callq	__ZN4core3ptr6unique15Unique$LT$T$GT$6as_ptr17h5a6540a209fa7dd9E
	movq	%rax, -8(%rbp)
	movq	-8(%rbp), %rax
	movq	%rax, %rdi
	callq	__ZN4core3ptr6unique15Unique$LT$T$GT$13new_unchecked17h36dc17aaad420218E
	movq	%rax, -16(%rbp)
	movq	-16(%rbp), %rax
	addq	$16, %rsp
	popq	%rbp
	retq
	.cfi_endproc

	.p2align	4, 0x90
__ZN4core3ptr6unique15Unique$LT$T$GT$4cast17h980420a2f7b34251E:
	.cfi_startproc
	pushq	%rbp
	.cfi_def_cfa_offset 16
	.cfi_offset %rbp, -16
	movq	%rsp, %rbp
	.cfi_def_cfa_register %rbp
	subq	$16, %rsp
	callq	__ZN4core3ptr6unique15Unique$LT$T$GT$6as_ptr17hc7598d539b12a96eE
	movq	%rax, -8(%rbp)
	movq	-8(%rbp), %rax
	movq	%rax, %rdi
	callq	__ZN4core3ptr6unique15Unique$LT$T$GT$13new_unchecked17h36dc17aaad420218E
	movq	%rax, -16(%rbp)
	movq	-16(%rbp), %rax
	addq	$16, %rsp
	popq	%rbp
	retq
	.cfi_endproc

	.p2align	4, 0x90
__ZN4core3ptr6unique15Unique$LT$T$GT$4cast17h9fd269084318cf96E:
	.cfi_startproc
	pushq	%rbp
	.cfi_def_cfa_offset 16
	.cfi_offset %rbp, -16
	movq	%rsp, %rbp
	.cfi_def_cfa_register %rbp
	subq	$16, %rsp
	callq	__ZN4core3ptr6unique15Unique$LT$T$GT$6as_ptr17h6f1ab3b46d2a36dcE
	movq	%rax, -8(%rbp)
	movq	-8(%rbp), %rax
	movq	%rax, %rdi
	callq	__ZN4core3ptr6unique15Unique$LT$T$GT$13new_unchecked17h36dc17aaad420218E
	movq	%rax, -16(%rbp)
	movq	-16(%rbp), %rax
	addq	$16, %rsp
	popq	%rbp
	retq
	.cfi_endproc

	.p2align	4, 0x90
__ZN4core3ptr6unique15Unique$LT$T$GT$4cast17hb86bbe753c0b7784E:
	.cfi_startproc
	pushq	%rbp
	.cfi_def_cfa_offset 16
	.cfi_offset %rbp, -16
	movq	%rsp, %rbp
	.cfi_def_cfa_register %rbp
	subq	$16, %rsp
	callq	__ZN4core3ptr6unique15Unique$LT$T$GT$6as_ptr17hba0f2ac3ca9ad5c2E
	movq	%rax, -8(%rbp)
	movq	-8(%rbp), %rax
	movq	%rax, %rdi
	callq	__ZN4core3ptr6unique15Unique$LT$T$GT$13new_unchecked17h36dc17aaad420218E
	movq	%rax, -16(%rbp)
	movq	-16(%rbp), %rax
	addq	$16, %rsp
	popq	%rbp
	retq
	.cfi_endproc

	.p2align	4, 0x90
__ZN4core3ptr6unique15Unique$LT$T$GT$4cast17hba3d5ec1e4589ec5E:
	.cfi_startproc
	pushq	%rbp
	.cfi_def_cfa_offset 16
	.cfi_offset %rbp, -16
	movq	%rsp, %rbp
	.cfi_def_cfa_register %rbp
	subq	$16, %rsp
	callq	__ZN4core3ptr6unique15Unique$LT$T$GT$6as_ptr17he99744a5334a1a4cE
	movq	%rax, -8(%rbp)
	movq	-8(%rbp), %rdi
	callq	__ZN4core3ptr6unique15Unique$LT$T$GT$13new_unchecked17h36dc17aaad420218E
	movq	%rax, -16(%rbp)
	movq	-16(%rbp), %rax
	addq	$16, %rsp
	popq	%rbp
	retq
	.cfi_endproc

	.p2align	4, 0x90
__ZN4core3ptr6unique15Unique$LT$T$GT$4cast17hf63a7c942d36a02cE:
	.cfi_startproc
	pushq	%rbp
	.cfi_def_cfa_offset 16
	.cfi_offset %rbp, -16
	movq	%rsp, %rbp
	.cfi_def_cfa_register %rbp
	subq	$16, %rsp
	callq	__ZN4core3ptr6unique15Unique$LT$T$GT$6as_ptr17hec9d45d128414006E
	movq	%rax, -8(%rbp)
	movq	-8(%rbp), %rax
	movq	%rax, %rdi
	callq	__ZN4core3ptr6unique15Unique$LT$T$GT$13new_unchecked17h36dc17aaad420218E
	movq	%rax, -16(%rbp)
	movq	-16(%rbp), %rax
	addq	$16, %rsp
	popq	%rbp
	retq
	.cfi_endproc

	.p2align	4, 0x90
__ZN4core3ptr6unique15Unique$LT$T$GT$6as_ptr17h5949a9bd752e6892E:
	.cfi_startproc
	pushq	%rbp
	.cfi_def_cfa_offset 16
	.cfi_offset %rbp, -16
	movq	%rsp, %rbp
	.cfi_def_cfa_register %rbp
	movq	%rdi, %rax
	movq	%rsi, %rdx
	popq	%rbp
	retq
	.cfi_endproc

	.p2align	4, 0x90
__ZN4core3ptr6unique15Unique$LT$T$GT$6as_ptr17h5a6540a209fa7dd9E:
	.cfi_startproc
	pushq	%rbp
	.cfi_def_cfa_offset 16
	.cfi_offset %rbp, -16
	movq	%rsp, %rbp
	.cfi_def_cfa_register %rbp
	movq	%rdi, %rax
	popq	%rbp
	retq
	.cfi_endproc

	.p2align	4, 0x90
__ZN4core3ptr6unique15Unique$LT$T$GT$6as_ptr17h6f1ab3b46d2a36dcE:
	.cfi_startproc
	pushq	%rbp
	.cfi_def_cfa_offset 16
	.cfi_offset %rbp, -16
	movq	%rsp, %rbp
	.cfi_def_cfa_register %rbp
	movq	%rdi, %rax
	popq	%rbp
	retq
	.cfi_endproc

	.p2align	4, 0x90
__ZN4core3ptr6unique15Unique$LT$T$GT$6as_ptr17hba0f2ac3ca9ad5c2E:
	.cfi_startproc
	pushq	%rbp
	.cfi_def_cfa_offset 16
	.cfi_offset %rbp, -16
	movq	%rsp, %rbp
	.cfi_def_cfa_register %rbp
	movq	%rdi, %rax
	popq	%rbp
	retq
	.cfi_endproc

	.p2align	4, 0x90
__ZN4core3ptr6unique15Unique$LT$T$GT$6as_ptr17hc7598d539b12a96eE:
	.cfi_startproc
	pushq	%rbp
	.cfi_def_cfa_offset 16
	.cfi_offset %rbp, -16
	movq	%rsp, %rbp
	.cfi_def_cfa_register %rbp
	movq	%rdi, %rax
	popq	%rbp
	retq
	.cfi_endproc

	.p2align	4, 0x90
__ZN4core3ptr6unique15Unique$LT$T$GT$6as_ptr17hdb8f6b4b5c3defbeE:
	.cfi_startproc
	pushq	%rbp
	.cfi_def_cfa_offset 16
	.cfi_offset %rbp, -16
	movq	%rsp, %rbp
	.cfi_def_cfa_register %rbp
	movq	%rdi, %rax
	movq	%rsi, %rdx
	popq	%rbp
	retq
	.cfi_endproc

	.p2align	4, 0x90
__ZN4core3ptr6unique15Unique$LT$T$GT$6as_ptr17he99744a5334a1a4cE:
	.cfi_startproc
	pushq	%rbp
	.cfi_def_cfa_offset 16
	.cfi_offset %rbp, -16
	movq	%rsp, %rbp
	.cfi_def_cfa_register %rbp
	movq	%rdi, %rax
	popq	%rbp
	retq
	.cfi_endproc

	.p2align	4, 0x90
__ZN4core3ptr6unique15Unique$LT$T$GT$6as_ptr17hec9d45d128414006E:
	.cfi_startproc
	pushq	%rbp
	.cfi_def_cfa_offset 16
	.cfi_offset %rbp, -16
	movq	%rsp, %rbp
	.cfi_def_cfa_register %rbp
	movq	%rdi, %rax
	movq	%rsi, %rdx
	popq	%rbp
	retq
	.cfi_endproc

	.p2align	4, 0x90
__ZN4core3ptr6unique15Unique$LT$T$GT$6as_ptr17hfbabee65cfac5b0fE:
	.cfi_startproc
	pushq	%rbp
	.cfi_def_cfa_offset 16
	.cfi_offset %rbp, -16
	movq	%rsp, %rbp
	.cfi_def_cfa_register %rbp
	movq	%rdi, %rax
	popq	%rbp
	retq
	.cfi_endproc

	.p2align	4, 0x90
__ZN4core3ptr6unique15Unique$LT$T$GT$6as_ref17h33211979eb88cbb9E:
	.cfi_startproc
	pushq	%rbp
	.cfi_def_cfa_offset 16
	.cfi_offset %rbp, -16
	movq	%rsp, %rbp
	.cfi_def_cfa_register %rbp
	subq	$16, %rsp
	movq	(%rdi), %rax
	movq	8(%rdi), %rsi
	movq	%rax, %rdi
	callq	__ZN4core3ptr6unique15Unique$LT$T$GT$6as_ptr17h5949a9bd752e6892E
	movq	%rax, -8(%rbp)
	movq	%rdx, -16(%rbp)
	movq	-8(%rbp), %rax
	movq	-16(%rbp), %rdx
	addq	$16, %rsp
	popq	%rbp
	retq
	.cfi_endproc

	.p2align	4, 0x90
__ZN4core3ptr6unique15Unique$LT$T$GT$6as_ref17h41faaa652fb5000cE:
	.cfi_startproc
	pushq	%rbp
	.cfi_def_cfa_offset 16
	.cfi_offset %rbp, -16
	movq	%rsp, %rbp
	.cfi_def_cfa_register %rbp
	subq	$16, %rsp
	movq	(%rdi), %rdi
	callq	__ZN4core3ptr6unique15Unique$LT$T$GT$6as_ptr17h6f1ab3b46d2a36dcE
	movq	%rax, -8(%rbp)
	movq	-8(%rbp), %rax
	addq	$16, %rsp
	popq	%rbp
	retq
	.cfi_endproc

	.p2align	4, 0x90
__ZN4core3ptr6unique15Unique$LT$T$GT$6as_ref17h9aa207433e810da3E:
	.cfi_startproc
	pushq	%rbp
	.cfi_def_cfa_offset 16
	.cfi_offset %rbp, -16
	movq	%rsp, %rbp
	.cfi_def_cfa_register %rbp
	subq	$16, %rsp
	movq	(%rdi), %rax
	movq	8(%rdi), %rsi
	movq	%rax, %rdi
	callq	__ZN4core3ptr6unique15Unique$LT$T$GT$6as_ptr17hdb8f6b4b5c3defbeE
	movq	%rax, -8(%rbp)
	movq	%rdx, -16(%rbp)
	movq	-8(%rbp), %rax
	movq	-16(%rbp), %rdx
	addq	$16, %rsp
	popq	%rbp
	retq
	.cfi_endproc

	.p2align	4, 0x90
__ZN4core3ptr6unique15Unique$LT$T$GT$6as_ref17hb746b270e4687d0dE:
	.cfi_startproc
	pushq	%rbp
	.cfi_def_cfa_offset 16
	.cfi_offset %rbp, -16
	movq	%rsp, %rbp
	.cfi_def_cfa_register %rbp
	subq	$16, %rsp
	movq	(%rdi), %rax
	movq	8(%rdi), %rsi
	movq	%rax, %rdi
	callq	__ZN4core3ptr6unique15Unique$LT$T$GT$6as_ptr17hec9d45d128414006E
	movq	%rax, -8(%rbp)
	movq	%rdx, -16(%rbp)
	movq	-8(%rbp), %rax
	movq	-16(%rbp), %rdx
	addq	$16, %rsp
	popq	%rbp
	retq
	.cfi_endproc

	.p2align	4, 0x90
__ZN4core3ptr7mut_ptr31_$LT$impl$u20$$BP$mut$u20$T$GT$3add17h0e6a13254005d4d6E:
	.cfi_startproc
	pushq	%rbp
	.cfi_def_cfa_offset 16
	.cfi_offset %rbp, -16
	movq	%rsp, %rbp
	.cfi_def_cfa_register %rbp
	subq	$16, %rsp
	callq	__ZN4core3ptr7mut_ptr31_$LT$impl$u20$$BP$mut$u20$T$GT$6offset17h44baa336c741b04cE
	movq	%rax, -8(%rbp)
	movq	-8(%rbp), %rax
	addq	$16, %rsp
	popq	%rbp
	retq
	.cfi_endproc

	.p2align	4, 0x90
__ZN4core3ptr7mut_ptr31_$LT$impl$u20$$BP$mut$u20$T$GT$6offset17h44baa336c741b04cE:
	.cfi_startproc
	pushq	%rbp
	.cfi_def_cfa_offset 16
	.cfi_offset %rbp, -16
	movq	%rsp, %rbp
	.cfi_def_cfa_register %rbp
	subq	$16, %rsp
	addq	%rsi, %rdi
	movq	%rdi, -8(%rbp)
	movq	-8(%rbp), %rax
	movq	%rax, -16(%rbp)
	movq	-16(%rbp), %rax
	addq	$16, %rsp
	popq	%rbp
	retq
	.cfi_endproc

	.p2align	4, 0x90
__ZN4core3ptr7mut_ptr31_$LT$impl$u20$$BP$mut$u20$T$GT$7is_null17h10cdb743798ebe5dE:
	.cfi_startproc
	pushq	%rbp
	.cfi_def_cfa_offset 16
	.cfi_offset %rbp, -16
	movq	%rsp, %rbp
	.cfi_def_cfa_register %rbp
	pushq	%rax
	movq	%rdi, -8(%rbp)
	movq	-8(%rbp), %rax
	cmpq	$0, %rax
	sete	%cl
	andb	$1, %cl
	movzbl	%cl, %edx
	movl	%edx, %eax
	addq	$8, %rsp
	popq	%rbp
	retq
	.cfi_endproc

	.p2align	4, 0x90
__ZN4core3ptr7mut_ptr31_$LT$impl$u20$$BP$mut$u20$T$GT$7is_null17h316ef7415bda9414E:
	.cfi_startproc
	pushq	%rbp
	.cfi_def_cfa_offset 16
	.cfi_offset %rbp, -16
	movq	%rsp, %rbp
	.cfi_def_cfa_register %rbp
	pushq	%rax
	movq	%rdi, -8(%rbp)
	movq	-8(%rbp), %rax
	cmpq	$0, %rax
	sete	%cl
	andb	$1, %cl
	movzbl	%cl, %edx
	movl	%edx, %eax
	addq	$8, %rsp
	popq	%rbp
	retq
	.cfi_endproc

	.p2align	4, 0x90
__ZN4core3ptr7mut_ptr31_$LT$impl$u20$$BP$mut$u20$T$GT$7is_null17h8a455b2d84ba4f90E:
	.cfi_startproc
	pushq	%rbp
	.cfi_def_cfa_offset 16
	.cfi_offset %rbp, -16
	movq	%rsp, %rbp
	.cfi_def_cfa_register %rbp
	pushq	%rax
	movq	%rdi, -8(%rbp)
	movq	-8(%rbp), %rax
	cmpq	$0, %rax
	sete	%cl
	andb	$1, %cl
	movzbl	%cl, %edx
	movl	%edx, %eax
	addq	$8, %rsp
	popq	%rbp
	retq
	.cfi_endproc

	.p2align	4, 0x90
__ZN4core3ptr7mut_ptr31_$LT$impl$u20$$BP$mut$u20$T$GT$7is_null17hcd8281e7b3ff5cd2E:
	.cfi_startproc
	pushq	%rbp
	.cfi_def_cfa_offset 16
	.cfi_offset %rbp, -16
	movq	%rsp, %rbp
	.cfi_def_cfa_register %rbp
	pushq	%rax
	movq	%rdi, -8(%rbp)
	movq	-8(%rbp), %rax
	cmpq	$0, %rax
	sete	%cl
	andb	$1, %cl
	movzbl	%cl, %edx
	movl	%edx, %eax
	addq	$8, %rsp
	popq	%rbp
	retq
	.cfi_endproc

	.p2align	4, 0x90
__ZN4core3ptr7mut_ptr31_$LT$impl$u20$$BP$mut$u20$T$GT$7is_null17hd7b4ca65b6e1390dE:
	.cfi_startproc
	pushq	%rbp
	.cfi_def_cfa_offset 16
	.cfi_offset %rbp, -16
	movq	%rsp, %rbp
	.cfi_def_cfa_register %rbp
	pushq	%rax
	movq	%rdi, -8(%rbp)
	jmp	LBB132_1
LBB132_1:
	movq	-8(%rbp), %rax
	cmpq	$0, %rax
	sete	%cl
	andb	$1, %cl
	movzbl	%cl, %edx
	movl	%edx, %eax
	addq	$8, %rsp
	popq	%rbp
	retq
	.cfi_endproc

	.p2align	4, 0x90
__ZN4core3ptr7mut_ptr41_$LT$impl$u20$$BP$mut$u20$$u5b$T$u5d$$GT$10as_mut_ptr17hef659322f2695aeaE:
	.cfi_startproc
	pushq	%rbp
	.cfi_def_cfa_offset 16
	.cfi_offset %rbp, -16
	movq	%rsp, %rbp
	.cfi_def_cfa_register %rbp
	movq	%rdi, %rax
	popq	%rbp
	retq
	.cfi_endproc

	.p2align	4, 0x90
__ZN4core3ptr8non_null16NonNull$LT$T$GT$13new_unchecked17h826182c6e47b5a58E:
	.cfi_startproc
	pushq	%rbp
	.cfi_def_cfa_offset 16
	.cfi_offset %rbp, -16
	movq	%rsp, %rbp
	.cfi_def_cfa_register %rbp
	pushq	%rax
	movq	%rdi, -8(%rbp)
	movq	-8(%rbp), %rax
	addq	$8, %rsp
	popq	%rbp
	retq
	.cfi_endproc

	.p2align	4, 0x90
__ZN4core3ptr8non_null16NonNull$LT$T$GT$13new_unchecked17hac98f3a1f3660fa4E:
	.cfi_startproc
	pushq	%rbp
	.cfi_def_cfa_offset 16
	.cfi_offset %rbp, -16
	movq	%rsp, %rbp
	.cfi_def_cfa_register %rbp
	pushq	%rax
	movq	%rdi, -8(%rbp)
	movq	-8(%rbp), %rax
	addq	$8, %rsp
	popq	%rbp
	retq
	.cfi_endproc

	.p2align	4, 0x90
__ZN4core3ptr8non_null16NonNull$LT$T$GT$3new17h1c5b2ca4a8969273E:
	.cfi_startproc
	pushq	%rbp
	.cfi_def_cfa_offset 16
	.cfi_offset %rbp, -16
	movq	%rsp, %rbp
	.cfi_def_cfa_register %rbp
	subq	$32, %rsp
	movq	%rdi, -16(%rbp)
	callq	__ZN4core3ptr7mut_ptr31_$LT$impl$u20$$BP$mut$u20$T$GT$7is_null17h10cdb743798ebe5dE
	movb	%al, -17(%rbp)
	movb	-17(%rbp), %al
	xorb	$-1, %al
	testb	$1, %al
	jne	LBB136_3
	movq	$0, -8(%rbp)
	jmp	LBB136_5
LBB136_3:
	movq	-16(%rbp), %rdi
	callq	__ZN4core3ptr8non_null16NonNull$LT$T$GT$13new_unchecked17hac98f3a1f3660fa4E
	movq	%rax, -32(%rbp)
	movq	-32(%rbp), %rax
	movq	%rax, -8(%rbp)
LBB136_5:
	movq	-8(%rbp), %rax
	addq	$32, %rsp
	popq	%rbp
	retq
	.cfi_endproc

	.p2align	4, 0x90
__ZN4core3ptr8non_null16NonNull$LT$T$GT$4cast17h6aaa9c4b6c9084e1E:
	.cfi_startproc
	pushq	%rbp
	.cfi_def_cfa_offset 16
	.cfi_offset %rbp, -16
	movq	%rsp, %rbp
	.cfi_def_cfa_register %rbp
	subq	$16, %rsp
	callq	__ZN4core3ptr8non_null16NonNull$LT$T$GT$6as_ptr17h1e352ea88cc3dfe9E
	movq	%rax, -8(%rbp)
	movq	-8(%rbp), %rax
	movq	%rax, %rdi
	callq	__ZN4core3ptr8non_null16NonNull$LT$T$GT$13new_unchecked17h826182c6e47b5a58E
	movq	%rax, -16(%rbp)
	movq	-16(%rbp), %rax
	addq	$16, %rsp
	popq	%rbp
	retq
	.cfi_endproc

	.p2align	4, 0x90
__ZN4core3ptr8non_null16NonNull$LT$T$GT$6as_ptr17h1e352ea88cc3dfe9E:
	.cfi_startproc
	pushq	%rbp
	.cfi_def_cfa_offset 16
	.cfi_offset %rbp, -16
	movq	%rsp, %rbp
	.cfi_def_cfa_register %rbp
	movq	%rdi, %rax
	popq	%rbp
	retq
	.cfi_endproc

	.p2align	4, 0x90
__ZN4core3ptr8non_null16NonNull$LT$T$GT$6as_ptr17h24a3308d499f706cE:
	.cfi_startproc
	pushq	%rbp
	.cfi_def_cfa_offset 16
	.cfi_offset %rbp, -16
	movq	%rsp, %rbp
	.cfi_def_cfa_register %rbp
	movq	%rdi, %rax
	popq	%rbp
	retq
	.cfi_endproc

	.p2align	4, 0x90
__ZN4core3ptr8non_null16NonNull$LT$T$GT$6as_ref17h572b6e58971563d9E:
	.cfi_startproc
	pushq	%rbp
	.cfi_def_cfa_offset 16
	.cfi_offset %rbp, -16
	movq	%rsp, %rbp
	.cfi_def_cfa_register %rbp
	subq	$16, %rsp
	movq	(%rdi), %rdi
	callq	__ZN4core3ptr8non_null16NonNull$LT$T$GT$6as_ptr17h1e352ea88cc3dfe9E
	movq	%rax, -8(%rbp)
	movq	-8(%rbp), %rax
	addq	$16, %rsp
	popq	%rbp
	retq
	.cfi_endproc

	.p2align	4, 0x90
__ZN4core3ptr9const_ptr33_$LT$impl$u20$$BP$const$u20$T$GT$13guaranteed_eq17h5baddf2d59afbdfeE:
	.cfi_startproc
	pushq	%rbp
	.cfi_def_cfa_offset 16
	.cfi_offset %rbp, -16
	movq	%rsp, %rbp
	.cfi_def_cfa_register %rbp
	subq	$2, %rsp
	cmpq	%rsi, %rdi
	sete	%al
	andb	$1, %al
	movb	%al, -1(%rbp)
	movb	-1(%rbp), %al
	movb	%al, -2(%rbp)
	movb	-2(%rbp), %al
	andb	$1, %al
	movzbl	%al, %eax
	addq	$2, %rsp
	popq	%rbp
	retq
	.cfi_endproc

	.p2align	4, 0x90
__ZN4core3ptr9const_ptr33_$LT$impl$u20$$BP$const$u20$T$GT$3add17h63ce6b89e3f06502E:
	.cfi_startproc
	pushq	%rbp
	.cfi_def_cfa_offset 16
	.cfi_offset %rbp, -16
	movq	%rsp, %rbp
	.cfi_def_cfa_register %rbp
	subq	$16, %rsp
	callq	__ZN4core3ptr9const_ptr33_$LT$impl$u20$$BP$const$u20$T$GT$6offset17ha289d2f984f25bb6E
	movq	%rax, -8(%rbp)
	movq	-8(%rbp), %rax
	addq	$16, %rsp
	popq	%rbp
	retq
	.cfi_endproc

	.p2align	4, 0x90
__ZN4core3ptr9const_ptr33_$LT$impl$u20$$BP$const$u20$T$GT$3add17hb77368e62ed81174E:
	.cfi_startproc
	pushq	%rbp
	.cfi_def_cfa_offset 16
	.cfi_offset %rbp, -16
	movq	%rsp, %rbp
	.cfi_def_cfa_register %rbp
	subq	$16, %rsp
	callq	__ZN4core3ptr9const_ptr33_$LT$impl$u20$$BP$const$u20$T$GT$6offset17h27f40bb33b3aaf55E
	movq	%rax, -8(%rbp)
	movq	-8(%rbp), %rax
	addq	$16, %rsp
	popq	%rbp
	retq
	.cfi_endproc

	.p2align	4, 0x90
__ZN4core3ptr9const_ptr33_$LT$impl$u20$$BP$const$u20$T$GT$3add17hb7a9cf870a295f0fE:
	.cfi_startproc
	pushq	%rbp
	.cfi_def_cfa_offset 16
	.cfi_offset %rbp, -16
	movq	%rsp, %rbp
	.cfi_def_cfa_register %rbp
	subq	$16, %rsp
	callq	__ZN4core3ptr9const_ptr33_$LT$impl$u20$$BP$const$u20$T$GT$6offset17hdc9e047f23c6b822E
	movq	%rax, -8(%rbp)
	movq	-8(%rbp), %rax
	addq	$16, %rsp
	popq	%rbp
	retq
	.cfi_endproc

	.p2align	4, 0x90
__ZN4core3ptr9const_ptr33_$LT$impl$u20$$BP$const$u20$T$GT$3add17hc79acaddb342a373E:
	.cfi_startproc
	pushq	%rbp
	.cfi_def_cfa_offset 16
	.cfi_offset %rbp, -16
	movq	%rsp, %rbp
	.cfi_def_cfa_register %rbp
	subq	$16, %rsp
	callq	__ZN4core3ptr9const_ptr33_$LT$impl$u20$$BP$const$u20$T$GT$6offset17h491e21cb88b99cdfE
	movq	%rax, -8(%rbp)
	movq	-8(%rbp), %rax
	addq	$16, %rsp
	popq	%rbp
	retq
	.cfi_endproc

	.p2align	4, 0x90
__ZN4core3ptr9const_ptr33_$LT$impl$u20$$BP$const$u20$T$GT$6offset17h27f40bb33b3aaf55E:
	.cfi_startproc
	pushq	%rbp
	.cfi_def_cfa_offset 16
	.cfi_offset %rbp, -16
	movq	%rsp, %rbp
	.cfi_def_cfa_register %rbp
	subq	$16, %rsp
	shlq	$3, %rsi
	addq	%rsi, %rdi
	movq	%rdi, -8(%rbp)
	movq	-8(%rbp), %rax
	movq	%rax, -16(%rbp)
	movq	-16(%rbp), %rax
	addq	$16, %rsp
	popq	%rbp
	retq
	.cfi_endproc

	.p2align	4, 0x90
__ZN4core3ptr9const_ptr33_$LT$impl$u20$$BP$const$u20$T$GT$6offset17h491e21cb88b99cdfE:
	.cfi_startproc
	pushq	%rbp
	.cfi_def_cfa_offset 16
	.cfi_offset %rbp, -16
	movq	%rsp, %rbp
	.cfi_def_cfa_register %rbp
	subq	$16, %rsp
	imulq	$24, %rsi, %rax
	addq	%rax, %rdi
	movq	%rdi, -8(%rbp)
	movq	-8(%rbp), %rax
	movq	%rax, -16(%rbp)
	movq	-16(%rbp), %rax
	addq	$16, %rsp
	popq	%rbp
	retq
	.cfi_endproc

	.p2align	4, 0x90
__ZN4core3ptr9const_ptr33_$LT$impl$u20$$BP$const$u20$T$GT$6offset17ha289d2f984f25bb6E:
	.cfi_startproc
	pushq	%rbp
	.cfi_def_cfa_offset 16
	.cfi_offset %rbp, -16
	movq	%rsp, %rbp
	.cfi_def_cfa_register %rbp
	subq	$16, %rsp
	imulq	$24, %rsi, %rax
	addq	%rax, %rdi
	movq	%rdi, -8(%rbp)
	movq	-8(%rbp), %rax
	movq	%rax, -16(%rbp)
	movq	-16(%rbp), %rax
	addq	$16, %rsp
	popq	%rbp
	retq
	.cfi_endproc

	.p2align	4, 0x90
__ZN4core3ptr9const_ptr33_$LT$impl$u20$$BP$const$u20$T$GT$6offset17hdc9e047f23c6b822E:
	.cfi_startproc
	pushq	%rbp
	.cfi_def_cfa_offset 16
	.cfi_offset %rbp, -16
	movq	%rsp, %rbp
	.cfi_def_cfa_register %rbp
	subq	$16, %rsp
	addq	%rsi, %rdi
	movq	%rdi, -8(%rbp)
	movq	-8(%rbp), %rax
	movq	%rax, -16(%rbp)
	movq	-16(%rbp), %rax
	addq	$16, %rsp
	popq	%rbp
	retq
	.cfi_endproc

	.p2align	4, 0x90
__ZN4core3ptr9const_ptr43_$LT$impl$u20$$BP$const$u20$$u5b$T$u5d$$GT$6as_ptr17h1a840c3b7822c0c6E:
	.cfi_startproc
	pushq	%rbp
	.cfi_def_cfa_offset 16
	.cfi_offset %rbp, -16
	movq	%rsp, %rbp
	.cfi_def_cfa_register %rbp
	movq	%rdi, %rax
	popq	%rbp
	retq
	.cfi_endproc

	.p2align	4, 0x90
__ZN4core3ptr9const_ptr43_$LT$impl$u20$$BP$const$u20$$u5b$T$u5d$$GT$6as_ptr17h2b7543eb950b0218E:
	.cfi_startproc
	pushq	%rbp
	.cfi_def_cfa_offset 16
	.cfi_offset %rbp, -16
	movq	%rsp, %rbp
	.cfi_def_cfa_register %rbp
	movq	%rdi, %rax
	popq	%rbp
	retq
	.cfi_endproc

	.p2align	4, 0x90
__ZN4core3ptr9const_ptr43_$LT$impl$u20$$BP$const$u20$$u5b$T$u5d$$GT$6as_ptr17h51c551036538ec74E:
	.cfi_startproc
	pushq	%rbp
	.cfi_def_cfa_offset 16
	.cfi_offset %rbp, -16
	movq	%rsp, %rbp
	.cfi_def_cfa_register %rbp
	movq	%rdi, %rax
	popq	%rbp
	retq
	.cfi_endproc

	.p2align	4, 0x90
__ZN4core3ptr9const_ptr43_$LT$impl$u20$$BP$const$u20$$u5b$T$u5d$$GT$6as_ptr17hd101c26e0f2eb464E:
	.cfi_startproc
	pushq	%rbp
	.cfi_def_cfa_offset 16
	.cfi_offset %rbp, -16
	movq	%rsp, %rbp
	.cfi_def_cfa_register %rbp
	movq	%rdi, %rax
	popq	%rbp
	retq
	.cfi_endproc

	.p2align	4, 0x90
__ZN4core3str21_$LT$impl$u20$str$GT$13get_unchecked17hfa8b26b13aafef18E:
	.cfi_startproc
	pushq	%rbp
	.cfi_def_cfa_offset 16
	.cfi_offset %rbp, -16
	movq	%rsp, %rbp
	.cfi_def_cfa_register %rbp
	subq	$32, %rsp
	movq	%rdi, -8(%rbp)
	movq	%rdx, %rdi
	movq	%rsi, -16(%rbp)
	movq	%rcx, %rsi
	movq	-8(%rbp), %rdx
	movq	-16(%rbp), %rcx
	callq	__ZN4core3str6traits101_$LT$impl$u20$core..slice..SliceIndex$LT$str$GT$$u20$for$u20$core..ops..range..Range$LT$usize$GT$$GT$13get_unchecked17h9a7f7615d2a8c318E
	movq	%rax, -24(%rbp)
	movq	%rdx, -32(%rbp)
	movq	-24(%rbp), %rax
	movq	-32(%rbp), %rdx
	addq	$32, %rsp
	popq	%rbp
	retq
	.cfi_endproc

	.p2align	4, 0x90
__ZN4core3str21_$LT$impl$u20$str$GT$3len17h8d5e97e8009b2a74E:
	.cfi_startproc
	pushq	%rbp
	.cfi_def_cfa_offset 16
	.cfi_offset %rbp, -16
	movq	%rsp, %rbp
	.cfi_def_cfa_register %rbp
	subq	$48, %rsp
	movq	%rdi, -16(%rbp)
	movq	%rsi, -8(%rbp)
	movq	-16(%rbp), %rdi
	movq	-8(%rbp), %rsi
	movq	%rdi, -24(%rbp)
	movq	%rsi, -32(%rbp)
	movq	-24(%rbp), %rdi
	movq	-32(%rbp), %rsi
	callq	__ZN4core5slice29_$LT$impl$u20$$u5b$T$u5d$$GT$3len17h2552d1fef65ea01fE
	movq	%rax, -40(%rbp)
	movq	-40(%rbp), %rax
	addq	$48, %rsp
	popq	%rbp
	retq
	.cfi_endproc

	.p2align	4, 0x90
__ZN4core3str21_$LT$impl$u20$str$GT$5parse17hd4a74c84a071fa1bE:
	.cfi_startproc
	pushq	%rbp
	.cfi_def_cfa_offset 16
	.cfi_offset %rbp, -16
	movq	%rsp, %rbp
	.cfi_def_cfa_register %rbp
	subq	$16, %rsp
	callq	__ZN4core3num52_$LT$impl$u20$core..str..FromStr$u20$for$u20$u32$GT$8from_str17h7755800c3765c881E
	movq	%rax, -8(%rbp)
	movq	-8(%rbp), %rax
	movq	%rax, -16(%rbp)
	movq	-16(%rbp), %rax
	addq	$16, %rsp
	popq	%rbp
	retq
	.cfi_endproc

	.p2align	4, 0x90
__ZN4core3str21_$LT$impl$u20$str$GT$5split17h9242973c135eb83eE:
Lfunc_begin19:
	.cfi_startproc
	.cfi_personality 155, _rust_eh_personality
	.cfi_lsda 16, Lexception19
	pushq	%rbp
	.cfi_def_cfa_offset 16
	.cfi_offset %rbp, -16
	movq	%rsp, %rbp
	.cfi_def_cfa_register %rbp
	subq	$208, %rsp
	movq	%rdi, %rax
	movb	$0, -17(%rbp)
	movb	$1, -17(%rbp)
Ltmp92:
	movq	%rdi, -152(%rbp)
	movq	%rsi, %rdi
	movq	%rsi, -160(%rbp)
	movq	%rdx, %rsi
	movl	%ecx, -164(%rbp)
	movq	%rdx, -176(%rbp)
	movq	%rax, -184(%rbp)
	callq	__ZN4core3str21_$LT$impl$u20$str$GT$3len17h8d5e97e8009b2a74E
Ltmp93:
	movq	%rax, -192(%rbp)
	jmp	LBB157_2
LBB157_1:
	movq	-16(%rbp), %rdi
	callq	__Unwind_Resume
	ud2
LBB157_2:
	movb	$0, -17(%rbp)
Ltmp94:
	leaq	-72(%rbp), %rdi
	movl	-164(%rbp), %esi
	movq	-160(%rbp), %rdx
	movq	-176(%rbp), %rcx
	callq	__ZN52_$LT$char$u20$as$u20$core..str..pattern..Pattern$GT$13into_searcher17hd2ce027ee10bc3a9E
Ltmp95:
	jmp	LBB157_3
LBB157_3:
	movq	$0, -144(%rbp)
	movq	-192(%rbp), %rax
	movq	%rax, -136(%rbp)
	leaq	-144(%rbp), %rcx
	movq	%rcx, %rdx
	addq	$16, %rdx
	leaq	-72(%rbp), %rsi
	movq	%rdx, %rdi
	movl	$48, %edx
	movq	%rcx, -200(%rbp)
	callq	_memcpy
	movb	$1, -80(%rbp)
	movb	$0, -79(%rbp)
	movq	-152(%rbp), %rax
	movq	-200(%rbp), %rcx
	movq	%rax, %rdi
	movq	%rcx, %rsi
	movl	$72, %edx
	callq	_memcpy
	movq	-184(%rbp), %rax
	addq	$208, %rsp
	popq	%rbp
	retq
LBB157_4:
	movb	$0, -17(%rbp)
	jmp	LBB157_1
LBB157_5:
	testb	$1, -17(%rbp)
	jne	LBB157_4
	jmp	LBB157_1
LBB157_6:
Ltmp96:
	movq	%rax, -16(%rbp)
	movl	%edx, -8(%rbp)
	jmp	LBB157_5
Lfunc_end19:
	.cfi_endproc
	.section	__TEXT,__gcc_except_tab
	.p2align	2
GCC_except_table157:
Lexception19:
	.byte	255
	.byte	255
	.byte	1
	.uleb128 Lcst_end19-Lcst_begin19
Lcst_begin19:
	.uleb128 Ltmp92-Lfunc_begin19
	.uleb128 Ltmp93-Ltmp92
	.uleb128 Ltmp96-Lfunc_begin19
	.byte	0
	.uleb128 Ltmp93-Lfunc_begin19
	.uleb128 Ltmp94-Ltmp93
	.byte	0
	.byte	0
	.uleb128 Ltmp94-Lfunc_begin19
	.uleb128 Ltmp95-Ltmp94
	.uleb128 Ltmp96-Lfunc_begin19
	.byte	0
	.uleb128 Ltmp95-Lfunc_begin19
	.uleb128 Lfunc_end19-Ltmp95
	.byte	0
	.byte	0
Lcst_end19:
	.p2align	2

	.section	__TEXT,__text,regular,pure_instructions
	.p2align	4, 0x90
__ZN4core3str22SplitInternal$LT$P$GT$4next17h7cf6bed0647fd9eaE:
	.cfi_startproc
	pushq	%rbp
	.cfi_def_cfa_offset 16
	.cfi_offset %rbp, -16
	movq	%rsp, %rbp
	.cfi_def_cfa_register %rbp
	subq	$112, %rsp
	testb	$1, 65(%rdi)
	movq	%rdi, -64(%rbp)
	jne	LBB158_2
	movq	-64(%rbp), %rax
	addq	$16, %rax
	movq	%rax, %rdi
	callq	__ZN81_$LT$core..str..pattern..CharSearcher$u20$as$u20$core..str..pattern..Searcher$GT$8haystack17h081dccd457133b11E
	movq	%rax, -72(%rbp)
	movq	%rdx, -80(%rbp)
	jmp	LBB158_4
LBB158_2:
	movq	$0, -56(%rbp)
LBB158_3:
	movq	-56(%rbp), %rax
	movq	-48(%rbp), %rdx
	addq	$112, %rsp
	popq	%rbp
	retq
LBB158_4:
	movq	-64(%rbp), %rax
	addq	$16, %rax
	leaq	-40(%rbp), %rdi
	movq	%rax, %rsi
	callq	__ZN81_$LT$core..str..pattern..CharSearcher$u20$as$u20$core..str..pattern..Searcher$GT$10next_match17h8503432970e6c9d2E
	movq	-40(%rbp), %rax
	testq	%rax, %rax
	je	LBB158_6
	jmp	LBB158_12
LBB158_12:
	jmp	LBB158_8
LBB158_6:
	movq	-64(%rbp), %rdi
	callq	__ZN4core3str22SplitInternal$LT$P$GT$7get_end17h5e2a0931add56c89E
	movq	%rdx, -48(%rbp)
	movq	%rax, -56(%rbp)
	jmp	LBB158_10
	ud2
LBB158_8:
	movq	-32(%rbp), %rax
	movq	-24(%rbp), %rcx
	movq	-64(%rbp), %rdx
	movq	(%rdx), %rsi
	movq	%rsi, -16(%rbp)
	movq	%rax, -8(%rbp)
	movq	-16(%rbp), %rdx
	movq	-8(%rbp), %rax
	movq	-72(%rbp), %rdi
	movq	-80(%rbp), %rsi
	movq	%rcx, -88(%rbp)
	movq	%rax, %rcx
	callq	__ZN4core3str21_$LT$impl$u20$str$GT$13get_unchecked17hfa8b26b13aafef18E
	movq	%rax, -96(%rbp)
	movq	%rdx, -104(%rbp)
	movq	-64(%rbp), %rax
	movq	-88(%rbp), %rcx
	movq	%rcx, (%rax)
	movq	-96(%rbp), %rdx
	movq	%rdx, -56(%rbp)
	movq	-104(%rbp), %rsi
	movq	%rsi, -48(%rbp)
	jmp	LBB158_11
LBB158_10:
	jmp	LBB158_11
LBB158_11:
	jmp	LBB158_3
	.cfi_endproc

	.p2align	4, 0x90
__ZN4core3str22SplitInternal$LT$P$GT$7get_end17h5e2a0931add56c89E:
	.cfi_startproc
	pushq	%rbp
	.cfi_def_cfa_offset 16
	.cfi_offset %rbp, -16
	movq	%rsp, %rbp
	.cfi_def_cfa_register %rbp
	subq	$80, %rsp
	movb	65(%rdi), %al
	xorb	$-1, %al
	testb	$1, %al
	movq	%rdi, -48(%rbp)
	jne	LBB159_3
	jmp	LBB159_2
LBB159_1:
	movb	$1, -18(%rbp)
	jmp	LBB159_4
LBB159_2:
	movb	$0, -18(%rbp)
	jmp	LBB159_4
LBB159_3:
	movq	-48(%rbp), %rax
	testb	$1, 64(%rax)
	jne	LBB159_5
	jmp	LBB159_7
LBB159_4:
	testb	$1, -18(%rbp)
	jne	LBB159_10
	jmp	LBB159_9
LBB159_5:
	movb	$1, -17(%rbp)
	jmp	LBB159_8
LBB159_6:
	movb	$0, -17(%rbp)
	jmp	LBB159_8
LBB159_7:
	movq	-48(%rbp), %rax
	movq	8(%rax), %rcx
	subq	(%rax), %rcx
	cmpq	$0, %rcx
	ja	LBB159_5
	jmp	LBB159_6
LBB159_8:
	testb	$1, -17(%rbp)
	jne	LBB159_1
	jmp	LBB159_2
LBB159_9:
	movq	$0, -40(%rbp)
	jmp	LBB159_13
LBB159_10:
	movq	-48(%rbp), %rax
	movb	$1, 65(%rax)
	addq	$16, %rax
	movq	%rax, %rdi
	callq	__ZN81_$LT$core..str..pattern..CharSearcher$u20$as$u20$core..str..pattern..Searcher$GT$8haystack17h081dccd457133b11E
	movq	%rax, -56(%rbp)
	movq	%rdx, -64(%rbp)
	movq	-48(%rbp), %rax
	movq	(%rax), %rcx
	movq	8(%rax), %rdx
	movq	%rcx, -16(%rbp)
	movq	%rdx, -8(%rbp)
	movq	-16(%rbp), %rdx
	movq	-8(%rbp), %rcx
	movq	-56(%rbp), %rdi
	movq	-64(%rbp), %rsi
	callq	__ZN4core3str21_$LT$impl$u20$str$GT$13get_unchecked17hfa8b26b13aafef18E
	movq	%rax, -72(%rbp)
	movq	%rdx, -80(%rbp)
	movq	-72(%rbp), %rax
	movq	%rax, -40(%rbp)
	movq	-80(%rbp), %rcx
	movq	%rcx, -32(%rbp)
LBB159_13:
	movq	-40(%rbp), %rax
	movq	-32(%rbp), %rdx
	addq	$80, %rsp
	popq	%rbp
	retq
	.cfi_endproc

	.p2align	4, 0x90
__ZN4core3str23from_utf8_unchecked_mut17h709ff21d8c06048bE:
	.cfi_startproc
	pushq	%rbp
	.cfi_def_cfa_offset 16
	.cfi_offset %rbp, -16
	movq	%rsp, %rbp
	.cfi_def_cfa_register %rbp
	movq	%rdi, %rax
	movq	%rsi, %rdx
	popq	%rbp
	retq
	.cfi_endproc

	.p2align	4, 0x90
__ZN4core3str6traits101_$LT$impl$u20$core..slice..SliceIndex$LT$str$GT$$u20$for$u20$core..ops..range..Range$LT$usize$GT$$GT$13get_unchecked17h9a7f7615d2a8c318E:
	.cfi_startproc
	pushq	%rbp
	.cfi_def_cfa_offset 16
	.cfi_offset %rbp, -16
	movq	%rsp, %rbp
	.cfi_def_cfa_register %rbp
	subq	$48, %rsp
	movq	%rdi, -8(%rbp)
	movq	%rdx, %rdi
	movq	%rsi, -16(%rbp)
	movq	%rcx, %rsi
	callq	__ZN4core3ptr9const_ptr43_$LT$impl$u20$$BP$const$u20$$u5b$T$u5d$$GT$6as_ptr17h2b7543eb950b0218E
	movq	%rax, -24(%rbp)
	movq	-24(%rbp), %rdi
	movq	-8(%rbp), %rsi
	callq	__ZN4core3ptr9const_ptr33_$LT$impl$u20$$BP$const$u20$T$GT$3add17hb7a9cf870a295f0fE
	movq	%rax, -32(%rbp)
	movq	-16(%rbp), %rax
	movq	-8(%rbp), %rcx
	subq	%rcx, %rax
	movq	-32(%rbp), %rdi
	movq	%rax, %rsi
	callq	__ZN4core3ptr20slice_from_raw_parts17ha074226b72c10683E
	movq	%rax, -40(%rbp)
	movq	%rdx, -48(%rbp)
	movq	-40(%rbp), %rax
	movq	-48(%rbp), %rdx
	addq	$48, %rsp
	popq	%rbp
	retq
	.cfi_endproc

	.p2align	4, 0x90
__ZN4core3str6traits54_$LT$impl$u20$core..cmp..PartialEq$u20$for$u20$str$GT$2eq17h516d1d8b7df536c6E:
	.cfi_startproc
	pushq	%rbp
	.cfi_def_cfa_offset 16
	.cfi_offset %rbp, -16
	movq	%rsp, %rbp
	.cfi_def_cfa_register %rbp
	subq	$96, %rsp
	movq	%rdi, -32(%rbp)
	movq	%rsi, -24(%rbp)
	movq	-32(%rbp), %rax
	movq	-24(%rbp), %rsi
	movq	%rsi, -56(%rbp)
	movq	%rax, -64(%rbp)
	movq	%rdx, -72(%rbp)
	movq	%rcx, -80(%rbp)
	movq	-72(%rbp), %rax
	movq	%rax, -16(%rbp)
	movq	-80(%rbp), %rcx
	movq	%rcx, -8(%rbp)
	movq	-16(%rbp), %rdx
	movq	-8(%rbp), %rsi
	movq	%rsi, -40(%rbp)
	movq	%rdx, -48(%rbp)
	leaq	-64(%rbp), %rdi
	leaq	-48(%rbp), %rsi
	callq	__ZN4core3cmp5impls69_$LT$impl$u20$core..cmp..PartialEq$LT$$RF$B$GT$$u20$for$u20$$RF$A$GT$2eq17h2b15dac1e03c14e6E
	movb	%al, -81(%rbp)
	movb	-81(%rbp), %al
	andb	$1, %al
	movzbl	%al, %eax
	addq	$96, %rsp
	popq	%rbp
	retq
	.cfi_endproc

	.p2align	4, 0x90
__ZN4core3str6traits54_$LT$impl$u20$core..cmp..PartialEq$u20$for$u20$str$GT$2ne17h807769dfa9380e51E:
	.cfi_startproc
	pushq	%rbp
	.cfi_def_cfa_offset 16
	.cfi_offset %rbp, -16
	movq	%rsp, %rbp
	.cfi_def_cfa_register %rbp
	subq	$16, %rsp
	callq	__ZN4core3str6traits54_$LT$impl$u20$core..cmp..PartialEq$u20$for$u20$str$GT$2eq17h516d1d8b7df536c6E
	movb	%al, -1(%rbp)
	movb	-1(%rbp), %al
	xorb	$-1, %al
	andb	$1, %al
	movzbl	%al, %eax
	addq	$16, %rsp
	popq	%rbp
	retq
	.cfi_endproc

	.p2align	4, 0x90
__ZN4core4char7methods15encode_utf8_raw17h66f26a7801cc78bcE:
	.cfi_startproc
	pushq	%rbp
	.cfi_def_cfa_offset 16
	.cfi_offset %rbp, -16
	movq	%rsp, %rbp
	.cfi_def_cfa_register %rbp
	subq	$320, %rsp
	movl	%edi, -172(%rbp)
	movl	-172(%rbp), %edi
	movq	%rsi, -184(%rbp)
	movq	%rdx, -192(%rbp)
	callq	__ZN4core4char7methods8len_utf817hc827b4a729855353E
	movq	%rax, -168(%rbp)
	leaq	l___unnamed_3(%rip), %rax
	movq	-168(%rbp), %rcx
	movq	-184(%rbp), %rdi
	movq	-192(%rbp), %rsi
	movq	%rax, %rdx
	movq	%rcx, -200(%rbp)
	callq	__ZN4core5slice77_$LT$impl$u20$core..ops..index..IndexMut$LT$I$GT$$u20$for$u20$$u5b$T$u5d$$GT$9index_mut17h92fdc420a9f33b75E
	movq	%rax, -208(%rbp)
	movq	%rdx, -216(%rbp)
	movq	-200(%rbp), %rax
	movq	%rax, -160(%rbp)
	movq	-208(%rbp), %rcx
	movq	%rcx, -152(%rbp)
	movq	-216(%rbp), %rdx
	movq	%rdx, -144(%rbp)
	movq	-160(%rbp), %rsi
	decq	%rsi
	movq	%rsi, %rdi
	subq	$3, %rdi
	movq	%rsi, -224(%rbp)
	ja	LBB164_4
	leaq	LJTI164_0(%rip), %rax
	movq	-224(%rbp), %rcx
	movslq	(%rax,%rcx,4), %rdx
	addq	%rax, %rdx
	jmpq	*%rdx
LBB164_3:
	cmpq	$1, -144(%rbp)
	jae	LBB164_8
LBB164_4:
	movq	l___unnamed_4(%rip), %rax
	movq	-184(%rbp), %rdi
	movq	-192(%rbp), %rsi
	movq	%rax, -232(%rbp)
	callq	__ZN4core5slice29_$LT$impl$u20$$u5b$T$u5d$$GT$3len17h2552d1fef65ea01fE
	movq	%rax, -16(%rbp)
	jmp	LBB164_12
LBB164_5:
	cmpq	$2, -144(%rbp)
	jae	LBB164_9
	jmp	LBB164_4
LBB164_6:
	cmpq	$3, -144(%rbp)
	jae	LBB164_10
	jmp	LBB164_4
LBB164_7:
	cmpq	$4, -144(%rbp)
	jae	LBB164_11
	jmp	LBB164_4
LBB164_8:
	movq	-152(%rbp), %rax
	movl	-172(%rbp), %ecx
	movb	%cl, (%rax)
	jmp	LBB164_17
LBB164_9:
	movq	-152(%rbp), %rax
	movq	-152(%rbp), %rcx
	movl	-172(%rbp), %edx
	shrl	$6, %edx
	andl	$31, %edx
	orb	$-64, %dl
	movb	%dl, (%rax)
	movl	-172(%rbp), %esi
	andl	$63, %esi
	orb	$-128, %sil
	movb	%sil, 1(%rcx)
	jmp	LBB164_17
LBB164_10:
	movq	-152(%rbp), %rax
	movq	-152(%rbp), %rcx
	movq	-152(%rbp), %rdx
	movl	-172(%rbp), %esi
	shrl	$12, %esi
	andl	$15, %esi
	orb	$-32, %sil
	movb	%sil, (%rax)
	movl	-172(%rbp), %edi
	shrl	$6, %edi
	andl	$63, %edi
	orb	$-128, %dil
	movb	%dil, 1(%rcx)
	movl	-172(%rbp), %r8d
	andl	$63, %r8d
	orb	$-128, %r8b
	movb	%r8b, 2(%rdx)
	jmp	LBB164_17
LBB164_11:
	movq	-152(%rbp), %rax
	movq	-152(%rbp), %rcx
	movq	-152(%rbp), %rdx
	movq	-152(%rbp), %rsi
	movl	-172(%rbp), %edi
	shrl	$18, %edi
	andl	$7, %edi
	orb	$-16, %dil
	movb	%dil, (%rax)
	movl	-172(%rbp), %r8d
	shrl	$12, %r8d
	andl	$63, %r8d
	orb	$-128, %r8b
	movb	%r8b, 1(%rcx)
	movl	-172(%rbp), %r9d
	shrl	$6, %r9d
	andl	$63, %r9d
	orb	$-128, %r9b
	movb	%r9b, 2(%rdx)
	movl	-172(%rbp), %r10d
	andl	$63, %r10d
	orb	$-128, %r10b
	movb	%r10b, 3(%rsi)
	jmp	LBB164_17
LBB164_12:
	movq	__ZN4core3fmt3num3imp54_$LT$impl$u20$core..fmt..Display$u20$for$u20$usize$GT$3fmt17h12ea2856299c9b06E@GOTPCREL(%rip), %rsi
	leaq	-168(%rbp), %rax
	movq	%rax, -40(%rbp)
	leaq	-172(%rbp), %rax
	movq	%rax, -32(%rbp)
	leaq	-16(%rbp), %rax
	movq	%rax, -24(%rbp)
	movq	-40(%rbp), %rdi
	movq	-32(%rbp), %rax
	movq	-24(%rbp), %rcx
	movq	%rax, -240(%rbp)
	movq	%rcx, -248(%rbp)
	callq	__ZN4core3fmt10ArgumentV13new17hae8fa9517d8d9490E
	movq	%rax, -256(%rbp)
	movq	%rdx, -264(%rbp)
	movq	__ZN4core3fmt3num53_$LT$impl$u20$core..fmt..UpperHex$u20$for$u20$u32$GT$3fmt17h7bd10b5f3c9584f1E@GOTPCREL(%rip), %rsi
	movq	-240(%rbp), %rdi
	callq	__ZN4core3fmt10ArgumentV13new17h9f8e42e5791f354aE
	movq	%rax, -272(%rbp)
	movq	%rdx, -280(%rbp)
	movq	__ZN4core3fmt3num3imp54_$LT$impl$u20$core..fmt..Display$u20$for$u20$usize$GT$3fmt17h12ea2856299c9b06E@GOTPCREL(%rip), %rsi
	movq	-248(%rbp), %rdi
	callq	__ZN4core3fmt10ArgumentV13new17hae8fa9517d8d9490E
	movq	%rax, -288(%rbp)
	movq	%rdx, -296(%rbp)
	movq	-256(%rbp), %rax
	movq	%rax, -88(%rbp)
	movq	-264(%rbp), %rcx
	movq	%rcx, -80(%rbp)
	movq	-272(%rbp), %rdx
	movq	%rdx, -72(%rbp)
	movq	-280(%rbp), %rsi
	movq	%rsi, -64(%rbp)
	movq	-288(%rbp), %rdi
	movq	%rdi, -56(%rbp)
	movq	-296(%rbp), %r8
	movq	%r8, -48(%rbp)
	leaq	-88(%rbp), %r9
	leaq	-136(%rbp), %rdi
	movq	-232(%rbp), %rsi
	movl	$3, %r10d
	movq	%r10, %rdx
	movq	%r9, %rcx
	movq	%r10, %r8
	callq	__ZN4core3fmt9Arguments6new_v117hd227699d940bcf05E
	leaq	l___unnamed_5(%rip), %rsi
	leaq	-136(%rbp), %rdi
	callq	__ZN4core9panicking9panic_fmt17hfce5b7173905fc53E
LBB164_17:
	leaq	l___unnamed_6(%rip), %rax
	movq	-168(%rbp), %rcx
	movq	%rcx, -8(%rbp)
	movq	-8(%rbp), %rdx
	movq	-184(%rbp), %rdi
	movq	-192(%rbp), %rsi
	movq	%rax, %rcx
	callq	__ZN4core5slice77_$LT$impl$u20$core..ops..index..IndexMut$LT$I$GT$$u20$for$u20$$u5b$T$u5d$$GT$9index_mut17hd68e65050d8e30ccE
	movq	%rax, -304(%rbp)
	movq	%rdx, -312(%rbp)
	movq	-304(%rbp), %rax
	movq	-312(%rbp), %rdx
	addq	$320, %rsp
	popq	%rbp
	retq
	.cfi_endproc
	.p2align	2, 0x90
	.data_region jt32
.set L164_0_set_3, LBB164_3-LJTI164_0
.set L164_0_set_5, LBB164_5-LJTI164_0
.set L164_0_set_6, LBB164_6-LJTI164_0
.set L164_0_set_7, LBB164_7-LJTI164_0
LJTI164_0:
	.long	L164_0_set_3
	.long	L164_0_set_5
	.long	L164_0_set_6
	.long	L164_0_set_7
	.end_data_region

	.p2align	4, 0x90
__ZN4core4char7methods22_$LT$impl$u20$char$GT$11encode_utf817hb229808474ea8a21E:
	.cfi_startproc
	pushq	%rbp
	.cfi_def_cfa_offset 16
	.cfi_offset %rbp, -16
	movq	%rsp, %rbp
	.cfi_def_cfa_register %rbp
	subq	$32, %rsp
	callq	__ZN4core4char7methods15encode_utf8_raw17h66f26a7801cc78bcE
	movq	%rax, -8(%rbp)
	movq	%rdx, -16(%rbp)
	movq	-8(%rbp), %rdi
	movq	-16(%rbp), %rsi
	callq	__ZN4core3str23from_utf8_unchecked_mut17h709ff21d8c06048bE
	movq	%rax, -24(%rbp)
	movq	%rdx, -32(%rbp)
	movq	-24(%rbp), %rax
	movq	-32(%rbp), %rdx
	addq	$32, %rsp
	popq	%rbp
	retq
	.cfi_endproc

	.p2align	4, 0x90
__ZN4core4char7methods8len_utf817hc827b4a729855353E:
	.cfi_startproc
	pushq	%rbp
	.cfi_def_cfa_offset 16
	.cfi_offset %rbp, -16
	movq	%rsp, %rbp
	.cfi_def_cfa_register %rbp
	subq	$16, %rsp
	cmpl	$128, %edi
	movl	%edi, -12(%rbp)
	jb	LBB166_2
	movl	-12(%rbp), %eax
	cmpl	$2048, %eax
	jb	LBB166_4
	jmp	LBB166_3
LBB166_2:
	movq	$1, -8(%rbp)
	jmp	LBB166_9
LBB166_3:
	movl	-12(%rbp), %eax
	cmpl	$65536, %eax
	jb	LBB166_6
	jmp	LBB166_5
LBB166_4:
	movq	$2, -8(%rbp)
	jmp	LBB166_8
LBB166_5:
	movq	$4, -8(%rbp)
	jmp	LBB166_7
LBB166_6:
	movq	$3, -8(%rbp)
LBB166_7:
	jmp	LBB166_8
LBB166_8:
	jmp	LBB166_9
LBB166_9:
	movq	-8(%rbp), %rax
	addq	$16, %rsp
	popq	%rbp
	retq
	.cfi_endproc

	.p2align	4, 0x90
__ZN4core5alloc6layout10size_align17h3e68a3aa9e85649dE:
	.cfi_startproc
	pushq	%rbp
	.cfi_def_cfa_offset 16
	.cfi_offset %rbp, -16
	movq	%rsp, %rbp
	.cfi_def_cfa_register %rbp
	subq	$48, %rsp
	movq	$544, -16(%rbp)
	movq	-16(%rbp), %rax
	movq	%rax, -40(%rbp)
	movq	$8, -8(%rbp)
	movq	-8(%rbp), %rax
	movq	%rax, -48(%rbp)
	movq	-40(%rbp), %rax
	movq	%rax, -32(%rbp)
	movq	-48(%rbp), %rcx
	movq	%rcx, -24(%rbp)
	movq	-32(%rbp), %rax
	movq	-24(%rbp), %rdx
	addq	$48, %rsp
	popq	%rbp
	retq
	.cfi_endproc

	.p2align	4, 0x90
__ZN4core5alloc6layout10size_align17hb7aafb166e5fca80E:
	.cfi_startproc
	pushq	%rbp
	.cfi_def_cfa_offset 16
	.cfi_offset %rbp, -16
	movq	%rsp, %rbp
	.cfi_def_cfa_register %rbp
	subq	$48, %rsp
	movq	$640, -16(%rbp)
	movq	-16(%rbp), %rax
	movq	%rax, -40(%rbp)
	movq	$8, -8(%rbp)
	movq	-8(%rbp), %rax
	movq	%rax, -48(%rbp)
	movq	-40(%rbp), %rax
	movq	%rax, -32(%rbp)
	movq	-48(%rbp), %rcx
	movq	%rcx, -24(%rbp)
	movq	-32(%rbp), %rax
	movq	-24(%rbp), %rdx
	addq	$48, %rsp
	popq	%rbp
	retq
	.cfi_endproc

	.p2align	4, 0x90
__ZN4core5alloc6layout6Layout25from_size_align_unchecked17he5bac47b2beaea7cE:
	.cfi_startproc
	pushq	%rbp
	.cfi_def_cfa_offset 16
	.cfi_offset %rbp, -16
	movq	%rsp, %rbp
	.cfi_def_cfa_register %rbp
	subq	$32, %rsp
	movq	%rdi, -24(%rbp)
	movq	%rsi, %rdi
	callq	__ZN4core3num12NonZeroUsize13new_unchecked17h5050cfe8f486861dE
	movq	%rax, -32(%rbp)
	movq	-24(%rbp), %rax
	movq	%rax, -16(%rbp)
	movq	-32(%rbp), %rcx
	movq	%rcx, -8(%rbp)
	movq	-16(%rbp), %rax
	movq	-8(%rbp), %rdx
	addq	$32, %rsp
	popq	%rbp
	retq
	.cfi_endproc

	.p2align	4, 0x90
__ZN4core5alloc6layout6Layout3new17h2055a48debff279cE:
	.cfi_startproc
	pushq	%rbp
	.cfi_def_cfa_offset 16
	.cfi_offset %rbp, -16
	movq	%rsp, %rbp
	.cfi_def_cfa_register %rbp
	subq	$32, %rsp
	callq	__ZN4core5alloc6layout10size_align17hb7aafb166e5fca80E
	movq	%rax, -8(%rbp)
	movq	%rdx, -16(%rbp)
	movq	-8(%rbp), %rdi
	movq	-16(%rbp), %rsi
	callq	__ZN4core5alloc6layout6Layout25from_size_align_unchecked17he5bac47b2beaea7cE
	movq	%rax, -24(%rbp)
	movq	%rdx, -32(%rbp)
	movq	-24(%rbp), %rax
	movq	-32(%rbp), %rdx
	addq	$32, %rsp
	popq	%rbp
	retq
	.cfi_endproc

	.p2align	4, 0x90
__ZN4core5alloc6layout6Layout3new17he3c2b12d1909367dE:
	.cfi_startproc
	pushq	%rbp
	.cfi_def_cfa_offset 16
	.cfi_offset %rbp, -16
	movq	%rsp, %rbp
	.cfi_def_cfa_register %rbp
	subq	$32, %rsp
	callq	__ZN4core5alloc6layout10size_align17h3e68a3aa9e85649dE
	movq	%rax, -8(%rbp)
	movq	%rdx, -16(%rbp)
	movq	-8(%rbp), %rdi
	movq	-16(%rbp), %rsi
	callq	__ZN4core5alloc6layout6Layout25from_size_align_unchecked17he5bac47b2beaea7cE
	movq	%rax, -24(%rbp)
	movq	%rdx, -32(%rbp)
	movq	-24(%rbp), %rax
	movq	-32(%rbp), %rdx
	addq	$32, %rsp
	popq	%rbp
	retq
	.cfi_endproc

	.p2align	4, 0x90
__ZN4core5alloc6layout6Layout4size17h778667ef2343755aE:
	.cfi_startproc
	pushq	%rbp
	.cfi_def_cfa_offset 16
	.cfi_offset %rbp, -16
	movq	%rsp, %rbp
	.cfi_def_cfa_register %rbp
	movq	(%rdi), %rax
	popq	%rbp
	retq
	.cfi_endproc

	.p2align	4, 0x90
__ZN4core5alloc6layout6Layout5align17ha469f4c24af938acE:
	.cfi_startproc
	pushq	%rbp
	.cfi_def_cfa_offset 16
	.cfi_offset %rbp, -16
	movq	%rsp, %rbp
	.cfi_def_cfa_register %rbp
	subq	$16, %rsp
	movq	8(%rdi), %rdi
	callq	__ZN4core3num12NonZeroUsize3get17h3d357e4953c3821bE
	movq	%rax, -8(%rbp)
	movq	-8(%rbp), %rax
	addq	$16, %rsp
	popq	%rbp
	retq
	.cfi_endproc

	.p2align	4, 0x90
__ZN4core5slice14from_raw_parts17h02de1b1ead2c5362E:
	.cfi_startproc
	pushq	%rbp
	.cfi_def_cfa_offset 16
	.cfi_offset %rbp, -16
	movq	%rsp, %rbp
	.cfi_def_cfa_register %rbp
	subq	$16, %rsp
	callq	__ZN4core3ptr20slice_from_raw_parts17had65b1d2032116ceE
	movq	%rax, -8(%rbp)
	movq	%rdx, -16(%rbp)
	movq	-8(%rbp), %rax
	movq	-16(%rbp), %rdx
	addq	$16, %rsp
	popq	%rbp
	retq
	.cfi_endproc

	.p2align	4, 0x90
__ZN4core5slice14from_raw_parts17h43183b53e0e62f73E:
	.cfi_startproc
	pushq	%rbp
	.cfi_def_cfa_offset 16
	.cfi_offset %rbp, -16
	movq	%rsp, %rbp
	.cfi_def_cfa_register %rbp
	subq	$16, %rsp
	callq	__ZN4core3ptr20slice_from_raw_parts17ha074226b72c10683E
	movq	%rax, -8(%rbp)
	movq	%rdx, -16(%rbp)
	movq	-8(%rbp), %rax
	movq	-16(%rbp), %rdx
	addq	$16, %rsp
	popq	%rbp
	retq
	.cfi_endproc

	.p2align	4, 0x90
__ZN4core5slice14from_raw_parts17hab0b985c570737adE:
	.cfi_startproc
	pushq	%rbp
	.cfi_def_cfa_offset 16
	.cfi_offset %rbp, -16
	movq	%rsp, %rbp
	.cfi_def_cfa_register %rbp
	subq	$16, %rsp
	callq	__ZN4core3ptr20slice_from_raw_parts17h6c06be1480afde22E
	movq	%rax, -8(%rbp)
	movq	%rdx, -16(%rbp)
	movq	-8(%rbp), %rax
	movq	-16(%rbp), %rdx
	addq	$16, %rsp
	popq	%rbp
	retq
	.cfi_endproc

	.p2align	4, 0x90
__ZN4core5slice29_$LT$impl$u20$$u5b$T$u5d$$GT$13get_unchecked17h3e5626319e7f80a6E:
	.cfi_startproc
	pushq	%rbp
	.cfi_def_cfa_offset 16
	.cfi_offset %rbp, -16
	movq	%rsp, %rbp
	.cfi_def_cfa_register %rbp
	subq	$32, %rsp
	movq	%rdi, -8(%rbp)
	movq	%rdx, %rdi
	movq	-8(%rbp), %rax
	movq	%rsi, -16(%rbp)
	movq	%rax, %rsi
	movq	-16(%rbp), %rdx
	callq	__ZN68_$LT$usize$u20$as$u20$core..slice..SliceIndex$LT$$u5b$T$u5d$$GT$$GT$13get_unchecked17h26fdce7688264db9E
	movq	%rax, -24(%rbp)
	movq	-24(%rbp), %rax
	addq	$32, %rsp
	popq	%rbp
	retq
	.cfi_endproc

	.p2align	4, 0x90
__ZN4core5slice29_$LT$impl$u20$$u5b$T$u5d$$GT$13get_unchecked17h52bef45e41b6a49bE:
	.cfi_startproc
	pushq	%rbp
	.cfi_def_cfa_offset 16
	.cfi_offset %rbp, -16
	movq	%rsp, %rbp
	.cfi_def_cfa_register %rbp
	subq	$32, %rsp
	movq	%rdi, -8(%rbp)
	movq	%rdx, %rdi
	movq	-8(%rbp), %rax
	movq	%rsi, -16(%rbp)
	movq	%rax, %rsi
	movq	-16(%rbp), %rdx
	callq	__ZN68_$LT$usize$u20$as$u20$core..slice..SliceIndex$LT$$u5b$T$u5d$$GT$$GT$13get_unchecked17h2b1de3dadd63a651E
	movq	%rax, -24(%rbp)
	movq	-24(%rbp), %rax
	addq	$32, %rsp
	popq	%rbp
	retq
	.cfi_endproc

	.p2align	4, 0x90
__ZN4core5slice29_$LT$impl$u20$$u5b$T$u5d$$GT$13get_unchecked17h7832cc0f19b8e176E:
	.cfi_startproc
	pushq	%rbp
	.cfi_def_cfa_offset 16
	.cfi_offset %rbp, -16
	movq	%rsp, %rbp
	.cfi_def_cfa_register %rbp
	subq	$32, %rsp
	movq	%rdi, -8(%rbp)
	movq	%rdx, %rdi
	movq	-8(%rbp), %rax
	movq	%rsi, -16(%rbp)
	movq	%rax, %rsi
	movq	-16(%rbp), %rdx
	callq	__ZN68_$LT$usize$u20$as$u20$core..slice..SliceIndex$LT$$u5b$T$u5d$$GT$$GT$13get_unchecked17hd9834baad2357894E
	movq	%rax, -24(%rbp)
	movq	-24(%rbp), %rax
	addq	$32, %rsp
	popq	%rbp
	retq
	.cfi_endproc

	.p2align	4, 0x90
__ZN4core5slice29_$LT$impl$u20$$u5b$T$u5d$$GT$13get_unchecked17hbbbbeadd0eecf56cE:
	.cfi_startproc
	pushq	%rbp
	.cfi_def_cfa_offset 16
	.cfi_offset %rbp, -16
	movq	%rsp, %rbp
	.cfi_def_cfa_register %rbp
	subq	$32, %rsp
	movq	%rdi, -8(%rbp)
	movq	%rdx, %rdi
	movq	-8(%rbp), %rax
	movq	%rsi, -16(%rbp)
	movq	%rax, %rsi
	movq	-16(%rbp), %rdx
	callq	__ZN68_$LT$usize$u20$as$u20$core..slice..SliceIndex$LT$$u5b$T$u5d$$GT$$GT$13get_unchecked17h766a05a227ba5817E
	movq	%rax, -24(%rbp)
	movq	-24(%rbp), %rax
	addq	$32, %rsp
	popq	%rbp
	retq
	.cfi_endproc

	.p2align	4, 0x90
__ZN4core5slice29_$LT$impl$u20$$u5b$T$u5d$$GT$17get_unchecked_mut17h67759b6b8dd4592cE:
	.cfi_startproc
	pushq	%rbp
	.cfi_def_cfa_offset 16
	.cfi_offset %rbp, -16
	movq	%rsp, %rbp
	.cfi_def_cfa_register %rbp
	subq	$32, %rsp
	movq	%rdi, -8(%rbp)
	movq	%rdx, %rdi
	movq	-8(%rbp), %rax
	movq	%rsi, -16(%rbp)
	movq	%rax, %rsi
	movq	-16(%rbp), %rdx
	callq	__ZN68_$LT$usize$u20$as$u20$core..slice..SliceIndex$LT$$u5b$T$u5d$$GT$$GT$17get_unchecked_mut17hc43d9d2e2fceb589E
	movq	%rax, -24(%rbp)
	movq	-24(%rbp), %rax
	addq	$32, %rsp
	popq	%rbp
	retq
	.cfi_endproc

	.p2align	4, 0x90
__ZN4core5slice29_$LT$impl$u20$$u5b$T$u5d$$GT$3get17h0c9b654e16c54ab7E:
	.cfi_startproc
	pushq	%rbp
	.cfi_def_cfa_offset 16
	.cfi_offset %rbp, -16
	movq	%rsp, %rbp
	.cfi_def_cfa_register %rbp
	subq	$32, %rsp
	movq	%rdi, -8(%rbp)
	movq	%rdx, %rdi
	movq	%rsi, -16(%rbp)
	movq	%rcx, %rsi
	movq	-8(%rbp), %rdx
	movq	-16(%rbp), %rcx
	callq	__ZN99_$LT$core..ops..range..Range$LT$usize$GT$$u20$as$u20$core..slice..SliceIndex$LT$$u5b$T$u5d$$GT$$GT$3get17hb4e81090debd1daeE
	movq	%rax, -24(%rbp)
	movq	%rdx, -32(%rbp)
	movq	-24(%rbp), %rax
	movq	-32(%rbp), %rdx
	addq	$32, %rsp
	popq	%rbp
	retq
	.cfi_endproc

	.p2align	4, 0x90
__ZN4core5slice29_$LT$impl$u20$$u5b$T$u5d$$GT$3len17h2552d1fef65ea01fE:
	.cfi_startproc
	pushq	%rbp
	.cfi_def_cfa_offset 16
	.cfi_offset %rbp, -16
	movq	%rsp, %rbp
	.cfi_def_cfa_register %rbp
	subq	$16, %rsp
	movq	%rdi, -16(%rbp)
	movq	%rsi, -8(%rbp)
	movq	-8(%rbp), %rax
	addq	$16, %rsp
	popq	%rbp
	retq
	.cfi_endproc

	.p2align	4, 0x90
__ZN4core5slice29_$LT$impl$u20$$u5b$T$u5d$$GT$6as_ptr17h6e3bbb151820dfb9E:
	.cfi_startproc
	pushq	%rbp
	.cfi_def_cfa_offset 16
	.cfi_offset %rbp, -16
	movq	%rsp, %rbp
	.cfi_def_cfa_register %rbp
	movq	%rdi, %rax
	popq	%rbp
	retq
	.cfi_endproc

	.p2align	4, 0x90
__ZN4core5slice74_$LT$impl$u20$core..ops..index..Index$LT$I$GT$$u20$for$u20$$u5b$T$u5d$$GT$5index17ha4f77dc0a694c304E:
	.cfi_startproc
	pushq	%rbp
	.cfi_def_cfa_offset 16
	.cfi_offset %rbp, -16
	movq	%rsp, %rbp
	.cfi_def_cfa_register %rbp
	subq	$32, %rsp
	movq	%rdi, -8(%rbp)
	movq	%rdx, %rdi
	movq	%rsi, -16(%rbp)
	movq	%rcx, %rsi
	movq	-8(%rbp), %rdx
	movq	-16(%rbp), %rcx
	callq	__ZN99_$LT$core..ops..range..Range$LT$usize$GT$$u20$as$u20$core..slice..SliceIndex$LT$$u5b$T$u5d$$GT$$GT$5index17h0a63c549289c223aE
	movq	%rax, -24(%rbp)
	movq	%rdx, -32(%rbp)
	movq	-24(%rbp), %rax
	movq	-32(%rbp), %rdx
	addq	$32, %rsp
	popq	%rbp
	retq
	.cfi_endproc

	.p2align	4, 0x90
__ZN4core5slice77_$LT$impl$u20$core..ops..index..IndexMut$LT$I$GT$$u20$for$u20$$u5b$T$u5d$$GT$9index_mut17h92fdc420a9f33b75E:
	.cfi_startproc
	pushq	%rbp
	.cfi_def_cfa_offset 16
	.cfi_offset %rbp, -16
	movq	%rsp, %rbp
	.cfi_def_cfa_register %rbp
	subq	$16, %rsp
	callq	__ZN90_$LT$core..ops..range..RangeFull$u20$as$u20$core..slice..SliceIndex$LT$$u5b$T$u5d$$GT$$GT$9index_mut17haf43c9ab0cce5430E
	movq	%rax, -8(%rbp)
	movq	%rdx, -16(%rbp)
	movq	-8(%rbp), %rax
	movq	-16(%rbp), %rdx
	addq	$16, %rsp
	popq	%rbp
	retq
	.cfi_endproc

	.p2align	4, 0x90
__ZN4core5slice77_$LT$impl$u20$core..ops..index..IndexMut$LT$I$GT$$u20$for$u20$$u5b$T$u5d$$GT$9index_mut17hd68e65050d8e30ccE:
	.cfi_startproc
	pushq	%rbp
	.cfi_def_cfa_offset 16
	.cfi_offset %rbp, -16
	movq	%rsp, %rbp
	.cfi_def_cfa_register %rbp
	subq	$32, %rsp
	movq	%rdi, -8(%rbp)
	movq	%rdx, %rdi
	movq	-8(%rbp), %rax
	movq	%rsi, -16(%rbp)
	movq	%rax, %rsi
	movq	-16(%rbp), %rdx
	callq	__ZN101_$LT$core..ops..range..RangeTo$LT$usize$GT$$u20$as$u20$core..slice..SliceIndex$LT$$u5b$T$u5d$$GT$$GT$9index_mut17h3187e7bc303b24acE
	movq	%rax, -24(%rbp)
	movq	%rdx, -32(%rbp)
	movq	-24(%rbp), %rax
	movq	-32(%rbp), %rdx
	addq	$32, %rsp
	popq	%rbp
	retq
	.cfi_endproc

	.p2align	4, 0x90
__ZN4core5slice81_$LT$impl$u20$core..cmp..PartialEq$LT$$u5b$B$u5d$$GT$$u20$for$u20$$u5b$A$u5d$$GT$2eq17h8b54f25488620431E:
	.cfi_startproc
	pushq	%rbp
	.cfi_def_cfa_offset 16
	.cfi_offset %rbp, -16
	movq	%rsp, %rbp
	.cfi_def_cfa_register %rbp
	subq	$16, %rsp
	callq	__ZN68_$LT$$u5b$A$u5d$$u20$as$u20$core..slice..SlicePartialEq$LT$A$GT$$GT$5equal17h6f4d57b8718468e7E
	movb	%al, -1(%rbp)
	movb	-1(%rbp), %al
	andb	$1, %al
	movzbl	%al, %eax
	addq	$16, %rsp
	popq	%rbp
	retq
	.cfi_endproc

	.p2align	4, 0x90
__ZN4core6option15Option$LT$T$GT$14unwrap_or_else17h1339cd7073e0a8c0E:
Lfunc_begin20:
	.cfi_startproc
	.cfi_personality 155, _rust_eh_personality
	.cfi_lsda 16, Lexception20
	pushq	%rbp
	.cfi_def_cfa_offset 16
	.cfi_offset %rbp, -16
	movq	%rsp, %rbp
	.cfi_def_cfa_register %rbp
	subq	$80, %rsp
	movq	%rdi, %rax
	movb	$0, -17(%rbp)
	movb	$1, -17(%rbp)
	movq	8(%rsi), %rcx
	testq	%rcx, %rcx
	setne	%dl
	movzbl	%dl, %r8d
	movl	%r8d, %ecx
	movq	%rsi, -64(%rbp)
	movq	%rdi, -72(%rbp)
	movq	%rax, -80(%rbp)
	je	LBB189_1
	jmp	LBB189_10
LBB189_10:
	jmp	LBB189_3
LBB189_1:
	movb	$0, -17(%rbp)
Ltmp97:
	movq	-72(%rbp), %rdi
	callq	__ZN5alloc11collections5btree16unwrap_unchecked28_$u7b$$u7b$closure$u7d$$u7d$17hc5ba27019c222a13E
Ltmp98:
	jmp	LBB189_4
	ud2
LBB189_3:
	movq	-64(%rbp), %rax
	movq	(%rax), %rcx
	movq	%rcx, -56(%rbp)
	movq	8(%rax), %rcx
	movq	%rcx, -48(%rbp)
	movq	16(%rax), %rcx
	movq	%rcx, -40(%rbp)
	movq	24(%rax), %rcx
	movq	%rcx, -32(%rbp)
	movq	-56(%rbp), %rcx
	movq	-72(%rbp), %rdx
	movq	%rcx, (%rdx)
	movq	-48(%rbp), %rcx
	movq	%rcx, 8(%rdx)
	movq	-40(%rbp), %rcx
	movq	%rcx, 16(%rdx)
	movq	-32(%rbp), %rcx
	movq	%rcx, 24(%rdx)
	jmp	LBB189_8
LBB189_4:
	jmp	LBB189_8
LBB189_5:
	movq	-80(%rbp), %rax
	addq	$80, %rsp
	popq	%rbp
	retq
LBB189_6:
	movq	-16(%rbp), %rdi
	callq	__Unwind_Resume
	ud2
LBB189_7:
	movb	$0, -17(%rbp)
	jmp	LBB189_5
LBB189_8:
	testb	$1, -17(%rbp)
	jne	LBB189_7
	jmp	LBB189_5
LBB189_9:
Ltmp99:
	movq	%rax, -16(%rbp)
	movl	%edx, -8(%rbp)
	jmp	LBB189_6
Lfunc_end20:
	.cfi_endproc
	.section	__TEXT,__gcc_except_tab
	.p2align	2
GCC_except_table189:
Lexception20:
	.byte	255
	.byte	255
	.byte	1
	.uleb128 Lcst_end20-Lcst_begin20
Lcst_begin20:
	.uleb128 Ltmp97-Lfunc_begin20
	.uleb128 Ltmp98-Ltmp97
	.uleb128 Ltmp99-Lfunc_begin20
	.byte	0
	.uleb128 Ltmp98-Lfunc_begin20
	.uleb128 Lfunc_end20-Ltmp98
	.byte	0
	.byte	0
Lcst_end20:
	.p2align	2

	.section	__TEXT,__text,regular,pure_instructions
	.p2align	4, 0x90
__ZN4core6option15Option$LT$T$GT$14unwrap_or_else17he966cbf43705749bE:
Lfunc_begin21:
	.cfi_startproc
	.cfi_personality 155, _rust_eh_personality
	.cfi_lsda 16, Lexception21
	pushq	%rbp
	.cfi_def_cfa_offset 16
	.cfi_offset %rbp, -16
	movq	%rsp, %rbp
	.cfi_def_cfa_register %rbp
	subq	$80, %rsp
	movq	%rdi, %rax
	movb	$0, -17(%rbp)
	movb	$1, -17(%rbp)
	movq	8(%rsi), %rcx
	testq	%rcx, %rcx
	setne	%dl
	movzbl	%dl, %r8d
	movl	%r8d, %ecx
	movq	%rsi, -64(%rbp)
	movq	%rdi, -72(%rbp)
	movq	%rax, -80(%rbp)
	je	LBB190_1
	jmp	LBB190_10
LBB190_10:
	jmp	LBB190_3
LBB190_1:
	movb	$0, -17(%rbp)
Ltmp100:
	movq	-72(%rbp), %rdi
	callq	__ZN5alloc11collections5btree16unwrap_unchecked28_$u7b$$u7b$closure$u7d$$u7d$17h593694c78a4dd714E
Ltmp101:
	jmp	LBB190_4
	ud2
LBB190_3:
	movq	-64(%rbp), %rax
	movq	(%rax), %rcx
	movq	%rcx, -56(%rbp)
	movq	8(%rax), %rcx
	movq	%rcx, -48(%rbp)
	movq	16(%rax), %rcx
	movq	%rcx, -40(%rbp)
	movq	24(%rax), %rcx
	movq	%rcx, -32(%rbp)
	movq	-56(%rbp), %rcx
	movq	-72(%rbp), %rdx
	movq	%rcx, (%rdx)
	movq	-48(%rbp), %rcx
	movq	%rcx, 8(%rdx)
	movq	-40(%rbp), %rcx
	movq	%rcx, 16(%rdx)
	movq	-32(%rbp), %rcx
	movq	%rcx, 24(%rdx)
	jmp	LBB190_8
LBB190_4:
	jmp	LBB190_8
LBB190_5:
	movq	-80(%rbp), %rax
	addq	$80, %rsp
	popq	%rbp
	retq
LBB190_6:
	movq	-16(%rbp), %rdi
	callq	__Unwind_Resume
	ud2
LBB190_7:
	movb	$0, -17(%rbp)
	jmp	LBB190_5
LBB190_8:
	testb	$1, -17(%rbp)
	jne	LBB190_7
	jmp	LBB190_5
LBB190_9:
Ltmp102:
	movq	%rax, -16(%rbp)
	movl	%edx, -8(%rbp)
	jmp	LBB190_6
Lfunc_end21:
	.cfi_endproc
	.section	__TEXT,__gcc_except_tab
	.p2align	2
GCC_except_table190:
Lexception21:
	.byte	255
	.byte	255
	.byte	1
	.uleb128 Lcst_end21-Lcst_begin21
Lcst_begin21:
	.uleb128 Ltmp100-Lfunc_begin21
	.uleb128 Ltmp101-Ltmp100
	.uleb128 Ltmp102-Lfunc_begin21
	.byte	0
	.uleb128 Ltmp101-Lfunc_begin21
	.uleb128 Lfunc_end21-Ltmp101
	.byte	0
	.byte	0
Lcst_end21:
	.p2align	2

	.section	__TEXT,__text,regular,pure_instructions
	.p2align	4, 0x90
__ZN4core6option15Option$LT$T$GT$4take17h855872c5f03e6a14E:
	.cfi_startproc
	pushq	%rbp
	.cfi_def_cfa_offset 16
	.cfi_offset %rbp, -16
	movq	%rsp, %rbp
	.cfi_def_cfa_register %rbp
	subq	$16, %rsp
	callq	__ZN4core3mem4take17h0ec2ba396e8bc144E
	movq	%rax, -8(%rbp)
	movq	%rdx, -16(%rbp)
	movq	-8(%rbp), %rax
	movq	-16(%rbp), %rdx
	addq	$16, %rsp
	popq	%rbp
	retq
	.cfi_endproc

	.p2align	4, 0x90
__ZN4core6option15Option$LT$T$GT$5ok_or17h1b9678e193d26389E:
	.cfi_startproc
	pushq	%rbp
	.cfi_def_cfa_offset 16
	.cfi_offset %rbp, -16
	movq	%rsp, %rbp
	.cfi_def_cfa_register %rbp
	subq	$56, %rsp
	movq	%rdi, -56(%rbp)
	movq	%rsi, -48(%rbp)
	movb	$0, -17(%rbp)
	movb	$1, -17(%rbp)
	movq	-56(%rbp), %rax
	testq	%rax, %rax
	setne	%cl
	movzbl	%cl, %edx
	movl	%edx, %eax
	je	LBB192_1
	jmp	LBB192_7
LBB192_7:
	jmp	LBB192_3
LBB192_1:
	movb	$0, -17(%rbp)
	movq	$0, -40(%rbp)
	jmp	LBB192_4
	ud2
LBB192_3:
	movq	-56(%rbp), %rax
	movq	-48(%rbp), %rcx
	movq	%rax, -40(%rbp)
	movq	%rcx, -32(%rbp)
LBB192_4:
	testb	$1, -17(%rbp)
	jne	LBB192_6
LBB192_5:
	movq	-40(%rbp), %rax
	movq	-32(%rbp), %rdx
	addq	$56, %rsp
	popq	%rbp
	retq
LBB192_6:
	movb	$0, -17(%rbp)
	jmp	LBB192_5
	.cfi_endproc

	.p2align	4, 0x90
__ZN4core6option15Option$LT$T$GT$5ok_or17ha8993a91856e1ea9E:
	.cfi_startproc
	pushq	%rbp
	.cfi_def_cfa_offset 16
	.cfi_offset %rbp, -16
	movq	%rsp, %rbp
	.cfi_def_cfa_register %rbp
	subq	$192, %rsp
	movq	%rdi, %rax
	movb	$0, -17(%rbp)
	movb	$1, -17(%rbp)
	movq	(%rsi), %rcx
	testq	%rcx, %rcx
	setne	%dl
	movzbl	%dl, %r8d
	movl	%r8d, %ecx
	movq	%rsi, -144(%rbp)
	movq	%rdi, -152(%rbp)
	movq	%rax, -160(%rbp)
	je	LBB193_1
	jmp	LBB193_7
LBB193_7:
	jmp	LBB193_3
LBB193_1:
	movb	$0, -17(%rbp)
	movq	-152(%rbp), %rax
	movq	$0, (%rax)
	jmp	LBB193_4
	ud2
LBB193_3:
	movq	-144(%rbp), %rax
	leaq	-136(%rbp), %rcx
	movq	%rcx, %rdx
	movq	%rdx, %rdi
	movq	%rax, %rsi
	movl	$56, %eax
	movq	%rax, %rdx
	movq	%rcx, -168(%rbp)
	movq	%rax, -176(%rbp)
	callq	_memcpy
	leaq	-80(%rbp), %rax
	movq	%rax, %rcx
	movq	-168(%rbp), %rdx
	movq	%rcx, %rdi
	movq	%rdx, %rsi
	movq	-176(%rbp), %rdx
	movq	%rax, -184(%rbp)
	callq	_memcpy
	movq	-152(%rbp), %rax
	movq	-184(%rbp), %rcx
	movq	%rax, %rdi
	movq	%rcx, %rsi
	movq	-176(%rbp), %rdx
	callq	_memcpy
LBB193_4:
	testb	$1, -17(%rbp)
	jne	LBB193_6
LBB193_5:
	movq	-160(%rbp), %rax
	addq	$192, %rsp
	popq	%rbp
	retq
LBB193_6:
	movb	$0, -17(%rbp)
	jmp	LBB193_5
	.cfi_endproc

	.p2align	4, 0x90
__ZN4core6option15Option$LT$T$GT$5ok_or17hab72d80b1b5f5806E:
	.cfi_startproc
	pushq	%rbp
	.cfi_def_cfa_offset 16
	.cfi_offset %rbp, -16
	movq	%rsp, %rbp
	.cfi_def_cfa_register %rbp
	subq	$56, %rsp
	movq	%rdi, -56(%rbp)
	movq	%rsi, -48(%rbp)
	movb	$0, -17(%rbp)
	movb	$1, -17(%rbp)
	movq	-56(%rbp), %rax
	testq	%rax, %rax
	setne	%cl
	movzbl	%cl, %edx
	movl	%edx, %eax
	je	LBB194_1
	jmp	LBB194_7
LBB194_7:
	jmp	LBB194_3
LBB194_1:
	movb	$0, -17(%rbp)
	movq	$0, -40(%rbp)
	jmp	LBB194_4
	ud2
LBB194_3:
	movq	-56(%rbp), %rax
	movq	-48(%rbp), %rcx
	movq	%rax, -40(%rbp)
	movq	%rcx, -32(%rbp)
LBB194_4:
	testb	$1, -17(%rbp)
	jne	LBB194_6
LBB194_5:
	movq	-40(%rbp), %rax
	movq	-32(%rbp), %rdx
	addq	$56, %rsp
	popq	%rbp
	retq
LBB194_6:
	movb	$0, -17(%rbp)
	jmp	LBB194_5
	.cfi_endproc

	.p2align	4, 0x90
__ZN4core6option15Option$LT$T$GT$5ok_or17hfabc0767a861f134E:
	.cfi_startproc
	pushq	%rbp
	.cfi_def_cfa_offset 16
	.cfi_offset %rbp, -16
	movq	%rsp, %rbp
	.cfi_def_cfa_register %rbp
	subq	$96, %rsp
	movq	%rdi, %rax
	movb	$0, -17(%rbp)
	movb	$1, -17(%rbp)
	movq	(%rsi), %rcx
	testq	%rcx, %rcx
	setne	%dl
	movzbl	%dl, %r8d
	movl	%r8d, %ecx
	movq	%rsi, -80(%rbp)
	movq	%rdi, -88(%rbp)
	movq	%rax, -96(%rbp)
	je	LBB195_1
	jmp	LBB195_7
LBB195_7:
	jmp	LBB195_3
LBB195_1:
	movb	$0, -17(%rbp)
	movq	-88(%rbp), %rax
	movq	$0, (%rax)
	jmp	LBB195_4
	ud2
LBB195_3:
	movq	-80(%rbp), %rax
	movq	(%rax), %rcx
	movq	%rcx, -72(%rbp)
	movq	8(%rax), %rcx
	movq	%rcx, -64(%rbp)
	movq	16(%rax), %rcx
	movq	%rcx, -56(%rbp)
	movq	-72(%rbp), %rcx
	movq	%rcx, -48(%rbp)
	movq	-64(%rbp), %rcx
	movq	%rcx, -40(%rbp)
	movq	-56(%rbp), %rcx
	movq	%rcx, -32(%rbp)
	movq	-48(%rbp), %rcx
	movq	-88(%rbp), %rdx
	movq	%rcx, (%rdx)
	movq	-40(%rbp), %rcx
	movq	%rcx, 8(%rdx)
	movq	-32(%rbp), %rcx
	movq	%rcx, 16(%rdx)
LBB195_4:
	testb	$1, -17(%rbp)
	jne	LBB195_6
LBB195_5:
	movq	-96(%rbp), %rax
	addq	$96, %rsp
	popq	%rbp
	retq
LBB195_6:
	movb	$0, -17(%rbp)
	jmp	LBB195_5
	.cfi_endproc

	.p2align	4, 0x90
__ZN4core6option15Option$LT$T$GT$6as_mut17h3933df8463b60765E:
	.cfi_startproc
	pushq	%rbp
	.cfi_def_cfa_offset 16
	.cfi_offset %rbp, -16
	movq	%rsp, %rbp
	.cfi_def_cfa_register %rbp
	subq	$16, %rsp
	movq	8(%rdi), %rax
	testq	%rax, %rax
	setne	%cl
	movzbl	%cl, %edx
	movl	%edx, %eax
	movq	%rdi, -16(%rbp)
	je	LBB196_1
	jmp	LBB196_5
LBB196_5:
	jmp	LBB196_3
LBB196_1:
	movq	$0, -8(%rbp)
	jmp	LBB196_4
	ud2
LBB196_3:
	movq	-16(%rbp), %rax
	movq	%rax, -8(%rbp)
LBB196_4:
	movq	-8(%rbp), %rax
	addq	$16, %rsp
	popq	%rbp
	retq
	.cfi_endproc

	.p2align	4, 0x90
__ZN4core6option15Option$LT$T$GT$6unwrap17ha289c341b067e243E:
Lfunc_begin22:
	.cfi_startproc
	.cfi_personality 155, _rust_eh_personality
	.cfi_lsda 16, Lexception22
	pushq	%rbp
	.cfi_def_cfa_offset 16
	.cfi_offset %rbp, -16
	movq	%rsp, %rbp
	.cfi_def_cfa_register %rbp
	subq	$32, %rsp
	movq	%rdi, -24(%rbp)
	movq	-24(%rbp), %rax
	testq	%rax, %rax
	setne	%cl
	movzbl	%cl, %edx
	movl	%edx, %eax
	movq	%rsi, -32(%rbp)
	je	LBB197_1
	jmp	LBB197_7
LBB197_7:
	jmp	LBB197_3
LBB197_1:
Ltmp103:
	leaq	l___unnamed_7(%rip), %rdi
	movl	$43, %esi
	movq	-32(%rbp), %rdx
	callq	__ZN4core9panicking5panic17h383a6b80ea7021aaE
Ltmp104:
	jmp	LBB197_5
	ud2
LBB197_3:
	movq	-24(%rbp), %rax
	addq	$32, %rsp
	popq	%rbp
	retq
LBB197_4:
	movq	-16(%rbp), %rdi
	callq	__Unwind_Resume
	ud2
LBB197_5:
	ud2
LBB197_6:
Ltmp105:
	movq	%rax, -16(%rbp)
	movl	%edx, -8(%rbp)
	jmp	LBB197_4
Lfunc_end22:
	.cfi_endproc
	.section	__TEXT,__gcc_except_tab
	.p2align	2
GCC_except_table197:
Lexception22:
	.byte	255
	.byte	255
	.byte	1
	.uleb128 Lcst_end22-Lcst_begin22
Lcst_begin22:
	.uleb128 Ltmp103-Lfunc_begin22
	.uleb128 Ltmp104-Ltmp103
	.uleb128 Ltmp105-Lfunc_begin22
	.byte	0
	.uleb128 Ltmp104-Lfunc_begin22
	.uleb128 Lfunc_end22-Ltmp104
	.byte	0
	.byte	0
Lcst_end22:
	.p2align	2

	.section	__TEXT,__text,regular,pure_instructions
	.p2align	4, 0x90
__ZN4core6result19Result$LT$T$C$E$GT$2ok17h146fcabf153bafd5E:
	.cfi_startproc
	pushq	%rbp
	.cfi_def_cfa_offset 16
	.cfi_offset %rbp, -16
	movq	%rsp, %rbp
	.cfi_def_cfa_register %rbp
	subq	$88, %rsp
	movq	%rdi, %rax
	movq	(%rsi), %rcx
	testq	%rcx, %rcx
	movq	%rsi, -72(%rbp)
	movq	%rdi, -80(%rbp)
	movq	%rax, -88(%rbp)
	je	LBB198_3
	jmp	LBB198_7
LBB198_7:
	movq	-80(%rbp), %rax
	movq	$0, 8(%rax)
	jmp	LBB198_6
	ud2
LBB198_3:
	movq	-72(%rbp), %rax
	movq	8(%rax), %rcx
	movq	%rcx, -64(%rbp)
	movq	16(%rax), %rcx
	movq	%rcx, -56(%rbp)
	movq	24(%rax), %rcx
	movq	%rcx, -48(%rbp)
	movq	32(%rax), %rcx
	movq	%rcx, -40(%rbp)
	movq	-64(%rbp), %rcx
	movq	%rcx, -32(%rbp)
	movq	-56(%rbp), %rcx
	movq	%rcx, -24(%rbp)
	movq	-48(%rbp), %rcx
	movq	%rcx, -16(%rbp)
	movq	-40(%rbp), %rcx
	movq	%rcx, -8(%rbp)
	movq	-32(%rbp), %rcx
	movq	-80(%rbp), %rdx
	movq	%rcx, (%rdx)
	movq	-24(%rbp), %rcx
	movq	%rcx, 8(%rdx)
	movq	-16(%rbp), %rcx
	movq	%rcx, 16(%rdx)
	movq	-8(%rbp), %rcx
	movq	%rcx, 24(%rdx)
	jmp	LBB198_6
LBB198_4:
	movq	-88(%rbp), %rax
	addq	$88, %rsp
	popq	%rbp
	retq
LBB198_5:
	jmp	LBB198_4
LBB198_6:
	movq	-72(%rbp), %rax
	cmpq	$0, (%rax)
	je	LBB198_4
	jmp	LBB198_5
	.cfi_endproc

	.p2align	4, 0x90
__ZN4core6result19Result$LT$T$C$E$GT$2ok17haa7c6d7f5f345280E:
	.cfi_startproc
	pushq	%rbp
	.cfi_def_cfa_offset 16
	.cfi_offset %rbp, -16
	movq	%rsp, %rbp
	.cfi_def_cfa_register %rbp
	subq	$24, %rsp
	movq	%rdi, -16(%rbp)
	movq	-16(%rbp), %rax
	movq	%rax, -24(%rbp)
	movzbl	-24(%rbp), %ecx
	movl	%ecx, %eax
	testb	$1, %al
	je	LBB199_3
	jmp	LBB199_7
LBB199_7:
	movl	$0, -8(%rbp)
	jmp	LBB199_6
	ud2
LBB199_3:
	movl	-20(%rbp), %eax
	movl	%eax, -4(%rbp)
	movl	$1, -8(%rbp)
	jmp	LBB199_6
LBB199_4:
	movl	-8(%rbp), %eax
	movl	-4(%rbp), %edx
	addq	$24, %rsp
	popq	%rbp
	retq
LBB199_5:
	jmp	LBB199_4
LBB199_6:
	movb	-24(%rbp), %al
	andb	$1, %al
	movzbl	%al, %ecx
	movl	%ecx, %edx
	cmpq	$0, %rdx
	je	LBB199_4
	jmp	LBB199_5
	.cfi_endproc

	.p2align	4, 0x90
__ZN4core6result19Result$LT$T$C$E$GT$2ok17hafe9a2c230ad62ddE:
	.cfi_startproc
	pushq	%rbp
	.cfi_def_cfa_offset 16
	.cfi_offset %rbp, -16
	movq	%rsp, %rbp
	.cfi_def_cfa_register %rbp
	subq	$24, %rsp
	movq	(%rdi), %rax
	testq	%rax, %rax
	movq	%rdi, -24(%rbp)
	je	LBB200_3
	jmp	LBB200_7
LBB200_7:
	movq	$0, -16(%rbp)
	jmp	LBB200_6
	ud2
LBB200_3:
	movq	-24(%rbp), %rax
	movq	8(%rax), %rcx
	movq	16(%rax), %rdx
	movq	%rcx, -16(%rbp)
	movq	%rdx, -8(%rbp)
	jmp	LBB200_6
LBB200_4:
	movq	-16(%rbp), %rax
	movq	-8(%rbp), %rdx
	addq	$24, %rsp
	popq	%rbp
	retq
LBB200_5:
	jmp	LBB200_4
LBB200_6:
	movq	-24(%rbp), %rax
	cmpq	$0, (%rax)
	je	LBB200_4
	jmp	LBB200_5
	.cfi_endproc

	.p2align	4, 0x90
__ZN4core6result19Result$LT$T$C$E$GT$2ok17hcdf431322d047ad6E:
	.cfi_startproc
	pushq	%rbp
	.cfi_def_cfa_offset 16
	.cfi_offset %rbp, -16
	movq	%rsp, %rbp
	.cfi_def_cfa_register %rbp
	subq	$160, %rsp
	movq	%rdi, %rax
	movq	(%rsi), %rcx
	testq	%rcx, %rcx
	movq	%rsi, -120(%rbp)
	movq	%rdi, -128(%rbp)
	movq	%rax, -136(%rbp)
	je	LBB201_3
	jmp	LBB201_7
LBB201_7:
	movq	-128(%rbp), %rax
	movq	$0, (%rax)
	jmp	LBB201_6
	ud2
LBB201_3:
	movq	-120(%rbp), %rax
	addq	$8, %rax
	leaq	-112(%rbp), %rcx
	movq	%rcx, %rdx
	movq	%rdx, %rdi
	movq	%rax, %rsi
	movl	$56, %eax
	movq	%rax, %rdx
	movq	%rcx, -144(%rbp)
	movq	%rax, -152(%rbp)
	callq	_memcpy
	leaq	-56(%rbp), %rax
	movq	%rax, %rcx
	movq	-144(%rbp), %rdx
	movq	%rcx, %rdi
	movq	%rdx, %rsi
	movq	-152(%rbp), %rdx
	movq	%rax, -160(%rbp)
	callq	_memcpy
	movq	-128(%rbp), %rax
	movq	-160(%rbp), %rcx
	movq	%rax, %rdi
	movq	%rcx, %rsi
	movq	-152(%rbp), %rdx
	callq	_memcpy
	jmp	LBB201_6
LBB201_4:
	movq	-136(%rbp), %rax
	addq	$160, %rsp
	popq	%rbp
	retq
LBB201_5:
	movq	-120(%rbp), %rdi
	callq	__ZN4core3ptr13drop_in_place17hbb4c3db667013b71E
	jmp	LBB201_4
LBB201_6:
	movq	-120(%rbp), %rax
	cmpq	$0, (%rax)
	je	LBB201_4
	jmp	LBB201_5
	.cfi_endproc

	.p2align	4, 0x90
__ZN4core7convert3num66_$LT$impl$u20$core..convert..From$LT$u16$GT$$u20$for$u20$usize$GT$4from17hcfa73b4b080dcb27E:
	.cfi_startproc
	pushq	%rbp
	.cfi_def_cfa_offset 16
	.cfi_offset %rbp, -16
	movq	%rsp, %rbp
	.cfi_def_cfa_register %rbp
	movzwl	%di, %eax
	popq	%rbp
	retq
	.cfi_endproc

	.p2align	4, 0x90
__ZN50_$LT$T$u20$as$u20$core..convert..From$LT$T$GT$$GT$4from17hbe74160cd9e9f9a2E:
	.cfi_startproc
	pushq	%rbp
	.cfi_def_cfa_offset 16
	.cfi_offset %rbp, -16
	movq	%rsp, %rbp
	.cfi_def_cfa_register %rbp
	popq	%rbp
	retq
	.cfi_endproc

	.p2align	4, 0x90
__ZN50_$LT$T$u20$as$u20$core..convert..Into$LT$U$GT$$GT$4into17hd06244cc868c6cd1E:
	.cfi_startproc
	pushq	%rbp
	.cfi_def_cfa_offset 16
	.cfi_offset %rbp, -16
	movq	%rsp, %rbp
	.cfi_def_cfa_register %rbp
	subq	$16, %rsp
	callq	__ZN119_$LT$core..ptr..non_null..NonNull$LT$T$GT$$u20$as$u20$core..convert..From$LT$core..ptr..unique..Unique$LT$T$GT$$GT$$GT$4from17h3ed427e195143254E
	movq	%rax, -8(%rbp)
	movq	-8(%rbp), %rax
	addq	$16, %rsp
	popq	%rbp
	retq
	.cfi_endproc

	.p2align	4, 0x90
__ZN52_$LT$char$u20$as$u20$core..str..pattern..Pattern$GT$13into_searcher17hd2ce027ee10bc3a9E:
	.cfi_startproc
	pushq	%rbp
	.cfi_def_cfa_offset 16
	.cfi_offset %rbp, -16
	movq	%rsp, %rbp
	.cfi_def_cfa_register %rbp
	subq	$96, %rsp
	movq	%rdi, %rax
	leaq	-8(%rbp), %r8
	xorl	%r9d, %r9d
	movq	%rdi, -16(%rbp)
	movq	%r8, %rdi
	movl	%esi, -20(%rbp)
	movl	%r9d, %esi
	movl	$4, %r10d
	movq	%rdx, -32(%rbp)
	movq	%r10, %rdx
	movq	%rcx, -40(%rbp)
	movq	%rax, -48(%rbp)
	movq	%r8, -56(%rbp)
	movq	%r10, -64(%rbp)
	callq	_memset
	movq	-56(%rbp), %rax
	movl	-20(%rbp), %edi
	movq	%rax, %rsi
	movq	-64(%rbp), %rdx
	callq	__ZN4core4char7methods22_$LT$impl$u20$char$GT$11encode_utf817hb229808474ea8a21E
	movq	%rax, -72(%rbp)
	movq	%rdx, -80(%rbp)
	movq	-72(%rbp), %rdi
	movq	-80(%rbp), %rsi
	callq	__ZN4core3str21_$LT$impl$u20$str$GT$3len17h8d5e97e8009b2a74E
	movq	%rax, -88(%rbp)
	movq	-32(%rbp), %rdi
	movq	-40(%rbp), %rsi
	callq	__ZN4core3str21_$LT$impl$u20$str$GT$3len17h8d5e97e8009b2a74E
	movq	%rax, -96(%rbp)
	movl	-8(%rbp), %eax
	movl	%eax, -4(%rbp)
	movq	-16(%rbp), %rcx
	movq	-32(%rbp), %rdx
	movq	%rdx, (%rcx)
	movq	-40(%rbp), %rsi
	movq	%rsi, 8(%rcx)
	movq	$0, 16(%rcx)
	movq	-96(%rbp), %rdi
	movq	%rdi, 24(%rcx)
	movl	-20(%rbp), %eax
	movl	%eax, 40(%rcx)
	movq	-88(%rbp), %r8
	movq	%r8, 32(%rcx)
	movl	-4(%rbp), %r9d
	movl	%r9d, 44(%rcx)
	movq	-48(%rbp), %r10
	movq	%r10, %rax
	addq	$96, %rsp
	popq	%rbp
	retq
	.cfi_endproc

	.p2align	4, 0x90
__ZN54_$LT$$LP$$RP$$u20$as$u20$std..process..Termination$GT$6report17hbfe65bb059d83aaeE:
	.cfi_startproc
	pushq	%rbp
	.cfi_def_cfa_offset 16
	.cfi_offset %rbp, -16
	movq	%rsp, %rbp
	.cfi_def_cfa_register %rbp
	subq	$16, %rsp
	xorl	%edi, %edi
	callq	__ZN68_$LT$std..process..ExitCode$u20$as$u20$std..process..Termination$GT$6report17h78f0590f95ad9e97E
	movl	%eax, -4(%rbp)
	movl	-4(%rbp), %eax
	addq	$16, %rsp
	popq	%rbp
	retq
	.cfi_endproc

	.p2align	4, 0x90
__ZN55_$LT$$RF$T$u20$as$u20$core..convert..AsRef$LT$U$GT$$GT$6as_ref17h778cd89cb9ca9480E:
	.cfi_startproc
	pushq	%rbp
	.cfi_def_cfa_offset 16
	.cfi_offset %rbp, -16
	movq	%rsp, %rbp
	.cfi_def_cfa_register %rbp
	subq	$16, %rsp
	movq	(%rdi), %rax
	movq	8(%rdi), %rsi
	movq	%rax, %rdi
	callq	__ZN3std3ffi6os_str85_$LT$impl$u20$core..convert..AsRef$LT$std..ffi..os_str..OsStr$GT$$u20$for$u20$str$GT$6as_ref17hfa5ee79d2fb2c89fE
	movq	%rax, -8(%rbp)
	movq	%rdx, -16(%rbp)
	movq	-8(%rbp), %rax
	movq	-16(%rbp), %rdx
	addq	$16, %rsp
	popq	%rbp
	retq
	.cfi_endproc

	.p2align	4, 0x90
__ZN5alloc11collections5btree16unwrap_unchecked28_$u7b$$u7b$closure$u7d$$u7d$17h593694c78a4dd714E:
	.cfi_startproc
	pushq	%rbp
	.cfi_def_cfa_offset 16
	.cfi_offset %rbp, -16
	movq	%rsp, %rbp
	.cfi_def_cfa_register %rbp
	ud2
	.cfi_endproc

	.p2align	4, 0x90
__ZN5alloc11collections5btree16unwrap_unchecked28_$u7b$$u7b$closure$u7d$$u7d$17hc5ba27019c222a13E:
	.cfi_startproc
	pushq	%rbp
	.cfi_def_cfa_offset 16
	.cfi_offset %rbp, -16
	movq	%rsp, %rbp
	.cfi_def_cfa_register %rbp
	ud2
	.cfi_endproc

	.p2align	4, 0x90
__ZN5alloc11collections5btree3map17full_range_search17h91cb6f641fc5159bE:
	.cfi_startproc
	pushq	%rbp
	.cfi_def_cfa_offset 16
	.cfi_offset %rbp, -16
	movq	%rsp, %rbp
	.cfi_def_cfa_register %rbp
	subq	$832, %rsp
	movq	%rdi, %rax
	leaq	-760(%rbp), %rcx
	movq	%rdi, -768(%rbp)
	movq	%rcx, %rdi
	movq	%rsi, -776(%rbp)
	movq	%rax, -784(%rbp)
	callq	__ZN4core3ptr4read17h9cfbff00273612fbE
	movq	-776(%rbp), %rax
	movq	(%rax), %rcx
	movq	%rcx, -736(%rbp)
	movq	8(%rax), %rcx
	movq	%rcx, -728(%rbp)
	movq	16(%rax), %rcx
	movq	%rcx, -720(%rbp)
LBB210_2:
	movq	-760(%rbp), %rax
	movq	%rax, -680(%rbp)
	movq	-752(%rbp), %rax
	movq	%rax, -672(%rbp)
	movq	-744(%rbp), %rax
	movq	%rax, -664(%rbp)
	leaq	-712(%rbp), %rdi
	leaq	-680(%rbp), %rsi
	callq	__ZN5alloc11collections5btree4node40NodeRef$LT$BorrowType$C$K$C$V$C$Type$GT$10first_edge17h1dec97e040965469E
	movq	-736(%rbp), %rax
	movq	%rax, -624(%rbp)
	movq	-728(%rbp), %rax
	movq	%rax, -616(%rbp)
	movq	-720(%rbp), %rax
	movq	%rax, -608(%rbp)
	leaq	-656(%rbp), %rdi
	leaq	-624(%rbp), %rsi
	callq	__ZN5alloc11collections5btree4node40NodeRef$LT$BorrowType$C$K$C$V$C$Type$GT$9last_edge17hce8823307f173106E
	movq	-712(%rbp), %rax
	movq	%rax, -480(%rbp)
	movq	-704(%rbp), %rax
	movq	%rax, -472(%rbp)
	movq	-696(%rbp), %rax
	movq	%rax, -464(%rbp)
	movq	-688(%rbp), %rax
	movq	%rax, -456(%rbp)
	leaq	-520(%rbp), %rdi
	leaq	-480(%rbp), %rsi
	callq	__ZN5alloc11collections5btree4node151Handle$LT$alloc..collections..btree..node..NodeRef$LT$BorrowType$C$K$C$V$C$alloc..collections..btree..node..marker..LeafOrInternal$GT$$C$HandleType$GT$5force17hb18bb4f41b600e71E
	movq	-656(%rbp), %rax
	movq	%rax, -408(%rbp)
	movq	-648(%rbp), %rax
	movq	%rax, -400(%rbp)
	movq	-640(%rbp), %rax
	movq	%rax, -392(%rbp)
	movq	-632(%rbp), %rax
	movq	%rax, -384(%rbp)
	leaq	-448(%rbp), %rdi
	leaq	-408(%rbp), %rsi
	callq	__ZN5alloc11collections5btree4node151Handle$LT$alloc..collections..btree..node..NodeRef$LT$BorrowType$C$K$C$V$C$alloc..collections..btree..node..marker..LeafOrInternal$GT$$C$HandleType$GT$5force17hb18bb4f41b600e71E
	movq	-488(%rbp), %rax
	movq	%rax, -568(%rbp)
	movq	-496(%rbp), %rax
	movq	%rax, -576(%rbp)
	movq	-504(%rbp), %rax
	movq	%rax, -584(%rbp)
	movq	-520(%rbp), %rax
	movq	-512(%rbp), %rcx
	movq	%rcx, -592(%rbp)
	movq	%rax, -600(%rbp)
	movq	-416(%rbp), %rax
	movq	%rax, -528(%rbp)
	movq	-424(%rbp), %rax
	movq	%rax, -536(%rbp)
	movq	-432(%rbp), %rax
	movq	%rax, -544(%rbp)
	movq	-448(%rbp), %rax
	movq	-440(%rbp), %rcx
	movq	%rcx, -552(%rbp)
	movq	%rax, -560(%rbp)
	movq	-600(%rbp), %rax
	testq	%rax, %rax
	movq	%rax, -792(%rbp)
	je	LBB210_7
	jmp	LBB210_16
LBB210_16:
	movq	-792(%rbp), %rax
	subq	$1, %rax
	je	LBB210_9
	jmp	LBB210_8
LBB210_7:
	cmpq	$0, -560(%rbp)
	je	LBB210_10
LBB210_8:
	movq	l___unnamed_8(%rip), %rax
	movq	l___unnamed_9(%rip), %rcx
	movq	%rcx, -8(%rbp)
	movq	-8(%rbp), %rdi
	leaq	__ZN44_$LT$$RF$T$u20$as$u20$core..fmt..Display$GT$3fmt17h5dc3bcc2ad7242a6E(%rip), %rsi
	movq	%rax, -800(%rbp)
	callq	__ZN4core3fmt10ArgumentV13new17h0c4d71660171006aE
	movq	%rax, -808(%rbp)
	movq	%rdx, -816(%rbp)
	jmp	LBB210_14
LBB210_9:
	cmpq	$1, -560(%rbp)
	je	LBB210_11
	jmp	LBB210_8
LBB210_10:
	movq	-592(%rbp), %rax
	movq	%rax, -376(%rbp)
	movq	-584(%rbp), %rax
	movq	%rax, -368(%rbp)
	movq	-576(%rbp), %rax
	movq	%rax, -360(%rbp)
	movq	-568(%rbp), %rax
	movq	%rax, -352(%rbp)
	movq	-552(%rbp), %rax
	movq	%rax, -344(%rbp)
	movq	-544(%rbp), %rax
	movq	%rax, -336(%rbp)
	movq	-536(%rbp), %rax
	movq	%rax, -328(%rbp)
	movq	-528(%rbp), %rax
	movq	%rax, -320(%rbp)
	movq	-376(%rbp), %rax
	movq	%rax, -312(%rbp)
	movq	-368(%rbp), %rax
	movq	%rax, -304(%rbp)
	movq	-360(%rbp), %rax
	movq	%rax, -296(%rbp)
	movq	-352(%rbp), %rax
	movq	%rax, -288(%rbp)
	movq	-344(%rbp), %rax
	movq	%rax, -280(%rbp)
	movq	-336(%rbp), %rax
	movq	%rax, -272(%rbp)
	movq	-328(%rbp), %rax
	movq	%rax, -264(%rbp)
	movq	-320(%rbp), %rax
	movq	%rax, -256(%rbp)
	movq	-312(%rbp), %rax
	movq	-768(%rbp), %rcx
	movq	%rax, (%rcx)
	movq	-304(%rbp), %rax
	movq	%rax, 8(%rcx)
	movq	-296(%rbp), %rax
	movq	%rax, 16(%rcx)
	movq	-288(%rbp), %rax
	movq	%rax, 24(%rcx)
	movq	-280(%rbp), %rax
	movq	%rax, 32(%rcx)
	movq	-272(%rbp), %rax
	movq	%rax, 40(%rcx)
	movq	-264(%rbp), %rax
	movq	%rax, 48(%rcx)
	movq	-256(%rbp), %rax
	movq	%rax, 56(%rcx)
	movq	-784(%rbp), %rax
	addq	$832, %rsp
	popq	%rbp
	retq
LBB210_11:
	movq	-592(%rbp), %rax
	movq	%rax, -248(%rbp)
	movq	-584(%rbp), %rax
	movq	%rax, -240(%rbp)
	movq	-576(%rbp), %rax
	movq	%rax, -232(%rbp)
	movq	-568(%rbp), %rax
	movq	%rax, -224(%rbp)
	movq	-552(%rbp), %rax
	movq	%rax, -216(%rbp)
	movq	-544(%rbp), %rax
	movq	%rax, -208(%rbp)
	movq	-536(%rbp), %rax
	movq	%rax, -200(%rbp)
	movq	-528(%rbp), %rax
	movq	%rax, -192(%rbp)
	movq	-248(%rbp), %rax
	movq	%rax, -160(%rbp)
	movq	-240(%rbp), %rax
	movq	%rax, -152(%rbp)
	movq	-232(%rbp), %rax
	movq	%rax, -144(%rbp)
	movq	-224(%rbp), %rax
	movq	%rax, -136(%rbp)
	leaq	-184(%rbp), %rdi
	leaq	-160(%rbp), %rsi
	callq	__ZN5alloc11collections5btree4node180Handle$LT$alloc..collections..btree..node..NodeRef$LT$BorrowType$C$K$C$V$C$alloc..collections..btree..node..marker..Internal$GT$$C$alloc..collections..btree..node..marker..Edge$GT$7descend17hd1e1291c8e709e36E
	movq	-184(%rbp), %rax
	movq	%rax, -760(%rbp)
	movq	-176(%rbp), %rax
	movq	%rax, -752(%rbp)
	movq	-168(%rbp), %rax
	movq	%rax, -744(%rbp)
	movq	-216(%rbp), %rax
	movq	%rax, -104(%rbp)
	movq	-208(%rbp), %rax
	movq	%rax, -96(%rbp)
	movq	-200(%rbp), %rax
	movq	%rax, -88(%rbp)
	movq	-192(%rbp), %rax
	movq	%rax, -80(%rbp)
	leaq	-128(%rbp), %rdi
	leaq	-104(%rbp), %rsi
	callq	__ZN5alloc11collections5btree4node180Handle$LT$alloc..collections..btree..node..NodeRef$LT$BorrowType$C$K$C$V$C$alloc..collections..btree..node..marker..Internal$GT$$C$alloc..collections..btree..node..marker..Edge$GT$7descend17hd1e1291c8e709e36E
	movq	-128(%rbp), %rax
	movq	%rax, -736(%rbp)
	movq	-120(%rbp), %rax
	movq	%rax, -728(%rbp)
	movq	-112(%rbp), %rax
	movq	%rax, -720(%rbp)
	jmp	LBB210_2
LBB210_14:
	movq	-808(%rbp), %rax
	movq	%rax, -24(%rbp)
	movq	-816(%rbp), %rcx
	movq	%rcx, -16(%rbp)
	leaq	-24(%rbp), %rdx
	leaq	-72(%rbp), %rdi
	movq	-800(%rbp), %rsi
	movl	$1, %r8d
	movq	%rdx, -824(%rbp)
	movq	%r8, %rdx
	movq	-824(%rbp), %rcx
	callq	__ZN4core3fmt9Arguments6new_v117hd227699d940bcf05E
	leaq	l___unnamed_5(%rip), %rsi
	leaq	-72(%rbp), %rdi
	callq	__ZN4core9panicking9panic_fmt17hfce5b7173905fc53E
	.cfi_endproc

	.p2align	4, 0x90
__ZN5alloc11collections5btree4node104Handle$LT$alloc..collections..btree..node..NodeRef$LT$BorrowType$C$K$C$V$C$NodeType$GT$$C$HandleType$GT$8reborrow17h272f4e4df17bde50E:
	.cfi_startproc
	pushq	%rbp
	.cfi_def_cfa_offset 16
	.cfi_offset %rbp, -16
	movq	%rsp, %rbp
	.cfi_def_cfa_register %rbp
	subq	$64, %rsp
	movq	%rdi, %rax
	movq	%rsi, %rcx
	leaq	-32(%rbp), %rdx
	movq	%rdi, -40(%rbp)
	movq	%rdx, %rdi
	movq	%rsi, -48(%rbp)
	movq	%rcx, %rsi
	movq	%rax, -56(%rbp)
	callq	__ZN5alloc11collections5btree4node40NodeRef$LT$BorrowType$C$K$C$V$C$Type$GT$8reborrow17he0c016c55fc8b7cfE
	movq	-48(%rbp), %rax
	movq	24(%rax), %rcx
	movq	-32(%rbp), %rdx
	movq	-40(%rbp), %rsi
	movq	%rdx, (%rsi)
	movq	-24(%rbp), %rdx
	movq	%rdx, 8(%rsi)
	movq	-16(%rbp), %rdx
	movq	%rdx, 16(%rsi)
	movq	%rcx, 24(%rsi)
	movq	-56(%rbp), %rax
	addq	$64, %rsp
	popq	%rbp
	retq
	.cfi_endproc

	.p2align	4, 0x90
__ZN5alloc11collections5btree4node127NodeRef$LT$alloc..collections..btree..node..marker..Owned$C$K$C$V$C$alloc..collections..btree..node..marker..LeafOrInternal$GT$21deallocate_and_ascend17he785eea08c2c6ca1E:
	.cfi_startproc
	pushq	%rbp
	.cfi_def_cfa_offset 16
	.cfi_offset %rbp, -16
	movq	%rsp, %rbp
	.cfi_def_cfa_register %rbp
	subq	$128, %rsp
	movq	%rdi, %rax
	movq	(%rsi), %rcx
	movq	8(%rsi), %rdx
	movq	(%rsi), %r8
	movq	%r8, -48(%rbp)
	movq	8(%rsi), %r8
	movq	%r8, -40(%rbp)
	movq	16(%rsi), %rsi
	movq	%rsi, -32(%rbp)
	leaq	-88(%rbp), %rsi
	movq	%rdi, -96(%rbp)
	movq	%rsi, %rdi
	leaq	-48(%rbp), %rsi
	movq	%rax, -104(%rbp)
	movq	%rcx, -112(%rbp)
	movq	%rdx, -120(%rbp)
	callq	__ZN5alloc11collections5btree4node40NodeRef$LT$BorrowType$C$K$C$V$C$Type$GT$6ascend17hbe362e0a9eb327ccE
	movq	-96(%rbp), %rdi
	leaq	-88(%rbp), %rsi
	callq	__ZN4core6result19Result$LT$T$C$E$GT$2ok17h146fcabf153bafd5E
	movq	-120(%rbp), %rdi
	callq	__ZN4core3ptr8non_null16NonNull$LT$T$GT$4cast17h6aaa9c4b6c9084e1E
	movq	%rax, -128(%rbp)
	movq	-112(%rbp), %rax
	cmpq	$0, %rax
	ja	LBB212_5
	callq	__ZN4core5alloc6layout6Layout3new17he3c2b12d1909367dE
	movq	%rdx, -8(%rbp)
	movq	%rax, -16(%rbp)
	jmp	LBB212_6
LBB212_5:
	callq	__ZN4core5alloc6layout6Layout3new17h2055a48debff279cE
	movq	%rdx, -8(%rbp)
	movq	%rax, -16(%rbp)
LBB212_6:
	movq	-16(%rbp), %rdx
	movq	-8(%rbp), %rcx
	leaq	-24(%rbp), %rdi
	movq	-128(%rbp), %rsi
	callq	__ZN62_$LT$alloc..alloc..Global$u20$as$u20$core..alloc..AllocRef$GT$7dealloc17h77cfe395d0912da5E
	movq	-104(%rbp), %rax
	addq	$128, %rsp
	popq	%rbp
	retq
	.cfi_endproc

	.p2align	4, 0x90
__ZN5alloc11collections5btree4node137Handle$LT$alloc..collections..btree..node..NodeRef$LT$BorrowType$C$K$C$V$C$NodeType$GT$$C$alloc..collections..btree..node..marker..KV$GT$10right_edge17hbc52ef1de43640b0E:
	.cfi_startproc
	pushq	%rbp
	.cfi_def_cfa_offset 16
	.cfi_offset %rbp, -16
	movq	%rsp, %rbp
	.cfi_def_cfa_register %rbp
	subq	$32, %rsp
	movq	%rdi, %rax
	movq	(%rsi), %rcx
	movq	%rcx, -24(%rbp)
	movq	8(%rsi), %rcx
	movq	%rcx, -16(%rbp)
	movq	16(%rsi), %rcx
	movq	%rcx, -8(%rbp)
	movq	24(%rsi), %rcx
	addq	$1, %rcx
	leaq	-24(%rbp), %rsi
	movq	%rcx, %rdx
	movq	%rax, -32(%rbp)
	callq	__ZN5alloc11collections5btree4node139Handle$LT$alloc..collections..btree..node..NodeRef$LT$BorrowType$C$K$C$V$C$NodeType$GT$$C$alloc..collections..btree..node..marker..Edge$GT$8new_edge17hb4a47d447276503dE
	movq	-32(%rbp), %rax
	addq	$32, %rsp
	popq	%rbp
	retq
	.cfi_endproc

	.p2align	4, 0x90
__ZN5alloc11collections5btree4node137Handle$LT$alloc..collections..btree..node..NodeRef$LT$BorrowType$C$K$C$V$C$NodeType$GT$$C$alloc..collections..btree..node..marker..KV$GT$10right_edge17hca17b0453775095aE:
	.cfi_startproc
	pushq	%rbp
	.cfi_def_cfa_offset 16
	.cfi_offset %rbp, -16
	movq	%rsp, %rbp
	.cfi_def_cfa_register %rbp
	subq	$32, %rsp
	movq	%rdi, %rax
	movq	(%rsi), %rcx
	movq	%rcx, -24(%rbp)
	movq	8(%rsi), %rcx
	movq	%rcx, -16(%rbp)
	movq	16(%rsi), %rcx
	movq	%rcx, -8(%rbp)
	movq	24(%rsi), %rcx
	addq	$1, %rcx
	leaq	-24(%rbp), %rsi
	movq	%rcx, %rdx
	movq	%rax, -32(%rbp)
	callq	__ZN5alloc11collections5btree4node139Handle$LT$alloc..collections..btree..node..NodeRef$LT$BorrowType$C$K$C$V$C$NodeType$GT$$C$alloc..collections..btree..node..marker..Edge$GT$8new_edge17hebfa7214b77c3abaE
	movq	-32(%rbp), %rax
	addq	$32, %rsp
	popq	%rbp
	retq
	.cfi_endproc

	.p2align	4, 0x90
__ZN5alloc11collections5btree4node137Handle$LT$alloc..collections..btree..node..NodeRef$LT$BorrowType$C$K$C$V$C$NodeType$GT$$C$alloc..collections..btree..node..marker..KV$GT$6new_kv17hcba1fb018a2fe6abE:
	.cfi_startproc
	pushq	%rbp
	.cfi_def_cfa_offset 16
	.cfi_offset %rbp, -16
	movq	%rsp, %rbp
	.cfi_def_cfa_register %rbp
	subq	$24, %rsp
	movq	%rdi, %rax
	movq	(%rsi), %rcx
	movq	%rcx, -24(%rbp)
	movq	8(%rsi), %rcx
	movq	%rcx, -16(%rbp)
	movq	16(%rsi), %rcx
	movq	%rcx, -8(%rbp)
	movq	-24(%rbp), %rcx
	movq	%rcx, (%rdi)
	movq	-16(%rbp), %rcx
	movq	%rcx, 8(%rdi)
	movq	-8(%rbp), %rcx
	movq	%rcx, 16(%rdi)
	movq	%rdx, 24(%rdi)
	addq	$24, %rsp
	popq	%rbp
	retq
	.cfi_endproc

	.p2align	4, 0x90
__ZN5alloc11collections5btree4node139Handle$LT$alloc..collections..btree..node..NodeRef$LT$BorrowType$C$K$C$V$C$NodeType$GT$$C$alloc..collections..btree..node..marker..Edge$GT$8new_edge17hb4a47d447276503dE:
	.cfi_startproc
	pushq	%rbp
	.cfi_def_cfa_offset 16
	.cfi_offset %rbp, -16
	movq	%rsp, %rbp
	.cfi_def_cfa_register %rbp
	subq	$24, %rsp
	movq	%rdi, %rax
	movq	(%rsi), %rcx
	movq	%rcx, -24(%rbp)
	movq	8(%rsi), %rcx
	movq	%rcx, -16(%rbp)
	movq	16(%rsi), %rcx
	movq	%rcx, -8(%rbp)
	movq	-24(%rbp), %rcx
	movq	%rcx, (%rdi)
	movq	-16(%rbp), %rcx
	movq	%rcx, 8(%rdi)
	movq	-8(%rbp), %rcx
	movq	%rcx, 16(%rdi)
	movq	%rdx, 24(%rdi)
	addq	$24, %rsp
	popq	%rbp
	retq
	.cfi_endproc

	.p2align	4, 0x90
__ZN5alloc11collections5btree4node139Handle$LT$alloc..collections..btree..node..NodeRef$LT$BorrowType$C$K$C$V$C$NodeType$GT$$C$alloc..collections..btree..node..marker..Edge$GT$8new_edge17hebfa7214b77c3abaE:
	.cfi_startproc
	pushq	%rbp
	.cfi_def_cfa_offset 16
	.cfi_offset %rbp, -16
	movq	%rsp, %rbp
	.cfi_def_cfa_register %rbp
	subq	$24, %rsp
	movq	%rdi, %rax
	movq	(%rsi), %rcx
	movq	%rcx, -24(%rbp)
	movq	8(%rsi), %rcx
	movq	%rcx, -16(%rbp)
	movq	16(%rsi), %rcx
	movq	%rcx, -8(%rbp)
	movq	-24(%rbp), %rcx
	movq	%rcx, (%rdi)
	movq	-16(%rbp), %rcx
	movq	%rcx, 8(%rdi)
	movq	-8(%rbp), %rcx
	movq	%rcx, 16(%rdi)
	movq	%rdx, 24(%rdi)
	addq	$24, %rsp
	popq	%rbp
	retq
	.cfi_endproc

	.p2align	4, 0x90
__ZN5alloc11collections5btree4node139Handle$LT$alloc..collections..btree..node..NodeRef$LT$BorrowType$C$K$C$V$C$NodeType$GT$$C$alloc..collections..btree..node..marker..Edge$GT$8new_edge17hf1b40ae69836744aE:
	.cfi_startproc
	pushq	%rbp
	.cfi_def_cfa_offset 16
	.cfi_offset %rbp, -16
	movq	%rsp, %rbp
	.cfi_def_cfa_register %rbp
	subq	$24, %rsp
	movq	%rdi, %rax
	movq	(%rsi), %rcx
	movq	%rcx, -24(%rbp)
	movq	8(%rsi), %rcx
	movq	%rcx, -16(%rbp)
	movq	16(%rsi), %rcx
	movq	%rcx, -8(%rbp)
	movq	-24(%rbp), %rcx
	movq	%rcx, (%rdi)
	movq	-16(%rbp), %rcx
	movq	%rcx, 8(%rdi)
	movq	-8(%rbp), %rcx
	movq	%rcx, 16(%rdi)
	movq	%rdx, 24(%rdi)
	addq	$24, %rsp
	popq	%rbp
	retq
	.cfi_endproc

	.p2align	4, 0x90
__ZN5alloc11collections5btree4node139Handle$LT$alloc..collections..btree..node..NodeRef$LT$BorrowType$C$K$C$V$C$NodeType$GT$$C$alloc..collections..btree..node..marker..Edge$GT$8right_kv17hfc5aca0589bc523cE:
	.cfi_startproc
	pushq	%rbp
	.cfi_def_cfa_offset 16
	.cfi_offset %rbp, -16
	movq	%rsp, %rbp
	.cfi_def_cfa_register %rbp
	subq	$128, %rsp
	movq	%rdi, %rax
	movq	24(%rsi), %rcx
	movq	%rsi, %rdx
	movq	%rdi, -96(%rbp)
	movq	%rdx, %rdi
	movq	%rsi, -104(%rbp)
	movq	%rax, -112(%rbp)
	movq	%rcx, -120(%rbp)
	callq	__ZN5alloc11collections5btree4node40NodeRef$LT$BorrowType$C$K$C$V$C$Type$GT$3len17h81824516fb715bfeE
	movq	%rax, -128(%rbp)
	movq	-120(%rbp), %rax
	movq	-128(%rbp), %rcx
	cmpq	%rcx, %rax
	jb	LBB219_3
	movq	-104(%rbp), %rax
	movq	(%rax), %rcx
	movq	%rcx, -32(%rbp)
	movq	8(%rax), %rcx
	movq	%rcx, -24(%rbp)
	movq	16(%rax), %rcx
	movq	%rcx, -16(%rbp)
	movq	24(%rax), %rcx
	movq	%rcx, -8(%rbp)
	movq	-32(%rbp), %rcx
	movq	-96(%rbp), %rdx
	movq	%rcx, 8(%rdx)
	movq	-24(%rbp), %rcx
	movq	%rcx, 16(%rdx)
	movq	-16(%rbp), %rcx
	movq	%rcx, 24(%rdx)
	movq	-8(%rbp), %rcx
	movq	%rcx, 32(%rdx)
	movq	$1, (%rdx)
	jmp	LBB219_5
LBB219_3:
	movq	-104(%rbp), %rax
	movq	(%rax), %rcx
	movq	%rcx, -56(%rbp)
	movq	8(%rax), %rcx
	movq	%rcx, -48(%rbp)
	movq	16(%rax), %rcx
	movq	%rcx, -40(%rbp)
	movq	24(%rax), %rdx
	leaq	-88(%rbp), %rdi
	leaq	-56(%rbp), %rsi
	callq	__ZN5alloc11collections5btree4node137Handle$LT$alloc..collections..btree..node..NodeRef$LT$BorrowType$C$K$C$V$C$NodeType$GT$$C$alloc..collections..btree..node..marker..KV$GT$6new_kv17hcba1fb018a2fe6abE
	movq	-88(%rbp), %rax
	movq	-96(%rbp), %rcx
	movq	%rax, 8(%rcx)
	movq	-80(%rbp), %rax
	movq	%rax, 16(%rcx)
	movq	-72(%rbp), %rax
	movq	%rax, 24(%rcx)
	movq	-64(%rbp), %rax
	movq	%rax, 32(%rcx)
	movq	$0, (%rcx)
LBB219_5:
	movq	-112(%rbp), %rax
	addq	$128, %rsp
	popq	%rbp
	retq
	.cfi_endproc

	.p2align	4, 0x90
__ZN5alloc11collections5btree4node151Handle$LT$alloc..collections..btree..node..NodeRef$LT$BorrowType$C$K$C$V$C$alloc..collections..btree..node..marker..LeafOrInternal$GT$$C$HandleType$GT$5force17h1c0cf2e78efca545E:
	.cfi_startproc
	pushq	%rbp
	.cfi_def_cfa_offset 16
	.cfi_offset %rbp, -16
	movq	%rsp, %rbp
	.cfi_def_cfa_register %rbp
	subq	$256, %rsp
	movq	%rdi, %rax
	movq	(%rsi), %rcx
	movq	%rcx, -200(%rbp)
	movq	8(%rsi), %rcx
	movq	%rcx, -192(%rbp)
	movq	16(%rsi), %rcx
	movq	%rcx, -184(%rbp)
	leaq	-232(%rbp), %rcx
	movq	%rdi, -240(%rbp)
	movq	%rcx, %rdi
	leaq	-200(%rbp), %rcx
	movq	%rsi, -248(%rbp)
	movq	%rcx, %rsi
	movq	%rax, -256(%rbp)
	callq	__ZN5alloc11collections5btree4node91NodeRef$LT$BorrowType$C$K$C$V$C$alloc..collections..btree..node..marker..LeafOrInternal$GT$5force17h104b075aff6e1970E
	movq	-232(%rbp), %rax
	testq	%rax, %rax
	je	LBB220_4
	jmp	LBB220_6
LBB220_6:
	movq	-224(%rbp), %rax
	movq	%rax, -88(%rbp)
	movq	-216(%rbp), %rax
	movq	%rax, -80(%rbp)
	movq	-208(%rbp), %rax
	movq	%rax, -72(%rbp)
	movq	-88(%rbp), %rax
	movq	%rax, -32(%rbp)
	movq	-80(%rbp), %rax
	movq	%rax, -24(%rbp)
	movq	-72(%rbp), %rax
	movq	%rax, -16(%rbp)
	movq	-248(%rbp), %rax
	movq	24(%rax), %rcx
	movq	-32(%rbp), %rdx
	movq	%rdx, -64(%rbp)
	movq	-24(%rbp), %rdx
	movq	%rdx, -56(%rbp)
	movq	-16(%rbp), %rdx
	movq	%rdx, -48(%rbp)
	movq	%rcx, -40(%rbp)
	movq	-64(%rbp), %rcx
	movq	-240(%rbp), %rdx
	movq	%rcx, 8(%rdx)
	movq	-56(%rbp), %rcx
	movq	%rcx, 16(%rdx)
	movq	-48(%rbp), %rcx
	movq	%rcx, 24(%rdx)
	movq	-40(%rbp), %rcx
	movq	%rcx, 32(%rdx)
	movq	$1, (%rdx)
	jmp	LBB220_5
	ud2
LBB220_4:
	movq	-224(%rbp), %rax
	movq	%rax, -176(%rbp)
	movq	-216(%rbp), %rax
	movq	%rax, -168(%rbp)
	movq	-208(%rbp), %rax
	movq	%rax, -160(%rbp)
	movq	-176(%rbp), %rax
	movq	%rax, -120(%rbp)
	movq	-168(%rbp), %rax
	movq	%rax, -112(%rbp)
	movq	-160(%rbp), %rax
	movq	%rax, -104(%rbp)
	movq	-248(%rbp), %rax
	movq	24(%rax), %rcx
	movq	-120(%rbp), %rdx
	movq	%rdx, -152(%rbp)
	movq	-112(%rbp), %rdx
	movq	%rdx, -144(%rbp)
	movq	-104(%rbp), %rdx
	movq	%rdx, -136(%rbp)
	movq	%rcx, -128(%rbp)
	movq	-152(%rbp), %rcx
	movq	-240(%rbp), %rdx
	movq	%rcx, 8(%rdx)
	movq	-144(%rbp), %rcx
	movq	%rcx, 16(%rdx)
	movq	-136(%rbp), %rcx
	movq	%rcx, 24(%rdx)
	movq	-128(%rbp), %rcx
	movq	%rcx, 32(%rdx)
	movq	$0, (%rdx)
LBB220_5:
	movq	-256(%rbp), %rax
	addq	$256, %rsp
	popq	%rbp
	retq
	.cfi_endproc

	.p2align	4, 0x90
__ZN5alloc11collections5btree4node151Handle$LT$alloc..collections..btree..node..NodeRef$LT$BorrowType$C$K$C$V$C$alloc..collections..btree..node..marker..LeafOrInternal$GT$$C$HandleType$GT$5force17hb18bb4f41b600e71E:
	.cfi_startproc
	pushq	%rbp
	.cfi_def_cfa_offset 16
	.cfi_offset %rbp, -16
	movq	%rsp, %rbp
	.cfi_def_cfa_register %rbp
	subq	$256, %rsp
	movq	%rdi, %rax
	movq	(%rsi), %rcx
	movq	%rcx, -200(%rbp)
	movq	8(%rsi), %rcx
	movq	%rcx, -192(%rbp)
	movq	16(%rsi), %rcx
	movq	%rcx, -184(%rbp)
	leaq	-232(%rbp), %rcx
	movq	%rdi, -240(%rbp)
	movq	%rcx, %rdi
	leaq	-200(%rbp), %rcx
	movq	%rsi, -248(%rbp)
	movq	%rcx, %rsi
	movq	%rax, -256(%rbp)
	callq	__ZN5alloc11collections5btree4node91NodeRef$LT$BorrowType$C$K$C$V$C$alloc..collections..btree..node..marker..LeafOrInternal$GT$5force17h104b075aff6e1970E
	movq	-232(%rbp), %rax
	testq	%rax, %rax
	je	LBB221_4
	jmp	LBB221_6
LBB221_6:
	movq	-224(%rbp), %rax
	movq	%rax, -88(%rbp)
	movq	-216(%rbp), %rax
	movq	%rax, -80(%rbp)
	movq	-208(%rbp), %rax
	movq	%rax, -72(%rbp)
	movq	-88(%rbp), %rax
	movq	%rax, -32(%rbp)
	movq	-80(%rbp), %rax
	movq	%rax, -24(%rbp)
	movq	-72(%rbp), %rax
	movq	%rax, -16(%rbp)
	movq	-248(%rbp), %rax
	movq	24(%rax), %rcx
	movq	-32(%rbp), %rdx
	movq	%rdx, -64(%rbp)
	movq	-24(%rbp), %rdx
	movq	%rdx, -56(%rbp)
	movq	-16(%rbp), %rdx
	movq	%rdx, -48(%rbp)
	movq	%rcx, -40(%rbp)
	movq	-64(%rbp), %rcx
	movq	-240(%rbp), %rdx
	movq	%rcx, 8(%rdx)
	movq	-56(%rbp), %rcx
	movq	%rcx, 16(%rdx)
	movq	-48(%rbp), %rcx
	movq	%rcx, 24(%rdx)
	movq	-40(%rbp), %rcx
	movq	%rcx, 32(%rdx)
	movq	$1, (%rdx)
	jmp	LBB221_5
	ud2
LBB221_4:
	movq	-224(%rbp), %rax
	movq	%rax, -176(%rbp)
	movq	-216(%rbp), %rax
	movq	%rax, -168(%rbp)
	movq	-208(%rbp), %rax
	movq	%rax, -160(%rbp)
	movq	-176(%rbp), %rax
	movq	%rax, -120(%rbp)
	movq	-168(%rbp), %rax
	movq	%rax, -112(%rbp)
	movq	-160(%rbp), %rax
	movq	%rax, -104(%rbp)
	movq	-248(%rbp), %rax
	movq	24(%rax), %rcx
	movq	-120(%rbp), %rdx
	movq	%rdx, -152(%rbp)
	movq	-112(%rbp), %rdx
	movq	%rdx, -144(%rbp)
	movq	-104(%rbp), %rdx
	movq	%rdx, -136(%rbp)
	movq	%rcx, -128(%rbp)
	movq	-152(%rbp), %rcx
	movq	-240(%rbp), %rdx
	movq	%rcx, 8(%rdx)
	movq	-144(%rbp), %rcx
	movq	%rcx, 16(%rdx)
	movq	-136(%rbp), %rcx
	movq	%rcx, 24(%rdx)
	movq	-128(%rbp), %rcx
	movq	%rcx, 32(%rdx)
	movq	$0, (%rdx)
LBB221_5:
	movq	-256(%rbp), %rax
	addq	$256, %rsp
	popq	%rbp
	retq
	.cfi_endproc

	.p2align	4, 0x90
__ZN5alloc11collections5btree4node173Handle$LT$alloc..collections..btree..node..NodeRef$LT$alloc..collections..btree..node..marker..Immut$C$K$C$V$C$NodeType$GT$$C$alloc..collections..btree..node..marker..KV$GT$7into_kv17h61658ef2762daef0E:
	.cfi_startproc
	pushq	%rbp
	.cfi_def_cfa_offset 16
	.cfi_offset %rbp, -16
	movq	%rsp, %rbp
	.cfi_def_cfa_register %rbp
	subq	$112, %rsp
	movq	(%rdi), %rax
	movq	%rax, -24(%rbp)
	movq	8(%rdi), %rax
	movq	%rax, -16(%rbp)
	movq	16(%rdi), %rax
	movq	%rax, -8(%rbp)
	leaq	-56(%rbp), %rax
	movq	%rdi, -80(%rbp)
	movq	%rax, %rdi
	leaq	-24(%rbp), %rsi
	callq	__ZN5alloc11collections5btree4node76NodeRef$LT$alloc..collections..btree..node..marker..Immut$C$K$C$V$C$Type$GT$11into_slices17h3097886998e00b1eE
	movq	-56(%rbp), %rdi
	movq	-48(%rbp), %rsi
	movq	-40(%rbp), %rax
	movq	-32(%rbp), %rcx
	movq	-80(%rbp), %rdx
	movq	24(%rdx), %rdx
	movq	%rax, -88(%rbp)
	movq	%rcx, -96(%rbp)
	callq	__ZN4core5slice29_$LT$impl$u20$$u5b$T$u5d$$GT$13get_unchecked17h3e5626319e7f80a6E
	movq	%rax, -104(%rbp)
	movq	-80(%rbp), %rax
	movq	24(%rax), %rdx
	movq	-88(%rbp), %rdi
	movq	-96(%rbp), %rsi
	callq	__ZN4core5slice29_$LT$impl$u20$$u5b$T$u5d$$GT$13get_unchecked17hbbbbeadd0eecf56cE
	movq	%rax, -112(%rbp)
	movq	-104(%rbp), %rax
	movq	%rax, -72(%rbp)
	movq	-112(%rbp), %rcx
	movq	%rcx, -64(%rbp)
	movq	-72(%rbp), %rax
	movq	-64(%rbp), %rdx
	addq	$112, %rsp
	popq	%rbp
	retq
	.cfi_endproc

	.p2align	4, 0x90
__ZN5alloc11collections5btree4node176Handle$LT$alloc..collections..btree..node..NodeRef$LT$BorrowType$C$K$C$V$C$alloc..collections..btree..node..marker..Leaf$GT$$C$alloc..collections..btree..node..marker..Edge$GT$16forget_node_type17hd47ee75038fea3f1E:
	.cfi_startproc
	pushq	%rbp
	.cfi_def_cfa_offset 16
	.cfi_offset %rbp, -16
	movq	%rsp, %rbp
	.cfi_def_cfa_register %rbp
	subq	$80, %rsp
	movq	%rdi, %rax
	movq	(%rsi), %rcx
	movq	%rcx, -24(%rbp)
	movq	8(%rsi), %rcx
	movq	%rcx, -16(%rbp)
	movq	16(%rsi), %rcx
	movq	%rcx, -8(%rbp)
	leaq	-48(%rbp), %rcx
	movq	%rdi, -56(%rbp)
	movq	%rcx, %rdi
	leaq	-24(%rbp), %rcx
	movq	%rsi, -64(%rbp)
	movq	%rcx, %rsi
	movq	%rax, -72(%rbp)
	callq	__ZN5alloc11collections5btree4node40NodeRef$LT$BorrowType$C$K$C$V$C$Type$GT$11forget_type17ha5935b96bd960992E
	movq	-64(%rbp), %rax
	movq	24(%rax), %rdx
	movq	-56(%rbp), %rdi
	leaq	-48(%rbp), %rsi
	callq	__ZN5alloc11collections5btree4node139Handle$LT$alloc..collections..btree..node..NodeRef$LT$BorrowType$C$K$C$V$C$NodeType$GT$$C$alloc..collections..btree..node..marker..Edge$GT$8new_edge17hf1b40ae69836744aE
	movq	-72(%rbp), %rax
	addq	$80, %rsp
	popq	%rbp
	retq
	.cfi_endproc

	.p2align	4, 0x90
__ZN5alloc11collections5btree4node17Root$LT$K$C$V$GT$8into_ref17hecbdc75e6e7c3c8bE:
	.cfi_startproc
	pushq	%rbp
	.cfi_def_cfa_offset 16
	.cfi_offset %rbp, -16
	movq	%rsp, %rbp
	.cfi_def_cfa_register %rbp
	subq	$48, %rsp
	movq	%rdi, %rax
	movq	%rsi, -16(%rbp)
	movq	%rdx, -8(%rbp)
	movq	-8(%rbp), %rcx
	leaq	-16(%rbp), %rdx
	movq	%rdi, -24(%rbp)
	movq	%rdx, %rdi
	movq	%rax, -32(%rbp)
	movq	%rcx, -40(%rbp)
	callq	__ZN5alloc11collections5btree4node22BoxedNode$LT$K$C$V$GT$6as_ptr17h9e80a09810a19eefE
	movq	%rax, -48(%rbp)
	jmp	LBB224_2
LBB224_2:
	movq	-24(%rbp), %rax
	movq	-40(%rbp), %rcx
	movq	%rcx, (%rax)
	movq	-48(%rbp), %rdx
	movq	%rdx, 8(%rax)
	movq	$0, 16(%rax)
	movq	-32(%rbp), %rax
	addq	$48, %rsp
	popq	%rbp
	retq
	.cfi_endproc

	.p2align	4, 0x90
__ZN5alloc11collections5btree4node180Handle$LT$alloc..collections..btree..node..NodeRef$LT$BorrowType$C$K$C$V$C$alloc..collections..btree..node..marker..Internal$GT$$C$alloc..collections..btree..node..marker..Edge$GT$16forget_node_type17h1222b41c37ee5f83E:
	.cfi_startproc
	pushq	%rbp
	.cfi_def_cfa_offset 16
	.cfi_offset %rbp, -16
	movq	%rsp, %rbp
	.cfi_def_cfa_register %rbp
	subq	$80, %rsp
	movq	%rdi, %rax
	movq	(%rsi), %rcx
	movq	%rcx, -24(%rbp)
	movq	8(%rsi), %rcx
	movq	%rcx, -16(%rbp)
	movq	16(%rsi), %rcx
	movq	%rcx, -8(%rbp)
	leaq	-48(%rbp), %rcx
	movq	%rdi, -56(%rbp)
	movq	%rcx, %rdi
	leaq	-24(%rbp), %rcx
	movq	%rsi, -64(%rbp)
	movq	%rcx, %rsi
	movq	%rax, -72(%rbp)
	callq	__ZN5alloc11collections5btree4node40NodeRef$LT$BorrowType$C$K$C$V$C$Type$GT$11forget_type17h4eb68eb37272ba0cE
	movq	-64(%rbp), %rax
	movq	24(%rax), %rdx
	movq	-56(%rbp), %rdi
	leaq	-48(%rbp), %rsi
	callq	__ZN5alloc11collections5btree4node139Handle$LT$alloc..collections..btree..node..NodeRef$LT$BorrowType$C$K$C$V$C$NodeType$GT$$C$alloc..collections..btree..node..marker..Edge$GT$8new_edge17hf1b40ae69836744aE
	movq	-72(%rbp), %rax
	addq	$80, %rsp
	popq	%rbp
	retq
	.cfi_endproc

	.p2align	4, 0x90
__ZN5alloc11collections5btree4node180Handle$LT$alloc..collections..btree..node..NodeRef$LT$BorrowType$C$K$C$V$C$alloc..collections..btree..node..marker..Internal$GT$$C$alloc..collections..btree..node..marker..Edge$GT$7descend17hd1e1291c8e709e36E:
	.cfi_startproc
	pushq	%rbp
	.cfi_def_cfa_offset 16
	.cfi_offset %rbp, -16
	movq	%rsp, %rbp
	.cfi_def_cfa_register %rbp
	subq	$80, %rsp
	movq	%rdi, %rax
	movq	(%rsi), %rcx
	subq	$1, %rcx
	movq	%rsi, %rdx
	movq	%rdi, -16(%rbp)
	movq	%rdx, %rdi
	movq	%rsi, -24(%rbp)
	movq	%rax, -32(%rbp)
	movq	%rcx, -40(%rbp)
	callq	__ZN5alloc11collections5btree4node85NodeRef$LT$BorrowType$C$K$C$V$C$alloc..collections..btree..node..marker..Internal$GT$11as_internal17hfe6447fffdb425b4E
	movq	%rax, -48(%rbp)
	movq	-48(%rbp), %rax
	addq	$544, %rax
	movq	-24(%rbp), %rcx
	movq	24(%rcx), %rdx
	movq	%rax, %rdi
	movl	$12, %esi
	callq	__ZN4core5slice29_$LT$impl$u20$$u5b$T$u5d$$GT$13get_unchecked17h52bef45e41b6a49bE
	movq	%rax, -56(%rbp)
	movq	-56(%rbp), %rax
	movq	%rax, -64(%rbp)
	movq	-64(%rbp), %rdi
	callq	__ZN5alloc11collections5btree4node22BoxedNode$LT$K$C$V$GT$6as_ptr17h9e80a09810a19eefE
	movq	%rax, -72(%rbp)
	movq	-24(%rbp), %rax
	movq	16(%rax), %rcx
	movq	-16(%rbp), %rdx
	movq	-40(%rbp), %rsi
	movq	%rsi, (%rdx)
	movq	-72(%rbp), %rdi
	movq	%rdi, 8(%rdx)
	movq	%rcx, 16(%rdx)
	movq	-32(%rbp), %rax
	addq	$80, %rsp
	popq	%rbp
	retq
	.cfi_endproc

	.p2align	4, 0x90
__ZN5alloc11collections5btree4node22BoxedNode$LT$K$C$V$GT$6as_ptr17h9e80a09810a19eefE:
	.cfi_startproc
	pushq	%rbp
	.cfi_def_cfa_offset 16
	.cfi_offset %rbp, -16
	movq	%rsp, %rbp
	.cfi_def_cfa_register %rbp
	subq	$16, %rsp
	movq	(%rdi), %rdi
	callq	__ZN119_$LT$core..ptr..non_null..NonNull$LT$T$GT$$u20$as$u20$core..convert..From$LT$core..ptr..unique..Unique$LT$T$GT$$GT$$GT$4from17had16ca0f2eeae6fbE
	movq	%rax, -8(%rbp)
	movq	-8(%rbp), %rax
	addq	$16, %rsp
	popq	%rbp
	retq
	.cfi_endproc

	.p2align	4, 0x90
__ZN5alloc11collections5btree4node25Handle$LT$Node$C$Type$GT$9into_node17h3029577b3dcf7893E:
	.cfi_startproc
	pushq	%rbp
	.cfi_def_cfa_offset 16
	.cfi_offset %rbp, -16
	movq	%rsp, %rbp
	.cfi_def_cfa_register %rbp
	movq	%rdi, %rax
	movq	(%rsi), %rcx
	movq	%rcx, (%rdi)
	movq	8(%rsi), %rcx
	movq	%rcx, 8(%rdi)
	movq	16(%rsi), %rcx
	movq	%rcx, 16(%rdi)
	popq	%rbp
	retq
	.cfi_endproc

	.p2align	4, 0x90
__ZN5alloc11collections5btree4node25Handle$LT$Node$C$Type$GT$9into_node17hb046d60a656d8f2eE:
	.cfi_startproc
	pushq	%rbp
	.cfi_def_cfa_offset 16
	.cfi_offset %rbp, -16
	movq	%rsp, %rbp
	.cfi_def_cfa_register %rbp
	movq	%rdi, %rax
	movq	(%rsi), %rcx
	movq	%rcx, (%rdi)
	movq	8(%rsi), %rcx
	movq	%rcx, 8(%rdi)
	movq	16(%rsi), %rcx
	movq	%rcx, 16(%rdi)
	popq	%rbp
	retq
	.cfi_endproc

	.p2align	4, 0x90
__ZN5alloc11collections5btree4node25Handle$LT$Node$C$Type$GT$9into_node17hc142882dbf228bf5E:
	.cfi_startproc
	pushq	%rbp
	.cfi_def_cfa_offset 16
	.cfi_offset %rbp, -16
	movq	%rsp, %rbp
	.cfi_def_cfa_register %rbp
	movq	%rdi, %rax
	movq	(%rsi), %rcx
	movq	%rcx, (%rdi)
	movq	8(%rsi), %rcx
	movq	%rcx, 8(%rdi)
	movq	16(%rsi), %rcx
	movq	%rcx, 16(%rdi)
	popq	%rbp
	retq
	.cfi_endproc

	.p2align	4, 0x90
__ZN5alloc11collections5btree4node40NodeRef$LT$BorrowType$C$K$C$V$C$Type$GT$10first_edge17h1dec97e040965469E:
	.cfi_startproc
	pushq	%rbp
	.cfi_def_cfa_offset 16
	.cfi_offset %rbp, -16
	movq	%rsp, %rbp
	.cfi_def_cfa_register %rbp
	subq	$32, %rsp
	movq	%rdi, %rax
	xorl	%ecx, %ecx
	movl	%ecx, %edx
	movq	(%rsi), %r8
	movq	%r8, -24(%rbp)
	movq	8(%rsi), %r8
	movq	%r8, -16(%rbp)
	movq	16(%rsi), %rsi
	movq	%rsi, -8(%rbp)
	leaq	-24(%rbp), %rsi
	movq	%rax, -32(%rbp)
	callq	__ZN5alloc11collections5btree4node139Handle$LT$alloc..collections..btree..node..NodeRef$LT$BorrowType$C$K$C$V$C$NodeType$GT$$C$alloc..collections..btree..node..marker..Edge$GT$8new_edge17hf1b40ae69836744aE
	movq	-32(%rbp), %rax
	addq	$32, %rsp
	popq	%rbp
	retq
	.cfi_endproc

	.p2align	4, 0x90
__ZN5alloc11collections5btree4node40NodeRef$LT$BorrowType$C$K$C$V$C$Type$GT$10first_edge17hc68e7165e4c1db43E:
	.cfi_startproc
	pushq	%rbp
	.cfi_def_cfa_offset 16
	.cfi_offset %rbp, -16
	movq	%rsp, %rbp
	.cfi_def_cfa_register %rbp
	subq	$32, %rsp
	movq	%rdi, %rax
	xorl	%ecx, %ecx
	movl	%ecx, %edx
	movq	(%rsi), %r8
	movq	%r8, -24(%rbp)
	movq	8(%rsi), %r8
	movq	%r8, -16(%rbp)
	movq	16(%rsi), %rsi
	movq	%rsi, -8(%rbp)
	leaq	-24(%rbp), %rsi
	movq	%rax, -32(%rbp)
	callq	__ZN5alloc11collections5btree4node139Handle$LT$alloc..collections..btree..node..NodeRef$LT$BorrowType$C$K$C$V$C$NodeType$GT$$C$alloc..collections..btree..node..marker..Edge$GT$8new_edge17hb4a47d447276503dE
	movq	-32(%rbp), %rax
	addq	$32, %rsp
	popq	%rbp
	retq
	.cfi_endproc

	.p2align	4, 0x90
__ZN5alloc11collections5btree4node40NodeRef$LT$BorrowType$C$K$C$V$C$Type$GT$10first_edge17hd7a0b58ec314da48E:
	.cfi_startproc
	pushq	%rbp
	.cfi_def_cfa_offset 16
	.cfi_offset %rbp, -16
	movq	%rsp, %rbp
	.cfi_def_cfa_register %rbp
	subq	$32, %rsp
	movq	%rdi, %rax
	xorl	%ecx, %ecx
	movl	%ecx, %edx
	movq	(%rsi), %r8
	movq	%r8, -24(%rbp)
	movq	8(%rsi), %r8
	movq	%r8, -16(%rbp)
	movq	16(%rsi), %rsi
	movq	%rsi, -8(%rbp)
	leaq	-24(%rbp), %rsi
	movq	%rax, -32(%rbp)
	callq	__ZN5alloc11collections5btree4node139Handle$LT$alloc..collections..btree..node..NodeRef$LT$BorrowType$C$K$C$V$C$NodeType$GT$$C$alloc..collections..btree..node..marker..Edge$GT$8new_edge17hebfa7214b77c3abaE
	movq	-32(%rbp), %rax
	addq	$32, %rsp
	popq	%rbp
	retq
	.cfi_endproc

	.p2align	4, 0x90
__ZN5alloc11collections5btree4node40NodeRef$LT$BorrowType$C$K$C$V$C$Type$GT$11forget_type17h4eb68eb37272ba0cE:
	.cfi_startproc
	pushq	%rbp
	.cfi_def_cfa_offset 16
	.cfi_offset %rbp, -16
	movq	%rsp, %rbp
	.cfi_def_cfa_register %rbp
	pushq	%rax
	movq	%rdi, %rax
	movq	(%rsi), %rcx
	movq	8(%rsi), %rdx
	movq	16(%rsi), %rsi
	movq	%rcx, (%rdi)
	movq	%rdx, 8(%rdi)
	movq	%rsi, 16(%rdi)
	addq	$8, %rsp
	popq	%rbp
	retq
	.cfi_endproc

	.p2align	4, 0x90
__ZN5alloc11collections5btree4node40NodeRef$LT$BorrowType$C$K$C$V$C$Type$GT$11forget_type17ha5935b96bd960992E:
	.cfi_startproc
	pushq	%rbp
	.cfi_def_cfa_offset 16
	.cfi_offset %rbp, -16
	movq	%rsp, %rbp
	.cfi_def_cfa_register %rbp
	pushq	%rax
	movq	%rdi, %rax
	movq	(%rsi), %rcx
	movq	8(%rsi), %rdx
	movq	16(%rsi), %rsi
	movq	%rcx, (%rdi)
	movq	%rdx, 8(%rdi)
	movq	%rsi, 16(%rdi)
	addq	$8, %rsp
	popq	%rbp
	retq
	.cfi_endproc

	.p2align	4, 0x90
__ZN5alloc11collections5btree4node40NodeRef$LT$BorrowType$C$K$C$V$C$Type$GT$3len17h81824516fb715bfeE:
	.cfi_startproc
	pushq	%rbp
	.cfi_def_cfa_offset 16
	.cfi_offset %rbp, -16
	movq	%rsp, %rbp
	.cfi_def_cfa_register %rbp
	subq	$16, %rsp
	callq	__ZN5alloc11collections5btree4node40NodeRef$LT$BorrowType$C$K$C$V$C$Type$GT$7as_leaf17h9a9fbc7e0877fc8cE
	movq	%rax, -8(%rbp)
	movq	-8(%rbp), %rax
	movzwl	10(%rax), %ecx
	movl	%ecx, %eax
	addq	$16, %rsp
	popq	%rbp
	retq
	.cfi_endproc

	.p2align	4, 0x90
__ZN5alloc11collections5btree4node40NodeRef$LT$BorrowType$C$K$C$V$C$Type$GT$3len17hbf7dd2594bb2277bE:
	.cfi_startproc
	pushq	%rbp
	.cfi_def_cfa_offset 16
	.cfi_offset %rbp, -16
	movq	%rsp, %rbp
	.cfi_def_cfa_register %rbp
	subq	$16, %rsp
	callq	__ZN5alloc11collections5btree4node40NodeRef$LT$BorrowType$C$K$C$V$C$Type$GT$7as_leaf17h04bb2b6c2ea2f9f9E
	movq	%rax, -8(%rbp)
	movq	-8(%rbp), %rax
	movzwl	10(%rax), %ecx
	movl	%ecx, %eax
	addq	$16, %rsp
	popq	%rbp
	retq
	.cfi_endproc

	.p2align	4, 0x90
__ZN5alloc11collections5btree4node40NodeRef$LT$BorrowType$C$K$C$V$C$Type$GT$6ascend17hbe362e0a9eb327ccE:
	.cfi_startproc
	pushq	%rbp
	.cfi_def_cfa_offset 16
	.cfi_offset %rbp, -16
	movq	%rsp, %rbp
	.cfi_def_cfa_register %rbp
	subq	$160, %rsp
	movq	%rdi, %rax
	movq	%rdi, -104(%rbp)
	movq	%rsi, %rdi
	movq	%rsi, -112(%rbp)
	movq	%rax, -120(%rbp)
	callq	__ZN5alloc11collections5btree4node40NodeRef$LT$BorrowType$C$K$C$V$C$Type$GT$7as_leaf17h9a9fbc7e0877fc8cE
	movq	%rax, -128(%rbp)
	movq	-128(%rbp), %rax
	movq	(%rax), %rcx
	movq	%rcx, %rdi
	callq	__ZN4core3ptr8non_null16NonNull$LT$T$GT$3new17h1c5b2ca4a8969273E
	movq	%rax, -96(%rbp)
	xorl	%eax, %eax
	movl	%eax, %ecx
	cmpq	$0, -96(%rbp)
	movl	$1, %edx
	cmovbeq	%rcx, %rdx
	cmpq	$1, %rdx
	je	LBB238_4
	movq	-112(%rbp), %rax
	movq	(%rax), %rcx
	movq	%rcx, -24(%rbp)
	movq	8(%rax), %rcx
	movq	%rcx, -16(%rbp)
	movq	16(%rax), %rcx
	movq	%rcx, -8(%rbp)
	movq	-24(%rbp), %rcx
	movq	-104(%rbp), %rdx
	movq	%rcx, 8(%rdx)
	movq	-16(%rbp), %rcx
	movq	%rcx, 16(%rdx)
	movq	-8(%rbp), %rcx
	movq	%rcx, 24(%rdx)
	movq	$1, (%rdx)
	jmp	LBB238_8
LBB238_4:
	movq	-96(%rbp), %rax
	movq	-112(%rbp), %rcx
	movq	(%rcx), %rdx
	addq	$1, %rdx
	movq	16(%rcx), %rsi
	movq	%rdx, -56(%rbp)
	movq	%rax, -48(%rbp)
	movq	%rsi, -40(%rbp)
	movq	%rcx, %rdi
	callq	__ZN5alloc11collections5btree4node40NodeRef$LT$BorrowType$C$K$C$V$C$Type$GT$7as_leaf17h9a9fbc7e0877fc8cE
	movq	%rax, -136(%rbp)
	movq	-136(%rbp), %rax
	addq	$8, %rax
	movq	%rax, -144(%rbp)
	movq	-144(%rbp), %rax
	movzwl	(%rax), %edi
	callq	__ZN4core7convert3num66_$LT$impl$u20$core..convert..From$LT$u16$GT$$u20$for$u20$usize$GT$4from17hcfa73b4b080dcb27E
	movq	%rax, -152(%rbp)
	movq	-56(%rbp), %rax
	movq	%rax, -88(%rbp)
	movq	-48(%rbp), %rax
	movq	%rax, -80(%rbp)
	movq	-40(%rbp), %rax
	movq	%rax, -72(%rbp)
	movq	-152(%rbp), %rax
	movq	%rax, -64(%rbp)
	movq	-88(%rbp), %rcx
	movq	-104(%rbp), %rdx
	movq	%rcx, 8(%rdx)
	movq	-80(%rbp), %rcx
	movq	%rcx, 16(%rdx)
	movq	-72(%rbp), %rcx
	movq	%rcx, 24(%rdx)
	movq	-64(%rbp), %rcx
	movq	%rcx, 32(%rdx)
	movq	$0, (%rdx)
LBB238_8:
	movq	-120(%rbp), %rax
	addq	$160, %rsp
	popq	%rbp
	retq
	.cfi_endproc

	.p2align	4, 0x90
__ZN5alloc11collections5btree4node40NodeRef$LT$BorrowType$C$K$C$V$C$Type$GT$7as_leaf17h04bb2b6c2ea2f9f9E:
	.cfi_startproc
	pushq	%rbp
	.cfi_def_cfa_offset 16
	.cfi_offset %rbp, -16
	movq	%rsp, %rbp
	.cfi_def_cfa_register %rbp
	subq	$16, %rsp
	addq	$8, %rdi
	callq	__ZN4core3ptr8non_null16NonNull$LT$T$GT$6as_ref17h572b6e58971563d9E
	movq	%rax, -8(%rbp)
	movq	-8(%rbp), %rax
	addq	$16, %rsp
	popq	%rbp
	retq
	.cfi_endproc

	.p2align	4, 0x90
__ZN5alloc11collections5btree4node40NodeRef$LT$BorrowType$C$K$C$V$C$Type$GT$7as_leaf17h9a9fbc7e0877fc8cE:
	.cfi_startproc
	pushq	%rbp
	.cfi_def_cfa_offset 16
	.cfi_offset %rbp, -16
	movq	%rsp, %rbp
	.cfi_def_cfa_register %rbp
	subq	$16, %rsp
	addq	$8, %rdi
	callq	__ZN4core3ptr8non_null16NonNull$LT$T$GT$6as_ref17h572b6e58971563d9E
	movq	%rax, -8(%rbp)
	movq	-8(%rbp), %rax
	addq	$16, %rsp
	popq	%rbp
	retq
	.cfi_endproc

	.p2align	4, 0x90
__ZN5alloc11collections5btree4node40NodeRef$LT$BorrowType$C$K$C$V$C$Type$GT$8reborrow17he0c016c55fc8b7cfE:
	.cfi_startproc
	pushq	%rbp
	.cfi_def_cfa_offset 16
	.cfi_offset %rbp, -16
	movq	%rsp, %rbp
	.cfi_def_cfa_register %rbp
	pushq	%rax
	movq	%rdi, %rax
	movq	(%rsi), %rcx
	movq	8(%rsi), %rdx
	movq	16(%rsi), %rsi
	movq	%rcx, (%rdi)
	movq	%rdx, 8(%rdi)
	movq	%rsi, 16(%rdi)
	addq	$8, %rsp
	popq	%rbp
	retq
	.cfi_endproc

	.p2align	4, 0x90
__ZN5alloc11collections5btree4node40NodeRef$LT$BorrowType$C$K$C$V$C$Type$GT$9last_edge17hce8823307f173106E:
	.cfi_startproc
	pushq	%rbp
	.cfi_def_cfa_offset 16
	.cfi_offset %rbp, -16
	movq	%rsp, %rbp
	.cfi_def_cfa_register %rbp
	subq	$64, %rsp
	movq	%rdi, %rax
	movq	%rdi, -32(%rbp)
	movq	%rsi, %rdi
	movq	%rsi, -40(%rbp)
	movq	%rax, -48(%rbp)
	callq	__ZN5alloc11collections5btree4node40NodeRef$LT$BorrowType$C$K$C$V$C$Type$GT$3len17h81824516fb715bfeE
	movq	%rax, -56(%rbp)
	movq	-40(%rbp), %rax
	movq	(%rax), %rcx
	movq	%rcx, -24(%rbp)
	movq	8(%rax), %rcx
	movq	%rcx, -16(%rbp)
	movq	16(%rax), %rcx
	movq	%rcx, -8(%rbp)
	movq	-32(%rbp), %rdi
	leaq	-24(%rbp), %rsi
	movq	-56(%rbp), %rdx
	callq	__ZN5alloc11collections5btree4node139Handle$LT$alloc..collections..btree..node..NodeRef$LT$BorrowType$C$K$C$V$C$NodeType$GT$$C$alloc..collections..btree..node..marker..Edge$GT$8new_edge17hf1b40ae69836744aE
	movq	-48(%rbp), %rax
	addq	$64, %rsp
	popq	%rbp
	retq
	.cfi_endproc

	.p2align	4, 0x90
__ZN5alloc11collections5btree4node76NodeRef$LT$alloc..collections..btree..node..marker..Immut$C$K$C$V$C$Type$GT$11into_slices17h3097886998e00b1eE:
	.cfi_startproc
	pushq	%rbp
	.cfi_def_cfa_offset 16
	.cfi_offset %rbp, -16
	movq	%rsp, %rbp
	.cfi_def_cfa_register %rbp
	subq	$128, %rsp
	movq	%rdi, %rax
	leaq	-72(%rbp), %rcx
	movq	%rdi, -80(%rbp)
	movq	%rcx, %rdi
	movq	%rsi, -88(%rbp)
	movq	%rax, -96(%rbp)
	callq	__ZN4core3ptr4read17h6a1a5a02d861c2a4E
	movq	-72(%rbp), %rax
	movq	%rax, -48(%rbp)
	movq	-64(%rbp), %rax
	movq	%rax, -40(%rbp)
	movq	-56(%rbp), %rax
	movq	%rax, -32(%rbp)
	leaq	-48(%rbp), %rdi
	callq	__ZN5alloc11collections5btree4node76NodeRef$LT$alloc..collections..btree..node..marker..Immut$C$K$C$V$C$Type$GT$14into_key_slice17h74b598a018ccdabbE
	movq	%rax, -104(%rbp)
	movq	%rdx, -112(%rbp)
	movq	-88(%rbp), %rax
	movq	(%rax), %rcx
	movq	%rcx, -24(%rbp)
	movq	8(%rax), %rcx
	movq	%rcx, -16(%rbp)
	movq	16(%rax), %rcx
	movq	%rcx, -8(%rbp)
	leaq	-24(%rbp), %rdi
	callq	__ZN5alloc11collections5btree4node76NodeRef$LT$alloc..collections..btree..node..marker..Immut$C$K$C$V$C$Type$GT$14into_val_slice17hbccba4fd7fbfe103E
	movq	%rax, -120(%rbp)
	movq	%rdx, -128(%rbp)
	movq	-80(%rbp), %rax
	movq	-104(%rbp), %rcx
	movq	%rcx, (%rax)
	movq	-112(%rbp), %rdx
	movq	%rdx, 8(%rax)
	movq	-120(%rbp), %rsi
	movq	%rsi, 16(%rax)
	movq	-128(%rbp), %rdi
	movq	%rdi, 24(%rax)
	movq	-96(%rbp), %rax
	addq	$128, %rsp
	popq	%rbp
	retq
	.cfi_endproc

	.p2align	4, 0x90
__ZN5alloc11collections5btree4node76NodeRef$LT$alloc..collections..btree..node..marker..Immut$C$K$C$V$C$Type$GT$14into_key_slice17h74b598a018ccdabbE:
	.cfi_startproc
	pushq	%rbp
	.cfi_def_cfa_offset 16
	.cfi_offset %rbp, -16
	movq	%rsp, %rbp
	.cfi_def_cfa_register %rbp
	subq	$48, %rsp
	movq	%rdi, -8(%rbp)
	callq	__ZN5alloc11collections5btree4node40NodeRef$LT$BorrowType$C$K$C$V$C$Type$GT$7as_leaf17h04bb2b6c2ea2f9f9E
	movq	%rax, -16(%rbp)
	movq	-16(%rbp), %rax
	addq	$16, %rax
	movq	%rax, -24(%rbp)
	movq	-8(%rbp), %rdi
	callq	__ZN5alloc11collections5btree4node40NodeRef$LT$BorrowType$C$K$C$V$C$Type$GT$3len17hbf7dd2594bb2277bE
	movq	%rax, -32(%rbp)
	movq	-24(%rbp), %rdi
	movq	-32(%rbp), %rsi
	callq	__ZN4core5slice14from_raw_parts17hab0b985c570737adE
	movq	%rax, -40(%rbp)
	movq	%rdx, -48(%rbp)
	movq	-40(%rbp), %rax
	movq	-48(%rbp), %rdx
	addq	$48, %rsp
	popq	%rbp
	retq
	.cfi_endproc

	.p2align	4, 0x90
__ZN5alloc11collections5btree4node76NodeRef$LT$alloc..collections..btree..node..marker..Immut$C$K$C$V$C$Type$GT$14into_val_slice17hbccba4fd7fbfe103E:
	.cfi_startproc
	pushq	%rbp
	.cfi_def_cfa_offset 16
	.cfi_offset %rbp, -16
	movq	%rsp, %rbp
	.cfi_def_cfa_register %rbp
	subq	$48, %rsp
	movq	%rdi, -8(%rbp)
	callq	__ZN5alloc11collections5btree4node40NodeRef$LT$BorrowType$C$K$C$V$C$Type$GT$7as_leaf17h04bb2b6c2ea2f9f9E
	movq	%rax, -16(%rbp)
	movq	-16(%rbp), %rax
	addq	$280, %rax
	movq	%rax, -24(%rbp)
	movq	-8(%rbp), %rdi
	callq	__ZN5alloc11collections5btree4node40NodeRef$LT$BorrowType$C$K$C$V$C$Type$GT$3len17hbf7dd2594bb2277bE
	movq	%rax, -32(%rbp)
	movq	-24(%rbp), %rdi
	movq	-32(%rbp), %rsi
	callq	__ZN4core5slice14from_raw_parts17h02de1b1ead2c5362E
	movq	%rax, -40(%rbp)
	movq	%rdx, -48(%rbp)
	movq	-40(%rbp), %rax
	movq	-48(%rbp), %rdx
	addq	$48, %rsp
	popq	%rbp
	retq
	.cfi_endproc

	.p2align	4, 0x90
__ZN5alloc11collections5btree4node85NodeRef$LT$BorrowType$C$K$C$V$C$alloc..collections..btree..node..marker..Internal$GT$11as_internal17hfe6447fffdb425b4E:
	.cfi_startproc
	pushq	%rbp
	.cfi_def_cfa_offset 16
	.cfi_offset %rbp, -16
	movq	%rsp, %rbp
	.cfi_def_cfa_register %rbp
	subq	$16, %rsp
	movq	8(%rdi), %rdi
	callq	__ZN4core3ptr8non_null16NonNull$LT$T$GT$6as_ptr17h1e352ea88cc3dfe9E
	movq	%rax, -8(%rbp)
	movq	-8(%rbp), %rax
	addq	$16, %rsp
	popq	%rbp
	retq
	.cfi_endproc

	.p2align	4, 0x90
__ZN5alloc11collections5btree4node91NodeRef$LT$BorrowType$C$K$C$V$C$alloc..collections..btree..node..marker..LeafOrInternal$GT$5force17h104b075aff6e1970E:
	.cfi_startproc
	pushq	%rbp
	.cfi_def_cfa_offset 16
	.cfi_offset %rbp, -16
	movq	%rsp, %rbp
	.cfi_def_cfa_register %rbp
	subq	$88, %rsp
	movq	%rdi, %rax
	cmpq	$0, (%rsi)
	movq	%rsi, -72(%rbp)
	movq	%rdi, -80(%rbp)
	movq	%rax, -88(%rbp)
	je	LBB247_2
	movq	-72(%rbp), %rax
	movq	(%rax), %rcx
	movq	8(%rax), %rdx
	movq	16(%rax), %rsi
	movq	%rcx, -32(%rbp)
	movq	%rdx, -24(%rbp)
	movq	%rsi, -16(%rbp)
	movq	-32(%rbp), %rcx
	movq	-80(%rbp), %rdx
	movq	%rcx, 8(%rdx)
	movq	-24(%rbp), %rcx
	movq	%rcx, 16(%rdx)
	movq	-16(%rbp), %rcx
	movq	%rcx, 24(%rdx)
	movq	$1, (%rdx)
	jmp	LBB247_3
LBB247_2:
	movq	-72(%rbp), %rax
	movq	(%rax), %rcx
	movq	8(%rax), %rdx
	movq	16(%rax), %rsi
	movq	%rcx, -64(%rbp)
	movq	%rdx, -56(%rbp)
	movq	%rsi, -48(%rbp)
	movq	-64(%rbp), %rcx
	movq	-80(%rbp), %rdx
	movq	%rcx, 8(%rdx)
	movq	-56(%rbp), %rcx
	movq	%rcx, 16(%rdx)
	movq	-48(%rbp), %rcx
	movq	%rcx, 24(%rdx)
	movq	$0, (%rdx)
LBB247_3:
	movq	-88(%rbp), %rax
	addq	$88, %rsp
	popq	%rbp
	retq
	.cfi_endproc

	.p2align	4, 0x90
__ZN5alloc11collections5btree8navigate142_$LT$impl$u20$alloc..collections..btree..node..NodeRef$LT$BorrowType$C$K$C$V$C$alloc..collections..btree..node..marker..LeafOrInternal$GT$$GT$15first_leaf_edge17hb67d545943cbc020E:
	.cfi_startproc
	pushq	%rbp
	.cfi_def_cfa_offset 16
	.cfi_offset %rbp, -16
	movq	%rsp, %rbp
	.cfi_def_cfa_register %rbp
	subq	$256, %rsp
	movq	%rdi, %rax
	movq	(%rsi), %rcx
	movq	%rcx, -232(%rbp)
	movq	8(%rsi), %rcx
	movq	%rcx, -224(%rbp)
	movq	16(%rsi), %rcx
	movq	%rcx, -216(%rbp)
	movq	%rdi, -240(%rbp)
	movq	%rax, -248(%rbp)
LBB248_1:
	movq	-232(%rbp), %rax
	movq	%rax, -176(%rbp)
	movq	-224(%rbp), %rax
	movq	%rax, -168(%rbp)
	movq	-216(%rbp), %rax
	movq	%rax, -160(%rbp)
	leaq	-208(%rbp), %rdi
	leaq	-176(%rbp), %rsi
	callq	__ZN5alloc11collections5btree4node91NodeRef$LT$BorrowType$C$K$C$V$C$alloc..collections..btree..node..marker..LeafOrInternal$GT$5force17h104b075aff6e1970E
	movq	-208(%rbp), %rax
	testq	%rax, %rax
	je	LBB248_5
	jmp	LBB248_9
LBB248_9:
	movq	-200(%rbp), %rax
	movq	%rax, -104(%rbp)
	movq	-192(%rbp), %rax
	movq	%rax, -96(%rbp)
	movq	-184(%rbp), %rax
	movq	%rax, -88(%rbp)
	movq	-104(%rbp), %rax
	movq	%rax, -24(%rbp)
	movq	-96(%rbp), %rax
	movq	%rax, -16(%rbp)
	movq	-88(%rbp), %rax
	movq	%rax, -8(%rbp)
	leaq	-56(%rbp), %rdi
	leaq	-24(%rbp), %rsi
	callq	__ZN5alloc11collections5btree4node40NodeRef$LT$BorrowType$C$K$C$V$C$Type$GT$10first_edge17hc68e7165e4c1db43E
	jmp	LBB248_7
	ud2
LBB248_5:
	movq	-200(%rbp), %rax
	movq	%rax, -152(%rbp)
	movq	-192(%rbp), %rax
	movq	%rax, -144(%rbp)
	movq	-184(%rbp), %rax
	movq	%rax, -136(%rbp)
	movq	-152(%rbp), %rax
	movq	%rax, -128(%rbp)
	movq	-144(%rbp), %rax
	movq	%rax, -120(%rbp)
	movq	-136(%rbp), %rax
	movq	%rax, -112(%rbp)
	movq	-240(%rbp), %rdi
	leaq	-128(%rbp), %rsi
	callq	__ZN5alloc11collections5btree4node40NodeRef$LT$BorrowType$C$K$C$V$C$Type$GT$10first_edge17hd7a0b58ec314da48E
	movq	-248(%rbp), %rax
	addq	$256, %rsp
	popq	%rbp
	retq
LBB248_7:
	leaq	-80(%rbp), %rdi
	leaq	-56(%rbp), %rsi
	callq	__ZN5alloc11collections5btree4node180Handle$LT$alloc..collections..btree..node..NodeRef$LT$BorrowType$C$K$C$V$C$alloc..collections..btree..node..marker..Internal$GT$$C$alloc..collections..btree..node..marker..Edge$GT$7descend17hd1e1291c8e709e36E
	movq	-80(%rbp), %rax
	movq	%rax, -232(%rbp)
	movq	-72(%rbp), %rax
	movq	%rax, -224(%rbp)
	movq	-64(%rbp), %rax
	movq	%rax, -216(%rbp)
	jmp	LBB248_1
	.cfi_endproc

	.p2align	4, 0x90
__ZN5alloc11collections5btree8navigate235_$LT$impl$u20$alloc..collections..btree..node..Handle$LT$alloc..collections..btree..node..NodeRef$LT$BorrowType$C$K$C$V$C$alloc..collections..btree..node..marker..LeafOrInternal$GT$$C$alloc..collections..btree..node..marker..KV$GT$$GT$14next_leaf_edge17hd2f798bad0a8fe0cE:
	.cfi_startproc
	pushq	%rbp
	.cfi_def_cfa_offset 16
	.cfi_offset %rbp, -16
	movq	%rsp, %rbp
	.cfi_def_cfa_register %rbp
	subq	$304, %rsp
	movq	%rdi, %rax
	movq	(%rsi), %rcx
	movq	%rcx, -248(%rbp)
	movq	8(%rsi), %rcx
	movq	%rcx, -240(%rbp)
	movq	16(%rsi), %rcx
	movq	%rcx, -232(%rbp)
	movq	24(%rsi), %rcx
	movq	%rcx, -224(%rbp)
	leaq	-288(%rbp), %rcx
	movq	%rdi, -296(%rbp)
	movq	%rcx, %rdi
	leaq	-248(%rbp), %rsi
	movq	%rax, -304(%rbp)
	callq	__ZN5alloc11collections5btree4node151Handle$LT$alloc..collections..btree..node..NodeRef$LT$BorrowType$C$K$C$V$C$alloc..collections..btree..node..marker..LeafOrInternal$GT$$C$HandleType$GT$5force17h1c0cf2e78efca545E
	movq	-288(%rbp), %rax
	testq	%rax, %rax
	je	LBB249_4
	jmp	LBB249_10
LBB249_10:
	movq	-280(%rbp), %rax
	movq	%rax, -152(%rbp)
	movq	-272(%rbp), %rax
	movq	%rax, -144(%rbp)
	movq	-264(%rbp), %rax
	movq	%rax, -136(%rbp)
	movq	-256(%rbp), %rax
	movq	%rax, -128(%rbp)
	movq	-152(%rbp), %rax
	movq	%rax, -88(%rbp)
	movq	-144(%rbp), %rax
	movq	%rax, -80(%rbp)
	movq	-136(%rbp), %rax
	movq	%rax, -72(%rbp)
	movq	-128(%rbp), %rax
	movq	%rax, -64(%rbp)
	leaq	-120(%rbp), %rdi
	leaq	-88(%rbp), %rsi
	callq	__ZN5alloc11collections5btree4node137Handle$LT$alloc..collections..btree..node..NodeRef$LT$BorrowType$C$K$C$V$C$NodeType$GT$$C$alloc..collections..btree..node..marker..KV$GT$10right_edge17hbc52ef1de43640b0E
	jmp	LBB249_6
	ud2
LBB249_4:
	movq	-280(%rbp), %rax
	movq	%rax, -216(%rbp)
	movq	-272(%rbp), %rax
	movq	%rax, -208(%rbp)
	movq	-264(%rbp), %rax
	movq	%rax, -200(%rbp)
	movq	-256(%rbp), %rax
	movq	%rax, -192(%rbp)
	movq	-216(%rbp), %rax
	movq	%rax, -184(%rbp)
	movq	-208(%rbp), %rax
	movq	%rax, -176(%rbp)
	movq	-200(%rbp), %rax
	movq	%rax, -168(%rbp)
	movq	-192(%rbp), %rax
	movq	%rax, -160(%rbp)
	movq	-296(%rbp), %rdi
	leaq	-184(%rbp), %rsi
	callq	__ZN5alloc11collections5btree4node137Handle$LT$alloc..collections..btree..node..NodeRef$LT$BorrowType$C$K$C$V$C$NodeType$GT$$C$alloc..collections..btree..node..marker..KV$GT$10right_edge17hca17b0453775095aE
	jmp	LBB249_9
LBB249_6:
	movq	-120(%rbp), %rax
	movq	%rax, -32(%rbp)
	movq	-112(%rbp), %rax
	movq	%rax, -24(%rbp)
	movq	-104(%rbp), %rax
	movq	%rax, -16(%rbp)
	movq	-96(%rbp), %rax
	movq	%rax, -8(%rbp)
	leaq	-56(%rbp), %rdi
	leaq	-32(%rbp), %rsi
	callq	__ZN5alloc11collections5btree4node180Handle$LT$alloc..collections..btree..node..NodeRef$LT$BorrowType$C$K$C$V$C$alloc..collections..btree..node..marker..Internal$GT$$C$alloc..collections..btree..node..marker..Edge$GT$7descend17hd1e1291c8e709e36E
	movq	-296(%rbp), %rdi
	leaq	-56(%rbp), %rsi
	callq	__ZN5alloc11collections5btree8navigate142_$LT$impl$u20$alloc..collections..btree..node..NodeRef$LT$BorrowType$C$K$C$V$C$alloc..collections..btree..node..marker..LeafOrInternal$GT$$GT$15first_leaf_edge17hb67d545943cbc020E
	jmp	LBB249_9
LBB249_9:
	movq	-304(%rbp), %rax
	addq	$304, %rsp
	popq	%rbp
	retq
	.cfi_endproc

	.p2align	4, 0x90
__ZN5alloc11collections5btree8navigate25next_kv_unchecked_dealloc17h6d9274c0abbff8e1E:
	.cfi_startproc
	pushq	%rbp
	.cfi_def_cfa_offset 16
	.cfi_offset %rbp, -16
	movq	%rsp, %rbp
	.cfi_def_cfa_register %rbp
	subq	$400, %rsp
	movq	%rdi, %rax
	movq	(%rsi), %rcx
	movq	%rcx, -352(%rbp)
	movq	8(%rsi), %rcx
	movq	%rcx, -344(%rbp)
	movq	16(%rsi), %rcx
	movq	%rcx, -336(%rbp)
	movq	24(%rsi), %rcx
	movq	%rcx, -328(%rbp)
	leaq	-384(%rbp), %rcx
	movq	%rdi, -392(%rbp)
	movq	%rcx, %rdi
	leaq	-352(%rbp), %rsi
	movq	%rax, -400(%rbp)
	callq	__ZN5alloc11collections5btree4node176Handle$LT$alloc..collections..btree..node..NodeRef$LT$BorrowType$C$K$C$V$C$alloc..collections..btree..node..marker..Leaf$GT$$C$alloc..collections..btree..node..marker..Edge$GT$16forget_node_type17hd47ee75038fea3f1E
	jmp	LBB250_2
LBB250_2:
	movq	-384(%rbp), %rax
	movq	%rax, -248(%rbp)
	movq	-376(%rbp), %rax
	movq	%rax, -240(%rbp)
	movq	-368(%rbp), %rax
	movq	%rax, -232(%rbp)
	movq	-360(%rbp), %rax
	movq	%rax, -224(%rbp)
	leaq	-288(%rbp), %rdi
	leaq	-248(%rbp), %rsi
	callq	__ZN5alloc11collections5btree4node139Handle$LT$alloc..collections..btree..node..NodeRef$LT$BorrowType$C$K$C$V$C$NodeType$GT$$C$alloc..collections..btree..node..marker..Edge$GT$8right_kv17hfc5aca0589bc523cE
	movq	-288(%rbp), %rax
	testq	%rax, %rax
	je	LBB250_6
	jmp	LBB250_11
LBB250_11:
	movq	-280(%rbp), %rax
	movq	%rax, -216(%rbp)
	movq	-272(%rbp), %rax
	movq	%rax, -208(%rbp)
	movq	-264(%rbp), %rax
	movq	%rax, -200(%rbp)
	movq	-256(%rbp), %rax
	movq	%rax, -192(%rbp)
	movq	-216(%rbp), %rax
	movq	%rax, -128(%rbp)
	movq	-208(%rbp), %rax
	movq	%rax, -120(%rbp)
	movq	-200(%rbp), %rax
	movq	%rax, -112(%rbp)
	movq	-192(%rbp), %rax
	movq	%rax, -104(%rbp)
	leaq	-152(%rbp), %rdi
	leaq	-128(%rbp), %rsi
	callq	__ZN5alloc11collections5btree4node25Handle$LT$Node$C$Type$GT$9into_node17h3029577b3dcf7893E
	jmp	LBB250_7
	ud2
LBB250_6:
	movq	-280(%rbp), %rax
	movq	-392(%rbp), %rcx
	movq	%rax, (%rcx)
	movq	-272(%rbp), %rax
	movq	%rax, 8(%rcx)
	movq	-264(%rbp), %rax
	movq	%rax, 16(%rcx)
	movq	-256(%rbp), %rax
	movq	%rax, 24(%rcx)
	movq	-400(%rbp), %rax
	addq	$400, %rsp
	popq	%rbp
	retq
LBB250_7:
	leaq	-184(%rbp), %rdi
	leaq	-152(%rbp), %rsi
	callq	__ZN5alloc11collections5btree4node127NodeRef$LT$alloc..collections..btree..node..marker..Owned$C$K$C$V$C$alloc..collections..btree..node..marker..LeafOrInternal$GT$21deallocate_and_ascend17he785eea08c2c6ca1E
	movq	-184(%rbp), %rax
	movq	%rax, -64(%rbp)
	movq	-176(%rbp), %rax
	movq	%rax, -56(%rbp)
	movq	-168(%rbp), %rax
	movq	%rax, -48(%rbp)
	movq	-160(%rbp), %rax
	movq	%rax, -40(%rbp)
	movq	-64(%rbp), %rax
	movq	%rax, -32(%rbp)
	movq	-56(%rbp), %rax
	movq	%rax, -24(%rbp)
	movq	-48(%rbp), %rax
	movq	%rax, -16(%rbp)
	movq	-40(%rbp), %rax
	movq	%rax, -8(%rbp)
	leaq	-96(%rbp), %rdi
	leaq	-32(%rbp), %rsi
	callq	__ZN4core6option15Option$LT$T$GT$14unwrap_or_else17he966cbf43705749bE
	leaq	-320(%rbp), %rdi
	leaq	-96(%rbp), %rsi
	callq	__ZN5alloc11collections5btree4node180Handle$LT$alloc..collections..btree..node..NodeRef$LT$BorrowType$C$K$C$V$C$alloc..collections..btree..node..marker..Internal$GT$$C$alloc..collections..btree..node..marker..Edge$GT$16forget_node_type17h1222b41c37ee5f83E
	movq	-320(%rbp), %rax
	movq	%rax, -384(%rbp)
	movq	-312(%rbp), %rax
	movq	%rax, -376(%rbp)
	movq	-304(%rbp), %rax
	movq	%rax, -368(%rbp)
	movq	-296(%rbp), %rax
	movq	%rax, -360(%rbp)
	jmp	LBB250_2
	.cfi_endproc

	.p2align	4, 0x90
__ZN5alloc11collections5btree8navigate263_$LT$impl$u20$alloc..collections..btree..node..Handle$LT$alloc..collections..btree..node..NodeRef$LT$alloc..collections..btree..node..marker..Owned$C$K$C$V$C$alloc..collections..btree..node..marker..Leaf$GT$$C$alloc..collections..btree..node..marker..Edge$GT$$GT$14next_unchecked17h14226c29959b984dE:
	.cfi_startproc
	pushq	%rbp
	.cfi_def_cfa_offset 16
	.cfi_offset %rbp, -16
	movq	%rsp, %rbp
	.cfi_def_cfa_register %rbp
	subq	$16, %rsp
	movq	%rdi, %rax
	movq	%rax, -16(%rbp)
	callq	__ZN5alloc11collections5btree8navigate7replace17h8fadc9139b7d3173E
	movq	-16(%rbp), %rax
	addq	$16, %rsp
	popq	%rbp
	retq
	.cfi_endproc

	.p2align	4, 0x90
__ZN5alloc11collections5btree8navigate263_$LT$impl$u20$alloc..collections..btree..node..Handle$LT$alloc..collections..btree..node..NodeRef$LT$alloc..collections..btree..node..marker..Owned$C$K$C$V$C$alloc..collections..btree..node..marker..Leaf$GT$$C$alloc..collections..btree..node..marker..Edge$GT$$GT$14next_unchecked28_$u7b$$u7b$closure$u7d$$u7d$17hf0b3542849692623E:
Lfunc_begin23:
	.cfi_startproc
	.cfi_personality 155, _rust_eh_personality
	.cfi_lsda 16, Lexception23
	pushq	%rbp
	.cfi_def_cfa_offset 16
	.cfi_offset %rbp, -16
	movq	%rsp, %rbp
	.cfi_def_cfa_register %rbp
	subq	$384, %rsp
	movq	%rdi, %rax
	movq	(%rsi), %rcx
	movq	%rcx, -320(%rbp)
	movq	8(%rsi), %rcx
	movq	%rcx, -312(%rbp)
	movq	16(%rsi), %rcx
	movq	%rcx, -304(%rbp)
	movq	24(%rsi), %rcx
	movq	%rcx, -296(%rbp)
	leaq	-352(%rbp), %rcx
	movq	%rdi, -360(%rbp)
	movq	%rcx, %rdi
	leaq	-320(%rbp), %rsi
	movq	%rax, -368(%rbp)
	callq	__ZN5alloc11collections5btree8navigate25next_kv_unchecked_dealloc17h6d9274c0abbff8e1E
	jmp	LBB252_2
LBB252_1:
	movq	-16(%rbp), %rdi
	callq	__Unwind_Resume
	ud2
LBB252_2:
	leaq	-264(%rbp), %rdi
	leaq	-352(%rbp), %rsi
	callq	__ZN5alloc11collections5btree4node104Handle$LT$alloc..collections..btree..node..NodeRef$LT$BorrowType$C$K$C$V$C$NodeType$GT$$C$HandleType$GT$8reborrow17h272f4e4df17bde50E
	leaq	-264(%rbp), %rdi
	callq	__ZN5alloc11collections5btree4node173Handle$LT$alloc..collections..btree..node..NodeRef$LT$alloc..collections..btree..node..marker..Immut$C$K$C$V$C$NodeType$GT$$C$alloc..collections..btree..node..marker..KV$GT$7into_kv17h61658ef2762daef0E
	movq	%rax, -376(%rbp)
	movq	-376(%rbp), %rax
	leaq	-288(%rbp), %rdi
	movq	%rax, %rsi
	callq	__ZN4core3ptr4read17hb134753eae6c6fb8E
Ltmp106:
	leaq	-208(%rbp), %rdi
	leaq	-352(%rbp), %rsi
	callq	__ZN5alloc11collections5btree4node104Handle$LT$alloc..collections..btree..node..NodeRef$LT$BorrowType$C$K$C$V$C$NodeType$GT$$C$HandleType$GT$8reborrow17h272f4e4df17bde50E
Ltmp107:
	jmp	LBB252_6
LBB252_6:
Ltmp108:
	leaq	-208(%rbp), %rdi
	callq	__ZN5alloc11collections5btree4node173Handle$LT$alloc..collections..btree..node..NodeRef$LT$alloc..collections..btree..node..marker..Immut$C$K$C$V$C$NodeType$GT$$C$alloc..collections..btree..node..marker..KV$GT$7into_kv17h61658ef2762daef0E
Ltmp109:
	movq	%rdx, -384(%rbp)
	jmp	LBB252_8
LBB252_7:
	leaq	-288(%rbp), %rdi
	callq	__ZN4core3ptr13drop_in_place17h8f49ee857e99fd1dE
	jmp	LBB252_1
LBB252_8:
Ltmp110:
	leaq	-232(%rbp), %rdi
	movq	-384(%rbp), %rsi
	callq	__ZN4core3ptr4read17h8f804ed93c4e0c4cE
Ltmp111:
	jmp	LBB252_9
LBB252_9:
	movq	-328(%rbp), %rax
	movq	%rax, -120(%rbp)
	movq	-336(%rbp), %rax
	movq	%rax, -128(%rbp)
	movq	-352(%rbp), %rax
	movq	-344(%rbp), %rcx
	movq	%rcx, -136(%rbp)
	movq	%rax, -144(%rbp)
Ltmp113:
	leaq	-176(%rbp), %rdi
	leaq	-144(%rbp), %rsi
	callq	__ZN5alloc11collections5btree8navigate235_$LT$impl$u20$alloc..collections..btree..node..Handle$LT$alloc..collections..btree..node..NodeRef$LT$BorrowType$C$K$C$V$C$alloc..collections..btree..node..marker..LeafOrInternal$GT$$C$alloc..collections..btree..node..marker..KV$GT$$GT$14next_leaf_edge17hd2f798bad0a8fe0cE
Ltmp114:
	jmp	LBB252_10
LBB252_10:
	movq	-288(%rbp), %rax
	movq	%rax, -64(%rbp)
	movq	-280(%rbp), %rax
	movq	%rax, -56(%rbp)
	movq	-272(%rbp), %rax
	movq	%rax, -48(%rbp)
	movq	-232(%rbp), %rax
	movq	%rax, -40(%rbp)
	movq	-224(%rbp), %rax
	movq	%rax, -32(%rbp)
	movq	-216(%rbp), %rax
	movq	%rax, -24(%rbp)
	movq	-64(%rbp), %rax
	movq	%rax, -112(%rbp)
	movq	-56(%rbp), %rax
	movq	%rax, -104(%rbp)
	movq	-48(%rbp), %rax
	movq	%rax, -96(%rbp)
	movq	-40(%rbp), %rax
	movq	%rax, -88(%rbp)
	movq	-32(%rbp), %rax
	movq	%rax, -80(%rbp)
	movq	-24(%rbp), %rax
	movq	%rax, -72(%rbp)
	movq	-176(%rbp), %rax
	movq	-360(%rbp), %rcx
	movq	%rax, (%rcx)
	movq	-168(%rbp), %rax
	movq	%rax, 8(%rcx)
	movq	-160(%rbp), %rax
	movq	%rax, 16(%rcx)
	movq	-152(%rbp), %rax
	movq	%rax, 24(%rcx)
	addq	$32, %rcx
	leaq	-112(%rbp), %rax
	movq	%rcx, %rdi
	movq	%rax, %rsi
	movl	$48, %edx
	callq	_memcpy
	movq	-368(%rbp), %rax
	addq	$384, %rsp
	popq	%rbp
	retq
LBB252_11:
	leaq	-232(%rbp), %rdi
	callq	__ZN4core3ptr13drop_in_place17hc1b96bddf94c16efE
	jmp	LBB252_7
LBB252_12:
Ltmp112:
	movq	%rax, -16(%rbp)
	movl	%edx, -8(%rbp)
	jmp	LBB252_7
LBB252_13:
Ltmp115:
	movq	%rax, -16(%rbp)
	movl	%edx, -8(%rbp)
	jmp	LBB252_11
Lfunc_end23:
	.cfi_endproc
	.section	__TEXT,__gcc_except_tab
	.p2align	2
GCC_except_table252:
Lexception23:
	.byte	255
	.byte	255
	.byte	1
	.uleb128 Lcst_end23-Lcst_begin23
Lcst_begin23:
	.uleb128 Lfunc_begin23-Lfunc_begin23
	.uleb128 Ltmp106-Lfunc_begin23
	.byte	0
	.byte	0
	.uleb128 Ltmp106-Lfunc_begin23
	.uleb128 Ltmp109-Ltmp106
	.uleb128 Ltmp112-Lfunc_begin23
	.byte	0
	.uleb128 Ltmp109-Lfunc_begin23
	.uleb128 Ltmp110-Ltmp109
	.byte	0
	.byte	0
	.uleb128 Ltmp110-Lfunc_begin23
	.uleb128 Ltmp111-Ltmp110
	.uleb128 Ltmp112-Lfunc_begin23
	.byte	0
	.uleb128 Ltmp113-Lfunc_begin23
	.uleb128 Ltmp114-Ltmp113
	.uleb128 Ltmp115-Lfunc_begin23
	.byte	0
	.uleb128 Ltmp114-Lfunc_begin23
	.uleb128 Lfunc_end23-Ltmp114
	.byte	0
	.byte	0
Lcst_end23:
	.p2align	2

	.section	__TEXT,__text,regular,pure_instructions
	.p2align	4, 0x90
__ZN5alloc11collections5btree8navigate7replace17h8fadc9139b7d3173E:
Lfunc_begin24:
	.cfi_startproc
	.cfi_personality 155, _rust_eh_personality
	.cfi_lsda 16, Lexception24
	pushq	%rbp
	.cfi_def_cfa_offset 16
	.cfi_offset %rbp, -16
	movq	%rsp, %rbp
	.cfi_def_cfa_register %rbp
	subq	$288, %rsp
	movq	%rdi, %rax
	movb	$0, -17(%rbp)
	movb	$0, -18(%rbp)
	movb	$1, -18(%rbp)
Ltmp116:
	leaq	-264(%rbp), %rcx
	movq	%rdi, -272(%rbp)
	movq	%rcx, %rdi
	movq	%rsi, -280(%rbp)
	movq	%rax, -288(%rbp)
	callq	__ZN4core3ptr4read17hd6b8dede9d09c7b2E
Ltmp117:
	jmp	LBB253_2
LBB253_1:
	movq	-16(%rbp), %rdi
	callq	__Unwind_Resume
	ud2
LBB253_2:
	movb	$0, -18(%rbp)
	movq	-240(%rbp), %rax
	movq	%rax, -64(%rbp)
	movq	-248(%rbp), %rax
	movq	%rax, -72(%rbp)
	movq	-264(%rbp), %rax
	movq	-256(%rbp), %rcx
	movq	%rcx, -80(%rbp)
	movq	%rax, -88(%rbp)
	movq	-64(%rbp), %rax
	movq	%rax, -96(%rbp)
	movq	-72(%rbp), %rax
	movq	%rax, -104(%rbp)
	movq	-88(%rbp), %rax
	movq	-80(%rbp), %rcx
	movq	%rcx, -112(%rbp)
	movq	%rax, -120(%rbp)
Ltmp118:
	leaq	-200(%rbp), %rdi
	leaq	-120(%rbp), %rsi
	callq	__ZN5alloc11collections5btree8navigate263_$LT$impl$u20$alloc..collections..btree..node..Handle$LT$alloc..collections..btree..node..NodeRef$LT$alloc..collections..btree..node..marker..Owned$C$K$C$V$C$alloc..collections..btree..node..marker..Leaf$GT$$C$alloc..collections..btree..node..marker..Edge$GT$$GT$14next_unchecked28_$u7b$$u7b$closure$u7d$$u7d$17hf0b3542849692623E
Ltmp119:
	jmp	LBB253_3
LBB253_3:
	movb	$1, -17(%rbp)
	movq	-176(%rbp), %rax
	movq	%rax, -208(%rbp)
	movq	-184(%rbp), %rax
	movq	%rax, -216(%rbp)
	movq	-200(%rbp), %rax
	movq	-192(%rbp), %rcx
	movq	%rcx, -224(%rbp)
	movq	%rax, -232(%rbp)
	movq	-128(%rbp), %rax
	movq	-272(%rbp), %rcx
	movq	%rax, 40(%rcx)
	movq	-136(%rbp), %rax
	movq	%rax, 32(%rcx)
	movq	-144(%rbp), %rax
	movq	%rax, 24(%rcx)
	movq	-152(%rbp), %rax
	movq	%rax, 16(%rcx)
	movq	-168(%rbp), %rax
	movq	-160(%rbp), %rdx
	movq	%rdx, 8(%rcx)
	movq	%rax, (%rcx)
	movb	$0, -17(%rbp)
	movq	-208(%rbp), %rax
	movq	%rax, -32(%rbp)
	movq	-216(%rbp), %rax
	movq	%rax, -40(%rbp)
	movq	-232(%rbp), %rax
	movq	-224(%rbp), %rdx
	movq	%rdx, -48(%rbp)
	movq	%rax, -56(%rbp)
Ltmp121:
	leaq	-56(%rbp), %rsi
	movq	-280(%rbp), %rdi
	callq	__ZN4core3ptr5write17hd2b3ddb103399c8eE
Ltmp122:
	jmp	LBB253_5
LBB253_4:
	testb	$1, -17(%rbp)
	jne	LBB253_9
	jmp	LBB253_8
LBB253_5:
	movb	$0, -17(%rbp)
	movq	-288(%rbp), %rax
	addq	$288, %rsp
	popq	%rbp
	retq
LBB253_6:
	movq	-272(%rbp), %rdi
	callq	__ZN4core3ptr13drop_in_place17h8dc37b7293308628E
	jmp	LBB253_4
LBB253_7:
	movb	$0, -18(%rbp)
	jmp	LBB253_1
LBB253_8:
	testb	$1, -18(%rbp)
	jne	LBB253_7
	jmp	LBB253_1
LBB253_9:
	movb	$0, -17(%rbp)
	jmp	LBB253_8
LBB253_10:
Ltmp120:
	movq	%rax, -16(%rbp)
	movl	%edx, -8(%rbp)
	jmp	LBB253_8
LBB253_11:
Ltmp123:
	movq	%rax, -16(%rbp)
	movl	%edx, -8(%rbp)
	jmp	LBB253_6
Lfunc_end24:
	.cfi_endproc
	.section	__TEXT,__gcc_except_tab
	.p2align	2
GCC_except_table253:
Lexception24:
	.byte	255
	.byte	255
	.byte	1
	.uleb128 Lcst_end24-Lcst_begin24
Lcst_begin24:
	.uleb128 Ltmp116-Lfunc_begin24
	.uleb128 Ltmp117-Ltmp116
	.uleb128 Ltmp120-Lfunc_begin24
	.byte	0
	.uleb128 Ltmp117-Lfunc_begin24
	.uleb128 Ltmp118-Ltmp117
	.byte	0
	.byte	0
	.uleb128 Ltmp118-Lfunc_begin24
	.uleb128 Ltmp119-Ltmp118
	.uleb128 Ltmp120-Lfunc_begin24
	.byte	0
	.uleb128 Ltmp121-Lfunc_begin24
	.uleb128 Ltmp122-Ltmp121
	.uleb128 Ltmp123-Lfunc_begin24
	.byte	0
	.uleb128 Ltmp122-Lfunc_begin24
	.uleb128 Lfunc_end24-Ltmp122
	.byte	0
	.byte	0
Lcst_end24:
	.p2align	2

	.section	__TEXT,__text,regular,pure_instructions
	.p2align	4, 0x90
__ZN5alloc3vec12Vec$LT$T$GT$10as_mut_ptr17h0363f8033d1f4057E:
	.cfi_startproc
	pushq	%rbp
	.cfi_def_cfa_offset 16
	.cfi_offset %rbp, -16
	movq	%rsp, %rbp
	.cfi_def_cfa_register %rbp
	subq	$16, %rsp
	callq	__ZN5alloc7raw_vec19RawVec$LT$T$C$A$GT$3ptr17hea14f8fae9453435E
	movq	%rax, -8(%rbp)
	movq	-8(%rbp), %rdi
	callq	__ZN4core3ptr7mut_ptr31_$LT$impl$u20$$BP$mut$u20$T$GT$7is_null17h8a455b2d84ba4f90E
	movq	-8(%rbp), %rax
	addq	$16, %rsp
	popq	%rbp
	retq
	.cfi_endproc

	.p2align	4, 0x90
__ZN5alloc3vec12Vec$LT$T$GT$10as_mut_ptr17h3611789fe9679728E:
	.cfi_startproc
	pushq	%rbp
	.cfi_def_cfa_offset 16
	.cfi_offset %rbp, -16
	movq	%rsp, %rbp
	.cfi_def_cfa_register %rbp
	subq	$16, %rsp
	callq	__ZN5alloc7raw_vec19RawVec$LT$T$C$A$GT$3ptr17hc5d9c4cbdd814a07E
	movq	%rax, -8(%rbp)
	movq	-8(%rbp), %rdi
	callq	__ZN4core3ptr7mut_ptr31_$LT$impl$u20$$BP$mut$u20$T$GT$7is_null17hcd8281e7b3ff5cd2E
	movq	-8(%rbp), %rax
	addq	$16, %rsp
	popq	%rbp
	retq
	.cfi_endproc

	.p2align	4, 0x90
__ZN5alloc3vec12Vec$LT$T$GT$10as_mut_ptr17h5c05fad959961fddE:
	.cfi_startproc
	pushq	%rbp
	.cfi_def_cfa_offset 16
	.cfi_offset %rbp, -16
	movq	%rsp, %rbp
	.cfi_def_cfa_register %rbp
	subq	$16, %rsp
	callq	__ZN5alloc7raw_vec19RawVec$LT$T$C$A$GT$3ptr17hf3d1d0d6ff4f08f0E
	movq	%rax, -8(%rbp)
	movq	-8(%rbp), %rdi
	callq	__ZN4core3ptr7mut_ptr31_$LT$impl$u20$$BP$mut$u20$T$GT$7is_null17hd7b4ca65b6e1390dE
	movq	-8(%rbp), %rax
	addq	$16, %rsp
	popq	%rbp
	retq
	.cfi_endproc

	.p2align	4, 0x90
__ZN5alloc3vec12Vec$LT$T$GT$10as_mut_ptr17h75de812cc0c4cbcbE:
	.cfi_startproc
	pushq	%rbp
	.cfi_def_cfa_offset 16
	.cfi_offset %rbp, -16
	movq	%rsp, %rbp
	.cfi_def_cfa_register %rbp
	subq	$16, %rsp
	callq	__ZN5alloc7raw_vec19RawVec$LT$T$C$A$GT$3ptr17h0951cd6cd816bb39E
	movq	%rax, -8(%rbp)
	movq	-8(%rbp), %rdi
	callq	__ZN4core3ptr7mut_ptr31_$LT$impl$u20$$BP$mut$u20$T$GT$7is_null17h316ef7415bda9414E
	movq	-8(%rbp), %rax
	addq	$16, %rsp
	popq	%rbp
	retq
	.cfi_endproc

	.p2align	4, 0x90
__ZN5alloc3vec12Vec$LT$T$GT$6as_ptr17hf242cdc6c0bc293aE:
	.cfi_startproc
	pushq	%rbp
	.cfi_def_cfa_offset 16
	.cfi_offset %rbp, -16
	movq	%rsp, %rbp
	.cfi_def_cfa_register %rbp
	subq	$16, %rsp
	callq	__ZN5alloc7raw_vec19RawVec$LT$T$C$A$GT$3ptr17hf3d1d0d6ff4f08f0E
	movq	%rax, -8(%rbp)
	movq	-8(%rbp), %rdi
	callq	__ZN4core3ptr7mut_ptr31_$LT$impl$u20$$BP$mut$u20$T$GT$7is_null17hd7b4ca65b6e1390dE
	movq	-8(%rbp), %rax
	addq	$16, %rsp
	popq	%rbp
	retq
	.cfi_endproc

	.p2align	4, 0x90
__ZN5alloc5alloc7dealloc17h72260a54556a1f0bE:
	.cfi_startproc
	pushq	%rbp
	.cfi_def_cfa_offset 16
	.cfi_offset %rbp, -16
	movq	%rsp, %rbp
	.cfi_def_cfa_register %rbp
	subq	$48, %rsp
	movq	%rsi, -16(%rbp)
	movq	%rdx, -8(%rbp)
	leaq	-16(%rbp), %rax
	movq	%rdi, -24(%rbp)
	movq	%rax, %rdi
	callq	__ZN4core5alloc6layout6Layout4size17h778667ef2343755aE
	movq	%rax, -32(%rbp)
	leaq	-16(%rbp), %rdi
	callq	__ZN4core5alloc6layout6Layout5align17ha469f4c24af938acE
	movq	%rax, -40(%rbp)
	movq	-24(%rbp), %rdi
	movq	-32(%rbp), %rsi
	movq	-40(%rbp), %rdx
	callq	___rust_dealloc
	addq	$48, %rsp
	popq	%rbp
	retq
	.cfi_endproc

	.p2align	4, 0x90
__ZN5alloc5alloc8box_free17h2db291581855120aE:
	.cfi_startproc
	pushq	%rbp
	.cfi_def_cfa_offset 16
	.cfi_offset %rbp, -16
	movq	%rsp, %rbp
	.cfi_def_cfa_register %rbp
	subq	$112, %rsp
	movq	%rdi, -40(%rbp)
	movq	%rsi, -32(%rbp)
	leaq	-40(%rbp), %rdi
	callq	__ZN4core3ptr6unique15Unique$LT$T$GT$6as_ref17hb746b270e4687d0dE
	movq	%rdx, -48(%rbp)
	movq	-48(%rbp), %rax
	movq	8(%rax), %rcx
	movq	%rcx, -16(%rbp)
	movq	-16(%rbp), %rdi
	movq	%rdi, -56(%rbp)
	leaq	-40(%rbp), %rdi
	callq	__ZN4core3ptr6unique15Unique$LT$T$GT$6as_ref17hb746b270e4687d0dE
	movq	%rdx, -64(%rbp)
	movq	-64(%rbp), %rax
	movq	16(%rax), %rcx
	movq	%rcx, -8(%rbp)
	movq	-8(%rbp), %rsi
	movq	%rsi, -72(%rbp)
	movq	-56(%rbp), %rdi
	movq	-72(%rbp), %rsi
	callq	__ZN4core5alloc6layout6Layout25from_size_align_unchecked17he5bac47b2beaea7cE
	movq	%rax, -80(%rbp)
	movq	%rdx, -88(%rbp)
	movq	-40(%rbp), %rdi
	movq	-32(%rbp), %rsi
	callq	__ZN4core3ptr6unique15Unique$LT$T$GT$4cast17hf63a7c942d36a02cE
	movq	%rax, -96(%rbp)
	movq	-96(%rbp), %rdi
	callq	__ZN50_$LT$T$u20$as$u20$core..convert..Into$LT$U$GT$$GT$4into17hd06244cc868c6cd1E
	movq	%rax, -104(%rbp)
	leaq	-24(%rbp), %rdi
	movq	-104(%rbp), %rsi
	movq	-80(%rbp), %rdx
	movq	-88(%rbp), %rcx
	callq	__ZN62_$LT$alloc..alloc..Global$u20$as$u20$core..alloc..AllocRef$GT$7dealloc17h77cfe395d0912da5E
	addq	$112, %rsp
	popq	%rbp
	retq
	.cfi_endproc

	.p2align	4, 0x90
__ZN5alloc5alloc8box_free17h3b94c0b8f3b67ff8E:
	.cfi_startproc
	pushq	%rbp
	.cfi_def_cfa_offset 16
	.cfi_offset %rbp, -16
	movq	%rsp, %rbp
	.cfi_def_cfa_register %rbp
	subq	$96, %rsp
	movq	%rdi, -40(%rbp)
	movq	%rsi, -32(%rbp)
	leaq	-40(%rbp), %rdi
	callq	__ZN4core3ptr6unique15Unique$LT$T$GT$6as_ref17h9aa207433e810da3E
	movq	%rdx, -48(%rbp)
	movq	-48(%rbp), %rax
	shlq	$0, %rax
	movq	%rax, -16(%rbp)
	movq	-16(%rbp), %rdi
	movq	%rdi, -56(%rbp)
	leaq	-40(%rbp), %rdi
	callq	__ZN4core3ptr6unique15Unique$LT$T$GT$6as_ref17h9aa207433e810da3E
	movq	$1, -8(%rbp)
	movq	-8(%rbp), %rsi
	movq	%rsi, -64(%rbp)
	movq	-56(%rbp), %rdi
	movq	-64(%rbp), %rsi
	callq	__ZN4core5alloc6layout6Layout25from_size_align_unchecked17he5bac47b2beaea7cE
	movq	%rax, -72(%rbp)
	movq	%rdx, -80(%rbp)
	movq	-40(%rbp), %rdi
	movq	-32(%rbp), %rsi
	callq	__ZN4core3ptr6unique15Unique$LT$T$GT$4cast17h17d5c94fa1ff3a1bE
	movq	%rax, -88(%rbp)
	movq	-88(%rbp), %rdi
	callq	__ZN50_$LT$T$u20$as$u20$core..convert..Into$LT$U$GT$$GT$4into17hd06244cc868c6cd1E
	movq	%rax, -96(%rbp)
	leaq	-24(%rbp), %rdi
	movq	-96(%rbp), %rsi
	movq	-72(%rbp), %rdx
	movq	-80(%rbp), %rcx
	callq	__ZN62_$LT$alloc..alloc..Global$u20$as$u20$core..alloc..AllocRef$GT$7dealloc17h77cfe395d0912da5E
	addq	$96, %rsp
	popq	%rbp
	retq
	.cfi_endproc

	.p2align	4, 0x90
__ZN5alloc5alloc8box_free17h875e01b9fbdb041dE:
	.cfi_startproc
	pushq	%rbp
	.cfi_def_cfa_offset 16
	.cfi_offset %rbp, -16
	movq	%rsp, %rbp
	.cfi_def_cfa_register %rbp
	subq	$80, %rsp
	movq	%rdi, -32(%rbp)
	leaq	-32(%rbp), %rdi
	callq	__ZN4core3ptr6unique15Unique$LT$T$GT$6as_ref17h41faaa652fb5000cE
	movq	$24, -16(%rbp)
	movq	-16(%rbp), %rdi
	movq	%rdi, -40(%rbp)
	leaq	-32(%rbp), %rdi
	callq	__ZN4core3ptr6unique15Unique$LT$T$GT$6as_ref17h41faaa652fb5000cE
	movq	$8, -8(%rbp)
	movq	-8(%rbp), %rsi
	movq	%rsi, -48(%rbp)
	movq	-40(%rbp), %rdi
	movq	-48(%rbp), %rsi
	callq	__ZN4core5alloc6layout6Layout25from_size_align_unchecked17he5bac47b2beaea7cE
	movq	%rax, -56(%rbp)
	movq	%rdx, -64(%rbp)
	movq	-32(%rbp), %rdi
	callq	__ZN4core3ptr6unique15Unique$LT$T$GT$4cast17h9fd269084318cf96E
	movq	%rax, -72(%rbp)
	movq	-72(%rbp), %rdi
	callq	__ZN50_$LT$T$u20$as$u20$core..convert..Into$LT$U$GT$$GT$4into17hd06244cc868c6cd1E
	movq	%rax, -80(%rbp)
	leaq	-24(%rbp), %rdi
	movq	-80(%rbp), %rsi
	movq	-56(%rbp), %rdx
	movq	-64(%rbp), %rcx
	callq	__ZN62_$LT$alloc..alloc..Global$u20$as$u20$core..alloc..AllocRef$GT$7dealloc17h77cfe395d0912da5E
	addq	$80, %rsp
	popq	%rbp
	retq
	.cfi_endproc

	.p2align	4, 0x90
__ZN5alloc5alloc8box_free17hc2d95083d4ba9873E:
	.cfi_startproc
	pushq	%rbp
	.cfi_def_cfa_offset 16
	.cfi_offset %rbp, -16
	movq	%rsp, %rbp
	.cfi_def_cfa_register %rbp
	subq	$112, %rsp
	movq	%rdi, -40(%rbp)
	movq	%rsi, -32(%rbp)
	leaq	-40(%rbp), %rdi
	callq	__ZN4core3ptr6unique15Unique$LT$T$GT$6as_ref17h33211979eb88cbb9E
	movq	%rdx, -48(%rbp)
	movq	-48(%rbp), %rax
	movq	8(%rax), %rcx
	movq	%rcx, -16(%rbp)
	movq	-16(%rbp), %rdi
	movq	%rdi, -56(%rbp)
	leaq	-40(%rbp), %rdi
	callq	__ZN4core3ptr6unique15Unique$LT$T$GT$6as_ref17h33211979eb88cbb9E
	movq	%rdx, -64(%rbp)
	movq	-64(%rbp), %rax
	movq	16(%rax), %rcx
	movq	%rcx, -8(%rbp)
	movq	-8(%rbp), %rsi
	movq	%rsi, -72(%rbp)
	movq	-56(%rbp), %rdi
	movq	-72(%rbp), %rsi
	callq	__ZN4core5alloc6layout6Layout25from_size_align_unchecked17he5bac47b2beaea7cE
	movq	%rax, -80(%rbp)
	movq	%rdx, -88(%rbp)
	movq	-40(%rbp), %rdi
	movq	-32(%rbp), %rsi
	callq	__ZN4core3ptr6unique15Unique$LT$T$GT$4cast17h2b735ae24c6ea772E
	movq	%rax, -96(%rbp)
	movq	-96(%rbp), %rdi
	callq	__ZN50_$LT$T$u20$as$u20$core..convert..Into$LT$U$GT$$GT$4into17hd06244cc868c6cd1E
	movq	%rax, -104(%rbp)
	leaq	-24(%rbp), %rdi
	movq	-104(%rbp), %rsi
	movq	-80(%rbp), %rdx
	movq	-88(%rbp), %rcx
	callq	__ZN62_$LT$alloc..alloc..Global$u20$as$u20$core..alloc..AllocRef$GT$7dealloc17h77cfe395d0912da5E
	addq	$112, %rsp
	popq	%rbp
	retq
	.cfi_endproc

	.p2align	4, 0x90
__ZN5alloc7raw_vec19RawVec$LT$T$C$A$GT$14current_memory17h154579ab6b0fbb8bE:
	.cfi_startproc
	pushq	%rbp
	.cfi_def_cfa_offset 16
	.cfi_offset %rbp, -16
	movq	%rsp, %rbp
	.cfi_def_cfa_register %rbp
	subq	$144, %rsp
	movq	%rdi, %rax
	movq	$1, -24(%rbp)
	movq	-24(%rbp), %rcx
	movq	%rsi, -64(%rbp)
	movq	%rdi, -72(%rbp)
	movq	%rax, -80(%rbp)
	movq	%rcx, -88(%rbp)
	jmp	LBB264_5
LBB264_1:
	movb	$1, -49(%rbp)
	jmp	LBB264_4
LBB264_2:
	movb	$0, -49(%rbp)
	jmp	LBB264_4
LBB264_3:
	movq	-64(%rbp), %rax
	cmpq	$0, 8(%rax)
	je	LBB264_1
	jmp	LBB264_2
LBB264_4:
	testb	$1, -49(%rbp)
	jne	LBB264_7
	jmp	LBB264_6
LBB264_5:
	movq	-88(%rbp), %rax
	cmpq	$0, %rax
	je	LBB264_1
	jmp	LBB264_3
LBB264_6:
	movq	$1, -16(%rbp)
	movq	-16(%rbp), %rsi
	movq	%rsi, -96(%rbp)
	jmp	LBB264_8
LBB264_7:
	movq	-72(%rbp), %rax
	movq	$0, (%rax)
	jmp	LBB264_13
LBB264_8:
	movq	$1, -8(%rbp)
	movq	-8(%rbp), %rax
	movq	%rax, -104(%rbp)
	movq	-104(%rbp), %rax
	movq	-64(%rbp), %rcx
	imulq	8(%rcx), %rax
	movq	%rax, %rdi
	movq	-96(%rbp), %rsi
	callq	__ZN4core5alloc6layout6Layout25from_size_align_unchecked17he5bac47b2beaea7cE
	movq	%rax, -112(%rbp)
	movq	%rdx, -120(%rbp)
	movq	-64(%rbp), %rax
	movq	(%rax), %rdi
	callq	__ZN4core3ptr6unique15Unique$LT$T$GT$4cast17hba3d5ec1e4589ec5E
	movq	%rax, -128(%rbp)
	movq	-128(%rbp), %rdi
	callq	__ZN50_$LT$T$u20$as$u20$core..convert..Into$LT$U$GT$$GT$4into17hd06244cc868c6cd1E
	movq	%rax, -136(%rbp)
	movq	-136(%rbp), %rax
	movq	%rax, -48(%rbp)
	movq	-112(%rbp), %rcx
	movq	%rcx, -40(%rbp)
	movq	-120(%rbp), %rdx
	movq	%rdx, -32(%rbp)
	movq	-48(%rbp), %rsi
	movq	-72(%rbp), %rdi
	movq	%rsi, (%rdi)
	movq	-40(%rbp), %rsi
	movq	%rsi, 8(%rdi)
	movq	-32(%rbp), %rsi
	movq	%rsi, 16(%rdi)
LBB264_13:
	movq	-80(%rbp), %rax
	addq	$144, %rsp
	popq	%rbp
	retq
	.cfi_endproc

	.p2align	4, 0x90
__ZN5alloc7raw_vec19RawVec$LT$T$C$A$GT$14current_memory17haac57b2af954c28cE:
	.cfi_startproc
	pushq	%rbp
	.cfi_def_cfa_offset 16
	.cfi_offset %rbp, -16
	movq	%rsp, %rbp
	.cfi_def_cfa_register %rbp
	subq	$144, %rsp
	movq	%rdi, %rax
	movq	$16, -24(%rbp)
	movq	-24(%rbp), %rcx
	movq	%rsi, -64(%rbp)
	movq	%rdi, -72(%rbp)
	movq	%rax, -80(%rbp)
	movq	%rcx, -88(%rbp)
	jmp	LBB265_5
LBB265_1:
	movb	$1, -49(%rbp)
	jmp	LBB265_4
LBB265_2:
	movb	$0, -49(%rbp)
	jmp	LBB265_4
LBB265_3:
	movq	-64(%rbp), %rax
	cmpq	$0, 8(%rax)
	je	LBB265_1
	jmp	LBB265_2
LBB265_4:
	testb	$1, -49(%rbp)
	jne	LBB265_7
	jmp	LBB265_6
LBB265_5:
	movq	-88(%rbp), %rax
	cmpq	$0, %rax
	je	LBB265_1
	jmp	LBB265_3
LBB265_6:
	movq	$8, -16(%rbp)
	movq	-16(%rbp), %rsi
	movq	%rsi, -96(%rbp)
	jmp	LBB265_8
LBB265_7:
	movq	-72(%rbp), %rax
	movq	$0, (%rax)
	jmp	LBB265_13
LBB265_8:
	movq	$16, -8(%rbp)
	movq	-8(%rbp), %rax
	movq	%rax, -104(%rbp)
	movq	-104(%rbp), %rax
	movq	-64(%rbp), %rcx
	imulq	8(%rcx), %rax
	movq	%rax, %rdi
	movq	-96(%rbp), %rsi
	callq	__ZN4core5alloc6layout6Layout25from_size_align_unchecked17he5bac47b2beaea7cE
	movq	%rax, -112(%rbp)
	movq	%rdx, -120(%rbp)
	movq	-64(%rbp), %rax
	movq	(%rax), %rdi
	callq	__ZN4core3ptr6unique15Unique$LT$T$GT$4cast17h980420a2f7b34251E
	movq	%rax, -128(%rbp)
	movq	-128(%rbp), %rdi
	callq	__ZN50_$LT$T$u20$as$u20$core..convert..Into$LT$U$GT$$GT$4into17hd06244cc868c6cd1E
	movq	%rax, -136(%rbp)
	movq	-136(%rbp), %rax
	movq	%rax, -48(%rbp)
	movq	-112(%rbp), %rcx
	movq	%rcx, -40(%rbp)
	movq	-120(%rbp), %rdx
	movq	%rdx, -32(%rbp)
	movq	-48(%rbp), %rsi
	movq	-72(%rbp), %rdi
	movq	%rsi, (%rdi)
	movq	-40(%rbp), %rsi
	movq	%rsi, 8(%rdi)
	movq	-32(%rbp), %rsi
	movq	%rsi, 16(%rdi)
LBB265_13:
	movq	-80(%rbp), %rax
	addq	$144, %rsp
	popq	%rbp
	retq
	.cfi_endproc

	.p2align	4, 0x90
__ZN5alloc7raw_vec19RawVec$LT$T$C$A$GT$14current_memory17hc642fc9dcb4af245E:
	.cfi_startproc
	pushq	%rbp
	.cfi_def_cfa_offset 16
	.cfi_offset %rbp, -16
	movq	%rsp, %rbp
	.cfi_def_cfa_register %rbp
	subq	$144, %rsp
	movq	%rdi, %rax
	movq	$16, -24(%rbp)
	movq	-24(%rbp), %rcx
	movq	%rsi, -64(%rbp)
	movq	%rdi, -72(%rbp)
	movq	%rax, -80(%rbp)
	movq	%rcx, -88(%rbp)
	jmp	LBB266_5
LBB266_1:
	movb	$1, -49(%rbp)
	jmp	LBB266_4
LBB266_2:
	movb	$0, -49(%rbp)
	jmp	LBB266_4
LBB266_3:
	movq	-64(%rbp), %rax
	cmpq	$0, 8(%rax)
	je	LBB266_1
	jmp	LBB266_2
LBB266_4:
	testb	$1, -49(%rbp)
	jne	LBB266_7
	jmp	LBB266_6
LBB266_5:
	movq	-88(%rbp), %rax
	cmpq	$0, %rax
	je	LBB266_1
	jmp	LBB266_3
LBB266_6:
	movq	$8, -16(%rbp)
	movq	-16(%rbp), %rsi
	movq	%rsi, -96(%rbp)
	jmp	LBB266_8
LBB266_7:
	movq	-72(%rbp), %rax
	movq	$0, (%rax)
	jmp	LBB266_13
LBB266_8:
	movq	$16, -8(%rbp)
	movq	-8(%rbp), %rax
	movq	%rax, -104(%rbp)
	movq	-104(%rbp), %rax
	movq	-64(%rbp), %rcx
	imulq	8(%rcx), %rax
	movq	%rax, %rdi
	movq	-96(%rbp), %rsi
	callq	__ZN4core5alloc6layout6Layout25from_size_align_unchecked17he5bac47b2beaea7cE
	movq	%rax, -112(%rbp)
	movq	%rdx, -120(%rbp)
	movq	-64(%rbp), %rax
	movq	(%rax), %rdi
	callq	__ZN4core3ptr6unique15Unique$LT$T$GT$4cast17h39149073491f18e1E
	movq	%rax, -128(%rbp)
	movq	-128(%rbp), %rdi
	callq	__ZN50_$LT$T$u20$as$u20$core..convert..Into$LT$U$GT$$GT$4into17hd06244cc868c6cd1E
	movq	%rax, -136(%rbp)
	movq	-136(%rbp), %rax
	movq	%rax, -48(%rbp)
	movq	-112(%rbp), %rcx
	movq	%rcx, -40(%rbp)
	movq	-120(%rbp), %rdx
	movq	%rdx, -32(%rbp)
	movq	-48(%rbp), %rsi
	movq	-72(%rbp), %rdi
	movq	%rsi, (%rdi)
	movq	-40(%rbp), %rsi
	movq	%rsi, 8(%rdi)
	movq	-32(%rbp), %rsi
	movq	%rsi, 16(%rdi)
LBB266_13:
	movq	-80(%rbp), %rax
	addq	$144, %rsp
	popq	%rbp
	retq
	.cfi_endproc

	.p2align	4, 0x90
__ZN5alloc7raw_vec19RawVec$LT$T$C$A$GT$14current_memory17hf01a1fe972f0c20fE:
	.cfi_startproc
	pushq	%rbp
	.cfi_def_cfa_offset 16
	.cfi_offset %rbp, -16
	movq	%rsp, %rbp
	.cfi_def_cfa_register %rbp
	subq	$144, %rsp
	movq	%rdi, %rax
	movq	$8, -24(%rbp)
	movq	-24(%rbp), %rcx
	movq	%rsi, -64(%rbp)
	movq	%rdi, -72(%rbp)
	movq	%rax, -80(%rbp)
	movq	%rcx, -88(%rbp)
	jmp	LBB267_5
LBB267_1:
	movb	$1, -49(%rbp)
	jmp	LBB267_4
LBB267_2:
	movb	$0, -49(%rbp)
	jmp	LBB267_4
LBB267_3:
	movq	-64(%rbp), %rax
	cmpq	$0, 8(%rax)
	je	LBB267_1
	jmp	LBB267_2
LBB267_4:
	testb	$1, -49(%rbp)
	jne	LBB267_7
	jmp	LBB267_6
LBB267_5:
	movq	-88(%rbp), %rax
	cmpq	$0, %rax
	je	LBB267_1
	jmp	LBB267_3
LBB267_6:
	movq	$8, -16(%rbp)
	movq	-16(%rbp), %rsi
	movq	%rsi, -96(%rbp)
	jmp	LBB267_8
LBB267_7:
	movq	-72(%rbp), %rax
	movq	$0, (%rax)
	jmp	LBB267_13
LBB267_8:
	movq	$8, -8(%rbp)
	movq	-8(%rbp), %rax
	movq	%rax, -104(%rbp)
	movq	-104(%rbp), %rax
	movq	-64(%rbp), %rcx
	imulq	8(%rcx), %rax
	movq	%rax, %rdi
	movq	-96(%rbp), %rsi
	callq	__ZN4core5alloc6layout6Layout25from_size_align_unchecked17he5bac47b2beaea7cE
	movq	%rax, -112(%rbp)
	movq	%rdx, -120(%rbp)
	movq	-64(%rbp), %rax
	movq	(%rax), %rdi
	callq	__ZN4core3ptr6unique15Unique$LT$T$GT$4cast17hb86bbe753c0b7784E
	movq	%rax, -128(%rbp)
	movq	-128(%rbp), %rdi
	callq	__ZN50_$LT$T$u20$as$u20$core..convert..Into$LT$U$GT$$GT$4into17hd06244cc868c6cd1E
	movq	%rax, -136(%rbp)
	movq	-136(%rbp), %rax
	movq	%rax, -48(%rbp)
	movq	-112(%rbp), %rcx
	movq	%rcx, -40(%rbp)
	movq	-120(%rbp), %rdx
	movq	%rdx, -32(%rbp)
	movq	-48(%rbp), %rsi
	movq	-72(%rbp), %rdi
	movq	%rsi, (%rdi)
	movq	-40(%rbp), %rsi
	movq	%rsi, 8(%rdi)
	movq	-32(%rbp), %rsi
	movq	%rsi, 16(%rdi)
LBB267_13:
	movq	-80(%rbp), %rax
	addq	$144, %rsp
	popq	%rbp
	retq
	.cfi_endproc

	.p2align	4, 0x90
__ZN5alloc7raw_vec19RawVec$LT$T$C$A$GT$3ptr17h0951cd6cd816bb39E:
	.cfi_startproc
	pushq	%rbp
	.cfi_def_cfa_offset 16
	.cfi_offset %rbp, -16
	movq	%rsp, %rbp
	.cfi_def_cfa_register %rbp
	subq	$16, %rsp
	movq	(%rdi), %rdi
	callq	__ZN4core3ptr6unique15Unique$LT$T$GT$6as_ptr17h5a6540a209fa7dd9E
	movq	%rax, -8(%rbp)
	movq	-8(%rbp), %rax
	addq	$16, %rsp
	popq	%rbp
	retq
	.cfi_endproc

	.p2align	4, 0x90
__ZN5alloc7raw_vec19RawVec$LT$T$C$A$GT$3ptr17hc5d9c4cbdd814a07E:
	.cfi_startproc
	pushq	%rbp
	.cfi_def_cfa_offset 16
	.cfi_offset %rbp, -16
	movq	%rsp, %rbp
	.cfi_def_cfa_register %rbp
	subq	$16, %rsp
	movq	(%rdi), %rdi
	callq	__ZN4core3ptr6unique15Unique$LT$T$GT$6as_ptr17hc7598d539b12a96eE
	movq	%rax, -8(%rbp)
	movq	-8(%rbp), %rax
	addq	$16, %rsp
	popq	%rbp
	retq
	.cfi_endproc

	.p2align	4, 0x90
__ZN5alloc7raw_vec19RawVec$LT$T$C$A$GT$3ptr17hea14f8fae9453435E:
	.cfi_startproc
	pushq	%rbp
	.cfi_def_cfa_offset 16
	.cfi_offset %rbp, -16
	movq	%rsp, %rbp
	.cfi_def_cfa_register %rbp
	subq	$16, %rsp
	movq	(%rdi), %rdi
	callq	__ZN4core3ptr6unique15Unique$LT$T$GT$6as_ptr17hba0f2ac3ca9ad5c2E
	movq	%rax, -8(%rbp)
	movq	-8(%rbp), %rax
	addq	$16, %rsp
	popq	%rbp
	retq
	.cfi_endproc

	.p2align	4, 0x90
__ZN5alloc7raw_vec19RawVec$LT$T$C$A$GT$3ptr17hf3d1d0d6ff4f08f0E:
	.cfi_startproc
	pushq	%rbp
	.cfi_def_cfa_offset 16
	.cfi_offset %rbp, -16
	movq	%rsp, %rbp
	.cfi_def_cfa_register %rbp
	subq	$16, %rsp
	movq	(%rdi), %rdi
	callq	__ZN4core3ptr6unique15Unique$LT$T$GT$6as_ptr17he99744a5334a1a4cE
	movq	%rax, -8(%rbp)
	movq	-8(%rbp), %rax
	addq	$16, %rsp
	popq	%rbp
	retq
	.cfi_endproc

	.p2align	4, 0x90
__ZN62_$LT$alloc..alloc..Global$u20$as$u20$core..alloc..AllocRef$GT$7dealloc17h77cfe395d0912da5E:
	.cfi_startproc
	pushq	%rbp
	.cfi_def_cfa_offset 16
	.cfi_offset %rbp, -16
	movq	%rsp, %rbp
	.cfi_def_cfa_register %rbp
	subq	$64, %rsp
	movq	%rdx, -24(%rbp)
	movq	%rcx, -16(%rbp)
	leaq	-24(%rbp), %rax
	movq	%rdi, -32(%rbp)
	movq	%rax, %rdi
	movq	%rsi, -40(%rbp)
	callq	__ZN4core5alloc6layout6Layout4size17h778667ef2343755aE
	movq	%rax, -48(%rbp)
	movq	-48(%rbp), %rax
	cmpq	$0, %rax
	jne	LBB272_3
	jmp	LBB272_6
LBB272_3:
	movq	-40(%rbp), %rdi
	callq	__ZN4core3ptr8non_null16NonNull$LT$T$GT$6as_ptr17h24a3308d499f706cE
	movq	%rax, -56(%rbp)
	movq	-24(%rbp), %rsi
	movq	-16(%rbp), %rdx
	movq	-56(%rbp), %rdi
	callq	__ZN5alloc5alloc7dealloc17h72260a54556a1f0bE
	jmp	LBB272_6
LBB272_6:
	addq	$64, %rsp
	popq	%rbp
	retq
	.cfi_endproc

	.p2align	4, 0x90
__ZN66_$LT$alloc..vec..Vec$LT$T$GT$$u20$as$u20$core..ops..drop..Drop$GT$4drop17h5bf52edb587f487eE:
	.cfi_startproc
	pushq	%rbp
	.cfi_def_cfa_offset 16
	.cfi_offset %rbp, -16
	movq	%rsp, %rbp
	.cfi_def_cfa_register %rbp
	subq	$16, %rsp
	movq	%rdi, -8(%rbp)
	callq	__ZN5alloc3vec12Vec$LT$T$GT$10as_mut_ptr17h5c05fad959961fddE
	movq	%rax, -16(%rbp)
	movq	-8(%rbp), %rax
	movq	16(%rax), %rsi
	movq	-16(%rbp), %rdi
	callq	__ZN4core3ptr24slice_from_raw_parts_mut17hbe4e7a7f801207deE
	jmp	LBB273_3
LBB273_3:
	addq	$16, %rsp
	popq	%rbp
	retq
	.cfi_endproc

	.p2align	4, 0x90
__ZN66_$LT$alloc..vec..Vec$LT$T$GT$$u20$as$u20$core..ops..drop..Drop$GT$4drop17h7f98feef0c835ae0E:
	.cfi_startproc
	pushq	%rbp
	.cfi_def_cfa_offset 16
	.cfi_offset %rbp, -16
	movq	%rsp, %rbp
	.cfi_def_cfa_register %rbp
	subq	$32, %rsp
	movq	%rdi, -8(%rbp)
	callq	__ZN5alloc3vec12Vec$LT$T$GT$10as_mut_ptr17h75de812cc0c4cbcbE
	movq	%rax, -16(%rbp)
	movq	-8(%rbp), %rax
	movq	16(%rax), %rsi
	movq	-16(%rbp), %rdi
	callq	__ZN4core3ptr24slice_from_raw_parts_mut17h3a494e69c50e9e19E
	movq	%rax, -24(%rbp)
	movq	%rdx, -32(%rbp)
	movq	-24(%rbp), %rdi
	movq	-32(%rbp), %rsi
	callq	__ZN4core3ptr13drop_in_place17hd7d0ffdb6c8be56fE
	addq	$32, %rsp
	popq	%rbp
	retq
	.cfi_endproc

	.p2align	4, 0x90
__ZN66_$LT$alloc..vec..Vec$LT$T$GT$$u20$as$u20$core..ops..drop..Drop$GT$4drop17h8baa584845adfd2cE:
	.cfi_startproc
	pushq	%rbp
	.cfi_def_cfa_offset 16
	.cfi_offset %rbp, -16
	movq	%rsp, %rbp
	.cfi_def_cfa_register %rbp
	subq	$16, %rsp
	movq	%rdi, -8(%rbp)
	callq	__ZN5alloc3vec12Vec$LT$T$GT$10as_mut_ptr17h0363f8033d1f4057E
	movq	%rax, -16(%rbp)
	movq	-8(%rbp), %rax
	movq	16(%rax), %rsi
	movq	-16(%rbp), %rdi
	callq	__ZN4core3ptr24slice_from_raw_parts_mut17hd3823df8e471f30dE
	jmp	LBB275_3
LBB275_3:
	addq	$16, %rsp
	popq	%rbp
	retq
	.cfi_endproc

	.p2align	4, 0x90
__ZN66_$LT$alloc..vec..Vec$LT$T$GT$$u20$as$u20$core..ops..drop..Drop$GT$4drop17hb11af122625e29e6E:
	.cfi_startproc
	pushq	%rbp
	.cfi_def_cfa_offset 16
	.cfi_offset %rbp, -16
	movq	%rsp, %rbp
	.cfi_def_cfa_register %rbp
	subq	$32, %rsp
	movq	%rdi, -8(%rbp)
	callq	__ZN5alloc3vec12Vec$LT$T$GT$10as_mut_ptr17h3611789fe9679728E
	movq	%rax, -16(%rbp)
	movq	-8(%rbp), %rax
	movq	16(%rax), %rsi
	movq	-16(%rbp), %rdi
	callq	__ZN4core3ptr24slice_from_raw_parts_mut17h254c1e3696c900c6E
	movq	%rax, -24(%rbp)
	movq	%rdx, -32(%rbp)
	movq	-24(%rbp), %rdi
	movq	-32(%rbp), %rsi
	callq	__ZN4core3ptr13drop_in_place17h12ff765c89a7ad6aE
	addq	$32, %rsp
	popq	%rbp
	retq
	.cfi_endproc

	.p2align	4, 0x90
__ZN66_$LT$std..ffi..c_str..CString$u20$as$u20$core..ops..drop..Drop$GT$4drop17hfe06d0de14b5a2e9E:
	.cfi_startproc
	pushq	%rbp
	.cfi_def_cfa_offset 16
	.cfi_offset %rbp, -16
	movq	%rsp, %rbp
	.cfi_def_cfa_register %rbp
	subq	$16, %rsp
	xorl	%eax, %eax
	movl	%eax, %edx
	movq	(%rdi), %rcx
	movq	8(%rdi), %rsi
	movq	%rcx, %rdi
	callq	__ZN4core5slice29_$LT$impl$u20$$u5b$T$u5d$$GT$17get_unchecked_mut17h67759b6b8dd4592cE
	movq	%rax, -8(%rbp)
	movq	-8(%rbp), %rax
	movb	$0, (%rax)
	addq	$16, %rsp
	popq	%rbp
	retq
	.cfi_endproc

	.p2align	4, 0x90
__ZN68_$LT$$u5b$A$u5d$$u20$as$u20$core..slice..SlicePartialEq$LT$A$GT$$GT$5equal17h6f4d57b8718468e7E:
	.cfi_startproc
	pushq	%rbp
	.cfi_def_cfa_offset 16
	.cfi_offset %rbp, -16
	movq	%rsp, %rbp
	.cfi_def_cfa_register %rbp
	subq	$112, %rsp
	movq	%rdi, -16(%rbp)
	movq	%rsi, -24(%rbp)
	movq	%rdx, -32(%rbp)
	movq	%rcx, -40(%rbp)
	callq	__ZN4core5slice29_$LT$impl$u20$$u5b$T$u5d$$GT$3len17h2552d1fef65ea01fE
	movq	%rax, -48(%rbp)
	movq	-32(%rbp), %rdi
	movq	-40(%rbp), %rsi
	callq	__ZN4core5slice29_$LT$impl$u20$$u5b$T$u5d$$GT$3len17h2552d1fef65ea01fE
	movq	%rax, -56(%rbp)
	movq	-48(%rbp), %rax
	movq	-56(%rbp), %rcx
	cmpq	%rcx, %rax
	jne	LBB278_4
	movq	-16(%rbp), %rdi
	movq	-24(%rbp), %rsi
	callq	__ZN4core5slice29_$LT$impl$u20$$u5b$T$u5d$$GT$6as_ptr17h6e3bbb151820dfb9E
	movq	%rax, -64(%rbp)
	jmp	LBB278_6
LBB278_4:
	movb	$0, -1(%rbp)
LBB278_5:
	movb	-1(%rbp), %al
	andb	$1, %al
	movzbl	%al, %eax
	addq	$112, %rsp
	popq	%rbp
	retq
LBB278_6:
	movq	-32(%rbp), %rdi
	movq	-40(%rbp), %rsi
	callq	__ZN4core5slice29_$LT$impl$u20$$u5b$T$u5d$$GT$6as_ptr17h6e3bbb151820dfb9E
	movq	%rax, -72(%rbp)
	movq	-64(%rbp), %rdi
	movq	-72(%rbp), %rsi
	callq	__ZN4core3ptr9const_ptr33_$LT$impl$u20$$BP$const$u20$T$GT$13guaranteed_eq17h5baddf2d59afbdfeE
	movb	%al, -73(%rbp)
	movb	-73(%rbp), %al
	testb	$1, %al
	jne	LBB278_10
	jmp	LBB278_9
LBB278_9:
	movq	-16(%rbp), %rdi
	movq	-24(%rbp), %rsi
	callq	__ZN4core3mem11size_of_val17hdd88bf3f24835fceE
	movq	%rax, -88(%rbp)
	jmp	LBB278_11
LBB278_10:
	movb	$1, -1(%rbp)
	jmp	LBB278_5
LBB278_11:
	movq	-16(%rbp), %rdi
	movq	-24(%rbp), %rsi
	callq	__ZN4core5slice29_$LT$impl$u20$$u5b$T$u5d$$GT$6as_ptr17h6e3bbb151820dfb9E
	movq	%rax, -96(%rbp)
	movq	-32(%rbp), %rdi
	movq	-40(%rbp), %rsi
	callq	__ZN4core5slice29_$LT$impl$u20$$u5b$T$u5d$$GT$6as_ptr17h6e3bbb151820dfb9E
	movq	%rax, -104(%rbp)
	movq	-96(%rbp), %rdi
	movq	-104(%rbp), %rsi
	movq	-88(%rbp), %rdx
	callq	_memcmp
	movl	%eax, -108(%rbp)
	movl	-108(%rbp), %eax
	cmpl	$0, %eax
	sete	%cl
	andb	$1, %cl
	movb	%cl, -1(%rbp)
	jmp	LBB278_5
	.cfi_endproc

	.p2align	4, 0x90
__ZN68_$LT$alloc..vec..Vec$LT$T$GT$$u20$as$u20$core..ops..deref..Deref$GT$5deref17h53b97b86fc83bbe9E:
	.cfi_startproc
	pushq	%rbp
	.cfi_def_cfa_offset 16
	.cfi_offset %rbp, -16
	movq	%rsp, %rbp
	.cfi_def_cfa_register %rbp
	subq	$32, %rsp
	movq	%rdi, -8(%rbp)
	callq	__ZN5alloc3vec12Vec$LT$T$GT$6as_ptr17hf242cdc6c0bc293aE
	movq	%rax, -16(%rbp)
	movq	-8(%rbp), %rax
	movq	16(%rax), %rsi
	movq	-16(%rbp), %rdi
	callq	__ZN4core5slice14from_raw_parts17h43183b53e0e62f73E
	movq	%rax, -24(%rbp)
	movq	%rdx, -32(%rbp)
	movq	-24(%rbp), %rax
	movq	-32(%rbp), %rdx
	addq	$32, %rsp
	popq	%rbp
	retq
	.cfi_endproc

	.p2align	4, 0x90
__ZN68_$LT$std..process..ExitCode$u20$as$u20$std..process..Termination$GT$6report17h78f0590f95ad9e97E:
	.cfi_startproc
	pushq	%rbp
	.cfi_def_cfa_offset 16
	.cfi_offset %rbp, -16
	movq	%rsp, %rbp
	.cfi_def_cfa_register %rbp
	subq	$16, %rsp
	movb	%dil, -1(%rbp)
	leaq	-1(%rbp), %rdi
	callq	__ZN3std3sys4unix7process14process_common8ExitCode6as_i3217h68b83650a94a52b0E
	movl	%eax, -8(%rbp)
	movl	-8(%rbp), %eax
	addq	$16, %rsp
	popq	%rbp
	retq
	.cfi_endproc

	.p2align	4, 0x90
__ZN68_$LT$usize$u20$as$u20$core..slice..SliceIndex$LT$$u5b$T$u5d$$GT$$GT$13get_unchecked17h26fdce7688264db9E:
	.cfi_startproc
	pushq	%rbp
	.cfi_def_cfa_offset 16
	.cfi_offset %rbp, -16
	movq	%rsp, %rbp
	.cfi_def_cfa_register %rbp
	subq	$32, %rsp
	movq	%rdi, -8(%rbp)
	movq	%rsi, %rdi
	movq	%rdx, %rsi
	callq	__ZN4core3ptr9const_ptr43_$LT$impl$u20$$BP$const$u20$$u5b$T$u5d$$GT$6as_ptr17h51c551036538ec74E
	movq	%rax, -16(%rbp)
	movq	-16(%rbp), %rdi
	movq	-8(%rbp), %rsi
	callq	__ZN4core3ptr9const_ptr33_$LT$impl$u20$$BP$const$u20$T$GT$3add17h63ce6b89e3f06502E
	movq	%rax, -24(%rbp)
	movq	-24(%rbp), %rax
	addq	$32, %rsp
	popq	%rbp
	retq
	.cfi_endproc

	.p2align	4, 0x90
__ZN68_$LT$usize$u20$as$u20$core..slice..SliceIndex$LT$$u5b$T$u5d$$GT$$GT$13get_unchecked17h2b1de3dadd63a651E:
	.cfi_startproc
	pushq	%rbp
	.cfi_def_cfa_offset 16
	.cfi_offset %rbp, -16
	movq	%rsp, %rbp
	.cfi_def_cfa_register %rbp
	subq	$32, %rsp
	movq	%rdi, -8(%rbp)
	movq	%rsi, %rdi
	movq	%rdx, %rsi
	callq	__ZN4core3ptr9const_ptr43_$LT$impl$u20$$BP$const$u20$$u5b$T$u5d$$GT$6as_ptr17h1a840c3b7822c0c6E
	movq	%rax, -16(%rbp)
	movq	-16(%rbp), %rdi
	movq	-8(%rbp), %rsi
	callq	__ZN4core3ptr9const_ptr33_$LT$impl$u20$$BP$const$u20$T$GT$3add17hb77368e62ed81174E
	movq	%rax, -24(%rbp)
	movq	-24(%rbp), %rax
	addq	$32, %rsp
	popq	%rbp
	retq
	.cfi_endproc

	.p2align	4, 0x90
__ZN68_$LT$usize$u20$as$u20$core..slice..SliceIndex$LT$$u5b$T$u5d$$GT$$GT$13get_unchecked17h766a05a227ba5817E:
	.cfi_startproc
	pushq	%rbp
	.cfi_def_cfa_offset 16
	.cfi_offset %rbp, -16
	movq	%rsp, %rbp
	.cfi_def_cfa_register %rbp
	subq	$32, %rsp
	movq	%rdi, -8(%rbp)
	movq	%rsi, %rdi
	movq	%rdx, %rsi
	callq	__ZN4core3ptr9const_ptr43_$LT$impl$u20$$BP$const$u20$$u5b$T$u5d$$GT$6as_ptr17hd101c26e0f2eb464E
	movq	%rax, -16(%rbp)
	movq	-16(%rbp), %rdi
	movq	-8(%rbp), %rsi
	callq	__ZN4core3ptr9const_ptr33_$LT$impl$u20$$BP$const$u20$T$GT$3add17hc79acaddb342a373E
	movq	%rax, -24(%rbp)
	movq	-24(%rbp), %rax
	addq	$32, %rsp
	popq	%rbp
	retq
	.cfi_endproc

	.p2align	4, 0x90
__ZN68_$LT$usize$u20$as$u20$core..slice..SliceIndex$LT$$u5b$T$u5d$$GT$$GT$13get_unchecked17hd9834baad2357894E:
	.cfi_startproc
	pushq	%rbp
	.cfi_def_cfa_offset 16
	.cfi_offset %rbp, -16
	movq	%rsp, %rbp
	.cfi_def_cfa_register %rbp
	subq	$32, %rsp
	movq	%rdi, -8(%rbp)
	movq	%rsi, %rdi
	movq	%rdx, %rsi
	callq	__ZN4core3ptr9const_ptr43_$LT$impl$u20$$BP$const$u20$$u5b$T$u5d$$GT$6as_ptr17h2b7543eb950b0218E
	movq	%rax, -16(%rbp)
	movq	-16(%rbp), %rdi
	movq	-8(%rbp), %rsi
	callq	__ZN4core3ptr9const_ptr33_$LT$impl$u20$$BP$const$u20$T$GT$3add17hb7a9cf870a295f0fE
	movq	%rax, -24(%rbp)
	movq	-24(%rbp), %rax
	addq	$32, %rsp
	popq	%rbp
	retq
	.cfi_endproc

	.p2align	4, 0x90
__ZN68_$LT$usize$u20$as$u20$core..slice..SliceIndex$LT$$u5b$T$u5d$$GT$$GT$17get_unchecked_mut17hc43d9d2e2fceb589E:
	.cfi_startproc
	pushq	%rbp
	.cfi_def_cfa_offset 16
	.cfi_offset %rbp, -16
	movq	%rsp, %rbp
	.cfi_def_cfa_register %rbp
	subq	$32, %rsp
	movq	%rdi, -8(%rbp)
	movq	%rsi, %rdi
	movq	%rdx, %rsi
	callq	__ZN4core3ptr7mut_ptr41_$LT$impl$u20$$BP$mut$u20$$u5b$T$u5d$$GT$10as_mut_ptr17hef659322f2695aeaE
	movq	%rax, -16(%rbp)
	movq	-16(%rbp), %rdi
	movq	-8(%rbp), %rsi
	callq	__ZN4core3ptr7mut_ptr31_$LT$impl$u20$$BP$mut$u20$T$GT$3add17h0e6a13254005d4d6E
	movq	%rax, -24(%rbp)
	movq	-24(%rbp), %rax
	addq	$32, %rsp
	popq	%rbp
	retq
	.cfi_endproc

	.p2align	4, 0x90
__ZN69_$LT$core..option..Option$LT$T$GT$$u20$as$u20$core..ops..try..Try$GT$10from_error17h359dc1a71be91ecaE:
	.cfi_startproc
	pushq	%rbp
	.cfi_def_cfa_offset 16
	.cfi_offset %rbp, -16
	movq	%rsp, %rbp
	.cfi_def_cfa_register %rbp
	pushq	%rax
	movl	$0, -8(%rbp)
	movl	-8(%rbp), %eax
	movl	-4(%rbp), %edx
	addq	$8, %rsp
	popq	%rbp
	retq
	.cfi_endproc

	.p2align	4, 0x90
__ZN69_$LT$core..option..Option$LT$T$GT$$u20$as$u20$core..ops..try..Try$GT$10from_error17hcf3c8df6bcea7004E:
	.cfi_startproc
	pushq	%rbp
	.cfi_def_cfa_offset 16
	.cfi_offset %rbp, -16
	movq	%rsp, %rbp
	.cfi_def_cfa_register %rbp
	movq	%rdi, %rax
	movq	$0, (%rdi)
	popq	%rbp
	retq
	.cfi_endproc

	.p2align	4, 0x90
__ZN69_$LT$core..option..Option$LT$T$GT$$u20$as$u20$core..ops..try..Try$GT$11into_result17h3730cf563bae9416E:
	.cfi_startproc
	pushq	%rbp
	.cfi_def_cfa_offset 16
	.cfi_offset %rbp, -16
	movq	%rsp, %rbp
	.cfi_def_cfa_register %rbp
	subq	$80, %rsp
	movq	%rdi, %rax
	leaq	-56(%rbp), %rcx
	movq	%rcx, %rdx
	movq	%rdi, -64(%rbp)
	movq	%rdx, %rdi
	movl	$56, %edx
	movq	%rax, -72(%rbp)
	movq	%rcx, -80(%rbp)
	callq	_memcpy
	movq	-64(%rbp), %rdi
	movq	-80(%rbp), %rsi
	callq	__ZN4core6option15Option$LT$T$GT$5ok_or17ha8993a91856e1ea9E
	movq	-72(%rbp), %rax
	addq	$80, %rsp
	popq	%rbp
	retq
	.cfi_endproc

	.p2align	4, 0x90
__ZN69_$LT$core..option..Option$LT$T$GT$$u20$as$u20$core..ops..try..Try$GT$11into_result17h38a536725bdef89aE:
	.cfi_startproc
	pushq	%rbp
	.cfi_def_cfa_offset 16
	.cfi_offset %rbp, -16
	movq	%rsp, %rbp
	.cfi_def_cfa_register %rbp
	subq	$16, %rsp
	callq	__ZN4core6option15Option$LT$T$GT$5ok_or17hab72d80b1b5f5806E
	movq	%rax, -8(%rbp)
	movq	%rdx, -16(%rbp)
	movq	-8(%rbp), %rax
	movq	-16(%rbp), %rdx
	addq	$16, %rsp
	popq	%rbp
	retq
	.cfi_endproc

	.p2align	4, 0x90
__ZN69_$LT$core..option..Option$LT$T$GT$$u20$as$u20$core..ops..try..Try$GT$11into_result17h8242be084953f820E:
	.cfi_startproc
	pushq	%rbp
	.cfi_def_cfa_offset 16
	.cfi_offset %rbp, -16
	movq	%rsp, %rbp
	.cfi_def_cfa_register %rbp
	subq	$32, %rsp
	movq	%rdi, %rax
	movq	(%rsi), %rcx
	movq	%rcx, -24(%rbp)
	movq	8(%rsi), %rcx
	movq	%rcx, -16(%rbp)
	movq	16(%rsi), %rcx
	movq	%rcx, -8(%rbp)
	leaq	-24(%rbp), %rsi
	movq	%rax, -32(%rbp)
	callq	__ZN4core6option15Option$LT$T$GT$5ok_or17hfabc0767a861f134E
	movq	-32(%rbp), %rax
	addq	$32, %rsp
	popq	%rbp
	retq
	.cfi_endproc

	.p2align	4, 0x90
__ZN69_$LT$core..option..Option$LT$T$GT$$u20$as$u20$core..ops..try..Try$GT$11into_result17h94fee4e07b5aa2f0E:
	.cfi_startproc
	pushq	%rbp
	.cfi_def_cfa_offset 16
	.cfi_offset %rbp, -16
	movq	%rsp, %rbp
	.cfi_def_cfa_register %rbp
	subq	$16, %rsp
	callq	__ZN4core6option15Option$LT$T$GT$5ok_or17h1b9678e193d26389E
	movq	%rax, -8(%rbp)
	movq	%rdx, -16(%rbp)
	movq	-8(%rbp), %rax
	movq	-16(%rbp), %rdx
	addq	$16, %rsp
	popq	%rbp
	retq
	.cfi_endproc

	.p2align	4, 0x90
__ZN70_$LT$core..option..Option$LT$T$GT$$u20$as$u20$core..cmp..PartialEq$GT$2ne17h56171e0fd5f92179E:
	.cfi_startproc
	pushq	%rbp
	.cfi_def_cfa_offset 16
	.cfi_offset %rbp, -16
	movq	%rsp, %rbp
	.cfi_def_cfa_register %rbp
	subq	$80, %rsp
	xorl	%eax, %eax
	movl	%eax, %ecx
	cmpq	$0, (%rdi)
	movl	$1, %edx
	cmovbeq	%rcx, %rdx
	movq	%rdx, -16(%rbp)
	movq	-16(%rbp), %rcx
	movq	%rdi, -48(%rbp)
	movq	%rsi, -56(%rbp)
	movq	%rcx, -64(%rbp)
	xorl	%eax, %eax
	movl	%eax, %ecx
	movq	-56(%rbp), %rdx
	cmpq	$0, (%rdx)
	movl	$1, %esi
	cmovbeq	%rcx, %rsi
	movq	%rsi, -8(%rbp)
	movq	-8(%rbp), %rcx
	movq	%rcx, -72(%rbp)
	movq	-64(%rbp), %rax
	movq	-72(%rbp), %rcx
	cmpq	%rcx, %rax
	jne	LBB292_4
	movb	$1, -33(%rbp)
	jmp	LBB292_5
LBB292_4:
	movb	$0, -33(%rbp)
LBB292_5:
	testb	$1, -33(%rbp)
	jne	LBB292_7
	movb	$1, -34(%rbp)
	jmp	LBB292_13
LBB292_7:
	xorl	%eax, %eax
	movl	%eax, %ecx
	movq	-48(%rbp), %rdx
	movq	%rdx, -32(%rbp)
	movq	-56(%rbp), %rsi
	movq	%rsi, -24(%rbp)
	movq	-32(%rbp), %rdi
	cmpq	$0, (%rdi)
	movl	$1, %edi
	cmovbeq	%rcx, %rdi
	cmpq	$1, %rdi
	je	LBB292_9
LBB292_8:
	movb	$0, -34(%rbp)
	jmp	LBB292_12
LBB292_9:
	xorl	%eax, %eax
	movl	%eax, %ecx
	movq	-24(%rbp), %rdx
	cmpq	$0, (%rdx)
	movl	$1, %edx
	cmovbeq	%rcx, %rdx
	cmpq	$1, %rdx
	jne	LBB292_8
	movq	-32(%rbp), %rax
	movq	-24(%rbp), %rcx
	movq	%rax, %rdi
	movq	%rcx, %rsi
	callq	__ZN4core3cmp5impls69_$LT$impl$u20$core..cmp..PartialEq$LT$$RF$B$GT$$u20$for$u20$$RF$A$GT$2ne17hdcb51ae6a4f2f9d4E
	andb	$1, %al
	movb	%al, -34(%rbp)
	jmp	LBB292_12
LBB292_12:
	jmp	LBB292_13
LBB292_13:
	movb	-34(%rbp), %al
	andb	$1, %al
	movzbl	%al, %eax
	addq	$80, %rsp
	popq	%rbp
	retq
	.cfi_endproc

	.p2align	4, 0x90
__ZN70_$LT$std..ffi..os_str..OsString$u20$as$u20$core..ops..deref..Deref$GT$5deref17h37a964301902f947E:
	.cfi_startproc
	pushq	%rbp
	.cfi_def_cfa_offset 16
	.cfi_offset %rbp, -16
	movq	%rsp, %rbp
	.cfi_def_cfa_register %rbp
	subq	$16, %rsp
	leaq	l___unnamed_10(%rip), %rax
	movq	%rax, %rsi
	callq	__ZN105_$LT$std..ffi..os_str..OsString$u20$as$u20$core..ops..index..Index$LT$core..ops..range..RangeFull$GT$$GT$5index17h2a1312ec42e33c51E
	movq	%rax, -8(%rbp)
	movq	%rdx, -16(%rbp)
	movq	-8(%rbp), %rax
	movq	-16(%rbp), %rdx
	addq	$16, %rsp
	popq	%rbp
	retq
	.cfi_endproc

	.p2align	4, 0x90
__ZN72_$LT$core..option..Option$LT$T$GT$$u20$as$u20$core..default..Default$GT$7default17h2aeb99d51328cf09E:
	.cfi_startproc
	pushq	%rbp
	.cfi_def_cfa_offset 16
	.cfi_offset %rbp, -16
	movq	%rsp, %rbp
	.cfi_def_cfa_register %rbp
	subq	$16, %rsp
	movq	$0, -16(%rbp)
	movq	-16(%rbp), %rax
	movq	-8(%rbp), %rdx
	addq	$16, %rsp
	popq	%rbp
	retq
	.cfi_endproc

	.p2align	4, 0x90
__ZN77_$LT$alloc..raw_vec..RawVec$LT$T$C$A$GT$$u20$as$u20$core..ops..drop..Drop$GT$4drop17h2d6d09698b36b1a6E:
	.cfi_startproc
	pushq	%rbp
	.cfi_def_cfa_offset 16
	.cfi_offset %rbp, -16
	movq	%rsp, %rbp
	.cfi_def_cfa_register %rbp
	subq	$48, %rsp
	leaq	-24(%rbp), %rax
	movq	%rdi, -40(%rbp)
	movq	%rax, %rdi
	movq	-40(%rbp), %rsi
	callq	__ZN5alloc7raw_vec19RawVec$LT$T$C$A$GT$14current_memory17hf01a1fe972f0c20fE
	xorl	%eax, %eax
	movl	%eax, %ecx
	cmpq	$0, -24(%rbp)
	movl	$1, %edx
	cmovbeq	%rcx, %rdx
	cmpq	$1, %rdx
	je	LBB295_3
	jmp	LBB295_5
LBB295_3:
	movq	-24(%rbp), %rsi
	movq	-16(%rbp), %rdx
	movq	-8(%rbp), %rcx
	movq	-40(%rbp), %rax
	movq	%rax, %rdi
	callq	__ZN62_$LT$alloc..alloc..Global$u20$as$u20$core..alloc..AllocRef$GT$7dealloc17h77cfe395d0912da5E
	jmp	LBB295_5
LBB295_5:
	addq	$48, %rsp
	popq	%rbp
	retq
	.cfi_endproc

	.p2align	4, 0x90
__ZN77_$LT$alloc..raw_vec..RawVec$LT$T$C$A$GT$$u20$as$u20$core..ops..drop..Drop$GT$4drop17h373a0a657ef291a8E:
	.cfi_startproc
	pushq	%rbp
	.cfi_def_cfa_offset 16
	.cfi_offset %rbp, -16
	movq	%rsp, %rbp
	.cfi_def_cfa_register %rbp
	subq	$48, %rsp
	leaq	-24(%rbp), %rax
	movq	%rdi, -40(%rbp)
	movq	%rax, %rdi
	movq	-40(%rbp), %rsi
	callq	__ZN5alloc7raw_vec19RawVec$LT$T$C$A$GT$14current_memory17h154579ab6b0fbb8bE
	xorl	%eax, %eax
	movl	%eax, %ecx
	cmpq	$0, -24(%rbp)
	movl	$1, %edx
	cmovbeq	%rcx, %rdx
	cmpq	$1, %rdx
	je	LBB296_3
	jmp	LBB296_5
LBB296_3:
	movq	-24(%rbp), %rsi
	movq	-16(%rbp), %rdx
	movq	-8(%rbp), %rcx
	movq	-40(%rbp), %rax
	movq	%rax, %rdi
	callq	__ZN62_$LT$alloc..alloc..Global$u20$as$u20$core..alloc..AllocRef$GT$7dealloc17h77cfe395d0912da5E
	jmp	LBB296_5
LBB296_5:
	addq	$48, %rsp
	popq	%rbp
	retq
	.cfi_endproc

	.p2align	4, 0x90
__ZN77_$LT$alloc..raw_vec..RawVec$LT$T$C$A$GT$$u20$as$u20$core..ops..drop..Drop$GT$4drop17h5b33f5eb9c71d514E:
	.cfi_startproc
	pushq	%rbp
	.cfi_def_cfa_offset 16
	.cfi_offset %rbp, -16
	movq	%rsp, %rbp
	.cfi_def_cfa_register %rbp
	subq	$48, %rsp
	leaq	-24(%rbp), %rax
	movq	%rdi, -40(%rbp)
	movq	%rax, %rdi
	movq	-40(%rbp), %rsi
	callq	__ZN5alloc7raw_vec19RawVec$LT$T$C$A$GT$14current_memory17hc642fc9dcb4af245E
	xorl	%eax, %eax
	movl	%eax, %ecx
	cmpq	$0, -24(%rbp)
	movl	$1, %edx
	cmovbeq	%rcx, %rdx
	cmpq	$1, %rdx
	je	LBB297_3
	jmp	LBB297_5
LBB297_3:
	movq	-24(%rbp), %rsi
	movq	-16(%rbp), %rdx
	movq	-8(%rbp), %rcx
	movq	-40(%rbp), %rax
	movq	%rax, %rdi
	callq	__ZN62_$LT$alloc..alloc..Global$u20$as$u20$core..alloc..AllocRef$GT$7dealloc17h77cfe395d0912da5E
	jmp	LBB297_5
LBB297_5:
	addq	$48, %rsp
	popq	%rbp
	retq
	.cfi_endproc

	.p2align	4, 0x90
__ZN77_$LT$alloc..raw_vec..RawVec$LT$T$C$A$GT$$u20$as$u20$core..ops..drop..Drop$GT$4drop17h964b92a93ada9ce4E:
	.cfi_startproc
	pushq	%rbp
	.cfi_def_cfa_offset 16
	.cfi_offset %rbp, -16
	movq	%rsp, %rbp
	.cfi_def_cfa_register %rbp
	subq	$48, %rsp
	leaq	-24(%rbp), %rax
	movq	%rdi, -40(%rbp)
	movq	%rax, %rdi
	movq	-40(%rbp), %rsi
	callq	__ZN5alloc7raw_vec19RawVec$LT$T$C$A$GT$14current_memory17haac57b2af954c28cE
	xorl	%eax, %eax
	movl	%eax, %ecx
	cmpq	$0, -24(%rbp)
	movl	$1, %edx
	cmovbeq	%rcx, %rdx
	cmpq	$1, %rdx
	je	LBB298_3
	jmp	LBB298_5
LBB298_3:
	movq	-24(%rbp), %rsi
	movq	-16(%rbp), %rdx
	movq	-8(%rbp), %rcx
	movq	-40(%rbp), %rax
	movq	%rax, %rdi
	callq	__ZN62_$LT$alloc..alloc..Global$u20$as$u20$core..alloc..AllocRef$GT$7dealloc17h77cfe395d0912da5E
	jmp	LBB298_5
LBB298_5:
	addq	$48, %rsp
	popq	%rbp
	retq
	.cfi_endproc

	.p2align	4, 0x90
__ZN81_$LT$core..str..pattern..CharSearcher$u20$as$u20$core..str..pattern..Searcher$GT$10next_match17h8503432970e6c9d2E:
	.cfi_startproc
	pushq	%rbp
	.cfi_def_cfa_offset 16
	.cfi_offset %rbp, -16
	movq	%rsp, %rbp
	.cfi_def_cfa_register %rbp
	subq	$320, %rsp
	movq	%rdi, %rax
	movq	%rsi, -184(%rbp)
	movq	%rdi, -192(%rbp)
	movq	%rax, -200(%rbp)
LBB299_1:
	movq	-184(%rbp), %rax
	movq	(%rax), %rcx
	movq	8(%rax), %rdx
	movq	%rcx, -32(%rbp)
	movq	%rdx, -24(%rbp)
	movq	-32(%rbp), %rdi
	movq	-24(%rbp), %rsi
	movq	%rdi, -208(%rbp)
	movq	%rsi, -216(%rbp)
	movq	-184(%rbp), %rax
	movq	16(%rax), %rcx
	movq	24(%rax), %rdx
	movq	%rcx, -160(%rbp)
	movq	%rdx, -152(%rbp)
	movq	-160(%rbp), %rdx
	movq	-152(%rbp), %rcx
	movq	-208(%rbp), %rdi
	movq	-216(%rbp), %rsi
	callq	__ZN4core5slice29_$LT$impl$u20$$u5b$T$u5d$$GT$3get17h0c9b654e16c54ab7E
	movq	%rax, -224(%rbp)
	movq	%rdx, -232(%rbp)
	movq	-224(%rbp), %rdi
	movq	-232(%rbp), %rsi
	callq	__ZN69_$LT$core..option..Option$LT$T$GT$$u20$as$u20$core..ops..try..Try$GT$11into_result17h38a536725bdef89aE
	movq	%rdx, -168(%rbp)
	movq	%rax, -176(%rbp)
	movq	-176(%rbp), %rax
	testq	%rax, %rax
	sete	%cl
	movzbl	%cl, %edx
	movl	%edx, %eax
	jne	LBB299_5
	jmp	LBB299_28
LBB299_28:
	jmp	LBB299_7
LBB299_5:
	movq	-176(%rbp), %rsi
	movq	-168(%rbp), %rdx
	movq	-184(%rbp), %rax
	addq	$44, %rax
	movq	-184(%rbp), %rcx
	movq	32(%rcx), %rdi
	subq	$1, %rdi
	movq	%rdi, -240(%rbp)
	movq	%rax, %rdi
	movl	$4, %eax
	movq	%rsi, -248(%rbp)
	movq	%rax, %rsi
	movq	-240(%rbp), %rax
	movq	%rdx, -256(%rbp)
	movq	%rax, %rdx
	callq	__ZN4core5slice29_$LT$impl$u20$$u5b$T$u5d$$GT$13get_unchecked17h7832cc0f19b8e176E
	movq	%rax, -264(%rbp)
	jmp	LBB299_11
	ud2
LBB299_7:
	callq	__ZN50_$LT$T$u20$as$u20$core..convert..From$LT$T$GT$$GT$4from17hbe74160cd9e9f9a2E
	movq	-192(%rbp), %rdi
	callq	__ZN69_$LT$core..option..Option$LT$T$GT$$u20$as$u20$core..ops..try..Try$GT$10from_error17hcf3c8df6bcea7004E
	jmp	LBB299_10
LBB299_10:
	movq	-200(%rbp), %rax
	addq	$320, %rsp
	popq	%rbp
	retq
LBB299_11:
	movq	-264(%rbp), %rax
	movzbl	(%rax), %edi
	movq	-248(%rbp), %rsi
	movq	-256(%rbp), %rdx
	callq	__ZN4core5slice6memchr6memchr17hd650620a8925ad84E
	movq	%rdx, -136(%rbp)
	movq	%rax, -144(%rbp)
	cmpq	$1, -144(%rbp)
	je	LBB299_14
	movq	-184(%rbp), %rax
	movq	24(%rax), %rcx
	movq	%rcx, 16(%rax)
	movq	-192(%rbp), %rcx
	movq	$0, (%rcx)
	jmp	LBB299_25
LBB299_14:
	movq	-136(%rbp), %rax
	addq	$1, %rax
	movq	-184(%rbp), %rcx
	addq	16(%rcx), %rax
	movq	%rax, 16(%rcx)
	movq	16(%rcx), %rax
	cmpq	32(%rcx), %rax
	jae	LBB299_16
	jmp	LBB299_27
LBB299_16:
	movq	-184(%rbp), %rax
	movq	16(%rax), %rcx
	movq	32(%rax), %rdx
	subq	%rdx, %rcx
	movq	(%rax), %rdx
	movq	8(%rax), %rsi
	movq	%rdx, -16(%rbp)
	movq	%rsi, -8(%rbp)
	movq	-16(%rbp), %rdi
	movq	-8(%rbp), %rsi
	movq	%rcx, -272(%rbp)
	movq	%rdi, -280(%rbp)
	movq	%rsi, -288(%rbp)
	movq	-184(%rbp), %rax
	movq	16(%rax), %rcx
	movq	-272(%rbp), %rdx
	movq	%rdx, -112(%rbp)
	movq	%rcx, -104(%rbp)
	movq	-112(%rbp), %rdx
	movq	-104(%rbp), %rcx
	movq	-280(%rbp), %rdi
	movq	-288(%rbp), %rsi
	callq	__ZN4core5slice29_$LT$impl$u20$$u5b$T$u5d$$GT$3get17h0c9b654e16c54ab7E
	movq	%rdx, -120(%rbp)
	movq	%rax, -128(%rbp)
	xorl	%eax, %eax
	movl	%eax, %ecx
	cmpq	$0, -128(%rbp)
	movl	$1, %edx
	cmovbeq	%rcx, %rdx
	cmpq	$1, %rdx
	je	LBB299_20
	jmp	LBB299_26
LBB299_20:
	leaq	l___unnamed_11(%rip), %rax
	movq	-128(%rbp), %rcx
	movq	-120(%rbp), %rdx
	movq	%rcx, -96(%rbp)
	movq	%rdx, -88(%rbp)
	movq	-184(%rbp), %rcx
	addq	$44, %rcx
	movq	-184(%rbp), %rdx
	movq	32(%rdx), %rsi
	movq	$0, -64(%rbp)
	movq	%rsi, -56(%rbp)
	movq	-64(%rbp), %rdx
	movq	-56(%rbp), %rsi
	movq	%rcx, %rdi
	movl	$4, %ecx
	movq	%rsi, -296(%rbp)
	movq	%rcx, %rsi
	movq	-296(%rbp), %rcx
	movq	%rax, %r8
	callq	__ZN4core5slice74_$LT$impl$u20$core..ops..index..Index$LT$I$GT$$u20$for$u20$$u5b$T$u5d$$GT$5index17ha4f77dc0a694c304E
	movq	%rax, -304(%rbp)
	movq	%rdx, -312(%rbp)
	movq	-304(%rbp), %rax
	movq	%rax, -80(%rbp)
	movq	-312(%rbp), %rcx
	movq	%rcx, -72(%rbp)
	leaq	-96(%rbp), %rdi
	leaq	-80(%rbp), %rsi
	callq	__ZN4core3cmp5impls69_$LT$impl$u20$core..cmp..PartialEq$LT$$RF$B$GT$$u20$for$u20$$RF$A$GT$2eq17h2b15dac1e03c14e6E
	movb	%al, -313(%rbp)
	movb	-313(%rbp), %al
	testb	$1, %al
	jne	LBB299_24
	jmp	LBB299_23
LBB299_23:
	jmp	LBB299_26
LBB299_24:
	movq	-184(%rbp), %rax
	movq	16(%rax), %rcx
	movq	-272(%rbp), %rdx
	movq	%rdx, -48(%rbp)
	movq	%rcx, -40(%rbp)
	movq	-48(%rbp), %rcx
	movq	-40(%rbp), %rsi
	movq	-192(%rbp), %rdi
	movq	%rcx, 8(%rdi)
	movq	%rsi, 16(%rdi)
	movq	$1, (%rdi)
LBB299_25:
	jmp	LBB299_10
LBB299_26:
	jmp	LBB299_27
LBB299_27:
	jmp	LBB299_1
	.cfi_endproc

	.p2align	4, 0x90
__ZN81_$LT$core..str..pattern..CharSearcher$u20$as$u20$core..str..pattern..Searcher$GT$8haystack17h081dccd457133b11E:
	.cfi_startproc
	pushq	%rbp
	.cfi_def_cfa_offset 16
	.cfi_offset %rbp, -16
	movq	%rsp, %rbp
	.cfi_def_cfa_register %rbp
	movq	(%rdi), %rax
	movq	8(%rdi), %rdx
	popq	%rbp
	retq
	.cfi_endproc

	.p2align	4, 0x90
__ZN84_$LT$core..str..Split$LT$P$GT$$u20$as$u20$core..iter..traits..iterator..Iterator$GT$4next17h7900027b4b76528aE:
	.cfi_startproc
	pushq	%rbp
	.cfi_def_cfa_offset 16
	.cfi_offset %rbp, -16
	movq	%rsp, %rbp
	.cfi_def_cfa_register %rbp
	subq	$16, %rsp
	callq	__ZN4core3str22SplitInternal$LT$P$GT$4next17h7cf6bed0647fd9eaE
	movq	%rax, -8(%rbp)
	movq	%rdx, -16(%rbp)
	movq	-8(%rbp), %rax
	movq	-16(%rbp), %rdx
	addq	$16, %rsp
	popq	%rbp
	retq
	.cfi_endproc

	.p2align	4, 0x90
__ZN90_$LT$core..ops..range..RangeFull$u20$as$u20$core..slice..SliceIndex$LT$$u5b$T$u5d$$GT$$GT$9index_mut17haf43c9ab0cce5430E:
	.cfi_startproc
	pushq	%rbp
	.cfi_def_cfa_offset 16
	.cfi_offset %rbp, -16
	movq	%rsp, %rbp
	.cfi_def_cfa_register %rbp
	pushq	%rax
	movq	%rdi, %rax
	movq	%rdx, -8(%rbp)
	movq	%rsi, %rdx
	addq	$8, %rsp
	popq	%rbp
	retq
	.cfi_endproc

	.p2align	4, 0x90
__ZN95_$LT$alloc..collections..btree..map..BTreeMap$LT$K$C$V$GT$$u20$as$u20$core..ops..drop..Drop$GT$4drop17hc62d6730fc3148d3E:
	.cfi_startproc
	pushq	%rbp
	.cfi_def_cfa_offset 16
	.cfi_offset %rbp, -16
	movq	%rsp, %rbp
	.cfi_def_cfa_register %rbp
	subq	$112, %rsp
	leaq	-24(%rbp), %rax
	movq	%rdi, -104(%rbp)
	movq	%rax, %rdi
	movq	-104(%rbp), %rsi
	callq	__ZN4core3ptr4read17hba519495011d260dE
	leaq	-96(%rbp), %rdi
	leaq	-24(%rbp), %rsi
	callq	__ZN115_$LT$alloc..collections..btree..map..BTreeMap$LT$K$C$V$GT$$u20$as$u20$core..iter..traits..collect..IntoIterator$GT$9into_iter17hfa1b461586ef47fcE
	leaq	-96(%rbp), %rdi
	callq	__ZN4core3mem4drop17h36bf63bc3e2b61dfE
	addq	$112, %rsp
	popq	%rbp
	retq
	.cfi_endproc

	.p2align	4, 0x90
__ZN95_$LT$alloc..collections..btree..map..IntoIter$LT$K$C$V$GT$$u20$as$u20$core..ops..drop..Drop$GT$4drop17hb92a32cf32d91377E:
Lfunc_begin25:
	.cfi_startproc
	.cfi_personality 155, _rust_eh_personality
	.cfi_lsda 16, Lexception25
	pushq	%rbp
	.cfi_def_cfa_offset 16
	.cfi_offset %rbp, -16
	movq	%rsp, %rbp
	.cfi_def_cfa_register %rbp
	subq	$512, %rsp
	movb	$0, -17(%rbp)
	movq	%rdi, -504(%rbp)
LBB304_1:
	leaq	-488(%rbp), %rdi
	movq	-504(%rbp), %rsi
	callq	__ZN112_$LT$alloc..collections..btree..map..IntoIter$LT$K$C$V$GT$$u20$as$u20$core..iter..traits..iterator..Iterator$GT$4next17hffaa707fc827234bE
	xorl	%eax, %eax
	movl	%eax, %ecx
	cmpq	$0, -488(%rbp)
	movl	$1, %edx
	cmovbeq	%rcx, %rdx
	cmpq	$1, %rdx
	je	LBB304_4
	leaq	-488(%rbp), %rdi
	callq	__ZN4core3ptr13drop_in_place17h9eaacaa2c8da08ffE
	jmp	LBB304_8
LBB304_4:
	movq	-448(%rbp), %rax
	movq	%rax, -400(%rbp)
	movq	-456(%rbp), %rax
	movq	%rax, -408(%rbp)
	movq	-464(%rbp), %rax
	movq	%rax, -416(%rbp)
	movq	-472(%rbp), %rax
	movq	%rax, -424(%rbp)
	movq	-488(%rbp), %rax
	movq	-480(%rbp), %rcx
	movq	%rcx, -432(%rbp)
	movq	%rax, -440(%rbp)
	movb	$1, -17(%rbp)
	movq	-504(%rbp), %rax
	movq	%rax, -392(%rbp)
	movq	-400(%rbp), %rcx
	movq	%rcx, -344(%rbp)
	movq	-408(%rbp), %rcx
	movq	%rcx, -352(%rbp)
	movq	-416(%rbp), %rcx
	movq	%rcx, -360(%rbp)
	movq	-424(%rbp), %rcx
	movq	%rcx, -368(%rbp)
	movq	-440(%rbp), %rcx
	movq	-432(%rbp), %rdx
	movq	%rdx, -376(%rbp)
	movq	%rcx, -384(%rbp)
Ltmp124:
	leaq	-384(%rbp), %rdi
	callq	__ZN4core3mem4drop17hd9848b70979fbb94E
Ltmp125:
	jmp	LBB304_5
LBB304_5:
	movb	$0, -17(%rbp)
	movq	-392(%rbp), %rdi
Ltmp126:
	callq	__ZN4core3mem6forget17hc7587099ad3efef1E
Ltmp127:
	jmp	LBB304_7
LBB304_6:
	movq	-16(%rbp), %rdi
	callq	__Unwind_Resume
	ud2
LBB304_7:
	movb	$0, -17(%rbp)
	jmp	LBB304_1
LBB304_8:
	movq	-504(%rbp), %rax
	leaq	-336(%rbp), %rdi
	movq	%rax, %rsi
	callq	__ZN4core3ptr4read17hd498f47810bafb71E
	xorl	%eax, %eax
	movl	%eax, %ecx
	cmpq	$0, -328(%rbp)
	movl	$1, %edx
	cmovbeq	%rcx, %rdx
	cmpq	$1, %rdx
	je	LBB304_11
	jmp	LBB304_20
LBB304_11:
	movq	-336(%rbp), %rax
	movq	%rax, -304(%rbp)
	movq	-328(%rbp), %rax
	movq	%rax, -296(%rbp)
	movq	-320(%rbp), %rax
	movq	%rax, -288(%rbp)
	movq	-312(%rbp), %rax
	movq	%rax, -280(%rbp)
	movq	-304(%rbp), %rax
	movq	%rax, -224(%rbp)
	movq	-296(%rbp), %rax
	movq	%rax, -216(%rbp)
	movq	-288(%rbp), %rax
	movq	%rax, -208(%rbp)
	movq	-280(%rbp), %rax
	movq	%rax, -200(%rbp)
	leaq	-248(%rbp), %rdi
	leaq	-224(%rbp), %rsi
