	.section	__TEXT,__text,regular,pure_instructions
	.macosx_version_min 10, 7
	.intel_syntax noprefix
	.p2align	4, 0x90
__ZN112_$LT$alloc..collections..btree..map..IntoIter$LT$K$C$V$GT$$u20$as$u20$core..iter..traits..iterator..Iterator$GT$4next17haf274d8c84f958c9E:
	.cfi_startproc
	push	rbp
	.cfi_def_cfa_offset 16
	.cfi_offset rbp, -16
	mov	rbp, rsp
	.cfi_def_cfa_register rbp
	push	r15
	push	r14
	push	r13
	push	r12
	push	rbx
	sub	rsp, 120
	.cfi_offset rbx, -56
	.cfi_offset r12, -48
	.cfi_offset r13, -40
	.cfi_offset r14, -32
	.cfi_offset r15, -24
	mov	r9, rdi
	mov	rax, qword ptr [rsi + 64]
	test	rax, rax
	je	LBB0_21
	mov	r12, rsi
	dec	rax
	mov	qword ptr [rsi + 64], rax
	mov	rax, qword ptr [rsi + 8]
	test	rax, rax
	cmove	r12, rax
	je	LBB0_23
	mov	rax, qword ptr [r12]
	mov	rdi, qword ptr [r12 + 8]
	mov	r10, qword ptr [r12 + 16]
	mov	r13, qword ptr [r12 + 24]
	movzx	ecx, word ptr [rdi + 10]
	cmp	r13, rcx
	jae	LBB0_4
	mov	rbx, rax
	jmp	LBB0_10
LBB0_21:
	mov	qword ptr [r9], 0
	jmp	LBB0_22
LBB0_4:
	mov	qword ptr [rbp - 48], r10
	mov	qword ptr [rbp - 56], r9
	mov	r15d, 544
	mov	r14, qword ptr [rdi]
	test	r14, r14
	je	LBB0_6
	.p2align	4, 0x90
LBB0_7:
	lea	rbx, [rax + 1]
	movzx	r13d, word ptr [rdi + 8]
LBB0_8:
	test	rax, rax
	mov	esi, 640
	cmove	rsi, r15
	mov	edx, 8
	call	___rust_dealloc
	movzx	ecx, word ptr [r14 + 10]
	mov	rax, rbx
	mov	rdi, r14
	cmp	r13, rcx
	jb	LBB0_9
	mov	r14, qword ptr [rdi]
	test	r14, r14
	jne	LBB0_7
LBB0_6:
	mov	rbx, rax
	xor	r14d, r14d
	jmp	LBB0_8
LBB0_9:
	mov	rdi, r14
	mov	r9, qword ptr [rbp - 56]
	mov	r10, qword ptr [rbp - 48]
LBB0_10:
	lea	rax, [r13 + 2*r13]
	mov	rcx, qword ptr [rdi + 8*rax + 32]
	mov	qword ptr [rbp - 64], rcx
	mov	rcx, qword ptr [rdi + 8*rax + 16]
	mov	rdx, qword ptr [rdi + 8*rax + 24]
	mov	qword ptr [rbp - 72], rdx
	mov	qword ptr [rbp - 80], rcx
	mov	rcx, qword ptr [rdi + 8*rax + 296]
	mov	qword ptr [rbp - 88], rcx
	mov	rcx, qword ptr [rdi + 8*rax + 280]
	mov	rax, qword ptr [rdi + 8*rax + 288]
	mov	qword ptr [rbp - 96], rax
	mov	qword ptr [rbp - 104], rcx
	test	rbx, rbx
	je	LBB0_11
	mov	rax, rbx
	mov	rdi, qword ptr [rdi + 8*r13 + 552]
	dec	rax
	je	LBB0_13
	add	rbx, -2
	mov	rcx, rax
	and	rcx, 7
	je	LBB0_18
	xor	edx, edx
	.p2align	4, 0x90
LBB0_16:
	mov	rdi, qword ptr [rdi + 544]
	inc	rdx
	cmp	rcx, rdx
	jne	LBB0_16
	sub	rax, rdx
LBB0_18:
	xor	r13d, r13d
	cmp	rbx, 7
	jb	LBB0_20
	.p2align	4, 0x90
LBB0_19:
	mov	rcx, qword ptr [rdi + 544]
	mov	rcx, qword ptr [rcx + 544]
	mov	rcx, qword ptr [rcx + 544]
	mov	rcx, qword ptr [rcx + 544]
	mov	rcx, qword ptr [rcx + 544]
	mov	rcx, qword ptr [rcx + 544]
	mov	rcx, qword ptr [rcx + 544]
	mov	rdi, qword ptr [rcx + 544]
	add	rax, -8
	jne	LBB0_19
	jmp	LBB0_20
LBB0_11:
	inc	r13
	jmp	LBB0_20
LBB0_13:
	xor	r13d, r13d
LBB0_20:
	mov	r8, qword ptr [rbp - 64]
	mov	qword ptr [rbp - 136], r8
	mov	rcx, qword ptr [rbp - 80]
	mov	rdx, qword ptr [rbp - 72]
	mov	qword ptr [rbp - 144], rdx
	mov	qword ptr [rbp - 152], rcx
	mov	rsi, qword ptr [rbp - 104]
	mov	rbx, qword ptr [rbp - 96]
	mov	qword ptr [rbp - 128], rsi
	mov	qword ptr [rbp - 120], rbx
	mov	rax, qword ptr [rbp - 88]
	mov	qword ptr [rbp - 112], rax
	mov	qword ptr [r9 + 40], rax
	mov	qword ptr [r9 + 32], rbx
	mov	qword ptr [r9 + 24], rsi
	mov	qword ptr [r9 + 16], r8
	mov	qword ptr [r9 + 8], rdx
	mov	qword ptr [r9], rcx
	mov	qword ptr [r12], 0
	mov	qword ptr [r12 + 8], rdi
	mov	qword ptr [r12 + 16], r10
	mov	qword ptr [r12 + 24], r13
LBB0_22:
	add	rsp, 120
	pop	rbx
	pop	r12
	pop	r13
	pop	r14
	pop	r15
	pop	rbp
	ret
LBB0_23:
	lea	rdi, [rip + l___unnamed_1]
	lea	rdx, [rip + l___unnamed_2]
	mov	esi, 43
	call	__ZN4core9panicking5panic17h736ee47a631475c0E
	.cfi_endproc

	.private_extern	__ZN3std2rt10lang_start17h175794cd67158a95E
	.globl	__ZN3std2rt10lang_start17h175794cd67158a95E
	.p2align	4, 0x90
__ZN3std2rt10lang_start17h175794cd67158a95E:
	.cfi_startproc
	push	rbp
	.cfi_def_cfa_offset 16
	.cfi_offset rbp, -16
	mov	rbp, rsp
	.cfi_def_cfa_register rbp
	sub	rsp, 16
	mov	rcx, rdx
	mov	rdx, rsi
	mov	qword ptr [rbp - 8], rdi
	lea	rsi, [rip + l___unnamed_3]
	lea	rdi, [rbp - 8]
	call	__ZN3std2rt19lang_start_internal17hebefdaa8fd585aefE
	add	rsp, 16
	pop	rbp
	ret
	.cfi_endproc

	.p2align	4, 0x90
__ZN3std2rt10lang_start28_$u7b$$u7b$closure$u7d$$u7d$17h3a0efd6562c7df07E:
	.cfi_startproc
	push	rbp
	.cfi_def_cfa_offset 16
	.cfi_offset rbp, -16
	mov	rbp, rsp
	.cfi_def_cfa_register rbp
	call	qword ptr [rdi]
	xor	eax, eax
	pop	rbp
	ret
	.cfi_endproc

	.p2align	4, 0x90
__ZN44_$LT$$RF$T$u20$as$u20$core..fmt..Display$GT$3fmt17hee98c67aa3cb1022E:
	.cfi_startproc
	push	rbp
	.cfi_def_cfa_offset 16
	.cfi_offset rbp, -16
	mov	rbp, rsp
	.cfi_def_cfa_register rbp
	mov	rdx, rsi
	mov	rax, qword ptr [rdi]
	mov	rsi, qword ptr [rdi + 8]
	mov	rdi, rax
	pop	rbp
	jmp	__ZN42_$LT$str$u20$as$u20$core..fmt..Display$GT$3fmt17hd4dee1c1c4ccf892E
	.cfi_endproc

	.p2align	4, 0x90
__ZN4core3ops8function6FnOnce40call_once$u7b$$u7b$vtable.shim$u7d$$u7d$17h95b58111306ccf61E:
	.cfi_startproc
	push	rbp
	.cfi_def_cfa_offset 16
	.cfi_offset rbp, -16
	mov	rbp, rsp
	.cfi_def_cfa_register rbp
	call	qword ptr [rdi]
	xor	eax, eax
	pop	rbp
	ret
	.cfi_endproc

	.p2align	4, 0x90
__ZN4core3ptr13drop_in_place17h05511709941fe412E:
	.cfi_startproc
	push	rbp
	.cfi_def_cfa_offset 16
	.cfi_offset rbp, -16
	mov	rbp, rsp
	.cfi_def_cfa_register rbp
	test	rsi, rsi
	je	LBB5_3
	test	rdi, rdi
	je	LBB5_3
	shl	rsi, 4
	je	LBB5_3
	mov	edx, 8
	pop	rbp
	jmp	___rust_dealloc
LBB5_3:
	pop	rbp
	ret
	.cfi_endproc

	.p2align	4, 0x90
__ZN4core3ptr13drop_in_place17h17a65a2c288480a1E:
	.cfi_startproc
	push	rbp
	.cfi_def_cfa_offset 16
	.cfi_offset rbp, -16
	mov	rbp, rsp
	.cfi_def_cfa_register rbp
	push	rbx
	push	rax
	.cfi_offset rbx, -24
	mov	rbx, rdi
	mov	rdi, qword ptr [rdi]
	test	rdi, rdi
	je	LBB6_3
	mov	rsi, qword ptr [rbx + 8]
	test	rsi, rsi
	je	LBB6_3
	mov	edx, 1
	call	___rust_dealloc
LBB6_3:
	mov	rdi, qword ptr [rbx + 24]
	test	rdi, rdi
	je	LBB6_5
	mov	rsi, qword ptr [rbx + 32]
	test	rsi, rsi
	je	LBB6_5
	mov	edx, 1
	add	rsp, 8
	pop	rbx
	pop	rbp
	jmp	___rust_dealloc
LBB6_5:
	add	rsp, 8
	pop	rbx
	pop	rbp
	ret
	.cfi_endproc

	.p2align	4, 0x90
__ZN4core3ptr13drop_in_place17h3c06c4f46b6eb399E:
	.cfi_startproc
	push	rbp
	.cfi_def_cfa_offset 16
	.cfi_offset rbp, -16
	mov	rbp, rsp
	.cfi_def_cfa_register rbp
	pop	rbp
	ret
	.cfi_endproc

	.p2align	4, 0x90
__ZN4core3ptr13drop_in_place17h4a4e4f27d4a844f1E:
	.cfi_startproc
	push	rbp
	.cfi_def_cfa_offset 16
	.cfi_offset rbp, -16
	mov	rbp, rsp
	.cfi_def_cfa_register rbp
	mov	rax, rdi
	mov	rdi, qword ptr [rdi]
	test	rdi, rdi
	je	LBB8_2
	mov	rsi, qword ptr [rax + 8]
	test	rsi, rsi
	je	LBB8_2
	mov	edx, 1
	pop	rbp
	jmp	___rust_dealloc
LBB8_2:
	pop	rbp
	ret
	.cfi_endproc

	.p2align	4, 0x90
__ZN4core3ptr13drop_in_place17h6ba8d31ed238b43aE:
Lfunc_begin0:
	.cfi_startproc
	.cfi_personality 155, _rust_eh_personality
	.cfi_lsda 16, Lexception0
	push	rbp
	.cfi_def_cfa_offset 16
	.cfi_offset rbp, -16
	mov	rbp, rsp
	.cfi_def_cfa_register rbp
	push	r15
	push	r14
	push	r13
	push	r12
	push	rbx
	push	rax
	.cfi_offset rbx, -56
	.cfi_offset r12, -48
	.cfi_offset r13, -40
	.cfi_offset r14, -32
	.cfi_offset r15, -24
	mov	r14, rdi
	mov	rbx, qword ptr [rdi]
	mov	r12, qword ptr [rdi + 16]
	test	r12, r12
	je	LBB9_7
	shl	r12, 4
	lea	r15, [rbx + r12]
	add	r12, -16
	add	rbx, 16
	jmp	LBB9_2
	.p2align	4, 0x90
LBB9_5:
	add	r12, -16
	add	rbx, 16
	add	r13, 16
	cmp	r13, r15
	je	LBB9_6
LBB9_2:
	mov	rdi, qword ptr [rbx - 16]
	mov	rax, qword ptr [rbx - 8]
Ltmp0:
	call	qword ptr [rax]
Ltmp1:
	lea	r13, [rbx - 16]
	mov	rax, qword ptr [r13 + 8]
	mov	rsi, qword ptr [rax + 8]
	test	rsi, rsi
	je	LBB9_5
	mov	rdi, qword ptr [rbx - 16]
	mov	rdx, qword ptr [rax + 16]
	call	___rust_dealloc
	jmp	LBB9_5
LBB9_6:
	mov	rbx, qword ptr [r14]
LBB9_7:
	mov	rsi, qword ptr [r14 + 8]
	test	rsi, rsi
	je	LBB9_14
	test	rbx, rbx
	je	LBB9_14
	shl	rsi, 4
	je	LBB9_14
	mov	edx, 8
	mov	rdi, rbx
	add	rsp, 8
	pop	rbx
	pop	r12
	pop	r13
	pop	r14
	pop	r15
	pop	rbp
	jmp	___rust_dealloc
LBB9_14:
	add	rsp, 8
	pop	rbx
	pop	r12
	pop	r13
	pop	r14
	pop	r15
	pop	rbp
	ret
LBB9_11:
Ltmp2:
	mov	r15, rax
	mov	rdi, qword ptr [rbx - 16]
	mov	rsi, qword ptr [rbx - 8]
	call	__ZN5alloc5alloc8box_free17h0c640296ba171619E
	test	r12, r12
	je	LBB9_16
	.p2align	4, 0x90
LBB9_12:
Ltmp3:
	mov	rdi, rbx
	call	__ZN4core3ptr13drop_in_place17h6f60f66d0ee73599E
Ltmp4:
	add	rbx, 16
	add	r12, -16
	jne	LBB9_12
	jmp	LBB9_16
LBB9_15:
Ltmp5:
	mov	r15, rax
LBB9_16:
	mov	rdi, qword ptr [r14]
	mov	rsi, qword ptr [r14 + 8]
	call	__ZN4core3ptr13drop_in_place17h05511709941fe412E
	mov	rdi, r15
	call	__Unwind_Resume
	ud2
Lfunc_end0:
	.cfi_endproc
	.section	__TEXT,__gcc_except_tab
	.p2align	2
GCC_except_table9:
Lexception0:
	.byte	255
	.byte	255
	.byte	1
	.uleb128 Lcst_end0-Lcst_begin0
Lcst_begin0:
	.uleb128 Ltmp0-Lfunc_begin0
	.uleb128 Ltmp1-Ltmp0
	.uleb128 Ltmp2-Lfunc_begin0
	.byte	0
	.uleb128 Ltmp3-Lfunc_begin0
	.uleb128 Ltmp4-Ltmp3
	.uleb128 Ltmp5-Lfunc_begin0
	.byte	0
	.uleb128 Ltmp4-Lfunc_begin0
	.uleb128 Lfunc_end0-Ltmp4
	.byte	0
	.byte	0
Lcst_end0:
	.p2align	2

	.section	__TEXT,__text,regular,pure_instructions
	.p2align	4, 0x90
__ZN4core3ptr13drop_in_place17h6f60f66d0ee73599E:
Lfunc_begin1:
	.cfi_startproc
	.cfi_personality 155, _rust_eh_personality
	.cfi_lsda 16, Lexception1
	push	rbp
	.cfi_def_cfa_offset 16
	.cfi_offset rbp, -16
	mov	rbp, rsp
	.cfi_def_cfa_register rbp
	push	r14
	push	rbx
	.cfi_offset rbx, -32
	.cfi_offset r14, -24
	mov	rbx, rdi
	mov	rdi, qword ptr [rdi]
	mov	rax, qword ptr [rbx + 8]
Ltmp6:
	call	qword ptr [rax]
Ltmp7:
	mov	rax, qword ptr [rbx + 8]
	mov	rsi, qword ptr [rax + 8]
	test	rsi, rsi
	je	LBB10_2
	mov	rdi, qword ptr [rbx]
	mov	rdx, qword ptr [rax + 16]
	pop	rbx
	pop	r14
	pop	rbp
	jmp	___rust_dealloc
LBB10_2:
	pop	rbx
	pop	r14
	pop	rbp
	ret
LBB10_3:
Ltmp8:
	mov	r14, rax
	mov	rdi, qword ptr [rbx]
	mov	rsi, qword ptr [rbx + 8]
	call	__ZN5alloc5alloc8box_free17h0c640296ba171619E
	mov	rdi, r14
	call	__Unwind_Resume
	ud2
Lfunc_end1:
	.cfi_endproc
	.section	__TEXT,__gcc_except_tab
	.p2align	2
GCC_except_table10:
Lexception1:
	.byte	255
	.byte	255
	.byte	1
	.uleb128 Lcst_end1-Lcst_begin1
Lcst_begin1:
	.uleb128 Ltmp6-Lfunc_begin1
	.uleb128 Ltmp7-Ltmp6
	.uleb128 Ltmp8-Lfunc_begin1
	.byte	0
	.uleb128 Ltmp7-Lfunc_begin1
	.uleb128 Lfunc_end1-Ltmp7
	.byte	0
	.byte	0
Lcst_end1:
	.p2align	2

	.section	__TEXT,__text,regular,pure_instructions
	.p2align	4, 0x90
__ZN4core3ptr13drop_in_place17h7bc1ea6e5ebd005cE:
Lfunc_begin2:
	.cfi_startproc
	.cfi_personality 155, _rust_eh_personality
	.cfi_lsda 16, Lexception2
	push	rbp
	.cfi_def_cfa_offset 16
	.cfi_offset rbp, -16
	mov	rbp, rsp
	.cfi_def_cfa_register rbp
	push	r15
	push	r14
	push	r13
	push	r12
	push	rbx
	sub	rsp, 120
	.cfi_offset rbx, -56
	.cfi_offset r12, -48
	.cfi_offset r13, -40
	.cfi_offset r14, -32
	.cfi_offset r15, -24
	mov	r14, rdi
	mov	rax, qword ptr [rdi]
	mov	byte ptr [rax], 0
	mov	rsi, qword ptr [rdi + 8]
	test	rsi, rsi
	je	LBB11_2
	mov	rdi, qword ptr [r14]
	mov	edx, 1
	call	___rust_dealloc
LBB11_2:
	mov	rbx, qword ptr [r14 + 16]
	mov	r15, qword ptr [r14 + 32]
	test	r15, r15
	je	LBB11_8
	shl	r15, 4
	add	r15, rbx
	jmp	LBB11_4
	.p2align	4, 0x90
LBB11_6:
	add	rbx, 16
	cmp	rbx, r15
	je	LBB11_7
LBB11_4:
	mov	rax, qword ptr [rbx]
	mov	byte ptr [rax], 0
	mov	rsi, qword ptr [rbx + 8]
	test	rsi, rsi
	je	LBB11_6
	mov	rdi, qword ptr [rbx]
	mov	edx, 1
	call	___rust_dealloc
	jmp	LBB11_6
LBB11_7:
	mov	rbx, qword ptr [r14 + 16]
LBB11_8:
	mov	rsi, qword ptr [r14 + 24]
	test	rsi, rsi
	je	LBB11_12
	test	rbx, rbx
	je	LBB11_12
	shl	rsi, 4
	je	LBB11_12
	mov	edx, 8
	mov	rdi, rbx
	call	___rust_dealloc
LBB11_12:
	mov	rsi, qword ptr [r14 + 48]
	test	rsi, rsi
	je	LBB11_16
	mov	rdi, qword ptr [r14 + 40]
	test	rdi, rdi
	je	LBB11_16
	shl	rsi, 3
	test	rsi, rsi
	je	LBB11_16
	mov	edx, 8
	call	___rust_dealloc
LBB11_16:
	mov	rcx, qword ptr [r14 + 64]
	test	rcx, rcx
	je	LBB11_17
	mov	rdi, qword ptr [r14 + 72]
	mov	rax, qword ptr [r14 + 80]
	movzx	edx, word ptr [rcx + 10]
	test	rdi, rdi
	je	LBB11_32
	mov	bl, 1
	mov	rsi, rcx
	.p2align	4, 0x90
LBB11_36:
	test	bl, 1
	je	LBB11_33
	cmp	rdi, 1
	setne	bl
	mov	rcx, qword ptr [rcx + 544]
	mov	rsi, qword ptr [rsi + 8*rdx + 544]
	movzx	edx, word ptr [rsi + 10]
	dec	rdi
	jne	LBB11_36
	jmp	LBB11_38
LBB11_17:
	mov	qword ptr [rbp - 104], 0
	mov	qword ptr [rbp - 72], 0
	xor	eax, eax
	jmp	LBB11_39
LBB11_32:
	mov	rsi, rcx
LBB11_38:
	mov	qword ptr [rbp - 112], 0
	mov	qword ptr [rbp - 104], rcx
	mov	qword ptr [rbp - 96], 0
	mov	qword ptr [rbp - 88], 0
	mov	qword ptr [rbp - 80], 0
	mov	qword ptr [rbp - 72], rsi
	mov	qword ptr [rbp - 64], 0
	mov	qword ptr [rbp - 56], rdx
LBB11_39:
	mov	qword ptr [rbp - 48], rax
Ltmp11:
	lea	rdi, [rbp - 160]
	lea	rsi, [rbp - 112]
	call	__ZN112_$LT$alloc..collections..btree..map..IntoIter$LT$K$C$V$GT$$u20$as$u20$core..iter..traits..iterator..Iterator$GT$4next17haf274d8c84f958c9E
Ltmp12:
	mov	rdi, qword ptr [rbp - 160]
	test	rdi, rdi
	je	LBB11_50
	lea	r15, [rbp - 160]
	lea	r12, [rbp - 112]
	.p2align	4, 0x90
LBB11_42:
	mov	rbx, qword ptr [rbp - 136]
	mov	r13, qword ptr [rbp - 128]
	test	rdi, rdi
	je	LBB11_45
	mov	rsi, qword ptr [rbp - 152]
	test	rsi, rsi
	je	LBB11_45
	mov	edx, 1
	call	___rust_dealloc
LBB11_45:
	test	rbx, rbx
	je	LBB11_48
	test	r13, r13
	je	LBB11_48
	mov	edx, 1
	mov	rdi, rbx
	mov	rsi, r13
	call	___rust_dealloc
LBB11_48:
Ltmp14:
	mov	rdi, r15
	mov	rsi, r12
	call	__ZN112_$LT$alloc..collections..btree..map..IntoIter$LT$K$C$V$GT$$u20$as$u20$core..iter..traits..iterator..Iterator$GT$4next17haf274d8c84f958c9E
Ltmp15:
	mov	rdi, qword ptr [rbp - 160]
	test	rdi, rdi
	jne	LBB11_42
LBB11_50:
	mov	rdi, qword ptr [rbp - 104]
	test	rdi, rdi
	je	LBB11_27
	mov	rax, qword ptr [rbp - 112]
	mov	r15d, 544
	.p2align	4, 0x90
LBB11_52:
	mov	r12, qword ptr [rdi]
	xor	ebx, ebx
	test	r12, r12
	setne	bl
	add	rbx, rax
	test	rax, rax
	mov	esi, 640
	cmove	rsi, r15
	mov	edx, 8
	call	___rust_dealloc
	mov	rax, rbx
	mov	rdi, r12
	test	r12, r12
	jne	LBB11_52
LBB11_27:
	mov	rax, qword ptr [r14 + 96]
	test	rax, rax
	je	LBB11_30
	mov	byte ptr [rax], 0
	mov	rsi, qword ptr [r14 + 104]
	test	rsi, rsi
	je	LBB11_30
	mov	rdi, qword ptr [r14 + 96]
	mov	edx, 1
	call	___rust_dealloc
LBB11_30:
	lea	rdi, [r14 + 112]
Ltmp17:
	call	__ZN4core3ptr13drop_in_place17h6ba8d31ed238b43aE
Ltmp18:
	cmp	dword ptr [r14 + 152], 3
	jne	LBB11_23
	lea	rdi, [r14 + 156]
Ltmp20:
	call	__ZN70_$LT$std..sys..unix..fd..FileDesc$u20$as$u20$core..ops..drop..Drop$GT$4drop17hf5fce2bf4d9f8deaE
Ltmp21:
LBB11_23:
	cmp	dword ptr [r14 + 160], 3
	jne	LBB11_21
	lea	rdi, [r14 + 164]
Ltmp23:
	call	__ZN70_$LT$std..sys..unix..fd..FileDesc$u20$as$u20$core..ops..drop..Drop$GT$4drop17hf5fce2bf4d9f8deaE
Ltmp24:
LBB11_21:
	cmp	dword ptr [r14 + 168], 3
	jne	LBB11_59
	add	r14, 172
	mov	rdi, r14
	add	rsp, 120
	pop	rbx
	pop	r12
	pop	r13
	pop	r14
	pop	r15
	pop	rbp
	jmp	__ZN70_$LT$std..sys..unix..fd..FileDesc$u20$as$u20$core..ops..drop..Drop$GT$4drop17hf5fce2bf4d9f8deaE
LBB11_59:
	add	rsp, 120
	pop	rbx
	pop	r12
	pop	r13
	pop	r14
	pop	r15
	pop	rbp
	ret
LBB11_33:
	lea	rax, [rip + __ZN44_$LT$$RF$T$u20$as$u20$core..fmt..Display$GT$3fmt17hee98c67aa3cb1022E]
	movq	xmm0, rax
	lea	rax, [rip + l___unnamed_4]
	movq	xmm1, rax
	punpcklqdq	xmm1, xmm0
	movdqa	xmmword ptr [rbp - 160], xmm1
	lea	rax, [rip + l___unnamed_5]
	mov	qword ptr [rbp - 112], rax
	mov	qword ptr [rbp - 104], 1
	mov	qword ptr [rbp - 96], 0
	lea	rax, [rbp - 160]
	mov	qword ptr [rbp - 80], rax
	mov	qword ptr [rbp - 72], 1
Ltmp9:
	lea	rsi, [rip + l___unnamed_6]
	lea	rdi, [rbp - 112]
	call	__ZN4core9panicking9panic_fmt17hab6ef1464e9720aaE
Ltmp10:
	ud2
LBB11_58:
Ltmp25:
	mov	rbx, rax
	jmp	LBB11_20
LBB11_18:
Ltmp22:
	mov	rbx, rax
	jmp	LBB11_19
LBB11_54:
Ltmp13:
	jmp	LBB11_55
LBB11_57:
Ltmp19:
	mov	rbx, rax
	jmp	LBB11_56
LBB11_53:
Ltmp16:
LBB11_55:
	mov	rbx, rax
	lea	rdi, [r14 + 96]
	call	__ZN4core3ptr13drop_in_place17heaaf4a6f80685dc2E
	lea	rdi, [r14 + 112]
	call	__ZN4core3ptr13drop_in_place17h6ba8d31ed238b43aE
LBB11_56:
	lea	rdi, [r14 + 152]
	call	__ZN4core3ptr13drop_in_place17hc100aa39188fcadeE
LBB11_19:
	lea	rdi, [r14 + 160]
	call	__ZN4core3ptr13drop_in_place17hc100aa39188fcadeE
LBB11_20:
	add	r14, 168
	mov	rdi, r14
	call	__ZN4core3ptr13drop_in_place17hc100aa39188fcadeE
	mov	rdi, rbx
	call	__Unwind_Resume
	ud2
Lfunc_end2:
	.cfi_endproc
	.section	__TEXT,__gcc_except_tab
	.p2align	2
GCC_except_table11:
Lexception2:
	.byte	255
	.byte	255
	.byte	1
	.uleb128 Lcst_end2-Lcst_begin2
Lcst_begin2:
	.uleb128 Ltmp11-Lfunc_begin2
	.uleb128 Ltmp12-Ltmp11
	.uleb128 Ltmp13-Lfunc_begin2
	.byte	0
	.uleb128 Ltmp14-Lfunc_begin2
	.uleb128 Ltmp15-Ltmp14
	.uleb128 Ltmp16-Lfunc_begin2
	.byte	0
	.uleb128 Ltmp17-Lfunc_begin2
	.uleb128 Ltmp18-Ltmp17
	.uleb128 Ltmp19-Lfunc_begin2
	.byte	0
	.uleb128 Ltmp20-Lfunc_begin2
	.uleb128 Ltmp21-Ltmp20
	.uleb128 Ltmp22-Lfunc_begin2
	.byte	0
	.uleb128 Ltmp23-Lfunc_begin2
	.uleb128 Ltmp24-Ltmp23
	.uleb128 Ltmp25-Lfunc_begin2
	.byte	0
	.uleb128 Ltmp24-Lfunc_begin2
	.uleb128 Ltmp9-Ltmp24
	.byte	0
	.byte	0
	.uleb128 Ltmp9-Lfunc_begin2
	.uleb128 Ltmp10-Ltmp9
	.uleb128 Ltmp13-Lfunc_begin2
	.byte	0
	.uleb128 Ltmp10-Lfunc_begin2
	.uleb128 Lfunc_end2-Ltmp10
	.byte	0
	.byte	0
Lcst_end2:
	.p2align	2

	.section	__TEXT,__text,regular,pure_instructions
	.p2align	4, 0x90
__ZN4core3ptr13drop_in_place17h87eb04b88c82388eE:
	.cfi_startproc
	push	rbp
	.cfi_def_cfa_offset 16
	.cfi_offset rbp, -16
	mov	rbp, rsp
	.cfi_def_cfa_register rbp
	mov	rax, rdi
	mov	rdi, qword ptr [rdi]
	test	rdi, rdi
	je	LBB12_2
	mov	rsi, qword ptr [rax + 8]
	test	rsi, rsi
	je	LBB12_2
	mov	edx, 1
	pop	rbp
	jmp	___rust_dealloc
LBB12_2:
	pop	rbp
	ret
	.cfi_endproc

	.p2align	4, 0x90
__ZN4core3ptr13drop_in_place17hc100aa39188fcadeE:
	.cfi_startproc
	push	rbp
	.cfi_def_cfa_offset 16
	.cfi_offset rbp, -16
	mov	rbp, rsp
	.cfi_def_cfa_register rbp
	cmp	dword ptr [rdi], 3
	jne	LBB13_1
	add	rdi, 4
	pop	rbp
	jmp	__ZN70_$LT$std..sys..unix..fd..FileDesc$u20$as$u20$core..ops..drop..Drop$GT$4drop17hf5fce2bf4d9f8deaE
LBB13_1:
	pop	rbp
	ret
	.cfi_endproc

	.p2align	4, 0x90
__ZN4core3ptr13drop_in_place17hd7387679a879fbc7E:
	.cfi_startproc
	push	rbp
	.cfi_def_cfa_offset 16
	.cfi_offset rbp, -16
	mov	rbp, rsp
	.cfi_def_cfa_register rbp
	cmp	qword ptr [rdi], 0
	je	LBB14_3
	mov	rax, rdi
	mov	rdi, qword ptr [rdi + 8]
	test	rdi, rdi
	je	LBB14_3
	mov	rsi, qword ptr [rax + 16]
	test	rsi, rsi
	je	LBB14_3
	mov	edx, 1
	pop	rbp
	jmp	___rust_dealloc
LBB14_3:
	pop	rbp
	ret
	.cfi_endproc

	.p2align	4, 0x90
__ZN4core3ptr13drop_in_place17heaaf4a6f80685dc2E:
	.cfi_startproc
	push	rbp
	.cfi_def_cfa_offset 16
	.cfi_offset rbp, -16
	mov	rbp, rsp
	.cfi_def_cfa_register rbp
	mov	rax, qword ptr [rdi]
	test	rax, rax
	je	LBB15_2
	mov	byte ptr [rax], 0
	mov	rsi, qword ptr [rdi + 8]
	test	rsi, rsi
	je	LBB15_2
	mov	rdi, qword ptr [rdi]
	mov	edx, 1
	pop	rbp
	jmp	___rust_dealloc
LBB15_2:
	pop	rbp
	ret
	.cfi_endproc

	.p2align	4, 0x90
__ZN4core3str21_$LT$impl$u20$str$GT$8contains17h4edf057ca13e76cbE:
	.cfi_startproc
	push	rbp
	.cfi_def_cfa_offset 16
	.cfi_offset rbp, -16
	mov	rbp, rsp
	.cfi_def_cfa_register rbp
	push	r15
	push	r14
	push	r13
	push	r12
	push	rbx
	sub	rsp, 184
	.cfi_offset rbx, -56
	.cfi_offset r12, -48
	.cfi_offset r13, -40
	.cfi_offset r14, -32
	.cfi_offset r15, -24
	mov	r8, rcx
	mov	rcx, rdx
	mov	rdx, rsi
	mov	rsi, rdi
	lea	rdi, [rbp - 160]
	call	__ZN4core3str7pattern11StrSearcher3new17hf20175b25b057116E
	cmp	qword ptr [rbp - 128], 1
	jne	LBB16_1
	mov	r11, qword ptr [rbp - 72]
	mov	rax, qword ptr [rbp - 136]
	lea	r8, [rax - 1]
	mov	r10, qword ptr [rbp - 160]
	mov	rsi, qword ptr [rbp - 152]
	mov	r9, qword ptr [rbp - 144]
	mov	r13, qword ptr [rbp - 88]
	lea	rcx, [rax + r13 - 1]
	cmp	r11, -1
	je	LBB16_35
	cmp	rcx, rsi
	jae	LBB16_52
	mov	r14, qword ptr [rbp - 96]
	mov	rbx, qword ptr [rbp - 120]
	mov	rdx, qword ptr [rbp - 104]
	mov	rdi, rax
	mov	qword ptr [rbp - 48], rdx
	sub	rdi, rdx
	mov	qword ptr [rbp - 168], rdi
	mov	rdx, rbx
	neg	rdx
	mov	qword ptr [rbp - 56], rdx
	movzx	ecx, byte ptr [r10 + rcx]
	bt	r14, rcx
	jb	LBB16_58
	.p2align	4, 0x90
LBB16_57:
	add	r13, rax
	xor	r11d, r11d
	lea	rcx, [r13 + r8]
	cmp	rcx, rsi
	jae	LBB16_71
LBB16_56:
	movzx	ecx, byte ptr [r10 + rcx]
	bt	r14, rcx
	jae	LBB16_57
LBB16_58:
	cmp	rbx, r11
	mov	rcx, r11
	cmova	rcx, rbx
	lea	r15, [r9 + rcx]
	lea	rdi, [r13 + rcx]
	.p2align	4, 0x90
LBB16_59:
	cmp	rcx, rax
	jae	LBB16_60
	cmp	rdi, rsi
	jae	LBB16_72
	inc	rcx
	movzx	r12d, byte ptr [r15]
	inc	r15
	lea	rdx, [rdi + 1]
	cmp	r12b, byte ptr [r10 + rdi]
	mov	rdi, rdx
	je	LBB16_59
	add	rdx, qword ptr [rbp - 56]
	xor	r11d, r11d
	mov	r13, rdx
	lea	rcx, [r13 + r8]
	cmp	rcx, rsi
	jb	LBB16_56
	jmp	LBB16_71
	.p2align	4, 0x90
LBB16_60:
	mov	rdi, rbx
	.p2align	4, 0x90
LBB16_61:
	cmp	r11, rdi
	jae	LBB16_62
	dec	rdi
	cmp	rdi, rax
	jae	LBB16_73
	lea	rcx, [rdi + r13]
	cmp	rcx, rsi
	jae	LBB16_74
	movzx	edx, byte ptr [r9 + rdi]
	cmp	dl, byte ptr [r10 + rcx]
	je	LBB16_61
	add	r13, qword ptr [rbp - 48]
	mov	r11, qword ptr [rbp - 168]
	lea	rcx, [r13 + r8]
	cmp	rcx, rsi
	jb	LBB16_56
LBB16_71:
	mov	qword ptr [rbp - 72], r11
	jmp	LBB16_51
LBB16_1:
	mov	r8b, byte ptr [rbp - 104]
	mov	rcx, qword ptr [rbp - 120]
	mov	r10, qword ptr [rbp - 160]
	mov	rsi, qword ptr [rbp - 152]
	lea	r9, [r10 + rsi]
	jmp	LBB16_3
	.p2align	4, 0x90
LBB16_2:
	add	rcx, rax
LBB16_3:
	mov	edx, r8d
	test	r8b, r8b
	sete	r8b
	mov	qword ptr [rbp - 200], r10
	mov	qword ptr [rbp - 192], rsi
	mov	qword ptr [rbp - 176], rcx
	mov	qword ptr [rbp - 184], rsi
	test	rcx, rcx
	je	LBB16_7
	cmp	rsi, rcx
	je	LBB16_7
	jbe	LBB16_75
	cmp	byte ptr [r10 + rcx], -65
	jle	LBB16_75
LBB16_7:
	mov	ebx, 1114112
	cmp	rsi, rcx
	je	LBB16_25
	lea	rax, [r10 + rcx]
	movzx	ebx, byte ptr [rax]
	test	bl, bl
	jns	LBB16_25
	lea	rdi, [rax + 1]
	cmp	rdi, r9
	je	LBB16_10
	movzx	edi, byte ptr [rax + 1]
	add	rax, 2
	and	edi, 63
	mov	r11d, ebx
	and	r11d, 31
	cmp	bl, -33
	jbe	LBB16_13
LBB16_15:
	cmp	rax, r9
	je	LBB16_16
	movzx	r14d, byte ptr [rax]
	inc	rax
	and	r14d, 63
	shl	edi, 6
	or	edi, r14d
	cmp	bl, -16
	jb	LBB16_19
LBB16_20:
	cmp	rax, r9
	je	LBB16_21
	movzx	eax, byte ptr [rax]
	and	eax, 63
	jmp	LBB16_23
LBB16_10:
	xor	edi, edi
	mov	rax, r9
	mov	r11d, ebx
	and	r11d, 31
	cmp	bl, -33
	ja	LBB16_15
LBB16_13:
	shl	r11d, 6
	or	edi, r11d
	jmp	LBB16_24
LBB16_16:
	xor	r14d, r14d
	mov	rax, r9
	shl	edi, 6
	or	edi, r14d
	cmp	bl, -16
	jae	LBB16_20
LBB16_19:
	shl	r11d, 12
	or	edi, r11d
	jmp	LBB16_24
LBB16_21:
	xor	eax, eax
LBB16_23:
	and	r11d, 7
	shl	r11d, 18
	shl	edi, 6
	or	edi, r11d
	or	edi, eax
LBB16_24:
	mov	ebx, edi
	.p2align	4, 0x90
LBB16_25:
	test	dl, dl
	jne	LBB16_26
	cmp	ebx, 1114112
	je	LBB16_33
	mov	eax, 1
	cmp	ebx, 128
	jb	LBB16_2
	mov	eax, 2
	cmp	ebx, 2048
	jb	LBB16_2
	cmp	ebx, 65536
	mov	eax, 4
	sbb	rax, 0
	jmp	LBB16_2
LBB16_26:
	mov	al, 1
	jmp	LBB16_27
LBB16_33:
	xor	eax, eax
LBB16_27:
	mov	byte ptr [rbp - 104], r8b
	mov	qword ptr [rbp - 120], rcx
	jmp	LBB16_28
LBB16_35:
	cmp	rcx, rsi
	jae	LBB16_52
	mov	r11, qword ptr [rbp - 96]
	mov	rbx, qword ptr [rbp - 120]
	mov	rdx, qword ptr [rbp - 104]
	mov	qword ptr [rbp - 48], rdx
	lea	rdx, [r9 + rbx]
	mov	qword ptr [rbp - 56], rdx
	lea	r12, [r10 + rbx]
	mov	r14, r13
	movzx	ecx, byte ptr [r10 + rcx]
	bt	r11, rcx
	jb	LBB16_38
LBB16_48:
	add	r14, rax
LBB16_49:
	mov	r13, r14
LBB16_50:
	lea	rcx, [r13 + r8]
	cmp	rcx, rsi
	jae	LBB16_51
	mov	r14, r13
	movzx	ecx, byte ptr [r10 + rcx]
	bt	r11, rcx
	jae	LBB16_48
LBB16_38:
	xor	ecx, ecx
	mov	r13, r14
	mov	r15, qword ptr [rbp - 56]
	.p2align	4, 0x90
LBB16_39:
	lea	rdi, [rbx + rcx]
	cmp	rdi, rax
	jae	LBB16_40
	lea	rdi, [rbx + r13]
	cmp	rdi, rsi
	jae	LBB16_72
	movzx	edx, byte ptr [r15]
	inc	r15
	inc	rcx
	cmp	dl, byte ptr [r12 + r13]
	lea	r13, [r13 + 1]
	je	LBB16_39
	jmp	LBB16_50
LBB16_40:
	mov	rdi, rbx
	.p2align	4, 0x90
LBB16_41:
	test	rdi, rdi
	je	LBB16_53
	dec	rdi
	cmp	rdi, rax
	jae	LBB16_73
	lea	rcx, [rdi + r14]
	cmp	rcx, rsi
	jae	LBB16_74
	movzx	edx, byte ptr [r9 + rdi]
	cmp	dl, byte ptr [r10 + rcx]
	je	LBB16_41
	add	r14, qword ptr [rbp - 48]
	jmp	LBB16_49
LBB16_62:
	add	r13, rax
	mov	qword ptr [rbp - 88], r13
	mov	qword ptr [rbp - 72], 0
	mov	al, 1
	jmp	LBB16_28
LBB16_53:
	add	r14, rax
	mov	qword ptr [rbp - 88], r14
	mov	al, 1
	jmp	LBB16_28
LBB16_51:
	mov	qword ptr [rbp - 88], r13
LBB16_52:
	mov	qword ptr [rbp - 88], rsi
	xor	eax, eax
LBB16_28:
	add	rsp, 184
	pop	rbx
	pop	r12
	pop	r13
	pop	r14
	pop	r15
	pop	rbp
	ret
LBB16_72:
	lea	rdx, [rip + l___unnamed_7]
	call	__ZN4core9panicking18panic_bounds_check17habe69d236c55e3edE
LBB16_75:
	lea	rax, [rbp - 200]
	mov	qword ptr [rbp - 224], rax
	lea	rax, [rbp - 176]
	mov	qword ptr [rbp - 216], rax
	lea	rax, [rbp - 184]
	mov	qword ptr [rbp - 208], rax
	lea	rdi, [rbp - 224]
	call	__ZN4core3str6traits105_$LT$impl$u20$core..slice..SliceIndex$LT$str$GT$$u20$for$u20$core..ops..range..RangeFrom$LT$usize$GT$$GT$5index28_$u7b$$u7b$closure$u7d$$u7d$17hec8f852246e85d30E
LBB16_73:
	lea	rdx, [rip + l___unnamed_8]
	mov	rsi, rax
	call	__ZN4core9panicking18panic_bounds_check17habe69d236c55e3edE
LBB16_74:
	lea	rdx, [rip + l___unnamed_9]
	mov	rdi, rcx
	call	__ZN4core9panicking18panic_bounds_check17habe69d236c55e3edE
	.cfi_endproc

	.p2align	4, 0x90
__ZN4core3str6traits105_$LT$impl$u20$core..slice..SliceIndex$LT$str$GT$$u20$for$u20$core..ops..range..RangeFrom$LT$usize$GT$$GT$5index28_$u7b$$u7b$closure$u7d$$u7d$17hec8f852246e85d30E:
	.cfi_startproc
	push	rbp
	.cfi_def_cfa_offset 16
	.cfi_offset rbp, -16
	mov	rbp, rsp
	.cfi_def_cfa_register rbp
	mov	rcx, qword ptr [rdi]
	mov	rdx, qword ptr [rdi + 8]
	mov	rax, qword ptr [rcx]
	mov	rsi, qword ptr [rcx + 8]
	mov	rdx, qword ptr [rdx]
	mov	rcx, qword ptr [rdi + 16]
	mov	rcx, qword ptr [rcx]
	lea	r8, [rip + l___unnamed_10]
	mov	rdi, rax
	call	__ZN4core3str16slice_error_fail17h6b29707aec812690E
	.cfi_endproc

	.p2align	4, 0x90
__ZN5alloc5alloc8box_free17h0c640296ba171619E:
	.cfi_startproc
	push	rbp
	.cfi_def_cfa_offset 16
	.cfi_offset rbp, -16
	mov	rbp, rsp
	.cfi_def_cfa_register rbp
	mov	rax, rsi
	mov	rsi, qword ptr [rsi + 8]
	test	rsi, rsi
	je	LBB18_1
	mov	rdx, qword ptr [rax + 16]
	pop	rbp
	jmp	___rust_dealloc
LBB18_1:
	pop	rbp
	ret
	.cfi_endproc

	.p2align	4, 0x90
__ZN5alloc5alloc8box_free17hd52fc7fdf5aaf7ceE:
	.cfi_startproc
	push	rbp
	.cfi_def_cfa_offset 16
	.cfi_offset rbp, -16
	mov	rbp, rsp
	.cfi_def_cfa_register rbp
	mov	esi, 24
	mov	edx, 8
	pop	rbp
	jmp	___rust_dealloc
	.cfi_endproc

	.p2align	4, 0x90
__ZN84_$LT$core..str..Split$LT$P$GT$$u20$as$u20$core..iter..traits..iterator..Iterator$GT$4next17h7010e785b025043bE:
	.cfi_startproc
	push	rbp
	.cfi_def_cfa_offset 16
	.cfi_offset rbp, -16
	mov	rbp, rsp
	.cfi_def_cfa_register rbp
	push	r15
	push	r14
	push	r13
	push	r12
	push	rbx
	sub	rsp, 24
	.cfi_offset rbx, -56
	.cfi_offset r12, -48
	.cfi_offset r13, -40
	.cfi_offset r14, -32
	.cfi_offset r15, -24
	cmp	byte ptr [rdi + 65], 0
	jne	LBB20_1
	mov	r13, rdi
	mov	rsi, qword ptr [rdi + 32]
	mov	rax, qword ptr [rdi + 40]
	mov	rdx, rax
	sub	rdx, rsi
	jb	LBB20_16
	cmp	qword ptr [r13 + 24], rax
	jb	LBB20_16
	mov	rcx, qword ptr [r13 + 16]
	mov	rax, qword ptr [r13 + 48]
	mov	qword ptr [rbp - 56], rcx
	add	rsi, rcx
	movzx	edi, byte ptr [rax + r13 + 59]
	call	__ZN4core5slice6memchr6memchr17h319ffdabcbdf42caE
	cmp	rax, 1
	jne	LBB20_15
	lea	rax, [r13 + 60]
	mov	qword ptr [rbp - 48], rax
	.p2align	4, 0x90
LBB20_6:
	mov	rax, qword ptr [r13 + 32]
	mov	r15, qword ptr [r13 + 48]
	lea	rbx, [rdx + rax + 1]
	mov	qword ptr [r13 + 32], rbx
	mov	r12, rbx
	sub	r12, r15
	jae	LBB20_8
	mov	r14, qword ptr [r13 + 24]
	mov	rax, qword ptr [r13 + 40]
	mov	rdx, rax
	sub	rdx, rbx
	jae	LBB20_13
	jmp	LBB20_16
	.p2align	4, 0x90
LBB20_8:
	mov	r14, qword ptr [r13 + 24]
	cmp	r14, rbx
	jb	LBB20_12
	cmp	r15, 5
	jae	LBB20_23
	mov	rdi, qword ptr [r13 + 16]
	add	rdi, r12
	cmp	rdi, qword ptr [rbp - 48]
	je	LBB20_21
	mov	rsi, qword ptr [rbp - 48]
	mov	rdx, r15
	call	_bcmp
	test	eax, eax
	je	LBB20_21
LBB20_12:
	mov	rax, qword ptr [r13 + 40]
	mov	rdx, rax
	sub	rdx, rbx
	jb	LBB20_16
LBB20_13:
	cmp	r14, rax
	jb	LBB20_16
	add	rbx, qword ptr [r13 + 16]
	movzx	edi, byte ptr [r15 + r13 + 59]
	mov	rsi, rbx
	call	__ZN4core5slice6memchr6memchr17h319ffdabcbdf42caE
	cmp	rax, 1
	je	LBB20_6
LBB20_15:
	mov	rax, qword ptr [r13 + 40]
	mov	qword ptr [r13 + 32], rax
LBB20_16:
	cmp	byte ptr [r13 + 65], 0
	je	LBB20_17
LBB20_1:
	xor	eax, eax
LBB20_22:
	mov	rdx, r12
	add	rsp, 24
	pop	rbx
	pop	r12
	pop	r13
	pop	r14
	pop	r15
	pop	rbp
	ret
LBB20_17:
	cmp	byte ptr [r13 + 64], 0
	je	LBB20_19
	mov	rax, qword ptr [r13]
	mov	r12, qword ptr [r13 + 8]
	jmp	LBB20_20
LBB20_19:
	mov	rax, qword ptr [r13]
	mov	r12, qword ptr [r13 + 8]
	cmp	r12, rax
	je	LBB20_1
LBB20_20:
	mov	byte ptr [r13 + 65], 1
	sub	r12, rax
	add	rax, qword ptr [r13 + 16]
	jmp	LBB20_22
LBB20_21:
	mov	rcx, qword ptr [r13]
	mov	rax, qword ptr [rbp - 56]
	add	rax, rcx
	sub	r12, rcx
	mov	qword ptr [r13], rbx
	jmp	LBB20_22
LBB20_23:
	lea	rdx, [rip + l___unnamed_11]
	mov	esi, 4
	mov	rdi, r15
	call	__ZN4core5slice20slice_index_len_fail17h550a313151a85135E
	.cfi_endproc

	.p2align	4, 0x90
__ZN18build_script_build4main17h64775c311a1acc90E:
Lfunc_begin3:
	.cfi_startproc
	.cfi_personality 155, _rust_eh_personality
	.cfi_lsda 16, Lexception3
	push	rbp
	.cfi_def_cfa_offset 16
	.cfi_offset rbp, -16
	mov	rbp, rsp
	.cfi_def_cfa_register rbp
	push	r15
	push	r14
	push	r13
	push	r12
	push	rbx
	sub	rsp, 568
	.cfi_offset rbx, -56
	.cfi_offset r12, -48
	.cfi_offset r13, -40
	.cfi_offset r14, -32
	.cfi_offset r15, -24
	lea	rax, [rip + l___unnamed_12]
	mov	qword ptr [rbp - 248], rax
	mov	qword ptr [rbp - 240], 1
	mov	qword ptr [rbp - 232], 0
	lea	rax, [rip + l___unnamed_13]
	mov	qword ptr [rbp - 216], rax
	mov	qword ptr [rbp - 208], 0
	lea	rdi, [rbp - 248]
	call	__ZN3std2io5stdio6_print17hdea2154009b9e479E
	lea	rsi, [rip + l___unnamed_14]
	lea	rdi, [rbp - 248]
	mov	edx, 5
	call	__ZN3std3env7_var_os17hc8b7303001145450E
	mov	rbx, qword ptr [rbp - 248]
	test	rbx, rbx
	je	LBB21_46
	mov	r14, qword ptr [rbp - 240]
	mov	rdx, qword ptr [rbp - 232]
	mov	qword ptr [rbp - 288], rbx
	mov	qword ptr [rbp - 280], r14
	mov	qword ptr [rbp - 272], rdx
Ltmp26:
	lea	rdi, [rbp - 248]
	mov	rsi, rbx
	call	__ZN3std3sys4unix7process14process_common7Command3new17hcd746a384cbb0b47E
Ltmp27:
	lea	rdi, [rbp - 608]
	lea	rsi, [rbp - 248]
	mov	edx, 184
	call	_memcpy
	test	r14, r14
	je	LBB21_4
	mov	edx, 1
	mov	rdi, rbx
	mov	rsi, r14
	call	___rust_dealloc
LBB21_4:
Ltmp29:
	lea	rsi, [rip + l___unnamed_15]
	lea	rdi, [rbp - 608]
	mov	edx, 9
	call	__ZN3std3sys4unix7process14process_common7Command3arg17hc476c471a9efd12bE
Ltmp30:
Ltmp31:
	lea	rdi, [rbp - 248]
	lea	rsi, [rbp - 608]
	call	__ZN3std7process7Command6output17h3119df81721f3b73E
Ltmp32:
	cmp	qword ptr [rbp - 248], 1
	jne	LBB21_7
	cmp	byte ptr [rbp - 240], 2
	jb	LBB21_13
	mov	rbx, qword ptr [rbp - 232]
	mov	rdi, qword ptr [rbx]
	mov	rax, qword ptr [rbx + 8]
Ltmp34:
	call	qword ptr [rax]
Ltmp35:
	mov	rax, qword ptr [rbx + 8]
	mov	rsi, qword ptr [rax + 8]
	test	rsi, rsi
	je	LBB21_12
	mov	rdi, qword ptr [rbx]
	mov	rdx, qword ptr [rax + 16]
	call	___rust_dealloc
LBB21_12:
	mov	esi, 24
	mov	edx, 8
	mov	rdi, rbx
	call	___rust_dealloc
LBB21_13:
	xor	r14d, r14d
	jmp	LBB21_14
LBB21_7:
	mov	r14, qword ptr [rbp - 240]
	mov	r13, qword ptr [rbp - 232]
	mov	r12, qword ptr [rbp - 224]
	mov	r15, qword ptr [rbp - 216]
	mov	rax, qword ptr [rbp - 208]
	mov	qword ptr [rbp - 48], rax
	mov	rax, qword ptr [rbp - 200]
	mov	qword ptr [rbp - 328], rax
	mov	rax, qword ptr [rbp - 192]
	mov	qword ptr [rbp - 320], rax
LBB21_14:
	mov	rax, qword ptr [rbp - 328]
	mov	rcx, qword ptr [rbp - 320]
	mov	qword ptr [rbp - 240], rcx
	mov	qword ptr [rbp - 248], rax
	test	r14, r14
	je	LBB21_47
	mov	rax, qword ptr [rbp - 248]
	mov	rcx, qword ptr [rbp - 240]
	mov	qword ptr [rbp - 360], rcx
	mov	qword ptr [rbp - 368], rax
	mov	qword ptr [rbp - 424], r14
	mov	qword ptr [rbp - 416], r13
	mov	qword ptr [rbp - 408], r12
	mov	qword ptr [rbp - 400], r15
	mov	rdx, qword ptr [rbp - 48]
	mov	qword ptr [rbp - 392], rdx
	mov	qword ptr [rbp - 384], rax
	mov	qword ptr [rbp - 376], rcx
Ltmp37:
	lea	rdi, [rbp - 608]
	call	__ZN4core3ptr13drop_in_place17h7bc1ea6e5ebd005cE
Ltmp38:
Ltmp39:
	lea	rdi, [rbp - 248]
	mov	rsi, r14
	mov	rdx, r12
	call	__ZN4core3str9from_utf817he06957962f38305fE
Ltmp40:
	cmp	qword ptr [rbp - 248], 1
	je	LBB21_40
	mov	r12, qword ptr [rbp - 240]
	test	r12, r12
	je	LBB21_40
	mov	rbx, qword ptr [rbp - 232]
Ltmp41:
	lea	rdx, [rip + l___unnamed_16]
	mov	ecx, 7
	mov	rdi, r12
	mov	rsi, rbx
	call	__ZN4core3str21_$LT$impl$u20$str$GT$8contains17h4edf057ca13e76cbE
Ltmp42:
	mov	byte ptr [rbp - 56], 1
	test	al, al
	jne	LBB21_22
Ltmp43:
	lea	rdx, [rip + l___unnamed_17]
	mov	ecx, 3
	mov	rdi, r12
	mov	rsi, rbx
	call	__ZN4core3str21_$LT$impl$u20$str$GT$8contains17h4edf057ca13e76cbE
	mov	byte ptr [rbp - 56], al
Ltmp44:
LBB21_22:
	mov	qword ptr [rbp - 248], 0
	mov	qword ptr [rbp - 240], rbx
	mov	qword ptr [rbp - 232], r12
	mov	qword ptr [rbp - 224], rbx
	mov	qword ptr [rbp - 216], 0
	mov	qword ptr [rbp - 208], rbx
	mov	qword ptr [rbp - 200], 1
	movabs	rax, 197568495662
	mov	qword ptr [rbp - 192], rax
	mov	word ptr [rbp - 184], 1
Ltmp45:
	lea	rdi, [rbp - 248]
	call	__ZN84_$LT$core..str..Split$LT$P$GT$$u20$as$u20$core..iter..traits..iterator..Iterator$GT$4next17h7010e785b025043bE
Ltmp46:
	xor	esi, esi
	test	rax, rax
	setne	sil
	lea	rcx, [rip + l___unnamed_18]
	xor	edi, edi
	test	rcx, rcx
	setne	dil
	cmp	rsi, rdi
	jne	LBB21_40
	test	rax, rax
	je	LBB21_29
	test	rcx, rcx
	je	LBB21_29
	cmp	rdx, 7
	jne	LBB21_40
	cmp	rax, rcx
	je	LBB21_29
	mov	ecx, 1953723762
	xor	ecx, dword ptr [rax]
	mov	edx, 824206196
	xor	edx, dword ptr [rax + 3]
	or	edx, ecx
	jne	LBB21_40
LBB21_29:
Ltmp47:
	lea	rbx, [rbp - 248]
	mov	rdi, rbx
	call	__ZN84_$LT$core..str..Split$LT$P$GT$$u20$as$u20$core..iter..traits..iterator..Iterator$GT$4next17h7010e785b025043bE
Ltmp48:
	test	rax, rax
	je	LBB21_40
Ltmp49:
	mov	rdi, rax
	mov	rsi, rdx
	call	__ZN4core3num52_$LT$impl$u20$core..str..FromStr$u20$for$u20$u32$GT$8from_str17hb8ee2851a4cfefb0E
Ltmp50:
	mov	r12, rax
	test	r12b, 1
	jne	LBB21_40
	shr	r12, 32
	test	r13, r13
	je	LBB21_35
	mov	edx, 1
	mov	rdi, r14
	mov	rsi, r13
	call	___rust_dealloc
LBB21_35:
	test	r15, r15
	je	LBB21_38
	cmp	qword ptr [rbp - 48], 0
	je	LBB21_38
	mov	edx, 1
	mov	rdi, r15
	mov	rsi, qword ptr [rbp - 48]
	call	___rust_dealloc
LBB21_38:
	cmp	r12d, 30
	lea	rcx, [rip + l___unnamed_13]
	jbe	LBB21_39
	cmp	r12d, 39
	jae	LBB21_55
	lea	rax, [rip + l___unnamed_19]
	lea	rdi, [rbp - 608]
	jmp	LBB21_57
LBB21_40:
	test	r13, r13
	je	LBB21_42
	mov	edx, 1
	mov	rdi, r14
	mov	rsi, r13
	call	___rust_dealloc
LBB21_42:
	test	r15, r15
	je	LBB21_46
	cmp	qword ptr [rbp - 48], 0
	je	LBB21_46
	mov	edx, 1
	mov	rdi, r15
	mov	rsi, qword ptr [rbp - 48]
LBB21_45:
	call	___rust_dealloc
	jmp	LBB21_46
LBB21_47:
Ltmp82:
	lea	rdi, [rbp - 608]
	call	__ZN4core3ptr13drop_in_place17h7bc1ea6e5ebd005cE
Ltmp83:
LBB21_46:
	add	rsp, 568
	pop	rbx
	pop	r12
	pop	r13
	pop	r14
	pop	r15
	pop	rbp
	ret
LBB21_55:
	cmp	r12d, 45
	jb	LBB21_58
	lea	rax, [rip + l___unnamed_20]
	mov	rdi, rbx
LBB21_57:
	mov	qword ptr [rdi], rax
	mov	qword ptr [rdi + 8], 1
	mov	qword ptr [rdi + 16], 0
	mov	qword ptr [rdi + 32], rcx
	mov	qword ptr [rdi + 40], 0
	call	__ZN3std2io5stdio6_print17hdea2154009b9e479E
LBB21_58:
	lea	rsi, [rip + l___unnamed_21]
	lea	rdi, [rbp - 248]
	mov	edx, 6
	call	__ZN3std3env4_var17heb54e5eb7997d7b3E
	cmp	qword ptr [rbp - 248], 1
	je	LBB21_59
	mov	rsi, qword ptr [rbp - 224]
	mov	qword ptr [rbp - 352], rsi
	mov	r13, qword ptr [rbp - 240]
	mov	rax, qword ptr [rbp - 232]
	mov	qword ptr [rbp - 360], rax
	mov	qword ptr [rbp - 368], r13
Ltmp52:
	lea	rdx, [rip + l___unnamed_22]
	mov	ecx, 6
	mov	rdi, r13
	call	__ZN4core3str21_$LT$impl$u20$str$GT$8contains17h4edf057ca13e76cbE
Ltmp53:
	test	al, al
	jne	LBB21_64
	lea	rax, [rip + l___unnamed_23]
	mov	qword ptr [rbp - 248], rax
	mov	qword ptr [rbp - 240], 1
	mov	qword ptr [rbp - 232], 0
	lea	rax, [rip + l___unnamed_13]
	mov	qword ptr [rbp - 216], rax
	mov	qword ptr [rbp - 208], 0
Ltmp54:
	lea	rdi, [rbp - 248]
	call	__ZN3std2io5stdio6_print17hdea2154009b9e479E
Ltmp55:
	lea	rax, [rip + l___unnamed_24]
	mov	qword ptr [rbp - 248], rax
	mov	qword ptr [rbp - 240], 1
	mov	qword ptr [rbp - 232], 0
	lea	rax, [rip + l___unnamed_13]
	mov	qword ptr [rbp - 216], rax
	mov	qword ptr [rbp - 208], 0
Ltmp56:
	lea	rdi, [rbp - 248]
	call	__ZN3std2io5stdio6_print17hdea2154009b9e479E
Ltmp57:
	cmp	byte ptr [rbp - 56], 0
	je	LBB21_64
Ltmp58:
	lea	rsi, [rip + l___unnamed_25]
	lea	rdi, [rbp - 328]
	mov	edx, 9
	call	__ZN3std3env7_var_os17hc8b7303001145450E
Ltmp59:
	cmp	qword ptr [rbp - 328], 0
	je	LBB21_110
	mov	rdx, qword ptr [rbp - 312]
	mov	qword ptr [rbp - 272], rdx
	mov	rsi, qword ptr [rbp - 328]
	mov	rax, qword ptr [rbp - 320]
	mov	qword ptr [rbp - 280], rax
	mov	qword ptr [rbp - 288], rsi
Ltmp60:
	lea	rdi, [rbp - 424]
	mov	qword ptr [rbp - 304], rsi
	call	__ZN3std3ffi6os_str5OsStr15to_string_lossy17hc0d6d1d5b1625780E
Ltmp61:
	mov	rcx, qword ptr [rbp - 424]
	mov	rdx, qword ptr [rbp - 416]
	mov	rax, qword ptr [rbp - 408]
	mov	qword ptr [rbp - 48], rax
	mov	qword ptr [rbp - 56], rcx
	cmp	rcx, 1
	jne	LBB21_74
	mov	rax, qword ptr [rbp - 400]
LBB21_74:
	mov	ecx, dword ptr [rbp - 248]
	mov	dword ptr [rbp - 64], ecx
	movzx	ecx, word ptr [rbp - 244]
	mov	word ptr [rbp - 60], cx
	mov	qword ptr [rbp - 608], 0
	mov	qword ptr [rbp - 600], rax
	mov	qword ptr [rbp - 296], rdx
	mov	qword ptr [rbp - 592], rdx
	mov	qword ptr [rbp - 584], rax
	mov	qword ptr [rbp - 576], 0
	mov	qword ptr [rbp - 568], rax
	mov	qword ptr [rbp - 560], 1
	movabs	rax, 137438953504
	mov	qword ptr [rbp - 552], rax
	mov	word ptr [rbp - 544], 1
	mov	eax, dword ptr [rbp - 64]
	mov	dword ptr [rbp - 542], eax
	movzx	eax, word ptr [rbp - 60]
	mov	word ptr [rbp - 538], ax
	lea	rbx, [rbp - 608]
	lea	r14, [rip + l___unnamed_26]
	lea	r15, [rip + l___unnamed_27]
	movabs	r12, 4427994400906568037
LBB21_75:
Ltmp63:
	mov	rdi, rbx
	call	__ZN84_$LT$core..str..Split$LT$P$GT$$u20$as$u20$core..iter..traits..iterator..Iterator$GT$4next17h7010e785b025043bE
Ltmp64:
	test	rax, rax
	je	LBB21_77
	cmp	rdx, 2
	jb	LBB21_75
	cmp	rax, r14
	je	LBB21_85
	movzx	ecx, word ptr [rax]
	cmp	ecx, 23085
	jne	LBB21_89
LBB21_85:
	mov	qword ptr [rbp - 344], rax
	mov	qword ptr [rbp - 336], rdx
	mov	qword ptr [rbp - 256], 2
	mov	qword ptr [rbp - 264], rdx
	cmp	rdx, 2
	je	LBB21_88
	cmp	byte ptr [rax + 2], -65
	jle	LBB21_87
LBB21_88:
	add	rax, 2
	add	rdx, -2
LBB21_89:
	cmp	rdx, 15
	jb	LBB21_75
	cmp	rax, r15
	je	LBB21_92
	mov	rcx, qword ptr [rax]
	movabs	rsi, 7306577436448943201
	xor	rcx, rsi
	mov	rsi, qword ptr [rax + 7]
	xor	rsi, r12
	or	rsi, rcx
	jne	LBB21_75
LBB21_92:
	mov	qword ptr [rbp - 344], rax
	mov	qword ptr [rbp - 336], rdx
	mov	qword ptr [rbp - 256], 15
	mov	qword ptr [rbp - 264], rdx
	cmp	rdx, 15
	je	LBB21_95
	cmp	byte ptr [rax + 15], -65
	jle	LBB21_94
LBB21_95:
	add	rax, 15
	add	rdx, -15
	mov	qword ptr [rbp - 248], 0
	mov	qword ptr [rbp - 240], rdx
	mov	qword ptr [rbp - 232], rax
	mov	qword ptr [rbp - 224], rdx
	mov	qword ptr [rbp - 216], 0
	mov	qword ptr [rbp - 208], rdx
	mov	qword ptr [rbp - 200], 1
	movabs	rax, 188978561068
	mov	qword ptr [rbp - 192], rax
	mov	word ptr [rbp - 184], 1
Ltmp70:
	lea	rdi, [rbp - 248]
	call	__ZN84_$LT$core..str..Split$LT$P$GT$$u20$as$u20$core..iter..traits..iterator..Iterator$GT$4next17h7010e785b025043bE
Ltmp71:
	test	rax, rax
	je	LBB21_103
	lea	r15, [rip + l___unnamed_28]
	movabs	r12, 7953762057737695843
	lea	r14, [rbp - 248]
LBB21_98:
	cmp	rdx, 15
	jne	LBB21_101
	mov	bl, 1
	cmp	rax, r15
	je	LBB21_104
	mov	rcx, qword ptr [rax]
	movabs	rdx, 7161125138953368176
	xor	rcx, rdx
	mov	rax, qword ptr [rax + 7]
	xor	rax, r12
	or	rax, rcx
	je	LBB21_104
LBB21_101:
Ltmp73:
	mov	rdi, r14
	call	__ZN84_$LT$core..str..Split$LT$P$GT$$u20$as$u20$core..iter..traits..iterator..Iterator$GT$4next17h7010e785b025043bE
Ltmp74:
	test	rax, rax
	jne	LBB21_98
LBB21_103:
	xor	ebx, ebx
LBB21_104:
	cmp	qword ptr [rbp - 56], 0
	je	LBB21_107
	cmp	qword ptr [rbp - 48], 0
	je	LBB21_107
	mov	edx, 1
	mov	rdi, qword ptr [rbp - 296]
	mov	rsi, qword ptr [rbp - 48]
	call	___rust_dealloc
LBB21_107:
	mov	rsi, qword ptr [rbp - 280]
	test	rsi, rsi
	je	LBB21_109
	mov	edx, 1
	mov	rdi, qword ptr [rbp - 304]
	call	___rust_dealloc
LBB21_109:
	test	bl, bl
	jne	LBB21_110
	jmp	LBB21_64
LBB21_77:
	cmp	qword ptr [rbp - 56], 0
	je	LBB21_80
	cmp	qword ptr [rbp - 48], 0
	je	LBB21_80
	mov	edx, 1
	mov	rdi, qword ptr [rbp - 296]
	mov	rsi, qword ptr [rbp - 48]
	call	___rust_dealloc
LBB21_80:
	mov	rsi, qword ptr [rbp - 280]
	test	rsi, rsi
	je	LBB21_110
	mov	edx, 1
	mov	rdi, qword ptr [rbp - 304]
	call	___rust_dealloc
LBB21_110:
	lea	rax, [rip + l___unnamed_29]
	mov	qword ptr [rbp - 248], rax
	mov	qword ptr [rbp - 240], 1
	mov	qword ptr [rbp - 232], 0
	lea	rax, [rip + l___unnamed_13]
	mov	qword ptr [rbp - 216], rax
	mov	qword ptr [rbp - 208], 0
Ltmp76:
	lea	rdi, [rbp - 248]
	call	__ZN3std2io5stdio6_print17hdea2154009b9e479E
Ltmp77:
LBB21_64:
	mov	rsi, qword ptr [rbp - 360]
	test	rsi, rsi
	je	LBB21_46
	mov	edx, 1
	mov	rdi, r13
	jmp	LBB21_45
LBB21_39:
	lea	rax, [rip + l___unnamed_30]
	mov	qword ptr [rbp - 248], rax
	mov	qword ptr [rbp - 240], 1
	mov	qword ptr [rbp - 232], 0
	mov	qword ptr [rbp - 216], rcx
	mov	qword ptr [rbp - 208], 0
	lea	rdi, [rbp - 248]
	call	__ZN3std2io5stdio7_eprint17h784168ce21d132cbE
	mov	edi, 1
	call	__ZN3std7process4exit17ha3f17b9da226ef73E
LBB21_59:
	mov	rax, qword ptr [rbp - 224]
	mov	qword ptr [rbp - 592], rax
	mov	rax, qword ptr [rbp - 240]
	mov	rcx, qword ptr [rbp - 232]
	mov	qword ptr [rbp - 600], rcx
	mov	qword ptr [rbp - 608], rax
Ltmp79:
	lea	rdi, [rip + l___unnamed_31]
	lea	rcx, [rip + l___unnamed_32]
	lea	r8, [rip + l___unnamed_33]
	lea	rdx, [rbp - 608]
	mov	esi, 43
	call	__ZN4core6result13unwrap_failed17hb5a510096a5fc85fE
Ltmp80:
	jmp	LBB21_60
LBB21_87:
	lea	rax, [rbp - 344]
	mov	qword ptr [rbp - 248], rax
	lea	rax, [rbp - 256]
	mov	qword ptr [rbp - 240], rax
	lea	rax, [rbp - 264]
	mov	qword ptr [rbp - 232], rax
Ltmp66:
	lea	rdi, [rbp - 248]
	call	__ZN4core3str6traits105_$LT$impl$u20$core..slice..SliceIndex$LT$str$GT$$u20$for$u20$core..ops..range..RangeFrom$LT$usize$GT$$GT$5index28_$u7b$$u7b$closure$u7d$$u7d$17hec8f852246e85d30E
Ltmp67:
LBB21_60:
	ud2
LBB21_94:
	lea	rax, [rbp - 344]
	mov	qword ptr [rbp - 248], rax
	lea	rax, [rbp - 256]
	mov	qword ptr [rbp - 240], rax
	lea	rax, [rbp - 264]
	mov	qword ptr [rbp - 232], rax
Ltmp68:
	lea	rdi, [rbp - 248]
	call	__ZN4core3str6traits105_$LT$impl$u20$core..slice..SliceIndex$LT$str$GT$$u20$for$u20$core..ops..range..RangeFrom$LT$usize$GT$$GT$5index28_$u7b$$u7b$closure$u7d$$u7d$17hec8f852246e85d30E
Ltmp69:
	jmp	LBB21_60
LBB21_61:
Ltmp81:
	mov	r14, rax
	lea	rdi, [rbp - 608]
	call	__ZN4core3ptr13drop_in_place17h4a4e4f27d4a844f1E
	mov	rdi, r14
	call	__Unwind_Resume
	ud2
LBB21_115:
Ltmp72:
	jmp	LBB21_116
LBB21_111:
Ltmp62:
	mov	r14, rax
	jmp	LBB21_112
LBB21_113:
Ltmp75:
	jmp	LBB21_116
LBB21_117:
Ltmp78:
	mov	r14, rax
	jmp	LBB21_118
LBB21_114:
Ltmp65:
LBB21_116:
	mov	r14, rax
	lea	rdi, [rbp - 424]
	call	__ZN4core3ptr13drop_in_place17hd7387679a879fbc7E
LBB21_112:
	lea	rdi, [rbp - 288]
	call	__ZN4core3ptr13drop_in_place17h87eb04b88c82388eE
LBB21_118:
	lea	rdi, [rbp - 368]
	jmp	LBB21_119
LBB21_48:
Ltmp36:
	mov	r14, rax
	mov	rdi, qword ptr [rbx]
	mov	rsi, qword ptr [rbx + 8]
	call	__ZN5alloc5alloc8box_free17h0c640296ba171619E
	mov	rdi, rbx
	call	__ZN5alloc5alloc8box_free17hd52fc7fdf5aaf7ceE
	jmp	LBB21_49
LBB21_50:
Ltmp84:
	mov	r14, rax
	mov	rdi, r14
	call	__Unwind_Resume
	ud2
LBB21_121:
Ltmp28:
	mov	r14, rax
	lea	rdi, [rbp - 288]
LBB21_119:
	call	__ZN4core3ptr13drop_in_place17h87eb04b88c82388eE
	mov	rdi, r14
	call	__Unwind_Resume
	ud2
LBB21_51:
Ltmp33:
	mov	r14, rax
LBB21_49:
	lea	rdi, [rbp - 608]
	call	__ZN4core3ptr13drop_in_place17h7bc1ea6e5ebd005cE
	mov	rdi, r14
	call	__Unwind_Resume
	ud2
LBB21_52:
Ltmp51:
	mov	r14, rax
	lea	rdi, [rbp - 424]
	call	__ZN4core3ptr13drop_in_place17h17a65a2c288480a1E
	mov	rdi, r14
	call	__Unwind_Resume
	ud2
Lfunc_end3:
	.cfi_endproc
	.section	__TEXT,__gcc_except_tab
	.p2align	2
GCC_except_table21:
Lexception3:
	.byte	255
	.byte	255
	.byte	1
	.uleb128 Lcst_end3-Lcst_begin3
Lcst_begin3:
	.uleb128 Lfunc_begin3-Lfunc_begin3
	.uleb128 Ltmp26-Lfunc_begin3
	.byte	0
	.byte	0
	.uleb128 Ltmp26-Lfunc_begin3
	.uleb128 Ltmp27-Ltmp26
	.uleb128 Ltmp28-Lfunc_begin3
	.byte	0
	.uleb128 Ltmp27-Lfunc_begin3
	.uleb128 Ltmp29-Ltmp27
	.byte	0
	.byte	0
	.uleb128 Ltmp29-Lfunc_begin3
	.uleb128 Ltmp32-Ltmp29
	.uleb128 Ltmp33-Lfunc_begin3
	.byte	0
	.uleb128 Ltmp34-Lfunc_begin3
	.uleb128 Ltmp35-Ltmp34
	.uleb128 Ltmp36-Lfunc_begin3
	.byte	0
	.uleb128 Ltmp37-Lfunc_begin3
	.uleb128 Ltmp50-Ltmp37
	.uleb128 Ltmp51-Lfunc_begin3
	.byte	0
	.uleb128 Ltmp82-Lfunc_begin3
	.uleb128 Ltmp83-Ltmp82
	.uleb128 Ltmp84-Lfunc_begin3
	.byte	0
	.uleb128 Ltmp83-Lfunc_begin3
	.uleb128 Ltmp52-Ltmp83
	.byte	0
	.byte	0
	.uleb128 Ltmp52-Lfunc_begin3
	.uleb128 Ltmp59-Ltmp52
	.uleb128 Ltmp78-Lfunc_begin3
	.byte	0
	.uleb128 Ltmp60-Lfunc_begin3
	.uleb128 Ltmp61-Ltmp60
	.uleb128 Ltmp62-Lfunc_begin3
	.byte	0
	.uleb128 Ltmp63-Lfunc_begin3
	.uleb128 Ltmp64-Ltmp63
	.uleb128 Ltmp65-Lfunc_begin3
	.byte	0
	.uleb128 Ltmp70-Lfunc_begin3
	.uleb128 Ltmp71-Ltmp70
	.uleb128 Ltmp72-Lfunc_begin3
	.byte	0
	.uleb128 Ltmp73-Lfunc_begin3
	.uleb128 Ltmp74-Ltmp73
	.uleb128 Ltmp75-Lfunc_begin3
	.byte	0
	.uleb128 Ltmp76-Lfunc_begin3
	.uleb128 Ltmp77-Ltmp76
	.uleb128 Ltmp78-Lfunc_begin3
	.byte	0
	.uleb128 Ltmp77-Lfunc_begin3
	.uleb128 Ltmp79-Ltmp77
	.byte	0
	.byte	0
	.uleb128 Ltmp79-Lfunc_begin3
	.uleb128 Ltmp80-Ltmp79
	.uleb128 Ltmp81-Lfunc_begin3
	.byte	0
	.uleb128 Ltmp66-Lfunc_begin3
	.uleb128 Ltmp69-Ltmp66
	.uleb128 Ltmp72-Lfunc_begin3
	.byte	0
	.uleb128 Ltmp69-Lfunc_begin3
	.uleb128 Lfunc_end3-Ltmp69
	.byte	0
	.byte	0
Lcst_end3:
	.p2align	2

	.section	__TEXT,__text,regular,pure_instructions
	.globl	_main
	.p2align	4, 0x90
_main:
	.cfi_startproc
	push	rbp
	.cfi_def_cfa_offset 16
	.cfi_offset rbp, -16
	mov	rbp, rsp
	.cfi_def_cfa_register rbp
	sub	rsp, 16
	mov	rcx, rsi
	movsxd	rdx, edi
	lea	rax, [rip + __ZN18build_script_build4main17h64775c311a1acc90E]
	mov	qword ptr [rbp - 8], rax
	lea	rsi, [rip + l___unnamed_3]
	lea	rdi, [rbp - 8]
	call	__ZN3std2rt19lang_start_internal17hebefdaa8fd585aefE
	add	rsp, 16
	pop	rbp
	ret
	.cfi_endproc

	.section	__TEXT,__const
l___unnamed_34:
	.ascii	"/rustc/a74d1862d4d87a56244958416fd05976c58ca1a8/src/liballoc/collections/btree/map.rs"

	.section	__DATA,__const
	.p2align	3
l___unnamed_2:
	.quad	l___unnamed_34
	.asciz	"U\000\000\000\000\000\000\000C\006\000\000\033\000\000"

	.p2align	3
l___unnamed_3:
	.quad	__ZN4core3ptr13drop_in_place17h3c06c4f46b6eb399E
	.quad	8
	.quad	8
	.quad	__ZN3std2rt10lang_start28_$u7b$$u7b$closure$u7d$$u7d$17h3a0efd6562c7df07E
	.quad	__ZN3std2rt10lang_start28_$u7b$$u7b$closure$u7d$$u7d$17h3a0efd6562c7df07E
	.quad	__ZN4core3ops8function6FnOnce40call_once$u7b$$u7b$vtable.shim$u7d$$u7d$17h95b58111306ccf61E

	.section	__TEXT,__const
l___unnamed_35:
	.ascii	"/rustc/a74d1862d4d87a56244958416fd05976c58ca1a8/src/libcore/str/mod.rs"

	.section	__DATA,__const
	.p2align	3
l___unnamed_10:
	.quad	l___unnamed_35
	.asciz	"F\000\000\000\000\000\000\000\004\b\000\000/\000\000"

	.section	__TEXT,__const
l___unnamed_36:
	.ascii	"/rustc/a74d1862d4d87a56244958416fd05976c58ca1a8/src/libcore/str/pattern.rs"

	.section	__DATA,__const
	.p2align	3
l___unnamed_7:
	.quad	l___unnamed_36
	.asciz	"J\000\000\000\000\000\000\000\017\005\000\000!\000\000"

	.p2align	3
l___unnamed_8:
	.quad	l___unnamed_36
	.asciz	"J\000\000\000\000\000\000\000\033\005\000\000\024\000\000"

	.p2align	3
l___unnamed_9:
	.quad	l___unnamed_36
	.asciz	"J\000\000\000\000\000\000\000\033\005\000\000!\000\000"

	.section	__TEXT,__const
l___unnamed_37:
	.ascii	"/rustc/a74d1862d4d87a56244958416fd05976c58ca1a8/src/libcore/macros/mod.rs"

	.section	__DATA,__const
	.p2align	3
l___unnamed_6:
	.quad	l___unnamed_37
	.asciz	"I\000\000\000\000\000\000\000\020\000\000\000\t\000\000"

	.section	__TEXT,__const
l___unnamed_1:
	.ascii	"called `Option::unwrap()` on a `None` value"

l___unnamed_31:
	.ascii	"called `Result::unwrap()` on an `Err` value"

	.section	__DATA,__const
	.p2align	3
l___unnamed_32:
	.quad	__ZN4core3ptr13drop_in_place17h4a4e4f27d4a844f1E
	.quad	24
	.quad	8
	.quad	__ZN55_$LT$std..env..VarError$u20$as$u20$core..fmt..Debug$GT$3fmt17h4b70de487f3ab127E

	.section	__TEXT,__const
l___unnamed_38:
	.ascii	"internal error: entered unreachable code: "

	.section	__DATA,__const
	.p2align	3
l___unnamed_5:
	.quad	l___unnamed_38
	.asciz	"*\000\000\000\000\000\000"

	.section	__TEXT,__const
l___unnamed_39:
	.ascii	"BTreeMap has different depths"

	.section	__DATA,__const
	.p2align	3
l___unnamed_4:
	.quad	l___unnamed_39
	.asciz	"\035\000\000\000\000\000\000"

	.p2align	3
l___unnamed_11:
	.quad	l___unnamed_36
	.asciz	"J\000\000\000\000\000\000\000\213\001\000\000&\000\000"

	.section	__TEXT,__const
l___unnamed_40:
	.ascii	"cargo:rerun-if-changed=build.rs\n"

	.section	__DATA,__const
	.p2align	3
l___unnamed_12:
	.quad	l___unnamed_40
	.asciz	" \000\000\000\000\000\000"

	.section	__TEXT,__const
	.p2align	3
l___unnamed_13:
	.byte	0

l___unnamed_41:
	.ascii	"Minimum supported rustc version is 1.31\n"

	.section	__DATA,__const
	.p2align	3
l___unnamed_30:
	.quad	l___unnamed_41
	.asciz	"(\000\000\000\000\000\000"

	.section	__TEXT,__const
l___unnamed_42:
	.ascii	"cargo:rustc-cfg=no_bind_by_move_pattern_guard\n"

	.section	__DATA,__const
	.p2align	3
l___unnamed_19:
	.quad	l___unnamed_42
	.asciz	".\000\000\000\000\000\000"

	.section	__TEXT,__const
l___unnamed_43:
	.ascii	"cargo:rustc-cfg=hygiene\n"

	.section	__DATA,__const
	.p2align	3
l___unnamed_20:
	.quad	l___unnamed_43
	.asciz	"\030\000\000\000\000\000\000"

	.section	__TEXT,__const
l___unnamed_21:
	.ascii	"TARGET"

l___unnamed_44:
	.ascii	"/Users/yingyuhang/.cargo/registry/src/github.com-1ecc6299db9ec823/proc-macro2-1.0.18/build.rs"

	.section	__DATA,__const
	.p2align	3
l___unnamed_33:
	.quad	l___unnamed_44
	.asciz	"]\000\000\000\000\000\000\000H\000\000\000\022\000\000"

	.section	__TEXT,__const
l___unnamed_45:
	.ascii	"cargo:rustc-cfg=use_proc_macro\n"

	.section	__DATA,__const
	.p2align	3
l___unnamed_23:
	.quad	l___unnamed_45
	.asciz	"\037\000\000\000\000\000\000"

	.section	__TEXT,__const
l___unnamed_46:
	.ascii	"cargo:rustc-cfg=wrap_proc_macro\n"

	.section	__DATA,__const
	.p2align	3
l___unnamed_24:
	.quad	l___unnamed_46
	.asciz	" \000\000\000\000\000\000"

	.section	__TEXT,__const
l___unnamed_28:
	.ascii	"proc_macro_span"

l___unnamed_47:
	.ascii	"cargo:rustc-cfg=proc_macro_span\n"

	.section	__DATA,__const
	.p2align	3
l___unnamed_29:
	.quad	l___unnamed_47
	.asciz	" \000\000\000\000\000\000"

	.section	__TEXT,__const
l___unnamed_22:
	.ascii	"wasm32"

l___unnamed_14:
	.ascii	"RUSTC"

l___unnamed_15:
	.ascii	"--version"

l___unnamed_16:
	.ascii	"nightly"

l___unnamed_17:
	.ascii	"dev"

l___unnamed_18:
	.ascii	"rustc 1"

l___unnamed_25:
	.ascii	"RUSTFLAGS"

l___unnamed_26:
	.ascii	"-Z"

l___unnamed_27:
	.ascii	"allow-features="


.subsections_via_symbols
