	.section	__TEXT,__text,regular,pure_instructions
	.macosx_version_min 10, 7
	.p2align	4, 0x90
__ZN119_$LT$core..ptr..non_null..NonNull$LT$T$GT$$u20$as$u20$core..convert..From$LT$core..ptr..unique..Unique$LT$T$GT$$GT$$GT$4from17h8a91fd22451c3ae3E:
	.cfi_startproc
	pushq	%rbp
	.cfi_def_cfa_offset 16
	.cfi_offset %rbp, -16
	movq	%rsp, %rbp
	.cfi_def_cfa_register %rbp
	subq	$16, %rsp
	callq	__ZN4core3ptr6unique15Unique$LT$T$GT$6as_ptr17h8a6e32dc741c6778E
	movq	%rax, -8(%rbp)
	movq	-8(%rbp), %rdi
	callq	__ZN4core3ptr8non_null16NonNull$LT$T$GT$13new_unchecked17h98f24dd71f344587E
	movq	%rax, -16(%rbp)
	movq	-16(%rbp), %rax
	addq	$16, %rsp
	popq	%rbp
	retq
	.cfi_endproc

	.p2align	4, 0x90
__ZN3std10sys_common12os_str_bytes5Slice13from_u8_slice17h762b9b253ec89edeE:
	.cfi_startproc
	pushq	%rbp
	.cfi_def_cfa_offset 16
	.cfi_offset %rbp, -16
	movq	%rsp, %rbp
	.cfi_def_cfa_register %rbp
	subq	$32, %rsp
	movq	%rdi, -16(%rbp)
	movq	%rsi, -8(%rbp)
	movq	-16(%rbp), %rax
	movq	-8(%rbp), %rdx
	movq	%rax, -24(%rbp)
	movq	%rdx, -32(%rbp)
	movq	-24(%rbp), %rax
	movq	-32(%rbp), %rdx
	addq	$32, %rsp
	popq	%rbp
	retq
	.cfi_endproc

	.p2align	4, 0x90
__ZN3std10sys_common12os_str_bytes5Slice8from_str17hf6c652e45253ad62E:
	.cfi_startproc
	pushq	%rbp
	.cfi_def_cfa_offset 16
	.cfi_offset %rbp, -16
	movq	%rsp, %rbp
	.cfi_def_cfa_register %rbp
	subq	$48, %rsp
	movq	%rdi, -16(%rbp)
	movq	%rsi, -8(%rbp)
	movq	-16(%rbp), %rdi
	movq	-8(%rbp), %rsi
	movq	%rdi, -24(%rbp)
	movq	%rsi, -32(%rbp)
	movq	-24(%rbp), %rdi
	movq	-32(%rbp), %rsi
	callq	__ZN3std10sys_common12os_str_bytes5Slice13from_u8_slice17h762b9b253ec89edeE
	movq	%rax, -40(%rbp)
	movq	%rdx, -48(%rbp)
	movq	-40(%rbp), %rax
	movq	-48(%rbp), %rdx
	addq	$48, %rsp
	popq	%rbp
	retq
	.cfi_endproc

	.private_extern	__ZN3std2rt10lang_start17h64f913b6fbd097e5E
	.globl	__ZN3std2rt10lang_start17h64f913b6fbd097e5E
	.p2align	4, 0x90
__ZN3std2rt10lang_start17h64f913b6fbd097e5E:
	.cfi_startproc
	pushq	%rbp
	.cfi_def_cfa_offset 16
	.cfi_offset %rbp, -16
	movq	%rsp, %rbp
	.cfi_def_cfa_register %rbp
	subq	$32, %rsp
	leaq	l___unnamed_1(%rip), %rax
	movq	%rdi, -8(%rbp)
	leaq	-8(%rbp), %rcx
	movq	%rcx, %rdi
	movq	%rsi, -16(%rbp)
	movq	%rax, %rsi
	movq	-16(%rbp), %rax
	movq	%rdx, -24(%rbp)
	movq	%rax, %rdx
	movq	-24(%rbp), %rcx
	callq	__ZN3std2rt19lang_start_internal17hbbd10965adc92ae7E
	movq	%rax, -32(%rbp)
	movq	-32(%rbp), %rax
	addq	$32, %rsp
	popq	%rbp
	retq
	.cfi_endproc

	.p2align	4, 0x90
__ZN3std2rt10lang_start28_$u7b$$u7b$closure$u7d$$u7d$17h66bb66a819862e9eE:
	.cfi_startproc
	pushq	%rbp
	.cfi_def_cfa_offset 16
	.cfi_offset %rbp, -16
	movq	%rsp, %rbp
	.cfi_def_cfa_register %rbp
	subq	$16, %rsp
	callq	*(%rdi)
	callq	__ZN54_$LT$$LP$$RP$$u20$as$u20$std..process..Termination$GT$6report17h479594da6eb41c52E
	movl	%eax, -4(%rbp)
	movl	-4(%rbp), %eax
	addq	$16, %rsp
	popq	%rbp
	retq
	.cfi_endproc

	.p2align	4, 0x90
__ZN3std3env3var17h1c2ce61f2dc18c0eE:
Lfunc_begin0:
	.cfi_startproc
	.cfi_personality 155, _rust_eh_personality
	.cfi_lsda 16, Lexception0
	pushq	%rbp
	.cfi_def_cfa_offset 16
	.cfi_offset %rbp, -16
	movq	%rsp, %rbp
	.cfi_def_cfa_register %rbp
	subq	$64, %rsp
	movq	%rdi, %rax
	movq	%rsi, -32(%rbp)
	movq	%rdx, -24(%rbp)
Ltmp0:
	leaq	-32(%rbp), %rcx
	movq	%rdi, -40(%rbp)
	movq	%rcx, %rdi
	movq	%rax, -48(%rbp)
	callq	__ZN55_$LT$$RF$T$u20$as$u20$core..convert..AsRef$LT$U$GT$$GT$6as_ref17h4ff1db29ad2506daE
Ltmp1:
	movq	%rdx, -56(%rbp)
	movq	%rax, -64(%rbp)
	jmp	LBB5_2
LBB5_1:
	movq	-16(%rbp), %rdi
	callq	__Unwind_Resume
	ud2
LBB5_2:
Ltmp2:
	movq	-40(%rbp), %rdi
	movq	-64(%rbp), %rsi
	movq	-56(%rbp), %rdx
	callq	__ZN3std3env4_var17h5f49b4c5e0582abcE
Ltmp3:
	jmp	LBB5_4
LBB5_3:
	jmp	LBB5_1
LBB5_4:
	jmp	LBB5_5
LBB5_5:
	movq	-48(%rbp), %rax
	addq	$64, %rsp
	popq	%rbp
	retq
LBB5_6:
Ltmp4:
	movq	%rax, -16(%rbp)
	movl	%edx, -8(%rbp)
	jmp	LBB5_3
Lfunc_end0:
	.cfi_endproc
	.section	__TEXT,__gcc_except_tab
	.p2align	2
GCC_except_table5:
Lexception0:
	.byte	255
	.byte	255
	.byte	1
	.uleb128 Lcst_end0-Lcst_begin0
Lcst_begin0:
	.uleb128 Ltmp0-Lfunc_begin0
	.uleb128 Ltmp1-Ltmp0
	.uleb128 Ltmp4-Lfunc_begin0
	.byte	0
	.uleb128 Ltmp1-Lfunc_begin0
	.uleb128 Ltmp2-Ltmp1
	.byte	0
	.byte	0
	.uleb128 Ltmp2-Lfunc_begin0
	.uleb128 Ltmp3-Ltmp2
	.uleb128 Ltmp4-Lfunc_begin0
	.byte	0
Lcst_end0:
	.p2align	2

	.section	__TEXT,__text,regular,pure_instructions
	.p2align	4, 0x90
__ZN3std3ffi6os_str5OsStr10from_inner17h42513a5abb07c8c7E:
	.cfi_startproc
	pushq	%rbp
	.cfi_def_cfa_offset 16
	.cfi_offset %rbp, -16
	movq	%rsp, %rbp
	.cfi_def_cfa_register %rbp
	movq	%rdi, %rax
	movq	%rsi, %rdx
	popq	%rbp
	retq
	.cfi_endproc

	.p2align	4, 0x90
__ZN3std3ffi6os_str85_$LT$impl$u20$core..convert..AsRef$LT$std..ffi..os_str..OsStr$GT$$u20$for$u20$str$GT$6as_ref17h8ce1fb56b9ddf432E:
	.cfi_startproc
	pushq	%rbp
	.cfi_def_cfa_offset 16
	.cfi_offset %rbp, -16
	movq	%rsp, %rbp
	.cfi_def_cfa_register %rbp
	subq	$32, %rsp
	callq	__ZN3std10sys_common12os_str_bytes5Slice8from_str17hf6c652e45253ad62E
	movq	%rax, -8(%rbp)
	movq	%rdx, -16(%rbp)
	movq	-8(%rbp), %rdi
	movq	-16(%rbp), %rsi
	callq	__ZN3std3ffi6os_str5OsStr10from_inner17h42513a5abb07c8c7E
	movq	%rax, -24(%rbp)
	movq	%rdx, -32(%rbp)
	movq	-24(%rbp), %rax
	movq	-32(%rbp), %rdx
	addq	$32, %rsp
	popq	%rbp
	retq
	.cfi_endproc

	.p2align	4, 0x90
__ZN3std3sys4unix7process14process_common8ExitCode6as_i3217h6621ddd511f49afeE:
	.cfi_startproc
	pushq	%rbp
	.cfi_def_cfa_offset 16
	.cfi_offset %rbp, -16
	movq	%rsp, %rbp
	.cfi_def_cfa_register %rbp
	movzbl	(%rdi), %eax
	popq	%rbp
	retq
	.cfi_endproc

	.p2align	4, 0x90
__ZN49_$LT$usize$u20$as$u20$core..iter..range..Step$GT$17forward_unchecked17h795c8bf8775b28c0E:
	.cfi_startproc
	pushq	%rbp
	.cfi_def_cfa_offset 16
	.cfi_offset %rbp, -16
	movq	%rsp, %rbp
	.cfi_def_cfa_register %rbp
	subq	$16, %rsp
	callq	__ZN4core3num23_$LT$impl$u20$usize$GT$13unchecked_add17hd7ba4b42af78c760E
	movq	%rax, -8(%rbp)
	movq	-8(%rbp), %rax
	addq	$16, %rsp
	popq	%rbp
	retq
	.cfi_endproc

	.p2align	4, 0x90
__ZN49_$LT$usize$u20$as$u20$core..iter..range..Step$GT$18backward_unchecked17h470a2c0edc583f6cE:
	.cfi_startproc
	pushq	%rbp
	.cfi_def_cfa_offset 16
	.cfi_offset %rbp, -16
	movq	%rsp, %rbp
	.cfi_def_cfa_register %rbp
	subq	$16, %rsp
	callq	__ZN4core3num23_$LT$impl$u20$usize$GT$13unchecked_sub17h7c2bd16964ff32c7E
	movq	%rax, -8(%rbp)
	movq	-8(%rbp), %rax
	addq	$16, %rsp
	popq	%rbp
	retq
	.cfi_endproc

	.p2align	4, 0x90
__ZN4core10intrinsics19copy_nonoverlapping17h00be92f22e145febE:
	.cfi_startproc
	pushq	%rbp
	.cfi_def_cfa_offset 16
	.cfi_offset %rbp, -16
	movq	%rsp, %rbp
	.cfi_def_cfa_register %rbp
	subq	$16, %rsp
	shlq	$3, %rdx
	movq	%rdi, -8(%rbp)
	movq	%rsi, %rdi
	movq	-8(%rbp), %rsi
	callq	_memcpy
	addq	$16, %rsp
	popq	%rbp
	retq
	.cfi_endproc

	.p2align	4, 0x90
__ZN4core10intrinsics19copy_nonoverlapping17heab3244476690917E:
	.cfi_startproc
	pushq	%rbp
	.cfi_def_cfa_offset 16
	.cfi_offset %rbp, -16
	movq	%rsp, %rbp
	.cfi_def_cfa_register %rbp
	subq	$16, %rsp
	shlq	$0, %rdx
	movq	%rdi, -8(%rbp)
	movq	%rsi, %rdi
	movq	-8(%rbp), %rsi
	callq	_memcpy
	addq	$16, %rsp
	popq	%rbp
	retq
	.cfi_endproc

	.p2align	4, 0x90
__ZN4core3cmp3Ord3max17h78667a95848b8170E:
	.cfi_startproc
	pushq	%rbp
	.cfi_def_cfa_offset 16
	.cfi_offset %rbp, -16
	movq	%rsp, %rbp
	.cfi_def_cfa_register %rbp
	subq	$16, %rsp
	callq	__ZN4core3cmp6max_by17he816457494e0aee7E
	movq	%rax, -8(%rbp)
	movq	-8(%rbp), %rax
	addq	$16, %rsp
	popq	%rbp
	retq
	.cfi_endproc

	.p2align	4, 0x90
__ZN4core3cmp3max17h77507b93da4edbfeE:
	.cfi_startproc
	pushq	%rbp
	.cfi_def_cfa_offset 16
	.cfi_offset %rbp, -16
	movq	%rsp, %rbp
	.cfi_def_cfa_register %rbp
	subq	$16, %rsp
	callq	__ZN4core3cmp3Ord3max17h78667a95848b8170E
	movq	%rax, -8(%rbp)
	movq	-8(%rbp), %rax
	addq	$16, %rsp
	popq	%rbp
	retq
	.cfi_endproc

	.p2align	4, 0x90
__ZN4core3cmp5impls50_$LT$impl$u20$core..cmp..Ord$u20$for$u20$usize$GT$3cmp17h0749247904221b2fE:
	.cfi_startproc
	pushq	%rbp
	.cfi_def_cfa_offset 16
	.cfi_offset %rbp, -16
	movq	%rsp, %rbp
	.cfi_def_cfa_register %rbp
	subq	$24, %rsp
	movq	(%rdi), %rax
	cmpq	(%rsi), %rax
	movq	%rdi, -16(%rbp)
	movq	%rsi, -24(%rbp)
	jb	LBB15_2
	movq	-16(%rbp), %rax
	movq	(%rax), %rcx
	movq	-24(%rbp), %rdx
	cmpq	(%rdx), %rcx
	je	LBB15_4
	jmp	LBB15_3
LBB15_2:
	movb	$-1, -1(%rbp)
	jmp	LBB15_6
LBB15_3:
	movb	$1, -1(%rbp)
	jmp	LBB15_5
LBB15_4:
	movb	$0, -1(%rbp)
LBB15_5:
	jmp	LBB15_6
LBB15_6:
	movb	-1(%rbp), %al
	addq	$24, %rsp
	popq	%rbp
	retq
	.cfi_endproc

	.p2align	4, 0x90
__ZN4core3cmp5impls57_$LT$impl$u20$core..cmp..PartialOrd$u20$for$u20$usize$GT$2lt17h5934df07ee6a8573E:
	.cfi_startproc
	pushq	%rbp
	.cfi_def_cfa_offset 16
	.cfi_offset %rbp, -16
	movq	%rsp, %rbp
	.cfi_def_cfa_register %rbp
	movq	(%rdi), %rax
	cmpq	(%rsi), %rax
	setb	%cl
	andb	$1, %cl
	movzbl	%cl, %eax
	popq	%rbp
	retq
	.cfi_endproc

	.p2align	4, 0x90
__ZN4core3cmp6max_by17he816457494e0aee7E:
Lfunc_begin1:
	.cfi_startproc
	.cfi_personality 155, _rust_eh_personality
	.cfi_lsda 16, Lexception1
	pushq	%rbp
	.cfi_def_cfa_offset 16
	.cfi_offset %rbp, -16
	movq	%rsp, %rbp
	.cfi_def_cfa_register %rbp
	subq	$80, %rsp
	movq	%rdi, -72(%rbp)
	movq	%rsi, -64(%rbp)
	movb	$0, -18(%rbp)
	movb	$0, -17(%rbp)
	movb	$1, -18(%rbp)
	movb	$1, -17(%rbp)
	leaq	-72(%rbp), %rax
	movq	%rax, -40(%rbp)
	leaq	-64(%rbp), %rax
	movq	%rax, -32(%rbp)
	movq	-40(%rbp), %rdi
	movq	-32(%rbp), %rsi
Ltmp5:
	callq	__ZN4core3ops8function6FnOnce9call_once17hd8813cbe26da4c25E
Ltmp6:
	movb	%al, -73(%rbp)
	jmp	LBB17_2
LBB17_1:
	movq	-16(%rbp), %rdi
	callq	__Unwind_Resume
	ud2
LBB17_2:
	movb	-73(%rbp), %al
	movb	%al, -41(%rbp)
	movsbq	-41(%rbp), %rcx
	incq	%rcx
	subq	$2, %rcx
	jb	LBB17_7
	jmp	LBB17_15
LBB17_15:
	jmp	LBB17_5
LBB17_3:
	testb	$1, -18(%rbp)
	jne	LBB17_11
	jmp	LBB17_1
LBB17_4:
	movb	$0, -17(%rbp)
	jmp	LBB17_3
LBB17_5:
	movb	$0, -18(%rbp)
	movq	-72(%rbp), %rax
	movq	%rax, -56(%rbp)
	jmp	LBB17_8
	ud2
LBB17_7:
	movb	$0, -17(%rbp)
	movq	-64(%rbp), %rax
	movq	%rax, -56(%rbp)
LBB17_8:
	testb	$1, -17(%rbp)
	jne	LBB17_12
LBB17_9:
	testb	$1, -18(%rbp)
	jne	LBB17_13
LBB17_10:
	movq	-56(%rbp), %rax
	addq	$80, %rsp
	popq	%rbp
	retq
LBB17_11:
	movb	$0, -18(%rbp)
	jmp	LBB17_1
LBB17_12:
	movb	$0, -17(%rbp)
	jmp	LBB17_9
LBB17_13:
	movb	$0, -18(%rbp)
	jmp	LBB17_10
LBB17_14:
Ltmp7:
	movq	%rax, -16(%rbp)
	movl	%edx, -8(%rbp)
	jmp	LBB17_4
Lfunc_end1:
	.cfi_endproc
	.section	__TEXT,__gcc_except_tab
	.p2align	2
GCC_except_table17:
Lexception1:
	.byte	255
	.byte	255
	.byte	1
	.uleb128 Lcst_end1-Lcst_begin1
Lcst_begin1:
	.uleb128 Ltmp5-Lfunc_begin1
	.uleb128 Ltmp6-Ltmp5
	.uleb128 Ltmp7-Lfunc_begin1
	.byte	0
	.uleb128 Ltmp6-Lfunc_begin1
	.uleb128 Lfunc_end1-Ltmp6
	.byte	0
	.byte	0
Lcst_end1:
	.p2align	2

	.section	__TEXT,__text,regular,pure_instructions
	.p2align	4, 0x90
__ZN4core3fmt9Arguments6new_v117h05498da49179694dE:
	.cfi_startproc
	pushq	%rbp
	.cfi_def_cfa_offset 16
	.cfi_offset %rbp, -16
	movq	%rsp, %rbp
	.cfi_def_cfa_register %rbp
	subq	$16, %rsp
	movq	%rdi, %rax
	movq	$0, -16(%rbp)
	movq	%rsi, (%rdi)
	movq	%rdx, 8(%rdi)
	movq	-16(%rbp), %rdx
	movq	-8(%rbp), %rsi
	movq	%rdx, 16(%rdi)
	movq	%rsi, 24(%rdi)
	movq	%rcx, 32(%rdi)
	movq	%r8, 40(%rdi)
	addq	$16, %rsp
	popq	%rbp
	retq
	.cfi_endproc

	.p2align	4, 0x90
__ZN4core3mem4swap17h7a210abf9c5e313fE:
	.cfi_startproc
	pushq	%rbp
	.cfi_def_cfa_offset 16
	.cfi_offset %rbp, -16
	movq	%rsp, %rbp
	.cfi_def_cfa_register %rbp
	callq	__ZN4core3ptr23swap_nonoverlapping_one17h4544df431e917170E
	popq	%rbp
	retq
	.cfi_endproc

	.p2align	4, 0x90
__ZN4core3mem7replace17h721f185e56b5feb9E:
Lfunc_begin2:
	.cfi_startproc
	.cfi_personality 155, _rust_eh_personality
	.cfi_lsda 16, Lexception2
	pushq	%rbp
	.cfi_def_cfa_offset 16
	.cfi_offset %rbp, -16
	movq	%rsp, %rbp
	.cfi_def_cfa_register %rbp
	subq	$32, %rsp
	movq	%rsi, -24(%rbp)
Ltmp8:
	leaq	-24(%rbp), %rsi
	callq	__ZN4core3mem4swap17h7a210abf9c5e313fE
Ltmp9:
	jmp	LBB20_2
LBB20_1:
	movq	-16(%rbp), %rdi
	callq	__Unwind_Resume
	ud2
LBB20_2:
	movq	-24(%rbp), %rax
	addq	$32, %rsp
	popq	%rbp
	retq
LBB20_3:
	jmp	LBB20_1
LBB20_4:
Ltmp10:
	movq	%rax, -16(%rbp)
	movl	%edx, -8(%rbp)
	jmp	LBB20_3
Lfunc_end2:
	.cfi_endproc
	.section	__TEXT,__gcc_except_tab
	.p2align	2
GCC_except_table20:
Lexception2:
	.byte	255
	.byte	255
	.byte	1
	.uleb128 Lcst_end2-Lcst_begin2
Lcst_begin2:
	.uleb128 Ltmp8-Lfunc_begin2
	.uleb128 Ltmp9-Ltmp8
	.uleb128 Ltmp10-Lfunc_begin2
	.byte	0
	.uleb128 Ltmp9-Lfunc_begin2
	.uleb128 Lfunc_end2-Ltmp9
	.byte	0
	.byte	0
Lcst_end2:
	.p2align	2

	.section	__TEXT,__text,regular,pure_instructions
	.p2align	4, 0x90
__ZN4core3num12NonZeroUsize13new_unchecked17h8800fea0e3a0a064E:
	.cfi_startproc
	pushq	%rbp
	.cfi_def_cfa_offset 16
	.cfi_offset %rbp, -16
	movq	%rsp, %rbp
	.cfi_def_cfa_register %rbp
	pushq	%rax
	movq	%rdi, -8(%rbp)
	movq	-8(%rbp), %rax
	addq	$8, %rsp
	popq	%rbp
	retq
	.cfi_endproc

	.p2align	4, 0x90
__ZN4core3num12NonZeroUsize3get17hc47ee6aa2ed7f5e9E:
	.cfi_startproc
	pushq	%rbp
	.cfi_def_cfa_offset 16
	.cfi_offset %rbp, -16
	movq	%rsp, %rbp
	.cfi_def_cfa_register %rbp
	movq	%rdi, %rax
	popq	%rbp
	retq
	.cfi_endproc

	.p2align	4, 0x90
__ZN4core3num23_$LT$impl$u20$usize$GT$13unchecked_add17hd7ba4b42af78c760E:
	.cfi_startproc
	pushq	%rbp
	.cfi_def_cfa_offset 16
	.cfi_offset %rbp, -16
	movq	%rsp, %rbp
	.cfi_def_cfa_register %rbp
	subq	$16, %rsp
	addq	%rsi, %rdi
	movq	%rdi, -8(%rbp)
	movq	-8(%rbp), %rax
	movq	%rax, -16(%rbp)
	movq	-16(%rbp), %rax
	addq	$16, %rsp
	popq	%rbp
	retq
	.cfi_endproc

	.p2align	4, 0x90
__ZN4core3num23_$LT$impl$u20$usize$GT$13unchecked_sub17h7c2bd16964ff32c7E:
	.cfi_startproc
	pushq	%rbp
	.cfi_def_cfa_offset 16
	.cfi_offset %rbp, -16
	movq	%rsp, %rbp
	.cfi_def_cfa_register %rbp
	subq	$16, %rsp
	subq	%rsi, %rdi
	movq	%rdi, -8(%rbp)
	movq	-8(%rbp), %rax
	movq	%rax, -16(%rbp)
	movq	-16(%rbp), %rax
	addq	$16, %rsp
	popq	%rbp
	retq
	.cfi_endproc

	.p2align	4, 0x90
__ZN4core3ops8function6FnOnce40call_once$u7b$$u7b$vtable.shim$u7d$$u7d$17h019ca7cfaf20f1cfE:
	.cfi_startproc
	pushq	%rbp
	.cfi_def_cfa_offset 16
	.cfi_offset %rbp, -16
	movq	%rsp, %rbp
	.cfi_def_cfa_register %rbp
	subq	$16, %rsp
	movq	(%rdi), %rdi
	callq	__ZN4core3ops8function6FnOnce9call_once17he9df7b074f6240daE
	movl	%eax, -12(%rbp)
	movl	-12(%rbp), %eax
	addq	$16, %rsp
	popq	%rbp
	retq
	.cfi_endproc

	.p2align	4, 0x90
__ZN4core3ops8function6FnOnce9call_once17hd8813cbe26da4c25E:
	.cfi_startproc
	pushq	%rbp
	.cfi_def_cfa_offset 16
	.cfi_offset %rbp, -16
	movq	%rsp, %rbp
	.cfi_def_cfa_register %rbp
	subq	$32, %rsp
	movq	%rdi, -16(%rbp)
	movq	%rsi, -8(%rbp)
	movq	-16(%rbp), %rdi
	movq	-8(%rbp), %rsi
	callq	__ZN4core3cmp5impls50_$LT$impl$u20$core..cmp..Ord$u20$for$u20$usize$GT$3cmp17h0749247904221b2fE
	movb	%al, -17(%rbp)
	movb	-17(%rbp), %al
	addq	$32, %rsp
	popq	%rbp
	retq
	.cfi_endproc

	.p2align	4, 0x90
__ZN4core3ops8function6FnOnce9call_once17he9df7b074f6240daE:
Lfunc_begin3:
	.cfi_startproc
	.cfi_personality 155, _rust_eh_personality
	.cfi_lsda 16, Lexception3
	pushq	%rbp
	.cfi_def_cfa_offset 16
	.cfi_offset %rbp, -16
	movq	%rsp, %rbp
	.cfi_def_cfa_register %rbp
	subq	$48, %rsp
	movq	%rdi, -32(%rbp)
Ltmp11:
	leaq	-32(%rbp), %rdi
	callq	__ZN3std2rt10lang_start28_$u7b$$u7b$closure$u7d$$u7d$17h66bb66a819862e9eE
Ltmp12:
	movl	%eax, -36(%rbp)
	jmp	LBB27_1
LBB27_1:
	jmp	LBB27_2
LBB27_2:
	movl	-36(%rbp), %eax
	addq	$48, %rsp
	popq	%rbp
	retq
LBB27_3:
	jmp	LBB27_4
LBB27_4:
	movq	-16(%rbp), %rdi
	callq	__Unwind_Resume
	ud2
LBB27_5:
Ltmp13:
	movq	%rax, -16(%rbp)
	movl	%edx, -8(%rbp)
	jmp	LBB27_3
Lfunc_end3:
	.cfi_endproc
	.section	__TEXT,__gcc_except_tab
	.p2align	2
GCC_except_table27:
Lexception3:
	.byte	255
	.byte	255
	.byte	1
	.uleb128 Lcst_end3-Lcst_begin3
Lcst_begin3:
	.uleb128 Ltmp11-Lfunc_begin3
	.uleb128 Ltmp12-Ltmp11
	.uleb128 Ltmp13-Lfunc_begin3
	.byte	0
	.uleb128 Ltmp12-Lfunc_begin3
	.uleb128 Lfunc_end3-Ltmp12
	.byte	0
	.byte	0
Lcst_end3:
	.p2align	2

	.section	__TEXT,__text,regular,pure_instructions
	.p2align	4, 0x90
__ZN4core3ptr13drop_in_place17h00df796a9f290431E:
	.cfi_startproc
	pushq	%rbp
	.cfi_def_cfa_offset 16
	.cfi_offset %rbp, -16
	movq	%rsp, %rbp
	.cfi_def_cfa_register %rbp
	subq	$16, %rsp
	callq	__ZN4core3ptr13drop_in_place17h5d1ea43f454f4c17E
	addq	$16, %rsp
	popq	%rbp
	retq
	.cfi_endproc

	.p2align	4, 0x90
__ZN4core3ptr13drop_in_place17h3e7128b8ea51c14aE:
	.cfi_startproc
	pushq	%rbp
	.cfi_def_cfa_offset 16
	.cfi_offset %rbp, -16
	movq	%rsp, %rbp
	.cfi_def_cfa_register %rbp
	subq	$16, %rsp
	callq	__ZN4core3ptr13drop_in_place17h5d1ea43f454f4c17E
	addq	$16, %rsp
	popq	%rbp
	retq
	.cfi_endproc

	.p2align	4, 0x90
__ZN4core3ptr13drop_in_place17h4060f618d460995aE:
	.cfi_startproc
	pushq	%rbp
	.cfi_def_cfa_offset 16
	.cfi_offset %rbp, -16
	movq	%rsp, %rbp
	.cfi_def_cfa_register %rbp
	pushq	%rax
	addq	$8, %rsp
	popq	%rbp
	retq
	.cfi_endproc

	.p2align	4, 0x90
__ZN4core3ptr13drop_in_place17h4608e2a4d2e5d048E:
	.cfi_startproc
	pushq	%rbp
	.cfi_def_cfa_offset 16
	.cfi_offset %rbp, -16
	movq	%rsp, %rbp
	.cfi_def_cfa_register %rbp
	subq	$16, %rsp
	callq	__ZN77_$LT$alloc..raw_vec..RawVec$LT$T$C$A$GT$$u20$as$u20$core..ops..drop..Drop$GT$4drop17h0d314abb0c456200E
	addq	$16, %rsp
	popq	%rbp
	retq
	.cfi_endproc

	.p2align	4, 0x90
__ZN4core3ptr13drop_in_place17h5d1ea43f454f4c17E:
Lfunc_begin4:
	.cfi_startproc
	.cfi_personality 155, _rust_eh_personality
	.cfi_lsda 16, Lexception4
	pushq	%rbp
	.cfi_def_cfa_offset 16
	.cfi_offset %rbp, -16
	movq	%rsp, %rbp
	.cfi_def_cfa_register %rbp
	subq	$32, %rsp
Ltmp14:
	movq	%rdi, -32(%rbp)
	callq	__ZN66_$LT$alloc..vec..Vec$LT$T$GT$$u20$as$u20$core..ops..drop..Drop$GT$4drop17h4b770031241383deE
Ltmp15:
	jmp	LBB32_4
LBB32_1:
	movq	-16(%rbp), %rdi
	callq	__Unwind_Resume
	ud2
LBB32_2:
	addq	$32, %rsp
	popq	%rbp
	retq
LBB32_3:
	movq	-32(%rbp), %rax
	movq	%rax, %rdi
	callq	__ZN4core3ptr13drop_in_place17h4608e2a4d2e5d048E
	jmp	LBB32_1
LBB32_4:
	movq	-32(%rbp), %rax
	movq	%rax, %rdi
	callq	__ZN4core3ptr13drop_in_place17h4608e2a4d2e5d048E
	jmp	LBB32_2
LBB32_5:
Ltmp16:
	movq	%rax, -16(%rbp)
	movl	%edx, -8(%rbp)
	jmp	LBB32_3
Lfunc_end4:
	.cfi_endproc
	.section	__TEXT,__gcc_except_tab
	.p2align	2
GCC_except_table32:
Lexception4:
	.byte	255
	.byte	255
	.byte	1
	.uleb128 Lcst_end4-Lcst_begin4
Lcst_begin4:
	.uleb128 Ltmp14-Lfunc_begin4
	.uleb128 Ltmp15-Ltmp14
	.uleb128 Ltmp16-Lfunc_begin4
	.byte	0
	.uleb128 Ltmp15-Lfunc_begin4
	.uleb128 Lfunc_end4-Ltmp15
	.byte	0
	.byte	0
Lcst_end4:
	.p2align	2

	.section	__TEXT,__text,regular,pure_instructions
	.p2align	4, 0x90
__ZN4core3ptr13drop_in_place17h90fc9f5cc9f9b260E:
	.cfi_startproc
	pushq	%rbp
	.cfi_def_cfa_offset 16
	.cfi_offset %rbp, -16
	movq	%rsp, %rbp
	.cfi_def_cfa_register %rbp
	subq	$16, %rsp
	callq	__ZN4core3ptr13drop_in_place17h3e7128b8ea51c14aE
	addq	$16, %rsp
	popq	%rbp
	retq
	.cfi_endproc

	.p2align	4, 0x90
__ZN4core3ptr13drop_in_place17he7e10f59fbe7e031E:
	.cfi_startproc
	pushq	%rbp
	.cfi_def_cfa_offset 16
	.cfi_offset %rbp, -16
	movq	%rsp, %rbp
	.cfi_def_cfa_register %rbp
	subq	$16, %rsp
	xorl	%eax, %eax
	movl	%eax, %ecx
	cmpq	$0, (%rdi)
	movl	$1, %edx
	cmovbeq	%rcx, %rdx
	cmpq	$0, %rdx
	movq	%rdi, -16(%rbp)
	jne	LBB34_2
LBB34_1:
	addq	$16, %rsp
	popq	%rbp
	retq
LBB34_2:
	movq	-16(%rbp), %rax
	movq	%rax, %rdi
	callq	__ZN4core3ptr13drop_in_place17h90fc9f5cc9f9b260E
	jmp	LBB34_1
	.cfi_endproc

	.p2align	4, 0x90
__ZN4core3ptr19swap_nonoverlapping17h8937ead2febee379E:
	.cfi_startproc
	pushq	%rbp
	.cfi_def_cfa_offset 16
	.cfi_offset %rbp, -16
	movq	%rsp, %rbp
	.cfi_def_cfa_register %rbp
	subq	$48, %rsp
	movq	$8, -8(%rbp)
	movq	-8(%rbp), %rax
	movq	%rdx, -16(%rbp)
	movq	%rdi, -24(%rbp)
	movq	%rsi, -32(%rbp)
	movq	%rax, -40(%rbp)
	movq	-40(%rbp), %rax
	movq	-16(%rbp), %rcx
	imulq	%rcx, %rax
	movq	-24(%rbp), %rdi
	movq	-32(%rbp), %rsi
	movq	%rax, %rdx
	callq	__ZN4core3ptr25swap_nonoverlapping_bytes17h4ab09678a2a30e2bE
	addq	$48, %rsp
	popq	%rbp
	retq
	.cfi_endproc

	.p2align	4, 0x90
__ZN4core3ptr20slice_from_raw_parts17h9532a5de6a6adf79E:
	.cfi_startproc
	pushq	%rbp
	.cfi_def_cfa_offset 16
	.cfi_offset %rbp, -16
	movq	%rsp, %rbp
	.cfi_def_cfa_register %rbp
	subq	$32, %rsp
	movq	%rdi, -16(%rbp)
	movq	%rsi, -8(%rbp)
	movq	-16(%rbp), %rax
	movq	-8(%rbp), %rcx
	movq	%rax, -32(%rbp)
	movq	%rcx, -24(%rbp)
	movq	-32(%rbp), %rax
	movq	-24(%rbp), %rdx
	addq	$32, %rsp
	popq	%rbp
	retq
	.cfi_endproc

	.p2align	4, 0x90
__ZN4core3ptr23swap_nonoverlapping_one17h4544df431e917170E:
Lfunc_begin5:
	.cfi_startproc
	.cfi_personality 155, _rust_eh_personality
	.cfi_lsda 16, Lexception5
	pushq	%rbp
	.cfi_def_cfa_offset 16
	.cfi_offset %rbp, -16
	movq	%rsp, %rbp
	.cfi_def_cfa_register %rbp
	subq	$64, %rsp
	movb	$0, -25(%rbp)
	movq	$8, -8(%rbp)
	movq	-8(%rbp), %rax
	movq	%rdi, -40(%rbp)
	movq	%rsi, -48(%rbp)
	movq	%rax, -56(%rbp)
	jmp	LBB37_2
LBB37_1:
	movq	-24(%rbp), %rdi
	callq	__Unwind_Resume
	ud2
LBB37_2:
	movq	-56(%rbp), %rax
	cmpq	$32, %rax
	jb	LBB37_4
	movq	-40(%rbp), %rdi
	movq	-48(%rbp), %rsi
	movl	$1, %edx
	callq	__ZN4core3ptr19swap_nonoverlapping17h8937ead2febee379E
	jmp	LBB37_8
LBB37_4:
	movb	$1, -25(%rbp)
	movq	-40(%rbp), %rdi
	callq	__ZN4core3ptr4read17h8203cb940a4f9a0eE
	movq	%rax, -64(%rbp)
Ltmp17:
	movl	$1, %edx
	movq	-48(%rbp), %rdi
	movq	-40(%rbp), %rsi
	callq	__ZN4core10intrinsics19copy_nonoverlapping17h00be92f22e145febE
Ltmp18:
	jmp	LBB37_6
LBB37_6:
	movb	$0, -25(%rbp)
Ltmp19:
	movq	-48(%rbp), %rdi
	movq	-64(%rbp), %rsi
	callq	__ZN4core3ptr5write17h19ff084d0c2b4aa9E
Ltmp20:
	jmp	LBB37_7
LBB37_7:
	movb	$0, -25(%rbp)
	jmp	LBB37_9
LBB37_8:
	jmp	LBB37_9
LBB37_9:
	addq	$64, %rsp
	popq	%rbp
	retq
LBB37_10:
	movb	$0, -25(%rbp)
	jmp	LBB37_1
LBB37_11:
	testb	$1, -25(%rbp)
	jne	LBB37_10
	jmp	LBB37_1
LBB37_12:
Ltmp21:
	movq	%rax, -24(%rbp)
	movl	%edx, -16(%rbp)
	jmp	LBB37_11
Lfunc_end5:
	.cfi_endproc
	.section	__TEXT,__gcc_except_tab
	.p2align	2
GCC_except_table37:
Lexception5:
	.byte	255
	.byte	255
	.byte	1
	.uleb128 Lcst_end5-Lcst_begin5
Lcst_begin5:
	.uleb128 Lfunc_begin5-Lfunc_begin5
	.uleb128 Ltmp17-Lfunc_begin5
	.byte	0
	.byte	0
	.uleb128 Ltmp17-Lfunc_begin5
	.uleb128 Ltmp20-Ltmp17
	.uleb128 Ltmp21-Lfunc_begin5
	.byte	0
Lcst_end5:
	.p2align	2

	.section	__TEXT,__text,regular,pure_instructions
	.p2align	4, 0x90
__ZN4core3ptr24slice_from_raw_parts_mut17hd55393c0d2a57a40E:
	.cfi_startproc
	pushq	%rbp
	.cfi_def_cfa_offset 16
	.cfi_offset %rbp, -16
	movq	%rsp, %rbp
	.cfi_def_cfa_register %rbp
	subq	$32, %rsp
	movq	%rdi, -16(%rbp)
	movq	%rsi, -8(%rbp)
	movq	-16(%rbp), %rax
	movq	-8(%rbp), %rcx
	movq	%rax, -32(%rbp)
	movq	%rcx, -24(%rbp)
	movq	-32(%rbp), %rax
	movq	-24(%rbp), %rdx
	addq	$32, %rsp
	popq	%rbp
	retq
	.cfi_endproc

	.p2align	4, 0x90
__ZN4core3ptr25swap_nonoverlapping_bytes17h4ab09678a2a30e2bE:
	.cfi_startproc
	pushq	%rbp
	.cfi_def_cfa_offset 16
	.cfi_offset %rbp, -16
	movq	%rsp, %rbp
	.cfi_def_cfa_register %rbp
	andq	$-32, %rsp
	subq	$224, %rsp
	movq	$32, 200(%rsp)
	movq	200(%rsp), %rax
	movq	%rdi, 104(%rsp)
	movq	%rsi, 96(%rsp)
	movq	%rdx, 88(%rsp)
	movq	%rax, 80(%rsp)
	movq	$0, 120(%rsp)
LBB39_2:
	movq	80(%rsp), %rax
	addq	120(%rsp), %rax
	movq	88(%rsp), %rcx
	cmpq	%rcx, %rax
	jbe	LBB39_4
	movq	88(%rsp), %rax
	cmpq	%rax, 120(%rsp)
	jb	LBB39_13
	jmp	LBB39_12
LBB39_4:
	jmp	LBB39_6
LBB39_6:
	leaq	128(%rsp), %rax
	movq	120(%rsp), %rsi
	movq	104(%rsp), %rdi
	movq	%rax, 72(%rsp)
	callq	__ZN4core3ptr7mut_ptr31_$LT$impl$u20$$BP$mut$u20$T$GT$3add17h669e85201f6014dbE
	movq	%rax, 64(%rsp)
	movq	120(%rsp), %rsi
	movq	96(%rsp), %rdi
	callq	__ZN4core3ptr7mut_ptr31_$LT$impl$u20$$BP$mut$u20$T$GT$3add17h669e85201f6014dbE
	movq	%rax, 56(%rsp)
	movq	64(%rsp), %rdi
	movq	72(%rsp), %rsi
	movq	80(%rsp), %rdx
	callq	__ZN4core10intrinsics19copy_nonoverlapping17heab3244476690917E
	movq	56(%rsp), %rdi
	movq	64(%rsp), %rsi
	movq	80(%rsp), %rdx
	callq	__ZN4core10intrinsics19copy_nonoverlapping17heab3244476690917E
	movq	72(%rsp), %rdi
	movq	56(%rsp), %rsi
	movq	80(%rsp), %rdx
	callq	__ZN4core10intrinsics19copy_nonoverlapping17heab3244476690917E
	movq	80(%rsp), %rax
	addq	120(%rsp), %rax
	movq	%rax, 120(%rsp)
	jmp	LBB39_2
LBB39_12:
	jmp	LBB39_21
LBB39_13:
	movq	88(%rsp), %rax
	subq	120(%rsp), %rax
	leaq	168(%rsp), %rcx
	movq	%rax, 48(%rsp)
	movq	%rcx, 40(%rsp)
	movq	40(%rsp), %rax
	movq	120(%rsp), %rsi
	movq	104(%rsp), %rdi
	movq	%rax, 32(%rsp)
	callq	__ZN4core3ptr7mut_ptr31_$LT$impl$u20$$BP$mut$u20$T$GT$3add17h669e85201f6014dbE
	movq	%rax, 24(%rsp)
	movq	120(%rsp), %rsi
	movq	96(%rsp), %rdi
	callq	__ZN4core3ptr7mut_ptr31_$LT$impl$u20$$BP$mut$u20$T$GT$3add17h669e85201f6014dbE
	movq	%rax, 16(%rsp)
	movq	24(%rsp), %rdi
	movq	32(%rsp), %rsi
	movq	48(%rsp), %rdx
	callq	__ZN4core10intrinsics19copy_nonoverlapping17heab3244476690917E
	movq	16(%rsp), %rdi
	movq	24(%rsp), %rsi
	movq	48(%rsp), %rdx
	callq	__ZN4core10intrinsics19copy_nonoverlapping17heab3244476690917E
	movq	32(%rsp), %rdi
	movq	16(%rsp), %rsi
	movq	48(%rsp), %rdx
	callq	__ZN4core10intrinsics19copy_nonoverlapping17heab3244476690917E
	jmp	LBB39_21
LBB39_21:
	movq	%rbp, %rsp
	popq	%rbp
	retq
	.cfi_endproc

	.p2align	4, 0x90
__ZN4core3ptr4read17h8203cb940a4f9a0eE:
	.cfi_startproc
	pushq	%rbp
	.cfi_def_cfa_offset 16
	.cfi_offset %rbp, -16
	movq	%rsp, %rbp
	.cfi_def_cfa_register %rbp
	subq	$32, %rsp
	movq	-8(%rbp), %rax
	movq	%rax, -16(%rbp)
	movq	%rdi, -24(%rbp)
	jmp	LBB40_2
LBB40_2:
	movq	-24(%rbp), %rdi
	leaq	-16(%rbp), %rsi
	movl	$1, %edx
	callq	__ZN4core10intrinsics19copy_nonoverlapping17h00be92f22e145febE
	movq	-16(%rbp), %rax
	movq	%rax, -32(%rbp)
	movq	-32(%rbp), %rax
	addq	$32, %rsp
	popq	%rbp
	retq
	.cfi_endproc

	.p2align	4, 0x90
__ZN4core3ptr5write17h19ff084d0c2b4aa9E:
	.cfi_startproc
	pushq	%rbp
	.cfi_def_cfa_offset 16
	.cfi_offset %rbp, -16
	movq	%rsp, %rbp
	.cfi_def_cfa_register %rbp
	pushq	%rax
	movq	%rsi, (%rdi)
	addq	$8, %rsp
	popq	%rbp
	retq
	.cfi_endproc

	.p2align	4, 0x90
__ZN4core3ptr6unique15Unique$LT$T$GT$13new_unchecked17h790a47b6007feda0E:
	.cfi_startproc
	pushq	%rbp
	.cfi_def_cfa_offset 16
	.cfi_offset %rbp, -16
	movq	%rsp, %rbp
	.cfi_def_cfa_register %rbp
	subq	$16, %rsp
	movq	%rdi, -16(%rbp)
	movq	-16(%rbp), %rax
	addq	$16, %rsp
	popq	%rbp
	retq
	.cfi_endproc

	.p2align	4, 0x90
__ZN4core3ptr6unique15Unique$LT$T$GT$4cast17h23f9866a8ea0fb2aE:
	.cfi_startproc
	pushq	%rbp
	.cfi_def_cfa_offset 16
	.cfi_offset %rbp, -16
	movq	%rsp, %rbp
	.cfi_def_cfa_register %rbp
	subq	$16, %rsp
	callq	__ZN4core3ptr6unique15Unique$LT$T$GT$6as_ptr17h8a6e32dc741c6778E
	movq	%rax, -8(%rbp)
	movq	-8(%rbp), %rdi
	callq	__ZN4core3ptr6unique15Unique$LT$T$GT$13new_unchecked17h790a47b6007feda0E
	movq	%rax, -16(%rbp)
	movq	-16(%rbp), %rax
	addq	$16, %rsp
	popq	%rbp
	retq
	.cfi_endproc

	.p2align	4, 0x90
__ZN4core3ptr6unique15Unique$LT$T$GT$6as_ptr17h8a6e32dc741c6778E:
	.cfi_startproc
	pushq	%rbp
	.cfi_def_cfa_offset 16
	.cfi_offset %rbp, -16
	movq	%rsp, %rbp
	.cfi_def_cfa_register %rbp
	movq	%rdi, %rax
	popq	%rbp
	retq
	.cfi_endproc

	.p2align	4, 0x90
__ZN4core3ptr7mut_ptr31_$LT$impl$u20$$BP$mut$u20$T$GT$3add17h669e85201f6014dbE:
	.cfi_startproc
	pushq	%rbp
	.cfi_def_cfa_offset 16
	.cfi_offset %rbp, -16
	movq	%rsp, %rbp
	.cfi_def_cfa_register %rbp
	subq	$16, %rsp
	callq	__ZN4core3ptr7mut_ptr31_$LT$impl$u20$$BP$mut$u20$T$GT$6offset17hd00bdc99100dfadbE
	movq	%rax, -8(%rbp)
	movq	-8(%rbp), %rax
	addq	$16, %rsp
	popq	%rbp
	retq
	.cfi_endproc

	.p2align	4, 0x90
__ZN4core3ptr7mut_ptr31_$LT$impl$u20$$BP$mut$u20$T$GT$6offset17hd00bdc99100dfadbE:
	.cfi_startproc
	pushq	%rbp
	.cfi_def_cfa_offset 16
	.cfi_offset %rbp, -16
	movq	%rsp, %rbp
	.cfi_def_cfa_register %rbp
	subq	$16, %rsp
	addq	%rsi, %rdi
	movq	%rdi, -8(%rbp)
	movq	-8(%rbp), %rax
	movq	%rax, -16(%rbp)
	movq	-16(%rbp), %rax
	addq	$16, %rsp
	popq	%rbp
	retq
	.cfi_endproc

	.p2align	4, 0x90
__ZN4core3ptr7mut_ptr31_$LT$impl$u20$$BP$mut$u20$T$GT$7is_null17h8170430b1f1659dbE:
	.cfi_startproc
	pushq	%rbp
	.cfi_def_cfa_offset 16
	.cfi_offset %rbp, -16
	movq	%rsp, %rbp
	.cfi_def_cfa_register %rbp
	pushq	%rax
	movq	%rdi, -8(%rbp)
	jmp	LBB47_1
LBB47_1:
	movq	-8(%rbp), %rax
	cmpq	$0, %rax
	sete	%cl
	andb	$1, %cl
	movzbl	%cl, %edx
	movl	%edx, %eax
	addq	$8, %rsp
	popq	%rbp
	retq
	.cfi_endproc

	.p2align	4, 0x90
__ZN4core3ptr8non_null16NonNull$LT$T$GT$13new_unchecked17h98f24dd71f344587E:
	.cfi_startproc
	pushq	%rbp
	.cfi_def_cfa_offset 16
	.cfi_offset %rbp, -16
	movq	%rsp, %rbp
	.cfi_def_cfa_register %rbp
	pushq	%rax
	movq	%rdi, -8(%rbp)
	movq	-8(%rbp), %rax
	addq	$8, %rsp
	popq	%rbp
	retq
	.cfi_endproc

	.p2align	4, 0x90
__ZN4core3ptr8non_null16NonNull$LT$T$GT$6as_ptr17h25d9b5ef5cdf53f1E:
	.cfi_startproc
	pushq	%rbp
	.cfi_def_cfa_offset 16
	.cfi_offset %rbp, -16
	movq	%rsp, %rbp
	.cfi_def_cfa_register %rbp
	movq	%rdi, %rax
	popq	%rbp
	retq
	.cfi_endproc

	.p2align	4, 0x90
__ZN4core3ptr9const_ptr33_$LT$impl$u20$$BP$const$u20$T$GT$12wrapping_add17h422dae042b77fc7bE:
	.cfi_startproc
	pushq	%rbp
	.cfi_def_cfa_offset 16
	.cfi_offset %rbp, -16
	movq	%rsp, %rbp
	.cfi_def_cfa_register %rbp
	subq	$16, %rsp
	callq	__ZN4core3ptr9const_ptr33_$LT$impl$u20$$BP$const$u20$T$GT$15wrapping_offset17h97552beb9042417fE
	movq	%rax, -8(%rbp)
	movq	-8(%rbp), %rax
	addq	$16, %rsp
	popq	%rbp
	retq
	.cfi_endproc

	.p2align	4, 0x90
__ZN4core3ptr9const_ptr33_$LT$impl$u20$$BP$const$u20$T$GT$15wrapping_offset17h97552beb9042417fE:
	.cfi_startproc
	pushq	%rbp
	.cfi_def_cfa_offset 16
	.cfi_offset %rbp, -16
	movq	%rsp, %rbp
	.cfi_def_cfa_register %rbp
	subq	$16, %rsp
	addq	%rsi, %rdi
	movq	%rdi, -8(%rbp)
	movq	-8(%rbp), %rax
	movq	%rax, -16(%rbp)
	movq	-16(%rbp), %rax
	addq	$16, %rsp
	popq	%rbp
	retq
	.cfi_endproc

	.p2align	4, 0x90
__ZN4core3ptr9const_ptr33_$LT$impl$u20$$BP$const$u20$T$GT$3add17h59dbf0c2900e6be3E:
	.cfi_startproc
	pushq	%rbp
	.cfi_def_cfa_offset 16
	.cfi_offset %rbp, -16
	movq	%rsp, %rbp
	.cfi_def_cfa_register %rbp
	subq	$16, %rsp
	callq	__ZN4core3ptr9const_ptr33_$LT$impl$u20$$BP$const$u20$T$GT$6offset17h4315cb588d493c99E
	movq	%rax, -8(%rbp)
	movq	-8(%rbp), %rax
	addq	$16, %rsp
	popq	%rbp
	retq
	.cfi_endproc

	.p2align	4, 0x90
__ZN4core3ptr9const_ptr33_$LT$impl$u20$$BP$const$u20$T$GT$6offset17h4315cb588d493c99E:
	.cfi_startproc
	pushq	%rbp
	.cfi_def_cfa_offset 16
	.cfi_offset %rbp, -16
	movq	%rsp, %rbp
	.cfi_def_cfa_register %rbp
	subq	$16, %rsp
	addq	%rsi, %rdi
	movq	%rdi, -8(%rbp)
	movq	-8(%rbp), %rax
	movq	%rax, -16(%rbp)
	movq	-16(%rbp), %rax
	addq	$16, %rsp
	popq	%rbp
	retq
	.cfi_endproc

	.p2align	4, 0x90
__ZN4core3ptr9const_ptr33_$LT$impl$u20$$BP$const$u20$T$GT$7is_null17h31189ecefb215edaE:
	.cfi_startproc
	pushq	%rbp
	.cfi_def_cfa_offset 16
	.cfi_offset %rbp, -16
	movq	%rsp, %rbp
	.cfi_def_cfa_register %rbp
	pushq	%rax
	movq	%rdi, -8(%rbp)
	jmp	LBB54_1
LBB54_1:
	movq	-8(%rbp), %rax
	cmpq	$0, %rax
	sete	%cl
	andb	$1, %cl
	movzbl	%cl, %edx
	movl	%edx, %eax
	addq	$8, %rsp
	popq	%rbp
	retq
	.cfi_endproc

	.p2align	4, 0x90
__ZN4core3ptr9const_ptr43_$LT$impl$u20$$BP$const$u20$$u5b$T$u5d$$GT$3len17h4a662363e15ed988E:
	.cfi_startproc
	pushq	%rbp
	.cfi_def_cfa_offset 16
	.cfi_offset %rbp, -16
	movq	%rsp, %rbp
	.cfi_def_cfa_register %rbp
	subq	$16, %rsp
	movq	%rdi, -16(%rbp)
	movq	%rsi, -8(%rbp)
	movq	-8(%rbp), %rax
	addq	$16, %rsp
	popq	%rbp
	retq
	.cfi_endproc

	.p2align	4, 0x90
__ZN4core3ptr9const_ptr43_$LT$impl$u20$$BP$const$u20$$u5b$T$u5d$$GT$6as_ptr17ha0f1bd6cff659feaE:
	.cfi_startproc
	pushq	%rbp
	.cfi_def_cfa_offset 16
	.cfi_offset %rbp, -16
	movq	%rsp, %rbp
	.cfi_def_cfa_register %rbp
	movq	%rdi, %rax
	popq	%rbp
	retq
	.cfi_endproc

	.p2align	4, 0x90
__ZN4core3str11unwrap_or_017h7f44ee9bf19b3d93E:
	.cfi_startproc
	pushq	%rbp
	.cfi_def_cfa_offset 16
	.cfi_offset %rbp, -16
	movq	%rsp, %rbp
	.cfi_def_cfa_register %rbp
	subq	$16, %rsp
	movq	%rdi, -16(%rbp)
	movq	-16(%rbp), %rax
	testq	%rax, %rax
	setne	%cl
	movzbl	%cl, %edx
	movl	%edx, %eax
	je	LBB57_1
	jmp	LBB57_5
LBB57_5:
	jmp	LBB57_3
LBB57_1:
	movb	$0, -1(%rbp)
	jmp	LBB57_4
	ud2
LBB57_3:
	movq	-16(%rbp), %rax
	movb	(%rax), %cl
	movb	%cl, -1(%rbp)
LBB57_4:
	movb	-1(%rbp), %al
	addq	$16, %rsp
	popq	%rbp
	retq
	.cfi_endproc

	.p2align	4, 0x90
__ZN4core3str15next_code_point17hab6382e7f9205f09E:
	.cfi_startproc
	pushq	%rbp
	.cfi_def_cfa_offset 16
	.cfi_offset %rbp, -16
	movq	%rsp, %rbp
	.cfi_def_cfa_register %rbp
	subq	$112, %rsp
	movq	%rdi, -32(%rbp)
	callq	__ZN85_$LT$core..slice..Iter$LT$T$GT$$u20$as$u20$core..iter..traits..iterator..Iterator$GT$4next17hd3caf00169db936cE
	movq	%rax, -40(%rbp)
	movq	-40(%rbp), %rdi
	callq	__ZN69_$LT$core..option..Option$LT$T$GT$$u20$as$u20$core..ops..try..Try$GT$11into_result17h374bd3fedd653534E
	movq	%rax, -16(%rbp)
	movq	-16(%rbp), %rax
	testq	%rax, %rax
	sete	%cl
	movzbl	%cl, %edx
	movl	%edx, %eax
	jne	LBB58_3
	jmp	LBB58_28
LBB58_28:
	jmp	LBB58_5
LBB58_3:
	movq	-16(%rbp), %rax
	movb	(%rax), %cl
	cmpb	$-128, %cl
	movb	%cl, -41(%rbp)
	jb	LBB58_11
	jmp	LBB58_10
	ud2
LBB58_5:
	callq	__ZN50_$LT$T$u20$as$u20$core..convert..From$LT$T$GT$$GT$4from17h2bd4a52247efdeaaE
	jmp	LBB58_7
LBB58_6:
	movl	-24(%rbp), %eax
	movl	-20(%rbp), %edx
	addq	$112, %rsp
	popq	%rbp
	retq
LBB58_7:
	callq	__ZN69_$LT$core..option..Option$LT$T$GT$$u20$as$u20$core..ops..try..Try$GT$10from_error17h1aa68df994c22db4E
	movl	%edx, -20(%rbp)
	movl	%eax, -24(%rbp)
	jmp	LBB58_9
LBB58_9:
	jmp	LBB58_6
LBB58_10:
	movb	-41(%rbp), %al
	movzbl	%al, %edi
	movl	$2, %esi
	callq	__ZN4core3str15utf8_first_byte17h4b88b638f1f8dd51E
	movl	%eax, -48(%rbp)
	jmp	LBB58_12
LBB58_11:
	movb	-41(%rbp), %al
	movzbl	%al, %ecx
	movl	%ecx, -20(%rbp)
	movl	$1, -24(%rbp)
	jmp	LBB58_9
LBB58_12:
	movq	-32(%rbp), %rdi
	callq	__ZN85_$LT$core..slice..Iter$LT$T$GT$$u20$as$u20$core..iter..traits..iterator..Iterator$GT$4next17hd3caf00169db936cE
	movq	%rax, -56(%rbp)
	movq	-56(%rbp), %rdi
	callq	__ZN4core3str11unwrap_or_017h7f44ee9bf19b3d93E
	movb	%al, -57(%rbp)
	movl	-48(%rbp), %edi
	movb	-57(%rbp), %al
	movzbl	%al, %esi
	callq	__ZN4core3str18utf8_acc_cont_byte17hc24d0ef6d308a435E
	movl	%eax, -4(%rbp)
	movb	-41(%rbp), %al
	cmpb	$-32, %al
	jae	LBB58_17
	jmp	LBB58_27
LBB58_17:
	movq	-32(%rbp), %rdi
	callq	__ZN85_$LT$core..slice..Iter$LT$T$GT$$u20$as$u20$core..iter..traits..iterator..Iterator$GT$4next17hd3caf00169db936cE
	movq	%rax, -72(%rbp)
	movq	-72(%rbp), %rdi
	callq	__ZN4core3str11unwrap_or_017h7f44ee9bf19b3d93E
	movb	%al, -73(%rbp)
	movb	-57(%rbp), %al
	andb	$63, %al
	movzbl	%al, %edi
	movb	-73(%rbp), %al
	movzbl	%al, %esi
	callq	__ZN4core3str18utf8_acc_cont_byte17hc24d0ef6d308a435E
	movl	%eax, -80(%rbp)
	movl	-48(%rbp), %eax
	shll	$12, %eax
	movl	-80(%rbp), %ecx
	orl	%ecx, %eax
	movl	%eax, -4(%rbp)
	movb	-41(%rbp), %dl
	cmpb	$-16, %dl
	jae	LBB58_22
	jmp	LBB58_26
LBB58_22:
	movq	-32(%rbp), %rdi
	callq	__ZN85_$LT$core..slice..Iter$LT$T$GT$$u20$as$u20$core..iter..traits..iterator..Iterator$GT$4next17hd3caf00169db936cE
	movq	%rax, -88(%rbp)
	movq	-88(%rbp), %rdi
	callq	__ZN4core3str11unwrap_or_017h7f44ee9bf19b3d93E
	movb	%al, -89(%rbp)
	movl	-48(%rbp), %eax
	andl	$7, %eax
	shll	$18, %eax
	movl	-80(%rbp), %edi
	movb	-89(%rbp), %cl
	movzbl	%cl, %esi
	movl	%eax, -96(%rbp)
	callq	__ZN4core3str18utf8_acc_cont_byte17hc24d0ef6d308a435E
	movl	%eax, -100(%rbp)
	movl	-96(%rbp), %eax
	movl	-100(%rbp), %ecx
	orl	%ecx, %eax
	movl	%eax, -4(%rbp)
LBB58_26:
	jmp	LBB58_27
LBB58_27:
	movl	-4(%rbp), %eax
	movl	%eax, -20(%rbp)
	movl	$1, -24(%rbp)
	jmp	LBB58_6
	.cfi_endproc

	.p2align	4, 0x90
__ZN4core3str15utf8_first_byte17h4b88b638f1f8dd51E:
	.cfi_startproc
	pushq	%rbp
	.cfi_def_cfa_offset 16
	.cfi_offset %rbp, -16
	movq	%rsp, %rbp
	.cfi_def_cfa_register %rbp
	andb	$7, %sil
	movb	%sil, %cl
	movb	$127, %al
	shrb	%cl, %al
	andb	%al, %dil
	movzbl	%dil, %eax
	popq	%rbp
	retq
	.cfi_endproc

	.p2align	4, 0x90
__ZN4core3str18utf8_acc_cont_byte17hc24d0ef6d308a435E:
	.cfi_startproc
	pushq	%rbp
	.cfi_def_cfa_offset 16
	.cfi_offset %rbp, -16
	movq	%rsp, %rbp
	.cfi_def_cfa_register %rbp
	shll	$6, %edi
	andb	$63, %sil
	movzbl	%sil, %eax
	orl	%eax, %edi
	movl	%edi, %eax
	popq	%rbp
	retq
	.cfi_endproc

	.p2align	4, 0x90
__ZN4core3str19from_utf8_unchecked17hd72ec23f0e9fe56eE:
	.cfi_startproc
	pushq	%rbp
	.cfi_def_cfa_offset 16
	.cfi_offset %rbp, -16
	movq	%rsp, %rbp
	.cfi_def_cfa_register %rbp
	movq	%rdi, %rax
	movq	%rsi, %rdx
	popq	%rbp
	retq
	.cfi_endproc

	.p2align	4, 0x90
__ZN4core3str21_$LT$impl$u20$str$GT$16is_char_boundary17hedb2b73e98f56da1E:
	.cfi_startproc
	pushq	%rbp
	.cfi_def_cfa_offset 16
	.cfi_offset %rbp, -16
	movq	%rsp, %rbp
	.cfi_def_cfa_register %rbp
	subq	$80, %rsp
	cmpq	$0, %rdx
	movq	%rdi, -40(%rbp)
	movq	%rsi, -48(%rbp)
	movq	%rdx, -56(%rbp)
	jne	LBB62_3
LBB62_1:
	movb	$1, -25(%rbp)
	jmp	LBB62_4
LBB62_2:
	movb	$0, -25(%rbp)
	jmp	LBB62_4
LBB62_3:
	movq	-40(%rbp), %rdi
	movq	-48(%rbp), %rsi
	callq	__ZN4core3str21_$LT$impl$u20$str$GT$3len17hefc7d91a6f94b137E
	movq	%rax, -64(%rbp)
	jmp	LBB62_5
LBB62_4:
	testb	$1, -25(%rbp)
	jne	LBB62_7
	jmp	LBB62_6
LBB62_5:
	movq	-56(%rbp), %rax
	movq	-64(%rbp), %rcx
	cmpq	%rcx, %rax
	je	LBB62_1
	jmp	LBB62_2
LBB62_6:
	movq	-40(%rbp), %rax
	movq	%rax, -16(%rbp)
	movq	-48(%rbp), %rcx
	movq	%rcx, -8(%rbp)
	movq	-16(%rbp), %rdi
	movq	-8(%rbp), %rsi
	movq	%rdi, -72(%rbp)
	movq	%rsi, -80(%rbp)
	jmp	LBB62_9
LBB62_7:
	movb	$1, -26(%rbp)
LBB62_8:
	movb	-26(%rbp), %al
	andb	$1, %al
	movzbl	%al, %eax
	addq	$80, %rsp
	popq	%rbp
	retq
LBB62_9:
	movq	-72(%rbp), %rdi
	movq	-80(%rbp), %rsi
	movq	-56(%rbp), %rdx
	callq	__ZN4core5slice29_$LT$impl$u20$$u5b$T$u5d$$GT$3get17hac4ca4561eb8fc90E
	movq	%rax, -24(%rbp)
	movq	-24(%rbp), %rax
	testq	%rax, %rax
	setne	%cl
	movzbl	%cl, %edx
	movl	%edx, %eax
	je	LBB62_13
	jmp	LBB62_15
LBB62_15:
	movq	-24(%rbp), %rax
	cmpb	$-64, (%rax)
	setge	%cl
	andb	$1, %cl
	movb	%cl, -26(%rbp)
	jmp	LBB62_14
	ud2
LBB62_13:
	movb	$0, -26(%rbp)
LBB62_14:
	jmp	LBB62_8
	.cfi_endproc

	.p2align	4, 0x90
__ZN4core3str21_$LT$impl$u20$str$GT$3len17hefc7d91a6f94b137E:
	.cfi_startproc
	pushq	%rbp
	.cfi_def_cfa_offset 16
	.cfi_offset %rbp, -16
	movq	%rsp, %rbp
	.cfi_def_cfa_register %rbp
	subq	$48, %rsp
	movq	%rdi, -16(%rbp)
	movq	%rsi, -8(%rbp)
	movq	-16(%rbp), %rdi
	movq	-8(%rbp), %rsi
	movq	%rdi, -24(%rbp)
	movq	%rsi, -32(%rbp)
	movq	-24(%rbp), %rdi
	movq	-32(%rbp), %rsi
	callq	__ZN4core5slice29_$LT$impl$u20$$u5b$T$u5d$$GT$3len17h4fbad6765ae2aaeaE
	movq	%rax, -40(%rbp)
	movq	-40(%rbp), %rax
	addq	$48, %rsp
	popq	%rbp
	retq
	.cfi_endproc

	.p2align	4, 0x90
__ZN4core3str21_$LT$impl$u20$str$GT$5chars17hf1182202f1cec41fE:
	.cfi_startproc
	pushq	%rbp
	.cfi_def_cfa_offset 16
	.cfi_offset %rbp, -16
	movq	%rsp, %rbp
	.cfi_def_cfa_register %rbp
	subq	$64, %rsp
	movq	%rdi, -16(%rbp)
	movq	%rsi, -8(%rbp)
	movq	-16(%rbp), %rdi
	movq	-8(%rbp), %rsi
	movq	%rdi, -40(%rbp)
	movq	%rsi, -48(%rbp)
	movq	-40(%rbp), %rdi
	movq	-48(%rbp), %rsi
	callq	__ZN4core5slice29_$LT$impl$u20$$u5b$T$u5d$$GT$4iter17h266bb11ca9d4a1f3E
	movq	%rax, -56(%rbp)
	movq	%rdx, -64(%rbp)
	movq	-56(%rbp), %rax
	movq	%rax, -32(%rbp)
	movq	-64(%rbp), %rcx
	movq	%rcx, -24(%rbp)
	movq	-32(%rbp), %rax
	movq	-24(%rbp), %rdx
	addq	$64, %rsp
	popq	%rbp
	retq
	.cfi_endproc

	.p2align	4, 0x90
__ZN4core3str21_$LT$impl$u20$str$GT$8contains17h8b4b31cd98f65551E:
	.cfi_startproc
	pushq	%rbp
	.cfi_def_cfa_offset 16
	.cfi_offset %rbp, -16
	movq	%rsp, %rbp
	.cfi_def_cfa_register %rbp
	subq	$32, %rsp
	movq	%rdi, -8(%rbp)
	movq	%rdx, %rdi
	movq	%rsi, -16(%rbp)
	movq	%rcx, %rsi
	movq	-8(%rbp), %rdx
	movq	-16(%rbp), %rcx
	callq	__ZN4core3str7pattern7Pattern15is_contained_in17hb314c204b6c6cf17E
	movb	%al, -17(%rbp)
	movb	-17(%rbp), %al
	andb	$1, %al
	movzbl	%al, %eax
	addq	$32, %rsp
	popq	%rbp
	retq
	.cfi_endproc

	.p2align	4, 0x90
__ZN4core3str6traits105_$LT$impl$u20$core..slice..SliceIndex$LT$str$GT$$u20$for$u20$core..ops..range..RangeFrom$LT$usize$GT$$GT$13get_unchecked17hf0272c379ad550adE:
	.cfi_startproc
	pushq	%rbp
	.cfi_def_cfa_offset 16
	.cfi_offset %rbp, -16
	movq	%rsp, %rbp
	.cfi_def_cfa_register %rbp
	subq	$64, %rsp
	movq	%rdi, -8(%rbp)
	movq	%rsi, %rdi
	movq	%rsi, -16(%rbp)
	movq	%rdx, %rsi
	movq	%rdx, -24(%rbp)
	callq	__ZN4core3ptr9const_ptr43_$LT$impl$u20$$BP$const$u20$$u5b$T$u5d$$GT$6as_ptr17ha0f1bd6cff659feaE
	movq	%rax, -32(%rbp)
	movq	-32(%rbp), %rdi
	movq	-8(%rbp), %rsi
	callq	__ZN4core3ptr9const_ptr33_$LT$impl$u20$$BP$const$u20$T$GT$3add17h59dbf0c2900e6be3E
	movq	%rax, -40(%rbp)
	movq	-16(%rbp), %rdi
	movq	-24(%rbp), %rsi
	callq	__ZN4core3ptr9const_ptr43_$LT$impl$u20$$BP$const$u20$$u5b$T$u5d$$GT$3len17h4a662363e15ed988E
	movq	%rax, -48(%rbp)
	movq	-48(%rbp), %rax
	movq	-8(%rbp), %rcx
	subq	%rcx, %rax
	movq	-40(%rbp), %rdi
	movq	%rax, %rsi
	callq	__ZN4core3ptr20slice_from_raw_parts17h9532a5de6a6adf79E
	movq	%rax, -56(%rbp)
	movq	%rdx, -64(%rbp)
	movq	-56(%rbp), %rax
	movq	-64(%rbp), %rdx
	addq	$64, %rsp
	popq	%rbp
	retq
	.cfi_endproc

	.p2align	4, 0x90
__ZN4core3str6traits105_$LT$impl$u20$core..slice..SliceIndex$LT$str$GT$$u20$for$u20$core..ops..range..RangeFrom$LT$usize$GT$$GT$3get17h28e1c868916bc13fE:
	.cfi_startproc
	pushq	%rbp
	.cfi_def_cfa_offset 16
	.cfi_offset %rbp, -16
	movq	%rsp, %rbp
	.cfi_def_cfa_register %rbp
	subq	$64, %rsp
	movq	%rdi, -24(%rbp)
	movq	%rsi, %rdi
	movq	%rsi, -32(%rbp)
	movq	%rdx, %rsi
	movq	-24(%rbp), %rax
	movq	%rdx, -40(%rbp)
	movq	%rax, %rdx
	callq	__ZN4core3str21_$LT$impl$u20$str$GT$16is_char_boundary17hedb2b73e98f56da1E
	movb	%al, -41(%rbp)
	movb	-41(%rbp), %al
	testb	$1, %al
	jne	LBB67_3
	jmp	LBB67_2
LBB67_2:
	movq	$0, -16(%rbp)
	jmp	LBB67_5
LBB67_3:
	movq	-24(%rbp), %rdi
	movq	-32(%rbp), %rsi
	movq	-40(%rbp), %rdx
	callq	__ZN4core3str6traits105_$LT$impl$u20$core..slice..SliceIndex$LT$str$GT$$u20$for$u20$core..ops..range..RangeFrom$LT$usize$GT$$GT$13get_unchecked17hf0272c379ad550adE
	movq	%rax, -56(%rbp)
	movq	%rdx, -64(%rbp)
	movq	-56(%rbp), %rax
	movq	%rax, -16(%rbp)
	movq	-64(%rbp), %rcx
	movq	%rcx, -8(%rbp)
LBB67_5:
	movq	-16(%rbp), %rax
	movq	-8(%rbp), %rdx
	addq	$64, %rsp
	popq	%rbp
	retq
	.cfi_endproc

	.p2align	4, 0x90
__ZN4core3str6traits105_$LT$impl$u20$core..slice..SliceIndex$LT$str$GT$$u20$for$u20$core..ops..range..RangeFrom$LT$usize$GT$$GT$5index17h4f9252d653ba09a7E:
	.cfi_startproc
	pushq	%rbp
	.cfi_def_cfa_offset 16
	.cfi_offset %rbp, -16
	movq	%rsp, %rbp
	.cfi_def_cfa_register %rbp
	subq	$128, %rsp
	movq	%rsi, -72(%rbp)
	movq	%rdx, -64(%rbp)
	movq	-72(%rbp), %rax
	movq	-64(%rbp), %rsi
	movq	%rdi, -80(%rbp)
	movq	%rax, %rdi
	movq	%rcx, -88(%rbp)
	callq	__ZN4core3str21_$LT$impl$u20$str$GT$3len17hefc7d91a6f94b137E
	movq	%rax, -96(%rbp)
	movq	-80(%rbp), %rax
	movq	%rax, -40(%rbp)
	movq	-96(%rbp), %rcx
	movq	%rcx, -32(%rbp)
	movq	-40(%rbp), %rdx
	movq	%rdx, -56(%rbp)
	movq	-32(%rbp), %rdx
	movq	%rdx, -48(%rbp)
	movq	-72(%rbp), %rsi
	movq	-64(%rbp), %rdx
	movq	%rax, %rdi
	callq	__ZN4core3str6traits105_$LT$impl$u20$core..slice..SliceIndex$LT$str$GT$$u20$for$u20$core..ops..range..RangeFrom$LT$usize$GT$$GT$3get17h28e1c868916bc13fE
	movq	%rax, -104(%rbp)
	movq	%rdx, -112(%rbp)
	leaq	-72(%rbp), %rax
	movq	%rax, -24(%rbp)
	leaq	-56(%rbp), %rax
	movq	%rax, -16(%rbp)
	leaq	-48(%rbp), %rax
	movq	%rax, -8(%rbp)
	movq	-104(%rbp), %rdi
	movq	-112(%rbp), %rsi
	leaq	-24(%rbp), %rdx
	callq	__ZN4core6option15Option$LT$T$GT$14unwrap_or_else17hc0fe18389c169da0E
	movq	%rax, -120(%rbp)
	movq	%rdx, -128(%rbp)
	movq	-120(%rbp), %rax
	movq	-128(%rbp), %rdx
	addq	$128, %rsp
	popq	%rbp
	retq
	.cfi_endproc

	.p2align	4, 0x90
__ZN4core3str6traits105_$LT$impl$u20$core..slice..SliceIndex$LT$str$GT$$u20$for$u20$core..ops..range..RangeFrom$LT$usize$GT$$GT$5index28_$u7b$$u7b$closure$u7d$$u7d$17h1a9efd1a23738e9bE:
	.cfi_startproc
	pushq	%rbp
	.cfi_def_cfa_offset 16
	.cfi_offset %rbp, -16
	movq	%rsp, %rbp
	.cfi_def_cfa_register %rbp
	movq	(%rdi), %rax
	movq	8(%rdi), %rcx
	movq	(%rax), %rdx
	movq	8(%rax), %rsi
	movq	(%rcx), %rax
	movq	16(%rdi), %rcx
	movq	(%rcx), %rcx
	leaq	l___unnamed_2(%rip), %r8
	movq	%rdx, %rdi
	movq	%rax, %rdx
	callq	__ZN4core3str16slice_error_fail17ha125059561e5ce66E
	.cfi_endproc

	.p2align	4, 0x90
__ZN4core3str6traits66_$LT$impl$u20$core..ops..index..Index$LT$I$GT$$u20$for$u20$str$GT$5index17h06e41757244a06beE:
	.cfi_startproc
	pushq	%rbp
	.cfi_def_cfa_offset 16
	.cfi_offset %rbp, -16
	movq	%rsp, %rbp
	.cfi_def_cfa_register %rbp
	subq	$32, %rsp
	movq	%rdi, -8(%rbp)
	movq	%rdx, %rdi
	movq	-8(%rbp), %rax
	movq	%rsi, -16(%rbp)
	movq	%rax, %rsi
	movq	-16(%rbp), %rdx
	callq	__ZN4core3str6traits105_$LT$impl$u20$core..slice..SliceIndex$LT$str$GT$$u20$for$u20$core..ops..range..RangeFrom$LT$usize$GT$$GT$5index17h4f9252d653ba09a7E
	movq	%rax, -24(%rbp)
	movq	%rdx, -32(%rbp)
	movq	-24(%rbp), %rax
	movq	-32(%rbp), %rdx
	addq	$32, %rsp
	popq	%rbp
	retq
	.cfi_endproc

	.p2align	4, 0x90
__ZN4core3str7pattern14TwoWaySearcher16byteset_contains17h74f5cd3199f252d3E:
	.cfi_startproc
	pushq	%rbp
	.cfi_def_cfa_offset 16
	.cfi_offset %rbp, -16
	movq	%rsp, %rbp
	.cfi_def_cfa_register %rbp
	movq	24(%rdi), %rax
	andb	$63, %sil
	movzbl	%sil, %ecx
	movl	%ecx, %edx
	andq	$63, %rdx
	movq	%rdx, %rcx
	shrq	%cl, %rax
	andq	$1, %rax
	cmpq	$0, %rax
	setne	%cl
	andb	$1, %cl
	movzbl	%cl, %eax
	popq	%rbp
	retq
	.cfi_endproc

	.p2align	4, 0x90
__ZN4core3str7pattern14TwoWaySearcher4next17hac32a1ede21146beE:
	.cfi_startproc
	pushq	%rbp
	.cfi_def_cfa_offset 16
	.cfi_offset %rbp, -16
	movq	%rsp, %rbp
	.cfi_def_cfa_register %rbp
	subq	$384, %rsp
	movq	%rdi, %rax
	movb	16(%rbp), %r10b
	movq	32(%rsi), %r11
	movq	%rdi, -136(%rbp)
	movq	%r8, %rdi
	movq	%rsi, -144(%rbp)
	movq	%r9, %rsi
	movq	%r9, -152(%rbp)
	movq	%r8, -160(%rbp)
	movq	%rcx, -168(%rbp)
	movq	%rdx, -176(%rbp)
	movq	%rax, -184(%rbp)
	movb	%r10b, -185(%rbp)
	movq	%r11, -200(%rbp)
	callq	__ZN4core5slice29_$LT$impl$u20$$u5b$T$u5d$$GT$3len17h4fbad6765ae2aaeaE
	movq	%rax, -208(%rbp)
	movq	-208(%rbp), %rax
	subq	$1, %rax
	movq	%rax, -216(%rbp)
LBB72_2:
	movq	-216(%rbp), %rax
	movq	-144(%rbp), %rcx
	addq	32(%rcx), %rax
	movq	-176(%rbp), %rdi
	movq	-168(%rbp), %rsi
	movq	%rax, %rdx
	callq	__ZN4core5slice29_$LT$impl$u20$$u5b$T$u5d$$GT$3get17hac4ca4561eb8fc90E
	movq	%rax, -128(%rbp)
	movq	-128(%rbp), %rax
	testq	%rax, %rax
	setne	%cl
	movzbl	%cl, %edx
	movl	%edx, %eax
	je	LBB72_4
	jmp	LBB72_73
LBB72_73:
	jmp	LBB72_6
LBB72_4:
	movq	-176(%rbp), %rdi
	movq	-168(%rbp), %rsi
	callq	__ZN4core5slice29_$LT$impl$u20$$u5b$T$u5d$$GT$3len17h4fbad6765ae2aaeaE
	movq	%rax, -224(%rbp)
	jmp	LBB72_7
	ud2
LBB72_6:
	movq	-128(%rbp), %rax
	movb	(%rax), %cl
	movb	%cl, -225(%rbp)
	callq	__ZN89_$LT$core..str..pattern..RejectAndMatch$u20$as$u20$core..str..pattern..TwoWayStrategy$GT$16use_early_reject17hdd1c783c2350fb54E
	movb	%al, -226(%rbp)
	jmp	LBB72_14
LBB72_7:
	movq	-144(%rbp), %rax
	movq	-224(%rbp), %rcx
	movq	%rcx, 32(%rax)
	movq	32(%rax), %rdx
	movq	-136(%rbp), %rdi
	movq	-200(%rbp), %rsi
	callq	__ZN89_$LT$core..str..pattern..RejectAndMatch$u20$as$u20$core..str..pattern..TwoWayStrategy$GT$9rejecting17h53a4434d4d06a02dE
	jmp	LBB72_9
LBB72_9:
	movq	-184(%rbp), %rax
	addq	$384, %rsp
	popq	%rbp
	retq
LBB72_10:
	movb	$1, -113(%rbp)
	jmp	LBB72_13
LBB72_11:
	movb	$0, -113(%rbp)
	jmp	LBB72_13
LBB72_12:
	movq	-200(%rbp), %rax
	movq	-144(%rbp), %rcx
	cmpq	32(%rcx), %rax
	jne	LBB72_10
	jmp	LBB72_11
LBB72_13:
	testb	$1, -113(%rbp)
	jne	LBB72_16
	jmp	LBB72_15
LBB72_14:
	movb	-226(%rbp), %al
	testb	$1, %al
	jne	LBB72_12
	jmp	LBB72_11
LBB72_15:
	movq	-144(%rbp), %rdi
	movb	-225(%rbp), %al
	movzbl	%al, %esi
	callq	__ZN4core3str7pattern14TwoWaySearcher16byteset_contains17h74f5cd3199f252d3E
	movb	%al, -227(%rbp)
	jmp	LBB72_18
LBB72_16:
	movq	-144(%rbp), %rax
	movq	32(%rax), %rdx
	movq	-136(%rbp), %rdi
	movq	-200(%rbp), %rsi
	callq	__ZN89_$LT$core..str..pattern..RejectAndMatch$u20$as$u20$core..str..pattern..TwoWayStrategy$GT$9rejecting17h53a4434d4d06a02dE
	jmp	LBB72_9
LBB72_18:
	movb	-227(%rbp), %al
	xorb	$-1, %al
	testb	$1, %al
	jne	LBB72_20
	movb	-185(%rbp), %al
	testb	$1, %al
	jne	LBB72_27
	jmp	LBB72_26
LBB72_20:
	movq	-160(%rbp), %rdi
	movq	-152(%rbp), %rsi
	callq	__ZN4core5slice29_$LT$impl$u20$$u5b$T$u5d$$GT$3len17h4fbad6765ae2aaeaE
	movq	%rax, -240(%rbp)
	movq	-240(%rbp), %rax
	movq	-144(%rbp), %rcx
	addq	32(%rcx), %rax
	movq	%rax, 32(%rcx)
	movb	-185(%rbp), %dl
	xorb	$-1, %dl
	testb	$1, %dl
	jne	LBB72_23
	jmp	LBB72_24
LBB72_23:
	movq	-144(%rbp), %rax
	movq	$0, 48(%rax)
LBB72_24:
	jmp	LBB72_25
LBB72_25:
	jmp	LBB72_2
LBB72_26:
	movq	-144(%rbp), %rax
	movq	(%rax), %rdi
	movq	48(%rax), %rsi
	callq	__ZN4core3cmp3max17h77507b93da4edbfeE
	movq	%rax, -112(%rbp)
	jmp	LBB72_28
LBB72_27:
	movq	-144(%rbp), %rax
	movq	(%rax), %rcx
	movq	%rcx, -112(%rbp)
	jmp	LBB72_29
LBB72_28:
	jmp	LBB72_29
LBB72_29:
	movq	-112(%rbp), %rax
	movq	-160(%rbp), %rdi
	movq	-152(%rbp), %rsi
	movq	%rax, -248(%rbp)
	callq	__ZN4core5slice29_$LT$impl$u20$$u5b$T$u5d$$GT$3len17h4fbad6765ae2aaeaE
	movq	%rax, -256(%rbp)
	movq	-248(%rbp), %rax
	movq	%rax, -104(%rbp)
	movq	-256(%rbp), %rcx
	movq	%rcx, -96(%rbp)
	movq	-104(%rbp), %rdi
	movq	-96(%rbp), %rsi
	callq	__ZN63_$LT$I$u20$as$u20$core..iter..traits..collect..IntoIterator$GT$9into_iter17hca750b40b7c16e5eE
	movq	%rax, -264(%rbp)
	movq	%rdx, -272(%rbp)
	movq	-264(%rbp), %rax
	movq	%rax, -88(%rbp)
	movq	-272(%rbp), %rcx
	movq	%rcx, -80(%rbp)
LBB72_32:
	leaq	-88(%rbp), %rdi
	callq	__ZN4core4iter5range101_$LT$impl$u20$core..iter..traits..iterator..Iterator$u20$for$u20$core..ops..range..Range$LT$A$GT$$GT$4next17hd9e14966f46854adE
	movq	%rdx, -64(%rbp)
	movq	%rax, -72(%rbp)
	movq	-72(%rbp), %rax
	testq	%rax, %rax
	je	LBB72_34
	jmp	LBB72_74
LBB72_74:
	jmp	LBB72_36
LBB72_34:
	movb	-185(%rbp), %al
	testb	$1, %al
	jne	LBB72_46
	jmp	LBB72_45
	ud2
LBB72_36:
	movq	-64(%rbp), %rax
	movq	-152(%rbp), %rcx
	cmpq	%rcx, %rax
	setb	%dl
	testb	$1, %dl
	movq	%rax, -280(%rbp)
	jne	LBB72_37
	jmp	LBB72_69
LBB72_37:
	movq	-160(%rbp), %rax
	movq	-280(%rbp), %rcx
	movb	(%rax,%rcx), %dl
	movq	-144(%rbp), %rsi
	addq	32(%rsi), %rcx
	movq	-168(%rbp), %rdi
	cmpq	%rdi, %rcx
	setb	%r8b
	testb	$1, %r8b
	movb	%dl, -281(%rbp)
	movq	%rcx, -296(%rbp)
	jne	LBB72_38
	jmp	LBB72_70
LBB72_38:
	movb	-281(%rbp), %al
	movq	-176(%rbp), %rcx
	movq	-296(%rbp), %rdx
	cmpb	(%rcx,%rdx), %al
	jne	LBB72_40
	jmp	LBB72_32
LBB72_40:
	movq	-280(%rbp), %rax
	movq	-144(%rbp), %rcx
	subq	(%rcx), %rax
	addq	$1, %rax
	addq	32(%rcx), %rax
	movq	%rax, 32(%rcx)
	movb	-185(%rbp), %dl
	xorb	$-1, %dl
	testb	$1, %dl
	jne	LBB72_42
	jmp	LBB72_43
LBB72_42:
	movq	-144(%rbp), %rax
	movq	$0, 48(%rax)
LBB72_43:
	jmp	LBB72_44
LBB72_44:
	jmp	LBB72_25
LBB72_45:
	movq	-144(%rbp), %rax
	movq	48(%rax), %rcx
	movq	%rcx, -56(%rbp)
	jmp	LBB72_47
LBB72_46:
	movq	$0, -56(%rbp)
LBB72_47:
	movq	-56(%rbp), %rax
	movq	-144(%rbp), %rcx
	movq	(%rcx), %rdx
	movq	%rax, -48(%rbp)
	movq	%rdx, -40(%rbp)
	movq	-48(%rbp), %rdi
	movq	-40(%rbp), %rsi
	callq	__ZN4core4iter6traits8iterator8Iterator3rev17h66cc0de4407b71a5E
	movq	%rax, -304(%rbp)
	movq	%rdx, -312(%rbp)
	movq	-304(%rbp), %rdi
	movq	-312(%rbp), %rsi
	callq	__ZN63_$LT$I$u20$as$u20$core..iter..traits..collect..IntoIterator$GT$9into_iter17h26f9666fc6649007E
	movq	%rax, -320(%rbp)
	movq	%rdx, -328(%rbp)
	movq	-320(%rbp), %rax
	movq	%rax, -32(%rbp)
	movq	-328(%rbp), %rcx
	movq	%rcx, -24(%rbp)
LBB72_50:
	leaq	-32(%rbp), %rdi
	callq	__ZN93_$LT$core..iter..adapters..Rev$LT$I$GT$$u20$as$u20$core..iter..traits..iterator..Iterator$GT$4next17h62a5c17be0f21adcE
	movq	%rdx, -8(%rbp)
	movq	%rax, -16(%rbp)
	movq	-16(%rbp), %rax
	testq	%rax, %rax
	je	LBB72_52
	jmp	LBB72_75
LBB72_75:
	jmp	LBB72_54
LBB72_52:
	movq	-144(%rbp), %rax
	movq	32(%rax), %rcx
	movq	-160(%rbp), %rdi
	movq	-152(%rbp), %rsi
	movq	%rcx, -336(%rbp)
	callq	__ZN4core5slice29_$LT$impl$u20$$u5b$T$u5d$$GT$3len17h4fbad6765ae2aaeaE
	movq	%rax, -344(%rbp)
	jmp	LBB72_63
	ud2
LBB72_54:
	movq	-8(%rbp), %rax
	movq	-152(%rbp), %rcx
	cmpq	%rcx, %rax
	setb	%dl
	testb	$1, %dl
	movq	%rax, -352(%rbp)
	jne	LBB72_55
	jmp	LBB72_71
LBB72_55:
	movq	-160(%rbp), %rax
	movq	-352(%rbp), %rcx
	movb	(%rax,%rcx), %dl
	movq	-144(%rbp), %rsi
	addq	32(%rsi), %rcx
	movq	-168(%rbp), %rdi
	cmpq	%rdi, %rcx
	setb	%r8b
	testb	$1, %r8b
	movb	%dl, -353(%rbp)
	movq	%rcx, -368(%rbp)
	jne	LBB72_56
	jmp	LBB72_72
LBB72_56:
	movb	-353(%rbp), %al
	movq	-176(%rbp), %rcx
	movq	-368(%rbp), %rdx
	cmpb	(%rcx,%rdx), %al
	jne	LBB72_58
	jmp	LBB72_50
LBB72_58:
	movq	-144(%rbp), %rax
	movq	16(%rax), %rcx
	addq	32(%rax), %rcx
	movq	%rcx, 32(%rax)
	movb	-185(%rbp), %dl
	xorb	$-1, %dl
	testb	$1, %dl
	jne	LBB72_60
	jmp	LBB72_62
LBB72_60:
	movq	-160(%rbp), %rdi
	movq	-152(%rbp), %rsi
	callq	__ZN4core5slice29_$LT$impl$u20$$u5b$T$u5d$$GT$3len17h4fbad6765ae2aaeaE
	movq	%rax, -376(%rbp)
	movq	-376(%rbp), %rax
	movq	-144(%rbp), %rcx
	subq	16(%rcx), %rax
	movq	%rax, 48(%rcx)
LBB72_62:
	jmp	LBB72_44
LBB72_63:
	movq	-344(%rbp), %rax
	movq	-144(%rbp), %rcx
	addq	32(%rcx), %rax
	movq	%rax, 32(%rcx)
	movb	-185(%rbp), %dl
	xorb	$-1, %dl
	testb	$1, %dl
	jne	LBB72_65
	jmp	LBB72_66
LBB72_65:
	movq	-144(%rbp), %rax
	movq	$0, 48(%rax)
LBB72_66:
	movq	-160(%rbp), %rdi
	movq	-152(%rbp), %rsi
	callq	__ZN4core5slice29_$LT$impl$u20$$u5b$T$u5d$$GT$3len17h4fbad6765ae2aaeaE
	movq	%rax, -384(%rbp)
	movq	-336(%rbp), %rax
	movq	-384(%rbp), %rcx
	addq	%rcx, %rax
	movq	-136(%rbp), %rdi
	movq	-336(%rbp), %rsi
	movq	%rax, %rdx
	callq	__ZN89_$LT$core..str..pattern..RejectAndMatch$u20$as$u20$core..str..pattern..TwoWayStrategy$GT$8matching17he0f845bec9fc2dabE
	jmp	LBB72_9
LBB72_69:
	leaq	l___unnamed_3(%rip), %rdx
	movq	-280(%rbp), %rdi
	movq	-152(%rbp), %rsi
	callq	__ZN4core9panicking18panic_bounds_check17he87128426d100e93E
LBB72_70:
	leaq	l___unnamed_4(%rip), %rdx
	movq	-296(%rbp), %rdi
	movq	-168(%rbp), %rsi
	callq	__ZN4core9panicking18panic_bounds_check17he87128426d100e93E
LBB72_71:
	leaq	l___unnamed_5(%rip), %rdx
	movq	-352(%rbp), %rdi
	movq	-152(%rbp), %rsi
	callq	__ZN4core9panicking18panic_bounds_check17he87128426d100e93E
LBB72_72:
	leaq	l___unnamed_6(%rip), %rdx
	movq	-368(%rbp), %rdi
	movq	-168(%rbp), %rsi
	callq	__ZN4core9panicking18panic_bounds_check17he87128426d100e93E
	.cfi_endproc

	.p2align	4, 0x90
__ZN4core3str7pattern14TwoWaySearcher4next17hbfc34e63c9120467E:
	.cfi_startproc
	pushq	%rbp
	.cfi_def_cfa_offset 16
	.cfi_offset %rbp, -16
	movq	%rsp, %rbp
	.cfi_def_cfa_register %rbp
	subq	$384, %rsp
	movq	%rdi, %rax
	movb	16(%rbp), %r10b
	movq	32(%rsi), %r11
	movq	%rdi, -136(%rbp)
	movq	%r8, %rdi
	movq	%rsi, -144(%rbp)
	movq	%r9, %rsi
	movq	%r9, -152(%rbp)
	movq	%r8, -160(%rbp)
	movq	%rcx, -168(%rbp)
	movq	%rdx, -176(%rbp)
	movq	%rax, -184(%rbp)
	movb	%r10b, -185(%rbp)
	movq	%r11, -200(%rbp)
	callq	__ZN4core5slice29_$LT$impl$u20$$u5b$T$u5d$$GT$3len17h4fbad6765ae2aaeaE
	movq	%rax, -208(%rbp)
	movq	-208(%rbp), %rax
	subq	$1, %rax
	movq	%rax, -216(%rbp)
LBB73_2:
	movq	-216(%rbp), %rax
	movq	-144(%rbp), %rcx
	addq	32(%rcx), %rax
	movq	-176(%rbp), %rdi
	movq	-168(%rbp), %rsi
	movq	%rax, %rdx
	callq	__ZN4core5slice29_$LT$impl$u20$$u5b$T$u5d$$GT$3get17hac4ca4561eb8fc90E
	movq	%rax, -128(%rbp)
	movq	-128(%rbp), %rax
	testq	%rax, %rax
	setne	%cl
	movzbl	%cl, %edx
	movl	%edx, %eax
	je	LBB73_4
	jmp	LBB73_73
LBB73_73:
	jmp	LBB73_6
LBB73_4:
	movq	-176(%rbp), %rdi
	movq	-168(%rbp), %rsi
	callq	__ZN4core5slice29_$LT$impl$u20$$u5b$T$u5d$$GT$3len17h4fbad6765ae2aaeaE
	movq	%rax, -224(%rbp)
	jmp	LBB73_7
	ud2
LBB73_6:
	movq	-128(%rbp), %rax
	movb	(%rax), %cl
	movb	%cl, -225(%rbp)
	callq	__ZN84_$LT$core..str..pattern..MatchOnly$u20$as$u20$core..str..pattern..TwoWayStrategy$GT$16use_early_reject17h2101e4bf1d7e70aeE
	movb	%al, -226(%rbp)
	jmp	LBB73_14
LBB73_7:
	movq	-144(%rbp), %rax
	movq	-224(%rbp), %rcx
	movq	%rcx, 32(%rax)
	movq	32(%rax), %rdx
	movq	-136(%rbp), %rdi
	movq	-200(%rbp), %rsi
	callq	__ZN84_$LT$core..str..pattern..MatchOnly$u20$as$u20$core..str..pattern..TwoWayStrategy$GT$9rejecting17h42e0c5143f9486daE
	jmp	LBB73_9
LBB73_9:
	movq	-184(%rbp), %rax
	addq	$384, %rsp
	popq	%rbp
	retq
LBB73_10:
	movb	$1, -113(%rbp)
	jmp	LBB73_13
LBB73_11:
	movb	$0, -113(%rbp)
	jmp	LBB73_13
LBB73_12:
	movq	-200(%rbp), %rax
	movq	-144(%rbp), %rcx
	cmpq	32(%rcx), %rax
	jne	LBB73_10
	jmp	LBB73_11
LBB73_13:
	testb	$1, -113(%rbp)
	jne	LBB73_16
	jmp	LBB73_15
LBB73_14:
	movb	-226(%rbp), %al
	testb	$1, %al
	jne	LBB73_12
	jmp	LBB73_11
LBB73_15:
	movq	-144(%rbp), %rdi
	movb	-225(%rbp), %al
	movzbl	%al, %esi
	callq	__ZN4core3str7pattern14TwoWaySearcher16byteset_contains17h74f5cd3199f252d3E
	movb	%al, -227(%rbp)
	jmp	LBB73_18
LBB73_16:
	movq	-144(%rbp), %rax
	movq	32(%rax), %rdx
	movq	-136(%rbp), %rdi
	movq	-200(%rbp), %rsi
	callq	__ZN84_$LT$core..str..pattern..MatchOnly$u20$as$u20$core..str..pattern..TwoWayStrategy$GT$9rejecting17h42e0c5143f9486daE
	jmp	LBB73_9
LBB73_18:
	movb	-227(%rbp), %al
	xorb	$-1, %al
	testb	$1, %al
	jne	LBB73_20
	movb	-185(%rbp), %al
	testb	$1, %al
	jne	LBB73_27
	jmp	LBB73_26
LBB73_20:
	movq	-160(%rbp), %rdi
	movq	-152(%rbp), %rsi
	callq	__ZN4core5slice29_$LT$impl$u20$$u5b$T$u5d$$GT$3len17h4fbad6765ae2aaeaE
	movq	%rax, -240(%rbp)
	movq	-240(%rbp), %rax
	movq	-144(%rbp), %rcx
	addq	32(%rcx), %rax
	movq	%rax, 32(%rcx)
	movb	-185(%rbp), %dl
	xorb	$-1, %dl
	testb	$1, %dl
	jne	LBB73_23
	jmp	LBB73_24
LBB73_23:
	movq	-144(%rbp), %rax
	movq	$0, 48(%rax)
LBB73_24:
	jmp	LBB73_25
LBB73_25:
	jmp	LBB73_2
LBB73_26:
	movq	-144(%rbp), %rax
	movq	(%rax), %rdi
	movq	48(%rax), %rsi
	callq	__ZN4core3cmp3max17h77507b93da4edbfeE
	movq	%rax, -112(%rbp)
	jmp	LBB73_28
LBB73_27:
	movq	-144(%rbp), %rax
	movq	(%rax), %rcx
	movq	%rcx, -112(%rbp)
	jmp	LBB73_29
LBB73_28:
	jmp	LBB73_29
LBB73_29:
	movq	-112(%rbp), %rax
	movq	-160(%rbp), %rdi
	movq	-152(%rbp), %rsi
	movq	%rax, -248(%rbp)
	callq	__ZN4core5slice29_$LT$impl$u20$$u5b$T$u5d$$GT$3len17h4fbad6765ae2aaeaE
	movq	%rax, -256(%rbp)
	movq	-248(%rbp), %rax
	movq	%rax, -104(%rbp)
	movq	-256(%rbp), %rcx
	movq	%rcx, -96(%rbp)
	movq	-104(%rbp), %rdi
	movq	-96(%rbp), %rsi
	callq	__ZN63_$LT$I$u20$as$u20$core..iter..traits..collect..IntoIterator$GT$9into_iter17hca750b40b7c16e5eE
	movq	%rax, -264(%rbp)
	movq	%rdx, -272(%rbp)
	movq	-264(%rbp), %rax
	movq	%rax, -88(%rbp)
	movq	-272(%rbp), %rcx
	movq	%rcx, -80(%rbp)
LBB73_32:
	leaq	-88(%rbp), %rdi
	callq	__ZN4core4iter5range101_$LT$impl$u20$core..iter..traits..iterator..Iterator$u20$for$u20$core..ops..range..Range$LT$A$GT$$GT$4next17hd9e14966f46854adE
	movq	%rdx, -64(%rbp)
	movq	%rax, -72(%rbp)
	movq	-72(%rbp), %rax
	testq	%rax, %rax
	je	LBB73_34
	jmp	LBB73_74
LBB73_74:
	jmp	LBB73_36
LBB73_34:
	movb	-185(%rbp), %al
	testb	$1, %al
	jne	LBB73_46
	jmp	LBB73_45
	ud2
LBB73_36:
	movq	-64(%rbp), %rax
	movq	-152(%rbp), %rcx
	cmpq	%rcx, %rax
	setb	%dl
	testb	$1, %dl
	movq	%rax, -280(%rbp)
	jne	LBB73_37
	jmp	LBB73_69
LBB73_37:
	movq	-160(%rbp), %rax
	movq	-280(%rbp), %rcx
	movb	(%rax,%rcx), %dl
	movq	-144(%rbp), %rsi
	addq	32(%rsi), %rcx
	movq	-168(%rbp), %rdi
	cmpq	%rdi, %rcx
	setb	%r8b
	testb	$1, %r8b
	movb	%dl, -281(%rbp)
	movq	%rcx, -296(%rbp)
	jne	LBB73_38
	jmp	LBB73_70
LBB73_38:
	movb	-281(%rbp), %al
	movq	-176(%rbp), %rcx
	movq	-296(%rbp), %rdx
	cmpb	(%rcx,%rdx), %al
	jne	LBB73_40
	jmp	LBB73_32
LBB73_40:
	movq	-280(%rbp), %rax
	movq	-144(%rbp), %rcx
	subq	(%rcx), %rax
	addq	$1, %rax
	addq	32(%rcx), %rax
	movq	%rax, 32(%rcx)
	movb	-185(%rbp), %dl
	xorb	$-1, %dl
	testb	$1, %dl
	jne	LBB73_42
	jmp	LBB73_43
LBB73_42:
	movq	-144(%rbp), %rax
	movq	$0, 48(%rax)
LBB73_43:
	jmp	LBB73_44
LBB73_44:
	jmp	LBB73_25
LBB73_45:
	movq	-144(%rbp), %rax
	movq	48(%rax), %rcx
	movq	%rcx, -56(%rbp)
	jmp	LBB73_47
LBB73_46:
	movq	$0, -56(%rbp)
LBB73_47:
	movq	-56(%rbp), %rax
	movq	-144(%rbp), %rcx
	movq	(%rcx), %rdx
	movq	%rax, -48(%rbp)
	movq	%rdx, -40(%rbp)
	movq	-48(%rbp), %rdi
	movq	-40(%rbp), %rsi
	callq	__ZN4core4iter6traits8iterator8Iterator3rev17h66cc0de4407b71a5E
	movq	%rax, -304(%rbp)
	movq	%rdx, -312(%rbp)
	movq	-304(%rbp), %rdi
	movq	-312(%rbp), %rsi
	callq	__ZN63_$LT$I$u20$as$u20$core..iter..traits..collect..IntoIterator$GT$9into_iter17h26f9666fc6649007E
	movq	%rax, -320(%rbp)
	movq	%rdx, -328(%rbp)
	movq	-320(%rbp), %rax
	movq	%rax, -32(%rbp)
	movq	-328(%rbp), %rcx
	movq	%rcx, -24(%rbp)
LBB73_50:
	leaq	-32(%rbp), %rdi
	callq	__ZN93_$LT$core..iter..adapters..Rev$LT$I$GT$$u20$as$u20$core..iter..traits..iterator..Iterator$GT$4next17h62a5c17be0f21adcE
	movq	%rdx, -8(%rbp)
	movq	%rax, -16(%rbp)
	movq	-16(%rbp), %rax
	testq	%rax, %rax
	je	LBB73_52
	jmp	LBB73_75
LBB73_75:
	jmp	LBB73_54
LBB73_52:
	movq	-144(%rbp), %rax
	movq	32(%rax), %rcx
	movq	-160(%rbp), %rdi
	movq	-152(%rbp), %rsi
	movq	%rcx, -336(%rbp)
	callq	__ZN4core5slice29_$LT$impl$u20$$u5b$T$u5d$$GT$3len17h4fbad6765ae2aaeaE
	movq	%rax, -344(%rbp)
	jmp	LBB73_63
	ud2
LBB73_54:
	movq	-8(%rbp), %rax
	movq	-152(%rbp), %rcx
	cmpq	%rcx, %rax
	setb	%dl
	testb	$1, %dl
	movq	%rax, -352(%rbp)
	jne	LBB73_55
	jmp	LBB73_71
LBB73_55:
	movq	-160(%rbp), %rax
	movq	-352(%rbp), %rcx
	movb	(%rax,%rcx), %dl
	movq	-144(%rbp), %rsi
	addq	32(%rsi), %rcx
	movq	-168(%rbp), %rdi
	cmpq	%rdi, %rcx
	setb	%r8b
	testb	$1, %r8b
	movb	%dl, -353(%rbp)
	movq	%rcx, -368(%rbp)
	jne	LBB73_56
	jmp	LBB73_72
LBB73_56:
	movb	-353(%rbp), %al
	movq	-176(%rbp), %rcx
	movq	-368(%rbp), %rdx
	cmpb	(%rcx,%rdx), %al
	jne	LBB73_58
	jmp	LBB73_50
LBB73_58:
	movq	-144(%rbp), %rax
	movq	16(%rax), %rcx
	addq	32(%rax), %rcx
	movq	%rcx, 32(%rax)
	movb	-185(%rbp), %dl
	xorb	$-1, %dl
	testb	$1, %dl
	jne	LBB73_60
	jmp	LBB73_62
LBB73_60:
	movq	-160(%rbp), %rdi
	movq	-152(%rbp), %rsi
	callq	__ZN4core5slice29_$LT$impl$u20$$u5b$T$u5d$$GT$3len17h4fbad6765ae2aaeaE
	movq	%rax, -376(%rbp)
	movq	-376(%rbp), %rax
	movq	-144(%rbp), %rcx
	subq	16(%rcx), %rax
	movq	%rax, 48(%rcx)
LBB73_62:
	jmp	LBB73_44
LBB73_63:
	movq	-344(%rbp), %rax
	movq	-144(%rbp), %rcx
	addq	32(%rcx), %rax
	movq	%rax, 32(%rcx)
	movb	-185(%rbp), %dl
	xorb	$-1, %dl
	testb	$1, %dl
	jne	LBB73_65
	jmp	LBB73_66
LBB73_65:
	movq	-144(%rbp), %rax
	movq	$0, 48(%rax)
LBB73_66:
	movq	-160(%rbp), %rdi
	movq	-152(%rbp), %rsi
	callq	__ZN4core5slice29_$LT$impl$u20$$u5b$T$u5d$$GT$3len17h4fbad6765ae2aaeaE
	movq	%rax, -384(%rbp)
	movq	-336(%rbp), %rax
	movq	-384(%rbp), %rcx
	addq	%rcx, %rax
	movq	-136(%rbp), %rdi
	movq	-336(%rbp), %rsi
	movq	%rax, %rdx
	callq	__ZN84_$LT$core..str..pattern..MatchOnly$u20$as$u20$core..str..pattern..TwoWayStrategy$GT$8matching17hf8054d6899350b26E
	jmp	LBB73_9
LBB73_69:
	leaq	l___unnamed_3(%rip), %rdx
	movq	-280(%rbp), %rdi
	movq	-152(%rbp), %rsi
	callq	__ZN4core9panicking18panic_bounds_check17he87128426d100e93E
LBB73_70:
	leaq	l___unnamed_4(%rip), %rdx
	movq	-296(%rbp), %rdi
	movq	-168(%rbp), %rsi
	callq	__ZN4core9panicking18panic_bounds_check17he87128426d100e93E
LBB73_71:
	leaq	l___unnamed_5(%rip), %rdx
	movq	-352(%rbp), %rdi
	movq	-152(%rbp), %rsi
	callq	__ZN4core9panicking18panic_bounds_check17he87128426d100e93E
LBB73_72:
	leaq	l___unnamed_6(%rip), %rdx
	movq	-368(%rbp), %rdi
	movq	-168(%rbp), %rsi
	callq	__ZN4core9panicking18panic_bounds_check17he87128426d100e93E
	.cfi_endproc

	.p2align	4, 0x90
__ZN4core3str7pattern7Pattern15is_contained_in17hb314c204b6c6cf17E:
Lfunc_begin6:
	.cfi_startproc
	.cfi_personality 155, _rust_eh_personality
	.cfi_lsda 16, Lexception6
	pushq	%rbp
	.cfi_def_cfa_offset 16
	.cfi_offset %rbp, -16
	movq	%rsp, %rbp
	.cfi_def_cfa_register %rbp
	subq	$192, %rsp
	leaq	-120(%rbp), %rax
	movq	%rdi, -152(%rbp)
	movq	%rax, %rdi
	movq	-152(%rbp), %rax
	movq	%rsi, -160(%rbp)
	movq	%rax, %rsi
	movq	-160(%rbp), %r8
	movq	%rdx, -168(%rbp)
	movq	%r8, %rdx
	movq	-168(%rbp), %r9
	movq	%rcx, -176(%rbp)
	movq	%r9, %rcx
	movq	-176(%rbp), %r8
	callq	__ZN55_$LT$$RF$str$u20$as$u20$core..str..pattern..Pattern$GT$13into_searcher17h9797418dfe5a914bE
	jmp	LBB74_2
LBB74_1:
	movq	-16(%rbp), %rdi
	callq	__Unwind_Resume
	ud2
LBB74_2:
Ltmp22:
	leaq	-144(%rbp), %rdi
	leaq	-120(%rbp), %rsi
	callq	__ZN80_$LT$core..str..pattern..StrSearcher$u20$as$u20$core..str..pattern..Searcher$GT$10next_match17hdbe17d2eb2811711E
Ltmp23:
	jmp	LBB74_4
LBB74_3:
	jmp	LBB74_1
LBB74_4:
Ltmp24:
	leaq	-144(%rbp), %rdi
	callq	__ZN4core6option15Option$LT$T$GT$7is_some17hbdc108cbc7e5066bE
Ltmp25:
	movb	%al, -177(%rbp)
	jmp	LBB74_5
LBB74_5:
	jmp	LBB74_6
LBB74_6:
	movb	-177(%rbp), %al
	andb	$1, %al
	movzbl	%al, %eax
	addq	$192, %rsp
	popq	%rbp
	retq
LBB74_7:
Ltmp26:
	movq	%rax, -16(%rbp)
	movl	%edx, -8(%rbp)
	jmp	LBB74_3
Lfunc_end6:
	.cfi_endproc
	.section	__TEXT,__gcc_except_tab
	.p2align	2
GCC_except_table74:
Lexception6:
	.byte	255
	.byte	255
	.byte	1
	.uleb128 Lcst_end6-Lcst_begin6
Lcst_begin6:
	.uleb128 Lfunc_begin6-Lfunc_begin6
	.uleb128 Ltmp22-Lfunc_begin6
	.byte	0
	.byte	0
	.uleb128 Ltmp22-Lfunc_begin6
	.uleb128 Ltmp25-Ltmp22
	.uleb128 Ltmp26-Lfunc_begin6
	.byte	0
Lcst_end6:
	.p2align	2

	.section	__TEXT,__text,regular,pure_instructions
	.p2align	4, 0x90
__ZN4core4char7convert18from_u32_unchecked17hdd6f8dbbf2ca32c0E:
	.cfi_startproc
	pushq	%rbp
	.cfi_def_cfa_offset 16
	.cfi_offset %rbp, -16
	movq	%rsp, %rbp
	.cfi_def_cfa_register %rbp
	pushq	%rax
	movl	%edi, -4(%rbp)
	movl	-4(%rbp), %eax
	movl	%eax, -8(%rbp)
	movl	-8(%rbp), %eax
	addq	$8, %rsp
	popq	%rbp
	retq
	.cfi_endproc

	.p2align	4, 0x90
__ZN4core4char7methods22_$LT$impl$u20$char$GT$8len_utf817h4db2777ed0c7cb46E:
	.cfi_startproc
	pushq	%rbp
	.cfi_def_cfa_offset 16
	.cfi_offset %rbp, -16
	movq	%rsp, %rbp
	.cfi_def_cfa_register %rbp
	subq	$16, %rsp
	callq	__ZN4core4char7methods8len_utf817h591d99d69a18ab62E
	movq	%rax, -8(%rbp)
	movq	-8(%rbp), %rax
	addq	$16, %rsp
	popq	%rbp
	retq
	.cfi_endproc

	.p2align	4, 0x90
__ZN4core4char7methods8len_utf817h591d99d69a18ab62E:
	.cfi_startproc
	pushq	%rbp
	.cfi_def_cfa_offset 16
	.cfi_offset %rbp, -16
	movq	%rsp, %rbp
	.cfi_def_cfa_register %rbp
	subq	$16, %rsp
	cmpl	$128, %edi
	movl	%edi, -12(%rbp)
	jb	LBB77_2
	movl	-12(%rbp), %eax
	cmpl	$2048, %eax
	jb	LBB77_4
	jmp	LBB77_3
LBB77_2:
	movq	$1, -8(%rbp)
	jmp	LBB77_9
LBB77_3:
	movl	-12(%rbp), %eax
	cmpl	$65536, %eax
	jb	LBB77_6
	jmp	LBB77_5
LBB77_4:
	movq	$2, -8(%rbp)
	jmp	LBB77_8
LBB77_5:
	movq	$4, -8(%rbp)
	jmp	LBB77_7
LBB77_6:
	movq	$3, -8(%rbp)
LBB77_7:
	jmp	LBB77_8
LBB77_8:
	jmp	LBB77_9
LBB77_9:
	movq	-8(%rbp), %rax
	addq	$16, %rsp
	popq	%rbp
	retq
	.cfi_endproc

	.p2align	4, 0x90
__ZN4core4iter5range101_$LT$impl$u20$core..iter..traits..iterator..Iterator$u20$for$u20$core..ops..range..Range$LT$A$GT$$GT$4next17hd9e14966f46854adE:
	.cfi_startproc
	pushq	%rbp
	.cfi_def_cfa_offset 16
	.cfi_offset %rbp, -16
	movq	%rsp, %rbp
	.cfi_def_cfa_register %rbp
	subq	$64, %rsp
	movq	%rdi, %rax
	movq	%rdi, %rcx
	addq	$8, %rcx
	movq	%rdi, -24(%rbp)
	movq	%rax, %rdi
	movq	%rcx, %rsi
	callq	__ZN4core3cmp5impls57_$LT$impl$u20$core..cmp..PartialOrd$u20$for$u20$usize$GT$2lt17h5934df07ee6a8573E
	movb	%al, -25(%rbp)
	movb	-25(%rbp), %al
	testb	$1, %al
	jne	LBB78_3
	jmp	LBB78_2
LBB78_2:
	movq	$0, -16(%rbp)
	jmp	LBB78_7
LBB78_3:
	movq	-24(%rbp), %rax
	movq	%rax, %rdi
	callq	__ZN4core5clone5impls54_$LT$impl$u20$core..clone..Clone$u20$for$u20$usize$GT$5clone17hbe70e0bfbe44b8ffE
	movq	%rax, -40(%rbp)
	movq	-40(%rbp), %rdi
	movl	$1, %esi
	callq	__ZN49_$LT$usize$u20$as$u20$core..iter..range..Step$GT$17forward_unchecked17h795c8bf8775b28c0E
	movq	%rax, -48(%rbp)
	movq	-24(%rbp), %rax
	movq	%rax, %rdi
	movq	-48(%rbp), %rsi
	callq	__ZN4core3mem7replace17h721f185e56b5feb9E
	movq	%rax, -56(%rbp)
	movq	-56(%rbp), %rax
	movq	%rax, -8(%rbp)
	movq	$1, -16(%rbp)
LBB78_7:
	movq	-16(%rbp), %rax
	movq	-8(%rbp), %rdx
	addq	$64, %rsp
	popq	%rbp
	retq
	.cfi_endproc

	.p2align	4, 0x90
__ZN4core4iter5range116_$LT$impl$u20$core..iter..traits..double_ended..DoubleEndedIterator$u20$for$u20$core..ops..range..Range$LT$A$GT$$GT$9next_back17h5c8154b48d7f5b50E:
	.cfi_startproc
	pushq	%rbp
	.cfi_def_cfa_offset 16
	.cfi_offset %rbp, -16
	movq	%rsp, %rbp
	.cfi_def_cfa_register %rbp
	subq	$80, %rsp
	movq	%rdi, %rax
	movq	%rdi, %rcx
	addq	$8, %rcx
	movq	%rdi, -48(%rbp)
	movq	%rax, %rdi
	movq	%rcx, %rsi
	callq	__ZN4core3cmp5impls57_$LT$impl$u20$core..cmp..PartialOrd$u20$for$u20$usize$GT$2lt17h5934df07ee6a8573E
	movb	%al, -49(%rbp)
	movb	-49(%rbp), %al
	testb	$1, %al
	jne	LBB79_3
	jmp	LBB79_2
LBB79_2:
	movq	$0, -40(%rbp)
	jmp	LBB79_7
LBB79_3:
	movq	-48(%rbp), %rax
	addq	$8, %rax
	movq	%rax, %rdi
	callq	__ZN4core5clone5impls54_$LT$impl$u20$core..clone..Clone$u20$for$u20$usize$GT$5clone17hbe70e0bfbe44b8ffE
	movq	%rax, -64(%rbp)
	movq	-64(%rbp), %rdi
	movl	$1, %esi
	callq	__ZN49_$LT$usize$u20$as$u20$core..iter..range..Step$GT$18backward_unchecked17h470a2c0edc583f6cE
	movq	%rax, -72(%rbp)
	jmp	LBB79_8
LBB79_6:
	movq	-24(%rbp), %rax
	movq	%rax, -32(%rbp)
	movq	$1, -40(%rbp)
LBB79_7:
	movq	-40(%rbp), %rax
	movq	-32(%rbp), %rdx
	addq	$80, %rsp
	popq	%rbp
	retq
LBB79_8:
	movq	-48(%rbp), %rax
	movq	-72(%rbp), %rcx
	movq	%rcx, 8(%rax)
	addq	$8, %rax
	movq	%rax, %rdi
	callq	__ZN4core5clone5impls54_$LT$impl$u20$core..clone..Clone$u20$for$u20$usize$GT$5clone17hbe70e0bfbe44b8ffE
	movq	%rax, -24(%rbp)
	jmp	LBB79_6
	.cfi_endproc

	.p2align	4, 0x90
__ZN4core4iter6traits8iterator8Iterator3rev17h66cc0de4407b71a5E:
	.cfi_startproc
	pushq	%rbp
	.cfi_def_cfa_offset 16
	.cfi_offset %rbp, -16
	movq	%rsp, %rbp
	.cfi_def_cfa_register %rbp
	subq	$16, %rsp
	callq	__ZN4core4iter8adapters12Rev$LT$T$GT$3new17h87514f572c9888a9E
	movq	%rax, -8(%rbp)
	movq	%rdx, -16(%rbp)
	movq	-8(%rbp), %rax
	movq	-16(%rbp), %rdx
	addq	$16, %rsp
	popq	%rbp
	retq
	.cfi_endproc

	.p2align	4, 0x90
__ZN4core4iter8adapters12Rev$LT$T$GT$3new17h87514f572c9888a9E:
	.cfi_startproc
	pushq	%rbp
	.cfi_def_cfa_offset 16
	.cfi_offset %rbp, -16
	movq	%rsp, %rbp
	.cfi_def_cfa_register %rbp
	subq	$16, %rsp
	movq	%rdi, -16(%rbp)
	movq	%rsi, -8(%rbp)
	movq	-16(%rbp), %rax
	movq	-8(%rbp), %rdx
	addq	$16, %rsp
	popq	%rbp
	retq
	.cfi_endproc

	.p2align	4, 0x90
__ZN4core5alloc6layout6Layout25from_size_align_unchecked17hc9338f4a4e917c6fE:
	.cfi_startproc
	pushq	%rbp
	.cfi_def_cfa_offset 16
	.cfi_offset %rbp, -16
	movq	%rsp, %rbp
	.cfi_def_cfa_register %rbp
	subq	$32, %rsp
	movq	%rdi, -24(%rbp)
	movq	%rsi, %rdi
	callq	__ZN4core3num12NonZeroUsize13new_unchecked17h8800fea0e3a0a064E
	movq	%rax, -32(%rbp)
	movq	-24(%rbp), %rax
	movq	%rax, -16(%rbp)
	movq	-32(%rbp), %rcx
	movq	%rcx, -8(%rbp)
	movq	-16(%rbp), %rax
	movq	-8(%rbp), %rdx
	addq	$32, %rsp
	popq	%rbp
	retq
	.cfi_endproc

	.p2align	4, 0x90
__ZN4core5alloc6layout6Layout4size17h3c878444e6ba3585E:
	.cfi_startproc
	pushq	%rbp
	.cfi_def_cfa_offset 16
	.cfi_offset %rbp, -16
	movq	%rsp, %rbp
	.cfi_def_cfa_register %rbp
	movq	(%rdi), %rax
	popq	%rbp
	retq
	.cfi_endproc

	.p2align	4, 0x90
__ZN4core5alloc6layout6Layout5align17he6558a0e48d23a0cE:
	.cfi_startproc
	pushq	%rbp
	.cfi_def_cfa_offset 16
	.cfi_offset %rbp, -16
	movq	%rsp, %rbp
	.cfi_def_cfa_register %rbp
	subq	$16, %rsp
	movq	8(%rdi), %rdi
	callq	__ZN4core3num12NonZeroUsize3get17hc47ee6aa2ed7f5e9E
	movq	%rax, -8(%rbp)
	movq	-8(%rbp), %rax
	addq	$16, %rsp
	popq	%rbp
	retq
	.cfi_endproc

	.p2align	4, 0x90
__ZN4core5clone5impls54_$LT$impl$u20$core..clone..Clone$u20$for$u20$usize$GT$5clone17hbe70e0bfbe44b8ffE:
	.cfi_startproc
	pushq	%rbp
	.cfi_def_cfa_offset 16
	.cfi_offset %rbp, -16
	movq	%rsp, %rbp
	.cfi_def_cfa_register %rbp
	movq	(%rdi), %rax
	popq	%rbp
	retq
	.cfi_endproc

	.p2align	4, 0x90
__ZN4core5slice14from_raw_parts17h791376b584231a58E:
	.cfi_startproc
	pushq	%rbp
	.cfi_def_cfa_offset 16
	.cfi_offset %rbp, -16
	movq	%rsp, %rbp
	.cfi_def_cfa_register %rbp
	subq	$16, %rsp
	callq	__ZN4core3ptr20slice_from_raw_parts17h9532a5de6a6adf79E
	movq	%rax, -8(%rbp)
	movq	%rdx, -16(%rbp)
	movq	-8(%rbp), %rax
	movq	-16(%rbp), %rdx
	addq	$16, %rsp
	popq	%rbp
	retq
	.cfi_endproc

	.p2align	4, 0x90
__ZN4core5slice29_$LT$impl$u20$$u5b$T$u5d$$GT$3get17hac4ca4561eb8fc90E:
	.cfi_startproc
	pushq	%rbp
	.cfi_def_cfa_offset 16
	.cfi_offset %rbp, -16
	movq	%rsp, %rbp
	.cfi_def_cfa_register %rbp
	subq	$32, %rsp
	movq	%rdi, -8(%rbp)
	movq	%rdx, %rdi
	movq	-8(%rbp), %rax
	movq	%rsi, -16(%rbp)
	movq	%rax, %rsi
	movq	-16(%rbp), %rdx
	callq	__ZN68_$LT$usize$u20$as$u20$core..slice..SliceIndex$LT$$u5b$T$u5d$$GT$$GT$3get17h575706632cc0f672E
	movq	%rax, -24(%rbp)
	movq	-24(%rbp), %rax
	addq	$32, %rsp
	popq	%rbp
	retq
	.cfi_endproc

	.p2align	4, 0x90
__ZN4core5slice29_$LT$impl$u20$$u5b$T$u5d$$GT$3len17h4fbad6765ae2aaeaE:
	.cfi_startproc
	pushq	%rbp
	.cfi_def_cfa_offset 16
	.cfi_offset %rbp, -16
	movq	%rsp, %rbp
	.cfi_def_cfa_register %rbp
	subq	$16, %rsp
	movq	%rdi, -16(%rbp)
	movq	%rsi, -8(%rbp)
	movq	-8(%rbp), %rax
	addq	$16, %rsp
	popq	%rbp
	retq
	.cfi_endproc

	.p2align	4, 0x90
__ZN4core5slice29_$LT$impl$u20$$u5b$T$u5d$$GT$4iter17h266bb11ca9d4a1f3E:
	.cfi_startproc
	pushq	%rbp
	.cfi_def_cfa_offset 16
	.cfi_offset %rbp, -16
	movq	%rsp, %rbp
	.cfi_def_cfa_register %rbp
	subq	$112, %rsp
	movq	%rdi, -48(%rbp)
	movq	%rsi, -56(%rbp)
	callq	__ZN4core5slice29_$LT$impl$u20$$u5b$T$u5d$$GT$6as_ptr17h02323b16c3cb98e2E
	movq	%rax, -64(%rbp)
	movq	-64(%rbp), %rdi
	callq	__ZN4core3ptr9const_ptr33_$LT$impl$u20$$BP$const$u20$T$GT$7is_null17h31189ecefb215edaE
	movq	$1, -8(%rbp)
	movq	-8(%rbp), %rax
	movq	%rax, -72(%rbp)
	movq	-72(%rbp), %rax
	cmpq	$0, %rax
	je	LBB89_6
	movq	-48(%rbp), %rdi
	movq	-56(%rbp), %rsi
	callq	__ZN4core5slice29_$LT$impl$u20$$u5b$T$u5d$$GT$3len17h4fbad6765ae2aaeaE
	movq	%rax, -80(%rbp)
	jmp	LBB89_9
LBB89_6:
	movq	-48(%rbp), %rdi
	movq	-56(%rbp), %rsi
	callq	__ZN4core5slice29_$LT$impl$u20$$u5b$T$u5d$$GT$3len17h4fbad6765ae2aaeaE
	movq	%rax, -88(%rbp)
	movq	-64(%rbp), %rdi
	movq	-88(%rbp), %rsi
	callq	__ZN4core3ptr9const_ptr33_$LT$impl$u20$$BP$const$u20$T$GT$12wrapping_add17h422dae042b77fc7bE
	movq	%rax, -96(%rbp)
	movq	-96(%rbp), %rax
	movq	%rax, -24(%rbp)
	jmp	LBB89_11
LBB89_9:
	movq	-64(%rbp), %rdi
	movq	-80(%rbp), %rsi
	callq	__ZN4core3ptr9const_ptr33_$LT$impl$u20$$BP$const$u20$T$GT$3add17h59dbf0c2900e6be3E
	movq	%rax, -24(%rbp)
	jmp	LBB89_11
LBB89_11:
	movq	-64(%rbp), %rdi
	callq	__ZN4core3ptr8non_null16NonNull$LT$T$GT$13new_unchecked17h98f24dd71f344587E
	movq	%rax, -104(%rbp)
	movq	-24(%rbp), %rax
	movq	-104(%rbp), %rcx
	movq	%rcx, -40(%rbp)
	movq	%rax, -32(%rbp)
	movq	-40(%rbp), %rax
	movq	-32(%rbp), %rdx
	addq	$112, %rsp
	popq	%rbp
	retq
	.cfi_endproc

	.p2align	4, 0x90
__ZN4core5slice29_$LT$impl$u20$$u5b$T$u5d$$GT$6as_ptr17h02323b16c3cb98e2E:
	.cfi_startproc
	pushq	%rbp
	.cfi_def_cfa_offset 16
	.cfi_offset %rbp, -16
	movq	%rsp, %rbp
	.cfi_def_cfa_register %rbp
	movq	%rdi, %rax
	popq	%rbp
	retq
	.cfi_endproc

	.p2align	4, 0x90
__ZN4core6option15Option$LT$T$GT$14unwrap_or_else17hc0fe18389c169da0E:
Lfunc_begin7:
	.cfi_startproc
	.cfi_personality 155, _rust_eh_personality
	.cfi_lsda 16, Lexception7
	pushq	%rbp
	.cfi_def_cfa_offset 16
	.cfi_offset %rbp, -16
	movq	%rsp, %rbp
	.cfi_def_cfa_register %rbp
	subq	$112, %rsp
	movq	%rdi, -80(%rbp)
	movq	%rsi, -72(%rbp)
	movb	$0, -17(%rbp)
	movb	$1, -17(%rbp)
	movq	-80(%rbp), %rax
	testq	%rax, %rax
	setne	%cl
	movzbl	%cl, %r8d
	movl	%r8d, %eax
	movq	%rdx, -88(%rbp)
	je	LBB91_1
	jmp	LBB91_10
LBB91_10:
	jmp	LBB91_3
LBB91_1:
	movb	$0, -17(%rbp)
	movq	-88(%rbp), %rax
	movq	16(%rax), %rcx
	movq	%rcx, -32(%rbp)
	movq	(%rax), %rcx
	movq	8(%rax), %rdx
	movq	%rdx, -40(%rbp)
	movq	%rcx, -48(%rbp)
Ltmp27:
	leaq	-48(%rbp), %rdi
	callq	__ZN4core3str6traits105_$LT$impl$u20$core..slice..SliceIndex$LT$str$GT$$u20$for$u20$core..ops..range..RangeFrom$LT$usize$GT$$GT$5index28_$u7b$$u7b$closure$u7d$$u7d$17h1a9efd1a23738e9bE
Ltmp28:
	movq	%rdx, -96(%rbp)
	movq	%rax, -104(%rbp)
	jmp	LBB91_4
	ud2
LBB91_3:
	movq	-80(%rbp), %rax
	movq	-72(%rbp), %rcx
	movq	%rax, -64(%rbp)
	movq	%rcx, -56(%rbp)
	jmp	LBB91_8
LBB91_4:
	movq	-104(%rbp), %rax
	movq	%rax, -64(%rbp)
	movq	-96(%rbp), %rcx
	movq	%rcx, -56(%rbp)
	jmp	LBB91_8
LBB91_5:
	movq	-64(%rbp), %rax
	movq	-56(%rbp), %rdx
	addq	$112, %rsp
	popq	%rbp
	retq
LBB91_6:
	movq	-16(%rbp), %rdi
	callq	__Unwind_Resume
	ud2
LBB91_7:
	movb	$0, -17(%rbp)
	jmp	LBB91_5
LBB91_8:
	testb	$1, -17(%rbp)
	jne	LBB91_7
	jmp	LBB91_5
LBB91_9:
Ltmp29:
	movq	%rax, -16(%rbp)
	movl	%edx, -8(%rbp)
	jmp	LBB91_6
Lfunc_end7:
	.cfi_endproc
	.section	__TEXT,__gcc_except_tab
	.p2align	2
GCC_except_table91:
Lexception7:
	.byte	255
	.byte	255
	.byte	1
	.uleb128 Lcst_end7-Lcst_begin7
Lcst_begin7:
	.uleb128 Ltmp27-Lfunc_begin7
	.uleb128 Ltmp28-Ltmp27
	.uleb128 Ltmp29-Lfunc_begin7
	.byte	0
	.uleb128 Ltmp28-Lfunc_begin7
	.uleb128 Lfunc_end7-Ltmp28
	.byte	0
	.byte	0
Lcst_end7:
	.p2align	2

	.section	__TEXT,__text,regular,pure_instructions
	.p2align	4, 0x90
__ZN4core6option15Option$LT$T$GT$3map17h35c5564ad9ffc479E:
Lfunc_begin8:
	.cfi_startproc
	.cfi_personality 155, _rust_eh_personality
	.cfi_lsda 16, Lexception8
	pushq	%rbp
	.cfi_def_cfa_offset 16
	.cfi_offset %rbp, -16
	movq	%rsp, %rbp
	.cfi_def_cfa_register %rbp
	subq	$48, %rsp
	movl	%edi, -40(%rbp)
	movl	%esi, -36(%rbp)
	movb	$0, -17(%rbp)
	movb	$1, -17(%rbp)
	movl	-40(%rbp), %eax
	movl	%eax, %ecx
	testq	%rcx, %rcx
	je	LBB92_1
	jmp	LBB92_10
LBB92_10:
	jmp	LBB92_3
LBB92_1:
	movl	$1114112, -28(%rbp)
	jmp	LBB92_8
	ud2
LBB92_3:
	movl	-36(%rbp), %eax
	movb	$0, -17(%rbp)
	movl	%eax, -24(%rbp)
	movl	-24(%rbp), %edi
Ltmp30:
	callq	__ZN75_$LT$core..str..Chars$u20$as$u20$core..iter..traits..iterator..Iterator$GT$4next28_$u7b$$u7b$closure$u7d$$u7d$17hb61ac0a31e0cd1e3E
Ltmp31:
	movl	%eax, -44(%rbp)
	jmp	LBB92_4
LBB92_4:
	movl	-44(%rbp), %eax
	movl	%eax, -28(%rbp)
	jmp	LBB92_8
LBB92_5:
	movl	-28(%rbp), %eax
	addq	$48, %rsp
	popq	%rbp
	retq
LBB92_6:
	movq	-16(%rbp), %rdi
	callq	__Unwind_Resume
	ud2
LBB92_7:
	movb	$0, -17(%rbp)
	jmp	LBB92_5
LBB92_8:
	testb	$1, -17(%rbp)
	jne	LBB92_7
	jmp	LBB92_5
LBB92_9:
Ltmp32:
	movq	%rax, -16(%rbp)
	movl	%edx, -8(%rbp)
	jmp	LBB92_6
Lfunc_end8:
	.cfi_endproc
	.section	__TEXT,__gcc_except_tab
	.p2align	2
GCC_except_table92:
Lexception8:
	.byte	255
	.byte	255
	.byte	1
	.uleb128 Lcst_end8-Lcst_begin8
Lcst_begin8:
	.uleb128 Ltmp30-Lfunc_begin8
	.uleb128 Ltmp31-Ltmp30
	.uleb128 Ltmp32-Lfunc_begin8
	.byte	0
	.uleb128 Ltmp31-Lfunc_begin8
	.uleb128 Lfunc_end8-Ltmp31
	.byte	0
	.byte	0
Lcst_end8:
	.p2align	2

	.section	__TEXT,__text,regular,pure_instructions
	.p2align	4, 0x90
__ZN4core6option15Option$LT$T$GT$5ok_or17hfd761b9b9698a7caE:
	.cfi_startproc
	pushq	%rbp
	.cfi_def_cfa_offset 16
	.cfi_offset %rbp, -16
	movq	%rsp, %rbp
	.cfi_def_cfa_register %rbp
	subq	$40, %rsp
	movq	%rdi, -40(%rbp)
	movb	$0, -17(%rbp)
	movb	$1, -17(%rbp)
	movq	-40(%rbp), %rax
	testq	%rax, %rax
	setne	%cl
	movzbl	%cl, %edx
	movl	%edx, %eax
	je	LBB93_1
	jmp	LBB93_7
LBB93_7:
	jmp	LBB93_3
LBB93_1:
	movb	$0, -17(%rbp)
	movq	$0, -32(%rbp)
	jmp	LBB93_4
	ud2
LBB93_3:
	movq	-40(%rbp), %rax
	movq	%rax, -32(%rbp)
LBB93_4:
	testb	$1, -17(%rbp)
	jne	LBB93_6
LBB93_5:
	movq	-32(%rbp), %rax
	addq	$40, %rsp
	popq	%rbp
	retq
LBB93_6:
	movb	$0, -17(%rbp)
	jmp	LBB93_5
	.cfi_endproc

	.p2align	4, 0x90
__ZN4core6option15Option$LT$T$GT$7is_some17hbdc108cbc7e5066bE:
	.cfi_startproc
	pushq	%rbp
	.cfi_def_cfa_offset 16
	.cfi_offset %rbp, -16
	movq	%rsp, %rbp
	.cfi_def_cfa_register %rbp
	subq	$1, %rsp
	cmpq	$1, (%rdi)
	je	LBB94_2
	movb	$0, -1(%rbp)
	jmp	LBB94_3
LBB94_2:
	movb	$1, -1(%rbp)
LBB94_3:
	movb	-1(%rbp), %al
	andb	$1, %al
	movzbl	%al, %eax
	addq	$1, %rsp
	popq	%rbp
	retq
	.cfi_endproc

	.p2align	4, 0x90
__ZN4core6result19Result$LT$T$C$E$GT$6expect17h4c133fc653824379E:
Lfunc_begin9:
	.cfi_startproc
	.cfi_personality 155, _rust_eh_personality
	.cfi_lsda 16, Lexception9
	pushq	%rbp
	.cfi_def_cfa_offset 16
	.cfi_offset %rbp, -16
	movq	%rsp, %rbp
	.cfi_def_cfa_register %rbp
	subq	$96, %rsp
	movq	%rdi, %rax
	movq	(%rsi), %r9
	testq	%r9, %r9
	movq	%r8, -48(%rbp)
	movq	%rcx, -56(%rbp)
	movq	%rdx, -64(%rbp)
	movq	%rsi, -72(%rbp)
	movq	%rdi, -80(%rbp)
	movq	%rax, -88(%rbp)
	je	LBB95_3
	jmp	LBB95_8
LBB95_8:
	movq	-72(%rbp), %rax
	movq	24(%rax), %rcx
	movq	%rcx, -24(%rbp)
	movq	8(%rax), %rcx
	movq	16(%rax), %rdx
	movq	%rdx, -32(%rbp)
	movq	%rcx, -40(%rbp)
Ltmp33:
	leaq	l___unnamed_7(%rip), %rcx
	leaq	-40(%rbp), %rdx
	movq	-64(%rbp), %rdi
	movq	-56(%rbp), %rsi
	movq	-48(%rbp), %r8
	callq	__ZN4core6result13unwrap_failed17hc193898ef513e81fE
Ltmp34:
	jmp	LBB95_6
	ud2
LBB95_3:
	movq	-72(%rbp), %rax
	movq	8(%rax), %rcx
	movq	-80(%rbp), %rdx
	movq	%rcx, (%rdx)
	movq	16(%rax), %rcx
	movq	%rcx, 8(%rdx)
	movq	24(%rax), %rcx
	movq	%rcx, 16(%rdx)
	movq	-88(%rbp), %rax
	addq	$96, %rsp
	popq	%rbp
	retq
LBB95_4:
	movq	-16(%rbp), %rdi
	callq	__Unwind_Resume
	ud2
LBB95_5:
	leaq	-40(%rbp), %rdi
	callq	__ZN4core3ptr13drop_in_place17he7e10f59fbe7e031E
	jmp	LBB95_4
LBB95_6:
	ud2
LBB95_7:
Ltmp35:
	movq	%rax, -16(%rbp)
	movl	%edx, -8(%rbp)
	jmp	LBB95_5
Lfunc_end9:
	.cfi_endproc
	.section	__TEXT,__gcc_except_tab
	.p2align	2
GCC_except_table95:
Lexception9:
	.byte	255
	.byte	255
	.byte	1
	.uleb128 Lcst_end9-Lcst_begin9
Lcst_begin9:
	.uleb128 Ltmp33-Lfunc_begin9
	.uleb128 Ltmp34-Ltmp33
	.uleb128 Ltmp35-Lfunc_begin9
	.byte	0
	.uleb128 Ltmp34-Lfunc_begin9
	.uleb128 Lfunc_end9-Ltmp34
	.byte	0
	.byte	0
Lcst_end9:
	.p2align	2

	.section	__TEXT,__text,regular,pure_instructions
	.p2align	4, 0x90
__ZN50_$LT$T$u20$as$u20$core..convert..From$LT$T$GT$$GT$4from17h2bd4a52247efdeaaE:
	.cfi_startproc
	pushq	%rbp
	.cfi_def_cfa_offset 16
	.cfi_offset %rbp, -16
	movq	%rsp, %rbp
	.cfi_def_cfa_register %rbp
	popq	%rbp
	retq
	.cfi_endproc

	.p2align	4, 0x90
__ZN50_$LT$T$u20$as$u20$core..convert..Into$LT$U$GT$$GT$4into17h60fca5a47323ce75E:
	.cfi_startproc
	pushq	%rbp
	.cfi_def_cfa_offset 16
	.cfi_offset %rbp, -16
	movq	%rsp, %rbp
	.cfi_def_cfa_register %rbp
	subq	$16, %rsp
	callq	__ZN119_$LT$core..ptr..non_null..NonNull$LT$T$GT$$u20$as$u20$core..convert..From$LT$core..ptr..unique..Unique$LT$T$GT$$GT$$GT$4from17h8a91fd22451c3ae3E
	movq	%rax, -8(%rbp)
	movq	-8(%rbp), %rax
	addq	$16, %rsp
	popq	%rbp
	retq
	.cfi_endproc

	.p2align	4, 0x90
__ZN54_$LT$$LP$$RP$$u20$as$u20$std..process..Termination$GT$6report17h479594da6eb41c52E:
	.cfi_startproc
	pushq	%rbp
	.cfi_def_cfa_offset 16
	.cfi_offset %rbp, -16
	movq	%rsp, %rbp
	.cfi_def_cfa_register %rbp
	subq	$16, %rsp
	xorl	%edi, %edi
	callq	__ZN68_$LT$std..process..ExitCode$u20$as$u20$std..process..Termination$GT$6report17hb04284f43b4cb371E
	movl	%eax, -4(%rbp)
	movl	-4(%rbp), %eax
	addq	$16, %rsp
	popq	%rbp
	retq
	.cfi_endproc

	.p2align	4, 0x90
__ZN55_$LT$$RF$T$u20$as$u20$core..convert..AsRef$LT$U$GT$$GT$6as_ref17h4ff1db29ad2506daE:
	.cfi_startproc
	pushq	%rbp
	.cfi_def_cfa_offset 16
	.cfi_offset %rbp, -16
	movq	%rsp, %rbp
	.cfi_def_cfa_register %rbp
	subq	$16, %rsp
	movq	(%rdi), %rax
	movq	8(%rdi), %rsi
	movq	%rax, %rdi
	callq	__ZN3std3ffi6os_str85_$LT$impl$u20$core..convert..AsRef$LT$std..ffi..os_str..OsStr$GT$$u20$for$u20$str$GT$6as_ref17h8ce1fb56b9ddf432E
	movq	%rax, -8(%rbp)
	movq	%rdx, -16(%rbp)
	movq	-8(%rbp), %rax
	movq	-16(%rbp), %rdx
	addq	$16, %rsp
	popq	%rbp
	retq
	.cfi_endproc

	.p2align	4, 0x90
__ZN55_$LT$$RF$str$u20$as$u20$core..str..pattern..Pattern$GT$13into_searcher17h9797418dfe5a914bE:
	.cfi_startproc
	pushq	%rbp
	.cfi_def_cfa_offset 16
	.cfi_offset %rbp, -16
	movq	%rsp, %rbp
	.cfi_def_cfa_register %rbp
	subq	$32, %rsp
	movq	%rdi, %rax
	movq	%rsi, -8(%rbp)
	movq	%rcx, %rsi
	movq	%rdx, -16(%rbp)
	movq	%r8, %rdx
	movq	-8(%rbp), %rcx
	movq	-16(%rbp), %r8
	movq	%rax, -24(%rbp)
	callq	__ZN4core3str7pattern11StrSearcher3new17hb3e2f8082f620422E
	movq	-24(%rbp), %rax
	addq	$32, %rsp
	popq	%rbp
	retq
	.cfi_endproc

	.p2align	4, 0x90
__ZN5alloc3vec12Vec$LT$T$GT$10as_mut_ptr17h77d66c6756c0f780E:
	.cfi_startproc
	pushq	%rbp
	.cfi_def_cfa_offset 16
	.cfi_offset %rbp, -16
	movq	%rsp, %rbp
	.cfi_def_cfa_register %rbp
	subq	$16, %rsp
	callq	__ZN5alloc7raw_vec19RawVec$LT$T$C$A$GT$3ptr17h3dcbb089d6a92c1aE
	movq	%rax, -8(%rbp)
	movq	-8(%rbp), %rdi
	callq	__ZN4core3ptr7mut_ptr31_$LT$impl$u20$$BP$mut$u20$T$GT$7is_null17h8170430b1f1659dbE
	movq	-8(%rbp), %rax
	addq	$16, %rsp
	popq	%rbp
	retq
	.cfi_endproc

	.p2align	4, 0x90
__ZN5alloc3vec12Vec$LT$T$GT$6as_ptr17h0e0fa993500d3796E:
	.cfi_startproc
	pushq	%rbp
	.cfi_def_cfa_offset 16
	.cfi_offset %rbp, -16
	movq	%rsp, %rbp
	.cfi_def_cfa_register %rbp
	subq	$16, %rsp
	callq	__ZN5alloc7raw_vec19RawVec$LT$T$C$A$GT$3ptr17h3dcbb089d6a92c1aE
	movq	%rax, -8(%rbp)
	movq	-8(%rbp), %rdi
	callq	__ZN4core3ptr7mut_ptr31_$LT$impl$u20$$BP$mut$u20$T$GT$7is_null17h8170430b1f1659dbE
	movq	-8(%rbp), %rax
	addq	$16, %rsp
	popq	%rbp
	retq
	.cfi_endproc

	.p2align	4, 0x90
__ZN5alloc5alloc7dealloc17h087643d96e975922E:
	.cfi_startproc
	pushq	%rbp
	.cfi_def_cfa_offset 16
	.cfi_offset %rbp, -16
	movq	%rsp, %rbp
	.cfi_def_cfa_register %rbp
	subq	$48, %rsp
	movq	%rsi, -16(%rbp)
	movq	%rdx, -8(%rbp)
	leaq	-16(%rbp), %rax
	movq	%rdi, -24(%rbp)
	movq	%rax, %rdi
	callq	__ZN4core5alloc6layout6Layout4size17h3c878444e6ba3585E
	movq	%rax, -32(%rbp)
	leaq	-16(%rbp), %rdi
	callq	__ZN4core5alloc6layout6Layout5align17he6558a0e48d23a0cE
	movq	%rax, -40(%rbp)
	movq	-24(%rbp), %rdi
	movq	-32(%rbp), %rsi
	movq	-40(%rbp), %rdx
	callq	___rust_dealloc
	addq	$48, %rsp
	popq	%rbp
	retq
	.cfi_endproc

	.p2align	4, 0x90
__ZN5alloc7raw_vec19RawVec$LT$T$C$A$GT$14current_memory17h3b4bb9aa1e5602b0E:
	.cfi_startproc
	pushq	%rbp
	.cfi_def_cfa_offset 16
	.cfi_offset %rbp, -16
	movq	%rsp, %rbp
	.cfi_def_cfa_register %rbp
	subq	$144, %rsp
	movq	%rdi, %rax
	movq	$1, -24(%rbp)
	movq	-24(%rbp), %rcx
	movq	%rsi, -64(%rbp)
	movq	%rdi, -72(%rbp)
	movq	%rax, -80(%rbp)
	movq	%rcx, -88(%rbp)
	jmp	LBB104_5
LBB104_1:
	movb	$1, -49(%rbp)
	jmp	LBB104_4
LBB104_2:
	movb	$0, -49(%rbp)
	jmp	LBB104_4
LBB104_3:
	movq	-64(%rbp), %rax
	cmpq	$0, 8(%rax)
	je	LBB104_1
	jmp	LBB104_2
LBB104_4:
	testb	$1, -49(%rbp)
	jne	LBB104_7
	jmp	LBB104_6
LBB104_5:
	movq	-88(%rbp), %rax
	cmpq	$0, %rax
	je	LBB104_1
	jmp	LBB104_3
LBB104_6:
	movq	$1, -16(%rbp)
	movq	-16(%rbp), %rsi
	movq	%rsi, -96(%rbp)
	jmp	LBB104_8
LBB104_7:
	movq	-72(%rbp), %rax
	movq	$0, (%rax)
	jmp	LBB104_13
LBB104_8:
	movq	$1, -8(%rbp)
	movq	-8(%rbp), %rax
	movq	%rax, -104(%rbp)
	movq	-104(%rbp), %rax
	movq	-64(%rbp), %rcx
	imulq	8(%rcx), %rax
	movq	%rax, %rdi
	movq	-96(%rbp), %rsi
	callq	__ZN4core5alloc6layout6Layout25from_size_align_unchecked17hc9338f4a4e917c6fE
	movq	%rax, -112(%rbp)
	movq	%rdx, -120(%rbp)
	movq	-64(%rbp), %rax
	movq	(%rax), %rdi
	callq	__ZN4core3ptr6unique15Unique$LT$T$GT$4cast17h23f9866a8ea0fb2aE
	movq	%rax, -128(%rbp)
	movq	-128(%rbp), %rdi
	callq	__ZN50_$LT$T$u20$as$u20$core..convert..Into$LT$U$GT$$GT$4into17h60fca5a47323ce75E
	movq	%rax, -136(%rbp)
	movq	-136(%rbp), %rax
	movq	%rax, -48(%rbp)
	movq	-112(%rbp), %rcx
	movq	%rcx, -40(%rbp)
	movq	-120(%rbp), %rdx
	movq	%rdx, -32(%rbp)
	movq	-48(%rbp), %rsi
	movq	-72(%rbp), %rdi
	movq	%rsi, (%rdi)
	movq	-40(%rbp), %rsi
	movq	%rsi, 8(%rdi)
	movq	-32(%rbp), %rsi
	movq	%rsi, 16(%rdi)
LBB104_13:
	movq	-80(%rbp), %rax
	addq	$144, %rsp
	popq	%rbp
	retq
	.cfi_endproc

	.p2align	4, 0x90
__ZN5alloc7raw_vec19RawVec$LT$T$C$A$GT$3ptr17h3dcbb089d6a92c1aE:
	.cfi_startproc
	pushq	%rbp
	.cfi_def_cfa_offset 16
	.cfi_offset %rbp, -16
	movq	%rsp, %rbp
	.cfi_def_cfa_register %rbp
	subq	$16, %rsp
	movq	(%rdi), %rdi
	callq	__ZN4core3ptr6unique15Unique$LT$T$GT$6as_ptr17h8a6e32dc741c6778E
	movq	%rax, -8(%rbp)
	movq	-8(%rbp), %rax
	addq	$16, %rsp
	popq	%rbp
	retq
	.cfi_endproc

	.p2align	4, 0x90
__ZN62_$LT$alloc..alloc..Global$u20$as$u20$core..alloc..AllocRef$GT$7dealloc17h60c69f5b04b094cdE:
	.cfi_startproc
	pushq	%rbp
	.cfi_def_cfa_offset 16
	.cfi_offset %rbp, -16
	movq	%rsp, %rbp
	.cfi_def_cfa_register %rbp
	subq	$64, %rsp
	movq	%rdx, -24(%rbp)
	movq	%rcx, -16(%rbp)
	leaq	-24(%rbp), %rax
	movq	%rdi, -32(%rbp)
	movq	%rax, %rdi
	movq	%rsi, -40(%rbp)
	callq	__ZN4core5alloc6layout6Layout4size17h3c878444e6ba3585E
	movq	%rax, -48(%rbp)
	movq	-48(%rbp), %rax
	cmpq	$0, %rax
	jne	LBB106_3
	jmp	LBB106_6
LBB106_3:
	movq	-40(%rbp), %rdi
	callq	__ZN4core3ptr8non_null16NonNull$LT$T$GT$6as_ptr17h25d9b5ef5cdf53f1E
	movq	%rax, -56(%rbp)
	movq	-24(%rbp), %rsi
	movq	-16(%rbp), %rdx
	movq	-56(%rbp), %rdi
	callq	__ZN5alloc5alloc7dealloc17h087643d96e975922E
	jmp	LBB106_6
LBB106_6:
	addq	$64, %rsp
	popq	%rbp
	retq
	.cfi_endproc

	.p2align	4, 0x90
__ZN63_$LT$I$u20$as$u20$core..iter..traits..collect..IntoIterator$GT$9into_iter17h26f9666fc6649007E:
	.cfi_startproc
	pushq	%rbp
	.cfi_def_cfa_offset 16
	.cfi_offset %rbp, -16
	movq	%rsp, %rbp
	.cfi_def_cfa_register %rbp
	movq	%rdi, %rax
	movq	%rsi, %rdx
	popq	%rbp
	retq
	.cfi_endproc

	.p2align	4, 0x90
__ZN63_$LT$I$u20$as$u20$core..iter..traits..collect..IntoIterator$GT$9into_iter17hca750b40b7c16e5eE:
	.cfi_startproc
	pushq	%rbp
	.cfi_def_cfa_offset 16
	.cfi_offset %rbp, -16
	movq	%rsp, %rbp
	.cfi_def_cfa_register %rbp
	movq	%rdi, %rax
	movq	%rsi, %rdx
	popq	%rbp
	retq
	.cfi_endproc

	.p2align	4, 0x90
__ZN65_$LT$alloc..string..String$u20$as$u20$core..ops..deref..Deref$GT$5deref17he75986160ea3d7f9E:
	.cfi_startproc
	pushq	%rbp
	.cfi_def_cfa_offset 16
	.cfi_offset %rbp, -16
	movq	%rsp, %rbp
	.cfi_def_cfa_register %rbp
	subq	$32, %rsp
	callq	__ZN68_$LT$alloc..vec..Vec$LT$T$GT$$u20$as$u20$core..ops..deref..Deref$GT$5deref17hf4a73bffa39c0af4E
	movq	%rax, -8(%rbp)
	movq	%rdx, -16(%rbp)
	movq	-8(%rbp), %rdi
	movq	-16(%rbp), %rsi
	callq	__ZN4core3str19from_utf8_unchecked17hd72ec23f0e9fe56eE
	movq	%rax, -24(%rbp)
	movq	%rdx, -32(%rbp)
	movq	-24(%rbp), %rax
	movq	-32(%rbp), %rdx
	addq	$32, %rsp
	popq	%rbp
	retq
	.cfi_endproc

	.p2align	4, 0x90
__ZN66_$LT$alloc..vec..Vec$LT$T$GT$$u20$as$u20$core..ops..drop..Drop$GT$4drop17h4b770031241383deE:
	.cfi_startproc
	pushq	%rbp
	.cfi_def_cfa_offset 16
	.cfi_offset %rbp, -16
	movq	%rsp, %rbp
	.cfi_def_cfa_register %rbp
	subq	$16, %rsp
	movq	%rdi, -8(%rbp)
	callq	__ZN5alloc3vec12Vec$LT$T$GT$10as_mut_ptr17h77d66c6756c0f780E
	movq	%rax, -16(%rbp)
	movq	-8(%rbp), %rax
	movq	16(%rax), %rsi
	movq	-16(%rbp), %rdi
	callq	__ZN4core3ptr24slice_from_raw_parts_mut17hd55393c0d2a57a40E
	jmp	LBB110_3
LBB110_3:
	addq	$16, %rsp
	popq	%rbp
	retq
	.cfi_endproc

	.p2align	4, 0x90
__ZN68_$LT$alloc..vec..Vec$LT$T$GT$$u20$as$u20$core..ops..deref..Deref$GT$5deref17hf4a73bffa39c0af4E:
	.cfi_startproc
	pushq	%rbp
	.cfi_def_cfa_offset 16
	.cfi_offset %rbp, -16
	movq	%rsp, %rbp
	.cfi_def_cfa_register %rbp
	subq	$32, %rsp
	movq	%rdi, -8(%rbp)
	callq	__ZN5alloc3vec12Vec$LT$T$GT$6as_ptr17h0e0fa993500d3796E
	movq	%rax, -16(%rbp)
	movq	-8(%rbp), %rax
	movq	16(%rax), %rsi
	movq	-16(%rbp), %rdi
	callq	__ZN4core5slice14from_raw_parts17h791376b584231a58E
	movq	%rax, -24(%rbp)
	movq	%rdx, -32(%rbp)
	movq	-24(%rbp), %rax
	movq	-32(%rbp), %rdx
	addq	$32, %rsp
	popq	%rbp
	retq
	.cfi_endproc

	.p2align	4, 0x90
__ZN68_$LT$std..process..ExitCode$u20$as$u20$std..process..Termination$GT$6report17hb04284f43b4cb371E:
	.cfi_startproc
	pushq	%rbp
	.cfi_def_cfa_offset 16
	.cfi_offset %rbp, -16
	movq	%rsp, %rbp
	.cfi_def_cfa_register %rbp
	subq	$16, %rsp
	movb	%dil, -1(%rbp)
	leaq	-1(%rbp), %rdi
	callq	__ZN3std3sys4unix7process14process_common8ExitCode6as_i3217h6621ddd511f49afeE
	movl	%eax, -8(%rbp)
	movl	-8(%rbp), %eax
	addq	$16, %rsp
	popq	%rbp
	retq
	.cfi_endproc

	.p2align	4, 0x90
__ZN68_$LT$usize$u20$as$u20$core..slice..SliceIndex$LT$$u5b$T$u5d$$GT$$GT$13get_unchecked17h660cb07c9dce97adE:
	.cfi_startproc
	pushq	%rbp
	.cfi_def_cfa_offset 16
	.cfi_offset %rbp, -16
	movq	%rsp, %rbp
	.cfi_def_cfa_register %rbp
	subq	$32, %rsp
	movq	%rdi, -8(%rbp)
	movq	%rsi, %rdi
	movq	%rdx, %rsi
	callq	__ZN4core3ptr9const_ptr43_$LT$impl$u20$$BP$const$u20$$u5b$T$u5d$$GT$6as_ptr17ha0f1bd6cff659feaE
	movq	%rax, -16(%rbp)
	movq	-16(%rbp), %rdi
	movq	-8(%rbp), %rsi
	callq	__ZN4core3ptr9const_ptr33_$LT$impl$u20$$BP$const$u20$T$GT$3add17h59dbf0c2900e6be3E
	movq	%rax, -24(%rbp)
	movq	-24(%rbp), %rax
	addq	$32, %rsp
	popq	%rbp
	retq
	.cfi_endproc

	.p2align	4, 0x90
__ZN68_$LT$usize$u20$as$u20$core..slice..SliceIndex$LT$$u5b$T$u5d$$GT$$GT$3get17h575706632cc0f672E:
	.cfi_startproc
	pushq	%rbp
	.cfi_def_cfa_offset 16
	.cfi_offset %rbp, -16
	movq	%rsp, %rbp
	.cfi_def_cfa_register %rbp
	subq	$48, %rsp
	movq	%rdi, -16(%rbp)
	movq	%rsi, %rdi
	movq	%rsi, -24(%rbp)
	movq	%rdx, %rsi
	movq	%rdx, -32(%rbp)
	callq	__ZN4core5slice29_$LT$impl$u20$$u5b$T$u5d$$GT$3len17h4fbad6765ae2aaeaE
	movq	%rax, -40(%rbp)
	movq	-16(%rbp), %rax
	movq	-40(%rbp), %rcx
	cmpq	%rcx, %rax
	jb	LBB114_3
	movq	$0, -8(%rbp)
	jmp	LBB114_5
LBB114_3:
	movq	-16(%rbp), %rdi
	movq	-24(%rbp), %rsi
	movq	-32(%rbp), %rdx
	callq	__ZN68_$LT$usize$u20$as$u20$core..slice..SliceIndex$LT$$u5b$T$u5d$$GT$$GT$13get_unchecked17h660cb07c9dce97adE
	movq	%rax, -48(%rbp)
	movq	-48(%rbp), %rax
	movq	%rax, -8(%rbp)
LBB114_5:
	movq	-8(%rbp), %rax
	addq	$48, %rsp
	popq	%rbp
	retq
	.cfi_endproc

	.p2align	4, 0x90
__ZN69_$LT$core..option..Option$LT$T$GT$$u20$as$u20$core..ops..try..Try$GT$10from_error17h1aa68df994c22db4E:
	.cfi_startproc
	pushq	%rbp
	.cfi_def_cfa_offset 16
	.cfi_offset %rbp, -16
	movq	%rsp, %rbp
	.cfi_def_cfa_register %rbp
	pushq	%rax
	movl	$0, -8(%rbp)
	movl	-8(%rbp), %eax
	movl	-4(%rbp), %edx
	addq	$8, %rsp
	popq	%rbp
	retq
	.cfi_endproc

	.p2align	4, 0x90
__ZN69_$LT$core..option..Option$LT$T$GT$$u20$as$u20$core..ops..try..Try$GT$11into_result17h374bd3fedd653534E:
	.cfi_startproc
	pushq	%rbp
	.cfi_def_cfa_offset 16
	.cfi_offset %rbp, -16
	movq	%rsp, %rbp
	.cfi_def_cfa_register %rbp
	subq	$16, %rsp
	callq	__ZN4core6option15Option$LT$T$GT$5ok_or17hfd761b9b9698a7caE
	movq	%rax, -8(%rbp)
	movq	-8(%rbp), %rax
	addq	$16, %rsp
	popq	%rbp
	retq
	.cfi_endproc

	.p2align	4, 0x90
__ZN75_$LT$core..str..Chars$u20$as$u20$core..iter..traits..iterator..Iterator$GT$4next17h4c94964dc094ab5eE:
	.cfi_startproc
	pushq	%rbp
	.cfi_def_cfa_offset 16
	.cfi_offset %rbp, -16
	movq	%rsp, %rbp
	.cfi_def_cfa_register %rbp
	subq	$16, %rsp
	callq	__ZN4core3str15next_code_point17hab6382e7f9205f09E
	movl	%eax, -4(%rbp)
	movl	%edx, -8(%rbp)
	movl	-4(%rbp), %edi
	movl	-8(%rbp), %esi
	callq	__ZN4core6option15Option$LT$T$GT$3map17h35c5564ad9ffc479E
	movl	%eax, -12(%rbp)
	movl	-12(%rbp), %eax
	addq	$16, %rsp
	popq	%rbp
	retq
	.cfi_endproc

	.p2align	4, 0x90
__ZN75_$LT$core..str..Chars$u20$as$u20$core..iter..traits..iterator..Iterator$GT$4next28_$u7b$$u7b$closure$u7d$$u7d$17hb61ac0a31e0cd1e3E:
	.cfi_startproc
	pushq	%rbp
	.cfi_def_cfa_offset 16
	.cfi_offset %rbp, -16
	movq	%rsp, %rbp
	.cfi_def_cfa_register %rbp
	subq	$16, %rsp
	callq	__ZN4core4char7convert18from_u32_unchecked17hdd6f8dbbf2ca32c0E
	movl	%eax, -4(%rbp)
	movl	-4(%rbp), %eax
	addq	$16, %rsp
	popq	%rbp
	retq
	.cfi_endproc

	.p2align	4, 0x90
__ZN77_$LT$alloc..raw_vec..RawVec$LT$T$C$A$GT$$u20$as$u20$core..ops..drop..Drop$GT$4drop17h0d314abb0c456200E:
	.cfi_startproc
	pushq	%rbp
	.cfi_def_cfa_offset 16
	.cfi_offset %rbp, -16
	movq	%rsp, %rbp
	.cfi_def_cfa_register %rbp
	subq	$48, %rsp
	leaq	-24(%rbp), %rax
	movq	%rdi, -40(%rbp)
	movq	%rax, %rdi
	movq	-40(%rbp), %rsi
	callq	__ZN5alloc7raw_vec19RawVec$LT$T$C$A$GT$14current_memory17h3b4bb9aa1e5602b0E
	xorl	%eax, %eax
	movl	%eax, %ecx
	cmpq	$0, -24(%rbp)
	movl	$1, %edx
	cmovbeq	%rcx, %rdx
	cmpq	$1, %rdx
	je	LBB119_3
	jmp	LBB119_5
LBB119_3:
	movq	-24(%rbp), %rsi
	movq	-16(%rbp), %rdx
	movq	-8(%rbp), %rcx
	movq	-40(%rbp), %rax
	movq	%rax, %rdi
	callq	__ZN62_$LT$alloc..alloc..Global$u20$as$u20$core..alloc..AllocRef$GT$7dealloc17h60c69f5b04b094cdE
	jmp	LBB119_5
LBB119_5:
	addq	$48, %rsp
	popq	%rbp
	retq
	.cfi_endproc

	.p2align	4, 0x90
__ZN80_$LT$core..str..pattern..StrSearcher$u20$as$u20$core..str..pattern..Searcher$GT$10next_match17hdbe17d2eb2811711E:
	.cfi_startproc
	pushq	%rbp
	.cfi_def_cfa_offset 16
	.cfi_offset %rbp, -16
	movq	%rsp, %rbp
	.cfi_def_cfa_register %rbp
	subq	$224, %rsp
	movq	%rdi, %rax
	movq	32(%rsi), %rcx
	testq	%rcx, %rcx
	movq	%rsi, -112(%rbp)
	movq	%rdi, -120(%rbp)
	movq	%rax, -128(%rbp)
	je	LBB120_3
	jmp	LBB120_21
LBB120_21:
	movq	-112(%rbp), %rax
	addq	$32, %rax
	addq	$8, %rax
	movq	-112(%rbp), %rcx
	cmpq	$-1, 88(%rcx)
	movq	%rax, -136(%rbp)
	je	LBB120_13
	jmp	LBB120_12
	ud2
LBB120_3:
	jmp	LBB120_4
LBB120_4:
	leaq	-104(%rbp), %rdi
	movq	-112(%rbp), %rsi
	callq	__ZN80_$LT$core..str..pattern..StrSearcher$u20$as$u20$core..str..pattern..Searcher$GT$4next17h82e39c4e4d5b5109E
	movq	-104(%rbp), %rax
	testq	%rax, %rax
	movq	%rax, -144(%rbp)
	je	LBB120_8
	jmp	LBB120_22
LBB120_22:
	movq	-144(%rbp), %rax
	subq	$1, %rax
	je	LBB120_6
	jmp	LBB120_23
LBB120_23:
	jmp	LBB120_11
LBB120_6:
	jmp	LBB120_4
	ud2
LBB120_8:
	movq	-96(%rbp), %rax
	movq	-88(%rbp), %rcx
	movq	%rax, -80(%rbp)
	movq	%rcx, -72(%rbp)
	movq	-80(%rbp), %rax
	movq	-72(%rbp), %rcx
	movq	-120(%rbp), %rdx
	movq	%rax, 8(%rdx)
	movq	%rcx, 16(%rdx)
	movq	$1, (%rdx)
	jmp	LBB120_10
LBB120_9:
	movq	-128(%rbp), %rax
	addq	$224, %rsp
	popq	%rbp
	retq
LBB120_10:
	jmp	LBB120_9
LBB120_11:
	movq	-120(%rbp), %rax
	movq	$0, (%rax)
	jmp	LBB120_10
LBB120_12:
	movq	-112(%rbp), %rax
	movq	(%rax), %rcx
	movq	8(%rax), %rdx
	movq	%rcx, -64(%rbp)
	movq	%rdx, -56(%rbp)
	movq	-64(%rbp), %rdx
	movq	-56(%rbp), %rcx
	movq	%rdx, -152(%rbp)
	movq	%rcx, -160(%rbp)
	jmp	LBB120_17
LBB120_13:
	movq	-112(%rbp), %rax
	movq	(%rax), %rcx
	movq	8(%rax), %rdx
	movq	%rcx, -48(%rbp)
	movq	%rdx, -40(%rbp)
	movq	-48(%rbp), %rdx
	movq	-40(%rbp), %rcx
	movq	%rdx, -168(%rbp)
	movq	%rcx, -176(%rbp)
	movq	-112(%rbp), %rax
	movq	16(%rax), %rcx
	movq	24(%rax), %rdx
	movq	%rcx, -16(%rbp)
	movq	%rdx, -8(%rbp)
	movq	-16(%rbp), %r8
	movq	-8(%rbp), %r9
	movq	%r8, -184(%rbp)
	movq	%r9, -192(%rbp)
	movq	-120(%rbp), %rdi
	movq	-136(%rbp), %rsi
	movq	-168(%rbp), %rdx
	movq	-176(%rbp), %rcx
	movq	-184(%rbp), %r8
	movq	-192(%rbp), %r9
	movl	$1, (%rsp)
	callq	__ZN4core3str7pattern14TwoWaySearcher4next17hbfc34e63c9120467E
	jmp	LBB120_20
LBB120_17:
	movq	-112(%rbp), %rax
	movq	16(%rax), %rcx
	movq	24(%rax), %rdx
	movq	%rcx, -32(%rbp)
	movq	%rdx, -24(%rbp)
	movq	-32(%rbp), %r8
	movq	-24(%rbp), %r9
	movq	%r8, -200(%rbp)
	movq	%r9, -208(%rbp)
	xorl	%eax, %eax
	movq	-120(%rbp), %rdi
	movq	-136(%rbp), %rsi
	movq	-152(%rbp), %rdx
	movq	-160(%rbp), %rcx
	movq	-200(%rbp), %r8
	movq	-208(%rbp), %r9
	movl	$0, (%rsp)
	movl	%eax, -212(%rbp)
	callq	__ZN4core3str7pattern14TwoWaySearcher4next17hbfc34e63c9120467E
	jmp	LBB120_20
LBB120_20:
	jmp	LBB120_9
	.cfi_endproc

	.p2align	4, 0x90
__ZN80_$LT$core..str..pattern..StrSearcher$u20$as$u20$core..str..pattern..Searcher$GT$4next17h82e39c4e4d5b5109E:
	.cfi_startproc
	pushq	%rbp
	.cfi_def_cfa_offset 16
	.cfi_offset %rbp, -16
	movq	%rsp, %rbp
	.cfi_def_cfa_register %rbp
	subq	$288, %rsp
	movq	%rdi, %rax
	movq	32(%rsi), %rcx
	testq	%rcx, %rcx
	movq	%rsi, -128(%rbp)
	movq	%rdi, -136(%rbp)
	movq	%rax, -144(%rbp)
	je	LBB121_3
	jmp	LBB121_29
LBB121_29:
	movq	-128(%rbp), %rax
	addq	$32, %rax
	addq	$8, %rax
	movq	-128(%rbp), %rcx
	movq	72(%rcx), %rdx
	movq	(%rcx), %rdi
	movq	8(%rcx), %rsi
	movq	%rax, -152(%rbp)
	movq	%rdx, -160(%rbp)
	callq	__ZN4core3str21_$LT$impl$u20$str$GT$3len17hefc7d91a6f94b137E
	movq	%rax, -168(%rbp)
	jmp	LBB121_14
	ud2
LBB121_3:
	leaq	l___unnamed_8(%rip), %rax
	movq	-128(%rbp), %rcx
	addq	$32, %rcx
	addq	$8, %rcx
	movq	-128(%rbp), %rdx
	movb	56(%rdx), %sil
	movb	56(%rdx), %dil
	xorb	$-1, %dil
	andb	$1, %dil
	movb	%dil, 56(%rdx)
	movq	40(%rdx), %r8
	movq	(%rdx), %rdi
	movq	8(%rdx), %r9
	movq	%r8, -96(%rbp)
	movq	-96(%rbp), %rdx
	movb	%sil, -169(%rbp)
	movq	%r9, %rsi
	movq	%rcx, -184(%rbp)
	movq	%rax, %rcx
	movq	%r8, -192(%rbp)
	callq	__ZN4core3str6traits66_$LT$impl$u20$core..ops..index..Index$LT$I$GT$$u20$for$u20$str$GT$5index17h06e41757244a06beE
	movq	%rax, -200(%rbp)
	movq	%rdx, -208(%rbp)
	movq	-200(%rbp), %rdi
	movq	-208(%rbp), %rsi
	callq	__ZN4core3str21_$LT$impl$u20$str$GT$5chars17hf1182202f1cec41fE
	movq	%rdx, -104(%rbp)
	movq	%rax, -112(%rbp)
	leaq	-112(%rbp), %rdi
	callq	__ZN75_$LT$core..str..Chars$u20$as$u20$core..iter..traits..iterator..Iterator$GT$4next17h4c94964dc094ab5eE
	movl	%eax, -116(%rbp)
	movb	-169(%rbp), %al
	testb	$1, %al
	jne	LBB121_9
	jmp	LBB121_10
LBB121_7:
	movl	-116(%rbp), %edi
	callq	__ZN4core4char7methods22_$LT$impl$u20$char$GT$8len_utf817h4db2777ed0c7cb46E
	movq	%rax, -216(%rbp)
	jmp	LBB121_12
	ud2
LBB121_9:
	movq	-136(%rbp), %rax
	movq	-192(%rbp), %rcx
	movq	%rcx, 8(%rax)
	movq	%rcx, 16(%rax)
	movq	$0, (%rax)
	jmp	LBB121_13
LBB121_10:
	movl	-116(%rbp), %eax
	addl	$-1114112, %eax
	setne	%cl
	movzbl	%cl, %edx
	movl	%edx, %esi
	je	LBB121_11
	jmp	LBB121_30
LBB121_30:
	jmp	LBB121_7
LBB121_11:
	movq	-136(%rbp), %rax
	movq	$2, (%rax)
	jmp	LBB121_13
LBB121_12:
	movq	-216(%rbp), %rax
	movq	-184(%rbp), %rcx
	addq	(%rcx), %rax
	movq	%rax, (%rcx)
	movq	(%rcx), %rax
	movq	-136(%rbp), %rdx
	movq	-192(%rbp), %rsi
	movq	%rsi, 8(%rdx)
	movq	%rax, 16(%rdx)
	movq	$1, (%rdx)
LBB121_13:
	jmp	LBB121_17
LBB121_14:
	movq	-160(%rbp), %rax
	movq	-168(%rbp), %rcx
	cmpq	%rcx, %rax
	je	LBB121_16
	movq	-152(%rbp), %rax
	movq	48(%rax), %rcx
	subq	$-1, %rcx
	sete	%dl
	movq	-128(%rbp), %rsi
	movq	(%rsi), %rdi
	movq	8(%rsi), %r8
	movq	%rdi, -32(%rbp)
	movq	%r8, -24(%rbp)
	movq	-32(%rbp), %rdi
	movq	-24(%rbp), %r8
	movb	%dl, -217(%rbp)
	movq	%rdi, -232(%rbp)
	movq	%r8, -240(%rbp)
	jmp	LBB121_18
LBB121_16:
	movq	-136(%rbp), %rax
	movq	$2, (%rax)
LBB121_17:
	movq	-144(%rbp), %rax
	addq	$288, %rsp
	popq	%rbp
	retq
LBB121_18:
	movq	-128(%rbp), %rax
	movq	16(%rax), %rcx
	movq	24(%rax), %rdx
	movq	%rcx, -16(%rbp)
	movq	%rdx, -8(%rbp)
	movq	-16(%rbp), %r8
	movq	-8(%rbp), %r9
	movq	%r8, -248(%rbp)
	movq	%r9, -256(%rbp)
	movb	-217(%rbp), %al
	movzbl	%al, %ecx
	andl	$1, %ecx
	movq	%rsp, %rdx
	movl	%ecx, (%rdx)
	leaq	-88(%rbp), %rdi
	movq	-152(%rbp), %rsi
	movq	-232(%rbp), %rdx
	movq	-240(%rbp), %rcx
	movq	-248(%rbp), %r8
	movq	-256(%rbp), %r9
	callq	__ZN4core3str7pattern14TwoWaySearcher4next17hac32a1ede21146beE
	cmpq	$1, -88(%rbp)
	je	LBB121_22
	movq	-88(%rbp), %rax
	movq	%rax, -56(%rbp)
	movq	-80(%rbp), %rax
	movq	%rax, -48(%rbp)
	movq	-72(%rbp), %rax
	movq	%rax, -40(%rbp)
	movq	-56(%rbp), %rax
	movq	-136(%rbp), %rcx
	movq	%rax, (%rcx)
	movq	-48(%rbp), %rax
	movq	%rax, 8(%rcx)
	movq	-40(%rbp), %rax
	movq	%rax, 16(%rcx)
	jmp	LBB121_28
LBB121_22:
	movq	-80(%rbp), %rax
	movq	-72(%rbp), %rcx
	movq	%rcx, -64(%rbp)
	movq	%rax, -264(%rbp)
LBB121_23:
	movq	-128(%rbp), %rax
	movq	(%rax), %rdi
	movq	8(%rax), %rsi
	movq	-64(%rbp), %rdx
	callq	__ZN4core3str21_$LT$impl$u20$str$GT$16is_char_boundary17hedb2b73e98f56da1E
	movb	%al, -265(%rbp)
	movb	-265(%rbp), %al
	xorb	$-1, %al
	testb	$1, %al
	jne	LBB121_26
	movq	-64(%rbp), %rdi
	movq	-152(%rbp), %rax
	movq	32(%rax), %rsi
	callq	__ZN4core3cmp3max17h77507b93da4edbfeE
	movq	%rax, -280(%rbp)
	jmp	LBB121_27
LBB121_26:
	movq	-64(%rbp), %rax
	addq	$1, %rax
	movq	%rax, -64(%rbp)
	jmp	LBB121_23
LBB121_27:
	movq	-152(%rbp), %rax
	movq	-280(%rbp), %rcx
	movq	%rcx, 32(%rax)
	movq	-64(%rbp), %rdx
	movq	-136(%rbp), %rsi
	movq	-264(%rbp), %rdi
	movq	%rdi, 8(%rsi)
	movq	%rdx, 16(%rsi)
	movq	$1, (%rsi)
LBB121_28:
	jmp	LBB121_17
	.cfi_endproc

	.p2align	4, 0x90
__ZN84_$LT$core..str..pattern..MatchOnly$u20$as$u20$core..str..pattern..TwoWayStrategy$GT$16use_early_reject17h2101e4bf1d7e70aeE:
	.cfi_startproc
	pushq	%rbp
	.cfi_def_cfa_offset 16
	.cfi_offset %rbp, -16
	movq	%rsp, %rbp
	.cfi_def_cfa_register %rbp
	xorl	%eax, %eax
	andb	$1, %al
	movzbl	%al, %eax
	popq	%rbp
	retq
	.cfi_endproc

	.p2align	4, 0x90
__ZN84_$LT$core..str..pattern..MatchOnly$u20$as$u20$core..str..pattern..TwoWayStrategy$GT$8matching17hf8054d6899350b26E:
	.cfi_startproc
	pushq	%rbp
	.cfi_def_cfa_offset 16
	.cfi_offset %rbp, -16
	movq	%rsp, %rbp
	.cfi_def_cfa_register %rbp
	subq	$16, %rsp
	movq	%rdi, %rax
	movq	%rsi, -16(%rbp)
	movq	%rdx, -8(%rbp)
	movq	-16(%rbp), %rcx
	movq	-8(%rbp), %rdx
	movq	%rcx, 8(%rdi)
	movq	%rdx, 16(%rdi)
	movq	$1, (%rdi)
	addq	$16, %rsp
	popq	%rbp
	retq
	.cfi_endproc

	.p2align	4, 0x90
__ZN84_$LT$core..str..pattern..MatchOnly$u20$as$u20$core..str..pattern..TwoWayStrategy$GT$9rejecting17h42e0c5143f9486daE:
	.cfi_startproc
	pushq	%rbp
	.cfi_def_cfa_offset 16
	.cfi_offset %rbp, -16
	movq	%rsp, %rbp
	.cfi_def_cfa_register %rbp
	movq	%rdi, %rax
	movq	$0, (%rdi)
	popq	%rbp
	retq
	.cfi_endproc

	.p2align	4, 0x90
__ZN85_$LT$core..slice..Iter$LT$T$GT$$u20$as$u20$core..iter..traits..iterator..Iterator$GT$4next17hd3caf00169db936cE:
	.cfi_startproc
	pushq	%rbp
	.cfi_def_cfa_offset 16
	.cfi_offset %rbp, -16
	movq	%rsp, %rbp
	.cfi_def_cfa_register %rbp
	subq	$80, %rsp
	movq	(%rdi), %rax
	movq	%rdi, -40(%rbp)
	movq	%rax, %rdi
	callq	__ZN4core3ptr8non_null16NonNull$LT$T$GT$6as_ptr17h25d9b5ef5cdf53f1E
	movq	%rax, -48(%rbp)
	movq	-48(%rbp), %rdi
	callq	__ZN4core3ptr7mut_ptr31_$LT$impl$u20$$BP$mut$u20$T$GT$7is_null17h8170430b1f1659dbE
	movq	$1, -24(%rbp)
	movq	-24(%rbp), %rax
	movq	%rax, -56(%rbp)
	movq	-56(%rbp), %rax
	cmpq	$0, %rax
	jne	LBB125_6
	jmp	LBB125_9
LBB125_6:
	movq	-40(%rbp), %rax
	movq	8(%rax), %rdi
	callq	__ZN4core3ptr9const_ptr33_$LT$impl$u20$$BP$const$u20$T$GT$7is_null17h31189ecefb215edaE
	jmp	LBB125_9
LBB125_9:
	movq	-40(%rbp), %rax
	movq	(%rax), %rdi
	callq	__ZN4core3ptr8non_null16NonNull$LT$T$GT$6as_ptr17h25d9b5ef5cdf53f1E
	movq	%rax, -64(%rbp)
	movq	-64(%rbp), %rax
	movq	-40(%rbp), %rcx
	cmpq	8(%rcx), %rax
	je	LBB125_15
	movq	$1, -8(%rbp)
	cmpq	$0, -8(%rbp)
	je	LBB125_13
	movq	-40(%rbp), %rax
	movq	(%rax), %rdi
	callq	__ZN4core3ptr8non_null16NonNull$LT$T$GT$6as_ptr17h25d9b5ef5cdf53f1E
	movq	-40(%rbp), %rcx
	movq	(%rcx), %rdi
	movq	%rax, -72(%rbp)
	callq	__ZN4core3ptr8non_null16NonNull$LT$T$GT$6as_ptr17h25d9b5ef5cdf53f1E
	movq	%rax, %rdi
	movl	$1, %esi
	callq	__ZN4core3ptr7mut_ptr31_$LT$impl$u20$$BP$mut$u20$T$GT$6offset17hd00bdc99100dfadbE
	movq	%rax, %rdi
	callq	__ZN4core3ptr8non_null16NonNull$LT$T$GT$13new_unchecked17h98f24dd71f344587E
	movq	-40(%rbp), %rcx
	movq	%rax, (%rcx)
	movq	-72(%rbp), %rax
	movq	%rax, -16(%rbp)
	jmp	LBB125_14
LBB125_13:
	movq	-40(%rbp), %rax
	movq	8(%rax), %rdi
	movq	$-1, %rsi
	callq	__ZN4core3ptr9const_ptr33_$LT$impl$u20$$BP$const$u20$T$GT$15wrapping_offset17h97552beb9042417fE
	movq	-40(%rbp), %rcx
	movq	%rax, 8(%rcx)
	movq	(%rcx), %rdi
	callq	__ZN4core3ptr8non_null16NonNull$LT$T$GT$6as_ptr17h25d9b5ef5cdf53f1E
	movq	%rax, -16(%rbp)
LBB125_14:
	movq	-16(%rbp), %rax
	movq	%rax, -80(%rbp)
	jmp	LBB125_16
LBB125_15:
	movq	$0, -32(%rbp)
	jmp	LBB125_17
LBB125_16:
	movq	-80(%rbp), %rax
	movq	%rax, -32(%rbp)
LBB125_17:
	movq	-32(%rbp), %rax
	addq	$80, %rsp
	popq	%rbp
	retq
	.cfi_endproc

	.p2align	4, 0x90
__ZN89_$LT$core..str..pattern..RejectAndMatch$u20$as$u20$core..str..pattern..TwoWayStrategy$GT$16use_early_reject17hdd1c783c2350fb54E:
	.cfi_startproc
	pushq	%rbp
	.cfi_def_cfa_offset 16
	.cfi_offset %rbp, -16
	movq	%rsp, %rbp
	.cfi_def_cfa_register %rbp
	movb	$1, %al
	andb	$1, %al
	movzbl	%al, %eax
	popq	%rbp
	retq
	.cfi_endproc

	.p2align	4, 0x90
__ZN89_$LT$core..str..pattern..RejectAndMatch$u20$as$u20$core..str..pattern..TwoWayStrategy$GT$8matching17he0f845bec9fc2dabE:
	.cfi_startproc
	pushq	%rbp
	.cfi_def_cfa_offset 16
	.cfi_offset %rbp, -16
	movq	%rsp, %rbp
	.cfi_def_cfa_register %rbp
	movq	%rdi, %rax
	movq	%rsi, 8(%rdi)
	movq	%rdx, 16(%rdi)
	movq	$0, (%rdi)
	popq	%rbp
	retq
	.cfi_endproc

	.p2align	4, 0x90
__ZN89_$LT$core..str..pattern..RejectAndMatch$u20$as$u20$core..str..pattern..TwoWayStrategy$GT$9rejecting17h53a4434d4d06a02dE:
	.cfi_startproc
	pushq	%rbp
	.cfi_def_cfa_offset 16
	.cfi_offset %rbp, -16
	movq	%rsp, %rbp
	.cfi_def_cfa_register %rbp
	movq	%rdi, %rax
	movq	%rsi, 8(%rdi)
	movq	%rdx, 16(%rdi)
	movq	$1, (%rdi)
	popq	%rbp
	retq
	.cfi_endproc

	.p2align	4, 0x90
__ZN93_$LT$core..iter..adapters..Rev$LT$I$GT$$u20$as$u20$core..iter..traits..iterator..Iterator$GT$4next17h62a5c17be0f21adcE:
	.cfi_startproc
	pushq	%rbp
	.cfi_def_cfa_offset 16
	.cfi_offset %rbp, -16
	movq	%rsp, %rbp
	.cfi_def_cfa_register %rbp
	subq	$16, %rsp
	callq	__ZN4core4iter5range116_$LT$impl$u20$core..iter..traits..double_ended..DoubleEndedIterator$u20$for$u20$core..ops..range..Range$LT$A$GT$$GT$9next_back17h5c8154b48d7f5b50E
	movq	%rax, -8(%rbp)
	movq	%rdx, -16(%rbp)
	movq	-8(%rbp), %rax
	movq	-16(%rbp), %rdx
	addq	$16, %rsp
	popq	%rbp
	retq
	.cfi_endproc

	.p2align	4, 0x90
__ZN18build_script_build4main17hdc36398ab7334c3cE:
Lfunc_begin10:
	.cfi_startproc
	.cfi_personality 155, _rust_eh_personality
	.cfi_lsda 16, Lexception10
	pushq	%rbp
	.cfi_def_cfa_offset 16
	.cfi_offset %rbp, -16
	movq	%rsp, %rbp
	.cfi_def_cfa_register %rbp
	subq	$160, %rsp
	leaq	l___unnamed_9(%rip), %rax
	leaq	-96(%rbp), %rdi
	movq	%rax, %rsi
	movl	$6, %edx
	callq	__ZN3std3env3var17h1c2ce61f2dc18c0eE
	jmp	LBB130_2
LBB130_1:
	movq	-16(%rbp), %rdi
	callq	__Unwind_Resume
	ud2
LBB130_2:
	leaq	l___unnamed_10(%rip), %rax
	leaq	l___unnamed_11(%rip), %rcx
	leaq	-120(%rbp), %rdi
	leaq	-96(%rbp), %rsi
	movq	%rax, %rdx
	movl	$39, %eax
	movq	%rcx, -136(%rbp)
	movq	%rax, %rcx
	movq	-136(%rbp), %r8
	callq	__ZN4core6result19Result$LT$T$C$E$GT$6expect17h4c133fc653824379E
Ltmp36:
	leaq	-120(%rbp), %rdi
	callq	__ZN65_$LT$alloc..string..String$u20$as$u20$core..ops..deref..Deref$GT$5deref17he75986160ea3d7f9E
Ltmp37:
	movq	%rdx, -144(%rbp)
	movq	%rax, -152(%rbp)
	jmp	LBB130_4
LBB130_4:
Ltmp38:
	leaq	L___unnamed_12(%rip), %rdx
	movl	$4, %ecx
	movq	-152(%rbp), %rdi
	movq	-144(%rbp), %rsi
	callq	__ZN4core3str21_$LT$impl$u20$str$GT$8contains17h8b4b31cd98f65551E
Ltmp39:
	movb	%al, -153(%rbp)
	jmp	LBB130_6
LBB130_5:
	leaq	-120(%rbp), %rdi
	callq	__ZN4core3ptr13drop_in_place17h00df796a9f290431E
	jmp	LBB130_1
LBB130_6:
	movb	-153(%rbp), %al
	testb	$1, %al
	jne	LBB130_8
	jmp	LBB130_7
LBB130_7:
	jmp	LBB130_11
LBB130_8:
	movq	l___unnamed_13(%rip), %rsi
	movq	l___unnamed_14(%rip), %rcx
Ltmp40:
	xorl	%eax, %eax
	movl	%eax, %r8d
	leaq	-64(%rbp), %rdi
	movl	$1, %edx
	callq	__ZN4core3fmt9Arguments6new_v117h05498da49179694dE
Ltmp41:
	jmp	LBB130_9
LBB130_9:
Ltmp42:
	leaq	-64(%rbp), %rdi
	callq	__ZN3std2io5stdio6_print17h84d1497a7551d848E
Ltmp43:
	jmp	LBB130_10
LBB130_10:
	jmp	LBB130_11
LBB130_11:
	leaq	-120(%rbp), %rdi
	callq	__ZN4core3ptr13drop_in_place17h00df796a9f290431E
	addq	$160, %rsp
	popq	%rbp
	retq
LBB130_13:
Ltmp44:
	movq	%rax, -16(%rbp)
	movl	%edx, -8(%rbp)
	jmp	LBB130_5
Lfunc_end10:
	.cfi_endproc
	.section	__TEXT,__gcc_except_tab
	.p2align	2
GCC_except_table130:
Lexception10:
	.byte	255
	.byte	255
	.byte	1
	.uleb128 Lcst_end10-Lcst_begin10
Lcst_begin10:
	.uleb128 Lfunc_begin10-Lfunc_begin10
	.uleb128 Ltmp36-Lfunc_begin10
	.byte	0
	.byte	0
	.uleb128 Ltmp36-Lfunc_begin10
	.uleb128 Ltmp39-Ltmp36
	.uleb128 Ltmp44-Lfunc_begin10
	.byte	0
	.uleb128 Ltmp39-Lfunc_begin10
	.uleb128 Ltmp40-Ltmp39
	.byte	0
	.byte	0
	.uleb128 Ltmp40-Lfunc_begin10
	.uleb128 Ltmp43-Ltmp40
	.uleb128 Ltmp44-Lfunc_begin10
	.byte	0
	.uleb128 Ltmp43-Lfunc_begin10
	.uleb128 Lfunc_end10-Ltmp43
	.byte	0
	.byte	0
Lcst_end10:
	.p2align	2

	.section	__TEXT,__text,regular,pure_instructions
	.globl	_main
	.p2align	4, 0x90
_main:
	.cfi_startproc
	pushq	%rbp
	.cfi_def_cfa_offset 16
	.cfi_offset %rbp, -16
	movq	%rsp, %rbp
	.cfi_def_cfa_register %rbp
	subq	$16, %rsp
	movslq	%edi, %rax
	leaq	__ZN18build_script_build4main17hdc36398ab7334c3cE(%rip), %rdi
	movq	%rsi, -8(%rbp)
	movq	%rax, %rsi
	movq	-8(%rbp), %rdx
	callq	__ZN3std2rt10lang_start17h64f913b6fbd097e5E
	addq	$16, %rsp
	popq	%rbp
	retq
	.cfi_endproc

	.section	__DATA,__const
	.p2align	3
l___unnamed_1:
	.quad	__ZN4core3ptr13drop_in_place17h4060f618d460995aE
	.quad	8
	.quad	8
	.quad	__ZN3std2rt10lang_start28_$u7b$$u7b$closure$u7d$$u7d$17h66bb66a819862e9eE
	.quad	__ZN3std2rt10lang_start28_$u7b$$u7b$closure$u7d$$u7d$17h66bb66a819862e9eE
	.quad	__ZN4core3ops8function6FnOnce40call_once$u7b$$u7b$vtable.shim$u7d$$u7d$17h019ca7cfaf20f1cfE

	.section	__TEXT,__const
l___unnamed_15:
	.ascii	"/rustc/6c8927b0cf80ceee19386026cf9d7fd4fd9d486f/src/libcore/str/mod.rs"

	.section	__DATA,__const
	.p2align	3
l___unnamed_2:
	.quad	l___unnamed_15
	.asciz	"F\000\000\000\000\000\000\000\027\b\000\000/\000\000"

	.section	__TEXT,__const
l___unnamed_16:
	.ascii	"/rustc/6c8927b0cf80ceee19386026cf9d7fd4fd9d486f/src/libcore/str/pattern.rs"

	.section	__DATA,__const
	.p2align	3
l___unnamed_3:
	.quad	l___unnamed_16
	.asciz	"J\000\000\000\000\000\000\0004\005\000\000\024\000\000"

	.p2align	3
l___unnamed_4:
	.quad	l___unnamed_16
	.asciz	"J\000\000\000\000\000\000\0004\005\000\000!\000\000"

	.p2align	3
l___unnamed_5:
	.quad	l___unnamed_16
	.asciz	"J\000\000\000\000\000\000\000@\005\000\000\024\000\000"

	.p2align	3
l___unnamed_6:
	.quad	l___unnamed_16
	.asciz	"J\000\000\000\000\000\000\000@\005\000\000!\000\000"

	.p2align	3
l___unnamed_7:
	.quad	__ZN4core3ptr13drop_in_place17he7e10f59fbe7e031E
	.quad	24
	.quad	8
	.quad	__ZN55_$LT$std..env..VarError$u20$as$u20$core..fmt..Debug$GT$3fmt17hd989a661295131d7E

	.p2align	3
l___unnamed_8:
	.quad	l___unnamed_16
	.asciz	"J\000\000\000\000\000\000\000\315\003\000\000\027\000\000"

	.section	__TEXT,__const
l___unnamed_9:
	.ascii	"TARGET"

l___unnamed_10:
	.ascii	"TARGET environment variable not defined"

l___unnamed_17:
	.ascii	"/Users/yingyuhang/.cargo/registry/src/github.com-1ecc6299db9ec823/packed_simd-0.3.3/build.rs"

	.section	__DATA,__const
	.p2align	3
l___unnamed_11:
	.quad	l___unnamed_17
	.asciz	"\\\000\000\000\000\000\000\000\003\000\000\000\n\000\000"

	.section	__TEXT,__literal4,4byte_literals
L___unnamed_12:
	.ascii	"neon"

	.section	__TEXT,__const
l___unnamed_18:
	.ascii	"cargo:rustc-cfg=libcore_neon\n"

	.section	__DATA,__const
	.p2align	3
l___unnamed_19:
	.quad	l___unnamed_18
	.asciz	"\035\000\000\000\000\000\000"

	.p2align	3
l___unnamed_13:
	.quad	l___unnamed_19

	.section	__TEXT,__const
	.p2align	3
l___unnamed_20:
	.byte	0

	.section	__DATA,__const
	.p2align	3
l___unnamed_14:
	.quad	l___unnamed_20

.subsections_via_symbols
