	.section	__TEXT,__text,regular,pure_instructions
	.macosx_version_min 10, 7
	.p2align	4, 0x90
__ZN112_$LT$alloc..collections..btree..map..IntoIter$LT$K$C$V$GT$$u20$as$u20$core..iter..traits..iterator..Iterator$GT$4next17hfcc59fd388c6e27fE:
Lfunc_begin0:
	.file	1 "/rustc/a74d1862d4d87a56244958416fd05976c58ca1a8/src/liballoc/collections/btree/map.rs"
	.loc	1 1598 0
	.cfi_startproc
	pushq	%rbp
	.cfi_def_cfa_offset 16
	.cfi_offset %rbp, -16
	movq	%rsp, %rbp
	.cfi_def_cfa_register %rbp
	pushq	%r15
	pushq	%r14
	pushq	%r13
	pushq	%r12
	pushq	%rbx
	subq	$120, %rsp
	.cfi_offset %rbx, -56
	.cfi_offset %r12, -48
	.cfi_offset %r13, -40
	.cfi_offset %r14, -32
	.cfi_offset %r15, -24
	movq	%rdi, %r9
Ltmp0:
	.loc	1 1599 12 prologue_end
	movq	64(%rsi), %rax
	testq	%rax, %rax
	.loc	1 1599 9 is_stmt 0
	je	LBB0_21
Ltmp1:
	.loc	1 0 9
	movq	%rsi, %r12
Ltmp2:
	.loc	1 1602 13 is_stmt 1
	decq	%rax
	movq	%rax, 64(%rsi)
Ltmp3:
	.file	2 "/rustc/a74d1862d4d87a56244958416fd05976c58ca1a8/src/libcore/option.rs"
	.loc	2 291 13
	movq	8(%rsi), %rax
	testq	%rax, %rax
	cmoveq	%rax, %r12
Ltmp4:
	.loc	2 387 13
	je	LBB0_23
Ltmp5:
	.file	3 "/rustc/a74d1862d4d87a56244958416fd05976c58ca1a8/src/libcore/ptr/mod.rs"
	.loc	3 651 5
	movq	(%r12), %rax
Ltmp6:
	movq	8(%r12), %rdi
Ltmp7:
	movq	16(%r12), %r10
Ltmp8:
	movq	24(%r12), %r13
Ltmp9:
	.file	4 "/rustc/a74d1862d4d87a56244958416fd05976c58ca1a8/src/liballoc/collections/btree/node.rs"
	.loc	4 293 9
	movzwl	10(%rdi), %ecx
Ltmp10:
	.loc	4 814 12
	cmpq	%rcx, %r13
	.loc	4 814 9 is_stmt 0
	jae	LBB0_4
Ltmp11:
	.file	5 "/rustc/a74d1862d4d87a56244958416fd05976c58ca1a8/src/liballoc/collections/btree/navigate.rs"
	.loc	5 0 0
	movq	%rax, %rbx
Ltmp12:
	jmp	LBB0_10
Ltmp13:
LBB0_21:
	.loc	1 1600 13 is_stmt 1
	movq	$0, (%r9)
	jmp	LBB0_22
Ltmp14:
LBB0_4:
	.loc	1 0 13 is_stmt 0
	movq	%r10, -48(%rbp)
Ltmp15:
	movq	%r9, -56(%rbp)
	movl	$544, %r15d
Ltmp16:
	.loc	4 344 30 is_stmt 1
	movq	(%rdi), %r14
Ltmp17:
	.loc	4 345 16
	testq	%r14, %r14
	je	LBB0_6
Ltmp18:
	.p2align	4, 0x90
LBB0_7:
	.loc	4 348 29
	leaq	1(%rax), %rbx
Ltmp19:
	.loc	4 353 43
	movzwl	8(%rdi), %r13d
Ltmp20:
LBB0_8:
	.loc	4 397 16
	testq	%rax, %rax
	.loc	4 397 13 is_stmt 0
	movl	$640, %esi
	cmoveq	%r15, %rsi
Ltmp21:
	.file	6 "/rustc/a74d1862d4d87a56244958416fd05976c58ca1a8/src/liballoc/alloc.rs"
	.loc	6 102 5 is_stmt 1
	movl	$8, %edx
	callq	___rust_dealloc
Ltmp22:
	.loc	4 293 9
	movzwl	10(%r14), %ecx
	movq	%rbx, %rax
	movq	%r14, %rdi
Ltmp23:
	.loc	4 814 12
	cmpq	%rcx, %r13
	.loc	4 814 9 is_stmt 0
	jb	LBB0_9
Ltmp24:
	.loc	4 344 30 is_stmt 1
	movq	(%rdi), %r14
Ltmp25:
	.loc	4 345 16
	testq	%r14, %r14
	jne	LBB0_7
Ltmp26:
LBB0_6:
	.loc	4 0 16 is_stmt 0
	movq	%rax, %rbx
Ltmp27:
	xorl	%r14d, %r14d
Ltmp28:
	jmp	LBB0_8
Ltmp29:
LBB0_9:
	movq	%r14, %rdi
	movq	-56(%rbp), %r9
	movq	-48(%rbp), %r10
Ltmp30:
LBB0_10:
	.loc	4 975 13 is_stmt 1
	leaq	(%r13,%r13,2), %rax
Ltmp31:
	.loc	3 651 5
	movq	32(%rdi,%rax,8), %rcx
	movq	%rcx, -64(%rbp)
	movq	16(%rdi,%rax,8), %rcx
	movq	24(%rdi,%rax,8), %rdx
	movq	%rdx, -72(%rbp)
	movq	%rcx, -80(%rbp)
Ltmp32:
	.loc	3 651 5 is_stmt 0
	movq	296(%rdi,%rax,8), %rcx
	movq	%rcx, -88(%rbp)
	movq	280(%rdi,%rax,8), %rcx
	movq	288(%rdi,%rax,8), %rax
	movq	%rax, -96(%rbp)
	movq	%rcx, -104(%rbp)
Ltmp33:
	.loc	4 680 12 is_stmt 1
	testq	%rbx, %rbx
Ltmp34:
	.loc	5 223 13
	je	LBB0_11
Ltmp35:
	.loc	4 680 12
	movq	%rbx, %rax
Ltmp36:
	.loc	4 963 17
	movq	552(%rdi,%r13,8), %rdi
Ltmp37:
	.loc	4 680 12
	decq	%rax
Ltmp38:
	.loc	5 199 17
	je	LBB0_13
Ltmp39:
	addq	$-2, %rbx
Ltmp40:
	movq	%rax, %rcx
	andq	$7, %rcx
	je	LBB0_18
Ltmp41:
	.loc	5 0 17 is_stmt 0
	xorl	%edx, %edx
Ltmp42:
	.p2align	4, 0x90
LBB0_16:
	movq	544(%rdi), %rdi
Ltmp43:
	.loc	5 199 17
	incq	%rdx
	cmpq	%rdx, %rcx
	jne	LBB0_16
Ltmp44:
	subq	%rdx, %rax
Ltmp45:
LBB0_18:
	.loc	5 0 17
	xorl	%r13d, %r13d
Ltmp46:
	.loc	5 199 17
	cmpq	$7, %rbx
	jb	LBB0_20
Ltmp47:
	.p2align	4, 0x90
LBB0_19:
	.loc	5 0 0
	movq	544(%rdi), %rcx
Ltmp48:
	movq	544(%rcx), %rcx
Ltmp49:
	movq	544(%rcx), %rcx
Ltmp50:
	movq	544(%rcx), %rcx
Ltmp51:
	movq	544(%rcx), %rcx
Ltmp52:
	movq	544(%rcx), %rcx
Ltmp53:
	movq	544(%rcx), %rcx
Ltmp54:
	movq	544(%rcx), %rdi
Ltmp55:
	.loc	4 680 12 is_stmt 1
	addq	$-8, %rax
Ltmp56:
	.loc	5 199 17
	jne	LBB0_19
	jmp	LBB0_20
Ltmp57:
LBB0_11:
	.loc	5 0 17 is_stmt 0
	incq	%r13
Ltmp58:
	jmp	LBB0_20
Ltmp59:
LBB0_13:
	xorl	%r13d, %r13d
Ltmp60:
LBB0_20:
	.loc	5 166 36 is_stmt 1
	movq	-64(%rbp), %r8
	movq	%r8, -136(%rbp)
	movq	-80(%rbp), %rcx
	movq	-72(%rbp), %rdx
	movq	%rdx, -144(%rbp)
	movq	%rcx, -152(%rbp)
	.loc	5 166 35 is_stmt 0
	movq	-104(%rbp), %rsi
	movq	-96(%rbp), %rbx
	movq	%rsi, -128(%rbp)
	movq	%rbx, -120(%rbp)
	movq	-88(%rbp), %rax
	movq	%rax, -112(%rbp)
	.loc	5 166 13
	movq	%rax, 40(%r9)
	movq	%rbx, 32(%r9)
	movq	%rsi, 24(%r9)
	movq	%r8, 16(%r9)
	movq	%rdx, 8(%r9)
	movq	%rcx, (%r9)
Ltmp61:
	.loc	3 836 42 is_stmt 1
	movq	$0, (%r12)
	movq	%rdi, 8(%r12)
	movq	%r10, 16(%r12)
	movq	%r13, 24(%r12)
Ltmp62:
LBB0_22:
	.loc	1 1605 6
	addq	$120, %rsp
	popq	%rbx
	popq	%r12
	popq	%r13
	popq	%r14
	popq	%r15
	popq	%rbp
	retq
LBB0_23:
Ltmp63:
	.file	7 "/rustc/a74d1862d4d87a56244958416fd05976c58ca1a8/src/libcore/macros/mod.rs"
	.loc	7 10 9
	leaq	l___unnamed_3(%rip), %rdi
	leaq	l___unnamed_4(%rip), %rdx
	movl	$43, %esi
	callq	__ZN4core9panicking5panic17h736ee47a631475c0E
Ltmp64:
Lfunc_end0:
	.cfi_endproc
	.file	8 "/rustc/a74d1862d4d87a56244958416fd05976c58ca1a8/src/libcore/result.rs"

	.private_extern	__ZN3std2rt10lang_start17hd75a13b33b925fc4E
	.globl	__ZN3std2rt10lang_start17hd75a13b33b925fc4E
	.p2align	4, 0x90
__ZN3std2rt10lang_start17hd75a13b33b925fc4E:
Lfunc_begin1:
	.file	9 "/rustc/a74d1862d4d87a56244958416fd05976c58ca1a8/src/libstd/rt.rs"
	.loc	9 62 0
	.cfi_startproc
	pushq	%rbp
	.cfi_def_cfa_offset 16
	.cfi_offset %rbp, -16
	movq	%rsp, %rbp
	.cfi_def_cfa_register %rbp
	subq	$16, %rsp
	movq	%rdx, %rcx
Ltmp65:
	movq	%rsi, %rdx
Ltmp66:
	.loc	9 67 26 prologue_end
	movq	%rdi, -8(%rbp)
	.loc	9 67 5 is_stmt 0
	leaq	l___unnamed_1(%rip), %rsi
	leaq	-8(%rbp), %rdi
Ltmp67:
	callq	__ZN3std2rt19lang_start_internal17hebefdaa8fd585aefE
Ltmp68:
	.loc	9 68 2 is_stmt 1
	addq	$16, %rsp
	popq	%rbp
	retq
Ltmp69:
Lfunc_end1:
	.cfi_endproc

	.p2align	4, 0x90
__ZN3std2rt10lang_start28_$u7b$$u7b$closure$u7d$$u7d$17h921f586b0a031a02E:
Lfunc_begin2:
	.loc	9 67 0
	.cfi_startproc
	pushq	%rbp
	.cfi_def_cfa_offset 16
	.cfi_offset %rbp, -16
	movq	%rsp, %rbp
	.cfi_def_cfa_register %rbp
Ltmp70:
	.loc	9 67 34 prologue_end
	callq	*(%rdi)
Ltmp71:
	.loc	9 67 49 is_stmt 0
	xorl	%eax, %eax
	popq	%rbp
	retq
Ltmp72:
Lfunc_end2:
	.cfi_endproc

	.p2align	4, 0x90
__ZN44_$LT$$RF$T$u20$as$u20$core..fmt..Display$GT$3fmt17hc046e4b0953c2ffbE:
Lfunc_begin3:
	.file	10 "/rustc/a74d1862d4d87a56244958416fd05976c58ca1a8/src/libcore/fmt/mod.rs"
	.loc	10 1973 0 is_stmt 1
	.cfi_startproc
	pushq	%rbp
	.cfi_def_cfa_offset 16
	.cfi_offset %rbp, -16
	movq	%rsp, %rbp
	.cfi_def_cfa_register %rbp
	movq	%rsi, %rdx
Ltmp73:
	.loc	10 1973 71 prologue_end
	movq	(%rdi), %rax
	movq	8(%rdi), %rsi
	.loc	10 1973 62 is_stmt 0
	movq	%rax, %rdi
Ltmp74:
	popq	%rbp
	jmp	__ZN42_$LT$str$u20$as$u20$core..fmt..Display$GT$3fmt17hd4dee1c1c4ccf892E
Ltmp75:
Lfunc_end3:
	.cfi_endproc

	.p2align	4, 0x90
__ZN4core3ops8function6FnOnce40call_once$u7b$$u7b$vtable.shim$u7d$$u7d$17h498352de714b87aeE:
Lfunc_begin4:
	.file	11 "/rustc/a74d1862d4d87a56244958416fd05976c58ca1a8/src/libcore/ops/function.rs"
	.loc	11 232 0 is_stmt 1
	.cfi_startproc
	pushq	%rbp
	.cfi_def_cfa_offset 16
	.cfi_offset %rbp, -16
	movq	%rsp, %rbp
	.cfi_def_cfa_register %rbp
Ltmp76:
	.loc	9 67 34 prologue_end
	callq	*(%rdi)
Ltmp77:
	.loc	11 232 5
	xorl	%eax, %eax
	popq	%rbp
	retq
Ltmp78:
Lfunc_end4:
	.cfi_endproc

	.p2align	4, 0x90
__ZN4core3ptr13drop_in_place17h10c7e942e4dbabf5E:
Lfunc_begin5:
	.loc	3 178 0
	.cfi_startproc
	pushq	%rbp
	.cfi_def_cfa_offset 16
	.cfi_offset %rbp, -16
	movq	%rsp, %rbp
	.cfi_def_cfa_register %rbp
Ltmp79:
	.loc	3 178 1 prologue_end
	movq	(%rdi), %rax
Ltmp80:
	testq	%rax, %rax
	je	LBB5_2
Ltmp81:
	.file	12 "/rustc/a74d1862d4d87a56244958416fd05976c58ca1a8/src/libstd/ffi/c_str.rs"
	.loc	12 645 13
	movb	$0, (%rax)
Ltmp82:
	.loc	3 178 1
	movq	8(%rdi), %rsi
Ltmp83:
	.loc	6 185 12
	testq	%rsi, %rsi
	.loc	6 185 9 is_stmt 0
	je	LBB5_2
Ltmp84:
	.loc	3 178 1 is_stmt 1
	movq	(%rdi), %rdi
Ltmp85:
	.loc	6 102 5
	movl	$1, %edx
	popq	%rbp
	jmp	___rust_dealloc
Ltmp86:
LBB5_2:
	.loc	3 178 1
	popq	%rbp
	retq
Ltmp87:
Lfunc_end5:
	.cfi_endproc

	.p2align	4, 0x90
__ZN4core3ptr13drop_in_place17h150bb2a47a1e47ceE:
Lfunc_begin6:
	.loc	3 178 0
	.cfi_startproc
	pushq	%rbp
	.cfi_def_cfa_offset 16
	.cfi_offset %rbp, -16
	movq	%rsp, %rbp
	.cfi_def_cfa_register %rbp
Ltmp88:
	.loc	3 178 1 prologue_end
	cmpl	$3, (%rdi)
	jne	LBB6_1
Ltmp89:
	.loc	3 178 1 is_stmt 0
	addq	$4, %rdi
Ltmp90:
	.loc	3 178 1
	popq	%rbp
	jmp	__ZN70_$LT$std..sys..unix..fd..FileDesc$u20$as$u20$core..ops..drop..Drop$GT$4drop17hf5fce2bf4d9f8deaE
Ltmp91:
LBB6_1:
	.loc	3 178 1
	popq	%rbp
	retq
Ltmp92:
Lfunc_end6:
	.cfi_endproc

	.p2align	4, 0x90
__ZN4core3ptr13drop_in_place17h18506302585bd4cdE:
Lfunc_begin7:
	.loc	3 178 0 is_stmt 1
	.cfi_startproc
	pushq	%rbp
	.cfi_def_cfa_offset 16
	.cfi_offset %rbp, -16
	movq	%rsp, %rbp
	.cfi_def_cfa_register %rbp
Ltmp93:
	.loc	3 178 1 prologue_end
	cmpq	$0, (%rdi)
	je	LBB7_3
Ltmp94:
	.loc	3 0 1 is_stmt 0
	movq	%rdi, %rax
Ltmp95:
	.loc	3 178 1
	movq	8(%rdi), %rdi
Ltmp96:
	.file	13 "/rustc/a74d1862d4d87a56244958416fd05976c58ca1a8/src/liballoc/raw_vec.rs"
	.loc	13 532 16 is_stmt 1
	testq	%rdi, %rdi
Ltmp97:
	.loc	13 200 9
	je	LBB7_3
Ltmp98:
	.loc	3 0 0 is_stmt 0
	movq	16(%rax), %rsi
Ltmp99:
	.loc	13 200 9
	testq	%rsi, %rsi
	je	LBB7_3
Ltmp100:
	.loc	6 102 5 is_stmt 1
	movl	$1, %edx
	popq	%rbp
	jmp	___rust_dealloc
Ltmp101:
LBB7_3:
	.loc	3 178 1
	popq	%rbp
	retq
Ltmp102:
Lfunc_end7:
	.cfi_endproc

	.p2align	4, 0x90
__ZN4core3ptr13drop_in_place17h375a3637a235a262E:
Lfunc_begin8:
	.loc	3 178 0
	.cfi_startproc
	pushq	%rbp
	.cfi_def_cfa_offset 16
	.cfi_offset %rbp, -16
	movq	%rsp, %rbp
	.cfi_def_cfa_register %rbp
	movq	%rdi, %rax
Ltmp103:
	.loc	3 178 1 prologue_end
	movq	(%rdi), %rdi
Ltmp104:
	.loc	13 532 16
	testq	%rdi, %rdi
Ltmp105:
	.loc	13 200 9
	je	LBB8_2
Ltmp106:
	.loc	3 0 0 is_stmt 0
	movq	8(%rax), %rsi
Ltmp107:
	.loc	13 200 9
	testq	%rsi, %rsi
	je	LBB8_2
Ltmp108:
	.loc	6 102 5 is_stmt 1
	movl	$1, %edx
	popq	%rbp
	jmp	___rust_dealloc
Ltmp109:
LBB8_2:
	.loc	3 178 1
	popq	%rbp
	retq
Ltmp110:
Lfunc_end8:
	.cfi_endproc

	.p2align	4, 0x90
__ZN4core3ptr13drop_in_place17h39652c80df70f616E:
Lfunc_begin9:
	.loc	3 178 0
	.cfi_startproc
	pushq	%rbp
	.cfi_def_cfa_offset 16
	.cfi_offset %rbp, -16
	movq	%rsp, %rbp
	.cfi_def_cfa_register %rbp
	movq	%rdi, %rax
Ltmp111:
	.loc	3 178 1 prologue_end
	movq	(%rdi), %rdi
Ltmp112:
	testq	%rdi, %rdi
	je	LBB9_2
Ltmp113:
	.loc	3 178 1 is_stmt 0
	movq	8(%rax), %rsi
Ltmp114:
	.loc	13 200 40 is_stmt 1
	testq	%rsi, %rsi
	.loc	13 200 9 is_stmt 0
	je	LBB9_2
Ltmp115:
	.loc	6 102 5 is_stmt 1
	movl	$1, %edx
	popq	%rbp
	jmp	___rust_dealloc
Ltmp116:
LBB9_2:
	.loc	3 178 1
	popq	%rbp
	retq
Ltmp117:
Lfunc_end9:
	.cfi_endproc

	.p2align	4, 0x90
__ZN4core3ptr13drop_in_place17h9d731892493b789eE:
Lfunc_begin10:
	.loc	3 178 0
	.cfi_startproc
	pushq	%rbp
	.cfi_def_cfa_offset 16
	.cfi_offset %rbp, -16
	movq	%rsp, %rbp
	.cfi_def_cfa_register %rbp
Ltmp118:
	.loc	3 178 1 prologue_end
	popq	%rbp
	retq
Ltmp119:
Lfunc_end10:
	.cfi_endproc

	.p2align	4, 0x90
__ZN4core3ptr13drop_in_place17hb54c411653ba6186E:
Lfunc_begin11:
	.loc	3 178 0
	.cfi_startproc
	.cfi_personality 155, _rust_eh_personality
	.cfi_lsda 16, Lexception0
	pushq	%rbp
	.cfi_def_cfa_offset 16
	.cfi_offset %rbp, -16
	movq	%rsp, %rbp
	.cfi_def_cfa_register %rbp
	pushq	%r15
	pushq	%r14
	pushq	%r13
	pushq	%r12
	pushq	%rbx
	pushq	%rax
	.cfi_offset %rbx, -56
	.cfi_offset %r12, -48
	.cfi_offset %r13, -40
	.cfi_offset %r14, -32
	.cfi_offset %r15, -24
	movq	%rdi, %r14
Ltmp126:
	.file	14 "/rustc/a74d1862d4d87a56244958416fd05976c58ca1a8/src/liballoc/vec.rs"
	.loc	14 850 19 prologue_end
	movq	(%rdi), %rbx
Ltmp127:
	.loc	14 2384 81
	movq	16(%rdi), %r12
Ltmp128:
	.loc	3 178 1
	testq	%r12, %r12
	je	LBB11_7
Ltmp129:
	.loc	3 0 0 is_stmt 0
	shlq	$4, %r12
Ltmp130:
	leaq	(%rbx,%r12), %r15
Ltmp131:
	.loc	3 178 1
	addq	$-16, %r12
	addq	$16, %rbx
Ltmp132:
	.loc	3 0 1
	jmp	LBB11_2
Ltmp133:
	.p2align	4, 0x90
LBB11_5:
	.loc	3 178 1
	addq	$-16, %r12
	addq	$16, %rbx
	addq	$16, %r13
	cmpq	%r15, %r13
	je	LBB11_6
Ltmp134:
LBB11_2:
	.loc	3 178 1
	movq	-16(%rbx), %rdi
	movq	-8(%rbx), %rax
Ltmp120:
	callq	*(%rax)
Ltmp121:
Ltmp135:
	leaq	-16(%rbx), %r13
	movq	8(%r13), %rax
Ltmp136:
	.loc	6 282 16 is_stmt 1
	movq	8(%rax), %rsi
Ltmp137:
	.loc	6 185 12
	testq	%rsi, %rsi
	.loc	6 185 9 is_stmt 0
	je	LBB11_5
Ltmp138:
	.loc	3 178 1 is_stmt 1
	movq	-16(%rbx), %rdi
Ltmp139:
	.loc	6 283 17
	movq	16(%rax), %rdx
Ltmp140:
	.loc	6 102 5
	callq	___rust_dealloc
Ltmp141:
	.loc	6 0 5 is_stmt 0
	jmp	LBB11_5
Ltmp142:
LBB11_6:
	.loc	3 178 1 is_stmt 1
	movq	(%r14), %rbx
Ltmp143:
LBB11_7:
	movq	8(%r14), %rsi
Ltmp144:
	.loc	13 200 40
	testq	%rsi, %rsi
	.loc	13 200 9 is_stmt 0
	je	LBB11_14
Ltmp145:
	.loc	13 532 16 is_stmt 1
	testq	%rbx, %rbx
Ltmp146:
	je	LBB11_14
Ltmp147:
	.loc	13 0 0 is_stmt 0
	shlq	$4, %rsi
Ltmp148:
	.loc	13 532 16
	je	LBB11_14
Ltmp149:
	.loc	6 102 5 is_stmt 1
	movl	$8, %edx
	movq	%rbx, %rdi
	addq	$8, %rsp
	popq	%rbx
Ltmp150:
	popq	%r12
	popq	%r13
	popq	%r14
Ltmp151:
	popq	%r15
	popq	%rbp
	jmp	___rust_dealloc
Ltmp152:
LBB11_14:
	.loc	3 178 1
	addq	$8, %rsp
	popq	%rbx
	popq	%r12
	popq	%r13
	popq	%r14
Ltmp153:
	popq	%r15
	popq	%rbp
	retq
LBB11_11:
Ltmp154:
Ltmp122:
	.loc	3 0 1 is_stmt 0
	movq	%rax, %r15
Ltmp155:
	.loc	3 178 1
	movq	-16(%rbx), %rdi
	movq	-8(%rbx), %rsi
	callq	__ZN5alloc5alloc8box_free17h2ecbd8ec59adee54E
Ltmp156:
	.loc	3 178 1
	testq	%r12, %r12
	je	LBB11_16
Ltmp157:
	.p2align	4, 0x90
LBB11_12:
Ltmp123:
	movq	%rbx, %rdi
	callq	__ZN4core3ptr13drop_in_place17hc3c7e76b321c0e79E
Ltmp124:
Ltmp158:
	addq	$16, %rbx
	addq	$-16, %r12
	jne	LBB11_12
	jmp	LBB11_16
Ltmp159:
LBB11_15:
Ltmp125:
	.loc	3 0 1
	movq	%rax, %r15
Ltmp160:
LBB11_16:
	.loc	3 178 1
	movq	(%r14), %rdi
	movq	8(%r14), %rsi
	callq	__ZN4core3ptr13drop_in_place17hf56e5bca50aceb17E
	movq	%r15, %rdi
	callq	__Unwind_Resume
	ud2
Ltmp161:
Lfunc_end11:
	.cfi_endproc
	.section	__TEXT,__gcc_except_tab
	.p2align	2
GCC_except_table11:
Lexception0:
	.byte	255
	.byte	255
	.byte	1
	.uleb128 Lcst_end0-Lcst_begin0
Lcst_begin0:
	.uleb128 Ltmp120-Lfunc_begin11
	.uleb128 Ltmp121-Ltmp120
	.uleb128 Ltmp122-Lfunc_begin11
	.byte	0
	.uleb128 Ltmp123-Lfunc_begin11
	.uleb128 Ltmp124-Ltmp123
	.uleb128 Ltmp125-Lfunc_begin11
	.byte	0
	.uleb128 Ltmp124-Lfunc_begin11
	.uleb128 Lfunc_end11-Ltmp124
	.byte	0
	.byte	0
Lcst_end0:
	.p2align	2

	.section	__TEXT,__text,regular,pure_instructions
	.p2align	4, 0x90
__ZN4core3ptr13drop_in_place17hb5b8b02cf1598fedE:
Lfunc_begin12:
	.loc	3 178 0 is_stmt 1
	.cfi_startproc
	.cfi_personality 155, _rust_eh_personality
	.cfi_lsda 16, Lexception1
	pushq	%rbp
	.cfi_def_cfa_offset 16
	.cfi_offset %rbp, -16
	movq	%rsp, %rbp
	.cfi_def_cfa_register %rbp
	pushq	%r15
	pushq	%r14
	pushq	%r13
	pushq	%r12
	pushq	%rbx
	subq	$120, %rsp
	.cfi_offset %rbx, -56
	.cfi_offset %r12, -48
	.cfi_offset %r13, -40
	.cfi_offset %r14, -32
	.cfi_offset %r15, -24
	movq	%rdi, %r14
Ltmp179:
	.loc	12 645 14 prologue_end
	movq	(%rdi), %rax
Ltmp180:
	.loc	12 645 13 is_stmt 0
	movb	$0, (%rax)
Ltmp181:
	.loc	3 178 1 is_stmt 1
	movq	8(%rdi), %rsi
Ltmp182:
	.loc	6 185 12
	testq	%rsi, %rsi
	.loc	6 185 9 is_stmt 0
	je	LBB12_2
Ltmp183:
	.loc	3 178 1 is_stmt 1
	movq	(%r14), %rdi
Ltmp184:
	.loc	6 102 5
	movl	$1, %edx
	callq	___rust_dealloc
Ltmp185:
LBB12_2:
	.loc	14 850 19
	movq	16(%r14), %rbx
Ltmp186:
	.loc	14 2384 81
	movq	32(%r14), %r15
Ltmp187:
	.loc	3 178 1
	testq	%r15, %r15
	je	LBB12_8
Ltmp188:
	shlq	$4, %r15
Ltmp189:
	addq	%rbx, %r15
	jmp	LBB12_4
Ltmp190:
	.p2align	4, 0x90
LBB12_6:
	addq	$16, %rbx
Ltmp191:
	cmpq	%r15, %rbx
	je	LBB12_7
Ltmp192:
LBB12_4:
	.loc	12 645 14
	movq	(%rbx), %rax
Ltmp193:
	.loc	12 645 13 is_stmt 0
	movb	$0, (%rax)
Ltmp194:
	.loc	3 178 1 is_stmt 1
	movq	8(%rbx), %rsi
Ltmp195:
	.loc	6 185 12
	testq	%rsi, %rsi
	.loc	6 185 9 is_stmt 0
	je	LBB12_6
Ltmp196:
	.loc	3 178 1 is_stmt 1
	movq	(%rbx), %rdi
Ltmp197:
	.loc	6 102 5
	movl	$1, %edx
	callq	___rust_dealloc
Ltmp198:
	.loc	6 0 5 is_stmt 0
	jmp	LBB12_6
Ltmp199:
LBB12_7:
	.loc	3 178 1 is_stmt 1
	movq	16(%r14), %rbx
Ltmp200:
LBB12_8:
	movq	24(%r14), %rsi
Ltmp201:
	.loc	13 200 40
	testq	%rsi, %rsi
	.loc	13 200 9 is_stmt 0
	je	LBB12_12
Ltmp202:
	.loc	13 532 16 is_stmt 1
	testq	%rbx, %rbx
Ltmp203:
	je	LBB12_12
Ltmp204:
	.loc	13 0 0 is_stmt 0
	shlq	$4, %rsi
Ltmp205:
	.loc	13 532 16
	je	LBB12_12
Ltmp206:
	.loc	6 102 5 is_stmt 1
	movl	$8, %edx
	movq	%rbx, %rdi
	callq	___rust_dealloc
Ltmp207:
LBB12_12:
	.loc	3 178 1
	movq	48(%r14), %rsi
Ltmp208:
	.loc	13 200 40
	testq	%rsi, %rsi
	.loc	13 200 9 is_stmt 0
	je	LBB12_16
Ltmp209:
	.loc	3 0 0
	movq	40(%r14), %rdi
Ltmp210:
	.loc	13 532 16 is_stmt 1
	testq	%rdi, %rdi
Ltmp211:
	je	LBB12_16
Ltmp212:
	.loc	13 0 0 is_stmt 0
	shlq	$3, %rsi
Ltmp213:
	.loc	13 532 16
	testq	%rsi, %rsi
	je	LBB12_16
Ltmp214:
	.loc	6 102 5 is_stmt 1
	movl	$8, %edx
	callq	___rust_dealloc
Ltmp215:
LBB12_16:
	.loc	3 178 1
	movq	64(%r14), %rcx
Ltmp216:
	.loc	1 1544 16
	testq	%rcx, %rcx
	je	LBB12_17
Ltmp217:
	.loc	3 0 0 is_stmt 0
	movq	72(%r14), %rdi
Ltmp218:
	movq	80(%r14), %rax
Ltmp219:
	.loc	4 293 9 is_stmt 1
	movzwl	10(%rcx), %edx
Ltmp220:
	.loc	4 680 12
	testq	%rdi, %rdi
Ltmp221:
	.loc	1 2136 14
	je	LBB12_32
Ltmp222:
	.loc	1 0 14 is_stmt 0
	movb	$1, %bl
	movq	%rcx, %rsi
Ltmp223:
	.p2align	4, 0x90
LBB12_36:
	.loc	1 2139 33 is_stmt 1
	testb	$1, %bl
	je	LBB12_33
Ltmp224:
	.loc	4 680 12
	cmpq	$1, %rdi
	setne	%bl
Ltmp225:
	.loc	4 963 17
	movq	544(%rcx), %rcx
Ltmp226:
	.loc	4 963 17 is_stmt 0
	movq	544(%rsi,%rdx,8), %rsi
Ltmp227:
	.loc	4 293 9 is_stmt 1
	movzwl	10(%rsi), %edx
Ltmp228:
	.loc	4 680 12
	decq	%rdi
Ltmp229:
	.loc	1 2136 14
	jne	LBB12_36
	jmp	LBB12_38
Ltmp230:
LBB12_17:
	.loc	1 1549 13
	movq	$0, -104(%rbp)
	movq	$0, -72(%rbp)
	xorl	%eax, %eax
	jmp	LBB12_39
Ltmp231:
LBB12_32:
	.loc	1 0 13 is_stmt 0
	movq	%rcx, %rsi
Ltmp232:
LBB12_38:
	.loc	1 1547 13 is_stmt 1
	movq	$0, -112(%rbp)
	movq	%rcx, -104(%rbp)
	movq	$0, -96(%rbp)
	movq	$0, -88(%rbp)
	movq	$0, -80(%rbp)
	movq	%rsi, -72(%rbp)
	movq	$0, -64(%rbp)
	movq	%rdx, -56(%rbp)
Ltmp233:
LBB12_39:
	.loc	1 0 0 is_stmt 0
	movq	%rax, -48(%rbp)
Ltmp234:
Ltmp164:
	leaq	-160(%rbp), %rdi
	leaq	-112(%rbp), %rsi
Ltmp235:
	.loc	1 1575 32 is_stmt 1
	callq	__ZN112_$LT$alloc..collections..btree..map..IntoIter$LT$K$C$V$GT$$u20$as$u20$core..iter..traits..iterator..Iterator$GT$4next17hfcc59fd388c6e27fE
Ltmp165:
Ltmp236:
	.loc	1 1575 19 is_stmt 0
	movq	-160(%rbp), %rdi
	testq	%rdi, %rdi
	je	LBB12_50
Ltmp237:
	.loc	1 0 19
	leaq	-160(%rbp), %r15
	leaq	-112(%rbp), %r12
Ltmp238:
	.p2align	4, 0x90
LBB12_42:
	.loc	1 1575 24
	movq	-136(%rbp), %rbx
Ltmp239:
	movq	-128(%rbp), %r13
Ltmp240:
	.loc	13 532 16 is_stmt 1
	testq	%rdi, %rdi
Ltmp241:
	.loc	13 200 9
	je	LBB12_45
Ltmp242:
	.loc	1 0 0 is_stmt 0
	movq	-152(%rbp), %rsi
Ltmp243:
	.loc	13 200 9
	testq	%rsi, %rsi
	je	LBB12_45
Ltmp244:
	.loc	6 102 5 is_stmt 1
	movl	$1, %edx
	callq	___rust_dealloc
Ltmp245:
LBB12_45:
	.loc	3 178 1
	testq	%rbx, %rbx
Ltmp246:
	je	LBB12_48
Ltmp247:
	testq	%r13, %r13
	je	LBB12_48
Ltmp248:
	.loc	6 102 5
	movl	$1, %edx
	movq	%rbx, %rdi
	movq	%r13, %rsi
	callq	___rust_dealloc
Ltmp249:
LBB12_48:
Ltmp167:
	.loc	1 1575 32
	movq	%r15, %rdi
	movq	%r12, %rsi
	callq	__ZN112_$LT$alloc..collections..btree..map..IntoIter$LT$K$C$V$GT$$u20$as$u20$core..iter..traits..iterator..Iterator$GT$4next17hfcc59fd388c6e27fE
Ltmp168:
Ltmp250:
	.loc	1 1575 19 is_stmt 0
	movq	-160(%rbp), %rdi
	testq	%rdi, %rdi
	jne	LBB12_42
Ltmp251:
LBB12_50:
	.loc	3 651 5 is_stmt 1
	movq	-104(%rbp), %rdi
Ltmp252:
	.loc	1 1582 20
	testq	%rdi, %rdi
	je	LBB12_27
Ltmp253:
	.loc	3 651 5
	movq	-112(%rbp), %rax
Ltmp254:
	.loc	3 0 5 is_stmt 0
	movl	$544, %r15d
Ltmp255:
	.p2align	4, 0x90
LBB12_52:
	.loc	4 344 30 is_stmt 1
	movq	(%rdi), %r12
Ltmp256:
	.loc	4 345 16
	xorl	%ebx, %ebx
	testq	%r12, %r12
	setne	%bl
	addq	%rax, %rbx
Ltmp257:
	.loc	4 397 16
	testq	%rax, %rax
	.loc	4 397 13 is_stmt 0
	movl	$640, %esi
	cmoveq	%r15, %rsi
Ltmp258:
	.loc	6 102 5 is_stmt 1
	movl	$8, %edx
	callq	___rust_dealloc
Ltmp259:
	.loc	1 0 0 is_stmt 0
	movq	%rbx, %rax
	movq	%r12, %rdi
Ltmp260:
	.loc	4 345 16 is_stmt 1
	testq	%r12, %r12
Ltmp261:
	.loc	1 1586 27
	jne	LBB12_52
Ltmp262:
LBB12_27:
	.loc	3 178 1
	movq	96(%r14), %rax
Ltmp263:
	testq	%rax, %rax
	je	LBB12_30
Ltmp264:
	.loc	12 645 13
	movb	$0, (%rax)
Ltmp265:
	.loc	3 178 1
	movq	104(%r14), %rsi
Ltmp266:
	.loc	6 185 12
	testq	%rsi, %rsi
	.loc	6 185 9 is_stmt 0
	je	LBB12_30
Ltmp267:
	.loc	3 178 1 is_stmt 1
	movq	96(%r14), %rdi
Ltmp268:
	.loc	6 102 5
	movl	$1, %edx
	callq	___rust_dealloc
Ltmp269:
LBB12_30:
	.loc	3 178 1
	leaq	112(%r14), %rdi
Ltmp170:
	callq	__ZN4core3ptr13drop_in_place17hb54c411653ba6186E
Ltmp171:
Ltmp270:
	.loc	3 178 1 is_stmt 0
	cmpl	$3, 152(%r14)
	jne	LBB12_23
Ltmp271:
	.loc	3 178 1
	leaq	156(%r14), %rdi
Ltmp272:
Ltmp173:
	.loc	3 178 1
	callq	__ZN70_$LT$std..sys..unix..fd..FileDesc$u20$as$u20$core..ops..drop..Drop$GT$4drop17hf5fce2bf4d9f8deaE
Ltmp273:
Ltmp174:
LBB12_23:
	.loc	3 178 1
	cmpl	$3, 160(%r14)
	jne	LBB12_21
Ltmp274:
	.loc	3 178 1
	leaq	164(%r14), %rdi
Ltmp275:
Ltmp176:
	.loc	3 178 1
	callq	__ZN70_$LT$std..sys..unix..fd..FileDesc$u20$as$u20$core..ops..drop..Drop$GT$4drop17hf5fce2bf4d9f8deaE
Ltmp276:
Ltmp177:
LBB12_21:
	.loc	3 178 1
	cmpl	$3, 168(%r14)
	jne	LBB12_59
Ltmp277:
	.loc	3 178 1
	addq	$172, %r14
Ltmp278:
	.loc	3 178 1
	movq	%r14, %rdi
	addq	$120, %rsp
	popq	%rbx
	popq	%r12
	popq	%r13
	popq	%r14
Ltmp279:
	popq	%r15
	popq	%rbp
	jmp	__ZN70_$LT$std..sys..unix..fd..FileDesc$u20$as$u20$core..ops..drop..Drop$GT$4drop17hf5fce2bf4d9f8deaE
Ltmp280:
LBB12_59:
	.loc	3 178 1
	addq	$120, %rsp
	popq	%rbx
	popq	%r12
	popq	%r13
	popq	%r14
Ltmp281:
	popq	%r15
	popq	%rbp
	retq
LBB12_33:
Ltmp282:
	.loc	7 16 38 is_stmt 1
	leaq	__ZN44_$LT$$RF$T$u20$as$u20$core..fmt..Display$GT$3fmt17hc046e4b0953c2ffbE(%rip), %rax
Ltmp283:
	movq	%rax, %xmm0
	leaq	l___unnamed_5(%rip), %rax
	movq	%rax, %xmm1
	punpcklqdq	%xmm0, %xmm1
	movdqa	%xmm1, -160(%rbp)
Ltmp284:
	.loc	10 328 9
	leaq	l___unnamed_6(%rip), %rax
Ltmp285:
	movq	%rax, -112(%rbp)
	movq	$1, -104(%rbp)
	movq	$0, -96(%rbp)
	leaq	-160(%rbp), %rax
Ltmp286:
	movq	%rax, -80(%rbp)
	movq	$1, -72(%rbp)
Ltmp287:
Ltmp162:
	.loc	7 16 9
	leaq	l___unnamed_7(%rip), %rsi
	leaq	-112(%rbp), %rdi
Ltmp288:
	callq	__ZN4core9panicking9panic_fmt17hab6ef1464e9720aaE
Ltmp289:
Ltmp163:
	ud2
Ltmp290:
LBB12_58:
Ltmp178:
	.loc	7 0 9 is_stmt 0
	movq	%rax, %rbx
	jmp	LBB12_20
Ltmp291:
LBB12_18:
Ltmp175:
	movq	%rax, %rbx
	jmp	LBB12_19
Ltmp292:
LBB12_54:
Ltmp166:
	jmp	LBB12_55
Ltmp293:
LBB12_57:
Ltmp172:
	movq	%rax, %rbx
	jmp	LBB12_56
Ltmp294:
LBB12_53:
Ltmp169:
LBB12_55:
	movq	%rax, %rbx
	.loc	3 178 1 is_stmt 1
	leaq	96(%r14), %rdi
	callq	__ZN4core3ptr13drop_in_place17h10c7e942e4dbabf5E
	leaq	112(%r14), %rdi
	callq	__ZN4core3ptr13drop_in_place17hb54c411653ba6186E
Ltmp295:
LBB12_56:
	leaq	152(%r14), %rdi
	callq	__ZN4core3ptr13drop_in_place17h150bb2a47a1e47ceE
Ltmp296:
LBB12_19:
	leaq	160(%r14), %rdi
	callq	__ZN4core3ptr13drop_in_place17h150bb2a47a1e47ceE
Ltmp297:
LBB12_20:
	addq	$168, %r14
Ltmp298:
	movq	%r14, %rdi
	callq	__ZN4core3ptr13drop_in_place17h150bb2a47a1e47ceE
	movq	%rbx, %rdi
	callq	__Unwind_Resume
	ud2
Ltmp299:
Lfunc_end12:
	.cfi_endproc
	.file	15 "/rustc/a74d1862d4d87a56244958416fd05976c58ca1a8/src/libcore/mem/mod.rs"
	.section	__TEXT,__gcc_except_tab
	.p2align	2
GCC_except_table12:
Lexception1:
	.byte	255
	.byte	255
	.byte	1
	.uleb128 Lcst_end1-Lcst_begin1
Lcst_begin1:
	.uleb128 Ltmp164-Lfunc_begin12
	.uleb128 Ltmp165-Ltmp164
	.uleb128 Ltmp166-Lfunc_begin12
	.byte	0
	.uleb128 Ltmp167-Lfunc_begin12
	.uleb128 Ltmp168-Ltmp167
	.uleb128 Ltmp169-Lfunc_begin12
	.byte	0
	.uleb128 Ltmp170-Lfunc_begin12
	.uleb128 Ltmp171-Ltmp170
	.uleb128 Ltmp172-Lfunc_begin12
	.byte	0
	.uleb128 Ltmp173-Lfunc_begin12
	.uleb128 Ltmp174-Ltmp173
	.uleb128 Ltmp175-Lfunc_begin12
	.byte	0
	.uleb128 Ltmp176-Lfunc_begin12
	.uleb128 Ltmp177-Ltmp176
	.uleb128 Ltmp178-Lfunc_begin12
	.byte	0
	.uleb128 Ltmp177-Lfunc_begin12
	.uleb128 Ltmp162-Ltmp177
	.byte	0
	.byte	0
	.uleb128 Ltmp162-Lfunc_begin12
	.uleb128 Ltmp163-Ltmp162
	.uleb128 Ltmp166-Lfunc_begin12
	.byte	0
	.uleb128 Ltmp163-Lfunc_begin12
	.uleb128 Lfunc_end12-Ltmp163
	.byte	0
	.byte	0
Lcst_end1:
	.p2align	2

	.section	__TEXT,__text,regular,pure_instructions
	.p2align	4, 0x90
__ZN4core3ptr13drop_in_place17hc3c7e76b321c0e79E:
Lfunc_begin13:
	.loc	3 178 0
	.cfi_startproc
	.cfi_personality 155, _rust_eh_personality
	.cfi_lsda 16, Lexception2
	pushq	%rbp
	.cfi_def_cfa_offset 16
	.cfi_offset %rbp, -16
	movq	%rsp, %rbp
	.cfi_def_cfa_register %rbp
	pushq	%r14
	pushq	%rbx
	.cfi_offset %rbx, -32
	.cfi_offset %r14, -24
	movq	%rdi, %rbx
Ltmp303:
	.loc	3 178 1 prologue_end
	movq	(%rdi), %rdi
	movq	8(%rbx), %rax
Ltmp300:
	callq	*(%rax)
Ltmp301:
Ltmp304:
	movq	8(%rbx), %rax
Ltmp305:
	.loc	6 282 16
	movq	8(%rax), %rsi
Ltmp306:
	.loc	6 185 12
	testq	%rsi, %rsi
	.loc	6 185 9 is_stmt 0
	je	LBB13_2
Ltmp307:
	.loc	3 178 1 is_stmt 1
	movq	(%rbx), %rdi
Ltmp308:
	.loc	6 283 17
	movq	16(%rax), %rdx
Ltmp309:
	.loc	6 102 5
	popq	%rbx
Ltmp310:
	popq	%r14
	popq	%rbp
	jmp	___rust_dealloc
Ltmp311:
LBB13_2:
	.loc	3 178 1
	popq	%rbx
Ltmp312:
	popq	%r14
	popq	%rbp
	retq
LBB13_3:
Ltmp313:
Ltmp302:
	.loc	3 0 1 is_stmt 0
	movq	%rax, %r14
	.loc	3 178 1
	movq	(%rbx), %rdi
	movq	8(%rbx), %rsi
	callq	__ZN5alloc5alloc8box_free17h2ecbd8ec59adee54E
	movq	%r14, %rdi
	callq	__Unwind_Resume
	ud2
Ltmp314:
Lfunc_end13:
	.cfi_endproc
	.section	__TEXT,__gcc_except_tab
	.p2align	2
GCC_except_table13:
Lexception2:
	.byte	255
	.byte	255
	.byte	1
	.uleb128 Lcst_end2-Lcst_begin2
Lcst_begin2:
	.uleb128 Ltmp300-Lfunc_begin13
	.uleb128 Ltmp301-Ltmp300
	.uleb128 Ltmp302-Lfunc_begin13
	.byte	0
	.uleb128 Ltmp301-Lfunc_begin13
	.uleb128 Lfunc_end13-Ltmp301
	.byte	0
	.byte	0
Lcst_end2:
	.p2align	2

	.section	__TEXT,__text,regular,pure_instructions
	.p2align	4, 0x90
__ZN4core3ptr13drop_in_place17he1dbd28eeb47ef14E:
Lfunc_begin14:
	.loc	3 178 0 is_stmt 1
	.cfi_startproc
	pushq	%rbp
	.cfi_def_cfa_offset 16
	.cfi_offset %rbp, -16
	movq	%rsp, %rbp
	.cfi_def_cfa_register %rbp
	movq	%rdi, %rax
Ltmp315:
	.loc	3 178 1 prologue_end
	movq	(%rdi), %rdi
Ltmp316:
	.loc	13 532 16
	testq	%rdi, %rdi
Ltmp317:
	.loc	13 200 9
	je	LBB14_2
Ltmp318:
	.loc	3 0 0 is_stmt 0
	movq	8(%rax), %rsi
Ltmp319:
	.loc	13 200 9
	testq	%rsi, %rsi
	je	LBB14_2
Ltmp320:
	.loc	6 102 5 is_stmt 1
	movl	$1, %edx
	popq	%rbp
	jmp	___rust_dealloc
Ltmp321:
LBB14_2:
	.loc	3 178 1
	popq	%rbp
	retq
Ltmp322:
Lfunc_end14:
	.cfi_endproc

	.p2align	4, 0x90
__ZN4core3ptr13drop_in_place17hec66f281062f9234E:
Lfunc_begin15:
	.loc	3 178 0
	.cfi_startproc
	pushq	%rbp
	.cfi_def_cfa_offset 16
	.cfi_offset %rbp, -16
	movq	%rsp, %rbp
	.cfi_def_cfa_register %rbp
	pushq	%rbx
	pushq	%rax
	.cfi_offset %rbx, -24
	movq	%rdi, %rbx
Ltmp323:
	.loc	3 178 1 prologue_end
	movq	(%rdi), %rdi
Ltmp324:
	.loc	13 532 16
	testq	%rdi, %rdi
Ltmp325:
	.loc	13 200 9
	je	LBB15_3
Ltmp326:
	.loc	3 0 0 is_stmt 0
	movq	8(%rbx), %rsi
Ltmp327:
	.loc	13 200 9
	testq	%rsi, %rsi
	je	LBB15_3
Ltmp328:
	.loc	6 102 5 is_stmt 1
	movl	$1, %edx
	callq	___rust_dealloc
Ltmp329:
LBB15_3:
	.loc	3 178 1
	movq	24(%rbx), %rdi
Ltmp330:
	.loc	13 532 16
	testq	%rdi, %rdi
Ltmp331:
	.loc	13 200 9
	je	LBB15_5
Ltmp332:
	.loc	3 0 0 is_stmt 0
	movq	32(%rbx), %rsi
Ltmp333:
	.loc	13 200 9
	testq	%rsi, %rsi
	je	LBB15_5
Ltmp334:
	.loc	6 102 5 is_stmt 1
	movl	$1, %edx
	addq	$8, %rsp
	popq	%rbx
Ltmp335:
	popq	%rbp
	jmp	___rust_dealloc
Ltmp336:
LBB15_5:
	.loc	3 178 1
	addq	$8, %rsp
	popq	%rbx
Ltmp337:
	popq	%rbp
	retq
Ltmp338:
Lfunc_end15:
	.cfi_endproc

	.p2align	4, 0x90
__ZN4core3ptr13drop_in_place17hf56e5bca50aceb17E:
Lfunc_begin16:
	.loc	3 178 0
	.cfi_startproc
	pushq	%rbp
	.cfi_def_cfa_offset 16
	.cfi_offset %rbp, -16
	movq	%rsp, %rbp
	.cfi_def_cfa_register %rbp
Ltmp339:
	.loc	13 200 40 prologue_end
	testq	%rsi, %rsi
	.loc	13 200 9 is_stmt 0
	je	LBB16_3
Ltmp340:
	.loc	13 532 16 is_stmt 1
	testq	%rdi, %rdi
Ltmp341:
	je	LBB16_3
Ltmp342:
	.loc	13 0 0 is_stmt 0
	shlq	$4, %rsi
Ltmp343:
	.loc	13 532 16
	je	LBB16_3
Ltmp344:
	.loc	6 102 5 is_stmt 1
	movl	$8, %edx
	popq	%rbp
	jmp	___rust_dealloc
Ltmp345:
LBB16_3:
	.loc	3 178 1
	popq	%rbp
	retq
Ltmp346:
Lfunc_end16:
	.cfi_endproc

	.p2align	4, 0x90
__ZN4core3str21_$LT$impl$u20$str$GT$8contains17hd620409f7aa272a4E:
Lfunc_begin17:
	.file	16 "/rustc/a74d1862d4d87a56244958416fd05976c58ca1a8/src/libcore/str/mod.rs"
	.loc	16 3031 0
	.cfi_startproc
	pushq	%rbp
	.cfi_def_cfa_offset 16
	.cfi_offset %rbp, -16
	movq	%rsp, %rbp
	.cfi_def_cfa_register %rbp
	pushq	%r15
	pushq	%r14
	pushq	%r13
	pushq	%r12
	pushq	%rbx
	subq	$184, %rsp
	.cfi_offset %rbx, -56
	.cfi_offset %r12, -48
	.cfi_offset %r13, -40
	.cfi_offset %r14, -32
	.cfi_offset %r15, -24
	movq	%rcx, %r8
Ltmp347:
	movq	%rdx, %rcx
Ltmp348:
	movq	%rsi, %rdx
Ltmp349:
	movq	%rdi, %rsi
Ltmp350:
	leaq	-160(%rbp), %rdi
Ltmp351:
	.file	17 "/rustc/a74d1862d4d87a56244958416fd05976c58ca1a8/src/libcore/str/pattern.rs"
	.loc	17 830 9 prologue_end
	callq	__ZN4core3str7pattern11StrSearcher3new17hf20175b25b057116E
Ltmp352:
	.loc	17 977 13
	cmpq	$1, -128(%rbp)
	jne	LBB17_1
Ltmp353:
	.loc	17 985 31
	movq	-72(%rbp), %r11
Ltmp354:
	.loc	17 0 0 is_stmt 0
	movq	-136(%rbp), %rax
Ltmp355:
	leaq	-1(%rax), %r8
	movq	-160(%rbp), %r10
Ltmp356:
	movq	-152(%rbp), %rsi
Ltmp357:
	movq	-144(%rbp), %r9
Ltmp358:
	movq	-88(%rbp), %r13
	leaq	-1(%rax,%r13), %rcx
Ltmp359:
	.loc	17 985 31
	cmpq	$-1, %r11
Ltmp360:
	.loc	17 988 17 is_stmt 1
	je	LBB17_35
Ltmp361:
	.loc	17 0 0 is_stmt 0
	cmpq	%rsi, %rcx
Ltmp362:
	.loc	17 1271 17 is_stmt 1
	jae	LBB17_52
Ltmp363:
	.loc	17 0 0 is_stmt 0
	movq	-96(%rbp), %r14
	movq	-120(%rbp), %rbx
Ltmp364:
	movq	-104(%rbp), %rdx
	movq	%rax, %rdi
	movq	%rdx, -48(%rbp)
	subq	%rdx, %rdi
	movq	%rdi, -168(%rbp)
	movq	%rbx, %rdx
	negq	%rdx
	movq	%rdx, -56(%rbp)
Ltmp365:
	.loc	17 1250 9 is_stmt 1
	movzbl	(%r10,%rcx), %ecx
	btq	%rcx, %r14
Ltmp366:
	.loc	17 1283 13
	jb	LBB17_58
Ltmp367:
	.p2align	4, 0x90
LBB17_57:
	.loc	17 1284 17
	addq	%rax, %r13
	xorl	%r11d, %r11d
Ltmp368:
	.loc	17 1270 48
	leaq	(%r13,%r8), %rcx
Ltmp369:
	.file	18 "/rustc/a74d1862d4d87a56244958416fd05976c58ca1a8/src/libcore/slice/mod.rs"
	.loc	18 2851 12
	cmpq	%rsi, %rcx
Ltmp370:
	.loc	17 1271 17
	jae	LBB17_71
Ltmp371:
LBB17_56:
	.loc	17 1250 9
	movzbl	(%r10,%rcx), %ecx
	btq	%rcx, %r14
Ltmp372:
	.loc	17 1283 13
	jae	LBB17_57
Ltmp373:
LBB17_58:
	.file	19 "/rustc/a74d1862d4d87a56244958416fd05976c58ca1a8/src/libcore/cmp.rs"
	.loc	19 1017 9
	cmpq	%r11, %rbx
	.loc	19 0 0 is_stmt 0
	movq	%r11, %rcx
	cmovaq	%rbx, %rcx
Ltmp374:
	.loc	17 1294 13 is_stmt 1
	leaq	(%r9,%rcx), %r15
	leaq	(%r13,%rcx), %rdi
Ltmp375:
	.p2align	4, 0x90
LBB17_59:
	.loc	19 1137 52
	cmpq	%rax, %rcx
Ltmp376:
	.file	20 "/rustc/a74d1862d4d87a56244958416fd05976c58ca1a8/src/libcore/iter/range.rs"
	.loc	20 211 9
	jae	LBB17_60
Ltmp377:
	.loc	17 1295 33
	cmpq	%rsi, %rdi
	jae	LBB17_72
Ltmp378:
	.file	21 "/rustc/a74d1862d4d87a56244958416fd05976c58ca1a8/src/libcore/num/mod.rs"
	.loc	21 3632 30
	incq	%rcx
Ltmp379:
	.loc	17 1295 20
	movzbl	(%r15), %r12d
	.loc	17 1295 17 is_stmt 0
	incq	%r15
	leaq	1(%rdi), %rdx
	.loc	17 1295 20
	cmpb	(%r10,%rdi), %r12b
Ltmp380:
	.loc	17 0 0
	movq	%rdx, %rdi
Ltmp381:
	.loc	17 1295 17
	je	LBB17_59
Ltmp382:
	.loc	17 1297 21 is_stmt 1
	addq	-56(%rbp), %rdx
	xorl	%r11d, %r11d
Ltmp383:
	.loc	17 1270 48
	movq	%rdx, %r13
	leaq	(%r13,%r8), %rcx
Ltmp384:
	.loc	18 2851 12
	cmpq	%rsi, %rcx
Ltmp385:
	.loc	17 1271 17
	jb	LBB17_56
	jmp	LBB17_71
Ltmp386:
	.p2align	4, 0x90
LBB17_60:
	.loc	17 0 0 is_stmt 0
	movq	%rbx, %rdi
Ltmp387:
	.p2align	4, 0x90
LBB17_61:
	.loc	19 1137 52 is_stmt 1
	cmpq	%rdi, %r11
Ltmp388:
	.loc	20 282 9
	jae	LBB17_62
Ltmp389:
	.file	22 "/rustc/a74d1862d4d87a56244958416fd05976c58ca1a8/src/libcore/ops/arith.rs"
	.loc	22 194 45
	decq	%rdi
Ltmp390:
	.loc	17 1307 20
	cmpq	%rax, %rdi
	jae	LBB17_73
Ltmp391:
	.loc	17 1307 42 is_stmt 0
	leaq	(%rdi,%r13), %rcx
Ltmp392:
	.loc	17 1307 33
	cmpq	%rsi, %rcx
	jae	LBB17_74
Ltmp393:
	.loc	17 1307 20
	movzbl	(%r9,%rdi), %edx
	cmpb	(%r10,%rcx), %dl
	.loc	17 1307 17
	je	LBB17_61
Ltmp394:
	.loc	17 1308 21 is_stmt 1
	addq	-48(%rbp), %r13
	movq	-168(%rbp), %r11
Ltmp395:
	.loc	17 1270 48
	leaq	(%r13,%r8), %rcx
Ltmp396:
	.loc	18 2851 12
	cmpq	%rsi, %rcx
Ltmp397:
	.loc	17 1271 17
	jb	LBB17_56
Ltmp398:
LBB17_71:
	.loc	17 1286 21
	movq	%r11, -72(%rbp)
	jmp	LBB17_51
Ltmp399:
LBB17_1:
	.loc	17 933 32
	movb	-104(%rbp), %r8b
Ltmp400:
	.loc	17 935 27
	movq	-120(%rbp), %rcx
Ltmp401:
	.loc	17 936 23
	movq	-160(%rbp), %r10
Ltmp402:
	movq	-152(%rbp), %rsi
Ltmp403:
	.file	23 "/rustc/a74d1862d4d87a56244958416fd05976c58ca1a8/src/libcore/ptr/const_ptr.rs"
	.loc	23 0 0 is_stmt 0
	leaq	(%r10,%rsi), %r9
	jmp	LBB17_3
Ltmp404:
	.p2align	4, 0x90
LBB17_2:
	.loc	17 940 25 is_stmt 1
	addq	%rax, %rcx
Ltmp405:
LBB17_3:
	.loc	17 933 32
	movl	%r8d, %edx
Ltmp406:
	testb	%r8b, %r8b
	sete	%r8b
Ltmp407:
	.loc	17 0 32 is_stmt 0
	movq	%r10, -200(%rbp)
	movq	%rsi, -192(%rbp)
Ltmp408:
	.loc	16 2051 18 is_stmt 1
	movq	%rcx, -176(%rbp)
	.loc	16 2051 25 is_stmt 0
	movq	%rsi, -184(%rbp)
Ltmp409:
	.loc	16 2303 12 is_stmt 1
	testq	%rcx, %rcx
	je	LBB17_7
Ltmp410:
	cmpq	%rcx, %rsi
	je	LBB17_7
Ltmp411:
	.loc	16 2307 13
	jbe	LBB17_75
Ltmp412:
	.loc	16 2309 25
	cmpb	$-65, (%r10,%rcx)
Ltmp413:
	.loc	16 2021 13
	jle	LBB17_75
Ltmp414:
LBB17_7:
	.loc	16 0 13 is_stmt 0
	movl	$1114112, %ebx
Ltmp415:
	.loc	16 2303 26 is_stmt 1
	cmpq	%rcx, %rsi
Ltmp416:
	.loc	18 3303 21
	je	LBB17_25
Ltmp417:
	.loc	17 0 0 is_stmt 0
	leaq	(%r10,%rcx), %rax
Ltmp418:
	.loc	16 519 13 is_stmt 1
	movzbl	(%rax), %ebx
Ltmp419:
	.loc	16 520 8
	testb	%bl, %bl
	.loc	16 520 5 is_stmt 0
	jns	LBB17_25
Ltmp420:
	.loc	16 0 0
	leaq	1(%rax), %rdi
Ltmp421:
	.loc	18 3179 9 is_stmt 1
	cmpq	%r9, %rdi
	.loc	18 3303 21
	je	LBB17_10
Ltmp422:
	.loc	16 508 15
	movzbl	1(%rax), %edi
Ltmp423:
	.file	24 "/rustc/a74d1862d4d87a56244958416fd05976c58ca1a8/src/libcore/ptr/mut_ptr.rs"
	.loc	24 152 9
	addq	$2, %rax
Ltmp424:
	.loc	16 507 5
	andl	$63, %edi
Ltmp425:
	.loc	16 0 0 is_stmt 0
	movl	%ebx, %r11d
	andl	$31, %r11d
Ltmp426:
	.loc	16 530 8 is_stmt 1
	cmpb	$-33, %bl
	.loc	16 530 5 is_stmt 0
	jbe	LBB17_13
Ltmp427:
LBB17_15:
	.loc	18 3179 9 is_stmt 1
	cmpq	%r9, %rax
	.loc	18 3303 21
	je	LBB17_16
Ltmp428:
	.loc	16 508 15
	movzbl	(%rax), %r14d
Ltmp429:
	.loc	24 152 9
	incq	%rax
Ltmp430:
	.loc	16 507 5
	andl	$63, %r14d
Ltmp431:
	.loc	16 495 5
	shll	$6, %edi
	orl	%r14d, %edi
Ltmp432:
	.loc	16 536 12
	cmpb	$-16, %bl
	.loc	16 536 9 is_stmt 0
	jb	LBB17_19
Ltmp433:
LBB17_20:
	.loc	18 3179 9 is_stmt 1
	cmpq	%r9, %rax
	.loc	18 3303 21
	je	LBB17_21
Ltmp434:
	.loc	16 508 15
	movzbl	(%rax), %eax
	.loc	16 507 5
	andl	$63, %eax
	jmp	LBB17_23
Ltmp435:
LBB17_10:
	.loc	16 0 5 is_stmt 0
	xorl	%edi, %edi
	movq	%r9, %rax
	movl	%ebx, %r11d
	andl	$31, %r11d
Ltmp436:
	.loc	16 530 8 is_stmt 1
	cmpb	$-33, %bl
	.loc	16 530 5 is_stmt 0
	ja	LBB17_15
Ltmp437:
LBB17_13:
	.loc	16 0 5
	shll	$6, %r11d
Ltmp438:
	orl	%r11d, %edi
Ltmp439:
	jmp	LBB17_24
Ltmp440:
LBB17_16:
	xorl	%r14d, %r14d
	movq	%r9, %rax
Ltmp441:
	.loc	16 495 5 is_stmt 1
	shll	$6, %edi
	orl	%r14d, %edi
Ltmp442:
	.loc	16 536 12
	cmpb	$-16, %bl
	.loc	16 536 9 is_stmt 0
	jae	LBB17_20
Ltmp443:
LBB17_19:
	.loc	16 0 9
	shll	$12, %r11d
Ltmp444:
	orl	%r11d, %edi
Ltmp445:
	jmp	LBB17_24
Ltmp446:
LBB17_21:
	xorl	%eax, %eax
Ltmp447:
LBB17_23:
	.loc	16 540 18 is_stmt 1
	andl	$7, %r11d
Ltmp448:
	shll	$18, %r11d
Ltmp449:
	.loc	16 495 5
	shll	$6, %edi
Ltmp450:
	orl	%r11d, %edi
Ltmp451:
	.loc	16 540 13
	orl	%eax, %edi
Ltmp452:
LBB17_24:
	.loc	16 0 13 is_stmt 0
	movl	%edi, %ebx
Ltmp453:
	.p2align	4, 0x90
LBB17_25:
	.loc	17 933 32 is_stmt 1
	testb	%dl, %dl
Ltmp454:
	.loc	17 937 26
	jne	LBB17_26
Ltmp455:
	.loc	17 938 21
	cmpl	$1114112, %ebx
	je	LBB17_33
Ltmp456:
	.loc	17 0 21 is_stmt 0
	movl	$1, %eax
Ltmp457:
	.file	25 "/rustc/a74d1862d4d87a56244958416fd05976c58ca1a8/src/libcore/char/methods.rs"
	.loc	25 360 12 is_stmt 1
	cmpl	$128, %ebx
	.loc	25 360 9 is_stmt 0
	jb	LBB17_2
Ltmp458:
	.loc	25 0 9
	movl	$2, %eax
	.loc	25 362 19 is_stmt 1
	cmpl	$2048, %ebx
	.loc	25 362 16 is_stmt 0
	jb	LBB17_2
Ltmp459:
	.loc	25 364 19 is_stmt 1
	cmpl	$65536, %ebx
	.loc	25 364 16 is_stmt 0
	movl	$4, %eax
	sbbq	$0, %rax
	jmp	LBB17_2
Ltmp460:
LBB17_26:
	.loc	25 0 16
	movb	$1, %al
	jmp	LBB17_27
Ltmp461:
LBB17_33:
	xorl	%eax, %eax
Ltmp462:
LBB17_27:
	.loc	17 934 17 is_stmt 1
	movb	%r8b, -104(%rbp)
Ltmp463:
	.loc	17 940 25
	movq	%rcx, -120(%rbp)
	jmp	LBB17_28
Ltmp464:
LBB17_35:
	.loc	17 0 0 is_stmt 0
	cmpq	%rsi, %rcx
Ltmp465:
	.loc	17 1271 17 is_stmt 1
	jae	LBB17_52
Ltmp466:
	.loc	17 0 0 is_stmt 0
	movq	-96(%rbp), %r11
	movq	-120(%rbp), %rbx
Ltmp467:
	movq	-104(%rbp), %rdx
	movq	%rdx, -48(%rbp)
	leaq	(%r9,%rbx), %rdx
	movq	%rdx, -56(%rbp)
	leaq	(%r10,%rbx), %r12
	movq	%r13, %r14
Ltmp468:
	.loc	17 1250 9 is_stmt 1
	movzbl	(%r10,%rcx), %ecx
	btq	%rcx, %r11
Ltmp469:
	.loc	17 1283 13
	jb	LBB17_38
Ltmp470:
LBB17_48:
	.loc	17 1284 17
	addq	%rax, %r14
Ltmp471:
LBB17_49:
	.loc	17 1270 48
	movq	%r14, %r13
Ltmp472:
LBB17_50:
	leaq	(%r13,%r8), %rcx
Ltmp473:
	.loc	18 2851 12
	cmpq	%rsi, %rcx
Ltmp474:
	.loc	17 1271 17
	jae	LBB17_51
Ltmp475:
	.loc	17 0 17 is_stmt 0
	movq	%r13, %r14
Ltmp476:
	.loc	17 1250 9 is_stmt 1
	movzbl	(%r10,%rcx), %ecx
	btq	%rcx, %r11
Ltmp477:
	.loc	17 1283 13
	jae	LBB17_48
Ltmp478:
LBB17_38:
	.loc	17 0 0 is_stmt 0
	xorl	%ecx, %ecx
	movq	%r14, %r13
	movq	-56(%rbp), %r15
Ltmp479:
	.p2align	4, 0x90
LBB17_39:
	leaq	(%rbx,%rcx), %rdi
Ltmp480:
	.loc	19 1137 52 is_stmt 1
	cmpq	%rax, %rdi
Ltmp481:
	.loc	20 211 9
	jae	LBB17_40
Ltmp482:
	.loc	17 1295 33
	leaq	(%rbx,%r13), %rdi
	cmpq	%rsi, %rdi
	jae	LBB17_72
Ltmp483:
	.loc	17 1295 20 is_stmt 0
	movzbl	(%r15), %edx
	.loc	17 1295 17
	incq	%r15
	incq	%rcx
	.loc	17 1295 20
	cmpb	(%r12,%r13), %dl
	.loc	17 1295 17
	leaq	1(%r13), %r13
	je	LBB17_39
	jmp	LBB17_50
Ltmp484:
LBB17_40:
	.loc	17 0 0
	movq	%rbx, %rdi
Ltmp485:
	.p2align	4, 0x90
LBB17_41:
	.loc	19 1137 52 is_stmt 1
	testq	%rdi, %rdi
Ltmp486:
	.loc	20 282 9
	je	LBB17_53
Ltmp487:
	.loc	22 194 45
	decq	%rdi
Ltmp488:
	.loc	17 1307 20
	cmpq	%rax, %rdi
	jae	LBB17_73
Ltmp489:
	.loc	17 1307 42 is_stmt 0
	leaq	(%rdi,%r14), %rcx
	.loc	17 1307 33
	cmpq	%rsi, %rcx
	jae	LBB17_74
Ltmp490:
	.loc	17 1307 20
	movzbl	(%r9,%rdi), %edx
	cmpb	(%r10,%rcx), %dl
	.loc	17 1307 17
	je	LBB17_41
Ltmp491:
	.loc	17 1308 21 is_stmt 1
	addq	-48(%rbp), %r14
	jmp	LBB17_49
Ltmp492:
LBB17_62:
	.loc	17 1320 13
	addq	%rax, %r13
	movq	%r13, -88(%rbp)
	.loc	17 1322 17
	movq	$0, -72(%rbp)
	movb	$1, %al
Ltmp493:
	.loc	17 0 17 is_stmt 0
	jmp	LBB17_28
Ltmp494:
LBB17_53:
	.loc	17 1320 13 is_stmt 1
	addq	%rax, %r14
	movq	%r14, -88(%rbp)
	movb	$1, %al
Ltmp495:
	.loc	17 0 13 is_stmt 0
	jmp	LBB17_28
Ltmp496:
LBB17_51:
	movq	%r13, -88(%rbp)
Ltmp497:
LBB17_52:
	movq	%rsi, -88(%rbp)
	xorl	%eax, %eax
Ltmp498:
LBB17_28:
	.loc	16 3033 6 is_stmt 1
	addq	$184, %rsp
	popq	%rbx
	popq	%r12
	popq	%r13
	popq	%r14
	popq	%r15
	popq	%rbp
	retq
LBB17_72:
Ltmp499:
	.loc	17 0 0 is_stmt 0
	leaq	l___unnamed_8(%rip), %rdx
	callq	__ZN4core9panicking18panic_bounds_check17habe69d236c55e3edE
Ltmp500:
LBB17_75:
	leaq	-200(%rbp), %rax
Ltmp501:
	.loc	2 430 21 is_stmt 1
	movq	%rax, -224(%rbp)
	leaq	-176(%rbp), %rax
	movq	%rax, -216(%rbp)
	leaq	-184(%rbp), %rax
	movq	%rax, -208(%rbp)
	leaq	-224(%rbp), %rdi
	callq	__ZN4core3str6traits105_$LT$impl$u20$core..slice..SliceIndex$LT$str$GT$$u20$for$u20$core..ops..range..RangeFrom$LT$usize$GT$$GT$5index28_$u7b$$u7b$closure$u7d$$u7d$17hd01b6f8af1339b02E
Ltmp502:
LBB17_73:
	.loc	17 0 0 is_stmt 0
	leaq	l___unnamed_9(%rip), %rdx
	movq	%rax, %rsi
	callq	__ZN4core9panicking18panic_bounds_check17habe69d236c55e3edE
Ltmp503:
LBB17_74:
	leaq	l___unnamed_10(%rip), %rdx
	movq	%rcx, %rdi
	callq	__ZN4core9panicking18panic_bounds_check17habe69d236c55e3edE
Ltmp504:
Lfunc_end17:
	.cfi_endproc
	.file	26 "/rustc/a74d1862d4d87a56244958416fd05976c58ca1a8/src/libcore/iter/adapters/mod.rs"

	.p2align	4, 0x90
__ZN4core3str6traits105_$LT$impl$u20$core..slice..SliceIndex$LT$str$GT$$u20$for$u20$core..ops..range..RangeFrom$LT$usize$GT$$GT$5index28_$u7b$$u7b$closure$u7d$$u7d$17hd01b6f8af1339b02E:
Lfunc_begin18:
	.loc	16 2052 0 is_stmt 1
	.cfi_startproc
	pushq	%rbp
	.cfi_def_cfa_offset 16
	.cfi_offset %rbp, -16
	movq	%rsp, %rbp
	.cfi_def_cfa_register %rbp
Ltmp505:
	.loc	16 2052 71 prologue_end
	movq	(%rdi), %rcx
	.loc	16 2052 78 is_stmt 0
	movq	8(%rdi), %rdx
	.loc	16 2052 71
	movq	(%rcx), %rax
	movq	8(%rcx), %rsi
	.loc	16 2052 78
	movq	(%rdx), %rdx
	.loc	16 2052 85
	movq	16(%rdi), %rcx
	movq	(%rcx), %rcx
	.loc	16 2052 47
	leaq	l___unnamed_11(%rip), %r8
	movq	%rax, %rdi
Ltmp506:
	callq	__ZN4core3str16slice_error_fail17h6b29707aec812690E
Ltmp507:
Lfunc_end18:
	.cfi_endproc

	.p2align	4, 0x90
__ZN5alloc5alloc8box_free17h2ecbd8ec59adee54E:
Lfunc_begin19:
	.loc	6 281 0 is_stmt 1
	.cfi_startproc
	pushq	%rbp
	.cfi_def_cfa_offset 16
	.cfi_offset %rbp, -16
	movq	%rsp, %rbp
	.cfi_def_cfa_register %rbp
	movq	%rsi, %rax
Ltmp508:
	.loc	6 282 16 prologue_end
	movq	8(%rsi), %rsi
Ltmp509:
	.loc	6 185 12
	testq	%rsi, %rsi
	.loc	6 185 9 is_stmt 0
	je	LBB19_1
Ltmp510:
	.loc	6 283 17 is_stmt 1
	movq	16(%rax), %rdx
Ltmp511:
	.loc	6 102 5
	popq	%rbp
	jmp	___rust_dealloc
Ltmp512:
LBB19_1:
	.loc	6 286 2
	popq	%rbp
	retq
Ltmp513:
Lfunc_end19:
	.cfi_endproc

	.p2align	4, 0x90
__ZN5alloc5alloc8box_free17h73244be790cecb96E:
Lfunc_begin20:
	.loc	6 281 0
	.cfi_startproc
	pushq	%rbp
	.cfi_def_cfa_offset 16
	.cfi_offset %rbp, -16
	movq	%rsp, %rbp
	.cfi_def_cfa_register %rbp
Ltmp514:
	.loc	6 102 5 prologue_end
	movl	$24, %esi
	movl	$8, %edx
	popq	%rbp
	jmp	___rust_dealloc
Ltmp515:
Lfunc_end20:
	.cfi_endproc

	.p2align	4, 0x90
__ZN84_$LT$core..str..Split$LT$P$GT$$u20$as$u20$core..iter..traits..iterator..Iterator$GT$4next17ha5dadde650b3900dE:
Lfunc_begin21:
	.loc	16 975 0
	.cfi_startproc
	pushq	%rbp
	.cfi_def_cfa_offset 16
	.cfi_offset %rbp, -16
	movq	%rsp, %rbp
	.cfi_def_cfa_register %rbp
Ltmp516:
	pushq	%r15
	pushq	%r14
	pushq	%r13
	pushq	%r12
	pushq	%rbx
	subq	$24, %rsp
	.cfi_offset %rbx, -56
	.cfi_offset %r12, -48
	.cfi_offset %r13, -40
	.cfi_offset %r14, -32
	.cfi_offset %r15, -24
	.loc	16 1121 12 prologue_end
	cmpb	$0, 65(%rdi)
	.loc	16 1121 9 is_stmt 0
	jne	LBB21_1
Ltmp517:
	.loc	16 0 9
	movq	%rdi, %r13
Ltmp518:
	.loc	17 369 54 is_stmt 1
	movq	32(%rdi), %rsi
Ltmp519:
	.loc	17 369 67 is_stmt 0
	movq	40(%rdi), %rax
Ltmp520:
	.loc	18 2888 12 is_stmt 1
	movq	%rax, %rdx
	subq	%rsi, %rdx
Ltmp521:
	.loc	17 369 84
	jb	LBB21_16
Ltmp522:
	cmpq	%rax, 24(%r13)
	jb	LBB21_16
Ltmp523:
	.loc	16 0 0 is_stmt 0
	movq	16(%r13), %rcx
Ltmp524:
	.loc	17 372 71 is_stmt 1
	movq	48(%r13), %rax
Ltmp525:
	.loc	17 0 71 is_stmt 0
	movq	%rcx, -56(%rbp)
Ltmp526:
	.loc	18 2888 12 is_stmt 1
	addq	%rcx, %rsi
Ltmp527:
	.loc	17 373 34
	movzbl	59(%rax,%r13), %edi
	callq	__ZN4core5slice6memchr6memchr17h319ffdabcbdf42caE
Ltmp528:
	.loc	17 373 20 is_stmt 0
	cmpq	$1, %rax
	jne	LBB21_15
Ltmp529:
	.loc	17 0 20
	leaq	60(%r13), %rax
	movq	%rax, -48(%rbp)
Ltmp530:
	.p2align	4, 0x90
LBB21_6:
	.loc	17 391 17 is_stmt 1
	movq	32(%r13), %rax
	.loc	17 392 35
	movq	48(%r13), %r15
Ltmp531:
	.loc	17 391 17
	leaq	1(%rdx,%rax), %rbx
Ltmp532:
	movq	%rbx, 32(%r13)
	.loc	17 392 20
	movq	%rbx, %r12
	subq	%r15, %r12
	.loc	17 392 17 is_stmt 0
	jae	LBB21_8
Ltmp533:
	.loc	17 369 25 is_stmt 1
	movq	24(%r13), %r14
Ltmp534:
	.loc	17 369 67 is_stmt 0
	movq	40(%r13), %rax
Ltmp535:
	.loc	18 2888 12 is_stmt 1
	movq	%rax, %rdx
	subq	%rbx, %rdx
	jae	LBB21_13
	jmp	LBB21_16
Ltmp536:
	.p2align	4, 0x90
LBB21_8:
	.loc	17 394 42
	movq	24(%r13), %r14
Ltmp537:
	.loc	18 2888 37
	cmpq	%rbx, %r14
Ltmp538:
	.loc	17 394 28
	jb	LBB21_12
Ltmp539:
	.loc	18 2918 19
	cmpq	$5, %r15
	.loc	18 2918 16 is_stmt 0
	jae	LBB21_23
Ltmp540:
	.loc	18 0 16
	movq	16(%r13), %rdi
	addq	%r12, %rdi
Ltmp541:
	.loc	18 5863 12 is_stmt 1
	cmpq	-48(%rbp), %rdi
	.loc	18 5863 9 is_stmt 0
	je	LBB21_21
Ltmp542:
	.loc	18 0 9
	movq	-48(%rbp), %rsi
Ltmp543:
	.loc	18 5868 13 is_stmt 1
	movq	%r15, %rdx
Ltmp544:
	callq	_bcmp
Ltmp545:
	testl	%eax, %eax
Ltmp546:
	.loc	17 395 25
	je	LBB21_21
Ltmp547:
LBB21_12:
	.loc	17 369 67
	movq	40(%r13), %rax
Ltmp548:
	.loc	18 2888 12
	movq	%rax, %rdx
	subq	%rbx, %rdx
Ltmp549:
	.loc	17 369 84
	jb	LBB21_16
Ltmp550:
LBB21_13:
	cmpq	%rax, %r14
	jb	LBB21_16
Ltmp551:
	.loc	18 2888 12
	addq	16(%r13), %rbx
Ltmp552:
	.loc	17 373 34
	movzbl	59(%r15,%r13), %edi
	movq	%rbx, %rsi
	callq	__ZN4core5slice6memchr6memchr17h319ffdabcbdf42caE
Ltmp553:
	.loc	17 373 20 is_stmt 0
	cmpq	$1, %rax
	je	LBB21_6
Ltmp554:
LBB21_15:
	.loc	17 402 31 is_stmt 1
	movq	40(%r13), %rax
	.loc	17 402 17 is_stmt 0
	movq	%rax, 32(%r13)
Ltmp555:
LBB21_16:
	.loc	16 1107 13 is_stmt 1
	cmpb	$0, 65(%r13)
	.loc	16 1107 12 is_stmt 0
	je	LBB21_17
Ltmp556:
LBB21_1:
	.loc	16 0 12
	xorl	%eax, %eax
LBB21_22:
	.loc	16 977 14 is_stmt 1
	movq	%r12, %rdx
	addq	$24, %rsp
	popq	%rbx
	popq	%r12
	popq	%r13
	popq	%r14
	popq	%r15
	popq	%rbp
	retq
LBB21_17:
Ltmp557:
	.loc	16 1107 31
	cmpb	$0, 64(%r13)
	.loc	16 1107 30 is_stmt 0
	je	LBB21_19
Ltmp558:
	.loc	16 1111 68 is_stmt 1
	movq	(%r13), %rax
	.loc	16 1111 80 is_stmt 0
	movq	8(%r13), %r12
	jmp	LBB21_20
Ltmp559:
LBB21_19:
	.loc	16 1107 71 is_stmt 1
	movq	(%r13), %rax
	.loc	16 1107 60 is_stmt 0
	movq	8(%r13), %r12
	cmpq	%rax, %r12
	.loc	16 1107 12
	je	LBB21_1
Ltmp560:
LBB21_20:
	.loc	16 1108 13 is_stmt 1
	movb	$1, 65(%r13)
Ltmp561:
	.loc	16 1908 23
	subq	%rax, %r12
Ltmp562:
	.loc	23 158 9
	addq	16(%r13), %rax
Ltmp563:
	.loc	23 0 9 is_stmt 0
	jmp	LBB21_22
Ltmp564:
LBB21_21:
	.loc	16 1129 50 is_stmt 1
	movq	(%r13), %rcx
Ltmp565:
	.loc	16 0 50 is_stmt 0
	movq	-56(%rbp), %rax
Ltmp566:
	.loc	23 158 9 is_stmt 1
	addq	%rcx, %rax
Ltmp567:
	.loc	16 1908 23
	subq	%rcx, %r12
Ltmp568:
	.loc	16 1130 17
	movq	%rbx, (%r13)
	jmp	LBB21_22
Ltmp569:
LBB21_23:
	.loc	18 2919 13
	leaq	l___unnamed_12(%rip), %rdx
Ltmp570:
	movl	$4, %esi
	movq	%r15, %rdi
	callq	__ZN4core5slice20slice_index_len_fail17h550a313151a85135E
Ltmp571:
Lfunc_end21:
	.cfi_endproc

	.p2align	4, 0x90
__ZN18build_script_build4main17heb27423a480aa701E:
Lfunc_begin22:
	.file	27 "/Users/yingyuhang/.cargo/registry/src/github.com-1ecc6299db9ec823/proc-macro2-1.0.18/build.rs"
	.loc	27 41 0
	.cfi_startproc
	.cfi_personality 155, _rust_eh_personality
	.cfi_lsda 16, Lexception3
	pushq	%rbp
	.cfi_def_cfa_offset 16
	.cfi_offset %rbp, -16
	movq	%rsp, %rbp
	.cfi_def_cfa_register %rbp
Ltmp631:
	pushq	%r15
	pushq	%r14
	pushq	%r13
	pushq	%r12
	pushq	%rbx
	subq	$568, %rsp
	.cfi_offset %rbx, -56
	.cfi_offset %r12, -48
	.cfi_offset %r13, -40
	.cfi_offset %r14, -32
	.cfi_offset %r15, -24
	.loc	10 328 9 prologue_end
	leaq	l___unnamed_13(%rip), %rax
Ltmp632:
	movq	%rax, -248(%rbp)
	movq	$1, -240(%rbp)
	movq	$0, -232(%rbp)
	leaq	l___unnamed_14(%rip), %rax
Ltmp633:
	movq	%rax, -216(%rbp)
	movq	$0, -208(%rbp)
	leaq	-248(%rbp), %rdi
Ltmp634:
	.loc	27 42 5
	callq	__ZN3std2io5stdio6_print17hdea2154009b9e479E
Ltmp635:
	.file	28 "/rustc/a74d1862d4d87a56244958416fd05976c58ca1a8/src/libstd/env.rs"
	.loc	28 246 5
	leaq	l___unnamed_15(%rip), %rsi
	leaq	-248(%rbp), %rdi
	movl	$5, %edx
	callq	__ZN3std3env7_var_os17hc8b7303001145450E
Ltmp636:
	.loc	2 1698 9
	movq	-248(%rbp), %rbx
Ltmp637:
	.loc	2 540 13
	testq	%rbx, %rbx
	je	LBB22_46
Ltmp638:
	.loc	27 0 0 is_stmt 0
	movq	-240(%rbp), %r14
Ltmp639:
	movq	-232(%rbp), %rdx
Ltmp640:
	.loc	27 109 31 is_stmt 1
	movq	%rbx, -288(%rbp)
	movq	%r14, -280(%rbp)
	movq	%rdx, -272(%rbp)
Ltmp641:
Ltmp572:
	.loc	27 0 31 is_stmt 0
	leaq	-248(%rbp), %rdi
Ltmp642:
	.file	29 "/rustc/a74d1862d4d87a56244958416fd05976c58ca1a8/src/libstd/process.rs"
	.loc	29 501 26 is_stmt 1
	movq	%rbx, %rsi
	callq	__ZN3std3sys4unix7process14process_common7Command3new17hcd746a384cbb0b47E
Ltmp643:
Ltmp573:
	.loc	29 0 26 is_stmt 0
	leaq	-608(%rbp), %rdi
	leaq	-248(%rbp), %rsi
	.loc	29 501 9
	movl	$184, %edx
	callq	_memcpy
Ltmp644:
	.loc	13 200 40 is_stmt 1
	testq	%r14, %r14
	.loc	13 200 9 is_stmt 0
	je	LBB22_4
Ltmp645:
	.loc	6 102 5 is_stmt 1
	movl	$1, %edx
	movq	%rbx, %rdi
	movq	%r14, %rsi
	callq	___rust_dealloc
Ltmp646:
LBB22_4:
Ltmp575:
	.loc	29 542 9
	leaq	l___unnamed_16(%rip), %rsi
	leaq	-608(%rbp), %rdi
	movl	$9, %edx
	callq	__ZN3std3sys4unix7process14process_common7Command3arg17hc476c471a9efd12bE
Ltmp576:
Ltmp647:
Ltmp577:
	.loc	29 0 9 is_stmt 0
	leaq	-248(%rbp), %rdi
	leaq	-608(%rbp), %rsi
	.loc	27 109 18 is_stmt 1
	callq	__ZN3std7process7Command6output17h3119df81721f3b73E
Ltmp578:
Ltmp648:
	.loc	8 396 13
	cmpq	$1, -248(%rbp)
	jne	LBB22_7
Ltmp649:
	.loc	3 178 1
	cmpb	$2, -240(%rbp)
	jb	LBB22_13
Ltmp650:
	.loc	3 178 1 is_stmt 0
	movq	-232(%rbp), %rbx
Ltmp651:
	.loc	3 178 1
	movq	(%rbx), %rdi
	movq	8(%rbx), %rax
Ltmp580:
	callq	*(%rax)
Ltmp581:
Ltmp652:
	movq	8(%rbx), %rax
Ltmp653:
	.loc	6 282 16 is_stmt 1
	movq	8(%rax), %rsi
Ltmp654:
	.loc	6 185 12
	testq	%rsi, %rsi
	.loc	6 185 9 is_stmt 0
	je	LBB22_12
Ltmp655:
	.loc	3 178 1 is_stmt 1
	movq	(%rbx), %rdi
Ltmp656:
	.loc	6 283 17
	movq	16(%rax), %rdx
Ltmp657:
	.loc	6 102 5
	callq	___rust_dealloc
Ltmp658:
LBB22_12:
	.loc	6 102 5 is_stmt 0
	movl	$24, %esi
	movl	$8, %edx
	movq	%rbx, %rdi
	callq	___rust_dealloc
Ltmp659:
LBB22_13:
	.loc	6 0 5
	xorl	%r14d, %r14d
	jmp	LBB22_14
Ltmp660:
LBB22_7:
	.loc	8 396 27 is_stmt 1
	movq	-240(%rbp), %r14
Ltmp661:
	movq	-232(%rbp), %r13
Ltmp662:
	movq	-224(%rbp), %r12
Ltmp663:
	movq	-216(%rbp), %r15
Ltmp664:
	movq	-208(%rbp), %rax
Ltmp665:
	.loc	8 0 27 is_stmt 0
	movq	%rax, -48(%rbp)
	.loc	8 396 27
	movq	-200(%rbp), %rax
	movq	%rax, -328(%rbp)
	movq	-192(%rbp), %rax
	movq	%rax, -320(%rbp)
Ltmp666:
LBB22_14:
	.loc	2 1698 9 is_stmt 1
	movq	-328(%rbp), %rax
	movq	-320(%rbp), %rcx
	movq	%rcx, -240(%rbp)
	movq	%rax, -248(%rbp)
Ltmp667:
	.loc	2 540 13
	testq	%r14, %r14
	je	LBB22_47
Ltmp668:
	.loc	2 540 27 is_stmt 0
	movq	-248(%rbp), %rax
	movq	-240(%rbp), %rcx
	movq	%rcx, -360(%rbp)
	movq	%rax, -368(%rbp)
Ltmp669:
	.loc	27 109 18 is_stmt 1
	movq	%r14, -424(%rbp)
	movq	%r13, -416(%rbp)
	movq	%r12, -408(%rbp)
Ltmp670:
	movq	%r15, -400(%rbp)
	movq	-48(%rbp), %rdx
	movq	%rdx, -392(%rbp)
	movq	%rax, -384(%rbp)
	movq	%rcx, -376(%rbp)
Ltmp583:
	leaq	-608(%rbp), %rdi
Ltmp671:
	.loc	27 109 69 is_stmt 0
	callq	__ZN4core3ptr13drop_in_place17hb5b8b02cf1598fedE
Ltmp584:
Ltmp672:
Ltmp585:
	.loc	27 0 69
	leaq	-248(%rbp), %rdi
Ltmp673:
	.loc	27 110 19 is_stmt 1
	movq	%r14, %rsi
	movq	%r12, %rdx
	callq	__ZN4core3str9from_utf817he06957962f38305fE
Ltmp586:
Ltmp674:
	.loc	8 396 13
	cmpq	$1, -248(%rbp)
Ltmp675:
	.loc	27 110 54
	je	LBB22_40
	.loc	27 0 0 is_stmt 0
	movq	-240(%rbp), %r12
	.loc	27 110 54
	testq	%r12, %r12
	je	LBB22_40
	.loc	27 0 0
	movq	-232(%rbp), %rbx
Ltmp676:
Ltmp587:
	.loc	27 111 19 is_stmt 1
	leaq	l___unnamed_17(%rip), %rdx
	movl	$7, %ecx
	movq	%r12, %rdi
	movq	%rbx, %rsi
	callq	__ZN4core3str21_$LT$impl$u20$str$GT$8contains17hd620409f7aa272a4E
Ltmp588:
Ltmp677:
	.loc	27 0 19 is_stmt 0
	movb	$1, -56(%rbp)
	.loc	27 111 19
	testb	%al, %al
	jne	LBB22_22
Ltmp678:
Ltmp589:
	.loc	27 111 50
	leaq	l___unnamed_18(%rip), %rdx
	movl	$3, %ecx
	movq	%r12, %rdi
	movq	%rbx, %rsi
	callq	__ZN4core3str21_$LT$impl$u20$str$GT$8contains17hd620409f7aa272a4E
	movb	%al, -56(%rbp)
Ltmp590:
Ltmp679:
LBB22_22:
	.loc	16 3299 9 is_stmt 1
	movq	$0, -248(%rbp)
	movq	%rbx, -240(%rbp)
	movq	%r12, -232(%rbp)
	movq	%rbx, -224(%rbp)
	movq	$0, -216(%rbp)
	movq	%rbx, -208(%rbp)
	movq	$1, -200(%rbp)
	movabsq	$197568495662, %rax
	movq	%rax, -192(%rbp)
	movw	$1, -184(%rbp)
Ltmp591:
	leaq	-248(%rbp), %rdi
Ltmp680:
	.loc	27 113 8
	callq	__ZN84_$LT$core..str..Split$LT$P$GT$$u20$as$u20$core..iter..traits..iterator..Iterator$GT$4next17ha5dadde650b3900dE
Ltmp592:
Ltmp681:
	.loc	2 151 16
	xorl	%esi, %esi
	testq	%rax, %rax
	setne	%sil
Ltmp682:
	.loc	2 151 16 is_stmt 0
	leaq	l___unnamed_19(%rip), %rcx
	xorl	%edi, %edi
	testq	%rcx, %rcx
	setne	%dil
Ltmp683:
	cmpq	%rdi, %rsi
	jne	LBB22_40
Ltmp684:
	testq	%rax, %rax
	je	LBB22_29
Ltmp685:
	.loc	2 0 16
	testq	%rcx, %rcx
	.loc	2 151 16
	je	LBB22_29
Ltmp686:
	.loc	18 5860 12 is_stmt 1
	cmpq	$7, %rdx
	.loc	18 5860 9 is_stmt 0
	jne	LBB22_40
Ltmp687:
	.loc	18 5863 12 is_stmt 1
	cmpq	%rcx, %rax
	.loc	18 5863 9 is_stmt 0
	je	LBB22_29
Ltmp688:
	.loc	18 0 9
	movl	$1953723762, %ecx
Ltmp689:
	.loc	18 5868 13 is_stmt 1
	xorl	(%rax), %ecx
	movl	$824206196, %edx
Ltmp690:
	xorl	3(%rax), %edx
	orl	%ecx, %edx
Ltmp691:
	.loc	27 113 5
	jne	LBB22_40
Ltmp692:
LBB22_29:
Ltmp593:
	.loc	27 0 5 is_stmt 0
	leaq	-248(%rbp), %rbx
Ltmp693:
	.loc	27 116 17 is_stmt 1
	movq	%rbx, %rdi
	callq	__ZN84_$LT$core..str..Split$LT$P$GT$$u20$as$u20$core..iter..traits..iterator..Iterator$GT$4next17ha5dadde650b3900dE
Ltmp594:
Ltmp694:
	.loc	27 116 30 is_stmt 0
	testq	%rax, %rax
	je	LBB22_40
Ltmp695:
Ltmp595:
	.loc	16 4280 9 is_stmt 1
	movq	%rax, %rdi
	movq	%rdx, %rsi
	callq	__ZN4core3num52_$LT$impl$u20$core..str..FromStr$u20$for$u20$u32$GT$8from_str17hb8ee2851a4cfefb0E
Ltmp696:
Ltmp596:
	.loc	27 0 0 is_stmt 0
	movq	%rax, %r12
Ltmp697:
	.loc	27 116 44 is_stmt 1
	testb	$1, %r12b
	jne	LBB22_40
Ltmp698:
	.loc	27 0 44 is_stmt 0
	shrq	$32, %r12
Ltmp699:
	.loc	13 200 40 is_stmt 1
	testq	%r13, %r13
	.loc	13 200 9 is_stmt 0
	je	LBB22_35
Ltmp700:
	.loc	6 102 5 is_stmt 1
	movl	$1, %edx
	movq	%r14, %rdi
	movq	%r13, %rsi
	callq	___rust_dealloc
Ltmp701:
LBB22_35:
	.loc	13 532 16
	testq	%r15, %r15
Ltmp702:
	.loc	13 200 9
	je	LBB22_38
Ltmp703:
	cmpq	$0, -48(%rbp)
	je	LBB22_38
Ltmp704:
	.loc	6 102 5
	movl	$1, %edx
	movq	%r15, %rdi
	movq	-48(%rbp), %rsi
	callq	___rust_dealloc
Ltmp705:
LBB22_38:
	.loc	27 49 8
	cmpl	$30, %r12d
	leaq	l___unnamed_14(%rip), %rcx
	.loc	27 49 5 is_stmt 0
	jbe	LBB22_39
Ltmp706:
	.loc	27 64 8 is_stmt 1
	cmpl	$39, %r12d
	.loc	27 64 5 is_stmt 0
	jae	LBB22_55
Ltmp707:
	.loc	27 0 5
	leaq	l___unnamed_20(%rip), %rax
	leaq	-608(%rbp), %rdi
	jmp	LBB22_57
Ltmp708:
LBB22_40:
	.loc	13 200 40 is_stmt 1
	testq	%r13, %r13
	.loc	13 200 9 is_stmt 0
	je	LBB22_42
Ltmp709:
	.loc	6 102 5 is_stmt 1
	movl	$1, %edx
	movq	%r14, %rdi
	movq	%r13, %rsi
	callq	___rust_dealloc
Ltmp710:
LBB22_42:
	.loc	13 532 16
	testq	%r15, %r15
Ltmp711:
	.loc	13 200 9
	je	LBB22_46
Ltmp712:
	cmpq	$0, -48(%rbp)
	je	LBB22_46
Ltmp713:
	.loc	6 102 5
	movl	$1, %edx
	movq	%r15, %rdi
	movq	-48(%rbp), %rsi
Ltmp714:
LBB22_45:
	.loc	27 0 0 is_stmt 0
	callq	___rust_dealloc
	jmp	LBB22_46
LBB22_47:
Ltmp628:
	leaq	-608(%rbp), %rdi
Ltmp715:
	.loc	27 109 69 is_stmt 1
	callq	__ZN4core3ptr13drop_in_place17hb5b8b02cf1598fedE
Ltmp629:
Ltmp716:
LBB22_46:
	.loc	27 90 2
	addq	$568, %rsp
	popq	%rbx
	popq	%r12
	popq	%r13
	popq	%r14
	popq	%r15
	popq	%rbp
	retq
LBB22_55:
Ltmp717:
	.loc	27 68 8
	cmpl	$45, %r12d
	.loc	27 68 5 is_stmt 0
	jb	LBB22_58
Ltmp718:
	.loc	27 0 5
	leaq	l___unnamed_21(%rip), %rax
	movq	%rbx, %rdi
Ltmp719:
LBB22_57:
	movq	%rax, (%rdi)
	movq	$1, 8(%rdi)
	movq	$0, 16(%rdi)
	movq	%rcx, 32(%rdi)
	movq	$0, 40(%rdi)
	callq	__ZN3std2io5stdio6_print17hdea2154009b9e479E
Ltmp720:
LBB22_58:
	.loc	28 212 5 is_stmt 1
	leaq	l___unnamed_22(%rip), %rsi
	leaq	-248(%rbp), %rdi
	movl	$6, %edx
	callq	__ZN3std3env4_var17heb54e5eb7997d7b3E
Ltmp721:
	.loc	8 1004 13
	cmpq	$1, -248(%rbp)
	je	LBB22_59
Ltmp722:
	.loc	8 1004 16 is_stmt 0
	movq	-224(%rbp), %rsi
	movq	%rsi, -352(%rbp)
	movq	-240(%rbp), %r13
Ltmp723:
	movq	-232(%rbp), %rax
	movq	%rax, -360(%rbp)
	movq	%r13, -368(%rbp)
Ltmp724:
Ltmp598:
	.loc	27 94 8 is_stmt 1
	leaq	l___unnamed_23(%rip), %rdx
	movl	$6, %ecx
	movq	%r13, %rdi
	callq	__ZN4core3str21_$LT$impl$u20$str$GT$8contains17hd620409f7aa272a4E
Ltmp725:
Ltmp599:
	.loc	27 73 5
	testb	%al, %al
	jne	LBB22_64
Ltmp726:
	.loc	10 328 9
	leaq	l___unnamed_24(%rip), %rax
Ltmp727:
	movq	%rax, -248(%rbp)
	movq	$1, -240(%rbp)
	movq	$0, -232(%rbp)
Ltmp728:
	leaq	l___unnamed_14(%rip), %rax
Ltmp729:
	movq	%rax, -216(%rbp)
	movq	$0, -208(%rbp)
Ltmp600:
	leaq	-248(%rbp), %rdi
Ltmp730:
	.loc	27 77 5
	callq	__ZN3std2io5stdio6_print17hdea2154009b9e479E
Ltmp601:
Ltmp731:
	.loc	10 328 9
	leaq	l___unnamed_25(%rip), %rax
Ltmp732:
	movq	%rax, -248(%rbp)
	movq	$1, -240(%rbp)
	movq	$0, -232(%rbp)
Ltmp733:
	leaq	l___unnamed_14(%rip), %rax
Ltmp734:
	movq	%rax, -216(%rbp)
	movq	$0, -208(%rbp)
Ltmp602:
	leaq	-248(%rbp), %rdi
Ltmp735:
	.loc	27 80 9
	callq	__ZN3std2io5stdio6_print17hdea2154009b9e479E
Ltmp603:
Ltmp736:
	.loc	27 45 14
	cmpb	$0, -56(%rbp)
Ltmp737:
	.loc	27 83 8
	je	LBB22_64
Ltmp738:
Ltmp604:
	.loc	28 246 5
	leaq	l___unnamed_26(%rip), %rsi
	leaq	-328(%rbp), %rdi
	movl	$9, %edx
	callq	__ZN3std3env7_var_os17hc8b7303001145450E
Ltmp605:
Ltmp739:
	.loc	27 127 12
	cmpq	$0, -328(%rbp)
	je	LBB22_110
Ltmp740:
	.loc	27 127 17 is_stmt 0
	movq	-312(%rbp), %rdx
	movq	%rdx, -272(%rbp)
	movq	-328(%rbp), %rsi
Ltmp741:
	movq	-320(%rbp), %rax
	movq	%rax, -280(%rbp)
	movq	%rsi, -288(%rbp)
Ltmp606:
	leaq	-424(%rbp), %rdi
	movq	%rsi, -304(%rbp)
Ltmp742:
	.loc	27 128 25 is_stmt 1
	callq	__ZN3std3ffi6os_str5OsStr15to_string_lossy17hc0d6d1d5b1625780E
Ltmp607:
Ltmp743:
	.file	30 "/rustc/a74d1862d4d87a56244958416fd05976c58ca1a8/src/liballoc/borrow.rs"
	.loc	30 326 13
	movq	-424(%rbp), %rcx
	.loc	30 0 0 is_stmt 0
	movq	-416(%rbp), %rdx
Ltmp744:
	movq	-408(%rbp), %rax
Ltmp745:
	movq	%rax, -48(%rbp)
Ltmp746:
	movq	%rcx, -56(%rbp)
	.loc	30 326 13
	cmpq	$1, %rcx
	.loc	30 0 0
	jne	LBB22_74
Ltmp747:
	movq	-400(%rbp), %rax
Ltmp748:
LBB22_74:
	.file	31 "/rustc/a74d1862d4d87a56244958416fd05976c58ca1a8/src/libcore/iter/traits/collect.rs"
	.loc	31 248 9 is_stmt 1
	movl	-248(%rbp), %ecx
	movl	%ecx, -64(%rbp)
	movzwl	-244(%rbp), %ecx
	movw	%cx, -60(%rbp)
Ltmp749:
	.loc	27 128 25
	movq	$0, -608(%rbp)
	movq	%rax, -600(%rbp)
	movq	%rdx, -296(%rbp)
	movq	%rdx, -592(%rbp)
	movq	%rax, -584(%rbp)
	movq	$0, -576(%rbp)
	movq	%rax, -568(%rbp)
	movq	$1, -560(%rbp)
	movabsq	$137438953504, %rax
Ltmp750:
	movq	%rax, -552(%rbp)
	movw	$1, -544(%rbp)
	movl	-64(%rbp), %eax
	movl	%eax, -542(%rbp)
	movzwl	-60(%rbp), %eax
	movw	%ax, -538(%rbp)
	leaq	-608(%rbp), %rbx
	leaq	l___unnamed_27(%rip), %r14
	leaq	l___unnamed_28(%rip), %r15
	movabsq	$4427994400906568037, %r12
Ltmp751:
LBB22_75:
Ltmp609:
	.loc	27 128 25 is_stmt 0
	movq	%rbx, %rdi
	callq	__ZN84_$LT$core..str..Split$LT$P$GT$$u20$as$u20$core..iter..traits..iterator..Iterator$GT$4next17ha5dadde650b3900dE
Ltmp610:
Ltmp752:
	.loc	27 128 13
	testq	%rax, %rax
	je	LBB22_77
Ltmp753:
	.loc	18 1430 9 is_stmt 1
	cmpq	$2, %rdx
	jb	LBB22_75
Ltmp754:
	.loc	18 5863 12
	cmpq	%r14, %rax
	.loc	18 5863 9 is_stmt 0
	je	LBB22_85
Ltmp755:
	.loc	18 5868 13 is_stmt 1
	movzwl	(%rax), %ecx
	cmpl	$23085, %ecx
Ltmp756:
	.loc	18 1430 9
	jne	LBB22_89
Ltmp757:
LBB22_85:
	.loc	18 0 9 is_stmt 0
	movq	%rax, -344(%rbp)
	movq	%rdx, -336(%rbp)
Ltmp758:
	.loc	16 2051 18 is_stmt 1
	movq	$2, -256(%rbp)
	.loc	16 2051 25 is_stmt 0
	movq	%rdx, -264(%rbp)
Ltmp759:
	.loc	16 2303 26 is_stmt 1
	cmpq	$2, %rdx
	.loc	16 2303 12 is_stmt 0
	je	LBB22_88
Ltmp760:
	.loc	16 2309 25 is_stmt 1
	cmpb	$-65, 2(%rax)
Ltmp761:
	.loc	16 2021 13
	jle	LBB22_87
Ltmp762:
LBB22_88:
	.loc	23 158 9
	addq	$2, %rax
Ltmp763:
	.loc	16 2040 23
	addq	$-2, %rdx
Ltmp764:
LBB22_89:
	.loc	18 1430 9
	cmpq	$15, %rdx
	jb	LBB22_75
Ltmp765:
	.loc	18 5863 12
	cmpq	%r15, %rax
	.loc	18 5863 9 is_stmt 0
	je	LBB22_92
Ltmp766:
	.loc	18 0 9
	movq	(%rax), %rcx
Ltmp767:
	.loc	18 5868 13 is_stmt 1
	movabsq	$7306577436448943201, %rsi
	xorq	%rsi, %rcx
	movq	7(%rax), %rsi
	xorq	%r12, %rsi
	orq	%rcx, %rsi
Ltmp768:
	.loc	18 1430 9
	jne	LBB22_75
Ltmp769:
LBB22_92:
	.loc	18 0 9 is_stmt 0
	movq	%rax, -344(%rbp)
	movq	%rdx, -336(%rbp)
Ltmp770:
	.loc	16 2051 18 is_stmt 1
	movq	$15, -256(%rbp)
	.loc	16 2051 25 is_stmt 0
	movq	%rdx, -264(%rbp)
Ltmp771:
	.loc	16 2303 26 is_stmt 1
	cmpq	$15, %rdx
	.loc	16 2303 12 is_stmt 0
	je	LBB22_95
Ltmp772:
	.loc	16 2309 25 is_stmt 1
	cmpb	$-65, 15(%rax)
Ltmp773:
	.loc	16 2021 13
	jle	LBB22_94
Ltmp774:
LBB22_95:
	.loc	23 158 9
	addq	$15, %rax
Ltmp775:
	.loc	16 2040 23
	addq	$-15, %rdx
Ltmp776:
	.loc	16 3299 9
	movq	$0, -248(%rbp)
	movq	%rdx, -240(%rbp)
	movq	%rax, -232(%rbp)
	movq	%rdx, -224(%rbp)
	movq	$0, -216(%rbp)
	movq	%rdx, -208(%rbp)
	movq	$1, -200(%rbp)
	movabsq	$188978561068, %rax
Ltmp777:
	movq	%rax, -192(%rbp)
	movw	$1, -184(%rbp)
Ltmp778:
Ltmp616:
	.loc	16 0 9 is_stmt 0
	leaq	-248(%rbp), %rdi
Ltmp779:
	.file	32 "/rustc/a74d1862d4d87a56244958416fd05976c58ca1a8/src/libcore/iter/traits/iterator.rs"
	.loc	32 1877 29 is_stmt 1
	callq	__ZN84_$LT$core..str..Split$LT$P$GT$$u20$as$u20$core..iter..traits..iterator..Iterator$GT$4next17ha5dadde650b3900dE
Ltmp780:
Ltmp617:
	.loc	32 1877 19 is_stmt 0
	testq	%rax, %rax
	je	LBB22_103
Ltmp781:
	.loc	32 0 19
	leaq	l___unnamed_29(%rip), %r15
	movabsq	$7953762057737695843, %r12
	leaq	-248(%rbp), %r14
Ltmp782:
LBB22_98:
	.loc	18 5860 12 is_stmt 1
	cmpq	$15, %rdx
	.loc	18 5860 9 is_stmt 0
	jne	LBB22_101
Ltmp783:
	.loc	18 0 9
	movb	$1, %bl
	.loc	18 5863 12 is_stmt 1
	cmpq	%r15, %rax
	.loc	18 5863 9 is_stmt 0
	je	LBB22_104
Ltmp784:
	.loc	18 0 9
	movq	(%rax), %rcx
Ltmp785:
	.loc	18 5868 13 is_stmt 1
	movabsq	$7161125138953368176, %rdx
Ltmp786:
	xorq	%rdx, %rcx
	movq	7(%rax), %rax
Ltmp787:
	xorq	%r12, %rax
	orq	%rcx, %rax
Ltmp788:
	.loc	32 2145 17
	je	LBB22_104
Ltmp789:
LBB22_101:
Ltmp619:
	.loc	32 1877 29
	movq	%r14, %rdi
	callq	__ZN84_$LT$core..str..Split$LT$P$GT$$u20$as$u20$core..iter..traits..iterator..Iterator$GT$4next17ha5dadde650b3900dE
Ltmp620:
Ltmp790:
	.loc	32 1877 19 is_stmt 0
	testq	%rax, %rax
	jne	LBB22_98
Ltmp791:
LBB22_103:
	.loc	32 0 19
	xorl	%ebx, %ebx
Ltmp792:
LBB22_104:
	.loc	3 178 1 is_stmt 1
	cmpq	$0, -56(%rbp)
Ltmp793:
	je	LBB22_107
Ltmp794:
	cmpq	$0, -48(%rbp)
	je	LBB22_107
Ltmp795:
	.loc	6 102 5
	movl	$1, %edx
	movq	-296(%rbp), %rdi
	movq	-48(%rbp), %rsi
	callq	___rust_dealloc
Ltmp796:
LBB22_107:
	.loc	3 178 1
	movq	-280(%rbp), %rsi
Ltmp797:
	.loc	13 200 40
	testq	%rsi, %rsi
	.loc	13 200 9 is_stmt 0
	je	LBB22_109
Ltmp798:
	.loc	6 102 5 is_stmt 1
	movl	$1, %edx
	movq	-304(%rbp), %rdi
	callq	___rust_dealloc
Ltmp799:
LBB22_109:
	.loc	27 83 8
	testb	%bl, %bl
	jne	LBB22_110
	jmp	LBB22_64
Ltmp800:
LBB22_77:
	.loc	3 178 1
	cmpq	$0, -56(%rbp)
Ltmp801:
	je	LBB22_80
Ltmp802:
	cmpq	$0, -48(%rbp)
	je	LBB22_80
Ltmp803:
	.loc	6 102 5
	movl	$1, %edx
	movq	-296(%rbp), %rdi
	movq	-48(%rbp), %rsi
	callq	___rust_dealloc
Ltmp804:
LBB22_80:
	.loc	3 178 1
	movq	-280(%rbp), %rsi
Ltmp805:
	.loc	13 200 40
	testq	%rsi, %rsi
	.loc	13 200 9 is_stmt 0
	je	LBB22_110
Ltmp806:
	.loc	6 102 5 is_stmt 1
	movl	$1, %edx
	movq	-304(%rbp), %rdi
	callq	___rust_dealloc
Ltmp807:
LBB22_110:
	.loc	10 328 9
	leaq	l___unnamed_30(%rip), %rax
Ltmp808:
	movq	%rax, -248(%rbp)
	movq	$1, -240(%rbp)
	movq	$0, -232(%rbp)
Ltmp809:
	leaq	l___unnamed_14(%rip), %rax
Ltmp810:
	movq	%rax, -216(%rbp)
	movq	$0, -208(%rbp)
Ltmp622:
	leaq	-248(%rbp), %rdi
Ltmp811:
	.loc	27 84 9
	callq	__ZN3std2io5stdio6_print17hdea2154009b9e479E
Ltmp623:
Ltmp812:
LBB22_64:
	.loc	27 0 0 is_stmt 0
	movq	-360(%rbp), %rsi
Ltmp813:
	testq	%rsi, %rsi
	je	LBB22_46
Ltmp814:
	movl	$1, %edx
	movq	%r13, %rdi
	jmp	LBB22_45
Ltmp815:
LBB22_39:
	.loc	10 328 9 is_stmt 1
	leaq	l___unnamed_31(%rip), %rax
Ltmp816:
	movq	%rax, -248(%rbp)
	movq	$1, -240(%rbp)
	movq	$0, -232(%rbp)
Ltmp817:
	movq	%rcx, -216(%rbp)
	movq	$0, -208(%rbp)
	leaq	-248(%rbp), %rdi
Ltmp818:
	.loc	27 50 9
	callq	__ZN3std2io5stdio7_eprint17h784168ce21d132cbE
Ltmp819:
	.loc	27 51 9
	movl	$1, %edi
	callq	__ZN3std7process4exit17ha3f17b9da226ef73E
Ltmp820:
LBB22_59:
	.loc	8 1005 17
	movq	-224(%rbp), %rax
	movq	%rax, -592(%rbp)
	movq	-240(%rbp), %rax
	movq	-232(%rbp), %rcx
	movq	%rcx, -600(%rbp)
	movq	%rax, -608(%rbp)
Ltmp625:
Ltmp821:
	.loc	8 1005 23 is_stmt 0
	leaq	l___unnamed_32(%rip), %rdi
	leaq	l___unnamed_2(%rip), %rcx
	leaq	l___unnamed_33(%rip), %r8
	leaq	-608(%rbp), %rdx
	movl	$43, %esi
	callq	__ZN4core6result13unwrap_failed17hb5a510096a5fc85fE
Ltmp626:
	jmp	LBB22_60
Ltmp822:
LBB22_87:
	.loc	8 0 23
	leaq	-344(%rbp), %rax
Ltmp823:
	.loc	2 430 21 is_stmt 1
	movq	%rax, -248(%rbp)
	leaq	-256(%rbp), %rax
	movq	%rax, -240(%rbp)
	leaq	-264(%rbp), %rax
	movq	%rax, -232(%rbp)
Ltmp612:
	leaq	-248(%rbp), %rdi
	callq	__ZN4core3str6traits105_$LT$impl$u20$core..slice..SliceIndex$LT$str$GT$$u20$for$u20$core..ops..range..RangeFrom$LT$usize$GT$$GT$5index28_$u7b$$u7b$closure$u7d$$u7d$17hd01b6f8af1339b02E
Ltmp824:
Ltmp613:
LBB22_60:
	.loc	2 0 21 is_stmt 0
	ud2
Ltmp825:
LBB22_94:
	leaq	-344(%rbp), %rax
Ltmp826:
	.loc	2 430 21
	movq	%rax, -248(%rbp)
	leaq	-256(%rbp), %rax
	movq	%rax, -240(%rbp)
	leaq	-264(%rbp), %rax
	movq	%rax, -232(%rbp)
Ltmp614:
	leaq	-248(%rbp), %rdi
	callq	__ZN4core3str6traits105_$LT$impl$u20$core..slice..SliceIndex$LT$str$GT$$u20$for$u20$core..ops..range..RangeFrom$LT$usize$GT$$GT$5index28_$u7b$$u7b$closure$u7d$$u7d$17hd01b6f8af1339b02E
Ltmp827:
Ltmp615:
	.loc	2 0 21
	jmp	LBB22_60
Ltmp828:
LBB22_61:
Ltmp627:
	movq	%rax, %r14
	leaq	-608(%rbp), %rdi
Ltmp829:
	.loc	8 1005 87 is_stmt 1
	callq	__ZN4core3ptr13drop_in_place17h39652c80df70f616E
	movq	%r14, %rdi
	callq	__Unwind_Resume
	ud2
Ltmp830:
LBB22_115:
Ltmp618:
	.loc	8 0 87 is_stmt 0
	jmp	LBB22_116
Ltmp831:
LBB22_111:
Ltmp608:
	movq	%rax, %r14
	jmp	LBB22_112
Ltmp832:
LBB22_113:
Ltmp621:
	jmp	LBB22_116
Ltmp833:
LBB22_117:
Ltmp624:
	movq	%rax, %r14
	jmp	LBB22_118
Ltmp834:
LBB22_114:
Ltmp611:
LBB22_116:
	movq	%rax, %r14
	leaq	-424(%rbp), %rdi
Ltmp835:
	.loc	27 128 25 is_stmt 1
	callq	__ZN4core3ptr13drop_in_place17h18506302585bd4cdE
Ltmp836:
LBB22_112:
	.loc	27 0 25 is_stmt 0
	leaq	-288(%rbp), %rdi
	.loc	27 137 5 is_stmt 1
	callq	__ZN4core3ptr13drop_in_place17he1dbd28eeb47ef14E
Ltmp837:
LBB22_118:
	.loc	27 0 5 is_stmt 0
	leaq	-368(%rbp), %rdi
	.loc	27 90 1 is_stmt 1
	callq	__ZN4core3ptr13drop_in_place17h375a3637a235a262E
	movq	%r14, %rdi
	callq	__Unwind_Resume
	ud2
Ltmp838:
LBB22_48:
Ltmp582:
	.loc	27 0 1 is_stmt 0
	movq	%rax, %r14
Ltmp839:
	.loc	3 178 1 is_stmt 1
	movq	(%rbx), %rdi
	movq	8(%rbx), %rsi
	callq	__ZN5alloc5alloc8box_free17h2ecbd8ec59adee54E
Ltmp840:
	.loc	3 178 1 is_stmt 0
	movq	%rbx, %rdi
	callq	__ZN5alloc5alloc8box_free17h73244be790cecb96E
	jmp	LBB22_49
Ltmp841:
LBB22_50:
Ltmp630:
	.loc	3 0 1
	movq	%rax, %r14
	movq	%r14, %rdi
	callq	__Unwind_Resume
	ud2
LBB22_120:
Ltmp574:
	movq	%rax, %r14
Ltmp842:
	leaq	-288(%rbp), %rdi
Ltmp843:
	.loc	29 502 5 is_stmt 1
	callq	__ZN4core3ptr13drop_in_place17he1dbd28eeb47ef14E
	movq	%r14, %rdi
	callq	__Unwind_Resume
	ud2
Ltmp844:
LBB22_51:
Ltmp579:
	.loc	29 0 5 is_stmt 0
	movq	%rax, %r14
LBB22_49:
	leaq	-608(%rbp), %rdi
	.loc	27 109 69 is_stmt 1
	callq	__ZN4core3ptr13drop_in_place17hb5b8b02cf1598fedE
	movq	%r14, %rdi
	callq	__Unwind_Resume
	ud2
LBB22_52:
Ltmp597:
	.loc	27 0 69 is_stmt 0
	movq	%rax, %r14
Ltmp845:
	leaq	-424(%rbp), %rdi
	.loc	27 118 1 is_stmt 1
	callq	__ZN4core3ptr13drop_in_place17hec66f281062f9234E
	movq	%r14, %rdi
	callq	__Unwind_Resume
	ud2
Ltmp846:
Lfunc_end22:
	.cfi_endproc
	.section	__TEXT,__gcc_except_tab
	.p2align	2
GCC_except_table22:
Lexception3:
	.byte	255
	.byte	255
	.byte	1
	.uleb128 Lcst_end3-Lcst_begin3
Lcst_begin3:
	.uleb128 Lfunc_begin22-Lfunc_begin22
	.uleb128 Ltmp572-Lfunc_begin22
	.byte	0
	.byte	0
	.uleb128 Ltmp572-Lfunc_begin22
	.uleb128 Ltmp573-Ltmp572
	.uleb128 Ltmp574-Lfunc_begin22
	.byte	0
	.uleb128 Ltmp573-Lfunc_begin22
	.uleb128 Ltmp575-Ltmp573
	.byte	0
	.byte	0
	.uleb128 Ltmp575-Lfunc_begin22
	.uleb128 Ltmp578-Ltmp575
	.uleb128 Ltmp579-Lfunc_begin22
	.byte	0
	.uleb128 Ltmp580-Lfunc_begin22
	.uleb128 Ltmp581-Ltmp580
	.uleb128 Ltmp582-Lfunc_begin22
	.byte	0
	.uleb128 Ltmp583-Lfunc_begin22
	.uleb128 Ltmp596-Ltmp583
	.uleb128 Ltmp597-Lfunc_begin22
	.byte	0
	.uleb128 Ltmp628-Lfunc_begin22
	.uleb128 Ltmp629-Ltmp628
	.uleb128 Ltmp630-Lfunc_begin22
	.byte	0
	.uleb128 Ltmp629-Lfunc_begin22
	.uleb128 Ltmp598-Ltmp629
	.byte	0
	.byte	0
	.uleb128 Ltmp598-Lfunc_begin22
	.uleb128 Ltmp605-Ltmp598
	.uleb128 Ltmp624-Lfunc_begin22
	.byte	0
	.uleb128 Ltmp606-Lfunc_begin22
	.uleb128 Ltmp607-Ltmp606
	.uleb128 Ltmp608-Lfunc_begin22
	.byte	0
	.uleb128 Ltmp609-Lfunc_begin22
	.uleb128 Ltmp610-Ltmp609
	.uleb128 Ltmp611-Lfunc_begin22
	.byte	0
	.uleb128 Ltmp616-Lfunc_begin22
	.uleb128 Ltmp617-Ltmp616
	.uleb128 Ltmp618-Lfunc_begin22
	.byte	0
	.uleb128 Ltmp619-Lfunc_begin22
	.uleb128 Ltmp620-Ltmp619
	.uleb128 Ltmp621-Lfunc_begin22
	.byte	0
	.uleb128 Ltmp622-Lfunc_begin22
	.uleb128 Ltmp623-Ltmp622
	.uleb128 Ltmp624-Lfunc_begin22
	.byte	0
	.uleb128 Ltmp623-Lfunc_begin22
	.uleb128 Ltmp625-Ltmp623
	.byte	0
	.byte	0
	.uleb128 Ltmp625-Lfunc_begin22
	.uleb128 Ltmp626-Ltmp625
	.uleb128 Ltmp627-Lfunc_begin22
	.byte	0
	.uleb128 Ltmp612-Lfunc_begin22
	.uleb128 Ltmp615-Ltmp612
	.uleb128 Ltmp618-Lfunc_begin22
	.byte	0
	.uleb128 Ltmp615-Lfunc_begin22
	.uleb128 Lfunc_end22-Ltmp615
	.byte	0
	.byte	0
Lcst_end3:
	.p2align	2

	.section	__TEXT,__text,regular,pure_instructions
	.globl	_main
	.p2align	4, 0x90
_main:
Lfunc_begin23:
	.cfi_startproc
	pushq	%rbp
	.cfi_def_cfa_offset 16
	.cfi_offset %rbp, -16
	movq	%rsp, %rbp
	.cfi_def_cfa_register %rbp
	subq	$16, %rsp
	movq	%rsi, %rcx
	movslq	%edi, %rdx
	leaq	__ZN18build_script_build4main17heb27423a480aa701E(%rip), %rax
	movq	%rax, -8(%rbp)
	leaq	l___unnamed_1(%rip), %rsi
	leaq	-8(%rbp), %rdi
	callq	__ZN3std2rt19lang_start_internal17hebefdaa8fd585aefE
	addq	$16, %rsp
	popq	%rbp
	retq
Lfunc_end23:
	.cfi_endproc

	.section	__TEXT,__const
l___unnamed_34:
	.ascii	"/rustc/a74d1862d4d87a56244958416fd05976c58ca1a8/src/liballoc/collections/btree/map.rs"

	.section	__DATA,__const
	.p2align	3
l___unnamed_4:
	.quad	l___unnamed_34
	.asciz	"U\000\000\000\000\000\000\000C\006\000\000\033\000\000"

	.p2align	3
l___unnamed_1:
	.quad	__ZN4core3ptr13drop_in_place17h9d731892493b789eE
	.quad	8
	.quad	8
	.quad	__ZN3std2rt10lang_start28_$u7b$$u7b$closure$u7d$$u7d$17h921f586b0a031a02E
	.quad	__ZN3std2rt10lang_start28_$u7b$$u7b$closure$u7d$$u7d$17h921f586b0a031a02E
	.quad	__ZN4core3ops8function6FnOnce40call_once$u7b$$u7b$vtable.shim$u7d$$u7d$17h498352de714b87aeE

	.section	__TEXT,__const
l___unnamed_35:
	.ascii	"/rustc/a74d1862d4d87a56244958416fd05976c58ca1a8/src/libcore/str/mod.rs"

	.section	__DATA,__const
	.p2align	3
l___unnamed_11:
	.quad	l___unnamed_35
	.asciz	"F\000\000\000\000\000\000\000\004\b\000\000/\000\000"

	.section	__TEXT,__const
l___unnamed_36:
	.ascii	"/rustc/a74d1862d4d87a56244958416fd05976c58ca1a8/src/libcore/str/pattern.rs"

	.section	__DATA,__const
	.p2align	3
l___unnamed_8:
	.quad	l___unnamed_36
	.asciz	"J\000\000\000\000\000\000\000\017\005\000\000!\000\000"

	.p2align	3
l___unnamed_9:
	.quad	l___unnamed_36
	.asciz	"J\000\000\000\000\000\000\000\033\005\000\000\024\000\000"

	.p2align	3
l___unnamed_10:
	.quad	l___unnamed_36
	.asciz	"J\000\000\000\000\000\000\000\033\005\000\000!\000\000"

	.section	__TEXT,__const
l___unnamed_37:
	.ascii	"/rustc/a74d1862d4d87a56244958416fd05976c58ca1a8/src/libcore/macros/mod.rs"

	.section	__DATA,__const
	.p2align	3
l___unnamed_7:
	.quad	l___unnamed_37
	.asciz	"I\000\000\000\000\000\000\000\020\000\000\000\t\000\000"

	.section	__TEXT,__const
l___unnamed_3:
	.ascii	"called `Option::unwrap()` on a `None` value"

l___unnamed_32:
	.ascii	"called `Result::unwrap()` on an `Err` value"

	.section	__DATA,__const
	.p2align	3
l___unnamed_2:
	.quad	__ZN4core3ptr13drop_in_place17h39652c80df70f616E
	.quad	24
	.quad	8
	.quad	__ZN55_$LT$std..env..VarError$u20$as$u20$core..fmt..Debug$GT$3fmt17h4b70de487f3ab127E

	.section	__TEXT,__const
l___unnamed_38:
	.ascii	"internal error: entered unreachable code: "

	.section	__DATA,__const
	.p2align	3
l___unnamed_6:
	.quad	l___unnamed_38
	.asciz	"*\000\000\000\000\000\000"

	.section	__TEXT,__const
l___unnamed_39:
	.ascii	"BTreeMap has different depths"

	.section	__DATA,__const
	.p2align	3
l___unnamed_5:
	.quad	l___unnamed_39
	.asciz	"\035\000\000\000\000\000\000"

	.p2align	3
l___unnamed_12:
	.quad	l___unnamed_36
	.asciz	"J\000\000\000\000\000\000\000\213\001\000\000&\000\000"

	.section	__TEXT,__const
l___unnamed_40:
	.ascii	"cargo:rerun-if-changed=build.rs\n"

	.section	__DATA,__const
	.p2align	3
l___unnamed_13:
	.quad	l___unnamed_40
	.asciz	" \000\000\000\000\000\000"

	.section	__TEXT,__const
	.p2align	3
l___unnamed_14:
	.byte	0

l___unnamed_41:
	.ascii	"Minimum supported rustc version is 1.31\n"

	.section	__DATA,__const
	.p2align	3
l___unnamed_31:
	.quad	l___unnamed_41
	.asciz	"(\000\000\000\000\000\000"

	.section	__TEXT,__const
l___unnamed_42:
	.ascii	"cargo:rustc-cfg=no_bind_by_move_pattern_guard\n"

	.section	__DATA,__const
	.p2align	3
l___unnamed_20:
	.quad	l___unnamed_42
	.asciz	".\000\000\000\000\000\000"

	.section	__TEXT,__const
l___unnamed_43:
	.ascii	"cargo:rustc-cfg=hygiene\n"

	.section	__DATA,__const
	.p2align	3
l___unnamed_21:
	.quad	l___unnamed_43
	.asciz	"\030\000\000\000\000\000\000"

	.section	__TEXT,__const
l___unnamed_22:
	.ascii	"TARGET"

l___unnamed_44:
	.ascii	"/Users/yingyuhang/.cargo/registry/src/github.com-1ecc6299db9ec823/proc-macro2-1.0.18/build.rs"

	.section	__DATA,__const
	.p2align	3
l___unnamed_33:
	.quad	l___unnamed_44
	.asciz	"]\000\000\000\000\000\000\000H\000\000\000\022\000\000"

	.section	__TEXT,__const
l___unnamed_45:
	.ascii	"cargo:rustc-cfg=use_proc_macro\n"

	.section	__DATA,__const
	.p2align	3
l___unnamed_24:
	.quad	l___unnamed_45
	.asciz	"\037\000\000\000\000\000\000"

	.section	__TEXT,__const
l___unnamed_46:
	.ascii	"cargo:rustc-cfg=wrap_proc_macro\n"

	.section	__DATA,__const
	.p2align	3
l___unnamed_25:
	.quad	l___unnamed_46
	.asciz	" \000\000\000\000\000\000"

	.section	__TEXT,__const
l___unnamed_29:
	.ascii	"proc_macro_span"

l___unnamed_47:
	.ascii	"cargo:rustc-cfg=proc_macro_span\n"

	.section	__DATA,__const
	.p2align	3
l___unnamed_30:
	.quad	l___unnamed_47
	.asciz	" \000\000\000\000\000\000"

	.section	__TEXT,__const
l___unnamed_23:
	.ascii	"wasm32"

l___unnamed_15:
	.ascii	"RUSTC"

l___unnamed_16:
	.ascii	"--version"

l___unnamed_17:
	.ascii	"nightly"

l___unnamed_18:
	.ascii	"dev"

l___unnamed_19:
	.ascii	"rustc 1"

l___unnamed_26:
	.ascii	"RUSTFLAGS"

l___unnamed_27:
	.ascii	"-Z"

l___unnamed_28:
	.ascii	"allow-features="

	.section	__DATA,__const
Lsec_end0:
	.section	__TEXT,__text,regular,pure_instructions
Lsec_end1: