	.section	__TEXT,__text,regular,pure_instructions
	.macosx_version_min 10, 7
	.private_extern	__ZN3std2rt10lang_start17hbb18aafdb84a34d4E
	.globl	__ZN3std2rt10lang_start17hbb18aafdb84a34d4E
	.p2align	4, 0x90
__ZN3std2rt10lang_start17hbb18aafdb84a34d4E:
Lfunc_begin0:
	.file	1 "/rustc/a74d1862d4d87a56244958416fd05976c58ca1a8/src/libstd/rt.rs"
	.loc	1 62 0
	.cfi_startproc
	pushq	%rbp
	.cfi_def_cfa_offset 16
	.cfi_offset %rbp, -16
	movq	%rsp, %rbp
	.cfi_def_cfa_register %rbp
	subq	$16, %rsp
	movq	%rdx, %rcx
Ltmp0:
	movq	%rsi, %rdx
Ltmp1:
	.loc	1 67 26 prologue_end
	movq	%rdi, -8(%rbp)
	.loc	1 67 5 is_stmt 0
	leaq	l___unnamed_1(%rip), %rsi
	leaq	-8(%rbp), %rdi
Ltmp2:
	callq	__ZN3std2rt19lang_start_internal17hebefdaa8fd585aefE
Ltmp3:
	.loc	1 68 2 is_stmt 1
	addq	$16, %rsp
	popq	%rbp
	retq
Ltmp4:
Lfunc_end0:
	.cfi_endproc

	.p2align	4, 0x90
__ZN3std2rt10lang_start28_$u7b$$u7b$closure$u7d$$u7d$17h779fcade733a72b0E:
Lfunc_begin1:
	.loc	1 67 0
	.cfi_startproc
	pushq	%rbp
	.cfi_def_cfa_offset 16
	.cfi_offset %rbp, -16
	movq	%rsp, %rbp
	.cfi_def_cfa_register %rbp
Ltmp5:
	.loc	1 67 34 prologue_end
	callq	*(%rdi)
Ltmp6:
	.loc	1 67 49 is_stmt 0
	xorl	%eax, %eax
	popq	%rbp
	retq
Ltmp7:
Lfunc_end1:
	.cfi_endproc

	.p2align	4, 0x90
__ZN4core3ops8function6FnOnce40call_once$u7b$$u7b$vtable.shim$u7d$$u7d$17hf6aedb23a84c345fE:
Lfunc_begin2:
	.file	2 "/rustc/a74d1862d4d87a56244958416fd05976c58ca1a8/src/libcore/ops/function.rs"
	.loc	2 232 0 is_stmt 1
	.cfi_startproc
	pushq	%rbp
	.cfi_def_cfa_offset 16
	.cfi_offset %rbp, -16
	movq	%rsp, %rbp
	.cfi_def_cfa_register %rbp
Ltmp8:
	.loc	1 67 34 prologue_end
	callq	*(%rdi)
Ltmp9:
	.loc	2 232 5
	xorl	%eax, %eax
	popq	%rbp
	retq
Ltmp10:
Lfunc_end2:
	.cfi_endproc

	.p2align	4, 0x90
__ZN4core3ptr13drop_in_place17h4516cc4251e7befcE:
Lfunc_begin3:
	.file	3 "/rustc/a74d1862d4d87a56244958416fd05976c58ca1a8/src/libcore/ptr/mod.rs"
	.loc	3 178 0
	.cfi_startproc
	pushq	%rbp
	.cfi_def_cfa_offset 16
	.cfi_offset %rbp, -16
	movq	%rsp, %rbp
	.cfi_def_cfa_register %rbp
Ltmp11:
	.loc	3 178 1 prologue_end
	popq	%rbp
	retq
Ltmp12:
Lfunc_end3:
	.cfi_endproc

	.p2align	4, 0x90
__ZN18build_script_build4main17hfd0a1a49af76291cE:
Lfunc_begin4:
	.file	4 "/Users/yingyuhang/.cargo/registry/src/github.com-1ecc6299db9ec823/rayon-core-1.7.1/build.rs"
	.loc	4 4 0
	.cfi_startproc
	pushq	%rbp
	.cfi_def_cfa_offset 16
	.cfi_offset %rbp, -16
	movq	%rsp, %rbp
	.cfi_def_cfa_register %rbp
	subq	$48, %rsp
Ltmp13:
	.file	5 "/rustc/a74d1862d4d87a56244958416fd05976c58ca1a8/src/libcore/fmt/mod.rs"
	.loc	5 328 9 prologue_end
	leaq	l___unnamed_2(%rip), %rax
Ltmp14:
	movq	%rax, -48(%rbp)
	movq	$1, -40(%rbp)
	movq	$0, -32(%rbp)
	leaq	l___unnamed_3(%rip), %rax
Ltmp15:
	movq	%rax, -16(%rbp)
	movq	$0, -8(%rbp)
	leaq	-48(%rbp), %rdi
Ltmp16:
	.loc	4 6 5
	callq	__ZN3std2io5stdio6_print17hdea2154009b9e479E
Ltmp17:
	.loc	4 7 2
	addq	$48, %rsp
	popq	%rbp
	retq
Ltmp18:
Lfunc_end4:
	.cfi_endproc

	.globl	_main
	.p2align	4, 0x90
_main:
Lfunc_begin5:
	.cfi_startproc
	pushq	%rbp
	.cfi_def_cfa_offset 16
	.cfi_offset %rbp, -16
	movq	%rsp, %rbp
	.cfi_def_cfa_register %rbp
	subq	$16, %rsp
	movq	%rsi, %rcx
	movslq	%edi, %rdx
	leaq	__ZN18build_script_build4main17hfd0a1a49af76291cE(%rip), %rax
	movq	%rax, -8(%rbp)
	leaq	l___unnamed_1(%rip), %rsi
	leaq	-8(%rbp), %rdi
	callq	__ZN3std2rt19lang_start_internal17hebefdaa8fd585aefE
	addq	$16, %rsp
	popq	%rbp
	retq
Lfunc_end5:
	.cfi_endproc

	.section	__DATA,__const
	.p2align	3
l___unnamed_1:
	.quad	__ZN4core3ptr13drop_in_place17h4516cc4251e7befcE
	.quad	8
	.quad	8
	.quad	__ZN3std2rt10lang_start28_$u7b$$u7b$closure$u7d$$u7d$17h779fcade733a72b0E
	.quad	__ZN3std2rt10lang_start28_$u7b$$u7b$closure$u7d$$u7d$17h779fcade733a72b0E
	.quad	__ZN4core3ops8function6FnOnce40call_once$u7b$$u7b$vtable.shim$u7d$$u7d$17hf6aedb23a84c345fE

	.section	__TEXT,__const
l___unnamed_4:
	.ascii	"cargo:rerun-if-changed=build.rs\n"

	.section	__DATA,__const
	.p2align	3
l___unnamed_2:
	.quad	l___unnamed_4
	.asciz	" \000\000\000\000\000\000"

	.section	__TEXT,__const
	.p2align	3
l___unnamed_3:
	.byte	0

	.section	__DATA,__const
Lsec_end0:
	.section	__TEXT,__text,regular,pure_instructions
Lsec_end1: