	.section	__TEXT,__text,regular,pure_instructions
	.macosx_version_min 10, 7
	.p2align	4, 0x90
__ZN100_$LT$alloc..string..String$u20$as$u20$core..ops..index..Index$LT$core..ops..range..RangeFull$GT$$GT$5index17hf6c6d9203419e78fE:
Lfunc_begin0:
	.file	1 "/rustc/6c8927b0cf80ceee19386026cf9d7fd4fd9d486f/src/liballoc/string.rs"
	.loc	1 2063 0
	.cfi_startproc
	pushq	%rbp
	.cfi_def_cfa_offset 16
	.cfi_offset %rbp, -16
	movq	%rsp, %rbp
	.cfi_def_cfa_register %rbp
	subq	$64, %rsp
	movq	%rdi, -16(%rbp)
	movq	%rsi, -24(%rbp)
Ltmp0:
	.loc	1 2064 43 prologue_end
	callq	__ZN68_$LT$alloc..vec..Vec$LT$T$GT$$u20$as$u20$core..ops..deref..Deref$GT$5deref17h3043f5c067214724E
	movq	%rax, -32(%rbp)
	movq	%rdx, -40(%rbp)
	.loc	1 0 43 is_stmt 0
	movq	-32(%rbp), %rdi
	movq	-40(%rbp), %rsi
	.loc	1 2064 18
	callq	__ZN4core3str19from_utf8_unchecked17h5d9426221bb336caE
	movq	%rax, -48(%rbp)
	movq	%rdx, -56(%rbp)
	.loc	1 0 18
	movq	-48(%rbp), %rax
	movq	-56(%rbp), %rdx
	.loc	1 2065 6 is_stmt 1
	addq	$64, %rsp
	popq	%rbp
	retq
Ltmp1:
Lfunc_end0:
	.cfi_endproc

	.p2align	4, 0x90
__ZN101_$LT$core..ops..range..RangeTo$LT$usize$GT$$u20$as$u20$core..slice..SliceIndex$LT$$u5b$T$u5d$$GT$$GT$5index17h8c2654d42c1b1b3eE:
Lfunc_begin1:
	.file	2 "/rustc/6c8927b0cf80ceee19386026cf9d7fd4fd9d486f/src/libcore/slice/mod.rs"
	.loc	2 3213 0
	.cfi_startproc
	pushq	%rbp
	.cfi_def_cfa_offset 16
	.cfi_offset %rbp, -16
	movq	%rsp, %rbp
	.cfi_def_cfa_register %rbp
	subq	$80, %rsp
	movq	%rdi, -24(%rbp)
	movq	%rsi, -16(%rbp)
	movq	%rdx, -8(%rbp)
Ltmp2:
	.loc	2 3214 9 prologue_end
	movq	$0, -40(%rbp)
	movq	%rdi, -32(%rbp)
	movq	-40(%rbp), %rdi
	movq	-32(%rbp), %rax
	movq	%rsi, -48(%rbp)
	movq	%rax, %rsi
	movq	-48(%rbp), %rax
	movq	%rdx, -56(%rbp)
	movq	%rax, %rdx
	movq	-56(%rbp), %r8
	movq	%rcx, -64(%rbp)
	movq	%r8, %rcx
	movq	-64(%rbp), %r8
	callq	__ZN99_$LT$core..ops..range..Range$LT$usize$GT$$u20$as$u20$core..slice..SliceIndex$LT$$u5b$T$u5d$$GT$$GT$5index17h25f6e46be40365cdE
	movq	%rax, -72(%rbp)
	movq	%rdx, -80(%rbp)
	.loc	2 0 9 is_stmt 0
	movq	-72(%rbp), %rax
	movq	-80(%rbp), %rdx
	.loc	2 3215 6 is_stmt 1
	addq	$80, %rsp
	popq	%rbp
	retq
Ltmp3:
Lfunc_end1:
	.cfi_endproc

	.p2align	4, 0x90
__ZN101_$LT$core..ops..range..RangeTo$LT$usize$GT$$u20$as$u20$core..slice..SliceIndex$LT$$u5b$T$u5d$$GT$$GT$9index_mut17h100f4f826e6d5b03E:
Lfunc_begin2:
	.loc	2 3218 0
	.cfi_startproc
	pushq	%rbp
	.cfi_def_cfa_offset 16
	.cfi_offset %rbp, -16
	movq	%rsp, %rbp
	.cfi_def_cfa_register %rbp
	subq	$80, %rsp
	movq	%rdi, -24(%rbp)
	movq	%rsi, -16(%rbp)
	movq	%rdx, -8(%rbp)
Ltmp4:
	.loc	2 3219 9 prologue_end
	movq	$0, -40(%rbp)
	movq	%rdi, -32(%rbp)
	movq	-40(%rbp), %rdi
	movq	-32(%rbp), %rax
	movq	%rsi, -48(%rbp)
	movq	%rax, %rsi
	movq	-48(%rbp), %rax
	movq	%rdx, -56(%rbp)
	movq	%rax, %rdx
	movq	-56(%rbp), %r8
	movq	%rcx, -64(%rbp)
	movq	%r8, %rcx
	movq	-64(%rbp), %r8
	callq	__ZN99_$LT$core..ops..range..Range$LT$usize$GT$$u20$as$u20$core..slice..SliceIndex$LT$$u5b$T$u5d$$GT$$GT$9index_mut17h47dee9105538765aE
	movq	%rax, -72(%rbp)
	movq	%rdx, -80(%rbp)
	.loc	2 0 9 is_stmt 0
	movq	-72(%rbp), %rax
	movq	-80(%rbp), %rdx
	.loc	2 3220 6 is_stmt 1
	addq	$80, %rsp
	popq	%rbp
	retq
Ltmp5:
Lfunc_end2:
	.cfi_endproc

	.p2align	4, 0x90
__ZN105_$LT$std..ffi..os_str..OsString$u20$as$u20$core..ops..index..Index$LT$core..ops..range..RangeFull$GT$$GT$5index17h3ab88e1f8f3ebe8cE:
Lfunc_begin3:
	.file	3 "/rustc/6c8927b0cf80ceee19386026cf9d7fd4fd9d486f/src/libstd/ffi/os_str.rs"
	.loc	3 378 0
	.cfi_startproc
	pushq	%rbp
	.cfi_def_cfa_offset 16
	.cfi_offset %rbp, -16
	movq	%rsp, %rbp
	.cfi_def_cfa_register %rbp
	subq	$64, %rsp
	movq	%rdi, -16(%rbp)
	movq	%rsi, -24(%rbp)
Ltmp6:
	.loc	3 379 27 prologue_end
	callq	__ZN3std10sys_common12os_str_bytes3Buf8as_slice17h15bf02bae6d4aed6E
	movq	%rax, -32(%rbp)
	movq	%rdx, -40(%rbp)
	.loc	3 0 27 is_stmt 0
	movq	-32(%rbp), %rdi
	movq	-40(%rbp), %rsi
	.loc	3 379 9
	callq	__ZN3std3ffi6os_str5OsStr10from_inner17h00e7a75bc38384b5E
	movq	%rax, -48(%rbp)
	movq	%rdx, -56(%rbp)
	.loc	3 0 9
	movq	-48(%rbp), %rax
	movq	-56(%rbp), %rdx
	.loc	3 380 6 is_stmt 1
	addq	$64, %rsp
	popq	%rbp
	retq
Ltmp7:
Lfunc_end3:
	.cfi_endproc

	.p2align	4, 0x90
__ZN112_$LT$alloc..collections..btree..map..IntoIter$LT$K$C$V$GT$$u20$as$u20$core..iter..traits..iterator..Iterator$GT$4next17hfbb9b16fe6df797dE:
Lfunc_begin4:
	.file	4 "/rustc/6c8927b0cf80ceee19386026cf9d7fd4fd9d486f/src/liballoc/collections/btree/map.rs"
	.loc	4 1486 0
	.cfi_startproc
	pushq	%rbp
	.cfi_def_cfa_offset 16
	.cfi_offset %rbp, -16
	movq	%rsp, %rbp
	.cfi_def_cfa_register %rbp
	subq	$96, %rsp
	movq	%rdi, %rax
	movq	%rsi, -8(%rbp)
Ltmp8:
	.loc	4 1487 12 prologue_end
	cmpq	$0, 64(%rsi)
	movq	%rsi, -64(%rbp)
	movq	%rdi, -72(%rbp)
	movq	%rax, -80(%rbp)
	.loc	4 1487 9 is_stmt 0
	je	LBB4_2
	.loc	4 0 9
	movq	-64(%rbp), %rax
	.loc	4 1490 13 is_stmt 1
	movq	64(%rax), %rcx
	subq	$1, %rcx
	movq	%rcx, 64(%rax)
	.loc	4 1491 27
	movq	%rax, %rdi
	callq	__ZN4core6option15Option$LT$T$GT$6as_mut17h26e0ca2d537e620dE
	movq	%rax, -88(%rbp)
	jmp	LBB4_3
LBB4_2:
	.loc	4 0 27 is_stmt 0
	movq	-72(%rbp), %rax
	.loc	4 1488 13 is_stmt 1
	movq	$0, (%rax)
	.loc	4 1487 9
	jmp	LBB4_6
LBB4_3:
	.loc	4 0 9 is_stmt 0
	leaq	l___unnamed_3(%rip), %rax
	movq	-88(%rbp), %rdi
	.loc	4 1491 27 is_stmt 1
	movq	%rax, %rsi
	callq	__ZN4core6option15Option$LT$T$GT$6unwrap17h464385e6ffbf17c5E
	movq	%rax, -96(%rbp)
	leaq	-56(%rbp), %rdi
	movq	-96(%rbp), %rsi
	callq	__ZN5alloc11collections5btree8navigate263_$LT$impl$u20$alloc..collections..btree..node..Handle$LT$alloc..collections..btree..node..NodeRef$LT$alloc..collections..btree..node..marker..Owned$C$K$C$V$C$alloc..collections..btree..node..marker..Leaf$GT$$C$alloc..collections..btree..node..marker..Edge$GT$$GT$14next_unchecked17hecbbbed34cb3a159E
	.loc	4 0 27 is_stmt 0
	movq	-72(%rbp), %rax
	.loc	4 1491 13
	leaq	-56(%rbp), %rcx
	movq	%rax, %rdi
	movq	%rcx, %rsi
	movl	$48, %edx
	callq	_memcpy
LBB4_6:
	.loc	4 0 13
	movq	-80(%rbp), %rax
	.loc	4 1493 6 is_stmt 1
	addq	$96, %rsp
	popq	%rbp
	retq
Ltmp9:
Lfunc_end4:
	.cfi_endproc

	.p2align	4, 0x90
__ZN115_$LT$alloc..collections..btree..map..BTreeMap$LT$K$C$V$GT$$u20$as$u20$core..iter..traits..collect..IntoIterator$GT$9into_iter17hd45890d42b28a7c5E:
Lfunc_begin5:
	.loc	4 1430 0
	.cfi_startproc
	pushq	%rbp
	.cfi_def_cfa_offset 16
	.cfi_offset %rbp, -16
	movq	%rsp, %rbp
	.cfi_def_cfa_register %rbp
	subq	$496, %rsp
	movq	%rdi, %rax
Ltmp10:
	.loc	4 1431 40 prologue_end
	movq	(%rsi), %rcx
	movq	%rcx, -440(%rbp)
	movq	8(%rsi), %rcx
	movq	%rcx, -432(%rbp)
	movq	16(%rsi), %rcx
	movq	%rcx, -424(%rbp)
Ltmp11:
	.file	5 "/rustc/6c8927b0cf80ceee19386026cf9d7fd4fd9d486f/src/libcore/mem/manually_drop.rs"
	.loc	5 83 24
	movq	-440(%rbp), %rcx
	movq	%rcx, -40(%rbp)
	movq	-432(%rbp), %rcx
	movq	%rcx, -32(%rbp)
	movq	-424(%rbp), %rcx
	movq	%rcx, -24(%rbp)
	.loc	5 83 9 is_stmt 0
	movq	-40(%rbp), %rcx
	movq	%rcx, -464(%rbp)
	movq	-32(%rbp), %rcx
	movq	%rcx, -456(%rbp)
	movq	-24(%rbp), %rcx
	movq	%rcx, -448(%rbp)
	movq	%rdi, -472(%rbp)
	movq	%rax, -480(%rbp)
Ltmp12:
	.loc	5 0 9
	leaq	-464(%rbp), %rax
	movq	%rax, -8(%rbp)
	movq	%rax, -488(%rbp)
Ltmp13:
	movq	-488(%rbp), %rdi
Ltmp14:
	.loc	4 1432 29 is_stmt 1
	callq	__ZN4core6option15Option$LT$T$GT$4take17h28076b5b8f644fb8E
Ltmp15:
	movq	%rdx, -408(%rbp)
	movq	%rax, -416(%rbp)
	.loc	4 0 29 is_stmt 0
	xorl	%eax, %eax
	movl	%eax, %ecx
	.loc	4 1432 16
	cmpq	$0, -416(%rbp)
	movl	$1, %edx
	cmovbeq	%rcx, %rdx
	cmpq	$1, %rdx
	je	LBB5_5
	.loc	4 1437 31 is_stmt 1
	movq	$0, -112(%rbp)
	.loc	4 1437 43 is_stmt 0
	movq	$0, -80(%rbp)
	.loc	4 1437 13
	movq	-120(%rbp), %rax
	movq	-472(%rbp), %rcx
	movq	%rax, (%rcx)
	movq	-112(%rbp), %rax
	movq	%rax, 8(%rcx)
	movq	-104(%rbp), %rax
	movq	%rax, 16(%rcx)
	movq	-96(%rbp), %rax
	movq	%rax, 24(%rcx)
	movq	-88(%rbp), %rax
	movq	%rax, 32(%rcx)
	movq	-80(%rbp), %rax
	movq	%rax, 40(%rcx)
	movq	-72(%rbp), %rax
	movq	%rax, 48(%rcx)
	movq	-64(%rbp), %rax
	movq	%rax, 56(%rcx)
	movq	$0, 64(%rcx)
	.loc	4 1432 9 is_stmt 1
	jmp	LBB5_9
LBB5_5:
	.loc	4 1432 21 is_stmt 0
	movq	-416(%rbp), %rax
	movq	-408(%rbp), %rcx
	movq	%rax, -56(%rbp)
	movq	%rcx, -48(%rbp)
Ltmp16:
	.loc	4 1433 44 is_stmt 1
	leaq	-272(%rbp), %rdi
	movq	%rax, %rsi
	movq	%rcx, %rdx
	callq	__ZN5alloc11collections5btree4node17Root$LT$K$C$V$GT$8into_ref17h2b2e430e50096b3cE
	.loc	4 1433 26 is_stmt 0
	leaq	-336(%rbp), %rdi
	leaq	-272(%rbp), %rsi
	callq	__ZN5alloc11collections5btree3map17full_range_search17hccecf4d64692c0feE
	.loc	4 1433 18
	movq	-336(%rbp), %rax
	movq	%rax, -400(%rbp)
	movq	-328(%rbp), %rax
	movq	%rax, -392(%rbp)
	movq	-320(%rbp), %rax
	movq	%rax, -384(%rbp)
	movq	-312(%rbp), %rax
	movq	%rax, -376(%rbp)
	.loc	4 1433 21
	movq	-304(%rbp), %rax
	movq	%rax, -368(%rbp)
	movq	-296(%rbp), %rax
	movq	%rax, -360(%rbp)
	movq	-288(%rbp), %rax
	movq	%rax, -352(%rbp)
	movq	-280(%rbp), %rax
	movq	%rax, -344(%rbp)
Ltmp17:
	.loc	4 1435 36 is_stmt 1
	movq	-400(%rbp), %rax
	movq	%rax, -216(%rbp)
	movq	-392(%rbp), %rax
	movq	%rax, -208(%rbp)
	movq	-384(%rbp), %rax
	movq	%rax, -200(%rbp)
	movq	-376(%rbp), %rax
	movq	%rax, -192(%rbp)
	.loc	4 1435 31 is_stmt 0
	movq	-216(%rbp), %rax
	movq	%rax, -248(%rbp)
	movq	-208(%rbp), %rax
	movq	%rax, -240(%rbp)
	movq	-200(%rbp), %rax
	movq	%rax, -232(%rbp)
	movq	-192(%rbp), %rax
	movq	%rax, -224(%rbp)
	.loc	4 1435 51
	movq	-368(%rbp), %rax
	movq	%rax, -152(%rbp)
	movq	-360(%rbp), %rax
	movq	%rax, -144(%rbp)
	movq	-352(%rbp), %rax
	movq	%rax, -136(%rbp)
	movq	-344(%rbp), %rax
	movq	%rax, -128(%rbp)
	.loc	4 1435 46
	movq	-152(%rbp), %rax
	movq	%rax, -184(%rbp)
	movq	-144(%rbp), %rax
	movq	%rax, -176(%rbp)
	movq	-136(%rbp), %rax
	movq	%rax, -168(%rbp)
	movq	-128(%rbp), %rax
	movq	%rax, -160(%rbp)
	leaq	-464(%rbp), %rax
	movq	%rax, -16(%rbp)
	movq	%rax, -496(%rbp)
	.loc	4 0 46
	movq	-496(%rbp), %rax
	.loc	4 1435 63
	movq	16(%rax), %rcx
	.loc	4 1435 13
	movq	-248(%rbp), %rdx
	movq	-472(%rbp), %rsi
	movq	%rdx, (%rsi)
	movq	-240(%rbp), %rdx
	movq	%rdx, 8(%rsi)
	movq	-232(%rbp), %rdx
	movq	%rdx, 16(%rsi)
	movq	-224(%rbp), %rdx
	movq	%rdx, 24(%rsi)
	movq	-184(%rbp), %rdx
	movq	%rdx, 32(%rsi)
	movq	-176(%rbp), %rdx
	movq	%rdx, 40(%rsi)
	movq	-168(%rbp), %rdx
	movq	%rdx, 48(%rsi)
	movq	-160(%rbp), %rdx
	movq	%rdx, 56(%rsi)
	movq	%rcx, 64(%rsi)
Ltmp18:
LBB5_9:
	.loc	4 0 13
	movq	-480(%rbp), %rax
	.loc	4 1439 6 is_stmt 1
	addq	$496, %rsp
	popq	%rbp
	retq
Ltmp19:
Lfunc_end5:
	.cfi_endproc

	.p2align	4, 0x90
__ZN119_$LT$core..ptr..non_null..NonNull$LT$T$GT$$u20$as$u20$core..convert..From$LT$core..ptr..unique..Unique$LT$T$GT$$GT$$GT$4from17h12bf739bf3d460f8E:
Lfunc_begin6:
	.file	6 "/rustc/6c8927b0cf80ceee19386026cf9d7fd4fd9d486f/src/libcore/ptr/non_null.rs"
	.loc	6 329 0
	.cfi_startproc
	pushq	%rbp
	.cfi_def_cfa_offset 16
	.cfi_offset %rbp, -16
	movq	%rsp, %rbp
	.cfi_def_cfa_register %rbp
	subq	$32, %rsp
	movq	%rdi, -8(%rbp)
Ltmp20:
	.loc	6 332 41 prologue_end
	callq	__ZN4core3ptr6unique15Unique$LT$T$GT$6as_ptr17h03e13618c33c594aE
	movq	%rax, -16(%rbp)
	.loc	6 0 41 is_stmt 0
	movq	-16(%rbp), %rdi
	.loc	6 332 18
	callq	__ZN4core3ptr8non_null16NonNull$LT$T$GT$13new_unchecked17h1b2d39ff8d5b1a15E
	movq	%rax, -24(%rbp)
	.loc	6 0 18
	movq	-24(%rbp), %rax
	.loc	6 333 6 is_stmt 1
	addq	$32, %rsp
	popq	%rbp
	retq
Ltmp21:
Lfunc_end6:
	.cfi_endproc

	.p2align	4, 0x90
__ZN119_$LT$core..ptr..non_null..NonNull$LT$T$GT$$u20$as$u20$core..convert..From$LT$core..ptr..unique..Unique$LT$T$GT$$GT$$GT$4from17hcf74caecc7979735E:
Lfunc_begin7:
	.loc	6 329 0
	.cfi_startproc
	pushq	%rbp
	.cfi_def_cfa_offset 16
	.cfi_offset %rbp, -16
	movq	%rsp, %rbp
	.cfi_def_cfa_register %rbp
	subq	$32, %rsp
	movq	%rdi, -8(%rbp)
Ltmp22:
	.loc	6 332 41 prologue_end
	callq	__ZN4core3ptr6unique15Unique$LT$T$GT$6as_ptr17h38d879e652a5eb8fE
	movq	%rax, -16(%rbp)
	.loc	6 0 41 is_stmt 0
	movq	-16(%rbp), %rdi
	.loc	6 332 18
	callq	__ZN4core3ptr8non_null16NonNull$LT$T$GT$13new_unchecked17ha32e919712a2c591E
	movq	%rax, -24(%rbp)
	.loc	6 0 18
	movq	-24(%rbp), %rax
	.loc	6 333 6 is_stmt 1
	addq	$32, %rsp
	popq	%rbp
	retq
Ltmp23:
Lfunc_end7:
	.cfi_endproc

	.p2align	4, 0x90
__ZN166_$LT$$LT$alloc..collections..btree..map..IntoIter$LT$K$C$V$GT$$u20$as$u20$core..ops..drop..Drop$GT$..drop..DropGuard$LT$K$C$V$GT$$u20$as$u20$core..ops..drop..Drop$GT$4drop17h0dbd94c8b725e210E:
Lfunc_begin8:
	.loc	4 1448 0
	.cfi_startproc
	pushq	%rbp
	.cfi_def_cfa_offset 16
	.cfi_offset %rbp, -16
	movq	%rsp, %rbp
	.cfi_def_cfa_register %rbp
	subq	$384, %rsp
	movq	%rdi, -40(%rbp)
	movq	%rdi, -376(%rbp)
LBB8_1:
	movq	-376(%rbp), %rax
Ltmp24:
	.loc	4 1451 37 prologue_end
	movq	(%rax), %rsi
	leaq	-368(%rbp), %rdi
	callq	__ZN112_$LT$alloc..collections..btree..map..IntoIter$LT$K$C$V$GT$$u20$as$u20$core..iter..traits..iterator..Iterator$GT$4next17hfbb9b16fe6df797dE
	.loc	4 0 37 is_stmt 0
	xorl	%eax, %eax
	movl	%eax, %ecx
	.loc	4 1451 27
	cmpq	$0, -368(%rbp)
	movl	$1, %edx
	cmovbeq	%rcx, %rdx
	cmpq	$1, %rdx
	je	LBB8_4
	.loc	4 1451 52
	leaq	-368(%rbp), %rdi
	callq	__ZN4core3ptr13drop_in_place17h226369b5911517b1E
	jmp	LBB8_5
LBB8_4:
	leaq	-368(%rbp), %rdi
	callq	__ZN4core3ptr13drop_in_place17h226369b5911517b1E
	jmp	LBB8_6
LBB8_5:
	.loc	4 0 52
	movq	-376(%rbp), %rax
	.loc	4 1455 52 is_stmt 1
	movq	(%rax), %rcx
	.loc	4 1455 42 is_stmt 0
	leaq	-240(%rbp), %rdi
	movq	%rcx, %rsi
	callq	__ZN4core3ptr4read17he45183eec5670ac8E
	jmp	LBB8_7
LBB8_6:
	.loc	4 1451 17 is_stmt 1
	jmp	LBB8_1
LBB8_7:
Ltmp25:
	.file	7 "/rustc/6c8927b0cf80ceee19386026cf9d7fd4fd9d486f/src/liballoc/collections/btree/mod.rs"
	.loc	7 18 5
	movq	-240(%rbp), %rax
	movq	%rax, -32(%rbp)
	movq	-232(%rbp), %rax
	movq	%rax, -24(%rbp)
	movq	-224(%rbp), %rax
	movq	%rax, -16(%rbp)
	movq	-216(%rbp), %rax
	movq	%rax, -8(%rbp)
	leaq	-272(%rbp), %rdi
	leaq	-32(%rbp), %rsi
	callq	__ZN4core6option15Option$LT$T$GT$14unwrap_or_else17h696efb66fcde653cE
Ltmp26:
	.loc	4 1455 25
	leaq	-296(%rbp), %rdi
	leaq	-272(%rbp), %rsi
	callq	__ZN5alloc11collections5btree4node25Handle$LT$Node$C$Type$GT$9into_node17h665d2ec3e9d42a17E
	leaq	-320(%rbp), %rdi
	leaq	-296(%rbp), %rsi
	callq	__ZN5alloc11collections5btree4node40NodeRef$LT$BorrowType$C$K$C$V$C$Type$GT$11forget_type17h7c5bc7c9d90f824dE
Ltmp27:
	.loc	4 1456 21
	jmp	LBB8_11
LBB8_11:
	.loc	4 1456 46 is_stmt 0
	movq	-320(%rbp), %rax
	movq	%rax, -176(%rbp)
	movq	-312(%rbp), %rax
	movq	%rax, -168(%rbp)
	movq	-304(%rbp), %rax
	movq	%rax, -160(%rbp)
	leaq	-208(%rbp), %rdi
	leaq	-176(%rbp), %rsi
	callq	__ZN5alloc11collections5btree4node127NodeRef$LT$alloc..collections..btree..node..marker..Owned$C$K$C$V$C$alloc..collections..btree..node..marker..LeafOrInternal$GT$21deallocate_and_ascend17hfb4b6eb2e56376d0E
	.loc	4 0 46
	xorl	%eax, %eax
	movl	%eax, %ecx
	.loc	4 1456 31
	cmpq	$0, -200(%rbp)
	movl	$1, %edx
	cmovbeq	%rcx, %rdx
	cmpq	$1, %rdx
	je	LBB8_14
Ltmp28:
	.loc	4 1460 14 is_stmt 1
	addq	$384, %rsp
	popq	%rbp
	retq
LBB8_14:
Ltmp29:
	.loc	4 1456 36
	movq	-208(%rbp), %rax
	movq	%rax, -152(%rbp)
	movq	-200(%rbp), %rax
	movq	%rax, -144(%rbp)
	movq	-192(%rbp), %rax
	movq	%rax, -136(%rbp)
	movq	-184(%rbp), %rax
	movq	%rax, -128(%rbp)
Ltmp30:
	.loc	4 1457 32
	movq	-152(%rbp), %rax
	movq	%rax, -72(%rbp)
	movq	-144(%rbp), %rax
	movq	%rax, -64(%rbp)
	movq	-136(%rbp), %rax
	movq	%rax, -56(%rbp)
	movq	-128(%rbp), %rax
	movq	%rax, -48(%rbp)
	leaq	-96(%rbp), %rdi
	leaq	-72(%rbp), %rsi
	callq	__ZN5alloc11collections5btree4node25Handle$LT$Node$C$Type$GT$9into_node17hdaf66721912ac0e0E
	leaq	-120(%rbp), %rdi
	leaq	-96(%rbp), %rsi
	callq	__ZN5alloc11collections5btree4node40NodeRef$LT$BorrowType$C$K$C$V$C$Type$GT$11forget_type17h505fc43e754df12bE
	.loc	4 1457 25 is_stmt 0
	movq	-120(%rbp), %rax
	movq	%rax, -320(%rbp)
	movq	-112(%rbp), %rax
	movq	%rax, -312(%rbp)
	movq	-104(%rbp), %rax
	movq	%rax, -304(%rbp)
Ltmp31:
	.loc	4 1456 21 is_stmt 1
	jmp	LBB8_11
Ltmp32:
Lfunc_end8:
	.cfi_endproc

	.p2align	4, 0x90
__ZN3std10sys_common12os_str_bytes3Buf8as_slice17h15bf02bae6d4aed6E:
Lfunc_begin9:
	.file	8 "/rustc/6c8927b0cf80ceee19386026cf9d7fd4fd9d486f/src/libstd/sys_common/os_str_bytes.rs"
	.loc	8 108 0
	.cfi_startproc
	pushq	%rbp
	.cfi_def_cfa_offset 16
	.cfi_offset %rbp, -16
	movq	%rsp, %rbp
	.cfi_def_cfa_register %rbp
	subq	$64, %rsp
	movq	%rdi, -24(%rbp)
Ltmp33:
	.loc	8 112 34 prologue_end
	callq	__ZN68_$LT$alloc..vec..Vec$LT$T$GT$$u20$as$u20$core..ops..deref..Deref$GT$5deref17h3043f5c067214724E
	movq	%rax, -32(%rbp)
	movq	%rdx, -40(%rbp)
	.loc	8 0 34 is_stmt 0
	movq	-32(%rbp), %rax
	.loc	8 112 18
	movq	%rax, -16(%rbp)
	movq	-40(%rbp), %rcx
	movq	%rcx, -8(%rbp)
	movq	-16(%rbp), %rax
	movq	-8(%rbp), %rdx
	movq	%rax, -48(%rbp)
	movq	%rdx, -56(%rbp)
	.loc	8 0 18
	movq	-48(%rbp), %rax
	movq	-56(%rbp), %rdx
	.loc	8 113 6 is_stmt 1
	addq	$64, %rsp
	popq	%rbp
	retq
Ltmp34:
Lfunc_end9:
	.cfi_endproc

	.p2align	4, 0x90
__ZN3std10sys_common12os_str_bytes5Slice13from_u8_slice17ha4d9b5bf4de19f09E:
Lfunc_begin10:
	.loc	8 155 0
	.cfi_startproc
	pushq	%rbp
	.cfi_def_cfa_offset 16
	.cfi_offset %rbp, -16
	movq	%rsp, %rbp
	.cfi_def_cfa_register %rbp
	subq	$48, %rsp
	movq	%rdi, -32(%rbp)
	movq	%rsi, -24(%rbp)
Ltmp35:
	.loc	8 156 18 prologue_end
	movq	%rdi, -16(%rbp)
	movq	%rsi, -8(%rbp)
	movq	-16(%rbp), %rax
	movq	-8(%rbp), %rdx
	movq	%rax, -40(%rbp)
	movq	%rdx, -48(%rbp)
	.loc	8 0 18 is_stmt 0
	movq	-40(%rbp), %rax
	movq	-48(%rbp), %rdx
	.loc	8 157 6 is_stmt 1
	addq	$48, %rsp
	popq	%rbp
	retq
Ltmp36:
Lfunc_end10:
	.cfi_endproc

	.p2align	4, 0x90
__ZN3std10sys_common12os_str_bytes5Slice8from_str17h499143f7f258a8d9E:
Lfunc_begin11:
	.loc	8 160 0
	.cfi_startproc
	pushq	%rbp
	.cfi_def_cfa_offset 16
	.cfi_offset %rbp, -16
	movq	%rsp, %rbp
	.cfi_def_cfa_register %rbp
	subq	$80, %rsp
	movq	%rdi, -48(%rbp)
	movq	%rsi, -40(%rbp)
	movq	%rdi, -16(%rbp)
	movq	%rsi, -8(%rbp)
Ltmp37:
	.file	9 "/rustc/6c8927b0cf80ceee19386026cf9d7fd4fd9d486f/src/libcore/str/mod.rs"
	.loc	9 2359 18 prologue_end
	movq	%rdi, -32(%rbp)
	movq	%rsi, -24(%rbp)
	movq	-32(%rbp), %rdi
	movq	-24(%rbp), %rsi
	movq	%rdi, -56(%rbp)
	movq	%rsi, -64(%rbp)
Ltmp38:
	.loc	9 0 18 is_stmt 0
	movq	-56(%rbp), %rdi
	movq	-64(%rbp), %rsi
	.loc	8 161 9 is_stmt 1
	callq	__ZN3std10sys_common12os_str_bytes5Slice13from_u8_slice17ha4d9b5bf4de19f09E
	movq	%rax, -72(%rbp)
	movq	%rdx, -80(%rbp)
	.loc	8 0 9 is_stmt 0
	movq	-72(%rbp), %rax
	movq	-80(%rbp), %rdx
	.loc	8 162 6 is_stmt 1
	addq	$80, %rsp
	popq	%rbp
	retq
Ltmp39:
Lfunc_end11:
	.cfi_endproc

	.private_extern	__ZN3std2rt10lang_start17hec1c4ba49ce2b479E
	.globl	__ZN3std2rt10lang_start17hec1c4ba49ce2b479E
	.p2align	4, 0x90
__ZN3std2rt10lang_start17hec1c4ba49ce2b479E:
Lfunc_begin12:
	.file	10 "/rustc/6c8927b0cf80ceee19386026cf9d7fd4fd9d486f/src/libstd/rt.rs"
	.loc	10 62 0
	.cfi_startproc
	pushq	%rbp
	.cfi_def_cfa_offset 16
	.cfi_offset %rbp, -16
	movq	%rsp, %rbp
	.cfi_def_cfa_register %rbp
	subq	$64, %rsp
	leaq	l___unnamed_1(%rip), %rax
	movq	%rdi, -24(%rbp)
	movq	%rsi, -16(%rbp)
	movq	%rdx, -8(%rbp)
Ltmp40:
	.loc	10 67 26 prologue_end
	movq	%rdi, -32(%rbp)
	.loc	10 67 25 is_stmt 0
	leaq	-32(%rbp), %rcx
	.loc	10 67 5
	movq	%rcx, %rdi
	movq	%rsi, -40(%rbp)
	movq	%rax, %rsi
	movq	-40(%rbp), %rax
	movq	%rdx, -48(%rbp)
	movq	%rax, %rdx
	movq	-48(%rbp), %rcx
	callq	__ZN3std2rt19lang_start_internal17hbbd10965adc92ae7E
	movq	%rax, -56(%rbp)
	.loc	10 0 5
	movq	-56(%rbp), %rax
	.loc	10 68 2 is_stmt 1
	addq	$64, %rsp
	popq	%rbp
	retq
Ltmp41:
Lfunc_end12:
	.cfi_endproc

	.p2align	4, 0x90
__ZN3std2rt10lang_start28_$u7b$$u7b$closure$u7d$$u7d$17h954df2005701f60cE:
Lfunc_begin13:
	.loc	10 67 0
	.cfi_startproc
	pushq	%rbp
	.cfi_def_cfa_offset 16
	.cfi_offset %rbp, -16
	movq	%rsp, %rbp
	.cfi_def_cfa_register %rbp
	subq	$16, %rsp
	movq	%rdi, -8(%rbp)
Ltmp42:
	.loc	10 67 34 prologue_end
	callq	*(%rdi)
	callq	__ZN54_$LT$$LP$$RP$$u20$as$u20$std..process..Termination$GT$6report17heb2134fce42cbc08E
	movl	%eax, -12(%rbp)
	.loc	10 0 34 is_stmt 0
	movl	-12(%rbp), %eax
	.loc	10 67 49
	addq	$16, %rsp
	popq	%rbp
	retq
Ltmp43:
Lfunc_end13:
	.cfi_endproc

	.p2align	4, 0x90
__ZN3std3env3var17h6fcb8bdf46fd8124E:
Lfunc_begin14:
	.file	11 "/rustc/6c8927b0cf80ceee19386026cf9d7fd4fd9d486f/src/libstd/env.rs"
	.loc	11 211 0 is_stmt 1
	.cfi_startproc
	.cfi_personality 155, _rust_eh_personality
	.cfi_lsda 16, Lexception0
	pushq	%rbp
	.cfi_def_cfa_offset 16
	.cfi_offset %rbp, -16
	movq	%rsp, %rbp
	.cfi_def_cfa_register %rbp
	subq	$64, %rsp
	movq	%rdi, %rax
	movq	%rsi, -32(%rbp)
	movq	%rdx, -24(%rbp)
Ltmp44:
	leaq	-32(%rbp), %rcx
	movq	%rdi, -40(%rbp)
Ltmp49:
	.loc	11 212 10 prologue_end
	movq	%rcx, %rdi
	movq	%rax, -48(%rbp)
	callq	__ZN55_$LT$$RF$T$u20$as$u20$core..convert..AsRef$LT$U$GT$$GT$6as_ref17ha838836746f23e57E
Ltmp45:
	movq	%rdx, -56(%rbp)
	movq	%rax, -64(%rbp)
	jmp	LBB14_2
LBB14_1:
	.loc	11 211 1
	movq	-16(%rbp), %rdi
	callq	__Unwind_Resume
	ud2
LBB14_2:
Ltmp46:
	.loc	11 0 1 is_stmt 0
	movq	-40(%rbp), %rdi
	movq	-64(%rbp), %rsi
	movq	-56(%rbp), %rdx
	.loc	11 212 5 is_stmt 1
	callq	__ZN3std3env4_var17h5f49b4c5e0582abcE
Ltmp47:
	jmp	LBB14_4
LBB14_3:
	.loc	11 213 1
	jmp	LBB14_1
LBB14_4:
	jmp	LBB14_5
LBB14_5:
	.loc	11 0 1 is_stmt 0
	movq	-48(%rbp), %rax
	.loc	11 213 2
	addq	$64, %rsp
	popq	%rbp
	retq
Ltmp50:
LBB14_6:
Ltmp48:
	.loc	11 0 2
	movq	%rax, -16(%rbp)
	movl	%edx, -8(%rbp)
	jmp	LBB14_3
Lfunc_end14:
	.cfi_endproc
	.section	__TEXT,__gcc_except_tab
	.p2align	2
GCC_except_table14:
Lexception0:
	.byte	255
	.byte	255
	.byte	1
	.uleb128 Lcst_end0-Lcst_begin0
Lcst_begin0:
	.uleb128 Ltmp44-Lfunc_begin14
	.uleb128 Ltmp45-Ltmp44
	.uleb128 Ltmp48-Lfunc_begin14
	.byte	0
	.uleb128 Ltmp45-Lfunc_begin14
	.uleb128 Ltmp46-Ltmp45
	.byte	0
	.byte	0
	.uleb128 Ltmp46-Lfunc_begin14
	.uleb128 Ltmp47-Ltmp46
	.uleb128 Ltmp48-Lfunc_begin14
	.byte	0
Lcst_end0:
	.p2align	2

	.section	__TEXT,__text,regular,pure_instructions
	.p2align	4, 0x90
__ZN3std3env6var_os17h611d1d429a0d50a0E:
Lfunc_begin15:
	.loc	11 245 0 is_stmt 1
	.cfi_startproc
	.cfi_personality 155, _rust_eh_personality
	.cfi_lsda 16, Lexception1
	pushq	%rbp
	.cfi_def_cfa_offset 16
	.cfi_offset %rbp, -16
	movq	%rsp, %rbp
	.cfi_def_cfa_register %rbp
	subq	$64, %rsp
	movq	%rdi, %rax
	movq	%rsi, -32(%rbp)
	movq	%rdx, -24(%rbp)
Ltmp51:
	leaq	-32(%rbp), %rcx
	movq	%rdi, -40(%rbp)
Ltmp56:
	.loc	11 246 13 prologue_end
	movq	%rcx, %rdi
	movq	%rax, -48(%rbp)
	callq	__ZN55_$LT$$RF$T$u20$as$u20$core..convert..AsRef$LT$U$GT$$GT$6as_ref17ha838836746f23e57E
Ltmp52:
	movq	%rdx, -56(%rbp)
	movq	%rax, -64(%rbp)
	jmp	LBB15_2
LBB15_1:
	.loc	11 245 1
	movq	-16(%rbp), %rdi
	callq	__Unwind_Resume
	ud2
LBB15_2:
Ltmp53:
	.loc	11 0 1 is_stmt 0
	movq	-40(%rbp), %rdi
	movq	-64(%rbp), %rsi
	movq	-56(%rbp), %rdx
	.loc	11 246 5 is_stmt 1
	callq	__ZN3std3env7_var_os17hc628b18a701aa4a3E
Ltmp54:
	jmp	LBB15_4
LBB15_3:
	.loc	11 247 1
	jmp	LBB15_1
LBB15_4:
	jmp	LBB15_5
LBB15_5:
	.loc	11 0 1 is_stmt 0
	movq	-48(%rbp), %rax
	.loc	11 247 2
	addq	$64, %rsp
	popq	%rbp
	retq
Ltmp57:
LBB15_6:
Ltmp55:
	.loc	11 0 2
	movq	%rax, -16(%rbp)
	movl	%edx, -8(%rbp)
	jmp	LBB15_3
Lfunc_end15:
	.cfi_endproc
	.section	__TEXT,__gcc_except_tab
	.p2align	2
GCC_except_table15:
Lexception1:
	.byte	255
	.byte	255
	.byte	1
	.uleb128 Lcst_end1-Lcst_begin1
Lcst_begin1:
	.uleb128 Ltmp51-Lfunc_begin15
	.uleb128 Ltmp52-Ltmp51
	.uleb128 Ltmp55-Lfunc_begin15
	.byte	0
	.uleb128 Ltmp52-Lfunc_begin15
	.uleb128 Ltmp53-Ltmp52
	.byte	0
	.byte	0
	.uleb128 Ltmp53-Lfunc_begin15
	.uleb128 Ltmp54-Ltmp53
	.uleb128 Ltmp55-Lfunc_begin15
	.byte	0
Lcst_end1:
	.p2align	2

	.section	__TEXT,__text,regular,pure_instructions
	.p2align	4, 0x90
__ZN3std3ffi6os_str5OsStr10from_inner17h00e7a75bc38384b5E:
Lfunc_begin16:
	.loc	3 528 0 is_stmt 1
	.cfi_startproc
	pushq	%rbp
	.cfi_def_cfa_offset 16
	.cfi_offset %rbp, -16
	movq	%rsp, %rbp
	.cfi_def_cfa_register %rbp
	subq	$16, %rsp
	movq	%rdi, -16(%rbp)
	movq	%rsi, -8(%rbp)
Ltmp58:
	.loc	3 532 6 prologue_end
	movq	%rdi, %rax
	movq	%rsi, %rdx
	addq	$16, %rsp
	popq	%rbp
	retq
Ltmp59:
Lfunc_end16:
	.cfi_endproc

	.p2align	4, 0x90
__ZN3std3ffi6os_str85_$LT$impl$u20$core..convert..AsRef$LT$std..ffi..os_str..OsStr$GT$$u20$for$u20$str$GT$6as_ref17h1687f6887c4473bdE:
Lfunc_begin17:
	.loc	3 1157 0
	.cfi_startproc
	pushq	%rbp
	.cfi_def_cfa_offset 16
	.cfi_offset %rbp, -16
	movq	%rsp, %rbp
	.cfi_def_cfa_register %rbp
	subq	$48, %rsp
	movq	%rdi, -16(%rbp)
	movq	%rsi, -8(%rbp)
Ltmp60:
	.loc	3 1158 27 prologue_end
	callq	__ZN3std10sys_common12os_str_bytes5Slice8from_str17h499143f7f258a8d9E
	movq	%rax, -24(%rbp)
	movq	%rdx, -32(%rbp)
	.loc	3 0 27 is_stmt 0
	movq	-24(%rbp), %rdi
	movq	-32(%rbp), %rsi
	.loc	3 1158 9
	callq	__ZN3std3ffi6os_str5OsStr10from_inner17h00e7a75bc38384b5E
	movq	%rax, -40(%rbp)
	movq	%rdx, -48(%rbp)
	.loc	3 0 9
	movq	-40(%rbp), %rax
	movq	-48(%rbp), %rdx
	.loc	3 1159 6 is_stmt 1
	addq	$48, %rsp
	popq	%rbp
	retq
Ltmp61:
Lfunc_end17:
	.cfi_endproc

	.p2align	4, 0x90
__ZN3std3sys4unix7process14process_common8ExitCode6as_i3217h7ad9fb0b05fdc02dE:
Lfunc_begin18:
	.file	12 "/rustc/6c8927b0cf80ceee19386026cf9d7fd4fd9d486f/src/libstd/sys/unix/process/process_common.rs"
	.loc	12 398 0
	.cfi_startproc
	pushq	%rbp
	.cfi_def_cfa_offset 16
	.cfi_offset %rbp, -16
	movq	%rsp, %rbp
	.cfi_def_cfa_register %rbp
	pushq	%rax
	movq	%rdi, -8(%rbp)
Ltmp62:
	.loc	12 399 9 prologue_end
	movzbl	(%rdi), %eax
	.loc	12 400 6
	addq	$8, %rsp
	popq	%rbp
	retq
Ltmp63:
Lfunc_end18:
	.cfi_endproc

	.p2align	4, 0x90
__ZN3std7process7Command3arg17hc92beda723b1fed9E:
Lfunc_begin19:
	.file	13 "/rustc/6c8927b0cf80ceee19386026cf9d7fd4fd9d486f/src/libstd/process.rs"
	.loc	13 541 0
	.cfi_startproc
	.cfi_personality 155, _rust_eh_personality
	.cfi_lsda 16, Lexception2
	pushq	%rbp
	.cfi_def_cfa_offset 16
	.cfi_offset %rbp, -16
	movq	%rsp, %rbp
	.cfi_def_cfa_register %rbp
	subq	$80, %rsp
	movq	%rsi, -40(%rbp)
	movq	%rdx, -32(%rbp)
	movq	%rdi, -24(%rbp)
Ltmp69:
	.loc	13 542 9 prologue_end
	movq	%rdi, %rax
Ltmp64:
	leaq	-40(%rbp), %rcx
	movq	%rdi, -48(%rbp)
	.loc	13 542 24 is_stmt 0
	movq	%rcx, %rdi
	movq	%rax, -56(%rbp)
	callq	__ZN55_$LT$$RF$T$u20$as$u20$core..convert..AsRef$LT$U$GT$$GT$6as_ref17ha838836746f23e57E
Ltmp65:
	movq	%rdx, -64(%rbp)
	movq	%rax, -72(%rbp)
	jmp	LBB19_2
LBB19_1:
	.loc	13 541 5 is_stmt 1
	movq	-16(%rbp), %rdi
	callq	__Unwind_Resume
	ud2
LBB19_2:
Ltmp66:
	.loc	13 0 5 is_stmt 0
	movq	-56(%rbp), %rdi
	movq	-72(%rbp), %rsi
	movq	-64(%rbp), %rdx
	.loc	13 542 9 is_stmt 1
	callq	__ZN3std3sys4unix7process14process_common7Command3arg17he3b985033bebdb87E
Ltmp67:
	jmp	LBB19_4
LBB19_3:
	.loc	13 544 5
	jmp	LBB19_1
LBB19_4:
	jmp	LBB19_5
LBB19_5:
	.loc	13 0 5 is_stmt 0
	movq	-48(%rbp), %rax
	.loc	13 544 6
	addq	$80, %rsp
	popq	%rbp
	retq
Ltmp70:
LBB19_6:
Ltmp68:
	.loc	13 0 6
	movq	%rax, -16(%rbp)
	movl	%edx, -8(%rbp)
	jmp	LBB19_3
Lfunc_end19:
	.cfi_endproc
	.section	__TEXT,__gcc_except_tab
	.p2align	2
GCC_except_table19:
Lexception2:
	.byte	255
	.byte	255
	.byte	1
	.uleb128 Lcst_end2-Lcst_begin2
Lcst_begin2:
	.uleb128 Ltmp64-Lfunc_begin19
	.uleb128 Ltmp65-Ltmp64
	.uleb128 Ltmp68-Lfunc_begin19
	.byte	0
	.uleb128 Ltmp65-Lfunc_begin19
	.uleb128 Ltmp66-Ltmp65
	.byte	0
	.byte	0
	.uleb128 Ltmp66-Lfunc_begin19
	.uleb128 Ltmp67-Ltmp66
	.uleb128 Ltmp68-Lfunc_begin19
	.byte	0
Lcst_end2:
	.p2align	2

	.section	__TEXT,__text,regular,pure_instructions
	.p2align	4, 0x90
__ZN3std7process7Command3new17h79308085544849eeE:
Lfunc_begin20:
	.loc	13 500 0 is_stmt 1
	.cfi_startproc
	.cfi_personality 155, _rust_eh_personality
	.cfi_lsda 16, Lexception3
	pushq	%rbp
	.cfi_def_cfa_offset 16
	.cfi_offset %rbp, -16
	movq	%rsp, %rbp
	.cfi_def_cfa_register %rbp
	subq	$240, %rsp
	movq	%rdi, %rax
Ltmp71:
	movq	%rdi, -208(%rbp)
Ltmp76:
	.loc	13 501 44 prologue_end
	movq	%rsi, %rdi
	movq	%rsi, -216(%rbp)
Ltmp77:
	.loc	13 0 44 is_stmt 0
	movq	%rax, -224(%rbp)
	.loc	13 501 44
	callq	__ZN98_$LT$std..ffi..os_str..OsString$u20$as$u20$core..convert..AsRef$LT$std..ffi..os_str..OsStr$GT$$GT$6as_ref17hec0aebb0ab3b5149E
Ltmp72:
	movq	%rdx, -232(%rbp)
	movq	%rax, -240(%rbp)
	jmp	LBB20_2
Ltmp78:
LBB20_1:
	.loc	13 500 5 is_stmt 1
	movq	-16(%rbp), %rdi
	callq	__Unwind_Resume
	ud2
Ltmp79:
LBB20_2:
Ltmp73:
	.loc	13 0 5 is_stmt 0
	leaq	-200(%rbp), %rdi
	movq	-240(%rbp), %rsi
	movq	-232(%rbp), %rdx
	.loc	13 501 26 is_stmt 1
	callq	__ZN3std3sys4unix7process14process_common7Command3new17h6b51c4bb5fada643E
Ltmp74:
	jmp	LBB20_4
Ltmp80:
LBB20_3:
	.loc	13 0 26 is_stmt 0
	movq	-216(%rbp), %rdi
	.loc	13 502 5 is_stmt 1
	callq	__ZN4core3ptr13drop_in_place17hc16fbba51cd0d452E
	jmp	LBB20_1
Ltmp81:
LBB20_4:
	.loc	13 0 5 is_stmt 0
	movq	-208(%rbp), %rax
	.loc	13 501 9 is_stmt 1
	leaq	-200(%rbp), %rcx
	movq	%rax, %rdi
	movq	%rcx, %rsi
	movl	$184, %edx
	callq	_memcpy
	movq	-216(%rbp), %rdi
	.loc	13 502 5
	callq	__ZN4core3ptr13drop_in_place17hc16fbba51cd0d452E
Ltmp82:
	.loc	13 0 5 is_stmt 0
	movq	-224(%rbp), %rax
	.loc	13 502 6
	addq	$240, %rsp
	popq	%rbp
	retq
Ltmp83:
LBB20_6:
Ltmp75:
	.loc	13 0 6
	movq	%rax, -16(%rbp)
	movl	%edx, -8(%rbp)
	jmp	LBB20_3
Lfunc_end20:
	.cfi_endproc
	.section	__TEXT,__gcc_except_tab
	.p2align	2
GCC_except_table20:
Lexception3:
	.byte	255
	.byte	255
	.byte	1
	.uleb128 Lcst_end3-Lcst_begin3
Lcst_begin3:
	.uleb128 Ltmp71-Lfunc_begin20
	.uleb128 Ltmp72-Ltmp71
	.uleb128 Ltmp75-Lfunc_begin20
	.byte	0
	.uleb128 Ltmp72-Lfunc_begin20
	.uleb128 Ltmp73-Ltmp72
	.byte	0
	.byte	0
	.uleb128 Ltmp73-Lfunc_begin20
	.uleb128 Ltmp74-Ltmp73
	.uleb128 Ltmp75-Lfunc_begin20
	.byte	0
	.uleb128 Ltmp74-Lfunc_begin20
	.uleb128 Lfunc_end20-Ltmp74
	.byte	0
	.byte	0
Lcst_end3:
	.p2align	2

	.section	__TEXT,__text,regular,pure_instructions
	.p2align	4, 0x90
__ZN44_$LT$$RF$T$u20$as$u20$core..fmt..Display$GT$3fmt17h864e72cc67a530b7E:
Lfunc_begin21:
	.file	14 "/rustc/6c8927b0cf80ceee19386026cf9d7fd4fd9d486f/src/libcore/fmt/mod.rs"
	.loc	14 2022 0 is_stmt 1
	.cfi_startproc
	pushq	%rbp
	.cfi_def_cfa_offset 16
	.cfi_offset %rbp, -16
	movq	%rsp, %rbp
	.cfi_def_cfa_register %rbp
	subq	$32, %rsp
	movq	%rdi, -16(%rbp)
	movq	%rsi, -8(%rbp)
Ltmp84:
	.loc	14 2022 71 prologue_end
	movq	(%rdi), %rax
	movq	8(%rdi), %rcx
	.loc	14 2022 62 is_stmt 0
	movq	%rax, %rdi
	movq	%rsi, -24(%rbp)
	movq	%rcx, %rsi
	movq	-24(%rbp), %rdx
	callq	__ZN42_$LT$str$u20$as$u20$core..fmt..Display$GT$3fmt17h6768afae62e94f93E
	movb	%al, -25(%rbp)
	.loc	14 0 62
	movb	-25(%rbp), %al
	.loc	14 2022 84
	andb	$1, %al
	movzbl	%al, %eax
	addq	$32, %rsp
	popq	%rbp
	retq
Ltmp85:
Lfunc_end21:
	.cfi_endproc

	.p2align	4, 0x90
__ZN49_$LT$usize$u20$as$u20$core..iter..range..Step$GT$17forward_unchecked17h6a23be1bc538caf1E:
Lfunc_begin22:
	.file	15 "/rustc/6c8927b0cf80ceee19386026cf9d7fd4fd9d486f/src/libcore/iter/range.rs"
	.loc	15 191 0 is_stmt 1
	.cfi_startproc
	pushq	%rbp
	.cfi_def_cfa_offset 16
	.cfi_offset %rbp, -16
	movq	%rsp, %rbp
	.cfi_def_cfa_register %rbp
	subq	$32, %rsp
	movq	%rdi, -16(%rbp)
	movq	%rsi, -8(%rbp)
Ltmp86:
	.loc	15 193 22 prologue_end
	callq	__ZN4core3num23_$LT$impl$u20$usize$GT$13unchecked_add17hc1a18cc0b92f52f2E
	movq	%rax, -24(%rbp)
	.loc	15 0 22 is_stmt 0
	movq	-24(%rbp), %rax
	.loc	15 194 10 is_stmt 1
	addq	$32, %rsp
	popq	%rbp
	retq
Ltmp87:
Lfunc_end22:
	.cfi_endproc

	.p2align	4, 0x90
__ZN49_$LT$usize$u20$as$u20$core..iter..range..Step$GT$18backward_unchecked17he165c72da513ff8eE:
Lfunc_begin23:
	.loc	15 197 0
	.cfi_startproc
	pushq	%rbp
	.cfi_def_cfa_offset 16
	.cfi_offset %rbp, -16
	movq	%rsp, %rbp
	.cfi_def_cfa_register %rbp
	subq	$32, %rsp
	movq	%rdi, -16(%rbp)
	movq	%rsi, -8(%rbp)
Ltmp88:
	.loc	15 199 22 prologue_end
	callq	__ZN4core3num23_$LT$impl$u20$usize$GT$13unchecked_sub17h17946aa2225e1910E
	movq	%rax, -24(%rbp)
	.loc	15 0 22 is_stmt 0
	movq	-24(%rbp), %rax
	.loc	15 200 10 is_stmt 1
	addq	$32, %rsp
	popq	%rbp
	retq
Ltmp89:
Lfunc_end23:
	.cfi_endproc

	.p2align	4, 0x90
__ZN4core10intrinsics19copy_nonoverlapping17h0632eb8910fb1504E:
Lfunc_begin24:
	.file	16 "/rustc/6c8927b0cf80ceee19386026cf9d7fd4fd9d486f/src/libcore/intrinsics.rs"
	.loc	16 2114 0
	.cfi_startproc
	pushq	%rbp
	.cfi_def_cfa_offset 16
	.cfi_offset %rbp, -16
	movq	%rsp, %rbp
	.cfi_def_cfa_register %rbp
	subq	$32, %rsp
	movq	%rdi, -24(%rbp)
	movq	%rsi, -16(%rbp)
	movq	%rdx, -8(%rbp)
Ltmp90:
	.loc	16 2130 14 prologue_end
	shlq	$3, %rdx
	movq	%rdi, -32(%rbp)
	movq	%rsi, %rdi
	movq	-32(%rbp), %rsi
	callq	_memcpy
	.loc	16 2131 2
	addq	$32, %rsp
	popq	%rbp
	retq
Ltmp91:
Lfunc_end24:
	.cfi_endproc

	.p2align	4, 0x90
__ZN4core10intrinsics19copy_nonoverlapping17h1e1e2c2c75ac9549E:
Lfunc_begin25:
	.loc	16 2114 0
	.cfi_startproc
	pushq	%rbp
	.cfi_def_cfa_offset 16
	.cfi_offset %rbp, -16
	movq	%rsp, %rbp
	.cfi_def_cfa_register %rbp
	subq	$32, %rsp
	movq	%rdi, -24(%rbp)
	movq	%rsi, -16(%rbp)
	movq	%rdx, -8(%rbp)
Ltmp92:
	.loc	16 2130 14 prologue_end
	imulq	$24, %rdx, %rdx
	movq	%rdi, -32(%rbp)
	movq	%rsi, %rdi
	movq	-32(%rbp), %rsi
	callq	_memcpy
	.loc	16 2131 2
	addq	$32, %rsp
	popq	%rbp
	retq
Ltmp93:
Lfunc_end25:
	.cfi_endproc

	.p2align	4, 0x90
__ZN4core10intrinsics19copy_nonoverlapping17h51dfb9ee176c0b95E:
Lfunc_begin26:
	.loc	16 2114 0
	.cfi_startproc
	pushq	%rbp
	.cfi_def_cfa_offset 16
	.cfi_offset %rbp, -16
	movq	%rsp, %rbp
	.cfi_def_cfa_register %rbp
	subq	$32, %rsp
	movq	%rdi, -24(%rbp)
	movq	%rsi, -16(%rbp)
	movq	%rdx, -8(%rbp)
Ltmp94:
	.loc	16 2130 14 prologue_end
	imulq	$24, %rdx, %rdx
	movq	%rdi, -32(%rbp)
	movq	%rsi, %rdi
	movq	-32(%rbp), %rsi
	callq	_memcpy
	.loc	16 2131 2
	addq	$32, %rsp
	popq	%rbp
	retq
Ltmp95:
Lfunc_end26:
	.cfi_endproc

	.p2align	4, 0x90
__ZN4core10intrinsics19copy_nonoverlapping17h75fee8f9febc98b2E:
Lfunc_begin27:
	.loc	16 2114 0
	.cfi_startproc
	pushq	%rbp
	.cfi_def_cfa_offset 16
	.cfi_offset %rbp, -16
	movq	%rsp, %rbp
	.cfi_def_cfa_register %rbp
	subq	$32, %rsp
	movq	%rdi, -24(%rbp)
	movq	%rsi, -16(%rbp)
	movq	%rdx, -8(%rbp)
Ltmp96:
	.loc	16 2130 14 prologue_end
	imulq	$24, %rdx, %rdx
	movq	%rdi, -32(%rbp)
	movq	%rsi, %rdi
	movq	-32(%rbp), %rsi
	callq	_memcpy
	.loc	16 2131 2
	addq	$32, %rsp
	popq	%rbp
	retq
Ltmp97:
Lfunc_end27:
	.cfi_endproc

	.p2align	4, 0x90
__ZN4core10intrinsics19copy_nonoverlapping17h7f89c3c2c12ab38eE:
Lfunc_begin28:
	.loc	16 2114 0
	.cfi_startproc
	pushq	%rbp
	.cfi_def_cfa_offset 16
	.cfi_offset %rbp, -16
	movq	%rsp, %rbp
	.cfi_def_cfa_register %rbp
	subq	$32, %rsp
	movq	%rdi, -24(%rbp)
	movq	%rsi, -16(%rbp)
	movq	%rdx, -8(%rbp)
Ltmp98:
	.loc	16 2130 14 prologue_end
	shlq	$4, %rdx
	movq	%rdi, -32(%rbp)
	movq	%rsi, %rdi
	movq	-32(%rbp), %rsi
	callq	_memcpy
	.loc	16 2131 2
	addq	$32, %rsp
	popq	%rbp
	retq
Ltmp99:
Lfunc_end28:
	.cfi_endproc

	.p2align	4, 0x90
__ZN4core10intrinsics19copy_nonoverlapping17h82b2931845214933E:
Lfunc_begin29:
	.loc	16 2114 0
	.cfi_startproc
	pushq	%rbp
	.cfi_def_cfa_offset 16
	.cfi_offset %rbp, -16
	movq	%rsp, %rbp
	.cfi_def_cfa_register %rbp
	subq	$32, %rsp
	movq	%rdi, -24(%rbp)
	movq	%rsi, -16(%rbp)
	movq	%rdx, -8(%rbp)
Ltmp100:
	.loc	16 2130 14 prologue_end
	shlq	$0, %rdx
	movq	%rdi, -32(%rbp)
	movq	%rsi, %rdi
	movq	-32(%rbp), %rsi
	callq	_memcpy
	.loc	16 2131 2
	addq	$32, %rsp
	popq	%rbp
	retq
Ltmp101:
Lfunc_end29:
	.cfi_endproc

	.p2align	4, 0x90
__ZN4core10intrinsics19copy_nonoverlapping17ha3484d6a854c75a0E:
Lfunc_begin30:
	.loc	16 2114 0
	.cfi_startproc
	pushq	%rbp
	.cfi_def_cfa_offset 16
	.cfi_offset %rbp, -16
	movq	%rsp, %rbp
	.cfi_def_cfa_register %rbp
	subq	$32, %rsp
	movq	%rdi, -24(%rbp)
	movq	%rsi, -16(%rbp)
	movq	%rdx, -8(%rbp)
Ltmp102:
	.loc	16 2130 14 prologue_end
	imulq	$24, %rdx, %rdx
	movq	%rdi, -32(%rbp)
	movq	%rsi, %rdi
	movq	-32(%rbp), %rsi
	callq	_memcpy
	.loc	16 2131 2
	addq	$32, %rsp
	popq	%rbp
	retq
Ltmp103:
Lfunc_end30:
	.cfi_endproc

	.p2align	4, 0x90
__ZN4core10intrinsics19copy_nonoverlapping17haa23e912426bf160E:
Lfunc_begin31:
	.loc	16 2114 0
	.cfi_startproc
	pushq	%rbp
	.cfi_def_cfa_offset 16
	.cfi_offset %rbp, -16
	movq	%rsp, %rbp
	.cfi_def_cfa_register %rbp
	subq	$32, %rsp
	movq	%rdi, -24(%rbp)
	movq	%rsi, -16(%rbp)
	movq	%rdx, -8(%rbp)
Ltmp104:
	.loc	16 2130 14 prologue_end
	shlq	$5, %rdx
	movq	%rdi, -32(%rbp)
	movq	%rsi, %rdi
	movq	-32(%rbp), %rsi
	callq	_memcpy
	.loc	16 2131 2
	addq	$32, %rsp
	popq	%rbp
	retq
Ltmp105:
Lfunc_end31:
	.cfi_endproc

	.p2align	4, 0x90
__ZN4core10intrinsics19copy_nonoverlapping17hbc3262dec642c721E:
Lfunc_begin32:
	.loc	16 2114 0
	.cfi_startproc
	pushq	%rbp
	.cfi_def_cfa_offset 16
	.cfi_offset %rbp, -16
	movq	%rsp, %rbp
	.cfi_def_cfa_register %rbp
	subq	$32, %rsp
	movq	%rdi, -24(%rbp)
	movq	%rsi, -16(%rbp)
	movq	%rdx, -8(%rbp)
Ltmp106:
	.loc	16 2130 14 prologue_end
	imulq	$24, %rdx, %rdx
	movq	%rdi, -32(%rbp)
	movq	%rsi, %rdi
	movq	-32(%rbp), %rsi
	callq	_memcpy
	.loc	16 2131 2
	addq	$32, %rsp
	popq	%rbp
	retq
Ltmp107:
Lfunc_end32:
	.cfi_endproc

	.p2align	4, 0x90
__ZN4core10intrinsics19copy_nonoverlapping17he860592970038ad7E:
Lfunc_begin33:
	.loc	16 2114 0
	.cfi_startproc
	pushq	%rbp
	.cfi_def_cfa_offset 16
	.cfi_offset %rbp, -16
	movq	%rsp, %rbp
	.cfi_def_cfa_register %rbp
	subq	$32, %rsp
	movq	%rdi, -24(%rbp)
	movq	%rsi, -16(%rbp)
	movq	%rdx, -8(%rbp)
Ltmp108:
	.loc	16 2130 14 prologue_end
	shlq	$5, %rdx
	movq	%rdi, -32(%rbp)
	movq	%rsi, %rdi
	movq	-32(%rbp), %rsi
	callq	_memcpy
	.loc	16 2131 2
	addq	$32, %rsp
	popq	%rbp
	retq
Ltmp109:
Lfunc_end33:
	.cfi_endproc

	.p2align	4, 0x90
__ZN4core3cmp3Ord3max17ha96f726fe8aad7d2E:
Lfunc_begin34:
	.file	17 "/rustc/6c8927b0cf80ceee19386026cf9d7fd4fd9d486f/src/libcore/cmp.rs"
	.loc	17 599 0
	.cfi_startproc
	pushq	%rbp
	.cfi_def_cfa_offset 16
	.cfi_offset %rbp, -16
	movq	%rsp, %rbp
	.cfi_def_cfa_register %rbp
	subq	$32, %rsp
	movq	%rdi, -16(%rbp)
	movq	%rsi, -8(%rbp)
Ltmp110:
	.loc	17 603 9 prologue_end
	callq	__ZN4core3cmp6max_by17h7729606437f5130bE
	movq	%rax, -24(%rbp)
	.loc	17 0 9 is_stmt 0
	movq	-24(%rbp), %rax
	.loc	17 604 6 is_stmt 1
	addq	$32, %rsp
	popq	%rbp
	retq
Ltmp111:
Lfunc_end34:
	.cfi_endproc

	.p2align	4, 0x90
__ZN4core3cmp3max17h3252456b5af0a4a0E:
Lfunc_begin35:
	.loc	17 993 0
	.cfi_startproc
	pushq	%rbp
	.cfi_def_cfa_offset 16
	.cfi_offset %rbp, -16
	movq	%rsp, %rbp
	.cfi_def_cfa_register %rbp
	subq	$32, %rsp
	movq	%rdi, -16(%rbp)
	movq	%rsi, -8(%rbp)
Ltmp112:
	.loc	17 994 5 prologue_end
	callq	__ZN4core3cmp3Ord3max17ha96f726fe8aad7d2E
	movq	%rax, -24(%rbp)
	.loc	17 0 5 is_stmt 0
	movq	-24(%rbp), %rax
	.loc	17 995 2 is_stmt 1
	addq	$32, %rsp
	popq	%rbp
	retq
Ltmp113:
Lfunc_end35:
	.cfi_endproc

	.p2align	4, 0x90
__ZN4core3cmp5impls50_$LT$impl$u20$core..cmp..Ord$u20$for$u20$usize$GT$3cmp17hf8acb7a5a0184477E:
Lfunc_begin36:
	.loc	17 1148 0
	.cfi_startproc
	pushq	%rbp
	.cfi_def_cfa_offset 16
	.cfi_offset %rbp, -16
	movq	%rsp, %rbp
	.cfi_def_cfa_register %rbp
	subq	$40, %rsp
	movq	%rdi, -16(%rbp)
	movq	%rsi, -8(%rbp)
Ltmp114:
	.loc	17 1151 24 prologue_end
	movq	(%rdi), %rax
	cmpq	(%rsi), %rax
	movq	%rdi, -32(%rbp)
	movq	%rsi, -40(%rbp)
	.loc	17 1151 21 is_stmt 0
	jb	LBB36_2
	.loc	17 0 21
	movq	-32(%rbp), %rax
	.loc	17 1152 29 is_stmt 1
	movq	(%rax), %rcx
	movq	-40(%rbp), %rdx
	cmpq	(%rdx), %rcx
	.loc	17 1152 26 is_stmt 0
	je	LBB36_4
	jmp	LBB36_3
LBB36_2:
	.loc	17 1151 41 is_stmt 1
	movb	$-1, -17(%rbp)
	.loc	17 1151 21 is_stmt 0
	jmp	LBB36_6
LBB36_3:
	.loc	17 1153 28 is_stmt 1
	movb	$1, -17(%rbp)
	.loc	17 1152 26
	jmp	LBB36_5
LBB36_4:
	.loc	17 1152 47 is_stmt 0
	movb	$0, -17(%rbp)
LBB36_5:
	.loc	17 1151 21 is_stmt 1
	jmp	LBB36_6
LBB36_6:
	.loc	17 1154 18
	movb	-17(%rbp), %al
	addq	$40, %rsp
	popq	%rbp
	retq
Ltmp115:
Lfunc_end36:
	.cfi_endproc

	.p2align	4, 0x90
__ZN4core3cmp5impls57_$LT$impl$u20$core..cmp..PartialOrd$u20$for$u20$usize$GT$2lt17h18174a06b322ad49E:
Lfunc_begin37:
	.loc	17 1136 0
	.cfi_startproc
	pushq	%rbp
	.cfi_def_cfa_offset 16
	.cfi_offset %rbp, -16
	movq	%rsp, %rbp
	.cfi_def_cfa_register %rbp
	subq	$16, %rsp
	movq	%rdi, -16(%rbp)
	movq	%rsi, -8(%rbp)
Ltmp116:
	.loc	17 1136 52 prologue_end
	movq	(%rdi), %rax
	cmpq	(%rsi), %rax
	setb	%cl
	.loc	17 1136 72 is_stmt 0
	andb	$1, %cl
	movzbl	%cl, %eax
	addq	$16, %rsp
	popq	%rbp
	retq
Ltmp117:
Lfunc_end37:
	.cfi_endproc

	.p2align	4, 0x90
__ZN4core3cmp5impls59_$LT$impl$u20$core..cmp..PartialEq$u20$for$u20$$LP$$RP$$GT$2eq17h219dc985abd127caE:
Lfunc_begin38:
	.loc	17 1062 0 is_stmt 1
	.cfi_startproc
	pushq	%rbp
	.cfi_def_cfa_offset 16
	.cfi_offset %rbp, -16
	movq	%rsp, %rbp
	.cfi_def_cfa_register %rbp
	subq	$16, %rsp
	movq	%rdi, -16(%rbp)
	movq	%rsi, -8(%rbp)
Ltmp118:
	.loc	17 1064 10 prologue_end
	movb	$1, %al
	andb	$1, %al
	movzbl	%al, %eax
	addq	$16, %rsp
	popq	%rbp
	retq
Ltmp119:
Lfunc_end38:
	.cfi_endproc

	.p2align	4, 0x90
__ZN4core3cmp5impls69_$LT$impl$u20$core..cmp..PartialEq$LT$$RF$B$GT$$u20$for$u20$$RF$A$GT$2eq17h5f7f05a830d067beE:
Lfunc_begin39:
	.loc	17 1218 0
	.cfi_startproc
	pushq	%rbp
	.cfi_def_cfa_offset 16
	.cfi_offset %rbp, -16
	movq	%rsp, %rbp
	.cfi_def_cfa_register %rbp
	subq	$32, %rsp
	movq	%rdi, -16(%rbp)
	movq	%rsi, -8(%rbp)
Ltmp120:
	.loc	17 1219 27 prologue_end
	movq	(%rdi), %rax
	movq	8(%rdi), %rcx
	.loc	17 1219 34 is_stmt 0
	movq	(%rsi), %rdx
	movq	8(%rsi), %rsi
	.loc	17 1219 13
	movq	%rax, %rdi
	movq	%rsi, -24(%rbp)
	movq	%rcx, %rsi
	movq	-24(%rbp), %rcx
	callq	__ZN4core5slice81_$LT$impl$u20$core..cmp..PartialEq$LT$$u5b$B$u5d$$GT$$u20$for$u20$$u5b$A$u5d$$GT$2eq17h0e28ddaff04b2905E
	movb	%al, -25(%rbp)
	.loc	17 0 13
	movb	-25(%rbp), %al
	.loc	17 1220 10 is_stmt 1
	andb	$1, %al
	movzbl	%al, %eax
	addq	$32, %rsp
	popq	%rbp
	retq
Ltmp121:
Lfunc_end39:
	.cfi_endproc

	.p2align	4, 0x90
__ZN4core3cmp5impls69_$LT$impl$u20$core..cmp..PartialEq$LT$$RF$B$GT$$u20$for$u20$$RF$A$GT$2eq17h6cda340e21a630aeE:
Lfunc_begin40:
	.loc	17 1218 0
	.cfi_startproc
	pushq	%rbp
	.cfi_def_cfa_offset 16
	.cfi_offset %rbp, -16
	movq	%rsp, %rbp
	.cfi_def_cfa_register %rbp
	subq	$32, %rsp
	movq	%rdi, -16(%rbp)
	movq	%rsi, -8(%rbp)
Ltmp122:
	.loc	17 1219 27 prologue_end
	movq	(%rdi), %rax
	movq	8(%rdi), %rcx
	.loc	17 1219 34 is_stmt 0
	movq	(%rsi), %rdx
	movq	8(%rsi), %rsi
	.loc	17 1219 13
	movq	%rax, %rdi
	movq	%rsi, -24(%rbp)
	movq	%rcx, %rsi
	movq	-24(%rbp), %rcx
	callq	__ZN4core3str6traits54_$LT$impl$u20$core..cmp..PartialEq$u20$for$u20$str$GT$2eq17h10ad06a8f25c6027E
	movb	%al, -25(%rbp)
	.loc	17 0 13
	movb	-25(%rbp), %al
	.loc	17 1220 10 is_stmt 1
	andb	$1, %al
	movzbl	%al, %eax
	addq	$32, %rsp
	popq	%rbp
	retq
Ltmp123:
Lfunc_end40:
	.cfi_endproc

	.p2align	4, 0x90
__ZN4core3cmp5impls69_$LT$impl$u20$core..cmp..PartialEq$LT$$RF$B$GT$$u20$for$u20$$RF$A$GT$2ne17h9575ccf7d4c911c0E:
Lfunc_begin41:
	.loc	17 1222 0
	.cfi_startproc
	pushq	%rbp
	.cfi_def_cfa_offset 16
	.cfi_offset %rbp, -16
	movq	%rsp, %rbp
	.cfi_def_cfa_register %rbp
	subq	$32, %rsp
	movq	%rdi, -16(%rbp)
	movq	%rsi, -8(%rbp)
Ltmp124:
	.loc	17 1223 27 prologue_end
	movq	(%rdi), %rax
	movq	8(%rdi), %rcx
	.loc	17 1223 34 is_stmt 0
	movq	(%rsi), %rdx
	movq	8(%rsi), %rsi
	.loc	17 1223 13
	movq	%rax, %rdi
	movq	%rsi, -24(%rbp)
	movq	%rcx, %rsi
	movq	-24(%rbp), %rcx
	callq	__ZN4core3str6traits54_$LT$impl$u20$core..cmp..PartialEq$u20$for$u20$str$GT$2ne17h99203dc3e0164b51E
	movb	%al, -25(%rbp)
	.loc	17 0 13
	movb	-25(%rbp), %al
	.loc	17 1224 10 is_stmt 1
	andb	$1, %al
	movzbl	%al, %eax
	addq	$32, %rsp
	popq	%rbp
	retq
Ltmp125:
Lfunc_end41:
	.cfi_endproc

	.p2align	4, 0x90
__ZN4core3cmp6max_by17h7729606437f5130bE:
Lfunc_begin42:
	.loc	17 1014 0
	.cfi_startproc
	.cfi_personality 155, _rust_eh_personality
	.cfi_lsda 16, Lexception4
	pushq	%rbp
	.cfi_def_cfa_offset 16
	.cfi_offset %rbp, -16
	movq	%rsp, %rbp
	.cfi_def_cfa_register %rbp
	subq	$96, %rsp
	movq	%rdi, -80(%rbp)
	movq	%rsi, -72(%rbp)
Ltmp129:
	.loc	17 1015 11 prologue_end
	movb	$0, -26(%rbp)
	movb	$0, -25(%rbp)
	movb	$1, -26(%rbp)
	movb	$1, -25(%rbp)
	leaq	-80(%rbp), %rax
	movq	%rax, -48(%rbp)
	leaq	-72(%rbp), %rax
	movq	%rax, -40(%rbp)
	movq	-48(%rbp), %rdi
	movq	-40(%rbp), %rsi
Ltmp126:
	callq	__ZN4core3ops8function6FnOnce9call_once17h8462f0eabf50ca54E
Ltmp127:
	movb	%al, -81(%rbp)
	jmp	LBB42_2
LBB42_1:
	.loc	17 1014 1
	movq	-16(%rbp), %rdi
	callq	__Unwind_Resume
	ud2
LBB42_2:
	.loc	17 0 1 is_stmt 0
	movb	-81(%rbp), %al
	.loc	17 1015 11 is_stmt 1
	movb	%al, -49(%rbp)
	.loc	17 1016 9
	movsbq	-49(%rbp), %rcx
	incq	%rcx
	subq	$2, %rcx
	jb	LBB42_7
	jmp	LBB42_15
LBB42_15:
	jmp	LBB42_5
LBB42_3:
	.loc	17 1019 1
	testb	$1, -26(%rbp)
	jne	LBB42_11
	jmp	LBB42_1
LBB42_4:
	movb	$0, -25(%rbp)
	jmp	LBB42_3
LBB42_5:
	.loc	17 1017 30
	movb	$0, -26(%rbp)
	movq	-80(%rbp), %rax
	movq	%rax, -64(%rbp)
	.loc	17 1015 5
	jmp	LBB42_8
	.loc	17 1015 11 is_stmt 0
	ud2
LBB42_7:
	.loc	17 1016 45 is_stmt 1
	movb	$0, -25(%rbp)
	movq	-72(%rbp), %rax
	movq	%rax, -64(%rbp)
LBB42_8:
	.loc	17 1019 1
	testb	$1, -25(%rbp)
	jne	LBB42_12
LBB42_9:
	testb	$1, -26(%rbp)
	jne	LBB42_13
LBB42_10:
	.loc	17 1019 2 is_stmt 0
	movq	-64(%rbp), %rax
	addq	$96, %rsp
	popq	%rbp
	retq
LBB42_11:
	.loc	17 1019 1
	movb	$0, -26(%rbp)
	jmp	LBB42_1
LBB42_12:
	movb	$0, -25(%rbp)
	jmp	LBB42_9
LBB42_13:
	movb	$0, -26(%rbp)
	jmp	LBB42_10
Ltmp130:
LBB42_14:
Ltmp128:
	.loc	17 0 1
	movq	%rax, -16(%rbp)
	movl	%edx, -8(%rbp)
	jmp	LBB42_4
Lfunc_end42:
	.cfi_endproc
	.section	__TEXT,__gcc_except_tab
	.p2align	2
GCC_except_table42:
Lexception4:
	.byte	255
	.byte	255
	.byte	1
	.uleb128 Lcst_end4-Lcst_begin4
Lcst_begin4:
	.uleb128 Ltmp126-Lfunc_begin42
	.uleb128 Ltmp127-Ltmp126
	.uleb128 Ltmp128-Lfunc_begin42
	.byte	0
	.uleb128 Ltmp127-Lfunc_begin42
	.uleb128 Lfunc_end42-Ltmp127
	.byte	0
	.byte	0
Lcst_end4:
	.p2align	2

	.section	__TEXT,__text,regular,pure_instructions
	.p2align	4, 0x90
__ZN4core3fmt10ArgumentV13new17h50e618a3945e5df1E:
Lfunc_begin43:
	.loc	14 281 0 is_stmt 1
	.cfi_startproc
	pushq	%rbp
	.cfi_def_cfa_offset 16
	.cfi_offset %rbp, -16
	movq	%rsp, %rbp
	.cfi_def_cfa_register %rbp
	subq	$72, %rsp
	movq	%rdi, -32(%rbp)
	movq	%rsi, -24(%rbp)
Ltmp131:
	.loc	14 290 42 prologue_end
	movq	%rsi, -16(%rbp)
	movq	-16(%rbp), %rax
	movq	%rdi, -56(%rbp)
	movq	%rax, -64(%rbp)
	.loc	14 0 42 is_stmt 0
	movq	-56(%rbp), %rax
	.loc	14 290 68
	movq	%rax, -8(%rbp)
	movq	-8(%rbp), %rcx
	movq	%rcx, -72(%rbp)
	.loc	14 0 68
	movq	-72(%rbp), %rax
	.loc	14 290 18
	movq	%rax, -48(%rbp)
	movq	-64(%rbp), %rcx
	movq	%rcx, -40(%rbp)
	.loc	14 291 6 is_stmt 1
	movq	-48(%rbp), %rax
	movq	-40(%rbp), %rdx
	addq	$72, %rsp
	popq	%rbp
	retq
Ltmp132:
Lfunc_end43:
	.cfi_endproc

	.p2align	4, 0x90
__ZN4core3fmt10ArgumentV13new17hd5a90fd9de112c00E:
Lfunc_begin44:
	.loc	14 281 0
	.cfi_startproc
	pushq	%rbp
	.cfi_def_cfa_offset 16
	.cfi_offset %rbp, -16
	movq	%rsp, %rbp
	.cfi_def_cfa_register %rbp
	subq	$72, %rsp
	movq	%rdi, -32(%rbp)
	movq	%rsi, -24(%rbp)
Ltmp133:
	.loc	14 290 42 prologue_end
	movq	%rsi, -16(%rbp)
	movq	-16(%rbp), %rax
	movq	%rdi, -56(%rbp)
	movq	%rax, -64(%rbp)
	.loc	14 0 42 is_stmt 0
	movq	-56(%rbp), %rax
	.loc	14 290 68
	movq	%rax, -8(%rbp)
	movq	-8(%rbp), %rcx
	movq	%rcx, -72(%rbp)
	.loc	14 0 68
	movq	-72(%rbp), %rax
	.loc	14 290 18
	movq	%rax, -48(%rbp)
	movq	-64(%rbp), %rcx
	movq	%rcx, -40(%rbp)
	.loc	14 291 6 is_stmt 1
	movq	-48(%rbp), %rax
	movq	-40(%rbp), %rdx
	addq	$72, %rsp
	popq	%rbp
	retq
Ltmp134:
Lfunc_end44:
	.cfi_endproc

	.p2align	4, 0x90
__ZN4core3fmt10ArgumentV13new17he4cd7cbd0597655eE:
Lfunc_begin45:
	.loc	14 281 0
	.cfi_startproc
	pushq	%rbp
	.cfi_def_cfa_offset 16
	.cfi_offset %rbp, -16
	movq	%rsp, %rbp
	.cfi_def_cfa_register %rbp
	subq	$72, %rsp
	movq	%rdi, -32(%rbp)
	movq	%rsi, -24(%rbp)
Ltmp135:
	.loc	14 290 42 prologue_end
	movq	%rsi, -16(%rbp)
	movq	-16(%rbp), %rax
	movq	%rdi, -56(%rbp)
	movq	%rax, -64(%rbp)
	.loc	14 0 42 is_stmt 0
	movq	-56(%rbp), %rax
	.loc	14 290 68
	movq	%rax, -8(%rbp)
	movq	-8(%rbp), %rcx
	movq	%rcx, -72(%rbp)
	.loc	14 0 68
	movq	-72(%rbp), %rax
	.loc	14 290 18
	movq	%rax, -48(%rbp)
	movq	-64(%rbp), %rcx
	movq	%rcx, -40(%rbp)
	.loc	14 291 6 is_stmt 1
	movq	-48(%rbp), %rax
	movq	-40(%rbp), %rdx
	addq	$72, %rsp
	popq	%rbp
	retq
Ltmp136:
Lfunc_end45:
	.cfi_endproc

	.p2align	4, 0x90
__ZN4core3fmt9Arguments6new_v117hda5b0f33b16c781fE:
Lfunc_begin46:
	.loc	14 327 0
	.cfi_startproc
	pushq	%rbp
	.cfi_def_cfa_offset 16
	.cfi_offset %rbp, -16
	movq	%rsp, %rbp
	.cfi_def_cfa_register %rbp
	subq	$48, %rsp
	movq	%rdi, %rax
	movq	%rsi, -32(%rbp)
	movq	%rdx, -24(%rbp)
	movq	%rcx, -16(%rbp)
	movq	%r8, -8(%rbp)
Ltmp137:
	.loc	14 328 34 prologue_end
	movq	$0, -48(%rbp)
	.loc	14 328 9 is_stmt 0
	movq	%rsi, (%rdi)
	movq	%rdx, 8(%rdi)
	movq	-48(%rbp), %rdx
	movq	-40(%rbp), %rsi
	movq	%rdx, 16(%rdi)
	movq	%rsi, 24(%rdi)
	movq	%rcx, 32(%rdi)
	movq	%r8, 40(%rdi)
	.loc	14 329 6 is_stmt 1
	addq	$48, %rsp
	popq	%rbp
	retq
Ltmp138:
Lfunc_end46:
	.cfi_endproc

	.p2align	4, 0x90
__ZN4core3mem11size_of_val17h656e96b09373de9cE:
Lfunc_begin47:
	.file	18 "/rustc/6c8927b0cf80ceee19386026cf9d7fd4fd9d486f/src/libcore/mem/mod.rs"
	.loc	18 335 0
	.cfi_startproc
	pushq	%rbp
	.cfi_def_cfa_offset 16
	.cfi_offset %rbp, -16
	movq	%rsp, %rbp
	.cfi_def_cfa_register %rbp
	subq	$32, %rsp
	movq	%rdi, -24(%rbp)
	movq	%rsi, -16(%rbp)
Ltmp139:
	.loc	18 336 5 prologue_end
	shlq	$0, %rsi
	movq	%rsi, -8(%rbp)
	movq	-8(%rbp), %rax
	movq	%rax, -32(%rbp)
	.loc	18 0 5 is_stmt 0
	movq	-32(%rbp), %rax
	.loc	18 337 2 is_stmt 1
	addq	$32, %rsp
	popq	%rbp
	retq
Ltmp140:
Lfunc_end47:
	.cfi_endproc

	.p2align	4, 0x90
__ZN4core3mem4drop17h3c8d9a633c1be928E:
Lfunc_begin48:
	.loc	18 883 0
	.cfi_startproc
	pushq	%rbp
	.cfi_def_cfa_offset 16
	.cfi_offset %rbp, -16
	movq	%rsp, %rbp
	.cfi_def_cfa_register %rbp
Ltmp141:
	.loc	18 883 24 prologue_end
	callq	__ZN4core3ptr13drop_in_place17h75cb12e3ad118b32E
Ltmp142:
	.loc	18 883 25 is_stmt 0
	popq	%rbp
	retq
Ltmp143:
Lfunc_end48:
	.cfi_endproc

	.p2align	4, 0x90
__ZN4core3mem4drop17h7b19585f177eec8aE:
Lfunc_begin49:
	.loc	18 883 0 is_stmt 1
	.cfi_startproc
	pushq	%rbp
	.cfi_def_cfa_offset 16
	.cfi_offset %rbp, -16
	movq	%rsp, %rbp
	.cfi_def_cfa_register %rbp
Ltmp144:
	.loc	18 883 24 prologue_end
	callq	__ZN4core3ptr13drop_in_place17ha84eb772f34e30a7E
Ltmp145:
	.loc	18 883 25 is_stmt 0
	popq	%rbp
	retq
Ltmp146:
Lfunc_end49:
	.cfi_endproc

	.p2align	4, 0x90
__ZN4core3mem4swap17h3c419914ccca6076E:
Lfunc_begin50:
	.loc	18 686 0 is_stmt 1
	.cfi_startproc
	pushq	%rbp
	.cfi_def_cfa_offset 16
	.cfi_offset %rbp, -16
	movq	%rsp, %rbp
	.cfi_def_cfa_register %rbp
	subq	$16, %rsp
	movq	%rdi, -16(%rbp)
	movq	%rsi, -8(%rbp)
Ltmp147:
	.loc	18 690 9 prologue_end
	callq	__ZN4core3ptr23swap_nonoverlapping_one17h7e0bcd530ca649d0E
	.loc	18 692 2
	addq	$16, %rsp
	popq	%rbp
	retq
Ltmp148:
Lfunc_end50:
	.cfi_endproc

	.p2align	4, 0x90
__ZN4core3mem4swap17h40ea3d71b9e2f3e0E:
Lfunc_begin51:
	.loc	18 686 0
	.cfi_startproc
	pushq	%rbp
	.cfi_def_cfa_offset 16
	.cfi_offset %rbp, -16
	movq	%rsp, %rbp
	.cfi_def_cfa_register %rbp
	subq	$16, %rsp
	movq	%rdi, -16(%rbp)
	movq	%rsi, -8(%rbp)
Ltmp149:
	.loc	18 690 9 prologue_end
	callq	__ZN4core3ptr23swap_nonoverlapping_one17hfc37aa8b8403e62cE
	.loc	18 692 2
	addq	$16, %rsp
	popq	%rbp
	retq
Ltmp150:
Lfunc_end51:
	.cfi_endproc

	.p2align	4, 0x90
__ZN4core3mem4take17h9d61c5750f1225b3E:
Lfunc_begin52:
	.loc	18 750 0
	.cfi_startproc
	pushq	%rbp
	.cfi_def_cfa_offset 16
	.cfi_offset %rbp, -16
	movq	%rsp, %rbp
	.cfi_def_cfa_register %rbp
	subq	$48, %rsp
	movq	%rdi, -8(%rbp)
	movq	%rdi, -16(%rbp)
Ltmp151:
	.loc	18 751 19 prologue_end
	callq	__ZN72_$LT$core..option..Option$LT$T$GT$$u20$as$u20$core..default..Default$GT$7default17h187b48fc5062cc61E
	movq	%rax, -24(%rbp)
	movq	%rdx, -32(%rbp)
	.loc	18 0 19 is_stmt 0
	movq	-16(%rbp), %rdi
	movq	-24(%rbp), %rsi
	movq	-32(%rbp), %rdx
	.loc	18 751 5
	callq	__ZN4core3mem7replace17h94131604fdca2c53E
	movq	%rax, -40(%rbp)
	movq	%rdx, -48(%rbp)
	.loc	18 0 5
	movq	-40(%rbp), %rax
	movq	-48(%rbp), %rdx
	.loc	18 752 2 is_stmt 1
	addq	$48, %rsp
	popq	%rbp
	retq
Ltmp152:
Lfunc_end52:
	.cfi_endproc

	.p2align	4, 0x90
__ZN4core3mem6forget17hd6c7ca4fc5bb3f5dE:
Lfunc_begin53:
	.loc	18 147 0
	.cfi_startproc
	pushq	%rbp
	.cfi_def_cfa_offset 16
	.cfi_offset %rbp, -16
	movq	%rsp, %rbp
	.cfi_def_cfa_register %rbp
	subq	$24, %rsp
	movq	%rdi, -24(%rbp)
	movq	%rdi, -8(%rbp)
Ltmp153:
	.loc	5 83 9 prologue_end
	movq	%rdi, -16(%rbp)
Ltmp154:
	.loc	18 149 2
	addq	$24, %rsp
	popq	%rbp
	retq
Ltmp155:
Lfunc_end53:
	.cfi_endproc

	.p2align	4, 0x90
__ZN4core3mem7replace17h935a9c9e06365e47E:
Lfunc_begin54:
	.loc	18 814 0
	.cfi_startproc
	.cfi_personality 155, _rust_eh_personality
	.cfi_lsda 16, Lexception5
	pushq	%rbp
	.cfi_def_cfa_offset 16
	.cfi_offset %rbp, -16
	movq	%rsp, %rbp
	.cfi_def_cfa_register %rbp
	subq	$32, %rsp
	movq	%rsi, -32(%rbp)
	movq	%rdi, -24(%rbp)
Ltmp156:
	leaq	-32(%rbp), %rsi
Ltmp159:
	.loc	18 815 5 prologue_end
	callq	__ZN4core3mem4swap17h3c419914ccca6076E
Ltmp157:
	jmp	LBB54_2
LBB54_1:
	.loc	18 814 1
	movq	-16(%rbp), %rdi
	callq	__Unwind_Resume
	ud2
LBB54_2:
	.loc	18 816 5
	movq	-32(%rbp), %rax
	.loc	18 817 2
	addq	$32, %rsp
	popq	%rbp
	retq
LBB54_3:
	.loc	18 817 1 is_stmt 0
	jmp	LBB54_1
Ltmp160:
LBB54_4:
Ltmp158:
	.loc	18 0 1
	movq	%rax, -16(%rbp)
	movl	%edx, -8(%rbp)
	jmp	LBB54_3
Lfunc_end54:
	.cfi_endproc
	.section	__TEXT,__gcc_except_tab
	.p2align	2
GCC_except_table54:
Lexception5:
	.byte	255
	.byte	255
	.byte	1
	.uleb128 Lcst_end5-Lcst_begin5
Lcst_begin5:
	.uleb128 Ltmp156-Lfunc_begin54
	.uleb128 Ltmp157-Ltmp156
	.uleb128 Ltmp158-Lfunc_begin54
	.byte	0
	.uleb128 Ltmp157-Lfunc_begin54
	.uleb128 Lfunc_end54-Ltmp157
	.byte	0
	.byte	0
Lcst_end5:
	.p2align	2

	.section	__TEXT,__text,regular,pure_instructions
	.p2align	4, 0x90
__ZN4core3mem7replace17h94131604fdca2c53E:
Lfunc_begin55:
	.loc	18 814 0 is_stmt 1
	.cfi_startproc
	.cfi_personality 155, _rust_eh_personality
	.cfi_lsda 16, Lexception6
	pushq	%rbp
	.cfi_def_cfa_offset 16
	.cfi_offset %rbp, -16
	movq	%rsp, %rbp
	.cfi_def_cfa_register %rbp
	subq	$48, %rsp
	movq	%rsi, -40(%rbp)
	movq	%rdx, -32(%rbp)
	movq	%rdi, -24(%rbp)
Ltmp161:
	leaq	-40(%rbp), %rsi
Ltmp164:
	.loc	18 815 5 prologue_end
	callq	__ZN4core3mem4swap17h40ea3d71b9e2f3e0E
Ltmp162:
	jmp	LBB55_2
LBB55_1:
	.loc	18 814 1
	movq	-16(%rbp), %rdi
	callq	__Unwind_Resume
	ud2
LBB55_2:
	.loc	18 816 5
	movq	-40(%rbp), %rax
	movq	-32(%rbp), %rdx
	.loc	18 817 2
	addq	$48, %rsp
	popq	%rbp
	retq
LBB55_3:
	.loc	18 817 1 is_stmt 0
	jmp	LBB55_1
Ltmp165:
LBB55_4:
Ltmp163:
	.loc	18 0 1
	movq	%rax, -16(%rbp)
	movl	%edx, -8(%rbp)
	jmp	LBB55_3
Lfunc_end55:
	.cfi_endproc
	.section	__TEXT,__gcc_except_tab
	.p2align	2
GCC_except_table55:
Lexception6:
	.byte	255
	.byte	255
	.byte	1
	.uleb128 Lcst_end6-Lcst_begin6
Lcst_begin6:
	.uleb128 Ltmp161-Lfunc_begin55
	.uleb128 Ltmp162-Ltmp161
	.uleb128 Ltmp163-Lfunc_begin55
	.byte	0
	.uleb128 Ltmp162-Lfunc_begin55
	.uleb128 Lfunc_end55-Ltmp162
	.byte	0
	.byte	0
Lcst_end6:
	.p2align	2

	.section	__TEXT,__text,regular,pure_instructions
	.p2align	4, 0x90
__ZN4core3num12NonZeroUsize13new_unchecked17h7fbc7ea853b8b4afE:
Lfunc_begin56:
	.file	19 "/rustc/6c8927b0cf80ceee19386026cf9d7fd4fd9d486f/src/libcore/num/mod.rs"
	.loc	19 83 0 is_stmt 1
	.cfi_startproc
	pushq	%rbp
	.cfi_def_cfa_offset 16
	.cfi_offset %rbp, -16
	movq	%rsp, %rbp
	.cfi_def_cfa_register %rbp
	subq	$16, %rsp
	movq	%rdi, -8(%rbp)
Ltmp166:
	.loc	19 85 30 prologue_end
	movq	%rdi, -16(%rbp)
	.loc	19 86 18
	movq	-16(%rbp), %rax
	addq	$16, %rsp
	popq	%rbp
	retq
Ltmp167:
Lfunc_end56:
	.cfi_endproc

	.p2align	4, 0x90
__ZN4core3num12NonZeroUsize3get17h85855d5d636d3146E:
Lfunc_begin57:
	.loc	19 105 0
	.cfi_startproc
	pushq	%rbp
	.cfi_def_cfa_offset 16
	.cfi_offset %rbp, -16
	movq	%rsp, %rbp
	.cfi_def_cfa_register %rbp
	pushq	%rax
	movq	%rdi, -8(%rbp)
Ltmp168:
	.loc	19 107 18 prologue_end
	movq	%rdi, %rax
	addq	$8, %rsp
	popq	%rbp
	retq
Ltmp169:
Lfunc_end57:
	.cfi_endproc

	.p2align	4, 0x90
__ZN4core3num23_$LT$impl$u20$usize$GT$13unchecked_add17hc1a18cc0b92f52f2E:
Lfunc_begin58:
	.loc	19 3010 0
	.cfi_startproc
	pushq	%rbp
	.cfi_def_cfa_offset 16
	.cfi_offset %rbp, -16
	movq	%rsp, %rbp
	.cfi_def_cfa_register %rbp
	subq	$32, %rsp
	movq	%rdi, -24(%rbp)
	movq	%rsi, -16(%rbp)
Ltmp170:
	.loc	19 3013 26 prologue_end
	addq	%rsi, %rdi
	movq	%rdi, -8(%rbp)
	movq	-8(%rbp), %rax
	movq	%rax, -32(%rbp)
	.loc	19 0 26 is_stmt 0
	movq	-32(%rbp), %rax
	.loc	19 3014 14 is_stmt 1
	addq	$32, %rsp
	popq	%rbp
	retq
Ltmp171:
Lfunc_end58:
	.cfi_endproc

	.p2align	4, 0x90
__ZN4core3num23_$LT$impl$u20$usize$GT$13unchecked_sub17h17946aa2225e1910E:
Lfunc_begin59:
	.loc	19 3052 0
	.cfi_startproc
	pushq	%rbp
	.cfi_def_cfa_offset 16
	.cfi_offset %rbp, -16
	movq	%rsp, %rbp
	.cfi_def_cfa_register %rbp
	subq	$32, %rsp
	movq	%rdi, -24(%rbp)
	movq	%rsi, -16(%rbp)
Ltmp172:
	.loc	19 3055 26 prologue_end
	subq	%rsi, %rdi
	movq	%rdi, -8(%rbp)
	movq	-8(%rbp), %rax
	movq	%rax, -32(%rbp)
	.loc	19 0 26 is_stmt 0
	movq	-32(%rbp), %rax
	.loc	19 3056 14 is_stmt 1
	addq	$32, %rsp
	popq	%rbp
	retq
Ltmp173:
Lfunc_end59:
	.cfi_endproc

	.p2align	4, 0x90
__ZN4core3ops8function6FnOnce40call_once$u7b$$u7b$vtable.shim$u7d$$u7d$17ha350a500b3773d9aE:
Lfunc_begin60:
	.file	20 "/rustc/6c8927b0cf80ceee19386026cf9d7fd4fd9d486f/src/libcore/ops/function.rs"
	.loc	20 233 0
	.cfi_startproc
	pushq	%rbp
	.cfi_def_cfa_offset 16
	.cfi_offset %rbp, -16
	movq	%rsp, %rbp
	.cfi_def_cfa_register %rbp
	subq	$32, %rsp
	movq	%rdi, -8(%rbp)
Ltmp174:
	.loc	20 233 5 prologue_end
	movq	(%rdi), %rdi
	callq	__ZN4core3ops8function6FnOnce9call_once17h0433b6eb106b2101E
	movl	%eax, -20(%rbp)
	.loc	20 0 5 is_stmt 0
	movl	-20(%rbp), %eax
	.loc	20 233 5
	addq	$32, %rsp
	popq	%rbp
	retq
Ltmp175:
Lfunc_end60:
	.cfi_endproc

	.p2align	4, 0x90
__ZN4core3ops8function6FnOnce9call_once17h0433b6eb106b2101E:
Lfunc_begin61:
	.loc	20 233 0 is_stmt 1
	.cfi_startproc
	.cfi_personality 155, _rust_eh_personality
	.cfi_lsda 16, Lexception7
	pushq	%rbp
	.cfi_def_cfa_offset 16
	.cfi_offset %rbp, -16
	movq	%rsp, %rbp
	.cfi_def_cfa_register %rbp
	subq	$48, %rsp
	movq	%rdi, -32(%rbp)
Ltmp176:
	leaq	-32(%rbp), %rdi
Ltmp179:
	.loc	20 233 5 prologue_end
	callq	__ZN3std2rt10lang_start28_$u7b$$u7b$closure$u7d$$u7d$17h954df2005701f60cE
Ltmp177:
	movl	%eax, -36(%rbp)
	jmp	LBB61_1
LBB61_1:
	jmp	LBB61_2
LBB61_2:
	.loc	20 0 5 is_stmt 0
	movl	-36(%rbp), %eax
	.loc	20 233 5
	addq	$48, %rsp
	popq	%rbp
	retq
LBB61_3:
	jmp	LBB61_4
LBB61_4:
	movq	-16(%rbp), %rdi
	callq	__Unwind_Resume
	ud2
Ltmp180:
LBB61_5:
Ltmp178:
	.loc	20 0 5
	movq	%rax, -16(%rbp)
	movl	%edx, -8(%rbp)
	jmp	LBB61_3
Lfunc_end61:
	.cfi_endproc
	.section	__TEXT,__gcc_except_tab
	.p2align	2
GCC_except_table61:
Lexception7:
	.byte	255
	.byte	255
	.byte	1
	.uleb128 Lcst_end7-Lcst_begin7
Lcst_begin7:
	.uleb128 Ltmp176-Lfunc_begin61
	.uleb128 Ltmp177-Ltmp176
	.uleb128 Ltmp178-Lfunc_begin61
	.byte	0
	.uleb128 Ltmp177-Lfunc_begin61
	.uleb128 Lfunc_end61-Ltmp177
	.byte	0
	.byte	0
Lcst_end7:
	.p2align	2

	.section	__TEXT,__text,regular,pure_instructions
	.p2align	4, 0x90
__ZN4core3ops8function6FnOnce9call_once17h8462f0eabf50ca54E:
Lfunc_begin62:
	.loc	20 233 0 is_stmt 1
	.cfi_startproc
	pushq	%rbp
	.cfi_def_cfa_offset 16
	.cfi_offset %rbp, -16
	movq	%rsp, %rbp
	.cfi_def_cfa_register %rbp
	subq	$32, %rsp
	movq	%rdi, -24(%rbp)
	movq	%rsi, -16(%rbp)
Ltmp181:
	.loc	20 233 5 prologue_end
	movq	-24(%rbp), %rdi
	movq	-16(%rbp), %rsi
	callq	__ZN4core3cmp5impls50_$LT$impl$u20$core..cmp..Ord$u20$for$u20$usize$GT$3cmp17hf8acb7a5a0184477E
	movb	%al, -25(%rbp)
	.loc	20 0 5 is_stmt 0
	movb	-25(%rbp), %al
	.loc	20 233 5
	addq	$32, %rsp
	popq	%rbp
	retq
Ltmp182:
Lfunc_end62:
	.cfi_endproc

	.p2align	4, 0x90
__ZN4core3ptr13drop_in_place17h01bc6d339b71fa75E:
Lfunc_begin63:
	.file	21 "/rustc/6c8927b0cf80ceee19386026cf9d7fd4fd9d486f/src/libcore/ptr/mod.rs"
	.loc	21 184 0 is_stmt 1
	.cfi_startproc
	pushq	%rbp
	.cfi_def_cfa_offset 16
	.cfi_offset %rbp, -16
	movq	%rsp, %rbp
	.cfi_def_cfa_register %rbp
	subq	$32, %rsp
	movq	%rdi, -8(%rbp)
Ltmp183:
	.loc	21 184 1 prologue_end
	movl	(%rdi), %eax
	subl	$2, %eax
	movq	%rdi, -24(%rbp)
	ja	LBB63_2
	jmp	LBB63_1
LBB63_1:
	addq	$32, %rsp
	popq	%rbp
	retq
LBB63_2:
	.loc	21 0 1 is_stmt 0
	movq	-24(%rbp), %rax
	.loc	21 184 1
	addq	$4, %rax
	movq	%rax, %rdi
	callq	__ZN4core3ptr13drop_in_place17hd697cfe7d56295c3E
	jmp	LBB63_1
Ltmp184:
Lfunc_end63:
	.cfi_endproc

	.p2align	4, 0x90
__ZN4core3ptr13drop_in_place17h074880c6299758cfE:
Lfunc_begin64:
	.loc	21 184 0 is_stmt 1
	.cfi_startproc
	pushq	%rbp
	.cfi_def_cfa_offset 16
	.cfi_offset %rbp, -16
	movq	%rsp, %rbp
	.cfi_def_cfa_register %rbp
	subq	$16, %rsp
	movq	%rdi, -8(%rbp)
Ltmp185:
	.loc	21 184 1 prologue_end
	callq	__ZN77_$LT$alloc..raw_vec..RawVec$LT$T$C$A$GT$$u20$as$u20$core..ops..drop..Drop$GT$4drop17h6ce110f5029249c6E
	addq	$16, %rsp
	popq	%rbp
	retq
Ltmp186:
Lfunc_end64:
	.cfi_endproc

	.p2align	4, 0x90
__ZN4core3ptr13drop_in_place17h0efa5475663e8168E:
Lfunc_begin65:
	.loc	21 184 0
	.cfi_startproc
	.cfi_personality 155, _rust_eh_personality
	.cfi_lsda 16, Lexception8
	pushq	%rbp
	.cfi_def_cfa_offset 16
	.cfi_offset %rbp, -16
	movq	%rsp, %rbp
	.cfi_def_cfa_register %rbp
	subq	$80, %rsp
	xorl	%eax, %eax
	movq	%rdi, -32(%rbp)
	movq	%rsi, -24(%rbp)
Ltmp193:
	.loc	21 184 1 prologue_end
	testb	$1, %al
	movq	%rdi, -72(%rbp)
	movq	%rsi, -80(%rbp)
	jne	LBB65_7
	jmp	LBB65_12
LBB65_1:
	addq	$80, %rsp
	popq	%rbp
	retq
LBB65_2:
	movq	-16(%rbp), %rdi
	callq	__Unwind_Resume
	ud2
LBB65_3:
	movq	-56(%rbp), %rax
	shlq	$4, %rax
	movq	-72(%rbp), %rcx
	addq	%rax, %rcx
	movq	-56(%rbp), %rax
	addq	$1, %rax
	movq	%rax, -56(%rbp)
	movq	%rcx, %rdi
	callq	__ZN4core3ptr13drop_in_place17h8892cbedc2022f4dE
LBB65_4:
	.loc	21 0 1 is_stmt 0
	movq	-80(%rbp), %rax
	.loc	21 184 1
	cmpq	%rax, -56(%rbp)
	je	LBB65_2
	jmp	LBB65_3
LBB65_5:
	movq	-56(%rbp), %rax
	movq	%rax, %rcx
	shlq	$4, %rcx
	movq	-72(%rbp), %rdx
	addq	%rcx, %rdx
	incq	%rax
	movq	%rax, -56(%rbp)
Ltmp190:
	movq	%rdx, %rdi
	callq	__ZN4core3ptr13drop_in_place17h8892cbedc2022f4dE
Ltmp191:
	jmp	LBB65_6
LBB65_6:
	.loc	21 0 1
	movq	-80(%rbp), %rax
	.loc	21 184 1
	cmpq	%rax, -56(%rbp)
	je	LBB65_1
	jmp	LBB65_5
LBB65_7:
	movq	$0, -56(%rbp)
	jmp	LBB65_6
LBB65_8:
	movq	-48(%rbp), %rdi
	movq	-48(%rbp), %rax
	addq	$16, %rax
	movq	%rax, -48(%rbp)
	callq	__ZN4core3ptr13drop_in_place17h8892cbedc2022f4dE
LBB65_9:
	movq	-48(%rbp), %rax
	cmpq	-40(%rbp), %rax
	je	LBB65_2
	jmp	LBB65_8
LBB65_10:
	movq	-48(%rbp), %rax
	movq	%rax, %rcx
	addq	$16, %rcx
	movq	%rcx, -48(%rbp)
Ltmp187:
	movq	%rax, %rdi
	callq	__ZN4core3ptr13drop_in_place17h8892cbedc2022f4dE
Ltmp188:
	jmp	LBB65_11
LBB65_11:
	movq	-48(%rbp), %rax
	cmpq	-40(%rbp), %rax
	je	LBB65_1
	jmp	LBB65_10
LBB65_12:
	.loc	21 0 1
	movq	-72(%rbp), %rax
	.loc	21 184 1
	movq	%rax, -48(%rbp)
	movq	-80(%rbp), %rax
	shlq	$4, %rax
	addq	-48(%rbp), %rax
	movq	%rax, -40(%rbp)
	jmp	LBB65_11
Ltmp194:
LBB65_13:
Ltmp189:
	.loc	21 0 1
	movq	%rax, -16(%rbp)
	movl	%edx, -8(%rbp)
	jmp	LBB65_9
LBB65_14:
Ltmp192:
	movq	%rax, -16(%rbp)
	movl	%edx, -8(%rbp)
	jmp	LBB65_4
Lfunc_end65:
	.cfi_endproc
	.section	__TEXT,__gcc_except_tab
	.p2align	2
GCC_except_table65:
Lexception8:
	.byte	255
	.byte	255
	.byte	1
	.uleb128 Lcst_end8-Lcst_begin8
Lcst_begin8:
	.uleb128 Lfunc_begin65-Lfunc_begin65
	.uleb128 Ltmp190-Lfunc_begin65
	.byte	0
	.byte	0
	.uleb128 Ltmp190-Lfunc_begin65
	.uleb128 Ltmp191-Ltmp190
	.uleb128 Ltmp192-Lfunc_begin65
	.byte	0
	.uleb128 Ltmp191-Lfunc_begin65
	.uleb128 Ltmp187-Ltmp191
	.byte	0
	.byte	0
	.uleb128 Ltmp187-Lfunc_begin65
	.uleb128 Ltmp188-Ltmp187
	.uleb128 Ltmp189-Lfunc_begin65
	.byte	0
Lcst_end8:
	.p2align	2

	.section	__TEXT,__text,regular,pure_instructions
	.p2align	4, 0x90
__ZN4core3ptr13drop_in_place17h178872849c69acc1E:
Lfunc_begin66:
	.loc	21 184 0 is_stmt 1
	.cfi_startproc
	pushq	%rbp
	.cfi_def_cfa_offset 16
	.cfi_offset %rbp, -16
	movq	%rsp, %rbp
	.cfi_def_cfa_register %rbp
	subq	$32, %rsp
	xorl	%eax, %eax
	movl	%eax, %ecx
	movq	%rdi, -8(%rbp)
Ltmp195:
	.loc	21 184 1 prologue_end
	cmpq	$0, (%rdi)
	movl	$1, %edx
	cmovbeq	%rcx, %rdx
	cmpq	$0, %rdx
	movq	%rdi, -24(%rbp)
	jne	LBB66_2
LBB66_1:
	addq	$32, %rsp
	popq	%rbp
	retq
LBB66_2:
	.loc	21 0 1 is_stmt 0
	movq	-24(%rbp), %rdi
	.loc	21 184 1
	callq	__ZN4core3ptr13drop_in_place17h56303cbb7483fd12E
	jmp	LBB66_1
Ltmp196:
Lfunc_end66:
	.cfi_endproc

	.p2align	4, 0x90
__ZN4core3ptr13drop_in_place17h17d9669061c3cd18E:
Lfunc_begin67:
	.loc	21 184 0 is_stmt 1
	.cfi_startproc
	pushq	%rbp
	.cfi_def_cfa_offset 16
	.cfi_offset %rbp, -16
	movq	%rsp, %rbp
	.cfi_def_cfa_register %rbp
	subq	$16, %rsp
	movq	%rdi, -8(%rbp)
Ltmp197:
	.loc	21 184 1 prologue_end
	callq	__ZN4core3ptr13drop_in_place17h2eed4725fd5b9d89E
	addq	$16, %rsp
	popq	%rbp
	retq
Ltmp198:
Lfunc_end67:
	.cfi_endproc

	.p2align	4, 0x90
__ZN4core3ptr13drop_in_place17h226369b5911517b1E:
Lfunc_begin68:
	.loc	21 184 0
	.cfi_startproc
	pushq	%rbp
	.cfi_def_cfa_offset 16
	.cfi_offset %rbp, -16
	movq	%rsp, %rbp
	.cfi_def_cfa_register %rbp
	subq	$32, %rsp
	xorl	%eax, %eax
	movl	%eax, %ecx
	movq	%rdi, -8(%rbp)
Ltmp199:
	.loc	21 184 1 prologue_end
	cmpq	$0, (%rdi)
	movl	$1, %edx
	cmovbeq	%rcx, %rdx
	cmpq	$0, %rdx
	movq	%rdi, -24(%rbp)
	jne	LBB68_2
LBB68_1:
	addq	$32, %rsp
	popq	%rbp
	retq
LBB68_2:
	.loc	21 0 1 is_stmt 0
	movq	-24(%rbp), %rax
	.loc	21 184 1
	movq	%rax, %rdi
	callq	__ZN4core3ptr13drop_in_place17h75cb12e3ad118b32E
	jmp	LBB68_1
Ltmp200:
Lfunc_end68:
	.cfi_endproc

	.p2align	4, 0x90
__ZN4core3ptr13drop_in_place17h226572adfc88c80eE:
Lfunc_begin69:
	.loc	21 184 0 is_stmt 1
	.cfi_startproc
	pushq	%rbp
	.cfi_def_cfa_offset 16
	.cfi_offset %rbp, -16
	movq	%rsp, %rbp
	.cfi_def_cfa_register %rbp
	subq	$16, %rsp
	movq	%rdi, -8(%rbp)
Ltmp201:
	.loc	21 184 1 prologue_end
	callq	__ZN4core3ptr13drop_in_place17haa2bc8cbef59ab0eE
	addq	$16, %rsp
	popq	%rbp
	retq
Ltmp202:
Lfunc_end69:
	.cfi_endproc

	.p2align	4, 0x90
__ZN4core3ptr13drop_in_place17h2a5cbeab51f18612E:
Lfunc_begin70:
	.loc	21 184 0
	.cfi_startproc
	pushq	%rbp
	.cfi_def_cfa_offset 16
	.cfi_offset %rbp, -16
	movq	%rsp, %rbp
	.cfi_def_cfa_register %rbp
	subq	$16, %rsp
	movq	%rdi, -8(%rbp)
Ltmp203:
	.loc	21 184 1 prologue_end
	callq	__ZN4core3ptr13drop_in_place17h33f865304f66f35cE
	addq	$16, %rsp
	popq	%rbp
	retq
Ltmp204:
Lfunc_end70:
	.cfi_endproc

	.p2align	4, 0x90
__ZN4core3ptr13drop_in_place17h2b0509e136211c7dE:
Lfunc_begin71:
	.loc	21 184 0
	.cfi_startproc
	pushq	%rbp
	.cfi_def_cfa_offset 16
	.cfi_offset %rbp, -16
	movq	%rsp, %rbp
	.cfi_def_cfa_register %rbp
	subq	$32, %rsp
	xorl	%eax, %eax
	movl	%eax, %ecx
	movq	%rdi, -8(%rbp)
Ltmp205:
	.loc	21 184 1 prologue_end
	cmpq	$0, (%rdi)
	movl	$1, %edx
	cmovbeq	%rcx, %rdx
	cmpq	$0, %rdx
	movq	%rdi, -24(%rbp)
	jne	LBB71_2
LBB71_1:
	addq	$32, %rsp
	popq	%rbp
	retq
LBB71_2:
	.loc	21 0 1 is_stmt 0
	movq	-24(%rbp), %rax
	.loc	21 184 1
	movq	%rax, %rdi
	callq	__ZN4core3ptr13drop_in_place17hc16fbba51cd0d452E
	jmp	LBB71_1
Ltmp206:
Lfunc_end71:
	.cfi_endproc

	.p2align	4, 0x90
__ZN4core3ptr13drop_in_place17h2eed4725fd5b9d89E:
Lfunc_begin72:
	.loc	21 184 0 is_stmt 1
	.cfi_startproc
	pushq	%rbp
	.cfi_def_cfa_offset 16
	.cfi_offset %rbp, -16
	movq	%rsp, %rbp
	.cfi_def_cfa_register %rbp
	subq	$16, %rsp
	movq	%rdi, -8(%rbp)
Ltmp207:
	.loc	21 184 1 prologue_end
	callq	__ZN95_$LT$alloc..collections..btree..map..BTreeMap$LT$K$C$V$GT$$u20$as$u20$core..ops..drop..Drop$GT$4drop17hdc933c084f607a93E
	addq	$16, %rsp
	popq	%rbp
	retq
Ltmp208:
Lfunc_end72:
	.cfi_endproc

	.p2align	4, 0x90
__ZN4core3ptr13drop_in_place17h33a38c68756d1b6fE:
Lfunc_begin73:
	.loc	21 184 0
	.cfi_startproc
	pushq	%rbp
	.cfi_def_cfa_offset 16
	.cfi_offset %rbp, -16
	movq	%rsp, %rbp
	.cfi_def_cfa_register %rbp
	subq	$16, %rsp
	movq	%rdi, -8(%rbp)
Ltmp209:
	.loc	21 184 1 prologue_end
	addq	$16, %rsp
	popq	%rbp
	retq
Ltmp210:
Lfunc_end73:
	.cfi_endproc

	.p2align	4, 0x90
__ZN4core3ptr13drop_in_place17h33f865304f66f35cE:
Lfunc_begin74:
	.loc	21 184 0
	.cfi_startproc
	.cfi_personality 155, _rust_eh_personality
	.cfi_lsda 16, Lexception9
	pushq	%rbp
	.cfi_def_cfa_offset 16
	.cfi_offset %rbp, -16
	movq	%rsp, %rbp
	.cfi_def_cfa_register %rbp
	subq	$48, %rsp
	movq	%rdi, -24(%rbp)
Ltmp211:
	movq	%rdi, -40(%rbp)
Ltmp235:
	.loc	21 184 1 prologue_end
	callq	__ZN4core3ptr13drop_in_place17h56303cbb7483fd12E
Ltmp212:
	jmp	LBB74_18
LBB74_1:
	movq	-16(%rbp), %rdi
	callq	__Unwind_Resume
	ud2
LBB74_2:
	addq	$48, %rsp
	popq	%rbp
	retq
LBB74_3:
	.loc	21 0 1 is_stmt 0
	movq	-40(%rbp), %rax
	.loc	21 184 1
	addq	$168, %rax
	movq	%rax, %rdi
	callq	__ZN4core3ptr13drop_in_place17h5021a77640585a66E
	jmp	LBB74_1
LBB74_4:
	.loc	21 0 1
	movq	-40(%rbp), %rax
	.loc	21 184 1
	addq	$160, %rax
	movq	%rax, %rdi
	callq	__ZN4core3ptr13drop_in_place17h5021a77640585a66E
	jmp	LBB74_3
LBB74_5:
	.loc	21 0 1
	movq	-40(%rbp), %rax
	.loc	21 184 1
	addq	$152, %rax
	movq	%rax, %rdi
	callq	__ZN4core3ptr13drop_in_place17h5021a77640585a66E
	jmp	LBB74_4
LBB74_6:
	.loc	21 0 1
	movq	-40(%rbp), %rax
	.loc	21 184 1
	addq	$112, %rax
	movq	%rax, %rdi
	callq	__ZN4core3ptr13drop_in_place17hb80ddd24abcecd71E
	jmp	LBB74_5
LBB74_7:
	.loc	21 0 1
	movq	-40(%rbp), %rax
	.loc	21 184 1
	addq	$96, %rax
	movq	%rax, %rdi
	callq	__ZN4core3ptr13drop_in_place17h178872849c69acc1E
	jmp	LBB74_6
LBB74_8:
	.loc	21 0 1
	movq	-40(%rbp), %rax
	.loc	21 184 1
	addq	$64, %rax
	movq	%rax, %rdi
	callq	__ZN4core3ptr13drop_in_place17h17d9669061c3cd18E
	jmp	LBB74_7
LBB74_9:
	.loc	21 0 1
	movq	-40(%rbp), %rax
	.loc	21 184 1
	addq	$40, %rax
	movq	%rax, %rdi
	callq	__ZN4core3ptr13drop_in_place17he9ac79c70de1c746E
	jmp	LBB74_8
LBB74_10:
	.loc	21 0 1
	movq	-40(%rbp), %rax
	.loc	21 184 1
	addq	$16, %rax
	movq	%rax, %rdi
	callq	__ZN4core3ptr13drop_in_place17h6b509ad20761bf0dE
	jmp	LBB74_9
LBB74_11:
	.loc	21 0 1
	movq	-40(%rbp), %rax
	.loc	21 184 1
	addq	$168, %rax
	movq	%rax, %rdi
	callq	__ZN4core3ptr13drop_in_place17h5021a77640585a66E
	jmp	LBB74_2
LBB74_12:
	.loc	21 0 1
	movq	-40(%rbp), %rax
	.loc	21 184 1
	addq	$160, %rax
Ltmp232:
	movq	%rax, %rdi
	callq	__ZN4core3ptr13drop_in_place17h5021a77640585a66E
Ltmp233:
	jmp	LBB74_11
LBB74_13:
	.loc	21 0 1
	movq	-40(%rbp), %rax
	.loc	21 184 1
	addq	$152, %rax
Ltmp229:
	movq	%rax, %rdi
	callq	__ZN4core3ptr13drop_in_place17h5021a77640585a66E
Ltmp230:
	jmp	LBB74_12
LBB74_14:
	.loc	21 0 1
	movq	-40(%rbp), %rax
	.loc	21 184 1
	addq	$112, %rax
Ltmp226:
	movq	%rax, %rdi
	callq	__ZN4core3ptr13drop_in_place17hb80ddd24abcecd71E
Ltmp227:
	jmp	LBB74_13
LBB74_15:
	.loc	21 0 1
	movq	-40(%rbp), %rax
	.loc	21 184 1
	addq	$96, %rax
Ltmp223:
	movq	%rax, %rdi
	callq	__ZN4core3ptr13drop_in_place17h178872849c69acc1E
Ltmp224:
	jmp	LBB74_14
LBB74_16:
	.loc	21 0 1
	movq	-40(%rbp), %rax
	.loc	21 184 1
	addq	$64, %rax
Ltmp220:
	movq	%rax, %rdi
	callq	__ZN4core3ptr13drop_in_place17h17d9669061c3cd18E
Ltmp221:
	jmp	LBB74_15
LBB74_17:
	.loc	21 0 1
	movq	-40(%rbp), %rax
	.loc	21 184 1
	addq	$40, %rax
Ltmp217:
	movq	%rax, %rdi
	callq	__ZN4core3ptr13drop_in_place17he9ac79c70de1c746E
Ltmp218:
	jmp	LBB74_16
LBB74_18:
	.loc	21 0 1
	movq	-40(%rbp), %rax
	.loc	21 184 1
	addq	$16, %rax
Ltmp214:
	movq	%rax, %rdi
	callq	__ZN4core3ptr13drop_in_place17h6b509ad20761bf0dE
Ltmp215:
	jmp	LBB74_17
Ltmp236:
LBB74_19:
Ltmp213:
	.loc	21 0 1
	movq	%rax, -16(%rbp)
	movl	%edx, -8(%rbp)
	jmp	LBB74_10
LBB74_20:
Ltmp216:
	movq	%rax, -16(%rbp)
	movl	%edx, -8(%rbp)
	jmp	LBB74_9
LBB74_21:
Ltmp219:
	movq	%rax, -16(%rbp)
	movl	%edx, -8(%rbp)
	jmp	LBB74_8
LBB74_22:
Ltmp222:
	movq	%rax, -16(%rbp)
	movl	%edx, -8(%rbp)
	jmp	LBB74_7
LBB74_23:
Ltmp225:
	movq	%rax, -16(%rbp)
	movl	%edx, -8(%rbp)
	jmp	LBB74_6
LBB74_24:
Ltmp228:
	movq	%rax, -16(%rbp)
	movl	%edx, -8(%rbp)
	jmp	LBB74_5
LBB74_25:
Ltmp231:
	movq	%rax, -16(%rbp)
	movl	%edx, -8(%rbp)
	jmp	LBB74_4
LBB74_26:
Ltmp234:
	movq	%rax, -16(%rbp)
	movl	%edx, -8(%rbp)
	jmp	LBB74_3
Lfunc_end74:
	.cfi_endproc
	.section	__TEXT,__gcc_except_tab
	.p2align	2
GCC_except_table74:
Lexception9:
	.byte	255
	.byte	255
	.byte	1
	.uleb128 Lcst_end9-Lcst_begin9
Lcst_begin9:
	.uleb128 Ltmp211-Lfunc_begin74
	.uleb128 Ltmp212-Ltmp211
	.uleb128 Ltmp213-Lfunc_begin74
	.byte	0
	.uleb128 Ltmp212-Lfunc_begin74
	.uleb128 Ltmp232-Ltmp212
	.byte	0
	.byte	0
	.uleb128 Ltmp232-Lfunc_begin74
	.uleb128 Ltmp233-Ltmp232
	.uleb128 Ltmp234-Lfunc_begin74
	.byte	0
	.uleb128 Ltmp229-Lfunc_begin74
	.uleb128 Ltmp230-Ltmp229
	.uleb128 Ltmp231-Lfunc_begin74
	.byte	0
	.uleb128 Ltmp226-Lfunc_begin74
	.uleb128 Ltmp227-Ltmp226
	.uleb128 Ltmp228-Lfunc_begin74
	.byte	0
	.uleb128 Ltmp223-Lfunc_begin74
	.uleb128 Ltmp224-Ltmp223
	.uleb128 Ltmp225-Lfunc_begin74
	.byte	0
	.uleb128 Ltmp220-Lfunc_begin74
	.uleb128 Ltmp221-Ltmp220
	.uleb128 Ltmp222-Lfunc_begin74
	.byte	0
	.uleb128 Ltmp217-Lfunc_begin74
	.uleb128 Ltmp218-Ltmp217
	.uleb128 Ltmp219-Lfunc_begin74
	.byte	0
	.uleb128 Ltmp214-Lfunc_begin74
	.uleb128 Ltmp215-Ltmp214
	.uleb128 Ltmp216-Lfunc_begin74
	.byte	0
Lcst_end9:
	.p2align	2

	.section	__TEXT,__text,regular,pure_instructions
	.p2align	4, 0x90
__ZN4core3ptr13drop_in_place17h46cdb6b79fe77fc8E:
Lfunc_begin75:
	.loc	21 184 0 is_stmt 1
	.cfi_startproc
	pushq	%rbp
	.cfi_def_cfa_offset 16
	.cfi_offset %rbp, -16
	movq	%rsp, %rbp
	.cfi_def_cfa_register %rbp
	subq	$16, %rsp
	movq	%rdi, -8(%rbp)
Ltmp237:
	.loc	21 184 1 prologue_end
	callq	__ZN4core3ptr13drop_in_place17h5ca7ce76dc6629f8E
	addq	$16, %rsp
	popq	%rbp
	retq
Ltmp238:
Lfunc_end75:
	.cfi_endproc

	.p2align	4, 0x90
__ZN4core3ptr13drop_in_place17h5021a77640585a66E:
Lfunc_begin76:
	.loc	21 184 0
	.cfi_startproc
	pushq	%rbp
	.cfi_def_cfa_offset 16
	.cfi_offset %rbp, -16
	movq	%rsp, %rbp
	.cfi_def_cfa_register %rbp
	subq	$32, %rsp
	xorl	%eax, %eax
	movl	%eax, %ecx
	movq	%rdi, -8(%rbp)
Ltmp239:
	.loc	21 184 1 prologue_end
	movl	(%rdi), %eax
	subl	$4, %eax
	cmpl	$0, %eax
	movl	$1, %edx
	cmovbeq	%rcx, %rdx
	cmpq	$0, %rdx
	movq	%rdi, -24(%rbp)
	jne	LBB76_2
LBB76_1:
	addq	$32, %rsp
	popq	%rbp
	retq
LBB76_2:
	.loc	21 0 1 is_stmt 0
	movq	-24(%rbp), %rdi
	.loc	21 184 1
	callq	__ZN4core3ptr13drop_in_place17h01bc6d339b71fa75E
	jmp	LBB76_1
Ltmp240:
Lfunc_end76:
	.cfi_endproc

	.p2align	4, 0x90
__ZN4core3ptr13drop_in_place17h56303cbb7483fd12E:
Lfunc_begin77:
	.loc	21 184 0 is_stmt 1
	.cfi_startproc
	.cfi_personality 155, _rust_eh_personality
	.cfi_lsda 16, Lexception10
	pushq	%rbp
	.cfi_def_cfa_offset 16
	.cfi_offset %rbp, -16
	movq	%rsp, %rbp
	.cfi_def_cfa_register %rbp
	subq	$48, %rsp
	movq	%rdi, -24(%rbp)
Ltmp241:
	movq	%rdi, -40(%rbp)
Ltmp244:
	.loc	21 184 1 prologue_end
	callq	__ZN66_$LT$std..ffi..c_str..CString$u20$as$u20$core..ops..drop..Drop$GT$4drop17h0ebd35bc44fa3432E
Ltmp242:
	jmp	LBB77_4
LBB77_1:
	movq	-16(%rbp), %rdi
	callq	__Unwind_Resume
	ud2
LBB77_2:
	addq	$48, %rsp
	popq	%rbp
	retq
LBB77_3:
	.loc	21 0 1 is_stmt 0
	movq	-40(%rbp), %rax
	.loc	21 184 1
	movq	%rax, %rdi
	callq	__ZN4core3ptr13drop_in_place17hbe62d027ba001696E
	jmp	LBB77_1
LBB77_4:
	.loc	21 0 1
	movq	-40(%rbp), %rax
	.loc	21 184 1
	movq	%rax, %rdi
	callq	__ZN4core3ptr13drop_in_place17hbe62d027ba001696E
	jmp	LBB77_2
Ltmp245:
LBB77_5:
Ltmp243:
	.loc	21 0 1
	movq	%rax, -16(%rbp)
	movl	%edx, -8(%rbp)
	jmp	LBB77_3
Lfunc_end77:
	.cfi_endproc
	.section	__TEXT,__gcc_except_tab
	.p2align	2
GCC_except_table77:
Lexception10:
	.byte	255
	.byte	255
	.byte	1
	.uleb128 Lcst_end10-Lcst_begin10
Lcst_begin10:
	.uleb128 Ltmp241-Lfunc_begin77
	.uleb128 Ltmp242-Ltmp241
	.uleb128 Ltmp243-Lfunc_begin77
	.byte	0
	.uleb128 Ltmp242-Lfunc_begin77
	.uleb128 Lfunc_end77-Ltmp242
	.byte	0
	.byte	0
Lcst_end10:
	.p2align	2

	.section	__TEXT,__text,regular,pure_instructions
	.p2align	4, 0x90
__ZN4core3ptr13drop_in_place17h5ca7ce76dc6629f8E:
Lfunc_begin78:
	.loc	21 184 0 is_stmt 1
	.cfi_startproc
	.cfi_personality 155, _rust_eh_personality
	.cfi_lsda 16, Lexception11
	pushq	%rbp
	.cfi_def_cfa_offset 16
	.cfi_offset %rbp, -16
	movq	%rsp, %rbp
	.cfi_def_cfa_register %rbp
	subq	$48, %rsp
	movq	%rdi, -24(%rbp)
Ltmp246:
	movq	%rdi, -40(%rbp)
Ltmp249:
	.loc	21 184 1 prologue_end
	callq	__ZN66_$LT$alloc..vec..Vec$LT$T$GT$$u20$as$u20$core..ops..drop..Drop$GT$4drop17h714ed086a24441f7E
Ltmp247:
	jmp	LBB78_4
LBB78_1:
	movq	-16(%rbp), %rdi
	callq	__Unwind_Resume
	ud2
LBB78_2:
	addq	$48, %rsp
	popq	%rbp
	retq
LBB78_3:
	.loc	21 0 1 is_stmt 0
	movq	-40(%rbp), %rax
	.loc	21 184 1
	movq	%rax, %rdi
	callq	__ZN4core3ptr13drop_in_place17hd4b437a07625cb37E
	jmp	LBB78_1
LBB78_4:
	.loc	21 0 1
	movq	-40(%rbp), %rax
	.loc	21 184 1
	movq	%rax, %rdi
	callq	__ZN4core3ptr13drop_in_place17hd4b437a07625cb37E
	jmp	LBB78_2
Ltmp250:
LBB78_5:
Ltmp248:
	.loc	21 0 1
	movq	%rax, -16(%rbp)
	movl	%edx, -8(%rbp)
	jmp	LBB78_3
Lfunc_end78:
	.cfi_endproc
	.section	__TEXT,__gcc_except_tab
	.p2align	2
GCC_except_table78:
Lexception11:
	.byte	255
	.byte	255
	.byte	1
	.uleb128 Lcst_end11-Lcst_begin11
Lcst_begin11:
	.uleb128 Ltmp246-Lfunc_begin78
	.uleb128 Ltmp247-Ltmp246
	.uleb128 Ltmp248-Lfunc_begin78
	.byte	0
	.uleb128 Ltmp247-Lfunc_begin78
	.uleb128 Lfunc_end78-Ltmp247
	.byte	0
	.byte	0
Lcst_end11:
	.p2align	2

	.section	__TEXT,__text,regular,pure_instructions
	.p2align	4, 0x90
__ZN4core3ptr13drop_in_place17h60ca1dd43bc3def9E:
Lfunc_begin79:
	.loc	21 184 0 is_stmt 1
	.cfi_startproc
	pushq	%rbp
	.cfi_def_cfa_offset 16
	.cfi_offset %rbp, -16
	movq	%rsp, %rbp
	.cfi_def_cfa_register %rbp
	subq	$16, %rsp
	movq	%rdi, -8(%rbp)
Ltmp251:
	.loc	21 184 1 prologue_end
	callq	__ZN4core3ptr13drop_in_place17h5ca7ce76dc6629f8E
	addq	$16, %rsp
	popq	%rbp
	retq
Ltmp252:
Lfunc_end79:
	.cfi_endproc

	.p2align	4, 0x90
__ZN4core3ptr13drop_in_place17h64202eeb4d089dc7E:
Lfunc_begin80:
	.loc	21 184 0
	.cfi_startproc
	.cfi_personality 155, _rust_eh_personality
	.cfi_lsda 16, Lexception12
	pushq	%rbp
	.cfi_def_cfa_offset 16
	.cfi_offset %rbp, -16
	movq	%rsp, %rbp
	.cfi_def_cfa_register %rbp
	subq	$48, %rsp
	movq	%rdi, -24(%rbp)
Ltmp253:
	movq	%rdi, -40(%rbp)
Ltmp256:
	.loc	21 184 1 prologue_end
	callq	__ZN4core3ptr13drop_in_place17h5ca7ce76dc6629f8E
Ltmp254:
	jmp	LBB80_4
LBB80_1:
	movq	-16(%rbp), %rdi
	callq	__Unwind_Resume
	ud2
LBB80_2:
	addq	$48, %rsp
	popq	%rbp
	retq
LBB80_3:
	.loc	21 0 1 is_stmt 0
	movq	-40(%rbp), %rax
	.loc	21 184 1
	addq	$24, %rax
	movq	%rax, %rdi
	callq	__ZN4core3ptr13drop_in_place17h5ca7ce76dc6629f8E
	jmp	LBB80_1
LBB80_4:
	.loc	21 0 1
	movq	-40(%rbp), %rax
	.loc	21 184 1
	addq	$24, %rax
	movq	%rax, %rdi
	callq	__ZN4core3ptr13drop_in_place17h5ca7ce76dc6629f8E
	jmp	LBB80_2
Ltmp257:
LBB80_5:
Ltmp255:
	.loc	21 0 1
	movq	%rax, -16(%rbp)
	movl	%edx, -8(%rbp)
	jmp	LBB80_3
Lfunc_end80:
	.cfi_endproc
	.section	__TEXT,__gcc_except_tab
	.p2align	2
GCC_except_table80:
Lexception12:
	.byte	255
	.byte	255
	.byte	1
	.uleb128 Lcst_end12-Lcst_begin12
Lcst_begin12:
	.uleb128 Ltmp253-Lfunc_begin80
	.uleb128 Ltmp254-Ltmp253
	.uleb128 Ltmp255-Lfunc_begin80
	.byte	0
	.uleb128 Ltmp254-Lfunc_begin80
	.uleb128 Lfunc_end80-Ltmp254
	.byte	0
	.byte	0
Lcst_end12:
	.p2align	2

	.section	__TEXT,__text,regular,pure_instructions
	.p2align	4, 0x90
__ZN4core3ptr13drop_in_place17h65788dc97189d434E:
Lfunc_begin81:
	.loc	21 184 0 is_stmt 1
	.cfi_startproc
	.cfi_personality 155, _rust_eh_personality
	.cfi_lsda 16, Lexception13
	pushq	%rbp
	.cfi_def_cfa_offset 16
	.cfi_offset %rbp, -16
	movq	%rsp, %rbp
	.cfi_def_cfa_register %rbp
	subq	$80, %rsp
	xorl	%eax, %eax
	movq	%rdi, -32(%rbp)
	movq	%rsi, -24(%rbp)
Ltmp264:
	.loc	21 184 1 prologue_end
	testb	$1, %al
	movq	%rdi, -72(%rbp)
	movq	%rsi, -80(%rbp)
	jne	LBB81_7
	jmp	LBB81_12
LBB81_1:
	addq	$80, %rsp
	popq	%rbp
	retq
LBB81_2:
	movq	-16(%rbp), %rdi
	callq	__Unwind_Resume
	ud2
LBB81_3:
	movq	-56(%rbp), %rax
	shlq	$4, %rax
	movq	-72(%rbp), %rcx
	addq	%rax, %rcx
	movq	-56(%rbp), %rax
	addq	$1, %rax
	movq	%rax, -56(%rbp)
	movq	%rcx, %rdi
	callq	__ZN4core3ptr13drop_in_place17h56303cbb7483fd12E
LBB81_4:
	.loc	21 0 1 is_stmt 0
	movq	-80(%rbp), %rax
	.loc	21 184 1
	cmpq	%rax, -56(%rbp)
	je	LBB81_2
	jmp	LBB81_3
LBB81_5:
	movq	-56(%rbp), %rax
	movq	%rax, %rcx
	shlq	$4, %rcx
	movq	-72(%rbp), %rdx
	addq	%rcx, %rdx
	incq	%rax
	movq	%rax, -56(%rbp)
Ltmp261:
	movq	%rdx, %rdi
	callq	__ZN4core3ptr13drop_in_place17h56303cbb7483fd12E
Ltmp262:
	jmp	LBB81_6
LBB81_6:
	.loc	21 0 1
	movq	-80(%rbp), %rax
	.loc	21 184 1
	cmpq	%rax, -56(%rbp)
	je	LBB81_1
	jmp	LBB81_5
LBB81_7:
	movq	$0, -56(%rbp)
	jmp	LBB81_6
LBB81_8:
	movq	-48(%rbp), %rdi
	movq	-48(%rbp), %rax
	addq	$16, %rax
	movq	%rax, -48(%rbp)
	callq	__ZN4core3ptr13drop_in_place17h56303cbb7483fd12E
LBB81_9:
	movq	-48(%rbp), %rax
	cmpq	-40(%rbp), %rax
	je	LBB81_2
	jmp	LBB81_8
LBB81_10:
	movq	-48(%rbp), %rax
	movq	%rax, %rcx
	addq	$16, %rcx
	movq	%rcx, -48(%rbp)
Ltmp258:
	movq	%rax, %rdi
	callq	__ZN4core3ptr13drop_in_place17h56303cbb7483fd12E
Ltmp259:
	jmp	LBB81_11
LBB81_11:
	movq	-48(%rbp), %rax
	cmpq	-40(%rbp), %rax
	je	LBB81_1
	jmp	LBB81_10
LBB81_12:
	.loc	21 0 1
	movq	-72(%rbp), %rax
	.loc	21 184 1
	movq	%rax, -48(%rbp)
	movq	-80(%rbp), %rax
	shlq	$4, %rax
	addq	-48(%rbp), %rax
	movq	%rax, -40(%rbp)
	jmp	LBB81_11
Ltmp265:
LBB81_13:
Ltmp260:
	.loc	21 0 1
	movq	%rax, -16(%rbp)
	movl	%edx, -8(%rbp)
	jmp	LBB81_9
LBB81_14:
Ltmp263:
	movq	%rax, -16(%rbp)
	movl	%edx, -8(%rbp)
	jmp	LBB81_4
Lfunc_end81:
	.cfi_endproc
	.section	__TEXT,__gcc_except_tab
	.p2align	2
GCC_except_table81:
Lexception13:
	.byte	255
	.byte	255
	.byte	1
	.uleb128 Lcst_end13-Lcst_begin13
Lcst_begin13:
	.uleb128 Lfunc_begin81-Lfunc_begin81
	.uleb128 Ltmp261-Lfunc_begin81
	.byte	0
	.byte	0
	.uleb128 Ltmp261-Lfunc_begin81
	.uleb128 Ltmp262-Ltmp261
	.uleb128 Ltmp263-Lfunc_begin81
	.byte	0
	.uleb128 Ltmp262-Lfunc_begin81
	.uleb128 Ltmp258-Ltmp262
	.byte	0
	.byte	0
	.uleb128 Ltmp258-Lfunc_begin81
	.uleb128 Ltmp259-Ltmp258
	.uleb128 Ltmp260-Lfunc_begin81
	.byte	0
Lcst_end13:
	.p2align	2

	.section	__TEXT,__text,regular,pure_instructions
	.p2align	4, 0x90
__ZN4core3ptr13drop_in_place17h6b509ad20761bf0dE:
Lfunc_begin82:
	.loc	21 184 0 is_stmt 1
	.cfi_startproc
	.cfi_personality 155, _rust_eh_personality
	.cfi_lsda 16, Lexception14
	pushq	%rbp
	.cfi_def_cfa_offset 16
	.cfi_offset %rbp, -16
	movq	%rsp, %rbp
	.cfi_def_cfa_register %rbp
	subq	$48, %rsp
	movq	%rdi, -24(%rbp)
Ltmp266:
	movq	%rdi, -40(%rbp)
Ltmp269:
	.loc	21 184 1 prologue_end
	callq	__ZN66_$LT$alloc..vec..Vec$LT$T$GT$$u20$as$u20$core..ops..drop..Drop$GT$4drop17ha596c3d30598b326E
Ltmp267:
	jmp	LBB82_4
LBB82_1:
	movq	-16(%rbp), %rdi
	callq	__Unwind_Resume
	ud2
LBB82_2:
	addq	$48, %rsp
	popq	%rbp
	retq
LBB82_3:
	.loc	21 0 1 is_stmt 0
	movq	-40(%rbp), %rax
	.loc	21 184 1
	movq	%rax, %rdi
	callq	__ZN4core3ptr13drop_in_place17h074880c6299758cfE
	jmp	LBB82_1
LBB82_4:
	.loc	21 0 1
	movq	-40(%rbp), %rax
	.loc	21 184 1
	movq	%rax, %rdi
	callq	__ZN4core3ptr13drop_in_place17h074880c6299758cfE
	jmp	LBB82_2
Ltmp270:
LBB82_5:
Ltmp268:
	.loc	21 0 1
	movq	%rax, -16(%rbp)
	movl	%edx, -8(%rbp)
	jmp	LBB82_3
Lfunc_end82:
	.cfi_endproc
	.section	__TEXT,__gcc_except_tab
	.p2align	2
GCC_except_table82:
Lexception14:
	.byte	255
	.byte	255
	.byte	1
	.uleb128 Lcst_end14-Lcst_begin14
Lcst_begin14:
	.uleb128 Ltmp266-Lfunc_begin82
	.uleb128 Ltmp267-Ltmp266
	.uleb128 Ltmp268-Lfunc_begin82
	.byte	0
	.uleb128 Ltmp267-Lfunc_begin82
	.uleb128 Lfunc_end82-Ltmp267
	.byte	0
	.byte	0
Lcst_end14:
	.p2align	2

	.section	__TEXT,__text,regular,pure_instructions
	.p2align	4, 0x90
__ZN4core3ptr13drop_in_place17h75cb12e3ad118b32E:
Lfunc_begin83:
	.loc	21 184 0 is_stmt 1
	.cfi_startproc
	.cfi_personality 155, _rust_eh_personality
	.cfi_lsda 16, Lexception15
	pushq	%rbp
	.cfi_def_cfa_offset 16
	.cfi_offset %rbp, -16
	movq	%rsp, %rbp
	.cfi_def_cfa_register %rbp
	subq	$48, %rsp
	movq	%rdi, -24(%rbp)
Ltmp271:
	movq	%rdi, -40(%rbp)
Ltmp274:
	.loc	21 184 1 prologue_end
	callq	__ZN4core3ptr13drop_in_place17hc16fbba51cd0d452E
Ltmp272:
	jmp	LBB83_4
LBB83_1:
	movq	-16(%rbp), %rdi
	callq	__Unwind_Resume
	ud2
LBB83_2:
	addq	$48, %rsp
	popq	%rbp
	retq
LBB83_3:
	.loc	21 0 1 is_stmt 0
	movq	-40(%rbp), %rax
	.loc	21 184 1
	addq	$24, %rax
	movq	%rax, %rdi
	callq	__ZN4core3ptr13drop_in_place17hc364b95d821786ceE
	jmp	LBB83_1
LBB83_4:
	.loc	21 0 1
	movq	-40(%rbp), %rax
	.loc	21 184 1
	addq	$24, %rax
	movq	%rax, %rdi
	callq	__ZN4core3ptr13drop_in_place17hc364b95d821786ceE
	jmp	LBB83_2
Ltmp275:
LBB83_5:
Ltmp273:
	.loc	21 0 1
	movq	%rax, -16(%rbp)
	movl	%edx, -8(%rbp)
	jmp	LBB83_3
Lfunc_end83:
	.cfi_endproc
	.section	__TEXT,__gcc_except_tab
	.p2align	2
GCC_except_table83:
Lexception15:
	.byte	255
	.byte	255
	.byte	1
	.uleb128 Lcst_end15-Lcst_begin15
Lcst_begin15:
	.uleb128 Ltmp271-Lfunc_begin83
	.uleb128 Ltmp272-Ltmp271
	.uleb128 Ltmp273-Lfunc_begin83
	.byte	0
	.uleb128 Ltmp272-Lfunc_begin83
	.uleb128 Lfunc_end83-Ltmp272
	.byte	0
	.byte	0
Lcst_end15:
	.p2align	2

	.section	__TEXT,__text,regular,pure_instructions
	.p2align	4, 0x90
__ZN4core3ptr13drop_in_place17h82851892682c103eE:
Lfunc_begin84:
	.loc	21 184 0 is_stmt 1
	.cfi_startproc
	pushq	%rbp
	.cfi_def_cfa_offset 16
	.cfi_offset %rbp, -16
	movq	%rsp, %rbp
	.cfi_def_cfa_register %rbp
	subq	$16, %rsp
	movq	%rdi, -8(%rbp)
Ltmp276:
	.loc	21 184 1 prologue_end
	callq	__ZN77_$LT$alloc..raw_vec..RawVec$LT$T$C$A$GT$$u20$as$u20$core..ops..drop..Drop$GT$4drop17heb859bb7ce520ccdE
	addq	$16, %rsp
	popq	%rbp
	retq
Ltmp277:
Lfunc_end84:
	.cfi_endproc

	.p2align	4, 0x90
__ZN4core3ptr13drop_in_place17h8892cbedc2022f4dE:
Lfunc_begin85:
	.loc	21 184 0
	.cfi_startproc
	.cfi_personality 155, _rust_eh_personality
	.cfi_lsda 16, Lexception16
	pushq	%rbp
	.cfi_def_cfa_offset 16
	.cfi_offset %rbp, -16
	movq	%rsp, %rbp
	.cfi_def_cfa_register %rbp
	subq	$48, %rsp
	movq	%rdi, -24(%rbp)
Ltmp281:
	.loc	21 184 1 prologue_end
	movq	(%rdi), %rax
	movq	8(%rdi), %rcx
	movq	(%rcx), %rcx
Ltmp278:
	movq	%rdi, -40(%rbp)
	movq	%rax, %rdi
	callq	*%rcx
Ltmp279:
	jmp	LBB85_3
LBB85_1:
	addq	$48, %rsp
	popq	%rbp
	retq
LBB85_2:
	movq	-16(%rbp), %rdi
	callq	__Unwind_Resume
	ud2
LBB85_3:
	.loc	21 0 1 is_stmt 0
	movq	-40(%rbp), %rax
	.loc	21 184 1
	movq	(%rax), %rdi
	movq	8(%rax), %rsi
	callq	__ZN5alloc5alloc8box_free17ha363981751818b8aE
	jmp	LBB85_1
LBB85_4:
	.loc	21 0 1
	movq	-40(%rbp), %rax
	.loc	21 184 1
	movq	(%rax), %rdi
	movq	8(%rax), %rsi
	callq	__ZN5alloc5alloc8box_free17ha363981751818b8aE
	jmp	LBB85_2
Ltmp282:
LBB85_5:
Ltmp280:
	.loc	21 0 1
	movq	%rax, -16(%rbp)
	movl	%edx, -8(%rbp)
	jmp	LBB85_4
Lfunc_end85:
	.cfi_endproc
	.section	__TEXT,__gcc_except_tab
	.p2align	2
GCC_except_table85:
Lexception16:
	.byte	255
	.byte	255
	.byte	1
	.uleb128 Lcst_end16-Lcst_begin16
Lcst_begin16:
	.uleb128 Ltmp278-Lfunc_begin85
	.uleb128 Ltmp279-Ltmp278
	.uleb128 Ltmp280-Lfunc_begin85
	.byte	0
	.uleb128 Ltmp279-Lfunc_begin85
	.uleb128 Lfunc_end85-Ltmp279
	.byte	0
	.byte	0
Lcst_end16:
	.p2align	2

	.section	__TEXT,__text,regular,pure_instructions
	.p2align	4, 0x90
__ZN4core3ptr13drop_in_place17h9459520f0fd818a0E:
Lfunc_begin86:
	.loc	21 184 0 is_stmt 1
	.cfi_startproc
	pushq	%rbp
	.cfi_def_cfa_offset 16
	.cfi_offset %rbp, -16
	movq	%rsp, %rbp
	.cfi_def_cfa_register %rbp
	subq	$32, %rsp
	movq	%rdi, -16(%rbp)
	movq	%rsi, -8(%rbp)
Ltmp283:
	.loc	21 184 1 prologue_end
	callq	*(%rsi)
	addq	$32, %rsp
	popq	%rbp
	retq
Ltmp284:
Lfunc_end86:
	.cfi_endproc

	.p2align	4, 0x90
__ZN4core3ptr13drop_in_place17h97b2e8c16ae45b69E:
Lfunc_begin87:
	.loc	21 184 0
	.cfi_startproc
	pushq	%rbp
	.cfi_def_cfa_offset 16
	.cfi_offset %rbp, -16
	movq	%rsp, %rbp
	.cfi_def_cfa_register %rbp
	subq	$16, %rsp
	movq	%rdi, -8(%rbp)
Ltmp285:
	.loc	21 184 1 prologue_end
	callq	__ZN4core3ptr13drop_in_place17haf34d9dde8872fd8E
	addq	$16, %rsp
	popq	%rbp
	retq
Ltmp286:
Lfunc_end87:
	.cfi_endproc

	.p2align	4, 0x90
__ZN4core3ptr13drop_in_place17ha18d9644c7919c86E:
Lfunc_begin88:
	.loc	21 184 0
	.cfi_startproc
	pushq	%rbp
	.cfi_def_cfa_offset 16
	.cfi_offset %rbp, -16
	movq	%rsp, %rbp
	.cfi_def_cfa_register %rbp
	subq	$16, %rsp
	movq	%rdi, -8(%rbp)
Ltmp287:
	.loc	21 184 1 prologue_end
	callq	__ZN77_$LT$alloc..raw_vec..RawVec$LT$T$C$A$GT$$u20$as$u20$core..ops..drop..Drop$GT$4drop17hbb756ff66aaed1c2E
	addq	$16, %rsp
	popq	%rbp
	retq
Ltmp288:
Lfunc_end88:
	.cfi_endproc

	.p2align	4, 0x90
__ZN4core3ptr13drop_in_place17ha84eb772f34e30a7E:
Lfunc_begin89:
	.loc	21 184 0
	.cfi_startproc
	pushq	%rbp
	.cfi_def_cfa_offset 16
	.cfi_offset %rbp, -16
	movq	%rsp, %rbp
	.cfi_def_cfa_register %rbp
	subq	$16, %rsp
	movq	%rdi, -8(%rbp)
Ltmp289:
	.loc	21 184 1 prologue_end
	callq	__ZN95_$LT$alloc..collections..btree..map..IntoIter$LT$K$C$V$GT$$u20$as$u20$core..ops..drop..Drop$GT$4drop17h9e352c7fe7d87891E
	addq	$16, %rsp
	popq	%rbp
	retq
Ltmp290:
Lfunc_end89:
	.cfi_endproc

	.p2align	4, 0x90
__ZN4core3ptr13drop_in_place17haa2bc8cbef59ab0eE:
Lfunc_begin90:
	.loc	21 184 0
	.cfi_startproc
	.cfi_personality 155, _rust_eh_personality
	.cfi_lsda 16, Lexception17
	pushq	%rbp
	.cfi_def_cfa_offset 16
	.cfi_offset %rbp, -16
	movq	%rsp, %rbp
	.cfi_def_cfa_register %rbp
	subq	$48, %rsp
	movq	%rdi, -24(%rbp)
Ltmp294:
	.loc	21 184 1 prologue_end
	movq	(%rdi), %rax
	movq	8(%rdi), %rcx
	movq	(%rcx), %rcx
Ltmp291:
	movq	%rdi, -40(%rbp)
	movq	%rax, %rdi
	callq	*%rcx
Ltmp292:
	jmp	LBB90_3
LBB90_1:
	addq	$48, %rsp
	popq	%rbp
	retq
LBB90_2:
	movq	-16(%rbp), %rdi
	callq	__Unwind_Resume
	ud2
LBB90_3:
	.loc	21 0 1 is_stmt 0
	movq	-40(%rbp), %rax
	.loc	21 184 1
	movq	(%rax), %rdi
	movq	8(%rax), %rsi
	callq	__ZN5alloc5alloc8box_free17hf6fda056169b58ecE
	jmp	LBB90_1
LBB90_4:
	.loc	21 0 1
	movq	-40(%rbp), %rax
	.loc	21 184 1
	movq	(%rax), %rdi
	movq	8(%rax), %rsi
	callq	__ZN5alloc5alloc8box_free17hf6fda056169b58ecE
	jmp	LBB90_2
Ltmp295:
LBB90_5:
Ltmp293:
	.loc	21 0 1
	movq	%rax, -16(%rbp)
	movl	%edx, -8(%rbp)
	jmp	LBB90_4
Lfunc_end90:
	.cfi_endproc
	.section	__TEXT,__gcc_except_tab
	.p2align	2
GCC_except_table90:
Lexception17:
	.byte	255
	.byte	255
	.byte	1
	.uleb128 Lcst_end17-Lcst_begin17
Lcst_begin17:
	.uleb128 Ltmp291-Lfunc_begin90
	.uleb128 Ltmp292-Ltmp291
	.uleb128 Ltmp293-Lfunc_begin90
	.byte	0
	.uleb128 Ltmp292-Lfunc_begin90
	.uleb128 Lfunc_end90-Ltmp292
	.byte	0
	.byte	0
Lcst_end17:
	.p2align	2

	.section	__TEXT,__text,regular,pure_instructions
	.p2align	4, 0x90
__ZN4core3ptr13drop_in_place17haaecf56fe0ac1147E:
Lfunc_begin91:
	.loc	21 184 0 is_stmt 1
	.cfi_startproc
	.cfi_personality 155, _rust_eh_personality
	.cfi_lsda 16, Lexception18
	pushq	%rbp
	.cfi_def_cfa_offset 16
	.cfi_offset %rbp, -16
	movq	%rsp, %rbp
	.cfi_def_cfa_register %rbp
	subq	$48, %rsp
	movq	%rdi, -24(%rbp)
Ltmp296:
	movq	%rdi, -40(%rbp)
Ltmp299:
	.loc	21 184 1 prologue_end
	callq	__ZN66_$LT$alloc..vec..Vec$LT$T$GT$$u20$as$u20$core..ops..drop..Drop$GT$4drop17h7694681fa310263bE
Ltmp297:
	jmp	LBB91_4
LBB91_1:
	movq	-16(%rbp), %rdi
	callq	__Unwind_Resume
	ud2
LBB91_2:
	addq	$48, %rsp
	popq	%rbp
	retq
LBB91_3:
	.loc	21 0 1 is_stmt 0
	movq	-40(%rbp), %rax
	.loc	21 184 1
	movq	%rax, %rdi
	callq	__ZN4core3ptr13drop_in_place17ha18d9644c7919c86E
	jmp	LBB91_1
LBB91_4:
	.loc	21 0 1
	movq	-40(%rbp), %rax
	.loc	21 184 1
	movq	%rax, %rdi
	callq	__ZN4core3ptr13drop_in_place17ha18d9644c7919c86E
	jmp	LBB91_2
Ltmp300:
LBB91_5:
Ltmp298:
	.loc	21 0 1
	movq	%rax, -16(%rbp)
	movl	%edx, -8(%rbp)
	jmp	LBB91_3
Lfunc_end91:
	.cfi_endproc
	.section	__TEXT,__gcc_except_tab
	.p2align	2
GCC_except_table91:
Lexception18:
	.byte	255
	.byte	255
	.byte	1
	.uleb128 Lcst_end18-Lcst_begin18
Lcst_begin18:
	.uleb128 Ltmp296-Lfunc_begin91
	.uleb128 Ltmp297-Ltmp296
	.uleb128 Ltmp298-Lfunc_begin91
	.byte	0
	.uleb128 Ltmp297-Lfunc_begin91
	.uleb128 Lfunc_end91-Ltmp297
	.byte	0
	.byte	0
Lcst_end18:
	.p2align	2

	.section	__TEXT,__text,regular,pure_instructions
	.p2align	4, 0x90
__ZN4core3ptr13drop_in_place17haf34d9dde8872fd8E:
Lfunc_begin92:
	.loc	21 184 0 is_stmt 1
	.cfi_startproc
	pushq	%rbp
	.cfi_def_cfa_offset 16
	.cfi_offset %rbp, -16
	movq	%rsp, %rbp
	.cfi_def_cfa_register %rbp
	subq	$32, %rsp
	movq	%rdi, -8(%rbp)
Ltmp301:
	.loc	21 184 1 prologue_end
	movb	(%rdi), %al
	subb	$1, %al
	movq	%rdi, -24(%rbp)
	ja	LBB92_2
	jmp	LBB92_1
LBB92_1:
	addq	$32, %rsp
	popq	%rbp
	retq
LBB92_2:
	.loc	21 0 1 is_stmt 0
	movq	-24(%rbp), %rax
	.loc	21 184 1
	addq	$8, %rax
	movq	%rax, %rdi
	callq	__ZN4core3ptr13drop_in_place17hd87543e696446ba7E
	jmp	LBB92_1
Ltmp302:
Lfunc_end92:
	.cfi_endproc

	.p2align	4, 0x90
__ZN4core3ptr13drop_in_place17hb7ab955adc12a8e5E:
Lfunc_begin93:
	.loc	21 184 0 is_stmt 1
	.cfi_startproc
	pushq	%rbp
	.cfi_def_cfa_offset 16
	.cfi_offset %rbp, -16
	movq	%rsp, %rbp
	.cfi_def_cfa_register %rbp
	subq	$32, %rsp
	movq	%rdi, -16(%rbp)
	movq	%rsi, -8(%rbp)
Ltmp303:
	.loc	21 184 1 prologue_end
	callq	*(%rsi)
	addq	$32, %rsp
	popq	%rbp
	retq
Ltmp304:
Lfunc_end93:
	.cfi_endproc

	.p2align	4, 0x90
__ZN4core3ptr13drop_in_place17hb80ddd24abcecd71E:
Lfunc_begin94:
	.loc	21 184 0
	.cfi_startproc
	.cfi_personality 155, _rust_eh_personality
	.cfi_lsda 16, Lexception19
	pushq	%rbp
	.cfi_def_cfa_offset 16
	.cfi_offset %rbp, -16
	movq	%rsp, %rbp
	.cfi_def_cfa_register %rbp
	subq	$48, %rsp
	movq	%rdi, -24(%rbp)
Ltmp305:
	movq	%rdi, -40(%rbp)
Ltmp308:
	.loc	21 184 1 prologue_end
	callq	__ZN66_$LT$alloc..vec..Vec$LT$T$GT$$u20$as$u20$core..ops..drop..Drop$GT$4drop17h9b1dc3c4fc3ab7fbE
Ltmp306:
	jmp	LBB94_4
LBB94_1:
	movq	-16(%rbp), %rdi
	callq	__Unwind_Resume
	ud2
LBB94_2:
	addq	$48, %rsp
	popq	%rbp
	retq
LBB94_3:
	.loc	21 0 1 is_stmt 0
	movq	-40(%rbp), %rax
	.loc	21 184 1
	movq	%rax, %rdi
	callq	__ZN4core3ptr13drop_in_place17h82851892682c103eE
	jmp	LBB94_1
LBB94_4:
	.loc	21 0 1
	movq	-40(%rbp), %rax
	.loc	21 184 1
	movq	%rax, %rdi
	callq	__ZN4core3ptr13drop_in_place17h82851892682c103eE
	jmp	LBB94_2
Ltmp309:
LBB94_5:
Ltmp307:
	.loc	21 0 1
	movq	%rax, -16(%rbp)
	movl	%edx, -8(%rbp)
	jmp	LBB94_3
Lfunc_end94:
	.cfi_endproc
	.section	__TEXT,__gcc_except_tab
	.p2align	2
GCC_except_table94:
Lexception19:
	.byte	255
	.byte	255
	.byte	1
	.uleb128 Lcst_end19-Lcst_begin19
Lcst_begin19:
	.uleb128 Ltmp305-Lfunc_begin94
	.uleb128 Ltmp306-Ltmp305
	.uleb128 Ltmp307-Lfunc_begin94
	.byte	0
	.uleb128 Ltmp306-Lfunc_begin94
	.uleb128 Lfunc_end94-Ltmp306
	.byte	0
	.byte	0
Lcst_end19:
	.p2align	2

	.section	__TEXT,__text,regular,pure_instructions
	.p2align	4, 0x90
__ZN4core3ptr13drop_in_place17hbcab36bf47357985E:
Lfunc_begin95:
	.loc	21 184 0 is_stmt 1
	.cfi_startproc
	pushq	%rbp
	.cfi_def_cfa_offset 16
	.cfi_offset %rbp, -16
	movq	%rsp, %rbp
	.cfi_def_cfa_register %rbp
	subq	$32, %rsp
	movq	%rdi, -8(%rbp)
Ltmp310:
	.loc	21 184 1 prologue_end
	cmpq	$0, (%rdi)
	movq	%rdi, -24(%rbp)
	je	LBB95_2
	jmp	LBB95_3
LBB95_1:
	addq	$32, %rsp
	popq	%rbp
	retq
LBB95_2:
	.loc	21 0 1 is_stmt 0
	movq	-24(%rbp), %rax
	.loc	21 184 1
	addq	$8, %rax
	movq	%rax, %rdi
	callq	__ZN4core3ptr13drop_in_place17h64202eeb4d089dc7E
	jmp	LBB95_1
LBB95_3:
	.loc	21 0 1
	movq	-24(%rbp), %rax
	.loc	21 184 1
	addq	$8, %rax
	movq	%rax, %rdi
	callq	__ZN4core3ptr13drop_in_place17h97b2e8c16ae45b69E
	jmp	LBB95_1
Ltmp311:
Lfunc_end95:
	.cfi_endproc

	.p2align	4, 0x90
__ZN4core3ptr13drop_in_place17hbe62d027ba001696E:
Lfunc_begin96:
	.loc	21 184 0 is_stmt 1
	.cfi_startproc
	pushq	%rbp
	.cfi_def_cfa_offset 16
	.cfi_offset %rbp, -16
	movq	%rsp, %rbp
	.cfi_def_cfa_register %rbp
	subq	$48, %rsp
	movq	%rdi, -24(%rbp)
	movq	%rdi, -40(%rbp)
Ltmp312:
	.loc	21 184 1 prologue_end
	jmp	LBB96_2
LBB96_1:
	addq	$48, %rsp
	popq	%rbp
	retq
LBB96_2:
	.loc	21 0 1 is_stmt 0
	movq	-40(%rbp), %rax
	.loc	21 184 1
	movq	(%rax), %rdi
	movq	8(%rax), %rsi
	callq	__ZN5alloc5alloc8box_free17h7d0f9a6fa3f16befE
	jmp	LBB96_1
Ltmp313:
Lfunc_end96:
	.cfi_endproc

	.p2align	4, 0x90
__ZN4core3ptr13drop_in_place17hc06af9ab4f7bcb07E:
Lfunc_begin97:
	.loc	21 184 0 is_stmt 1
	.cfi_startproc
	pushq	%rbp
	.cfi_def_cfa_offset 16
	.cfi_offset %rbp, -16
	movq	%rsp, %rbp
	.cfi_def_cfa_register %rbp
	subq	$32, %rsp
	movq	%rdi, -8(%rbp)
Ltmp314:
	.loc	21 184 1 prologue_end
	cmpq	$0, (%rdi)
	movq	%rdi, -24(%rbp)
	jne	LBB97_2
LBB97_1:
	addq	$32, %rsp
	popq	%rbp
	retq
LBB97_2:
	.loc	21 0 1 is_stmt 0
	movq	-24(%rbp), %rax
	.loc	21 184 1
	addq	$8, %rax
	movq	%rax, %rdi
	callq	__ZN4core3ptr13drop_in_place17h46cdb6b79fe77fc8E
	jmp	LBB97_1
Ltmp315:
Lfunc_end97:
	.cfi_endproc

	.p2align	4, 0x90
__ZN4core3ptr13drop_in_place17hc16fbba51cd0d452E:
Lfunc_begin98:
	.loc	21 184 0 is_stmt 1
	.cfi_startproc
	pushq	%rbp
	.cfi_def_cfa_offset 16
	.cfi_offset %rbp, -16
	movq	%rsp, %rbp
	.cfi_def_cfa_register %rbp
	subq	$16, %rsp
	movq	%rdi, -8(%rbp)
Ltmp316:
	.loc	21 184 1 prologue_end
	callq	__ZN4core3ptr13drop_in_place17h60ca1dd43bc3def9E
	addq	$16, %rsp
	popq	%rbp
	retq
Ltmp317:
Lfunc_end98:
	.cfi_endproc

	.p2align	4, 0x90
__ZN4core3ptr13drop_in_place17hc364b95d821786ceE:
Lfunc_begin99:
	.loc	21 184 0
	.cfi_startproc
	pushq	%rbp
	.cfi_def_cfa_offset 16
	.cfi_offset %rbp, -16
	movq	%rsp, %rbp
	.cfi_def_cfa_register %rbp
	subq	$32, %rsp
	xorl	%eax, %eax
	movl	%eax, %ecx
	movq	%rdi, -8(%rbp)
Ltmp318:
	.loc	21 184 1 prologue_end
	cmpq	$0, (%rdi)
	movl	$1, %edx
	cmovbeq	%rcx, %rdx
	cmpq	$0, %rdx
	movq	%rdi, -24(%rbp)
	jne	LBB99_2
LBB99_1:
	addq	$32, %rsp
	popq	%rbp
	retq
LBB99_2:
	.loc	21 0 1 is_stmt 0
	movq	-24(%rbp), %rax
	.loc	21 184 1
	movq	%rax, %rdi
	callq	__ZN4core3ptr13drop_in_place17hc16fbba51cd0d452E
	jmp	LBB99_1
Ltmp319:
Lfunc_end99:
	.cfi_endproc

	.p2align	4, 0x90
__ZN4core3ptr13drop_in_place17hc7ebea6ae7942915E:
Lfunc_begin100:
	.loc	21 184 0 is_stmt 1
	.cfi_startproc
	pushq	%rbp
	.cfi_def_cfa_offset 16
	.cfi_offset %rbp, -16
	movq	%rsp, %rbp
	.cfi_def_cfa_register %rbp
	subq	$16, %rsp
	movq	%rdi, -8(%rbp)
Ltmp320:
	.loc	21 184 1 prologue_end
	callq	__ZN166_$LT$$LT$alloc..collections..btree..map..IntoIter$LT$K$C$V$GT$$u20$as$u20$core..ops..drop..Drop$GT$..drop..DropGuard$LT$K$C$V$GT$$u20$as$u20$core..ops..drop..Drop$GT$4drop17h0dbd94c8b725e210E
	addq	$16, %rsp
	popq	%rbp
	retq
Ltmp321:
Lfunc_end100:
	.cfi_endproc

	.p2align	4, 0x90
__ZN4core3ptr13drop_in_place17hd4b437a07625cb37E:
Lfunc_begin101:
	.loc	21 184 0
	.cfi_startproc
	pushq	%rbp
	.cfi_def_cfa_offset 16
	.cfi_offset %rbp, -16
	movq	%rsp, %rbp
	.cfi_def_cfa_register %rbp
	subq	$16, %rsp
	movq	%rdi, -8(%rbp)
Ltmp322:
	.loc	21 184 1 prologue_end
	callq	__ZN77_$LT$alloc..raw_vec..RawVec$LT$T$C$A$GT$$u20$as$u20$core..ops..drop..Drop$GT$4drop17h4f4ee076eadcc594E
	addq	$16, %rsp
	popq	%rbp
	retq
Ltmp323:
Lfunc_end101:
	.cfi_endproc

	.p2align	4, 0x90
__ZN4core3ptr13drop_in_place17hd697cfe7d56295c3E:
Lfunc_begin102:
	.loc	21 184 0
	.cfi_startproc
	pushq	%rbp
	.cfi_def_cfa_offset 16
	.cfi_offset %rbp, -16
	movq	%rsp, %rbp
	.cfi_def_cfa_register %rbp
	subq	$16, %rsp
	movq	%rdi, -8(%rbp)
Ltmp324:
	.loc	21 184 1 prologue_end
	callq	__ZN70_$LT$std..sys..unix..fd..FileDesc$u20$as$u20$core..ops..drop..Drop$GT$4drop17h633394f1cf9da1c8E
	addq	$16, %rsp
	popq	%rbp
	retq
Ltmp325:
Lfunc_end102:
	.cfi_endproc

	.p2align	4, 0x90
__ZN4core3ptr13drop_in_place17hd87543e696446ba7E:
Lfunc_begin103:
	.loc	21 184 0
	.cfi_startproc
	.cfi_personality 155, _rust_eh_personality
	.cfi_lsda 16, Lexception20
	pushq	%rbp
	.cfi_def_cfa_offset 16
	.cfi_offset %rbp, -16
	movq	%rsp, %rbp
	.cfi_def_cfa_register %rbp
	subq	$48, %rsp
	movq	%rdi, -24(%rbp)
Ltmp329:
	.loc	21 184 1 prologue_end
	movq	(%rdi), %rax
Ltmp326:
	movq	%rdi, -40(%rbp)
	movq	%rax, %rdi
	callq	__ZN4core3ptr13drop_in_place17h226572adfc88c80eE
Ltmp327:
	jmp	LBB103_3
LBB103_1:
	addq	$48, %rsp
	popq	%rbp
	retq
LBB103_2:
	movq	-16(%rbp), %rdi
	callq	__Unwind_Resume
	ud2
LBB103_3:
	.loc	21 0 1 is_stmt 0
	movq	-40(%rbp), %rax
	.loc	21 184 1
	movq	(%rax), %rdi
	callq	__ZN5alloc5alloc8box_free17h904fa2f78a23312fE
	jmp	LBB103_1
LBB103_4:
	.loc	21 0 1
	movq	-40(%rbp), %rax
	.loc	21 184 1
	movq	(%rax), %rdi
	callq	__ZN5alloc5alloc8box_free17h904fa2f78a23312fE
	jmp	LBB103_2
Ltmp330:
LBB103_5:
Ltmp328:
	.loc	21 0 1
	movq	%rax, -16(%rbp)
	movl	%edx, -8(%rbp)
	jmp	LBB103_4
Lfunc_end103:
	.cfi_endproc
	.section	__TEXT,__gcc_except_tab
	.p2align	2
GCC_except_table103:
Lexception20:
	.byte	255
	.byte	255
	.byte	1
	.uleb128 Lcst_end20-Lcst_begin20
Lcst_begin20:
	.uleb128 Ltmp326-Lfunc_begin103
	.uleb128 Ltmp327-Ltmp326
	.uleb128 Ltmp328-Lfunc_begin103
	.byte	0
	.uleb128 Ltmp327-Lfunc_begin103
	.uleb128 Lfunc_end103-Ltmp327
	.byte	0
	.byte	0
Lcst_end20:
	.p2align	2

	.section	__TEXT,__text,regular,pure_instructions
	.p2align	4, 0x90
__ZN4core3ptr13drop_in_place17he9ac79c70de1c746E:
Lfunc_begin104:
	.loc	21 184 0 is_stmt 1
	.cfi_startproc
	pushq	%rbp
	.cfi_def_cfa_offset 16
	.cfi_offset %rbp, -16
	movq	%rsp, %rbp
	.cfi_def_cfa_register %rbp
	subq	$16, %rsp
	movq	%rdi, -8(%rbp)
Ltmp331:
	.loc	21 184 1 prologue_end
	callq	__ZN4core3ptr13drop_in_place17haaecf56fe0ac1147E
	addq	$16, %rsp
	popq	%rbp
	retq
Ltmp332:
Lfunc_end104:
	.cfi_endproc

	.p2align	4, 0x90
__ZN4core3ptr19swap_nonoverlapping17h90f9b85eff621395E:
Lfunc_begin105:
	.loc	21 430 0
	.cfi_startproc
	pushq	%rbp
	.cfi_def_cfa_offset 16
	.cfi_offset %rbp, -16
	movq	%rsp, %rbp
	.cfi_def_cfa_register %rbp
	subq	$96, %rsp
	movq	%rdi, -56(%rbp)
	movq	%rsi, -48(%rbp)
	movq	%rdx, -40(%rbp)
Ltmp333:
	.loc	21 440 13 prologue_end
	movq	%rdi, -32(%rbp)
Ltmp334:
	.loc	21 441 13
	movq	%rsi, -24(%rbp)
Ltmp335:
	.loc	18 310 5
	movq	$16, -8(%rbp)
	movq	-8(%rbp), %rax
	movq	%rdx, -64(%rbp)
	movq	%rdi, -72(%rbp)
	movq	%rsi, -80(%rbp)
	movq	%rax, -88(%rbp)
Ltmp336:
	.loc	18 0 5 is_stmt 0
	movq	-88(%rbp), %rax
	movq	-64(%rbp), %rcx
	.loc	21 442 15 is_stmt 1
	imulq	%rcx, %rax
	movq	%rax, -16(%rbp)
	movq	-72(%rbp), %rdi
	movq	-80(%rbp), %rsi
Ltmp337:
	.loc	21 445 14
	movq	%rax, %rdx
	callq	__ZN4core3ptr25swap_nonoverlapping_bytes17hed65073df44277e4E
Ltmp338:
	.loc	21 446 2
	addq	$96, %rsp
	popq	%rbp
	retq
Ltmp339:
Lfunc_end105:
	.cfi_endproc

	.p2align	4, 0x90
__ZN4core3ptr19swap_nonoverlapping17he917e2ad93a79929E:
Lfunc_begin106:
	.loc	21 430 0
	.cfi_startproc
	pushq	%rbp
	.cfi_def_cfa_offset 16
	.cfi_offset %rbp, -16
	movq	%rsp, %rbp
	.cfi_def_cfa_register %rbp
	subq	$96, %rsp
	movq	%rdi, -56(%rbp)
	movq	%rsi, -48(%rbp)
	movq	%rdx, -40(%rbp)
Ltmp340:
	.loc	21 440 13 prologue_end
	movq	%rdi, -32(%rbp)
Ltmp341:
	.loc	21 441 13
	movq	%rsi, -24(%rbp)
Ltmp342:
	.loc	18 310 5
	movq	$8, -8(%rbp)
	movq	-8(%rbp), %rax
	movq	%rdx, -64(%rbp)
	movq	%rdi, -72(%rbp)
	movq	%rsi, -80(%rbp)
	movq	%rax, -88(%rbp)
Ltmp343:
	.loc	18 0 5 is_stmt 0
	movq	-88(%rbp), %rax
	movq	-64(%rbp), %rcx
	.loc	21 442 15 is_stmt 1
	imulq	%rcx, %rax
	movq	%rax, -16(%rbp)
	movq	-72(%rbp), %rdi
	movq	-80(%rbp), %rsi
Ltmp344:
	.loc	21 445 14
	movq	%rax, %rdx
	callq	__ZN4core3ptr25swap_nonoverlapping_bytes17hed65073df44277e4E
Ltmp345:
	.loc	21 446 2
	addq	$96, %rsp
	popq	%rbp
	retq
Ltmp346:
Lfunc_end106:
	.cfi_endproc

	.p2align	4, 0x90
__ZN4core3ptr20slice_from_raw_parts17h576cb782d0e8376dE:
Lfunc_begin107:
	.loc	21 264 0
	.cfi_startproc
	pushq	%rbp
	.cfi_def_cfa_offset 16
	.cfi_offset %rbp, -16
	movq	%rsp, %rbp
	.cfi_def_cfa_register %rbp
	subq	$48, %rsp
	movq	%rdi, -16(%rbp)
	movq	%rsi, -8(%rbp)
Ltmp347:
	.loc	21 268 26 prologue_end
	movq	%rdi, -32(%rbp)
	movq	%rsi, -24(%rbp)
	.loc	21 268 14 is_stmt 0
	movq	-32(%rbp), %rax
	movq	-24(%rbp), %rcx
	movq	%rax, -48(%rbp)
	movq	%rcx, -40(%rbp)
	movq	-48(%rbp), %rax
	movq	-40(%rbp), %rdx
	.loc	21 269 2 is_stmt 1
	addq	$48, %rsp
	popq	%rbp
	retq
Ltmp348:
Lfunc_end107:
	.cfi_endproc

	.p2align	4, 0x90
__ZN4core3ptr20slice_from_raw_parts17h9e7456a3a9e4015bE:
Lfunc_begin108:
	.loc	21 264 0
	.cfi_startproc
	pushq	%rbp
	.cfi_def_cfa_offset 16
	.cfi_offset %rbp, -16
	movq	%rsp, %rbp
	.cfi_def_cfa_register %rbp
	subq	$48, %rsp
	movq	%rdi, -16(%rbp)
	movq	%rsi, -8(%rbp)
Ltmp349:
	.loc	21 268 26 prologue_end
	movq	%rdi, -32(%rbp)
	movq	%rsi, -24(%rbp)
	.loc	21 268 14 is_stmt 0
	movq	-32(%rbp), %rax
	movq	-24(%rbp), %rcx
	movq	%rax, -48(%rbp)
	movq	%rcx, -40(%rbp)
	movq	-48(%rbp), %rax
	movq	-40(%rbp), %rdx
	.loc	21 269 2 is_stmt 1
	addq	$48, %rsp
	popq	%rbp
	retq
Ltmp350:
Lfunc_end108:
	.cfi_endproc

	.p2align	4, 0x90
__ZN4core3ptr20slice_from_raw_parts17habc395aca0475771E:
Lfunc_begin109:
	.loc	21 264 0
	.cfi_startproc
	pushq	%rbp
	.cfi_def_cfa_offset 16
	.cfi_offset %rbp, -16
	movq	%rsp, %rbp
	.cfi_def_cfa_register %rbp
	subq	$48, %rsp
	movq	%rdi, -16(%rbp)
	movq	%rsi, -8(%rbp)
Ltmp351:
	.loc	21 268 26 prologue_end
	movq	%rdi, -32(%rbp)
	movq	%rsi, -24(%rbp)
	.loc	21 268 14 is_stmt 0
	movq	-32(%rbp), %rax
	movq	-24(%rbp), %rcx
	movq	%rax, -48(%rbp)
	movq	%rcx, -40(%rbp)
	movq	-48(%rbp), %rax
	movq	-40(%rbp), %rdx
	.loc	21 269 2 is_stmt 1
	addq	$48, %rsp
	popq	%rbp
	retq
Ltmp352:
Lfunc_end109:
	.cfi_endproc

	.p2align	4, 0x90
__ZN4core3ptr23swap_nonoverlapping_one17h7e0bcd530ca649d0E:
Lfunc_begin110:
	.loc	21 449 0
	.cfi_startproc
	.cfi_personality 155, _rust_eh_personality
	.cfi_lsda 16, Lexception21
	pushq	%rbp
	.cfi_def_cfa_offset 16
	.cfi_offset %rbp, -16
	movq	%rsp, %rbp
	.cfi_def_cfa_register %rbp
	subq	$96, %rsp
	movq	%rdi, -48(%rbp)
	movq	%rsi, -40(%rbp)
Ltmp358:
	.loc	21 452 8 prologue_end
	movb	$0, -49(%rbp)
Ltmp359:
	.loc	18 310 5
	movq	$8, -8(%rbp)
	movq	-8(%rbp), %rax
	movq	%rdi, -64(%rbp)
	movq	%rsi, -72(%rbp)
	movq	%rax, -80(%rbp)
Ltmp360:
	.loc	21 452 8
	jmp	LBB110_2
LBB110_1:
	.loc	21 449 1
	movq	-24(%rbp), %rdi
	callq	__Unwind_Resume
	ud2
LBB110_2:
	.loc	21 0 1 is_stmt 0
	movq	-80(%rbp), %rax
	.loc	21 452 8 is_stmt 1
	cmpq	$32, %rax
	.loc	21 452 5 is_stmt 0
	jb	LBB110_4
	.loc	21 0 5
	movq	-64(%rbp), %rdi
	movq	-72(%rbp), %rsi
	.loc	21 462 18 is_stmt 1
	movl	$1, %edx
	callq	__ZN4core3ptr19swap_nonoverlapping17he917e2ad93a79929E
	jmp	LBB110_8
LBB110_4:
	.loc	21 456 21
	movb	$1, -49(%rbp)
	movq	-64(%rbp), %rdi
	callq	__ZN4core3ptr4read17he44e656654707b6aE
	movq	%rax, -32(%rbp)
	movq	%rax, -88(%rbp)
Ltmp353:
	.loc	21 0 21 is_stmt 0
	movl	$1, %edx
	movq	-72(%rbp), %rdi
	movq	-64(%rbp), %rsi
Ltmp361:
	.loc	21 457 13 is_stmt 1
	callq	__ZN4core10intrinsics19copy_nonoverlapping17h0632eb8910fb1504E
Ltmp354:
	jmp	LBB110_6
LBB110_6:
	.loc	21 458 22
	movb	$0, -49(%rbp)
Ltmp355:
	movq	-72(%rbp), %rdi
	movq	-88(%rbp), %rsi
	.loc	21 458 13 is_stmt 0
	callq	__ZN4core3ptr5write17h2e92aafb1b56ac6aE
Ltmp356:
	jmp	LBB110_7
Ltmp362:
LBB110_7:
	.loc	21 459 9 is_stmt 1
	movb	$0, -49(%rbp)
	.loc	21 452 5
	jmp	LBB110_9
LBB110_8:
	jmp	LBB110_9
LBB110_9:
	.loc	21 464 2
	addq	$96, %rsp
	popq	%rbp
	retq
LBB110_10:
	.loc	21 459 9
	movb	$0, -49(%rbp)
	jmp	LBB110_1
LBB110_11:
	testb	$1, -49(%rbp)
	jne	LBB110_10
	jmp	LBB110_1
Ltmp363:
LBB110_12:
Ltmp357:
	.loc	21 0 9 is_stmt 0
	movq	%rax, -24(%rbp)
	movl	%edx, -16(%rbp)
	jmp	LBB110_11
Lfunc_end110:
	.cfi_endproc
	.section	__TEXT,__gcc_except_tab
	.p2align	2
GCC_except_table110:
Lexception21:
	.byte	255
	.byte	255
	.byte	1
	.uleb128 Lcst_end21-Lcst_begin21
Lcst_begin21:
	.uleb128 Lfunc_begin110-Lfunc_begin110
	.uleb128 Ltmp353-Lfunc_begin110
	.byte	0
	.byte	0
	.uleb128 Ltmp353-Lfunc_begin110
	.uleb128 Ltmp356-Ltmp353
	.uleb128 Ltmp357-Lfunc_begin110
	.byte	0
Lcst_end21:
	.p2align	2

	.section	__TEXT,__text,regular,pure_instructions
	.p2align	4, 0x90
__ZN4core3ptr23swap_nonoverlapping_one17hfc37aa8b8403e62cE:
Lfunc_begin111:
	.loc	21 449 0 is_stmt 1
	.cfi_startproc
	.cfi_personality 155, _rust_eh_personality
	.cfi_lsda 16, Lexception22
	pushq	%rbp
	.cfi_def_cfa_offset 16
	.cfi_offset %rbp, -16
	movq	%rsp, %rbp
	.cfi_def_cfa_register %rbp
	subq	$112, %rsp
	movq	%rdi, -56(%rbp)
	movq	%rsi, -48(%rbp)
Ltmp369:
	.loc	21 452 8 prologue_end
	movb	$0, -57(%rbp)
Ltmp370:
	.loc	18 310 5
	movq	$16, -8(%rbp)
	movq	-8(%rbp), %rax
	movq	%rdi, -72(%rbp)
	movq	%rsi, -80(%rbp)
	movq	%rax, -88(%rbp)
Ltmp371:
	.loc	21 452 8
	jmp	LBB111_2
LBB111_1:
	.loc	21 449 1
	movq	-24(%rbp), %rdi
	callq	__Unwind_Resume
	ud2
LBB111_2:
	.loc	21 0 1 is_stmt 0
	movq	-88(%rbp), %rax
	.loc	21 452 8 is_stmt 1
	cmpq	$32, %rax
	.loc	21 452 5 is_stmt 0
	jb	LBB111_4
	.loc	21 0 5
	movq	-72(%rbp), %rdi
	movq	-80(%rbp), %rsi
	.loc	21 462 18 is_stmt 1
	movl	$1, %edx
	callq	__ZN4core3ptr19swap_nonoverlapping17h90f9b85eff621395E
	jmp	LBB111_8
LBB111_4:
	.loc	21 456 21
	movb	$1, -57(%rbp)
	movq	-72(%rbp), %rdi
	callq	__ZN4core3ptr4read17h6375d3be062e28e0E
	movq	%rax, -40(%rbp)
	movq	%rdx, -32(%rbp)
	movq	%rax, -96(%rbp)
	movq	%rdx, -104(%rbp)
Ltmp364:
	.loc	21 0 21 is_stmt 0
	movl	$1, %edx
	movq	-80(%rbp), %rdi
	movq	-72(%rbp), %rsi
Ltmp372:
	.loc	21 457 13 is_stmt 1
	callq	__ZN4core10intrinsics19copy_nonoverlapping17h7f89c3c2c12ab38eE
Ltmp365:
	jmp	LBB111_6
LBB111_6:
	.loc	21 458 22
	movb	$0, -57(%rbp)
Ltmp366:
	movq	-80(%rbp), %rdi
	movq	-96(%rbp), %rsi
	movq	-104(%rbp), %rdx
	.loc	21 458 13 is_stmt 0
	callq	__ZN4core3ptr5write17h9ca2b73e3021626fE
Ltmp367:
	jmp	LBB111_7
Ltmp373:
LBB111_7:
	.loc	21 459 9 is_stmt 1
	movb	$0, -57(%rbp)
	.loc	21 452 5
	jmp	LBB111_9
LBB111_8:
	jmp	LBB111_9
LBB111_9:
	.loc	21 464 2
	addq	$112, %rsp
	popq	%rbp
	retq
LBB111_10:
	.loc	21 459 9
	movb	$0, -57(%rbp)
	jmp	LBB111_1
LBB111_11:
	testb	$1, -57(%rbp)
	jne	LBB111_10
	jmp	LBB111_1
Ltmp374:
LBB111_12:
Ltmp368:
	.loc	21 0 9 is_stmt 0
	movq	%rax, -24(%rbp)
	movl	%edx, -16(%rbp)
	jmp	LBB111_11
Lfunc_end111:
	.cfi_endproc
	.section	__TEXT,__gcc_except_tab
	.p2align	2
GCC_except_table111:
Lexception22:
	.byte	255
	.byte	255
	.byte	1
	.uleb128 Lcst_end22-Lcst_begin22
Lcst_begin22:
	.uleb128 Lfunc_begin111-Lfunc_begin111
	.uleb128 Ltmp364-Lfunc_begin111
	.byte	0
	.byte	0
	.uleb128 Ltmp364-Lfunc_begin111
	.uleb128 Ltmp367-Ltmp364
	.uleb128 Ltmp368-Lfunc_begin111
	.byte	0
Lcst_end22:
	.p2align	2

	.section	__TEXT,__text,regular,pure_instructions
	.p2align	4, 0x90
__ZN4core3ptr24slice_from_raw_parts_mut17h1d5d179491f5ac07E:
Lfunc_begin112:
	.loc	21 300 0 is_stmt 1
	.cfi_startproc
	pushq	%rbp
	.cfi_def_cfa_offset 16
	.cfi_offset %rbp, -16
	movq	%rsp, %rbp
	.cfi_def_cfa_register %rbp
	subq	$48, %rsp
	movq	%rdi, -16(%rbp)
	movq	%rsi, -8(%rbp)
Ltmp375:
	.loc	21 303 26 prologue_end
	movq	%rdi, -32(%rbp)
	movq	%rsi, -24(%rbp)
	.loc	21 303 14 is_stmt 0
	movq	-32(%rbp), %rax
	movq	-24(%rbp), %rcx
	movq	%rax, -48(%rbp)
	movq	%rcx, -40(%rbp)
	movq	-48(%rbp), %rax
	movq	-40(%rbp), %rdx
	.loc	21 304 2 is_stmt 1
	addq	$48, %rsp
	popq	%rbp
	retq
Ltmp376:
Lfunc_end112:
	.cfi_endproc

	.p2align	4, 0x90
__ZN4core3ptr24slice_from_raw_parts_mut17h89541e9710c76914E:
Lfunc_begin113:
	.loc	21 300 0
	.cfi_startproc
	pushq	%rbp
	.cfi_def_cfa_offset 16
	.cfi_offset %rbp, -16
	movq	%rsp, %rbp
	.cfi_def_cfa_register %rbp
	subq	$48, %rsp
	movq	%rdi, -16(%rbp)
	movq	%rsi, -8(%rbp)
Ltmp377:
	.loc	21 303 26 prologue_end
	movq	%rdi, -32(%rbp)
	movq	%rsi, -24(%rbp)
	.loc	21 303 14 is_stmt 0
	movq	-32(%rbp), %rax
	movq	-24(%rbp), %rcx
	movq	%rax, -48(%rbp)
	movq	%rcx, -40(%rbp)
	movq	-48(%rbp), %rax
	movq	-40(%rbp), %rdx
	.loc	21 304 2 is_stmt 1
	addq	$48, %rsp
	popq	%rbp
	retq
Ltmp378:
Lfunc_end113:
	.cfi_endproc

	.p2align	4, 0x90
__ZN4core3ptr24slice_from_raw_parts_mut17hae9a6cad5e9cfeeaE:
Lfunc_begin114:
	.loc	21 300 0
	.cfi_startproc
	pushq	%rbp
	.cfi_def_cfa_offset 16
	.cfi_offset %rbp, -16
	movq	%rsp, %rbp
	.cfi_def_cfa_register %rbp
	subq	$48, %rsp
	movq	%rdi, -16(%rbp)
	movq	%rsi, -8(%rbp)
Ltmp379:
	.loc	21 303 26 prologue_end
	movq	%rdi, -32(%rbp)
	movq	%rsi, -24(%rbp)
	.loc	21 303 14 is_stmt 0
	movq	-32(%rbp), %rax
	movq	-24(%rbp), %rcx
	movq	%rax, -48(%rbp)
	movq	%rcx, -40(%rbp)
	movq	-48(%rbp), %rax
	movq	-40(%rbp), %rdx
	.loc	21 304 2 is_stmt 1
	addq	$48, %rsp
	popq	%rbp
	retq
Ltmp380:
Lfunc_end114:
	.cfi_endproc

	.p2align	4, 0x90
__ZN4core3ptr24slice_from_raw_parts_mut17hf3338ce817ca8951E:
Lfunc_begin115:
	.loc	21 300 0
	.cfi_startproc
	pushq	%rbp
	.cfi_def_cfa_offset 16
	.cfi_offset %rbp, -16
	movq	%rsp, %rbp
	.cfi_def_cfa_register %rbp
	subq	$48, %rsp
	movq	%rdi, -16(%rbp)
	movq	%rsi, -8(%rbp)
Ltmp381:
	.loc	21 303 26 prologue_end
	movq	%rdi, -32(%rbp)
	movq	%rsi, -24(%rbp)
	.loc	21 303 14 is_stmt 0
	movq	-32(%rbp), %rax
	movq	-24(%rbp), %rcx
	movq	%rax, -48(%rbp)
	movq	%rcx, -40(%rbp)
	movq	-48(%rbp), %rax
	movq	-40(%rbp), %rdx
	.loc	21 304 2 is_stmt 1
	addq	$48, %rsp
	popq	%rbp
	retq
Ltmp382:
Lfunc_end115:
	.cfi_endproc

	.p2align	4, 0x90
__ZN4core3ptr25swap_nonoverlapping_bytes17hed65073df44277e4E:
Lfunc_begin116:
	.loc	21 467 0
	.cfi_startproc
	pushq	%rbp
	.cfi_def_cfa_offset 16
	.cfi_offset %rbp, -16
	movq	%rsp, %rbp
	.cfi_def_cfa_register %rbp
	andq	$-32, %rsp
	subq	$352, %rsp
	movq	%rdi, 208(%rsp)
	movq	%rsi, 216(%rsp)
	movq	%rdx, 224(%rsp)
Ltmp383:
	.loc	18 310 5 prologue_end
	movq	$32, 296(%rsp)
	movq	296(%rsp), %rax
Ltmp384:
	.loc	21 478 22
	movq	%rax, 232(%rsp)
	movq	%rdi, 104(%rsp)
	movq	%rsi, 96(%rsp)
	movq	%rdx, 88(%rsp)
	movq	%rax, 80(%rsp)
Ltmp385:
	.loc	21 483 17
	movq	$0, 120(%rsp)
LBB116_2:
	.loc	21 0 17 is_stmt 0
	movq	80(%rsp), %rax
Ltmp386:
	.loc	21 484 11 is_stmt 1
	addq	120(%rsp), %rax
	movq	88(%rsp), %rcx
	cmpq	%rcx, %rax
	.loc	21 484 5 is_stmt 0
	jbe	LBB116_4
	.loc	21 0 5
	movq	88(%rsp), %rax
	.loc	21 509 8 is_stmt 1
	cmpq	%rax, 120(%rsp)
	.loc	21 509 5 is_stmt 0
	jb	LBB116_13
	jmp	LBB116_12
LBB116_4:
	.loc	21 0 5
	leaq	128(%rsp), %rax
	movq	%rax, 304(%rsp)
	movq	%rax, 312(%rsp)
Ltmp387:
	.loc	21 488 17 is_stmt 1
	leaq	128(%rsp), %rax
	movq	%rax, 240(%rsp)
Ltmp388:
	.loc	21 497 27
	movq	120(%rsp), %rsi
	movq	104(%rsp), %rdi
	movq	%rax, 72(%rsp)
	.loc	21 497 21 is_stmt 0
	callq	__ZN4core3ptr7mut_ptr31_$LT$impl$u20$$BP$mut$u20$T$GT$3add17h11400a8f09db8d51E
	movq	%rax, 248(%rsp)
	movq	%rax, 64(%rsp)
Ltmp389:
	.loc	21 498 27 is_stmt 1
	movq	120(%rsp), %rsi
	movq	96(%rsp), %rdi
	.loc	21 498 21 is_stmt 0
	callq	__ZN4core3ptr7mut_ptr31_$LT$impl$u20$$BP$mut$u20$T$GT$3add17h11400a8f09db8d51E
	movq	%rax, 256(%rsp)
	movq	%rax, 56(%rsp)
	.loc	21 0 21
	movq	64(%rsp), %rdi
	movq	72(%rsp), %rsi
	movq	80(%rsp), %rdx
Ltmp390:
	.loc	21 502 13 is_stmt 1
	callq	__ZN4core10intrinsics19copy_nonoverlapping17h82b2931845214933E
	.loc	21 0 13 is_stmt 0
	movq	56(%rsp), %rdi
	movq	64(%rsp), %rsi
	movq	80(%rsp), %rdx
	.loc	21 503 13 is_stmt 1
	callq	__ZN4core10intrinsics19copy_nonoverlapping17h82b2931845214933E
	.loc	21 0 13 is_stmt 0
	movq	72(%rsp), %rdi
	movq	56(%rsp), %rsi
	movq	80(%rsp), %rdx
	.loc	21 504 13 is_stmt 1
	callq	__ZN4core10intrinsics19copy_nonoverlapping17h82b2931845214933E
Ltmp391:
	.loc	21 0 13 is_stmt 0
	movq	80(%rsp), %rax
	.loc	21 506 9 is_stmt 1
	addq	120(%rsp), %rax
	movq	%rax, 120(%rsp)
Ltmp392:
	.loc	21 484 5
	jmp	LBB116_2
LBB116_12:
	.loc	21 509 5
	jmp	LBB116_21
LBB116_13:
	.loc	21 0 5 is_stmt 0
	movq	88(%rsp), %rax
Ltmp393:
	.loc	21 512 19 is_stmt 1
	subq	120(%rsp), %rax
	movq	%rax, 264(%rsp)
	leaq	176(%rsp), %rcx
	movq	%rcx, 320(%rsp)
	movq	%rcx, 328(%rsp)
	movq	%rax, 48(%rsp)
	movq	%rcx, 40(%rsp)
	.loc	21 0 19 is_stmt 0
	movq	40(%rsp), %rax
Ltmp394:
	.loc	21 514 17 is_stmt 1
	movq	%rax, 272(%rsp)
Ltmp395:
	.loc	21 518 27
	movq	120(%rsp), %rsi
	movq	104(%rsp), %rdi
	movq	%rax, 32(%rsp)
	.loc	21 518 21 is_stmt 0
	callq	__ZN4core3ptr7mut_ptr31_$LT$impl$u20$$BP$mut$u20$T$GT$3add17h11400a8f09db8d51E
	movq	%rax, 280(%rsp)
	movq	%rax, 24(%rsp)
Ltmp396:
	.loc	21 519 27 is_stmt 1
	movq	120(%rsp), %rsi
	movq	96(%rsp), %rdi
	.loc	21 519 21 is_stmt 0
	callq	__ZN4core3ptr7mut_ptr31_$LT$impl$u20$$BP$mut$u20$T$GT$3add17h11400a8f09db8d51E
	movq	%rax, 288(%rsp)
	movq	%rax, 16(%rsp)
	.loc	21 0 21
	movq	24(%rsp), %rdi
	movq	32(%rsp), %rsi
	movq	48(%rsp), %rdx
Ltmp397:
	.loc	21 521 13 is_stmt 1
	callq	__ZN4core10intrinsics19copy_nonoverlapping17h82b2931845214933E
	.loc	21 0 13 is_stmt 0
	movq	16(%rsp), %rdi
	movq	24(%rsp), %rsi
	movq	48(%rsp), %rdx
	.loc	21 522 13 is_stmt 1
	callq	__ZN4core10intrinsics19copy_nonoverlapping17h82b2931845214933E
	.loc	21 0 13 is_stmt 0
	movq	32(%rsp), %rdi
	movq	16(%rsp), %rsi
	movq	48(%rsp), %rdx
	.loc	21 523 13 is_stmt 1
	callq	__ZN4core10intrinsics19copy_nonoverlapping17h82b2931845214933E
Ltmp398:
	.loc	21 509 5
	jmp	LBB116_21
Ltmp399:
LBB116_21:
	.loc	21 526 2
	movq	%rbp, %rsp
	popq	%rbp
	retq
Ltmp400:
Lfunc_end116:
	.cfi_endproc

	.p2align	4, 0x90
__ZN4core3ptr4read17h16fe27e4832505bbE:
Lfunc_begin117:
	.loc	21 692 0
	.cfi_startproc
	pushq	%rbp
	.cfi_def_cfa_offset 16
	.cfi_offset %rbp, -16
	movq	%rsp, %rbp
	.cfi_def_cfa_register %rbp
	subq	$128, %rsp
	movq	%rdi, %rax
	movq	%rsi, -48(%rbp)
	movq	%rsi, -104(%rbp)
	movq	%rdi, -112(%rbp)
	movq	%rax, -120(%rbp)
	leaq	-96(%rbp), %rax
	movq	%rax, -16(%rbp)
	movq	%rax, -8(%rbp)
	movq	%rax, -128(%rbp)
	movq	-104(%rbp), %rdi
	movq	-128(%rbp), %rsi
Ltmp401:
	.loc	21 702 9 prologue_end
	movl	$1, %edx
	callq	__ZN4core10intrinsics19copy_nonoverlapping17h1e1e2c2c75ac9549E
	.loc	21 703 9
	movq	-96(%rbp), %rax
	movq	%rax, -72(%rbp)
	movq	-88(%rbp), %rax
	movq	%rax, -64(%rbp)
	movq	-80(%rbp), %rax
	movq	%rax, -56(%rbp)
Ltmp402:
	.file	22 "/rustc/6c8927b0cf80ceee19386026cf9d7fd4fd9d486f/src/libcore/mem/maybe_uninit.rs"
	.loc	22 501 38
	movq	-72(%rbp), %rax
	movq	%rax, -40(%rbp)
	movq	-64(%rbp), %rax
	movq	%rax, -32(%rbp)
	movq	-56(%rbp), %rax
	movq	%rax, -24(%rbp)
Ltmp403:
	.loc	5 101 9
	movq	-40(%rbp), %rax
	movq	-112(%rbp), %rcx
	movq	%rax, (%rcx)
	movq	-32(%rbp), %rax
	movq	%rax, 8(%rcx)
	movq	-24(%rbp), %rax
	movq	%rax, 16(%rcx)
Ltmp404:
	.loc	5 0 9 is_stmt 0
	movq	-120(%rbp), %rax
	.loc	21 705 2 is_stmt 1
	addq	$128, %rsp
	popq	%rbp
	retq
Ltmp405:
Lfunc_end117:
	.cfi_endproc

	.p2align	4, 0x90
__ZN4core3ptr4read17h173585bca868154eE:
Lfunc_begin118:
	.loc	21 692 0
	.cfi_startproc
	pushq	%rbp
	.cfi_def_cfa_offset 16
	.cfi_offset %rbp, -16
	movq	%rsp, %rbp
	.cfi_def_cfa_register %rbp
	subq	$128, %rsp
	movq	%rdi, %rax
	movq	%rsi, -48(%rbp)
	movq	%rsi, -104(%rbp)
	movq	%rdi, -112(%rbp)
	movq	%rax, -120(%rbp)
	leaq	-96(%rbp), %rax
	movq	%rax, -16(%rbp)
	movq	%rax, -8(%rbp)
	movq	%rax, -128(%rbp)
	movq	-104(%rbp), %rdi
	movq	-128(%rbp), %rsi
Ltmp406:
	.loc	21 702 9 prologue_end
	movl	$1, %edx
	callq	__ZN4core10intrinsics19copy_nonoverlapping17ha3484d6a854c75a0E
	.loc	21 703 9
	movq	-96(%rbp), %rax
	movq	%rax, -72(%rbp)
	movq	-88(%rbp), %rax
	movq	%rax, -64(%rbp)
	movq	-80(%rbp), %rax
	movq	%rax, -56(%rbp)
Ltmp407:
	.loc	22 501 38
	movq	-72(%rbp), %rax
	movq	%rax, -40(%rbp)
	movq	-64(%rbp), %rax
	movq	%rax, -32(%rbp)
	movq	-56(%rbp), %rax
	movq	%rax, -24(%rbp)
Ltmp408:
	.loc	5 101 9
	movq	-40(%rbp), %rax
	movq	-112(%rbp), %rcx
	movq	%rax, (%rcx)
	movq	-32(%rbp), %rax
	movq	%rax, 8(%rcx)
	movq	-24(%rbp), %rax
	movq	%rax, 16(%rcx)
Ltmp409:
	.loc	5 0 9 is_stmt 0
	movq	-120(%rbp), %rax
	.loc	21 705 2 is_stmt 1
	addq	$128, %rsp
	popq	%rbp
	retq
Ltmp410:
Lfunc_end118:
	.cfi_endproc

	.p2align	4, 0x90
__ZN4core3ptr4read17h1d089d9cb227e301E:
Lfunc_begin119:
	.loc	21 692 0
	.cfi_startproc
	pushq	%rbp
	.cfi_def_cfa_offset 16
	.cfi_offset %rbp, -16
	movq	%rsp, %rbp
	.cfi_def_cfa_register %rbp
	subq	$160, %rsp
	movq	%rdi, %rax
	movq	%rsi, -56(%rbp)
	movq	%rsi, -128(%rbp)
	movq	%rdi, -136(%rbp)
	movq	%rax, -144(%rbp)
	leaq	-120(%rbp), %rax
	movq	%rax, -16(%rbp)
	movq	%rax, -8(%rbp)
	movq	%rax, -152(%rbp)
	movq	-128(%rbp), %rdi
	movq	-152(%rbp), %rsi
Ltmp411:
	.loc	21 702 9 prologue_end
	movl	$1, %edx
	callq	__ZN4core10intrinsics19copy_nonoverlapping17haa23e912426bf160E
	.loc	21 703 9
	movq	-120(%rbp), %rax
	movq	%rax, -88(%rbp)
	movq	-112(%rbp), %rax
	movq	%rax, -80(%rbp)
	movq	-104(%rbp), %rax
	movq	%rax, -72(%rbp)
	movq	-96(%rbp), %rax
	movq	%rax, -64(%rbp)
Ltmp412:
	.loc	22 501 38
	movq	-88(%rbp), %rax
	movq	%rax, -48(%rbp)
	movq	-80(%rbp), %rax
	movq	%rax, -40(%rbp)
	movq	-72(%rbp), %rax
	movq	%rax, -32(%rbp)
	movq	-64(%rbp), %rax
	movq	%rax, -24(%rbp)
Ltmp413:
	.loc	5 101 9
	movq	-48(%rbp), %rax
	movq	-136(%rbp), %rcx
	movq	%rax, (%rcx)
	movq	-40(%rbp), %rax
	movq	%rax, 8(%rcx)
	movq	-32(%rbp), %rax
	movq	%rax, 16(%rcx)
	movq	-24(%rbp), %rax
	movq	%rax, 24(%rcx)
Ltmp414:
	.loc	5 0 9 is_stmt 0
	movq	-144(%rbp), %rax
	.loc	21 705 2 is_stmt 1
	addq	$160, %rsp
	popq	%rbp
	retq
Ltmp415:
Lfunc_end119:
	.cfi_endproc

	.p2align	4, 0x90
__ZN4core3ptr4read17h3f669aba91db5435E:
Lfunc_begin120:
	.loc	21 692 0
	.cfi_startproc
	pushq	%rbp
	.cfi_def_cfa_offset 16
	.cfi_offset %rbp, -16
	movq	%rsp, %rbp
	.cfi_def_cfa_register %rbp
	subq	$128, %rsp
	movq	%rdi, %rax
	movq	%rsi, -48(%rbp)
	movq	%rsi, -104(%rbp)
	movq	%rdi, -112(%rbp)
	movq	%rax, -120(%rbp)
	leaq	-96(%rbp), %rax
	movq	%rax, -16(%rbp)
	movq	%rax, -8(%rbp)
	movq	%rax, -128(%rbp)
	movq	-104(%rbp), %rdi
	movq	-128(%rbp), %rsi
Ltmp416:
	.loc	21 702 9 prologue_end
	movl	$1, %edx
	callq	__ZN4core10intrinsics19copy_nonoverlapping17h51dfb9ee176c0b95E
	.loc	21 703 9
	movq	-96(%rbp), %rax
	movq	%rax, -72(%rbp)
	movq	-88(%rbp), %rax
	movq	%rax, -64(%rbp)
	movq	-80(%rbp), %rax
	movq	%rax, -56(%rbp)
Ltmp417:
	.loc	22 501 38
	movq	-72(%rbp), %rax
	movq	%rax, -40(%rbp)
	movq	-64(%rbp), %rax
	movq	%rax, -32(%rbp)
	movq	-56(%rbp), %rax
	movq	%rax, -24(%rbp)
Ltmp418:
	.loc	5 101 9
	movq	-40(%rbp), %rax
	movq	-112(%rbp), %rcx
	movq	%rax, (%rcx)
	movq	-32(%rbp), %rax
	movq	%rax, 8(%rcx)
	movq	-24(%rbp), %rax
	movq	%rax, 16(%rcx)
Ltmp419:
	.loc	5 0 9 is_stmt 0
	movq	-120(%rbp), %rax
	.loc	21 705 2 is_stmt 1
	addq	$128, %rsp
	popq	%rbp
	retq
Ltmp420:
Lfunc_end120:
	.cfi_endproc

	.p2align	4, 0x90
__ZN4core3ptr4read17h6375d3be062e28e0E:
Lfunc_begin121:
	.loc	21 692 0
	.cfi_startproc
	pushq	%rbp
	.cfi_def_cfa_offset 16
	.cfi_offset %rbp, -16
	movq	%rsp, %rbp
	.cfi_def_cfa_register %rbp
	subq	$128, %rsp
	movq	%rdi, -72(%rbp)
Ltmp421:
	.loc	22 272 6 prologue_end
	movq	-64(%rbp), %rax
	movq	-56(%rbp), %rcx
Ltmp422:
	.loc	21 694 19
	movq	%rcx, -80(%rbp)
	movq	%rax, -88(%rbp)
	movq	%rdi, -96(%rbp)
	.loc	21 0 19 is_stmt 0
	leaq	-88(%rbp), %rax
	movq	%rax, -16(%rbp)
	movq	%rax, -8(%rbp)
	movq	%rax, -104(%rbp)
	movq	-96(%rbp), %rdi
	movq	-104(%rbp), %rsi
Ltmp423:
	.loc	21 702 9 is_stmt 1
	movl	$1, %edx
	callq	__ZN4core10intrinsics19copy_nonoverlapping17h7f89c3c2c12ab38eE
	.loc	21 703 9
	movq	-88(%rbp), %rax
	movq	-80(%rbp), %rcx
	movq	%rax, -48(%rbp)
	movq	%rcx, -40(%rbp)
	movq	%rax, -32(%rbp)
	movq	%rcx, -24(%rbp)
	movq	%rax, -112(%rbp)
	movq	%rcx, -120(%rbp)
Ltmp424:
	.loc	21 0 9 is_stmt 0
	movq	-112(%rbp), %rax
	movq	-120(%rbp), %rdx
	.loc	21 705 2 is_stmt 1
	addq	$128, %rsp
	popq	%rbp
	retq
Ltmp425:
Lfunc_end121:
	.cfi_endproc

	.p2align	4, 0x90
__ZN4core3ptr4read17h710099bf7565f358E:
Lfunc_begin122:
	.loc	21 692 0
	.cfi_startproc
	pushq	%rbp
	.cfi_def_cfa_offset 16
	.cfi_offset %rbp, -16
	movq	%rsp, %rbp
	.cfi_def_cfa_register %rbp
	subq	$128, %rsp
	movq	%rdi, %rax
	movq	%rsi, -48(%rbp)
	movq	%rsi, -104(%rbp)
	movq	%rdi, -112(%rbp)
	movq	%rax, -120(%rbp)
	leaq	-96(%rbp), %rax
	movq	%rax, -16(%rbp)
	movq	%rax, -8(%rbp)
	movq	%rax, -128(%rbp)
	movq	-104(%rbp), %rdi
	movq	-128(%rbp), %rsi
Ltmp426:
	.loc	21 702 9 prologue_end
	movl	$1, %edx
	callq	__ZN4core10intrinsics19copy_nonoverlapping17hbc3262dec642c721E
	.loc	21 703 9
	movq	-96(%rbp), %rax
	movq	%rax, -72(%rbp)
	movq	-88(%rbp), %rax
	movq	%rax, -64(%rbp)
	movq	-80(%rbp), %rax
	movq	%rax, -56(%rbp)
Ltmp427:
	.loc	22 501 38
	movq	-72(%rbp), %rax
	movq	%rax, -40(%rbp)
	movq	-64(%rbp), %rax
	movq	%rax, -32(%rbp)
	movq	-56(%rbp), %rax
	movq	%rax, -24(%rbp)
Ltmp428:
	.loc	5 101 9
	movq	-40(%rbp), %rax
	movq	-112(%rbp), %rcx
	movq	%rax, (%rcx)
	movq	-32(%rbp), %rax
	movq	%rax, 8(%rcx)
	movq	-24(%rbp), %rax
	movq	%rax, 16(%rcx)
Ltmp429:
	.loc	5 0 9 is_stmt 0
	movq	-120(%rbp), %rax
	.loc	21 705 2 is_stmt 1
	addq	$128, %rsp
	popq	%rbp
	retq
Ltmp430:
Lfunc_end122:
	.cfi_endproc

	.p2align	4, 0x90
__ZN4core3ptr4read17hb5b916b909a95232E:
Lfunc_begin123:
	.loc	21 692 0
	.cfi_startproc
	pushq	%rbp
	.cfi_def_cfa_offset 16
	.cfi_offset %rbp, -16
	movq	%rsp, %rbp
	.cfi_def_cfa_register %rbp
	subq	$128, %rsp
	movq	%rdi, %rax
	movq	%rsi, -48(%rbp)
	movq	%rsi, -104(%rbp)
	movq	%rdi, -112(%rbp)
	movq	%rax, -120(%rbp)
	leaq	-96(%rbp), %rax
	movq	%rax, -16(%rbp)
	movq	%rax, -8(%rbp)
	movq	%rax, -128(%rbp)
	movq	-104(%rbp), %rdi
	movq	-128(%rbp), %rsi
Ltmp431:
	.loc	21 702 9 prologue_end
	movl	$1, %edx
	callq	__ZN4core10intrinsics19copy_nonoverlapping17h75fee8f9febc98b2E
	.loc	21 703 9
	movq	-96(%rbp), %rax
	movq	%rax, -72(%rbp)
	movq	-88(%rbp), %rax
	movq	%rax, -64(%rbp)
	movq	-80(%rbp), %rax
	movq	%rax, -56(%rbp)
Ltmp432:
	.loc	22 501 38
	movq	-72(%rbp), %rax
	movq	%rax, -40(%rbp)
	movq	-64(%rbp), %rax
	movq	%rax, -32(%rbp)
	movq	-56(%rbp), %rax
	movq	%rax, -24(%rbp)
Ltmp433:
	.loc	5 101 9
	movq	-40(%rbp), %rax
	movq	-112(%rbp), %rcx
	movq	%rax, (%rcx)
	movq	-32(%rbp), %rax
	movq	%rax, 8(%rcx)
	movq	-24(%rbp), %rax
	movq	%rax, 16(%rcx)
Ltmp434:
	.loc	5 0 9 is_stmt 0
	movq	-120(%rbp), %rax
	.loc	21 705 2 is_stmt 1
	addq	$128, %rsp
	popq	%rbp
	retq
Ltmp435:
Lfunc_end123:
	.cfi_endproc

	.p2align	4, 0x90
__ZN4core3ptr4read17he44e656654707b6aE:
Lfunc_begin124:
	.loc	21 692 0
	.cfi_startproc
	pushq	%rbp
	.cfi_def_cfa_offset 16
	.cfi_offset %rbp, -16
	movq	%rsp, %rbp
	.cfi_def_cfa_register %rbp
	subq	$80, %rsp
	movq	%rdi, -48(%rbp)
Ltmp436:
	.loc	22 272 6 prologue_end
	movq	-40(%rbp), %rax
Ltmp437:
	.loc	21 694 19
	movq	%rax, -56(%rbp)
	movq	%rdi, -64(%rbp)
	.loc	21 0 19 is_stmt 0
	leaq	-56(%rbp), %rax
	movq	%rax, -16(%rbp)
	movq	%rax, -8(%rbp)
	movq	-64(%rbp), %rdi
Ltmp438:
	.loc	21 702 9 is_stmt 1
	leaq	-56(%rbp), %rsi
	movl	$1, %edx
	callq	__ZN4core10intrinsics19copy_nonoverlapping17h0632eb8910fb1504E
	.loc	21 703 9
	movq	-56(%rbp), %rax
	movq	%rax, -32(%rbp)
	movq	%rax, -24(%rbp)
	movq	%rax, -72(%rbp)
Ltmp439:
	.loc	21 0 9 is_stmt 0
	movq	-72(%rbp), %rax
	.loc	21 705 2 is_stmt 1
	addq	$80, %rsp
	popq	%rbp
	retq
Ltmp440:
Lfunc_end124:
	.cfi_endproc

	.p2align	4, 0x90
__ZN4core3ptr4read17he45183eec5670ac8E:
Lfunc_begin125:
	.loc	21 692 0
	.cfi_startproc
	pushq	%rbp
	.cfi_def_cfa_offset 16
	.cfi_offset %rbp, -16
	movq	%rsp, %rbp
	.cfi_def_cfa_register %rbp
	subq	$160, %rsp
	movq	%rdi, %rax
	movq	%rsi, -56(%rbp)
	movq	%rsi, -128(%rbp)
	movq	%rdi, -136(%rbp)
	movq	%rax, -144(%rbp)
	leaq	-120(%rbp), %rax
	movq	%rax, -16(%rbp)
	movq	%rax, -8(%rbp)
	movq	%rax, -152(%rbp)
	movq	-128(%rbp), %rdi
	movq	-152(%rbp), %rsi
Ltmp441:
	.loc	21 702 9 prologue_end
	movl	$1, %edx
	callq	__ZN4core10intrinsics19copy_nonoverlapping17he860592970038ad7E
	.loc	21 703 9
	movq	-120(%rbp), %rax
	movq	%rax, -88(%rbp)
	movq	-112(%rbp), %rax
	movq	%rax, -80(%rbp)
	movq	-104(%rbp), %rax
	movq	%rax, -72(%rbp)
	movq	-96(%rbp), %rax
	movq	%rax, -64(%rbp)
Ltmp442:
	.loc	22 501 38
	movq	-88(%rbp), %rax
	movq	%rax, -48(%rbp)
	movq	-80(%rbp), %rax
	movq	%rax, -40(%rbp)
	movq	-72(%rbp), %rax
	movq	%rax, -32(%rbp)
	movq	-64(%rbp), %rax
	movq	%rax, -24(%rbp)
Ltmp443:
	.loc	5 101 9
	movq	-48(%rbp), %rax
	movq	-136(%rbp), %rcx
	movq	%rax, (%rcx)
	movq	-40(%rbp), %rax
	movq	%rax, 8(%rcx)
	movq	-32(%rbp), %rax
	movq	%rax, 16(%rcx)
	movq	-24(%rbp), %rax
	movq	%rax, 24(%rcx)
Ltmp444:
	.loc	5 0 9 is_stmt 0
	movq	-144(%rbp), %rax
	.loc	21 705 2 is_stmt 1
	addq	$160, %rsp
	popq	%rbp
	retq
Ltmp445:
Lfunc_end125:
	.cfi_endproc

	.p2align	4, 0x90
__ZN4core3ptr5write17h2e92aafb1b56ac6aE:
Lfunc_begin126:
	.loc	21 895 0
	.cfi_startproc
	pushq	%rbp
	.cfi_def_cfa_offset 16
	.cfi_offset %rbp, -16
	movq	%rsp, %rbp
	.cfi_def_cfa_register %rbp
	subq	$24, %rsp
	movq	%rdi, -16(%rbp)
	movq	%rsi, -8(%rbp)
Ltmp446:
	.loc	21 901 51 prologue_end
	movq	%rsi, (%rdi)
	.loc	21 902 2
	addq	$24, %rsp
	popq	%rbp
	retq
Ltmp447:
Lfunc_end126:
	.cfi_endproc

	.p2align	4, 0x90
__ZN4core3ptr5write17h9ca2b73e3021626fE:
Lfunc_begin127:
	.loc	21 895 0
	.cfi_startproc
	pushq	%rbp
	.cfi_def_cfa_offset 16
	.cfi_offset %rbp, -16
	movq	%rsp, %rbp
	.cfi_def_cfa_register %rbp
	subq	$32, %rsp
	movq	%rdi, -24(%rbp)
	movq	%rsi, -16(%rbp)
	movq	%rdx, -8(%rbp)
Ltmp448:
	.loc	21 901 51 prologue_end
	movq	%rsi, (%rdi)
	movq	%rdx, 8(%rdi)
	.loc	21 902 2
	addq	$32, %rsp
	popq	%rbp
	retq
Ltmp449:
Lfunc_end127:
	.cfi_endproc

	.p2align	4, 0x90
__ZN4core3ptr5write17hed141d005358b979E:
Lfunc_begin128:
	.loc	21 895 0
	.cfi_startproc
	pushq	%rbp
	.cfi_def_cfa_offset 16
	.cfi_offset %rbp, -16
	movq	%rsp, %rbp
	.cfi_def_cfa_register %rbp
	subq	$16, %rsp
	movq	%rdi, -8(%rbp)
Ltmp450:
	.loc	21 901 51 prologue_end
	movq	(%rsi), %rax
	movq	%rax, (%rdi)
	movq	8(%rsi), %rax
	movq	%rax, 8(%rdi)
	movq	16(%rsi), %rax
	movq	%rax, 16(%rdi)
	movq	24(%rsi), %rax
	movq	%rax, 24(%rdi)
	.loc	21 902 2
	addq	$16, %rsp
	popq	%rbp
	retq
Ltmp451:
Lfunc_end128:
	.cfi_endproc

	.p2align	4, 0x90
__ZN4core3ptr6unique15Unique$LT$T$GT$13new_unchecked17hbcbd15c60be654e0E:
Lfunc_begin129:
	.file	23 "/rustc/6c8927b0cf80ceee19386026cf9d7fd4fd9d486f/src/libcore/ptr/unique.rs"
	.loc	23 89 0
	.cfi_startproc
	pushq	%rbp
	.cfi_def_cfa_offset 16
	.cfi_offset %rbp, -16
	movq	%rsp, %rbp
	.cfi_def_cfa_register %rbp
	subq	$24, %rsp
	movq	%rdi, -8(%rbp)
Ltmp452:
	.loc	23 91 18 prologue_end
	movq	%rdi, -24(%rbp)
	.loc	23 92 6
	movq	-24(%rbp), %rax
	addq	$24, %rsp
	popq	%rbp
	retq
Ltmp453:
Lfunc_end129:
	.cfi_endproc

	.p2align	4, 0x90
__ZN4core3ptr6unique15Unique$LT$T$GT$4cast17h1d2c041329575190E:
Lfunc_begin130:
	.loc	23 137 0
	.cfi_startproc
	pushq	%rbp
	.cfi_def_cfa_offset 16
	.cfi_offset %rbp, -16
	movq	%rsp, %rbp
	.cfi_def_cfa_register %rbp
	subq	$32, %rsp
	movq	%rdi, -16(%rbp)
	movq	%rsi, -8(%rbp)
Ltmp454:
	.loc	23 141 40 prologue_end
	callq	__ZN4core3ptr6unique15Unique$LT$T$GT$6as_ptr17h269ca0415b916bebE
	movq	%rax, -24(%rbp)
	.loc	23 0 40 is_stmt 0
	movq	-24(%rbp), %rax
	.loc	23 141 18
	movq	%rax, %rdi
	callq	__ZN4core3ptr6unique15Unique$LT$T$GT$13new_unchecked17hbcbd15c60be654e0E
	movq	%rax, -32(%rbp)
	.loc	23 0 18
	movq	-32(%rbp), %rax
	.loc	23 142 6 is_stmt 1
	addq	$32, %rsp
	popq	%rbp
	retq
Ltmp455:
Lfunc_end130:
	.cfi_endproc

	.p2align	4, 0x90
__ZN4core3ptr6unique15Unique$LT$T$GT$4cast17h356da1dffa8983deE:
Lfunc_begin131:
	.loc	23 137 0
	.cfi_startproc
	pushq	%rbp
	.cfi_def_cfa_offset 16
	.cfi_offset %rbp, -16
	movq	%rsp, %rbp
	.cfi_def_cfa_register %rbp
	subq	$32, %rsp
	movq	%rdi, -8(%rbp)
Ltmp456:
	.loc	23 141 40 prologue_end
	callq	__ZN4core3ptr6unique15Unique$LT$T$GT$6as_ptr17hc6d97886a018c2bbE
	movq	%rax, -16(%rbp)
	.loc	23 0 40 is_stmt 0
	movq	-16(%rbp), %rax
	.loc	23 141 18
	movq	%rax, %rdi
	callq	__ZN4core3ptr6unique15Unique$LT$T$GT$13new_unchecked17hbcbd15c60be654e0E
	movq	%rax, -24(%rbp)
	.loc	23 0 18
	movq	-24(%rbp), %rax
	.loc	23 142 6 is_stmt 1
	addq	$32, %rsp
	popq	%rbp
	retq
Ltmp457:
Lfunc_end131:
	.cfi_endproc

	.p2align	4, 0x90
__ZN4core3ptr6unique15Unique$LT$T$GT$4cast17h363329020027fdfcE:
Lfunc_begin132:
	.loc	23 137 0
	.cfi_startproc
	pushq	%rbp
	.cfi_def_cfa_offset 16
	.cfi_offset %rbp, -16
	movq	%rsp, %rbp
	.cfi_def_cfa_register %rbp
	subq	$32, %rsp
	movq	%rdi, -16(%rbp)
	movq	%rsi, -8(%rbp)
Ltmp458:
	.loc	23 141 40 prologue_end
	callq	__ZN4core3ptr6unique15Unique$LT$T$GT$6as_ptr17heeb96907a33b0a2fE
	movq	%rax, -24(%rbp)
	.loc	23 0 40 is_stmt 0
	movq	-24(%rbp), %rax
	.loc	23 141 18
	movq	%rax, %rdi
	callq	__ZN4core3ptr6unique15Unique$LT$T$GT$13new_unchecked17hbcbd15c60be654e0E
	movq	%rax, -32(%rbp)
	.loc	23 0 18
	movq	-32(%rbp), %rax
	.loc	23 142 6 is_stmt 1
	addq	$32, %rsp
	popq	%rbp
	retq
Ltmp459:
Lfunc_end132:
	.cfi_endproc

	.p2align	4, 0x90
__ZN4core3ptr6unique15Unique$LT$T$GT$4cast17h4395e806621c7d94E:
Lfunc_begin133:
	.loc	23 137 0
	.cfi_startproc
	pushq	%rbp
	.cfi_def_cfa_offset 16
	.cfi_offset %rbp, -16
	movq	%rsp, %rbp
	.cfi_def_cfa_register %rbp
	subq	$32, %rsp
	movq	%rdi, -8(%rbp)
Ltmp460:
	.loc	23 141 40 prologue_end
	callq	__ZN4core3ptr6unique15Unique$LT$T$GT$6as_ptr17h738be5b82afb7a76E
	movq	%rax, -16(%rbp)
	.loc	23 0 40 is_stmt 0
	movq	-16(%rbp), %rax
	.loc	23 141 18
	movq	%rax, %rdi
	callq	__ZN4core3ptr6unique15Unique$LT$T$GT$13new_unchecked17hbcbd15c60be654e0E
	movq	%rax, -24(%rbp)
	.loc	23 0 18
	movq	-24(%rbp), %rax
	.loc	23 142 6 is_stmt 1
	addq	$32, %rsp
	popq	%rbp
	retq
Ltmp461:
Lfunc_end133:
	.cfi_endproc

	.p2align	4, 0x90
__ZN4core3ptr6unique15Unique$LT$T$GT$4cast17h6473d4f5c9520e74E:
Lfunc_begin134:
	.loc	23 137 0
	.cfi_startproc
	pushq	%rbp
	.cfi_def_cfa_offset 16
	.cfi_offset %rbp, -16
	movq	%rsp, %rbp
	.cfi_def_cfa_register %rbp
	subq	$32, %rsp
	movq	%rdi, -8(%rbp)
Ltmp462:
	.loc	23 141 40 prologue_end
	callq	__ZN4core3ptr6unique15Unique$LT$T$GT$6as_ptr17h03e13618c33c594aE
	movq	%rax, -16(%rbp)
	.loc	23 0 40 is_stmt 0
	movq	-16(%rbp), %rdi
	.loc	23 141 18
	callq	__ZN4core3ptr6unique15Unique$LT$T$GT$13new_unchecked17hbcbd15c60be654e0E
	movq	%rax, -24(%rbp)
	.loc	23 0 18
	movq	-24(%rbp), %rax
	.loc	23 142 6 is_stmt 1
	addq	$32, %rsp
	popq	%rbp
	retq
Ltmp463:
Lfunc_end134:
	.cfi_endproc

	.p2align	4, 0x90
__ZN4core3ptr6unique15Unique$LT$T$GT$4cast17h871b064d11242a8fE:
Lfunc_begin135:
	.loc	23 137 0
	.cfi_startproc
	pushq	%rbp
	.cfi_def_cfa_offset 16
	.cfi_offset %rbp, -16
	movq	%rsp, %rbp
	.cfi_def_cfa_register %rbp
	subq	$32, %rsp
	movq	%rdi, -8(%rbp)
Ltmp464:
	.loc	23 141 40 prologue_end
	callq	__ZN4core3ptr6unique15Unique$LT$T$GT$6as_ptr17h5e7654a283447ff4E
	movq	%rax, -16(%rbp)
	.loc	23 0 40 is_stmt 0
	movq	-16(%rbp), %rax
	.loc	23 141 18
	movq	%rax, %rdi
	callq	__ZN4core3ptr6unique15Unique$LT$T$GT$13new_unchecked17hbcbd15c60be654e0E
	movq	%rax, -24(%rbp)
	.loc	23 0 18
	movq	-24(%rbp), %rax
	.loc	23 142 6 is_stmt 1
	addq	$32, %rsp
	popq	%rbp
	retq
Ltmp465:
Lfunc_end135:
	.cfi_endproc

	.p2align	4, 0x90
__ZN4core3ptr6unique15Unique$LT$T$GT$4cast17hcc3f89eec42e4b7eE:
Lfunc_begin136:
	.loc	23 137 0
	.cfi_startproc
	pushq	%rbp
	.cfi_def_cfa_offset 16
	.cfi_offset %rbp, -16
	movq	%rsp, %rbp
	.cfi_def_cfa_register %rbp
	subq	$32, %rsp
	movq	%rdi, -8(%rbp)
Ltmp466:
	.loc	23 141 40 prologue_end
	callq	__ZN4core3ptr6unique15Unique$LT$T$GT$6as_ptr17h2fb605fc7ca6d1a6E
	movq	%rax, -16(%rbp)
	.loc	23 0 40 is_stmt 0
	movq	-16(%rbp), %rax
	.loc	23 141 18
	movq	%rax, %rdi
	callq	__ZN4core3ptr6unique15Unique$LT$T$GT$13new_unchecked17hbcbd15c60be654e0E
	movq	%rax, -24(%rbp)
	.loc	23 0 18
	movq	-24(%rbp), %rax
	.loc	23 142 6 is_stmt 1
	addq	$32, %rsp
	popq	%rbp
	retq
Ltmp467:
Lfunc_end136:
	.cfi_endproc

	.p2align	4, 0x90
__ZN4core3ptr6unique15Unique$LT$T$GT$4cast17hded18a643f035066E:
Lfunc_begin137:
	.loc	23 137 0
	.cfi_startproc
	pushq	%rbp
	.cfi_def_cfa_offset 16
	.cfi_offset %rbp, -16
	movq	%rsp, %rbp
	.cfi_def_cfa_register %rbp
	subq	$32, %rsp
	movq	%rdi, -16(%rbp)
	movq	%rsi, -8(%rbp)
Ltmp468:
	.loc	23 141 40 prologue_end
	callq	__ZN4core3ptr6unique15Unique$LT$T$GT$6as_ptr17h388faada8f68d411E
	movq	%rax, -24(%rbp)
	.loc	23 0 40 is_stmt 0
	movq	-24(%rbp), %rax
	.loc	23 141 18
	movq	%rax, %rdi
	callq	__ZN4core3ptr6unique15Unique$LT$T$GT$13new_unchecked17hbcbd15c60be654e0E
	movq	%rax, -32(%rbp)
	.loc	23 0 18
	movq	-32(%rbp), %rax
	.loc	23 142 6 is_stmt 1
	addq	$32, %rsp
	popq	%rbp
	retq
Ltmp469:
Lfunc_end137:
	.cfi_endproc

	.p2align	4, 0x90
__ZN4core3ptr6unique15Unique$LT$T$GT$6as_ptr17h03e13618c33c594aE:
Lfunc_begin138:
	.loc	23 107 0
	.cfi_startproc
	pushq	%rbp
	.cfi_def_cfa_offset 16
	.cfi_offset %rbp, -16
	movq	%rsp, %rbp
	.cfi_def_cfa_register %rbp
	pushq	%rax
	movq	%rdi, -8(%rbp)
Ltmp470:
	.loc	23 109 6 prologue_end
	movq	%rdi, %rax
	addq	$8, %rsp
	popq	%rbp
	retq
Ltmp471:
Lfunc_end138:
	.cfi_endproc

	.p2align	4, 0x90
__ZN4core3ptr6unique15Unique$LT$T$GT$6as_ptr17h269ca0415b916bebE:
Lfunc_begin139:
	.loc	23 107 0
	.cfi_startproc
	pushq	%rbp
	.cfi_def_cfa_offset 16
	.cfi_offset %rbp, -16
	movq	%rsp, %rbp
	.cfi_def_cfa_register %rbp
	subq	$16, %rsp
	movq	%rdi, -16(%rbp)
	movq	%rsi, -8(%rbp)
Ltmp472:
	.loc	23 109 6 prologue_end
	movq	%rdi, %rax
	movq	%rsi, %rdx
	addq	$16, %rsp
	popq	%rbp
	retq
Ltmp473:
Lfunc_end139:
	.cfi_endproc

	.p2align	4, 0x90
__ZN4core3ptr6unique15Unique$LT$T$GT$6as_ptr17h2fb605fc7ca6d1a6E:
Lfunc_begin140:
	.loc	23 107 0
	.cfi_startproc
	pushq	%rbp
	.cfi_def_cfa_offset 16
	.cfi_offset %rbp, -16
	movq	%rsp, %rbp
	.cfi_def_cfa_register %rbp
	pushq	%rax
	movq	%rdi, -8(%rbp)
Ltmp474:
	.loc	23 109 6 prologue_end
	movq	%rdi, %rax
	addq	$8, %rsp
	popq	%rbp
	retq
Ltmp475:
Lfunc_end140:
	.cfi_endproc

	.p2align	4, 0x90
__ZN4core3ptr6unique15Unique$LT$T$GT$6as_ptr17h388faada8f68d411E:
Lfunc_begin141:
	.loc	23 107 0
	.cfi_startproc
	pushq	%rbp
	.cfi_def_cfa_offset 16
	.cfi_offset %rbp, -16
	movq	%rsp, %rbp
	.cfi_def_cfa_register %rbp
	subq	$16, %rsp
	movq	%rdi, -16(%rbp)
	movq	%rsi, -8(%rbp)
Ltmp476:
	.loc	23 109 6 prologue_end
	movq	%rdi, %rax
	movq	%rsi, %rdx
	addq	$16, %rsp
	popq	%rbp
	retq
Ltmp477:
Lfunc_end141:
	.cfi_endproc

	.p2align	4, 0x90
__ZN4core3ptr6unique15Unique$LT$T$GT$6as_ptr17h38d879e652a5eb8fE:
Lfunc_begin142:
	.loc	23 107 0
	.cfi_startproc
	pushq	%rbp
	.cfi_def_cfa_offset 16
	.cfi_offset %rbp, -16
	movq	%rsp, %rbp
	.cfi_def_cfa_register %rbp
	pushq	%rax
	movq	%rdi, -8(%rbp)
Ltmp478:
	.loc	23 109 6 prologue_end
	movq	%rdi, %rax
	addq	$8, %rsp
	popq	%rbp
	retq
Ltmp479:
Lfunc_end142:
	.cfi_endproc

	.p2align	4, 0x90
__ZN4core3ptr6unique15Unique$LT$T$GT$6as_ptr17h5e7654a283447ff4E:
Lfunc_begin143:
	.loc	23 107 0
	.cfi_startproc
	pushq	%rbp
	.cfi_def_cfa_offset 16
	.cfi_offset %rbp, -16
	movq	%rsp, %rbp
	.cfi_def_cfa_register %rbp
	pushq	%rax
	movq	%rdi, -8(%rbp)
Ltmp480:
	.loc	23 109 6 prologue_end
	movq	%rdi, %rax
	addq	$8, %rsp
	popq	%rbp
	retq
Ltmp481:
Lfunc_end143:
	.cfi_endproc

	.p2align	4, 0x90
__ZN4core3ptr6unique15Unique$LT$T$GT$6as_ptr17h738be5b82afb7a76E:
Lfunc_begin144:
	.loc	23 107 0
	.cfi_startproc
	pushq	%rbp
	.cfi_def_cfa_offset 16
	.cfi_offset %rbp, -16
	movq	%rsp, %rbp
	.cfi_def_cfa_register %rbp
	pushq	%rax
	movq	%rdi, -8(%rbp)
Ltmp482:
	.loc	23 109 6 prologue_end
	movq	%rdi, %rax
	addq	$8, %rsp
	popq	%rbp
	retq
Ltmp483:
Lfunc_end144:
	.cfi_endproc

	.p2align	4, 0x90
__ZN4core3ptr6unique15Unique$LT$T$GT$6as_ptr17hc6d97886a018c2bbE:
Lfunc_begin145:
	.loc	23 107 0
	.cfi_startproc
	pushq	%rbp
	.cfi_def_cfa_offset 16
	.cfi_offset %rbp, -16
	movq	%rsp, %rbp
	.cfi_def_cfa_register %rbp
	pushq	%rax
	movq	%rdi, -8(%rbp)
Ltmp484:
	.loc	23 109 6 prologue_end
	movq	%rdi, %rax
	addq	$8, %rsp
	popq	%rbp
	retq
Ltmp485:
Lfunc_end145:
	.cfi_endproc

	.p2align	4, 0x90
__ZN4core3ptr6unique15Unique$LT$T$GT$6as_ptr17heeb96907a33b0a2fE:
Lfunc_begin146:
	.loc	23 107 0
	.cfi_startproc
	pushq	%rbp
	.cfi_def_cfa_offset 16
	.cfi_offset %rbp, -16
	movq	%rsp, %rbp
	.cfi_def_cfa_register %rbp
	subq	$16, %rsp
	movq	%rdi, -16(%rbp)
	movq	%rsi, -8(%rbp)
Ltmp486:
	.loc	23 109 6 prologue_end
	movq	%rdi, %rax
	movq	%rsi, %rdx
	addq	$16, %rsp
	popq	%rbp
	retq
Ltmp487:
Lfunc_end146:
	.cfi_endproc

	.p2align	4, 0x90
__ZN4core3ptr6unique15Unique$LT$T$GT$6as_ref17h1cd9596c532353efE:
Lfunc_begin147:
	.loc	23 117 0
	.cfi_startproc
	pushq	%rbp
	.cfi_def_cfa_offset 16
	.cfi_offset %rbp, -16
	movq	%rsp, %rbp
	.cfi_def_cfa_register %rbp
	subq	$16, %rsp
	movq	%rdi, -8(%rbp)
Ltmp488:
	.loc	23 120 20 prologue_end
	movq	(%rdi), %rdi
	callq	__ZN4core3ptr6unique15Unique$LT$T$GT$6as_ptr17h738be5b82afb7a76E
	movq	%rax, -16(%rbp)
	.loc	23 0 20 is_stmt 0
	movq	-16(%rbp), %rax
	.loc	23 121 6 is_stmt 1
	addq	$16, %rsp
	popq	%rbp
	retq
Ltmp489:
Lfunc_end147:
	.cfi_endproc

	.p2align	4, 0x90
__ZN4core3ptr6unique15Unique$LT$T$GT$6as_ref17h5e78d0ff00665a62E:
Lfunc_begin148:
	.loc	23 117 0
	.cfi_startproc
	pushq	%rbp
	.cfi_def_cfa_offset 16
	.cfi_offset %rbp, -16
	movq	%rsp, %rbp
	.cfi_def_cfa_register %rbp
	subq	$32, %rsp
	movq	%rdi, -8(%rbp)
Ltmp490:
	.loc	23 120 20 prologue_end
	movq	(%rdi), %rax
	movq	8(%rdi), %rsi
	movq	%rax, %rdi
	callq	__ZN4core3ptr6unique15Unique$LT$T$GT$6as_ptr17h269ca0415b916bebE
	movq	%rax, -16(%rbp)
	movq	%rdx, -24(%rbp)
	.loc	23 0 20 is_stmt 0
	movq	-16(%rbp), %rax
	movq	-24(%rbp), %rdx
	.loc	23 121 6 is_stmt 1
	addq	$32, %rsp
	popq	%rbp
	retq
Ltmp491:
Lfunc_end148:
	.cfi_endproc

	.p2align	4, 0x90
__ZN4core3ptr6unique15Unique$LT$T$GT$6as_ref17h990735ca8848503aE:
Lfunc_begin149:
	.loc	23 117 0
	.cfi_startproc
	pushq	%rbp
	.cfi_def_cfa_offset 16
	.cfi_offset %rbp, -16
	movq	%rsp, %rbp
	.cfi_def_cfa_register %rbp
	subq	$32, %rsp
	movq	%rdi, -8(%rbp)
Ltmp492:
	.loc	23 120 20 prologue_end
	movq	(%rdi), %rax
	movq	8(%rdi), %rsi
	movq	%rax, %rdi
	callq	__ZN4core3ptr6unique15Unique$LT$T$GT$6as_ptr17heeb96907a33b0a2fE
	movq	%rax, -16(%rbp)
	movq	%rdx, -24(%rbp)
	.loc	23 0 20 is_stmt 0
	movq	-16(%rbp), %rax
	movq	-24(%rbp), %rdx
	.loc	23 121 6 is_stmt 1
	addq	$32, %rsp
	popq	%rbp
	retq
Ltmp493:
Lfunc_end149:
	.cfi_endproc

	.p2align	4, 0x90
__ZN4core3ptr6unique15Unique$LT$T$GT$6as_ref17hf54e12c9039bd992E:
Lfunc_begin150:
	.loc	23 117 0
	.cfi_startproc
	pushq	%rbp
	.cfi_def_cfa_offset 16
	.cfi_offset %rbp, -16
	movq	%rsp, %rbp
	.cfi_def_cfa_register %rbp
	subq	$32, %rsp
	movq	%rdi, -8(%rbp)
Ltmp494:
	.loc	23 120 20 prologue_end
	movq	(%rdi), %rax
	movq	8(%rdi), %rsi
	movq	%rax, %rdi
	callq	__ZN4core3ptr6unique15Unique$LT$T$GT$6as_ptr17h388faada8f68d411E
	movq	%rax, -16(%rbp)
	movq	%rdx, -24(%rbp)
	.loc	23 0 20 is_stmt 0
	movq	-16(%rbp), %rax
	movq	-24(%rbp), %rdx
	.loc	23 121 6 is_stmt 1
	addq	$32, %rsp
	popq	%rbp
	retq
Ltmp495:
Lfunc_end150:
	.cfi_endproc

	.p2align	4, 0x90
__ZN4core3ptr7mut_ptr31_$LT$impl$u20$$BP$mut$u20$T$GT$3add17h11400a8f09db8d51E:
Lfunc_begin151:
	.file	24 "/rustc/6c8927b0cf80ceee19386026cf9d7fd4fd9d486f/src/libcore/ptr/mut_ptr.rs"
	.loc	24 529 0
	.cfi_startproc
	pushq	%rbp
	.cfi_def_cfa_offset 16
	.cfi_offset %rbp, -16
	movq	%rsp, %rbp
	.cfi_def_cfa_register %rbp
	subq	$32, %rsp
	movq	%rdi, -16(%rbp)
	movq	%rsi, -8(%rbp)
Ltmp496:
	.loc	24 534 18 prologue_end
	callq	__ZN4core3ptr7mut_ptr31_$LT$impl$u20$$BP$mut$u20$T$GT$6offset17hffbf6365c97c0bf5E
	movq	%rax, -24(%rbp)
	.loc	24 0 18 is_stmt 0
	movq	-24(%rbp), %rax
	.loc	24 535 6 is_stmt 1
	addq	$32, %rsp
	popq	%rbp
	retq
Ltmp497:
Lfunc_end151:
	.cfi_endproc

	.p2align	4, 0x90
__ZN4core3ptr7mut_ptr31_$LT$impl$u20$$BP$mut$u20$T$GT$6offset17hffbf6365c97c0bf5E:
Lfunc_begin152:
	.loc	24 158 0
	.cfi_startproc
	pushq	%rbp
	.cfi_def_cfa_offset 16
	.cfi_offset %rbp, -16
	movq	%rsp, %rbp
	.cfi_def_cfa_register %rbp
	subq	$32, %rsp
	movq	%rdi, -24(%rbp)
	movq	%rsi, -16(%rbp)
Ltmp498:
	.loc	24 165 18 prologue_end
	addq	%rsi, %rdi
	movq	%rdi, -8(%rbp)
	movq	-8(%rbp), %rax
	movq	%rax, -32(%rbp)
	.loc	24 0 18 is_stmt 0
	movq	-32(%rbp), %rax
	.loc	24 166 6 is_stmt 1
	addq	$32, %rsp
	popq	%rbp
	retq
Ltmp499:
Lfunc_end152:
	.cfi_endproc

	.p2align	4, 0x90
__ZN4core3ptr7mut_ptr31_$LT$impl$u20$$BP$mut$u20$T$GT$7is_null17h214aa6ad6f67e04bE:
Lfunc_begin153:
	.loc	24 26 0
	.cfi_startproc
	pushq	%rbp
	.cfi_def_cfa_offset 16
	.cfi_offset %rbp, -16
	movq	%rsp, %rbp
	.cfi_def_cfa_register %rbp
	subq	$16, %rsp
	movq	%rdi, -8(%rbp)
	movq	%rdi, -16(%rbp)
	movq	-16(%rbp), %rax
Ltmp500:
	.loc	24 29 9 prologue_end
	cmpq	$0, %rax
	sete	%cl
	.loc	24 30 6
	andb	$1, %cl
	movzbl	%cl, %edx
	movl	%edx, %eax
	addq	$16, %rsp
	popq	%rbp
	retq
Ltmp501:
Lfunc_end153:
	.cfi_endproc

	.p2align	4, 0x90
__ZN4core3ptr7mut_ptr31_$LT$impl$u20$$BP$mut$u20$T$GT$7is_null17h34d56a8614438f3dE:
Lfunc_begin154:
	.loc	24 26 0
	.cfi_startproc
	pushq	%rbp
	.cfi_def_cfa_offset 16
	.cfi_offset %rbp, -16
	movq	%rsp, %rbp
	.cfi_def_cfa_register %rbp
	subq	$16, %rsp
	movq	%rdi, -8(%rbp)
	movq	%rdi, -16(%rbp)
	movq	-16(%rbp), %rax
Ltmp502:
	.loc	24 29 9 prologue_end
	cmpq	$0, %rax
	sete	%cl
	.loc	24 30 6
	andb	$1, %cl
	movzbl	%cl, %edx
	movl	%edx, %eax
	addq	$16, %rsp
	popq	%rbp
	retq
Ltmp503:
Lfunc_end154:
	.cfi_endproc

	.p2align	4, 0x90
__ZN4core3ptr7mut_ptr31_$LT$impl$u20$$BP$mut$u20$T$GT$7is_null17h386173292c91971fE:
Lfunc_begin155:
	.loc	24 26 0
	.cfi_startproc
	pushq	%rbp
	.cfi_def_cfa_offset 16
	.cfi_offset %rbp, -16
	movq	%rsp, %rbp
	.cfi_def_cfa_register %rbp
	subq	$16, %rsp
	movq	%rdi, -8(%rbp)
	movq	%rdi, -16(%rbp)
	movq	-16(%rbp), %rax
Ltmp504:
	.loc	24 29 9 prologue_end
	cmpq	$0, %rax
	sete	%cl
	.loc	24 30 6
	andb	$1, %cl
	movzbl	%cl, %edx
	movl	%edx, %eax
	addq	$16, %rsp
	popq	%rbp
	retq
Ltmp505:
Lfunc_end155:
	.cfi_endproc

	.p2align	4, 0x90
__ZN4core3ptr7mut_ptr31_$LT$impl$u20$$BP$mut$u20$T$GT$7is_null17h6d160cac175b1d8cE:
Lfunc_begin156:
	.loc	24 26 0
	.cfi_startproc
	pushq	%rbp
	.cfi_def_cfa_offset 16
	.cfi_offset %rbp, -16
	movq	%rsp, %rbp
	.cfi_def_cfa_register %rbp
	subq	$16, %rsp
	movq	%rdi, -8(%rbp)
	movq	%rdi, -16(%rbp)
	movq	-16(%rbp), %rax
Ltmp506:
	.loc	24 29 9 prologue_end
	cmpq	$0, %rax
	sete	%cl
	.loc	24 30 6
	andb	$1, %cl
	movzbl	%cl, %edx
	movl	%edx, %eax
	addq	$16, %rsp
	popq	%rbp
	retq
Ltmp507:
Lfunc_end156:
	.cfi_endproc

	.p2align	4, 0x90
__ZN4core3ptr7mut_ptr31_$LT$impl$u20$$BP$mut$u20$T$GT$7is_null17hedf792a772bd17d2E:
Lfunc_begin157:
	.loc	24 26 0
	.cfi_startproc
	pushq	%rbp
	.cfi_def_cfa_offset 16
	.cfi_offset %rbp, -16
	movq	%rsp, %rbp
	.cfi_def_cfa_register %rbp
	subq	$16, %rsp
	movq	%rdi, -8(%rbp)
	movq	%rdi, -16(%rbp)
	movq	-16(%rbp), %rax
Ltmp508:
	.loc	24 29 9 prologue_end
	cmpq	$0, %rax
	sete	%cl
	.loc	24 30 6
	andb	$1, %cl
	movzbl	%cl, %edx
	movl	%edx, %eax
	addq	$16, %rsp
	popq	%rbp
	retq
Ltmp509:
Lfunc_end157:
	.cfi_endproc

	.p2align	4, 0x90
__ZN4core3ptr7mut_ptr41_$LT$impl$u20$$BP$mut$u20$$u5b$T$u5d$$GT$10as_mut_ptr17hda77246772704e5fE:
Lfunc_begin158:
	.loc	24 1051 0
	.cfi_startproc
	pushq	%rbp
	.cfi_def_cfa_offset 16
	.cfi_offset %rbp, -16
	movq	%rsp, %rbp
	.cfi_def_cfa_register %rbp
	subq	$16, %rsp
	movq	%rdi, -16(%rbp)
	movq	%rsi, -8(%rbp)
Ltmp510:
	.loc	24 1053 6 prologue_end
	movq	%rdi, %rax
	addq	$16, %rsp
	popq	%rbp
	retq
Ltmp511:
Lfunc_end158:
	.cfi_endproc

	.p2align	4, 0x90
__ZN4core3ptr8non_null16NonNull$LT$T$GT$13new_unchecked17h1b2d39ff8d5b1a15E:
Lfunc_begin159:
	.loc	6 90 0
	.cfi_startproc
	pushq	%rbp
	.cfi_def_cfa_offset 16
	.cfi_offset %rbp, -16
	movq	%rsp, %rbp
	.cfi_def_cfa_register %rbp
	subq	$16, %rsp
	movq	%rdi, -8(%rbp)
Ltmp512:
	.loc	6 92 18 prologue_end
	movq	%rdi, -16(%rbp)
	.loc	6 93 6
	movq	-16(%rbp), %rax
	addq	$16, %rsp
	popq	%rbp
	retq
Ltmp513:
Lfunc_end159:
	.cfi_endproc

	.p2align	4, 0x90
__ZN4core3ptr8non_null16NonNull$LT$T$GT$13new_unchecked17ha32e919712a2c591E:
Lfunc_begin160:
	.loc	6 90 0
	.cfi_startproc
	pushq	%rbp
	.cfi_def_cfa_offset 16
	.cfi_offset %rbp, -16
	movq	%rsp, %rbp
	.cfi_def_cfa_register %rbp
	subq	$16, %rsp
	movq	%rdi, -8(%rbp)
Ltmp514:
	.loc	6 92 18 prologue_end
	movq	%rdi, -16(%rbp)
	.loc	6 93 6
	movq	-16(%rbp), %rax
	addq	$16, %rsp
	popq	%rbp
	retq
Ltmp515:
Lfunc_end160:
	.cfi_endproc

	.p2align	4, 0x90
__ZN4core3ptr8non_null16NonNull$LT$T$GT$3new17hf4ddbd35a95b8e52E:
Lfunc_begin161:
	.loc	6 98 0
	.cfi_startproc
	pushq	%rbp
	.cfi_def_cfa_offset 16
	.cfi_offset %rbp, -16
	movq	%rsp, %rbp
	.cfi_def_cfa_register %rbp
	subq	$48, %rsp
	movq	%rdi, -8(%rbp)
	movq	%rdi, -24(%rbp)
Ltmp516:
	.loc	6 99 13 prologue_end
	callq	__ZN4core3ptr7mut_ptr31_$LT$impl$u20$$BP$mut$u20$T$GT$7is_null17h386173292c91971fE
	movb	%al, -25(%rbp)
	.loc	6 0 13 is_stmt 0
	movb	-25(%rbp), %al
	.loc	6 99 12
	xorb	$-1, %al
	.loc	6 99 9
	testb	$1, %al
	jne	LBB161_3
	.loc	6 103 13 is_stmt 1
	movq	$0, -16(%rbp)
	.loc	6 99 9
	jmp	LBB161_5
LBB161_3:
	.loc	6 0 9 is_stmt 0
	movq	-24(%rbp), %rdi
	.loc	6 101 27 is_stmt 1
	callq	__ZN4core3ptr8non_null16NonNull$LT$T$GT$13new_unchecked17ha32e919712a2c591E
	movq	%rax, -40(%rbp)
	.loc	6 0 27 is_stmt 0
	movq	-40(%rbp), %rax
	.loc	6 101 13
	movq	%rax, -16(%rbp)
LBB161_5:
	.loc	6 105 6 is_stmt 1
	movq	-16(%rbp), %rax
	addq	$48, %rsp
	popq	%rbp
	retq
Ltmp517:
Lfunc_end161:
	.cfi_endproc

	.p2align	4, 0x90
__ZN4core3ptr8non_null16NonNull$LT$T$GT$4cast17h3170498a5d0519d3E:
Lfunc_begin162:
	.loc	6 145 0
	.cfi_startproc
	pushq	%rbp
	.cfi_def_cfa_offset 16
	.cfi_offset %rbp, -16
	movq	%rsp, %rbp
	.cfi_def_cfa_register %rbp
	subq	$32, %rsp
	movq	%rdi, -8(%rbp)
Ltmp518:
	.loc	6 147 41 prologue_end
	callq	__ZN4core3ptr8non_null16NonNull$LT$T$GT$6as_ptr17ha18b2642a99fae07E
	movq	%rax, -16(%rbp)
	.loc	6 0 41 is_stmt 0
	movq	-16(%rbp), %rax
	.loc	6 147 18
	movq	%rax, %rdi
	callq	__ZN4core3ptr8non_null16NonNull$LT$T$GT$13new_unchecked17h1b2d39ff8d5b1a15E
	movq	%rax, -24(%rbp)
	.loc	6 0 18
	movq	-24(%rbp), %rax
	.loc	6 148 6 is_stmt 1
	addq	$32, %rsp
	popq	%rbp
	retq
Ltmp519:
Lfunc_end162:
	.cfi_endproc

	.p2align	4, 0x90
__ZN4core3ptr8non_null16NonNull$LT$T$GT$6as_ptr17ha18b2642a99fae07E:
Lfunc_begin163:
	.loc	6 111 0
	.cfi_startproc
	pushq	%rbp
	.cfi_def_cfa_offset 16
	.cfi_offset %rbp, -16
	movq	%rsp, %rbp
	.cfi_def_cfa_register %rbp
	pushq	%rax
	movq	%rdi, -8(%rbp)
Ltmp520:
	.loc	6 113 6 prologue_end
	movq	%rdi, %rax
	addq	$8, %rsp
	popq	%rbp
	retq
Ltmp521:
Lfunc_end163:
	.cfi_endproc

	.p2align	4, 0x90
__ZN4core3ptr8non_null16NonNull$LT$T$GT$6as_ptr17he398c7974987a8dcE:
Lfunc_begin164:
	.loc	6 111 0
	.cfi_startproc
	pushq	%rbp
	.cfi_def_cfa_offset 16
	.cfi_offset %rbp, -16
	movq	%rsp, %rbp
	.cfi_def_cfa_register %rbp
	pushq	%rax
	movq	%rdi, -8(%rbp)
Ltmp522:
	.loc	6 113 6 prologue_end
	movq	%rdi, %rax
	addq	$8, %rsp
	popq	%rbp
	retq
Ltmp523:
Lfunc_end164:
	.cfi_endproc

	.p2align	4, 0x90
__ZN4core3ptr8non_null16NonNull$LT$T$GT$6as_ref17h16e12cf85c6d49c4E:
Lfunc_begin165:
	.loc	6 122 0
	.cfi_startproc
	pushq	%rbp
	.cfi_def_cfa_offset 16
	.cfi_offset %rbp, -16
	movq	%rsp, %rbp
	.cfi_def_cfa_register %rbp
	subq	$16, %rsp
	movq	%rdi, -8(%rbp)
Ltmp524:
	.loc	6 125 20 prologue_end
	movq	(%rdi), %rdi
	callq	__ZN4core3ptr8non_null16NonNull$LT$T$GT$6as_ptr17ha18b2642a99fae07E
	movq	%rax, -16(%rbp)
	.loc	6 0 20 is_stmt 0
	movq	-16(%rbp), %rax
	.loc	6 126 6 is_stmt 1
	addq	$16, %rsp
	popq	%rbp
	retq
Ltmp525:
Lfunc_end165:
	.cfi_endproc

	.p2align	4, 0x90
__ZN4core3ptr9const_ptr33_$LT$impl$u20$$BP$const$u20$T$GT$12wrapping_add17h2fd821768cc2ac4cE:
Lfunc_begin166:
	.file	25 "/rustc/6c8927b0cf80ceee19386026cf9d7fd4fd9d486f/src/libcore/ptr/const_ptr.rs"
	.loc	25 595 0
	.cfi_startproc
	pushq	%rbp
	.cfi_def_cfa_offset 16
	.cfi_offset %rbp, -16
	movq	%rsp, %rbp
	.cfi_def_cfa_register %rbp
	subq	$32, %rsp
	movq	%rdi, -16(%rbp)
	movq	%rsi, -8(%rbp)
Ltmp526:
	.loc	25 599 9 prologue_end
	callq	__ZN4core3ptr9const_ptr33_$LT$impl$u20$$BP$const$u20$T$GT$15wrapping_offset17h2bd353a38d7a2b44E
	movq	%rax, -24(%rbp)
	.loc	25 0 9 is_stmt 0
	movq	-24(%rbp), %rax
	.loc	25 600 6 is_stmt 1
	addq	$32, %rsp
	popq	%rbp
	retq
Ltmp527:
Lfunc_end166:
	.cfi_endproc

	.p2align	4, 0x90
__ZN4core3ptr9const_ptr33_$LT$impl$u20$$BP$const$u20$T$GT$13guaranteed_eq17h05beb9f8708c512eE:
Lfunc_begin167:
	.loc	25 327 0
	.cfi_startproc
	pushq	%rbp
	.cfi_def_cfa_offset 16
	.cfi_offset %rbp, -16
	movq	%rsp, %rbp
	.cfi_def_cfa_register %rbp
	subq	$32, %rsp
	movq	%rdi, -24(%rbp)
	movq	%rsi, -16(%rbp)
Ltmp528:
	.loc	25 331 9 prologue_end
	cmpq	%rsi, %rdi
	sete	%al
	andb	$1, %al
	movb	%al, -1(%rbp)
	movb	-1(%rbp), %al
	movb	%al, -25(%rbp)
	.loc	25 0 9 is_stmt 0
	movb	-25(%rbp), %al
	.loc	25 332 6 is_stmt 1
	andb	$1, %al
	movzbl	%al, %eax
	addq	$32, %rsp
	popq	%rbp
	retq
Ltmp529:
Lfunc_end167:
	.cfi_endproc

	.p2align	4, 0x90
__ZN4core3ptr9const_ptr33_$LT$impl$u20$$BP$const$u20$T$GT$15wrapping_offset17h2bd353a38d7a2b44E:
Lfunc_begin168:
	.loc	25 220 0
	.cfi_startproc
	pushq	%rbp
	.cfi_def_cfa_offset 16
	.cfi_offset %rbp, -16
	movq	%rsp, %rbp
	.cfi_def_cfa_register %rbp
	subq	$32, %rsp
	movq	%rdi, -24(%rbp)
	movq	%rsi, -16(%rbp)
Ltmp530:
	.loc	25 225 18 prologue_end
	addq	%rsi, %rdi
	movq	%rdi, -8(%rbp)
	movq	-8(%rbp), %rax
	movq	%rax, -32(%rbp)
	.loc	25 0 18 is_stmt 0
	movq	-32(%rbp), %rax
	.loc	25 226 6 is_stmt 1
	addq	$32, %rsp
	popq	%rbp
	retq
Ltmp531:
Lfunc_end168:
	.cfi_endproc

	.p2align	4, 0x90
__ZN4core3ptr9const_ptr33_$LT$impl$u20$$BP$const$u20$T$GT$3add17h2a2b46a921464088E:
Lfunc_begin169:
	.loc	25 473 0
	.cfi_startproc
	pushq	%rbp
	.cfi_def_cfa_offset 16
	.cfi_offset %rbp, -16
	movq	%rsp, %rbp
	.cfi_def_cfa_register %rbp
	subq	$32, %rsp
	movq	%rdi, -16(%rbp)
	movq	%rsi, -8(%rbp)
Ltmp532:
	.loc	25 478 18 prologue_end
	callq	__ZN4core3ptr9const_ptr33_$LT$impl$u20$$BP$const$u20$T$GT$6offset17h1383d9b72e46d2d6E
	movq	%rax, -24(%rbp)
	.loc	25 0 18 is_stmt 0
	movq	-24(%rbp), %rax
	.loc	25 479 6 is_stmt 1
	addq	$32, %rsp
	popq	%rbp
	retq
Ltmp533:
Lfunc_end169:
	.cfi_endproc

	.p2align	4, 0x90
__ZN4core3ptr9const_ptr33_$LT$impl$u20$$BP$const$u20$T$GT$3add17h5d5cadd14c621929E:
Lfunc_begin170:
	.loc	25 473 0
	.cfi_startproc
	pushq	%rbp
	.cfi_def_cfa_offset 16
	.cfi_offset %rbp, -16
	movq	%rsp, %rbp
	.cfi_def_cfa_register %rbp
	subq	$32, %rsp
	movq	%rdi, -16(%rbp)
	movq	%rsi, -8(%rbp)
Ltmp534:
	.loc	25 478 18 prologue_end
	callq	__ZN4core3ptr9const_ptr33_$LT$impl$u20$$BP$const$u20$T$GT$6offset17he5924c1959ea8d7bE
	movq	%rax, -24(%rbp)
	.loc	25 0 18 is_stmt 0
	movq	-24(%rbp), %rax
	.loc	25 479 6 is_stmt 1
	addq	$32, %rsp
	popq	%rbp
	retq
Ltmp535:
Lfunc_end170:
	.cfi_endproc

	.p2align	4, 0x90
__ZN4core3ptr9const_ptr33_$LT$impl$u20$$BP$const$u20$T$GT$3add17h8728a14d749e295aE:
Lfunc_begin171:
	.loc	25 473 0
	.cfi_startproc
	pushq	%rbp
	.cfi_def_cfa_offset 16
	.cfi_offset %rbp, -16
	movq	%rsp, %rbp
	.cfi_def_cfa_register %rbp
	subq	$32, %rsp
	movq	%rdi, -16(%rbp)
	movq	%rsi, -8(%rbp)
Ltmp536:
	.loc	25 478 18 prologue_end
	callq	__ZN4core3ptr9const_ptr33_$LT$impl$u20$$BP$const$u20$T$GT$6offset17haca3d6009d6b9969E
	movq	%rax, -24(%rbp)
	.loc	25 0 18 is_stmt 0
	movq	-24(%rbp), %rax
	.loc	25 479 6 is_stmt 1
	addq	$32, %rsp
	popq	%rbp
	retq
Ltmp537:
Lfunc_end171:
	.cfi_endproc

	.p2align	4, 0x90
__ZN4core3ptr9const_ptr33_$LT$impl$u20$$BP$const$u20$T$GT$3add17hc89bb3ff9af44aa6E:
Lfunc_begin172:
	.loc	25 473 0
	.cfi_startproc
	pushq	%rbp
	.cfi_def_cfa_offset 16
	.cfi_offset %rbp, -16
	movq	%rsp, %rbp
	.cfi_def_cfa_register %rbp
	subq	$32, %rsp
	movq	%rdi, -16(%rbp)
	movq	%rsi, -8(%rbp)
Ltmp538:
	.loc	25 478 18 prologue_end
	callq	__ZN4core3ptr9const_ptr33_$LT$impl$u20$$BP$const$u20$T$GT$6offset17hde92c95ad5913d08E
	movq	%rax, -24(%rbp)
	.loc	25 0 18 is_stmt 0
	movq	-24(%rbp), %rax
	.loc	25 479 6 is_stmt 1
	addq	$32, %rsp
	popq	%rbp
	retq
Ltmp539:
Lfunc_end172:
	.cfi_endproc

	.p2align	4, 0x90
__ZN4core3ptr9const_ptr33_$LT$impl$u20$$BP$const$u20$T$GT$6offset17h1383d9b72e46d2d6E:
Lfunc_begin173:
	.loc	25 159 0
	.cfi_startproc
	pushq	%rbp
	.cfi_def_cfa_offset 16
	.cfi_offset %rbp, -16
	movq	%rsp, %rbp
	.cfi_def_cfa_register %rbp
	subq	$32, %rsp
	movq	%rdi, -24(%rbp)
	movq	%rsi, -16(%rbp)
Ltmp540:
	.loc	25 164 18 prologue_end
	shlq	$3, %rsi
	addq	%rsi, %rdi
	movq	%rdi, -8(%rbp)
	movq	-8(%rbp), %rax
	movq	%rax, -32(%rbp)
	.loc	25 0 18 is_stmt 0
	movq	-32(%rbp), %rax
	.loc	25 165 6 is_stmt 1
	addq	$32, %rsp
	popq	%rbp
	retq
Ltmp541:
Lfunc_end173:
	.cfi_endproc

	.p2align	4, 0x90
__ZN4core3ptr9const_ptr33_$LT$impl$u20$$BP$const$u20$T$GT$6offset17haca3d6009d6b9969E:
Lfunc_begin174:
	.loc	25 159 0
	.cfi_startproc
	pushq	%rbp
	.cfi_def_cfa_offset 16
	.cfi_offset %rbp, -16
	movq	%rsp, %rbp
	.cfi_def_cfa_register %rbp
	subq	$32, %rsp
	movq	%rdi, -24(%rbp)
	movq	%rsi, -16(%rbp)
Ltmp542:
	.loc	25 164 18 prologue_end
	addq	%rsi, %rdi
	movq	%rdi, -8(%rbp)
	movq	-8(%rbp), %rax
	movq	%rax, -32(%rbp)
	.loc	25 0 18 is_stmt 0
	movq	-32(%rbp), %rax
	.loc	25 165 6 is_stmt 1
	addq	$32, %rsp
	popq	%rbp
	retq
Ltmp543:
Lfunc_end174:
	.cfi_endproc

	.p2align	4, 0x90
__ZN4core3ptr9const_ptr33_$LT$impl$u20$$BP$const$u20$T$GT$6offset17hde92c95ad5913d08E:
Lfunc_begin175:
	.loc	25 159 0
	.cfi_startproc
	pushq	%rbp
	.cfi_def_cfa_offset 16
	.cfi_offset %rbp, -16
	movq	%rsp, %rbp
	.cfi_def_cfa_register %rbp
	subq	$32, %rsp
	movq	%rdi, -24(%rbp)
	movq	%rsi, -16(%rbp)
Ltmp544:
	.loc	25 164 18 prologue_end
	imulq	$24, %rsi, %rax
	addq	%rax, %rdi
	movq	%rdi, -8(%rbp)
	movq	-8(%rbp), %rax
	movq	%rax, -32(%rbp)
	.loc	25 0 18 is_stmt 0
	movq	-32(%rbp), %rax
	.loc	25 165 6 is_stmt 1
	addq	$32, %rsp
	popq	%rbp
	retq
Ltmp545:
Lfunc_end175:
	.cfi_endproc

	.p2align	4, 0x90
__ZN4core3ptr9const_ptr33_$LT$impl$u20$$BP$const$u20$T$GT$6offset17he5924c1959ea8d7bE:
Lfunc_begin176:
	.loc	25 159 0
	.cfi_startproc
	pushq	%rbp
	.cfi_def_cfa_offset 16
	.cfi_offset %rbp, -16
	movq	%rsp, %rbp
	.cfi_def_cfa_register %rbp
	subq	$32, %rsp
	movq	%rdi, -24(%rbp)
	movq	%rsi, -16(%rbp)
Ltmp546:
	.loc	25 164 18 prologue_end
	imulq	$24, %rsi, %rax
	addq	%rax, %rdi
	movq	%rdi, -8(%rbp)
	movq	-8(%rbp), %rax
	movq	%rax, -32(%rbp)
	.loc	25 0 18 is_stmt 0
	movq	-32(%rbp), %rax
	.loc	25 165 6 is_stmt 1
	addq	$32, %rsp
	popq	%rbp
	retq
Ltmp547:
Lfunc_end176:
	.cfi_endproc

	.p2align	4, 0x90
__ZN4core3ptr9const_ptr33_$LT$impl$u20$$BP$const$u20$T$GT$7is_null17h194fb921a630854dE:
Lfunc_begin177:
	.loc	25 27 0
	.cfi_startproc
	pushq	%rbp
	.cfi_def_cfa_offset 16
	.cfi_offset %rbp, -16
	movq	%rsp, %rbp
	.cfi_def_cfa_register %rbp
	subq	$16, %rsp
	movq	%rdi, -8(%rbp)
	movq	%rdi, -16(%rbp)
	movq	-16(%rbp), %rax
Ltmp548:
	.loc	25 30 9 prologue_end
	cmpq	$0, %rax
	sete	%cl
	.loc	25 31 6
	andb	$1, %cl
	movzbl	%cl, %edx
	movl	%edx, %eax
	addq	$16, %rsp
	popq	%rbp
	retq
Ltmp549:
Lfunc_end177:
	.cfi_endproc

	.p2align	4, 0x90
__ZN4core3ptr9const_ptr43_$LT$impl$u20$$BP$const$u20$$u5b$T$u5d$$GT$3len17h6207e7638c3f7b47E:
Lfunc_begin178:
	.loc	25 823 0
	.cfi_startproc
	pushq	%rbp
	.cfi_def_cfa_offset 16
	.cfi_offset %rbp, -16
	movq	%rsp, %rbp
	.cfi_def_cfa_register %rbp
	subq	$32, %rsp
	movq	%rdi, -16(%rbp)
	movq	%rsi, -8(%rbp)
Ltmp550:
	.loc	25 826 18 prologue_end
	movq	%rdi, -32(%rbp)
	movq	%rsi, -24(%rbp)
	movq	-24(%rbp), %rax
	.loc	25 827 6
	addq	$32, %rsp
	popq	%rbp
	retq
Ltmp551:
Lfunc_end178:
	.cfi_endproc

	.p2align	4, 0x90
__ZN4core3ptr9const_ptr43_$LT$impl$u20$$BP$const$u20$$u5b$T$u5d$$GT$6as_ptr17ha1bbf9c13520980aE:
Lfunc_begin179:
	.loc	25 845 0
	.cfi_startproc
	pushq	%rbp
	.cfi_def_cfa_offset 16
	.cfi_offset %rbp, -16
	movq	%rsp, %rbp
	.cfi_def_cfa_register %rbp
	subq	$16, %rsp
	movq	%rdi, -16(%rbp)
	movq	%rsi, -8(%rbp)
Ltmp552:
	.loc	25 847 6 prologue_end
	movq	%rdi, %rax
	addq	$16, %rsp
	popq	%rbp
	retq
Ltmp553:
Lfunc_end179:
	.cfi_endproc

	.p2align	4, 0x90
__ZN4core3ptr9const_ptr43_$LT$impl$u20$$BP$const$u20$$u5b$T$u5d$$GT$6as_ptr17hc3a06627a8e8c191E:
Lfunc_begin180:
	.loc	25 845 0
	.cfi_startproc
	pushq	%rbp
	.cfi_def_cfa_offset 16
	.cfi_offset %rbp, -16
	movq	%rsp, %rbp
	.cfi_def_cfa_register %rbp
	subq	$16, %rsp
	movq	%rdi, -16(%rbp)
	movq	%rsi, -8(%rbp)
Ltmp554:
	.loc	25 847 6 prologue_end
	movq	%rdi, %rax
	addq	$16, %rsp
	popq	%rbp
	retq
Ltmp555:
Lfunc_end180:
	.cfi_endproc

	.p2align	4, 0x90
__ZN4core3ptr9const_ptr43_$LT$impl$u20$$BP$const$u20$$u5b$T$u5d$$GT$6as_ptr17hc879d6c73402d400E:
Lfunc_begin181:
	.loc	25 845 0
	.cfi_startproc
	pushq	%rbp
	.cfi_def_cfa_offset 16
	.cfi_offset %rbp, -16
	movq	%rsp, %rbp
	.cfi_def_cfa_register %rbp
	subq	$16, %rsp
	movq	%rdi, -16(%rbp)
	movq	%rsi, -8(%rbp)
Ltmp556:
	.loc	25 847 6 prologue_end
	movq	%rdi, %rax
	addq	$16, %rsp
	popq	%rbp
	retq
Ltmp557:
Lfunc_end181:
	.cfi_endproc

	.p2align	4, 0x90
__ZN4core3ptr9const_ptr43_$LT$impl$u20$$BP$const$u20$$u5b$T$u5d$$GT$6as_ptr17hf9e5bc798ef14d57E:
Lfunc_begin182:
	.loc	25 845 0
	.cfi_startproc
	pushq	%rbp
	.cfi_def_cfa_offset 16
	.cfi_offset %rbp, -16
	movq	%rsp, %rbp
	.cfi_def_cfa_register %rbp
	subq	$16, %rsp
	movq	%rdi, -16(%rbp)
	movq	%rsi, -8(%rbp)
Ltmp558:
	.loc	25 847 6 prologue_end
	movq	%rdi, %rax
	addq	$16, %rsp
	popq	%rbp
	retq
Ltmp559:
Lfunc_end182:
	.cfi_endproc

	.p2align	4, 0x90
__ZN4core3str11unwrap_or_017h996891c99de12baeE:
Lfunc_begin183:
	.loc	9 506 0
	.cfi_startproc
	pushq	%rbp
	.cfi_def_cfa_offset 16
	.cfi_offset %rbp, -16
	movq	%rsp, %rbp
	.cfi_def_cfa_register %rbp
	subq	$16, %rsp
	movq	%rdi, -16(%rbp)
Ltmp560:
	.loc	9 508 9 prologue_end
	movq	-16(%rbp), %rax
	testq	%rax, %rax
	setne	%cl
	movzbl	%cl, %edx
	movl	%edx, %eax
	je	LBB183_1
	jmp	LBB183_5
LBB183_5:
	jmp	LBB183_3
LBB183_1:
	.loc	9 509 17
	movb	$0, -2(%rbp)
	.loc	9 507 5
	jmp	LBB183_4
	.loc	9 507 11 is_stmt 0
	ud2
LBB183_3:
	.loc	9 508 15 is_stmt 1
	movq	-16(%rbp), %rax
	movb	(%rax), %cl
	movb	%cl, -1(%rbp)
Ltmp561:
	.loc	9 508 24 is_stmt 0
	movb	%cl, -2(%rbp)
Ltmp562:
LBB183_4:
	.loc	9 511 2 is_stmt 1
	movb	-2(%rbp), %al
	addq	$16, %rsp
	popq	%rbp
	retq
Ltmp563:
Lfunc_end183:
	.cfi_endproc

	.p2align	4, 0x90
__ZN4core3str15next_code_point17h177ff10bbc844f68E:
Lfunc_begin184:
	.loc	9 517 0
	.cfi_startproc
	pushq	%rbp
	.cfi_def_cfa_offset 16
	.cfi_offset %rbp, -16
	movq	%rsp, %rbp
	.cfi_def_cfa_register %rbp
	subq	$160, %rsp
	movq	%rdi, -48(%rbp)
	movq	%rdi, -80(%rbp)
Ltmp564:
	.loc	9 519 14 prologue_end
	callq	__ZN85_$LT$core..slice..Iter$LT$T$GT$$u20$as$u20$core..iter..traits..iterator..Iterator$GT$4next17ha4e52326267c942bE
	movq	%rax, -88(%rbp)
	.loc	9 0 14 is_stmt 0
	movq	-88(%rbp), %rdi
	.loc	9 519 14
	callq	__ZN69_$LT$core..option..Option$LT$T$GT$$u20$as$u20$core..ops..try..Try$GT$11into_result17h71f5f901e7030385E
	movq	%rax, -64(%rbp)
	.loc	9 519 26
	movq	-64(%rbp), %rax
	testq	%rax, %rax
	sete	%cl
	movzbl	%cl, %edx
	movl	%edx, %eax
	jne	LBB184_3
	jmp	LBB184_28
LBB184_28:
	jmp	LBB184_5
LBB184_3:
	.loc	9 519 14
	movq	-64(%rbp), %rax
	movq	%rax, -32(%rbp)
	.loc	9 519 13
	movb	(%rax), %cl
	movb	%cl, -17(%rbp)
Ltmp565:
	.loc	9 520 8 is_stmt 1
	cmpb	$-128, %cl
	movb	%cl, -89(%rbp)
	.loc	9 520 5 is_stmt 0
	jb	LBB184_11
	jmp	LBB184_10
Ltmp566:
	.loc	9 519 14 is_stmt 1
	ud2
LBB184_5:
Ltmp567:
	.loc	9 519 26 is_stmt 0
	callq	__ZN50_$LT$T$u20$as$u20$core..convert..From$LT$T$GT$$GT$4from17h1c5b5f9c70f26c5bE
	jmp	LBB184_7
Ltmp568:
LBB184_6:
	.loc	9 545 2 is_stmt 1
	movl	-72(%rbp), %eax
	movl	-68(%rbp), %edx
	addq	$160, %rsp
	popq	%rbp
	retq
LBB184_7:
Ltmp569:
	.loc	9 519 26
	callq	__ZN69_$LT$core..option..Option$LT$T$GT$$u20$as$u20$core..ops..try..Try$GT$10from_error17h55986a8a165a9dbbE
	movl	%edx, -68(%rbp)
	movl	%eax, -72(%rbp)
Ltmp570:
	.loc	9 519 26 is_stmt 0
	jmp	LBB184_9
LBB184_9:
	jmp	LBB184_6
LBB184_10:
	.loc	9 0 26
	movb	-89(%rbp), %al
Ltmp571:
	.loc	9 527 16 is_stmt 1
	movzbl	%al, %edi
	movl	$2, %esi
	callq	__ZN4core3str15utf8_first_byte17h1c7de09286cbde91E
	movl	%eax, -16(%rbp)
	movl	%eax, -96(%rbp)
	jmp	LBB184_12
LBB184_11:
	.loc	9 0 16 is_stmt 0
	movb	-89(%rbp), %al
	.loc	9 521 21 is_stmt 1
	movzbl	%al, %ecx
	.loc	9 521 16 is_stmt 0
	movl	%ecx, -68(%rbp)
	movl	$1, -72(%rbp)
Ltmp572:
	.loc	9 521 9
	jmp	LBB184_9
LBB184_12:
	.loc	9 0 9
	movq	-80(%rbp), %rdi
Ltmp573:
	.loc	9 528 25 is_stmt 1
	callq	__ZN85_$LT$core..slice..Iter$LT$T$GT$$u20$as$u20$core..iter..traits..iterator..Iterator$GT$4next17ha4e52326267c942bE
	movq	%rax, -104(%rbp)
	.loc	9 0 25 is_stmt 0
	movq	-104(%rbp), %rdi
	.loc	9 528 13
	callq	__ZN4core3str11unwrap_or_017h996891c99de12baeE
	movb	%al, -10(%rbp)
	movb	%al, -105(%rbp)
	.loc	9 0 13
	movl	-96(%rbp), %edi
	movb	-105(%rbp), %al
Ltmp574:
	.loc	9 529 18 is_stmt 1
	movzbl	%al, %esi
	callq	__ZN4core3str18utf8_acc_cont_byte17h34366449ec553377E
	movl	%eax, -52(%rbp)
	.loc	9 0 18 is_stmt 0
	movb	-89(%rbp), %al
Ltmp575:
	.loc	9 530 8 is_stmt 1
	cmpb	$-32, %al
	.loc	9 530 5 is_stmt 0
	jae	LBB184_17
	jmp	LBB184_27
LBB184_17:
	.loc	9 0 5
	movq	-80(%rbp), %rdi
	.loc	9 533 29 is_stmt 1
	callq	__ZN85_$LT$core..slice..Iter$LT$T$GT$$u20$as$u20$core..iter..traits..iterator..Iterator$GT$4next17ha4e52326267c942bE
	movq	%rax, -120(%rbp)
	.loc	9 0 29 is_stmt 0
	movq	-120(%rbp), %rdi
	.loc	9 533 17
	callq	__ZN4core3str11unwrap_or_017h996891c99de12baeE
	movb	%al, -9(%rbp)
	movb	%al, -121(%rbp)
	.loc	9 0 17
	movb	-105(%rbp), %al
Ltmp576:
	.loc	9 534 38 is_stmt 1
	andb	$63, %al
	movzbl	%al, %edi
	movb	-121(%rbp), %al
	.loc	9 534 19 is_stmt 0
	movzbl	%al, %esi
	callq	__ZN4core3str18utf8_acc_cont_byte17h34366449ec553377E
	movl	%eax, -8(%rbp)
	movl	%eax, -128(%rbp)
	.loc	9 0 19
	movl	-96(%rbp), %eax
Ltmp577:
	.loc	9 535 14 is_stmt 1
	shll	$12, %eax
	movl	-128(%rbp), %ecx
	.loc	9 535 9 is_stmt 0
	orl	%ecx, %eax
	movl	%eax, -52(%rbp)
	movb	-89(%rbp), %dl
	.loc	9 536 12 is_stmt 1
	cmpb	$-16, %dl
	.loc	9 536 9 is_stmt 0
	jae	LBB184_22
	jmp	LBB184_26
LBB184_22:
	.loc	9 0 9
	movq	-80(%rbp), %rdi
	.loc	9 539 33 is_stmt 1
	callq	__ZN85_$LT$core..slice..Iter$LT$T$GT$$u20$as$u20$core..iter..traits..iterator..Iterator$GT$4next17ha4e52326267c942bE
	movq	%rax, -136(%rbp)
	.loc	9 0 33 is_stmt 0
	movq	-136(%rbp), %rdi
	.loc	9 539 21
	callq	__ZN4core3str11unwrap_or_017h996891c99de12baeE
	movb	%al, -1(%rbp)
	movb	%al, -137(%rbp)
	.loc	9 0 21
	movl	-96(%rbp), %eax
Ltmp578:
	.loc	9 540 18 is_stmt 1
	andl	$7, %eax
	shll	$18, %eax
	movl	-128(%rbp), %edi
	movb	-137(%rbp), %cl
	.loc	9 540 37 is_stmt 0
	movzbl	%cl, %esi
	movl	%eax, -144(%rbp)
	callq	__ZN4core3str18utf8_acc_cont_byte17h34366449ec553377E
	movl	%eax, -148(%rbp)
	.loc	9 0 37
	movl	-144(%rbp), %eax
	movl	-148(%rbp), %ecx
	.loc	9 540 13
	orl	%ecx, %eax
	movl	%eax, -52(%rbp)
Ltmp579:
LBB184_26:
	.loc	9 530 5 is_stmt 1
	jmp	LBB184_27
LBB184_27:
	.loc	9 544 10
	movl	-52(%rbp), %eax
	.loc	9 544 5 is_stmt 0
	movl	%eax, -68(%rbp)
	movl	$1, -72(%rbp)
Ltmp580:
	.loc	9 545 2 is_stmt 1
	jmp	LBB184_6
Ltmp581:
Lfunc_end184:
	.cfi_endproc

	.p2align	4, 0x90
__ZN4core3str15utf8_first_byte17h1c7de09286cbde91E:
Lfunc_begin185:
	.loc	9 488 0
	.cfi_startproc
	pushq	%rbp
	.cfi_def_cfa_offset 16
	.cfi_offset %rbp, -16
	movq	%rsp, %rbp
	.cfi_def_cfa_register %rbp
	pushq	%rax
	movb	%dil, -5(%rbp)
	movl	%esi, -4(%rbp)
Ltmp582:
	.loc	9 489 13 prologue_end
	andb	$7, %sil
	movb	%sil, %cl
	movb	$127, %al
	shrb	%cl, %al
	.loc	9 489 5 is_stmt 0
	andb	%al, %dil
	movzbl	%dil, %eax
	.loc	9 490 2 is_stmt 1
	addq	$8, %rsp
	popq	%rbp
	retq
Ltmp583:
Lfunc_end185:
	.cfi_endproc

	.p2align	4, 0x90
__ZN4core3str18utf8_acc_cont_byte17h34366449ec553377E:
Lfunc_begin186:
	.loc	9 494 0
	.cfi_startproc
	pushq	%rbp
	.cfi_def_cfa_offset 16
	.cfi_offset %rbp, -16
	movq	%rsp, %rbp
	.cfi_def_cfa_register %rbp
	pushq	%rax
	movl	%edi, -8(%rbp)
	movb	%sil, -1(%rbp)
Ltmp584:
	.loc	9 495 5 prologue_end
	shll	$6, %edi
	.loc	9 495 17 is_stmt 0
	andb	$63, %sil
	movzbl	%sil, %eax
	.loc	9 495 5
	orl	%eax, %edi
	.loc	9 496 2 is_stmt 1
	movl	%edi, %eax
	addq	$8, %rsp
	popq	%rbp
	retq
Ltmp585:
Lfunc_end186:
	.cfi_endproc

	.p2align	4, 0x90
__ZN4core3str19from_utf8_unchecked17h5d9426221bb336caE:
Lfunc_begin187:
	.loc	9 417 0
	.cfi_startproc
	pushq	%rbp
	.cfi_def_cfa_offset 16
	.cfi_offset %rbp, -16
	movq	%rsp, %rbp
	.cfi_def_cfa_register %rbp
	subq	$16, %rsp
	movq	%rdi, -16(%rbp)
	movq	%rsi, -8(%rbp)
Ltmp586:
	.loc	9 423 2 prologue_end
	movq	%rdi, %rax
	movq	%rsi, %rdx
	addq	$16, %rsp
	popq	%rbp
	retq
Ltmp587:
Lfunc_end187:
	.cfi_endproc

	.p2align	4, 0x90
__ZN4core3str21_$LT$impl$u20$str$GT$11starts_with17h5f2f16aed6a9abe9E:
Lfunc_begin188:
	.loc	9 3086 0
	.cfi_startproc
	pushq	%rbp
	.cfi_def_cfa_offset 16
	.cfi_offset %rbp, -16
	movq	%rsp, %rbp
	.cfi_def_cfa_register %rbp
	subq	$64, %rsp
	movq	%rdi, -32(%rbp)
	movq	%rsi, -24(%rbp)
	movq	%rdx, -16(%rbp)
	movq	%rcx, -8(%rbp)
	movq	%rdi, -40(%rbp)
Ltmp588:
	.loc	9 3087 9 prologue_end
	movq	%rdx, %rdi
	movq	%rsi, -48(%rbp)
	movq	%rcx, %rsi
	movq	-40(%rbp), %rdx
	movq	-48(%rbp), %rcx
	callq	__ZN55_$LT$$RF$str$u20$as$u20$core..str..pattern..Pattern$GT$12is_prefix_of17h712e5c23a05eeec7E
	movb	%al, -49(%rbp)
	.loc	9 0 9 is_stmt 0
	movb	-49(%rbp), %al
	.loc	9 3088 6 is_stmt 1
	andb	$1, %al
	movzbl	%al, %eax
	addq	$64, %rsp
	popq	%rbp
	retq
Ltmp589:
Lfunc_end188:
	.cfi_endproc

	.p2align	4, 0x90
__ZN4core3str21_$LT$impl$u20$str$GT$13get_unchecked17he881dfc2600966fbE:
Lfunc_begin189:
	.loc	9 2533 0
	.cfi_startproc
	pushq	%rbp
	.cfi_def_cfa_offset 16
	.cfi_offset %rbp, -16
	movq	%rsp, %rbp
	.cfi_def_cfa_register %rbp
	subq	$64, %rsp
	movq	%rdi, -32(%rbp)
	movq	%rsi, -24(%rbp)
	movq	%rdx, -16(%rbp)
	movq	%rcx, -8(%rbp)
	movq	%rdi, -40(%rbp)
Ltmp590:
	.loc	9 2537 20 prologue_end
	movq	%rdx, %rdi
	movq	%rsi, -48(%rbp)
	movq	%rcx, %rsi
	movq	-40(%rbp), %rdx
	movq	-48(%rbp), %rcx
	callq	__ZN4core3str6traits101_$LT$impl$u20$core..slice..SliceIndex$LT$str$GT$$u20$for$u20$core..ops..range..Range$LT$usize$GT$$GT$13get_unchecked17hbcb6d518b4643c4cE
	movq	%rax, -56(%rbp)
	movq	%rdx, -64(%rbp)
	.loc	9 0 20 is_stmt 0
	movq	-56(%rbp), %rax
	movq	-64(%rbp), %rdx
	.loc	9 2538 6 is_stmt 1
	addq	$64, %rsp
	popq	%rbp
	retq
Ltmp591:
Lfunc_end189:
	.cfi_endproc

	.p2align	4, 0x90
__ZN4core3str21_$LT$impl$u20$str$GT$16is_char_boundary17h279e34e4a249532eE:
Lfunc_begin190:
	.loc	9 2322 0
	.cfi_startproc
	pushq	%rbp
	.cfi_def_cfa_offset 16
	.cfi_offset %rbp, -16
	movq	%rsp, %rbp
	.cfi_def_cfa_register %rbp
	subq	$128, %rsp
	movq	%rdi, -64(%rbp)
	movq	%rsi, -56(%rbp)
	movq	%rdx, -48(%rbp)
Ltmp592:
	.loc	9 2326 12 prologue_end
	cmpq	$0, %rdx
	movq	%rdi, -88(%rbp)
	movq	%rsi, -96(%rbp)
	movq	%rdx, -104(%rbp)
	jne	LBB190_3
LBB190_1:
	movb	$1, -73(%rbp)
	jmp	LBB190_4
LBB190_2:
	movb	$0, -73(%rbp)
	jmp	LBB190_4
LBB190_3:
	.loc	9 0 12 is_stmt 0
	movq	-88(%rbp), %rdi
	movq	-96(%rbp), %rsi
	.loc	9 2326 35
	callq	__ZN4core3str21_$LT$impl$u20$str$GT$3len17hbdfaf38d1a361959E
	movq	%rax, -112(%rbp)
	jmp	LBB190_5
LBB190_4:
	.loc	9 2326 9
	testb	$1, -73(%rbp)
	jne	LBB190_7
	jmp	LBB190_6
LBB190_5:
	.loc	9 0 9
	movq	-104(%rbp), %rax
	movq	-112(%rbp), %rcx
	.loc	9 2326 26
	cmpq	%rcx, %rax
	.loc	9 2326 12
	je	LBB190_1
	jmp	LBB190_2
LBB190_6:
	.loc	9 0 12
	movq	-88(%rbp), %rax
	movq	%rax, -16(%rbp)
	movq	-96(%rbp), %rcx
	movq	%rcx, -8(%rbp)
Ltmp593:
	.loc	9 2359 18 is_stmt 1
	movq	%rax, -32(%rbp)
	movq	%rcx, -24(%rbp)
	movq	-32(%rbp), %rdi
	movq	-24(%rbp), %rsi
	movq	%rdi, -120(%rbp)
	movq	%rsi, -128(%rbp)
Ltmp594:
	.loc	9 2329 15
	jmp	LBB190_9
LBB190_7:
	.loc	9 2327 20
	movb	$1, -74(%rbp)
LBB190_8:
	.loc	9 2334 6
	movb	-74(%rbp), %al
	andb	$1, %al
	movzbl	%al, %eax
	addq	$128, %rsp
	popq	%rbp
	retq
LBB190_9:
	.loc	9 0 6 is_stmt 0
	movq	-120(%rbp), %rdi
	movq	-128(%rbp), %rsi
	movq	-104(%rbp), %rdx
	.loc	9 2329 15 is_stmt 1
	callq	__ZN4core5slice29_$LT$impl$u20$$u5b$T$u5d$$GT$3get17h099a0e28f6c4d227E
	movq	%rax, -72(%rbp)
	.loc	9 2330 13
	movq	-72(%rbp), %rax
	testq	%rax, %rax
	setne	%cl
	movzbl	%cl, %edx
	movl	%edx, %eax
	je	LBB190_13
	jmp	LBB190_15
LBB190_15:
	.loc	9 2332 19
	movq	-72(%rbp), %rax
	movb	(%rax), %cl
	movb	%cl, -33(%rbp)
Ltmp595:
	.loc	9 2332 25 is_stmt 0
	cmpb	$-64, %cl
	setge	%cl
	andb	$1, %cl
	movb	%cl, -74(%rbp)
Ltmp596:
	.loc	9 2329 9 is_stmt 1
	jmp	LBB190_14
	.loc	9 2329 15 is_stmt 0
	ud2
LBB190_13:
	.loc	9 2330 21 is_stmt 1
	movb	$0, -74(%rbp)
LBB190_14:
	.loc	9 2334 6
	jmp	LBB190_8
Ltmp597:
Lfunc_end190:
	.cfi_endproc

	.p2align	4, 0x90
__ZN4core3str21_$LT$impl$u20$str$GT$3len17hbdfaf38d1a361959E:
Lfunc_begin191:
	.loc	9 2273 0
	.cfi_startproc
	pushq	%rbp
	.cfi_def_cfa_offset 16
	.cfi_offset %rbp, -16
	movq	%rsp, %rbp
	.cfi_def_cfa_register %rbp
	subq	$80, %rsp
	movq	%rdi, -48(%rbp)
	movq	%rsi, -40(%rbp)
	movq	%rdi, -16(%rbp)
	movq	%rsi, -8(%rbp)
Ltmp598:
	.loc	9 2359 18 prologue_end
	movq	%rdi, -32(%rbp)
	movq	%rsi, -24(%rbp)
	movq	-32(%rbp), %rdi
	movq	-24(%rbp), %rsi
	movq	%rdi, -56(%rbp)
	movq	%rsi, -64(%rbp)
Ltmp599:
	.loc	9 0 18 is_stmt 0
	movq	-56(%rbp), %rdi
	movq	-64(%rbp), %rsi
	.loc	9 2274 9 is_stmt 1
	callq	__ZN4core5slice29_$LT$impl$u20$$u5b$T$u5d$$GT$3len17h05b7456db7c7fb4fE
	movq	%rax, -72(%rbp)
	.loc	9 0 9 is_stmt 0
	movq	-72(%rbp), %rax
	.loc	9 2275 6 is_stmt 1
	addq	$80, %rsp
	popq	%rbp
	retq
Ltmp600:
Lfunc_end191:
	.cfi_endproc

	.p2align	4, 0x90
__ZN4core3str21_$LT$impl$u20$str$GT$5chars17h6212e3ee34792041E:
Lfunc_begin192:
	.loc	9 2799 0
	.cfi_startproc
	pushq	%rbp
	.cfi_def_cfa_offset 16
	.cfi_offset %rbp, -16
	movq	%rsp, %rbp
	.cfi_def_cfa_register %rbp
	subq	$96, %rsp
	movq	%rdi, -48(%rbp)
	movq	%rsi, -40(%rbp)
	movq	%rdi, -16(%rbp)
	movq	%rsi, -8(%rbp)
Ltmp601:
	.loc	9 2359 18 prologue_end
	movq	%rdi, -32(%rbp)
	movq	%rsi, -24(%rbp)
	movq	-32(%rbp), %rdi
	movq	-24(%rbp), %rsi
	movq	%rdi, -72(%rbp)
	movq	%rsi, -80(%rbp)
Ltmp602:
	.loc	9 0 18 is_stmt 0
	movq	-72(%rbp), %rdi
	movq	-80(%rbp), %rsi
	.loc	9 2800 23 is_stmt 1
	callq	__ZN4core5slice29_$LT$impl$u20$$u5b$T$u5d$$GT$4iter17ha3607d37619c5012E
	movq	%rax, -88(%rbp)
	movq	%rdx, -96(%rbp)
	.loc	9 0 23 is_stmt 0
	movq	-88(%rbp), %rax
	.loc	9 2800 9
	movq	%rax, -64(%rbp)
	movq	-96(%rbp), %rcx
	movq	%rcx, -56(%rbp)
	.loc	9 2801 6 is_stmt 1
	movq	-64(%rbp), %rax
	movq	-56(%rbp), %rdx
	addq	$96, %rsp
	popq	%rbp
	retq
Ltmp603:
Lfunc_end192:
	.cfi_endproc

	.p2align	4, 0x90
__ZN4core3str21_$LT$impl$u20$str$GT$5parse17h7153ef48cb764e79E:
Lfunc_begin193:
	.loc	9 4268 0
	.cfi_startproc
	pushq	%rbp
	.cfi_def_cfa_offset 16
	.cfi_offset %rbp, -16
	movq	%rsp, %rbp
	.cfi_def_cfa_register %rbp
	subq	$32, %rsp
	movq	%rdi, -24(%rbp)
	movq	%rsi, -16(%rbp)
Ltmp604:
	.loc	9 4269 9 prologue_end
	callq	__ZN4core3num52_$LT$impl$u20$core..str..FromStr$u20$for$u20$u32$GT$8from_str17h7755800c3765c881E
	movq	%rax, -8(%rbp)
	movq	-8(%rbp), %rax
	movq	%rax, -32(%rbp)
	.loc	9 4270 6
	movq	-32(%rbp), %rax
	addq	$32, %rsp
	popq	%rbp
	retq
Ltmp605:
Lfunc_end193:
	.cfi_endproc

	.p2align	4, 0x90
__ZN4core3str21_$LT$impl$u20$str$GT$5split17hadd4aeb90562e8f1E:
Lfunc_begin194:
	.loc	9 3320 0
	.cfi_startproc
	.cfi_personality 155, _rust_eh_personality
	.cfi_lsda 16, Lexception23
	pushq	%rbp
	.cfi_def_cfa_offset 16
	.cfi_offset %rbp, -16
	movq	%rsp, %rbp
	.cfi_def_cfa_register %rbp
	subq	$224, %rsp
	movq	%rdi, %rax
	movq	%rsi, -40(%rbp)
	movq	%rdx, -32(%rbp)
	movl	%ecx, -20(%rbp)
Ltmp611:
	.loc	9 3321 15 prologue_end
	movb	$0, -41(%rbp)
	movb	$1, -41(%rbp)
Ltmp606:
	movq	%rdi, -176(%rbp)
	.loc	9 3323 18
	movq	%rsi, %rdi
	movq	%rsi, -184(%rbp)
	movq	%rdx, %rsi
	movl	%ecx, -188(%rbp)
	movq	%rdx, -200(%rbp)
	movq	%rax, -208(%rbp)
	callq	__ZN4core3str21_$LT$impl$u20$str$GT$3len17hbdfaf38d1a361959E
Ltmp607:
	movq	%rax, -216(%rbp)
	jmp	LBB194_2
LBB194_1:
	.loc	9 3320 5
	movq	-16(%rbp), %rdi
	callq	__Unwind_Resume
	ud2
LBB194_2:
	.loc	9 3324 22
	movb	$0, -41(%rbp)
Ltmp608:
	leaq	-96(%rbp), %rdi
	movl	-188(%rbp), %esi
	movq	-184(%rbp), %rdx
	movq	-200(%rbp), %rcx
	callq	__ZN52_$LT$char$u20$as$u20$core..str..pattern..Pattern$GT$13into_searcher17h3a8d5f0dc88c0b5fE
Ltmp609:
	jmp	LBB194_3
LBB194_3:
	.loc	9 3321 15
	movq	$0, -168(%rbp)
	movq	-216(%rbp), %rax
	movq	%rax, -160(%rbp)
	leaq	-168(%rbp), %rcx
	movq	%rcx, %rdx
	addq	$16, %rdx
	leaq	-96(%rbp), %rsi
	movq	%rdx, %rdi
	movl	$48, %edx
	movq	%rcx, -224(%rbp)
	callq	_memcpy
	movb	$1, -104(%rbp)
	movb	$0, -103(%rbp)
	movq	-176(%rbp), %rax
	movq	-224(%rbp), %rcx
	.loc	9 3321 9 is_stmt 0
	movq	%rax, %rdi
	movq	%rcx, %rsi
	movl	$72, %edx
	callq	_memcpy
	movq	-208(%rbp), %rax
	.loc	9 3328 6 is_stmt 1
	addq	$224, %rsp
	popq	%rbp
	retq
LBB194_4:
	.loc	9 3328 5 is_stmt 0
	movb	$0, -41(%rbp)
	jmp	LBB194_1
LBB194_5:
	testb	$1, -41(%rbp)
	jne	LBB194_4
	jmp	LBB194_1
Ltmp612:
LBB194_6:
Ltmp610:
	.loc	9 0 5
	movq	%rax, -16(%rbp)
	movl	%edx, -8(%rbp)
	jmp	LBB194_5
Lfunc_end194:
	.cfi_endproc
	.section	__TEXT,__gcc_except_tab
	.p2align	2
GCC_except_table194:
Lexception23:
	.byte	255
	.byte	255
	.byte	1
	.uleb128 Lcst_end23-Lcst_begin23
Lcst_begin23:
	.uleb128 Ltmp606-Lfunc_begin194
	.uleb128 Ltmp607-Ltmp606
	.uleb128 Ltmp610-Lfunc_begin194
	.byte	0
	.uleb128 Ltmp607-Lfunc_begin194
	.uleb128 Ltmp608-Ltmp607
	.byte	0
	.byte	0
	.uleb128 Ltmp608-Lfunc_begin194
	.uleb128 Ltmp609-Ltmp608
	.uleb128 Ltmp610-Lfunc_begin194
	.byte	0
	.uleb128 Ltmp609-Lfunc_begin194
	.uleb128 Lfunc_end194-Ltmp609
	.byte	0
	.byte	0
Lcst_end23:
	.p2align	2

	.section	__TEXT,__text,regular,pure_instructions
	.p2align	4, 0x90
__ZN4core3str21_$LT$impl$u20$str$GT$8contains17hfbb162ac1422ec0bE:
Lfunc_begin195:
	.loc	9 3061 0 is_stmt 1
	.cfi_startproc
	pushq	%rbp
	.cfi_def_cfa_offset 16
	.cfi_offset %rbp, -16
	movq	%rsp, %rbp
	.cfi_def_cfa_register %rbp
	subq	$64, %rsp
	movq	%rdi, -32(%rbp)
	movq	%rsi, -24(%rbp)
	movq	%rdx, -16(%rbp)
	movq	%rcx, -8(%rbp)
	movq	%rdi, -40(%rbp)
Ltmp613:
	.loc	9 3062 9 prologue_end
	movq	%rdx, %rdi
	movq	%rsi, -48(%rbp)
	movq	%rcx, %rsi
	movq	-40(%rbp), %rdx
	movq	-48(%rbp), %rcx
	callq	__ZN4core3str7pattern7Pattern15is_contained_in17h1a8d25aadb4a6397E
	movb	%al, -49(%rbp)
	.loc	9 0 9 is_stmt 0
	movb	-49(%rbp), %al
	.loc	9 3063 6 is_stmt 1
	andb	$1, %al
	movzbl	%al, %eax
	addq	$64, %rsp
	popq	%rbp
	retq
Ltmp614:
Lfunc_end195:
	.cfi_endproc

	.p2align	4, 0x90
__ZN4core3str22SplitInternal$LT$P$GT$4next17ha37fb1faca805eb1E:
Lfunc_begin196:
	.loc	9 1118 0
	.cfi_startproc
	pushq	%rbp
	.cfi_def_cfa_offset 16
	.cfi_offset %rbp, -16
	movq	%rsp, %rbp
	.cfi_def_cfa_register %rbp
	subq	$160, %rsp
	movq	%rdi, -56(%rbp)
Ltmp615:
	.loc	9 1119 9 prologue_end
	testb	$1, 65(%rdi)
	movq	%rdi, -120(%rbp)
	jne	LBB196_2
	.loc	9 0 9 is_stmt 0
	movq	-120(%rbp), %rax
	.loc	9 1123 24 is_stmt 1
	addq	$16, %rax
	movq	%rax, %rdi
	callq	__ZN81_$LT$core..str..pattern..CharSearcher$u20$as$u20$core..str..pattern..Searcher$GT$8haystack17ha963671125b6b0a7E
	movq	%rax, -48(%rbp)
	movq	%rdx, -40(%rbp)
	movq	%rax, -128(%rbp)
	movq	%rdx, -136(%rbp)
	jmp	LBB196_4
LBB196_2:
	.loc	9 1120 20
	movq	$0, -112(%rbp)
LBB196_3:
	.loc	9 1133 6
	movq	-112(%rbp), %rax
	movq	-104(%rbp), %rdx
	addq	$160, %rsp
	popq	%rbp
	retq
LBB196_4:
	.loc	9 0 6 is_stmt 0
	movq	-120(%rbp), %rax
Ltmp616:
	.loc	9 1124 15 is_stmt 1
	addq	$16, %rax
	leaq	-96(%rbp), %rdi
	movq	%rax, %rsi
	callq	__ZN81_$LT$core..str..pattern..CharSearcher$u20$as$u20$core..str..pattern..Searcher$GT$10next_match17ha730ad28a4750a26E
	.loc	9 1126 13
	movq	-96(%rbp), %rax
	testq	%rax, %rax
	je	LBB196_6
	jmp	LBB196_12
LBB196_12:
	jmp	LBB196_8
LBB196_6:
	.loc	9 0 13 is_stmt 0
	movq	-120(%rbp), %rdi
	.loc	9 1131 21 is_stmt 1
	callq	__ZN4core3str22SplitInternal$LT$P$GT$7get_end17hb1e0b86942bf8eaeE
	movq	%rdx, -104(%rbp)
	movq	%rax, -112(%rbp)
	jmp	LBB196_10
	.loc	9 1124 15
	ud2
LBB196_8:
	.loc	9 1126 19
	movq	-88(%rbp), %rax
	movq	%rax, -32(%rbp)
	.loc	9 1126 22 is_stmt 0
	movq	-80(%rbp), %rcx
	movq	%rcx, -24(%rbp)
	movq	-120(%rbp), %rdx
Ltmp617:
	.loc	9 1127 50 is_stmt 1
	movq	(%rdx), %rsi
	movq	%rsi, -72(%rbp)
	movq	%rax, -64(%rbp)
	.loc	9 1127 27 is_stmt 0
	movq	-72(%rbp), %rdx
	movq	-64(%rbp), %rax
	movq	-128(%rbp), %rdi
	movq	-136(%rbp), %rsi
	movq	%rcx, -144(%rbp)
	movq	%rax, %rcx
	callq	__ZN4core3str21_$LT$impl$u20$str$GT$13get_unchecked17he881dfc2600966fbE
	movq	%rax, -16(%rbp)
	movq	%rdx, -8(%rbp)
	movq	%rax, -152(%rbp)
	movq	%rdx, -160(%rbp)
	.loc	9 0 27
	movq	-120(%rbp), %rax
	movq	-144(%rbp), %rcx
Ltmp618:
	.loc	9 1128 17 is_stmt 1
	movq	%rcx, (%rax)
	movq	-152(%rbp), %rdx
	.loc	9 1129 17
	movq	%rdx, -112(%rbp)
	movq	-160(%rbp), %rsi
	movq	%rsi, -104(%rbp)
Ltmp619:
	.loc	9 1124 9
	jmp	LBB196_11
LBB196_10:
	jmp	LBB196_11
Ltmp620:
LBB196_11:
	.loc	9 1133 6
	jmp	LBB196_3
Ltmp621:
Lfunc_end196:
	.cfi_endproc

	.p2align	4, 0x90
__ZN4core3str22SplitInternal$LT$P$GT$7get_end17hb1e0b86942bf8eaeE:
Lfunc_begin197:
	.loc	9 1104 0
	.cfi_startproc
	pushq	%rbp
	.cfi_def_cfa_offset 16
	.cfi_offset %rbp, -16
	movq	%rsp, %rbp
	.cfi_def_cfa_register %rbp
	subq	$112, %rsp
	movq	%rdi, -24(%rbp)
Ltmp622:
	.loc	9 1105 13 prologue_end
	movb	65(%rdi), %al
	.loc	9 1105 12 is_stmt 0
	xorb	$-1, %al
	testb	$1, %al
	movq	%rdi, -72(%rbp)
	jne	LBB197_3
	jmp	LBB197_2
LBB197_1:
	movb	$1, -42(%rbp)
	jmp	LBB197_4
LBB197_2:
	movb	$0, -42(%rbp)
	jmp	LBB197_4
LBB197_3:
	.loc	9 0 12
	movq	-72(%rbp), %rax
	.loc	9 1105 30
	testb	$1, 64(%rax)
	jne	LBB197_5
	jmp	LBB197_7
LBB197_4:
	.loc	9 1105 9
	testb	$1, -42(%rbp)
	jne	LBB197_10
	jmp	LBB197_9
LBB197_5:
	.loc	9 1105 30
	movb	$1, -41(%rbp)
	jmp	LBB197_8
LBB197_6:
	movb	$0, -41(%rbp)
	jmp	LBB197_8
LBB197_7:
	.loc	9 0 30
	movq	-72(%rbp), %rax
	.loc	9 1105 60
	movq	8(%rax), %rcx
	subq	(%rax), %rcx
	cmpq	$0, %rcx
	.loc	9 1105 30
	ja	LBB197_5
	jmp	LBB197_6
LBB197_8:
	.loc	9 1105 12
	testb	$1, -41(%rbp)
	jne	LBB197_1
	jmp	LBB197_2
LBB197_9:
	.loc	9 1113 13 is_stmt 1
	movq	$0, -64(%rbp)
	.loc	9 1105 9
	jmp	LBB197_13
LBB197_10:
	.loc	9 0 9 is_stmt 0
	movq	-72(%rbp), %rax
	.loc	9 1106 13 is_stmt 1
	movb	$1, 65(%rax)
	.loc	9 1109 30
	addq	$16, %rax
	movq	%rax, %rdi
	callq	__ZN81_$LT$core..str..pattern..CharSearcher$u20$as$u20$core..str..pattern..Searcher$GT$8haystack17ha963671125b6b0a7E
	movq	%rax, -80(%rbp)
	movq	%rdx, -88(%rbp)
	.loc	9 0 30 is_stmt 0
	movq	-72(%rbp), %rax
	.loc	9 1109 68
	movq	(%rax), %rcx
	.loc	9 1109 80
	movq	8(%rax), %rdx
	.loc	9 1109 68
	movq	%rcx, -40(%rbp)
	movq	%rdx, -32(%rbp)
	.loc	9 1109 30
	movq	-40(%rbp), %rdx
	movq	-32(%rbp), %rcx
	movq	-80(%rbp), %rdi
	movq	-88(%rbp), %rsi
	callq	__ZN4core3str21_$LT$impl$u20$str$GT$13get_unchecked17he881dfc2600966fbE
	movq	%rax, -16(%rbp)
	movq	%rdx, -8(%rbp)
	movq	%rax, -96(%rbp)
	movq	%rdx, -104(%rbp)
	.loc	9 0 30
	movq	-96(%rbp), %rax
Ltmp623:
	.loc	9 1110 17 is_stmt 1
	movq	%rax, -64(%rbp)
	movq	-104(%rbp), %rcx
	movq	%rcx, -56(%rbp)
Ltmp624:
LBB197_13:
	.loc	9 1115 6
	movq	-64(%rbp), %rax
	movq	-56(%rbp), %rdx
	addq	$112, %rsp
	popq	%rbp
	retq
Ltmp625:
Lfunc_end197:
	.cfi_endproc

	.p2align	4, 0x90
__ZN4core3str23from_utf8_unchecked_mut17h4e0af87da6820170E:
Lfunc_begin198:
	.loc	9 444 0
	.cfi_startproc
	pushq	%rbp
	.cfi_def_cfa_offset 16
	.cfi_offset %rbp, -16
	movq	%rsp, %rbp
	.cfi_def_cfa_register %rbp
	subq	$16, %rsp
	movq	%rdi, -16(%rbp)
	movq	%rsi, -8(%rbp)
Ltmp626:
	.loc	9 450 2 prologue_end
	movq	%rdi, %rax
	movq	%rsi, %rdx
	addq	$16, %rsp
	popq	%rbp
	retq
Ltmp627:
Lfunc_end198:
	.cfi_endproc

	.p2align	4, 0x90
__ZN4core3str6traits101_$LT$impl$u20$core..slice..SliceIndex$LT$str$GT$$u20$for$u20$core..ops..range..Range$LT$usize$GT$$GT$13get_unchecked17hbcb6d518b4643c4cE:
Lfunc_begin199:
	.loc	9 1907 0
	.cfi_startproc
	pushq	%rbp
	.cfi_def_cfa_offset 16
	.cfi_offset %rbp, -16
	movq	%rsp, %rbp
	.cfi_def_cfa_register %rbp
	subq	$112, %rsp
	movq	%rdi, -64(%rbp)
	movq	%rsi, -56(%rbp)
	movq	%rdx, -48(%rbp)
	movq	%rcx, -40(%rbp)
Ltmp628:
	.loc	9 1908 25 prologue_end
	movq	%rdx, -32(%rbp)
	movq	%rcx, -24(%rbp)
	movq	%rdi, -72(%rbp)
Ltmp629:
	.loc	9 1911 32
	movq	%rdx, %rdi
	movq	%rsi, -80(%rbp)
	movq	%rcx, %rsi
	callq	__ZN4core3ptr9const_ptr43_$LT$impl$u20$$BP$const$u20$$u5b$T$u5d$$GT$6as_ptr17hc879d6c73402d400E
	movq	%rax, -88(%rbp)
	.loc	9 0 32 is_stmt 0
	movq	-88(%rbp), %rdi
	movq	-72(%rbp), %rsi
	.loc	9 1911 32
	callq	__ZN4core3ptr9const_ptr33_$LT$impl$u20$$BP$const$u20$T$GT$3add17h8728a14d749e295aE
	movq	%rax, -16(%rbp)
	movq	%rax, -96(%rbp)
	.loc	9 0 32
	movq	-80(%rbp), %rax
	movq	-72(%rbp), %rcx
Ltmp630:
	.loc	9 1912 23 is_stmt 1
	subq	%rcx, %rax
	movq	%rax, -8(%rbp)
	movq	-96(%rbp), %rdi
Ltmp631:
	.loc	9 1913 13
	movq	%rax, %rsi
	callq	__ZN4core3ptr20slice_from_raw_parts17h9e7456a3a9e4015bE
	movq	%rax, -104(%rbp)
	movq	%rdx, -112(%rbp)
Ltmp632:
	.loc	9 0 13 is_stmt 0
	movq	-104(%rbp), %rax
	movq	-112(%rbp), %rdx
	.loc	9 1914 10 is_stmt 1
	addq	$112, %rsp
	popq	%rbp
	retq
Ltmp633:
Lfunc_end199:
	.cfi_endproc

	.p2align	4, 0x90
__ZN4core3str6traits105_$LT$impl$u20$core..slice..SliceIndex$LT$str$GT$$u20$for$u20$core..ops..range..RangeFrom$LT$usize$GT$$GT$13get_unchecked17hb0ec6dd091b2ed95E:
Lfunc_begin200:
	.loc	9 2052 0
	.cfi_startproc
	pushq	%rbp
	.cfi_def_cfa_offset 16
	.cfi_offset %rbp, -16
	movq	%rsp, %rbp
	.cfi_def_cfa_register %rbp
	subq	$128, %rsp
	movq	%rdi, -56(%rbp)
	movq	%rsi, -48(%rbp)
	movq	%rdx, -40(%rbp)
Ltmp634:
	.loc	9 2053 25 prologue_end
	movq	%rsi, -32(%rbp)
	movq	%rdx, -24(%rbp)
	movq	%rdi, -64(%rbp)
Ltmp635:
	.loc	9 2056 32
	movq	%rsi, %rdi
	movq	%rsi, -72(%rbp)
	movq	%rdx, %rsi
	movq	%rdx, -80(%rbp)
	callq	__ZN4core3ptr9const_ptr43_$LT$impl$u20$$BP$const$u20$$u5b$T$u5d$$GT$6as_ptr17hc879d6c73402d400E
	movq	%rax, -88(%rbp)
	.loc	9 0 32 is_stmt 0
	movq	-88(%rbp), %rdi
	movq	-64(%rbp), %rsi
	.loc	9 2056 32
	callq	__ZN4core3ptr9const_ptr33_$LT$impl$u20$$BP$const$u20$T$GT$3add17h8728a14d749e295aE
	movq	%rax, -16(%rbp)
	movq	%rax, -96(%rbp)
	.loc	9 0 32
	movq	-72(%rbp), %rdi
	movq	-80(%rbp), %rsi
Ltmp636:
	.loc	9 2057 23 is_stmt 1
	callq	__ZN4core3ptr9const_ptr43_$LT$impl$u20$$BP$const$u20$$u5b$T$u5d$$GT$3len17h6207e7638c3f7b47E
	movq	%rax, -104(%rbp)
	.loc	9 0 23 is_stmt 0
	movq	-104(%rbp), %rax
	movq	-64(%rbp), %rcx
	.loc	9 2057 23
	subq	%rcx, %rax
	movq	%rax, -8(%rbp)
	movq	-96(%rbp), %rdi
Ltmp637:
	.loc	9 2058 13 is_stmt 1
	movq	%rax, %rsi
	callq	__ZN4core3ptr20slice_from_raw_parts17h9e7456a3a9e4015bE
	movq	%rax, -112(%rbp)
	movq	%rdx, -120(%rbp)
Ltmp638:
	.loc	9 0 13 is_stmt 0
	movq	-112(%rbp), %rax
	movq	-120(%rbp), %rdx
	.loc	9 2059 10 is_stmt 1
	addq	$128, %rsp
	popq	%rbp
	retq
Ltmp639:
Lfunc_end200:
	.cfi_endproc

	.p2align	4, 0x90
__ZN4core3str6traits105_$LT$impl$u20$core..slice..SliceIndex$LT$str$GT$$u20$for$u20$core..ops..range..RangeFrom$LT$usize$GT$$GT$3get17h0005303e45da9becE:
Lfunc_begin201:
	.loc	9 2032 0
	.cfi_startproc
	pushq	%rbp
	.cfi_def_cfa_offset 16
	.cfi_offset %rbp, -16
	movq	%rsp, %rbp
	.cfi_def_cfa_register %rbp
	subq	$96, %rsp
	movq	%rdi, -24(%rbp)
	movq	%rsi, -16(%rbp)
	movq	%rdx, -8(%rbp)
	movq	%rdi, -48(%rbp)
Ltmp640:
	.loc	9 2033 16 prologue_end
	movq	%rsi, %rdi
	movq	%rsi, -56(%rbp)
	movq	%rdx, %rsi
	movq	-48(%rbp), %rax
	movq	%rdx, -64(%rbp)
	movq	%rax, %rdx
	callq	__ZN4core3str21_$LT$impl$u20$str$GT$16is_char_boundary17h279e34e4a249532eE
	movb	%al, -65(%rbp)
	.loc	9 0 16 is_stmt 0
	movb	-65(%rbp), %al
	.loc	9 2033 13
	testb	$1, %al
	jne	LBB201_3
	jmp	LBB201_2
LBB201_2:
	.loc	9 2038 17 is_stmt 1
	movq	$0, -40(%rbp)
	.loc	9 2033 13
	jmp	LBB201_5
LBB201_3:
	.loc	9 0 13 is_stmt 0
	movq	-48(%rbp), %rdi
	movq	-56(%rbp), %rsi
	movq	-64(%rbp), %rdx
	.loc	9 2036 33 is_stmt 1
	callq	__ZN4core3str6traits105_$LT$impl$u20$core..slice..SliceIndex$LT$str$GT$$u20$for$u20$core..ops..range..RangeFrom$LT$usize$GT$$GT$13get_unchecked17hb0ec6dd091b2ed95E
	movq	%rax, -80(%rbp)
	movq	%rdx, -88(%rbp)
	.loc	9 0 33 is_stmt 0
	movq	-80(%rbp), %rax
	.loc	9 2036 17
	movq	%rax, -40(%rbp)
	movq	-88(%rbp), %rcx
	movq	%rcx, -32(%rbp)
LBB201_5:
	.loc	9 2040 10 is_stmt 1
	movq	-40(%rbp), %rax
	movq	-32(%rbp), %rdx
	addq	$96, %rsp
	popq	%rbp
	retq
Ltmp641:
Lfunc_end201:
	.cfi_endproc

	.p2align	4, 0x90
__ZN4core3str6traits105_$LT$impl$u20$core..slice..SliceIndex$LT$str$GT$$u20$for$u20$core..ops..range..RangeFrom$LT$usize$GT$$GT$5index17h4c7b2a20fb4e153fE:
Lfunc_begin202:
	.loc	9 2069 0
	.cfi_startproc
	pushq	%rbp
	.cfi_def_cfa_offset 16
	.cfi_offset %rbp, -16
	movq	%rsp, %rbp
	.cfi_def_cfa_register %rbp
	subq	$144, %rsp
	movq	%rsi, -80(%rbp)
	movq	%rdx, -72(%rbp)
	movq	%rdi, -8(%rbp)
Ltmp642:
	.loc	9 2070 45 prologue_end
	movq	-80(%rbp), %rax
	movq	-72(%rbp), %rsi
	movq	%rdi, -88(%rbp)
	movq	%rax, %rdi
	movq	%rcx, -96(%rbp)
	callq	__ZN4core3str21_$LT$impl$u20$str$GT$3len17hbdfaf38d1a361959E
	movq	%rax, -104(%rbp)
	.loc	9 0 45 is_stmt 0
	movq	-88(%rbp), %rax
	.loc	9 2070 32
	movq	%rax, -48(%rbp)
	movq	-104(%rbp), %rcx
	movq	%rcx, -40(%rbp)
	.loc	9 2070 18
	movq	-48(%rbp), %rdx
	movq	%rdx, -64(%rbp)
	.loc	9 2070 25
	movq	-40(%rbp), %rdx
	movq	%rdx, -56(%rbp)
Ltmp643:
	.loc	9 2071 22 is_stmt 1
	movq	-80(%rbp), %rsi
	movq	-72(%rbp), %rdx
	.loc	9 2071 13 is_stmt 0
	movq	%rax, %rdi
	callq	__ZN4core3str6traits105_$LT$impl$u20$core..slice..SliceIndex$LT$str$GT$$u20$for$u20$core..ops..range..RangeFrom$LT$usize$GT$$GT$3get17h0005303e45da9becE
	movq	%rax, -112(%rbp)
	movq	%rdx, -120(%rbp)
	.loc	9 2071 44
	leaq	-80(%rbp), %rax
	movq	%rax, -32(%rbp)
	leaq	-64(%rbp), %rax
	movq	%rax, -24(%rbp)
	leaq	-56(%rbp), %rax
	movq	%rax, -16(%rbp)
	movq	-112(%rbp), %rdi
	movq	-120(%rbp), %rsi
	.loc	9 2071 13
	leaq	-32(%rbp), %rdx
	callq	__ZN4core6option15Option$LT$T$GT$14unwrap_or_else17h79cbd1bbf8ee2c5aE
	movq	%rax, -128(%rbp)
	movq	%rdx, -136(%rbp)
Ltmp644:
	.loc	9 0 13
	movq	-128(%rbp), %rax
	movq	-136(%rbp), %rdx
	.loc	9 2072 10 is_stmt 1
	addq	$144, %rsp
	popq	%rbp
	retq
Ltmp645:
Lfunc_end202:
	.cfi_endproc

	.p2align	4, 0x90
__ZN4core3str6traits105_$LT$impl$u20$core..slice..SliceIndex$LT$str$GT$$u20$for$u20$core..ops..range..RangeFrom$LT$usize$GT$$GT$5index28_$u7b$$u7b$closure$u7d$$u7d$17h5875ffdea53e758cE:
Lfunc_begin203:
	.loc	9 2071 0
	.cfi_startproc
	pushq	%rbp
	.cfi_def_cfa_offset 16
	.cfi_offset %rbp, -16
	movq	%rsp, %rbp
	.cfi_def_cfa_register %rbp
Ltmp646:
	.loc	9 2071 71 prologue_end
	movq	(%rdi), %rax
	.loc	9 2071 78 is_stmt 0
	movq	8(%rdi), %rcx
	.loc	9 2071 71
	movq	(%rax), %rdx
	movq	8(%rax), %rsi
	.loc	9 2071 78
	movq	(%rcx), %rax
	.loc	9 2071 85
	movq	16(%rdi), %rcx
	movq	(%rcx), %rcx
	.loc	9 2071 47
	leaq	l___unnamed_4(%rip), %r8
	movq	%rdx, %rdi
Ltmp647:
	movq	%rax, %rdx
	callq	__ZN4core3str16slice_error_fail17ha125059561e5ce66E
Ltmp648:
Lfunc_end203:
	.cfi_endproc

	.p2align	4, 0x90
__ZN4core3str6traits54_$LT$impl$u20$core..cmp..PartialEq$u20$for$u20$str$GT$2eq17h10ad06a8f25c6027E:
Lfunc_begin204:
	.loc	9 1742 0 is_stmt 1
	.cfi_startproc
	pushq	%rbp
	.cfi_def_cfa_offset 16
	.cfi_offset %rbp, -16
	movq	%rsp, %rbp
	.cfi_def_cfa_register %rbp
	subq	$160, %rsp
	movq	%rdi, -96(%rbp)
	movq	%rsi, -88(%rbp)
	movq	%rdx, -80(%rbp)
	movq	%rcx, -72(%rbp)
	movq	%rdi, -48(%rbp)
	movq	%rsi, -40(%rbp)
Ltmp649:
	.loc	9 2359 18 prologue_end
	movq	%rdi, -64(%rbp)
	movq	%rsi, -56(%rbp)
	movq	-64(%rbp), %rax
	movq	-56(%rbp), %rsi
Ltmp650:
	.loc	9 1743 13
	movq	%rsi, -120(%rbp)
	movq	%rax, -128(%rbp)
	movq	%rdx, -136(%rbp)
	movq	%rcx, -144(%rbp)
	.loc	9 0 13 is_stmt 0
	movq	-136(%rbp), %rax
	movq	%rax, -16(%rbp)
	movq	-144(%rbp), %rcx
	movq	%rcx, -8(%rbp)
Ltmp651:
	.loc	9 2359 18 is_stmt 1
	movq	%rax, -32(%rbp)
	movq	%rcx, -24(%rbp)
	movq	-32(%rbp), %rdx
	movq	-24(%rbp), %rsi
Ltmp652:
	.loc	9 1743 32
	movq	%rsi, -104(%rbp)
	movq	%rdx, -112(%rbp)
	.loc	9 1743 13 is_stmt 0
	leaq	-128(%rbp), %rdi
	leaq	-112(%rbp), %rsi
	callq	__ZN4core3cmp5impls69_$LT$impl$u20$core..cmp..PartialEq$LT$$RF$B$GT$$u20$for$u20$$RF$A$GT$2eq17h5f7f05a830d067beE
	movb	%al, -145(%rbp)
	.loc	9 0 13
	movb	-145(%rbp), %al
	.loc	9 1744 10 is_stmt 1
	andb	$1, %al
	movzbl	%al, %eax
	addq	$160, %rsp
	popq	%rbp
	retq
Ltmp653:
Lfunc_end204:
	.cfi_endproc

	.p2align	4, 0x90
__ZN4core3str6traits54_$LT$impl$u20$core..cmp..PartialEq$u20$for$u20$str$GT$2ne17h99203dc3e0164b51E:
Lfunc_begin205:
	.loc	9 1746 0
	.cfi_startproc
	pushq	%rbp
	.cfi_def_cfa_offset 16
	.cfi_offset %rbp, -16
	movq	%rsp, %rbp
	.cfi_def_cfa_register %rbp
	subq	$48, %rsp
	movq	%rdi, -32(%rbp)
	movq	%rsi, -24(%rbp)
	movq	%rdx, -16(%rbp)
	movq	%rcx, -8(%rbp)
Ltmp654:
	.loc	9 1747 14 prologue_end
	callq	__ZN4core3str6traits54_$LT$impl$u20$core..cmp..PartialEq$u20$for$u20$str$GT$2eq17h10ad06a8f25c6027E
	movb	%al, -33(%rbp)
	.loc	9 0 14 is_stmt 0
	movb	-33(%rbp), %al
	.loc	9 1747 13
	xorb	$-1, %al
	.loc	9 1748 10 is_stmt 1
	andb	$1, %al
	movzbl	%al, %eax
	addq	$48, %rsp
	popq	%rbp
	retq
Ltmp655:
Lfunc_end205:
	.cfi_endproc

	.p2align	4, 0x90
__ZN4core3str6traits66_$LT$impl$u20$core..ops..index..Index$LT$I$GT$$u20$for$u20$str$GT$5index17hd2b696b035386aadE:
Lfunc_begin206:
	.loc	9 1777 0
	.cfi_startproc
	pushq	%rbp
	.cfi_def_cfa_offset 16
	.cfi_offset %rbp, -16
	movq	%rsp, %rbp
	.cfi_def_cfa_register %rbp
	subq	$64, %rsp
	movq	%rdi, -24(%rbp)
	movq	%rsi, -16(%rbp)
	movq	%rdx, -8(%rbp)
	movq	%rdi, -32(%rbp)
Ltmp656:
	.loc	9 1778 13 prologue_end
	movq	%rdx, %rdi
	movq	-32(%rbp), %rax
	movq	%rsi, -40(%rbp)
	movq	%rax, %rsi
	movq	-40(%rbp), %rdx
	callq	__ZN4core3str6traits105_$LT$impl$u20$core..slice..SliceIndex$LT$str$GT$$u20$for$u20$core..ops..range..RangeFrom$LT$usize$GT$$GT$5index17h4c7b2a20fb4e153fE
	movq	%rax, -48(%rbp)
	movq	%rdx, -56(%rbp)
	.loc	9 0 13 is_stmt 0
	movq	-48(%rbp), %rax
	movq	-56(%rbp), %rdx
	.loc	9 1779 10 is_stmt 1
	addq	$64, %rsp
	popq	%rbp
	retq
Ltmp657:
Lfunc_end206:
	.cfi_endproc

	.p2align	4, 0x90
__ZN4core3str7pattern14TwoWaySearcher16byteset_contains17h4873d98345895db7E:
Lfunc_begin207:
	.file	26 "/rustc/6c8927b0cf80ceee19386026cf9d7fd4fd9d486f/src/libcore/str/pattern.rs"
	.loc	26 1286 0
	.cfi_startproc
	pushq	%rbp
	.cfi_def_cfa_offset 16
	.cfi_offset %rbp, -16
	movq	%rsp, %rbp
	.cfi_def_cfa_register %rbp
	subq	$16, %rsp
	movq	%rdi, -16(%rbp)
	movb	%sil, -1(%rbp)
Ltmp658:
	.loc	26 1287 10 prologue_end
	movq	24(%rdi), %rax
	.loc	26 1287 27 is_stmt 0
	andb	$63, %sil
	.loc	26 1287 26
	movzbl	%sil, %ecx
	movl	%ecx, %edx
	.loc	26 1287 9
	andq	$63, %rdx
	movq	%rdx, %rcx
	shrq	%cl, %rax
	andq	$1, %rax
	cmpq	$0, %rax
	setne	%cl
	.loc	26 1288 6 is_stmt 1
	andb	$1, %cl
	movzbl	%cl, %eax
	addq	$16, %rsp
	popq	%rbp
	retq
Ltmp659:
Lfunc_end207:
	.cfi_endproc

	.p2align	4, 0x90
__ZN4core3str7pattern14TwoWaySearcher4next17h88379b73b9019cc9E:
Lfunc_begin208:
	.loc	26 1296 0
	.cfi_startproc
	pushq	%rbp
	.cfi_def_cfa_offset 16
	.cfi_offset %rbp, -16
	movq	%rsp, %rbp
	.cfi_def_cfa_register %rbp
	pushq	%rbx
	subq	$520, %rsp
	.cfi_offset %rbx, -24
	movq	%rdi, %rax
	movb	16(%rbp), %r10b
	movq	%rsi, -136(%rbp)
	movq	%rdx, -128(%rbp)
	movq	%rcx, -120(%rbp)
	movq	%r8, -112(%rbp)
	movq	%r9, -104(%rbp)
	movb	%r10b, %r11b
	andb	$1, %r11b
	movb	%r11b, -89(%rbp)
Ltmp660:
	.loc	26 1301 23 prologue_end
	movq	32(%rsi), %rbx
	movq	%rbx, -88(%rbp)
	movq	%rdi, -272(%rbp)
Ltmp661:
	.loc	26 1302 27
	movq	%r8, %rdi
	movq	%rsi, -280(%rbp)
	movq	%r9, %rsi
	movq	%r9, -288(%rbp)
	movq	%r8, -296(%rbp)
	movq	%rcx, -304(%rbp)
	movq	%rdx, -312(%rbp)
	movq	%rax, -320(%rbp)
	movb	%r10b, -321(%rbp)
	movq	%rbx, -336(%rbp)
	callq	__ZN4core5slice29_$LT$impl$u20$$u5b$T$u5d$$GT$3len17h05b7456db7c7fb4fE
	movq	%rax, -344(%rbp)
	.loc	26 0 27 is_stmt 0
	movq	-344(%rbp), %rax
	.loc	26 1302 27
	subq	$1, %rax
	movq	%rax, -80(%rbp)
	movq	%rax, -352(%rbp)
LBB208_2:
	.loc	26 0 27
	movq	-352(%rbp), %rax
	movq	-280(%rbp), %rcx
Ltmp662:
	.loc	26 1307 48 is_stmt 1
	addq	32(%rcx), %rax
	movq	-312(%rbp), %rdi
	movq	-304(%rbp), %rsi
	.loc	26 1307 35 is_stmt 0
	movq	%rax, %rdx
	callq	__ZN4core5slice29_$LT$impl$u20$$u5b$T$u5d$$GT$3get17h099a0e28f6c4d227E
	movq	%rax, -264(%rbp)
	.loc	26 1308 17 is_stmt 1
	movq	-264(%rbp), %rax
	testq	%rax, %rax
	setne	%cl
	movzbl	%cl, %edx
	movl	%edx, %eax
	je	LBB208_4
	jmp	LBB208_73
LBB208_73:
	jmp	LBB208_6
LBB208_4:
	.loc	26 0 17 is_stmt 0
	movq	-312(%rbp), %rdi
	movq	-304(%rbp), %rsi
	.loc	26 1310 37 is_stmt 1
	callq	__ZN4core5slice29_$LT$impl$u20$$u5b$T$u5d$$GT$3len17h05b7456db7c7fb4fE
	movq	%rax, -360(%rbp)
	jmp	LBB208_7
	.loc	26 1307 35
	ud2
LBB208_6:
	.loc	26 1308 23
	movq	-264(%rbp), %rax
	movb	(%rax), %cl
	movb	%cl, -66(%rbp)
Ltmp663:
	.loc	26 1308 29 is_stmt 0
	movb	%cl, -65(%rbp)
	movb	%cl, -361(%rbp)
Ltmp664:
	.loc	26 1315 16 is_stmt 1
	callq	__ZN89_$LT$core..str..pattern..RejectAndMatch$u20$as$u20$core..str..pattern..TwoWayStrategy$GT$16use_early_reject17h781e78cd16c21470E
	movb	%al, -362(%rbp)
	jmp	LBB208_14
Ltmp665:
LBB208_7:
	.loc	26 0 16 is_stmt 0
	movq	-280(%rbp), %rax
	movq	-360(%rbp), %rcx
	.loc	26 1310 21 is_stmt 1
	movq	%rcx, 32(%rax)
	.loc	26 1311 50
	movq	32(%rax), %rdx
	movq	-272(%rbp), %rdi
	movq	-336(%rbp), %rsi
	.loc	26 1311 28 is_stmt 0
	callq	__ZN89_$LT$core..str..pattern..RejectAndMatch$u20$as$u20$core..str..pattern..TwoWayStrategy$GT$9rejecting17he82ddaa41768b360E
	.loc	26 1311 21
	jmp	LBB208_9
Ltmp666:
LBB208_9:
	.loc	26 0 21
	movq	-320(%rbp), %rax
	.loc	26 1364 6 is_stmt 1
	addq	$520, %rsp
	popq	%rbx
	popq	%rbp
	retq
LBB208_10:
Ltmp667:
	.loc	26 1315 16
	movb	$1, -249(%rbp)
	jmp	LBB208_13
LBB208_11:
	movb	$0, -249(%rbp)
	jmp	LBB208_13
LBB208_12:
	.loc	26 0 16 is_stmt 0
	movq	-336(%rbp), %rax
	movq	-280(%rbp), %rcx
	.loc	26 1315 41
	cmpq	32(%rcx), %rax
	.loc	26 1315 16
	jne	LBB208_10
	jmp	LBB208_11
LBB208_13:
	.loc	26 1315 13
	testb	$1, -249(%rbp)
	jne	LBB208_16
	jmp	LBB208_15
LBB208_14:
	.loc	26 0 13
	movb	-362(%rbp), %al
	.loc	26 1315 16
	testb	$1, %al
	jne	LBB208_12
	jmp	LBB208_11
LBB208_15:
	.loc	26 0 16
	movq	-280(%rbp), %rdi
	movb	-361(%rbp), %al
	.loc	26 1320 17 is_stmt 1
	movzbl	%al, %esi
	callq	__ZN4core3str7pattern14TwoWaySearcher16byteset_contains17h4873d98345895db7E
	movb	%al, -363(%rbp)
	jmp	LBB208_18
LBB208_16:
	.loc	26 0 17 is_stmt 0
	movq	-280(%rbp), %rax
	.loc	26 1316 46 is_stmt 1
	movq	32(%rax), %rdx
	movq	-272(%rbp), %rdi
	movq	-336(%rbp), %rsi
	.loc	26 1316 24 is_stmt 0
	callq	__ZN89_$LT$core..str..pattern..RejectAndMatch$u20$as$u20$core..str..pattern..TwoWayStrategy$GT$9rejecting17he82ddaa41768b360E
Ltmp668:
	.loc	26 1316 17
	jmp	LBB208_9
LBB208_18:
	.loc	26 0 17
	movb	-363(%rbp), %al
Ltmp669:
	.loc	26 1320 16 is_stmt 1
	xorb	$-1, %al
	.loc	26 1320 13 is_stmt 0
	testb	$1, %al
	jne	LBB208_20
	.loc	26 0 13
	movb	-321(%rbp), %al
	.loc	26 1330 17 is_stmt 1
	testb	$1, %al
	jne	LBB208_27
	jmp	LBB208_26
LBB208_20:
	.loc	26 0 17 is_stmt 0
	movq	-296(%rbp), %rdi
	movq	-288(%rbp), %rsi
	.loc	26 1321 34 is_stmt 1
	callq	__ZN4core5slice29_$LT$impl$u20$$u5b$T$u5d$$GT$3len17h05b7456db7c7fb4fE
	movq	%rax, -376(%rbp)
	.loc	26 0 34 is_stmt 0
	movq	-376(%rbp), %rax
	movq	-280(%rbp), %rcx
	.loc	26 1321 17
	addq	32(%rcx), %rax
	movq	%rax, 32(%rcx)
	movb	-321(%rbp), %dl
	.loc	26 1322 20 is_stmt 1
	xorb	$-1, %dl
	.loc	26 1322 17 is_stmt 0
	testb	$1, %dl
	jne	LBB208_23
	jmp	LBB208_24
LBB208_23:
	.loc	26 0 17
	movq	-280(%rbp), %rax
	.loc	26 1323 21 is_stmt 1
	movq	$0, 48(%rax)
Ltmp670:
LBB208_24:
	.loc	26 1325 17
	jmp	LBB208_25
LBB208_25:
	jmp	LBB208_2
LBB208_26:
	.loc	26 0 17 is_stmt 0
	movq	-280(%rbp), %rax
Ltmp671:
	.loc	26 1330 66 is_stmt 1
	movq	(%rax), %rdi
	.loc	26 1330 81 is_stmt 0
	movq	48(%rax), %rsi
	.loc	26 1330 57
	callq	__ZN4core3cmp3max17h3252456b5af0a4a0E
	movq	%rax, -248(%rbp)
	jmp	LBB208_28
LBB208_27:
	.loc	26 0 57
	movq	-280(%rbp), %rax
	.loc	26 1330 34
	movq	(%rax), %rcx
	movq	%rcx, -248(%rbp)
	.loc	26 1330 17
	jmp	LBB208_29
LBB208_28:
	jmp	LBB208_29
LBB208_29:
Ltmp672:
	.loc	26 1331 22 is_stmt 1
	movq	-248(%rbp), %rax
	movq	-296(%rbp), %rdi
	movq	-288(%rbp), %rsi
	movq	%rax, -384(%rbp)
	.loc	26 1331 29 is_stmt 0
	callq	__ZN4core5slice29_$LT$impl$u20$$u5b$T$u5d$$GT$3len17h05b7456db7c7fb4fE
	movq	%rax, -392(%rbp)
	.loc	26 0 29
	movq	-384(%rbp), %rax
	.loc	26 1331 22
	movq	%rax, -240(%rbp)
	movq	-392(%rbp), %rcx
	movq	%rcx, -232(%rbp)
	movq	-240(%rbp), %rdi
	movq	-232(%rbp), %rsi
	callq	__ZN63_$LT$I$u20$as$u20$core..iter..traits..collect..IntoIterator$GT$9into_iter17ha7b8ac46bbca3f2dE
	movq	%rax, -400(%rbp)
	movq	%rdx, -408(%rbp)
	.loc	26 0 22
	movq	-400(%rbp), %rax
	.loc	26 1331 22
	movq	%rax, -224(%rbp)
	movq	-408(%rbp), %rcx
	movq	%rcx, -216(%rbp)
LBB208_32:
	.loc	26 0 22
	leaq	-224(%rbp), %rdi
Ltmp673:
	.loc	26 1331 22
	callq	__ZN4core4iter5range101_$LT$impl$u20$core..iter..traits..iterator..Iterator$u20$for$u20$core..ops..range..Range$LT$A$GT$$GT$4next17h76e3456b2530b250E
	movq	%rdx, -200(%rbp)
	movq	%rax, -208(%rbp)
	.loc	26 1331 17
	movq	-208(%rbp), %rax
	testq	%rax, %rax
	je	LBB208_34
	jmp	LBB208_74
LBB208_74:
	jmp	LBB208_36
Ltmp674:
LBB208_34:
	.loc	26 0 17
	movb	-321(%rbp), %al
	.loc	26 1342 25 is_stmt 1
	testb	$1, %al
	jne	LBB208_46
	jmp	LBB208_45
Ltmp675:
	.loc	26 1331 22
	ud2
LBB208_36:
	.loc	26 1331 17 is_stmt 0
	movq	-200(%rbp), %rax
	movq	%rax, -64(%rbp)
Ltmp676:
	.loc	26 1331 17
	movq	%rax, -56(%rbp)
Ltmp677:
	.loc	26 1331 22
	movq	%rax, -48(%rbp)
	movq	-288(%rbp), %rcx
Ltmp678:
	.loc	26 1332 20 is_stmt 1
	cmpq	%rcx, %rax
	setb	%dl
	testb	$1, %dl
	movq	%rax, -416(%rbp)
	jne	LBB208_37
	jmp	LBB208_69
LBB208_37:
	.loc	26 0 20 is_stmt 0
	movq	-296(%rbp), %rax
	movq	-416(%rbp), %rcx
	.loc	26 1332 20
	movb	(%rax,%rcx), %dl
	movq	-280(%rbp), %rsi
	.loc	26 1332 42
	addq	32(%rsi), %rcx
	movq	-304(%rbp), %rdi
	.loc	26 1332 33
	cmpq	%rdi, %rcx
	setb	%r8b
	testb	$1, %r8b
	movb	%dl, -417(%rbp)
	movq	%rcx, -432(%rbp)
	jne	LBB208_38
	jmp	LBB208_70
LBB208_38:
	.loc	26 0 33
	movb	-417(%rbp), %al
	movq	-312(%rbp), %rcx
	movq	-432(%rbp), %rdx
	.loc	26 1332 20
	cmpb	(%rcx,%rdx), %al
	.loc	26 1332 17
	jne	LBB208_40
Ltmp679:
	.loc	26 1331 13 is_stmt 1
	jmp	LBB208_32
LBB208_40:
	.loc	26 0 13 is_stmt 0
	movq	-416(%rbp), %rax
	movq	-280(%rbp), %rcx
Ltmp680:
	.loc	26 1333 38 is_stmt 1
	subq	(%rcx), %rax
	addq	$1, %rax
	.loc	26 1333 21 is_stmt 0
	addq	32(%rcx), %rax
	movq	%rax, 32(%rcx)
	movb	-321(%rbp), %dl
	.loc	26 1334 24 is_stmt 1
	xorb	$-1, %dl
	.loc	26 1334 21 is_stmt 0
	testb	$1, %dl
	jne	LBB208_42
	jmp	LBB208_43
LBB208_42:
	.loc	26 0 21
	movq	-280(%rbp), %rax
	.loc	26 1335 25 is_stmt 1
	movq	$0, 48(%rax)
Ltmp681:
LBB208_43:
	.loc	26 1337 21
	jmp	LBB208_44
Ltmp682:
LBB208_44:
	.loc	26 1337 21 is_stmt 0
	jmp	LBB208_25
LBB208_45:
	.loc	26 0 21
	movq	-280(%rbp), %rax
Ltmp683:
	.loc	26 1342 53 is_stmt 1
	movq	48(%rax), %rcx
	movq	%rcx, -192(%rbp)
	.loc	26 1342 25 is_stmt 0
	jmp	LBB208_47
LBB208_46:
	.loc	26 1342 42
	movq	$0, -192(%rbp)
LBB208_47:
Ltmp684:
	.loc	26 1343 23 is_stmt 1
	movq	-192(%rbp), %rax
	movq	-280(%rbp), %rcx
	.loc	26 1343 30 is_stmt 0
	movq	(%rcx), %rdx
	.loc	26 1343 22
	movq	%rax, -184(%rbp)
	movq	%rdx, -176(%rbp)
	movq	-184(%rbp), %rdi
	movq	-176(%rbp), %rsi
	callq	__ZN4core4iter6traits8iterator8Iterator3rev17heb5f0462654e38aeE
	movq	%rax, -440(%rbp)
	movq	%rdx, -448(%rbp)
	.loc	26 0 22
	movq	-440(%rbp), %rdi
	movq	-448(%rbp), %rsi
	.loc	26 1343 22
	callq	__ZN63_$LT$I$u20$as$u20$core..iter..traits..collect..IntoIterator$GT$9into_iter17hcf620620b2afb87eE
	movq	%rax, -456(%rbp)
	movq	%rdx, -464(%rbp)
	.loc	26 0 22
	movq	-456(%rbp), %rax
	.loc	26 1343 22
	movq	%rax, -168(%rbp)
	movq	-464(%rbp), %rcx
	movq	%rcx, -160(%rbp)
LBB208_50:
	.loc	26 0 22
	leaq	-168(%rbp), %rdi
Ltmp685:
	.loc	26 1343 22
	callq	__ZN93_$LT$core..iter..adapters..Rev$LT$I$GT$$u20$as$u20$core..iter..traits..iterator..Iterator$GT$4next17h722e2ae98d1907eaE
	movq	%rdx, -144(%rbp)
	movq	%rax, -152(%rbp)
	.loc	26 1343 17
	movq	-152(%rbp), %rax
	testq	%rax, %rax
	je	LBB208_52
	jmp	LBB208_75
LBB208_75:
	jmp	LBB208_54
Ltmp686:
LBB208_52:
	.loc	26 0 17
	movq	-280(%rbp), %rax
	.loc	26 1354 29 is_stmt 1
	movq	32(%rax), %rcx
	movq	%rcx, -16(%rbp)
	movq	-296(%rbp), %rdi
	movq	-288(%rbp), %rsi
	movq	%rcx, -472(%rbp)
Ltmp687:
	.loc	26 1357 30
	callq	__ZN4core5slice29_$LT$impl$u20$$u5b$T$u5d$$GT$3len17h05b7456db7c7fb4fE
	movq	%rax, -480(%rbp)
	jmp	LBB208_63
Ltmp688:
	.loc	26 1343 22
	ud2
LBB208_54:
	.loc	26 1343 17 is_stmt 0
	movq	-144(%rbp), %rax
	movq	%rax, -40(%rbp)
Ltmp689:
	.loc	26 1343 17
	movq	%rax, -32(%rbp)
Ltmp690:
	.loc	26 1343 22
	movq	%rax, -24(%rbp)
	movq	-288(%rbp), %rcx
Ltmp691:
	.loc	26 1344 20 is_stmt 1
	cmpq	%rcx, %rax
	setb	%dl
	testb	$1, %dl
	movq	%rax, -488(%rbp)
	jne	LBB208_55
	jmp	LBB208_71
LBB208_55:
	.loc	26 0 20 is_stmt 0
	movq	-296(%rbp), %rax
	movq	-488(%rbp), %rcx
	.loc	26 1344 20
	movb	(%rax,%rcx), %dl
	movq	-280(%rbp), %rsi
	.loc	26 1344 42
	addq	32(%rsi), %rcx
	movq	-304(%rbp), %rdi
	.loc	26 1344 33
	cmpq	%rdi, %rcx
	setb	%r8b
	testb	$1, %r8b
	movb	%dl, -489(%rbp)
	movq	%rcx, -504(%rbp)
	jne	LBB208_56
	jmp	LBB208_72
LBB208_56:
	.loc	26 0 33
	movb	-489(%rbp), %al
	movq	-312(%rbp), %rcx
	movq	-504(%rbp), %rdx
	.loc	26 1344 20
	cmpb	(%rcx,%rdx), %al
	.loc	26 1344 17
	jne	LBB208_58
Ltmp692:
	.loc	26 1343 13 is_stmt 1
	jmp	LBB208_50
LBB208_58:
	.loc	26 0 13 is_stmt 0
	movq	-280(%rbp), %rax
Ltmp693:
	.loc	26 1345 38 is_stmt 1
	movq	16(%rax), %rcx
	.loc	26 1345 21 is_stmt 0
	addq	32(%rax), %rcx
	movq	%rcx, 32(%rax)
	movb	-321(%rbp), %dl
	.loc	26 1346 24 is_stmt 1
	xorb	$-1, %dl
	.loc	26 1346 21 is_stmt 0
	testb	$1, %dl
	jne	LBB208_60
	jmp	LBB208_62
LBB208_60:
	.loc	26 0 21
	movq	-296(%rbp), %rdi
	movq	-288(%rbp), %rsi
	.loc	26 1347 39 is_stmt 1
	callq	__ZN4core5slice29_$LT$impl$u20$$u5b$T$u5d$$GT$3len17h05b7456db7c7fb4fE
	movq	%rax, -512(%rbp)
	.loc	26 0 39 is_stmt 0
	movq	-512(%rbp), %rax
	movq	-280(%rbp), %rcx
	.loc	26 1347 25
	subq	16(%rcx), %rax
	movq	%rax, 48(%rcx)
Ltmp694:
LBB208_62:
	.loc	26 1349 21 is_stmt 1
	jmp	LBB208_44
LBB208_63:
	.loc	26 0 21 is_stmt 0
	movq	-480(%rbp), %rax
	movq	-280(%rbp), %rcx
Ltmp695:
	.loc	26 1357 13 is_stmt 1
	addq	32(%rcx), %rax
	movq	%rax, 32(%rcx)
	movb	-321(%rbp), %dl
	.loc	26 1358 16
	xorb	$-1, %dl
	.loc	26 1358 13 is_stmt 0
	testb	$1, %dl
	jne	LBB208_65
	jmp	LBB208_66
LBB208_65:
	.loc	26 0 13
	movq	-280(%rbp), %rax
	.loc	26 1359 17 is_stmt 1
	movq	$0, 48(%rax)
LBB208_66:
	.loc	26 0 17 is_stmt 0
	movq	-296(%rbp), %rdi
	movq	-288(%rbp), %rsi
	.loc	26 1362 55 is_stmt 1
	callq	__ZN4core5slice29_$LT$impl$u20$$u5b$T$u5d$$GT$3len17h05b7456db7c7fb4fE
	movq	%rax, -520(%rbp)
	.loc	26 0 55 is_stmt 0
	movq	-472(%rbp), %rax
	movq	-520(%rbp), %rcx
	.loc	26 1362 43
	addq	%rcx, %rax
	movq	-272(%rbp), %rdi
	movq	-472(%rbp), %rsi
	.loc	26 1362 20
	movq	%rax, %rdx
	callq	__ZN89_$LT$core..str..pattern..RejectAndMatch$u20$as$u20$core..str..pattern..TwoWayStrategy$GT$8matching17h6d7bda8c9adce03fE
Ltmp696:
	.loc	26 1362 13
	jmp	LBB208_9
LBB208_69:
Ltmp697:
	.loc	26 1332 20 is_stmt 1
	leaq	l___unnamed_5(%rip), %rdx
	movq	-416(%rbp), %rdi
	movq	-288(%rbp), %rsi
	callq	__ZN4core9panicking18panic_bounds_check17he87128426d100e93E
LBB208_70:
	.loc	26 1332 33 is_stmt 0
	leaq	l___unnamed_6(%rip), %rdx
	movq	-432(%rbp), %rdi
	movq	-304(%rbp), %rsi
	callq	__ZN4core9panicking18panic_bounds_check17he87128426d100e93E
Ltmp698:
LBB208_71:
	.loc	26 1344 20 is_stmt 1
	leaq	l___unnamed_7(%rip), %rdx
	movq	-488(%rbp), %rdi
	movq	-288(%rbp), %rsi
	callq	__ZN4core9panicking18panic_bounds_check17he87128426d100e93E
LBB208_72:
	.loc	26 1344 33 is_stmt 0
	leaq	l___unnamed_8(%rip), %rdx
	movq	-504(%rbp), %rdi
	movq	-304(%rbp), %rsi
	callq	__ZN4core9panicking18panic_bounds_check17he87128426d100e93E
Ltmp699:
Lfunc_end208:
	.cfi_endproc

	.p2align	4, 0x90
__ZN4core3str7pattern14TwoWaySearcher4next17hfc9732b372007bbeE:
Lfunc_begin209:
	.loc	26 1296 0 is_stmt 1
	.cfi_startproc
	pushq	%rbp
	.cfi_def_cfa_offset 16
	.cfi_offset %rbp, -16
	movq	%rsp, %rbp
	.cfi_def_cfa_register %rbp
	pushq	%rbx
	subq	$520, %rsp
	.cfi_offset %rbx, -24
	movq	%rdi, %rax
	movb	16(%rbp), %r10b
	movq	%rsi, -136(%rbp)
	movq	%rdx, -128(%rbp)
	movq	%rcx, -120(%rbp)
	movq	%r8, -112(%rbp)
	movq	%r9, -104(%rbp)
	movb	%r10b, %r11b
	andb	$1, %r11b
	movb	%r11b, -89(%rbp)
Ltmp700:
	.loc	26 1301 23 prologue_end
	movq	32(%rsi), %rbx
	movq	%rbx, -88(%rbp)
	movq	%rdi, -272(%rbp)
Ltmp701:
	.loc	26 1302 27
	movq	%r8, %rdi
	movq	%rsi, -280(%rbp)
	movq	%r9, %rsi
	movq	%r9, -288(%rbp)
	movq	%r8, -296(%rbp)
	movq	%rcx, -304(%rbp)
	movq	%rdx, -312(%rbp)
	movq	%rax, -320(%rbp)
	movb	%r10b, -321(%rbp)
	movq	%rbx, -336(%rbp)
	callq	__ZN4core5slice29_$LT$impl$u20$$u5b$T$u5d$$GT$3len17h05b7456db7c7fb4fE
	movq	%rax, -344(%rbp)
	.loc	26 0 27 is_stmt 0
	movq	-344(%rbp), %rax
	.loc	26 1302 27
	subq	$1, %rax
	movq	%rax, -80(%rbp)
	movq	%rax, -352(%rbp)
LBB209_2:
	.loc	26 0 27
	movq	-352(%rbp), %rax
	movq	-280(%rbp), %rcx
Ltmp702:
	.loc	26 1307 48 is_stmt 1
	addq	32(%rcx), %rax
	movq	-312(%rbp), %rdi
	movq	-304(%rbp), %rsi
	.loc	26 1307 35 is_stmt 0
	movq	%rax, %rdx
	callq	__ZN4core5slice29_$LT$impl$u20$$u5b$T$u5d$$GT$3get17h099a0e28f6c4d227E
	movq	%rax, -264(%rbp)
	.loc	26 1308 17 is_stmt 1
	movq	-264(%rbp), %rax
	testq	%rax, %rax
	setne	%cl
	movzbl	%cl, %edx
	movl	%edx, %eax
	je	LBB209_4
	jmp	LBB209_73
LBB209_73:
	jmp	LBB209_6
LBB209_4:
	.loc	26 0 17 is_stmt 0
	movq	-312(%rbp), %rdi
	movq	-304(%rbp), %rsi
	.loc	26 1310 37 is_stmt 1
	callq	__ZN4core5slice29_$LT$impl$u20$$u5b$T$u5d$$GT$3len17h05b7456db7c7fb4fE
	movq	%rax, -360(%rbp)
	jmp	LBB209_7
	.loc	26 1307 35
	ud2
LBB209_6:
	.loc	26 1308 23
	movq	-264(%rbp), %rax
	movb	(%rax), %cl
	movb	%cl, -66(%rbp)
Ltmp703:
	.loc	26 1308 29 is_stmt 0
	movb	%cl, -65(%rbp)
	movb	%cl, -361(%rbp)
Ltmp704:
	.loc	26 1315 16 is_stmt 1
	callq	__ZN84_$LT$core..str..pattern..MatchOnly$u20$as$u20$core..str..pattern..TwoWayStrategy$GT$16use_early_reject17h3d5b063c87e69d8aE
	movb	%al, -362(%rbp)
	jmp	LBB209_14
Ltmp705:
LBB209_7:
	.loc	26 0 16 is_stmt 0
	movq	-280(%rbp), %rax
	movq	-360(%rbp), %rcx
	.loc	26 1310 21 is_stmt 1
	movq	%rcx, 32(%rax)
	.loc	26 1311 50
	movq	32(%rax), %rdx
	movq	-272(%rbp), %rdi
	movq	-336(%rbp), %rsi
	.loc	26 1311 28 is_stmt 0
	callq	__ZN84_$LT$core..str..pattern..MatchOnly$u20$as$u20$core..str..pattern..TwoWayStrategy$GT$9rejecting17h7aa2d278f324a95bE
	.loc	26 1311 21
	jmp	LBB209_9
Ltmp706:
LBB209_9:
	.loc	26 0 21
	movq	-320(%rbp), %rax
	.loc	26 1364 6 is_stmt 1
	addq	$520, %rsp
	popq	%rbx
	popq	%rbp
	retq
LBB209_10:
Ltmp707:
	.loc	26 1315 16
	movb	$1, -249(%rbp)
	jmp	LBB209_13
LBB209_11:
	movb	$0, -249(%rbp)
	jmp	LBB209_13
LBB209_12:
	.loc	26 0 16 is_stmt 0
	movq	-336(%rbp), %rax
	movq	-280(%rbp), %rcx
	.loc	26 1315 41
	cmpq	32(%rcx), %rax
	.loc	26 1315 16
	jne	LBB209_10
	jmp	LBB209_11
LBB209_13:
	.loc	26 1315 13
	testb	$1, -249(%rbp)
	jne	LBB209_16
	jmp	LBB209_15
LBB209_14:
	.loc	26 0 13
	movb	-362(%rbp), %al
	.loc	26 1315 16
	testb	$1, %al
	jne	LBB209_12
	jmp	LBB209_11
LBB209_15:
	.loc	26 0 16
	movq	-280(%rbp), %rdi
	movb	-361(%rbp), %al
	.loc	26 1320 17 is_stmt 1
	movzbl	%al, %esi
	callq	__ZN4core3str7pattern14TwoWaySearcher16byteset_contains17h4873d98345895db7E
	movb	%al, -363(%rbp)
	jmp	LBB209_18
LBB209_16:
	.loc	26 0 17 is_stmt 0
	movq	-280(%rbp), %rax
	.loc	26 1316 46 is_stmt 1
	movq	32(%rax), %rdx
	movq	-272(%rbp), %rdi
	movq	-336(%rbp), %rsi
	.loc	26 1316 24 is_stmt 0
	callq	__ZN84_$LT$core..str..pattern..MatchOnly$u20$as$u20$core..str..pattern..TwoWayStrategy$GT$9rejecting17h7aa2d278f324a95bE
Ltmp708:
	.loc	26 1316 17
	jmp	LBB209_9
LBB209_18:
	.loc	26 0 17
	movb	-363(%rbp), %al
Ltmp709:
	.loc	26 1320 16 is_stmt 1
	xorb	$-1, %al
	.loc	26 1320 13 is_stmt 0
	testb	$1, %al
	jne	LBB209_20
	.loc	26 0 13
	movb	-321(%rbp), %al
	.loc	26 1330 17 is_stmt 1
	testb	$1, %al
	jne	LBB209_27
	jmp	LBB209_26
LBB209_20:
	.loc	26 0 17 is_stmt 0
	movq	-296(%rbp), %rdi
	movq	-288(%rbp), %rsi
	.loc	26 1321 34 is_stmt 1
	callq	__ZN4core5slice29_$LT$impl$u20$$u5b$T$u5d$$GT$3len17h05b7456db7c7fb4fE
	movq	%rax, -376(%rbp)
	.loc	26 0 34 is_stmt 0
	movq	-376(%rbp), %rax
	movq	-280(%rbp), %rcx
	.loc	26 1321 17
	addq	32(%rcx), %rax
	movq	%rax, 32(%rcx)
	movb	-321(%rbp), %dl
	.loc	26 1322 20 is_stmt 1
	xorb	$-1, %dl
	.loc	26 1322 17 is_stmt 0
	testb	$1, %dl
	jne	LBB209_23
	jmp	LBB209_24
LBB209_23:
	.loc	26 0 17
	movq	-280(%rbp), %rax
	.loc	26 1323 21 is_stmt 1
	movq	$0, 48(%rax)
Ltmp710:
LBB209_24:
	.loc	26 1325 17
	jmp	LBB209_25
LBB209_25:
	jmp	LBB209_2
LBB209_26:
	.loc	26 0 17 is_stmt 0
	movq	-280(%rbp), %rax
Ltmp711:
	.loc	26 1330 66 is_stmt 1
	movq	(%rax), %rdi
	.loc	26 1330 81 is_stmt 0
	movq	48(%rax), %rsi
	.loc	26 1330 57
	callq	__ZN4core3cmp3max17h3252456b5af0a4a0E
	movq	%rax, -248(%rbp)
	jmp	LBB209_28
LBB209_27:
	.loc	26 0 57
	movq	-280(%rbp), %rax
	.loc	26 1330 34
	movq	(%rax), %rcx
	movq	%rcx, -248(%rbp)
	.loc	26 1330 17
	jmp	LBB209_29
LBB209_28:
	jmp	LBB209_29
LBB209_29:
Ltmp712:
	.loc	26 1331 22 is_stmt 1
	movq	-248(%rbp), %rax
	movq	-296(%rbp), %rdi
	movq	-288(%rbp), %rsi
	movq	%rax, -384(%rbp)
	.loc	26 1331 29 is_stmt 0
	callq	__ZN4core5slice29_$LT$impl$u20$$u5b$T$u5d$$GT$3len17h05b7456db7c7fb4fE
	movq	%rax, -392(%rbp)
	.loc	26 0 29
	movq	-384(%rbp), %rax
	.loc	26 1331 22
	movq	%rax, -240(%rbp)
	movq	-392(%rbp), %rcx
	movq	%rcx, -232(%rbp)
	movq	-240(%rbp), %rdi
	movq	-232(%rbp), %rsi
	callq	__ZN63_$LT$I$u20$as$u20$core..iter..traits..collect..IntoIterator$GT$9into_iter17ha7b8ac46bbca3f2dE
	movq	%rax, -400(%rbp)
	movq	%rdx, -408(%rbp)
	.loc	26 0 22
	movq	-400(%rbp), %rax
	.loc	26 1331 22
	movq	%rax, -224(%rbp)
	movq	-408(%rbp), %rcx
	movq	%rcx, -216(%rbp)
LBB209_32:
	.loc	26 0 22
	leaq	-224(%rbp), %rdi
Ltmp713:
	.loc	26 1331 22
	callq	__ZN4core4iter5range101_$LT$impl$u20$core..iter..traits..iterator..Iterator$u20$for$u20$core..ops..range..Range$LT$A$GT$$GT$4next17h76e3456b2530b250E
	movq	%rdx, -200(%rbp)
	movq	%rax, -208(%rbp)
	.loc	26 1331 17
	movq	-208(%rbp), %rax
	testq	%rax, %rax
	je	LBB209_34
	jmp	LBB209_74
LBB209_74:
	jmp	LBB209_36
Ltmp714:
LBB209_34:
	.loc	26 0 17
	movb	-321(%rbp), %al
	.loc	26 1342 25 is_stmt 1
	testb	$1, %al
	jne	LBB209_46
	jmp	LBB209_45
Ltmp715:
	.loc	26 1331 22
	ud2
LBB209_36:
	.loc	26 1331 17 is_stmt 0
	movq	-200(%rbp), %rax
	movq	%rax, -64(%rbp)
Ltmp716:
	.loc	26 1331 17
	movq	%rax, -56(%rbp)
Ltmp717:
	.loc	26 1331 22
	movq	%rax, -48(%rbp)
	movq	-288(%rbp), %rcx
Ltmp718:
	.loc	26 1332 20 is_stmt 1
	cmpq	%rcx, %rax
	setb	%dl
	testb	$1, %dl
	movq	%rax, -416(%rbp)
	jne	LBB209_37
	jmp	LBB209_69
LBB209_37:
	.loc	26 0 20 is_stmt 0
	movq	-296(%rbp), %rax
	movq	-416(%rbp), %rcx
	.loc	26 1332 20
	movb	(%rax,%rcx), %dl
	movq	-280(%rbp), %rsi
	.loc	26 1332 42
	addq	32(%rsi), %rcx
	movq	-304(%rbp), %rdi
	.loc	26 1332 33
	cmpq	%rdi, %rcx
	setb	%r8b
	testb	$1, %r8b
	movb	%dl, -417(%rbp)
	movq	%rcx, -432(%rbp)
	jne	LBB209_38
	jmp	LBB209_70
LBB209_38:
	.loc	26 0 33
	movb	-417(%rbp), %al
	movq	-312(%rbp), %rcx
	movq	-432(%rbp), %rdx
	.loc	26 1332 20
	cmpb	(%rcx,%rdx), %al
	.loc	26 1332 17
	jne	LBB209_40
Ltmp719:
	.loc	26 1331 13 is_stmt 1
	jmp	LBB209_32
LBB209_40:
	.loc	26 0 13 is_stmt 0
	movq	-416(%rbp), %rax
	movq	-280(%rbp), %rcx
Ltmp720:
	.loc	26 1333 38 is_stmt 1
	subq	(%rcx), %rax
	addq	$1, %rax
	.loc	26 1333 21 is_stmt 0
	addq	32(%rcx), %rax
	movq	%rax, 32(%rcx)
	movb	-321(%rbp), %dl
	.loc	26 1334 24 is_stmt 1
	xorb	$-1, %dl
	.loc	26 1334 21 is_stmt 0
	testb	$1, %dl
	jne	LBB209_42
	jmp	LBB209_43
LBB209_42:
	.loc	26 0 21
	movq	-280(%rbp), %rax
	.loc	26 1335 25 is_stmt 1
	movq	$0, 48(%rax)
Ltmp721:
LBB209_43:
	.loc	26 1337 21
	jmp	LBB209_44
Ltmp722:
LBB209_44:
	.loc	26 1337 21 is_stmt 0
	jmp	LBB209_25
LBB209_45:
	.loc	26 0 21
	movq	-280(%rbp), %rax
Ltmp723:
	.loc	26 1342 53 is_stmt 1
	movq	48(%rax), %rcx
	movq	%rcx, -192(%rbp)
	.loc	26 1342 25 is_stmt 0
	jmp	LBB209_47
LBB209_46:
	.loc	26 1342 42
	movq	$0, -192(%rbp)
LBB209_47:
Ltmp724:
	.loc	26 1343 23 is_stmt 1
	movq	-192(%rbp), %rax
	movq	-280(%rbp), %rcx
	.loc	26 1343 30 is_stmt 0
	movq	(%rcx), %rdx
	.loc	26 1343 22
	movq	%rax, -184(%rbp)
	movq	%rdx, -176(%rbp)
	movq	-184(%rbp), %rdi
	movq	-176(%rbp), %rsi
	callq	__ZN4core4iter6traits8iterator8Iterator3rev17heb5f0462654e38aeE
	movq	%rax, -440(%rbp)
	movq	%rdx, -448(%rbp)
	.loc	26 0 22
	movq	-440(%rbp), %rdi
	movq	-448(%rbp), %rsi
	.loc	26 1343 22
	callq	__ZN63_$LT$I$u20$as$u20$core..iter..traits..collect..IntoIterator$GT$9into_iter17hcf620620b2afb87eE
	movq	%rax, -456(%rbp)
	movq	%rdx, -464(%rbp)
	.loc	26 0 22
	movq	-456(%rbp), %rax
	.loc	26 1343 22
	movq	%rax, -168(%rbp)
	movq	-464(%rbp), %rcx
	movq	%rcx, -160(%rbp)
LBB209_50:
	.loc	26 0 22
	leaq	-168(%rbp), %rdi
Ltmp725:
	.loc	26 1343 22
	callq	__ZN93_$LT$core..iter..adapters..Rev$LT$I$GT$$u20$as$u20$core..iter..traits..iterator..Iterator$GT$4next17h722e2ae98d1907eaE
	movq	%rdx, -144(%rbp)
	movq	%rax, -152(%rbp)
	.loc	26 1343 17
	movq	-152(%rbp), %rax
	testq	%rax, %rax
	je	LBB209_52
	jmp	LBB209_75
LBB209_75:
	jmp	LBB209_54
Ltmp726:
LBB209_52:
	.loc	26 0 17
	movq	-280(%rbp), %rax
	.loc	26 1354 29 is_stmt 1
	movq	32(%rax), %rcx
	movq	%rcx, -16(%rbp)
	movq	-296(%rbp), %rdi
	movq	-288(%rbp), %rsi
	movq	%rcx, -472(%rbp)
Ltmp727:
	.loc	26 1357 30
	callq	__ZN4core5slice29_$LT$impl$u20$$u5b$T$u5d$$GT$3len17h05b7456db7c7fb4fE
	movq	%rax, -480(%rbp)
	jmp	LBB209_63
Ltmp728:
	.loc	26 1343 22
	ud2
LBB209_54:
	.loc	26 1343 17 is_stmt 0
	movq	-144(%rbp), %rax
	movq	%rax, -40(%rbp)
Ltmp729:
	.loc	26 1343 17
	movq	%rax, -32(%rbp)
Ltmp730:
	.loc	26 1343 22
	movq	%rax, -24(%rbp)
	movq	-288(%rbp), %rcx
Ltmp731:
	.loc	26 1344 20 is_stmt 1
	cmpq	%rcx, %rax
	setb	%dl
	testb	$1, %dl
	movq	%rax, -488(%rbp)
	jne	LBB209_55
	jmp	LBB209_71
LBB209_55:
	.loc	26 0 20 is_stmt 0
	movq	-296(%rbp), %rax
	movq	-488(%rbp), %rcx
	.loc	26 1344 20
	movb	(%rax,%rcx), %dl
	movq	-280(%rbp), %rsi
	.loc	26 1344 42
	addq	32(%rsi), %rcx
	movq	-304(%rbp), %rdi
	.loc	26 1344 33
	cmpq	%rdi, %rcx
	setb	%r8b
	testb	$1, %r8b
	movb	%dl, -489(%rbp)
	movq	%rcx, -504(%rbp)
	jne	LBB209_56
	jmp	LBB209_72
LBB209_56:
	.loc	26 0 33
	movb	-489(%rbp), %al
	movq	-312(%rbp), %rcx
	movq	-504(%rbp), %rdx
	.loc	26 1344 20
	cmpb	(%rcx,%rdx), %al
	.loc	26 1344 17
	jne	LBB209_58
Ltmp732:
	.loc	26 1343 13 is_stmt 1
	jmp	LBB209_50
LBB209_58:
	.loc	26 0 13 is_stmt 0
	movq	-280(%rbp), %rax
Ltmp733:
	.loc	26 1345 38 is_stmt 1
	movq	16(%rax), %rcx
	.loc	26 1345 21 is_stmt 0
	addq	32(%rax), %rcx
	movq	%rcx, 32(%rax)
	movb	-321(%rbp), %dl
	.loc	26 1346 24 is_stmt 1
	xorb	$-1, %dl
	.loc	26 1346 21 is_stmt 0
	testb	$1, %dl
	jne	LBB209_60
	jmp	LBB209_62
LBB209_60:
	.loc	26 0 21
	movq	-296(%rbp), %rdi
	movq	-288(%rbp), %rsi
	.loc	26 1347 39 is_stmt 1
	callq	__ZN4core5slice29_$LT$impl$u20$$u5b$T$u5d$$GT$3len17h05b7456db7c7fb4fE
	movq	%rax, -512(%rbp)
	.loc	26 0 39 is_stmt 0
	movq	-512(%rbp), %rax
	movq	-280(%rbp), %rcx
	.loc	26 1347 25
	subq	16(%rcx), %rax
	movq	%rax, 48(%rcx)
Ltmp734:
LBB209_62:
	.loc	26 1349 21 is_stmt 1
	jmp	LBB209_44
LBB209_63:
	.loc	26 0 21 is_stmt 0
	movq	-480(%rbp), %rax
	movq	-280(%rbp), %rcx
Ltmp735:
	.loc	26 1357 13 is_stmt 1
	addq	32(%rcx), %rax
	movq	%rax, 32(%rcx)
	movb	-321(%rbp), %dl
	.loc	26 1358 16
	xorb	$-1, %dl
	.loc	26 1358 13 is_stmt 0
	testb	$1, %dl
	jne	LBB209_65
	jmp	LBB209_66
LBB209_65:
	.loc	26 0 13
	movq	-280(%rbp), %rax
	.loc	26 1359 17 is_stmt 1
	movq	$0, 48(%rax)
LBB209_66:
	.loc	26 0 17 is_stmt 0
	movq	-296(%rbp), %rdi
	movq	-288(%rbp), %rsi
	.loc	26 1362 55 is_stmt 1
	callq	__ZN4core5slice29_$LT$impl$u20$$u5b$T$u5d$$GT$3len17h05b7456db7c7fb4fE
	movq	%rax, -520(%rbp)
	.loc	26 0 55 is_stmt 0
	movq	-472(%rbp), %rax
	movq	-520(%rbp), %rcx
	.loc	26 1362 43
	addq	%rcx, %rax
	movq	-272(%rbp), %rdi
	movq	-472(%rbp), %rsi
	.loc	26 1362 20
	movq	%rax, %rdx
	callq	__ZN84_$LT$core..str..pattern..MatchOnly$u20$as$u20$core..str..pattern..TwoWayStrategy$GT$8matching17hbb7ab5743b2fd9bdE
Ltmp736:
	.loc	26 1362 13
	jmp	LBB209_9
LBB209_69:
Ltmp737:
	.loc	26 1332 20 is_stmt 1
	leaq	l___unnamed_5(%rip), %rdx
	movq	-416(%rbp), %rdi
	movq	-288(%rbp), %rsi
	callq	__ZN4core9panicking18panic_bounds_check17he87128426d100e93E
LBB209_70:
	.loc	26 1332 33 is_stmt 0
	leaq	l___unnamed_6(%rip), %rdx
	movq	-432(%rbp), %rdi
	movq	-304(%rbp), %rsi
	callq	__ZN4core9panicking18panic_bounds_check17he87128426d100e93E
Ltmp738:
LBB209_71:
	.loc	26 1344 20 is_stmt 1
	leaq	l___unnamed_7(%rip), %rdx
	movq	-488(%rbp), %rdi
	movq	-288(%rbp), %rsi
	callq	__ZN4core9panicking18panic_bounds_check17he87128426d100e93E
LBB209_72:
	.loc	26 1344 33 is_stmt 0
	leaq	l___unnamed_8(%rip), %rdx
	movq	-504(%rbp), %rdi
	movq	-304(%rbp), %rsi
	callq	__ZN4core9panicking18panic_bounds_check17he87128426d100e93E
Ltmp739:
Lfunc_end209:
	.cfi_endproc

	.p2align	4, 0x90
__ZN4core3str7pattern7Pattern15is_contained_in17h1a8d25aadb4a6397E:
Lfunc_begin210:
	.loc	26 110 0 is_stmt 1
	.cfi_startproc
	.cfi_personality 155, _rust_eh_personality
	.cfi_lsda 16, Lexception24
	pushq	%rbp
	.cfi_def_cfa_offset 16
	.cfi_offset %rbp, -16
	movq	%rsp, %rbp
	.cfi_def_cfa_register %rbp
	subq	$224, %rsp
	movq	%rdi, -48(%rbp)
	movq	%rsi, -40(%rbp)
	movq	%rdx, -32(%rbp)
	movq	%rcx, -24(%rbp)
Ltmp745:
	.loc	26 111 9 prologue_end
	leaq	-152(%rbp), %rax
	movq	%rdi, -184(%rbp)
	movq	%rax, %rdi
	movq	-184(%rbp), %rax
	movq	%rsi, -192(%rbp)
	movq	%rax, %rsi
	movq	-192(%rbp), %r8
	movq	%rdx, -200(%rbp)
	movq	%r8, %rdx
	movq	-200(%rbp), %r9
	movq	%rcx, -208(%rbp)
	movq	%r9, %rcx
	movq	-208(%rbp), %r8
	callq	__ZN55_$LT$$RF$str$u20$as$u20$core..str..pattern..Pattern$GT$13into_searcher17h80a67ae1f46fc2caE
	jmp	LBB210_2
LBB210_1:
	.loc	26 110 5
	movq	-16(%rbp), %rdi
	callq	__Unwind_Resume
	ud2
LBB210_2:
Ltmp740:
	.loc	26 0 5 is_stmt 0
	leaq	-176(%rbp), %rdi
	leaq	-152(%rbp), %rsi
	.loc	26 111 9 is_stmt 1
	callq	__ZN80_$LT$core..str..pattern..StrSearcher$u20$as$u20$core..str..pattern..Searcher$GT$10next_match17h866ce464704fb8bdE
Ltmp741:
	jmp	LBB210_4
LBB210_3:
	.loc	26 112 5
	jmp	LBB210_1
LBB210_4:
Ltmp742:
	.loc	26 0 5 is_stmt 0
	leaq	-176(%rbp), %rdi
	.loc	26 111 9 is_stmt 1
	callq	__ZN4core6option15Option$LT$T$GT$7is_some17h0eb34ae5206aef0cE
Ltmp743:
	movb	%al, -209(%rbp)
	jmp	LBB210_5
LBB210_5:
	.loc	26 112 5
	jmp	LBB210_6
LBB210_6:
	.loc	26 0 5 is_stmt 0
	movb	-209(%rbp), %al
	.loc	26 112 6
	andb	$1, %al
	movzbl	%al, %eax
	addq	$224, %rsp
	popq	%rbp
	retq
Ltmp746:
LBB210_7:
Ltmp744:
	.loc	26 0 6
	movq	%rax, -16(%rbp)
	movl	%edx, -8(%rbp)
	jmp	LBB210_3
Lfunc_end210:
	.cfi_endproc
	.section	__TEXT,__gcc_except_tab
	.p2align	2
GCC_except_table210:
Lexception24:
	.byte	255
	.byte	255
	.byte	1
	.uleb128 Lcst_end24-Lcst_begin24
Lcst_begin24:
	.uleb128 Lfunc_begin210-Lfunc_begin210
	.uleb128 Ltmp740-Lfunc_begin210
	.byte	0
	.byte	0
	.uleb128 Ltmp740-Lfunc_begin210
	.uleb128 Ltmp743-Ltmp740
	.uleb128 Ltmp744-Lfunc_begin210
	.byte	0
Lcst_end24:
	.p2align	2

	.section	__TEXT,__text,regular,pure_instructions
	.p2align	4, 0x90
__ZN4core4char7convert18from_u32_unchecked17h63e3390c24e38b30E:
Lfunc_begin211:
	.file	27 "/rustc/6c8927b0cf80ceee19386026cf9d7fd4fd9d486f/src/libcore/char/convert.rs"
	.loc	27 101 0 is_stmt 1
	.cfi_startproc
	pushq	%rbp
	.cfi_def_cfa_offset 16
	.cfi_offset %rbp, -16
	movq	%rsp, %rbp
	.cfi_def_cfa_register %rbp
	subq	$12, %rsp
	movl	%edi, -8(%rbp)
Ltmp747:
	.loc	27 103 78 prologue_end
	movl	%edi, -4(%rbp)
	movl	-4(%rbp), %eax
	movl	%eax, -12(%rbp)
	.loc	27 0 78 is_stmt 0
	movl	-12(%rbp), %eax
	.loc	27 104 2 is_stmt 1
	addq	$12, %rsp
	popq	%rbp
	retq
Ltmp748:
Lfunc_end211:
	.cfi_endproc

	.p2align	4, 0x90
__ZN4core4char7methods15encode_utf8_raw17h98139ca48dd72634E:
Lfunc_begin212:
	.file	28 "/rustc/6c8927b0cf80ceee19386026cf9d7fd4fd9d486f/src/libcore/char/methods.rs"
	.loc	28 1621 0
	.cfi_startproc
	pushq	%rbp
	.cfi_def_cfa_offset 16
	.cfi_offset %rbp, -16
	movq	%rsp, %rbp
	.cfi_def_cfa_register %rbp
	subq	$432, %rsp
	movl	%edi, -292(%rbp)
	movq	%rsi, -120(%rbp)
	movq	%rdx, -112(%rbp)
Ltmp749:
	.loc	28 1622 24 prologue_end
	movl	-292(%rbp), %edi
	movq	%rsi, -304(%rbp)
	movq	%rdx, -312(%rbp)
	.loc	28 1622 15 is_stmt 0
	callq	__ZN4core4char7methods8len_utf817h9ffa1d9d15f072d3E
	movq	%rax, -288(%rbp)
	.loc	28 0 15
	leaq	l___unnamed_9(%rip), %rax
Ltmp750:
	.loc	28 1623 12 is_stmt 1
	movq	-288(%rbp), %rcx
	movq	-304(%rbp), %rdi
	movq	-312(%rbp), %rsi
	.loc	28 1623 22 is_stmt 0
	movq	%rax, %rdx
	movq	%rcx, -320(%rbp)
	callq	__ZN4core5slice77_$LT$impl$u20$core..ops..index..IndexMut$LT$I$GT$$u20$for$u20$$u5b$T$u5d$$GT$9index_mut17hed8e2f4a3d365bb9E
	movq	%rax, -328(%rbp)
	movq	%rdx, -336(%rbp)
	.loc	28 0 22
	movq	-320(%rbp), %rax
	.loc	28 1623 11
	movq	%rax, -280(%rbp)
	movq	-328(%rbp), %rcx
	movq	%rcx, -272(%rbp)
	movq	-336(%rbp), %rdx
	movq	%rdx, -264(%rbp)
	.loc	28 1624 10 is_stmt 1
	movq	-280(%rbp), %rsi
	decq	%rsi
	movq	%rsi, %rdi
	subq	$3, %rdi
	movq	%rsi, -344(%rbp)
	ja	LBB212_4
	.loc	28 0 10 is_stmt 0
	leaq	LJTI212_0(%rip), %rax
	movq	-344(%rbp), %rcx
	movslq	(%rax,%rcx,4), %rdx
	addq	%rax, %rdx
	jmpq	*%rdx
LBB212_3:
	.loc	28 1624 13
	cmpq	$1, -264(%rbp)
	jae	LBB212_8
LBB212_4:
	.loc	28 1643 13 is_stmt 1
	movq	l___unnamed_10(%rip), %rax
	movq	-304(%rbp), %rdi
	movq	-312(%rbp), %rsi
	movq	%rax, -352(%rbp)
	.loc	28 1646 13
	callq	__ZN4core5slice29_$LT$impl$u20$$u5b$T$u5d$$GT$3len17h05b7456db7c7fb4fE
	movq	%rax, -136(%rbp)
	jmp	LBB212_12
LBB212_5:
	.loc	28 1627 13
	cmpq	$2, -264(%rbp)
	jae	LBB212_9
	jmp	LBB212_4
LBB212_6:
	.loc	28 1631 13
	cmpq	$3, -264(%rbp)
	jae	LBB212_10
	jmp	LBB212_4
LBB212_7:
	.loc	28 1636 13
	cmpq	$4, -264(%rbp)
	jae	LBB212_11
	jmp	LBB212_4
LBB212_8:
	.loc	28 1624 14
	movq	-272(%rbp), %rax
	movq	%rax, -32(%rbp)
Ltmp751:
	.loc	28 1625 18
	movl	-292(%rbp), %ecx
	.loc	28 1625 13 is_stmt 0
	movb	%cl, (%rax)
Ltmp752:
	.loc	28 1623 5 is_stmt 1
	jmp	LBB212_17
LBB212_9:
	.loc	28 1627 14
	movq	-272(%rbp), %rax
	movq	%rax, -48(%rbp)
	.loc	28 1627 17 is_stmt 0
	movq	-272(%rbp), %rcx
	movq	%rcx, %rdx
	addq	$1, %rdx
	movq	%rdx, -40(%rbp)
Ltmp753:
	.loc	28 1628 19 is_stmt 1
	movl	-292(%rbp), %esi
	shrl	$6, %esi
	.loc	28 1628 18 is_stmt 0
	andl	$31, %esi
	.loc	28 1628 13
	orb	$-64, %sil
	movb	%sil, (%rax)
	.loc	28 1629 19 is_stmt 1
	movl	-292(%rbp), %edi
	.loc	28 1629 18 is_stmt 0
	andl	$63, %edi
	.loc	28 1629 13
	orb	$-128, %dil
	movb	%dil, 1(%rcx)
Ltmp754:
	.loc	28 1623 5 is_stmt 1
	jmp	LBB212_17
LBB212_10:
	.loc	28 1631 14
	movq	-272(%rbp), %rax
	movq	%rax, -72(%rbp)
	.loc	28 1631 17 is_stmt 0
	movq	-272(%rbp), %rcx
	movq	%rcx, %rdx
	addq	$1, %rdx
	movq	%rdx, -64(%rbp)
	.loc	28 1631 20
	movq	-272(%rbp), %rdx
	movq	%rdx, %rsi
	addq	$2, %rsi
	movq	%rsi, -56(%rbp)
Ltmp755:
	.loc	28 1632 19 is_stmt 1
	movl	-292(%rbp), %edi
	shrl	$12, %edi
	.loc	28 1632 18 is_stmt 0
	andl	$15, %edi
	.loc	28 1632 13
	orb	$-32, %dil
	movb	%dil, (%rax)
	.loc	28 1633 19 is_stmt 1
	movl	-292(%rbp), %r8d
	shrl	$6, %r8d
	.loc	28 1633 18 is_stmt 0
	andl	$63, %r8d
	.loc	28 1633 13
	orb	$-128, %r8b
	movb	%r8b, 1(%rcx)
	.loc	28 1634 19 is_stmt 1
	movl	-292(%rbp), %r9d
	.loc	28 1634 18 is_stmt 0
	andl	$63, %r9d
	.loc	28 1634 13
	orb	$-128, %r9b
	movb	%r9b, 2(%rdx)
Ltmp756:
	.loc	28 1623 5 is_stmt 1
	jmp	LBB212_17
LBB212_11:
	.loc	28 1636 14
	movq	-272(%rbp), %rax
	movq	%rax, -104(%rbp)
	.loc	28 1636 17 is_stmt 0
	movq	-272(%rbp), %rcx
	movq	%rcx, %rdx
	addq	$1, %rdx
	movq	%rdx, -96(%rbp)
	.loc	28 1636 20
	movq	-272(%rbp), %rdx
	movq	%rdx, %rsi
	addq	$2, %rsi
	movq	%rsi, -88(%rbp)
	.loc	28 1636 23
	movq	-272(%rbp), %rsi
	movq	%rsi, %rdi
	addq	$3, %rdi
	movq	%rdi, -80(%rbp)
Ltmp757:
	.loc	28 1637 19 is_stmt 1
	movl	-292(%rbp), %r8d
	shrl	$18, %r8d
	.loc	28 1637 18 is_stmt 0
	andl	$7, %r8d
	.loc	28 1637 13
	orb	$-16, %r8b
	movb	%r8b, (%rax)
	.loc	28 1638 19 is_stmt 1
	movl	-292(%rbp), %r9d
	shrl	$12, %r9d
	.loc	28 1638 18 is_stmt 0
	andl	$63, %r9d
	.loc	28 1638 13
	orb	$-128, %r9b
	movb	%r9b, 1(%rcx)
	.loc	28 1639 19 is_stmt 1
	movl	-292(%rbp), %r10d
	shrl	$6, %r10d
	.loc	28 1639 18 is_stmt 0
	andl	$63, %r10d
	.loc	28 1639 13
	orb	$-128, %r10b
	movb	%r10b, 2(%rdx)
	.loc	28 1640 19 is_stmt 1
	movl	-292(%rbp), %r11d
	.loc	28 1640 18 is_stmt 0
	andl	$63, %r11d
	.loc	28 1640 13
	orb	$-128, %r11b
	movb	%r11b, 3(%rsi)
Ltmp758:
	.loc	28 1623 5 is_stmt 1
	jmp	LBB212_17
LBB212_12:
	.loc	28 0 5 is_stmt 0
	movq	__ZN4core3fmt3num3imp54_$LT$impl$u20$core..fmt..Display$u20$for$u20$usize$GT$3fmt17h12ea2856299c9b06E@GOTPCREL(%rip), %rsi
	.file	29 "/rustc/6c8927b0cf80ceee19386026cf9d7fd4fd9d486f/src/libcore/macros/mod.rs"
	.loc	29 19 38 is_stmt 1
	leaq	-288(%rbp), %rax
	movq	%rax, -160(%rbp)
	leaq	-292(%rbp), %rax
	movq	%rax, -152(%rbp)
	leaq	-136(%rbp), %rax
	movq	%rax, -144(%rbp)
	.loc	28 1644 13
	movq	-160(%rbp), %rax
	movq	%rax, -24(%rbp)
	.loc	28 1645 13
	movq	-152(%rbp), %rcx
	movq	%rcx, -16(%rbp)
	.loc	28 1646 13
	movq	-144(%rbp), %rdx
	movq	%rdx, -8(%rbp)
Ltmp759:
	.loc	29 19 38
	movq	%rax, %rdi
	movq	%rcx, -360(%rbp)
	movq	%rdx, -368(%rbp)
	callq	__ZN4core3fmt10ArgumentV13new17h50e618a3945e5df1E
	movq	%rax, -376(%rbp)
	movq	%rdx, -384(%rbp)
	.loc	29 0 38 is_stmt 0
	movq	__ZN4core3fmt3num53_$LT$impl$u20$core..fmt..UpperHex$u20$for$u20$u32$GT$3fmt17h7bd10b5f3c9584f1E@GOTPCREL(%rip), %rsi
	movq	-360(%rbp), %rdi
	.loc	29 19 38
	callq	__ZN4core3fmt10ArgumentV13new17hd5a90fd9de112c00E
	movq	%rax, -392(%rbp)
	movq	%rdx, -400(%rbp)
	.loc	29 0 38
	movq	__ZN4core3fmt3num3imp54_$LT$impl$u20$core..fmt..Display$u20$for$u20$usize$GT$3fmt17h12ea2856299c9b06E@GOTPCREL(%rip), %rsi
	movq	-368(%rbp), %rdi
	.loc	29 19 38
	callq	__ZN4core3fmt10ArgumentV13new17h50e618a3945e5df1E
	movq	%rax, -408(%rbp)
	movq	%rdx, -416(%rbp)
	.loc	29 0 38
	movq	-376(%rbp), %rax
	.loc	29 19 38
	movq	%rax, -208(%rbp)
	movq	-384(%rbp), %rcx
	movq	%rcx, -200(%rbp)
	movq	-392(%rbp), %rdx
	movq	%rdx, -192(%rbp)
	movq	-400(%rbp), %rsi
	movq	%rsi, -184(%rbp)
	movq	-408(%rbp), %rdi
	movq	%rdi, -176(%rbp)
	movq	-416(%rbp), %r8
	movq	%r8, -168(%rbp)
Ltmp760:
	.loc	29 19 38
	leaq	-208(%rbp), %r9
	leaq	-256(%rbp), %rdi
	movq	-352(%rbp), %rsi
	movl	$3, %r10d
	movq	%r10, %rdx
	movq	%r9, %rcx
	movq	%r10, %r8
	callq	__ZN4core3fmt9Arguments6new_v117hda5b0f33b16c781fE
	.loc	29 19 9
	leaq	l___unnamed_11(%rip), %rsi
	leaq	-256(%rbp), %rdi
	callq	__ZN4core9panicking9panic_fmt17hfce5b7173905fc53E
LBB212_17:
	.loc	29 0 9
	leaq	l___unnamed_12(%rip), %rax
	.loc	28 1649 16 is_stmt 1
	movq	-288(%rbp), %rcx
	.loc	28 1649 14 is_stmt 0
	movq	%rcx, -128(%rbp)
	.loc	28 1649 10
	movq	-128(%rbp), %rdx
	movq	-304(%rbp), %rdi
	movq	-312(%rbp), %rsi
	movq	%rax, %rcx
	callq	__ZN4core5slice77_$LT$impl$u20$core..ops..index..IndexMut$LT$I$GT$$u20$for$u20$$u5b$T$u5d$$GT$9index_mut17h73903ce1d2c7e68aE
	movq	%rax, -424(%rbp)
	movq	%rdx, -432(%rbp)
Ltmp761:
	.loc	28 0 10
	movq	-424(%rbp), %rax
	movq	-432(%rbp), %rdx
	.loc	28 1650 2 is_stmt 1
	addq	$432, %rsp
	popq	%rbp
	retq
Ltmp762:
Lfunc_end212:
	.cfi_endproc
	.p2align	2, 0x90
	.data_region jt32
.set L212_0_set_3, LBB212_3-LJTI212_0
.set L212_0_set_5, LBB212_5-LJTI212_0
.set L212_0_set_6, LBB212_6-LJTI212_0
.set L212_0_set_7, LBB212_7-LJTI212_0
LJTI212_0:
	.long	L212_0_set_3
	.long	L212_0_set_5
	.long	L212_0_set_6
	.long	L212_0_set_7
	.end_data_region

	.p2align	4, 0x90
__ZN4core4char7methods22_$LT$impl$u20$char$GT$11encode_utf817ha13639755de50bfcE:
Lfunc_begin213:
	.loc	28 642 0
	.cfi_startproc
	pushq	%rbp
	.cfi_def_cfa_offset 16
	.cfi_offset %rbp, -16
	movq	%rsp, %rbp
	.cfi_def_cfa_register %rbp
	subq	$64, %rsp
	movl	%edi, -20(%rbp)
	movq	%rsi, -16(%rbp)
	movq	%rdx, -8(%rbp)
Ltmp763:
	.loc	28 644 42 prologue_end
	callq	__ZN4core4char7methods15encode_utf8_raw17h98139ca48dd72634E
	movq	%rax, -32(%rbp)
	movq	%rdx, -40(%rbp)
	.loc	28 0 42 is_stmt 0
	movq	-32(%rbp), %rdi
	movq	-40(%rbp), %rsi
	.loc	28 644 18
	callq	__ZN4core3str23from_utf8_unchecked_mut17h4e0af87da6820170E
	movq	%rax, -48(%rbp)
	movq	%rdx, -56(%rbp)
	.loc	28 0 18
	movq	-48(%rbp), %rax
	movq	-56(%rbp), %rdx
	.loc	28 645 6 is_stmt 1
	addq	$64, %rsp
	popq	%rbp
	retq
Ltmp764:
Lfunc_end213:
	.cfi_endproc

	.p2align	4, 0x90
__ZN4core4char7methods22_$LT$impl$u20$char$GT$8len_utf817hbce20ec629efc394E:
Lfunc_begin214:
	.loc	28 580 0
	.cfi_startproc
	pushq	%rbp
	.cfi_def_cfa_offset 16
	.cfi_offset %rbp, -16
	movq	%rsp, %rbp
	.cfi_def_cfa_register %rbp
	subq	$16, %rsp
	movl	%edi, -4(%rbp)
Ltmp765:
	.loc	28 581 9 prologue_end
	callq	__ZN4core4char7methods8len_utf817h9ffa1d9d15f072d3E
	movq	%rax, -16(%rbp)
	.loc	28 0 9 is_stmt 0
	movq	-16(%rbp), %rax
	.loc	28 582 6 is_stmt 1
	addq	$16, %rsp
	popq	%rbp
	retq
Ltmp766:
Lfunc_end214:
	.cfi_endproc

	.p2align	4, 0x90
__ZN4core4char7methods8len_utf817h9ffa1d9d15f072d3E:
Lfunc_begin215:
	.loc	28 1593 0
	.cfi_startproc
	pushq	%rbp
	.cfi_def_cfa_offset 16
	.cfi_offset %rbp, -16
	movq	%rsp, %rbp
	.cfi_def_cfa_register %rbp
	subq	$24, %rsp
	movl	%edi, -4(%rbp)
Ltmp767:
	.loc	28 1594 8 prologue_end
	cmpl	$128, %edi
	movl	%edi, -20(%rbp)
	.loc	28 1594 5 is_stmt 0
	jb	LBB215_2
	.loc	28 0 5
	movl	-20(%rbp), %eax
	.loc	28 1596 15 is_stmt 1
	cmpl	$2048, %eax
	.loc	28 1596 12 is_stmt 0
	jb	LBB215_4
	jmp	LBB215_3
LBB215_2:
	.loc	28 1595 9 is_stmt 1
	movq	$1, -16(%rbp)
	.loc	28 1594 5
	jmp	LBB215_9
LBB215_3:
	.loc	28 0 5 is_stmt 0
	movl	-20(%rbp), %eax
	.loc	28 1598 15 is_stmt 1
	cmpl	$65536, %eax
	.loc	28 1598 12 is_stmt 0
	jb	LBB215_6
	jmp	LBB215_5
LBB215_4:
	.loc	28 1597 9 is_stmt 1
	movq	$2, -16(%rbp)
	.loc	28 1596 12
	jmp	LBB215_8
LBB215_5:
	.loc	28 1601 9
	movq	$4, -16(%rbp)
	.loc	28 1598 12
	jmp	LBB215_7
LBB215_6:
	.loc	28 1599 9
	movq	$3, -16(%rbp)
LBB215_7:
	.loc	28 1596 12
	jmp	LBB215_8
LBB215_8:
	.loc	28 1594 5
	jmp	LBB215_9
LBB215_9:
	.loc	28 1603 2
	movq	-16(%rbp), %rax
	addq	$24, %rsp
	popq	%rbp
	retq
Ltmp768:
Lfunc_end215:
	.cfi_endproc

	.p2align	4, 0x90
__ZN4core4iter5range101_$LT$impl$u20$core..iter..traits..iterator..Iterator$u20$for$u20$core..ops..range..Range$LT$A$GT$$GT$4next17h76e3456b2530b250E:
Lfunc_begin216:
	.loc	15 504 0
	.cfi_startproc
	pushq	%rbp
	.cfi_def_cfa_offset 16
	.cfi_offset %rbp, -16
	movq	%rsp, %rbp
	.cfi_def_cfa_register %rbp
	subq	$80, %rsp
	movq	%rdi, -16(%rbp)
Ltmp769:
	.loc	15 505 12 prologue_end
	movq	%rdi, %rax
	.loc	15 505 25 is_stmt 0
	movq	%rdi, %rcx
	addq	$8, %rcx
	movq	%rdi, -40(%rbp)
	.loc	15 505 12
	movq	%rax, %rdi
	movq	%rcx, %rsi
	callq	__ZN4core3cmp5impls57_$LT$impl$u20$core..cmp..PartialOrd$u20$for$u20$usize$GT$2lt17h18174a06b322ad49E
	movb	%al, -41(%rbp)
	.loc	15 0 12
	movb	-41(%rbp), %al
	.loc	15 505 9
	testb	$1, %al
	jne	LBB216_3
	jmp	LBB216_2
LBB216_2:
	.loc	15 510 13 is_stmt 1
	movq	$0, -32(%rbp)
	.loc	15 505 9
	jmp	LBB216_7
LBB216_3:
	.loc	15 0 9 is_stmt 0
	movq	-40(%rbp), %rax
	.loc	15 507 54 is_stmt 1
	movq	%rax, %rdi
	callq	__ZN4core5clone5impls54_$LT$impl$u20$core..clone..Clone$u20$for$u20$usize$GT$5clone17h1497af33968c7b96E
	movq	%rax, -56(%rbp)
	.loc	15 0 54 is_stmt 0
	movq	-56(%rbp), %rdi
	.loc	15 507 30
	movl	$1, %esi
	callq	__ZN49_$LT$usize$u20$as$u20$core..iter..range..Step$GT$17forward_unchecked17h6a23be1bc538caf1E
	movq	%rax, -8(%rbp)
	movq	%rax, -64(%rbp)
	.loc	15 0 30
	movq	-40(%rbp), %rax
Ltmp770:
	.loc	15 508 18 is_stmt 1
	movq	%rax, %rdi
	movq	-64(%rbp), %rsi
	callq	__ZN4core3mem7replace17h935a9c9e06365e47E
	movq	%rax, -72(%rbp)
	.loc	15 0 18 is_stmt 0
	movq	-72(%rbp), %rax
	.loc	15 508 13
	movq	%rax, -24(%rbp)
	movq	$1, -32(%rbp)
Ltmp771:
LBB216_7:
	.loc	15 512 6 is_stmt 1
	movq	-32(%rbp), %rax
	movq	-24(%rbp), %rdx
	addq	$80, %rsp
	popq	%rbp
	retq
Ltmp772:
Lfunc_end216:
	.cfi_endproc

	.p2align	4, 0x90
__ZN4core4iter5range116_$LT$impl$u20$core..iter..traits..double_ended..DoubleEndedIterator$u20$for$u20$core..ops..range..Range$LT$A$GT$$GT$9next_back17hf42f8b2ae01d376aE:
Lfunc_begin217:
	.loc	15 588 0
	.cfi_startproc
	pushq	%rbp
	.cfi_def_cfa_offset 16
	.cfi_offset %rbp, -16
	movq	%rsp, %rbp
	.cfi_def_cfa_register %rbp
	subq	$80, %rsp
	movq	%rdi, -24(%rbp)
Ltmp773:
	.loc	15 589 12 prologue_end
	movq	%rdi, %rax
	.loc	15 589 25 is_stmt 0
	movq	%rdi, %rcx
	addq	$8, %rcx
	movq	%rdi, -56(%rbp)
	.loc	15 589 12
	movq	%rax, %rdi
	movq	%rcx, %rsi
	callq	__ZN4core3cmp5impls57_$LT$impl$u20$core..cmp..PartialOrd$u20$for$u20$usize$GT$2lt17h18174a06b322ad49E
	movb	%al, -57(%rbp)
	.loc	15 0 12
	movb	-57(%rbp), %al
	.loc	15 589 9
	testb	$1, %al
	jne	LBB217_3
	jmp	LBB217_2
LBB217_2:
	.loc	15 594 13 is_stmt 1
	movq	$0, -48(%rbp)
	.loc	15 589 9
	jmp	LBB217_7
LBB217_3:
	.loc	15 0 9 is_stmt 0
	movq	-56(%rbp), %rax
	.loc	15 591 58 is_stmt 1
	addq	$8, %rax
	movq	%rax, %rdi
	callq	__ZN4core5clone5impls54_$LT$impl$u20$core..clone..Clone$u20$for$u20$usize$GT$5clone17h1497af33968c7b96E
	movq	%rax, -72(%rbp)
	.loc	15 0 58 is_stmt 0
	movq	-72(%rbp), %rdi
	.loc	15 591 33
	movl	$1, %esi
	callq	__ZN49_$LT$usize$u20$as$u20$core..iter..range..Step$GT$18backward_unchecked17he165c72da513ff8eE
	movq	%rax, -80(%rbp)
	.loc	15 591 13
	jmp	LBB217_8
LBB217_6:
	.loc	15 592 13 is_stmt 1
	movq	-32(%rbp), %rax
	movq	%rax, -40(%rbp)
	movq	$1, -48(%rbp)
LBB217_7:
	.loc	15 596 6
	movq	-48(%rbp), %rax
	movq	-40(%rbp), %rdx
	addq	$80, %rsp
	popq	%rbp
	retq
LBB217_8:
	.loc	15 0 6 is_stmt 0
	movq	-56(%rbp), %rax
	movq	-80(%rbp), %rcx
	.loc	15 591 13 is_stmt 1
	movq	%rcx, 8(%rax)
	.loc	15 592 18
	addq	$8, %rax
	movq	%rax, %rdi
	callq	__ZN4core5clone5impls54_$LT$impl$u20$core..clone..Clone$u20$for$u20$usize$GT$5clone17h1497af33968c7b96E
	movq	%rax, -32(%rbp)
	jmp	LBB217_6
Ltmp774:
Lfunc_end217:
	.cfi_endproc

	.p2align	4, 0x90
__ZN4core4iter6traits8iterator8Iterator3any17hfb89eb756f227904E:
Lfunc_begin218:
	.file	30 "/rustc/6c8927b0cf80ceee19386026cf9d7fd4fd9d486f/src/libcore/iter/traits/iterator.rs"
	.loc	30 2137 0
	.cfi_startproc
	pushq	%rbp
	.cfi_def_cfa_offset 16
	.cfi_offset %rbp, -16
	movq	%rsp, %rbp
	.cfi_def_cfa_register %rbp
	subq	$48, %rsp
	movq	%rdi, -16(%rbp)
	movq	%rsi, -8(%rbp)
	movq	%rdi, -32(%rbp)
Ltmp775:
	.loc	30 2149 27 prologue_end
	movq	%rsi, %rdi
	callq	__ZN4core4iter6traits8iterator8Iterator3any5check17he2a8d6c5d1f4d9a2E
	movq	%rax, -40(%rbp)
	.loc	30 0 27 is_stmt 0
	movq	-32(%rbp), %rdi
	movq	-40(%rbp), %rsi
	.loc	30 2149 9
	callq	__ZN4core4iter6traits8iterator8Iterator8try_fold17hd0e3f225ee382e26E
	andb	$1, %al
	movb	%al, -17(%rbp)
	.loc	30 2149 40
	movq	l___unnamed_13(%rip), %rsi
	.loc	30 2149 9
	leaq	-17(%rbp), %rdi
	callq	__ZN75_$LT$core..iter..LoopState$LT$C$C$B$GT$$u20$as$u20$core..cmp..PartialEq$GT$2eq17hdd96e9e9cf841c88E
	movb	%al, -41(%rbp)
	.loc	30 0 9
	movb	-41(%rbp), %al
	.loc	30 2150 6 is_stmt 1
	andb	$1, %al
	movzbl	%al, %eax
	addq	$48, %rsp
	popq	%rbp
	retq
Ltmp776:
Lfunc_end218:
	.cfi_endproc

	.p2align	4, 0x90
__ZN4core4iter6traits8iterator8Iterator3any5check17he2a8d6c5d1f4d9a2E:
Lfunc_begin219:
	.loc	30 2143 0
	.cfi_startproc
	pushq	%rbp
	.cfi_def_cfa_offset 16
	.cfi_offset %rbp, -16
	movq	%rsp, %rbp
	.cfi_def_cfa_register %rbp
	subq	$16, %rsp
	movq	%rdi, -8(%rbp)
Ltmp777:
	.loc	30 2144 13 prologue_end
	movq	%rdi, -16(%rbp)
	.loc	30 2147 10
	movq	-16(%rbp), %rax
	addq	$16, %rsp
	popq	%rbp
	retq
Ltmp778:
Lfunc_end219:
	.cfi_endproc

	.p2align	4, 0x90
__ZN4core4iter6traits8iterator8Iterator3any5check28_$u7b$$u7b$closure$u7d$$u7d$17hadaf7964269a5415E:
Lfunc_begin220:
	.loc	30 2144 0
	.cfi_startproc
	pushq	%rbp
	.cfi_def_cfa_offset 16
	.cfi_offset %rbp, -16
	movq	%rsp, %rbp
	.cfi_def_cfa_register %rbp
	subq	$64, %rsp
	movq	%rdi, -32(%rbp)
	movq	%rsi, -16(%rbp)
	movq	%rdx, -8(%rbp)
Ltmp779:
	.loc	30 2145 20 prologue_end
	movq	%rsi, -48(%rbp)
	movq	%rdx, -40(%rbp)
	movq	-48(%rbp), %rax
	movq	-40(%rbp), %rdx
	movq	%rax, %rsi
	callq	__ZN18build_script_build15feature_allowed28_$u7b$$u7b$closure$u7d$$u7d$17h3ad31124f5ac659eE
	movb	%al, -50(%rbp)
	.loc	30 0 20 is_stmt 0
	movb	-50(%rbp), %al
	.loc	30 2145 17
	testb	$1, %al
	jne	LBB220_3
	jmp	LBB220_2
LBB220_2:
	.loc	30 2145 57
	movb	$0, -49(%rbp)
	.loc	30 2145 17
	jmp	LBB220_4
LBB220_3:
	.loc	30 2145 27
	movb	$1, -49(%rbp)
LBB220_4:
	.loc	30 2146 14 is_stmt 1
	movb	-49(%rbp), %al
	andb	$1, %al
	movzbl	%al, %eax
	addq	$64, %rsp
	popq	%rbp
	retq
Ltmp780:
Lfunc_end220:
	.cfi_endproc

	.p2align	4, 0x90
__ZN4core4iter6traits8iterator8Iterator3rev17heb5f0462654e38aeE:
Lfunc_begin221:
	.loc	30 2621 0
	.cfi_startproc
	pushq	%rbp
	.cfi_def_cfa_offset 16
	.cfi_offset %rbp, -16
	movq	%rsp, %rbp
	.cfi_def_cfa_register %rbp
	subq	$32, %rsp
	movq	%rdi, -16(%rbp)
	movq	%rsi, -8(%rbp)
Ltmp781:
	.loc	30 2625 9 prologue_end
	callq	__ZN4core4iter8adapters12Rev$LT$T$GT$3new17h6ba1121b11bf6fc2E
	movq	%rax, -24(%rbp)
	movq	%rdx, -32(%rbp)
	.loc	30 0 9 is_stmt 0
	movq	-24(%rbp), %rax
	movq	-32(%rbp), %rdx
	.loc	30 2626 6 is_stmt 1
	addq	$32, %rsp
	popq	%rbp
	retq
Ltmp782:
Lfunc_end221:
	.cfi_endproc

	.p2align	4, 0x90
__ZN4core4iter6traits8iterator8Iterator8try_fold17hd0e3f225ee382e26E:
Lfunc_begin222:
	.loc	30 1862 0
	.cfi_startproc
	.cfi_personality 155, _rust_eh_personality
	.cfi_lsda 16, Lexception25
	pushq	%rbp
	.cfi_def_cfa_offset 16
	.cfi_offset %rbp, -16
	movq	%rsp, %rbp
	.cfi_def_cfa_register %rbp
	subq	$176, %rsp
	movq	%rsi, -136(%rbp)
	movq	%rdi, -64(%rbp)
Ltmp798:
	.loc	30 1868 13 prologue_end
	movb	$0, -65(%rbp)
	.loc	30 1868 25 is_stmt 0
	movb	$1, -65(%rbp)
	movq	%rdi, -144(%rbp)
LBB222_1:
Ltmp783:
	.loc	30 0 25
	movq	-144(%rbp), %rdi
Ltmp799:
	.loc	30 1869 29 is_stmt 1
	callq	__ZN84_$LT$core..str..Split$LT$P$GT$$u20$as$u20$core..iter..traits..iterator..Iterator$GT$4next17h9d580e14fea6dad3E
Ltmp784:
	movq	%rdx, -152(%rbp)
	movq	%rax, -160(%rbp)
	jmp	LBB222_4
Ltmp800:
LBB222_2:
	.loc	30 1862 5
	movq	-32(%rbp), %rdi
	callq	__Unwind_Resume
	ud2
LBB222_3:
	.loc	30 1873 5
	jmp	LBB222_2
LBB222_4:
	.loc	30 0 5 is_stmt 0
	xorl	%eax, %eax
	movl	%eax, %ecx
	movq	-160(%rbp), %rdx
Ltmp801:
	.loc	30 1869 29 is_stmt 1
	movq	%rdx, -112(%rbp)
	movq	-152(%rbp), %rsi
	movq	%rsi, -104(%rbp)
	.loc	30 1869 19 is_stmt 0
	cmpq	$0, -112(%rbp)
	movl	$1, %edi
	cmovbeq	%rcx, %rdi
	cmpq	$1, %rdi
	je	LBB222_6
	.loc	30 1871 9 is_stmt 1
	jmp	LBB222_16
LBB222_6:
	.loc	30 1869 24
	movq	-112(%rbp), %rax
	movq	-104(%rbp), %rcx
	movq	%rax, -16(%rbp)
	movq	%rcx, -8(%rbp)
Ltmp802:
	.loc	30 1870 23
	movb	$0, -65(%rbp)
	.loc	30 1870 21 is_stmt 0
	movq	%rax, -88(%rbp)
	movq	%rcx, -80(%rbp)
	movq	-88(%rbp), %rsi
	movq	-80(%rbp), %rdx
Ltmp788:
	leaq	-136(%rbp), %rdi
	callq	__ZN4core4iter6traits8iterator8Iterator3any5check28_$u7b$$u7b$closure$u7d$$u7d$17hadaf7964269a5415E
Ltmp789:
	movb	%al, -161(%rbp)
	jmp	LBB222_7
LBB222_7:
Ltmp790:
	.loc	30 0 21
	movb	-161(%rbp), %al
	.loc	30 1870 21
	movzbl	%al, %ecx
	andl	$1, %ecx
	movl	%ecx, %edi
	callq	__ZN74_$LT$core..iter..LoopState$LT$C$C$B$GT$$u20$as$u20$core..ops..try..Try$GT$11into_result17hc7efcaba72360c5dE
Ltmp791:
	movb	%al, -162(%rbp)
	jmp	LBB222_8
LBB222_8:
	.loc	30 0 21
	movb	-162(%rbp), %al
	.loc	30 1870 21
	andb	$1, %al
	movb	%al, -89(%rbp)
	.loc	30 1870 32
	movzbl	-89(%rbp), %ecx
	movl	%ecx, %edx
	testb	$1, %dl
	je	LBB222_10
	jmp	LBB222_24
LBB222_24:
	jmp	LBB222_12
LBB222_9:
	.loc	30 1870 33
	jmp	LBB222_20
LBB222_10:
	.loc	30 1870 13
	movb	$1, -65(%rbp)
Ltmp803:
	.loc	30 1869 9 is_stmt 1
	jmp	LBB222_1
Ltmp804:
	.loc	30 1870 21
	ud2
LBB222_12:
Ltmp793:
Ltmp805:
	.loc	30 1870 32 is_stmt 0
	callq	__ZN50_$LT$T$u20$as$u20$core..convert..From$LT$T$GT$$GT$4from17h5aab994ecdb488e1E
Ltmp794:
	jmp	LBB222_14
Ltmp806:
LBB222_13:
	.loc	30 1873 6 is_stmt 1
	movb	-121(%rbp), %al
	andb	$1, %al
	movzbl	%al, %eax
	addq	$176, %rsp
	popq	%rbp
	retq
LBB222_14:
Ltmp795:
Ltmp807:
	.loc	30 1870 32
	callq	__ZN74_$LT$core..iter..LoopState$LT$C$C$B$GT$$u20$as$u20$core..ops..try..Try$GT$10from_error17h6dd43a1eccf65421E
Ltmp796:
	movb	%al, -163(%rbp)
	jmp	LBB222_15
LBB222_15:
	.loc	30 0 32 is_stmt 0
	movb	-163(%rbp), %al
	.loc	30 1870 32
	andb	$1, %al
	movb	%al, -121(%rbp)
Ltmp808:
	.loc	30 1873 5 is_stmt 1
	movb	$0, -65(%rbp)
	jmp	LBB222_13
LBB222_16:
Ltmp809:
	.loc	30 1872 22
	movb	$0, -65(%rbp)
Ltmp785:
	.loc	30 1872 9 is_stmt 0
	callq	__ZN74_$LT$core..iter..LoopState$LT$C$C$B$GT$$u20$as$u20$core..ops..try..Try$GT$7from_ok17hd673e238250aaf05E
Ltmp786:
	movb	%al, -164(%rbp)
	jmp	LBB222_17
LBB222_17:
	.loc	30 0 9
	movb	-164(%rbp), %al
	.loc	30 1872 9
	andb	$1, %al
	movb	%al, -121(%rbp)
Ltmp810:
	.loc	30 1873 5 is_stmt 1
	movb	$0, -65(%rbp)
	jmp	LBB222_13
LBB222_18:
	movb	$0, -65(%rbp)
	jmp	LBB222_3
LBB222_19:
	testb	$1, -65(%rbp)
	jne	LBB222_18
	jmp	LBB222_3
LBB222_20:
Ltmp811:
	.loc	30 1871 9
	jmp	LBB222_19
Ltmp812:
LBB222_21:
Ltmp787:
	.loc	30 0 9 is_stmt 0
	movq	%rax, -32(%rbp)
	movl	%edx, -24(%rbp)
	jmp	LBB222_19
LBB222_22:
Ltmp792:
	movq	%rax, -32(%rbp)
	movl	%edx, -24(%rbp)
	jmp	LBB222_20
LBB222_23:
Ltmp797:
	movq	%rax, -32(%rbp)
	movl	%edx, -24(%rbp)
	jmp	LBB222_9
Lfunc_end222:
	.cfi_endproc
	.section	__TEXT,__gcc_except_tab
	.p2align	2
GCC_except_table222:
Lexception25:
	.byte	255
	.byte	255
	.byte	1
	.uleb128 Lcst_end25-Lcst_begin25
Lcst_begin25:
	.uleb128 Ltmp783-Lfunc_begin222
	.uleb128 Ltmp784-Ltmp783
	.uleb128 Ltmp787-Lfunc_begin222
	.byte	0
	.uleb128 Ltmp784-Lfunc_begin222
	.uleb128 Ltmp788-Ltmp784
	.byte	0
	.byte	0
	.uleb128 Ltmp788-Lfunc_begin222
	.uleb128 Ltmp791-Ltmp788
	.uleb128 Ltmp792-Lfunc_begin222
	.byte	0
	.uleb128 Ltmp793-Lfunc_begin222
	.uleb128 Ltmp796-Ltmp793
	.uleb128 Ltmp797-Lfunc_begin222
	.byte	0
	.uleb128 Ltmp785-Lfunc_begin222
	.uleb128 Ltmp786-Ltmp785
	.uleb128 Ltmp787-Lfunc_begin222
	.byte	0
Lcst_end25:
	.p2align	2

	.section	__TEXT,__text,regular,pure_instructions
	.p2align	4, 0x90
__ZN4core4iter8adapters12Rev$LT$T$GT$3new17h6ba1121b11bf6fc2E:
Lfunc_begin223:
	.file	31 "/rustc/6c8927b0cf80ceee19386026cf9d7fd4fd9d486f/src/libcore/iter/adapters/mod.rs"
	.loc	31 35 0 is_stmt 1
	.cfi_startproc
	pushq	%rbp
	.cfi_def_cfa_offset 16
	.cfi_offset %rbp, -16
	movq	%rsp, %rbp
	.cfi_def_cfa_register %rbp
	subq	$32, %rsp
	movq	%rdi, -16(%rbp)
	movq	%rsi, -8(%rbp)
Ltmp813:
	.loc	31 36 9 prologue_end
	movq	%rdi, -32(%rbp)
	movq	%rsi, -24(%rbp)
	.loc	31 37 6
	movq	-32(%rbp), %rax
	movq	-24(%rbp), %rdx
	addq	$32, %rsp
	popq	%rbp
	retq
Ltmp814:
Lfunc_end223:
	.cfi_endproc

	.p2align	4, 0x90
__ZN4core5alloc6layout10size_align17hb0a589c4ce49fd20E:
Lfunc_begin224:
	.file	32 "/rustc/6c8927b0cf80ceee19386026cf9d7fd4fd9d486f/src/libcore/alloc/layout.rs"
	.loc	32 7 0
	.cfi_startproc
	pushq	%rbp
	.cfi_def_cfa_offset 16
	.cfi_offset %rbp, -16
	movq	%rsp, %rbp
	.cfi_def_cfa_register %rbp
	subq	$48, %rsp
Ltmp815:
	.loc	18 310 5 prologue_end
	movq	$640, -16(%rbp)
	movq	-16(%rbp), %rax
	movq	%rax, -40(%rbp)
Ltmp816:
	.loc	18 451 5
	movq	$8, -8(%rbp)
	movq	-8(%rbp), %rax
	movq	%rax, -48(%rbp)
Ltmp817:
	.loc	18 0 5 is_stmt 0
	movq	-40(%rbp), %rax
	.loc	32 8 5 is_stmt 1
	movq	%rax, -32(%rbp)
	movq	-48(%rbp), %rcx
	movq	%rcx, -24(%rbp)
	.loc	32 9 2
	movq	-32(%rbp), %rax
	movq	-24(%rbp), %rdx
	addq	$48, %rsp
	popq	%rbp
	retq
Ltmp818:
Lfunc_end224:
	.cfi_endproc

	.p2align	4, 0x90
__ZN4core5alloc6layout10size_align17hf3ea754dbec60f9cE:
Lfunc_begin225:
	.loc	32 7 0
	.cfi_startproc
	pushq	%rbp
	.cfi_def_cfa_offset 16
	.cfi_offset %rbp, -16
	movq	%rsp, %rbp
	.cfi_def_cfa_register %rbp
	subq	$48, %rsp
Ltmp819:
	.loc	18 310 5 prologue_end
	movq	$544, -16(%rbp)
	movq	-16(%rbp), %rax
	movq	%rax, -40(%rbp)
Ltmp820:
	.loc	18 451 5
	movq	$8, -8(%rbp)
	movq	-8(%rbp), %rax
	movq	%rax, -48(%rbp)
Ltmp821:
	.loc	18 0 5 is_stmt 0
	movq	-40(%rbp), %rax
	.loc	32 8 5 is_stmt 1
	movq	%rax, -32(%rbp)
	movq	-48(%rbp), %rcx
	movq	%rcx, -24(%rbp)
	.loc	32 9 2
	movq	-32(%rbp), %rax
	movq	-24(%rbp), %rdx
	addq	$48, %rsp
	popq	%rbp
	retq
Ltmp822:
Lfunc_end225:
	.cfi_endproc

	.p2align	4, 0x90
__ZN4core5alloc6layout6Layout25from_size_align_unchecked17hd58a4abb44d132c5E:
Lfunc_begin226:
	.loc	32 92 0
	.cfi_startproc
	pushq	%rbp
	.cfi_def_cfa_offset 16
	.cfi_offset %rbp, -16
	movq	%rsp, %rbp
	.cfi_def_cfa_register %rbp
	subq	$48, %rsp
	movq	%rdi, -16(%rbp)
	movq	%rsi, -8(%rbp)
	movq	%rdi, -40(%rbp)
Ltmp823:
	.loc	32 94 48 prologue_end
	movq	%rsi, %rdi
	callq	__ZN4core3num12NonZeroUsize13new_unchecked17h7fbc7ea853b8b4afE
	movq	%rax, -48(%rbp)
	.loc	32 0 48 is_stmt 0
	movq	-40(%rbp), %rax
	.loc	32 94 9
	movq	%rax, -32(%rbp)
	movq	-48(%rbp), %rcx
	movq	%rcx, -24(%rbp)
	.loc	32 95 6 is_stmt 1
	movq	-32(%rbp), %rax
	movq	-24(%rbp), %rdx
	addq	$48, %rsp
	popq	%rbp
	retq
Ltmp824:
Lfunc_end226:
	.cfi_endproc

	.p2align	4, 0x90
__ZN4core5alloc6layout6Layout3new17h97c79613c621f0e4E:
Lfunc_begin227:
	.loc	32 117 0
	.cfi_startproc
	pushq	%rbp
	.cfi_def_cfa_offset 16
	.cfi_offset %rbp, -16
	movq	%rsp, %rbp
	.cfi_def_cfa_register %rbp
	subq	$48, %rsp
Ltmp825:
	.loc	32 118 29 prologue_end
	callq	__ZN4core5alloc6layout10size_align17hf3ea754dbec60f9cE
	movq	%rax, -24(%rbp)
	movq	%rdx, -32(%rbp)
	.loc	32 0 29 is_stmt 0
	movq	-24(%rbp), %rax
	.loc	32 118 14
	movq	%rax, -16(%rbp)
	movq	-32(%rbp), %rcx
	.loc	32 118 20
	movq	%rcx, -8(%rbp)
Ltmp826:
	.loc	32 123 18 is_stmt 1
	movq	%rax, %rdi
	movq	%rcx, %rsi
	callq	__ZN4core5alloc6layout6Layout25from_size_align_unchecked17hd58a4abb44d132c5E
	movq	%rax, -40(%rbp)
	movq	%rdx, -48(%rbp)
Ltmp827:
	.loc	32 0 18 is_stmt 0
	movq	-40(%rbp), %rax
	movq	-48(%rbp), %rdx
	.loc	32 124 6 is_stmt 1
	addq	$48, %rsp
	popq	%rbp
	retq
Ltmp828:
Lfunc_end227:
	.cfi_endproc

	.p2align	4, 0x90
__ZN4core5alloc6layout6Layout3new17hd37ccf15b3bfd959E:
Lfunc_begin228:
	.loc	32 117 0
	.cfi_startproc
	pushq	%rbp
	.cfi_def_cfa_offset 16
	.cfi_offset %rbp, -16
	movq	%rsp, %rbp
	.cfi_def_cfa_register %rbp
	subq	$48, %rsp
Ltmp829:
	.loc	32 118 29 prologue_end
	callq	__ZN4core5alloc6layout10size_align17hb0a589c4ce49fd20E
	movq	%rax, -24(%rbp)
	movq	%rdx, -32(%rbp)
	.loc	32 0 29 is_stmt 0
	movq	-24(%rbp), %rax
	.loc	32 118 14
	movq	%rax, -16(%rbp)
	movq	-32(%rbp), %rcx
	.loc	32 118 20
	movq	%rcx, -8(%rbp)
Ltmp830:
	.loc	32 123 18 is_stmt 1
	movq	%rax, %rdi
	movq	%rcx, %rsi
	callq	__ZN4core5alloc6layout6Layout25from_size_align_unchecked17hd58a4abb44d132c5E
	movq	%rax, -40(%rbp)
	movq	%rdx, -48(%rbp)
Ltmp831:
	.loc	32 0 18 is_stmt 0
	movq	-40(%rbp), %rax
	movq	-48(%rbp), %rdx
	.loc	32 124 6 is_stmt 1
	addq	$48, %rsp
	popq	%rbp
	retq
Ltmp832:
Lfunc_end228:
	.cfi_endproc

	.p2align	4, 0x90
__ZN4core5alloc6layout6Layout4size17hf8f1d39a4d9f74caE:
Lfunc_begin229:
	.loc	32 101 0
	.cfi_startproc
	pushq	%rbp
	.cfi_def_cfa_offset 16
	.cfi_offset %rbp, -16
	movq	%rsp, %rbp
	.cfi_def_cfa_register %rbp
	pushq	%rax
	movq	%rdi, -8(%rbp)
Ltmp833:
	.loc	32 102 9 prologue_end
	movq	(%rdi), %rax
	.loc	32 103 6
	addq	$8, %rsp
	popq	%rbp
	retq
Ltmp834:
Lfunc_end229:
	.cfi_endproc

	.p2align	4, 0x90
__ZN4core5alloc6layout6Layout5align17h868d984dc7fce9fcE:
Lfunc_begin230:
	.loc	32 109 0
	.cfi_startproc
	pushq	%rbp
	.cfi_def_cfa_offset 16
	.cfi_offset %rbp, -16
	movq	%rsp, %rbp
	.cfi_def_cfa_register %rbp
	subq	$16, %rsp
	movq	%rdi, -8(%rbp)
Ltmp835:
	.loc	32 110 9 prologue_end
	movq	8(%rdi), %rdi
	callq	__ZN4core3num12NonZeroUsize3get17h85855d5d636d3146E
	movq	%rax, -16(%rbp)
	.loc	32 0 9 is_stmt 0
	movq	-16(%rbp), %rax
	.loc	32 111 6 is_stmt 1
	addq	$16, %rsp
	popq	%rbp
	retq
Ltmp836:
Lfunc_end230:
	.cfi_endproc

	.p2align	4, 0x90
__ZN4core5clone5impls54_$LT$impl$u20$core..clone..Clone$u20$for$u20$usize$GT$5clone17h1497af33968c7b96E:
Lfunc_begin231:
	.file	33 "/rustc/6c8927b0cf80ceee19386026cf9d7fd4fd9d486f/src/libcore/clone.rs"
	.loc	33 184 0
	.cfi_startproc
	pushq	%rbp
	.cfi_def_cfa_offset 16
	.cfi_offset %rbp, -16
	movq	%rsp, %rbp
	.cfi_def_cfa_register %rbp
	pushq	%rax
	movq	%rdi, -8(%rbp)
Ltmp837:
	.loc	33 185 25 prologue_end
	movq	(%rdi), %rax
	.loc	33 186 22
	addq	$8, %rsp
	popq	%rbp
	retq
Ltmp838:
Lfunc_end231:
	.cfi_endproc

	.p2align	4, 0x90
__ZN4core5slice14from_raw_parts17h5a97425670e6b775E:
Lfunc_begin232:
	.loc	2 6094 0
	.cfi_startproc
	pushq	%rbp
	.cfi_def_cfa_offset 16
	.cfi_offset %rbp, -16
	movq	%rsp, %rbp
	.cfi_def_cfa_register %rbp
	subq	$32, %rsp
	movq	%rdi, -16(%rbp)
	movq	%rsi, -8(%rbp)
Ltmp839:
	.loc	2 6101 16 prologue_end
	callq	__ZN4core3ptr20slice_from_raw_parts17h9e7456a3a9e4015bE
	movq	%rax, -24(%rbp)
	movq	%rdx, -32(%rbp)
	.loc	2 0 16 is_stmt 0
	movq	-24(%rbp), %rax
	movq	-32(%rbp), %rdx
	.loc	2 6102 2 is_stmt 1
	addq	$32, %rsp
	popq	%rbp
	retq
Ltmp840:
Lfunc_end232:
	.cfi_endproc

	.p2align	4, 0x90
__ZN4core5slice14from_raw_parts17habfc934e359457bbE:
Lfunc_begin233:
	.loc	2 6094 0
	.cfi_startproc
	pushq	%rbp
	.cfi_def_cfa_offset 16
	.cfi_offset %rbp, -16
	movq	%rsp, %rbp
	.cfi_def_cfa_register %rbp
	subq	$32, %rsp
	movq	%rdi, -16(%rbp)
	movq	%rsi, -8(%rbp)
Ltmp841:
	.loc	2 6101 16 prologue_end
	callq	__ZN4core3ptr20slice_from_raw_parts17h576cb782d0e8376dE
	movq	%rax, -24(%rbp)
	movq	%rdx, -32(%rbp)
	.loc	2 0 16 is_stmt 0
	movq	-24(%rbp), %rax
	movq	-32(%rbp), %rdx
	.loc	2 6102 2 is_stmt 1
	addq	$32, %rsp
	popq	%rbp
	retq
Ltmp842:
Lfunc_end233:
	.cfi_endproc

	.p2align	4, 0x90
__ZN4core5slice14from_raw_parts17hbcbb60dbfc67c7bcE:
Lfunc_begin234:
	.loc	2 6094 0
	.cfi_startproc
	pushq	%rbp
	.cfi_def_cfa_offset 16
	.cfi_offset %rbp, -16
	movq	%rsp, %rbp
	.cfi_def_cfa_register %rbp
	subq	$32, %rsp
	movq	%rdi, -16(%rbp)
	movq	%rsi, -8(%rbp)
Ltmp843:
	.loc	2 6101 16 prologue_end
	callq	__ZN4core3ptr20slice_from_raw_parts17habc395aca0475771E
	movq	%rax, -24(%rbp)
	movq	%rdx, -32(%rbp)
	.loc	2 0 16 is_stmt 0
	movq	-24(%rbp), %rax
	movq	-32(%rbp), %rdx
	.loc	2 6102 2 is_stmt 1
	addq	$32, %rsp
	popq	%rbp
	retq
Ltmp844:
Lfunc_end234:
	.cfi_endproc

	.p2align	4, 0x90
__ZN4core5slice29_$LT$impl$u20$$u5b$T$u5d$$GT$11starts_with17h2acb069c25d02effE:
Lfunc_begin235:
	.loc	2 1431 0
	.cfi_startproc
	pushq	%rbp
	.cfi_def_cfa_offset 16
	.cfi_offset %rbp, -16
	movq	%rsp, %rbp
	.cfi_def_cfa_register %rbp
	subq	$128, %rsp
	movq	%rdx, -72(%rbp)
	movq	%rcx, -64(%rbp)
	movq	%rdi, -24(%rbp)
	movq	%rsi, -16(%rbp)
Ltmp845:
	.loc	2 1435 17 prologue_end
	movq	-72(%rbp), %rax
	movq	-64(%rbp), %rcx
	movq	%rdi, -80(%rbp)
	movq	%rax, %rdi
	movq	%rsi, -88(%rbp)
	movq	%rcx, %rsi
	callq	__ZN4core5slice29_$LT$impl$u20$$u5b$T$u5d$$GT$3len17h05b7456db7c7fb4fE
	movq	%rax, -8(%rbp)
	movq	%rax, -96(%rbp)
	.loc	2 0 17 is_stmt 0
	movq	-80(%rbp), %rdi
	movq	-88(%rbp), %rsi
Ltmp846:
	.loc	2 1436 9 is_stmt 1
	callq	__ZN4core5slice29_$LT$impl$u20$$u5b$T$u5d$$GT$3len17h05b7456db7c7fb4fE
	movq	%rax, -104(%rbp)
	jmp	LBB235_6
LBB235_2:
	movb	$1, -49(%rbp)
	jmp	LBB235_5
LBB235_3:
	movb	$0, -49(%rbp)
	jmp	LBB235_5
LBB235_4:
	.loc	2 0 9 is_stmt 0
	leaq	l___unnamed_14(%rip), %rax
	movq	-96(%rbp), %rcx
	.loc	2 1436 44
	movq	%rcx, -32(%rbp)
	.loc	2 1436 39
	movq	-32(%rbp), %rdx
	movq	-80(%rbp), %rdi
	movq	-88(%rbp), %rsi
	movq	%rax, %rcx
	callq	__ZN4core5slice74_$LT$impl$u20$core..ops..index..Index$LT$I$GT$$u20$for$u20$$u5b$T$u5d$$GT$5index17hab5b97a1c335f6b4E
	movq	%rax, -112(%rbp)
	movq	%rdx, -120(%rbp)
	jmp	LBB235_7
Ltmp847:
LBB235_5:
	.loc	2 1437 6 is_stmt 1
	movb	-49(%rbp), %al
	andb	$1, %al
	movzbl	%al, %eax
	addq	$128, %rsp
	popq	%rbp
	retq
LBB235_6:
	.loc	2 0 6 is_stmt 0
	movq	-104(%rbp), %rax
	movq	-96(%rbp), %rcx
Ltmp848:
	.loc	2 1436 9 is_stmt 1
	cmpq	%rcx, %rax
	jae	LBB235_4
	jmp	LBB235_3
LBB235_7:
	.loc	2 0 9 is_stmt 0
	movq	-112(%rbp), %rax
	.loc	2 1436 38
	movq	%rax, -48(%rbp)
	movq	-120(%rbp), %rcx
	movq	%rcx, -40(%rbp)
	.loc	2 1436 28
	leaq	-72(%rbp), %rdi
	leaq	-48(%rbp), %rsi
	callq	__ZN4core3cmp5impls69_$LT$impl$u20$core..cmp..PartialEq$LT$$RF$B$GT$$u20$for$u20$$RF$A$GT$2eq17h5f7f05a830d067beE
	movb	%al, -121(%rbp)
	.loc	2 0 28
	movb	-121(%rbp), %al
	.loc	2 1436 9
	testb	$1, %al
	jne	LBB235_2
	jmp	LBB235_3
Ltmp849:
Lfunc_end235:
	.cfi_endproc

	.p2align	4, 0x90
__ZN4core5slice29_$LT$impl$u20$$u5b$T$u5d$$GT$13get_unchecked17h551e4029a8ce28d4E:
Lfunc_begin236:
	.loc	2 309 0 is_stmt 1
	.cfi_startproc
	pushq	%rbp
	.cfi_def_cfa_offset 16
	.cfi_offset %rbp, -16
	movq	%rsp, %rbp
	.cfi_def_cfa_register %rbp
	subq	$48, %rsp
	movq	%rdi, -24(%rbp)
	movq	%rsi, -16(%rbp)
	movq	%rdx, -8(%rbp)
	movq	%rdi, -32(%rbp)
Ltmp850:
	.loc	2 316 20 prologue_end
	movq	%rdx, %rdi
	movq	-32(%rbp), %rax
	movq	%rsi, -40(%rbp)
	movq	%rax, %rsi
	movq	-40(%rbp), %rdx
	callq	__ZN68_$LT$usize$u20$as$u20$core..slice..SliceIndex$LT$$u5b$T$u5d$$GT$$GT$13get_unchecked17hac437f238aba9a6aE
	movq	%rax, -48(%rbp)
	.loc	2 0 20 is_stmt 0
	movq	-48(%rbp), %rax
