	.section	__TEXT,__text,regular,pure_instructions
	.macosx_version_min 10, 7
	.p2align	4, 0x90
__ZN112_$LT$alloc..collections..btree..map..IntoIter$LT$K$C$V$GT$$u20$as$u20$core..iter..traits..iterator..Iterator$GT$4next17h3bce5d3cb1b4cc31E:
Lfunc_begin0:
	.file	1 "/rustc/a74d1862d4d87a56244958416fd05976c58ca1a8/src/liballoc/collections/btree/map.rs"
	.loc	1 1598 0
	.cfi_startproc
	pushq	%rbp
	.cfi_def_cfa_offset 16
	.cfi_offset %rbp, -16
	movq	%rsp, %rbp
	.cfi_def_cfa_register %rbp
	pushq	%r15
	pushq	%r14
	pushq	%r13
	pushq	%r12
	pushq	%rbx
	subq	$120, %rsp
	.cfi_offset %rbx, -56
	.cfi_offset %r12, -48
	.cfi_offset %r13, -40
	.cfi_offset %r14, -32
	.cfi_offset %r15, -24
	movq	%rdi, %r9
Ltmp0:
	.loc	1 1599 12 prologue_end
	movq	64(%rsi), %rax
	testq	%rax, %rax
	.loc	1 1599 9 is_stmt 0
	je	LBB0_21
Ltmp1:
	.loc	1 0 9
	movq	%rsi, %r12
Ltmp2:
	.loc	1 1602 13 is_stmt 1
	decq	%rax
	movq	%rax, 64(%rsi)
Ltmp3:
	.file	2 "/rustc/a74d1862d4d87a56244958416fd05976c58ca1a8/src/libcore/option.rs"
	.loc	2 291 13
	movq	8(%rsi), %rax
	testq	%rax, %rax
	cmoveq	%rax, %r12
Ltmp4:
	.loc	2 387 13
	je	LBB0_23
Ltmp5:
	.file	3 "/rustc/a74d1862d4d87a56244958416fd05976c58ca1a8/src/libcore/ptr/mod.rs"
	.loc	3 651 5
	movq	(%r12), %rax
Ltmp6:
	movq	8(%r12), %rdi
Ltmp7:
	movq	16(%r12), %r10
Ltmp8:
	movq	24(%r12), %r13
Ltmp9:
	.file	4 "/rustc/a74d1862d4d87a56244958416fd05976c58ca1a8/src/liballoc/collections/btree/node.rs"
	.loc	4 293 9
	movzwl	10(%rdi), %ecx
Ltmp10:
	.loc	4 814 12
	cmpq	%rcx, %r13
	.loc	4 814 9 is_stmt 0
	jae	LBB0_4
Ltmp11:
	.file	5 "/rustc/a74d1862d4d87a56244958416fd05976c58ca1a8/src/liballoc/collections/btree/navigate.rs"
	.loc	5 0 0
	movq	%rax, %rbx
Ltmp12:
	jmp	LBB0_10
Ltmp13:
LBB0_21:
	.loc	1 1600 13 is_stmt 1
	movq	$0, (%r9)
	jmp	LBB0_22
Ltmp14:
LBB0_4:
	.loc	1 0 13 is_stmt 0
	movq	%r10, -48(%rbp)
Ltmp15:
	movq	%r9, -56(%rbp)
	movl	$544, %r15d
Ltmp16:
	.loc	4 344 30 is_stmt 1
	movq	(%rdi), %r14
Ltmp17:
	.loc	4 345 16
	testq	%r14, %r14
	je	LBB0_6
Ltmp18:
	.p2align	4, 0x90
LBB0_7:
	.loc	4 348 29
	leaq	1(%rax), %rbx
Ltmp19:
	.loc	4 353 43
	movzwl	8(%rdi), %r13d
Ltmp20:
LBB0_8:
	.loc	4 397 16
	testq	%rax, %rax
	.loc	4 397 13 is_stmt 0
	movl	$640, %esi
	cmoveq	%r15, %rsi
Ltmp21:
	.file	6 "/rustc/a74d1862d4d87a56244958416fd05976c58ca1a8/src/liballoc/alloc.rs"
	.loc	6 102 5 is_stmt 1
	movl	$8, %edx
	callq	___rust_dealloc
Ltmp22:
	.loc	4 293 9
	movzwl	10(%r14), %ecx
	movq	%rbx, %rax
	movq	%r14, %rdi
Ltmp23:
	.loc	4 814 12
	cmpq	%rcx, %r13
	.loc	4 814 9 is_stmt 0
	jb	LBB0_9
Ltmp24:
	.loc	4 344 30 is_stmt 1
	movq	(%rdi), %r14
Ltmp25:
	.loc	4 345 16
	testq	%r14, %r14
	jne	LBB0_7
Ltmp26:
LBB0_6:
	.loc	4 0 16 is_stmt 0
	movq	%rax, %rbx
Ltmp27:
	xorl	%r14d, %r14d
Ltmp28:
	jmp	LBB0_8
Ltmp29:
LBB0_9:
	movq	%r14, %rdi
	movq	-56(%rbp), %r9
	movq	-48(%rbp), %r10
Ltmp30:
LBB0_10:
	.loc	4 975 13 is_stmt 1
	leaq	(%r13,%r13,2), %rax
Ltmp31:
	.loc	3 651 5
	movq	32(%rdi,%rax,8), %rcx
	movq	%rcx, -64(%rbp)
	movq	16(%rdi,%rax,8), %rcx
	movq	24(%rdi,%rax,8), %rdx
	movq	%rdx, -72(%rbp)
	movq	%rcx, -80(%rbp)
Ltmp32:
	.loc	3 651 5 is_stmt 0
	movq	296(%rdi,%rax,8), %rcx
	movq	%rcx, -88(%rbp)
	movq	280(%rdi,%rax,8), %rcx
	movq	288(%rdi,%rax,8), %rax
	movq	%rax, -96(%rbp)
	movq	%rcx, -104(%rbp)
Ltmp33:
	.loc	4 680 12 is_stmt 1
	testq	%rbx, %rbx
Ltmp34:
	.loc	5 223 13
	je	LBB0_11
Ltmp35:
	.loc	4 680 12
	movq	%rbx, %rax
Ltmp36:
	.loc	4 963 17
	movq	552(%rdi,%r13,8), %rdi
Ltmp37:
	.loc	4 680 12
	decq	%rax
Ltmp38:
	.loc	5 199 17
	je	LBB0_13
Ltmp39:
	addq	$-2, %rbx
Ltmp40:
	movq	%rax, %rcx
	andq	$7, %rcx
	je	LBB0_18
Ltmp41:
	.loc	5 0 17 is_stmt 0
	xorl	%edx, %edx
Ltmp42:
	.p2align	4, 0x90
LBB0_16:
	movq	544(%rdi), %rdi
Ltmp43:
	.loc	5 199 17
	incq	%rdx
	cmpq	%rdx, %rcx
	jne	LBB0_16
Ltmp44:
	subq	%rdx, %rax
Ltmp45:
LBB0_18:
	.loc	5 0 17
	xorl	%r13d, %r13d
Ltmp46:
	.loc	5 199 17
	cmpq	$7, %rbx
	jb	LBB0_20
Ltmp47:
	.p2align	4, 0x90
LBB0_19:
	.loc	5 0 0
	movq	544(%rdi), %rcx
Ltmp48:
	movq	544(%rcx), %rcx
Ltmp49:
	movq	544(%rcx), %rcx
Ltmp50:
	movq	544(%rcx), %rcx
Ltmp51:
	movq	544(%rcx), %rcx
Ltmp52:
	movq	544(%rcx), %rcx
Ltmp53:
	movq	544(%rcx), %rcx
Ltmp54:
	movq	544(%rcx), %rdi
Ltmp55:
	.loc	4 680 12 is_stmt 1
	addq	$-8, %rax
Ltmp56:
	.loc	5 199 17
	jne	LBB0_19
	jmp	LBB0_20
Ltmp57:
LBB0_11:
	.loc	5 0 17 is_stmt 0
	incq	%r13
Ltmp58:
	jmp	LBB0_20
Ltmp59:
LBB0_13:
	xorl	%r13d, %r13d
Ltmp60:
LBB0_20:
	.loc	5 166 36 is_stmt 1
	movq	-64(%rbp), %r8
	movq	%r8, -136(%rbp)
	movq	-80(%rbp), %rcx
	movq	-72(%rbp), %rdx
	movq	%rdx, -144(%rbp)
	movq	%rcx, -152(%rbp)
	.loc	5 166 35 is_stmt 0
	movq	-104(%rbp), %rsi
	movq	-96(%rbp), %rbx
	movq	%rsi, -128(%rbp)
	movq	%rbx, -120(%rbp)
	movq	-88(%rbp), %rax
	movq	%rax, -112(%rbp)
	.loc	5 166 13
	movq	%rax, 40(%r9)
	movq	%rbx, 32(%r9)
	movq	%rsi, 24(%r9)
	movq	%r8, 16(%r9)
	movq	%rdx, 8(%r9)
	movq	%rcx, (%r9)
Ltmp61:
	.loc	3 836 42 is_stmt 1
	movq	$0, (%r12)
	movq	%rdi, 8(%r12)
	movq	%r10, 16(%r12)
	movq	%r13, 24(%r12)
Ltmp62:
LBB0_22:
	.loc	1 1605 6
	addq	$120, %rsp
	popq	%rbx
	popq	%r12
	popq	%r13
	popq	%r14
	popq	%r15
	popq	%rbp
	retq
LBB0_23:
Ltmp63:
	.file	7 "/rustc/a74d1862d4d87a56244958416fd05976c58ca1a8/src/libcore/macros/mod.rs"
	.loc	7 10 9
	leaq	l___unnamed_3(%rip), %rdi
	leaq	l___unnamed_4(%rip), %rdx
	movl	$43, %esi
	callq	__ZN4core9panicking5panic17h736ee47a631475c0E
Ltmp64:
Lfunc_end0:
	.cfi_endproc
	.file	8 "/rustc/a74d1862d4d87a56244958416fd05976c58ca1a8/src/libcore/result.rs"

	.private_extern	__ZN3std2rt10lang_start17h8776e6b3016fefb5E
	.globl	__ZN3std2rt10lang_start17h8776e6b3016fefb5E
	.p2align	4, 0x90
__ZN3std2rt10lang_start17h8776e6b3016fefb5E:
Lfunc_begin1:
	.file	9 "/rustc/a74d1862d4d87a56244958416fd05976c58ca1a8/src/libstd/rt.rs"
	.loc	9 62 0
	.cfi_startproc
	pushq	%rbp
	.cfi_def_cfa_offset 16
	.cfi_offset %rbp, -16
	movq	%rsp, %rbp
	.cfi_def_cfa_register %rbp
	subq	$16, %rsp
	movq	%rdx, %rcx
Ltmp65:
	movq	%rsi, %rdx
Ltmp66:
	.loc	9 67 26 prologue_end
	movq	%rdi, -8(%rbp)
	.loc	9 67 5 is_stmt 0
	leaq	l___unnamed_1(%rip), %rsi
	leaq	-8(%rbp), %rdi
Ltmp67:
	callq	__ZN3std2rt19lang_start_internal17hebefdaa8fd585aefE
Ltmp68:
	.loc	9 68 2 is_stmt 1
	addq	$16, %rsp
	popq	%rbp
	retq
Ltmp69:
Lfunc_end1:
	.cfi_endproc

	.p2align	4, 0x90
__ZN3std2rt10lang_start28_$u7b$$u7b$closure$u7d$$u7d$17h922384dbde6e4990E:
Lfunc_begin2:
	.loc	9 67 0
	.cfi_startproc
	pushq	%rbp
	.cfi_def_cfa_offset 16
	.cfi_offset %rbp, -16
	movq	%rsp, %rbp
	.cfi_def_cfa_register %rbp
Ltmp70:
	.loc	9 67 34 prologue_end
	callq	*(%rdi)
Ltmp71:
	.loc	9 67 49 is_stmt 0
	xorl	%eax, %eax
	popq	%rbp
	retq
Ltmp72:
Lfunc_end2:
	.cfi_endproc

	.p2align	4, 0x90
__ZN44_$LT$$RF$T$u20$as$u20$core..fmt..Display$GT$3fmt17h20372a93d4b7d4d3E:
Lfunc_begin3:
	.file	10 "/rustc/a74d1862d4d87a56244958416fd05976c58ca1a8/src/libcore/fmt/mod.rs"
	.loc	10 1973 0 is_stmt 1
	.cfi_startproc
	pushq	%rbp
	.cfi_def_cfa_offset 16
	.cfi_offset %rbp, -16
	movq	%rsp, %rbp
	.cfi_def_cfa_register %rbp
	movq	%rsi, %rdx
Ltmp73:
	.loc	10 1973 71 prologue_end
	movq	(%rdi), %rax
	movq	8(%rdi), %rsi
	.loc	10 1973 62 is_stmt 0
	movq	%rax, %rdi
Ltmp74:
	popq	%rbp
	jmp	__ZN42_$LT$str$u20$as$u20$core..fmt..Display$GT$3fmt17hd4dee1c1c4ccf892E
Ltmp75:
Lfunc_end3:
	.cfi_endproc

	.p2align	4, 0x90
__ZN4core3ops8function6FnOnce40call_once$u7b$$u7b$vtable.shim$u7d$$u7d$17h1f4867a881cea00cE:
Lfunc_begin4:
	.file	11 "/rustc/a74d1862d4d87a56244958416fd05976c58ca1a8/src/libcore/ops/function.rs"
	.loc	11 232 0 is_stmt 1
	.cfi_startproc
	pushq	%rbp
	.cfi_def_cfa_offset 16
	.cfi_offset %rbp, -16
	movq	%rsp, %rbp
	.cfi_def_cfa_register %rbp
Ltmp76:
	.loc	9 67 34 prologue_end
	callq	*(%rdi)
Ltmp77:
	.loc	11 232 5
	xorl	%eax, %eax
	popq	%rbp
	retq
Ltmp78:
Lfunc_end4:
	.cfi_endproc

	.p2align	4, 0x90
__ZN4core3ptr13drop_in_place17h0dcc2165e33c28beE:
Lfunc_begin5:
	.loc	3 178 0
	.cfi_startproc
	pushq	%rbp
	.cfi_def_cfa_offset 16
	.cfi_offset %rbp, -16
	movq	%rsp, %rbp
	.cfi_def_cfa_register %rbp
	movq	%rdi, %rax
Ltmp79:
	.loc	3 178 1 prologue_end
	movq	(%rdi), %rdi
Ltmp80:
	.file	12 "/rustc/a74d1862d4d87a56244958416fd05976c58ca1a8/src/liballoc/raw_vec.rs"
	.loc	12 532 16
	testq	%rdi, %rdi
Ltmp81:
	.loc	12 200 9
	je	LBB5_2
Ltmp82:
	.loc	3 0 0 is_stmt 0
	movq	8(%rax), %rsi
Ltmp83:
	.loc	12 200 9
	testq	%rsi, %rsi
	je	LBB5_2
Ltmp84:
	.loc	6 102 5 is_stmt 1
	movl	$1, %edx
	popq	%rbp
	jmp	___rust_dealloc
Ltmp85:
LBB5_2:
	.loc	3 178 1
	popq	%rbp
	retq
Ltmp86:
Lfunc_end5:
	.cfi_endproc

	.p2align	4, 0x90
__ZN4core3ptr13drop_in_place17h11208f24c1b6492cE:
Lfunc_begin6:
	.loc	3 178 0
	.cfi_startproc
	pushq	%rbp
	.cfi_def_cfa_offset 16
	.cfi_offset %rbp, -16
	movq	%rsp, %rbp
	.cfi_def_cfa_register %rbp
Ltmp87:
	.loc	3 178 1 prologue_end
	movq	(%rdi), %rax
Ltmp88:
	testq	%rax, %rax
	je	LBB6_2
Ltmp89:
	.file	13 "/rustc/a74d1862d4d87a56244958416fd05976c58ca1a8/src/libstd/ffi/c_str.rs"
	.loc	13 645 13
	movb	$0, (%rax)
Ltmp90:
	.loc	3 178 1
	movq	8(%rdi), %rsi
Ltmp91:
	.loc	6 185 12
	testq	%rsi, %rsi
	.loc	6 185 9 is_stmt 0
	je	LBB6_2
Ltmp92:
	.loc	3 178 1 is_stmt 1
	movq	(%rdi), %rdi
Ltmp93:
	.loc	6 102 5
	movl	$1, %edx
	popq	%rbp
	jmp	___rust_dealloc
Ltmp94:
LBB6_2:
	.loc	3 178 1
	popq	%rbp
	retq
Ltmp95:
Lfunc_end6:
	.cfi_endproc

	.p2align	4, 0x90
__ZN4core3ptr13drop_in_place17h384072a521e267a6E:
Lfunc_begin7:
	.loc	3 178 0
	.cfi_startproc
	pushq	%rbp
	.cfi_def_cfa_offset 16
	.cfi_offset %rbp, -16
	movq	%rsp, %rbp
	.cfi_def_cfa_register %rbp
	movq	%rdi, %rax
Ltmp96:
	.loc	3 178 1 prologue_end
	movq	(%rdi), %rdi
Ltmp97:
	.loc	12 532 16
	testq	%rdi, %rdi
Ltmp98:
	.loc	12 200 9
	je	LBB7_2
Ltmp99:
	.loc	3 0 0 is_stmt 0
	movq	8(%rax), %rsi
Ltmp100:
	.loc	12 200 9
	testq	%rsi, %rsi
	je	LBB7_2
Ltmp101:
	.loc	6 102 5 is_stmt 1
	movl	$1, %edx
	popq	%rbp
	jmp	___rust_dealloc
Ltmp102:
LBB7_2:
	.loc	3 178 1
	popq	%rbp
	retq
Ltmp103:
Lfunc_end7:
	.cfi_endproc

	.p2align	4, 0x90
__ZN4core3ptr13drop_in_place17h3c4bd24558e26a57E:
Lfunc_begin8:
	.loc	3 178 0
	.cfi_startproc
	pushq	%rbp
	.cfi_def_cfa_offset 16
	.cfi_offset %rbp, -16
	movq	%rsp, %rbp
	.cfi_def_cfa_register %rbp
	movq	%rdi, %rax
Ltmp104:
	.loc	3 178 1 prologue_end
	movq	(%rdi), %rdi
Ltmp105:
	testq	%rdi, %rdi
	je	LBB8_2
Ltmp106:
	.loc	3 178 1 is_stmt 0
	movq	8(%rax), %rsi
Ltmp107:
	.loc	12 200 40 is_stmt 1
	testq	%rsi, %rsi
	.loc	12 200 9 is_stmt 0
	je	LBB8_2
Ltmp108:
	.loc	6 102 5 is_stmt 1
	movl	$1, %edx
	popq	%rbp
	jmp	___rust_dealloc
Ltmp109:
LBB8_2:
	.loc	3 178 1
	popq	%rbp
	retq
Ltmp110:
Lfunc_end8:
	.cfi_endproc

	.p2align	4, 0x90
__ZN4core3ptr13drop_in_place17h4183dd0ebc97a7c9E:
Lfunc_begin9:
	.loc	3 178 0
	.cfi_startproc
	.cfi_personality 155, _rust_eh_personality
	.cfi_lsda 16, Lexception0
	pushq	%rbp
	.cfi_def_cfa_offset 16
	.cfi_offset %rbp, -16
	movq	%rsp, %rbp
	.cfi_def_cfa_register %rbp
	pushq	%r15
	pushq	%r14
	pushq	%r13
	pushq	%r12
	pushq	%rbx
	subq	$120, %rsp
	.cfi_offset %rbx, -56
	.cfi_offset %r12, -48
	.cfi_offset %r13, -40
	.cfi_offset %r14, -32
	.cfi_offset %r15, -24
	movq	%rdi, %r14
Ltmp128:
	.loc	13 645 14 prologue_end
	movq	(%rdi), %rax
Ltmp129:
	.loc	13 645 13 is_stmt 0
	movb	$0, (%rax)
Ltmp130:
	.loc	3 178 1 is_stmt 1
	movq	8(%rdi), %rsi
Ltmp131:
	.loc	6 185 12
	testq	%rsi, %rsi
	.loc	6 185 9 is_stmt 0
	je	LBB9_2
Ltmp132:
	.loc	3 178 1 is_stmt 1
	movq	(%r14), %rdi
Ltmp133:
	.loc	6 102 5
	movl	$1, %edx
	callq	___rust_dealloc
Ltmp134:
LBB9_2:
	.file	14 "/rustc/a74d1862d4d87a56244958416fd05976c58ca1a8/src/liballoc/vec.rs"
	.loc	14 850 19
	movq	16(%r14), %rbx
Ltmp135:
	.loc	14 2384 81
	movq	32(%r14), %r15
Ltmp136:
	.loc	3 178 1
	testq	%r15, %r15
	je	LBB9_8
Ltmp137:
	shlq	$4, %r15
Ltmp138:
	addq	%rbx, %r15
	jmp	LBB9_4
Ltmp139:
	.p2align	4, 0x90
LBB9_6:
	addq	$16, %rbx
Ltmp140:
	cmpq	%r15, %rbx
	je	LBB9_7
Ltmp141:
LBB9_4:
	.loc	13 645 14
	movq	(%rbx), %rax
Ltmp142:
	.loc	13 645 13 is_stmt 0
	movb	$0, (%rax)
Ltmp143:
	.loc	3 178 1 is_stmt 1
	movq	8(%rbx), %rsi
Ltmp144:
	.loc	6 185 12
	testq	%rsi, %rsi
	.loc	6 185 9 is_stmt 0
	je	LBB9_6
Ltmp145:
	.loc	3 178 1 is_stmt 1
	movq	(%rbx), %rdi
Ltmp146:
	.loc	6 102 5
	movl	$1, %edx
	callq	___rust_dealloc
Ltmp147:
	.loc	6 0 5 is_stmt 0
	jmp	LBB9_6
Ltmp148:
LBB9_7:
	.loc	3 178 1 is_stmt 1
	movq	16(%r14), %rbx
Ltmp149:
LBB9_8:
	movq	24(%r14), %rsi
Ltmp150:
	.loc	12 200 40
	testq	%rsi, %rsi
	.loc	12 200 9 is_stmt 0
	je	LBB9_12
Ltmp151:
	.loc	12 532 16 is_stmt 1
	testq	%rbx, %rbx
Ltmp152:
	je	LBB9_12
Ltmp153:
	.loc	12 0 0 is_stmt 0
	shlq	$4, %rsi
Ltmp154:
	.loc	12 532 16
	je	LBB9_12
Ltmp155:
	.loc	6 102 5 is_stmt 1
	movl	$8, %edx
	movq	%rbx, %rdi
	callq	___rust_dealloc
Ltmp156:
LBB9_12:
	.loc	3 178 1
	movq	48(%r14), %rsi
Ltmp157:
	.loc	12 200 40
	testq	%rsi, %rsi
	.loc	12 200 9 is_stmt 0
	je	LBB9_16
Ltmp158:
	.loc	3 0 0
	movq	40(%r14), %rdi
Ltmp159:
	.loc	12 532 16 is_stmt 1
	testq	%rdi, %rdi
Ltmp160:
	je	LBB9_16
Ltmp161:
	.loc	12 0 0 is_stmt 0
	shlq	$3, %rsi
Ltmp162:
	.loc	12 532 16
	testq	%rsi, %rsi
	je	LBB9_16
Ltmp163:
	.loc	6 102 5 is_stmt 1
	movl	$8, %edx
	callq	___rust_dealloc
Ltmp164:
LBB9_16:
	.loc	3 178 1
	movq	64(%r14), %rcx
Ltmp165:
	.loc	1 1544 16
	testq	%rcx, %rcx
	je	LBB9_17
Ltmp166:
	.loc	3 0 0 is_stmt 0
	movq	72(%r14), %rdi
Ltmp167:
	movq	80(%r14), %rax
Ltmp168:
	.loc	4 293 9 is_stmt 1
	movzwl	10(%rcx), %edx
Ltmp169:
	.loc	4 680 12
	testq	%rdi, %rdi
Ltmp170:
	.loc	1 2136 14
	je	LBB9_32
Ltmp171:
	.loc	1 0 14 is_stmt 0
	movb	$1, %bl
	movq	%rcx, %rsi
Ltmp172:
	.p2align	4, 0x90
LBB9_36:
	.loc	1 2139 33 is_stmt 1
	testb	$1, %bl
	je	LBB9_33
Ltmp173:
	.loc	4 680 12
	cmpq	$1, %rdi
	setne	%bl
Ltmp174:
	.loc	4 963 17
	movq	544(%rcx), %rcx
Ltmp175:
	.loc	4 963 17 is_stmt 0
	movq	544(%rsi,%rdx,8), %rsi
Ltmp176:
	.loc	4 293 9 is_stmt 1
	movzwl	10(%rsi), %edx
Ltmp177:
	.loc	4 680 12
	decq	%rdi
Ltmp178:
	.loc	1 2136 14
	jne	LBB9_36
	jmp	LBB9_38
Ltmp179:
LBB9_17:
	.loc	1 1549 13
	movq	$0, -104(%rbp)
	movq	$0, -72(%rbp)
	xorl	%eax, %eax
	jmp	LBB9_39
Ltmp180:
LBB9_32:
	.loc	1 0 13 is_stmt 0
	movq	%rcx, %rsi
Ltmp181:
LBB9_38:
	.loc	1 1547 13 is_stmt 1
	movq	$0, -112(%rbp)
	movq	%rcx, -104(%rbp)
	movq	$0, -96(%rbp)
	movq	$0, -88(%rbp)
	movq	$0, -80(%rbp)
	movq	%rsi, -72(%rbp)
	movq	$0, -64(%rbp)
	movq	%rdx, -56(%rbp)
Ltmp182:
LBB9_39:
	.loc	1 0 0 is_stmt 0
	movq	%rax, -48(%rbp)
Ltmp183:
Ltmp113:
	leaq	-160(%rbp), %rdi
	leaq	-112(%rbp), %rsi
Ltmp184:
	.loc	1 1575 32 is_stmt 1
	callq	__ZN112_$LT$alloc..collections..btree..map..IntoIter$LT$K$C$V$GT$$u20$as$u20$core..iter..traits..iterator..Iterator$GT$4next17h3bce5d3cb1b4cc31E
Ltmp114:
Ltmp185:
	.loc	1 1575 19 is_stmt 0
	movq	-160(%rbp), %rdi
	testq	%rdi, %rdi
	je	LBB9_50
Ltmp186:
	.loc	1 0 19
	leaq	-160(%rbp), %r15
	leaq	-112(%rbp), %r12
Ltmp187:
	.p2align	4, 0x90
LBB9_42:
	.loc	1 1575 24
	movq	-136(%rbp), %rbx
Ltmp188:
	movq	-128(%rbp), %r13
Ltmp189:
	.loc	12 532 16 is_stmt 1
	testq	%rdi, %rdi
Ltmp190:
	.loc	12 200 9
	je	LBB9_45
Ltmp191:
	.loc	1 0 0 is_stmt 0
	movq	-152(%rbp), %rsi
Ltmp192:
	.loc	12 200 9
	testq	%rsi, %rsi
	je	LBB9_45
Ltmp193:
	.loc	6 102 5 is_stmt 1
	movl	$1, %edx
	callq	___rust_dealloc
Ltmp194:
LBB9_45:
	.loc	3 178 1
	testq	%rbx, %rbx
Ltmp195:
	je	LBB9_48
Ltmp196:
	testq	%r13, %r13
	je	LBB9_48
Ltmp197:
	.loc	6 102 5
	movl	$1, %edx
	movq	%rbx, %rdi
	movq	%r13, %rsi
	callq	___rust_dealloc
Ltmp198:
LBB9_48:
Ltmp116:
	.loc	1 1575 32
	movq	%r15, %rdi
	movq	%r12, %rsi
	callq	__ZN112_$LT$alloc..collections..btree..map..IntoIter$LT$K$C$V$GT$$u20$as$u20$core..iter..traits..iterator..Iterator$GT$4next17h3bce5d3cb1b4cc31E
Ltmp117:
Ltmp199:
	.loc	1 1575 19 is_stmt 0
	movq	-160(%rbp), %rdi
	testq	%rdi, %rdi
	jne	LBB9_42
Ltmp200:
LBB9_50:
	.loc	3 651 5 is_stmt 1
	movq	-104(%rbp), %rdi
Ltmp201:
	.loc	1 1582 20
	testq	%rdi, %rdi
	je	LBB9_27
Ltmp202:
	.loc	3 651 5
	movq	-112(%rbp), %rax
Ltmp203:
	.loc	3 0 5 is_stmt 0
	movl	$544, %r15d
Ltmp204:
	.p2align	4, 0x90
LBB9_52:
	.loc	4 344 30 is_stmt 1
	movq	(%rdi), %r12
Ltmp205:
	.loc	4 345 16
	xorl	%ebx, %ebx
	testq	%r12, %r12
	setne	%bl
	addq	%rax, %rbx
Ltmp206:
	.loc	4 397 16
	testq	%rax, %rax
	.loc	4 397 13 is_stmt 0
	movl	$640, %esi
	cmoveq	%r15, %rsi
Ltmp207:
	.loc	6 102 5 is_stmt 1
	movl	$8, %edx
	callq	___rust_dealloc
Ltmp208:
	.loc	1 0 0 is_stmt 0
	movq	%rbx, %rax
	movq	%r12, %rdi
Ltmp209:
	.loc	4 345 16 is_stmt 1
	testq	%r12, %r12
Ltmp210:
	.loc	1 1586 27
	jne	LBB9_52
Ltmp211:
LBB9_27:
	.loc	3 178 1
	movq	96(%r14), %rax
Ltmp212:
	testq	%rax, %rax
	je	LBB9_30
Ltmp213:
	.loc	13 645 13
	movb	$0, (%rax)
Ltmp214:
	.loc	3 178 1
	movq	104(%r14), %rsi
Ltmp215:
	.loc	6 185 12
	testq	%rsi, %rsi
	.loc	6 185 9 is_stmt 0
	je	LBB9_30
Ltmp216:
	.loc	3 178 1 is_stmt 1
	movq	96(%r14), %rdi
Ltmp217:
	.loc	6 102 5
	movl	$1, %edx
	callq	___rust_dealloc
Ltmp218:
LBB9_30:
	.loc	3 178 1
	leaq	112(%r14), %rdi
Ltmp119:
	callq	__ZN4core3ptr13drop_in_place17hea524dd1ec414a83E
Ltmp120:
Ltmp219:
	.loc	3 178 1 is_stmt 0
	cmpl	$3, 152(%r14)
	jne	LBB9_23
Ltmp220:
	.loc	3 178 1
	leaq	156(%r14), %rdi
Ltmp221:
Ltmp122:
	.loc	3 178 1
	callq	__ZN70_$LT$std..sys..unix..fd..FileDesc$u20$as$u20$core..ops..drop..Drop$GT$4drop17hf5fce2bf4d9f8deaE
Ltmp222:
Ltmp123:
LBB9_23:
	.loc	3 178 1
	cmpl	$3, 160(%r14)
	jne	LBB9_21
Ltmp223:
	.loc	3 178 1
	leaq	164(%r14), %rdi
Ltmp224:
Ltmp125:
	.loc	3 178 1
	callq	__ZN70_$LT$std..sys..unix..fd..FileDesc$u20$as$u20$core..ops..drop..Drop$GT$4drop17hf5fce2bf4d9f8deaE
Ltmp225:
Ltmp126:
LBB9_21:
	.loc	3 178 1
	cmpl	$3, 168(%r14)
	jne	LBB9_59
Ltmp226:
	.loc	3 178 1
	addq	$172, %r14
Ltmp227:
	.loc	3 178 1
	movq	%r14, %rdi
	addq	$120, %rsp
	popq	%rbx
	popq	%r12
	popq	%r13
	popq	%r14
Ltmp228:
	popq	%r15
	popq	%rbp
	jmp	__ZN70_$LT$std..sys..unix..fd..FileDesc$u20$as$u20$core..ops..drop..Drop$GT$4drop17hf5fce2bf4d9f8deaE
Ltmp229:
LBB9_59:
	.loc	3 178 1
	addq	$120, %rsp
	popq	%rbx
	popq	%r12
	popq	%r13
	popq	%r14
Ltmp230:
	popq	%r15
	popq	%rbp
	retq
LBB9_33:
Ltmp231:
	.loc	7 16 38 is_stmt 1
	leaq	__ZN44_$LT$$RF$T$u20$as$u20$core..fmt..Display$GT$3fmt17h20372a93d4b7d4d3E(%rip), %rax
Ltmp232:
	movq	%rax, %xmm0
	leaq	l___unnamed_5(%rip), %rax
	movq	%rax, %xmm1
	punpcklqdq	%xmm0, %xmm1
	movdqa	%xmm1, -160(%rbp)
Ltmp233:
	.loc	10 328 9
	leaq	l___unnamed_6(%rip), %rax
Ltmp234:
	movq	%rax, -112(%rbp)
	movq	$1, -104(%rbp)
	movq	$0, -96(%rbp)
	leaq	-160(%rbp), %rax
Ltmp235:
	movq	%rax, -80(%rbp)
	movq	$1, -72(%rbp)
Ltmp236:
Ltmp111:
	.loc	7 16 9
	leaq	l___unnamed_7(%rip), %rsi
	leaq	-112(%rbp), %rdi
Ltmp237:
	callq	__ZN4core9panicking9panic_fmt17hab6ef1464e9720aaE
Ltmp238:
Ltmp112:
	ud2
Ltmp239:
LBB9_58:
Ltmp127:
	.loc	7 0 9 is_stmt 0
	movq	%rax, %rbx
	jmp	LBB9_20
Ltmp240:
LBB9_18:
Ltmp124:
	movq	%rax, %rbx
	jmp	LBB9_19
Ltmp241:
LBB9_54:
Ltmp115:
	jmp	LBB9_55
Ltmp242:
LBB9_57:
Ltmp121:
	movq	%rax, %rbx
	jmp	LBB9_56
Ltmp243:
LBB9_53:
Ltmp118:
LBB9_55:
	movq	%rax, %rbx
	.loc	3 178 1 is_stmt 1
	leaq	96(%r14), %rdi
	callq	__ZN4core3ptr13drop_in_place17h11208f24c1b6492cE
	leaq	112(%r14), %rdi
	callq	__ZN4core3ptr13drop_in_place17hea524dd1ec414a83E
Ltmp244:
LBB9_56:
	leaq	152(%r14), %rdi
	callq	__ZN4core3ptr13drop_in_place17h988d960c0103038eE
Ltmp245:
LBB9_19:
	leaq	160(%r14), %rdi
	callq	__ZN4core3ptr13drop_in_place17h988d960c0103038eE
Ltmp246:
LBB9_20:
	addq	$168, %r14
Ltmp247:
	movq	%r14, %rdi
	callq	__ZN4core3ptr13drop_in_place17h988d960c0103038eE
	movq	%rbx, %rdi
	callq	__Unwind_Resume
	ud2
Ltmp248:
Lfunc_end9:
	.cfi_endproc
	.file	15 "/rustc/a74d1862d4d87a56244958416fd05976c58ca1a8/src/libcore/mem/mod.rs"
	.section	__TEXT,__gcc_except_tab
	.p2align	2
GCC_except_table9:
Lexception0:
	.byte	255
	.byte	255
	.byte	1
	.uleb128 Lcst_end0-Lcst_begin0
Lcst_begin0:
	.uleb128 Ltmp113-Lfunc_begin9
	.uleb128 Ltmp114-Ltmp113
	.uleb128 Ltmp115-Lfunc_begin9
	.byte	0
	.uleb128 Ltmp116-Lfunc_begin9
	.uleb128 Ltmp117-Ltmp116
	.uleb128 Ltmp118-Lfunc_begin9
	.byte	0
	.uleb128 Ltmp119-Lfunc_begin9
	.uleb128 Ltmp120-Ltmp119
	.uleb128 Ltmp121-Lfunc_begin9
	.byte	0
	.uleb128 Ltmp122-Lfunc_begin9
	.uleb128 Ltmp123-Ltmp122
	.uleb128 Ltmp124-Lfunc_begin9
	.byte	0
	.uleb128 Ltmp125-Lfunc_begin9
	.uleb128 Ltmp126-Ltmp125
	.uleb128 Ltmp127-Lfunc_begin9
	.byte	0
	.uleb128 Ltmp126-Lfunc_begin9
	.uleb128 Ltmp111-Ltmp126
	.byte	0
	.byte	0
	.uleb128 Ltmp111-Lfunc_begin9
	.uleb128 Ltmp112-Ltmp111
	.uleb128 Ltmp115-Lfunc_begin9
	.byte	0
	.uleb128 Ltmp112-Lfunc_begin9
	.uleb128 Lfunc_end9-Ltmp112
	.byte	0
	.byte	0
Lcst_end0:
	.p2align	2

	.section	__TEXT,__text,regular,pure_instructions
	.p2align	4, 0x90
__ZN4core3ptr13drop_in_place17h5e34371deaa8b953E:
Lfunc_begin10:
	.loc	3 178 0
	.cfi_startproc
	.cfi_personality 155, _rust_eh_personality
	.cfi_lsda 16, Lexception1
	pushq	%rbp
	.cfi_def_cfa_offset 16
	.cfi_offset %rbp, -16
	movq	%rsp, %rbp
	.cfi_def_cfa_register %rbp
	pushq	%r14
	pushq	%rbx
	.cfi_offset %rbx, -32
	.cfi_offset %r14, -24
	movq	%rdi, %rbx
Ltmp252:
	.loc	3 178 1 prologue_end
	movq	(%rdi), %rdi
	movq	8(%rbx), %rax
Ltmp249:
	callq	*(%rax)
Ltmp250:
Ltmp253:
	movq	8(%rbx), %rax
Ltmp254:
	.loc	6 282 16
	movq	8(%rax), %rsi
Ltmp255:
	.loc	6 185 12
	testq	%rsi, %rsi
	.loc	6 185 9 is_stmt 0
	je	LBB10_2
Ltmp256:
	.loc	3 178 1 is_stmt 1
	movq	(%rbx), %rdi
Ltmp257:
	.loc	6 283 17
	movq	16(%rax), %rdx
Ltmp258:
	.loc	6 102 5
	popq	%rbx
Ltmp259:
	popq	%r14
	popq	%rbp
	jmp	___rust_dealloc
Ltmp260:
LBB10_2:
	.loc	3 178 1
	popq	%rbx
Ltmp261:
	popq	%r14
	popq	%rbp
	retq
LBB10_3:
Ltmp262:
Ltmp251:
	.loc	3 0 1 is_stmt 0
	movq	%rax, %r14
	.loc	3 178 1
	movq	(%rbx), %rdi
	movq	8(%rbx), %rsi
	callq	__ZN5alloc5alloc8box_free17hb05c4624fce4972cE
	movq	%r14, %rdi
	callq	__Unwind_Resume
	ud2
Ltmp263:
Lfunc_end10:
	.cfi_endproc
	.section	__TEXT,__gcc_except_tab
	.p2align	2
GCC_except_table10:
Lexception1:
	.byte	255
	.byte	255
	.byte	1
	.uleb128 Lcst_end1-Lcst_begin1
Lcst_begin1:
	.uleb128 Ltmp249-Lfunc_begin10
	.uleb128 Ltmp250-Ltmp249
	.uleb128 Ltmp251-Lfunc_begin10
	.byte	0
	.uleb128 Ltmp250-Lfunc_begin10
	.uleb128 Lfunc_end10-Ltmp250
	.byte	0
	.byte	0
Lcst_end1:
	.p2align	2

	.section	__TEXT,__text,regular,pure_instructions
	.p2align	4, 0x90
__ZN4core3ptr13drop_in_place17h6958c652631e3800E:
Lfunc_begin11:
	.loc	3 178 0 is_stmt 1
	.cfi_startproc
	pushq	%rbp
	.cfi_def_cfa_offset 16
	.cfi_offset %rbp, -16
	movq	%rsp, %rbp
	.cfi_def_cfa_register %rbp
Ltmp264:
	.loc	3 178 1 prologue_end
	popq	%rbp
	retq
Ltmp265:
Lfunc_end11:
	.cfi_endproc

	.p2align	4, 0x90
__ZN4core3ptr13drop_in_place17h988d960c0103038eE:
Lfunc_begin12:
	.loc	3 178 0
	.cfi_startproc
	pushq	%rbp
	.cfi_def_cfa_offset 16
	.cfi_offset %rbp, -16
	movq	%rsp, %rbp
	.cfi_def_cfa_register %rbp
Ltmp266:
	.loc	3 178 1 prologue_end
	cmpl	$3, (%rdi)
	jne	LBB12_1
Ltmp267:
	.loc	3 178 1 is_stmt 0
	addq	$4, %rdi
Ltmp268:
	.loc	3 178 1
	popq	%rbp
	jmp	__ZN70_$LT$std..sys..unix..fd..FileDesc$u20$as$u20$core..ops..drop..Drop$GT$4drop17hf5fce2bf4d9f8deaE
Ltmp269:
LBB12_1:
	.loc	3 178 1
	popq	%rbp
	retq
Ltmp270:
Lfunc_end12:
	.cfi_endproc

	.p2align	4, 0x90
__ZN4core3ptr13drop_in_place17hbb521739858feecaE:
Lfunc_begin13:
	.loc	3 178 0 is_stmt 1
	.cfi_startproc
	pushq	%rbp
	.cfi_def_cfa_offset 16
	.cfi_offset %rbp, -16
	movq	%rsp, %rbp
	.cfi_def_cfa_register %rbp
Ltmp271:
	.loc	12 200 40 prologue_end
	testq	%rsi, %rsi
	.loc	12 200 9 is_stmt 0
	je	LBB13_3
Ltmp272:
	.loc	12 532 16 is_stmt 1
	testq	%rdi, %rdi
Ltmp273:
	je	LBB13_3
Ltmp274:
	.loc	12 0 0 is_stmt 0
	shlq	$4, %rsi
Ltmp275:
	.loc	12 532 16
	je	LBB13_3
Ltmp276:
	.loc	6 102 5 is_stmt 1
	movl	$8, %edx
	popq	%rbp
	jmp	___rust_dealloc
Ltmp277:
LBB13_3:
	.loc	3 178 1
	popq	%rbp
	retq
Ltmp278:
Lfunc_end13:
	.cfi_endproc

	.p2align	4, 0x90
__ZN4core3ptr13drop_in_place17hc9246b7c0a6f08abE:
Lfunc_begin14:
	.loc	3 178 0
	.cfi_startproc
	pushq	%rbp
	.cfi_def_cfa_offset 16
	.cfi_offset %rbp, -16
	movq	%rsp, %rbp
	.cfi_def_cfa_register %rbp
	pushq	%rbx
	pushq	%rax
	.cfi_offset %rbx, -24
	movq	%rdi, %rbx
Ltmp279:
	.loc	3 178 1 prologue_end
	movq	(%rdi), %rdi
Ltmp280:
	.loc	12 532 16
	testq	%rdi, %rdi
Ltmp281:
	.loc	12 200 9
	je	LBB14_3
Ltmp282:
	.loc	3 0 0 is_stmt 0
	movq	8(%rbx), %rsi
Ltmp283:
	.loc	12 200 9
	testq	%rsi, %rsi
	je	LBB14_3
Ltmp284:
	.loc	6 102 5 is_stmt 1
	movl	$1, %edx
	callq	___rust_dealloc
Ltmp285:
LBB14_3:
	.loc	3 178 1
	movq	24(%rbx), %rdi
Ltmp286:
	.loc	12 532 16
	testq	%rdi, %rdi
Ltmp287:
	.loc	12 200 9
	je	LBB14_5
Ltmp288:
	.loc	3 0 0 is_stmt 0
	movq	32(%rbx), %rsi
Ltmp289:
	.loc	12 200 9
	testq	%rsi, %rsi
	je	LBB14_5
Ltmp290:
	.loc	6 102 5 is_stmt 1
	movl	$1, %edx
	addq	$8, %rsp
	popq	%rbx
Ltmp291:
	popq	%rbp
	jmp	___rust_dealloc
Ltmp292:
LBB14_5:
	.loc	3 178 1
	addq	$8, %rsp
	popq	%rbx
Ltmp293:
	popq	%rbp
	retq
Ltmp294:
Lfunc_end14:
	.cfi_endproc

	.p2align	4, 0x90
__ZN4core3ptr13drop_in_place17hea524dd1ec414a83E:
Lfunc_begin15:
	.loc	3 178 0
	.cfi_startproc
	.cfi_personality 155, _rust_eh_personality
	.cfi_lsda 16, Lexception2
	pushq	%rbp
	.cfi_def_cfa_offset 16
	.cfi_offset %rbp, -16
	movq	%rsp, %rbp
	.cfi_def_cfa_register %rbp
	pushq	%r15
	pushq	%r14
	pushq	%r13
	pushq	%r12
	pushq	%rbx
	pushq	%rax
	.cfi_offset %rbx, -56
	.cfi_offset %r12, -48
	.cfi_offset %r13, -40
	.cfi_offset %r14, -32
	.cfi_offset %r15, -24
	movq	%rdi, %r14
Ltmp301:
	.loc	14 850 19 prologue_end
	movq	(%rdi), %rbx
Ltmp302:
	.loc	14 2384 81
	movq	16(%rdi), %r12
Ltmp303:
	.loc	3 178 1
	testq	%r12, %r12
	je	LBB15_7
Ltmp304:
	.loc	3 0 0 is_stmt 0
	shlq	$4, %r12
Ltmp305:
	leaq	(%rbx,%r12), %r15
Ltmp306:
	.loc	3 178 1
	addq	$-16, %r12
	addq	$16, %rbx
Ltmp307:
	.loc	3 0 1
	jmp	LBB15_2
Ltmp308:
	.p2align	4, 0x90
LBB15_5:
	.loc	3 178 1
	addq	$-16, %r12
	addq	$16, %rbx
	addq	$16, %r13
	cmpq	%r15, %r13
	je	LBB15_6
Ltmp309:
LBB15_2:
	.loc	3 178 1
	movq	-16(%rbx), %rdi
	movq	-8(%rbx), %rax
Ltmp295:
	callq	*(%rax)
Ltmp296:
Ltmp310:
	leaq	-16(%rbx), %r13
	movq	8(%r13), %rax
Ltmp311:
	.loc	6 282 16 is_stmt 1
	movq	8(%rax), %rsi
Ltmp312:
	.loc	6 185 12
	testq	%rsi, %rsi
	.loc	6 185 9 is_stmt 0
	je	LBB15_5
Ltmp313:
	.loc	3 178 1 is_stmt 1
	movq	-16(%rbx), %rdi
Ltmp314:
	.loc	6 283 17
	movq	16(%rax), %rdx
Ltmp315:
	.loc	6 102 5
	callq	___rust_dealloc
Ltmp316:
	.loc	6 0 5 is_stmt 0
	jmp	LBB15_5
Ltmp317:
LBB15_6:
	.loc	3 178 1 is_stmt 1
	movq	(%r14), %rbx
Ltmp318:
LBB15_7:
	movq	8(%r14), %rsi
Ltmp319:
	.loc	12 200 40
	testq	%rsi, %rsi
	.loc	12 200 9 is_stmt 0
	je	LBB15_14
Ltmp320:
	.loc	12 532 16 is_stmt 1
	testq	%rbx, %rbx
Ltmp321:
	je	LBB15_14
Ltmp322:
	.loc	12 0 0 is_stmt 0
	shlq	$4, %rsi
Ltmp323:
	.loc	12 532 16
	je	LBB15_14
Ltmp324:
	.loc	6 102 5 is_stmt 1
	movl	$8, %edx
	movq	%rbx, %rdi
	addq	$8, %rsp
	popq	%rbx
Ltmp325:
	popq	%r12
	popq	%r13
	popq	%r14
Ltmp326:
	popq	%r15
	popq	%rbp
	jmp	___rust_dealloc
Ltmp327:
LBB15_14:
	.loc	3 178 1
	addq	$8, %rsp
	popq	%rbx
	popq	%r12
	popq	%r13
	popq	%r14
Ltmp328:
	popq	%r15
	popq	%rbp
	retq
LBB15_11:
Ltmp329:
Ltmp297:
	.loc	3 0 1 is_stmt 0
	movq	%rax, %r15
Ltmp330:
	.loc	3 178 1
	movq	-16(%rbx), %rdi
	movq	-8(%rbx), %rsi
	callq	__ZN5alloc5alloc8box_free17hb05c4624fce4972cE
Ltmp331:
	.loc	3 178 1
	testq	%r12, %r12
	je	LBB15_16
Ltmp332:
	.p2align	4, 0x90
LBB15_12:
Ltmp298:
	movq	%rbx, %rdi
	callq	__ZN4core3ptr13drop_in_place17h5e34371deaa8b953E
Ltmp299:
Ltmp333:
	addq	$16, %rbx
	addq	$-16, %r12
	jne	LBB15_12
	jmp	LBB15_16
Ltmp334:
LBB15_15:
Ltmp300:
	.loc	3 0 1
	movq	%rax, %r15
Ltmp335:
LBB15_16:
	.loc	3 178 1
	movq	(%r14), %rdi
	movq	8(%r14), %rsi
	callq	__ZN4core3ptr13drop_in_place17hbb521739858feecaE
	movq	%r15, %rdi
	callq	__Unwind_Resume
	ud2
Ltmp336:
Lfunc_end15:
	.cfi_endproc
	.section	__TEXT,__gcc_except_tab
	.p2align	2
GCC_except_table15:
Lexception2:
	.byte	255
	.byte	255
	.byte	1
	.uleb128 Lcst_end2-Lcst_begin2
Lcst_begin2:
	.uleb128 Ltmp295-Lfunc_begin15
	.uleb128 Ltmp296-Ltmp295
	.uleb128 Ltmp297-Lfunc_begin15
	.byte	0
	.uleb128 Ltmp298-Lfunc_begin15
	.uleb128 Ltmp299-Ltmp298
	.uleb128 Ltmp300-Lfunc_begin15
	.byte	0
	.uleb128 Ltmp299-Lfunc_begin15
	.uleb128 Lfunc_end15-Ltmp299
	.byte	0
	.byte	0
Lcst_end2:
	.p2align	2

	.section	__TEXT,__text,regular,pure_instructions
	.p2align	4, 0x90
__ZN5alloc5alloc8box_free17hb05c4624fce4972cE:
Lfunc_begin16:
	.loc	6 281 0 is_stmt 1
	.cfi_startproc
	pushq	%rbp
	.cfi_def_cfa_offset 16
	.cfi_offset %rbp, -16
	movq	%rsp, %rbp
	.cfi_def_cfa_register %rbp
	movq	%rsi, %rax
Ltmp337:
	.loc	6 282 16 prologue_end
	movq	8(%rsi), %rsi
Ltmp338:
	.loc	6 185 12
	testq	%rsi, %rsi
	.loc	6 185 9 is_stmt 0
	je	LBB16_1
Ltmp339:
	.loc	6 283 17 is_stmt 1
	movq	16(%rax), %rdx
Ltmp340:
	.loc	6 102 5
	popq	%rbp
	jmp	___rust_dealloc
Ltmp341:
LBB16_1:
	.loc	6 286 2
	popq	%rbp
	retq
Ltmp342:
Lfunc_end16:
	.cfi_endproc

	.p2align	4, 0x90
__ZN5alloc5alloc8box_free17hefc5c8c98678ce59E:
Lfunc_begin17:
	.loc	6 281 0
	.cfi_startproc
	pushq	%rbp
	.cfi_def_cfa_offset 16
	.cfi_offset %rbp, -16
	movq	%rsp, %rbp
	.cfi_def_cfa_register %rbp
Ltmp343:
	.loc	6 102 5 prologue_end
	movl	$24, %esi
	movl	$8, %edx
	popq	%rbp
	jmp	___rust_dealloc
Ltmp344:
Lfunc_end17:
	.cfi_endproc

	.p2align	4, 0x90
__ZN84_$LT$core..str..Split$LT$P$GT$$u20$as$u20$core..iter..traits..iterator..Iterator$GT$4next17h293b301358390a5eE:
Lfunc_begin18:
	.file	16 "/rustc/a74d1862d4d87a56244958416fd05976c58ca1a8/src/libcore/str/mod.rs"
	.loc	16 975 0
	.cfi_startproc
	pushq	%rbp
	.cfi_def_cfa_offset 16
	.cfi_offset %rbp, -16
	movq	%rsp, %rbp
	.cfi_def_cfa_register %rbp
Ltmp345:
	pushq	%r15
	pushq	%r14
	pushq	%r13
	pushq	%r12
	pushq	%rbx
	subq	$24, %rsp
	.cfi_offset %rbx, -56
	.cfi_offset %r12, -48
	.cfi_offset %r13, -40
	.cfi_offset %r14, -32
	.cfi_offset %r15, -24
	.loc	16 1121 12 prologue_end
	cmpb	$0, 65(%rdi)
	.loc	16 1121 9 is_stmt 0
	jne	LBB18_1
Ltmp346:
	.loc	16 0 9
	movq	%rdi, %r13
Ltmp347:
	.file	17 "/rustc/a74d1862d4d87a56244958416fd05976c58ca1a8/src/libcore/str/pattern.rs"
	.loc	17 369 54 is_stmt 1
	movq	32(%rdi), %rsi
Ltmp348:
	.loc	17 369 67 is_stmt 0
	movq	40(%rdi), %rax
Ltmp349:
	.file	18 "/rustc/a74d1862d4d87a56244958416fd05976c58ca1a8/src/libcore/slice/mod.rs"
	.loc	18 2888 12 is_stmt 1
	movq	%rax, %rdx
	subq	%rsi, %rdx
Ltmp350:
	.loc	17 369 84
	jb	LBB18_16
Ltmp351:
	cmpq	%rax, 24(%r13)
	jb	LBB18_16
Ltmp352:
	.loc	16 0 0 is_stmt 0
	movq	16(%r13), %rcx
Ltmp353:
	.loc	17 372 71 is_stmt 1
	movq	48(%r13), %rax
Ltmp354:
	.loc	17 0 71 is_stmt 0
	movq	%rcx, -56(%rbp)
Ltmp355:
	.loc	18 2888 12 is_stmt 1
	addq	%rcx, %rsi
Ltmp356:
	.loc	17 373 34
	movzbl	59(%rax,%r13), %edi
	callq	__ZN4core5slice6memchr6memchr17h319ffdabcbdf42caE
Ltmp357:
	.loc	17 373 20 is_stmt 0
	cmpq	$1, %rax
	jne	LBB18_15
Ltmp358:
	.loc	17 0 20
	leaq	60(%r13), %rax
	movq	%rax, -48(%rbp)
Ltmp359:
	.p2align	4, 0x90
LBB18_6:
	.loc	17 391 17 is_stmt 1
	movq	32(%r13), %rax
	.loc	17 392 35
	movq	48(%r13), %r15
Ltmp360:
	.loc	17 391 17
	leaq	1(%rdx,%rax), %rbx
Ltmp361:
	movq	%rbx, 32(%r13)
	.loc	17 392 20
	movq	%rbx, %r12
	subq	%r15, %r12
	.loc	17 392 17 is_stmt 0
	jae	LBB18_8
Ltmp362:
	.loc	17 369 25 is_stmt 1
	movq	24(%r13), %r14
Ltmp363:
	.loc	17 369 67 is_stmt 0
	movq	40(%r13), %rax
Ltmp364:
	.loc	18 2888 12 is_stmt 1
	movq	%rax, %rdx
	subq	%rbx, %rdx
	jae	LBB18_13
	jmp	LBB18_16
Ltmp365:
	.p2align	4, 0x90
LBB18_8:
	.loc	17 394 42
	movq	24(%r13), %r14
Ltmp366:
	.loc	18 2888 37
	cmpq	%rbx, %r14
Ltmp367:
	.loc	17 394 28
	jb	LBB18_12
Ltmp368:
	.loc	18 2918 19
	cmpq	$5, %r15
	.loc	18 2918 16 is_stmt 0
	jae	LBB18_23
Ltmp369:
	.loc	18 0 16
	movq	16(%r13), %rdi
	addq	%r12, %rdi
Ltmp370:
	.loc	18 5863 12 is_stmt 1
	cmpq	-48(%rbp), %rdi
	.loc	18 5863 9 is_stmt 0
	je	LBB18_21
Ltmp371:
	.loc	18 0 9
	movq	-48(%rbp), %rsi
Ltmp372:
	.loc	18 5868 13 is_stmt 1
	movq	%r15, %rdx
Ltmp373:
	callq	_bcmp
Ltmp374:
	testl	%eax, %eax
Ltmp375:
	.loc	17 395 25
	je	LBB18_21
Ltmp376:
LBB18_12:
	.loc	17 369 67
	movq	40(%r13), %rax
Ltmp377:
	.loc	18 2888 12
	movq	%rax, %rdx
	subq	%rbx, %rdx
Ltmp378:
	.loc	17 369 84
	jb	LBB18_16
Ltmp379:
LBB18_13:
	cmpq	%rax, %r14
	jb	LBB18_16
Ltmp380:
	.loc	18 2888 12
	addq	16(%r13), %rbx
Ltmp381:
	.loc	17 373 34
	movzbl	59(%r15,%r13), %edi
	movq	%rbx, %rsi
	callq	__ZN4core5slice6memchr6memchr17h319ffdabcbdf42caE
Ltmp382:
	.loc	17 373 20 is_stmt 0
	cmpq	$1, %rax
	je	LBB18_6
Ltmp383:
LBB18_15:
	.loc	17 402 31 is_stmt 1
	movq	40(%r13), %rax
	.loc	17 402 17 is_stmt 0
	movq	%rax, 32(%r13)
Ltmp384:
LBB18_16:
	.loc	16 1107 13 is_stmt 1
	cmpb	$0, 65(%r13)
	.loc	16 1107 12 is_stmt 0
	je	LBB18_17
Ltmp385:
LBB18_1:
	.loc	16 0 12
	xorl	%eax, %eax
LBB18_22:
	.loc	16 977 14 is_stmt 1
	movq	%r12, %rdx
	addq	$24, %rsp
	popq	%rbx
	popq	%r12
	popq	%r13
	popq	%r14
	popq	%r15
	popq	%rbp
	retq
LBB18_17:
Ltmp386:
	.loc	16 1107 31
	cmpb	$0, 64(%r13)
	.loc	16 1107 30 is_stmt 0
	je	LBB18_19
Ltmp387:
	.loc	16 1111 68 is_stmt 1
	movq	(%r13), %rax
	.loc	16 1111 80 is_stmt 0
	movq	8(%r13), %r12
	jmp	LBB18_20
Ltmp388:
LBB18_19:
	.loc	16 1107 71 is_stmt 1
	movq	(%r13), %rax
	.loc	16 1107 60 is_stmt 0
	movq	8(%r13), %r12
	cmpq	%rax, %r12
	.loc	16 1107 12
	je	LBB18_1
Ltmp389:
LBB18_20:
	.loc	16 1108 13 is_stmt 1
	movb	$1, 65(%r13)
Ltmp390:
	.loc	16 1908 23
	subq	%rax, %r12
Ltmp391:
	.file	19 "/rustc/a74d1862d4d87a56244958416fd05976c58ca1a8/src/libcore/ptr/const_ptr.rs"
	.loc	19 158 9
	addq	16(%r13), %rax
Ltmp392:
	.loc	19 0 9 is_stmt 0
	jmp	LBB18_22
Ltmp393:
LBB18_21:
	.loc	16 1129 50 is_stmt 1
	movq	(%r13), %rcx
Ltmp394:
	.loc	16 0 50 is_stmt 0
	movq	-56(%rbp), %rax
Ltmp395:
	.loc	19 158 9 is_stmt 1
	addq	%rcx, %rax
Ltmp396:
	.loc	16 1908 23
	subq	%rcx, %r12
Ltmp397:
	.loc	16 1130 17
	movq	%rbx, (%r13)
	jmp	LBB18_22
Ltmp398:
LBB18_23:
	.loc	18 2919 13
	leaq	l___unnamed_8(%rip), %rdx
Ltmp399:
	movl	$4, %esi
	movq	%r15, %rdi
	callq	__ZN4core5slice20slice_index_len_fail17h550a313151a85135E
Ltmp400:
Lfunc_end18:
	.cfi_endproc
	.file	20 "/rustc/a74d1862d4d87a56244958416fd05976c58ca1a8/src/libcore/cmp.rs"

	.section	__TEXT,__literal16,16byte_literals
	.p2align	4
LCPI19_0:
	.byte	107
	.byte	110
	.byte	111
	.byte	119
	.byte	110
	.byte	45
	.byte	101
	.byte	109
	.byte	115
	.byte	99
	.byte	114
	.byte	105
	.byte	112
	.byte	116
	.byte	101
	.byte	110
LCPI19_1:
	.byte	119
	.byte	97
	.byte	115
	.byte	109
	.byte	51
	.byte	50
	.byte	45
	.byte	117
	.byte	110
	.byte	107
	.byte	110
	.byte	111
	.byte	119
	.byte	110
	.byte	45
	.byte	101
LCPI19_2:
	.byte	115
	.byte	99
	.byte	114
	.byte	105
	.byte	112
	.byte	116
	.byte	101
	.byte	110
	.byte	0
	.byte	0
	.byte	0
	.byte	0
	.byte	0
	.byte	0
	.byte	0
	.byte	0
LCPI19_3:
	.byte	97
	.byte	115
	.byte	109
	.byte	106
	.byte	115
	.byte	45
	.byte	117
	.byte	110
	.byte	107
	.byte	110
	.byte	111
	.byte	119
	.byte	110
	.byte	45
	.byte	101
	.byte	109
	.section	__TEXT,__text,regular,pure_instructions
	.p2align	4, 0x90
__ZN18build_script_build4main17h6672d03191fd6c3dE:
Lfunc_begin19:
	.file	21 "/Users/yingyuhang/.cargo/registry/src/github.com-1ecc6299db9ec823/serde-1.0.114/build.rs"
	.loc	21 8 0
	.cfi_startproc
	.cfi_personality 155, _rust_eh_personality
	.cfi_lsda 16, Lexception3
	pushq	%rbp
	.cfi_def_cfa_offset 16
	.cfi_offset %rbp, -16
	movq	%rsp, %rbp
	.cfi_def_cfa_register %rbp
Ltmp458:
	pushq	%r15
	pushq	%r14
	pushq	%r13
	pushq	%r12
	pushq	%rbx
	subq	$536, %rsp
	.cfi_offset %rbx, -56
	.cfi_offset %r12, -48
	.cfi_offset %r13, -40
	.cfi_offset %r14, -32
	.cfi_offset %r15, -24
	.file	22 "/rustc/a74d1862d4d87a56244958416fd05976c58ca1a8/src/libstd/env.rs"
	.loc	22 246 5 prologue_end
	leaq	l___unnamed_9(%rip), %rsi
	leaq	-224(%rbp), %rdi
	movl	$5, %edx
	callq	__ZN3std3env7_var_os17hc8b7303001145450E
Ltmp459:
	.loc	21 102 9
	cmpq	$0, -224(%rbp)
	je	LBB19_43
	.loc	21 102 14 is_stmt 0
	movq	-208(%rbp), %rdx
	movq	%rdx, -312(%rbp)
	movq	-224(%rbp), %rbx
Ltmp460:
	movq	-216(%rbp), %rax
	movq	%rax, -320(%rbp)
	movq	%rbx, -328(%rbp)
Ltmp461:
	.loc	21 106 37 is_stmt 1
	movq	%rdx, -288(%rbp)
	movq	%rax, -296(%rbp)
	movq	%rbx, -304(%rbp)
Ltmp401:
	leaq	-224(%rbp), %rdi
Ltmp462:
	.file	23 "/rustc/a74d1862d4d87a56244958416fd05976c58ca1a8/src/libstd/process.rs"
	.loc	23 501 26
	movq	%rbx, %rsi
	callq	__ZN3std3sys4unix7process14process_common7Command3new17hcd746a384cbb0b47E
Ltmp402:
Ltmp463:
	.loc	23 0 26 is_stmt 0
	leaq	-512(%rbp), %rdi
	leaq	-224(%rbp), %rsi
	.loc	23 501 9
	movl	$184, %edx
	callq	_memcpy
Ltmp464:
	.loc	3 178 1 is_stmt 1
	movq	-296(%rbp), %rsi
Ltmp465:
	.loc	12 200 40
	testq	%rsi, %rsi
	.loc	12 200 9 is_stmt 0
	je	LBB19_4
Ltmp466:
	.loc	6 102 5 is_stmt 1
	movl	$1, %edx
	movq	%rbx, %rdi
	callq	___rust_dealloc
Ltmp467:
LBB19_4:
Ltmp404:
	.loc	23 542 9
	leaq	l___unnamed_10(%rip), %rsi
	leaq	-512(%rbp), %rdi
	movl	$9, %edx
	callq	__ZN3std3sys4unix7process14process_common7Command3arg17hc476c471a9efd12bE
Ltmp405:
Ltmp468:
Ltmp406:
	.loc	23 0 9 is_stmt 0
	leaq	-576(%rbp), %rdi
	leaq	-512(%rbp), %rsi
	.loc	21 106 24 is_stmt 1
	callq	__ZN3std7process7Command6output17h3119df81721f3b73E
Ltmp407:
	.loc	21 107 9
	cmpq	$1, -576(%rbp)
	jne	LBB19_13
Ltmp469:
	.loc	3 178 1
	cmpb	$2, -568(%rbp)
	jb	LBB19_12
Ltmp470:
	.loc	3 178 1 is_stmt 0
	movq	-560(%rbp), %rbx
Ltmp471:
	.loc	3 178 1
	movq	(%rbx), %rdi
	movq	8(%rbx), %rax
Ltmp452:
	callq	*(%rax)
Ltmp453:
Ltmp472:
	movq	8(%rbx), %rax
Ltmp473:
	.loc	6 282 16 is_stmt 1
	movq	8(%rax), %rsi
Ltmp474:
	.loc	6 185 12
	testq	%rsi, %rsi
	.loc	6 185 9 is_stmt 0
	je	LBB19_11
Ltmp475:
	.loc	3 178 1 is_stmt 1
	movq	(%rbx), %rdi
Ltmp476:
	.loc	6 283 17
	movq	16(%rax), %rdx
Ltmp477:
	.loc	6 102 5
	callq	___rust_dealloc
Ltmp478:
LBB19_11:
	.loc	6 102 5 is_stmt 0
	movl	$24, %esi
	movl	$8, %edx
	movq	%rbx, %rdi
	callq	___rust_dealloc
Ltmp479:
LBB19_12:
Ltmp455:
	.loc	6 0 5
	leaq	-512(%rbp), %rdi
	.loc	21 109 6 is_stmt 1
	callq	__ZN4core3ptr13drop_in_place17h4183dd0ebc97a7c9E
Ltmp456:
	jmp	LBB19_43
LBB19_13:
	.loc	21 0 0 is_stmt 0
	leaq	-568(%rbp), %rax
Ltmp480:
	.loc	21 107 12 is_stmt 1
	movq	48(%rax), %rcx
	movq	%rcx, -232(%rbp)
	movq	40(%rax), %rcx
	movq	%rcx, -240(%rbp)
	movq	32(%rax), %rcx
	movq	%rcx, -248(%rbp)
	movq	24(%rax), %rcx
	movq	%rcx, -256(%rbp)
	movq	16(%rax), %rcx
	movq	%rcx, -264(%rbp)
	movq	(%rax), %rcx
	movq	8(%rax), %rax
Ltmp481:
	movq	%rax, -272(%rbp)
	movq	%rcx, -280(%rbp)
Ltmp409:
	leaq	-512(%rbp), %rdi
	.loc	21 109 6
	callq	__ZN4core3ptr13drop_in_place17h4183dd0ebc97a7c9E
Ltmp410:
Ltmp482:
	.loc	14 814 19
	movq	-280(%rbp), %rbx
Ltmp483:
	.loc	14 1966 55
	movq	-264(%rbp), %rdx
Ltmp411:
	leaq	-224(%rbp), %rdi
Ltmp484:
	.loc	21 111 25
	movq	%rbx, %rsi
	callq	__ZN4core3str9from_utf817he06957962f38305fE
Ltmp412:
Ltmp485:
	.loc	21 112 9
	cmpq	$1, -224(%rbp)
	je	LBB19_37
	.loc	21 112 12 is_stmt 0
	movdqu	-216(%rbp), %xmm0
Ltmp486:
	.loc	16 3299 9 is_stmt 1
	movq	$0, -224(%rbp)
	pshufd	$78, %xmm0, %xmm1
	movq	%xmm1, -216(%rbp)
	movdqu	%xmm0, -208(%rbp)
	movq	$0, -192(%rbp)
	movq	%xmm1, -184(%rbp)
	movq	$1, -176(%rbp)
	movabsq	$197568495662, %rax
	movq	%rax, -168(%rbp)
	movw	$1, -160(%rbp)
Ltmp413:
	leaq	-224(%rbp), %rdi
Ltmp487:
	.loc	21 117 8
	callq	__ZN84_$LT$core..str..Split$LT$P$GT$$u20$as$u20$core..iter..traits..iterator..Iterator$GT$4next17h293b301358390a5eE
Ltmp414:
Ltmp488:
	.loc	2 151 16
	xorl	%esi, %esi
	testq	%rax, %rax
	setne	%sil
Ltmp489:
	.loc	2 151 16 is_stmt 0
	leaq	l___unnamed_11(%rip), %rcx
	xorl	%edi, %edi
	testq	%rcx, %rcx
	setne	%dil
Ltmp490:
	cmpq	%rdi, %rsi
	jne	LBB19_37
Ltmp491:
	testq	%rax, %rax
	je	LBB19_23
Ltmp492:
	.loc	2 0 16
	testq	%rcx, %rcx
	.loc	2 151 16
	je	LBB19_23
Ltmp493:
	.loc	18 5860 12 is_stmt 1
	cmpq	$7, %rdx
	.loc	18 5860 9 is_stmt 0
	jne	LBB19_37
Ltmp494:
	.loc	18 5863 12 is_stmt 1
	cmpq	%rcx, %rax
	.loc	18 5863 9 is_stmt 0
	je	LBB19_23
Ltmp495:
	.loc	18 0 9
	movl	$1953723762, %ecx
Ltmp496:
	.loc	18 5868 13 is_stmt 1
	xorl	(%rax), %ecx
	movl	$824206196, %edx
Ltmp497:
	xorl	3(%rax), %edx
	orl	%ecx, %edx
Ltmp498:
	.loc	21 117 5
	jne	LBB19_37
Ltmp499:
LBB19_23:
Ltmp415:
	.loc	21 0 5 is_stmt 0
	leaq	-224(%rbp), %rdi
	.loc	21 121 22 is_stmt 1
	callq	__ZN84_$LT$core..str..Split$LT$P$GT$$u20$as$u20$core..iter..traits..iterator..Iterator$GT$4next17h293b301358390a5eE
Ltmp416:
	.loc	21 122 9
	testq	%rax, %rax
	je	LBB19_37
Ltmp417:
Ltmp500:
	.loc	21 126 5
	movq	%rax, %rdi
	movq	%rdx, %rsi
	callq	__ZN4core3num52_$LT$impl$u20$core..str..FromStr$u20$for$u20$u32$GT$8from_str17hb8ee2851a4cfefb0E
Ltmp501:
Ltmp418:
	.loc	21 0 0 is_stmt 0
	movq	%rax, %r15
Ltmp502:
	.loc	3 178 1 is_stmt 1
	movq	-272(%rbp), %rsi
Ltmp503:
	.loc	12 200 40
	testq	%rsi, %rsi
	.loc	12 200 9 is_stmt 0
	je	LBB19_28
Ltmp504:
	.loc	6 102 5 is_stmt 1
	movl	$1, %edx
	movq	%rbx, %rdi
	callq	___rust_dealloc
Ltmp505:
LBB19_28:
	.loc	3 178 1
	movq	-256(%rbp), %rdi
Ltmp506:
	.loc	12 532 16
	testq	%rdi, %rdi
Ltmp507:
	.loc	12 200 9
	je	LBB19_31
Ltmp508:
	.loc	3 0 0 is_stmt 0
	movq	-248(%rbp), %rsi
Ltmp509:
	.loc	12 200 9
	testq	%rsi, %rsi
	je	LBB19_31
Ltmp510:
	.loc	6 102 5 is_stmt 1
	movl	$1, %edx
	callq	___rust_dealloc
Ltmp511:
LBB19_31:
	.loc	21 10 9
	testb	$1, %r15b
	jne	LBB19_43
Ltmp512:
	.loc	22 212 5
	leaq	l___unnamed_12(%rip), %rsi
	leaq	-224(%rbp), %rdi
	movl	$6, %edx
	callq	__ZN3std3env4_var17heb54e5eb7997d7b3E
Ltmp513:
	.loc	8 1004 13
	cmpq	$1, -224(%rbp)
	je	LBB19_94
Ltmp514:
	.loc	8 0 13 is_stmt 0
	shrq	$32, %r15
Ltmp515:
	.loc	8 1004 16
	movq	-200(%rbp), %rbx
	movq	%rbx, -496(%rbp)
	movq	-216(%rbp), %r14
Ltmp516:
	movq	-208(%rbp), %rax
	movq	%rax, -504(%rbp)
	movq	%r14, -512(%rbp)
Ltmp517:
	.loc	18 5860 9 is_stmt 1
	cmpq	$25, %rbx
Ltmp518:
	je	LBB19_44
Ltmp519:
	cmpq	$24, %rbx
	jne	LBB19_47
Ltmp520:
	.loc	18 5863 12
	leaq	l___unnamed_13(%rip), %rax
Ltmp521:
	cmpq	%rax, %r14
	.loc	18 5863 9 is_stmt 0
	je	LBB19_48
Ltmp522:
	.loc	18 5868 13 is_stmt 1
	movdqu	(%r14), %xmm0
	movq	16(%r14), %xmm1
	pcmpeqb	LCPI19_2(%rip), %xmm1
	pcmpeqb	LCPI19_3(%rip), %xmm0
	pand	%xmm1, %xmm0
	pmovmskb	%xmm0, %eax
	cmpl	$65535, %eax
	sete	%r12b
Ltmp523:
	.loc	21 20 8
	cmpl	$25, %r15d
	.loc	21 20 5 is_stmt 0
	ja	LBB19_49
	jmp	LBB19_70
Ltmp524:
LBB19_37:
	.loc	3 178 1 is_stmt 1
	movq	-272(%rbp), %rsi
Ltmp525:
	.loc	12 200 40
	testq	%rsi, %rsi
	.loc	12 200 9 is_stmt 0
	je	LBB19_39
Ltmp526:
	.loc	6 102 5 is_stmt 1
	movl	$1, %edx
	movq	%rbx, %rdi
	callq	___rust_dealloc
Ltmp527:
LBB19_39:
	.loc	3 178 1
	movq	-256(%rbp), %rdi
Ltmp528:
	.loc	12 532 16
	testq	%rdi, %rdi
Ltmp529:
	.loc	12 200 9
	je	LBB19_43
Ltmp530:
	.loc	3 0 0 is_stmt 0
	movq	-248(%rbp), %rsi
Ltmp531:
	.loc	12 200 9
	testq	%rsi, %rsi
	je	LBB19_43
Ltmp532:
	.loc	6 102 5 is_stmt 1
	movl	$1, %edx
Ltmp533:
LBB19_42:
	.loc	21 0 0 is_stmt 0
	callq	___rust_dealloc
LBB19_43:
	.loc	21 98 2 is_stmt 1
	addq	$536, %rsp
	popq	%rbx
	popq	%r12
	popq	%r13
	popq	%r14
	popq	%r15
	popq	%rbp
	retq
LBB19_44:
Ltmp534:
	.loc	18 5863 12
	leaq	l___unnamed_14(%rip), %rax
Ltmp535:
	cmpq	%rax, %r14
	.loc	18 5863 9 is_stmt 0
	je	LBB19_48
Ltmp536:
	.loc	18 5868 13 is_stmt 1
	movdqu	(%r14), %xmm0
	movdqu	9(%r14), %xmm1
	pcmpeqb	LCPI19_0(%rip), %xmm1
	pcmpeqb	LCPI19_1(%rip), %xmm0
	pand	%xmm1, %xmm0
	pmovmskb	%xmm0, %eax
	cmpl	$65535, %eax
Ltmp537:
	.loc	21 15 22
	je	LBB19_48
Ltmp538:
LBB19_47:
	.loc	21 0 22 is_stmt 0
	xorl	%r12d, %r12d
Ltmp539:
	.loc	21 20 8 is_stmt 1
	cmpl	$25, %r15d
	.loc	21 20 5 is_stmt 0
	jbe	LBB19_70
Ltmp540:
LBB19_49:
	.loc	10 328 9 is_stmt 1
	leaq	l___unnamed_15(%rip), %rax
Ltmp541:
	movq	%rax, -224(%rbp)
	movq	$1, -216(%rbp)
	movq	$0, -208(%rbp)
	leaq	l___unnamed_16(%rip), %rax
Ltmp542:
	movq	%rax, -192(%rbp)
	movq	$0, -184(%rbp)
Ltmp422:
	leaq	-224(%rbp), %rdi
Ltmp543:
	.loc	21 21 9
	callq	__ZN3std2io5stdio6_print17hdea2154009b9e479E
Ltmp544:
Ltmp423:
LBB19_50:
	.loc	10 328 9
	leaq	l___unnamed_17(%rip), %rax
Ltmp545:
	movq	%rax, -224(%rbp)
	movq	$1, -216(%rbp)
	movq	$0, -208(%rbp)
	leaq	l___unnamed_16(%rip), %r13
Ltmp546:
	movq	%r13, -192(%rbp)
	movq	$0, -184(%rbp)
Ltmp424:
	leaq	-224(%rbp), %rdi
Ltmp547:
	.loc	21 29 9
	callq	__ZN3std2io5stdio6_print17hdea2154009b9e479E
Ltmp548:
Ltmp425:
	.loc	21 35 8
	cmpl	$20, %r15d
	.loc	21 35 5 is_stmt 0
	jb	LBB19_58
Ltmp549:
	.loc	10 328 9 is_stmt 1
	leaq	l___unnamed_18(%rip), %rax
Ltmp550:
	movq	%rax, -224(%rbp)
	movq	$1, -216(%rbp)
	movq	$0, -208(%rbp)
Ltmp551:
	movq	%r13, -192(%rbp)
	movq	$0, -184(%rbp)
Ltmp426:
	leaq	-224(%rbp), %rdi
Ltmp552:
	.loc	21 36 9
	callq	__ZN3std2io5stdio6_print17hdea2154009b9e479E
Ltmp553:
Ltmp427:
	.loc	10 328 9
	leaq	l___unnamed_19(%rip), %rax
Ltmp554:
	movq	%rax, -224(%rbp)
	movq	$1, -216(%rbp)
	movq	$0, -208(%rbp)
Ltmp555:
	movq	%r13, -192(%rbp)
	movq	$0, -184(%rbp)
Ltmp428:
	leaq	-224(%rbp), %rdi
Ltmp556:
	.loc	21 37 9
	callq	__ZN3std2io5stdio6_print17hdea2154009b9e479E
Ltmp557:
Ltmp429:
	.loc	21 43 8
	cmpl	$21, %r15d
	.loc	21 43 5 is_stmt 0
	jb	LBB19_58
Ltmp558:
	.loc	10 328 9 is_stmt 1
	leaq	l___unnamed_20(%rip), %rax
Ltmp559:
	movq	%rax, -224(%rbp)
	movq	$1, -216(%rbp)
	movq	$0, -208(%rbp)
Ltmp560:
	movq	%r13, -192(%rbp)
	movq	$0, -184(%rbp)
Ltmp430:
	leaq	-224(%rbp), %rdi
Ltmp561:
	.loc	21 44 9
	callq	__ZN3std2io5stdio6_print17hdea2154009b9e479E
Ltmp562:
Ltmp431:
	.loc	21 49 8
	cmpl	$25, %r15d
	.loc	21 49 5 is_stmt 0
	jb	LBB19_58
Ltmp563:
	.loc	10 328 9 is_stmt 1
	leaq	l___unnamed_21(%rip), %rax
Ltmp564:
	movq	%rax, -224(%rbp)
	movq	$1, -216(%rbp)
	movq	$0, -208(%rbp)
Ltmp565:
	movq	%r13, -192(%rbp)
	movq	$0, -184(%rbp)
Ltmp432:
	leaq	-224(%rbp), %rdi
Ltmp566:
	.loc	21 50 9
	callq	__ZN3std2io5stdio6_print17hdea2154009b9e479E
Ltmp567:
Ltmp433:
LBB19_58:
	.loc	21 20 8
	cmpl	$26, %r15d
	setb	%al
	.loc	21 58 8
	orb	%r12b, %al
	jne	LBB19_60
Ltmp568:
	.loc	10 328 9
	leaq	l___unnamed_22(%rip), %rax
Ltmp569:
	movq	%rax, -224(%rbp)
	movq	$1, -216(%rbp)
	movq	$0, -208(%rbp)
Ltmp570:
	movq	%r13, -192(%rbp)
	movq	$0, -184(%rbp)
Ltmp434:
	leaq	-224(%rbp), %rdi
Ltmp571:
	.loc	21 59 9
	callq	__ZN3std2io5stdio6_print17hdea2154009b9e479E
Ltmp572:
Ltmp435:
LBB19_60:
	.loc	21 64 8
	cmpl	$27, %r15d
	.loc	21 64 5 is_stmt 0
	jb	LBB19_92
Ltmp573:
	.loc	10 328 9 is_stmt 1
	leaq	l___unnamed_23(%rip), %rax
Ltmp574:
	movq	%rax, -224(%rbp)
	movq	$1, -216(%rbp)
	movq	$0, -208(%rbp)
Ltmp575:
	movq	%r13, -192(%rbp)
	movq	$0, -184(%rbp)
Ltmp436:
	leaq	-224(%rbp), %rdi
Ltmp576:
	.loc	21 65 9
	callq	__ZN3std2io5stdio6_print17hdea2154009b9e479E
Ltmp577:
Ltmp437:
	.loc	21 70 8
	cmpl	$28, %r15d
	.loc	21 70 5 is_stmt 0
	jb	LBB19_92
Ltmp578:
	.loc	10 328 9 is_stmt 1
	leaq	l___unnamed_24(%rip), %rax
Ltmp579:
	movq	%rax, -224(%rbp)
	movq	$1, -216(%rbp)
	movq	$0, -208(%rbp)
Ltmp580:
	movq	%r13, -192(%rbp)
	movq	$0, -184(%rbp)
Ltmp438:
	leaq	-224(%rbp), %rdi
Ltmp581:
	.loc	21 71 9
	callq	__ZN3std2io5stdio6_print17hdea2154009b9e479E
Ltmp582:
Ltmp439:
	.loc	21 77 8
	cmpl	$34, %r15d
	.loc	21 77 5 is_stmt 0
	jb	LBB19_92
Ltmp583:
	.loc	10 328 9 is_stmt 1
	leaq	l___unnamed_25(%rip), %rax
Ltmp584:
	movq	%rax, -224(%rbp)
	movq	$1, -216(%rbp)
	movq	$0, -208(%rbp)
Ltmp585:
	movq	%r13, -192(%rbp)
	movq	$0, -184(%rbp)
Ltmp440:
	leaq	-224(%rbp), %rdi
Ltmp586:
	.loc	21 78 9
	callq	__ZN3std2io5stdio6_print17hdea2154009b9e479E
Ltmp587:
Ltmp441:
	.loc	10 328 9
	leaq	l___unnamed_26(%rip), %rax
Ltmp588:
	movq	%rax, -224(%rbp)
	movq	$1, -216(%rbp)
	movq	$0, -208(%rbp)
Ltmp589:
	movq	%r13, -192(%rbp)
	movq	$0, -184(%rbp)
Ltmp442:
	leaq	-224(%rbp), %rdi
Ltmp590:
	.loc	21 79 9
	callq	__ZN3std2io5stdio6_print17hdea2154009b9e479E
Ltmp591:
Ltmp443:
	.loc	18 1430 9
	cmpq	$6, %rbx
Ltmp592:
	jae	LBB19_73
Ltmp593:
	.loc	18 1430 9 is_stmt 0
	cmpq	$4, %rbx
Ltmp594:
	jb	LBB19_78
Ltmp595:
	.loc	18 5863 12 is_stmt 1
	leaq	L___unnamed_27(%rip), %rax
Ltmp596:
	cmpq	%rax, %r14
	.loc	18 5863 9 is_stmt 0
	jne	LBB19_76
	jmp	LBB19_90
Ltmp597:
LBB19_48:
	.loc	18 0 9
	movb	$1, %r12b
	.loc	21 20 8 is_stmt 1
	cmpl	$25, %r15d
	.loc	21 20 5 is_stmt 0
	ja	LBB19_49
Ltmp598:
LBB19_70:
	.loc	21 22 15 is_stmt 1
	cmpl	$16, %r15d
	.loc	21 22 12 is_stmt 0
	jbe	LBB19_92
Ltmp599:
	.loc	10 328 9 is_stmt 1
	leaq	l___unnamed_28(%rip), %rax
Ltmp600:
	movq	%rax, -224(%rbp)
	movq	$1, -216(%rbp)
	movq	$0, -208(%rbp)
	leaq	l___unnamed_16(%rip), %rax
Ltmp601:
	movq	%rax, -192(%rbp)
	movq	$0, -184(%rbp)
Ltmp420:
	leaq	-224(%rbp), %rdi
Ltmp602:
	.loc	21 23 9
	callq	__ZN3std2io5stdio6_print17hdea2154009b9e479E
Ltmp603:
Ltmp421:
	.loc	21 28 8
	cmpl	$19, %r15d
	jae	LBB19_50
	jmp	LBB19_92
Ltmp604:
LBB19_73:
	.loc	18 5863 12
	leaq	l___unnamed_29(%rip), %rax
Ltmp605:
	cmpq	%rax, %r14
	.loc	18 5863 9 is_stmt 0
	je	LBB19_90
Ltmp606:
	.loc	18 0 9
	movl	$1597388920, %ecx
Ltmp607:
	.loc	18 5868 13 is_stmt 1
	xorl	(%r14), %ecx
	movzwl	4(%r14), %edx
	xorl	$13366, %edx
	xorl	%eax, %eax
Ltmp608:
	orl	%ecx, %edx
	setne	%cl
Ltmp609:
	.loc	18 5863 12
	leaq	L___unnamed_27(%rip), %rdx
	cmpq	%rdx, %r14
Ltmp610:
	.loc	18 1430 9
	je	LBB19_90
Ltmp611:
	.loc	18 0 0 is_stmt 0
	movb	%cl, %al
	.loc	18 1430 9
	testl	%eax, %eax
	je	LBB19_90
Ltmp612:
LBB19_76:
	.loc	18 5868 13 is_stmt 1
	cmpl	$909653609, (%r14)
Ltmp613:
	.loc	18 1430 9
	je	LBB19_90
Ltmp614:
	.loc	18 1430 9 is_stmt 0
	cmpq	$7, %rbx
Ltmp615:
	jae	LBB19_79
Ltmp616:
LBB19_78:
	.loc	21 94 9 is_stmt 1
	testb	%r12b, %r12b
	jne	LBB19_91
	jmp	LBB19_92
Ltmp617:
LBB19_79:
	.loc	18 5863 12
	leaq	l___unnamed_30(%rip), %rax
Ltmp618:
	cmpq	%rax, %r14
	.loc	18 5863 9 is_stmt 0
	je	LBB19_90
Ltmp619:
	.loc	18 0 9
	movl	$1668440417, %eax
Ltmp620:
	.loc	18 5868 13 is_stmt 1
	xorl	(%r14), %eax
	movl	$875980899, %ecx
	xorl	3(%r14), %ecx
	orl	%eax, %ecx
Ltmp621:
	.loc	18 1430 9
	je	LBB19_90
Ltmp622:
	.loc	18 1430 9 is_stmt 0
	cmpq	$9, %rbx
Ltmp623:
	jae	LBB19_83
Ltmp624:
	.loc	18 5863 12 is_stmt 1
	leaq	l___unnamed_31(%rip), %rax
Ltmp625:
	cmpq	%rax, %r14
	.loc	18 5863 9 is_stmt 0
	jne	LBB19_86
	jmp	LBB19_90
Ltmp626:
LBB19_83:
	.loc	18 5863 12
	leaq	l___unnamed_32(%rip), %rax
Ltmp627:
	cmpq	%rax, %r14
	.loc	18 5863 9
	je	LBB19_90
Ltmp628:
	.loc	18 0 9
	movabsq	$3919099737373372272, %rcx
Ltmp629:
	.loc	18 5868 13 is_stmt 1
	xorq	(%r14), %rcx
	movzbl	8(%r14), %edx
	xorq	$52, %rdx
	xorl	%eax, %eax
Ltmp630:
	orq	%rcx, %rdx
	setne	%cl
Ltmp631:
	.loc	18 5863 12
	leaq	l___unnamed_31(%rip), %rdx
	cmpq	%rdx, %r14
Ltmp632:
	.loc	18 1430 9
	je	LBB19_90
Ltmp633:
	.loc	18 0 0 is_stmt 0
	movb	%cl, %al
	.loc	18 1430 9
	testl	%eax, %eax
	je	LBB19_90
Ltmp634:
LBB19_86:
	.loc	18 0 9
	movl	$1918988403, %eax
Ltmp635:
	.loc	18 5868 13 is_stmt 1
	xorl	(%r14), %eax
	movl	$875979634, %ecx
	xorl	3(%r14), %ecx
	orl	%eax, %ecx
Ltmp636:
	.loc	18 1430 9
	je	LBB19_90
Ltmp637:
	.loc	18 1430 9 is_stmt 0
	cmpq	$8, %rbx
Ltmp638:
	jb	LBB19_78
Ltmp639:
	.loc	18 5863 12 is_stmt 1
	leaq	L___unnamed_33(%rip), %rax
Ltmp640:
	cmpq	%rax, %r14
	.loc	18 5863 9 is_stmt 0
	je	LBB19_90
Ltmp641:
	.loc	18 0 9
	movabsq	$7810706537213618541, %rax
Ltmp642:
	.loc	18 5868 13 is_stmt 1
	cmpq	%rax, (%r14)
Ltmp643:
	.loc	18 1430 9
	jne	LBB19_78
Ltmp644:
LBB19_90:
	.loc	10 328 9
	leaq	l___unnamed_34(%rip), %rax
Ltmp645:
	movq	%rax, -224(%rbp)
	movq	$1, -216(%rbp)
	movq	$0, -208(%rbp)
Ltmp646:
	movq	%r13, -192(%rbp)
	movq	$0, -184(%rbp)
Ltmp444:
	leaq	-224(%rbp), %rdi
Ltmp647:
	.loc	21 92 13
	callq	__ZN3std2io5stdio6_print17hdea2154009b9e479E
Ltmp648:
Ltmp445:
LBB19_91:
	.loc	10 328 9
	leaq	l___unnamed_35(%rip), %rax
Ltmp649:
	movq	%rax, -224(%rbp)
	movq	$1, -216(%rbp)
	movq	$0, -208(%rbp)
Ltmp650:
	movq	%r13, -192(%rbp)
	movq	$0, -184(%rbp)
Ltmp446:
	leaq	-224(%rbp), %rdi
Ltmp651:
	.loc	21 95 13
	callq	__ZN3std2io5stdio6_print17hdea2154009b9e479E
Ltmp652:
Ltmp447:
LBB19_92:
	.loc	3 178 1
	movq	-504(%rbp), %rsi
Ltmp653:
	.loc	12 200 40
	testq	%rsi, %rsi
	.loc	12 200 9 is_stmt 0
	je	LBB19_43
Ltmp654:
	.loc	6 102 5 is_stmt 1
	movl	$1, %edx
	movq	%r14, %rdi
	jmp	LBB19_42
Ltmp655:
LBB19_94:
	.loc	8 1005 17
	movq	-200(%rbp), %rax
	movq	%rax, -496(%rbp)
	movq	-216(%rbp), %rax
	movq	-208(%rbp), %rcx
	movq	%rcx, -504(%rbp)
	movq	%rax, -512(%rbp)
Ltmp449:
Ltmp656:
	.loc	8 1005 23 is_stmt 0
	leaq	l___unnamed_36(%rip), %rdi
	leaq	l___unnamed_2(%rip), %rcx
	leaq	l___unnamed_37(%rip), %r8
	leaq	-512(%rbp), %rdx
	movl	$43, %esi
	callq	__ZN4core6result13unwrap_failed17hb5a510096a5fc85fE
Ltmp450:
Ltmp657:
	.loc	8 0 23
	ud2
Ltmp658:
LBB19_96:
Ltmp451:
	movq	%rax, %r14
	leaq	-512(%rbp), %rdi
	.loc	8 1005 87
	callq	__ZN4core3ptr13drop_in_place17h3c4bd24558e26a57E
	movq	%r14, %rdi
	callq	__Unwind_Resume
	ud2
Ltmp659:
LBB19_97:
Ltmp448:
	.loc	8 0 87
	movq	%rax, %r14
	leaq	-512(%rbp), %rdi
	.loc	21 98 1 is_stmt 1
	callq	__ZN4core3ptr13drop_in_place17h0dcc2165e33c28beE
	movq	%r14, %rdi
	callq	__Unwind_Resume
	ud2
Ltmp660:
LBB19_98:
Ltmp454:
	.loc	21 0 1 is_stmt 0
	movq	%rax, %r14
Ltmp661:
	.loc	3 178 1 is_stmt 1
	movq	(%rbx), %rdi
	movq	8(%rbx), %rsi
	callq	__ZN5alloc5alloc8box_free17hb05c4624fce4972cE
Ltmp662:
	.loc	3 178 1 is_stmt 0
	movq	%rbx, %rdi
	callq	__ZN5alloc5alloc8box_free17hefc5c8c98678ce59E
	jmp	LBB19_103
Ltmp663:
LBB19_99:
Ltmp457:
	.loc	3 0 1
	movq	%rax, %r14
	movq	%r14, %rdi
	callq	__Unwind_Resume
	ud2
LBB19_100:
Ltmp403:
	movq	%rax, %r14
Ltmp664:
	leaq	-304(%rbp), %rdi
Ltmp665:
	.loc	23 502 5 is_stmt 1
	callq	__ZN4core3ptr13drop_in_place17h384072a521e267a6E
	movq	%r14, %rdi
	callq	__Unwind_Resume
	ud2
Ltmp666:
LBB19_101:
Ltmp419:
	.loc	23 0 5 is_stmt 0
	movq	%rax, %r14
Ltmp667:
	leaq	-280(%rbp), %rdi
	.loc	21 127 1 is_stmt 1
	callq	__ZN4core3ptr13drop_in_place17hc9246b7c0a6f08abE
	movq	%r14, %rdi
	callq	__Unwind_Resume
	ud2
Ltmp668:
LBB19_102:
Ltmp408:
	.loc	21 0 1 is_stmt 0
	movq	%rax, %r14
LBB19_103:
	leaq	-512(%rbp), %rdi
	.loc	21 109 6 is_stmt 1
	callq	__ZN4core3ptr13drop_in_place17h4183dd0ebc97a7c9E
	movq	%r14, %rdi
	callq	__Unwind_Resume
	ud2
Ltmp669:
Lfunc_end19:
	.cfi_endproc
	.file	24 "/rustc/a74d1862d4d87a56244958416fd05976c58ca1a8/src/liballoc/string.rs"
	.section	__TEXT,__gcc_except_tab
	.p2align	2
GCC_except_table19:
Lexception3:
	.byte	255
	.byte	255
	.byte	1
	.uleb128 Lcst_end3-Lcst_begin3
Lcst_begin3:
	.uleb128 Lfunc_begin19-Lfunc_begin19
	.uleb128 Ltmp401-Lfunc_begin19
	.byte	0
	.byte	0
	.uleb128 Ltmp401-Lfunc_begin19
	.uleb128 Ltmp402-Ltmp401
	.uleb128 Ltmp403-Lfunc_begin19
	.byte	0
	.uleb128 Ltmp402-Lfunc_begin19
	.uleb128 Ltmp404-Ltmp402
	.byte	0
	.byte	0
	.uleb128 Ltmp404-Lfunc_begin19
	.uleb128 Ltmp407-Ltmp404
	.uleb128 Ltmp408-Lfunc_begin19
	.byte	0
	.uleb128 Ltmp452-Lfunc_begin19
	.uleb128 Ltmp453-Ltmp452
	.uleb128 Ltmp454-Lfunc_begin19
	.byte	0
	.uleb128 Ltmp455-Lfunc_begin19
	.uleb128 Ltmp456-Ltmp455
	.uleb128 Ltmp457-Lfunc_begin19
	.byte	0
	.uleb128 Ltmp409-Lfunc_begin19
	.uleb128 Ltmp418-Ltmp409
	.uleb128 Ltmp419-Lfunc_begin19
	.byte	0
	.uleb128 Ltmp418-Lfunc_begin19
	.uleb128 Ltmp422-Ltmp418
	.byte	0
	.byte	0
	.uleb128 Ltmp422-Lfunc_begin19
	.uleb128 Ltmp447-Ltmp422
	.uleb128 Ltmp448-Lfunc_begin19
	.byte	0
	.uleb128 Ltmp449-Lfunc_begin19
	.uleb128 Ltmp450-Ltmp449
	.uleb128 Ltmp451-Lfunc_begin19
	.byte	0
	.uleb128 Ltmp450-Lfunc_begin19
	.uleb128 Lfunc_end19-Ltmp450
	.byte	0
	.byte	0
Lcst_end3:
	.p2align	2

	.section	__TEXT,__text,regular,pure_instructions
	.globl	_main
	.p2align	4, 0x90
_main:
Lfunc_begin20:
	.cfi_startproc
	pushq	%rbp
	.cfi_def_cfa_offset 16
	.cfi_offset %rbp, -16
	movq	%rsp, %rbp
	.cfi_def_cfa_register %rbp
	subq	$16, %rsp
	movq	%rsi, %rcx
	movslq	%edi, %rdx
	leaq	__ZN18build_script_build4main17h6672d03191fd6c3dE(%rip), %rax
	movq	%rax, -8(%rbp)
	leaq	l___unnamed_1(%rip), %rsi
	leaq	-8(%rbp), %rdi
	callq	__ZN3std2rt19lang_start_internal17hebefdaa8fd585aefE
	addq	$16, %rsp
	popq	%rbp
	retq
Lfunc_end20:
	.cfi_endproc

	.section	__TEXT,__const
l___unnamed_38:
	.ascii	"/rustc/a74d1862d4d87a56244958416fd05976c58ca1a8/src/liballoc/collections/btree/map.rs"

	.section	__DATA,__const
	.p2align	3
l___unnamed_4:
	.quad	l___unnamed_38
	.asciz	"U\000\000\000\000\000\000\000C\006\000\000\033\000\000"

	.p2align	3
l___unnamed_1:
	.quad	__ZN4core3ptr13drop_in_place17h6958c652631e3800E
	.quad	8
	.quad	8
	.quad	__ZN3std2rt10lang_start28_$u7b$$u7b$closure$u7d$$u7d$17h922384dbde6e4990E
	.quad	__ZN3std2rt10lang_start28_$u7b$$u7b$closure$u7d$$u7d$17h922384dbde6e4990E
	.quad	__ZN4core3ops8function6FnOnce40call_once$u7b$$u7b$vtable.shim$u7d$$u7d$17h1f4867a881cea00cE

	.section	__TEXT,__const
l___unnamed_39:
	.ascii	"/rustc/a74d1862d4d87a56244958416fd05976c58ca1a8/src/libcore/macros/mod.rs"

	.section	__DATA,__const
	.p2align	3
l___unnamed_7:
	.quad	l___unnamed_39
	.asciz	"I\000\000\000\000\000\000\000\020\000\000\000\t\000\000"

	.section	__TEXT,__const
l___unnamed_3:
	.ascii	"called `Option::unwrap()` on a `None` value"

l___unnamed_36:
	.ascii	"called `Result::unwrap()` on an `Err` value"

	.section	__DATA,__const
	.p2align	3
l___unnamed_2:
	.quad	__ZN4core3ptr13drop_in_place17h3c4bd24558e26a57E
	.quad	24
	.quad	8
	.quad	__ZN55_$LT$std..env..VarError$u20$as$u20$core..fmt..Debug$GT$3fmt17h4b70de487f3ab127E

	.section	__TEXT,__const
l___unnamed_40:
	.ascii	"internal error: entered unreachable code: "

	.section	__DATA,__const
	.p2align	3
l___unnamed_6:
	.quad	l___unnamed_40
	.asciz	"*\000\000\000\000\000\000"

	.section	__TEXT,__const
l___unnamed_41:
	.ascii	"BTreeMap has different depths"

	.section	__DATA,__const
	.p2align	3
l___unnamed_5:
	.quad	l___unnamed_41
	.asciz	"\035\000\000\000\000\000\000"

	.section	__TEXT,__const
l___unnamed_42:
	.ascii	"/rustc/a74d1862d4d87a56244958416fd05976c58ca1a8/src/libcore/str/pattern.rs"

	.section	__DATA,__const
	.p2align	3
l___unnamed_8:
	.quad	l___unnamed_42
	.asciz	"J\000\000\000\000\000\000\000\213\001\000\000&\000\000"

	.section	__TEXT,__const
l___unnamed_12:
	.ascii	"TARGET"

l___unnamed_43:
	.ascii	"/Users/yingyuhang/.cargo/registry/src/github.com-1ecc6299db9ec823/serde-1.0.114/build.rs"

	.section	__DATA,__const
	.p2align	3
l___unnamed_37:
	.quad	l___unnamed_43
	.asciz	"X\000\000\000\000\000\000\000\016\000\000\000\022\000\000"

	.section	__TEXT,__const
l___unnamed_13:
	.ascii	"asmjs-unknown-emscripten"

l___unnamed_14:
	.ascii	"wasm32-unknown-emscripten"

l___unnamed_44:
	.ascii	"cargo:rustc-cfg=ops_bound\n"

	.section	__DATA,__const
	.p2align	3
l___unnamed_15:
	.quad	l___unnamed_44
	.asciz	"\032\000\000\000\000\000\000"

	.section	__TEXT,__const
	.p2align	3
l___unnamed_16:
	.byte	0

l___unnamed_45:
	.ascii	"cargo:rustc-cfg=collections_bound\n"

	.section	__DATA,__const
	.p2align	3
l___unnamed_28:
	.quad	l___unnamed_45
	.asciz	"\"\000\000\000\000\000\000"

	.section	__TEXT,__const
l___unnamed_46:
	.ascii	"cargo:rustc-cfg=core_reverse\n"

	.section	__DATA,__const
	.p2align	3
l___unnamed_17:
	.quad	l___unnamed_46
	.asciz	"\035\000\000\000\000\000\000"

	.section	__TEXT,__const
l___unnamed_47:
	.ascii	"cargo:rustc-cfg=de_boxed_c_str\n"

	.section	__DATA,__const
	.p2align	3
l___unnamed_18:
	.quad	l___unnamed_47
	.asciz	"\037\000\000\000\000\000\000"

	.section	__TEXT,__const
l___unnamed_48:
	.ascii	"cargo:rustc-cfg=de_boxed_path\n"

	.section	__DATA,__const
	.p2align	3
l___unnamed_19:
	.quad	l___unnamed_48
	.asciz	"\036\000\000\000\000\000\000"

	.section	__TEXT,__const
l___unnamed_49:
	.ascii	"cargo:rustc-cfg=de_rc_dst\n"

	.section	__DATA,__const
	.p2align	3
l___unnamed_20:
	.quad	l___unnamed_49
	.asciz	"\032\000\000\000\000\000\000"

	.section	__TEXT,__const
l___unnamed_50:
	.ascii	"cargo:rustc-cfg=core_duration\n"

	.section	__DATA,__const
	.p2align	3
l___unnamed_21:
	.quad	l___unnamed_50
	.asciz	"\036\000\000\000\000\000\000"

	.section	__TEXT,__const
l___unnamed_51:
	.ascii	"cargo:rustc-cfg=integer128\n"

	.section	__DATA,__const
	.p2align	3
l___unnamed_22:
	.quad	l___unnamed_51
	.asciz	"\033\000\000\000\000\000\000"

	.section	__TEXT,__const
l___unnamed_52:
	.ascii	"cargo:rustc-cfg=range_inclusive\n"

	.section	__DATA,__const
	.p2align	3
l___unnamed_23:
	.quad	l___unnamed_52
	.asciz	" \000\000\000\000\000\000"

	.section	__TEXT,__const
l___unnamed_53:
	.ascii	"cargo:rustc-cfg=num_nonzero\n"

	.section	__DATA,__const
	.p2align	3
l___unnamed_24:
	.quad	l___unnamed_53
	.asciz	"\034\000\000\000\000\000\000"

	.section	__TEXT,__const
l___unnamed_54:
	.ascii	"cargo:rustc-cfg=core_try_from\n"

	.section	__DATA,__const
	.p2align	3
l___unnamed_25:
	.quad	l___unnamed_54
	.asciz	"\036\000\000\000\000\000\000"

	.section	__TEXT,__const
l___unnamed_55:
	.ascii	"cargo:rustc-cfg=num_nonzero_signed\n"

	.section	__DATA,__const
	.p2align	3
l___unnamed_26:
	.quad	l___unnamed_55
	.asciz	"#\000\000\000\000\000\000"

	.section	__TEXT,__const
l___unnamed_29:
	.ascii	"x86_64"

	.section	__TEXT,__literal4,4byte_literals
L___unnamed_27:
	.ascii	"i686"

	.section	__TEXT,__const
l___unnamed_30:
	.ascii	"aarch64"

l___unnamed_32:
	.ascii	"powerpc64"

l___unnamed_31:
	.ascii	"sparc64"

	.section	__TEXT,__literal8,8byte_literals
L___unnamed_33:
	.ascii	"mips64el"

	.section	__TEXT,__const
l___unnamed_56:
	.ascii	"cargo:rustc-cfg=std_atomic64\n"

	.section	__DATA,__const
	.p2align	3
l___unnamed_34:
	.quad	l___unnamed_56
	.asciz	"\035\000\000\000\000\000\000"

	.section	__TEXT,__const
l___unnamed_57:
	.ascii	"cargo:rustc-cfg=std_atomic\n"

	.section	__DATA,__const
	.p2align	3
l___unnamed_35:
	.quad	l___unnamed_57
	.asciz	"\033\000\000\000\000\000\000"

	.section	__TEXT,__const
l___unnamed_9:
	.ascii	"RUSTC"

l___unnamed_10:
	.ascii	"--version"

l___unnamed_11:
	.ascii	"rustc 1"

	.section	__DATA,__const
Lsec_end0:
	.section	__TEXT,__text,regular,pure_instructions
Lsec_end1: