	.section	__TEXT,__text,regular,pure_instructions
	.macosx_version_min 10, 7
	.p2align	4, 0x90
__ZN119_$LT$core..ptr..non_null..NonNull$LT$T$GT$$u20$as$u20$core..convert..From$LT$core..ptr..unique..Unique$LT$T$GT$$GT$$GT$4from17h176eb2351875abd9E:
	.cfi_startproc
	pushq	%rbp
	.cfi_def_cfa_offset 16
	.cfi_offset %rbp, -16
	movq	%rsp, %rbp
	.cfi_def_cfa_register %rbp
	subq	$16, %rsp
	callq	__ZN4core3ptr6unique15Unique$LT$T$GT$6as_ptr17hf234fab4f728a1e3E
	movq	%rax, -8(%rbp)
	movq	-8(%rbp), %rdi
	callq	__ZN4core3ptr8non_null16NonNull$LT$T$GT$13new_unchecked17hfa58c45adcfa38ecE
	movq	%rax, -16(%rbp)
	movq	-16(%rbp), %rax
	addq	$16, %rsp
	popq	%rbp
	retq
	.cfi_endproc

	.p2align	4, 0x90
__ZN3std10sys_common12os_str_bytes5Slice13from_u8_slice17h1efca9b94dbe5725E:
	.cfi_startproc
	pushq	%rbp
	.cfi_def_cfa_offset 16
	.cfi_offset %rbp, -16
	movq	%rsp, %rbp
	.cfi_def_cfa_register %rbp
	subq	$32, %rsp
	movq	%rdi, -16(%rbp)
	movq	%rsi, -8(%rbp)
	movq	-16(%rbp), %rax
	movq	-8(%rbp), %rdx
	movq	%rax, -24(%rbp)
	movq	%rdx, -32(%rbp)
	movq	-24(%rbp), %rax
	movq	-32(%rbp), %rdx
	addq	$32, %rsp
	popq	%rbp
	retq
	.cfi_endproc

	.p2align	4, 0x90
__ZN3std10sys_common12os_str_bytes5Slice8from_str17hb67172048099cc59E:
	.cfi_startproc
	pushq	%rbp
	.cfi_def_cfa_offset 16
	.cfi_offset %rbp, -16
	movq	%rsp, %rbp
	.cfi_def_cfa_register %rbp
	subq	$48, %rsp
	movq	%rdi, -16(%rbp)
	movq	%rsi, -8(%rbp)
	movq	-16(%rbp), %rdi
	movq	-8(%rbp), %rsi
	movq	%rdi, -24(%rbp)
	movq	%rsi, -32(%rbp)
	movq	-24(%rbp), %rdi
	movq	-32(%rbp), %rsi
	callq	__ZN3std10sys_common12os_str_bytes5Slice13from_u8_slice17h1efca9b94dbe5725E
	movq	%rax, -40(%rbp)
	movq	%rdx, -48(%rbp)
	movq	-40(%rbp), %rax
	movq	-48(%rbp), %rdx
	addq	$48, %rsp
	popq	%rbp
	retq
	.cfi_endproc

	.private_extern	__ZN3std2rt10lang_start17hba28573eb28913e7E
	.globl	__ZN3std2rt10lang_start17hba28573eb28913e7E
	.p2align	4, 0x90
__ZN3std2rt10lang_start17hba28573eb28913e7E:
	.cfi_startproc
	pushq	%rbp
	.cfi_def_cfa_offset 16
	.cfi_offset %rbp, -16
	movq	%rsp, %rbp
	.cfi_def_cfa_register %rbp
	subq	$32, %rsp
	leaq	l___unnamed_1(%rip), %rax
	movq	%rdi, -8(%rbp)
	leaq	-8(%rbp), %rcx
	movq	%rcx, %rdi
	movq	%rsi, -16(%rbp)
	movq	%rax, %rsi
	movq	-16(%rbp), %rax
	movq	%rdx, -24(%rbp)
	movq	%rax, %rdx
	movq	-24(%rbp), %rcx
	callq	__ZN3std2rt19lang_start_internal17hbbd10965adc92ae7E
	movq	%rax, -32(%rbp)
	movq	-32(%rbp), %rax
	addq	$32, %rsp
	popq	%rbp
	retq
	.cfi_endproc

	.p2align	4, 0x90
__ZN3std2rt10lang_start28_$u7b$$u7b$closure$u7d$$u7d$17hb61751deb4b07088E:
	.cfi_startproc
	pushq	%rbp
	.cfi_def_cfa_offset 16
	.cfi_offset %rbp, -16
	movq	%rsp, %rbp
	.cfi_def_cfa_register %rbp
	subq	$16, %rsp
	callq	*(%rdi)
	callq	__ZN54_$LT$$LP$$RP$$u20$as$u20$std..process..Termination$GT$6report17hd54873336a48ca86E
	movl	%eax, -4(%rbp)
	movl	-4(%rbp), %eax
	addq	$16, %rsp
	popq	%rbp
	retq
	.cfi_endproc

	.p2align	4, 0x90
__ZN3std3env3var17h9e226cca444203b0E:
Lfunc_begin0:
	.cfi_startproc
	.cfi_personality 155, _rust_eh_personality
	.cfi_lsda 16, Lexception0
	pushq	%rbp
	.cfi_def_cfa_offset 16
	.cfi_offset %rbp, -16
	movq	%rsp, %rbp
	.cfi_def_cfa_register %rbp
	subq	$64, %rsp
	movq	%rdi, %rax
	movq	%rsi, -32(%rbp)
	movq	%rdx, -24(%rbp)
Ltmp0:
	leaq	-32(%rbp), %rcx
	movq	%rdi, -40(%rbp)
	movq	%rcx, %rdi
	movq	%rax, -48(%rbp)
	callq	__ZN55_$LT$$RF$T$u20$as$u20$core..convert..AsRef$LT$U$GT$$GT$6as_ref17h4ad18472aa6525efE
Ltmp1:
	movq	%rdx, -56(%rbp)
	movq	%rax, -64(%rbp)
	jmp	LBB5_2
LBB5_1:
	movq	-16(%rbp), %rdi
	callq	__Unwind_Resume
	ud2
LBB5_2:
Ltmp2:
	movq	-40(%rbp), %rdi
	movq	-64(%rbp), %rsi
	movq	-56(%rbp), %rdx
	callq	__ZN3std3env4_var17h5f49b4c5e0582abcE
Ltmp3:
	jmp	LBB5_4
LBB5_3:
	jmp	LBB5_1
LBB5_4:
	jmp	LBB5_5
LBB5_5:
	movq	-48(%rbp), %rax
	addq	$64, %rsp
	popq	%rbp
	retq
LBB5_6:
Ltmp4:
	movq	%rax, -16(%rbp)
	movl	%edx, -8(%rbp)
	jmp	LBB5_3
Lfunc_end0:
	.cfi_endproc
	.section	__TEXT,__gcc_except_tab
	.p2align	2
GCC_except_table5:
Lexception0:
	.byte	255
	.byte	255
	.byte	1
	.uleb128 Lcst_end0-Lcst_begin0
Lcst_begin0:
	.uleb128 Ltmp0-Lfunc_begin0
	.uleb128 Ltmp1-Ltmp0
	.uleb128 Ltmp4-Lfunc_begin0
	.byte	0
	.uleb128 Ltmp1-Lfunc_begin0
	.uleb128 Ltmp2-Ltmp1
	.byte	0
	.byte	0
	.uleb128 Ltmp2-Lfunc_begin0
	.uleb128 Ltmp3-Ltmp2
	.uleb128 Ltmp4-Lfunc_begin0
	.byte	0
Lcst_end0:
	.p2align	2

	.section	__TEXT,__text,regular,pure_instructions
	.p2align	4, 0x90
__ZN3std3ffi6os_str5OsStr10from_inner17h813a78a14510d97aE:
	.cfi_startproc
	pushq	%rbp
	.cfi_def_cfa_offset 16
	.cfi_offset %rbp, -16
	movq	%rsp, %rbp
	.cfi_def_cfa_register %rbp
	movq	%rdi, %rax
	movq	%rsi, %rdx
	popq	%rbp
	retq
	.cfi_endproc

	.p2align	4, 0x90
__ZN3std3ffi6os_str85_$LT$impl$u20$core..convert..AsRef$LT$std..ffi..os_str..OsStr$GT$$u20$for$u20$str$GT$6as_ref17h408726ebba2075c5E:
	.cfi_startproc
	pushq	%rbp
	.cfi_def_cfa_offset 16
	.cfi_offset %rbp, -16
	movq	%rsp, %rbp
	.cfi_def_cfa_register %rbp
	subq	$32, %rsp
	callq	__ZN3std10sys_common12os_str_bytes5Slice8from_str17hb67172048099cc59E
	movq	%rax, -8(%rbp)
	movq	%rdx, -16(%rbp)
	movq	-8(%rbp), %rdi
	movq	-16(%rbp), %rsi
	callq	__ZN3std3ffi6os_str5OsStr10from_inner17h813a78a14510d97aE
	movq	%rax, -24(%rbp)
	movq	%rdx, -32(%rbp)
	movq	-24(%rbp), %rax
	movq	-32(%rbp), %rdx
	addq	$32, %rsp
	popq	%rbp
	retq
	.cfi_endproc

	.p2align	4, 0x90
__ZN3std3sys4unix7process14process_common8ExitCode6as_i3217hc96a9c69ccc85053E:
	.cfi_startproc
	pushq	%rbp
	.cfi_def_cfa_offset 16
	.cfi_offset %rbp, -16
	movq	%rsp, %rbp
	.cfi_def_cfa_register %rbp
	movzbl	(%rdi), %eax
	popq	%rbp
	retq
	.cfi_endproc

	.p2align	4, 0x90
__ZN49_$LT$usize$u20$as$u20$core..iter..range..Step$GT$17forward_unchecked17h25bdfc8179f710bdE:
	.cfi_startproc
	pushq	%rbp
	.cfi_def_cfa_offset 16
	.cfi_offset %rbp, -16
	movq	%rsp, %rbp
	.cfi_def_cfa_register %rbp
	subq	$16, %rsp
	callq	__ZN4core3num23_$LT$impl$u20$usize$GT$13unchecked_add17h9b2c0bdc531771c4E
	movq	%rax, -8(%rbp)
	movq	-8(%rbp), %rax
	addq	$16, %rsp
	popq	%rbp
	retq
	.cfi_endproc

	.p2align	4, 0x90
__ZN49_$LT$usize$u20$as$u20$core..iter..range..Step$GT$18backward_unchecked17h5afdeb4806e8a389E:
	.cfi_startproc
	pushq	%rbp
	.cfi_def_cfa_offset 16
	.cfi_offset %rbp, -16
	movq	%rsp, %rbp
	.cfi_def_cfa_register %rbp
	subq	$16, %rsp
	callq	__ZN4core3num23_$LT$impl$u20$usize$GT$13unchecked_sub17h2296c28f3f2aff77E
	movq	%rax, -8(%rbp)
	movq	-8(%rbp), %rax
	addq	$16, %rsp
	popq	%rbp
	retq
	.cfi_endproc

	.p2align	4, 0x90
__ZN4core10intrinsics19copy_nonoverlapping17h4607766cb6213ed1E:
	.cfi_startproc
	pushq	%rbp
	.cfi_def_cfa_offset 16
	.cfi_offset %rbp, -16
	movq	%rsp, %rbp
	.cfi_def_cfa_register %rbp
	subq	$16, %rsp
	shlq	$3, %rdx
	movq	%rdi, -8(%rbp)
	movq	%rsi, %rdi
	movq	-8(%rbp), %rsi
	callq	_memcpy
	addq	$16, %rsp
	popq	%rbp
	retq
	.cfi_endproc

	.p2align	4, 0x90
__ZN4core10intrinsics19copy_nonoverlapping17hc22be34f3c971dc0E:
	.cfi_startproc
	pushq	%rbp
	.cfi_def_cfa_offset 16
	.cfi_offset %rbp, -16
	movq	%rsp, %rbp
	.cfi_def_cfa_register %rbp
	subq	$16, %rsp
	shlq	$0, %rdx
	movq	%rdi, -8(%rbp)
	movq	%rsi, %rdi
	movq	-8(%rbp), %rsi
	callq	_memcpy
	addq	$16, %rsp
	popq	%rbp
	retq
	.cfi_endproc

	.p2align	4, 0x90
__ZN4core3cmp3Ord3max17h1ea17a361cf35091E:
	.cfi_startproc
	pushq	%rbp
	.cfi_def_cfa_offset 16
	.cfi_offset %rbp, -16
	movq	%rsp, %rbp
	.cfi_def_cfa_register %rbp
	subq	$16, %rsp
	callq	__ZN4core3cmp6max_by17h72239ac726a2040cE
	movq	%rax, -8(%rbp)
	movq	-8(%rbp), %rax
	addq	$16, %rsp
	popq	%rbp
	retq
	.cfi_endproc

	.p2align	4, 0x90
__ZN4core3cmp3max17hd98a12f47b2301beE:
	.cfi_startproc
	pushq	%rbp
	.cfi_def_cfa_offset 16
	.cfi_offset %rbp, -16
	movq	%rsp, %rbp
	.cfi_def_cfa_register %rbp
	subq	$16, %rsp
	callq	__ZN4core3cmp3Ord3max17h1ea17a361cf35091E
	movq	%rax, -8(%rbp)
	movq	-8(%rbp), %rax
	addq	$16, %rsp
	popq	%rbp
	retq
	.cfi_endproc

	.p2align	4, 0x90
__ZN4core3cmp5impls50_$LT$impl$u20$core..cmp..Ord$u20$for$u20$usize$GT$3cmp17h8da23e3eaefbc393E:
	.cfi_startproc
	pushq	%rbp
	.cfi_def_cfa_offset 16
	.cfi_offset %rbp, -16
	movq	%rsp, %rbp
	.cfi_def_cfa_register %rbp
	subq	$24, %rsp
	movq	(%rdi), %rax
	cmpq	(%rsi), %rax
	movq	%rdi, -16(%rbp)
	movq	%rsi, -24(%rbp)
	jb	LBB15_2
	movq	-16(%rbp), %rax
	movq	(%rax), %rcx
	movq	-24(%rbp), %rdx
	cmpq	(%rdx), %rcx
	je	LBB15_4
	jmp	LBB15_3
LBB15_2:
	movb	$-1, -1(%rbp)
	jmp	LBB15_6
LBB15_3:
	movb	$1, -1(%rbp)
	jmp	LBB15_5
LBB15_4:
	movb	$0, -1(%rbp)
LBB15_5:
	jmp	LBB15_6
LBB15_6:
	movb	-1(%rbp), %al
	addq	$24, %rsp
	popq	%rbp
	retq
	.cfi_endproc

	.p2align	4, 0x90
__ZN4core3cmp5impls57_$LT$impl$u20$core..cmp..PartialOrd$u20$for$u20$usize$GT$2lt17h5757ad39617111b6E:
	.cfi_startproc
	pushq	%rbp
	.cfi_def_cfa_offset 16
	.cfi_offset %rbp, -16
	movq	%rsp, %rbp
	.cfi_def_cfa_register %rbp
	movq	(%rdi), %rax
	cmpq	(%rsi), %rax
	setb	%cl
	andb	$1, %cl
	movzbl	%cl, %eax
	popq	%rbp
	retq
	.cfi_endproc

	.p2align	4, 0x90
__ZN4core3cmp6max_by17h72239ac726a2040cE:
Lfunc_begin1:
	.cfi_startproc
	.cfi_personality 155, _rust_eh_personality
	.cfi_lsda 16, Lexception1
	pushq	%rbp
	.cfi_def_cfa_offset 16
	.cfi_offset %rbp, -16
	movq	%rsp, %rbp
	.cfi_def_cfa_register %rbp
	subq	$80, %rsp
	movq	%rdi, -72(%rbp)
	movq	%rsi, -64(%rbp)
	movb	$0, -18(%rbp)
	movb	$0, -17(%rbp)
	movb	$1, -18(%rbp)
	movb	$1, -17(%rbp)
	leaq	-72(%rbp), %rax
	movq	%rax, -40(%rbp)
	leaq	-64(%rbp), %rax
	movq	%rax, -32(%rbp)
	movq	-40(%rbp), %rdi
	movq	-32(%rbp), %rsi
Ltmp5:
	callq	__ZN4core3ops8function6FnOnce9call_once17h51420f22e6a1fb5aE
Ltmp6:
	movb	%al, -73(%rbp)
	jmp	LBB17_2
LBB17_1:
	movq	-16(%rbp), %rdi
	callq	__Unwind_Resume
	ud2
LBB17_2:
	movb	-73(%rbp), %al
	movb	%al, -41(%rbp)
	movsbq	-41(%rbp), %rcx
	incq	%rcx
	subq	$2, %rcx
	jb	LBB17_7
	jmp	LBB17_15
LBB17_15:
	jmp	LBB17_5
LBB17_3:
	testb	$1, -18(%rbp)
	jne	LBB17_11
	jmp	LBB17_1
LBB17_4:
	movb	$0, -17(%rbp)
	jmp	LBB17_3
LBB17_5:
	movb	$0, -18(%rbp)
	movq	-72(%rbp), %rax
	movq	%rax, -56(%rbp)
	jmp	LBB17_8
	ud2
LBB17_7:
	movb	$0, -17(%rbp)
	movq	-64(%rbp), %rax
	movq	%rax, -56(%rbp)
LBB17_8:
	testb	$1, -17(%rbp)
	jne	LBB17_12
LBB17_9:
	testb	$1, -18(%rbp)
	jne	LBB17_13
LBB17_10:
	movq	-56(%rbp), %rax
	addq	$80, %rsp
	popq	%rbp
	retq
LBB17_11:
	movb	$0, -18(%rbp)
	jmp	LBB17_1
LBB17_12:
	movb	$0, -17(%rbp)
	jmp	LBB17_9
LBB17_13:
	movb	$0, -18(%rbp)
	jmp	LBB17_10
LBB17_14:
Ltmp7:
	movq	%rax, -16(%rbp)
	movl	%edx, -8(%rbp)
	jmp	LBB17_4
Lfunc_end1:
	.cfi_endproc
	.section	__TEXT,__gcc_except_tab
	.p2align	2
GCC_except_table17:
Lexception1:
	.byte	255
	.byte	255
	.byte	1
	.uleb128 Lcst_end1-Lcst_begin1
Lcst_begin1:
	.uleb128 Ltmp5-Lfunc_begin1
	.uleb128 Ltmp6-Ltmp5
	.uleb128 Ltmp7-Lfunc_begin1
	.byte	0
	.uleb128 Ltmp6-Lfunc_begin1
	.uleb128 Lfunc_end1-Ltmp6
	.byte	0
	.byte	0
Lcst_end1:
	.p2align	2

	.section	__TEXT,__text,regular,pure_instructions
	.p2align	4, 0x90
__ZN4core3fmt9Arguments6new_v117h3a597a4639ee0433E:
	.cfi_startproc
	pushq	%rbp
	.cfi_def_cfa_offset 16
	.cfi_offset %rbp, -16
	movq	%rsp, %rbp
	.cfi_def_cfa_register %rbp
	subq	$16, %rsp
	movq	%rdi, %rax
	movq	$0, -16(%rbp)
	movq	%rsi, (%rdi)
	movq	%rdx, 8(%rdi)
	movq	-16(%rbp), %rdx
	movq	-8(%rbp), %rsi
	movq	%rdx, 16(%rdi)
	movq	%rsi, 24(%rdi)
	movq	%rcx, 32(%rdi)
	movq	%r8, 40(%rdi)
	addq	$16, %rsp
	popq	%rbp
	retq
	.cfi_endproc

	.p2align	4, 0x90
__ZN4core3mem4swap17h52b4e8987fc0c306E:
	.cfi_startproc
	pushq	%rbp
	.cfi_def_cfa_offset 16
	.cfi_offset %rbp, -16
	movq	%rsp, %rbp
	.cfi_def_cfa_register %rbp
	callq	__ZN4core3ptr23swap_nonoverlapping_one17h97fdf7bc1483ec6eE
	popq	%rbp
	retq
	.cfi_endproc

	.p2align	4, 0x90
__ZN4core3mem7replace17h229a2c2478dafdccE:
Lfunc_begin2:
	.cfi_startproc
	.cfi_personality 155, _rust_eh_personality
	.cfi_lsda 16, Lexception2
	pushq	%rbp
	.cfi_def_cfa_offset 16
	.cfi_offset %rbp, -16
	movq	%rsp, %rbp
	.cfi_def_cfa_register %rbp
	subq	$32, %rsp
	movq	%rsi, -24(%rbp)
Ltmp8:
	leaq	-24(%rbp), %rsi
	callq	__ZN4core3mem4swap17h52b4e8987fc0c306E
Ltmp9:
	jmp	LBB20_2
LBB20_1:
	movq	-16(%rbp), %rdi
	callq	__Unwind_Resume
	ud2
LBB20_2:
	movq	-24(%rbp), %rax
	addq	$32, %rsp
	popq	%rbp
	retq
LBB20_3:
	jmp	LBB20_1
LBB20_4:
Ltmp10:
	movq	%rax, -16(%rbp)
	movl	%edx, -8(%rbp)
	jmp	LBB20_3
Lfunc_end2:
	.cfi_endproc
	.section	__TEXT,__gcc_except_tab
	.p2align	2
GCC_except_table20:
Lexception2:
	.byte	255
	.byte	255
	.byte	1
	.uleb128 Lcst_end2-Lcst_begin2
Lcst_begin2:
	.uleb128 Ltmp8-Lfunc_begin2
	.uleb128 Ltmp9-Ltmp8
	.uleb128 Ltmp10-Lfunc_begin2
	.byte	0
	.uleb128 Ltmp9-Lfunc_begin2
	.uleb128 Lfunc_end2-Ltmp9
	.byte	0
	.byte	0
Lcst_end2:
	.p2align	2

	.section	__TEXT,__text,regular,pure_instructions
	.p2align	4, 0x90
__ZN4core3num12NonZeroUsize13new_unchecked17h2c4ecf722fa8b221E:
	.cfi_startproc
	pushq	%rbp
	.cfi_def_cfa_offset 16
	.cfi_offset %rbp, -16
	movq	%rsp, %rbp
	.cfi_def_cfa_register %rbp
	pushq	%rax
	movq	%rdi, -8(%rbp)
	movq	-8(%rbp), %rax
	addq	$8, %rsp
	popq	%rbp
	retq
	.cfi_endproc

	.p2align	4, 0x90
__ZN4core3num12NonZeroUsize3get17hae89ba1d741446eeE:
	.cfi_startproc
	pushq	%rbp
	.cfi_def_cfa_offset 16
	.cfi_offset %rbp, -16
	movq	%rsp, %rbp
	.cfi_def_cfa_register %rbp
	movq	%rdi, %rax
	popq	%rbp
	retq
	.cfi_endproc

	.p2align	4, 0x90
__ZN4core3num23_$LT$impl$u20$usize$GT$13unchecked_add17h9b2c0bdc531771c4E:
	.cfi_startproc
	pushq	%rbp
	.cfi_def_cfa_offset 16
	.cfi_offset %rbp, -16
	movq	%rsp, %rbp
	.cfi_def_cfa_register %rbp
	subq	$16, %rsp
	addq	%rsi, %rdi
	movq	%rdi, -8(%rbp)
	movq	-8(%rbp), %rax
	movq	%rax, -16(%rbp)
	movq	-16(%rbp), %rax
	addq	$16, %rsp
	popq	%rbp
	retq
	.cfi_endproc

	.p2align	4, 0x90
__ZN4core3num23_$LT$impl$u20$usize$GT$13unchecked_sub17h2296c28f3f2aff77E:
	.cfi_startproc
	pushq	%rbp
	.cfi_def_cfa_offset 16
	.cfi_offset %rbp, -16
	movq	%rsp, %rbp
	.cfi_def_cfa_register %rbp
	subq	$16, %rsp
	subq	%rsi, %rdi
	movq	%rdi, -8(%rbp)
	movq	-8(%rbp), %rax
	movq	%rax, -16(%rbp)
	movq	-16(%rbp), %rax
	addq	$16, %rsp
	popq	%rbp
	retq
	.cfi_endproc

	.p2align	4, 0x90
__ZN4core3ops8function6FnOnce40call_once$u7b$$u7b$vtable.shim$u7d$$u7d$17hc74f969082996797E:
	.cfi_startproc
	pushq	%rbp
	.cfi_def_cfa_offset 16
	.cfi_offset %rbp, -16
	movq	%rsp, %rbp
	.cfi_def_cfa_register %rbp
	subq	$16, %rsp
	movq	(%rdi), %rdi
	callq	__ZN4core3ops8function6FnOnce9call_once17h4965426e003c6b56E
	movl	%eax, -12(%rbp)
	movl	-12(%rbp), %eax
	addq	$16, %rsp
	popq	%rbp
	retq
	.cfi_endproc

	.p2align	4, 0x90
__ZN4core3ops8function6FnOnce9call_once17h4965426e003c6b56E:
Lfunc_begin3:
	.cfi_startproc
	.cfi_personality 155, _rust_eh_personality
	.cfi_lsda 16, Lexception3
	pushq	%rbp
	.cfi_def_cfa_offset 16
	.cfi_offset %rbp, -16
	movq	%rsp, %rbp
	.cfi_def_cfa_register %rbp
	subq	$48, %rsp
	movq	%rdi, -32(%rbp)
Ltmp11:
	leaq	-32(%rbp), %rdi
	callq	__ZN3std2rt10lang_start28_$u7b$$u7b$closure$u7d$$u7d$17hb61751deb4b07088E
Ltmp12:
	movl	%eax, -36(%rbp)
	jmp	LBB26_1
LBB26_1:
	jmp	LBB26_2
LBB26_2:
	movl	-36(%rbp), %eax
	addq	$48, %rsp
	popq	%rbp
	retq
LBB26_3:
	jmp	LBB26_4
LBB26_4:
	movq	-16(%rbp), %rdi
	callq	__Unwind_Resume
	ud2
LBB26_5:
Ltmp13:
	movq	%rax, -16(%rbp)
	movl	%edx, -8(%rbp)
	jmp	LBB26_3
Lfunc_end3:
	.cfi_endproc
	.section	__TEXT,__gcc_except_tab
	.p2align	2
GCC_except_table26:
Lexception3:
	.byte	255
	.byte	255
	.byte	1
	.uleb128 Lcst_end3-Lcst_begin3
Lcst_begin3:
	.uleb128 Ltmp11-Lfunc_begin3
	.uleb128 Ltmp12-Ltmp11
	.uleb128 Ltmp13-Lfunc_begin3
	.byte	0
	.uleb128 Ltmp12-Lfunc_begin3
	.uleb128 Lfunc_end3-Ltmp12
	.byte	0
	.byte	0
Lcst_end3:
	.p2align	2

	.section	__TEXT,__text,regular,pure_instructions
	.p2align	4, 0x90
__ZN4core3ops8function6FnOnce9call_once17h51420f22e6a1fb5aE:
	.cfi_startproc
	pushq	%rbp
	.cfi_def_cfa_offset 16
	.cfi_offset %rbp, -16
	movq	%rsp, %rbp
	.cfi_def_cfa_register %rbp
	subq	$32, %rsp
	movq	%rdi, -16(%rbp)
	movq	%rsi, -8(%rbp)
	movq	-16(%rbp), %rdi
	movq	-8(%rbp), %rsi
	callq	__ZN4core3cmp5impls50_$LT$impl$u20$core..cmp..Ord$u20$for$u20$usize$GT$3cmp17h8da23e3eaefbc393E
	movb	%al, -17(%rbp)
	movb	-17(%rbp), %al
	addq	$32, %rsp
	popq	%rbp
	retq
	.cfi_endproc

	.p2align	4, 0x90
__ZN4core3ptr13drop_in_place17h2d9ad133d922a45cE:
	.cfi_startproc
	pushq	%rbp
	.cfi_def_cfa_offset 16
	.cfi_offset %rbp, -16
	movq	%rsp, %rbp
	.cfi_def_cfa_register %rbp
	subq	$16, %rsp
	callq	__ZN4core3ptr13drop_in_place17h9e164c8f4c4a84c9E
	addq	$16, %rsp
	popq	%rbp
	retq
	.cfi_endproc

	.p2align	4, 0x90
__ZN4core3ptr13drop_in_place17h84fad21df3088046E:
	.cfi_startproc
	pushq	%rbp
	.cfi_def_cfa_offset 16
	.cfi_offset %rbp, -16
	movq	%rsp, %rbp
	.cfi_def_cfa_register %rbp
	subq	$16, %rsp
	xorl	%eax, %eax
	movl	%eax, %ecx
	cmpq	$0, (%rdi)
	movl	$1, %edx
	cmovbeq	%rcx, %rdx
	cmpq	$0, %rdx
	movq	%rdi, -16(%rbp)
	jne	LBB29_2
LBB29_1:
	addq	$16, %rsp
	popq	%rbp
	retq
LBB29_2:
	movq	-16(%rbp), %rax
	movq	%rax, %rdi
	callq	__ZN4core3ptr13drop_in_place17h2d9ad133d922a45cE
	jmp	LBB29_1
	.cfi_endproc

	.p2align	4, 0x90
__ZN4core3ptr13drop_in_place17h9e164c8f4c4a84c9E:
	.cfi_startproc
	pushq	%rbp
	.cfi_def_cfa_offset 16
	.cfi_offset %rbp, -16
	movq	%rsp, %rbp
	.cfi_def_cfa_register %rbp
	subq	$16, %rsp
	callq	__ZN4core3ptr13drop_in_place17ha70a3f5aa7c2eba9E
	addq	$16, %rsp
	popq	%rbp
	retq
	.cfi_endproc

	.p2align	4, 0x90
__ZN4core3ptr13drop_in_place17ha70a3f5aa7c2eba9E:
Lfunc_begin4:
	.cfi_startproc
	.cfi_personality 155, _rust_eh_personality
	.cfi_lsda 16, Lexception4
	pushq	%rbp
	.cfi_def_cfa_offset 16
	.cfi_offset %rbp, -16
	movq	%rsp, %rbp
	.cfi_def_cfa_register %rbp
	subq	$32, %rsp
Ltmp14:
	movq	%rdi, -32(%rbp)
	callq	__ZN66_$LT$alloc..vec..Vec$LT$T$GT$$u20$as$u20$core..ops..drop..Drop$GT$4drop17haaffba73d6ab51daE
Ltmp15:
	jmp	LBB31_4
LBB31_1:
	movq	-16(%rbp), %rdi
	callq	__Unwind_Resume
	ud2
LBB31_2:
	addq	$32, %rsp
	popq	%rbp
	retq
LBB31_3:
	movq	-32(%rbp), %rax
	movq	%rax, %rdi
	callq	__ZN4core3ptr13drop_in_place17hd92eed907a6b9cc1E
	jmp	LBB31_1
LBB31_4:
	movq	-32(%rbp), %rax
	movq	%rax, %rdi
	callq	__ZN4core3ptr13drop_in_place17hd92eed907a6b9cc1E
	jmp	LBB31_2
LBB31_5:
Ltmp16:
	movq	%rax, -16(%rbp)
	movl	%edx, -8(%rbp)
	jmp	LBB31_3
Lfunc_end4:
	.cfi_endproc
	.section	__TEXT,__gcc_except_tab
	.p2align	2
GCC_except_table31:
Lexception4:
	.byte	255
	.byte	255
	.byte	1
	.uleb128 Lcst_end4-Lcst_begin4
Lcst_begin4:
	.uleb128 Ltmp14-Lfunc_begin4
	.uleb128 Ltmp15-Ltmp14
	.uleb128 Ltmp16-Lfunc_begin4
	.byte	0
	.uleb128 Ltmp15-Lfunc_begin4
	.uleb128 Lfunc_end4-Ltmp15
	.byte	0
	.byte	0
Lcst_end4:
	.p2align	2

	.section	__TEXT,__text,regular,pure_instructions
	.p2align	4, 0x90
__ZN4core3ptr13drop_in_place17hab0e3f779963f793E:
	.cfi_startproc
	pushq	%rbp
	.cfi_def_cfa_offset 16
	.cfi_offset %rbp, -16
	movq	%rsp, %rbp
	.cfi_def_cfa_register %rbp
	pushq	%rax
	addq	$8, %rsp
	popq	%rbp
	retq
	.cfi_endproc

	.p2align	4, 0x90
__ZN4core3ptr13drop_in_place17hcdf25bdcd5603d7eE:
	.cfi_startproc
	pushq	%rbp
	.cfi_def_cfa_offset 16
	.cfi_offset %rbp, -16
	movq	%rsp, %rbp
	.cfi_def_cfa_register %rbp
	subq	$16, %rsp
	callq	__ZN4core3ptr13drop_in_place17ha70a3f5aa7c2eba9E
	addq	$16, %rsp
	popq	%rbp
	retq
	.cfi_endproc

	.p2align	4, 0x90
__ZN4core3ptr13drop_in_place17hd92eed907a6b9cc1E:
	.cfi_startproc
	pushq	%rbp
	.cfi_def_cfa_offset 16
	.cfi_offset %rbp, -16
	movq	%rsp, %rbp
	.cfi_def_cfa_register %rbp
	subq	$16, %rsp
	callq	__ZN77_$LT$alloc..raw_vec..RawVec$LT$T$C$A$GT$$u20$as$u20$core..ops..drop..Drop$GT$4drop17h9e847aeef3f56276E
	addq	$16, %rsp
	popq	%rbp
	retq
	.cfi_endproc

	.p2align	4, 0x90
__ZN4core3ptr19swap_nonoverlapping17h2a02f7f197e1acb3E:
	.cfi_startproc
	pushq	%rbp
	.cfi_def_cfa_offset 16
	.cfi_offset %rbp, -16
	movq	%rsp, %rbp
	.cfi_def_cfa_register %rbp
	subq	$48, %rsp
	movq	$8, -8(%rbp)
	movq	-8(%rbp), %rax
	movq	%rdx, -16(%rbp)
	movq	%rdi, -24(%rbp)
	movq	%rsi, -32(%rbp)
	movq	%rax, -40(%rbp)
	movq	-40(%rbp), %rax
	movq	-16(%rbp), %rcx
	imulq	%rcx, %rax
	movq	-24(%rbp), %rdi
	movq	-32(%rbp), %rsi
	movq	%rax, %rdx
	callq	__ZN4core3ptr25swap_nonoverlapping_bytes17hb7bf24bd8a1f1b24E
	addq	$48, %rsp
	popq	%rbp
	retq
	.cfi_endproc

	.p2align	4, 0x90
__ZN4core3ptr20slice_from_raw_parts17h053a646a7e781333E:
	.cfi_startproc
	pushq	%rbp
	.cfi_def_cfa_offset 16
	.cfi_offset %rbp, -16
	movq	%rsp, %rbp
	.cfi_def_cfa_register %rbp
	subq	$32, %rsp
	movq	%rdi, -16(%rbp)
	movq	%rsi, -8(%rbp)
	movq	-16(%rbp), %rax
	movq	-8(%rbp), %rcx
	movq	%rax, -32(%rbp)
	movq	%rcx, -24(%rbp)
	movq	-32(%rbp), %rax
	movq	-24(%rbp), %rdx
	addq	$32, %rsp
	popq	%rbp
	retq
	.cfi_endproc

	.p2align	4, 0x90
__ZN4core3ptr23swap_nonoverlapping_one17h97fdf7bc1483ec6eE:
Lfunc_begin5:
	.cfi_startproc
	.cfi_personality 155, _rust_eh_personality
	.cfi_lsda 16, Lexception5
	pushq	%rbp
	.cfi_def_cfa_offset 16
	.cfi_offset %rbp, -16
	movq	%rsp, %rbp
	.cfi_def_cfa_register %rbp
	subq	$64, %rsp
	movb	$0, -25(%rbp)
	movq	$8, -8(%rbp)
	movq	-8(%rbp), %rax
	movq	%rdi, -40(%rbp)
	movq	%rsi, -48(%rbp)
	movq	%rax, -56(%rbp)
	jmp	LBB37_2
LBB37_1:
	movq	-24(%rbp), %rdi
	callq	__Unwind_Resume
	ud2
LBB37_2:
	movq	-56(%rbp), %rax
	cmpq	$32, %rax
	jb	LBB37_4
	movq	-40(%rbp), %rdi
	movq	-48(%rbp), %rsi
	movl	$1, %edx
	callq	__ZN4core3ptr19swap_nonoverlapping17h2a02f7f197e1acb3E
	jmp	LBB37_8
LBB37_4:
	movb	$1, -25(%rbp)
	movq	-40(%rbp), %rdi
	callq	__ZN4core3ptr4read17he5d65ff98292c603E
	movq	%rax, -64(%rbp)
Ltmp17:
	movl	$1, %edx
	movq	-48(%rbp), %rdi
	movq	-40(%rbp), %rsi
	callq	__ZN4core10intrinsics19copy_nonoverlapping17h4607766cb6213ed1E
Ltmp18:
	jmp	LBB37_6
LBB37_6:
	movb	$0, -25(%rbp)
Ltmp19:
	movq	-48(%rbp), %rdi
	movq	-64(%rbp), %rsi
	callq	__ZN4core3ptr5write17hd4d474c2f45b1843E
Ltmp20:
	jmp	LBB37_7
LBB37_7:
	movb	$0, -25(%rbp)
	jmp	LBB37_9
LBB37_8:
	jmp	LBB37_9
LBB37_9:
	addq	$64, %rsp
	popq	%rbp
	retq
LBB37_10:
	movb	$0, -25(%rbp)
	jmp	LBB37_1
LBB37_11:
	testb	$1, -25(%rbp)
	jne	LBB37_10
	jmp	LBB37_1
LBB37_12:
Ltmp21:
	movq	%rax, -24(%rbp)
	movl	%edx, -16(%rbp)
	jmp	LBB37_11
Lfunc_end5:
	.cfi_endproc
	.section	__TEXT,__gcc_except_tab
	.p2align	2
GCC_except_table37:
Lexception5:
	.byte	255
	.byte	255
	.byte	1
	.uleb128 Lcst_end5-Lcst_begin5
Lcst_begin5:
	.uleb128 Lfunc_begin5-Lfunc_begin5
	.uleb128 Ltmp17-Lfunc_begin5
	.byte	0
	.byte	0
	.uleb128 Ltmp17-Lfunc_begin5
	.uleb128 Ltmp20-Ltmp17
	.uleb128 Ltmp21-Lfunc_begin5
	.byte	0
Lcst_end5:
	.p2align	2

	.section	__TEXT,__text,regular,pure_instructions
	.p2align	4, 0x90
__ZN4core3ptr24slice_from_raw_parts_mut17hf67e67874cc34b3aE:
	.cfi_startproc
	pushq	%rbp
	.cfi_def_cfa_offset 16
	.cfi_offset %rbp, -16
	movq	%rsp, %rbp
	.cfi_def_cfa_register %rbp
	subq	$32, %rsp
	movq	%rdi, -16(%rbp)
	movq	%rsi, -8(%rbp)
	movq	-16(%rbp), %rax
	movq	-8(%rbp), %rcx
	movq	%rax, -32(%rbp)
	movq	%rcx, -24(%rbp)
	movq	-32(%rbp), %rax
	movq	-24(%rbp), %rdx
	addq	$32, %rsp
	popq	%rbp
	retq
	.cfi_endproc

	.p2align	4, 0x90
__ZN4core3ptr25swap_nonoverlapping_bytes17hb7bf24bd8a1f1b24E:
	.cfi_startproc
	pushq	%rbp
	.cfi_def_cfa_offset 16
	.cfi_offset %rbp, -16
	movq	%rsp, %rbp
	.cfi_def_cfa_register %rbp
	andq	$-32, %rsp
	subq	$224, %rsp
	movq	$32, 200(%rsp)
	movq	200(%rsp), %rax
	movq	%rdi, 104(%rsp)
	movq	%rsi, 96(%rsp)
	movq	%rdx, 88(%rsp)
	movq	%rax, 80(%rsp)
	movq	$0, 120(%rsp)
LBB39_2:
	movq	80(%rsp), %rax
	addq	120(%rsp), %rax
	movq	88(%rsp), %rcx
	cmpq	%rcx, %rax
	jbe	LBB39_4
	movq	88(%rsp), %rax
	cmpq	%rax, 120(%rsp)
	jb	LBB39_13
	jmp	LBB39_12
LBB39_4:
	jmp	LBB39_6
LBB39_6:
	leaq	128(%rsp), %rax
	movq	120(%rsp), %rsi
	movq	104(%rsp), %rdi
	movq	%rax, 72(%rsp)
	callq	__ZN4core3ptr7mut_ptr31_$LT$impl$u20$$BP$mut$u20$T$GT$3add17h61c2986acd322b9cE
	movq	%rax, 64(%rsp)
	movq	120(%rsp), %rsi
	movq	96(%rsp), %rdi
	callq	__ZN4core3ptr7mut_ptr31_$LT$impl$u20$$BP$mut$u20$T$GT$3add17h61c2986acd322b9cE
	movq	%rax, 56(%rsp)
	movq	64(%rsp), %rdi
	movq	72(%rsp), %rsi
	movq	80(%rsp), %rdx
	callq	__ZN4core10intrinsics19copy_nonoverlapping17hc22be34f3c971dc0E
	movq	56(%rsp), %rdi
	movq	64(%rsp), %rsi
	movq	80(%rsp), %rdx
	callq	__ZN4core10intrinsics19copy_nonoverlapping17hc22be34f3c971dc0E
	movq	72(%rsp), %rdi
	movq	56(%rsp), %rsi
	movq	80(%rsp), %rdx
	callq	__ZN4core10intrinsics19copy_nonoverlapping17hc22be34f3c971dc0E
	movq	80(%rsp), %rax
	addq	120(%rsp), %rax
	movq	%rax, 120(%rsp)
	jmp	LBB39_2
LBB39_12:
	jmp	LBB39_21
LBB39_13:
	movq	88(%rsp), %rax
	subq	120(%rsp), %rax
	leaq	168(%rsp), %rcx
	movq	%rax, 48(%rsp)
	movq	%rcx, 40(%rsp)
	movq	40(%rsp), %rax
	movq	120(%rsp), %rsi
	movq	104(%rsp), %rdi
	movq	%rax, 32(%rsp)
	callq	__ZN4core3ptr7mut_ptr31_$LT$impl$u20$$BP$mut$u20$T$GT$3add17h61c2986acd322b9cE
	movq	%rax, 24(%rsp)
	movq	120(%rsp), %rsi
	movq	96(%rsp), %rdi
	callq	__ZN4core3ptr7mut_ptr31_$LT$impl$u20$$BP$mut$u20$T$GT$3add17h61c2986acd322b9cE
	movq	%rax, 16(%rsp)
	movq	24(%rsp), %rdi
	movq	32(%rsp), %rsi
	movq	48(%rsp), %rdx
	callq	__ZN4core10intrinsics19copy_nonoverlapping17hc22be34f3c971dc0E
	movq	16(%rsp), %rdi
	movq	24(%rsp), %rsi
	movq	48(%rsp), %rdx
	callq	__ZN4core10intrinsics19copy_nonoverlapping17hc22be34f3c971dc0E
	movq	32(%rsp), %rdi
	movq	16(%rsp), %rsi
	movq	48(%rsp), %rdx
	callq	__ZN4core10intrinsics19copy_nonoverlapping17hc22be34f3c971dc0E
	jmp	LBB39_21
LBB39_21:
	movq	%rbp, %rsp
	popq	%rbp
	retq
	.cfi_endproc

	.p2align	4, 0x90
__ZN4core3ptr4read17he5d65ff98292c603E:
	.cfi_startproc
	pushq	%rbp
	.cfi_def_cfa_offset 16
	.cfi_offset %rbp, -16
	movq	%rsp, %rbp
	.cfi_def_cfa_register %rbp
	subq	$32, %rsp
	movq	-8(%rbp), %rax
	movq	%rax, -16(%rbp)
	movq	%rdi, -24(%rbp)
	jmp	LBB40_2
LBB40_2:
	movq	-24(%rbp), %rdi
	leaq	-16(%rbp), %rsi
	movl	$1, %edx
	callq	__ZN4core10intrinsics19copy_nonoverlapping17h4607766cb6213ed1E
	movq	-16(%rbp), %rax
	movq	%rax, -32(%rbp)
	movq	-32(%rbp), %rax
	addq	$32, %rsp
	popq	%rbp
	retq
	.cfi_endproc

	.p2align	4, 0x90
__ZN4core3ptr5write17hd4d474c2f45b1843E:
	.cfi_startproc
	pushq	%rbp
	.cfi_def_cfa_offset 16
	.cfi_offset %rbp, -16
	movq	%rsp, %rbp
	.cfi_def_cfa_register %rbp
	pushq	%rax
	movq	%rsi, (%rdi)
	addq	$8, %rsp
	popq	%rbp
	retq
	.cfi_endproc

	.p2align	4, 0x90
__ZN4core3ptr6unique15Unique$LT$T$GT$13new_unchecked17h23ba16ba82e88388E:
	.cfi_startproc
	pushq	%rbp
	.cfi_def_cfa_offset 16
	.cfi_offset %rbp, -16
	movq	%rsp, %rbp
	.cfi_def_cfa_register %rbp
	subq	$16, %rsp
	movq	%rdi, -16(%rbp)
	movq	-16(%rbp), %rax
	addq	$16, %rsp
	popq	%rbp
	retq
	.cfi_endproc

	.p2align	4, 0x90
__ZN4core3ptr6unique15Unique$LT$T$GT$4cast17h878117d0f6dea411E:
	.cfi_startproc
	pushq	%rbp
	.cfi_def_cfa_offset 16
	.cfi_offset %rbp, -16
	movq	%rsp, %rbp
	.cfi_def_cfa_register %rbp
	subq	$16, %rsp
	callq	__ZN4core3ptr6unique15Unique$LT$T$GT$6as_ptr17hf234fab4f728a1e3E
	movq	%rax, -8(%rbp)
	movq	-8(%rbp), %rdi
	callq	__ZN4core3ptr6unique15Unique$LT$T$GT$13new_unchecked17h23ba16ba82e88388E
	movq	%rax, -16(%rbp)
	movq	-16(%rbp), %rax
	addq	$16, %rsp
	popq	%rbp
	retq
	.cfi_endproc

	.p2align	4, 0x90
__ZN4core3ptr6unique15Unique$LT$T$GT$6as_ptr17hf234fab4f728a1e3E:
	.cfi_startproc
	pushq	%rbp
	.cfi_def_cfa_offset 16
	.cfi_offset %rbp, -16
	movq	%rsp, %rbp
	.cfi_def_cfa_register %rbp
	movq	%rdi, %rax
	popq	%rbp
	retq
	.cfi_endproc

	.p2align	4, 0x90
__ZN4core3ptr7mut_ptr31_$LT$impl$u20$$BP$mut$u20$T$GT$3add17h61c2986acd322b9cE:
	.cfi_startproc
	pushq	%rbp
	.cfi_def_cfa_offset 16
	.cfi_offset %rbp, -16
	movq	%rsp, %rbp
	.cfi_def_cfa_register %rbp
	subq	$16, %rsp
	callq	__ZN4core3ptr7mut_ptr31_$LT$impl$u20$$BP$mut$u20$T$GT$6offset17h05b887f302bca38cE
	movq	%rax, -8(%rbp)
	movq	-8(%rbp), %rax
	addq	$16, %rsp
	popq	%rbp
	retq
	.cfi_endproc

	.p2align	4, 0x90
__ZN4core3ptr7mut_ptr31_$LT$impl$u20$$BP$mut$u20$T$GT$6offset17h05b887f302bca38cE:
	.cfi_startproc
	pushq	%rbp
	.cfi_def_cfa_offset 16
	.cfi_offset %rbp, -16
	movq	%rsp, %rbp
	.cfi_def_cfa_register %rbp
	subq	$16, %rsp
	addq	%rsi, %rdi
	movq	%rdi, -8(%rbp)
	movq	-8(%rbp), %rax
	movq	%rax, -16(%rbp)
	movq	-16(%rbp), %rax
	addq	$16, %rsp
	popq	%rbp
	retq
	.cfi_endproc

	.p2align	4, 0x90
__ZN4core3ptr7mut_ptr31_$LT$impl$u20$$BP$mut$u20$T$GT$7is_null17he8275fec89e3a72cE:
	.cfi_startproc
	pushq	%rbp
	.cfi_def_cfa_offset 16
	.cfi_offset %rbp, -16
	movq	%rsp, %rbp
	.cfi_def_cfa_register %rbp
	pushq	%rax
	movq	%rdi, -8(%rbp)
	jmp	LBB47_1
LBB47_1:
	movq	-8(%rbp), %rax
	cmpq	$0, %rax
	sete	%cl
	andb	$1, %cl
	movzbl	%cl, %edx
	movl	%edx, %eax
	addq	$8, %rsp
	popq	%rbp
	retq
	.cfi_endproc

	.p2align	4, 0x90
__ZN4core3ptr8non_null16NonNull$LT$T$GT$13new_unchecked17hfa58c45adcfa38ecE:
	.cfi_startproc
	pushq	%rbp
	.cfi_def_cfa_offset 16
	.cfi_offset %rbp, -16
	movq	%rsp, %rbp
	.cfi_def_cfa_register %rbp
	pushq	%rax
	movq	%rdi, -8(%rbp)
	movq	-8(%rbp), %rax
	addq	$8, %rsp
	popq	%rbp
	retq
	.cfi_endproc

	.p2align	4, 0x90
__ZN4core3ptr8non_null16NonNull$LT$T$GT$6as_ptr17h4b7b1177854f6de3E:
	.cfi_startproc
	pushq	%rbp
	.cfi_def_cfa_offset 16
	.cfi_offset %rbp, -16
	movq	%rsp, %rbp
	.cfi_def_cfa_register %rbp
	movq	%rdi, %rax
	popq	%rbp
	retq
	.cfi_endproc

	.p2align	4, 0x90
__ZN4core3ptr9const_ptr33_$LT$impl$u20$$BP$const$u20$T$GT$12wrapping_add17h80085a1689c6f941E:
	.cfi_startproc
	pushq	%rbp
	.cfi_def_cfa_offset 16
	.cfi_offset %rbp, -16
	movq	%rsp, %rbp
	.cfi_def_cfa_register %rbp
	subq	$16, %rsp
	callq	__ZN4core3ptr9const_ptr33_$LT$impl$u20$$BP$const$u20$T$GT$15wrapping_offset17haa733f03f54a804dE
	movq	%rax, -8(%rbp)
	movq	-8(%rbp), %rax
	addq	$16, %rsp
	popq	%rbp
	retq
	.cfi_endproc

	.p2align	4, 0x90
__ZN4core3ptr9const_ptr33_$LT$impl$u20$$BP$const$u20$T$GT$15wrapping_offset17haa733f03f54a804dE:
	.cfi_startproc
	pushq	%rbp
	.cfi_def_cfa_offset 16
	.cfi_offset %rbp, -16
	movq	%rsp, %rbp
	.cfi_def_cfa_register %rbp
	subq	$16, %rsp
	addq	%rsi, %rdi
	movq	%rdi, -8(%rbp)
	movq	-8(%rbp), %rax
	movq	%rax, -16(%rbp)
	movq	-16(%rbp), %rax
	addq	$16, %rsp
	popq	%rbp
	retq
	.cfi_endproc

	.p2align	4, 0x90
__ZN4core3ptr9const_ptr33_$LT$impl$u20$$BP$const$u20$T$GT$3add17h2a0718993f58ad8bE:
	.cfi_startproc
	pushq	%rbp
	.cfi_def_cfa_offset 16
	.cfi_offset %rbp, -16
	movq	%rsp, %rbp
	.cfi_def_cfa_register %rbp
	subq	$16, %rsp
	callq	__ZN4core3ptr9const_ptr33_$LT$impl$u20$$BP$const$u20$T$GT$6offset17h40bae30d75c30988E
	movq	%rax, -8(%rbp)
	movq	-8(%rbp), %rax
	addq	$16, %rsp
	popq	%rbp
	retq
	.cfi_endproc

	.p2align	4, 0x90
__ZN4core3ptr9const_ptr33_$LT$impl$u20$$BP$const$u20$T$GT$6offset17h40bae30d75c30988E:
	.cfi_startproc
	pushq	%rbp
	.cfi_def_cfa_offset 16
	.cfi_offset %rbp, -16
	movq	%rsp, %rbp
	.cfi_def_cfa_register %rbp
	subq	$16, %rsp
	addq	%rsi, %rdi
	movq	%rdi, -8(%rbp)
	movq	-8(%rbp), %rax
	movq	%rax, -16(%rbp)
	movq	-16(%rbp), %rax
	addq	$16, %rsp
	popq	%rbp
	retq
	.cfi_endproc

	.p2align	4, 0x90
__ZN4core3ptr9const_ptr33_$LT$impl$u20$$BP$const$u20$T$GT$7is_null17h73d3db8ee9618c12E:
	.cfi_startproc
	pushq	%rbp
	.cfi_def_cfa_offset 16
	.cfi_offset %rbp, -16
	movq	%rsp, %rbp
	.cfi_def_cfa_register %rbp
	pushq	%rax
	movq	%rdi, -8(%rbp)
	jmp	LBB54_1
LBB54_1:
	movq	-8(%rbp), %rax
	cmpq	$0, %rax
	sete	%cl
	andb	$1, %cl
	movzbl	%cl, %edx
	movl	%edx, %eax
	addq	$8, %rsp
	popq	%rbp
	retq
	.cfi_endproc

	.p2align	4, 0x90
__ZN4core3ptr9const_ptr43_$LT$impl$u20$$BP$const$u20$$u5b$T$u5d$$GT$3len17h35cd6be4c6b9960eE:
	.cfi_startproc
	pushq	%rbp
	.cfi_def_cfa_offset 16
	.cfi_offset %rbp, -16
	movq	%rsp, %rbp
	.cfi_def_cfa_register %rbp
	subq	$16, %rsp
	movq	%rdi, -16(%rbp)
	movq	%rsi, -8(%rbp)
	movq	-8(%rbp), %rax
	addq	$16, %rsp
	popq	%rbp
	retq
	.cfi_endproc

	.p2align	4, 0x90
__ZN4core3ptr9const_ptr43_$LT$impl$u20$$BP$const$u20$$u5b$T$u5d$$GT$6as_ptr17h3f4bf91d88a86303E:
	.cfi_startproc
	pushq	%rbp
	.cfi_def_cfa_offset 16
	.cfi_offset %rbp, -16
	movq	%rsp, %rbp
	.cfi_def_cfa_register %rbp
	movq	%rdi, %rax
	popq	%rbp
	retq
	.cfi_endproc

	.p2align	4, 0x90
__ZN4core3str11unwrap_or_017h8098fb8a7a6e99bfE:
	.cfi_startproc
	pushq	%rbp
	.cfi_def_cfa_offset 16
	.cfi_offset %rbp, -16
	movq	%rsp, %rbp
	.cfi_def_cfa_register %rbp
	subq	$16, %rsp
	movq	%rdi, -16(%rbp)
	movq	-16(%rbp), %rax
	testq	%rax, %rax
	setne	%cl
	movzbl	%cl, %edx
	movl	%edx, %eax
	je	LBB57_1
	jmp	LBB57_5
LBB57_5:
	jmp	LBB57_3
LBB57_1:
	movb	$0, -1(%rbp)
	jmp	LBB57_4
	ud2
LBB57_3:
	movq	-16(%rbp), %rax
	movb	(%rax), %cl
	movb	%cl, -1(%rbp)
LBB57_4:
	movb	-1(%rbp), %al
	addq	$16, %rsp
	popq	%rbp
	retq
	.cfi_endproc

	.p2align	4, 0x90
__ZN4core3str15next_code_point17h84cd6e0d748d4253E:
	.cfi_startproc
	pushq	%rbp
	.cfi_def_cfa_offset 16
	.cfi_offset %rbp, -16
	movq	%rsp, %rbp
	.cfi_def_cfa_register %rbp
	subq	$112, %rsp
	movq	%rdi, -32(%rbp)
	callq	__ZN85_$LT$core..slice..Iter$LT$T$GT$$u20$as$u20$core..iter..traits..iterator..Iterator$GT$4next17hf6eb5f7f4343039eE
	movq	%rax, -40(%rbp)
	movq	-40(%rbp), %rdi
	callq	__ZN69_$LT$core..option..Option$LT$T$GT$$u20$as$u20$core..ops..try..Try$GT$11into_result17h3b500c1422c3abeeE
	movq	%rax, -16(%rbp)
	movq	-16(%rbp), %rax
	testq	%rax, %rax
	sete	%cl
	movzbl	%cl, %edx
	movl	%edx, %eax
	jne	LBB58_3
	jmp	LBB58_28
LBB58_28:
	jmp	LBB58_5
LBB58_3:
	movq	-16(%rbp), %rax
	movb	(%rax), %cl
	cmpb	$-128, %cl
	movb	%cl, -41(%rbp)
	jb	LBB58_11
	jmp	LBB58_10
	ud2
LBB58_5:
	callq	__ZN50_$LT$T$u20$as$u20$core..convert..From$LT$T$GT$$GT$4from17h72b7f027bf81836cE
	jmp	LBB58_7
LBB58_6:
	movl	-24(%rbp), %eax
	movl	-20(%rbp), %edx
	addq	$112, %rsp
	popq	%rbp
	retq
LBB58_7:
	callq	__ZN69_$LT$core..option..Option$LT$T$GT$$u20$as$u20$core..ops..try..Try$GT$10from_error17hac879488a875ee79E
	movl	%edx, -20(%rbp)
	movl	%eax, -24(%rbp)
	jmp	LBB58_9
LBB58_9:
	jmp	LBB58_6
LBB58_10:
	movb	-41(%rbp), %al
	movzbl	%al, %edi
	movl	$2, %esi
	callq	__ZN4core3str15utf8_first_byte17ha9b2d5ea43d76bd0E
	movl	%eax, -48(%rbp)
	jmp	LBB58_12
LBB58_11:
	movb	-41(%rbp), %al
	movzbl	%al, %ecx
	movl	%ecx, -20(%rbp)
	movl	$1, -24(%rbp)
	jmp	LBB58_9
LBB58_12:
	movq	-32(%rbp), %rdi
	callq	__ZN85_$LT$core..slice..Iter$LT$T$GT$$u20$as$u20$core..iter..traits..iterator..Iterator$GT$4next17hf6eb5f7f4343039eE
	movq	%rax, -56(%rbp)
	movq	-56(%rbp), %rdi
	callq	__ZN4core3str11unwrap_or_017h8098fb8a7a6e99bfE
	movb	%al, -57(%rbp)
	movl	-48(%rbp), %edi
	movb	-57(%rbp), %al
	movzbl	%al, %esi
	callq	__ZN4core3str18utf8_acc_cont_byte17h6987b8080c743175E
	movl	%eax, -4(%rbp)
	movb	-41(%rbp), %al
	cmpb	$-32, %al
	jae	LBB58_17
	jmp	LBB58_27
LBB58_17:
	movq	-32(%rbp), %rdi
	callq	__ZN85_$LT$core..slice..Iter$LT$T$GT$$u20$as$u20$core..iter..traits..iterator..Iterator$GT$4next17hf6eb5f7f4343039eE
	movq	%rax, -72(%rbp)
	movq	-72(%rbp), %rdi
	callq	__ZN4core3str11unwrap_or_017h8098fb8a7a6e99bfE
	movb	%al, -73(%rbp)
	movb	-57(%rbp), %al
	andb	$63, %al
	movzbl	%al, %edi
	movb	-73(%rbp), %al
	movzbl	%al, %esi
	callq	__ZN4core3str18utf8_acc_cont_byte17h6987b8080c743175E
	movl	%eax, -80(%rbp)
	movl	-48(%rbp), %eax
	shll	$12, %eax
	movl	-80(%rbp), %ecx
	orl	%ecx, %eax
	movl	%eax, -4(%rbp)
	movb	-41(%rbp), %dl
	cmpb	$-16, %dl
	jae	LBB58_22
	jmp	LBB58_26
LBB58_22:
	movq	-32(%rbp), %rdi
	callq	__ZN85_$LT$core..slice..Iter$LT$T$GT$$u20$as$u20$core..iter..traits..iterator..Iterator$GT$4next17hf6eb5f7f4343039eE
	movq	%rax, -88(%rbp)
	movq	-88(%rbp), %rdi
	callq	__ZN4core3str11unwrap_or_017h8098fb8a7a6e99bfE
	movb	%al, -89(%rbp)
	movl	-48(%rbp), %eax
	andl	$7, %eax
	shll	$18, %eax
	movl	-80(%rbp), %edi
	movb	-89(%rbp), %cl
	movzbl	%cl, %esi
	movl	%eax, -96(%rbp)
	callq	__ZN4core3str18utf8_acc_cont_byte17h6987b8080c743175E
	movl	%eax, -100(%rbp)
	movl	-96(%rbp), %eax
	movl	-100(%rbp), %ecx
	orl	%ecx, %eax
	movl	%eax, -4(%rbp)
LBB58_26:
	jmp	LBB58_27
LBB58_27:
	movl	-4(%rbp), %eax
	movl	%eax, -20(%rbp)
	movl	$1, -24(%rbp)
	jmp	LBB58_6
	.cfi_endproc

	.p2align	4, 0x90
__ZN4core3str15utf8_first_byte17ha9b2d5ea43d76bd0E:
	.cfi_startproc
	pushq	%rbp
	.cfi_def_cfa_offset 16
	.cfi_offset %rbp, -16
	movq	%rsp, %rbp
	.cfi_def_cfa_register %rbp
	andb	$7, %sil
	movb	%sil, %cl
	movb	$127, %al
	shrb	%cl, %al
	andb	%al, %dil
	movzbl	%dil, %eax
	popq	%rbp
	retq
	.cfi_endproc

	.p2align	4, 0x90
__ZN4core3str18utf8_acc_cont_byte17h6987b8080c743175E:
	.cfi_startproc
	pushq	%rbp
	.cfi_def_cfa_offset 16
	.cfi_offset %rbp, -16
	movq	%rsp, %rbp
	.cfi_def_cfa_register %rbp
	shll	$6, %edi
	andb	$63, %sil
	movzbl	%sil, %eax
	orl	%eax, %edi
	movl	%edi, %eax
	popq	%rbp
	retq
	.cfi_endproc

	.p2align	4, 0x90
__ZN4core3str19from_utf8_unchecked17h22cd3f39b43ce80cE:
	.cfi_startproc
	pushq	%rbp
	.cfi_def_cfa_offset 16
	.cfi_offset %rbp, -16
	movq	%rsp, %rbp
	.cfi_def_cfa_register %rbp
	movq	%rdi, %rax
	movq	%rsi, %rdx
	popq	%rbp
	retq
	.cfi_endproc

	.p2align	4, 0x90
__ZN4core3str21_$LT$impl$u20$str$GT$16is_char_boundary17hcbfc6a8dbbbf5877E:
	.cfi_startproc
	pushq	%rbp
	.cfi_def_cfa_offset 16
	.cfi_offset %rbp, -16
	movq	%rsp, %rbp
	.cfi_def_cfa_register %rbp
	subq	$80, %rsp
	cmpq	$0, %rdx
	movq	%rdi, -40(%rbp)
	movq	%rsi, -48(%rbp)
	movq	%rdx, -56(%rbp)
	jne	LBB62_3
LBB62_1:
	movb	$1, -25(%rbp)
	jmp	LBB62_4
LBB62_2:
	movb	$0, -25(%rbp)
	jmp	LBB62_4
LBB62_3:
	movq	-40(%rbp), %rdi
	movq	-48(%rbp), %rsi
	callq	__ZN4core3str21_$LT$impl$u20$str$GT$3len17he76de78a92e4279cE
	movq	%rax, -64(%rbp)
	jmp	LBB62_5
LBB62_4:
	testb	$1, -25(%rbp)
	jne	LBB62_7
	jmp	LBB62_6
LBB62_5:
	movq	-56(%rbp), %rax
	movq	-64(%rbp), %rcx
	cmpq	%rcx, %rax
	je	LBB62_1
	jmp	LBB62_2
LBB62_6:
	movq	-40(%rbp), %rax
	movq	%rax, -16(%rbp)
	movq	-48(%rbp), %rcx
	movq	%rcx, -8(%rbp)
	movq	-16(%rbp), %rdi
	movq	-8(%rbp), %rsi
	movq	%rdi, -72(%rbp)
	movq	%rsi, -80(%rbp)
	jmp	LBB62_9
LBB62_7:
	movb	$1, -26(%rbp)
LBB62_8:
	movb	-26(%rbp), %al
	andb	$1, %al
	movzbl	%al, %eax
	addq	$80, %rsp
	popq	%rbp
	retq
LBB62_9:
	movq	-72(%rbp), %rdi
	movq	-80(%rbp), %rsi
	movq	-56(%rbp), %rdx
	callq	__ZN4core5slice29_$LT$impl$u20$$u5b$T$u5d$$GT$3get17had9b48c74e3b51a3E
	movq	%rax, -24(%rbp)
	movq	-24(%rbp), %rax
	testq	%rax, %rax
	setne	%cl
	movzbl	%cl, %edx
	movl	%edx, %eax
	je	LBB62_13
	jmp	LBB62_15
LBB62_15:
	movq	-24(%rbp), %rax
	cmpb	$-64, (%rax)
	setge	%cl
	andb	$1, %cl
	movb	%cl, -26(%rbp)
	jmp	LBB62_14
	ud2
LBB62_13:
	movb	$0, -26(%rbp)
LBB62_14:
	jmp	LBB62_8
	.cfi_endproc

	.p2align	4, 0x90
__ZN4core3str21_$LT$impl$u20$str$GT$3len17he76de78a92e4279cE:
	.cfi_startproc
	pushq	%rbp
	.cfi_def_cfa_offset 16
	.cfi_offset %rbp, -16
	movq	%rsp, %rbp
	.cfi_def_cfa_register %rbp
	subq	$48, %rsp
	movq	%rdi, -16(%rbp)
	movq	%rsi, -8(%rbp)
	movq	-16(%rbp), %rdi
	movq	-8(%rbp), %rsi
	movq	%rdi, -24(%rbp)
	movq	%rsi, -32(%rbp)
	movq	-24(%rbp), %rdi
	movq	-32(%rbp), %rsi
	callq	__ZN4core5slice29_$LT$impl$u20$$u5b$T$u5d$$GT$3len17h66bbf8b4eaa0d307E
	movq	%rax, -40(%rbp)
	movq	-40(%rbp), %rax
	addq	$48, %rsp
	popq	%rbp
	retq
	.cfi_endproc

	.p2align	4, 0x90
__ZN4core3str21_$LT$impl$u20$str$GT$5chars17h2844950d372cb1deE:
	.cfi_startproc
	pushq	%rbp
	.cfi_def_cfa_offset 16
	.cfi_offset %rbp, -16
	movq	%rsp, %rbp
	.cfi_def_cfa_register %rbp
	subq	$64, %rsp
	movq	%rdi, -16(%rbp)
	movq	%rsi, -8(%rbp)
	movq	-16(%rbp), %rdi
	movq	-8(%rbp), %rsi
	movq	%rdi, -40(%rbp)
	movq	%rsi, -48(%rbp)
	movq	-40(%rbp), %rdi
	movq	-48(%rbp), %rsi
	callq	__ZN4core5slice29_$LT$impl$u20$$u5b$T$u5d$$GT$4iter17h3bc95a20283b5a6dE
	movq	%rax, -56(%rbp)
	movq	%rdx, -64(%rbp)
	movq	-56(%rbp), %rax
	movq	%rax, -32(%rbp)
	movq	-64(%rbp), %rcx
	movq	%rcx, -24(%rbp)
	movq	-32(%rbp), %rax
	movq	-24(%rbp), %rdx
	addq	$64, %rsp
	popq	%rbp
	retq
	.cfi_endproc

	.p2align	4, 0x90
__ZN4core3str21_$LT$impl$u20$str$GT$8contains17hf772b80836bb19e6E:
	.cfi_startproc
	pushq	%rbp
	.cfi_def_cfa_offset 16
	.cfi_offset %rbp, -16
	movq	%rsp, %rbp
	.cfi_def_cfa_register %rbp
	subq	$32, %rsp
	movq	%rdi, -8(%rbp)
	movq	%rdx, %rdi
	movq	%rsi, -16(%rbp)
	movq	%rcx, %rsi
	movq	-8(%rbp), %rdx
	movq	-16(%rbp), %rcx
	callq	__ZN4core3str7pattern7Pattern15is_contained_in17h338e0c6e20a08ebbE
	movb	%al, -17(%rbp)
	movb	-17(%rbp), %al
	andb	$1, %al
	movzbl	%al, %eax
	addq	$32, %rsp
	popq	%rbp
	retq
	.cfi_endproc

	.p2align	4, 0x90
__ZN4core3str6traits105_$LT$impl$u20$core..slice..SliceIndex$LT$str$GT$$u20$for$u20$core..ops..range..RangeFrom$LT$usize$GT$$GT$13get_unchecked17h06891165332b559bE:
	.cfi_startproc
	pushq	%rbp
	.cfi_def_cfa_offset 16
	.cfi_offset %rbp, -16
	movq	%rsp, %rbp
	.cfi_def_cfa_register %rbp
	subq	$64, %rsp
	movq	%rdi, -8(%rbp)
	movq	%rsi, %rdi
	movq	%rsi, -16(%rbp)
	movq	%rdx, %rsi
	movq	%rdx, -24(%rbp)
	callq	__ZN4core3ptr9const_ptr43_$LT$impl$u20$$BP$const$u20$$u5b$T$u5d$$GT$6as_ptr17h3f4bf91d88a86303E
	movq	%rax, -32(%rbp)
	movq	-32(%rbp), %rdi
	movq	-8(%rbp), %rsi
	callq	__ZN4core3ptr9const_ptr33_$LT$impl$u20$$BP$const$u20$T$GT$3add17h2a0718993f58ad8bE
	movq	%rax, -40(%rbp)
	movq	-16(%rbp), %rdi
	movq	-24(%rbp), %rsi
	callq	__ZN4core3ptr9const_ptr43_$LT$impl$u20$$BP$const$u20$$u5b$T$u5d$$GT$3len17h35cd6be4c6b9960eE
	movq	%rax, -48(%rbp)
	movq	-48(%rbp), %rax
	movq	-8(%rbp), %rcx
	subq	%rcx, %rax
	movq	-40(%rbp), %rdi
	movq	%rax, %rsi
	callq	__ZN4core3ptr20slice_from_raw_parts17h053a646a7e781333E
	movq	%rax, -56(%rbp)
	movq	%rdx, -64(%rbp)
	movq	-56(%rbp), %rax
	movq	-64(%rbp), %rdx
	addq	$64, %rsp
	popq	%rbp
	retq
	.cfi_endproc

	.p2align	4, 0x90
__ZN4core3str6traits105_$LT$impl$u20$core..slice..SliceIndex$LT$str$GT$$u20$for$u20$core..ops..range..RangeFrom$LT$usize$GT$$GT$3get17h8eb6779e34adf641E:
	.cfi_startproc
	pushq	%rbp
	.cfi_def_cfa_offset 16
	.cfi_offset %rbp, -16
	movq	%rsp, %rbp
	.cfi_def_cfa_register %rbp
	subq	$64, %rsp
	movq	%rdi, -24(%rbp)
	movq	%rsi, %rdi
	movq	%rsi, -32(%rbp)
	movq	%rdx, %rsi
	movq	-24(%rbp), %rax
	movq	%rdx, -40(%rbp)
	movq	%rax, %rdx
	callq	__ZN4core3str21_$LT$impl$u20$str$GT$16is_char_boundary17hcbfc6a8dbbbf5877E
	movb	%al, -41(%rbp)
	movb	-41(%rbp), %al
	testb	$1, %al
	jne	LBB67_3
	jmp	LBB67_2
LBB67_2:
	movq	$0, -16(%rbp)
	jmp	LBB67_5
LBB67_3:
	movq	-24(%rbp), %rdi
	movq	-32(%rbp), %rsi
	movq	-40(%rbp), %rdx
	callq	__ZN4core3str6traits105_$LT$impl$u20$core..slice..SliceIndex$LT$str$GT$$u20$for$u20$core..ops..range..RangeFrom$LT$usize$GT$$GT$13get_unchecked17h06891165332b559bE
	movq	%rax, -56(%rbp)
	movq	%rdx, -64(%rbp)
	movq	-56(%rbp), %rax
	movq	%rax, -16(%rbp)
	movq	-64(%rbp), %rcx
	movq	%rcx, -8(%rbp)
LBB67_5:
	movq	-16(%rbp), %rax
	movq	-8(%rbp), %rdx
	addq	$64, %rsp
	popq	%rbp
	retq
	.cfi_endproc

	.p2align	4, 0x90
__ZN4core3str6traits105_$LT$impl$u20$core..slice..SliceIndex$LT$str$GT$$u20$for$u20$core..ops..range..RangeFrom$LT$usize$GT$$GT$5index17h78dc59692eea2c8dE:
	.cfi_startproc
	pushq	%rbp
	.cfi_def_cfa_offset 16
	.cfi_offset %rbp, -16
	movq	%rsp, %rbp
	.cfi_def_cfa_register %rbp
	subq	$128, %rsp
	movq	%rsi, -72(%rbp)
	movq	%rdx, -64(%rbp)
	movq	-72(%rbp), %rax
	movq	-64(%rbp), %rsi
	movq	%rdi, -80(%rbp)
	movq	%rax, %rdi
	movq	%rcx, -88(%rbp)
	callq	__ZN4core3str21_$LT$impl$u20$str$GT$3len17he76de78a92e4279cE
	movq	%rax, -96(%rbp)
	movq	-80(%rbp), %rax
	movq	%rax, -40(%rbp)
	movq	-96(%rbp), %rcx
	movq	%rcx, -32(%rbp)
	movq	-40(%rbp), %rdx
	movq	%rdx, -56(%rbp)
	movq	-32(%rbp), %rdx
	movq	%rdx, -48(%rbp)
	movq	-72(%rbp), %rsi
	movq	-64(%rbp), %rdx
	movq	%rax, %rdi
	callq	__ZN4core3str6traits105_$LT$impl$u20$core..slice..SliceIndex$LT$str$GT$$u20$for$u20$core..ops..range..RangeFrom$LT$usize$GT$$GT$3get17h8eb6779e34adf641E
	movq	%rax, -104(%rbp)
	movq	%rdx, -112(%rbp)
	leaq	-72(%rbp), %rax
	movq	%rax, -24(%rbp)
	leaq	-56(%rbp), %rax
	movq	%rax, -16(%rbp)
	leaq	-48(%rbp), %rax
	movq	%rax, -8(%rbp)
	movq	-104(%rbp), %rdi
	movq	-112(%rbp), %rsi
	leaq	-24(%rbp), %rdx
	callq	__ZN4core6option15Option$LT$T$GT$14unwrap_or_else17h12d366462e9e9a37E
	movq	%rax, -120(%rbp)
	movq	%rdx, -128(%rbp)
	movq	-120(%rbp), %rax
	movq	-128(%rbp), %rdx
	addq	$128, %rsp
	popq	%rbp
	retq
	.cfi_endproc

	.p2align	4, 0x90
__ZN4core3str6traits105_$LT$impl$u20$core..slice..SliceIndex$LT$str$GT$$u20$for$u20$core..ops..range..RangeFrom$LT$usize$GT$$GT$5index28_$u7b$$u7b$closure$u7d$$u7d$17h2ac7300b2849555eE:
	.cfi_startproc
	pushq	%rbp
	.cfi_def_cfa_offset 16
	.cfi_offset %rbp, -16
	movq	%rsp, %rbp
	.cfi_def_cfa_register %rbp
	movq	(%rdi), %rax
	movq	8(%rdi), %rcx
	movq	(%rax), %rdx
	movq	8(%rax), %rsi
	movq	(%rcx), %rax
	movq	16(%rdi), %rcx
	movq	(%rcx), %rcx
	leaq	l___unnamed_2(%rip), %r8
	movq	%rdx, %rdi
	movq	%rax, %rdx
	callq	__ZN4core3str16slice_error_fail17ha125059561e5ce66E
	.cfi_endproc

	.p2align	4, 0x90
__ZN4core3str6traits66_$LT$impl$u20$core..ops..index..Index$LT$I$GT$$u20$for$u20$str$GT$5index17hc94f9c6fe9657803E:
	.cfi_startproc
	pushq	%rbp
	.cfi_def_cfa_offset 16
	.cfi_offset %rbp, -16
	movq	%rsp, %rbp
	.cfi_def_cfa_register %rbp
	subq	$32, %rsp
	movq	%rdi, -8(%rbp)
	movq	%rdx, %rdi
	movq	-8(%rbp), %rax
	movq	%rsi, -16(%rbp)
	movq	%rax, %rsi
	movq	-16(%rbp), %rdx
	callq	__ZN4core3str6traits105_$LT$impl$u20$core..slice..SliceIndex$LT$str$GT$$u20$for$u20$core..ops..range..RangeFrom$LT$usize$GT$$GT$5index17h78dc59692eea2c8dE
	movq	%rax, -24(%rbp)
	movq	%rdx, -32(%rbp)
	movq	-24(%rbp), %rax
	movq	-32(%rbp), %rdx
	addq	$32, %rsp
	popq	%rbp
	retq
	.cfi_endproc

	.p2align	4, 0x90
__ZN4core3str7pattern14TwoWaySearcher16byteset_contains17h0bb53cd6cf41cf19E:
	.cfi_startproc
	pushq	%rbp
	.cfi_def_cfa_offset 16
	.cfi_offset %rbp, -16
	movq	%rsp, %rbp
	.cfi_def_cfa_register %rbp
	movq	24(%rdi), %rax
	andb	$63, %sil
	movzbl	%sil, %ecx
	movl	%ecx, %edx
	andq	$63, %rdx
	movq	%rdx, %rcx
	shrq	%cl, %rax
	andq	$1, %rax
	cmpq	$0, %rax
	setne	%cl
	andb	$1, %cl
	movzbl	%cl, %eax
	popq	%rbp
	retq
	.cfi_endproc

	.p2align	4, 0x90
__ZN4core3str7pattern14TwoWaySearcher4next17h5981facddec2d063E:
	.cfi_startproc
	pushq	%rbp
	.cfi_def_cfa_offset 16
	.cfi_offset %rbp, -16
	movq	%rsp, %rbp
	.cfi_def_cfa_register %rbp
	subq	$384, %rsp
	movq	%rdi, %rax
	movb	16(%rbp), %r10b
	movq	32(%rsi), %r11
	movq	%rdi, -136(%rbp)
	movq	%r8, %rdi
	movq	%rsi, -144(%rbp)
	movq	%r9, %rsi
	movq	%r9, -152(%rbp)
	movq	%r8, -160(%rbp)
	movq	%rcx, -168(%rbp)
	movq	%rdx, -176(%rbp)
	movq	%rax, -184(%rbp)
	movb	%r10b, -185(%rbp)
	movq	%r11, -200(%rbp)
	callq	__ZN4core5slice29_$LT$impl$u20$$u5b$T$u5d$$GT$3len17h66bbf8b4eaa0d307E
	movq	%rax, -208(%rbp)
	movq	-208(%rbp), %rax
	subq	$1, %rax
	movq	%rax, -216(%rbp)
LBB72_2:
	movq	-216(%rbp), %rax
	movq	-144(%rbp), %rcx
	addq	32(%rcx), %rax
	movq	-176(%rbp), %rdi
	movq	-168(%rbp), %rsi
	movq	%rax, %rdx
	callq	__ZN4core5slice29_$LT$impl$u20$$u5b$T$u5d$$GT$3get17had9b48c74e3b51a3E
	movq	%rax, -128(%rbp)
	movq	-128(%rbp), %rax
	testq	%rax, %rax
	setne	%cl
	movzbl	%cl, %edx
	movl	%edx, %eax
	je	LBB72_4
	jmp	LBB72_73
LBB72_73:
	jmp	LBB72_6
LBB72_4:
	movq	-176(%rbp), %rdi
	movq	-168(%rbp), %rsi
	callq	__ZN4core5slice29_$LT$impl$u20$$u5b$T$u5d$$GT$3len17h66bbf8b4eaa0d307E
	movq	%rax, -224(%rbp)
	jmp	LBB72_7
	ud2
LBB72_6:
	movq	-128(%rbp), %rax
	movb	(%rax), %cl
	movb	%cl, -225(%rbp)
	callq	__ZN84_$LT$core..str..pattern..MatchOnly$u20$as$u20$core..str..pattern..TwoWayStrategy$GT$16use_early_reject17hdba635464d85e3bcE
	movb	%al, -226(%rbp)
	jmp	LBB72_14
LBB72_7:
	movq	-144(%rbp), %rax
	movq	-224(%rbp), %rcx
	movq	%rcx, 32(%rax)
	movq	32(%rax), %rdx
	movq	-136(%rbp), %rdi
	movq	-200(%rbp), %rsi
	callq	__ZN84_$LT$core..str..pattern..MatchOnly$u20$as$u20$core..str..pattern..TwoWayStrategy$GT$9rejecting17h885d65c5a75ca5cfE
	jmp	LBB72_9
LBB72_9:
	movq	-184(%rbp), %rax
	addq	$384, %rsp
	popq	%rbp
	retq
LBB72_10:
	movb	$1, -113(%rbp)
	jmp	LBB72_13
LBB72_11:
	movb	$0, -113(%rbp)
	jmp	LBB72_13
LBB72_12:
	movq	-200(%rbp), %rax
	movq	-144(%rbp), %rcx
	cmpq	32(%rcx), %rax
	jne	LBB72_10
	jmp	LBB72_11
LBB72_13:
	testb	$1, -113(%rbp)
	jne	LBB72_16
	jmp	LBB72_15
LBB72_14:
	movb	-226(%rbp), %al
	testb	$1, %al
	jne	LBB72_12
	jmp	LBB72_11
LBB72_15:
	movq	-144(%rbp), %rdi
	movb	-225(%rbp), %al
	movzbl	%al, %esi
	callq	__ZN4core3str7pattern14TwoWaySearcher16byteset_contains17h0bb53cd6cf41cf19E
	movb	%al, -227(%rbp)
	jmp	LBB72_18
LBB72_16:
	movq	-144(%rbp), %rax
	movq	32(%rax), %rdx
	movq	-136(%rbp), %rdi
	movq	-200(%rbp), %rsi
	callq	__ZN84_$LT$core..str..pattern..MatchOnly$u20$as$u20$core..str..pattern..TwoWayStrategy$GT$9rejecting17h885d65c5a75ca5cfE
	jmp	LBB72_9
LBB72_18:
	movb	-227(%rbp), %al
	xorb	$-1, %al
	testb	$1, %al
	jne	LBB72_20
	movb	-185(%rbp), %al
	testb	$1, %al
	jne	LBB72_27
	jmp	LBB72_26
LBB72_20:
	movq	-160(%rbp), %rdi
	movq	-152(%rbp), %rsi
	callq	__ZN4core5slice29_$LT$impl$u20$$u5b$T$u5d$$GT$3len17h66bbf8b4eaa0d307E
	movq	%rax, -240(%rbp)
	movq	-240(%rbp), %rax
	movq	-144(%rbp), %rcx
	addq	32(%rcx), %rax
	movq	%rax, 32(%rcx)
	movb	-185(%rbp), %dl
	xorb	$-1, %dl
	testb	$1, %dl
	jne	LBB72_23
	jmp	LBB72_24
LBB72_23:
	movq	-144(%rbp), %rax
	movq	$0, 48(%rax)
LBB72_24:
	jmp	LBB72_25
LBB72_25:
	jmp	LBB72_2
LBB72_26:
	movq	-144(%rbp), %rax
	movq	(%rax), %rdi
	movq	48(%rax), %rsi
	callq	__ZN4core3cmp3max17hd98a12f47b2301beE
	movq	%rax, -112(%rbp)
	jmp	LBB72_28
LBB72_27:
	movq	-144(%rbp), %rax
	movq	(%rax), %rcx
	movq	%rcx, -112(%rbp)
	jmp	LBB72_29
LBB72_28:
	jmp	LBB72_29
LBB72_29:
	movq	-112(%rbp), %rax
	movq	-160(%rbp), %rdi
	movq	-152(%rbp), %rsi
	movq	%rax, -248(%rbp)
	callq	__ZN4core5slice29_$LT$impl$u20$$u5b$T$u5d$$GT$3len17h66bbf8b4eaa0d307E
	movq	%rax, -256(%rbp)
	movq	-248(%rbp), %rax
	movq	%rax, -104(%rbp)
	movq	-256(%rbp), %rcx
	movq	%rcx, -96(%rbp)
	movq	-104(%rbp), %rdi
	movq	-96(%rbp), %rsi
	callq	__ZN63_$LT$I$u20$as$u20$core..iter..traits..collect..IntoIterator$GT$9into_iter17hbe76f63753e0f708E
	movq	%rax, -264(%rbp)
	movq	%rdx, -272(%rbp)
	movq	-264(%rbp), %rax
	movq	%rax, -88(%rbp)
	movq	-272(%rbp), %rcx
	movq	%rcx, -80(%rbp)
LBB72_32:
	leaq	-88(%rbp), %rdi
	callq	__ZN4core4iter5range101_$LT$impl$u20$core..iter..traits..iterator..Iterator$u20$for$u20$core..ops..range..Range$LT$A$GT$$GT$4next17hb13c493697093d33E
	movq	%rdx, -64(%rbp)
	movq	%rax, -72(%rbp)
	movq	-72(%rbp), %rax
	testq	%rax, %rax
	je	LBB72_34
	jmp	LBB72_74
LBB72_74:
	jmp	LBB72_36
LBB72_34:
	movb	-185(%rbp), %al
	testb	$1, %al
	jne	LBB72_46
	jmp	LBB72_45
	ud2
LBB72_36:
	movq	-64(%rbp), %rax
	movq	-152(%rbp), %rcx
	cmpq	%rcx, %rax
	setb	%dl
	testb	$1, %dl
	movq	%rax, -280(%rbp)
	jne	LBB72_37
	jmp	LBB72_69
LBB72_37:
	movq	-160(%rbp), %rax
	movq	-280(%rbp), %rcx
	movb	(%rax,%rcx), %dl
	movq	-144(%rbp), %rsi
	addq	32(%rsi), %rcx
	movq	-168(%rbp), %rdi
	cmpq	%rdi, %rcx
	setb	%r8b
	testb	$1, %r8b
	movb	%dl, -281(%rbp)
	movq	%rcx, -296(%rbp)
	jne	LBB72_38
	jmp	LBB72_70
LBB72_38:
	movb	-281(%rbp), %al
	movq	-176(%rbp), %rcx
	movq	-296(%rbp), %rdx
	cmpb	(%rcx,%rdx), %al
	jne	LBB72_40
	jmp	LBB72_32
LBB72_40:
	movq	-280(%rbp), %rax
	movq	-144(%rbp), %rcx
	subq	(%rcx), %rax
	addq	$1, %rax
	addq	32(%rcx), %rax
	movq	%rax, 32(%rcx)
	movb	-185(%rbp), %dl
	xorb	$-1, %dl
	testb	$1, %dl
	jne	LBB72_42
	jmp	LBB72_43
LBB72_42:
	movq	-144(%rbp), %rax
	movq	$0, 48(%rax)
LBB72_43:
	jmp	LBB72_44
LBB72_44:
	jmp	LBB72_25
LBB72_45:
	movq	-144(%rbp), %rax
	movq	48(%rax), %rcx
	movq	%rcx, -56(%rbp)
	jmp	LBB72_47
LBB72_46:
	movq	$0, -56(%rbp)
LBB72_47:
	movq	-56(%rbp), %rax
	movq	-144(%rbp), %rcx
	movq	(%rcx), %rdx
	movq	%rax, -48(%rbp)
	movq	%rdx, -40(%rbp)
	movq	-48(%rbp), %rdi
	movq	-40(%rbp), %rsi
	callq	__ZN4core4iter6traits8iterator8Iterator3rev17hfb451f21c52031fbE
	movq	%rax, -304(%rbp)
	movq	%rdx, -312(%rbp)
	movq	-304(%rbp), %rdi
	movq	-312(%rbp), %rsi
	callq	__ZN63_$LT$I$u20$as$u20$core..iter..traits..collect..IntoIterator$GT$9into_iter17he24ea0b7941c3205E
	movq	%rax, -320(%rbp)
	movq	%rdx, -328(%rbp)
	movq	-320(%rbp), %rax
	movq	%rax, -32(%rbp)
	movq	-328(%rbp), %rcx
	movq	%rcx, -24(%rbp)
LBB72_50:
	leaq	-32(%rbp), %rdi
	callq	__ZN93_$LT$core..iter..adapters..Rev$LT$I$GT$$u20$as$u20$core..iter..traits..iterator..Iterator$GT$4next17hbcc918320e281f44E
	movq	%rdx, -8(%rbp)
	movq	%rax, -16(%rbp)
	movq	-16(%rbp), %rax
	testq	%rax, %rax
	je	LBB72_52
	jmp	LBB72_75
LBB72_75:
	jmp	LBB72_54
LBB72_52:
	movq	-144(%rbp), %rax
	movq	32(%rax), %rcx
	movq	-160(%rbp), %rdi
	movq	-152(%rbp), %rsi
	movq	%rcx, -336(%rbp)
	callq	__ZN4core5slice29_$LT$impl$u20$$u5b$T$u5d$$GT$3len17h66bbf8b4eaa0d307E
	movq	%rax, -344(%rbp)
	jmp	LBB72_63
	ud2
LBB72_54:
	movq	-8(%rbp), %rax
	movq	-152(%rbp), %rcx
	cmpq	%rcx, %rax
	setb	%dl
	testb	$1, %dl
	movq	%rax, -352(%rbp)
	jne	LBB72_55
	jmp	LBB72_71
LBB72_55:
	movq	-160(%rbp), %rax
	movq	-352(%rbp), %rcx
	movb	(%rax,%rcx), %dl
	movq	-144(%rbp), %rsi
	addq	32(%rsi), %rcx
	movq	-168(%rbp), %rdi
	cmpq	%rdi, %rcx
	setb	%r8b
	testb	$1, %r8b
	movb	%dl, -353(%rbp)
	movq	%rcx, -368(%rbp)
	jne	LBB72_56
	jmp	LBB72_72
LBB72_56:
	movb	-353(%rbp), %al
	movq	-176(%rbp), %rcx
	movq	-368(%rbp), %rdx
	cmpb	(%rcx,%rdx), %al
	jne	LBB72_58
	jmp	LBB72_50
LBB72_58:
	movq	-144(%rbp), %rax
	movq	16(%rax), %rcx
	addq	32(%rax), %rcx
	movq	%rcx, 32(%rax)
	movb	-185(%rbp), %dl
	xorb	$-1, %dl
	testb	$1, %dl
	jne	LBB72_60
	jmp	LBB72_62
LBB72_60:
	movq	-160(%rbp), %rdi
	movq	-152(%rbp), %rsi
	callq	__ZN4core5slice29_$LT$impl$u20$$u5b$T$u5d$$GT$3len17h66bbf8b4eaa0d307E
	movq	%rax, -376(%rbp)
	movq	-376(%rbp), %rax
	movq	-144(%rbp), %rcx
	subq	16(%rcx), %rax
	movq	%rax, 48(%rcx)
LBB72_62:
	jmp	LBB72_44
LBB72_63:
	movq	-344(%rbp), %rax
	movq	-144(%rbp), %rcx
	addq	32(%rcx), %rax
	movq	%rax, 32(%rcx)
	movb	-185(%rbp), %dl
	xorb	$-1, %dl
	testb	$1, %dl
	jne	LBB72_65
	jmp	LBB72_66
LBB72_65:
	movq	-144(%rbp), %rax
	movq	$0, 48(%rax)
LBB72_66:
	movq	-160(%rbp), %rdi
	movq	-152(%rbp), %rsi
	callq	__ZN4core5slice29_$LT$impl$u20$$u5b$T$u5d$$GT$3len17h66bbf8b4eaa0d307E
	movq	%rax, -384(%rbp)
	movq	-336(%rbp), %rax
	movq	-384(%rbp), %rcx
	addq	%rcx, %rax
	movq	-136(%rbp), %rdi
	movq	-336(%rbp), %rsi
	movq	%rax, %rdx
	callq	__ZN84_$LT$core..str..pattern..MatchOnly$u20$as$u20$core..str..pattern..TwoWayStrategy$GT$8matching17h2ad84de737c31c0dE
	jmp	LBB72_9
LBB72_69:
	leaq	l___unnamed_3(%rip), %rdx
	movq	-280(%rbp), %rdi
	movq	-152(%rbp), %rsi
	callq	__ZN4core9panicking18panic_bounds_check17he87128426d100e93E
LBB72_70:
	leaq	l___unnamed_4(%rip), %rdx
	movq	-296(%rbp), %rdi
	movq	-168(%rbp), %rsi
	callq	__ZN4core9panicking18panic_bounds_check17he87128426d100e93E
LBB72_71:
	leaq	l___unnamed_5(%rip), %rdx
	movq	-352(%rbp), %rdi
	movq	-152(%rbp), %rsi
	callq	__ZN4core9panicking18panic_bounds_check17he87128426d100e93E
LBB72_72:
	leaq	l___unnamed_6(%rip), %rdx
	movq	-368(%rbp), %rdi
	movq	-168(%rbp), %rsi
	callq	__ZN4core9panicking18panic_bounds_check17he87128426d100e93E
	.cfi_endproc

	.p2align	4, 0x90
__ZN4core3str7pattern14TwoWaySearcher4next17h95d953d513b13415E:
	.cfi_startproc
	pushq	%rbp
	.cfi_def_cfa_offset 16
	.cfi_offset %rbp, -16
	movq	%rsp, %rbp
	.cfi_def_cfa_register %rbp
	subq	$384, %rsp
	movq	%rdi, %rax
	movb	16(%rbp), %r10b
	movq	32(%rsi), %r11
	movq	%rdi, -136(%rbp)
	movq	%r8, %rdi
	movq	%rsi, -144(%rbp)
	movq	%r9, %rsi
	movq	%r9, -152(%rbp)
	movq	%r8, -160(%rbp)
	movq	%rcx, -168(%rbp)
	movq	%rdx, -176(%rbp)
	movq	%rax, -184(%rbp)
	movb	%r10b, -185(%rbp)
	movq	%r11, -200(%rbp)
	callq	__ZN4core5slice29_$LT$impl$u20$$u5b$T$u5d$$GT$3len17h66bbf8b4eaa0d307E
	movq	%rax, -208(%rbp)
	movq	-208(%rbp), %rax
	subq	$1, %rax
	movq	%rax, -216(%rbp)
LBB73_2:
	movq	-216(%rbp), %rax
	movq	-144(%rbp), %rcx
	addq	32(%rcx), %rax
	movq	-176(%rbp), %rdi
	movq	-168(%rbp), %rsi
	movq	%rax, %rdx
	callq	__ZN4core5slice29_$LT$impl$u20$$u5b$T$u5d$$GT$3get17had9b48c74e3b51a3E
	movq	%rax, -128(%rbp)
	movq	-128(%rbp), %rax
	testq	%rax, %rax
	setne	%cl
	movzbl	%cl, %edx
	movl	%edx, %eax
	je	LBB73_4
	jmp	LBB73_73
LBB73_73:
	jmp	LBB73_6
LBB73_4:
	movq	-176(%rbp), %rdi
	movq	-168(%rbp), %rsi
	callq	__ZN4core5slice29_$LT$impl$u20$$u5b$T$u5d$$GT$3len17h66bbf8b4eaa0d307E
	movq	%rax, -224(%rbp)
	jmp	LBB73_7
	ud2
LBB73_6:
	movq	-128(%rbp), %rax
	movb	(%rax), %cl
	movb	%cl, -225(%rbp)
	callq	__ZN89_$LT$core..str..pattern..RejectAndMatch$u20$as$u20$core..str..pattern..TwoWayStrategy$GT$16use_early_reject17h19c5d8a1eceb932eE
	movb	%al, -226(%rbp)
	jmp	LBB73_14
LBB73_7:
	movq	-144(%rbp), %rax
	movq	-224(%rbp), %rcx
	movq	%rcx, 32(%rax)
	movq	32(%rax), %rdx
	movq	-136(%rbp), %rdi
	movq	-200(%rbp), %rsi
	callq	__ZN89_$LT$core..str..pattern..RejectAndMatch$u20$as$u20$core..str..pattern..TwoWayStrategy$GT$9rejecting17h0333173c6069218bE
	jmp	LBB73_9
LBB73_9:
	movq	-184(%rbp), %rax
	addq	$384, %rsp
	popq	%rbp
	retq
LBB73_10:
	movb	$1, -113(%rbp)
	jmp	LBB73_13
LBB73_11:
	movb	$0, -113(%rbp)
	jmp	LBB73_13
LBB73_12:
	movq	-200(%rbp), %rax
	movq	-144(%rbp), %rcx
	cmpq	32(%rcx), %rax
	jne	LBB73_10
	jmp	LBB73_11
LBB73_13:
	testb	$1, -113(%rbp)
	jne	LBB73_16
	jmp	LBB73_15
LBB73_14:
	movb	-226(%rbp), %al
	testb	$1, %al
	jne	LBB73_12
	jmp	LBB73_11
LBB73_15:
	movq	-144(%rbp), %rdi
	movb	-225(%rbp), %al
	movzbl	%al, %esi
	callq	__ZN4core3str7pattern14TwoWaySearcher16byteset_contains17h0bb53cd6cf41cf19E
	movb	%al, -227(%rbp)
	jmp	LBB73_18
LBB73_16:
	movq	-144(%rbp), %rax
	movq	32(%rax), %rdx
	movq	-136(%rbp), %rdi
	movq	-200(%rbp), %rsi
	callq	__ZN89_$LT$core..str..pattern..RejectAndMatch$u20$as$u20$core..str..pattern..TwoWayStrategy$GT$9rejecting17h0333173c6069218bE
	jmp	LBB73_9
LBB73_18:
	movb	-227(%rbp), %al
	xorb	$-1, %al
	testb	$1, %al
	jne	LBB73_20
	movb	-185(%rbp), %al
	testb	$1, %al
	jne	LBB73_27
	jmp	LBB73_26
LBB73_20:
	movq	-160(%rbp), %rdi
	movq	-152(%rbp), %rsi
	callq	__ZN4core5slice29_$LT$impl$u20$$u5b$T$u5d$$GT$3len17h66bbf8b4eaa0d307E
	movq	%rax, -240(%rbp)
	movq	-240(%rbp), %rax
	movq	-144(%rbp), %rcx
	addq	32(%rcx), %rax
	movq	%rax, 32(%rcx)
	movb	-185(%rbp), %dl
	xorb	$-1, %dl
	testb	$1, %dl
	jne	LBB73_23
	jmp	LBB73_24
LBB73_23:
	movq	-144(%rbp), %rax
	movq	$0, 48(%rax)
LBB73_24:
	jmp	LBB73_25
LBB73_25:
	jmp	LBB73_2
LBB73_26:
	movq	-144(%rbp), %rax
	movq	(%rax), %rdi
	movq	48(%rax), %rsi
	callq	__ZN4core3cmp3max17hd98a12f47b2301beE
	movq	%rax, -112(%rbp)
	jmp	LBB73_28
LBB73_27:
	movq	-144(%rbp), %rax
	movq	(%rax), %rcx
	movq	%rcx, -112(%rbp)
	jmp	LBB73_29
LBB73_28:
	jmp	LBB73_29
LBB73_29:
	movq	-112(%rbp), %rax
	movq	-160(%rbp), %rdi
	movq	-152(%rbp), %rsi
	movq	%rax, -248(%rbp)
	callq	__ZN4core5slice29_$LT$impl$u20$$u5b$T$u5d$$GT$3len17h66bbf8b4eaa0d307E
	movq	%rax, -256(%rbp)
	movq	-248(%rbp), %rax
	movq	%rax, -104(%rbp)
	movq	-256(%rbp), %rcx
	movq	%rcx, -96(%rbp)
	movq	-104(%rbp), %rdi
	movq	-96(%rbp), %rsi
	callq	__ZN63_$LT$I$u20$as$u20$core..iter..traits..collect..IntoIterator$GT$9into_iter17hbe76f63753e0f708E
	movq	%rax, -264(%rbp)
	movq	%rdx, -272(%rbp)
	movq	-264(%rbp), %rax
	movq	%rax, -88(%rbp)
	movq	-272(%rbp), %rcx
	movq	%rcx, -80(%rbp)
LBB73_32:
	leaq	-88(%rbp), %rdi
	callq	__ZN4core4iter5range101_$LT$impl$u20$core..iter..traits..iterator..Iterator$u20$for$u20$core..ops..range..Range$LT$A$GT$$GT$4next17hb13c493697093d33E
	movq	%rdx, -64(%rbp)
	movq	%rax, -72(%rbp)
	movq	-72(%rbp), %rax
	testq	%rax, %rax
	je	LBB73_34
	jmp	LBB73_74
LBB73_74:
	jmp	LBB73_36
LBB73_34:
	movb	-185(%rbp), %al
	testb	$1, %al
	jne	LBB73_46
	jmp	LBB73_45
	ud2
LBB73_36:
	movq	-64(%rbp), %rax
	movq	-152(%rbp), %rcx
	cmpq	%rcx, %rax
	setb	%dl
	testb	$1, %dl
	movq	%rax, -280(%rbp)
	jne	LBB73_37
	jmp	LBB73_69
LBB73_37:
	movq	-160(%rbp), %rax
	movq	-280(%rbp), %rcx
	movb	(%rax,%rcx), %dl
	movq	-144(%rbp), %rsi
	addq	32(%rsi), %rcx
	movq	-168(%rbp), %rdi
	cmpq	%rdi, %rcx
	setb	%r8b
	testb	$1, %r8b
	movb	%dl, -281(%rbp)
	movq	%rcx, -296(%rbp)
	jne	LBB73_38
	jmp	LBB73_70
LBB73_38:
	movb	-281(%rbp), %al
	movq	-176(%rbp), %rcx
	movq	-296(%rbp), %rdx
	cmpb	(%rcx,%rdx), %al
	jne	LBB73_40
	jmp	LBB73_32
LBB73_40:
	movq	-280(%rbp), %rax
	movq	-144(%rbp), %rcx
	subq	(%rcx), %rax
	addq	$1, %rax
	addq	32(%rcx), %rax
	movq	%rax, 32(%rcx)
	movb	-185(%rbp), %dl
	xorb	$-1, %dl
	testb	$1, %dl
	jne	LBB73_42
	jmp	LBB73_43
LBB73_42:
	movq	-144(%rbp), %rax
	movq	$0, 48(%rax)
LBB73_43:
	jmp	LBB73_44
LBB73_44:
	jmp	LBB73_25
LBB73_45:
	movq	-144(%rbp), %rax
	movq	48(%rax), %rcx
	movq	%rcx, -56(%rbp)
	jmp	LBB73_47
LBB73_46:
	movq	$0, -56(%rbp)
LBB73_47:
	movq	-56(%rbp), %rax
	movq	-144(%rbp), %rcx
	movq	(%rcx), %rdx
	movq	%rax, -48(%rbp)
	movq	%rdx, -40(%rbp)
	movq	-48(%rbp), %rdi
	movq	-40(%rbp), %rsi
	callq	__ZN4core4iter6traits8iterator8Iterator3rev17hfb451f21c52031fbE
	movq	%rax, -304(%rbp)
	movq	%rdx, -312(%rbp)
	movq	-304(%rbp), %rdi
	movq	-312(%rbp), %rsi
	callq	__ZN63_$LT$I$u20$as$u20$core..iter..traits..collect..IntoIterator$GT$9into_iter17he24ea0b7941c3205E
	movq	%rax, -320(%rbp)
	movq	%rdx, -328(%rbp)
	movq	-320(%rbp), %rax
	movq	%rax, -32(%rbp)
	movq	-328(%rbp), %rcx
	movq	%rcx, -24(%rbp)
LBB73_50:
	leaq	-32(%rbp), %rdi
	callq	__ZN93_$LT$core..iter..adapters..Rev$LT$I$GT$$u20$as$u20$core..iter..traits..iterator..Iterator$GT$4next17hbcc918320e281f44E
	movq	%rdx, -8(%rbp)
	movq	%rax, -16(%rbp)
	movq	-16(%rbp), %rax
	testq	%rax, %rax
	je	LBB73_52
	jmp	LBB73_75
LBB73_75:
	jmp	LBB73_54
LBB73_52:
	movq	-144(%rbp), %rax
	movq	32(%rax), %rcx
	movq	-160(%rbp), %rdi
	movq	-152(%rbp), %rsi
	movq	%rcx, -336(%rbp)
	callq	__ZN4core5slice29_$LT$impl$u20$$u5b$T$u5d$$GT$3len17h66bbf8b4eaa0d307E
	movq	%rax, -344(%rbp)
	jmp	LBB73_63
	ud2
LBB73_54:
	movq	-8(%rbp), %rax
	movq	-152(%rbp), %rcx
	cmpq	%rcx, %rax
	setb	%dl
	testb	$1, %dl
	movq	%rax, -352(%rbp)
	jne	LBB73_55
	jmp	LBB73_71
LBB73_55:
	movq	-160(%rbp), %rax
	movq	-352(%rbp), %rcx
	movb	(%rax,%rcx), %dl
	movq	-144(%rbp), %rsi
	addq	32(%rsi), %rcx
	movq	-168(%rbp), %rdi
	cmpq	%rdi, %rcx
	setb	%r8b
	testb	$1, %r8b
	movb	%dl, -353(%rbp)
	movq	%rcx, -368(%rbp)
	jne	LBB73_56
	jmp	LBB73_72
LBB73_56:
	movb	-353(%rbp), %al
	movq	-176(%rbp), %rcx
	movq	-368(%rbp), %rdx
	cmpb	(%rcx,%rdx), %al
	jne	LBB73_58
	jmp	LBB73_50
LBB73_58:
	movq	-144(%rbp), %rax
	movq	16(%rax), %rcx
	addq	32(%rax), %rcx
	movq	%rcx, 32(%rax)
	movb	-185(%rbp), %dl
	xorb	$-1, %dl
	testb	$1, %dl
	jne	LBB73_60
	jmp	LBB73_62
LBB73_60:
	movq	-160(%rbp), %rdi
	movq	-152(%rbp), %rsi
	callq	__ZN4core5slice29_$LT$impl$u20$$u5b$T$u5d$$GT$3len17h66bbf8b4eaa0d307E
	movq	%rax, -376(%rbp)
	movq	-376(%rbp), %rax
	movq	-144(%rbp), %rcx
	subq	16(%rcx), %rax
	movq	%rax, 48(%rcx)
LBB73_62:
	jmp	LBB73_44
LBB73_63:
	movq	-344(%rbp), %rax
	movq	-144(%rbp), %rcx
	addq	32(%rcx), %rax
	movq	%rax, 32(%rcx)
	movb	-185(%rbp), %dl
	xorb	$-1, %dl
	testb	$1, %dl
	jne	LBB73_65
	jmp	LBB73_66
LBB73_65:
	movq	-144(%rbp), %rax
	movq	$0, 48(%rax)
LBB73_66:
	movq	-160(%rbp), %rdi
	movq	-152(%rbp), %rsi
	callq	__ZN4core5slice29_$LT$impl$u20$$u5b$T$u5d$$GT$3len17h66bbf8b4eaa0d307E
	movq	%rax, -384(%rbp)
	movq	-336(%rbp), %rax
	movq	-384(%rbp), %rcx
	addq	%rcx, %rax
	movq	-136(%rbp), %rdi
	movq	-336(%rbp), %rsi
	movq	%rax, %rdx
	callq	__ZN89_$LT$core..str..pattern..RejectAndMatch$u20$as$u20$core..str..pattern..TwoWayStrategy$GT$8matching17h65aeb7c4f85cc690E
	jmp	LBB73_9
LBB73_69:
	leaq	l___unnamed_3(%rip), %rdx
	movq	-280(%rbp), %rdi
	movq	-152(%rbp), %rsi
	callq	__ZN4core9panicking18panic_bounds_check17he87128426d100e93E
LBB73_70:
	leaq	l___unnamed_4(%rip), %rdx
	movq	-296(%rbp), %rdi
	movq	-168(%rbp), %rsi
	callq	__ZN4core9panicking18panic_bounds_check17he87128426d100e93E
LBB73_71:
	leaq	l___unnamed_5(%rip), %rdx
	movq	-352(%rbp), %rdi
	movq	-152(%rbp), %rsi
	callq	__ZN4core9panicking18panic_bounds_check17he87128426d100e93E
LBB73_72:
	leaq	l___unnamed_6(%rip), %rdx
	movq	-368(%rbp), %rdi
	movq	-168(%rbp), %rsi
	callq	__ZN4core9panicking18panic_bounds_check17he87128426d100e93E
	.cfi_endproc

	.p2align	4, 0x90
__ZN4core3str7pattern7Pattern15is_contained_in17h338e0c6e20a08ebbE:
Lfunc_begin6:
	.cfi_startproc
	.cfi_personality 155, _rust_eh_personality
	.cfi_lsda 16, Lexception6
	pushq	%rbp
	.cfi_def_cfa_offset 16
	.cfi_offset %rbp, -16
	movq	%rsp, %rbp
	.cfi_def_cfa_register %rbp
	subq	$192, %rsp
	leaq	-120(%rbp), %rax
	movq	%rdi, -152(%rbp)
	movq	%rax, %rdi
	movq	-152(%rbp), %rax
	movq	%rsi, -160(%rbp)
	movq	%rax, %rsi
	movq	-160(%rbp), %r8
	movq	%rdx, -168(%rbp)
	movq	%r8, %rdx
	movq	-168(%rbp), %r9
	movq	%rcx, -176(%rbp)
	movq	%r9, %rcx
	movq	-176(%rbp), %r8
	callq	__ZN55_$LT$$RF$str$u20$as$u20$core..str..pattern..Pattern$GT$13into_searcher17hd42804fdcd430de5E
	jmp	LBB74_2
LBB74_1:
	movq	-16(%rbp), %rdi
	callq	__Unwind_Resume
	ud2
LBB74_2:
Ltmp22:
	leaq	-144(%rbp), %rdi
	leaq	-120(%rbp), %rsi
	callq	__ZN80_$LT$core..str..pattern..StrSearcher$u20$as$u20$core..str..pattern..Searcher$GT$10next_match17h87fece83177b73cdE
Ltmp23:
	jmp	LBB74_4
LBB74_3:
	jmp	LBB74_1
LBB74_4:
Ltmp24:
	leaq	-144(%rbp), %rdi
	callq	__ZN4core6option15Option$LT$T$GT$7is_some17h0cdba8727e893b15E
Ltmp25:
	movb	%al, -177(%rbp)
	jmp	LBB74_5
LBB74_5:
	jmp	LBB74_6
LBB74_6:
	movb	-177(%rbp), %al
	andb	$1, %al
	movzbl	%al, %eax
	addq	$192, %rsp
	popq	%rbp
	retq
LBB74_7:
Ltmp26:
	movq	%rax, -16(%rbp)
	movl	%edx, -8(%rbp)
	jmp	LBB74_3
Lfunc_end6:
	.cfi_endproc
	.section	__TEXT,__gcc_except_tab
	.p2align	2
GCC_except_table74:
Lexception6:
	.byte	255
	.byte	255
	.byte	1
	.uleb128 Lcst_end6-Lcst_begin6
Lcst_begin6:
	.uleb128 Lfunc_begin6-Lfunc_begin6
	.uleb128 Ltmp22-Lfunc_begin6
	.byte	0
	.byte	0
	.uleb128 Ltmp22-Lfunc_begin6
	.uleb128 Ltmp25-Ltmp22
	.uleb128 Ltmp26-Lfunc_begin6
	.byte	0
Lcst_end6:
	.p2align	2

	.section	__TEXT,__text,regular,pure_instructions
	.p2align	4, 0x90
__ZN4core4char7convert18from_u32_unchecked17hfd14c8bb81c2235fE:
	.cfi_startproc
	pushq	%rbp
	.cfi_def_cfa_offset 16
	.cfi_offset %rbp, -16
	movq	%rsp, %rbp
	.cfi_def_cfa_register %rbp
	pushq	%rax
	movl	%edi, -4(%rbp)
	movl	-4(%rbp), %eax
	movl	%eax, -8(%rbp)
	movl	-8(%rbp), %eax
	addq	$8, %rsp
	popq	%rbp
	retq
	.cfi_endproc

	.p2align	4, 0x90
__ZN4core4char7methods22_$LT$impl$u20$char$GT$8len_utf817h964dfe1efdef03c3E:
	.cfi_startproc
	pushq	%rbp
	.cfi_def_cfa_offset 16
	.cfi_offset %rbp, -16
	movq	%rsp, %rbp
	.cfi_def_cfa_register %rbp
	subq	$16, %rsp
	callq	__ZN4core4char7methods8len_utf817h2e604bddd8ab5ab1E
	movq	%rax, -8(%rbp)
	movq	-8(%rbp), %rax
	addq	$16, %rsp
	popq	%rbp
	retq
	.cfi_endproc

	.p2align	4, 0x90
__ZN4core4char7methods8len_utf817h2e604bddd8ab5ab1E:
	.cfi_startproc
	pushq	%rbp
	.cfi_def_cfa_offset 16
	.cfi_offset %rbp, -16
	movq	%rsp, %rbp
	.cfi_def_cfa_register %rbp
	subq	$16, %rsp
	cmpl	$128, %edi
	movl	%edi, -12(%rbp)
	jb	LBB77_2
	movl	-12(%rbp), %eax
	cmpl	$2048, %eax
	jb	LBB77_4
	jmp	LBB77_3
LBB77_2:
	movq	$1, -8(%rbp)
	jmp	LBB77_9
LBB77_3:
	movl	-12(%rbp), %eax
	cmpl	$65536, %eax
	jb	LBB77_6
	jmp	LBB77_5
LBB77_4:
	movq	$2, -8(%rbp)
	jmp	LBB77_8
LBB77_5:
	movq	$4, -8(%rbp)
	jmp	LBB77_7
LBB77_6:
	movq	$3, -8(%rbp)
LBB77_7:
	jmp	LBB77_8
LBB77_8:
	jmp	LBB77_9
LBB77_9:
	movq	-8(%rbp), %rax
	addq	$16, %rsp
	popq	%rbp
	retq
	.cfi_endproc

	.p2align	4, 0x90
__ZN4core4iter5range101_$LT$impl$u20$core..iter..traits..iterator..Iterator$u20$for$u20$core..ops..range..Range$LT$A$GT$$GT$4next17hb13c493697093d33E:
	.cfi_startproc
	pushq	%rbp
	.cfi_def_cfa_offset 16
	.cfi_offset %rbp, -16
	movq	%rsp, %rbp
	.cfi_def_cfa_register %rbp
	subq	$64, %rsp
	movq	%rdi, %rax
	movq	%rdi, %rcx
	addq	$8, %rcx
	movq	%rdi, -24(%rbp)
	movq	%rax, %rdi
	movq	%rcx, %rsi
	callq	__ZN4core3cmp5impls57_$LT$impl$u20$core..cmp..PartialOrd$u20$for$u20$usize$GT$2lt17h5757ad39617111b6E
	movb	%al, -25(%rbp)
	movb	-25(%rbp), %al
	testb	$1, %al
	jne	LBB78_3
	jmp	LBB78_2
LBB78_2:
	movq	$0, -16(%rbp)
	jmp	LBB78_7
LBB78_3:
	movq	-24(%rbp), %rax
	movq	%rax, %rdi
	callq	__ZN4core5clone5impls54_$LT$impl$u20$core..clone..Clone$u20$for$u20$usize$GT$5clone17hd95139a5ff805723E
	movq	%rax, -40(%rbp)
	movq	-40(%rbp), %rdi
	movl	$1, %esi
	callq	__ZN49_$LT$usize$u20$as$u20$core..iter..range..Step$GT$17forward_unchecked17h25bdfc8179f710bdE
	movq	%rax, -48(%rbp)
	movq	-24(%rbp), %rax
	movq	%rax, %rdi
	movq	-48(%rbp), %rsi
	callq	__ZN4core3mem7replace17h229a2c2478dafdccE
	movq	%rax, -56(%rbp)
	movq	-56(%rbp), %rax
	movq	%rax, -8(%rbp)
	movq	$1, -16(%rbp)
LBB78_7:
	movq	-16(%rbp), %rax
	movq	-8(%rbp), %rdx
	addq	$64, %rsp
	popq	%rbp
	retq
	.cfi_endproc

	.p2align	4, 0x90
__ZN4core4iter5range116_$LT$impl$u20$core..iter..traits..double_ended..DoubleEndedIterator$u20$for$u20$core..ops..range..Range$LT$A$GT$$GT$9next_back17h8e93d2574a1a8479E:
	.cfi_startproc
	pushq	%rbp
	.cfi_def_cfa_offset 16
	.cfi_offset %rbp, -16
	movq	%rsp, %rbp
	.cfi_def_cfa_register %rbp
	subq	$80, %rsp
	movq	%rdi, %rax
	movq	%rdi, %rcx
	addq	$8, %rcx
	movq	%rdi, -48(%rbp)
	movq	%rax, %rdi
	movq	%rcx, %rsi
	callq	__ZN4core3cmp5impls57_$LT$impl$u20$core..cmp..PartialOrd$u20$for$u20$usize$GT$2lt17h5757ad39617111b6E
	movb	%al, -49(%rbp)
	movb	-49(%rbp), %al
	testb	$1, %al
	jne	LBB79_3
	jmp	LBB79_2
LBB79_2:
	movq	$0, -40(%rbp)
	jmp	LBB79_7
LBB79_3:
	movq	-48(%rbp), %rax
	addq	$8, %rax
	movq	%rax, %rdi
	callq	__ZN4core5clone5impls54_$LT$impl$u20$core..clone..Clone$u20$for$u20$usize$GT$5clone17hd95139a5ff805723E
	movq	%rax, -64(%rbp)
	movq	-64(%rbp), %rdi
	movl	$1, %esi
	callq	__ZN49_$LT$usize$u20$as$u20$core..iter..range..Step$GT$18backward_unchecked17h5afdeb4806e8a389E
	movq	%rax, -72(%rbp)
	jmp	LBB79_8
LBB79_6:
	movq	-24(%rbp), %rax
	movq	%rax, -32(%rbp)
	movq	$1, -40(%rbp)
LBB79_7:
	movq	-40(%rbp), %rax
	movq	-32(%rbp), %rdx
	addq	$80, %rsp
	popq	%rbp
	retq
LBB79_8:
	movq	-48(%rbp), %rax
	movq	-72(%rbp), %rcx
	movq	%rcx, 8(%rax)
	addq	$8, %rax
	movq	%rax, %rdi
	callq	__ZN4core5clone5impls54_$LT$impl$u20$core..clone..Clone$u20$for$u20$usize$GT$5clone17hd95139a5ff805723E
	movq	%rax, -24(%rbp)
	jmp	LBB79_6
	.cfi_endproc

	.p2align	4, 0x90
__ZN4core4iter6traits8iterator8Iterator3rev17hfb451f21c52031fbE:
	.cfi_startproc
	pushq	%rbp
	.cfi_def_cfa_offset 16
	.cfi_offset %rbp, -16
	movq	%rsp, %rbp
	.cfi_def_cfa_register %rbp
	subq	$16, %rsp
	callq	__ZN4core4iter8adapters12Rev$LT$T$GT$3new17hd7be6fdaa44f4093E
	movq	%rax, -8(%rbp)
	movq	%rdx, -16(%rbp)
	movq	-8(%rbp), %rax
	movq	-16(%rbp), %rdx
	addq	$16, %rsp
	popq	%rbp
	retq
	.cfi_endproc

	.p2align	4, 0x90
__ZN4core4iter8adapters12Rev$LT$T$GT$3new17hd7be6fdaa44f4093E:
	.cfi_startproc
	pushq	%rbp
	.cfi_def_cfa_offset 16
	.cfi_offset %rbp, -16
	movq	%rsp, %rbp
	.cfi_def_cfa_register %rbp
	subq	$16, %rsp
	movq	%rdi, -16(%rbp)
	movq	%rsi, -8(%rbp)
	movq	-16(%rbp), %rax
	movq	-8(%rbp), %rdx
	addq	$16, %rsp
	popq	%rbp
	retq
	.cfi_endproc

	.p2align	4, 0x90
__ZN4core5alloc6layout6Layout25from_size_align_unchecked17ha1f3a7cdc3fdaa16E:
	.cfi_startproc
	pushq	%rbp
	.cfi_def_cfa_offset 16
	.cfi_offset %rbp, -16
	movq	%rsp, %rbp
	.cfi_def_cfa_register %rbp
	subq	$32, %rsp
	movq	%rdi, -24(%rbp)
	movq	%rsi, %rdi
	callq	__ZN4core3num12NonZeroUsize13new_unchecked17h2c4ecf722fa8b221E
	movq	%rax, -32(%rbp)
	movq	-24(%rbp), %rax
	movq	%rax, -16(%rbp)
	movq	-32(%rbp), %rcx
	movq	%rcx, -8(%rbp)
	movq	-16(%rbp), %rax
	movq	-8(%rbp), %rdx
	addq	$32, %rsp
	popq	%rbp
	retq
	.cfi_endproc

	.p2align	4, 0x90
__ZN4core5alloc6layout6Layout4size17h6a7f0f8524586cc7E:
	.cfi_startproc
	pushq	%rbp
	.cfi_def_cfa_offset 16
	.cfi_offset %rbp, -16
	movq	%rsp, %rbp
	.cfi_def_cfa_register %rbp
	movq	(%rdi), %rax
	popq	%rbp
	retq
	.cfi_endproc

	.p2align	4, 0x90
__ZN4core5alloc6layout6Layout5align17hd1d1edf681f139fdE:
	.cfi_startproc
	pushq	%rbp
	.cfi_def_cfa_offset 16
	.cfi_offset %rbp, -16
	movq	%rsp, %rbp
	.cfi_def_cfa_register %rbp
	subq	$16, %rsp
	movq	8(%rdi), %rdi
	callq	__ZN4core3num12NonZeroUsize3get17hae89ba1d741446eeE
	movq	%rax, -8(%rbp)
	movq	-8(%rbp), %rax
	addq	$16, %rsp
	popq	%rbp
	retq
	.cfi_endproc

	.p2align	4, 0x90
__ZN4core5clone5impls54_$LT$impl$u20$core..clone..Clone$u20$for$u20$usize$GT$5clone17hd95139a5ff805723E:
	.cfi_startproc
	pushq	%rbp
	.cfi_def_cfa_offset 16
	.cfi_offset %rbp, -16
	movq	%rsp, %rbp
	.cfi_def_cfa_register %rbp
	movq	(%rdi), %rax
	popq	%rbp
	retq
	.cfi_endproc

	.p2align	4, 0x90
__ZN4core5slice14from_raw_parts17hc3decaed3ea52484E:
	.cfi_startproc
	pushq	%rbp
	.cfi_def_cfa_offset 16
	.cfi_offset %rbp, -16
	movq	%rsp, %rbp
	.cfi_def_cfa_register %rbp
	subq	$16, %rsp
	callq	__ZN4core3ptr20slice_from_raw_parts17h053a646a7e781333E
	movq	%rax, -8(%rbp)
	movq	%rdx, -16(%rbp)
	movq	-8(%rbp), %rax
	movq	-16(%rbp), %rdx
	addq	$16, %rsp
	popq	%rbp
	retq
	.cfi_endproc

	.p2align	4, 0x90
__ZN4core5slice29_$LT$impl$u20$$u5b$T$u5d$$GT$3get17had9b48c74e3b51a3E:
	.cfi_startproc
	pushq	%rbp
	.cfi_def_cfa_offset 16
	.cfi_offset %rbp, -16
	movq	%rsp, %rbp
	.cfi_def_cfa_register %rbp
	subq	$32, %rsp
	movq	%rdi, -8(%rbp)
	movq	%rdx, %rdi
	movq	-8(%rbp), %rax
	movq	%rsi, -16(%rbp)
	movq	%rax, %rsi
	movq	-16(%rbp), %rdx
	callq	__ZN68_$LT$usize$u20$as$u20$core..slice..SliceIndex$LT$$u5b$T$u5d$$GT$$GT$3get17h7004b810fde6fb4dE
	movq	%rax, -24(%rbp)
	movq	-24(%rbp), %rax
	addq	$32, %rsp
	popq	%rbp
	retq
	.cfi_endproc

	.p2align	4, 0x90
__ZN4core5slice29_$LT$impl$u20$$u5b$T$u5d$$GT$3len17h66bbf8b4eaa0d307E:
	.cfi_startproc
	pushq	%rbp
	.cfi_def_cfa_offset 16
	.cfi_offset %rbp, -16
	movq	%rsp, %rbp
	.cfi_def_cfa_register %rbp
	subq	$16, %rsp
	movq	%rdi, -16(%rbp)
	movq	%rsi, -8(%rbp)
	movq	-8(%rbp), %rax
	addq	$16, %rsp
	popq	%rbp
	retq
	.cfi_endproc

	.p2align	4, 0x90
__ZN4core5slice29_$LT$impl$u20$$u5b$T$u5d$$GT$4iter17h3bc95a20283b5a6dE:
	.cfi_startproc
	pushq	%rbp
	.cfi_def_cfa_offset 16
	.cfi_offset %rbp, -16
	movq	%rsp, %rbp
	.cfi_def_cfa_register %rbp
	subq	$112, %rsp
	movq	%rdi, -48(%rbp)
	movq	%rsi, -56(%rbp)
	callq	__ZN4core5slice29_$LT$impl$u20$$u5b$T$u5d$$GT$6as_ptr17he578f1fd91389af4E
	movq	%rax, -64(%rbp)
	movq	-64(%rbp), %rdi
	callq	__ZN4core3ptr9const_ptr33_$LT$impl$u20$$BP$const$u20$T$GT$7is_null17h73d3db8ee9618c12E
	movq	$1, -8(%rbp)
	movq	-8(%rbp), %rax
	movq	%rax, -72(%rbp)
	movq	-72(%rbp), %rax
	cmpq	$0, %rax
	je	LBB89_6
	movq	-48(%rbp), %rdi
	movq	-56(%rbp), %rsi
	callq	__ZN4core5slice29_$LT$impl$u20$$u5b$T$u5d$$GT$3len17h66bbf8b4eaa0d307E
	movq	%rax, -80(%rbp)
	jmp	LBB89_9
LBB89_6:
	movq	-48(%rbp), %rdi
	movq	-56(%rbp), %rsi
	callq	__ZN4core5slice29_$LT$impl$u20$$u5b$T$u5d$$GT$3len17h66bbf8b4eaa0d307E
	movq	%rax, -88(%rbp)
	movq	-64(%rbp), %rdi
	movq	-88(%rbp), %rsi
	callq	__ZN4core3ptr9const_ptr33_$LT$impl$u20$$BP$const$u20$T$GT$12wrapping_add17h80085a1689c6f941E
	movq	%rax, -96(%rbp)
	movq	-96(%rbp), %rax
	movq	%rax, -24(%rbp)
	jmp	LBB89_11
LBB89_9:
	movq	-64(%rbp), %rdi
	movq	-80(%rbp), %rsi
	callq	__ZN4core3ptr9const_ptr33_$LT$impl$u20$$BP$const$u20$T$GT$3add17h2a0718993f58ad8bE
	movq	%rax, -24(%rbp)
	jmp	LBB89_11
LBB89_11:
	movq	-64(%rbp), %rdi
	callq	__ZN4core3ptr8non_null16NonNull$LT$T$GT$13new_unchecked17hfa58c45adcfa38ecE
	movq	%rax, -104(%rbp)
	movq	-24(%rbp), %rax
	movq	-104(%rbp), %rcx
	movq	%rcx, -40(%rbp)
	movq	%rax, -32(%rbp)
	movq	-40(%rbp), %rax
	movq	-32(%rbp), %rdx
	addq	$112, %rsp
	popq	%rbp
	retq
	.cfi_endproc

	.p2align	4, 0x90
__ZN4core5slice29_$LT$impl$u20$$u5b$T$u5d$$GT$6as_ptr17he578f1fd91389af4E:
	.cfi_startproc
	pushq	%rbp
	.cfi_def_cfa_offset 16
	.cfi_offset %rbp, -16
	movq	%rsp, %rbp
	.cfi_def_cfa_register %rbp
	movq	%rdi, %rax
	popq	%rbp
	retq
	.cfi_endproc

	.p2align	4, 0x90
__ZN4core6option15Option$LT$T$GT$14unwrap_or_else17h12d366462e9e9a37E:
Lfunc_begin7:
	.cfi_startproc
	.cfi_personality 155, _rust_eh_personality
	.cfi_lsda 16, Lexception7
	pushq	%rbp
	.cfi_def_cfa_offset 16
	.cfi_offset %rbp, -16
	movq	%rsp, %rbp
	.cfi_def_cfa_register %rbp
	subq	$112, %rsp
	movq	%rdi, -80(%rbp)
	movq	%rsi, -72(%rbp)
	movb	$0, -17(%rbp)
	movb	$1, -17(%rbp)
	movq	-80(%rbp), %rax
	testq	%rax, %rax
	setne	%cl
	movzbl	%cl, %r8d
	movl	%r8d, %eax
	movq	%rdx, -88(%rbp)
	je	LBB91_1
	jmp	LBB91_10
LBB91_10:
	jmp	LBB91_3
LBB91_1:
	movb	$0, -17(%rbp)
	movq	-88(%rbp), %rax
	movq	16(%rax), %rcx
	movq	%rcx, -32(%rbp)
	movq	(%rax), %rcx
	movq	8(%rax), %rdx
	movq	%rdx, -40(%rbp)
	movq	%rcx, -48(%rbp)
Ltmp27:
	leaq	-48(%rbp), %rdi
	callq	__ZN4core3str6traits105_$LT$impl$u20$core..slice..SliceIndex$LT$str$GT$$u20$for$u20$core..ops..range..RangeFrom$LT$usize$GT$$GT$5index28_$u7b$$u7b$closure$u7d$$u7d$17h2ac7300b2849555eE
Ltmp28:
	movq	%rdx, -96(%rbp)
	movq	%rax, -104(%rbp)
	jmp	LBB91_4
	ud2
LBB91_3:
	movq	-80(%rbp), %rax
	movq	-72(%rbp), %rcx
	movq	%rax, -64(%rbp)
	movq	%rcx, -56(%rbp)
	jmp	LBB91_8
LBB91_4:
	movq	-104(%rbp), %rax
	movq	%rax, -64(%rbp)
	movq	-96(%rbp), %rcx
	movq	%rcx, -56(%rbp)
	jmp	LBB91_8
LBB91_5:
	movq	-64(%rbp), %rax
	movq	-56(%rbp), %rdx
	addq	$112, %rsp
	popq	%rbp
	retq
LBB91_6:
	movq	-16(%rbp), %rdi
	callq	__Unwind_Resume
	ud2
LBB91_7:
	movb	$0, -17(%rbp)
	jmp	LBB91_5
LBB91_8:
	testb	$1, -17(%rbp)
	jne	LBB91_7
	jmp	LBB91_5
LBB91_9:
Ltmp29:
	movq	%rax, -16(%rbp)
	movl	%edx, -8(%rbp)
	jmp	LBB91_6
Lfunc_end7:
	.cfi_endproc
	.section	__TEXT,__gcc_except_tab
	.p2align	2
GCC_except_table91:
Lexception7:
	.byte	255
	.byte	255
	.byte	1
	.uleb128 Lcst_end7-Lcst_begin7
Lcst_begin7:
	.uleb128 Ltmp27-Lfunc_begin7
	.uleb128 Ltmp28-Ltmp27
	.uleb128 Ltmp29-Lfunc_begin7
	.byte	0
	.uleb128 Ltmp28-Lfunc_begin7
	.uleb128 Lfunc_end7-Ltmp28
	.byte	0
	.byte	0
Lcst_end7:
	.p2align	2

	.section	__TEXT,__text,regular,pure_instructions
	.p2align	4, 0x90
__ZN4core6option15Option$LT$T$GT$3map17h667fc0e9efe590b4E:
Lfunc_begin8:
	.cfi_startproc
	.cfi_personality 155, _rust_eh_personality
	.cfi_lsda 16, Lexception8
	pushq	%rbp
	.cfi_def_cfa_offset 16
	.cfi_offset %rbp, -16
	movq	%rsp, %rbp
	.cfi_def_cfa_register %rbp
	subq	$48, %rsp
	movl	%edi, -40(%rbp)
	movl	%esi, -36(%rbp)
	movb	$0, -17(%rbp)
	movb	$1, -17(%rbp)
	movl	-40(%rbp), %eax
	movl	%eax, %ecx
	testq	%rcx, %rcx
	je	LBB92_1
	jmp	LBB92_10
LBB92_10:
	jmp	LBB92_3
LBB92_1:
	movl	$1114112, -28(%rbp)
	jmp	LBB92_8
	ud2
LBB92_3:
	movl	-36(%rbp), %eax
	movb	$0, -17(%rbp)
	movl	%eax, -24(%rbp)
	movl	-24(%rbp), %edi
Ltmp30:
	callq	__ZN75_$LT$core..str..Chars$u20$as$u20$core..iter..traits..iterator..Iterator$GT$4next28_$u7b$$u7b$closure$u7d$$u7d$17h674e11fc928efc35E
Ltmp31:
	movl	%eax, -44(%rbp)
	jmp	LBB92_4
LBB92_4:
	movl	-44(%rbp), %eax
	movl	%eax, -28(%rbp)
	jmp	LBB92_8
LBB92_5:
	movl	-28(%rbp), %eax
	addq	$48, %rsp
	popq	%rbp
	retq
LBB92_6:
	movq	-16(%rbp), %rdi
	callq	__Unwind_Resume
	ud2
LBB92_7:
	movb	$0, -17(%rbp)
	jmp	LBB92_5
LBB92_8:
	testb	$1, -17(%rbp)
	jne	LBB92_7
	jmp	LBB92_5
LBB92_9:
Ltmp32:
	movq	%rax, -16(%rbp)
	movl	%edx, -8(%rbp)
	jmp	LBB92_6
Lfunc_end8:
	.cfi_endproc
	.section	__TEXT,__gcc_except_tab
	.p2align	2
GCC_except_table92:
Lexception8:
	.byte	255
	.byte	255
	.byte	1
	.uleb128 Lcst_end8-Lcst_begin8
Lcst_begin8:
	.uleb128 Ltmp30-Lfunc_begin8
	.uleb128 Ltmp31-Ltmp30
	.uleb128 Ltmp32-Lfunc_begin8
	.byte	0
	.uleb128 Ltmp31-Lfunc_begin8
	.uleb128 Lfunc_end8-Ltmp31
	.byte	0
	.byte	0
Lcst_end8:
	.p2align	2

	.section	__TEXT,__text,regular,pure_instructions
	.p2align	4, 0x90
__ZN4core6option15Option$LT$T$GT$5ok_or17hc932bb79514afc25E:
	.cfi_startproc
	pushq	%rbp
	.cfi_def_cfa_offset 16
	.cfi_offset %rbp, -16
	movq	%rsp, %rbp
	.cfi_def_cfa_register %rbp
	subq	$40, %rsp
	movq	%rdi, -40(%rbp)
	movb	$0, -17(%rbp)
	movb	$1, -17(%rbp)
	movq	-40(%rbp), %rax
	testq	%rax, %rax
	setne	%cl
	movzbl	%cl, %edx
	movl	%edx, %eax
	je	LBB93_1
	jmp	LBB93_7
LBB93_7:
	jmp	LBB93_3
LBB93_1:
	movb	$0, -17(%rbp)
	movq	$0, -32(%rbp)
	jmp	LBB93_4
	ud2
LBB93_3:
	movq	-40(%rbp), %rax
	movq	%rax, -32(%rbp)
LBB93_4:
	testb	$1, -17(%rbp)
	jne	LBB93_6
LBB93_5:
	movq	-32(%rbp), %rax
	addq	$40, %rsp
	popq	%rbp
	retq
LBB93_6:
	movb	$0, -17(%rbp)
	jmp	LBB93_5
	.cfi_endproc

	.p2align	4, 0x90
__ZN4core6option15Option$LT$T$GT$7is_some17h0cdba8727e893b15E:
	.cfi_startproc
	pushq	%rbp
	.cfi_def_cfa_offset 16
	.cfi_offset %rbp, -16
	movq	%rsp, %rbp
	.cfi_def_cfa_register %rbp
	subq	$1, %rsp
	cmpq	$1, (%rdi)
	je	LBB94_2
	movb	$0, -1(%rbp)
	jmp	LBB94_3
LBB94_2:
	movb	$1, -1(%rbp)
LBB94_3:
	movb	-1(%rbp), %al
	andb	$1, %al
	movzbl	%al, %eax
	addq	$1, %rsp
	popq	%rbp
	retq
	.cfi_endproc

	.p2align	4, 0x90
__ZN4core6result19Result$LT$T$C$E$GT$6expect17hfb03497764ce7f92E:
Lfunc_begin9:
	.cfi_startproc
	.cfi_personality 155, _rust_eh_personality
	.cfi_lsda 16, Lexception9
	pushq	%rbp
	.cfi_def_cfa_offset 16
	.cfi_offset %rbp, -16
	movq	%rsp, %rbp
	.cfi_def_cfa_register %rbp
	subq	$96, %rsp
	movq	%rdi, %rax
	movq	(%rsi), %r9
	testq	%r9, %r9
	movq	%r8, -48(%rbp)
	movq	%rcx, -56(%rbp)
	movq	%rdx, -64(%rbp)
	movq	%rsi, -72(%rbp)
	movq	%rdi, -80(%rbp)
	movq	%rax, -88(%rbp)
	je	LBB95_3
	jmp	LBB95_8
LBB95_8:
	movq	-72(%rbp), %rax
	movq	24(%rax), %rcx
	movq	%rcx, -24(%rbp)
	movq	8(%rax), %rcx
	movq	16(%rax), %rdx
	movq	%rdx, -32(%rbp)
	movq	%rcx, -40(%rbp)
Ltmp33:
	leaq	l___unnamed_7(%rip), %rcx
	leaq	-40(%rbp), %rdx
	movq	-64(%rbp), %rdi
	movq	-56(%rbp), %rsi
	movq	-48(%rbp), %r8
	callq	__ZN4core6result13unwrap_failed17hc193898ef513e81fE
Ltmp34:
	jmp	LBB95_6
	ud2
LBB95_3:
	movq	-72(%rbp), %rax
	movq	8(%rax), %rcx
	movq	-80(%rbp), %rdx
	movq	%rcx, (%rdx)
	movq	16(%rax), %rcx
	movq	%rcx, 8(%rdx)
	movq	24(%rax), %rcx
	movq	%rcx, 16(%rdx)
	movq	-88(%rbp), %rax
	addq	$96, %rsp
	popq	%rbp
	retq
LBB95_4:
	movq	-16(%rbp), %rdi
	callq	__Unwind_Resume
	ud2
LBB95_5:
	leaq	-40(%rbp), %rdi
	callq	__ZN4core3ptr13drop_in_place17h84fad21df3088046E
	jmp	LBB95_4
LBB95_6:
	ud2
LBB95_7:
Ltmp35:
	movq	%rax, -16(%rbp)
	movl	%edx, -8(%rbp)
	jmp	LBB95_5
Lfunc_end9:
	.cfi_endproc
	.section	__TEXT,__gcc_except_tab
	.p2align	2
GCC_except_table95:
Lexception9:
	.byte	255
	.byte	255
	.byte	1
	.uleb128 Lcst_end9-Lcst_begin9
Lcst_begin9:
	.uleb128 Ltmp33-Lfunc_begin9
	.uleb128 Ltmp34-Ltmp33
	.uleb128 Ltmp35-Lfunc_begin9
	.byte	0
	.uleb128 Ltmp34-Lfunc_begin9
	.uleb128 Lfunc_end9-Ltmp34
	.byte	0
	.byte	0
Lcst_end9:
	.p2align	2

	.section	__TEXT,__text,regular,pure_instructions
	.p2align	4, 0x90
__ZN50_$LT$T$u20$as$u20$core..convert..From$LT$T$GT$$GT$4from17h72b7f027bf81836cE:
	.cfi_startproc
	pushq	%rbp
	.cfi_def_cfa_offset 16
	.cfi_offset %rbp, -16
	movq	%rsp, %rbp
	.cfi_def_cfa_register %rbp
	popq	%rbp
	retq
	.cfi_endproc

	.p2align	4, 0x90
__ZN50_$LT$T$u20$as$u20$core..convert..Into$LT$U$GT$$GT$4into17hb7ac64dfff9a5738E:
	.cfi_startproc
	pushq	%rbp
	.cfi_def_cfa_offset 16
	.cfi_offset %rbp, -16
	movq	%rsp, %rbp
	.cfi_def_cfa_register %rbp
	subq	$16, %rsp
	callq	__ZN119_$LT$core..ptr..non_null..NonNull$LT$T$GT$$u20$as$u20$core..convert..From$LT$core..ptr..unique..Unique$LT$T$GT$$GT$$GT$4from17h176eb2351875abd9E
	movq	%rax, -8(%rbp)
	movq	-8(%rbp), %rax
	addq	$16, %rsp
	popq	%rbp
	retq
	.cfi_endproc

	.p2align	4, 0x90
__ZN54_$LT$$LP$$RP$$u20$as$u20$std..process..Termination$GT$6report17hd54873336a48ca86E:
	.cfi_startproc
	pushq	%rbp
	.cfi_def_cfa_offset 16
	.cfi_offset %rbp, -16
	movq	%rsp, %rbp
	.cfi_def_cfa_register %rbp
	subq	$16, %rsp
	xorl	%edi, %edi
	callq	__ZN68_$LT$std..process..ExitCode$u20$as$u20$std..process..Termination$GT$6report17h98604656f8f3a3fdE
	movl	%eax, -4(%rbp)
	movl	-4(%rbp), %eax
	addq	$16, %rsp
	popq	%rbp
	retq
	.cfi_endproc

	.p2align	4, 0x90
__ZN55_$LT$$RF$T$u20$as$u20$core..convert..AsRef$LT$U$GT$$GT$6as_ref17h4ad18472aa6525efE:
	.cfi_startproc
	pushq	%rbp
	.cfi_def_cfa_offset 16
	.cfi_offset %rbp, -16
	movq	%rsp, %rbp
	.cfi_def_cfa_register %rbp
	subq	$16, %rsp
	movq	(%rdi), %rax
	movq	8(%rdi), %rsi
	movq	%rax, %rdi
	callq	__ZN3std3ffi6os_str85_$LT$impl$u20$core..convert..AsRef$LT$std..ffi..os_str..OsStr$GT$$u20$for$u20$str$GT$6as_ref17h408726ebba2075c5E
	movq	%rax, -8(%rbp)
	movq	%rdx, -16(%rbp)
	movq	-8(%rbp), %rax
	movq	-16(%rbp), %rdx
	addq	$16, %rsp
	popq	%rbp
	retq
	.cfi_endproc

	.p2align	4, 0x90
__ZN55_$LT$$RF$str$u20$as$u20$core..str..pattern..Pattern$GT$13into_searcher17hd42804fdcd430de5E:
	.cfi_startproc
	pushq	%rbp
	.cfi_def_cfa_offset 16
	.cfi_offset %rbp, -16
	movq	%rsp, %rbp
	.cfi_def_cfa_register %rbp
	subq	$32, %rsp
	movq	%rdi, %rax
	movq	%rsi, -8(%rbp)
	movq	%rcx, %rsi
	movq	%rdx, -16(%rbp)
	movq	%r8, %rdx
	movq	-8(%rbp), %rcx
	movq	-16(%rbp), %r8
	movq	%rax, -24(%rbp)
	callq	__ZN4core3str7pattern11StrSearcher3new17hb3e2f8082f620422E
	movq	-24(%rbp), %rax
	addq	$32, %rsp
	popq	%rbp
	retq
	.cfi_endproc

	.p2align	4, 0x90
__ZN5alloc3vec12Vec$LT$T$GT$10as_mut_ptr17hef6c3e732f4e5fb1E:
	.cfi_startproc
	pushq	%rbp
	.cfi_def_cfa_offset 16
	.cfi_offset %rbp, -16
	movq	%rsp, %rbp
	.cfi_def_cfa_register %rbp
	subq	$16, %rsp
	callq	__ZN5alloc7raw_vec19RawVec$LT$T$C$A$GT$3ptr17h8107bcdd160d8dc7E
	movq	%rax, -8(%rbp)
	movq	-8(%rbp), %rdi
	callq	__ZN4core3ptr7mut_ptr31_$LT$impl$u20$$BP$mut$u20$T$GT$7is_null17he8275fec89e3a72cE
	movq	-8(%rbp), %rax
	addq	$16, %rsp
	popq	%rbp
	retq
	.cfi_endproc

	.p2align	4, 0x90
__ZN5alloc3vec12Vec$LT$T$GT$6as_ptr17hd9ad4ead99465b7bE:
	.cfi_startproc
	pushq	%rbp
	.cfi_def_cfa_offset 16
	.cfi_offset %rbp, -16
	movq	%rsp, %rbp
	.cfi_def_cfa_register %rbp
	subq	$16, %rsp
	callq	__ZN5alloc7raw_vec19RawVec$LT$T$C$A$GT$3ptr17h8107bcdd160d8dc7E
	movq	%rax, -8(%rbp)
	movq	-8(%rbp), %rdi
	callq	__ZN4core3ptr7mut_ptr31_$LT$impl$u20$$BP$mut$u20$T$GT$7is_null17he8275fec89e3a72cE
	movq	-8(%rbp), %rax
	addq	$16, %rsp
	popq	%rbp
	retq
	.cfi_endproc

	.p2align	4, 0x90
__ZN5alloc5alloc7dealloc17hdefb95f9c9dbdc51E:
	.cfi_startproc
	pushq	%rbp
	.cfi_def_cfa_offset 16
	.cfi_offset %rbp, -16
	movq	%rsp, %rbp
	.cfi_def_cfa_register %rbp
	subq	$48, %rsp
	movq	%rsi, -16(%rbp)
	movq	%rdx, -8(%rbp)
	leaq	-16(%rbp), %rax
	movq	%rdi, -24(%rbp)
	movq	%rax, %rdi
	callq	__ZN4core5alloc6layout6Layout4size17h6a7f0f8524586cc7E
	movq	%rax, -32(%rbp)
	leaq	-16(%rbp), %rdi
	callq	__ZN4core5alloc6layout6Layout5align17hd1d1edf681f139fdE
	movq	%rax, -40(%rbp)
	movq	-24(%rbp), %rdi
	movq	-32(%rbp), %rsi
	movq	-40(%rbp), %rdx
	callq	___rust_dealloc
	addq	$48, %rsp
	popq	%rbp
	retq
	.cfi_endproc

	.p2align	4, 0x90
__ZN5alloc7raw_vec19RawVec$LT$T$C$A$GT$14current_memory17hf77830fdcb8c0323E:
	.cfi_startproc
	pushq	%rbp
	.cfi_def_cfa_offset 16
	.cfi_offset %rbp, -16
	movq	%rsp, %rbp
	.cfi_def_cfa_register %rbp
	subq	$144, %rsp
	movq	%rdi, %rax
	movq	$1, -24(%rbp)
	movq	-24(%rbp), %rcx
	movq	%rsi, -64(%rbp)
	movq	%rdi, -72(%rbp)
	movq	%rax, -80(%rbp)
	movq	%rcx, -88(%rbp)
	jmp	LBB104_5
LBB104_1:
	movb	$1, -49(%rbp)
	jmp	LBB104_4
LBB104_2:
	movb	$0, -49(%rbp)
	jmp	LBB104_4
LBB104_3:
	movq	-64(%rbp), %rax
	cmpq	$0, 8(%rax)
	je	LBB104_1
	jmp	LBB104_2
LBB104_4:
	testb	$1, -49(%rbp)
	jne	LBB104_7
	jmp	LBB104_6
LBB104_5:
	movq	-88(%rbp), %rax
	cmpq	$0, %rax
	je	LBB104_1
	jmp	LBB104_3
LBB104_6:
	movq	$1, -16(%rbp)
	movq	-16(%rbp), %rsi
	movq	%rsi, -96(%rbp)
	jmp	LBB104_8
LBB104_7:
	movq	-72(%rbp), %rax
	movq	$0, (%rax)
	jmp	LBB104_13
LBB104_8:
	movq	$1, -8(%rbp)
	movq	-8(%rbp), %rax
	movq	%rax, -104(%rbp)
	movq	-104(%rbp), %rax
	movq	-64(%rbp), %rcx
	imulq	8(%rcx), %rax
	movq	%rax, %rdi
	movq	-96(%rbp), %rsi
	callq	__ZN4core5alloc6layout6Layout25from_size_align_unchecked17ha1f3a7cdc3fdaa16E
	movq	%rax, -112(%rbp)
	movq	%rdx, -120(%rbp)
	movq	-64(%rbp), %rax
	movq	(%rax), %rdi
	callq	__ZN4core3ptr6unique15Unique$LT$T$GT$4cast17h878117d0f6dea411E
	movq	%rax, -128(%rbp)
	movq	-128(%rbp), %rdi
	callq	__ZN50_$LT$T$u20$as$u20$core..convert..Into$LT$U$GT$$GT$4into17hb7ac64dfff9a5738E
	movq	%rax, -136(%rbp)
	movq	-136(%rbp), %rax
	movq	%rax, -48(%rbp)
	movq	-112(%rbp), %rcx
	movq	%rcx, -40(%rbp)
	movq	-120(%rbp), %rdx
	movq	%rdx, -32(%rbp)
	movq	-48(%rbp), %rsi
	movq	-72(%rbp), %rdi
	movq	%rsi, (%rdi)
	movq	-40(%rbp), %rsi
	movq	%rsi, 8(%rdi)
	movq	-32(%rbp), %rsi
	movq	%rsi, 16(%rdi)
LBB104_13:
	movq	-80(%rbp), %rax
	addq	$144, %rsp
	popq	%rbp
	retq
	.cfi_endproc

	.p2align	4, 0x90
__ZN5alloc7raw_vec19RawVec$LT$T$C$A$GT$3ptr17h8107bcdd160d8dc7E:
	.cfi_startproc
	pushq	%rbp
	.cfi_def_cfa_offset 16
	.cfi_offset %rbp, -16
	movq	%rsp, %rbp
	.cfi_def_cfa_register %rbp
	subq	$16, %rsp
	movq	(%rdi), %rdi
	callq	__ZN4core3ptr6unique15Unique$LT$T$GT$6as_ptr17hf234fab4f728a1e3E
	movq	%rax, -8(%rbp)
	movq	-8(%rbp), %rax
	addq	$16, %rsp
	popq	%rbp
	retq
	.cfi_endproc

	.p2align	4, 0x90
__ZN62_$LT$alloc..alloc..Global$u20$as$u20$core..alloc..AllocRef$GT$7dealloc17h1c2496e6c912d52eE:
	.cfi_startproc
	pushq	%rbp
	.cfi_def_cfa_offset 16
	.cfi_offset %rbp, -16
	movq	%rsp, %rbp
	.cfi_def_cfa_register %rbp
	subq	$64, %rsp
	movq	%rdx, -24(%rbp)
	movq	%rcx, -16(%rbp)
	leaq	-24(%rbp), %rax
	movq	%rdi, -32(%rbp)
	movq	%rax, %rdi
	movq	%rsi, -40(%rbp)
	callq	__ZN4core5alloc6layout6Layout4size17h6a7f0f8524586cc7E
	movq	%rax, -48(%rbp)
	movq	-48(%rbp), %rax
	cmpq	$0, %rax
	jne	LBB106_3
	jmp	LBB106_6
LBB106_3:
	movq	-40(%rbp), %rdi
	callq	__ZN4core3ptr8non_null16NonNull$LT$T$GT$6as_ptr17h4b7b1177854f6de3E
	movq	%rax, -56(%rbp)
	movq	-24(%rbp), %rsi
	movq	-16(%rbp), %rdx
	movq	-56(%rbp), %rdi
	callq	__ZN5alloc5alloc7dealloc17hdefb95f9c9dbdc51E
	jmp	LBB106_6
LBB106_6:
	addq	$64, %rsp
	popq	%rbp
	retq
	.cfi_endproc

	.p2align	4, 0x90
__ZN63_$LT$I$u20$as$u20$core..iter..traits..collect..IntoIterator$GT$9into_iter17hbe76f63753e0f708E:
	.cfi_startproc
	pushq	%rbp
	.cfi_def_cfa_offset 16
	.cfi_offset %rbp, -16
	movq	%rsp, %rbp
	.cfi_def_cfa_register %rbp
	movq	%rdi, %rax
	movq	%rsi, %rdx
	popq	%rbp
	retq
	.cfi_endproc

	.p2align	4, 0x90
__ZN63_$LT$I$u20$as$u20$core..iter..traits..collect..IntoIterator$GT$9into_iter17he24ea0b7941c3205E:
	.cfi_startproc
	pushq	%rbp
	.cfi_def_cfa_offset 16
	.cfi_offset %rbp, -16
	movq	%rsp, %rbp
	.cfi_def_cfa_register %rbp
	movq	%rdi, %rax
	movq	%rsi, %rdx
	popq	%rbp
	retq
	.cfi_endproc

	.p2align	4, 0x90
__ZN65_$LT$alloc..string..String$u20$as$u20$core..ops..deref..Deref$GT$5deref17h4d29ac3b3e691c69E:
	.cfi_startproc
	pushq	%rbp
	.cfi_def_cfa_offset 16
	.cfi_offset %rbp, -16
	movq	%rsp, %rbp
	.cfi_def_cfa_register %rbp
	subq	$32, %rsp
	callq	__ZN68_$LT$alloc..vec..Vec$LT$T$GT$$u20$as$u20$core..ops..deref..Deref$GT$5deref17hb408087089094efeE
	movq	%rax, -8(%rbp)
	movq	%rdx, -16(%rbp)
	movq	-8(%rbp), %rdi
	movq	-16(%rbp), %rsi
	callq	__ZN4core3str19from_utf8_unchecked17h22cd3f39b43ce80cE
	movq	%rax, -24(%rbp)
	movq	%rdx, -32(%rbp)
	movq	-24(%rbp), %rax
	movq	-32(%rbp), %rdx
	addq	$32, %rsp
	popq	%rbp
	retq
	.cfi_endproc

	.p2align	4, 0x90
__ZN66_$LT$alloc..vec..Vec$LT$T$GT$$u20$as$u20$core..ops..drop..Drop$GT$4drop17haaffba73d6ab51daE:
	.cfi_startproc
	pushq	%rbp
	.cfi_def_cfa_offset 16
	.cfi_offset %rbp, -16
	movq	%rsp, %rbp
	.cfi_def_cfa_register %rbp
	subq	$16, %rsp
	movq	%rdi, -8(%rbp)
	callq	__ZN5alloc3vec12Vec$LT$T$GT$10as_mut_ptr17hef6c3e732f4e5fb1E
	movq	%rax, -16(%rbp)
	movq	-8(%rbp), %rax
	movq	16(%rax), %rsi
	movq	-16(%rbp), %rdi
	callq	__ZN4core3ptr24slice_from_raw_parts_mut17hf67e67874cc34b3aE
	jmp	LBB110_3
LBB110_3:
	addq	$16, %rsp
	popq	%rbp
	retq
	.cfi_endproc

	.p2align	4, 0x90
__ZN68_$LT$alloc..vec..Vec$LT$T$GT$$u20$as$u20$core..ops..deref..Deref$GT$5deref17hb408087089094efeE:
	.cfi_startproc
	pushq	%rbp
	.cfi_def_cfa_offset 16
	.cfi_offset %rbp, -16
	movq	%rsp, %rbp
	.cfi_def_cfa_register %rbp
	subq	$32, %rsp
	movq	%rdi, -8(%rbp)
	callq	__ZN5alloc3vec12Vec$LT$T$GT$6as_ptr17hd9ad4ead99465b7bE
	movq	%rax, -16(%rbp)
	movq	-8(%rbp), %rax
	movq	16(%rax), %rsi
	movq	-16(%rbp), %rdi
	callq	__ZN4core5slice14from_raw_parts17hc3decaed3ea52484E
	movq	%rax, -24(%rbp)
	movq	%rdx, -32(%rbp)
	movq	-24(%rbp), %rax
	movq	-32(%rbp), %rdx
	addq	$32, %rsp
	popq	%rbp
	retq
	.cfi_endproc

	.p2align	4, 0x90
__ZN68_$LT$std..process..ExitCode$u20$as$u20$std..process..Termination$GT$6report17h98604656f8f3a3fdE:
	.cfi_startproc
	pushq	%rbp
	.cfi_def_cfa_offset 16
	.cfi_offset %rbp, -16
	movq	%rsp, %rbp
	.cfi_def_cfa_register %rbp
	subq	$16, %rsp
	movb	%dil, -1(%rbp)
	leaq	-1(%rbp), %rdi
	callq	__ZN3std3sys4unix7process14process_common8ExitCode6as_i3217hc96a9c69ccc85053E
	movl	%eax, -8(%rbp)
	movl	-8(%rbp), %eax
	addq	$16, %rsp
	popq	%rbp
	retq
	.cfi_endproc

	.p2align	4, 0x90
__ZN68_$LT$usize$u20$as$u20$core..slice..SliceIndex$LT$$u5b$T$u5d$$GT$$GT$13get_unchecked17h1c5dc27a0deb5ffcE:
	.cfi_startproc
	pushq	%rbp
	.cfi_def_cfa_offset 16
	.cfi_offset %rbp, -16
	movq	%rsp, %rbp
	.cfi_def_cfa_register %rbp
	subq	$32, %rsp
	movq	%rdi, -8(%rbp)
	movq	%rsi, %rdi
	movq	%rdx, %rsi
	callq	__ZN4core3ptr9const_ptr43_$LT$impl$u20$$BP$const$u20$$u5b$T$u5d$$GT$6as_ptr17h3f4bf91d88a86303E
	movq	%rax, -16(%rbp)
	movq	-16(%rbp), %rdi
	movq	-8(%rbp), %rsi
	callq	__ZN4core3ptr9const_ptr33_$LT$impl$u20$$BP$const$u20$T$GT$3add17h2a0718993f58ad8bE
	movq	%rax, -24(%rbp)
	movq	-24(%rbp), %rax
	addq	$32, %rsp
	popq	%rbp
	retq
	.cfi_endproc

	.p2align	4, 0x90
__ZN68_$LT$usize$u20$as$u20$core..slice..SliceIndex$LT$$u5b$T$u5d$$GT$$GT$3get17h7004b810fde6fb4dE:
	.cfi_startproc
	pushq	%rbp
	.cfi_def_cfa_offset 16
	.cfi_offset %rbp, -16
	movq	%rsp, %rbp
	.cfi_def_cfa_register %rbp
	subq	$48, %rsp
	movq	%rdi, -16(%rbp)
	movq	%rsi, %rdi
	movq	%rsi, -24(%rbp)
	movq	%rdx, %rsi
	movq	%rdx, -32(%rbp)
	callq	__ZN4core5slice29_$LT$impl$u20$$u5b$T$u5d$$GT$3len17h66bbf8b4eaa0d307E
	movq	%rax, -40(%rbp)
	movq	-16(%rbp), %rax
	movq	-40(%rbp), %rcx
	cmpq	%rcx, %rax
	jb	LBB114_3
	movq	$0, -8(%rbp)
	jmp	LBB114_5
LBB114_3:
	movq	-16(%rbp), %rdi
	movq	-24(%rbp), %rsi
	movq	-32(%rbp), %rdx
	callq	__ZN68_$LT$usize$u20$as$u20$core..slice..SliceIndex$LT$$u5b$T$u5d$$GT$$GT$13get_unchecked17h1c5dc27a0deb5ffcE
	movq	%rax, -48(%rbp)
	movq	-48(%rbp), %rax
	movq	%rax, -8(%rbp)
LBB114_5:
	movq	-8(%rbp), %rax
	addq	$48, %rsp
	popq	%rbp
	retq
	.cfi_endproc

	.p2align	4, 0x90
__ZN69_$LT$core..option..Option$LT$T$GT$$u20$as$u20$core..ops..try..Try$GT$10from_error17hac879488a875ee79E:
	.cfi_startproc
	pushq	%rbp
	.cfi_def_cfa_offset 16
	.cfi_offset %rbp, -16
	movq	%rsp, %rbp
	.cfi_def_cfa_register %rbp
	pushq	%rax
	movl	$0, -8(%rbp)
	movl	-8(%rbp), %eax
	movl	-4(%rbp), %edx
	addq	$8, %rsp
	popq	%rbp
	retq
	.cfi_endproc

	.p2align	4, 0x90
__ZN69_$LT$core..option..Option$LT$T$GT$$u20$as$u20$core..ops..try..Try$GT$11into_result17h3b500c1422c3abeeE:
	.cfi_startproc
	pushq	%rbp
	.cfi_def_cfa_offset 16
	.cfi_offset %rbp, -16
	movq	%rsp, %rbp
	.cfi_def_cfa_register %rbp
	subq	$16, %rsp
	callq	__ZN4core6option15Option$LT$T$GT$5ok_or17hc932bb79514afc25E
	movq	%rax, -8(%rbp)
	movq	-8(%rbp), %rax
	addq	$16, %rsp
	popq	%rbp
	retq
	.cfi_endproc

	.p2align	4, 0x90
__ZN75_$LT$core..str..Chars$u20$as$u20$core..iter..traits..iterator..Iterator$GT$4next17h11499d32cccb4ca5E:
	.cfi_startproc
	pushq	%rbp
	.cfi_def_cfa_offset 16
	.cfi_offset %rbp, -16
	movq	%rsp, %rbp
	.cfi_def_cfa_register %rbp
	subq	$16, %rsp
	callq	__ZN4core3str15next_code_point17h84cd6e0d748d4253E
	movl	%eax, -4(%rbp)
	movl	%edx, -8(%rbp)
	movl	-4(%rbp), %edi
	movl	-8(%rbp), %esi
	callq	__ZN4core6option15Option$LT$T$GT$3map17h667fc0e9efe590b4E
	movl	%eax, -12(%rbp)
	movl	-12(%rbp), %eax
	addq	$16, %rsp
	popq	%rbp
	retq
	.cfi_endproc

	.p2align	4, 0x90
__ZN75_$LT$core..str..Chars$u20$as$u20$core..iter..traits..iterator..Iterator$GT$4next28_$u7b$$u7b$closure$u7d$$u7d$17h674e11fc928efc35E:
	.cfi_startproc
	pushq	%rbp
	.cfi_def_cfa_offset 16
	.cfi_offset %rbp, -16
	movq	%rsp, %rbp
	.cfi_def_cfa_register %rbp
	subq	$16, %rsp
	callq	__ZN4core4char7convert18from_u32_unchecked17hfd14c8bb81c2235fE
	movl	%eax, -4(%rbp)
	movl	-4(%rbp), %eax
	addq	$16, %rsp
	popq	%rbp
	retq
	.cfi_endproc

	.p2align	4, 0x90
__ZN77_$LT$alloc..raw_vec..RawVec$LT$T$C$A$GT$$u20$as$u20$core..ops..drop..Drop$GT$4drop17h9e847aeef3f56276E:
	.cfi_startproc
	pushq	%rbp
	.cfi_def_cfa_offset 16
	.cfi_offset %rbp, -16
	movq	%rsp, %rbp
	.cfi_def_cfa_register %rbp
	subq	$48, %rsp
	leaq	-24(%rbp), %rax
	movq	%rdi, -40(%rbp)
	movq	%rax, %rdi
	movq	-40(%rbp), %rsi
	callq	__ZN5alloc7raw_vec19RawVec$LT$T$C$A$GT$14current_memory17hf77830fdcb8c0323E
	xorl	%eax, %eax
	movl	%eax, %ecx
	cmpq	$0, -24(%rbp)
	movl	$1, %edx
	cmovbeq	%rcx, %rdx
	cmpq	$1, %rdx
	je	LBB119_3
	jmp	LBB119_5
LBB119_3:
	movq	-24(%rbp), %rsi
	movq	-16(%rbp), %rdx
	movq	-8(%rbp), %rcx
	movq	-40(%rbp), %rax
	movq	%rax, %rdi
	callq	__ZN62_$LT$alloc..alloc..Global$u20$as$u20$core..alloc..AllocRef$GT$7dealloc17h1c2496e6c912d52eE
	jmp	LBB119_5
LBB119_5:
	addq	$48, %rsp
	popq	%rbp
	retq
	.cfi_endproc

	.p2align	4, 0x90
__ZN80_$LT$core..str..pattern..StrSearcher$u20$as$u20$core..str..pattern..Searcher$GT$10next_match17h87fece83177b73cdE:
	.cfi_startproc
	pushq	%rbp
	.cfi_def_cfa_offset 16
	.cfi_offset %rbp, -16
	movq	%rsp, %rbp
	.cfi_def_cfa_register %rbp
	subq	$224, %rsp
	movq	%rdi, %rax
	movq	32(%rsi), %rcx
	testq	%rcx, %rcx
	movq	%rsi, -112(%rbp)
	movq	%rdi, -120(%rbp)
	movq	%rax, -128(%rbp)
	je	LBB120_3
	jmp	LBB120_21
LBB120_21:
	movq	-112(%rbp), %rax
	addq	$32, %rax
	addq	$8, %rax
	movq	-112(%rbp), %rcx
	cmpq	$-1, 88(%rcx)
	movq	%rax, -136(%rbp)
	je	LBB120_13
	jmp	LBB120_12
	ud2
LBB120_3:
	jmp	LBB120_4
LBB120_4:
	leaq	-104(%rbp), %rdi
	movq	-112(%rbp), %rsi
	callq	__ZN80_$LT$core..str..pattern..StrSearcher$u20$as$u20$core..str..pattern..Searcher$GT$4next17hdf4fc27454ee14b6E
	movq	-104(%rbp), %rax
	testq	%rax, %rax
	movq	%rax, -144(%rbp)
	je	LBB120_8
	jmp	LBB120_22
LBB120_22:
	movq	-144(%rbp), %rax
	subq	$1, %rax
	je	LBB120_6
	jmp	LBB120_23
LBB120_23:
	jmp	LBB120_11
LBB120_6:
	jmp	LBB120_4
	ud2
LBB120_8:
	movq	-96(%rbp), %rax
	movq	-88(%rbp), %rcx
	movq	%rax, -80(%rbp)
	movq	%rcx, -72(%rbp)
	movq	-80(%rbp), %rax
	movq	-72(%rbp), %rcx
	movq	-120(%rbp), %rdx
	movq	%rax, 8(%rdx)
	movq	%rcx, 16(%rdx)
	movq	$1, (%rdx)
	jmp	LBB120_10
LBB120_9:
	movq	-128(%rbp), %rax
	addq	$224, %rsp
	popq	%rbp
	retq
LBB120_10:
	jmp	LBB120_9
LBB120_11:
	movq	-120(%rbp), %rax
	movq	$0, (%rax)
	jmp	LBB120_10
LBB120_12:
	movq	-112(%rbp), %rax
	movq	(%rax), %rcx
	movq	8(%rax), %rdx
	movq	%rcx, -64(%rbp)
	movq	%rdx, -56(%rbp)
	movq	-64(%rbp), %rdx
	movq	-56(%rbp), %rcx
	movq	%rdx, -152(%rbp)
	movq	%rcx, -160(%rbp)
	jmp	LBB120_17
LBB120_13:
	movq	-112(%rbp), %rax
	movq	(%rax), %rcx
	movq	8(%rax), %rdx
	movq	%rcx, -48(%rbp)
	movq	%rdx, -40(%rbp)
	movq	-48(%rbp), %rdx
	movq	-40(%rbp), %rcx
	movq	%rdx, -168(%rbp)
	movq	%rcx, -176(%rbp)
	movq	-112(%rbp), %rax
	movq	16(%rax), %rcx
	movq	24(%rax), %rdx
	movq	%rcx, -16(%rbp)
	movq	%rdx, -8(%rbp)
	movq	-16(%rbp), %r8
	movq	-8(%rbp), %r9
	movq	%r8, -184(%rbp)
	movq	%r9, -192(%rbp)
	movq	-120(%rbp), %rdi
	movq	-136(%rbp), %rsi
	movq	-168(%rbp), %rdx
	movq	-176(%rbp), %rcx
	movq	-184(%rbp), %r8
	movq	-192(%rbp), %r9
	movl	$1, (%rsp)
	callq	__ZN4core3str7pattern14TwoWaySearcher4next17h5981facddec2d063E
	jmp	LBB120_20
LBB120_17:
	movq	-112(%rbp), %rax
	movq	16(%rax), %rcx
	movq	24(%rax), %rdx
	movq	%rcx, -32(%rbp)
	movq	%rdx, -24(%rbp)
	movq	-32(%rbp), %r8
	movq	-24(%rbp), %r9
	movq	%r8, -200(%rbp)
	movq	%r9, -208(%rbp)
	xorl	%eax, %eax
	movq	-120(%rbp), %rdi
	movq	-136(%rbp), %rsi
	movq	-152(%rbp), %rdx
	movq	-160(%rbp), %rcx
	movq	-200(%rbp), %r8
	movq	-208(%rbp), %r9
	movl	$0, (%rsp)
	movl	%eax, -212(%rbp)
	callq	__ZN4core3str7pattern14TwoWaySearcher4next17h5981facddec2d063E
	jmp	LBB120_20
LBB120_20:
	jmp	LBB120_9
	.cfi_endproc

	.p2align	4, 0x90
__ZN80_$LT$core..str..pattern..StrSearcher$u20$as$u20$core..str..pattern..Searcher$GT$4next17hdf4fc27454ee14b6E:
	.cfi_startproc
	pushq	%rbp
	.cfi_def_cfa_offset 16
	.cfi_offset %rbp, -16
	movq	%rsp, %rbp
	.cfi_def_cfa_register %rbp
	subq	$288, %rsp
	movq	%rdi, %rax
	movq	32(%rsi), %rcx
	testq	%rcx, %rcx
	movq	%rsi, -128(%rbp)
	movq	%rdi, -136(%rbp)
	movq	%rax, -144(%rbp)
	je	LBB121_3
	jmp	LBB121_29
LBB121_29:
	movq	-128(%rbp), %rax
	addq	$32, %rax
	addq	$8, %rax
	movq	-128(%rbp), %rcx
	movq	72(%rcx), %rdx
	movq	(%rcx), %rdi
	movq	8(%rcx), %rsi
	movq	%rax, -152(%rbp)
	movq	%rdx, -160(%rbp)
	callq	__ZN4core3str21_$LT$impl$u20$str$GT$3len17he76de78a92e4279cE
	movq	%rax, -168(%rbp)
	jmp	LBB121_14
	ud2
LBB121_3:
	leaq	l___unnamed_8(%rip), %rax
	movq	-128(%rbp), %rcx
	addq	$32, %rcx
	addq	$8, %rcx
	movq	-128(%rbp), %rdx
	movb	56(%rdx), %sil
	movb	56(%rdx), %dil
	xorb	$-1, %dil
	andb	$1, %dil
	movb	%dil, 56(%rdx)
	movq	40(%rdx), %r8
	movq	(%rdx), %rdi
	movq	8(%rdx), %r9
	movq	%r8, -96(%rbp)
	movq	-96(%rbp), %rdx
	movb	%sil, -169(%rbp)
	movq	%r9, %rsi
	movq	%rcx, -184(%rbp)
	movq	%rax, %rcx
	movq	%r8, -192(%rbp)
	callq	__ZN4core3str6traits66_$LT$impl$u20$core..ops..index..Index$LT$I$GT$$u20$for$u20$str$GT$5index17hc94f9c6fe9657803E
	movq	%rax, -200(%rbp)
	movq	%rdx, -208(%rbp)
	movq	-200(%rbp), %rdi
	movq	-208(%rbp), %rsi
	callq	__ZN4core3str21_$LT$impl$u20$str$GT$5chars17h2844950d372cb1deE
	movq	%rdx, -104(%rbp)
	movq	%rax, -112(%rbp)
	leaq	-112(%rbp), %rdi
	callq	__ZN75_$LT$core..str..Chars$u20$as$u20$core..iter..traits..iterator..Iterator$GT$4next17h11499d32cccb4ca5E
	movl	%eax, -116(%rbp)
	movb	-169(%rbp), %al
	testb	$1, %al
	jne	LBB121_9
	jmp	LBB121_10
LBB121_7:
	movl	-116(%rbp), %edi
	callq	__ZN4core4char7methods22_$LT$impl$u20$char$GT$8len_utf817h964dfe1efdef03c3E
	movq	%rax, -216(%rbp)
	jmp	LBB121_12
	ud2
LBB121_9:
	movq	-136(%rbp), %rax
	movq	-192(%rbp), %rcx
	movq	%rcx, 8(%rax)
	movq	%rcx, 16(%rax)
	movq	$0, (%rax)
	jmp	LBB121_13
LBB121_10:
	movl	-116(%rbp), %eax
	addl	$-1114112, %eax
	setne	%cl
	movzbl	%cl, %edx
	movl	%edx, %esi
	je	LBB121_11
	jmp	LBB121_30
LBB121_30:
	jmp	LBB121_7
LBB121_11:
	movq	-136(%rbp), %rax
	movq	$2, (%rax)
	jmp	LBB121_13
LBB121_12:
	movq	-216(%rbp), %rax
	movq	-184(%rbp), %rcx
	addq	(%rcx), %rax
	movq	%rax, (%rcx)
	movq	(%rcx), %rax
	movq	-136(%rbp), %rdx
	movq	-192(%rbp), %rsi
	movq	%rsi, 8(%rdx)
	movq	%rax, 16(%rdx)
	movq	$1, (%rdx)
LBB121_13:
	jmp	LBB121_17
LBB121_14:
	movq	-160(%rbp), %rax
	movq	-168(%rbp), %rcx
	cmpq	%rcx, %rax
	je	LBB121_16
	movq	-152(%rbp), %rax
	movq	48(%rax), %rcx
	subq	$-1, %rcx
	sete	%dl
	movq	-128(%rbp), %rsi
	movq	(%rsi), %rdi
	movq	8(%rsi), %r8
	movq	%rdi, -32(%rbp)
	movq	%r8, -24(%rbp)
	movq	-32(%rbp), %rdi
	movq	-24(%rbp), %r8
	movb	%dl, -217(%rbp)
	movq	%rdi, -232(%rbp)
	movq	%r8, -240(%rbp)
	jmp	LBB121_18
LBB121_16:
	movq	-136(%rbp), %rax
	movq	$2, (%rax)
LBB121_17:
	movq	-144(%rbp), %rax
	addq	$288, %rsp
	popq	%rbp
	retq
LBB121_18:
	movq	-128(%rbp), %rax
	movq	16(%rax), %rcx
	movq	24(%rax), %rdx
	movq	%rcx, -16(%rbp)
	movq	%rdx, -8(%rbp)
	movq	-16(%rbp), %r8
	movq	-8(%rbp), %r9
	movq	%r8, -248(%rbp)
	movq	%r9, -256(%rbp)
	movb	-217(%rbp), %al
	movzbl	%al, %ecx
	andl	$1, %ecx
	movq	%rsp, %rdx
	movl	%ecx, (%rdx)
	leaq	-88(%rbp), %rdi
	movq	-152(%rbp), %rsi
	movq	-232(%rbp), %rdx
	movq	-240(%rbp), %rcx
	movq	-248(%rbp), %r8
	movq	-256(%rbp), %r9
	callq	__ZN4core3str7pattern14TwoWaySearcher4next17h95d953d513b13415E
	cmpq	$1, -88(%rbp)
	je	LBB121_22
	movq	-88(%rbp), %rax
	movq	%rax, -56(%rbp)
	movq	-80(%rbp), %rax
	movq	%rax, -48(%rbp)
	movq	-72(%rbp), %rax
	movq	%rax, -40(%rbp)
	movq	-56(%rbp), %rax
	movq	-136(%rbp), %rcx
	movq	%rax, (%rcx)
	movq	-48(%rbp), %rax
	movq	%rax, 8(%rcx)
	movq	-40(%rbp), %rax
	movq	%rax, 16(%rcx)
	jmp	LBB121_28
LBB121_22:
	movq	-80(%rbp), %rax
	movq	-72(%rbp), %rcx
	movq	%rcx, -64(%rbp)
	movq	%rax, -264(%rbp)
LBB121_23:
	movq	-128(%rbp), %rax
	movq	(%rax), %rdi
	movq	8(%rax), %rsi
	movq	-64(%rbp), %rdx
	callq	__ZN4core3str21_$LT$impl$u20$str$GT$16is_char_boundary17hcbfc6a8dbbbf5877E
	movb	%al, -265(%rbp)
	movb	-265(%rbp), %al
	xorb	$-1, %al
	testb	$1, %al
	jne	LBB121_26
	movq	-64(%rbp), %rdi
	movq	-152(%rbp), %rax
	movq	32(%rax), %rsi
	callq	__ZN4core3cmp3max17hd98a12f47b2301beE
	movq	%rax, -280(%rbp)
	jmp	LBB121_27
LBB121_26:
	movq	-64(%rbp), %rax
	addq	$1, %rax
	movq	%rax, -64(%rbp)
	jmp	LBB121_23
LBB121_27:
	movq	-152(%rbp), %rax
	movq	-280(%rbp), %rcx
	movq	%rcx, 32(%rax)
	movq	-64(%rbp), %rdx
	movq	-136(%rbp), %rsi
	movq	-264(%rbp), %rdi
	movq	%rdi, 8(%rsi)
	movq	%rdx, 16(%rsi)
	movq	$1, (%rsi)
LBB121_28:
	jmp	LBB121_17
	.cfi_endproc

	.p2align	4, 0x90
__ZN84_$LT$core..str..pattern..MatchOnly$u20$as$u20$core..str..pattern..TwoWayStrategy$GT$16use_early_reject17hdba635464d85e3bcE:
	.cfi_startproc
	pushq	%rbp
	.cfi_def_cfa_offset 16
	.cfi_offset %rbp, -16
	movq	%rsp, %rbp
	.cfi_def_cfa_register %rbp
	xorl	%eax, %eax
	andb	$1, %al
	movzbl	%al, %eax
	popq	%rbp
	retq
	.cfi_endproc

	.p2align	4, 0x90
__ZN84_$LT$core..str..pattern..MatchOnly$u20$as$u20$core..str..pattern..TwoWayStrategy$GT$8matching17h2ad84de737c31c0dE:
	.cfi_startproc
	pushq	%rbp
	.cfi_def_cfa_offset 16
	.cfi_offset %rbp, -16
	movq	%rsp, %rbp
	.cfi_def_cfa_register %rbp
	subq	$16, %rsp
	movq	%rdi, %rax
	movq	%rsi, -16(%rbp)
	movq	%rdx, -8(%rbp)
	movq	-16(%rbp), %rcx
	movq	-8(%rbp), %rdx
	movq	%rcx, 8(%rdi)
	movq	%rdx, 16(%rdi)
	movq	$1, (%rdi)
	addq	$16, %rsp
	popq	%rbp
	retq
	.cfi_endproc

	.p2align	4, 0x90
__ZN84_$LT$core..str..pattern..MatchOnly$u20$as$u20$core..str..pattern..TwoWayStrategy$GT$9rejecting17h885d65c5a75ca5cfE:
	.cfi_startproc
	pushq	%rbp
	.cfi_def_cfa_offset 16
	.cfi_offset %rbp, -16
	movq	%rsp, %rbp
	.cfi_def_cfa_register %rbp
	movq	%rdi, %rax
	movq	$0, (%rdi)
	popq	%rbp
	retq
	.cfi_endproc

	.p2align	4, 0x90
__ZN85_$LT$core..slice..Iter$LT$T$GT$$u20$as$u20$core..iter..traits..iterator..Iterator$GT$4next17hf6eb5f7f4343039eE:
	.cfi_startproc
	pushq	%rbp
	.cfi_def_cfa_offset 16
	.cfi_offset %rbp, -16
	movq	%rsp, %rbp
	.cfi_def_cfa_register %rbp
	subq	$80, %rsp
	movq	(%rdi), %rax
	movq	%rdi, -40(%rbp)
	movq	%rax, %rdi
	callq	__ZN4core3ptr8non_null16NonNull$LT$T$GT$6as_ptr17h4b7b1177854f6de3E
	movq	%rax, -48(%rbp)
	movq	-48(%rbp), %rdi
	callq	__ZN4core3ptr7mut_ptr31_$LT$impl$u20$$BP$mut$u20$T$GT$7is_null17he8275fec89e3a72cE
	movq	$1, -24(%rbp)
	movq	-24(%rbp), %rax
	movq	%rax, -56(%rbp)
	movq	-56(%rbp), %rax
	cmpq	$0, %rax
	jne	LBB125_6
	jmp	LBB125_9
LBB125_6:
	movq	-40(%rbp), %rax
	movq	8(%rax), %rdi
	callq	__ZN4core3ptr9const_ptr33_$LT$impl$u20$$BP$const$u20$T$GT$7is_null17h73d3db8ee9618c12E
	jmp	LBB125_9
LBB125_9:
	movq	-40(%rbp), %rax
	movq	(%rax), %rdi
	callq	__ZN4core3ptr8non_null16NonNull$LT$T$GT$6as_ptr17h4b7b1177854f6de3E
	movq	%rax, -64(%rbp)
	movq	-64(%rbp), %rax
	movq	-40(%rbp), %rcx
	cmpq	8(%rcx), %rax
	je	LBB125_15
	movq	$1, -8(%rbp)
	cmpq	$0, -8(%rbp)
	je	LBB125_13
	movq	-40(%rbp), %rax
	movq	(%rax), %rdi
	callq	__ZN4core3ptr8non_null16NonNull$LT$T$GT$6as_ptr17h4b7b1177854f6de3E
	movq	-40(%rbp), %rcx
	movq	(%rcx), %rdi
	movq	%rax, -72(%rbp)
	callq	__ZN4core3ptr8non_null16NonNull$LT$T$GT$6as_ptr17h4b7b1177854f6de3E
	movq	%rax, %rdi
	movl	$1, %esi
	callq	__ZN4core3ptr7mut_ptr31_$LT$impl$u20$$BP$mut$u20$T$GT$6offset17h05b887f302bca38cE
	movq	%rax, %rdi
	callq	__ZN4core3ptr8non_null16NonNull$LT$T$GT$13new_unchecked17hfa58c45adcfa38ecE
	movq	-40(%rbp), %rcx
	movq	%rax, (%rcx)
	movq	-72(%rbp), %rax
	movq	%rax, -16(%rbp)
	jmp	LBB125_14
LBB125_13:
	movq	-40(%rbp), %rax
	movq	8(%rax), %rdi
	movq	$-1, %rsi
	callq	__ZN4core3ptr9const_ptr33_$LT$impl$u20$$BP$const$u20$T$GT$15wrapping_offset17haa733f03f54a804dE
	movq	-40(%rbp), %rcx
	movq	%rax, 8(%rcx)
	movq	(%rcx), %rdi
	callq	__ZN4core3ptr8non_null16NonNull$LT$T$GT$6as_ptr17h4b7b1177854f6de3E
	movq	%rax, -16(%rbp)
LBB125_14:
	movq	-16(%rbp), %rax
	movq	%rax, -80(%rbp)
	jmp	LBB125_16
LBB125_15:
	movq	$0, -32(%rbp)
	jmp	LBB125_17
LBB125_16:
	movq	-80(%rbp), %rax
	movq	%rax, -32(%rbp)
LBB125_17:
	movq	-32(%rbp), %rax
	addq	$80, %rsp
	popq	%rbp
	retq
	.cfi_endproc

	.p2align	4, 0x90
__ZN89_$LT$core..str..pattern..RejectAndMatch$u20$as$u20$core..str..pattern..TwoWayStrategy$GT$16use_early_reject17h19c5d8a1eceb932eE:
	.cfi_startproc
	pushq	%rbp
	.cfi_def_cfa_offset 16
	.cfi_offset %rbp, -16
	movq	%rsp, %rbp
	.cfi_def_cfa_register %rbp
	movb	$1, %al
	andb	$1, %al
	movzbl	%al, %eax
	popq	%rbp
	retq
	.cfi_endproc

	.p2align	4, 0x90
__ZN89_$LT$core..str..pattern..RejectAndMatch$u20$as$u20$core..str..pattern..TwoWayStrategy$GT$8matching17h65aeb7c4f85cc690E:
	.cfi_startproc
	pushq	%rbp
	.cfi_def_cfa_offset 16
	.cfi_offset %rbp, -16
	movq	%rsp, %rbp
	.cfi_def_cfa_register %rbp
	movq	%rdi, %rax
	movq	%rsi, 8(%rdi)
	movq	%rdx, 16(%rdi)
	movq	$0, (%rdi)
	popq	%rbp
	retq
	.cfi_endproc

	.p2align	4, 0x90
__ZN89_$LT$core..str..pattern..RejectAndMatch$u20$as$u20$core..str..pattern..TwoWayStrategy$GT$9rejecting17h0333173c6069218bE:
	.cfi_startproc
	pushq	%rbp
	.cfi_def_cfa_offset 16
	.cfi_offset %rbp, -16
	movq	%rsp, %rbp
	.cfi_def_cfa_register %rbp
	movq	%rdi, %rax
	movq	%rsi, 8(%rdi)
	movq	%rdx, 16(%rdi)
	movq	$1, (%rdi)
	popq	%rbp
	retq
	.cfi_endproc

	.p2align	4, 0x90
__ZN93_$LT$core..iter..adapters..Rev$LT$I$GT$$u20$as$u20$core..iter..traits..iterator..Iterator$GT$4next17hbcc918320e281f44E:
	.cfi_startproc
	pushq	%rbp
	.cfi_def_cfa_offset 16
	.cfi_offset %rbp, -16
	movq	%rsp, %rbp
	.cfi_def_cfa_register %rbp
	subq	$16, %rsp
	callq	__ZN4core4iter5range116_$LT$impl$u20$core..iter..traits..double_ended..DoubleEndedIterator$u20$for$u20$core..ops..range..Range$LT$A$GT$$GT$9next_back17h8e93d2574a1a8479E
	movq	%rax, -8(%rbp)
	movq	%rdx, -16(%rbp)
	movq	-8(%rbp), %rax
	movq	-16(%rbp), %rdx
	addq	$16, %rsp
	popq	%rbp
	retq
	.cfi_endproc

	.p2align	4, 0x90
__ZN18build_script_build4main17hd8f54541262df7fcE:
Lfunc_begin10:
	.cfi_startproc
	.cfi_personality 155, _rust_eh_personality
	.cfi_lsda 16, Lexception10
	pushq	%rbp
	.cfi_def_cfa_offset 16
	.cfi_offset %rbp, -16
	movq	%rsp, %rbp
	.cfi_def_cfa_register %rbp
	subq	$352, %rsp
	leaq	l___unnamed_9(%rip), %rax
	leaq	-240(%rbp), %rdi
	movq	%rax, %rsi
	movl	$6, %edx
	callq	__ZN3std3env3var17h9e226cca444203b0E
	jmp	LBB130_2
LBB130_1:
	movq	-16(%rbp), %rdi
	callq	__Unwind_Resume
	ud2
LBB130_2:
	leaq	l___unnamed_10(%rip), %rax
	leaq	l___unnamed_11(%rip), %rcx
	leaq	-264(%rbp), %rdi
	leaq	-240(%rbp), %rsi
	movq	%rax, %rdx
	movl	$18, %eax
	movq	%rcx, -280(%rbp)
	movq	%rax, %rcx
	movq	-280(%rbp), %r8
	callq	__ZN4core6result19Result$LT$T$C$E$GT$6expect17hfb03497764ce7f92E
Ltmp36:
	leaq	-264(%rbp), %rdi
	callq	__ZN65_$LT$alloc..string..String$u20$as$u20$core..ops..deref..Deref$GT$5deref17h4d29ac3b3e691c69E
Ltmp37:
	movq	%rdx, -288(%rbp)
	movq	%rax, -296(%rbp)
	jmp	LBB130_4
LBB130_4:
Ltmp38:
	leaq	l___unnamed_12(%rip), %rdx
	movl	$13, %ecx
	movq	-296(%rbp), %rdi
	movq	-288(%rbp), %rsi
	callq	__ZN4core3str21_$LT$impl$u20$str$GT$8contains17hf772b80836bb19e6E
Ltmp39:
	movb	%al, -297(%rbp)
	jmp	LBB130_6
LBB130_5:
	leaq	-264(%rbp), %rdi
	callq	__ZN4core3ptr13drop_in_place17hcdf25bdcd5603d7eE
	jmp	LBB130_1
LBB130_6:
	movb	-297(%rbp), %al
	testb	$1, %al
	jne	LBB130_8
	jmp	LBB130_7
LBB130_7:
Ltmp40:
	leaq	-264(%rbp), %rdi
	callq	__ZN65_$LT$alloc..string..String$u20$as$u20$core..ops..deref..Deref$GT$5deref17h4d29ac3b3e691c69E
Ltmp41:
	movq	%rdx, -312(%rbp)
	movq	%rax, -320(%rbp)
	jmp	LBB130_13
LBB130_8:
	movq	l___unnamed_13(%rip), %rsi
	movq	l___unnamed_14(%rip), %rcx
Ltmp56:
	xorl	%eax, %eax
	movl	%eax, %r8d
	leaq	-208(%rbp), %rdi
	movl	$1, %edx
	callq	__ZN4core3fmt9Arguments6new_v117h3a597a4639ee0433E
Ltmp57:
	jmp	LBB130_9
LBB130_9:
Ltmp58:
	leaq	-208(%rbp), %rdi
	callq	__ZN3std2io5stdio6_print17h84d1497a7551d848E
Ltmp59:
	jmp	LBB130_10
LBB130_10:
	movq	l___unnamed_15(%rip), %rsi
	movq	l___unnamed_14(%rip), %rcx
Ltmp60:
	xorl	%eax, %eax
	movl	%eax, %r8d
	leaq	-160(%rbp), %rdi
	movl	$1, %edx
	callq	__ZN4core3fmt9Arguments6new_v117h3a597a4639ee0433E
Ltmp61:
	jmp	LBB130_11
LBB130_11:
Ltmp62:
	leaq	-160(%rbp), %rdi
	callq	__ZN3std2io5stdio6_print17h84d1497a7551d848E
Ltmp63:
	jmp	LBB130_12
LBB130_12:
	jmp	LBB130_27
LBB130_13:
Ltmp42:
	leaq	l___unnamed_16(%rip), %rdx
	movl	$7, %ecx
	movq	-320(%rbp), %rdi
	movq	-312(%rbp), %rsi
	callq	__ZN4core3str21_$LT$impl$u20$str$GT$8contains17hf772b80836bb19e6E
Ltmp43:
	movb	%al, -321(%rbp)
	jmp	LBB130_14
LBB130_14:
	movb	-321(%rbp), %al
	testb	$1, %al
	jne	LBB130_16
	jmp	LBB130_15
LBB130_15:
Ltmp44:
	leaq	-264(%rbp), %rdi
	callq	__ZN65_$LT$alloc..string..String$u20$as$u20$core..ops..deref..Deref$GT$5deref17h4d29ac3b3e691c69E
Ltmp45:
	movq	%rdx, -336(%rbp)
	movq	%rax, -344(%rbp)
	jmp	LBB130_19
LBB130_16:
	movq	l___unnamed_17(%rip), %rsi
	movq	l___unnamed_14(%rip), %rcx
Ltmp52:
	xorl	%eax, %eax
	movl	%eax, %r8d
	leaq	-112(%rbp), %rdi
	movl	$1, %edx
	callq	__ZN4core3fmt9Arguments6new_v117h3a597a4639ee0433E
Ltmp53:
	jmp	LBB130_17
LBB130_17:
Ltmp54:
	leaq	-112(%rbp), %rdi
	callq	__ZN3std2io5stdio6_print17h84d1497a7551d848E
Ltmp55:
	jmp	LBB130_18
LBB130_18:
	jmp	LBB130_26
LBB130_19:
Ltmp46:
	leaq	l___unnamed_18(%rip), %rdx
	movl	$9, %ecx
	movq	-344(%rbp), %rdi
	movq	-336(%rbp), %rsi
	callq	__ZN4core3str21_$LT$impl$u20$str$GT$8contains17hf772b80836bb19e6E
Ltmp47:
	movb	%al, -345(%rbp)
	jmp	LBB130_20
LBB130_20:
	movb	-345(%rbp), %al
	testb	$1, %al
	jne	LBB130_22
	jmp	LBB130_21
LBB130_21:
	jmp	LBB130_25
LBB130_22:
	movq	l___unnamed_19(%rip), %rsi
	movq	l___unnamed_14(%rip), %rcx
Ltmp48:
	xorl	%eax, %eax
	movl	%eax, %r8d
	leaq	-64(%rbp), %rdi
	movl	$1, %edx
	callq	__ZN4core3fmt9Arguments6new_v117h3a597a4639ee0433E
Ltmp49:
	jmp	LBB130_23
LBB130_23:
Ltmp50:
	leaq	-64(%rbp), %rdi
	callq	__ZN3std2io5stdio6_print17h84d1497a7551d848E
Ltmp51:
	jmp	LBB130_24
LBB130_24:
	jmp	LBB130_25
LBB130_25:
	jmp	LBB130_26
LBB130_26:
	jmp	LBB130_27
LBB130_27:
	leaq	-264(%rbp), %rdi
	callq	__ZN4core3ptr13drop_in_place17hcdf25bdcd5603d7eE
	addq	$352, %rsp
	popq	%rbp
	retq
LBB130_29:
Ltmp64:
	movq	%rax, -16(%rbp)
	movl	%edx, -8(%rbp)
	jmp	LBB130_5
Lfunc_end10:
	.cfi_endproc
	.section	__TEXT,__gcc_except_tab
	.p2align	2
GCC_except_table130:
Lexception10:
	.byte	255
	.byte	255
	.byte	1
	.uleb128 Lcst_end10-Lcst_begin10
Lcst_begin10:
	.uleb128 Lfunc_begin10-Lfunc_begin10
	.uleb128 Ltmp36-Lfunc_begin10
	.byte	0
	.byte	0
	.uleb128 Ltmp36-Lfunc_begin10
	.uleb128 Ltmp39-Ltmp36
	.uleb128 Ltmp64-Lfunc_begin10
	.byte	0
	.uleb128 Ltmp39-Lfunc_begin10
	.uleb128 Ltmp40-Ltmp39
	.byte	0
	.byte	0
	.uleb128 Ltmp40-Lfunc_begin10
	.uleb128 Ltmp51-Ltmp40
	.uleb128 Ltmp64-Lfunc_begin10
	.byte	0
	.uleb128 Ltmp51-Lfunc_begin10
	.uleb128 Lfunc_end10-Ltmp51
	.byte	0
	.byte	0
Lcst_end10:
	.p2align	2

	.section	__TEXT,__text,regular,pure_instructions
	.globl	_main
	.p2align	4, 0x90
_main:
	.cfi_startproc
	pushq	%rbp
	.cfi_def_cfa_offset 16
	.cfi_offset %rbp, -16
	movq	%rsp, %rbp
	.cfi_def_cfa_register %rbp
	subq	$16, %rsp
	movslq	%edi, %rax
	leaq	__ZN18build_script_build4main17hd8f54541262df7fcE(%rip), %rdi
	movq	%rsi, -8(%rbp)
	movq	%rax, %rsi
	movq	-8(%rbp), %rdx
	callq	__ZN3std2rt10lang_start17hba28573eb28913e7E
	addq	$16, %rsp
	popq	%rbp
	retq
	.cfi_endproc

	.section	__DATA,__const
	.p2align	3
l___unnamed_1:
	.quad	__ZN4core3ptr13drop_in_place17hab0e3f779963f793E
	.quad	8
	.quad	8
	.quad	__ZN3std2rt10lang_start28_$u7b$$u7b$closure$u7d$$u7d$17hb61751deb4b07088E
	.quad	__ZN3std2rt10lang_start28_$u7b$$u7b$closure$u7d$$u7d$17hb61751deb4b07088E
	.quad	__ZN4core3ops8function6FnOnce40call_once$u7b$$u7b$vtable.shim$u7d$$u7d$17hc74f969082996797E

	.section	__TEXT,__const
l___unnamed_20:
	.ascii	"/rustc/6c8927b0cf80ceee19386026cf9d7fd4fd9d486f/src/libcore/str/mod.rs"

	.section	__DATA,__const
	.p2align	3
l___unnamed_2:
	.quad	l___unnamed_20
	.asciz	"F\000\000\000\000\000\000\000\027\b\000\000/\000\000"

	.section	__TEXT,__const
l___unnamed_21:
	.ascii	"/rustc/6c8927b0cf80ceee19386026cf9d7fd4fd9d486f/src/libcore/str/pattern.rs"

	.section	__DATA,__const
	.p2align	3
l___unnamed_3:
	.quad	l___unnamed_21
	.asciz	"J\000\000\000\000\000\000\0004\005\000\000\024\000\000"

	.p2align	3
l___unnamed_4:
	.quad	l___unnamed_21
	.asciz	"J\000\000\000\000\000\000\0004\005\000\000!\000\000"

	.p2align	3
l___unnamed_5:
	.quad	l___unnamed_21
	.asciz	"J\000\000\000\000\000\000\000@\005\000\000\024\000\000"

	.p2align	3
l___unnamed_6:
	.quad	l___unnamed_21
	.asciz	"J\000\000\000\000\000\000\000@\005\000\000!\000\000"

	.p2align	3
l___unnamed_7:
	.quad	__ZN4core3ptr13drop_in_place17h84fad21df3088046E
	.quad	24
	.quad	8
	.quad	__ZN55_$LT$std..env..VarError$u20$as$u20$core..fmt..Debug$GT$3fmt17hd989a661295131d7E

	.p2align	3
l___unnamed_8:
	.quad	l___unnamed_21
	.asciz	"J\000\000\000\000\000\000\000\315\003\000\000\027\000\000"

	.section	__TEXT,__const
l___unnamed_9:
	.ascii	"TARGET"

l___unnamed_10:
	.ascii	"TARGET was not set"

l___unnamed_22:
	.ascii	"/Users/yingyuhang/.cargo/registry/src/github.com-1ecc6299db9ec823/getrandom-0.1.14/build.rs"

	.section	__DATA,__const
	.p2align	3
l___unnamed_11:
	.quad	l___unnamed_22
	.asciz	"[\000\000\000\000\000\000\000\006\000\000\000%\000\000"

	.section	__TEXT,__const
l___unnamed_12:
	.ascii	"-uwp-windows-"

l___unnamed_23:
	.ascii	"cargo:rustc-link-lib=bcrypt\n"

	.section	__DATA,__const
	.p2align	3
l___unnamed_24:
	.quad	l___unnamed_23
	.asciz	"\034\000\000\000\000\000\000"

	.p2align	3
l___unnamed_13:
	.quad	l___unnamed_24

	.section	__TEXT,__const
	.p2align	3
l___unnamed_25:
	.byte	0

	.section	__DATA,__const
	.p2align	3
l___unnamed_14:
	.quad	l___unnamed_25

	.section	__TEXT,__const
l___unnamed_26:
	.ascii	"cargo:rustc-cfg=getrandom_uwp\n"

	.section	__DATA,__const
	.p2align	3
l___unnamed_27:
	.quad	l___unnamed_26
	.asciz	"\036\000\000\000\000\000\000"

	.p2align	3
l___unnamed_15:
	.quad	l___unnamed_27

	.section	__TEXT,__const
l___unnamed_16:
	.ascii	"windows"

l___unnamed_28:
	.ascii	"cargo:rustc-link-lib=advapi32\n"

	.section	__DATA,__const
	.p2align	3
l___unnamed_29:
	.quad	l___unnamed_28
	.asciz	"\036\000\000\000\000\000\000"

	.p2align	3
l___unnamed_17:
	.quad	l___unnamed_29

	.section	__TEXT,__const
l___unnamed_18:
	.ascii	"apple-ios"

l___unnamed_30:
	.ascii	"cargo:rustc-link-lib=framework=Security\n"

	.section	__DATA,__const
	.p2align	3
l___unnamed_31:
	.quad	l___unnamed_30
	.asciz	"(\000\000\000\000\000\000"

	.p2align	3
l___unnamed_19:
	.quad	l___unnamed_31

.subsections_via_symbols
